ARM Linker, RVCT2.2 [Build 686]

================================================================================

Image Symbol Table

    Local Symbols

    Symbol Name                              Value     Ov Type        Size  Object(Section)

    [Anonymous Symbol]                       0x00000000   Number         0  QtDeclarative{00040703}-753.o ABSOLUTE
    [Anonymous Symbol]                       0x00000000   Number         0  QtGallery{00010103}-221.o ABSOLUTE
    [Anonymous Symbol]                       0x00000000   Number         0  QtCore{00040703}-3692.o ABSOLUTE
    [Anonymous Symbol]                       0x00000000   Number         0  QtDeclarative{00040703}-784.o ABSOLUTE
    [Anonymous Symbol]                       0x00000000   Number         0  QtGallery{00010103}-224.o ABSOLUTE
    [Anonymous Symbol]                       0x00000000   Number         0  QtCore{00040703}-392.o ABSOLUTE
    [Anonymous Symbol]                       0x00000000   Number         0  QtDeclarative{00040703}-787.o ABSOLUTE
    [Anonymous Symbol]                       0x00000000   Number         0  QtGallery{00010103}-225.o ABSOLUTE
    [Anonymous Symbol]                       0x00000000   Number         0  QtCore{00040703}-56.o ABSOLUTE
    [Anonymous Symbol]                       0x00000000   Number         0  QtDeclarative{00040703}-873.o ABSOLUTE
    [Anonymous Symbol]                       0x00000000   Number         0  QtGallery{00010103}-226.o ABSOLUTE
    [Anonymous Symbol]                       0x00000000   Number         0  QtCore{00040703}-70.o ABSOLUTE
    [Anonymous Symbol]                       0x00000000   Number         0  QtDeclarative{00040703}-874.o ABSOLUTE
    [Anonymous Symbol]                       0x00000000   Number         0  QtGallery{00010103}-239.o ABSOLUTE
    [Anonymous Symbol]                       0x00000000   Number         0  QtCore{00040703}-741.o ABSOLUTE
    [Anonymous Symbol]                       0x00000000   Number         0  QtDeclarative{00040703}-875.o ABSOLUTE
    [Anonymous Symbol]                       0x00000000   Number         0  QtGallery{00010103}-244.o ABSOLUTE
    [Anonymous Symbol]                       0x00000000   Number         0  QtCore{00040703}-794.o ABSOLUTE
    [Anonymous Symbol]                       0x00000000   Number         0  QtDeclarative{00040703}-878.o ABSOLUTE
    [Anonymous Symbol]                       0x00000000   Number         0  QtGallery{00010103}-253.o ABSOLUTE
    [Anonymous Symbol]                       0x00000000   Number         0  QtCore{00040703}-988.o ABSOLUTE
    [Anonymous Symbol]                       0x00000000   Number         0  QtDeclarative{00040703}-881.o ABSOLUTE
    [Anonymous Symbol]                       0x00000000   Number         0  QtGallery{00010103}-254.o ABSOLUTE
    [Anonymous Symbol]                       0x00000000   Number         0  QtCore{00040703}-990.o ABSOLUTE
    [Anonymous Symbol]                       0x00000000   Number         0  QtScript{00040703}-108.o ABSOLUTE
    [Anonymous Symbol]                       0x00000000   Number         0  QtGallery{00010103}-259.o ABSOLUTE
    [Anonymous Symbol]                       0x00000000   Number         0  QtCore{00040703}-991.o ABSOLUTE
    [Anonymous Symbol]                       0x00000000   Number         0  QtScript{00040703}-166.o ABSOLUTE
    [Anonymous Symbol]                       0x00000000   Number         0  QtGallery{00010103}-263.o ABSOLUTE
    [Anonymous Symbol]                       0x00000000   Number         0  QtCore{00040703}-992.o ABSOLUTE
    [Anonymous Symbol]                       0x00000000   Number         0  QtScript{00040703}-172.o ABSOLUTE
    [Anonymous Symbol]                       0x00000000   Number         0  QtGallery{00010103}-269.o ABSOLUTE
    [Anonymous Symbol]                       0x00000000   Number         0  QtCore{00040703}-996.o ABSOLUTE
    [Anonymous Symbol]                       0x00000000   Number         0  QtScript{00040703}-174.o ABSOLUTE
    [Anonymous Symbol]                       0x00000000   Number         0  QtGallery{00010103}-276.o ABSOLUTE
    [Anonymous Symbol]                       0x00000000   Number         0  libc{00010000}-350.o ABSOLUTE
    [Anonymous Symbol]                       0x00000000   Number         0  QtScript{00040703}-21.o ABSOLUTE
    [Anonymous Symbol]                       0x00000000   Number         0  QtGallery{00010103}-277.o ABSOLUTE
    [Anonymous Symbol]                       0x00000000   Number         0  euser{000a0000}-670.o ABSOLUTE
    [Anonymous Symbol]                       0x00000000   Number         0  QtScript{00040703}-229.o ABSOLUTE
    [Anonymous Symbol]                       0x00000000   Number         0  QtGallery{00010103}-278.o ABSOLUTE
    [Anonymous Symbol]                       0x00000000   Number         0  euser{000a0000}-671.o ABSOLUTE
    [Anonymous Symbol]                       0x00000000   Number         0  QtScript{00040703}-237.o ABSOLUTE
    [Anonymous Symbol]                       0x00000000   Number         0  QtGallery{00010103}-279.o ABSOLUTE
    [Anonymous Symbol]                       0x00000000   Number         0  QtCore{00040703}-1761.o ABSOLUTE
    [Anonymous Symbol]                       0x00000000   Number         0  QtScript{00040703}-238.o ABSOLUTE
    [Anonymous Symbol]                       0x00000000   Number         0  QtGallery{00010103}-280.o ABSOLUTE
    [Anonymous Symbol]                       0x00000000   Number         0  QtCore{00040703}-1763.o ABSOLUTE
    [Anonymous Symbol]                       0x00000000   Number         0  QtScript{00040703}-261.o ABSOLUTE
    [Anonymous Symbol]                       0x00000000   Number         0  QtGallery{00010103}-285.o ABSOLUTE
    [Anonymous Symbol]                       0x00000000   Number         0  QtCore{00040703}-1764.o ABSOLUTE
    [Anonymous Symbol]                       0x00000000   Number         0  QtScript{00040703}-313.o ABSOLUTE
    [Anonymous Symbol]                       0x00000000   Number         0  QtGallery{00010103}-287.o ABSOLUTE
    [Anonymous Symbol]                       0x00000000   Number         0  QtCore{00040703}-1766.o ABSOLUTE
    [Anonymous Symbol]                       0x00000000   Number         0  QtScript{00040703}-315.o ABSOLUTE
    [Anonymous Symbol]                       0x00000000   Number         0  QtGallery{00010103}-288.o ABSOLUTE
    [Anonymous Symbol]                       0x00000000   Number         0  QtCore{00040703}-1767.o ABSOLUTE
    [Anonymous Symbol]                       0x00000000   Number         0  QtScript{00040703}-316.o ABSOLUTE
    [Anonymous Symbol]                       0x00000000   Number         0  QtGallery{00010103}-289.o ABSOLUTE
    [Anonymous Symbol]                       0x00000000   Number         0  QtCore{00040703}-1768.o ABSOLUTE
    [Anonymous Symbol]                       0x00000000   Number         0  QtScript{00040703}-43.o ABSOLUTE
    [Anonymous Symbol]                       0x00000000   Number         0  QtGallery{00010103}-290.o ABSOLUTE
    [Anonymous Symbol]                       0x00000000   Number         0  QtCore{00040703}-1773.o ABSOLUTE
    [Anonymous Symbol]                       0x00000000   Number         0  QtScript{00040703}-48.o ABSOLUTE
    [Anonymous Symbol]                       0x00000000   Number         0  QtGallery{00010103}-292.o ABSOLUTE
    [Anonymous Symbol]                       0x00000000   Number         0  QtCore{00040703}-1777.o ABSOLUTE
    [Anonymous Symbol]                       0x00000000   Number         0  QtScript{00040703}-67.o ABSOLUTE
    [Anonymous Symbol]                       0x00000000   Number         0  QtGallery{00010103}-293.o ABSOLUTE
    [Anonymous Symbol]                       0x00000000   Number         0  QtCore{00040703}-1784.o ABSOLUTE
    [Anonymous Symbol]                       0x00000000   Number         0  QtScript{00040703}-69.o ABSOLUTE
    [Anonymous Symbol]                       0x00000000   Number         0  QtGallery{00010103}-297.o ABSOLUTE
    [Anonymous Symbol]                       0x00000000   Number         0  QtCore{00040703}-1785.o ABSOLUTE
    [Anonymous Symbol]                       0x00000000   Number         0  QtScript{00040703}-73.o ABSOLUTE
    [Anonymous Symbol]                       0x00000000   Number         0  QtGallery{00010103}-3.o ABSOLUTE
    [Anonymous Symbol]                       0x00000000   Number         0  QtCore{00040703}-1789.o ABSOLUTE
    [Anonymous Symbol]                       0x00000000   Number         0  QtScript{00040703}-85.o ABSOLUTE
    [Anonymous Symbol]                       0x00000000   Number         0  QtGallery{00010103}-300.o ABSOLUTE
    [Anonymous Symbol]                       0x00000000   Number         0  QtCore{00040703}-1794.o ABSOLUTE
    [Anonymous Symbol]                       0x00000000   Number         0  QtScript{00040703}-98.o ABSOLUTE
    [Anonymous Symbol]                       0x00000000   Number         0  QtGallery{00010103}-311.o ABSOLUTE
    [Anonymous Symbol]                       0x00000000   Number         0  QtCore{00040703}-1814.o ABSOLUTE
    [Anonymous Symbol]                       0x00000000   Number         0  QtCore{00040703}-1000.o ABSOLUTE
    [Anonymous Symbol]                       0x00000000   Number         0  QtGallery{00010103}-313.o ABSOLUTE
    [Anonymous Symbol]                       0x00000000   Number         0  QtGallery{00010103}-1.o ABSOLUTE
    [Anonymous Symbol]                       0x00000000   Number         0  QtCore{00040703}-1001.o ABSOLUTE
    [Anonymous Symbol]                       0x00000000   Number         0  QtGallery{00010103}-314.o ABSOLUTE
    [Anonymous Symbol]                       0x00000000   Number         0  QtGallery{00010103}-11.o ABSOLUTE
    [Anonymous Symbol]                       0x00000000   Number         0  QtCore{00040703}-1002.o ABSOLUTE
    [Anonymous Symbol]                       0x00000000   Number         0  QtGallery{00010103}-346.o ABSOLUTE
    [Anonymous Symbol]                       0x00000000   Number         0  QtGallery{00010103}-182.o ABSOLUTE
    [Anonymous Symbol]                       0x00000000   Number         0  QtCore{00040703}-1003.o ABSOLUTE
    [Anonymous Symbol]                       0x00000000   Number         0  QtGallery{00010103}-347.o ABSOLUTE
    [Anonymous Symbol]                       0x00000000   Number         0  QtGallery{00010103}-186.o ABSOLUTE
    [Anonymous Symbol]                       0x00000000   Number         0  QtCore{00040703}-1005.o ABSOLUTE
    [Anonymous Symbol]                       0x00000000   Number         0  QtGallery{00010103}-348.o ABSOLUTE
    [Anonymous Symbol]                       0x00000000   Number         0  QtGallery{00010103}-189.o ABSOLUTE
    [Anonymous Symbol]                       0x00000000   Number         0  QtCore{00040703}-1007.o ABSOLUTE
    [Anonymous Symbol]                       0x00000000   Number         0  QtGallery{00010103}-361.o ABSOLUTE
    [Anonymous Symbol]                       0x00000000   Number         0  QtGallery{00010103}-194.o ABSOLUTE
    [Anonymous Symbol]                       0x00000000   Number         0  QtCore{00040703}-1008.o ABSOLUTE
    [Anonymous Symbol]                       0x00000000   Number         0  QtGallery{00010103}-366.o ABSOLUTE
    [Anonymous Symbol]                       0x00000000   Number         0  QtGallery{00010103}-195.o ABSOLUTE
    [Anonymous Symbol]                       0x00000000   Number         0  QtCore{00040703}-1011.o ABSOLUTE
    [Anonymous Symbol]                       0x00000000   Number         0  QtGallery{00010103}-375.o ABSOLUTE
    [Anonymous Symbol]                       0x00000000   Number         0  QtGallery{00010103}-2.o ABSOLUTE
    [Anonymous Symbol]                       0x00000000   Number         0  QtCore{00040703}-1012.o ABSOLUTE
    [Anonymous Symbol]                       0x00000000   Number         0  QtGallery{00010103}-376.o ABSOLUTE
    [Anonymous Symbol]                       0x00000000   Number         0  QtGallery{00010103}-200.o ABSOLUTE
    [Anonymous Symbol]                       0x00000000   Number         0  QtCore{00040703}-1034.o ABSOLUTE
    [Anonymous Symbol]                       0x00000000   Number         0  QtGallery{00010103}-377.o ABSOLUTE
    [Anonymous Symbol]                       0x00000000   Number         0  QtGallery{00010103}-204.o ABSOLUTE
    [Anonymous Symbol]                       0x00000000   Number         0  QtCore{00040703}-1036.o ABSOLUTE
    [Anonymous Symbol]                       0x00000000   Number         0  QtGallery{00010103}-378.o ABSOLUTE
    [Anonymous Symbol]                       0x00000000   Number         0  QtGallery{00010103}-207.o ABSOLUTE
    [Anonymous Symbol]                       0x00000000   Number         0  QtCore{00040703}-1037.o ABSOLUTE
    [Anonymous Symbol]                       0x00000000   Number         0  QtGallery{00010103}-417.o ABSOLUTE
    [Anonymous Symbol]                       0x00000000   Number         0  QtGallery{00010103}-211.o ABSOLUTE
    [Anonymous Symbol]                       0x00000000   Number         0  QtCore{00040703}-1039.o ABSOLUTE
    [Anonymous Symbol]                       0x00000000   Number         0  QtGallery{00010103}-419.o ABSOLUTE
    [Anonymous Symbol]                       0x00000000   Number         0  QtGallery{00010103}-216.o ABSOLUTE
    [Anonymous Symbol]                       0x00000000   Number         0  QtCore{00040703}-1046.o ABSOLUTE
    [Anonymous Symbol]                       0x00000000   Number         0  QtGallery{00010103}-420.o ABSOLUTE
    [Anonymous Symbol]                       0x00000000   Number         0  QtCore{00040703}-2188.o ABSOLUTE
    [Anonymous Symbol]                       0x00000000   Number         0  QtCore{00040703}-1047.o ABSOLUTE
    [Anonymous Symbol]                       0x00000000   Number         0  QtGallery{00010103}-421.o ABSOLUTE
    [Anonymous Symbol]                       0x00000000   Number         0  QtCore{00040703}-2199.o ABSOLUTE
    [Anonymous Symbol]                       0x00000000   Number         0  QtCore{00040703}-1048.o ABSOLUTE
    [Anonymous Symbol]                       0x00000000   Number         0  QtGallery{00010103}-423.o ABSOLUTE
    [Anonymous Symbol]                       0x00000000   Number         0  QtCore{00040703}-2395.o ABSOLUTE
    [Anonymous Symbol]                       0x00000000   Number         0  QtCore{00040703}-1051.o ABSOLUTE
    [Anonymous Symbol]                       0x00000000   Number         0  QtGallery{00010103}-424.o ABSOLUTE
    [Anonymous Symbol]                       0x00000000   Number         0  QtCore{00040703}-2416.o ABSOLUTE
    [Anonymous Symbol]                       0x00000000   Number         0  QtCore{00040703}-1055.o ABSOLUTE
    [Anonymous Symbol]                       0x00000000   Number         0  QtGallery{00010103}-425.o ABSOLUTE
    [Anonymous Symbol]                       0x00000000   Number         0  QtCore{00040703}-2672.o ABSOLUTE
    [Anonymous Symbol]                       0x00000000   Number         0  QtCore{00040703}-109.o ABSOLUTE
    [Anonymous Symbol]                       0x00000000   Number         0  QtGallery{00010103}-426.o ABSOLUTE
    [Anonymous Symbol]                       0x00000000   Number         0  QtCore{00040703}-2675.o ABSOLUTE
    [Anonymous Symbol]                       0x00000000   Number         0  QtCore{00040703}-126.o ABSOLUTE
    [Anonymous Symbol]                       0x00000000   Number         0  QtGallery{00010103}-428.o ABSOLUTE
    [Anonymous Symbol]                       0x00000000   Number         0  QtCore{00040703}-2678.o ABSOLUTE
    [Anonymous Symbol]                       0x00000000   Number         0  QtCore{00040703}-128.o ABSOLUTE
    [Anonymous Symbol]                       0x00000000   Number         0  QtGallery{00010103}-431.o ABSOLUTE
    [Anonymous Symbol]                       0x00000000   Number         0  QtCore{00040703}-2679.o ABSOLUTE
    [Anonymous Symbol]                       0x00000000   Number         0  QtCore{00040703}-129.o ABSOLUTE
    [Anonymous Symbol]                       0x00000000   Number         0  QtGallery{00010103}-433.o ABSOLUTE
    [Anonymous Symbol]                       0x00000000   Number         0  QtCore{00040703}-2680.o ABSOLUTE
    [Anonymous Symbol]                       0x00000000   Number         0  QtCore{00040703}-1531.o ABSOLUTE
    [Anonymous Symbol]                       0x00000000   Number         0  QtGallery{00010103}-434.o ABSOLUTE
    [Anonymous Symbol]                       0x00000000   Number         0  QtCore{00040703}-2681.o ABSOLUTE
    [Anonymous Symbol]                       0x00000000   Number         0  QtCore{00040703}-1534.o ABSOLUTE
    [Anonymous Symbol]                       0x00000000   Number         0  QtGallery{00010103}-435.o ABSOLUTE
    [Anonymous Symbol]                       0x00000000   Number         0  QtCore{00040703}-2682.o ABSOLUTE
    [Anonymous Symbol]                       0x00000000   Number         0  QtCore{00040703}-159.o ABSOLUTE
    [Anonymous Symbol]                       0x00000000   Number         0  QtGallery{00010103}-437.o ABSOLUTE
    [Anonymous Symbol]                       0x00000000   Number         0  QtCore{00040703}-2684.o ABSOLUTE
    [Anonymous Symbol]                       0x00000000   Number         0  QtCore{00040703}-1653.o ABSOLUTE
    [Anonymous Symbol]                       0x00000000   Number         0  QtGallery{00010103}-438.o ABSOLUTE
    [Anonymous Symbol]                       0x00000000   Number         0  QtCore{00040703}-2685.o ABSOLUTE
    [Anonymous Symbol]                       0x00000000   Number         0  QtCore{00040703}-168.o ABSOLUTE
    [Anonymous Symbol]                       0x00000000   Number         0  QtGallery{00010103}-440.o ABSOLUTE
    [Anonymous Symbol]                       0x00000000   Number         0  QtCore{00040703}-2686.o ABSOLUTE
    [Anonymous Symbol]                       0x00000000   Number         0  QtCore{00040703}-1760.o ABSOLUTE
    [Anonymous Symbol]                       0x00000000   Number         0  QtGallery{00010103}-446.o ABSOLUTE
    [Anonymous Symbol]                       0x00000000   Number         0  QtCore{00040703}-2689.o ABSOLUTE
    [Anonymous Symbol]                       0x00000000   Number         0  QtGallery{00010103}-481.o ABSOLUTE
    [Anonymous Symbol]                       0x00000000   Number         0  QtGallery{00010103}-451.o ABSOLUTE
    [Anonymous Symbol]                       0x00000000   Number         0  QtCore{00040703}-2690.o ABSOLUTE
    [Anonymous Symbol]                       0x00000000   Number         0  QtGallery{00010103}-482.o ABSOLUTE
    [Anonymous Symbol]                       0x00000000   Number         0  QtGallery{00010103}-452.o ABSOLUTE
    [Anonymous Symbol]                       0x00000000   Number         0  QtCore{00040703}-2692.o ABSOLUTE
    [Anonymous Symbol]                       0x00000000   Number         0  QtGallery{00010103}-5.o ABSOLUTE
    [Anonymous Symbol]                       0x00000000   Number         0  QtGallery{00010103}-454.o ABSOLUTE
    [Anonymous Symbol]                       0x00000000   Number         0  QtCore{00040703}-274.o ABSOLUTE
    [Anonymous Symbol]                       0x00000000   Number         0  QtGallery{00010103}-99.o ABSOLUTE
    [Anonymous Symbol]                       0x00000000   Number         0  QtGallery{00010103}-455.o ABSOLUTE
    [Anonymous Symbol]                       0x00000000   Number         0  QtCore{00040703}-275.o ABSOLUTE
    [Anonymous Symbol]                       0x00000000   Number         0  libstdcpp{00010000}-988.o ABSOLUTE
    [Anonymous Symbol]                       0x00000000   Number         0  QtGallery{00010103}-458.o ABSOLUTE
    [Anonymous Symbol]                       0x00000000   Number         0  QtCore{00040703}-282.o ABSOLUTE
    [Anonymous Symbol]                       0x00000000   Number         0  libstdcpp{00010000}-992.o ABSOLUTE
    [Anonymous Symbol]                       0x00000000   Number         0  QtGallery{00010103}-464.o ABSOLUTE
    [Anonymous Symbol]                       0x00000000   Number         0  QtCore{00040703}-3040.o ABSOLUTE
    [Anonymous Symbol]                       0x00000000   Number         0  QtDeclarative{00040703}-1662.o ABSOLUTE
    [Anonymous Symbol]                       0x00000000   Number         0  QtGallery{00010103}-465.o ABSOLUTE
    [Anonymous Symbol]                       0x00000000   Number         0  QtCore{00040703}-3049.o ABSOLUTE
    [Anonymous Symbol]                       0x00000000   Number         0  QtDeclarative{00040703}-401.o ABSOLUTE
    [Anonymous Symbol]                       0x00000000   Number         0  QtGallery{00010103}-470.o ABSOLUTE
    [Anonymous Symbol]                       0x00000000   Number         0  QtCore{00040703}-3095.o ABSOLUTE
    [Anonymous Symbol]                       0x00000000   Number         0  QtDeclarative{00040703}-402.o ABSOLUTE
    [Anonymous Symbol]                       0x00000000   Number         0  QtGallery{00010103}-471.o ABSOLUTE
    [Anonymous Symbol]                       0x00000000   Number         0  QtCore{00040703}-3097.o ABSOLUTE
    [Anonymous Symbol]                       0x00000000   Number         0  QtDeclarative{00040703}-43.o ABSOLUTE
    [Anonymous Symbol]                       0x00000000   Number         0  QtGallery{00010103}-473.o ABSOLUTE
    [Anonymous Symbol]                       0x00000000   Number         0  QtCore{00040703}-3098.o ABSOLUTE
    [Anonymous Symbol]                       0x00000000   Number         0  QtDeclarative{00040703}-5.o ABSOLUTE
    [Anonymous Symbol]                       0x00000000   Number         0  QtGallery{00010103}-476.o ABSOLUTE
    [Anonymous Symbol]                       0x00000000   Number         0  QtCore{00040703}-3136.o ABSOLUTE
    [Anonymous Symbol]                       0x00000000   Number         0  QtDeclarative{00040703}-751.o ABSOLUTE
    [Anonymous Symbol]                       0x00000000   Number         0  QtGallery{00010103}-478.o ABSOLUTE
    [Anonymous Symbol]                       0x00000000   Number         0  QtCore{00040703}-3138.o ABSOLUTE
    [Anonymous Symbol]                       0x00000000   Number         0  QtDeclarative{00040703}-752.o ABSOLUTE
    [Anonymous Symbol]                       0x00000000   Number         0  QtGallery{00010103}-479.o ABSOLUTE
    [Anonymous Symbol]                       0x00000000   Number         0  QtCore{00040703}-3142.o ABSOLUTE
    [Anonymous Symbol]                       0x00000000   Number         0  QtCore{00040703}-1826.o ABSOLUTE
    [Anonymous Symbol]                       0x00000000   Number         0  QtCore{00040703}-3241.o ABSOLUTE
    [Anonymous Symbol]                       0x00000000   Number         0  QtCore{00040703}-3163.o ABSOLUTE
    [Anonymous Symbol]                       0x00000000   Number         0  QtCore{00040703}-1830.o ABSOLUTE
    [Anonymous Symbol]                       0x00000000   Number         0  QtCore{00040703}-331.o ABSOLUTE
    [Anonymous Symbol]                       0x00000000   Number         0  QtCore{00040703}-3165.o ABSOLUTE
    [Anonymous Symbol]                       0x00000000   Number         0  QtCore{00040703}-1874.o ABSOLUTE
    [Anonymous Symbol]                       0x00000000   Number         0  QtCore{00040703}-332.o ABSOLUTE
    [Anonymous Symbol]                       0x00000000   Number         0  QtCore{00040703}-3166.o ABSOLUTE
    [Anonymous Symbol]                       0x00000000   Number         0  QtCore{00040703}-1885.o ABSOLUTE
    [Anonymous Symbol]                       0x00000000   Number         0  dfpaeabi{000a0000}-36.o ABSOLUTE
    [Anonymous Symbol]                       0x00000000   Number         0  QtCore{00040703}-3240.o ABSOLUTE
    [Anonymous Symbol]                       0x00000000   Number         0  QtCore{00040703}-2011.o ABSOLUTE
    [Anonymous Symbol]                       0x00000000   Number         0  dfpaeabi{000a0000}-42.o ABSOLUTE
    [Anonymous Symbol]                       0x00000000   Number         0  QtCore{00040703}-2084.o ABSOLUTE
    [Anonymous Symbol]                       0x00000000   Number         0  QtCore{00040703}-2034.o ABSOLUTE
    [Anonymous Symbol]                       0x00000000   Number         0  drtaeabi{000a0000}-147.o ABSOLUTE
    [Anonymous Symbol]                       0x00000000   Number         0  QtCore{00040703}-2134.o ABSOLUTE
    [Anonymous Symbol]                       0x00000000   Number         0  QtCore{00040703}-2037.o ABSOLUTE
    [Anonymous Symbol]                       0x00000000   Number         0  drtaeabi{000a0000}-155.o ABSOLUTE
    [Anonymous Symbol]                       0x00000000   Number         0  QtCore{00040703}-2141.o ABSOLUTE
    [Anonymous Symbol]                       0x00000000   Number         0  QtCore{00040703}-2042.o ABSOLUTE
    [Anonymous Symbol]                       0x00000000   Number         0  drtaeabi{000a0000}-158.o ABSOLUTE
    [Anonymous Symbol]                       0x00000000   Number         0  QtCore{00040703}-3584.o ABSOLUTE
    [Anonymous Symbol]                       0x00000000   Number         0  QtCore{00040703}-2082.o ABSOLUTE
    [Anonymous Symbol]                       0x00000000   Number         0  drtaeabi{000a0000}-180.o ABSOLUTE
    [Anonymous Symbol]                       0x00000000   Number         0  QtCore{00040703}-3585.o ABSOLUTE
    [Anonymous Symbol]                       0x00000000   Number         0  drtaeabi{000a0000}-188.o ABSOLUTE
    [Anonymous Symbol]                       0x00000000   Number         0  drtaeabi{000a0000}-183.o ABSOLUTE
    [Anonymous Symbol]                       0x00000000   Number         0  QtCore{00040703}-3609.o ABSOLUTE
    [Anonymous Symbol]                       0x00000000   Number         0  drtaeabi{000a0000}-189.o ABSOLUTE
    [Anonymous Symbol]                       0x00000000   Number         0  drtaeabi{000a0000}-184.o ABSOLUTE
    [Anonymous Symbol]                       0x00000000   Number         0  QtCore{00040703}-3610.o ABSOLUTE
    [Anonymous Symbol]                       0x00000000   Number         0  drtaeabi{000a0000}-190.o ABSOLUTE
    [Anonymous Symbol]                       0x00000000   Number         0  drtaeabi{000a0000}-186.o ABSOLUTE
    [Anonymous Symbol]                       0x00000000   Number         0  QtCore{00040703}-3689.o ABSOLUTE
    [Anonymous Symbol]                       0x00000000   Number         0  QtCore{00040703}-2143.o ABSOLUTE
    [Anonymous Symbol]                       0x00000000   Number         0  drtaeabi{000a0000}-187.o ABSOLUTE
    [Anonymous Symbol]                       0x00000000   Number         0  QtCore{00040703}-3691.o ABSOLUTE
    [Anonymous Symbol]                       0x00000000   Number         0  drtrvct2_2{000a0000}-28.o ABSOLUTE
    ..\..\..\..\EPOC32\BUILD\s60\osext\mobileruntime\group\LIBSTDCPP\ARMV5\VtblExports.s 0x00000000   Number         0  VtblExports.o ABSOLUTE
    \EPOC32\BUILD\src\cedar\generic\base\e32\compsupp\DRTAEABI\ARMV5\VtblExports.s 0x00000000   Number         0  VtblExports.o ABSOLUTE
    \EPOC32\BUILD\src\cedar\generic\base\e32\euser\EDLL\ARMV5\urel\uc_dll_.cpp 0x00000000   Number         0  uc_dll_.o ABSOLUTE
    \EPOC32\BUILD\src\cedar\generic\base\e32\euser\EUSER\ARMV5\VtblExports.s 0x00000000   Number         0  VtblExports.o ABSOLUTE
    \EPOC32\BUILD\wk29\stdlibs\group\LIBC\ARMV5\VtblExports.s 0x00000000   Number         0  VtblExports.o ABSOLUTE
    \EPOC32\BUILD\wk29\stdlibs\group\LIBDL\ARMV5\VtblExports.s 0x00000000   Number         0  VtblExports.o ABSOLUTE
    \EPOC32\BUILD\wk29\stdlibs\group\LIBM\ARMV5\VtblExports.s 0x00000000   Number         0  VtblExports.o ABSOLUTE
    \EPOC32\BUILD\wk29\stdlibs\group\LIBPTHREAD\ARMV5\VtblExports.s 0x00000000   Number         0  VtblExports.o ABSOLUTE
    \\EPOC32\\BUILD\\src\\cedar\\generic\\base\\e32\\euser\\EDLL\\ARMV5\\urel\\uc_dll_.cpp 0x00000000   Number         0  uc_dll_.o ABSOLUTE
    \\src\\cedar\\generic\\base\\e32\\compsupp\\RVCT2_2\\ucppinit_aeabi.cpp 0x00000000   Number         0  ucppinit_aeabi.o ABSOLUTE
    \dev\symb\SDKs\32\EPOC32\BUILD\iwmake\buildS60____PADDING________\src\QTCORE_DLL\ARMV6\VtblExports.s 0x00000000   Number         0  VtblExports.o ABSOLUTE
    \dev\symb\SDKs\32\EPOC32\BUILD\iwmake\buildS60____PADDING________\src\QTDECLARATIVE_DLL\ARMV6\VtblExports.s 0x00000000   Number         0  VtblExports.o ABSOLUTE
    \dev\symb\SDKs\32\EPOC32\BUILD\iwmake\buildS60____PADDING________\src\QTGUI_DLL\ARMV6\VtblExports.s 0x00000000   Number         0  VtblExports.o ABSOLUTE
    \dev\symb\SDKs\32\EPOC32\BUILD\iwmake\buildS60____PADDING________\src\QTSCRIPT_DLL\ARMV6\VtblExports.s 0x00000000   Number         0  VtblExports.o ABSOLUTE
    \s60\5.0\EPOC32\BUILD\scripts\5.0\qtmobility\DECLARATIVE_GALLERY_DLL\ARMV5\urel\declarative_gallery{000a0000}.s 0x00000000   Number         0  declarative_gallery{000a0000}.exp ABSOLUTE
    \s60\5.0\EPOC32\BUILD\scripts\5.0\qtmobility\QTGALLERY_DLL\ARMV5\VtblExports.s 0x00000000   Number         0  VtblExports.o ABSOLUTE
    \scripts\5.0\qtmobility\plugins\declarative\gallery\qdeclarativedocumentgallery.cpp 0x00000000   Number         0  declarative_gallery.in ABSOLUTE
    \scripts\5.0\qtmobility\plugins\declarative\gallery\qdeclarativegallery.cpp 0x00000000   Number         0  declarative_gallery.in ABSOLUTE
    \scripts\5.0\qtmobility\plugins\declarative\gallery\qdeclarativegalleryfilter.cpp 0x00000000   Number         0  declarative_gallery.in ABSOLUTE
    \scripts\5.0\qtmobility\plugins\declarative\gallery\qdeclarativegalleryitem.cpp 0x00000000   Number         0  declarative_gallery.in ABSOLUTE
    \scripts\5.0\qtmobility\plugins\declarative\gallery\qdeclarativegalleryquerymodel.cpp 0x00000000   Number         0  declarative_gallery.in ABSOLUTE
    \scripts\5.0\qtmobility\plugins\declarative\gallery\qdeclarativegallerytype.cpp 0x00000000   Number         0  declarative_gallery.in ABSOLUTE
    \src\cedar\generic\base\e32\compsupp\RVCT2_2\ucppfini.cpp 0x00000000   Number         0  ucppfini.o ABSOLUTE
    \src\cedar\generic\base\e32\compsupp\RVCT2_2\ucppinit_aeabi.cpp 0x00000000   Number         0  ucppinit_aeabi.o ABSOLUTE
    \src\cedar\generic\base\e32\euser\epoc\arm\uc_dll.cpp 0x00000000   Number         0  uc_dll.o ABSOLUTE
    .emb_text                                0x00008000   Section       40  uc_dll_.o(.emb_text)
    .emb_text                                0x00008028   Section       72  ucppinit_aeabi.o(.emb_text)
    skip                                     0x0000803c   ARM Code       0  ucppinit_aeabi.o(.emb_text)
    loop                                     0x0000804c   ARM Code       0  ucppinit_aeabi.o(.emb_text)
    fpinit                                   0x00008064   Data           0  ucppinit_aeabi.o(.emb_text)
    base                                     0x00008068   Data           0  ucppinit_aeabi.o(.emb_text)
    limit                                    0x0000806c   Data           0  ucppinit_aeabi.o(.emb_text)
    .text                                    0x00008070   Section      364  declarative_gallery.in(.text)
    QtMobility::qt_declarativeDocumentGalleryInstance() 0x00008153   Thumb Code   116  declarative_gallery.in(.text)
    .text                                    0x000081dc   Section      204  declarative_gallery.in(.text)
    .text                                    0x000082a8   Section     2868  declarative_gallery.in(.text)
    |L1.2160|                                0x00008b18   Data           0  declarative_gallery.in(.text)
    .text                                    0x00008ddc   Section     2752  declarative_gallery.in(.text)
    .text                                    0x0000989c   Section     5600  declarative_gallery.in(.text)
    |L1.1024|                                0x00009c9c   Data           0  declarative_gallery.in(.text)
    |L1.1044|                                0x00009cb0   Data           0  declarative_gallery.in(.text)
    |L1.2296|                                0x0000a194   Data           0  declarative_gallery.in(.text)
    .text                                    0x0000ae7c   Section     2592  declarative_gallery.in(.text)
    .text                                    0x0000b89c   Section       40  uc_dll.o(.text)
    .text                                    0x0000b8c4   Section      148  ucppfini.o(.text)
    .text.clean                              0x0000b958   Section       56  declarative_gallery.in(.text.clean)
    .text.clean                              0x0000b990   Section       28  declarative_gallery.in(.text.clean)
    .text.clean                              0x0000b9ac   Section      192  declarative_gallery.in(.text.clean)
    .text.clean                              0x0000ba6c   Section      248  declarative_gallery.in(.text.clean)
    .text.clean                              0x0000bb64   Section      618  declarative_gallery.in(.text.clean)
    .text.clean                              0x0000bdce   Section      250  declarative_gallery.in(.text.clean)
    ExportTable                              0x0000bec8   Section       16  declarative_gallery{000a0000}.exp(ExportTable)
    StubCode                                 0x0000bed8   Section        8  QtGallery{00010103}-1.o(StubCode)
    theImportedSymbol                        0x0000bedc   Data           0  QtGallery{00010103}-1.o(StubCode)
    StubCode                                 0x0000bee0   Section        8  QtGallery{00010103}-11.o(StubCode)
    theImportedSymbol                        0x0000bee4   Data           0  QtGallery{00010103}-11.o(StubCode)
    StubCode                                 0x0000bee8   Section        8  QtGallery{00010103}-182.o(StubCode)
    theImportedSymbol                        0x0000beec   Data           0  QtGallery{00010103}-182.o(StubCode)
    StubCode                                 0x0000bef0   Section        8  QtGallery{00010103}-186.o(StubCode)
    theImportedSymbol                        0x0000bef4   Data           0  QtGallery{00010103}-186.o(StubCode)
    StubCode                                 0x0000bef8   Section        8  QtGallery{00010103}-189.o(StubCode)
    theImportedSymbol                        0x0000befc   Data           0  QtGallery{00010103}-189.o(StubCode)
    StubCode                                 0x0000bf00   Section        8  QtGallery{00010103}-194.o(StubCode)
    theImportedSymbol                        0x0000bf04   Data           0  QtGallery{00010103}-194.o(StubCode)
    StubCode                                 0x0000bf08   Section        8  QtGallery{00010103}-195.o(StubCode)
    theImportedSymbol                        0x0000bf0c   Data           0  QtGallery{00010103}-195.o(StubCode)
    StubCode                                 0x0000bf10   Section        8  QtGallery{00010103}-2.o(StubCode)
    theImportedSymbol                        0x0000bf14   Data           0  QtGallery{00010103}-2.o(StubCode)
    StubCode                                 0x0000bf18   Section        8  QtGallery{00010103}-200.o(StubCode)
    theImportedSymbol                        0x0000bf1c   Data           0  QtGallery{00010103}-200.o(StubCode)
    StubCode                                 0x0000bf20   Section        8  QtGallery{00010103}-204.o(StubCode)
    theImportedSymbol                        0x0000bf24   Data           0  QtGallery{00010103}-204.o(StubCode)
    StubCode                                 0x0000bf28   Section        8  QtGallery{00010103}-207.o(StubCode)
    theImportedSymbol                        0x0000bf2c   Data           0  QtGallery{00010103}-207.o(StubCode)
    StubCode                                 0x0000bf30   Section        8  QtGallery{00010103}-211.o(StubCode)
    theImportedSymbol                        0x0000bf34   Data           0  QtGallery{00010103}-211.o(StubCode)
    StubCode                                 0x0000bf38   Section        8  QtGallery{00010103}-216.o(StubCode)
    theImportedSymbol                        0x0000bf3c   Data           0  QtGallery{00010103}-216.o(StubCode)
    StubCode                                 0x0000bf40   Section        8  QtGallery{00010103}-221.o(StubCode)
    theImportedSymbol                        0x0000bf44   Data           0  QtGallery{00010103}-221.o(StubCode)
    StubCode                                 0x0000bf48   Section        8  QtGallery{00010103}-224.o(StubCode)
    theImportedSymbol                        0x0000bf4c   Data           0  QtGallery{00010103}-224.o(StubCode)
    StubCode                                 0x0000bf50   Section        8  QtGallery{00010103}-225.o(StubCode)
    theImportedSymbol                        0x0000bf54   Data           0  QtGallery{00010103}-225.o(StubCode)
    StubCode                                 0x0000bf58   Section        8  QtGallery{00010103}-226.o(StubCode)
    theImportedSymbol                        0x0000bf5c   Data           0  QtGallery{00010103}-226.o(StubCode)
    StubCode                                 0x0000bf60   Section        8  QtGallery{00010103}-239.o(StubCode)
    theImportedSymbol                        0x0000bf64   Data           0  QtGallery{00010103}-239.o(StubCode)
    StubCode                                 0x0000bf68   Section        8  QtGallery{00010103}-244.o(StubCode)
    theImportedSymbol                        0x0000bf6c   Data           0  QtGallery{00010103}-244.o(StubCode)
    StubCode                                 0x0000bf70   Section        8  QtGallery{00010103}-253.o(StubCode)
    theImportedSymbol                        0x0000bf74   Data           0  QtGallery{00010103}-253.o(StubCode)
    StubCode                                 0x0000bf78   Section        8  QtGallery{00010103}-254.o(StubCode)
    theImportedSymbol                        0x0000bf7c   Data           0  QtGallery{00010103}-254.o(StubCode)
    StubCode                                 0x0000bf80   Section        8  QtGallery{00010103}-259.o(StubCode)
    theImportedSymbol                        0x0000bf84   Data           0  QtGallery{00010103}-259.o(StubCode)
    StubCode                                 0x0000bf88   Section        8  QtGallery{00010103}-263.o(StubCode)
    theImportedSymbol                        0x0000bf8c   Data           0  QtGallery{00010103}-263.o(StubCode)
    StubCode                                 0x0000bf90   Section        8  QtGallery{00010103}-269.o(StubCode)
    theImportedSymbol                        0x0000bf94   Data           0  QtGallery{00010103}-269.o(StubCode)
    StubCode                                 0x0000bf98   Section        8  QtGallery{00010103}-276.o(StubCode)
    theImportedSymbol                        0x0000bf9c   Data           0  QtGallery{00010103}-276.o(StubCode)
    StubCode                                 0x0000bfa0   Section        8  QtGallery{00010103}-277.o(StubCode)
    theImportedSymbol                        0x0000bfa4   Data           0  QtGallery{00010103}-277.o(StubCode)
    StubCode                                 0x0000bfa8   Section        8  QtGallery{00010103}-278.o(StubCode)
    theImportedSymbol                        0x0000bfac   Data           0  QtGallery{00010103}-278.o(StubCode)
    StubCode                                 0x0000bfb0   Section        8  QtGallery{00010103}-279.o(StubCode)
    theImportedSymbol                        0x0000bfb4   Data           0  QtGallery{00010103}-279.o(StubCode)
    StubCode                                 0x0000bfb8   Section        8  QtGallery{00010103}-280.o(StubCode)
    theImportedSymbol                        0x0000bfbc   Data           0  QtGallery{00010103}-280.o(StubCode)
    StubCode                                 0x0000bfc0   Section        8  QtGallery{00010103}-285.o(StubCode)
    theImportedSymbol                        0x0000bfc4   Data           0  QtGallery{00010103}-285.o(StubCode)
    StubCode                                 0x0000bfc8   Section        8  QtGallery{00010103}-287.o(StubCode)
    theImportedSymbol                        0x0000bfcc   Data           0  QtGallery{00010103}-287.o(StubCode)
    StubCode                                 0x0000bfd0   Section        8  QtGallery{00010103}-288.o(StubCode)
    theImportedSymbol                        0x0000bfd4   Data           0  QtGallery{00010103}-288.o(StubCode)
    StubCode                                 0x0000bfd8   Section        8  QtGallery{00010103}-289.o(StubCode)
    theImportedSymbol                        0x0000bfdc   Data           0  QtGallery{00010103}-289.o(StubCode)
    StubCode                                 0x0000bfe0   Section        8  QtGallery{00010103}-290.o(StubCode)
    theImportedSymbol                        0x0000bfe4   Data           0  QtGallery{00010103}-290.o(StubCode)
    StubCode                                 0x0000bfe8   Section        8  QtGallery{00010103}-292.o(StubCode)
    theImportedSymbol                        0x0000bfec   Data           0  QtGallery{00010103}-292.o(StubCode)
    StubCode                                 0x0000bff0   Section        8  QtGallery{00010103}-293.o(StubCode)
    theImportedSymbol                        0x0000bff4   Data           0  QtGallery{00010103}-293.o(StubCode)
    StubCode                                 0x0000bff8   Section        8  QtGallery{00010103}-297.o(StubCode)
    theImportedSymbol                        0x0000bffc   Data           0  QtGallery{00010103}-297.o(StubCode)
    StubCode                                 0x0000c000   Section        8  QtGallery{00010103}-3.o(StubCode)
    theImportedSymbol                        0x0000c004   Data           0  QtGallery{00010103}-3.o(StubCode)
    StubCode                                 0x0000c008   Section        8  QtGallery{00010103}-300.o(StubCode)
    theImportedSymbol                        0x0000c00c   Data           0  QtGallery{00010103}-300.o(StubCode)
    StubCode                                 0x0000c010   Section        8  QtGallery{00010103}-311.o(StubCode)
    theImportedSymbol                        0x0000c014   Data           0  QtGallery{00010103}-311.o(StubCode)
    StubCode                                 0x0000c018   Section        8  QtGallery{00010103}-313.o(StubCode)
    theImportedSymbol                        0x0000c01c   Data           0  QtGallery{00010103}-313.o(StubCode)
    StubCode                                 0x0000c020   Section        8  QtGallery{00010103}-314.o(StubCode)
    theImportedSymbol                        0x0000c024   Data           0  QtGallery{00010103}-314.o(StubCode)
    StubCode                                 0x0000c028   Section        8  QtGallery{00010103}-346.o(StubCode)
    theImportedSymbol                        0x0000c02c   Data           0  QtGallery{00010103}-346.o(StubCode)
    StubCode                                 0x0000c030   Section        8  QtGallery{00010103}-347.o(StubCode)
    theImportedSymbol                        0x0000c034   Data           0  QtGallery{00010103}-347.o(StubCode)
    StubCode                                 0x0000c038   Section        8  QtGallery{00010103}-348.o(StubCode)
    theImportedSymbol                        0x0000c03c   Data           0  QtGallery{00010103}-348.o(StubCode)
    StubCode                                 0x0000c040   Section        8  QtGallery{00010103}-361.o(StubCode)
    theImportedSymbol                        0x0000c044   Data           0  QtGallery{00010103}-361.o(StubCode)
    StubCode                                 0x0000c048   Section        8  QtGallery{00010103}-366.o(StubCode)
    theImportedSymbol                        0x0000c04c   Data           0  QtGallery{00010103}-366.o(StubCode)
    StubCode                                 0x0000c050   Section        8  QtGallery{00010103}-375.o(StubCode)
    theImportedSymbol                        0x0000c054   Data           0  QtGallery{00010103}-375.o(StubCode)
    StubCode                                 0x0000c058   Section        8  QtGallery{00010103}-376.o(StubCode)
    theImportedSymbol                        0x0000c05c   Data           0  QtGallery{00010103}-376.o(StubCode)
    StubCode                                 0x0000c060   Section        8  QtGallery{00010103}-377.o(StubCode)
    theImportedSymbol                        0x0000c064   Data           0  QtGallery{00010103}-377.o(StubCode)
    StubCode                                 0x0000c068   Section        8  QtGallery{00010103}-378.o(StubCode)
    theImportedSymbol                        0x0000c06c   Data           0  QtGallery{00010103}-378.o(StubCode)
    StubCode                                 0x0000c070   Section        8  QtGallery{00010103}-417.o(StubCode)
    theImportedSymbol                        0x0000c074   Data           0  QtGallery{00010103}-417.o(StubCode)
    StubCode                                 0x0000c078   Section        8  QtGallery{00010103}-419.o(StubCode)
    theImportedSymbol                        0x0000c07c   Data           0  QtGallery{00010103}-419.o(StubCode)
    StubCode                                 0x0000c080   Section        8  QtGallery{00010103}-420.o(StubCode)
    theImportedSymbol                        0x0000c084   Data           0  QtGallery{00010103}-420.o(StubCode)
    StubCode                                 0x0000c088   Section        8  QtGallery{00010103}-421.o(StubCode)
    theImportedSymbol                        0x0000c08c   Data           0  QtGallery{00010103}-421.o(StubCode)
    StubCode                                 0x0000c090   Section        8  QtGallery{00010103}-423.o(StubCode)
    theImportedSymbol                        0x0000c094   Data           0  QtGallery{00010103}-423.o(StubCode)
    StubCode                                 0x0000c098   Section        8  QtGallery{00010103}-424.o(StubCode)
    theImportedSymbol                        0x0000c09c   Data           0  QtGallery{00010103}-424.o(StubCode)
    StubCode                                 0x0000c0a0   Section        8  QtGallery{00010103}-425.o(StubCode)
    theImportedSymbol                        0x0000c0a4   Data           0  QtGallery{00010103}-425.o(StubCode)
    StubCode                                 0x0000c0a8   Section        8  QtGallery{00010103}-426.o(StubCode)
    theImportedSymbol                        0x0000c0ac   Data           0  QtGallery{00010103}-426.o(StubCode)
    StubCode                                 0x0000c0b0   Section        8  QtGallery{00010103}-428.o(StubCode)
    theImportedSymbol                        0x0000c0b4   Data           0  QtGallery{00010103}-428.o(StubCode)
    StubCode                                 0x0000c0b8   Section        8  QtGallery{00010103}-431.o(StubCode)
    theImportedSymbol                        0x0000c0bc   Data           0  QtGallery{00010103}-431.o(StubCode)
    StubCode                                 0x0000c0c0   Section        8  QtGallery{00010103}-433.o(StubCode)
    theImportedSymbol                        0x0000c0c4   Data           0  QtGallery{00010103}-433.o(StubCode)
    StubCode                                 0x0000c0c8   Section        8  QtGallery{00010103}-434.o(StubCode)
    theImportedSymbol                        0x0000c0cc   Data           0  QtGallery{00010103}-434.o(StubCode)
    StubCode                                 0x0000c0d0   Section        8  QtGallery{00010103}-435.o(StubCode)
    theImportedSymbol                        0x0000c0d4   Data           0  QtGallery{00010103}-435.o(StubCode)
    StubCode                                 0x0000c0d8   Section        8  QtGallery{00010103}-437.o(StubCode)
    theImportedSymbol                        0x0000c0dc   Data           0  QtGallery{00010103}-437.o(StubCode)
    StubCode                                 0x0000c0e0   Section        8  QtGallery{00010103}-438.o(StubCode)
    theImportedSymbol                        0x0000c0e4   Data           0  QtGallery{00010103}-438.o(StubCode)
    StubCode                                 0x0000c0e8   Section        8  QtGallery{00010103}-440.o(StubCode)
    theImportedSymbol                        0x0000c0ec   Data           0  QtGallery{00010103}-440.o(StubCode)
    StubCode                                 0x0000c0f0   Section        8  QtGallery{00010103}-446.o(StubCode)
    theImportedSymbol                        0x0000c0f4   Data           0  QtGallery{00010103}-446.o(StubCode)
    StubCode                                 0x0000c0f8   Section        8  QtGallery{00010103}-451.o(StubCode)
    theImportedSymbol                        0x0000c0fc   Data           0  QtGallery{00010103}-451.o(StubCode)
    StubCode                                 0x0000c100   Section        8  QtGallery{00010103}-452.o(StubCode)
    theImportedSymbol                        0x0000c104   Data           0  QtGallery{00010103}-452.o(StubCode)
    StubCode                                 0x0000c108   Section        8  QtGallery{00010103}-454.o(StubCode)
    theImportedSymbol                        0x0000c10c   Data           0  QtGallery{00010103}-454.o(StubCode)
    StubCode                                 0x0000c110   Section        8  QtGallery{00010103}-455.o(StubCode)
    theImportedSymbol                        0x0000c114   Data           0  QtGallery{00010103}-455.o(StubCode)
    StubCode                                 0x0000c118   Section        8  QtGallery{00010103}-458.o(StubCode)
    theImportedSymbol                        0x0000c11c   Data           0  QtGallery{00010103}-458.o(StubCode)
    StubCode                                 0x0000c120   Section        8  QtGallery{00010103}-464.o(StubCode)
    theImportedSymbol                        0x0000c124   Data           0  QtGallery{00010103}-464.o(StubCode)
    StubCode                                 0x0000c128   Section        8  QtGallery{00010103}-465.o(StubCode)
    theImportedSymbol                        0x0000c12c   Data           0  QtGallery{00010103}-465.o(StubCode)
    StubCode                                 0x0000c130   Section        8  QtGallery{00010103}-470.o(StubCode)
    theImportedSymbol                        0x0000c134   Data           0  QtGallery{00010103}-470.o(StubCode)
    StubCode                                 0x0000c138   Section        8  QtGallery{00010103}-471.o(StubCode)
    theImportedSymbol                        0x0000c13c   Data           0  QtGallery{00010103}-471.o(StubCode)
    StubCode                                 0x0000c140   Section        8  QtGallery{00010103}-473.o(StubCode)
    theImportedSymbol                        0x0000c144   Data           0  QtGallery{00010103}-473.o(StubCode)
    StubCode                                 0x0000c148   Section        8  QtGallery{00010103}-476.o(StubCode)
    theImportedSymbol                        0x0000c14c   Data           0  QtGallery{00010103}-476.o(StubCode)
    StubCode                                 0x0000c150   Section        8  QtGallery{00010103}-478.o(StubCode)
    theImportedSymbol                        0x0000c154   Data           0  QtGallery{00010103}-478.o(StubCode)
    StubCode                                 0x0000c158   Section        8  QtGallery{00010103}-479.o(StubCode)
    theImportedSymbol                        0x0000c15c   Data           0  QtGallery{00010103}-479.o(StubCode)
    StubCode                                 0x0000c160   Section        8  QtGallery{00010103}-481.o(StubCode)
    theImportedSymbol                        0x0000c164   Data           0  QtGallery{00010103}-481.o(StubCode)
    StubCode                                 0x0000c168   Section        8  QtGallery{00010103}-482.o(StubCode)
    theImportedSymbol                        0x0000c16c   Data           0  QtGallery{00010103}-482.o(StubCode)
    StubCode                                 0x0000c170   Section        8  QtGallery{00010103}-5.o(StubCode)
    theImportedSymbol                        0x0000c174   Data           0  QtGallery{00010103}-5.o(StubCode)
    StubCode                                 0x0000c178   Section        8  QtGallery{00010103}-99.o(StubCode)
    theImportedSymbol                        0x0000c17c   Data           0  QtGallery{00010103}-99.o(StubCode)
    StubCode                                 0x0000c180   Section        8  libstdcpp{00010000}-988.o(StubCode)
    theImportedSymbol                        0x0000c184   Data           0  libstdcpp{00010000}-988.o(StubCode)
    StubCode                                 0x0000c188   Section        8  libstdcpp{00010000}-992.o(StubCode)
    theImportedSymbol                        0x0000c18c   Data           0  libstdcpp{00010000}-992.o(StubCode)
    StubCode                                 0x0000c190   Section        8  QtDeclarative{00040703}-1662.o(StubCode)
    theImportedSymbol                        0x0000c194   Data           0  QtDeclarative{00040703}-1662.o(StubCode)
    StubCode                                 0x0000c198   Section        8  QtDeclarative{00040703}-401.o(StubCode)
    theImportedSymbol                        0x0000c19c   Data           0  QtDeclarative{00040703}-401.o(StubCode)
    StubCode                                 0x0000c1a0   Section        8  QtDeclarative{00040703}-402.o(StubCode)
    theImportedSymbol                        0x0000c1a4   Data           0  QtDeclarative{00040703}-402.o(StubCode)
    StubCode                                 0x0000c1a8   Section        8  QtDeclarative{00040703}-43.o(StubCode)
    theImportedSymbol                        0x0000c1ac   Data           0  QtDeclarative{00040703}-43.o(StubCode)
    StubCode                                 0x0000c1b0   Section        8  QtDeclarative{00040703}-5.o(StubCode)
    theImportedSymbol                        0x0000c1b4   Data           0  QtDeclarative{00040703}-5.o(StubCode)
    StubCode                                 0x0000c1b8   Section        8  QtDeclarative{00040703}-751.o(StubCode)
    theImportedSymbol                        0x0000c1bc   Data           0  QtDeclarative{00040703}-751.o(StubCode)
    StubCode                                 0x0000c1c0   Section        8  QtDeclarative{00040703}-752.o(StubCode)
    theImportedSymbol                        0x0000c1c4   Data           0  QtDeclarative{00040703}-752.o(StubCode)
    StubCode                                 0x0000c1c8   Section        8  QtDeclarative{00040703}-753.o(StubCode)
    theImportedSymbol                        0x0000c1cc   Data           0  QtDeclarative{00040703}-753.o(StubCode)
    StubCode                                 0x0000c1d0   Section        8  QtDeclarative{00040703}-784.o(StubCode)
    theImportedSymbol                        0x0000c1d4   Data           0  QtDeclarative{00040703}-784.o(StubCode)
    StubCode                                 0x0000c1d8   Section        8  QtDeclarative{00040703}-787.o(StubCode)
    theImportedSymbol                        0x0000c1dc   Data           0  QtDeclarative{00040703}-787.o(StubCode)
    StubCode                                 0x0000c1e0   Section        8  QtDeclarative{00040703}-873.o(StubCode)
    theImportedSymbol                        0x0000c1e4   Data           0  QtDeclarative{00040703}-873.o(StubCode)
    StubCode                                 0x0000c1e8   Section        8  QtDeclarative{00040703}-874.o(StubCode)
    theImportedSymbol                        0x0000c1ec   Data           0  QtDeclarative{00040703}-874.o(StubCode)
    StubCode                                 0x0000c1f0   Section        8  QtDeclarative{00040703}-875.o(StubCode)
    theImportedSymbol                        0x0000c1f4   Data           0  QtDeclarative{00040703}-875.o(StubCode)
    StubCode                                 0x0000c1f8   Section        8  QtDeclarative{00040703}-878.o(StubCode)
    theImportedSymbol                        0x0000c1fc   Data           0  QtDeclarative{00040703}-878.o(StubCode)
    StubCode                                 0x0000c200   Section        8  QtDeclarative{00040703}-881.o(StubCode)
    theImportedSymbol                        0x0000c204   Data           0  QtDeclarative{00040703}-881.o(StubCode)
    StubCode                                 0x0000c208   Section        8  QtScript{00040703}-108.o(StubCode)
    theImportedSymbol                        0x0000c20c   Data           0  QtScript{00040703}-108.o(StubCode)
    StubCode                                 0x0000c210   Section        8  QtScript{00040703}-166.o(StubCode)
    theImportedSymbol                        0x0000c214   Data           0  QtScript{00040703}-166.o(StubCode)
    StubCode                                 0x0000c218   Section        8  QtScript{00040703}-172.o(StubCode)
    theImportedSymbol                        0x0000c21c   Data           0  QtScript{00040703}-172.o(StubCode)
    StubCode                                 0x0000c220   Section        8  QtScript{00040703}-174.o(StubCode)
    theImportedSymbol                        0x0000c224   Data           0  QtScript{00040703}-174.o(StubCode)
    StubCode                                 0x0000c228   Section        8  QtScript{00040703}-21.o(StubCode)
    theImportedSymbol                        0x0000c22c   Data           0  QtScript{00040703}-21.o(StubCode)
    StubCode                                 0x0000c230   Section        8  QtScript{00040703}-229.o(StubCode)
    theImportedSymbol                        0x0000c234   Data           0  QtScript{00040703}-229.o(StubCode)
    StubCode                                 0x0000c238   Section        8  QtScript{00040703}-237.o(StubCode)
    theImportedSymbol                        0x0000c23c   Data           0  QtScript{00040703}-237.o(StubCode)
    StubCode                                 0x0000c240   Section        8  QtScript{00040703}-238.o(StubCode)
    theImportedSymbol                        0x0000c244   Data           0  QtScript{00040703}-238.o(StubCode)
    StubCode                                 0x0000c248   Section        8  QtScript{00040703}-261.o(StubCode)
    theImportedSymbol                        0x0000c24c   Data           0  QtScript{00040703}-261.o(StubCode)
    StubCode                                 0x0000c250   Section        8  QtScript{00040703}-313.o(StubCode)
    theImportedSymbol                        0x0000c254   Data           0  QtScript{00040703}-313.o(StubCode)
    StubCode                                 0x0000c258   Section        8  QtScript{00040703}-315.o(StubCode)
    theImportedSymbol                        0x0000c25c   Data           0  QtScript{00040703}-315.o(StubCode)
    StubCode                                 0x0000c260   Section        8  QtScript{00040703}-316.o(StubCode)
    theImportedSymbol                        0x0000c264   Data           0  QtScript{00040703}-316.o(StubCode)
    StubCode                                 0x0000c268   Section        8  QtScript{00040703}-43.o(StubCode)
    theImportedSymbol                        0x0000c26c   Data           0  QtScript{00040703}-43.o(StubCode)
    StubCode                                 0x0000c270   Section        8  QtScript{00040703}-48.o(StubCode)
    theImportedSymbol                        0x0000c274   Data           0  QtScript{00040703}-48.o(StubCode)
    StubCode                                 0x0000c278   Section        8  QtScript{00040703}-67.o(StubCode)
    theImportedSymbol                        0x0000c27c   Data           0  QtScript{00040703}-67.o(StubCode)
    StubCode                                 0x0000c280   Section        8  QtScript{00040703}-69.o(StubCode)
    theImportedSymbol                        0x0000c284   Data           0  QtScript{00040703}-69.o(StubCode)
    StubCode                                 0x0000c288   Section        8  QtScript{00040703}-73.o(StubCode)
    theImportedSymbol                        0x0000c28c   Data           0  QtScript{00040703}-73.o(StubCode)
    StubCode                                 0x0000c290   Section        8  QtScript{00040703}-85.o(StubCode)
    theImportedSymbol                        0x0000c294   Data           0  QtScript{00040703}-85.o(StubCode)
    StubCode                                 0x0000c298   Section        8  QtScript{00040703}-98.o(StubCode)
    theImportedSymbol                        0x0000c29c   Data           0  QtScript{00040703}-98.o(StubCode)
    StubCode                                 0x0000c2a0   Section        8  QtCore{00040703}-1000.o(StubCode)
    theImportedSymbol                        0x0000c2a4   Data           0  QtCore{00040703}-1000.o(StubCode)
    StubCode                                 0x0000c2a8   Section        8  QtCore{00040703}-1001.o(StubCode)
    theImportedSymbol                        0x0000c2ac   Data           0  QtCore{00040703}-1001.o(StubCode)
    StubCode                                 0x0000c2b0   Section        8  QtCore{00040703}-1002.o(StubCode)
    theImportedSymbol                        0x0000c2b4   Data           0  QtCore{00040703}-1002.o(StubCode)
    StubCode                                 0x0000c2b8   Section        8  QtCore{00040703}-1003.o(StubCode)
    theImportedSymbol                        0x0000c2bc   Data           0  QtCore{00040703}-1003.o(StubCode)
    StubCode                                 0x0000c2c0   Section        8  QtCore{00040703}-1005.o(StubCode)
    theImportedSymbol                        0x0000c2c4   Data           0  QtCore{00040703}-1005.o(StubCode)
    StubCode                                 0x0000c2c8   Section        8  QtCore{00040703}-1007.o(StubCode)
    theImportedSymbol                        0x0000c2cc   Data           0  QtCore{00040703}-1007.o(StubCode)
    StubCode                                 0x0000c2d0   Section        8  QtCore{00040703}-1008.o(StubCode)
    theImportedSymbol                        0x0000c2d4   Data           0  QtCore{00040703}-1008.o(StubCode)
    StubCode                                 0x0000c2d8   Section        8  QtCore{00040703}-1011.o(StubCode)
    theImportedSymbol                        0x0000c2dc   Data           0  QtCore{00040703}-1011.o(StubCode)
    StubCode                                 0x0000c2e0   Section        8  QtCore{00040703}-1012.o(StubCode)
    theImportedSymbol                        0x0000c2e4   Data           0  QtCore{00040703}-1012.o(StubCode)
    StubCode                                 0x0000c2e8   Section        8  QtCore{00040703}-1034.o(StubCode)
    theImportedSymbol                        0x0000c2ec   Data           0  QtCore{00040703}-1034.o(StubCode)
    StubCode                                 0x0000c2f0   Section        8  QtCore{00040703}-1036.o(StubCode)
    theImportedSymbol                        0x0000c2f4   Data           0  QtCore{00040703}-1036.o(StubCode)
    StubCode                                 0x0000c2f8   Section        8  QtCore{00040703}-1037.o(StubCode)
    theImportedSymbol                        0x0000c2fc   Data           0  QtCore{00040703}-1037.o(StubCode)
    StubCode                                 0x0000c300   Section        8  QtCore{00040703}-1039.o(StubCode)
    theImportedSymbol                        0x0000c304   Data           0  QtCore{00040703}-1039.o(StubCode)
    StubCode                                 0x0000c308   Section        8  QtCore{00040703}-1046.o(StubCode)
    theImportedSymbol                        0x0000c30c   Data           0  QtCore{00040703}-1046.o(StubCode)
    StubCode                                 0x0000c310   Section        8  QtCore{00040703}-1047.o(StubCode)
    theImportedSymbol                        0x0000c314   Data           0  QtCore{00040703}-1047.o(StubCode)
    StubCode                                 0x0000c318   Section        8  QtCore{00040703}-1048.o(StubCode)
    theImportedSymbol                        0x0000c31c   Data           0  QtCore{00040703}-1048.o(StubCode)
    StubCode                                 0x0000c320   Section        8  QtCore{00040703}-1051.o(StubCode)
    theImportedSymbol                        0x0000c324   Data           0  QtCore{00040703}-1051.o(StubCode)
    StubCode                                 0x0000c328   Section        8  QtCore{00040703}-1055.o(StubCode)
    theImportedSymbol                        0x0000c32c   Data           0  QtCore{00040703}-1055.o(StubCode)
    StubCode                                 0x0000c330   Section        8  QtCore{00040703}-109.o(StubCode)
    theImportedSymbol                        0x0000c334   Data           0  QtCore{00040703}-109.o(StubCode)
    StubCode                                 0x0000c338   Section        8  QtCore{00040703}-126.o(StubCode)
    theImportedSymbol                        0x0000c33c   Data           0  QtCore{00040703}-126.o(StubCode)
    StubCode                                 0x0000c340   Section        8  QtCore{00040703}-128.o(StubCode)
    theImportedSymbol                        0x0000c344   Data           0  QtCore{00040703}-128.o(StubCode)
    StubCode                                 0x0000c348   Section        8  QtCore{00040703}-129.o(StubCode)
    theImportedSymbol                        0x0000c34c   Data           0  QtCore{00040703}-129.o(StubCode)
    StubCode                                 0x0000c350   Section        8  QtCore{00040703}-1531.o(StubCode)
    theImportedSymbol                        0x0000c354   Data           0  QtCore{00040703}-1531.o(StubCode)
    StubCode                                 0x0000c358   Section        8  QtCore{00040703}-1534.o(StubCode)
    theImportedSymbol                        0x0000c35c   Data           0  QtCore{00040703}-1534.o(StubCode)
    StubCode                                 0x0000c360   Section        8  QtCore{00040703}-159.o(StubCode)
    theImportedSymbol                        0x0000c364   Data           0  QtCore{00040703}-159.o(StubCode)
    StubCode                                 0x0000c368   Section        8  QtCore{00040703}-1653.o(StubCode)
    theImportedSymbol                        0x0000c36c   Data           0  QtCore{00040703}-1653.o(StubCode)
    StubCode                                 0x0000c370   Section        8  QtCore{00040703}-168.o(StubCode)
    theImportedSymbol                        0x0000c374   Data           0  QtCore{00040703}-168.o(StubCode)
    StubCode                                 0x0000c378   Section        8  QtCore{00040703}-1760.o(StubCode)
    theImportedSymbol                        0x0000c37c   Data           0  QtCore{00040703}-1760.o(StubCode)
    StubCode                                 0x0000c380   Section        8  QtCore{00040703}-1761.o(StubCode)
    theImportedSymbol                        0x0000c384   Data           0  QtCore{00040703}-1761.o(StubCode)
    StubCode                                 0x0000c388   Section        8  QtCore{00040703}-1763.o(StubCode)
    theImportedSymbol                        0x0000c38c   Data           0  QtCore{00040703}-1763.o(StubCode)
    StubCode                                 0x0000c390   Section        8  QtCore{00040703}-1764.o(StubCode)
    theImportedSymbol                        0x0000c394   Data           0  QtCore{00040703}-1764.o(StubCode)
    StubCode                                 0x0000c398   Section        8  QtCore{00040703}-1766.o(StubCode)
    theImportedSymbol                        0x0000c39c   Data           0  QtCore{00040703}-1766.o(StubCode)
    StubCode                                 0x0000c3a0   Section        8  QtCore{00040703}-1767.o(StubCode)
    theImportedSymbol                        0x0000c3a4   Data           0  QtCore{00040703}-1767.o(StubCode)
    StubCode                                 0x0000c3a8   Section        8  QtCore{00040703}-1768.o(StubCode)
    theImportedSymbol                        0x0000c3ac   Data           0  QtCore{00040703}-1768.o(StubCode)
    StubCode                                 0x0000c3b0   Section        8  QtCore{00040703}-1773.o(StubCode)
    theImportedSymbol                        0x0000c3b4   Data           0  QtCore{00040703}-1773.o(StubCode)
    StubCode                                 0x0000c3b8   Section        8  QtCore{00040703}-1777.o(StubCode)
    theImportedSymbol                        0x0000c3bc   Data           0  QtCore{00040703}-1777.o(StubCode)
    StubCode                                 0x0000c3c0   Section        8  QtCore{00040703}-1784.o(StubCode)
    theImportedSymbol                        0x0000c3c4   Data           0  QtCore{00040703}-1784.o(StubCode)
    StubCode                                 0x0000c3c8   Section        8  QtCore{00040703}-1785.o(StubCode)
    theImportedSymbol                        0x0000c3cc   Data           0  QtCore{00040703}-1785.o(StubCode)
    StubCode                                 0x0000c3d0   Section        8  QtCore{00040703}-1789.o(StubCode)
    theImportedSymbol                        0x0000c3d4   Data           0  QtCore{00040703}-1789.o(StubCode)
    StubCode                                 0x0000c3d8   Section        8  QtCore{00040703}-1794.o(StubCode)
    theImportedSymbol                        0x0000c3dc   Data           0  QtCore{00040703}-1794.o(StubCode)
    StubCode                                 0x0000c3e0   Section        8  QtCore{00040703}-1814.o(StubCode)
    theImportedSymbol                        0x0000c3e4   Data           0  QtCore{00040703}-1814.o(StubCode)
    StubCode                                 0x0000c3e8   Section        8  QtCore{00040703}-1826.o(StubCode)
    theImportedSymbol                        0x0000c3ec   Data           0  QtCore{00040703}-1826.o(StubCode)
    StubCode                                 0x0000c3f0   Section        8  QtCore{00040703}-1830.o(StubCode)
    theImportedSymbol                        0x0000c3f4   Data           0  QtCore{00040703}-1830.o(StubCode)
    StubCode                                 0x0000c3f8   Section        8  QtCore{00040703}-1874.o(StubCode)
    theImportedSymbol                        0x0000c3fc   Data           0  QtCore{00040703}-1874.o(StubCode)
    StubCode                                 0x0000c400   Section        8  QtCore{00040703}-1885.o(StubCode)
    theImportedSymbol                        0x0000c404   Data           0  QtCore{00040703}-1885.o(StubCode)
    StubCode                                 0x0000c408   Section        8  QtCore{00040703}-2011.o(StubCode)
    theImportedSymbol                        0x0000c40c   Data           0  QtCore{00040703}-2011.o(StubCode)
    StubCode                                 0x0000c410   Section        8  QtCore{00040703}-2034.o(StubCode)
    theImportedSymbol                        0x0000c414   Data           0  QtCore{00040703}-2034.o(StubCode)
    StubCode                                 0x0000c418   Section        8  QtCore{00040703}-2037.o(StubCode)
    theImportedSymbol                        0x0000c41c   Data           0  QtCore{00040703}-2037.o(StubCode)
    StubCode                                 0x0000c420   Section        8  QtCore{00040703}-2042.o(StubCode)
    theImportedSymbol                        0x0000c424   Data           0  QtCore{00040703}-2042.o(StubCode)
    StubCode                                 0x0000c428   Section        8  QtCore{00040703}-2082.o(StubCode)
    theImportedSymbol                        0x0000c42c   Data           0  QtCore{00040703}-2082.o(StubCode)
    StubCode                                 0x0000c430   Section        8  QtCore{00040703}-2084.o(StubCode)
    theImportedSymbol                        0x0000c434   Data           0  QtCore{00040703}-2084.o(StubCode)
    StubCode                                 0x0000c438   Section        8  QtCore{00040703}-2134.o(StubCode)
    theImportedSymbol                        0x0000c43c   Data           0  QtCore{00040703}-2134.o(StubCode)
    StubCode                                 0x0000c440   Section        8  QtCore{00040703}-2141.o(StubCode)
    theImportedSymbol                        0x0000c444   Data           0  QtCore{00040703}-2141.o(StubCode)
    StubCode                                 0x0000c448   Section        8  QtCore{00040703}-2143.o(StubCode)
    theImportedSymbol                        0x0000c44c   Data           0  QtCore{00040703}-2143.o(StubCode)
    StubCode                                 0x0000c450   Section        8  QtCore{00040703}-2188.o(StubCode)
    theImportedSymbol                        0x0000c454   Data           0  QtCore{00040703}-2188.o(StubCode)
    StubCode                                 0x0000c458   Section        8  QtCore{00040703}-2199.o(StubCode)
    theImportedSymbol                        0x0000c45c   Data           0  QtCore{00040703}-2199.o(StubCode)
    StubCode                                 0x0000c460   Section        8  QtCore{00040703}-2395.o(StubCode)
    theImportedSymbol                        0x0000c464   Data           0  QtCore{00040703}-2395.o(StubCode)
    StubCode                                 0x0000c468   Section        8  QtCore{00040703}-2416.o(StubCode)
    theImportedSymbol                        0x0000c46c   Data           0  QtCore{00040703}-2416.o(StubCode)
    StubCode                                 0x0000c470   Section        8  QtCore{00040703}-2672.o(StubCode)
    theImportedSymbol                        0x0000c474   Data           0  QtCore{00040703}-2672.o(StubCode)
    StubCode                                 0x0000c478   Section        8  QtCore{00040703}-2675.o(StubCode)
    theImportedSymbol                        0x0000c47c   Data           0  QtCore{00040703}-2675.o(StubCode)
    StubCode                                 0x0000c480   Section        8  QtCore{00040703}-2678.o(StubCode)
    theImportedSymbol                        0x0000c484   Data           0  QtCore{00040703}-2678.o(StubCode)
    StubCode                                 0x0000c488   Section        8  QtCore{00040703}-2679.o(StubCode)
    theImportedSymbol                        0x0000c48c   Data           0  QtCore{00040703}-2679.o(StubCode)
    StubCode                                 0x0000c490   Section        8  QtCore{00040703}-2680.o(StubCode)
    theImportedSymbol                        0x0000c494   Data           0  QtCore{00040703}-2680.o(StubCode)
    StubCode                                 0x0000c498   Section        8  QtCore{00040703}-2681.o(StubCode)
    theImportedSymbol                        0x0000c49c   Data           0  QtCore{00040703}-2681.o(StubCode)
    StubCode                                 0x0000c4a0   Section        8  QtCore{00040703}-2682.o(StubCode)
    theImportedSymbol                        0x0000c4a4   Data           0  QtCore{00040703}-2682.o(StubCode)
    StubCode                                 0x0000c4a8   Section        8  QtCore{00040703}-2684.o(StubCode)
    theImportedSymbol                        0x0000c4ac   Data           0  QtCore{00040703}-2684.o(StubCode)
    StubCode                                 0x0000c4b0   Section        8  QtCore{00040703}-2685.o(StubCode)
    theImportedSymbol                        0x0000c4b4   Data           0  QtCore{00040703}-2685.o(StubCode)
    StubCode                                 0x0000c4b8   Section        8  QtCore{00040703}-2686.o(StubCode)
    theImportedSymbol                        0x0000c4bc   Data           0  QtCore{00040703}-2686.o(StubCode)
    StubCode                                 0x0000c4c0   Section        8  QtCore{00040703}-2689.o(StubCode)
    theImportedSymbol                        0x0000c4c4   Data           0  QtCore{00040703}-2689.o(StubCode)
    StubCode                                 0x0000c4c8   Section        8  QtCore{00040703}-2690.o(StubCode)
    theImportedSymbol                        0x0000c4cc   Data           0  QtCore{00040703}-2690.o(StubCode)
    StubCode                                 0x0000c4d0   Section        8  QtCore{00040703}-2692.o(StubCode)
    theImportedSymbol                        0x0000c4d4   Data           0  QtCore{00040703}-2692.o(StubCode)
    StubCode                                 0x0000c4d8   Section        8  QtCore{00040703}-274.o(StubCode)
    theImportedSymbol                        0x0000c4dc   Data           0  QtCore{00040703}-274.o(StubCode)
    StubCode                                 0x0000c4e0   Section        8  QtCore{00040703}-275.o(StubCode)
    theImportedSymbol                        0x0000c4e4   Data           0  QtCore{00040703}-275.o(StubCode)
    StubCode                                 0x0000c4e8   Section        8  QtCore{00040703}-282.o(StubCode)
    theImportedSymbol                        0x0000c4ec   Data           0  QtCore{00040703}-282.o(StubCode)
    StubCode                                 0x0000c4f0   Section        8  QtCore{00040703}-3040.o(StubCode)
    theImportedSymbol                        0x0000c4f4   Data           0  QtCore{00040703}-3040.o(StubCode)
    StubCode                                 0x0000c4f8   Section        8  QtCore{00040703}-3049.o(StubCode)
    theImportedSymbol                        0x0000c4fc   Data           0  QtCore{00040703}-3049.o(StubCode)
    StubCode                                 0x0000c500   Section        8  QtCore{00040703}-3095.o(StubCode)
    theImportedSymbol                        0x0000c504   Data           0  QtCore{00040703}-3095.o(StubCode)
    StubCode                                 0x0000c508   Section        8  QtCore{00040703}-3097.o(StubCode)
    theImportedSymbol                        0x0000c50c   Data           0  QtCore{00040703}-3097.o(StubCode)
    StubCode                                 0x0000c510   Section        8  QtCore{00040703}-3098.o(StubCode)
    theImportedSymbol                        0x0000c514   Data           0  QtCore{00040703}-3098.o(StubCode)
    StubCode                                 0x0000c518   Section        8  QtCore{00040703}-3136.o(StubCode)
    theImportedSymbol                        0x0000c51c   Data           0  QtCore{00040703}-3136.o(StubCode)
    StubCode                                 0x0000c520   Section        8  QtCore{00040703}-3138.o(StubCode)
    theImportedSymbol                        0x0000c524   Data           0  QtCore{00040703}-3138.o(StubCode)
    StubCode                                 0x0000c528   Section        8  QtCore{00040703}-3142.o(StubCode)
    theImportedSymbol                        0x0000c52c   Data           0  QtCore{00040703}-3142.o(StubCode)
    StubCode                                 0x0000c530   Section        8  QtCore{00040703}-3163.o(StubCode)
    theImportedSymbol                        0x0000c534   Data           0  QtCore{00040703}-3163.o(StubCode)
    StubCode                                 0x0000c538   Section        8  QtCore{00040703}-3165.o(StubCode)
    theImportedSymbol                        0x0000c53c   Data           0  QtCore{00040703}-3165.o(StubCode)
    StubCode                                 0x0000c540   Section        8  QtCore{00040703}-3166.o(StubCode)
    theImportedSymbol                        0x0000c544   Data           0  QtCore{00040703}-3166.o(StubCode)
    StubCode                                 0x0000c548   Section        8  QtCore{00040703}-3240.o(StubCode)
    theImportedSymbol                        0x0000c54c   Data           0  QtCore{00040703}-3240.o(StubCode)
    StubCode                                 0x0000c550   Section        8  QtCore{00040703}-3241.o(StubCode)
    theImportedSymbol                        0x0000c554   Data           0  QtCore{00040703}-3241.o(StubCode)
    StubCode                                 0x0000c558   Section        8  QtCore{00040703}-331.o(StubCode)
    theImportedSymbol                        0x0000c55c   Data           0  QtCore{00040703}-331.o(StubCode)
    StubCode                                 0x0000c560   Section        8  QtCore{00040703}-332.o(StubCode)
    theImportedSymbol                        0x0000c564   Data           0  QtCore{00040703}-332.o(StubCode)
    StubCode                                 0x0000c568   Section        8  QtCore{00040703}-3584.o(StubCode)
    theImportedSymbol                        0x0000c56c   Data           0  QtCore{00040703}-3584.o(StubCode)
    StubCode                                 0x0000c570   Section        8  QtCore{00040703}-3585.o(StubCode)
    theImportedSymbol                        0x0000c574   Data           0  QtCore{00040703}-3585.o(StubCode)
    StubCode                                 0x0000c578   Section        8  QtCore{00040703}-3609.o(StubCode)
    theImportedSymbol                        0x0000c57c   Data           0  QtCore{00040703}-3609.o(StubCode)
    StubCode                                 0x0000c580   Section        8  QtCore{00040703}-3610.o(StubCode)
    theImportedSymbol                        0x0000c584   Data           0  QtCore{00040703}-3610.o(StubCode)
    StubCode                                 0x0000c588   Section        8  QtCore{00040703}-3689.o(StubCode)
    theImportedSymbol                        0x0000c58c   Data           0  QtCore{00040703}-3689.o(StubCode)
    StubCode                                 0x0000c590   Section        8  QtCore{00040703}-3691.o(StubCode)
    theImportedSymbol                        0x0000c594   Data           0  QtCore{00040703}-3691.o(StubCode)
    StubCode                                 0x0000c598   Section        8  QtCore{00040703}-3692.o(StubCode)
    theImportedSymbol                        0x0000c59c   Data           0  QtCore{00040703}-3692.o(StubCode)
    StubCode                                 0x0000c5a0   Section        8  QtCore{00040703}-392.o(StubCode)
    theImportedSymbol                        0x0000c5a4   Data           0  QtCore{00040703}-392.o(StubCode)
    StubCode                                 0x0000c5a8   Section        8  QtCore{00040703}-56.o(StubCode)
    theImportedSymbol                        0x0000c5ac   Data           0  QtCore{00040703}-56.o(StubCode)
    StubCode                                 0x0000c5b0   Section        8  QtCore{00040703}-70.o(StubCode)
    theImportedSymbol                        0x0000c5b4   Data           0  QtCore{00040703}-70.o(StubCode)
    StubCode                                 0x0000c5b8   Section        8  QtCore{00040703}-741.o(StubCode)
    theImportedSymbol                        0x0000c5bc   Data           0  QtCore{00040703}-741.o(StubCode)
    StubCode                                 0x0000c5c0   Section        8  QtCore{00040703}-794.o(StubCode)
    theImportedSymbol                        0x0000c5c4   Data           0  QtCore{00040703}-794.o(StubCode)
    StubCode                                 0x0000c5c8   Section        8  QtCore{00040703}-988.o(StubCode)
    theImportedSymbol                        0x0000c5cc   Data           0  QtCore{00040703}-988.o(StubCode)
    StubCode                                 0x0000c5d0   Section        8  QtCore{00040703}-990.o(StubCode)
    theImportedSymbol                        0x0000c5d4   Data           0  QtCore{00040703}-990.o(StubCode)
    StubCode                                 0x0000c5d8   Section        8  QtCore{00040703}-991.o(StubCode)
    theImportedSymbol                        0x0000c5dc   Data           0  QtCore{00040703}-991.o(StubCode)
    StubCode                                 0x0000c5e0   Section        8  QtCore{00040703}-992.o(StubCode)
    theImportedSymbol                        0x0000c5e4   Data           0  QtCore{00040703}-992.o(StubCode)
    StubCode                                 0x0000c5e8   Section        8  QtCore{00040703}-996.o(StubCode)
    theImportedSymbol                        0x0000c5ec   Data           0  QtCore{00040703}-996.o(StubCode)
    StubCode                                 0x0000c5f0   Section        8  libc{00010000}-350.o(StubCode)
    theImportedSymbol                        0x0000c5f4   Data           0  libc{00010000}-350.o(StubCode)
    StubCode                                 0x0000c5f8   Section        8  euser{000a0000}-670.o(StubCode)
    theImportedSymbol                        0x0000c5fc   Data           0  euser{000a0000}-670.o(StubCode)
    StubCode                                 0x0000c600   Section        8  euser{000a0000}-671.o(StubCode)
    theImportedSymbol                        0x0000c604   Data           0  euser{000a0000}-671.o(StubCode)
    StubCode                                 0x0000c608   Section        8  dfpaeabi{000a0000}-36.o(StubCode)
    theImportedSymbol                        0x0000c60c   Data           0  dfpaeabi{000a0000}-36.o(StubCode)
    StubCode                                 0x0000c610   Section        8  dfpaeabi{000a0000}-42.o(StubCode)
    theImportedSymbol                        0x0000c614   Data           0  dfpaeabi{000a0000}-42.o(StubCode)
    StubCode                                 0x0000c618   Section        8  drtaeabi{000a0000}-147.o(StubCode)
    theImportedSymbol                        0x0000c61c   Data           0  drtaeabi{000a0000}-147.o(StubCode)
    StubCode                                 0x0000c620   Section        8  drtaeabi{000a0000}-155.o(StubCode)
    theImportedSymbol                        0x0000c624   Data           0  drtaeabi{000a0000}-155.o(StubCode)
    StubCode                                 0x0000c628   Section        8  drtaeabi{000a0000}-158.o(StubCode)
    theImportedSymbol                        0x0000c62c   Data           0  drtaeabi{000a0000}-158.o(StubCode)
    StubCode                                 0x0000c630   Section        8  drtaeabi{000a0000}-180.o(StubCode)
    theImportedSymbol                        0x0000c634   Data           0  drtaeabi{000a0000}-180.o(StubCode)
    StubCode                                 0x0000c638   Section        8  drtaeabi{000a0000}-183.o(StubCode)
    theImportedSymbol                        0x0000c63c   Data           0  drtaeabi{000a0000}-183.o(StubCode)
    StubCode                                 0x0000c640   Section        8  drtaeabi{000a0000}-184.o(StubCode)
    theImportedSymbol                        0x0000c644   Data           0  drtaeabi{000a0000}-184.o(StubCode)
    StubCode                                 0x0000c648   Section        8  drtaeabi{000a0000}-186.o(StubCode)
    theImportedSymbol                        0x0000c64c   Data           0  drtaeabi{000a0000}-186.o(StubCode)
    StubCode                                 0x0000c650   Section        8  drtaeabi{000a0000}-187.o(StubCode)
    theImportedSymbol                        0x0000c654   Data           0  drtaeabi{000a0000}-187.o(StubCode)
    StubCode                                 0x0000c658   Section        8  drtaeabi{000a0000}-188.o(StubCode)
    theImportedSymbol                        0x0000c65c   Data           0  drtaeabi{000a0000}-188.o(StubCode)
    StubCode                                 0x0000c660   Section        8  drtaeabi{000a0000}-189.o(StubCode)
    theImportedSymbol                        0x0000c664   Data           0  drtaeabi{000a0000}-189.o(StubCode)
    StubCode                                 0x0000c668   Section        8  drtaeabi{000a0000}-190.o(StubCode)
    theImportedSymbol                        0x0000c66c   Data           0  drtaeabi{000a0000}-190.o(StubCode)
    StubCode                                 0x0000c670   Section        8  drtrvct2_2{000a0000}-28.o(StubCode)
    theImportedSymbol                        0x0000c674   Data           0  drtrvct2_2{000a0000}-28.o(StubCode)
    i._Z28qScriptValueFromValue_helperP13QScriptEngineiPKv 0x0000c678   Section       18  declarative_gallery.in(i._Z28qScriptValueFromValue_helperP13QScriptEngineiPKv)
    i._ZN10QByteArrayC1ERKS_                 0x0000c68a   Section       16  declarative_gallery.in(i._ZN10QByteArrayC1ERKS_)
    i._ZN10QByteArrayD1Ev                    0x0000c69a   Section       24  declarative_gallery.in(i._ZN10QByteArrayD1Ev)
    i._ZN10QtMobility25QGalleryDeclarativeModule13registerTypesEPKc 0x0000c6b4   Section      616  declarative_gallery.in(i._ZN10QtMobility25QGalleryDeclarativeModule13registerTypesEPKc)
    i._ZN10QtMobility25QGalleryDeclarativeModule13registerTypesEPKc.clean 0x0000c91c   Section       10  declarative_gallery.in(i._ZN10QtMobility25QGalleryDeclarativeModule13registerTypesEPKc.clean)
    i._ZN10QtMobility25QGalleryDeclarativeModuleD0Ev 0x0000c926   Section       16  declarative_gallery.in(i._ZN10QtMobility25QGalleryDeclarativeModuleD0Ev)
    i._ZN10QtMobility25QGalleryDeclarativeModuleD1Ev 0x0000c936   Section        8  declarative_gallery.in(i._ZN10QtMobility25QGalleryDeclarativeModuleD1Ev)
    i._ZN10QtMobility29QDeclarativeGalleryFilterBaseC2EP7QObject 0x0000c940   Section       16  declarative_gallery.in(i._ZN10QtMobility29QDeclarativeGalleryFilterBaseC2EP7QObject)
    i._ZN10QtMobility29QDeclarativeGalleryFilterBaseD0Ev 0x0000c950   Section       16  declarative_gallery.in(i._ZN10QtMobility29QDeclarativeGalleryFilterBaseD0Ev)
    i._ZN10QtMobility29QDeclarativeGalleryFilterBaseD2Ev 0x0000c960   Section        8  declarative_gallery.in(i._ZN10QtMobility29QDeclarativeGalleryFilterBaseD2Ev)
    i._ZN10QtMobility29QDeclarativeGalleryQueryModel2trEPKcS2_ 0x0000c968   Section       20  declarative_gallery.in(i._ZN10QtMobility29QDeclarativeGalleryQueryModel2trEPKcS2_)
    i._ZN10QtMobility30QDeclarativeGalleryFilterGroupC2EP7QObject 0x0000c97c   Section       56  declarative_gallery.in(i._ZN10QtMobility30QDeclarativeGalleryFilterGroupC2EP7QObject)
    i._ZN10QtMobility30QDeclarativeGalleryFilterGroupC2EP7QObject.clean 0x0000c9b4   Section       22  declarative_gallery.in(i._ZN10QtMobility30QDeclarativeGalleryFilterGroupC2EP7QObject.clean)
    i._ZN10QtMobility30QDeclarativeGalleryFilterGroupD0Ev 0x0000c9ca   Section       16  declarative_gallery.in(i._ZN10QtMobility30QDeclarativeGalleryFilterGroupD0Ev)
    i._ZN10QtMobility30QDeclarativeGalleryFilterGroupD2Ev 0x0000c9dc   Section       44  declarative_gallery.in(i._ZN10QtMobility30QDeclarativeGalleryFilterGroupD2Ev)
    i._ZN10QtMobility30QDeclarativeGalleryFilterGroupD2Ev.clean 0x0000ca08   Section       22  declarative_gallery.in(i._ZN10QtMobility30QDeclarativeGalleryFilterGroupD2Ev.clean)
    i._ZN10QtMobility30QDeclarativeGalleryFilterUnionD0Ev 0x0000ca1e   Section       16  declarative_gallery.in(i._ZN10QtMobility30QDeclarativeGalleryFilterUnionD0Ev)
    i._ZN10QtMobility30QDeclarativeGalleryFilterUnionD1Ev 0x0000ca2e   Section        8  declarative_gallery.in(i._ZN10QtMobility30QDeclarativeGalleryFilterUnionD1Ev)
    i._ZN10QtMobility30QDeclarativeGalleryValueFilterC1ENS_14QGalleryFilter10ComparatorEP7QObject 0x0000ca38   Section       48  declarative_gallery.in(i._ZN10QtMobility30QDeclarativeGalleryValueFilterC1ENS_14QGalleryFilter10ComparatorEP7QObject)
    i._ZN10QtMobility30QDeclarativeGalleryValueFilterC1ENS_14QGalleryFilter10ComparatorEP7QObject.clean 0x0000ca68   Section       22  declarative_gallery.in(i._ZN10QtMobility30QDeclarativeGalleryValueFilterC1ENS_14QGalleryFilter10ComparatorEP7QObject.clean)
    i._ZN10QtMobility30QDeclarativeGalleryValueFilterD0Ev 0x0000ca7e   Section       16  declarative_gallery.in(i._ZN10QtMobility30QDeclarativeGalleryValueFilterD0Ev)
    i._ZN10QtMobility30QDeclarativeGalleryValueFilterD1Ev 0x0000ca90   Section       28  declarative_gallery.in(i._ZN10QtMobility30QDeclarativeGalleryValueFilterD1Ev)
    i._ZN10QtMobility30QDeclarativeGalleryValueFilterD1Ev.clean 0x0000caac   Section       10  declarative_gallery.in(i._ZN10QtMobility30QDeclarativeGalleryValueFilterD1Ev.clean)
    i._ZN10QtMobility31QDeclarativeGalleryEqualsFilterD0Ev 0x0000cab6   Section       16  declarative_gallery.in(i._ZN10QtMobility31QDeclarativeGalleryEqualsFilterD0Ev)
    i._ZN10QtMobility31QDeclarativeGalleryEqualsFilterD1Ev 0x0000cac6   Section        8  declarative_gallery.in(i._ZN10QtMobility31QDeclarativeGalleryEqualsFilterD1Ev)
    i._ZN10QtMobility31QDeclarativeGalleryStringFilterC1ENS_14QGalleryFilter10ComparatorEP7QObject 0x0000cad0   Section       48  declarative_gallery.in(i._ZN10QtMobility31QDeclarativeGalleryStringFilterC1ENS_14QGalleryFilter10ComparatorEP7QObject)
    i._ZN10QtMobility31QDeclarativeGalleryStringFilterC1ENS_14QGalleryFilter10ComparatorEP7QObject.clean 0x0000cb00   Section       22  declarative_gallery.in(i._ZN10QtMobility31QDeclarativeGalleryStringFilterC1ENS_14QGalleryFilter10ComparatorEP7QObject.clean)
    i._ZN10QtMobility31QDeclarativeGalleryStringFilterD0Ev 0x0000cb16   Section       16  declarative_gallery.in(i._ZN10QtMobility31QDeclarativeGalleryStringFilterD0Ev)
    i._ZN10QtMobility31QDeclarativeGalleryStringFilterD1Ev 0x0000cb28   Section       28  declarative_gallery.in(i._ZN10QtMobility31QDeclarativeGalleryStringFilterD1Ev)
    i._ZN10QtMobility31QDeclarativeGalleryStringFilterD1Ev.clean 0x0000cb44   Section       10  declarative_gallery.in(i._ZN10QtMobility31QDeclarativeGalleryStringFilterD1Ev.clean)
    i._ZN10QtMobility33QDeclarativeGalleryContainsFilterD0Ev 0x0000cb4e   Section       16  declarative_gallery.in(i._ZN10QtMobility33QDeclarativeGalleryContainsFilterD0Ev)
    i._ZN10QtMobility33QDeclarativeGalleryContainsFilterD1Ev 0x0000cb5e   Section        8  declarative_gallery.in(i._ZN10QtMobility33QDeclarativeGalleryContainsFilterD1Ev)
    i._ZN10QtMobility33QDeclarativeGalleryEndsWithFilterD0Ev 0x0000cb66   Section       16  declarative_gallery.in(i._ZN10QtMobility33QDeclarativeGalleryEndsWithFilterD0Ev)
    i._ZN10QtMobility33QDeclarativeGalleryEndsWithFilterD1Ev 0x0000cb76   Section        8  declarative_gallery.in(i._ZN10QtMobility33QDeclarativeGalleryEndsWithFilterD1Ev)
    i._ZN10QtMobility33QDeclarativeGalleryLessThanFilterD0Ev 0x0000cb7e   Section       16  declarative_gallery.in(i._ZN10QtMobility33QDeclarativeGalleryLessThanFilterD0Ev)
    i._ZN10QtMobility33QDeclarativeGalleryLessThanFilterD1Ev 0x0000cb8e   Section        8  declarative_gallery.in(i._ZN10QtMobility33QDeclarativeGalleryLessThanFilterD1Ev)
    i._ZN10QtMobility33QDeclarativeGalleryWildcardFilterD0Ev 0x0000cb96   Section       16  declarative_gallery.in(i._ZN10QtMobility33QDeclarativeGalleryWildcardFilterD0Ev)
    i._ZN10QtMobility33QDeclarativeGalleryWildcardFilterD1Ev 0x0000cba6   Section        8  declarative_gallery.in(i._ZN10QtMobility33QDeclarativeGalleryWildcardFilterD1Ev)
    i._ZN10QtMobility35QDeclarativeGalleryStartsWithFilterD0Ev 0x0000cbae   Section       16  declarative_gallery.in(i._ZN10QtMobility35QDeclarativeGalleryStartsWithFilterD0Ev)
    i._ZN10QtMobility35QDeclarativeGalleryStartsWithFilterD1Ev 0x0000cbbe   Section        8  declarative_gallery.in(i._ZN10QtMobility35QDeclarativeGalleryStartsWithFilterD1Ev)
    i._ZN10QtMobility36QDeclarativeGalleryGreaterThanFilterD0Ev 0x0000cbc6   Section       16  declarative_gallery.in(i._ZN10QtMobility36QDeclarativeGalleryGreaterThanFilterD0Ev)
    i._ZN10QtMobility36QDeclarativeGalleryGreaterThanFilterD1Ev 0x0000cbd6   Section        8  declarative_gallery.in(i._ZN10QtMobility36QDeclarativeGalleryGreaterThanFilterD1Ev)
    i._ZN10QtMobility37QDeclarativeGalleryFilterIntersectionD0Ev 0x0000cbde   Section       16  declarative_gallery.in(i._ZN10QtMobility37QDeclarativeGalleryFilterIntersectionD0Ev)
    i._ZN10QtMobility37QDeclarativeGalleryFilterIntersectionD1Ev 0x0000cbee   Section        8  declarative_gallery.in(i._ZN10QtMobility37QDeclarativeGalleryFilterIntersectionD1Ev)
    i._ZN10QtMobility39QDeclarativeGalleryLessThanEqualsFilterD0Ev 0x0000cbf6   Section       16  declarative_gallery.in(i._ZN10QtMobility39QDeclarativeGalleryLessThanEqualsFilterD0Ev)
    i._ZN10QtMobility39QDeclarativeGalleryLessThanEqualsFilterD1Ev 0x0000cc06   Section        8  declarative_gallery.in(i._ZN10QtMobility39QDeclarativeGalleryLessThanEqualsFilterD1Ev)
    i._ZN10QtMobility42QDeclarativeGalleryGreaterThanEqualsFilterD0Ev 0x0000cc0e   Section       16  declarative_gallery.in(i._ZN10QtMobility42QDeclarativeGalleryGreaterThanEqualsFilterD0Ev)
    i._ZN10QtMobility42QDeclarativeGalleryGreaterThanEqualsFilterD1Ev 0x0000cc1e   Section        8  declarative_gallery.in(i._ZN10QtMobility42QDeclarativeGalleryGreaterThanEqualsFilterD1Ev)
    i._ZN11QModelIndexC1Ev                   0x0000cc26   Section       16  declarative_gallery.in(i._ZN11QModelIndexC1Ev)
    i._ZN11QModelIndexD1Ev                   0x0000cc36   Section        8  declarative_gallery.in(i._ZN11QModelIndexD1Ev)
    i._ZN11QStringListD1Ev                   0x0000cc3e   Section        8  declarative_gallery.in(i._ZN11QStringListD1Ev)
    i._ZN11QStringListaSERKS_                0x0000cc46   Section       56  declarative_gallery.in(i._ZN11QStringListaSERKS_)
    i._ZN15QBasicAtomicInt3refEv             0x0000cc7e   Section       18  declarative_gallery.in(i._ZN15QBasicAtomicInt3refEv)
    i._ZN15QBasicAtomicInt5derefEv           0x0000cc90   Section       18  declarative_gallery.in(i._ZN15QBasicAtomicInt5derefEv)
    i._ZN16QDeclarativeInfolsERK7QString     0x0000cca2   Section       62  declarative_gallery.in(i._ZN16QDeclarativeInfolsERK7QString)
    i._ZN16QDeclarativeInfolsERK7QString.clean 0x0000cce0   Section       18  declarative_gallery.in(i._ZN16QDeclarativeInfolsERK7QString.clean)
    i._ZN19QDeclarativePrivate12RegisterTypeD1Ev 0x0000ccf2   Section       12  declarative_gallery.in(i._ZN19QDeclarativePrivate12RegisterTypeD1Ev)
    i._ZN19QDeclarativePrivate19QDeclarativeElementIN10QtMobility30QDeclarativeGalleryFilterUnionEED0Ev 0x0000ccfe   Section       16  declarative_gallery.in(i._ZN19QDeclarativePrivate19QDeclarativeElementIN10QtMobility30QDeclarativeGalleryFilterUnionEED0Ev)
    i._ZN19QDeclarativePrivate19QDeclarativeElementIN10QtMobility31QDeclarativeDocumentGalleryItemEED0Ev 0x0000cd0e   Section       16  declarative_gallery.in(i._ZN19QDeclarativePrivate19QDeclarativeElementIN10QtMobility31QDeclarativeDocumentGalleryItemEED0Ev)
    i._ZN19QDeclarativePrivate19QDeclarativeElementIN10QtMobility31QDeclarativeDocumentGalleryTypeEED0Ev 0x0000cd1e   Section       16  declarative_gallery.in(i._ZN19QDeclarativePrivate19QDeclarativeElementIN10QtMobility31QDeclarativeDocumentGalleryTypeEED0Ev)
    i._ZN19QDeclarativePrivate19QDeclarativeElementIN10QtMobility31QDeclarativeGalleryEqualsFilterEED0Ev 0x0000cd2e   Section       16  declarative_gallery.in(i._ZN19QDeclarativePrivate19QDeclarativeElementIN10QtMobility31QDeclarativeGalleryEqualsFilterEED0Ev)
    i._ZN19QDeclarativePrivate19QDeclarativeElementIN10QtMobility32QDeclarativeDocumentGalleryModelEED0Ev 0x0000cd3e   Section       16  declarative_gallery.in(i._ZN19QDeclarativePrivate19QDeclarativeElementIN10QtMobility32QDeclarativeDocumentGalleryModelEED0Ev)
    i._ZN19QDeclarativePrivate19QDeclarativeElementIN10QtMobility33QDeclarativeGalleryContainsFilterEED0Ev 0x0000cd4e   Section       16  declarative_gallery.in(i._ZN19QDeclarativePrivate19QDeclarativeElementIN10QtMobility33QDeclarativeGalleryContainsFilterEED0Ev)
    i._ZN19QDeclarativePrivate19QDeclarativeElementIN10QtMobility33QDeclarativeGalleryEndsWithFilterEED0Ev 0x0000cd5e   Section       16  declarative_gallery.in(i._ZN19QDeclarativePrivate19QDeclarativeElementIN10QtMobility33QDeclarativeGalleryEndsWithFilterEED0Ev)
    i._ZN19QDeclarativePrivate19QDeclarativeElementIN10QtMobility33QDeclarativeGalleryLessThanFilterEED0Ev 0x0000cd6e   Section       16  declarative_gallery.in(i._ZN19QDeclarativePrivate19QDeclarativeElementIN10QtMobility33QDeclarativeGalleryLessThanFilterEED0Ev)
    i._ZN19QDeclarativePrivate19QDeclarativeElementIN10QtMobility33QDeclarativeGalleryWildcardFilterEED0Ev 0x0000cd7e   Section       16  declarative_gallery.in(i._ZN19QDeclarativePrivate19QDeclarativeElementIN10QtMobility33QDeclarativeGalleryWildcardFilterEED0Ev)
    i._ZN19QDeclarativePrivate19QDeclarativeElementIN10QtMobility35QDeclarativeGalleryStartsWithFilterEED0Ev 0x0000cd8e   Section       16  declarative_gallery.in(i._ZN19QDeclarativePrivate19QDeclarativeElementIN10QtMobility35QDeclarativeGalleryStartsWithFilterEED0Ev)
    i._ZN19QDeclarativePrivate19QDeclarativeElementIN10QtMobility36QDeclarativeGalleryGreaterThanFilterEED0Ev 0x0000cd9e   Section       16  declarative_gallery.in(i._ZN19QDeclarativePrivate19QDeclarativeElementIN10QtMobility36QDeclarativeGalleryGreaterThanFilterEED0Ev)
    i._ZN19QDeclarativePrivate19QDeclarativeElementIN10QtMobility37QDeclarativeGalleryFilterIntersectionEED0Ev 0x0000cdae   Section       16  declarative_gallery.in(i._ZN19QDeclarativePrivate19QDeclarativeElementIN10QtMobility37QDeclarativeGalleryFilterIntersectionEED0Ev)
    i._ZN19QDeclarativePrivate19QDeclarativeElementIN10QtMobility39QDeclarativeGalleryLessThanEqualsFilterEED0Ev 0x0000cdbe   Section       16  declarative_gallery.in(i._ZN19QDeclarativePrivate19QDeclarativeElementIN10QtMobility39QDeclarativeGalleryLessThanEqualsFilterEED0Ev)
    i._ZN19QDeclarativePrivate19QDeclarativeElementIN10QtMobility42QDeclarativeGalleryGreaterThanEqualsFilterEED0Ev 0x0000cdce   Section       16  declarative_gallery.in(i._ZN19QDeclarativePrivate19QDeclarativeElementIN10QtMobility42QDeclarativeGalleryGreaterThanEqualsFilterEED0Ev)
    i._ZN5QPairIi7QStringEC1ERKS1_           0x0000cdde   Section       14  declarative_gallery.in(i._ZN5QPairIi7QStringEC1ERKS1_)
    i._ZN5QPairIi7QStringED1Ev               0x0000cdec   Section       12  declarative_gallery.in(i._ZN5QPairIi7QStringED1Ev)
    i._ZN7QStringC1ERK13QLatin1String        0x0000cdf8   Section       20  declarative_gallery.in(i._ZN7QStringC1ERK13QLatin1String)
    i._ZN7QStringC1ERKS_                     0x0000ce0c   Section       16  declarative_gallery.in(i._ZN7QStringC1ERKS_)
    i._ZN7QStringC1Ev                        0x0000ce1c   Section       20  declarative_gallery.in(i._ZN7QStringC1Ev)
    i._ZN7QStringD1Ev                        0x0000ce30   Section       24  declarative_gallery.in(i._ZN7QStringD1Ev)
    i._ZN8QVariantC1Ev                       0x0000ce48   Section       24  declarative_gallery.in(i._ZN8QVariantC1Ev)
    i._ZNK11QModelIndex7isValidEv            0x0000ce60   Section       26  declarative_gallery.in(i._ZNK11QModelIndex7isValidEv)
    i._ZNK15QBasicAtomicInteqEi              0x0000ce7a   Section       14  declarative_gallery.in(i._ZNK15QBasicAtomicInteqEi)
    i._ZNK15QBasicAtomicIntneEi              0x0000ce88   Section       14  declarative_gallery.in(i._ZNK15QBasicAtomicIntneEi)
    i._ZNK15QBasicAtomicIntntEv              0x0000ce96   Section       14  declarative_gallery.in(i._ZNK15QBasicAtomicIntntEv)
    i._ZNK7QString7isEmptyEv                 0x0000cea4   Section       16  declarative_gallery.in(i._ZNK7QString7isEmptyEv)
    i._ZNK7QStringneERKS_                    0x0000ceb4   Section       12  declarative_gallery.in(i._ZNK7QStringneERKS_)
    i._ZNK8QVariant7isValidEv                0x0000cec0   Section       14  declarative_gallery.in(i._ZNK8QVariant7isValidEv)
    i._ZNK9QListData3endEv                   0x0000cece   Section       12  declarative_gallery.in(i._ZNK9QListData3endEv)
    i._ZNK9QListData5beginEv                 0x0000ceda   Section       12  declarative_gallery.in(i._ZNK9QListData5beginEv)
    i._ZThn8_N10QtMobility25QGalleryDeclarativeModule13registerTypesEPKc 0x0000cee6   Section       10  declarative_gallery.in(i._ZThn8_N10QtMobility25QGalleryDeclarativeModule13registerTypesEPKc)
    i._ZThn8_N10QtMobility25QGalleryDeclarativeModuleD0Ev 0x0000cef0   Section       10  declarative_gallery.in(i._ZThn8_N10QtMobility25QGalleryDeclarativeModuleD0Ev)
    i._ZThn8_N10QtMobility25QGalleryDeclarativeModuleD1Ev 0x0000cefa   Section       10  declarative_gallery.in(i._ZThn8_N10QtMobility25QGalleryDeclarativeModuleD1Ev)
    i._ZThn8_N10QtMobility30QDeclarativeGalleryFilterGroupD0Ev 0x0000cf04   Section       10  declarative_gallery.in(i._ZThn8_N10QtMobility30QDeclarativeGalleryFilterGroupD0Ev)
    i._ZThn8_N10QtMobility30QDeclarativeGalleryFilterGroupD1Ev 0x0000cf0e   Section       10  declarative_gallery.in(i._ZThn8_N10QtMobility30QDeclarativeGalleryFilterGroupD1Ev)
    i._ZThn8_N10QtMobility30QDeclarativeGalleryFilterUnionD0Ev 0x0000cf18   Section       10  declarative_gallery.in(i._ZThn8_N10QtMobility30QDeclarativeGalleryFilterUnionD0Ev)
    i._ZThn8_N10QtMobility30QDeclarativeGalleryFilterUnionD1Ev 0x0000cf22   Section       10  declarative_gallery.in(i._ZThn8_N10QtMobility30QDeclarativeGalleryFilterUnionD1Ev)
    i._ZThn8_N10QtMobility37QDeclarativeGalleryFilterIntersectionD0Ev 0x0000cf2c   Section       10  declarative_gallery.in(i._ZThn8_N10QtMobility37QDeclarativeGalleryFilterIntersectionD0Ev)
    i._ZThn8_N10QtMobility37QDeclarativeGalleryFilterIntersectionD1Ev 0x0000cf36   Section       10  declarative_gallery.in(i._ZThn8_N10QtMobility37QDeclarativeGalleryFilterIntersectionD1Ev)
    i._ZThn8_N19QDeclarativePrivate19QDeclarativeElementIN10QtMobility30QDeclarativeGalleryFilterUnionEED0Ev 0x0000cf40   Section       10  declarative_gallery.in(i._ZThn8_N19QDeclarativePrivate19QDeclarativeElementIN10QtMobility30QDeclarativeGalleryFilterUnionEED0Ev)
    i._ZThn8_N19QDeclarativePrivate19QDeclarativeElementIN10QtMobility30QDeclarativeGalleryFilterUnionEED1Ev 0x0000cf4a   Section       10  declarative_gallery.in(i._ZThn8_N19QDeclarativePrivate19QDeclarativeElementIN10QtMobility30QDeclarativeGalleryFilterUnionEED1Ev)
    i._ZThn8_N19QDeclarativePrivate19QDeclarativeElementIN10QtMobility31QDeclarativeDocumentGalleryItemEED0Ev 0x0000cf54   Section       10  declarative_gallery.in(i._ZThn8_N19QDeclarativePrivate19QDeclarativeElementIN10QtMobility31QDeclarativeDocumentGalleryItemEED0Ev)
    i._ZThn8_N19QDeclarativePrivate19QDeclarativeElementIN10QtMobility31QDeclarativeDocumentGalleryItemEED1Ev 0x0000cf5e   Section       10  declarative_gallery.in(i._ZThn8_N19QDeclarativePrivate19QDeclarativeElementIN10QtMobility31QDeclarativeDocumentGalleryItemEED1Ev)
    i._ZThn8_N19QDeclarativePrivate19QDeclarativeElementIN10QtMobility31QDeclarativeDocumentGalleryTypeEED0Ev 0x0000cf68   Section       10  declarative_gallery.in(i._ZThn8_N19QDeclarativePrivate19QDeclarativeElementIN10QtMobility31QDeclarativeDocumentGalleryTypeEED0Ev)
    i._ZThn8_N19QDeclarativePrivate19QDeclarativeElementIN10QtMobility31QDeclarativeDocumentGalleryTypeEED1Ev 0x0000cf72   Section       10  declarative_gallery.in(i._ZThn8_N19QDeclarativePrivate19QDeclarativeElementIN10QtMobility31QDeclarativeDocumentGalleryTypeEED1Ev)
    i._ZThn8_N19QDeclarativePrivate19QDeclarativeElementIN10QtMobility32QDeclarativeDocumentGalleryModelEED0Ev 0x0000cf7c   Section       10  declarative_gallery.in(i._ZThn8_N19QDeclarativePrivate19QDeclarativeElementIN10QtMobility32QDeclarativeDocumentGalleryModelEED0Ev)
    i._ZThn8_N19QDeclarativePrivate19QDeclarativeElementIN10QtMobility32QDeclarativeDocumentGalleryModelEED1Ev 0x0000cf86   Section       10  declarative_gallery.in(i._ZThn8_N19QDeclarativePrivate19QDeclarativeElementIN10QtMobility32QDeclarativeDocumentGalleryModelEED1Ev)
    i._ZThn8_N19QDeclarativePrivate19QDeclarativeElementIN10QtMobility37QDeclarativeGalleryFilterIntersectionEED0Ev 0x0000cf90   Section       10  declarative_gallery.in(i._ZThn8_N19QDeclarativePrivate19QDeclarativeElementIN10QtMobility37QDeclarativeGalleryFilterIntersectionEED0Ev)
    i._ZThn8_N19QDeclarativePrivate19QDeclarativeElementIN10QtMobility37QDeclarativeGalleryFilterIntersectionEED1Ev 0x0000cf9a   Section       10  declarative_gallery.in(i._ZThn8_N19QDeclarativePrivate19QDeclarativeElementIN10QtMobility37QDeclarativeGalleryFilterIntersectionEED1Ev)
    i._ZdlPvS_                               0x0000cfa4   Section        2  declarative_gallery.in(i._ZdlPvS_)
    i._ZnwjPv                                0x0000cfa6   Section        4  declarative_gallery.in(i._ZnwjPv)
    i._ZplPKcRK10QByteArray                  0x0000cfaa   Section       34  declarative_gallery.in(i._ZplPKcRK10QByteArray)
    i._ZplPKcRK10QByteArray.clean            0x0000cfcc   Section       10  declarative_gallery.in(i._ZplPKcRK10QByteArray.clean)
    i._ZplRK10QByteArrayPKc                  0x0000cfd6   Section       34  declarative_gallery.in(i._ZplRK10QByteArrayPKc)
    i._ZplRK10QByteArrayPKc.clean            0x0000cff8   Section       10  declarative_gallery.in(i._ZplRK10QByteArrayPKc.clean)
    i._ZplRK10QByteArrayc                    0x0000d002   Section       34  declarative_gallery.in(i._ZplRK10QByteArrayc)
    i._ZplRK10QByteArrayc.clean              0x0000d024   Section       10  declarative_gallery.in(i._ZplRK10QByteArrayc.clean)
    t._Z15qmlRegisterTypeIN10QtMobility29QDeclarativeGalleryFilterBaseEEiv 0x0000d030   Section      212  declarative_gallery.in(t._Z15qmlRegisterTypeIN10QtMobility29QDeclarativeGalleryFilterBaseEEiv)
    t._Z15qmlRegisterTypeIN10QtMobility29QDeclarativeGalleryFilterBaseEEiv.clean 0x0000d104   Section       44  declarative_gallery.in(t._Z15qmlRegisterTypeIN10QtMobility29QDeclarativeGalleryFilterBaseEEiv.clean)
    t._Z15qmlRegisterTypeIN10QtMobility30QDeclarativeGalleryFilterUnionEEiPKciiS3_ 0x0000d130   Section      228  declarative_gallery.in(t._Z15qmlRegisterTypeIN10QtMobility30QDeclarativeGalleryFilterUnionEEiPKciiS3_)
    t._Z15qmlRegisterTypeIN10QtMobility30QDeclarativeGalleryFilterUnionEEiPKciiS3_.clean 0x0000d214   Section       44  declarative_gallery.in(t._Z15qmlRegisterTypeIN10QtMobility30QDeclarativeGalleryFilterUnionEEiPKciiS3_.clean)
    t._Z15qmlRegisterTypeIN10QtMobility31QDeclarativeDocumentGalleryItemEEiPKciiS3_ 0x0000d240   Section      228  declarative_gallery.in(t._Z15qmlRegisterTypeIN10QtMobility31QDeclarativeDocumentGalleryItemEEiPKciiS3_)
    t._Z15qmlRegisterTypeIN10QtMobility31QDeclarativeDocumentGalleryItemEEiPKciiS3_.clean 0x0000d324   Section       44  declarative_gallery.in(t._Z15qmlRegisterTypeIN10QtMobility31QDeclarativeDocumentGalleryItemEEiPKciiS3_.clean)
    t._Z15qmlRegisterTypeIN10QtMobility31QDeclarativeDocumentGalleryTypeEEiPKciiS3_ 0x0000d350   Section      228  declarative_gallery.in(t._Z15qmlRegisterTypeIN10QtMobility31QDeclarativeDocumentGalleryTypeEEiPKciiS3_)
    t._Z15qmlRegisterTypeIN10QtMobility31QDeclarativeDocumentGalleryTypeEEiPKciiS3_.clean 0x0000d434   Section       44  declarative_gallery.in(t._Z15qmlRegisterTypeIN10QtMobility31QDeclarativeDocumentGalleryTypeEEiPKciiS3_.clean)
    t._Z15qmlRegisterTypeIN10QtMobility31QDeclarativeGalleryEqualsFilterEEiPKciiS3_ 0x0000d460   Section      224  declarative_gallery.in(t._Z15qmlRegisterTypeIN10QtMobility31QDeclarativeGalleryEqualsFilterEEiPKciiS3_)
    t._Z15qmlRegisterTypeIN10QtMobility31QDeclarativeGalleryEqualsFilterEEiPKciiS3_.clean 0x0000d540   Section       44  declarative_gallery.in(t._Z15qmlRegisterTypeIN10QtMobility31QDeclarativeGalleryEqualsFilterEEiPKciiS3_.clean)
    t._Z15qmlRegisterTypeIN10QtMobility32QDeclarativeDocumentGalleryModelEEiPKciiS3_ 0x0000d56c   Section      228  declarative_gallery.in(t._Z15qmlRegisterTypeIN10QtMobility32QDeclarativeDocumentGalleryModelEEiPKciiS3_)
    t._Z15qmlRegisterTypeIN10QtMobility32QDeclarativeDocumentGalleryModelEEiPKciiS3_.clean 0x0000d650   Section       44  declarative_gallery.in(t._Z15qmlRegisterTypeIN10QtMobility32QDeclarativeDocumentGalleryModelEEiPKciiS3_.clean)
    t._Z15qmlRegisterTypeIN10QtMobility33QDeclarativeGalleryContainsFilterEEiPKciiS3_ 0x0000d67c   Section      224  declarative_gallery.in(t._Z15qmlRegisterTypeIN10QtMobility33QDeclarativeGalleryContainsFilterEEiPKciiS3_)
    t._Z15qmlRegisterTypeIN10QtMobility33QDeclarativeGalleryContainsFilterEEiPKciiS3_.clean 0x0000d75c   Section       44  declarative_gallery.in(t._Z15qmlRegisterTypeIN10QtMobility33QDeclarativeGalleryContainsFilterEEiPKciiS3_.clean)
    t._Z15qmlRegisterTypeIN10QtMobility33QDeclarativeGalleryEndsWithFilterEEiPKciiS3_ 0x0000d788   Section      224  declarative_gallery.in(t._Z15qmlRegisterTypeIN10QtMobility33QDeclarativeGalleryEndsWithFilterEEiPKciiS3_)
    t._Z15qmlRegisterTypeIN10QtMobility33QDeclarativeGalleryEndsWithFilterEEiPKciiS3_.clean 0x0000d868   Section       44  declarative_gallery.in(t._Z15qmlRegisterTypeIN10QtMobility33QDeclarativeGalleryEndsWithFilterEEiPKciiS3_.clean)
    t._Z15qmlRegisterTypeIN10QtMobility33QDeclarativeGalleryLessThanFilterEEiPKciiS3_ 0x0000d894   Section      224  declarative_gallery.in(t._Z15qmlRegisterTypeIN10QtMobility33QDeclarativeGalleryLessThanFilterEEiPKciiS3_)
    t._Z15qmlRegisterTypeIN10QtMobility33QDeclarativeGalleryLessThanFilterEEiPKciiS3_.clean 0x0000d974   Section       44  declarative_gallery.in(t._Z15qmlRegisterTypeIN10QtMobility33QDeclarativeGalleryLessThanFilterEEiPKciiS3_.clean)
    t._Z15qmlRegisterTypeIN10QtMobility33QDeclarativeGalleryWildcardFilterEEiPKciiS3_ 0x0000d9a0   Section      224  declarative_gallery.in(t._Z15qmlRegisterTypeIN10QtMobility33QDeclarativeGalleryWildcardFilterEEiPKciiS3_)
    t._Z15qmlRegisterTypeIN10QtMobility33QDeclarativeGalleryWildcardFilterEEiPKciiS3_.clean 0x0000da80   Section       44  declarative_gallery.in(t._Z15qmlRegisterTypeIN10QtMobility33QDeclarativeGalleryWildcardFilterEEiPKciiS3_.clean)
    t._Z15qmlRegisterTypeIN10QtMobility35QDeclarativeGalleryStartsWithFilterEEiPKciiS3_ 0x0000daac   Section      224  declarative_gallery.in(t._Z15qmlRegisterTypeIN10QtMobility35QDeclarativeGalleryStartsWithFilterEEiPKciiS3_)
    t._Z15qmlRegisterTypeIN10QtMobility35QDeclarativeGalleryStartsWithFilterEEiPKciiS3_.clean 0x0000db8c   Section       44  declarative_gallery.in(t._Z15qmlRegisterTypeIN10QtMobility35QDeclarativeGalleryStartsWithFilterEEiPKciiS3_.clean)
    t._Z15qmlRegisterTypeIN10QtMobility36QDeclarativeGalleryGreaterThanFilterEEiPKciiS3_ 0x0000dbb8   Section      224  declarative_gallery.in(t._Z15qmlRegisterTypeIN10QtMobility36QDeclarativeGalleryGreaterThanFilterEEiPKciiS3_)
    t._Z15qmlRegisterTypeIN10QtMobility36QDeclarativeGalleryGreaterThanFilterEEiPKciiS3_.clean 0x0000dc98   Section       44  declarative_gallery.in(t._Z15qmlRegisterTypeIN10QtMobility36QDeclarativeGalleryGreaterThanFilterEEiPKciiS3_.clean)
    t._Z15qmlRegisterTypeIN10QtMobility37QDeclarativeGalleryFilterIntersectionEEiPKciiS3_ 0x0000dcc4   Section      228  declarative_gallery.in(t._Z15qmlRegisterTypeIN10QtMobility37QDeclarativeGalleryFilterIntersectionEEiPKciiS3_)
    t._Z15qmlRegisterTypeIN10QtMobility37QDeclarativeGalleryFilterIntersectionEEiPKciiS3_.clean 0x0000dda8   Section       44  declarative_gallery.in(t._Z15qmlRegisterTypeIN10QtMobility37QDeclarativeGalleryFilterIntersectionEEiPKciiS3_.clean)
    t._Z15qmlRegisterTypeIN10QtMobility39QDeclarativeGalleryLessThanEqualsFilterEEiPKciiS3_ 0x0000ddd4   Section      224  declarative_gallery.in(t._Z15qmlRegisterTypeIN10QtMobility39QDeclarativeGalleryLessThanEqualsFilterEEiPKciiS3_)
    t._Z15qmlRegisterTypeIN10QtMobility39QDeclarativeGalleryLessThanEqualsFilterEEiPKciiS3_.clean 0x0000deb4   Section       44  declarative_gallery.in(t._Z15qmlRegisterTypeIN10QtMobility39QDeclarativeGalleryLessThanEqualsFilterEEiPKciiS3_.clean)
    t._Z15qmlRegisterTypeIN10QtMobility42QDeclarativeGalleryGreaterThanEqualsFilterEEiPKciiS3_ 0x0000dee0   Section      224  declarative_gallery.in(t._Z15qmlRegisterTypeIN10QtMobility42QDeclarativeGalleryGreaterThanEqualsFilterEEiPKciiS3_)
    t._Z15qmlRegisterTypeIN10QtMobility42QDeclarativeGalleryGreaterThanEqualsFilterEEiPKciiS3_.clean 0x0000dfc0   Section       44  declarative_gallery.in(t._Z15qmlRegisterTypeIN10QtMobility42QDeclarativeGalleryGreaterThanEqualsFilterEEiPKciiS3_.clean)
    t._Z17qRegisterMetaTypeI24QDeclarativeListPropertyIN10QtMobility29QDeclarativeGalleryFilterBaseEEEiPKcPT_ 0x0000dfec   Section       80  declarative_gallery.in(t._Z17qRegisterMetaTypeI24QDeclarativeListPropertyIN10QtMobility29QDeclarativeGalleryFilterBaseEEEiPKcPT_)
    t._Z17qRegisterMetaTypeI24QDeclarativeListPropertyIN10QtMobility30QDeclarativeGalleryFilterUnionEEEiPKcPT_ 0x0000e03c   Section       80  declarative_gallery.in(t._Z17qRegisterMetaTypeI24QDeclarativeListPropertyIN10QtMobility30QDeclarativeGalleryFilterUnionEEEiPKcPT_)
    t._Z17qRegisterMetaTypeI24QDeclarativeListPropertyIN10QtMobility31QDeclarativeDocumentGalleryItemEEEiPKcPT_ 0x0000e08c   Section       80  declarative_gallery.in(t._Z17qRegisterMetaTypeI24QDeclarativeListPropertyIN10QtMobility31QDeclarativeDocumentGalleryItemEEEiPKcPT_)
    t._Z17qRegisterMetaTypeI24QDeclarativeListPropertyIN10QtMobility31QDeclarativeDocumentGalleryTypeEEEiPKcPT_ 0x0000e0dc   Section       80  declarative_gallery.in(t._Z17qRegisterMetaTypeI24QDeclarativeListPropertyIN10QtMobility31QDeclarativeDocumentGalleryTypeEEEiPKcPT_)
    t._Z17qRegisterMetaTypeI24QDeclarativeListPropertyIN10QtMobility31QDeclarativeGalleryEqualsFilterEEEiPKcPT_ 0x0000e12c   Section       80  declarative_gallery.in(t._Z17qRegisterMetaTypeI24QDeclarativeListPropertyIN10QtMobility31QDeclarativeGalleryEqualsFilterEEEiPKcPT_)
    t._Z17qRegisterMetaTypeI24QDeclarativeListPropertyIN10QtMobility32QDeclarativeDocumentGalleryModelEEEiPKcPT_ 0x0000e17c   Section       80  declarative_gallery.in(t._Z17qRegisterMetaTypeI24QDeclarativeListPropertyIN10QtMobility32QDeclarativeDocumentGalleryModelEEEiPKcPT_)
    t._Z17qRegisterMetaTypeI24QDeclarativeListPropertyIN10QtMobility33QDeclarativeGalleryContainsFilterEEEiPKcPT_ 0x0000e1cc   Section       80  declarative_gallery.in(t._Z17qRegisterMetaTypeI24QDeclarativeListPropertyIN10QtMobility33QDeclarativeGalleryContainsFilterEEEiPKcPT_)
    t._Z17qRegisterMetaTypeI24QDeclarativeListPropertyIN10QtMobility33QDeclarativeGalleryEndsWithFilterEEEiPKcPT_ 0x0000e21c   Section       80  declarative_gallery.in(t._Z17qRegisterMetaTypeI24QDeclarativeListPropertyIN10QtMobility33QDeclarativeGalleryEndsWithFilterEEEiPKcPT_)
    t._Z17qRegisterMetaTypeI24QDeclarativeListPropertyIN10QtMobility33QDeclarativeGalleryLessThanFilterEEEiPKcPT_ 0x0000e26c   Section       80  declarative_gallery.in(t._Z17qRegisterMetaTypeI24QDeclarativeListPropertyIN10QtMobility33QDeclarativeGalleryLessThanFilterEEEiPKcPT_)
    t._Z17qRegisterMetaTypeI24QDeclarativeListPropertyIN10QtMobility33QDeclarativeGalleryWildcardFilterEEEiPKcPT_ 0x0000e2bc   Section       80  declarative_gallery.in(t._Z17qRegisterMetaTypeI24QDeclarativeListPropertyIN10QtMobility33QDeclarativeGalleryWildcardFilterEEEiPKcPT_)
    t._Z17qRegisterMetaTypeI24QDeclarativeListPropertyIN10QtMobility35QDeclarativeGalleryStartsWithFilterEEEiPKcPT_ 0x0000e30c   Section       80  declarative_gallery.in(t._Z17qRegisterMetaTypeI24QDeclarativeListPropertyIN10QtMobility35QDeclarativeGalleryStartsWithFilterEEEiPKcPT_)
    t._Z17qRegisterMetaTypeI24QDeclarativeListPropertyIN10QtMobility36QDeclarativeGalleryGreaterThanFilterEEEiPKcPT_ 0x0000e35c   Section       80  declarative_gallery.in(t._Z17qRegisterMetaTypeI24QDeclarativeListPropertyIN10QtMobility36QDeclarativeGalleryGreaterThanFilterEEEiPKcPT_)
    t._Z17qRegisterMetaTypeI24QDeclarativeListPropertyIN10QtMobility37QDeclarativeGalleryFilterIntersectionEEEiPKcPT_ 0x0000e3ac   Section       80  declarative_gallery.in(t._Z17qRegisterMetaTypeI24QDeclarativeListPropertyIN10QtMobility37QDeclarativeGalleryFilterIntersectionEEEiPKcPT_)
    t._Z17qRegisterMetaTypeI24QDeclarativeListPropertyIN10QtMobility39QDeclarativeGalleryLessThanEqualsFilterEEEiPKcPT_ 0x0000e3fc   Section       80  declarative_gallery.in(t._Z17qRegisterMetaTypeI24QDeclarativeListPropertyIN10QtMobility39QDeclarativeGalleryLessThanEqualsFilterEEEiPKcPT_)
    t._Z17qRegisterMetaTypeI24QDeclarativeListPropertyIN10QtMobility42QDeclarativeGalleryGreaterThanEqualsFilterEEEiPKcPT_ 0x0000e44c   Section       80  declarative_gallery.in(t._Z17qRegisterMetaTypeI24QDeclarativeListPropertyIN10QtMobility42QDeclarativeGalleryGreaterThanEqualsFilterEEEiPKcPT_)
    t._Z17qRegisterMetaTypeIN10QtMobility27QDeclarativeDocumentGallery8ItemTypeEEiPKcPT_ 0x0000e49c   Section       52  declarative_gallery.in(t._Z17qRegisterMetaTypeIN10QtMobility27QDeclarativeDocumentGallery8ItemTypeEEiPKcPT_)
    t._Z17qRegisterMetaTypeIPN10QtMobility29QDeclarativeGalleryFilterBaseEEiPKcPT_ 0x0000e4d0   Section      124  declarative_gallery.in(t._Z17qRegisterMetaTypeIPN10QtMobility29QDeclarativeGalleryFilterBaseEEiPKcPT_)
    t._Z17qRegisterMetaTypeIPN10QtMobility30QDeclarativeGalleryFilterUnionEEiPKcPT_ 0x0000e54c   Section      124  declarative_gallery.in(t._Z17qRegisterMetaTypeIPN10QtMobility30QDeclarativeGalleryFilterUnionEEiPKcPT_)
    t._Z17qRegisterMetaTypeIPN10QtMobility31QDeclarativeDocumentGalleryItemEEiPKcPT_ 0x0000e5c8   Section      124  declarative_gallery.in(t._Z17qRegisterMetaTypeIPN10QtMobility31QDeclarativeDocumentGalleryItemEEiPKcPT_)
    t._Z17qRegisterMetaTypeIPN10QtMobility31QDeclarativeDocumentGalleryTypeEEiPKcPT_ 0x0000e644   Section      124  declarative_gallery.in(t._Z17qRegisterMetaTypeIPN10QtMobility31QDeclarativeDocumentGalleryTypeEEiPKcPT_)
    t._Z17qRegisterMetaTypeIPN10QtMobility31QDeclarativeGalleryEqualsFilterEEiPKcPT_ 0x0000e6c0   Section      124  declarative_gallery.in(t._Z17qRegisterMetaTypeIPN10QtMobility31QDeclarativeGalleryEqualsFilterEEiPKcPT_)
    t._Z17qRegisterMetaTypeIPN10QtMobility32QDeclarativeDocumentGalleryModelEEiPKcPT_ 0x0000e73c   Section      128  declarative_gallery.in(t._Z17qRegisterMetaTypeIPN10QtMobility32QDeclarativeDocumentGalleryModelEEiPKcPT_)
    t._Z17qRegisterMetaTypeIPN10QtMobility33QDeclarativeGalleryContainsFilterEEiPKcPT_ 0x0000e7bc   Section      128  declarative_gallery.in(t._Z17qRegisterMetaTypeIPN10QtMobility33QDeclarativeGalleryContainsFilterEEiPKcPT_)
    t._Z17qRegisterMetaTypeIPN10QtMobility33QDeclarativeGalleryEndsWithFilterEEiPKcPT_ 0x0000e83c   Section      128  declarative_gallery.in(t._Z17qRegisterMetaTypeIPN10QtMobility33QDeclarativeGalleryEndsWithFilterEEiPKcPT_)
    t._Z17qRegisterMetaTypeIPN10QtMobility33QDeclarativeGalleryLessThanFilterEEiPKcPT_ 0x0000e8bc   Section      128  declarative_gallery.in(t._Z17qRegisterMetaTypeIPN10QtMobility33QDeclarativeGalleryLessThanFilterEEiPKcPT_)
    t._Z17qRegisterMetaTypeIPN10QtMobility33QDeclarativeGalleryWildcardFilterEEiPKcPT_ 0x0000e93c   Section      128  declarative_gallery.in(t._Z17qRegisterMetaTypeIPN10QtMobility33QDeclarativeGalleryWildcardFilterEEiPKcPT_)
    t._Z17qRegisterMetaTypeIPN10QtMobility35QDeclarativeGalleryStartsWithFilterEEiPKcPT_ 0x0000e9bc   Section      128  declarative_gallery.in(t._Z17qRegisterMetaTypeIPN10QtMobility35QDeclarativeGalleryStartsWithFilterEEiPKcPT_)
    t._Z17qRegisterMetaTypeIPN10QtMobility36QDeclarativeGalleryGreaterThanFilterEEiPKcPT_ 0x0000ea3c   Section      132  declarative_gallery.in(t._Z17qRegisterMetaTypeIPN10QtMobility36QDeclarativeGalleryGreaterThanFilterEEiPKcPT_)
    t._Z17qRegisterMetaTypeIPN10QtMobility37QDeclarativeGalleryFilterIntersectionEEiPKcPT_ 0x0000eac0   Section      132  declarative_gallery.in(t._Z17qRegisterMetaTypeIPN10QtMobility37QDeclarativeGalleryFilterIntersectionEEiPKcPT_)
    t._Z17qRegisterMetaTypeIPN10QtMobility39QDeclarativeGalleryLessThanEqualsFilterEEiPKcPT_ 0x0000eb44   Section      132  declarative_gallery.in(t._Z17qRegisterMetaTypeIPN10QtMobility39QDeclarativeGalleryLessThanEqualsFilterEEiPKcPT_)
    t._Z17qRegisterMetaTypeIPN10QtMobility42QDeclarativeGalleryGreaterThanEqualsFilterEEiPKcPT_ 0x0000ebc8   Section      136  declarative_gallery.in(t._Z17qRegisterMetaTypeIPN10QtMobility42QDeclarativeGalleryGreaterThanEqualsFilterEEiPKcPT_)
    t._Z21qMetaTypeDeleteHelperI24QDeclarativeListPropertyIN10QtMobility27QDeclarativeDocumentGalleryEEEvPT_ 0x0000ec50   Section        8  declarative_gallery.in(t._Z21qMetaTypeDeleteHelperI24QDeclarativeListPropertyIN10QtMobility27QDeclarativeDocumentGalleryEEEvPT_)
    t._Z21qMetaTypeDeleteHelperI24QDeclarativeListPropertyIN10QtMobility29QDeclarativeGalleryFilterBaseEEEvPT_ 0x0000ec58   Section        8  declarative_gallery.in(t._Z21qMetaTypeDeleteHelperI24QDeclarativeListPropertyIN10QtMobility29QDeclarativeGalleryFilterBaseEEEvPT_)
    t._Z21qMetaTypeDeleteHelperI24QDeclarativeListPropertyIN10QtMobility30QDeclarativeGalleryFilterUnionEEEvPT_ 0x0000ec60   Section        8  declarative_gallery.in(t._Z21qMetaTypeDeleteHelperI24QDeclarativeListPropertyIN10QtMobility30QDeclarativeGalleryFilterUnionEEEvPT_)
    t._Z21qMetaTypeDeleteHelperI24QDeclarativeListPropertyIN10QtMobility31QDeclarativeDocumentGalleryItemEEEvPT_ 0x0000ec68   Section        8  declarative_gallery.in(t._Z21qMetaTypeDeleteHelperI24QDeclarativeListPropertyIN10QtMobility31QDeclarativeDocumentGalleryItemEEEvPT_)
    t._Z21qMetaTypeDeleteHelperI24QDeclarativeListPropertyIN10QtMobility31QDeclarativeDocumentGalleryTypeEEEvPT_ 0x0000ec70   Section        8  declarative_gallery.in(t._Z21qMetaTypeDeleteHelperI24QDeclarativeListPropertyIN10QtMobility31QDeclarativeDocumentGalleryTypeEEEvPT_)
    t._Z21qMetaTypeDeleteHelperI24QDeclarativeListPropertyIN10QtMobility31QDeclarativeGalleryEqualsFilterEEEvPT_ 0x0000ec78   Section        8  declarative_gallery.in(t._Z21qMetaTypeDeleteHelperI24QDeclarativeListPropertyIN10QtMobility31QDeclarativeGalleryEqualsFilterEEEvPT_)
    t._Z21qMetaTypeDeleteHelperI24QDeclarativeListPropertyIN10QtMobility32QDeclarativeDocumentGalleryModelEEEvPT_ 0x0000ec80   Section        8  declarative_gallery.in(t._Z21qMetaTypeDeleteHelperI24QDeclarativeListPropertyIN10QtMobility32QDeclarativeDocumentGalleryModelEEEvPT_)
    t._Z21qMetaTypeDeleteHelperI24QDeclarativeListPropertyIN10QtMobility33QDeclarativeGalleryContainsFilterEEEvPT_ 0x0000ec88   Section        8  declarative_gallery.in(t._Z21qMetaTypeDeleteHelperI24QDeclarativeListPropertyIN10QtMobility33QDeclarativeGalleryContainsFilterEEEvPT_)
    t._Z21qMetaTypeDeleteHelperI24QDeclarativeListPropertyIN10QtMobility33QDeclarativeGalleryEndsWithFilterEEEvPT_ 0x0000ec90   Section        8  declarative_gallery.in(t._Z21qMetaTypeDeleteHelperI24QDeclarativeListPropertyIN10QtMobility33QDeclarativeGalleryEndsWithFilterEEEvPT_)
    t._Z21qMetaTypeDeleteHelperI24QDeclarativeListPropertyIN10QtMobility33QDeclarativeGalleryLessThanFilterEEEvPT_ 0x0000ec98   Section        8  declarative_gallery.in(t._Z21qMetaTypeDeleteHelperI24QDeclarativeListPropertyIN10QtMobility33QDeclarativeGalleryLessThanFilterEEEvPT_)
    t._Z21qMetaTypeDeleteHelperI24QDeclarativeListPropertyIN10QtMobility33QDeclarativeGalleryWildcardFilterEEEvPT_ 0x0000eca0   Section        8  declarative_gallery.in(t._Z21qMetaTypeDeleteHelperI24QDeclarativeListPropertyIN10QtMobility33QDeclarativeGalleryWildcardFilterEEEvPT_)
    t._Z21qMetaTypeDeleteHelperI24QDeclarativeListPropertyIN10QtMobility35QDeclarativeGalleryStartsWithFilterEEEvPT_ 0x0000eca8   Section        8  declarative_gallery.in(t._Z21qMetaTypeDeleteHelperI24QDeclarativeListPropertyIN10QtMobility35QDeclarativeGalleryStartsWithFilterEEEvPT_)
    t._Z21qMetaTypeDeleteHelperI24QDeclarativeListPropertyIN10QtMobility36QDeclarativeGalleryGreaterThanFilterEEEvPT_ 0x0000ecb0   Section        8  declarative_gallery.in(t._Z21qMetaTypeDeleteHelperI24QDeclarativeListPropertyIN10QtMobility36QDeclarativeGalleryGreaterThanFilterEEEvPT_)
    t._Z21qMetaTypeDeleteHelperI24QDeclarativeListPropertyIN10QtMobility37QDeclarativeGalleryFilterIntersectionEEEvPT_ 0x0000ecb8   Section        8  declarative_gallery.in(t._Z21qMetaTypeDeleteHelperI24QDeclarativeListPropertyIN10QtMobility37QDeclarativeGalleryFilterIntersectionEEEvPT_)
    t._Z21qMetaTypeDeleteHelperI24QDeclarativeListPropertyIN10QtMobility39QDeclarativeGalleryLessThanEqualsFilterEEEvPT_ 0x0000ecc0   Section        8  declarative_gallery.in(t._Z21qMetaTypeDeleteHelperI24QDeclarativeListPropertyIN10QtMobility39QDeclarativeGalleryLessThanEqualsFilterEEEvPT_)
    t._Z21qMetaTypeDeleteHelperI24QDeclarativeListPropertyIN10QtMobility42QDeclarativeGalleryGreaterThanEqualsFilterEEEvPT_ 0x0000ecc8   Section        8  declarative_gallery.in(t._Z21qMetaTypeDeleteHelperI24QDeclarativeListPropertyIN10QtMobility42QDeclarativeGalleryGreaterThanEqualsFilterEEEvPT_)
    t._Z21qMetaTypeDeleteHelperIN10QtMobility27QDeclarativeDocumentGallery8ItemTypeEEvPT_ 0x0000ecd0   Section        8  declarative_gallery.in(t._Z21qMetaTypeDeleteHelperIN10QtMobility27QDeclarativeDocumentGallery8ItemTypeEEvPT_)
    t._Z21qMetaTypeDeleteHelperIPN10QtMobility27QDeclarativeDocumentGalleryEEvPT_ 0x0000ecd8   Section        8  declarative_gallery.in(t._Z21qMetaTypeDeleteHelperIPN10QtMobility27QDeclarativeDocumentGalleryEEvPT_)
    t._Z21qMetaTypeDeleteHelperIPN10QtMobility29QDeclarativeGalleryFilterBaseEEvPT_ 0x0000ece0   Section        8  declarative_gallery.in(t._Z21qMetaTypeDeleteHelperIPN10QtMobility29QDeclarativeGalleryFilterBaseEEvPT_)
    t._Z21qMetaTypeDeleteHelperIPN10QtMobility30QDeclarativeGalleryFilterUnionEEvPT_ 0x0000ece8   Section        8  declarative_gallery.in(t._Z21qMetaTypeDeleteHelperIPN10QtMobility30QDeclarativeGalleryFilterUnionEEvPT_)
    t._Z21qMetaTypeDeleteHelperIPN10QtMobility31QDeclarativeDocumentGalleryItemEEvPT_ 0x0000ecf0   Section        8  declarative_gallery.in(t._Z21qMetaTypeDeleteHelperIPN10QtMobility31QDeclarativeDocumentGalleryItemEEvPT_)
    t._Z21qMetaTypeDeleteHelperIPN10QtMobility31QDeclarativeDocumentGalleryTypeEEvPT_ 0x0000ecf8   Section        8  declarative_gallery.in(t._Z21qMetaTypeDeleteHelperIPN10QtMobility31QDeclarativeDocumentGalleryTypeEEvPT_)
    t._Z21qMetaTypeDeleteHelperIPN10QtMobility31QDeclarativeGalleryEqualsFilterEEvPT_ 0x0000ed00   Section        8  declarative_gallery.in(t._Z21qMetaTypeDeleteHelperIPN10QtMobility31QDeclarativeGalleryEqualsFilterEEvPT_)
    t._Z21qMetaTypeDeleteHelperIPN10QtMobility32QDeclarativeDocumentGalleryModelEEvPT_ 0x0000ed08   Section        8  declarative_gallery.in(t._Z21qMetaTypeDeleteHelperIPN10QtMobility32QDeclarativeDocumentGalleryModelEEvPT_)
    t._Z21qMetaTypeDeleteHelperIPN10QtMobility33QDeclarativeGalleryContainsFilterEEvPT_ 0x0000ed10   Section        8  declarative_gallery.in(t._Z21qMetaTypeDeleteHelperIPN10QtMobility33QDeclarativeGalleryContainsFilterEEvPT_)
    t._Z21qMetaTypeDeleteHelperIPN10QtMobility33QDeclarativeGalleryEndsWithFilterEEvPT_ 0x0000ed18   Section        8  declarative_gallery.in(t._Z21qMetaTypeDeleteHelperIPN10QtMobility33QDeclarativeGalleryEndsWithFilterEEvPT_)
    t._Z21qMetaTypeDeleteHelperIPN10QtMobility33QDeclarativeGalleryLessThanFilterEEvPT_ 0x0000ed20   Section        8  declarative_gallery.in(t._Z21qMetaTypeDeleteHelperIPN10QtMobility33QDeclarativeGalleryLessThanFilterEEvPT_)
    t._Z21qMetaTypeDeleteHelperIPN10QtMobility33QDeclarativeGalleryWildcardFilterEEvPT_ 0x0000ed28   Section        8  declarative_gallery.in(t._Z21qMetaTypeDeleteHelperIPN10QtMobility33QDeclarativeGalleryWildcardFilterEEvPT_)
    t._Z21qMetaTypeDeleteHelperIPN10QtMobility35QDeclarativeGalleryStartsWithFilterEEvPT_ 0x0000ed30   Section        8  declarative_gallery.in(t._Z21qMetaTypeDeleteHelperIPN10QtMobility35QDeclarativeGalleryStartsWithFilterEEvPT_)
    t._Z21qMetaTypeDeleteHelperIPN10QtMobility36QDeclarativeGalleryGreaterThanFilterEEvPT_ 0x0000ed38   Section        8  declarative_gallery.in(t._Z21qMetaTypeDeleteHelperIPN10QtMobility36QDeclarativeGalleryGreaterThanFilterEEvPT_)
    t._Z21qMetaTypeDeleteHelperIPN10QtMobility37QDeclarativeGalleryFilterIntersectionEEvPT_ 0x0000ed40   Section        8  declarative_gallery.in(t._Z21qMetaTypeDeleteHelperIPN10QtMobility37QDeclarativeGalleryFilterIntersectionEEvPT_)
    t._Z21qMetaTypeDeleteHelperIPN10QtMobility39QDeclarativeGalleryLessThanEqualsFilterEEvPT_ 0x0000ed48   Section        8  declarative_gallery.in(t._Z21qMetaTypeDeleteHelperIPN10QtMobility39QDeclarativeGalleryLessThanEqualsFilterEEvPT_)
    t._Z21qMetaTypeDeleteHelperIPN10QtMobility42QDeclarativeGalleryGreaterThanEqualsFilterEEvPT_ 0x0000ed50   Section        8  declarative_gallery.in(t._Z21qMetaTypeDeleteHelperIPN10QtMobility42QDeclarativeGalleryGreaterThanEqualsFilterEEvPT_)
    t._Z21qScriptValueFromValueI8QVariantE12QScriptValueP13QScriptEngineRKT_ 0x0000ed58   Section       70  declarative_gallery.in(t._Z21qScriptValueFromValueI8QVariantE12QScriptValueP13QScriptEngineRKT_)
    t._Z21qScriptValueFromValueI8QVariantE12QScriptValueP13QScriptEngineRKT_.clean 0x0000ed9e   Section       16  declarative_gallery.in(t._Z21qScriptValueFromValueI8QVariantE12QScriptValueP13QScriptEngineRKT_.clean)
    t._Z24qMetaTypeConstructHelperI24QDeclarativeListPropertyIN10QtMobility27QDeclarativeDocumentGalleryEEEPvPKT_ 0x0000edae   Section       82  declarative_gallery.in(t._Z24qMetaTypeConstructHelperI24QDeclarativeListPropertyIN10QtMobility27QDeclarativeDocumentGalleryEEEPvPKT_)
    t._Z24qMetaTypeConstructHelperI24QDeclarativeListPropertyIN10QtMobility29QDeclarativeGalleryFilterBaseEEEPvPKT_ 0x0000ee00   Section       82  declarative_gallery.in(t._Z24qMetaTypeConstructHelperI24QDeclarativeListPropertyIN10QtMobility29QDeclarativeGalleryFilterBaseEEEPvPKT_)
    t._Z24qMetaTypeConstructHelperI24QDeclarativeListPropertyIN10QtMobility30QDeclarativeGalleryFilterUnionEEEPvPKT_ 0x0000ee52   Section       82  declarative_gallery.in(t._Z24qMetaTypeConstructHelperI24QDeclarativeListPropertyIN10QtMobility30QDeclarativeGalleryFilterUnionEEEPvPKT_)
    t._Z24qMetaTypeConstructHelperI24QDeclarativeListPropertyIN10QtMobility31QDeclarativeDocumentGalleryItemEEEPvPKT_ 0x0000eea4   Section       82  declarative_gallery.in(t._Z24qMetaTypeConstructHelperI24QDeclarativeListPropertyIN10QtMobility31QDeclarativeDocumentGalleryItemEEEPvPKT_)
    t._Z24qMetaTypeConstructHelperI24QDeclarativeListPropertyIN10QtMobility31QDeclarativeDocumentGalleryTypeEEEPvPKT_ 0x0000eef6   Section       82  declarative_gallery.in(t._Z24qMetaTypeConstructHelperI24QDeclarativeListPropertyIN10QtMobility31QDeclarativeDocumentGalleryTypeEEEPvPKT_)
    t._Z24qMetaTypeConstructHelperI24QDeclarativeListPropertyIN10QtMobility31QDeclarativeGalleryEqualsFilterEEEPvPKT_ 0x0000ef48   Section       82  declarative_gallery.in(t._Z24qMetaTypeConstructHelperI24QDeclarativeListPropertyIN10QtMobility31QDeclarativeGalleryEqualsFilterEEEPvPKT_)
    t._Z24qMetaTypeConstructHelperI24QDeclarativeListPropertyIN10QtMobility32QDeclarativeDocumentGalleryModelEEEPvPKT_ 0x0000ef9a   Section       82  declarative_gallery.in(t._Z24qMetaTypeConstructHelperI24QDeclarativeListPropertyIN10QtMobility32QDeclarativeDocumentGalleryModelEEEPvPKT_)
    t._Z24qMetaTypeConstructHelperI24QDeclarativeListPropertyIN10QtMobility33QDeclarativeGalleryContainsFilterEEEPvPKT_ 0x0000efec   Section       82  declarative_gallery.in(t._Z24qMetaTypeConstructHelperI24QDeclarativeListPropertyIN10QtMobility33QDeclarativeGalleryContainsFilterEEEPvPKT_)
    t._Z24qMetaTypeConstructHelperI24QDeclarativeListPropertyIN10QtMobility33QDeclarativeGalleryEndsWithFilterEEEPvPKT_ 0x0000f03e   Section       82  declarative_gallery.in(t._Z24qMetaTypeConstructHelperI24QDeclarativeListPropertyIN10QtMobility33QDeclarativeGalleryEndsWithFilterEEEPvPKT_)
    t._Z24qMetaTypeConstructHelperI24QDeclarativeListPropertyIN10QtMobility33QDeclarativeGalleryLessThanFilterEEEPvPKT_ 0x0000f090   Section       82  declarative_gallery.in(t._Z24qMetaTypeConstructHelperI24QDeclarativeListPropertyIN10QtMobility33QDeclarativeGalleryLessThanFilterEEEPvPKT_)
    t._Z24qMetaTypeConstructHelperI24QDeclarativeListPropertyIN10QtMobility33QDeclarativeGalleryWildcardFilterEEEPvPKT_ 0x0000f0e2   Section       82  declarative_gallery.in(t._Z24qMetaTypeConstructHelperI24QDeclarativeListPropertyIN10QtMobility33QDeclarativeGalleryWildcardFilterEEEPvPKT_)
    t._Z24qMetaTypeConstructHelperI24QDeclarativeListPropertyIN10QtMobility35QDeclarativeGalleryStartsWithFilterEEEPvPKT_ 0x0000f134   Section       82  declarative_gallery.in(t._Z24qMetaTypeConstructHelperI24QDeclarativeListPropertyIN10QtMobility35QDeclarativeGalleryStartsWithFilterEEEPvPKT_)
    t._Z24qMetaTypeConstructHelperI24QDeclarativeListPropertyIN10QtMobility36QDeclarativeGalleryGreaterThanFilterEEEPvPKT_ 0x0000f186   Section       82  declarative_gallery.in(t._Z24qMetaTypeConstructHelperI24QDeclarativeListPropertyIN10QtMobility36QDeclarativeGalleryGreaterThanFilterEEEPvPKT_)
    t._Z24qMetaTypeConstructHelperI24QDeclarativeListPropertyIN10QtMobility37QDeclarativeGalleryFilterIntersectionEEEPvPKT_ 0x0000f1d8   Section       82  declarative_gallery.in(t._Z24qMetaTypeConstructHelperI24QDeclarativeListPropertyIN10QtMobility37QDeclarativeGalleryFilterIntersectionEEEPvPKT_)
    t._Z24qMetaTypeConstructHelperI24QDeclarativeListPropertyIN10QtMobility39QDeclarativeGalleryLessThanEqualsFilterEEEPvPKT_ 0x0000f22a   Section       82  declarative_gallery.in(t._Z24qMetaTypeConstructHelperI24QDeclarativeListPropertyIN10QtMobility39QDeclarativeGalleryLessThanEqualsFilterEEEPvPKT_)
    t._Z24qMetaTypeConstructHelperI24QDeclarativeListPropertyIN10QtMobility42QDeclarativeGalleryGreaterThanEqualsFilterEEEPvPKT_ 0x0000f27c   Section       82  declarative_gallery.in(t._Z24qMetaTypeConstructHelperI24QDeclarativeListPropertyIN10QtMobility42QDeclarativeGalleryGreaterThanEqualsFilterEEEPvPKT_)
    t._Z24qMetaTypeConstructHelperIN10QtMobility27QDeclarativeDocumentGallery8ItemTypeEEPvPKT_ 0x0000f2ce   Section       34  declarative_gallery.in(t._Z24qMetaTypeConstructHelperIN10QtMobility27QDeclarativeDocumentGallery8ItemTypeEEPvPKT_)
    t._Z24qMetaTypeConstructHelperIPN10QtMobility27QDeclarativeDocumentGalleryEEPvPKT_ 0x0000f2f0   Section       34  declarative_gallery.in(t._Z24qMetaTypeConstructHelperIPN10QtMobility27QDeclarativeDocumentGalleryEEPvPKT_)
    t._Z24qMetaTypeConstructHelperIPN10QtMobility29QDeclarativeGalleryFilterBaseEEPvPKT_ 0x0000f312   Section       34  declarative_gallery.in(t._Z24qMetaTypeConstructHelperIPN10QtMobility29QDeclarativeGalleryFilterBaseEEPvPKT_)
    t._Z24qMetaTypeConstructHelperIPN10QtMobility30QDeclarativeGalleryFilterUnionEEPvPKT_ 0x0000f334   Section       34  declarative_gallery.in(t._Z24qMetaTypeConstructHelperIPN10QtMobility30QDeclarativeGalleryFilterUnionEEPvPKT_)
    t._Z24qMetaTypeConstructHelperIPN10QtMobility31QDeclarativeDocumentGalleryItemEEPvPKT_ 0x0000f356   Section       34  declarative_gallery.in(t._Z24qMetaTypeConstructHelperIPN10QtMobility31QDeclarativeDocumentGalleryItemEEPvPKT_)
    t._Z24qMetaTypeConstructHelperIPN10QtMobility31QDeclarativeDocumentGalleryTypeEEPvPKT_ 0x0000f378   Section       34  declarative_gallery.in(t._Z24qMetaTypeConstructHelperIPN10QtMobility31QDeclarativeDocumentGalleryTypeEEPvPKT_)
    t._Z24qMetaTypeConstructHelperIPN10QtMobility31QDeclarativeGalleryEqualsFilterEEPvPKT_ 0x0000f39a   Section       34  declarative_gallery.in(t._Z24qMetaTypeConstructHelperIPN10QtMobility31QDeclarativeGalleryEqualsFilterEEPvPKT_)
    t._Z24qMetaTypeConstructHelperIPN10QtMobility32QDeclarativeDocumentGalleryModelEEPvPKT_ 0x0000f3bc   Section       34  declarative_gallery.in(t._Z24qMetaTypeConstructHelperIPN10QtMobility32QDeclarativeDocumentGalleryModelEEPvPKT_)
    t._Z24qMetaTypeConstructHelperIPN10QtMobility33QDeclarativeGalleryContainsFilterEEPvPKT_ 0x0000f3de   Section       34  declarative_gallery.in(t._Z24qMetaTypeConstructHelperIPN10QtMobility33QDeclarativeGalleryContainsFilterEEPvPKT_)
    t._Z24qMetaTypeConstructHelperIPN10QtMobility33QDeclarativeGalleryEndsWithFilterEEPvPKT_ 0x0000f400   Section       34  declarative_gallery.in(t._Z24qMetaTypeConstructHelperIPN10QtMobility33QDeclarativeGalleryEndsWithFilterEEPvPKT_)
    t._Z24qMetaTypeConstructHelperIPN10QtMobility33QDeclarativeGalleryLessThanFilterEEPvPKT_ 0x0000f422   Section       34  declarative_gallery.in(t._Z24qMetaTypeConstructHelperIPN10QtMobility33QDeclarativeGalleryLessThanFilterEEPvPKT_)
    t._Z24qMetaTypeConstructHelperIPN10QtMobility33QDeclarativeGalleryWildcardFilterEEPvPKT_ 0x0000f444   Section       34  declarative_gallery.in(t._Z24qMetaTypeConstructHelperIPN10QtMobility33QDeclarativeGalleryWildcardFilterEEPvPKT_)
    t._Z24qMetaTypeConstructHelperIPN10QtMobility35QDeclarativeGalleryStartsWithFilterEEPvPKT_ 0x0000f466   Section       34  declarative_gallery.in(t._Z24qMetaTypeConstructHelperIPN10QtMobility35QDeclarativeGalleryStartsWithFilterEEPvPKT_)
    t._Z24qMetaTypeConstructHelperIPN10QtMobility36QDeclarativeGalleryGreaterThanFilterEEPvPKT_ 0x0000f488   Section       34  declarative_gallery.in(t._Z24qMetaTypeConstructHelperIPN10QtMobility36QDeclarativeGalleryGreaterThanFilterEEPvPKT_)
    t._Z24qMetaTypeConstructHelperIPN10QtMobility37QDeclarativeGalleryFilterIntersectionEEPvPKT_ 0x0000f4aa   Section       34  declarative_gallery.in(t._Z24qMetaTypeConstructHelperIPN10QtMobility37QDeclarativeGalleryFilterIntersectionEEPvPKT_)
    t._Z24qMetaTypeConstructHelperIPN10QtMobility39QDeclarativeGalleryLessThanEqualsFilterEEPvPKT_ 0x0000f4cc   Section       34  declarative_gallery.in(t._Z24qMetaTypeConstructHelperIPN10QtMobility39QDeclarativeGalleryLessThanEqualsFilterEEPvPKT_)
    t._Z24qMetaTypeConstructHelperIPN10QtMobility42QDeclarativeGalleryGreaterThanEqualsFilterEEPvPKT_ 0x0000f4ee   Section       34  declarative_gallery.in(t._Z24qMetaTypeConstructHelperIPN10QtMobility42QDeclarativeGalleryGreaterThanEqualsFilterEEPvPKT_)
    t._Z26qmlRegisterUncreatableTypeIN10QtMobility27QDeclarativeDocumentGalleryEEiPKciiS3_RK7QString 0x0000f510   Section      252  declarative_gallery.in(t._Z26qmlRegisterUncreatableTypeIN10QtMobility27QDeclarativeDocumentGalleryEEiPKciiS3_RK7QString)
    t._Z26qmlRegisterUncreatableTypeIN10QtMobility27QDeclarativeDocumentGalleryEEiPKciiS3_RK7QString.clean 0x0000f60c   Section       44  declarative_gallery.in(t._Z26qmlRegisterUncreatableTypeIN10QtMobility27QDeclarativeDocumentGalleryEEiPKciiS3_RK7QString.clean)
    t._ZN12QMetaTypeId2IN10QtMobility27QDeclarativeDocumentGallery8ItemTypeEE14qt_metatype_idEv 0x0000f638   Section       92  declarative_gallery.in(t._ZN12QMetaTypeId2IN10QtMobility27QDeclarativeDocumentGallery8ItemTypeEE14qt_metatype_idEv)
    t._ZN12QWeakPointerIN10QtMobility29QDeclarativeGalleryFilterBaseEED1Ev 0x0000f694   Section       36  declarative_gallery.in(t._ZN12QWeakPointerIN10QtMobility29QDeclarativeGalleryFilterBaseEED1Ev)
    t._ZN19QDeclarativePrivate10createIntoIN10QtMobility30QDeclarativeGalleryFilterUnionEEEvPv 0x0000f6b8   Section       40  declarative_gallery.in(t._ZN19QDeclarativePrivate10createIntoIN10QtMobility30QDeclarativeGalleryFilterUnionEEEvPv)
    t._ZN19QDeclarativePrivate10createIntoIN10QtMobility30QDeclarativeGalleryFilterUnionEEEvPv.clean 0x0000f6e0   Section       12  declarative_gallery.in(t._ZN19QDeclarativePrivate10createIntoIN10QtMobility30QDeclarativeGalleryFilterUnionEEEvPv.clean)
    t._ZN19QDeclarativePrivate10createIntoIN10QtMobility31QDeclarativeDocumentGalleryItemEEEvPv 0x0000f6ec   Section       40  declarative_gallery.in(t._ZN19QDeclarativePrivate10createIntoIN10QtMobility31QDeclarativeDocumentGalleryItemEEEvPv)
    t._ZN19QDeclarativePrivate10createIntoIN10QtMobility31QDeclarativeDocumentGalleryItemEEEvPv.clean 0x0000f714   Section       12  declarative_gallery.in(t._ZN19QDeclarativePrivate10createIntoIN10QtMobility31QDeclarativeDocumentGalleryItemEEEvPv.clean)
    t._ZN19QDeclarativePrivate10createIntoIN10QtMobility31QDeclarativeDocumentGalleryTypeEEEvPv 0x0000f720   Section       40  declarative_gallery.in(t._ZN19QDeclarativePrivate10createIntoIN10QtMobility31QDeclarativeDocumentGalleryTypeEEEvPv)
    t._ZN19QDeclarativePrivate10createIntoIN10QtMobility31QDeclarativeDocumentGalleryTypeEEEvPv.clean 0x0000f748   Section       12  declarative_gallery.in(t._ZN19QDeclarativePrivate10createIntoIN10QtMobility31QDeclarativeDocumentGalleryTypeEEEvPv.clean)
    t._ZN19QDeclarativePrivate10createIntoIN10QtMobility31QDeclarativeGalleryEqualsFilterEEEvPv 0x0000f754   Section       36  declarative_gallery.in(t._ZN19QDeclarativePrivate10createIntoIN10QtMobility31QDeclarativeGalleryEqualsFilterEEEvPv)
    t._ZN19QDeclarativePrivate10createIntoIN10QtMobility31QDeclarativeGalleryEqualsFilterEEEvPv.clean 0x0000f778   Section       12  declarative_gallery.in(t._ZN19QDeclarativePrivate10createIntoIN10QtMobility31QDeclarativeGalleryEqualsFilterEEEvPv.clean)
    t._ZN19QDeclarativePrivate10createIntoIN10QtMobility32QDeclarativeDocumentGalleryModelEEEvPv 0x0000f784   Section       40  declarative_gallery.in(t._ZN19QDeclarativePrivate10createIntoIN10QtMobility32QDeclarativeDocumentGalleryModelEEEvPv)
    t._ZN19QDeclarativePrivate10createIntoIN10QtMobility32QDeclarativeDocumentGalleryModelEEEvPv.clean 0x0000f7ac   Section       12  declarative_gallery.in(t._ZN19QDeclarativePrivate10createIntoIN10QtMobility32QDeclarativeDocumentGalleryModelEEEvPv.clean)
    t._ZN19QDeclarativePrivate10createIntoIN10QtMobility33QDeclarativeGalleryContainsFilterEEEvPv 0x0000f7b8   Section       36  declarative_gallery.in(t._ZN19QDeclarativePrivate10createIntoIN10QtMobility33QDeclarativeGalleryContainsFilterEEEvPv)
    t._ZN19QDeclarativePrivate10createIntoIN10QtMobility33QDeclarativeGalleryContainsFilterEEEvPv.clean 0x0000f7dc   Section       12  declarative_gallery.in(t._ZN19QDeclarativePrivate10createIntoIN10QtMobility33QDeclarativeGalleryContainsFilterEEEvPv.clean)
    t._ZN19QDeclarativePrivate10createIntoIN10QtMobility33QDeclarativeGalleryEndsWithFilterEEEvPv 0x0000f7e8   Section       36  declarative_gallery.in(t._ZN19QDeclarativePrivate10createIntoIN10QtMobility33QDeclarativeGalleryEndsWithFilterEEEvPv)
    t._ZN19QDeclarativePrivate10createIntoIN10QtMobility33QDeclarativeGalleryEndsWithFilterEEEvPv.clean 0x0000f80c   Section       12  declarative_gallery.in(t._ZN19QDeclarativePrivate10createIntoIN10QtMobility33QDeclarativeGalleryEndsWithFilterEEEvPv.clean)
    t._ZN19QDeclarativePrivate10createIntoIN10QtMobility33QDeclarativeGalleryLessThanFilterEEEvPv 0x0000f818   Section       36  declarative_gallery.in(t._ZN19QDeclarativePrivate10createIntoIN10QtMobility33QDeclarativeGalleryLessThanFilterEEEvPv)
    t._ZN19QDeclarativePrivate10createIntoIN10QtMobility33QDeclarativeGalleryLessThanFilterEEEvPv.clean 0x0000f83c   Section       12  declarative_gallery.in(t._ZN19QDeclarativePrivate10createIntoIN10QtMobility33QDeclarativeGalleryLessThanFilterEEEvPv.clean)
    t._ZN19QDeclarativePrivate10createIntoIN10QtMobility33QDeclarativeGalleryWildcardFilterEEEvPv 0x0000f848   Section       36  declarative_gallery.in(t._ZN19QDeclarativePrivate10createIntoIN10QtMobility33QDeclarativeGalleryWildcardFilterEEEvPv)
    t._ZN19QDeclarativePrivate10createIntoIN10QtMobility33QDeclarativeGalleryWildcardFilterEEEvPv.clean 0x0000f86c   Section       12  declarative_gallery.in(t._ZN19QDeclarativePrivate10createIntoIN10QtMobility33QDeclarativeGalleryWildcardFilterEEEvPv.clean)
    t._ZN19QDeclarativePrivate10createIntoIN10QtMobility35QDeclarativeGalleryStartsWithFilterEEEvPv 0x0000f878   Section       36  declarative_gallery.in(t._ZN19QDeclarativePrivate10createIntoIN10QtMobility35QDeclarativeGalleryStartsWithFilterEEEvPv)
    t._ZN19QDeclarativePrivate10createIntoIN10QtMobility35QDeclarativeGalleryStartsWithFilterEEEvPv.clean 0x0000f89c   Section       12  declarative_gallery.in(t._ZN19QDeclarativePrivate10createIntoIN10QtMobility35QDeclarativeGalleryStartsWithFilterEEEvPv.clean)
    t._ZN19QDeclarativePrivate10createIntoIN10QtMobility36QDeclarativeGalleryGreaterThanFilterEEEvPv 0x0000f8a8   Section       36  declarative_gallery.in(t._ZN19QDeclarativePrivate10createIntoIN10QtMobility36QDeclarativeGalleryGreaterThanFilterEEEvPv)
    t._ZN19QDeclarativePrivate10createIntoIN10QtMobility36QDeclarativeGalleryGreaterThanFilterEEEvPv.clean 0x0000f8cc   Section       12  declarative_gallery.in(t._ZN19QDeclarativePrivate10createIntoIN10QtMobility36QDeclarativeGalleryGreaterThanFilterEEEvPv.clean)
    t._ZN19QDeclarativePrivate10createIntoIN10QtMobility37QDeclarativeGalleryFilterIntersectionEEEvPv 0x0000f8d8   Section       40  declarative_gallery.in(t._ZN19QDeclarativePrivate10createIntoIN10QtMobility37QDeclarativeGalleryFilterIntersectionEEEvPv)
    t._ZN19QDeclarativePrivate10createIntoIN10QtMobility37QDeclarativeGalleryFilterIntersectionEEEvPv.clean 0x0000f900   Section       12  declarative_gallery.in(t._ZN19QDeclarativePrivate10createIntoIN10QtMobility37QDeclarativeGalleryFilterIntersectionEEEvPv.clean)
    t._ZN19QDeclarativePrivate10createIntoIN10QtMobility39QDeclarativeGalleryLessThanEqualsFilterEEEvPv 0x0000f90c   Section       36  declarative_gallery.in(t._ZN19QDeclarativePrivate10createIntoIN10QtMobility39QDeclarativeGalleryLessThanEqualsFilterEEEvPv)
    t._ZN19QDeclarativePrivate10createIntoIN10QtMobility39QDeclarativeGalleryLessThanEqualsFilterEEEvPv.clean 0x0000f930   Section       12  declarative_gallery.in(t._ZN19QDeclarativePrivate10createIntoIN10QtMobility39QDeclarativeGalleryLessThanEqualsFilterEEEvPv.clean)
    t._ZN19QDeclarativePrivate10createIntoIN10QtMobility42QDeclarativeGalleryGreaterThanEqualsFilterEEEvPv 0x0000f93c   Section       36  declarative_gallery.in(t._ZN19QDeclarativePrivate10createIntoIN10QtMobility42QDeclarativeGalleryGreaterThanEqualsFilterEEEvPv)
    t._ZN19QDeclarativePrivate10createIntoIN10QtMobility42QDeclarativeGalleryGreaterThanEqualsFilterEEEvPv.clean 0x0000f960   Section       12  declarative_gallery.in(t._ZN19QDeclarativePrivate10createIntoIN10QtMobility42QDeclarativeGalleryGreaterThanEqualsFilterEEEvPv.clean)
    t._ZN19QDeclarativePrivate19QDeclarativeElementIN10QtMobility30QDeclarativeGalleryFilterUnionEED1Ev 0x0000f96c   Section       32  declarative_gallery.in(t._ZN19QDeclarativePrivate19QDeclarativeElementIN10QtMobility30QDeclarativeGalleryFilterUnionEED1Ev)
    t._ZN19QDeclarativePrivate19QDeclarativeElementIN10QtMobility30QDeclarativeGalleryFilterUnionEED1Ev.clean 0x0000f98c   Section       10  declarative_gallery.in(t._ZN19QDeclarativePrivate19QDeclarativeElementIN10QtMobility30QDeclarativeGalleryFilterUnionEED1Ev.clean)
    t._ZN19QDeclarativePrivate19QDeclarativeElementIN10QtMobility31QDeclarativeDocumentGalleryItemEED1Ev 0x0000f998   Section       32  declarative_gallery.in(t._ZN19QDeclarativePrivate19QDeclarativeElementIN10QtMobility31QDeclarativeDocumentGalleryItemEED1Ev)
    t._ZN19QDeclarativePrivate19QDeclarativeElementIN10QtMobility31QDeclarativeDocumentGalleryItemEED1Ev.clean 0x0000f9b8   Section       10  declarative_gallery.in(t._ZN19QDeclarativePrivate19QDeclarativeElementIN10QtMobility31QDeclarativeDocumentGalleryItemEED1Ev.clean)
    t._ZN19QDeclarativePrivate19QDeclarativeElementIN10QtMobility31QDeclarativeDocumentGalleryTypeEED1Ev 0x0000f9c4   Section       32  declarative_gallery.in(t._ZN19QDeclarativePrivate19QDeclarativeElementIN10QtMobility31QDeclarativeDocumentGalleryTypeEED1Ev)
    t._ZN19QDeclarativePrivate19QDeclarativeElementIN10QtMobility31QDeclarativeDocumentGalleryTypeEED1Ev.clean 0x0000f9e4   Section       10  declarative_gallery.in(t._ZN19QDeclarativePrivate19QDeclarativeElementIN10QtMobility31QDeclarativeDocumentGalleryTypeEED1Ev.clean)
    t._ZN19QDeclarativePrivate19QDeclarativeElementIN10QtMobility31QDeclarativeGalleryEqualsFilterEED1Ev 0x0000f9f0   Section       28  declarative_gallery.in(t._ZN19QDeclarativePrivate19QDeclarativeElementIN10QtMobility31QDeclarativeGalleryEqualsFilterEED1Ev)
    t._ZN19QDeclarativePrivate19QDeclarativeElementIN10QtMobility31QDeclarativeGalleryEqualsFilterEED1Ev.clean 0x0000fa0c   Section       10  declarative_gallery.in(t._ZN19QDeclarativePrivate19QDeclarativeElementIN10QtMobility31QDeclarativeGalleryEqualsFilterEED1Ev.clean)
    t._ZN19QDeclarativePrivate19QDeclarativeElementIN10QtMobility32QDeclarativeDocumentGalleryModelEED1Ev 0x0000fa18   Section       32  declarative_gallery.in(t._ZN19QDeclarativePrivate19QDeclarativeElementIN10QtMobility32QDeclarativeDocumentGalleryModelEED1Ev)
    t._ZN19QDeclarativePrivate19QDeclarativeElementIN10QtMobility32QDeclarativeDocumentGalleryModelEED1Ev.clean 0x0000fa38   Section       10  declarative_gallery.in(t._ZN19QDeclarativePrivate19QDeclarativeElementIN10QtMobility32QDeclarativeDocumentGalleryModelEED1Ev.clean)
    t._ZN19QDeclarativePrivate19QDeclarativeElementIN10QtMobility33QDeclarativeGalleryContainsFilterEED1Ev 0x0000fa44   Section       28  declarative_gallery.in(t._ZN19QDeclarativePrivate19QDeclarativeElementIN10QtMobility33QDeclarativeGalleryContainsFilterEED1Ev)
    t._ZN19QDeclarativePrivate19QDeclarativeElementIN10QtMobility33QDeclarativeGalleryContainsFilterEED1Ev.clean 0x0000fa60   Section       10  declarative_gallery.in(t._ZN19QDeclarativePrivate19QDeclarativeElementIN10QtMobility33QDeclarativeGalleryContainsFilterEED1Ev.clean)
    t._ZN19QDeclarativePrivate19QDeclarativeElementIN10QtMobility33QDeclarativeGalleryEndsWithFilterEED1Ev 0x0000fa6c   Section       28  declarative_gallery.in(t._ZN19QDeclarativePrivate19QDeclarativeElementIN10QtMobility33QDeclarativeGalleryEndsWithFilterEED1Ev)
    t._ZN19QDeclarativePrivate19QDeclarativeElementIN10QtMobility33QDeclarativeGalleryEndsWithFilterEED1Ev.clean 0x0000fa88   Section       10  declarative_gallery.in(t._ZN19QDeclarativePrivate19QDeclarativeElementIN10QtMobility33QDeclarativeGalleryEndsWithFilterEED1Ev.clean)
    t._ZN19QDeclarativePrivate19QDeclarativeElementIN10QtMobility33QDeclarativeGalleryLessThanFilterEED1Ev 0x0000fa94   Section       28  declarative_gallery.in(t._ZN19QDeclarativePrivate19QDeclarativeElementIN10QtMobility33QDeclarativeGalleryLessThanFilterEED1Ev)
    t._ZN19QDeclarativePrivate19QDeclarativeElementIN10QtMobility33QDeclarativeGalleryLessThanFilterEED1Ev.clean 0x0000fab0   Section       10  declarative_gallery.in(t._ZN19QDeclarativePrivate19QDeclarativeElementIN10QtMobility33QDeclarativeGalleryLessThanFilterEED1Ev.clean)
    t._ZN19QDeclarativePrivate19QDeclarativeElementIN10QtMobility33QDeclarativeGalleryWildcardFilterEED1Ev 0x0000fabc   Section       28  declarative_gallery.in(t._ZN19QDeclarativePrivate19QDeclarativeElementIN10QtMobility33QDeclarativeGalleryWildcardFilterEED1Ev)
    t._ZN19QDeclarativePrivate19QDeclarativeElementIN10QtMobility33QDeclarativeGalleryWildcardFilterEED1Ev.clean 0x0000fad8   Section       10  declarative_gallery.in(t._ZN19QDeclarativePrivate19QDeclarativeElementIN10QtMobility33QDeclarativeGalleryWildcardFilterEED1Ev.clean)
    t._ZN19QDeclarativePrivate19QDeclarativeElementIN10QtMobility35QDeclarativeGalleryStartsWithFilterEED1Ev 0x0000fae4   Section       28  declarative_gallery.in(t._ZN19QDeclarativePrivate19QDeclarativeElementIN10QtMobility35QDeclarativeGalleryStartsWithFilterEED1Ev)
    t._ZN19QDeclarativePrivate19QDeclarativeElementIN10QtMobility35QDeclarativeGalleryStartsWithFilterEED1Ev.clean 0x0000fb00   Section       10  declarative_gallery.in(t._ZN19QDeclarativePrivate19QDeclarativeElementIN10QtMobility35QDeclarativeGalleryStartsWithFilterEED1Ev.clean)
    t._ZN19QDeclarativePrivate19QDeclarativeElementIN10QtMobility36QDeclarativeGalleryGreaterThanFilterEED1Ev 0x0000fb0c   Section       28  declarative_gallery.in(t._ZN19QDeclarativePrivate19QDeclarativeElementIN10QtMobility36QDeclarativeGalleryGreaterThanFilterEED1Ev)
    t._ZN19QDeclarativePrivate19QDeclarativeElementIN10QtMobility36QDeclarativeGalleryGreaterThanFilterEED1Ev.clean 0x0000fb28   Section       10  declarative_gallery.in(t._ZN19QDeclarativePrivate19QDeclarativeElementIN10QtMobility36QDeclarativeGalleryGreaterThanFilterEED1Ev.clean)
    t._ZN19QDeclarativePrivate19QDeclarativeElementIN10QtMobility37QDeclarativeGalleryFilterIntersectionEED1Ev 0x0000fb34   Section       32  declarative_gallery.in(t._ZN19QDeclarativePrivate19QDeclarativeElementIN10QtMobility37QDeclarativeGalleryFilterIntersectionEED1Ev)
    t._ZN19QDeclarativePrivate19QDeclarativeElementIN10QtMobility37QDeclarativeGalleryFilterIntersectionEED1Ev.clean 0x0000fb54   Section       10  declarative_gallery.in(t._ZN19QDeclarativePrivate19QDeclarativeElementIN10QtMobility37QDeclarativeGalleryFilterIntersectionEED1Ev.clean)
    t._ZN19QDeclarativePrivate19QDeclarativeElementIN10QtMobility39QDeclarativeGalleryLessThanEqualsFilterEED1Ev 0x0000fb60   Section       28  declarative_gallery.in(t._ZN19QDeclarativePrivate19QDeclarativeElementIN10QtMobility39QDeclarativeGalleryLessThanEqualsFilterEED1Ev)
    t._ZN19QDeclarativePrivate19QDeclarativeElementIN10QtMobility39QDeclarativeGalleryLessThanEqualsFilterEED1Ev.clean 0x0000fb7c   Section       10  declarative_gallery.in(t._ZN19QDeclarativePrivate19QDeclarativeElementIN10QtMobility39QDeclarativeGalleryLessThanEqualsFilterEED1Ev.clean)
    t._ZN19QDeclarativePrivate19QDeclarativeElementIN10QtMobility42QDeclarativeGalleryGreaterThanEqualsFilterEED1Ev 0x0000fb88   Section       28  declarative_gallery.in(t._ZN19QDeclarativePrivate19QDeclarativeElementIN10QtMobility42QDeclarativeGalleryGreaterThanEqualsFilterEED1Ev)
    t._ZN19QDeclarativePrivate19QDeclarativeElementIN10QtMobility42QDeclarativeGalleryGreaterThanEqualsFilterEED1Ev.clean 0x0000fba4   Section       10  declarative_gallery.in(t._ZN19QDeclarativePrivate19QDeclarativeElementIN10QtMobility42QDeclarativeGalleryGreaterThanEqualsFilterEED1Ev.clean)
    t._ZN20QGlobalStaticDeleterIN10QtMobility16QDocumentGalleryEED1Ev 0x0000fbae   Section       34  declarative_gallery.in(t._ZN20QGlobalStaticDeleterIN10QtMobility16QDocumentGalleryEED1Ev)
    t._ZN5QHashIi10QByteArrayE11deleteNode2EPN9QHashData4NodeE 0x0000fbd0   Section       10  declarative_gallery.in(t._ZN5QHashIi10QByteArrayE11deleteNode2EPN9QHashData4NodeE)
    t._ZN5QHashIi10QByteArrayE13duplicateNodeEPN9QHashData4NodeEPv 0x0000fbda   Section       30  declarative_gallery.in(t._ZN5QHashIi10QByteArrayE13duplicateNodeEPN9QHashData4NodeEPv)
    t._ZN5QHashIi10QByteArrayE13duplicateNodeEPN9QHashData4NodeEPv.clean 0x0000fbf8   Section       12  declarative_gallery.in(t._ZN5QHashIi10QByteArrayE13duplicateNodeEPN9QHashData4NodeEPv.clean)
    t._ZN5QHashIi10QByteArrayE6insertERKiRKS0_ 0x0000fc04   Section      192  declarative_gallery.in(t._ZN5QHashIi10QByteArrayE6insertERKiRKS0_)
    t._ZN5QHashIi10QByteArrayE6insertERKiRKS0_.clean 0x0000fcc4   Section       12  declarative_gallery.in(t._ZN5QHashIi10QByteArrayE6insertERKiRKS0_.clean)
    t._ZN5QHashIi10QByteArrayE8freeDataEP9QHashData 0x0000fcd0   Section       16  declarative_gallery.in(t._ZN5QHashIi10QByteArrayE8freeDataEP9QHashData)
    t._ZN5QHashIi10QByteArrayED1Ev           0x0000fce0   Section       28  declarative_gallery.in(t._ZN5QHashIi10QByteArrayED1Ev)
    t._ZN5QHashIi7QStringE11deleteNode2EPN9QHashData4NodeE 0x0000fcfc   Section       10  declarative_gallery.in(t._ZN5QHashIi7QStringE11deleteNode2EPN9QHashData4NodeE)
    t._ZN5QHashIi7QStringE13detach_helperEv  0x0000fd08   Section       56  declarative_gallery.in(t._ZN5QHashIi7QStringE13detach_helperEv)
    t._ZN5QHashIi7QStringE13duplicateNodeEPN9QHashData4NodeEPv 0x0000fd40   Section       30  declarative_gallery.in(t._ZN5QHashIi7QStringE13duplicateNodeEPN9QHashData4NodeEPv)
    t._ZN5QHashIi7QStringE13duplicateNodeEPN9QHashData4NodeEPv.clean 0x0000fd5e   Section       12  declarative_gallery.in(t._ZN5QHashIi7QStringE13duplicateNodeEPN9QHashData4NodeEPv.clean)
    t._ZN5QHashIi7QStringE5clearEv           0x0000fd6a   Section       68  declarative_gallery.in(t._ZN5QHashIi7QStringE5clearEv)
    t._ZN5QHashIi7QStringE5clearEv.clean     0x0000fdae   Section       10  declarative_gallery.in(t._ZN5QHashIi7QStringE5clearEv.clean)
    t._ZN5QHashIi7QStringE6insertERKiRKS0_   0x0000fdb8   Section      144  declarative_gallery.in(t._ZN5QHashIi7QStringE6insertERKiRKS0_)
    t._ZN5QHashIi7QStringE6insertERKiRKS0_.clean 0x0000fe48   Section       12  declarative_gallery.in(t._ZN5QHashIi7QStringE6insertERKiRKS0_.clean)
    t._ZN5QHashIi7QStringE8freeDataEP9QHashData 0x0000fe54   Section       16  declarative_gallery.in(t._ZN5QHashIi7QStringE8freeDataEP9QHashData)
    t._ZN5QHashIi7QStringEC1Ev               0x0000fe64   Section       24  declarative_gallery.in(t._ZN5QHashIi7QStringEC1Ev)
    t._ZN5QHashIi7QStringED1Ev               0x0000fe7c   Section       28  declarative_gallery.in(t._ZN5QHashIi7QStringED1Ev)
    t._ZN5QListI7QStringE13detach_helperEi   0x0000fe98   Section      142  declarative_gallery.in(t._ZN5QListI7QStringE13detach_helperEi)
    t._ZN5QListI7QStringE13detach_helperEi.clean 0x0000ff26   Section       20  declarative_gallery.in(t._ZN5QListI7QStringE13detach_helperEi.clean)
    t._ZN5QListI7QStringE4freeEPN9QListData4DataE 0x0000ff3a   Section       48  declarative_gallery.in(t._ZN5QListI7QStringE4freeEPN9QListData4DataE)
    t._ZN5QListI7QStringED1Ev                0x0000ff6a   Section       30  declarative_gallery.in(t._ZN5QListI7QStringED1Ev)
    t._ZN5QListIPN10QtMobility29QDeclarativeGalleryFilterBaseEE13detach_helperEv 0x0000ff88   Section       88  declarative_gallery.in(t._ZN5QListIPN10QtMobility29QDeclarativeGalleryFilterBaseEE13detach_helperEv)
    t._ZN5QListIPN10QtMobility29QDeclarativeGalleryFilterBaseEE13detach_helperEv.clean 0x0000ffe0   Section        8  declarative_gallery.in(t._ZN5QListIPN10QtMobility29QDeclarativeGalleryFilterBaseEE13detach_helperEv.clean)
    t._ZN5QListIPN10QtMobility29QDeclarativeGalleryFilterBaseEE18detach_helper_growEii 0x0000ffe8   Section      164  declarative_gallery.in(t._ZN5QListIPN10QtMobility29QDeclarativeGalleryFilterBaseEE18detach_helper_growEii)
    t._ZN5QListIPN10QtMobility29QDeclarativeGalleryFilterBaseEE18detach_helper_growEii.clean 0x0001008c   Section        8  declarative_gallery.in(t._ZN5QListIPN10QtMobility29QDeclarativeGalleryFilterBaseEE18detach_helper_growEii.clean)
    t._ZN5QListIPN10QtMobility29QDeclarativeGalleryFilterBaseEE4freeEPN9QListData4DataE 0x00010094   Section       16  declarative_gallery.in(t._ZN5QListIPN10QtMobility29QDeclarativeGalleryFilterBaseEE4freeEPN9QListData4DataE)
    t._ZN5QListIPN10QtMobility29QDeclarativeGalleryFilterBaseEE5clearEv 0x000100a4   Section       72  declarative_gallery.in(t._ZN5QListIPN10QtMobility29QDeclarativeGalleryFilterBaseEE5clearEv)
    t._ZN5QListIPN10QtMobility29QDeclarativeGalleryFilterBaseEE5clearEv.clean 0x000100ec   Section       10  declarative_gallery.in(t._ZN5QListIPN10QtMobility29QDeclarativeGalleryFilterBaseEE5clearEv.clean)
    t._ZN5QListIPN10QtMobility29QDeclarativeGalleryFilterBaseEE9node_copyEPNS3_4NodeES5_S5_ 0x000100f6   Section       28  declarative_gallery.in(t._ZN5QListIPN10QtMobility29QDeclarativeGalleryFilterBaseEE9node_copyEPNS3_4NodeES5_S5_)
    t._ZN5QListIPN10QtMobility29QDeclarativeGalleryFilterBaseEED1Ev 0x00010112   Section       30  declarative_gallery.in(t._ZN5QListIPN10QtMobility29QDeclarativeGalleryFilterBaseEED1Ev)
    t._ZN7QVectorI5QPairIi7QStringEE4freeEP16QVectorTypedDataIS2_E 0x00010130   Section       40  declarative_gallery.in(t._ZN7QVectorI5QPairIi7QStringEE4freeEP16QVectorTypedDataIS2_E)
    t._ZN7QVectorI5QPairIi7QStringEE6appendERKS2_ 0x00010158   Section      140  declarative_gallery.in(t._ZN7QVectorI5QPairIi7QStringEE6appendERKS2_)
    t._ZN7QVectorI5QPairIi7QStringEE6appendERKS2_.clean 0x000101e4   Section       28  declarative_gallery.in(t._ZN7QVectorI5QPairIi7QStringEE6appendERKS2_.clean)
    t._ZN7QVectorI5QPairIi7QStringEE7reallocEii 0x00010200   Section      332  declarative_gallery.in(t._ZN7QVectorI5QPairIi7QStringEE7reallocEii)
    t._ZN7QVectorI5QPairIi7QStringEE7reallocEii.clean 0x0001034c   Section       36  declarative_gallery.in(t._ZN7QVectorI5QPairIi7QStringEE7reallocEii.clean)
    t._ZN7QVectorI5QPairIi7QStringEEC1Ev     0x00010370   Section       20  declarative_gallery.in(t._ZN7QVectorI5QPairIi7QStringEEC1Ev)
    t._ZN7QVectorI5QPairIi7QStringEED1Ev     0x00010384   Section       30  declarative_gallery.in(t._ZN7QVectorI5QPairIi7QStringEED1Ev)
    t._ZN8QPointerI7QObjectED1Ev             0x000103a2   Section       12  declarative_gallery.in(t._ZN8QPointerI7QObjectED1Ev)
    t._ZN9QHashNodeIi10QByteArrayEC1EiRKS0_  0x000103ae   Section       20  declarative_gallery.in(t._ZN9QHashNodeIi10QByteArrayEC1EiRKS0_)
    t._ZN9QHashNodeIi7QStringEC1EiRKS0_      0x000103c2   Section       14  declarative_gallery.in(t._ZN9QHashNodeIi7QStringEC1EiRKS0_)
    t._ZNK12QWeakPointerIN10QtMobility29QDeclarativeGalleryFilterBaseEE4dataEv 0x000103d0   Section       30  declarative_gallery.in(t._ZNK12QWeakPointerIN10QtMobility29QDeclarativeGalleryFilterBaseEE4dataEv)
    t._ZNK12QWeakPointerIN10QtMobility29QDeclarativeGalleryFilterBaseEEcvMS2_PS1_Ev 0x000103ee   Section       48  declarative_gallery.in(t._ZNK12QWeakPointerIN10QtMobility29QDeclarativeGalleryFilterBaseEEcvMS2_PS1_Ev)
    t._ZNK5QHashIi10QByteArrayE8findNodeERKiPj 0x0001041e   Section       50  declarative_gallery.in(t._ZNK5QHashIi10QByteArrayE8findNodeERKiPj)
    t._ZNK5QHashIi7QStringE10constBeginEv    0x00010450   Section       28  declarative_gallery.in(t._ZNK5QHashIi7QStringE10constBeginEv)
    t._ZNK5QHashIi7QStringE8findNodeERKiPj   0x0001046c   Section       50  declarative_gallery.in(t._ZNK5QHashIi7QStringE8findNodeERKiPj)
    t._ZNK5QListIPN10QtMobility29QDeclarativeGalleryFilterBaseEE14const_iteratorneERKS4_ 0x0001049e   Section       16  declarative_gallery.in(t._ZNK5QListIPN10QtMobility29QDeclarativeGalleryFilterBaseEE14const_iteratorneERKS4_)
    .extab._ZN10QtMobility27QDeclarativeDocumentGallery8toStringENS0_8ItemTypeE 0x000104b0   Data           0  declarative_gallery.in(.ARM.extab)
    .extab._ZN10QtMobility27QDeclarativeDocumentGallery18itemTypeFromStringERK7QString 0x000104d0   Data           0  declarative_gallery.in(.ARM.extab)
    .extab._ZN10QtMobility37qt_declarativeDocumentGalleryInstanceEv 0x000104e0   Data           0  declarative_gallery.in(.ARM.extab)
    .extab.qt_plugin_instance                0x000104f8   Data           0  declarative_gallery.in(.ARM.extab)
    .extab._ZplRK10QByteArrayPKc             0x00010510   Data           0  declarative_gallery.in(.ARM.extab)
    .extab._ZplRK10QByteArrayc               0x00010520   Data           0  declarative_gallery.in(.ARM.extab)
    .extab._ZplPKcRK10QByteArray             0x00010530   Data           0  declarative_gallery.in(.ARM.extab)
    .extab._Z26qmlRegisterUncreatableTypeIN10QtMobility27QDeclarativeDocumentGalleryEEiPKciiS3_RK7QString 0x00010540   Data           0  declarative_gallery.in(.ARM.extab)
    .extab._Z15qmlRegisterTypeIN10QtMobility29QDeclarativeGalleryFilterBaseEEiv 0x000105b0   Data           0  declarative_gallery.in(.ARM.extab)
    .extab._Z15qmlRegisterTypeIN10QtMobility31QDeclarativeGalleryEqualsFilterEEiPKciiS3_ 0x00010620   Data           0  declarative_gallery.in(.ARM.extab)
    .extab._Z15qmlRegisterTypeIN10QtMobility33QDeclarativeGalleryLessThanFilterEEiPKciiS3_ 0x00010690   Data           0  declarative_gallery.in(.ARM.extab)
    .extab._Z15qmlRegisterTypeIN10QtMobility39QDeclarativeGalleryLessThanEqualsFilterEEiPKciiS3_ 0x00010700   Data           0  declarative_gallery.in(.ARM.extab)
    .extab._Z15qmlRegisterTypeIN10QtMobility36QDeclarativeGalleryGreaterThanFilterEEiPKciiS3_ 0x00010770   Data           0  declarative_gallery.in(.ARM.extab)
    .extab._Z15qmlRegisterTypeIN10QtMobility42QDeclarativeGalleryGreaterThanEqualsFilterEEiPKciiS3_ 0x000107e0   Data           0  declarative_gallery.in(.ARM.extab)
    .extab._Z15qmlRegisterTypeIN10QtMobility33QDeclarativeGalleryContainsFilterEEiPKciiS3_ 0x00010850   Data           0  declarative_gallery.in(.ARM.extab)
    .extab._Z15qmlRegisterTypeIN10QtMobility35QDeclarativeGalleryStartsWithFilterEEiPKciiS3_ 0x000108c0   Data           0  declarative_gallery.in(.ARM.extab)
    .extab._Z15qmlRegisterTypeIN10QtMobility33QDeclarativeGalleryEndsWithFilterEEiPKciiS3_ 0x00010930   Data           0  declarative_gallery.in(.ARM.extab)
    .extab._Z15qmlRegisterTypeIN10QtMobility33QDeclarativeGalleryWildcardFilterEEiPKciiS3_ 0x000109a0   Data           0  declarative_gallery.in(.ARM.extab)
    .extab._Z15qmlRegisterTypeIN10QtMobility30QDeclarativeGalleryFilterUnionEEiPKciiS3_ 0x00010a10   Data           0  declarative_gallery.in(.ARM.extab)
    .extab._Z15qmlRegisterTypeIN10QtMobility37QDeclarativeGalleryFilterIntersectionEEiPKciiS3_ 0x00010a80   Data           0  declarative_gallery.in(.ARM.extab)
    .extab._Z15qmlRegisterTypeIN10QtMobility31QDeclarativeDocumentGalleryItemEEiPKciiS3_ 0x00010af0   Data           0  declarative_gallery.in(.ARM.extab)
    .extab._Z15qmlRegisterTypeIN10QtMobility32QDeclarativeDocumentGalleryModelEEiPKciiS3_ 0x00010b60   Data           0  declarative_gallery.in(.ARM.extab)
    .extab._Z15qmlRegisterTypeIN10QtMobility31QDeclarativeDocumentGalleryTypeEEiPKciiS3_ 0x00010bd0   Data           0  declarative_gallery.in(.ARM.extab)
    .extab._ZN10QtMobility30QDeclarativeGalleryValueFilterC1ENS_14QGalleryFilter10ComparatorEP7QObject 0x00010c40   Data           0  declarative_gallery.in(.ARM.extab)
    .extab._ZN10QtMobility31QDeclarativeGalleryStringFilterC1ENS_14QGalleryFilter10ComparatorEP7QObject 0x00010c58   Data           0  declarative_gallery.in(.ARM.extab)
    .extab._ZN10QtMobility30QDeclarativeGalleryFilterGroupD2Ev 0x00010c70   Data           0  declarative_gallery.in(.ARM.extab)
    .extab._ZN19QDeclarativePrivate19QDeclarativeElementIN10QtMobility30QDeclarativeGalleryFilterUnionEED1Ev 0x00010c88   Data           0  declarative_gallery.in(.ARM.extab)
    .extab._ZN10QtMobility30QDeclarativeGalleryFilterGroupC2EP7QObject 0x00010c98   Data           0  declarative_gallery.in(.ARM.extab)
    .extab._ZN19QDeclarativePrivate19QDeclarativeElementIN10QtMobility37QDeclarativeGalleryFilterIntersectionEED1Ev 0x00010cb0   Data           0  declarative_gallery.in(.ARM.extab)
    .extab._ZN19QDeclarativePrivate19QDeclarativeElementIN10QtMobility31QDeclarativeDocumentGalleryItemEED1Ev 0x00010cc0   Data           0  declarative_gallery.in(.ARM.extab)
    .extab._ZN19QDeclarativePrivate19QDeclarativeElementIN10QtMobility32QDeclarativeDocumentGalleryModelEED1Ev 0x00010cd0   Data           0  declarative_gallery.in(.ARM.extab)
    .extab._ZN19QDeclarativePrivate19QDeclarativeElementIN10QtMobility31QDeclarativeDocumentGalleryTypeEED1Ev 0x00010ce0   Data           0  declarative_gallery.in(.ARM.extab)
    .extab._ZN10QtMobility25QGalleryDeclarativeModule13registerTypesEPKc 0x00010cf0   Data           0  declarative_gallery.in(.ARM.extab)
    .extab._ZN19QDeclarativePrivate10createIntoIN10QtMobility31QDeclarativeGalleryEqualsFilterEEEvPv 0x00010d00   Data           0  declarative_gallery.in(.ARM.extab)
    .extab._ZN19QDeclarativePrivate10createIntoIN10QtMobility33QDeclarativeGalleryLessThanFilterEEEvPv 0x00010d10   Data           0  declarative_gallery.in(.ARM.extab)
    .extab._ZN19QDeclarativePrivate10createIntoIN10QtMobility39QDeclarativeGalleryLessThanEqualsFilterEEEvPv 0x00010d20   Data           0  declarative_gallery.in(.ARM.extab)
    .extab._ZN19QDeclarativePrivate10createIntoIN10QtMobility36QDeclarativeGalleryGreaterThanFilterEEEvPv 0x00010d30   Data           0  declarative_gallery.in(.ARM.extab)
    .extab._ZN19QDeclarativePrivate10createIntoIN10QtMobility42QDeclarativeGalleryGreaterThanEqualsFilterEEEvPv 0x00010d40   Data           0  declarative_gallery.in(.ARM.extab)
    .extab._ZN19QDeclarativePrivate10createIntoIN10QtMobility33QDeclarativeGalleryContainsFilterEEEvPv 0x00010d50   Data           0  declarative_gallery.in(.ARM.extab)
    .extab._ZN19QDeclarativePrivate10createIntoIN10QtMobility35QDeclarativeGalleryStartsWithFilterEEEvPv 0x00010d60   Data           0  declarative_gallery.in(.ARM.extab)
    .extab._ZN19QDeclarativePrivate10createIntoIN10QtMobility33QDeclarativeGalleryEndsWithFilterEEEvPv 0x00010d70   Data           0  declarative_gallery.in(.ARM.extab)
    .extab._ZN19QDeclarativePrivate10createIntoIN10QtMobility33QDeclarativeGalleryWildcardFilterEEEvPv 0x00010d80   Data           0  declarative_gallery.in(.ARM.extab)
    .extab._ZN19QDeclarativePrivate10createIntoIN10QtMobility30QDeclarativeGalleryFilterUnionEEEvPv 0x00010d90   Data           0  declarative_gallery.in(.ARM.extab)
    .extab._ZN19QDeclarativePrivate10createIntoIN10QtMobility37QDeclarativeGalleryFilterIntersectionEEEvPv 0x00010da0   Data           0  declarative_gallery.in(.ARM.extab)
    .extab._ZN19QDeclarativePrivate10createIntoIN10QtMobility31QDeclarativeDocumentGalleryItemEEEvPv 0x00010db0   Data           0  declarative_gallery.in(.ARM.extab)
    .extab._ZN19QDeclarativePrivate10createIntoIN10QtMobility32QDeclarativeDocumentGalleryModelEEEvPv 0x00010dc0   Data           0  declarative_gallery.in(.ARM.extab)
    .extab._ZN19QDeclarativePrivate10createIntoIN10QtMobility31QDeclarativeDocumentGalleryTypeEEEvPv 0x00010dd0   Data           0  declarative_gallery.in(.ARM.extab)
    .extab._ZN19QDeclarativePrivate19QDeclarativeElementIN10QtMobility31QDeclarativeGalleryEqualsFilterEED1Ev 0x00010de0   Data           0  declarative_gallery.in(.ARM.extab)
    .extab._ZN19QDeclarativePrivate19QDeclarativeElementIN10QtMobility33QDeclarativeGalleryLessThanFilterEED1Ev 0x00010df0   Data           0  declarative_gallery.in(.ARM.extab)
    .extab._ZN19QDeclarativePrivate19QDeclarativeElementIN10QtMobility39QDeclarativeGalleryLessThanEqualsFilterEED1Ev 0x00010e00   Data           0  declarative_gallery.in(.ARM.extab)
    .extab._ZN19QDeclarativePrivate19QDeclarativeElementIN10QtMobility36QDeclarativeGalleryGreaterThanFilterEED1Ev 0x00010e10   Data           0  declarative_gallery.in(.ARM.extab)
    .extab._ZN19QDeclarativePrivate19QDeclarativeElementIN10QtMobility42QDeclarativeGalleryGreaterThanEqualsFilterEED1Ev 0x00010e20   Data           0  declarative_gallery.in(.ARM.extab)
    .extab._ZN19QDeclarativePrivate19QDeclarativeElementIN10QtMobility33QDeclarativeGalleryContainsFilterEED1Ev 0x00010e30   Data           0  declarative_gallery.in(.ARM.extab)
    .extab._ZN19QDeclarativePrivate19QDeclarativeElementIN10QtMobility35QDeclarativeGalleryStartsWithFilterEED1Ev 0x00010e40   Data           0  declarative_gallery.in(.ARM.extab)
    .extab._ZN19QDeclarativePrivate19QDeclarativeElementIN10QtMobility33QDeclarativeGalleryEndsWithFilterEED1Ev 0x00010e50   Data           0  declarative_gallery.in(.ARM.extab)
    .extab._ZN19QDeclarativePrivate19QDeclarativeElementIN10QtMobility33QDeclarativeGalleryWildcardFilterEED1Ev 0x00010e60   Data           0  declarative_gallery.in(.ARM.extab)
    .extab._ZN10QtMobility30QDeclarativeGalleryValueFilterD1Ev 0x00010e70   Data           0  declarative_gallery.in(.ARM.extab)
    .extab._ZN10QtMobility31QDeclarativeGalleryStringFilterD1Ev 0x00010e80   Data           0  declarative_gallery.in(.ARM.extab)
    .extab._ZN10QtMobility30QDeclarativeGalleryValueFilter8setValueERK8QVariant 0x00010e90   Data           0  declarative_gallery.in(.ARM.extab)
    .extab._ZN10QtMobility30QDeclarativeGalleryValueFilter15setPropertyNameERK7QString 0x00010ea0   Data           0  declarative_gallery.in(.ARM.extab)
    .extab._ZN10QtMobility30QDeclarativeGalleryValueFilter11qt_metacallEN11QMetaObject4CallEiPPv 0x00010eb0   Data           0  declarative_gallery.in(.ARM.extab)
    .extab._ZN10QtMobility31QDeclarativeGalleryStringFilter8setValueERK7QString 0x00010ec8   Data           0  declarative_gallery.in(.ARM.extab)
    .extab._ZN10QtMobility31QDeclarativeGalleryStringFilter15setPropertyNameERK7QString 0x00010ef0   Data           0  declarative_gallery.in(.ARM.extab)
    .extab._ZN10QtMobility31QDeclarativeGalleryStringFilter11qt_metacallEN11QMetaObject4CallEiPPv 0x00010f00   Data           0  declarative_gallery.in(.ARM.extab)
    .extab._ZNK10QtMobility31QDeclarativeGalleryEqualsFilter6filterEv 0x00010f20   Data           0  declarative_gallery.in(.ARM.extab)
    .extab._ZN10QtMobility30QDeclarativeGalleryFilterGroup6appendEP24QDeclarativeListPropertyINS_29QDeclarativeGalleryFilterBaseEEPS2_ 0x00010f38   Data           0  declarative_gallery.in(.ARM.extab)
    .extab._ZNK10QtMobility30QDeclarativeGalleryFilterUnion6filterEv 0x00010f54   Data           0  declarative_gallery.in(.ARM.extab)
    .extab._ZNK10QtMobility37QDeclarativeGalleryFilterIntersection6filterEv 0x00010fa4   Data           0  declarative_gallery.in(.ARM.extab)
    .extab._ZN5QListIPN10QtMobility29QDeclarativeGalleryFilterBaseEE18detach_helper_growEii 0x00010ff4   Data           0  declarative_gallery.in(.ARM.extab)
    .extab._ZN5QListIPN10QtMobility29QDeclarativeGalleryFilterBaseEE5clearEv 0x00011024   Data           0  declarative_gallery.in(.ARM.extab)
    .extab._ZN5QListIPN10QtMobility29QDeclarativeGalleryFilterBaseEE13detach_helperEv 0x00011034   Data           0  declarative_gallery.in(.ARM.extab)
    .extab._ZN10QtMobility23QDeclarativeGalleryItem9setItemIdERK8QVariant 0x00011050   Data           0  declarative_gallery.in(.ARM.extab)
    .extab._ZN10QtMobility23QDeclarativeGalleryItem15deferredExecuteEv 0x00011060   Data           0  declarative_gallery.in(.ARM.extab)
    .extab._ZN10QtMobility23QDeclarativeGalleryItem18_q_metaDataChangedERK5QListIiE 0x00011070   Data           0  declarative_gallery.in(.ARM.extab)
    .extab._ZN10QtMobility23QDeclarativeGalleryItem14_q_itemChangedEv 0x000110a0   Data           0  declarative_gallery.in(.ARM.extab)
    .extab._ZN10QtMobility23QDeclarativeGalleryItem15_q_stateChangedEv 0x000110d0   Data           0  declarative_gallery.in(.ARM.extab)
    .extab._ZN10QtMobility23QDeclarativeGalleryItem11qt_metacallEN11QMetaObject4CallEiPPv 0x00011130   Data           0  declarative_gallery.in(.ARM.extab)
    .extab._ZN10QtMobility23QDeclarativeGalleryItemD2Ev 0x00011150   Data           0  declarative_gallery.in(.ARM.extab)
    .extab._ZN10QtMobility23QDeclarativeGalleryItem17componentCompleteEv 0x00011170   Data           0  declarative_gallery.in(.ARM.extab)
    .extab._ZN10QtMobility23QDeclarativeGalleryItemC2EP7QObject 0x00011180   Data           0  declarative_gallery.in(.ARM.extab)
    .extab._ZNK10QtMobility31QDeclarativeDocumentGalleryItem8itemTypeEv 0x000111b8   Data           0  declarative_gallery.in(.ARM.extab)
    .extab._ZN10QtMobility31QDeclarativeDocumentGalleryItemC1EP7QObject 0x000111c8   Data           0  declarative_gallery.in(.ARM.extab)
    .extab._ZN5QHashIi7QStringE5clearEv      0x000111d8   Data           0  declarative_gallery.in(.ARM.extab)
    .extab._ZN5QListI7QStringE13detach_helperEi 0x000111e8   Data           0  declarative_gallery.in(.ARM.extab)
    .extab._ZN5QHashIi7QStringE13duplicateNodeEPN9QHashData4NodeEPv 0x0001122c   Data           0  declarative_gallery.in(.ARM.extab)
    .extab._ZN5QHashIi7QStringE6insertERKiRKS0_ 0x0001123c   Data           0  declarative_gallery.in(.ARM.extab)
    .extab._ZN10QtMobility29QDeclarativeGalleryQueryModel15deferredExecuteEv 0x0001124c   Data           0  declarative_gallery.in(.ARM.extab)
    .extab._ZN10QtMobility29QDeclarativeGalleryQueryModel9setFilterEPNS_29QDeclarativeGalleryFilterBaseE 0x0001125c   Data           0  declarative_gallery.in(.ARM.extab)
    .extab._ZN10QtMobility29QDeclarativeGalleryQueryModel11setRootItemERK8QVariant 0x0001126c   Data           0  declarative_gallery.in(.ARM.extab)
    .extab._ZN10QtMobility29QDeclarativeGalleryQueryModel20setSortPropertyNamesERK11QStringList 0x0001127c   Data           0  declarative_gallery.in(.ARM.extab)
    .extab._ZN10QtMobility29QDeclarativeGalleryQueryModel3setEiRK12QScriptValue 0x0001128c   Data           0  declarative_gallery.in(.ARM.extab)
    .extab._ZNK10QtMobility29QDeclarativeGalleryQueryModel8propertyEiRK7QString 0x000112cc   Data           0  declarative_gallery.in(.ARM.extab)
    .extab._ZNK10QtMobility29QDeclarativeGalleryQueryModel3getERK12QScriptValue 0x000112f4   Data           0  declarative_gallery.in(.ARM.extab)
    .extab._ZN10QtMobility29QDeclarativeGalleryQueryModel15_q_itemsChangedEii 0x00011394   Data           0  declarative_gallery.in(.ARM.extab)
    .extab._ZN10QtMobility29QDeclarativeGalleryQueryModel13_q_itemsMovedEiii 0x000113a4   Data           0  declarative_gallery.in(.ARM.extab)
    .extab._ZN10QtMobility29QDeclarativeGalleryQueryModel15_q_itemsRemovedEii 0x000113bc   Data           0  declarative_gallery.in(.ARM.extab)
    .extab._ZN10QtMobility29QDeclarativeGalleryQueryModel16_q_itemsInsertedEii 0x000113cc   Data           0  declarative_gallery.in(.ARM.extab)
    .extab._ZN10QtMobility29QDeclarativeGalleryQueryModel15_q_setResultSetEPNS_17QGalleryResultSetE 0x000113dc   Data           0  declarative_gallery.in(.ARM.extab)
    .extab._ZN10QtMobility29QDeclarativeGalleryQueryModel15_q_stateChangedEv 0x0001145c   Data           0  declarative_gallery.in(.ARM.extab)
    .extab._ZN10QtMobility29QDeclarativeGalleryQueryModel6reloadEv 0x0001153c   Data           0  declarative_gallery.in(.ARM.extab)
    .extab._ZN10QtMobility29QDeclarativeGalleryQueryModel11qt_metacallEN11QMetaObject4CallEiPPv 0x0001155c   Data           0  declarative_gallery.in(.ARM.extab)
    .extab._ZN10QtMobility29QDeclarativeGalleryQueryModelD2Ev 0x0001158c   Data           0  declarative_gallery.in(.ARM.extab)
    .extab._ZNK10QtMobility29QDeclarativeGalleryQueryModel4dataERK11QModelIndexi 0x000115b4   Data           0  declarative_gallery.in(.ARM.extab)
    .extab._ZNK10QtMobility29QDeclarativeGalleryQueryModel5indexEiiRK11QModelIndex 0x000115dc   Data           0  declarative_gallery.in(.ARM.extab)
    .extab._ZN10QtMobility29QDeclarativeGalleryQueryModel17componentCompleteEv 0x000115ec   Data           0  declarative_gallery.in(.ARM.extab)
    .extab._ZN10QtMobility29QDeclarativeGalleryQueryModelC2EP7QObject 0x000115fc   Data           0  declarative_gallery.in(.ARM.extab)
    .extab._ZN10QtMobility29QDeclarativeGalleryQueryModel5eventEP6QEvent 0x00011624   Data           0  declarative_gallery.in(.ARM.extab)
    .extab._ZN10QtMobility32QDeclarativeDocumentGalleryModel11setRootTypeENS_27QDeclarativeDocumentGallery8ItemTypeE 0x00011644   Data           0  declarative_gallery.in(.ARM.extab)
    .extab._ZNK10QtMobility32QDeclarativeDocumentGalleryModel8rootTypeEv 0x00011654   Data           0  declarative_gallery.in(.ARM.extab)
    .extab._ZN10QtMobility32QDeclarativeDocumentGalleryModelC1EP7QObject 0x00011664   Data           0  declarative_gallery.in(.ARM.extab)
    .extab._Z21qScriptValueFromValueI8QVariantE12QScriptValueP13QScriptEngineRKT_ 0x00011684   Data           0  declarative_gallery.in(.ARM.extab)
    .extab._ZN16QDeclarativeInfolsERK7QString 0x000116a4   Data           0  declarative_gallery.in(.ARM.extab)
    .extab._ZN5QHashIi10QByteArrayE6insertERKiRKS0_ 0x000116bc   Data           0  declarative_gallery.in(.ARM.extab)
    .extab._ZN7QVectorI5QPairIi7QStringEE7reallocEii 0x000116cc   Data           0  declarative_gallery.in(.ARM.extab)
    .extab._ZN7QVectorI5QPairIi7QStringEE6appendERKS2_ 0x00011700   Data           0  declarative_gallery.in(.ARM.extab)
    .extab._ZN5QHashIi10QByteArrayE13duplicateNodeEPN9QHashData4NodeEPv 0x00011720   Data           0  declarative_gallery.in(.ARM.extab)
    .extab._ZN10QtMobility23QDeclarativeGalleryType15deferredExecuteEv 0x00011730   Data           0  declarative_gallery.in(.ARM.extab)
    .extab._ZN10QtMobility23QDeclarativeGalleryType18_q_metaDataChangedERK5QListIiE 0x00011740   Data           0  declarative_gallery.in(.ARM.extab)
    .extab._ZN10QtMobility23QDeclarativeGalleryType14_q_typeChangedEv 0x00011770   Data           0  declarative_gallery.in(.ARM.extab)
    .extab._ZN10QtMobility23QDeclarativeGalleryType15_q_stateChangedEv 0x000117a0   Data           0  declarative_gallery.in(.ARM.extab)
    .extab._ZN10QtMobility23QDeclarativeGalleryType11qt_metacallEN11QMetaObject4CallEiPPv 0x00011820   Data           0  declarative_gallery.in(.ARM.extab)
    .extab._ZN10QtMobility23QDeclarativeGalleryTypeD2Ev 0x00011830   Data           0  declarative_gallery.in(.ARM.extab)
    .extab._ZN10QtMobility23QDeclarativeGalleryType17componentCompleteEv 0x00011850   Data           0  declarative_gallery.in(.ARM.extab)
    .extab._ZN10QtMobility23QDeclarativeGalleryTypeC2EP7QObject 0x00011860   Data           0  declarative_gallery.in(.ARM.extab)
    .extab._ZN10QtMobility31QDeclarativeDocumentGalleryType11setItemTypeENS_27QDeclarativeDocumentGallery8ItemTypeE 0x00011890   Data           0  declarative_gallery.in(.ARM.extab)
    .extab._ZNK10QtMobility31QDeclarativeDocumentGalleryType8itemTypeEv 0x000118b0   Data           0  declarative_gallery.in(.ARM.extab)
    .constdata$1                             0x000118c0   Data           0  declarative_gallery.in(.constdata)
    .constdata                               0x000118c0   Section      166  declarative_gallery.in(.constdata)
    QtMobility::qt_meta_stringdata_QDeclarativeDocumentGallery 0x000118d0   Data         150  declarative_gallery.in(.constdata)
    .constdata$28                            0x00011968   Data           0  declarative_gallery.in(.constdata)
    QtMobility::qt_meta_data_QDeclarativeDocumentGallery 0x00011968   Data         188  declarative_gallery.in(.constdata)
    .constdata                               0x00011968   Section      188  declarative_gallery.in(.constdata)
    .constdata$1                             0x00011a24   Data           0  declarative_gallery.in(.constdata)
    qt_plugin_verification_data              0x00011a24   Data          91  declarative_gallery.in(.constdata)
    .constdata                               0x00011a24   Section     1276  declarative_gallery.in(.constdata)
    QtMobility::qt_meta_stringdata_QGalleryDeclarativeModule 0x00011a90   Data          27  declarative_gallery.in(.constdata)
    .constdata$28                            0x00011f20   Data           0  declarative_gallery.in(.constdata)
    QtMobility::qt_meta_data_QGalleryDeclarativeModule 0x00011f20   Data          60  declarative_gallery.in(.constdata)
    .constdata                               0x00011f20   Section       60  declarative_gallery.in(.constdata)
    .constdata$1                             0x00011f5c   Data           0  declarative_gallery.in(.constdata)
    .constdata                               0x00011f5c   Section     1060  declarative_gallery.in(.constdata)
    QtMobility::qt_meta_stringdata_QDeclarativeGalleryFilterBase 0x0001204c   Data          48  declarative_gallery.in(.constdata)
    QtMobility::qt_meta_stringdata_QDeclarativeGalleryValueFilter 0x0001207c   Data         132  declarative_gallery.in(.constdata)
    QtMobility::qt_meta_stringdata_QDeclarativeGalleryStringFilter 0x00012100   Data         124  declarative_gallery.in(.constdata)
    QtMobility::qt_meta_stringdata_QDeclarativeGalleryEqualsFilter 0x0001217c   Data          33  declarative_gallery.in(.constdata)
    QtMobility::qt_meta_stringdata_QDeclarativeGalleryLessThanFilter 0x0001219d   Data          35  declarative_gallery.in(.constdata)
    QtMobility::qt_meta_stringdata_QDeclarativeGalleryLessThanEqualsFilter 0x000121c0   Data          41  declarative_gallery.in(.constdata)
    QtMobility::qt_meta_stringdata_QDeclarativeGalleryGreaterThanFilter 0x000121e9   Data          38  declarative_gallery.in(.constdata)
    QtMobility::qt_meta_stringdata_QDeclarativeGalleryGreaterThanEqualsFilter 0x0001220f   Data          44  declarative_gallery.in(.constdata)
    QtMobility::qt_meta_stringdata_QDeclarativeGalleryContainsFilter 0x0001223b   Data          35  declarative_gallery.in(.constdata)
    QtMobility::qt_meta_stringdata_QDeclarativeGalleryStartsWithFilter 0x0001225e   Data          37  declarative_gallery.in(.constdata)
    QtMobility::qt_meta_stringdata_QDeclarativeGalleryEndsWithFilter 0x00012283   Data          35  declarative_gallery.in(.constdata)
    QtMobility::qt_meta_stringdata_QDeclarativeGalleryWildcardFilter 0x000122a6   Data          35  declarative_gallery.in(.constdata)
    QtMobility::qt_meta_stringdata_QDeclarativeGalleryFilterGroup 0x000122c9   Data         112  declarative_gallery.in(.constdata)
    QtMobility::qt_meta_stringdata_QDeclarativeGalleryFilterUnion 0x00012339   Data          32  declarative_gallery.in(.constdata)
    QtMobility::qt_meta_stringdata_QDeclarativeGalleryFilterIntersection 0x00012359   Data          39  declarative_gallery.in(.constdata)
    .constdata$70                            0x00012380   Data           0  declarative_gallery.in(.constdata)
    QtMobility::qt_meta_data_QDeclarativeGalleryFilterBase 0x00012380   Data          80  declarative_gallery.in(.constdata)
    .constdata                               0x00012380   Section       80  declarative_gallery.in(.constdata)
    .constdata$76                            0x000123d0   Data           0  declarative_gallery.in(.constdata)
    QtMobility::qt_meta_data_QDeclarativeGalleryValueFilter 0x000123d0   Data         168  declarative_gallery.in(.constdata)
    .constdata                               0x000123d0   Section      168  declarative_gallery.in(.constdata)
    .constdata$82                            0x00012478   Data           0  declarative_gallery.in(.constdata)
    QtMobility::qt_meta_data_QDeclarativeGalleryStringFilter 0x00012478   Data         168  declarative_gallery.in(.constdata)
    .constdata                               0x00012478   Section      168  declarative_gallery.in(.constdata)
    .constdata$88                            0x00012520   Data           0  declarative_gallery.in(.constdata)
    QtMobility::qt_meta_data_QDeclarativeGalleryEqualsFilter 0x00012520   Data          60  declarative_gallery.in(.constdata)
    .constdata                               0x00012520   Section       60  declarative_gallery.in(.constdata)
    .constdata$94                            0x0001255c   Data           0  declarative_gallery.in(.constdata)
    QtMobility::qt_meta_data_QDeclarativeGalleryLessThanFilter 0x0001255c   Data          60  declarative_gallery.in(.constdata)
    .constdata                               0x0001255c   Section       60  declarative_gallery.in(.constdata)
    .constdata$100                           0x00012598   Data           0  declarative_gallery.in(.constdata)
    QtMobility::qt_meta_data_QDeclarativeGalleryLessThanEqualsFilter 0x00012598   Data          60  declarative_gallery.in(.constdata)
    .constdata                               0x00012598   Section       60  declarative_gallery.in(.constdata)
    .constdata$106                           0x000125d4   Data           0  declarative_gallery.in(.constdata)
    QtMobility::qt_meta_data_QDeclarativeGalleryGreaterThanFilter 0x000125d4   Data          60  declarative_gallery.in(.constdata)
    .constdata                               0x000125d4   Section       60  declarative_gallery.in(.constdata)
    .constdata$112                           0x00012610   Data           0  declarative_gallery.in(.constdata)
    QtMobility::qt_meta_data_QDeclarativeGalleryGreaterThanEqualsFilter 0x00012610   Data          60  declarative_gallery.in(.constdata)
    .constdata                               0x00012610   Section       60  declarative_gallery.in(.constdata)
    .constdata$118                           0x0001264c   Data           0  declarative_gallery.in(.constdata)
    QtMobility::qt_meta_data_QDeclarativeGalleryContainsFilter 0x0001264c   Data          60  declarative_gallery.in(.constdata)
    .constdata                               0x0001264c   Section       60  declarative_gallery.in(.constdata)
    .constdata$124                           0x00012688   Data           0  declarative_gallery.in(.constdata)
    QtMobility::qt_meta_data_QDeclarativeGalleryStartsWithFilter 0x00012688   Data          60  declarative_gallery.in(.constdata)
    .constdata                               0x00012688   Section       60  declarative_gallery.in(.constdata)
    .constdata$130                           0x000126c4   Data           0  declarative_gallery.in(.constdata)
    QtMobility::qt_meta_data_QDeclarativeGalleryEndsWithFilter 0x000126c4   Data          60  declarative_gallery.in(.constdata)
    .constdata                               0x000126c4   Section       60  declarative_gallery.in(.constdata)
    .constdata$136                           0x00012700   Data           0  declarative_gallery.in(.constdata)
    QtMobility::qt_meta_data_QDeclarativeGalleryWildcardFilter 0x00012700   Data          60  declarative_gallery.in(.constdata)
    .constdata                               0x00012700   Section       60  declarative_gallery.in(.constdata)
    .constdata$142                           0x0001273c   Data           0  declarative_gallery.in(.constdata)
    QtMobility::qt_meta_data_QDeclarativeGalleryFilterGroup 0x0001273c   Data          80  declarative_gallery.in(.constdata)
    .constdata                               0x0001273c   Section       80  declarative_gallery.in(.constdata)
    .constdata$148                           0x0001278c   Data           0  declarative_gallery.in(.constdata)
    QtMobility::qt_meta_data_QDeclarativeGalleryFilterUnion 0x0001278c   Data          60  declarative_gallery.in(.constdata)
    .constdata                               0x0001278c   Section       60  declarative_gallery.in(.constdata)
    .constdata$154                           0x000127c8   Data           0  declarative_gallery.in(.constdata)
    QtMobility::qt_meta_data_QDeclarativeGalleryFilterIntersection 0x000127c8   Data          60  declarative_gallery.in(.constdata)
    .constdata                               0x000127c8   Section       60  declarative_gallery.in(.constdata)
    .constdata$1                             0x00012804   Data           0  declarative_gallery.in(.constdata)
    .constdata                               0x00012804   Section      619  declarative_gallery.in(.constdata)
    QtMobility::qt_meta_stringdata_QDeclarativeGalleryItem 0x00012824   Data         488  declarative_gallery.in(.constdata)
    QtMobility::qt_meta_stringdata_QDeclarativeDocumentGalleryItem 0x00012a0c   Data          99  declarative_gallery.in(.constdata)
    .constdata$31                            0x00012a70   Data           0  declarative_gallery.in(.constdata)
    QtMobility::qt_meta_data_QDeclarativeGalleryItem 0x00012a70   Data         560  declarative_gallery.in(.constdata)
    .constdata                               0x00012a70   Section      560  declarative_gallery.in(.constdata)
    .constdata$37                            0x00012ca0   Data           0  declarative_gallery.in(.constdata)
    QtMobility::qt_meta_data_QDeclarativeDocumentGalleryItem 0x00012ca0   Data          96  declarative_gallery.in(.constdata)
    .constdata                               0x00012ca0   Section       96  declarative_gallery.in(.constdata)
    .constdata$43                            0x00012d00   Data           0  declarative_gallery.in(.constdata)
    QtMobility::qt_meta_extradata_QDeclarativeDocumentGalleryItem 0x00012d00   Data           8  declarative_gallery.in(.constdata)
    .constdata                               0x00012d00   Section        8  declarative_gallery.in(.constdata)
    .constdata$49                            0x00012d08   Data           0  declarative_gallery.in(.constdata)
    QtMobility::qt_meta_extradata2_QDeclarativeDocumentGalleryItem 0x00012d08   Data           8  declarative_gallery.in(.constdata)
    .constdata                               0x00012d08   Section        8  declarative_gallery.in(.constdata)
    .constdata$1                             0x00012d10   Data           0  declarative_gallery.in(.constdata)
    .constdata                               0x00012d10   Section     1021  declarative_gallery.in(.constdata)
    QtMobility::qt_meta_stringdata_QDeclarativeGalleryQueryModel 0x00012d30   Data         889  declarative_gallery.in(.constdata)
    QtMobility::qt_meta_stringdata_QDeclarativeDocumentGalleryModel 0x000130a9   Data         100  declarative_gallery.in(.constdata)
    .constdata$31                            0x00013110   Data           0  declarative_gallery.in(.constdata)
    QtMobility::qt_meta_data_QDeclarativeGalleryQueryModel 0x00013110   Data         840  declarative_gallery.in(.constdata)
    .constdata                               0x00013110   Section      840  declarative_gallery.in(.constdata)
    .constdata$37                            0x00013458   Data           0  declarative_gallery.in(.constdata)
    QtMobility::qt_meta_data_QDeclarativeDocumentGalleryModel 0x00013458   Data          96  declarative_gallery.in(.constdata)
    .constdata                               0x00013458   Section       96  declarative_gallery.in(.constdata)
    .constdata$43                            0x000134b8   Data           0  declarative_gallery.in(.constdata)
    QtMobility::qt_meta_extradata_QDeclarativeDocumentGalleryModel 0x000134b8   Data           8  declarative_gallery.in(.constdata)
    .constdata                               0x000134b8   Section        8  declarative_gallery.in(.constdata)
    .constdata$49                            0x000134c0   Data           0  declarative_gallery.in(.constdata)
    QtMobility::qt_meta_extradata2_QDeclarativeDocumentGalleryModel 0x000134c0   Data           8  declarative_gallery.in(.constdata)
    .constdata                               0x000134c0   Section        8  declarative_gallery.in(.constdata)
    .constdata$1                             0x000134c8   Data           0  declarative_gallery.in(.constdata)
    .constdata                               0x000134c8   Section      532  declarative_gallery.in(.constdata)
    QtMobility::qt_meta_stringdata_QDeclarativeGalleryType 0x000134e8   Data         401  declarative_gallery.in(.constdata)
    QtMobility::qt_meta_stringdata_QDeclarativeDocumentGalleryType 0x00013679   Data          99  declarative_gallery.in(.constdata)
    .constdata$31                            0x000136dc   Data           0  declarative_gallery.in(.constdata)
    QtMobility::qt_meta_data_QDeclarativeGalleryType 0x000136dc   Data         488  declarative_gallery.in(.constdata)
    .constdata                               0x000136dc   Section      488  declarative_gallery.in(.constdata)
    .constdata$37                            0x000138c4   Data           0  declarative_gallery.in(.constdata)
    QtMobility::qt_meta_data_QDeclarativeDocumentGalleryType 0x000138c4   Data          96  declarative_gallery.in(.constdata)
    .constdata                               0x000138c4   Section       96  declarative_gallery.in(.constdata)
    .constdata$43                            0x00013924   Data           0  declarative_gallery.in(.constdata)
    QtMobility::qt_meta_extradata_QDeclarativeDocumentGalleryType 0x00013924   Data           8  declarative_gallery.in(.constdata)
    .constdata                               0x00013924   Section        8  declarative_gallery.in(.constdata)
    .constdata$49                            0x0001392c   Data           0  declarative_gallery.in(.constdata)
    QtMobility::qt_meta_extradata2_QDeclarativeDocumentGalleryType 0x0001392c   Data           8  declarative_gallery.in(.constdata)
    .constdata                               0x0001392c   Section        8  declarative_gallery.in(.constdata)
    .constdata__ZTIN10QtMobility23QDeclarativeGalleryItemE 0x00013934   Section       32  declarative_gallery.in(.constdata__ZTIN10QtMobility23QDeclarativeGalleryItemE)
    .constdata__ZTIN10QtMobility23QDeclarativeGalleryTypeE 0x00013954   Section       32  declarative_gallery.in(.constdata__ZTIN10QtMobility23QDeclarativeGalleryTypeE)
    .constdata__ZTIN10QtMobility25QGalleryDeclarativeModuleE 0x00013974   Section       12  declarative_gallery.in(.constdata__ZTIN10QtMobility25QGalleryDeclarativeModuleE)
    .constdata__ZTIN10QtMobility29QDeclarativeGalleryFilterBaseE 0x00013980   Section       12  declarative_gallery.in(.constdata__ZTIN10QtMobility29QDeclarativeGalleryFilterBaseE)
    .constdata__ZTIN10QtMobility29QDeclarativeGalleryQueryModelE 0x0001398c   Section       32  declarative_gallery.in(.constdata__ZTIN10QtMobility29QDeclarativeGalleryQueryModelE)
    .constdata__ZTIN10QtMobility30QDeclarativeGalleryFilterGroupE 0x000139ac   Section       32  declarative_gallery.in(.constdata__ZTIN10QtMobility30QDeclarativeGalleryFilterGroupE)
    .constdata__ZTIN10QtMobility30QDeclarativeGalleryFilterUnionE 0x000139cc   Section       12  declarative_gallery.in(.constdata__ZTIN10QtMobility30QDeclarativeGalleryFilterUnionE)
    .constdata__ZTIN10QtMobility30QDeclarativeGalleryValueFilterE 0x000139d8   Section       12  declarative_gallery.in(.constdata__ZTIN10QtMobility30QDeclarativeGalleryValueFilterE)
    .constdata__ZTIN10QtMobility31QDeclarativeDocumentGalleryItemE 0x000139e4   Section       12  declarative_gallery.in(.constdata__ZTIN10QtMobility31QDeclarativeDocumentGalleryItemE)
    .constdata__ZTIN10QtMobility31QDeclarativeDocumentGalleryTypeE 0x000139f0   Section       12  declarative_gallery.in(.constdata__ZTIN10QtMobility31QDeclarativeDocumentGalleryTypeE)
    .constdata__ZTIN10QtMobility31QDeclarativeGalleryEqualsFilterE 0x000139fc   Section       12  declarative_gallery.in(.constdata__ZTIN10QtMobility31QDeclarativeGalleryEqualsFilterE)
    .constdata__ZTIN10QtMobility31QDeclarativeGalleryStringFilterE 0x00013a08   Section       12  declarative_gallery.in(.constdata__ZTIN10QtMobility31QDeclarativeGalleryStringFilterE)
    .constdata__ZTIN10QtMobility32QDeclarativeDocumentGalleryModelE 0x00013a14   Section       12  declarative_gallery.in(.constdata__ZTIN10QtMobility32QDeclarativeDocumentGalleryModelE)
    .constdata__ZTIN10QtMobility33QDeclarativeGalleryContainsFilterE 0x00013a20   Section       12  declarative_gallery.in(.constdata__ZTIN10QtMobility33QDeclarativeGalleryContainsFilterE)
    .constdata__ZTIN10QtMobility33QDeclarativeGalleryEndsWithFilterE 0x00013a2c   Section       12  declarative_gallery.in(.constdata__ZTIN10QtMobility33QDeclarativeGalleryEndsWithFilterE)
    .constdata__ZTIN10QtMobility33QDeclarativeGalleryLessThanFilterE 0x00013a38   Section       12  declarative_gallery.in(.constdata__ZTIN10QtMobility33QDeclarativeGalleryLessThanFilterE)
    .constdata__ZTIN10QtMobility33QDeclarativeGalleryWildcardFilterE 0x00013a44   Section       12  declarative_gallery.in(.constdata__ZTIN10QtMobility33QDeclarativeGalleryWildcardFilterE)
    .constdata__ZTIN10QtMobility35QDeclarativeGalleryStartsWithFilterE 0x00013a50   Section       12  declarative_gallery.in(.constdata__ZTIN10QtMobility35QDeclarativeGalleryStartsWithFilterE)
    .constdata__ZTIN10QtMobility36QDeclarativeGalleryGreaterThanFilterE 0x00013a5c   Section       12  declarative_gallery.in(.constdata__ZTIN10QtMobility36QDeclarativeGalleryGreaterThanFilterE)
    .constdata__ZTIN10QtMobility37QDeclarativeGalleryFilterIntersectionE 0x00013a68   Section       12  declarative_gallery.in(.constdata__ZTIN10QtMobility37QDeclarativeGalleryFilterIntersectionE)
    .constdata__ZTIN10QtMobility39QDeclarativeGalleryLessThanEqualsFilterE 0x00013a74   Section       12  declarative_gallery.in(.constdata__ZTIN10QtMobility39QDeclarativeGalleryLessThanEqualsFilterE)
    .constdata__ZTIN10QtMobility42QDeclarativeGalleryGreaterThanEqualsFilterE 0x00013a80   Section       12  declarative_gallery.in(.constdata__ZTIN10QtMobility42QDeclarativeGalleryGreaterThanEqualsFilterE)
    .constdata__ZTIN19QDeclarativePrivate19QDeclarativeElementIN10QtMobility30QDeclarativeGalleryFilterUnionEEE 0x00013a8c   Section       12  declarative_gallery.in(.constdata__ZTIN19QDeclarativePrivate19QDeclarativeElementIN10QtMobility30QDeclarativeGalleryFilterUnionEEE)
    .constdata__ZTIN19QDeclarativePrivate19QDeclarativeElementIN10QtMobility31QDeclarativeDocumentGalleryItemEEE 0x00013a98   Section       12  declarative_gallery.in(.constdata__ZTIN19QDeclarativePrivate19QDeclarativeElementIN10QtMobility31QDeclarativeDocumentGalleryItemEEE)
    .constdata__ZTIN19QDeclarativePrivate19QDeclarativeElementIN10QtMobility31QDeclarativeDocumentGalleryTypeEEE 0x00013aa4   Section       12  declarative_gallery.in(.constdata__ZTIN19QDeclarativePrivate19QDeclarativeElementIN10QtMobility31QDeclarativeDocumentGalleryTypeEEE)
    .constdata__ZTIN19QDeclarativePrivate19QDeclarativeElementIN10QtMobility31QDeclarativeGalleryEqualsFilterEEE 0x00013ab0   Section       12  declarative_gallery.in(.constdata__ZTIN19QDeclarativePrivate19QDeclarativeElementIN10QtMobility31QDeclarativeGalleryEqualsFilterEEE)
    .constdata__ZTIN19QDeclarativePrivate19QDeclarativeElementIN10QtMobility32QDeclarativeDocumentGalleryModelEEE 0x00013abc   Section       12  declarative_gallery.in(.constdata__ZTIN19QDeclarativePrivate19QDeclarativeElementIN10QtMobility32QDeclarativeDocumentGalleryModelEEE)
    .constdata__ZTIN19QDeclarativePrivate19QDeclarativeElementIN10QtMobility33QDeclarativeGalleryContainsFilterEEE 0x00013ac8   Section       12  declarative_gallery.in(.constdata__ZTIN19QDeclarativePrivate19QDeclarativeElementIN10QtMobility33QDeclarativeGalleryContainsFilterEEE)
    .constdata__ZTIN19QDeclarativePrivate19QDeclarativeElementIN10QtMobility33QDeclarativeGalleryEndsWithFilterEEE 0x00013ad4   Section       12  declarative_gallery.in(.constdata__ZTIN19QDeclarativePrivate19QDeclarativeElementIN10QtMobility33QDeclarativeGalleryEndsWithFilterEEE)
    .constdata__ZTIN19QDeclarativePrivate19QDeclarativeElementIN10QtMobility33QDeclarativeGalleryLessThanFilterEEE 0x00013ae0   Section       12  declarative_gallery.in(.constdata__ZTIN19QDeclarativePrivate19QDeclarativeElementIN10QtMobility33QDeclarativeGalleryLessThanFilterEEE)
    .constdata__ZTIN19QDeclarativePrivate19QDeclarativeElementIN10QtMobility33QDeclarativeGalleryWildcardFilterEEE 0x00013aec   Section       12  declarative_gallery.in(.constdata__ZTIN19QDeclarativePrivate19QDeclarativeElementIN10QtMobility33QDeclarativeGalleryWildcardFilterEEE)
    .constdata__ZTIN19QDeclarativePrivate19QDeclarativeElementIN10QtMobility35QDeclarativeGalleryStartsWithFilterEEE 0x00013af8   Section       12  declarative_gallery.in(.constdata__ZTIN19QDeclarativePrivate19QDeclarativeElementIN10QtMobility35QDeclarativeGalleryStartsWithFilterEEE)
    .constdata__ZTIN19QDeclarativePrivate19QDeclarativeElementIN10QtMobility36QDeclarativeGalleryGreaterThanFilterEEE 0x00013b04   Section       12  declarative_gallery.in(.constdata__ZTIN19QDeclarativePrivate19QDeclarativeElementIN10QtMobility36QDeclarativeGalleryGreaterThanFilterEEE)
    .constdata__ZTIN19QDeclarativePrivate19QDeclarativeElementIN10QtMobility37QDeclarativeGalleryFilterIntersectionEEE 0x00013b10   Section       12  declarative_gallery.in(.constdata__ZTIN19QDeclarativePrivate19QDeclarativeElementIN10QtMobility37QDeclarativeGalleryFilterIntersectionEEE)
    .constdata__ZTIN19QDeclarativePrivate19QDeclarativeElementIN10QtMobility39QDeclarativeGalleryLessThanEqualsFilterEEE 0x00013b1c   Section       12  declarative_gallery.in(.constdata__ZTIN19QDeclarativePrivate19QDeclarativeElementIN10QtMobility39QDeclarativeGalleryLessThanEqualsFilterEEE)
    .constdata__ZTIN19QDeclarativePrivate19QDeclarativeElementIN10QtMobility42QDeclarativeGalleryGreaterThanEqualsFilterEEE 0x00013b28   Section       12  declarative_gallery.in(.constdata__ZTIN19QDeclarativePrivate19QDeclarativeElementIN10QtMobility42QDeclarativeGalleryGreaterThanEqualsFilterEEE)
    .constdata__ZTSN10QtMobility23QDeclarativeGalleryItemE 0x00013b34   Section       40  declarative_gallery.in(.constdata__ZTSN10QtMobility23QDeclarativeGalleryItemE)
    .constdata__ZTSN10QtMobility23QDeclarativeGalleryTypeE 0x00013b5c   Section       40  declarative_gallery.in(.constdata__ZTSN10QtMobility23QDeclarativeGalleryTypeE)
    .constdata__ZTSN10QtMobility25QGalleryDeclarativeModuleE 0x00013b84   Section       42  declarative_gallery.in(.constdata__ZTSN10QtMobility25QGalleryDeclarativeModuleE)
    .constdata__ZTSN10QtMobility29QDeclarativeGalleryFilterBaseE 0x00013bae   Section       46  declarative_gallery.in(.constdata__ZTSN10QtMobility29QDeclarativeGalleryFilterBaseE)
    .constdata__ZTSN10QtMobility29QDeclarativeGalleryQueryModelE 0x00013bdc   Section       46  declarative_gallery.in(.constdata__ZTSN10QtMobility29QDeclarativeGalleryQueryModelE)
    .constdata__ZTSN10QtMobility30QDeclarativeGalleryFilterGroupE 0x00013c0a   Section       47  declarative_gallery.in(.constdata__ZTSN10QtMobility30QDeclarativeGalleryFilterGroupE)
    .constdata__ZTSN10QtMobility30QDeclarativeGalleryFilterUnionE 0x00013c39   Section       47  declarative_gallery.in(.constdata__ZTSN10QtMobility30QDeclarativeGalleryFilterUnionE)
    .constdata__ZTSN10QtMobility30QDeclarativeGalleryValueFilterE 0x00013c68   Section       47  declarative_gallery.in(.constdata__ZTSN10QtMobility30QDeclarativeGalleryValueFilterE)
    .constdata__ZTSN10QtMobility31QDeclarativeDocumentGalleryItemE 0x00013c97   Section       48  declarative_gallery.in(.constdata__ZTSN10QtMobility31QDeclarativeDocumentGalleryItemE)
    .constdata__ZTSN10QtMobility31QDeclarativeDocumentGalleryTypeE 0x00013cc7   Section       48  declarative_gallery.in(.constdata__ZTSN10QtMobility31QDeclarativeDocumentGalleryTypeE)
    .constdata__ZTSN10QtMobility31QDeclarativeGalleryEqualsFilterE 0x00013cf7   Section       48  declarative_gallery.in(.constdata__ZTSN10QtMobility31QDeclarativeGalleryEqualsFilterE)
    .constdata__ZTSN10QtMobility31QDeclarativeGalleryStringFilterE 0x00013d27   Section       48  declarative_gallery.in(.constdata__ZTSN10QtMobility31QDeclarativeGalleryStringFilterE)
    .constdata__ZTSN10QtMobility32QDeclarativeDocumentGalleryModelE 0x00013d57   Section       49  declarative_gallery.in(.constdata__ZTSN10QtMobility32QDeclarativeDocumentGalleryModelE)
    .constdata__ZTSN10QtMobility33QDeclarativeGalleryContainsFilterE 0x00013d88   Section       50  declarative_gallery.in(.constdata__ZTSN10QtMobility33QDeclarativeGalleryContainsFilterE)
    .constdata__ZTSN10QtMobility33QDeclarativeGalleryEndsWithFilterE 0x00013dba   Section       50  declarative_gallery.in(.constdata__ZTSN10QtMobility33QDeclarativeGalleryEndsWithFilterE)
    .constdata__ZTSN10QtMobility33QDeclarativeGalleryLessThanFilterE 0x00013dec   Section       50  declarative_gallery.in(.constdata__ZTSN10QtMobility33QDeclarativeGalleryLessThanFilterE)
    .constdata__ZTSN10QtMobility33QDeclarativeGalleryWildcardFilterE 0x00013e1e   Section       50  declarative_gallery.in(.constdata__ZTSN10QtMobility33QDeclarativeGalleryWildcardFilterE)
    .constdata__ZTSN10QtMobility35QDeclarativeGalleryStartsWithFilterE 0x00013e50   Section       52  declarative_gallery.in(.constdata__ZTSN10QtMobility35QDeclarativeGalleryStartsWithFilterE)
    .constdata__ZTSN10QtMobility36QDeclarativeGalleryGreaterThanFilterE 0x00013e84   Section       53  declarative_gallery.in(.constdata__ZTSN10QtMobility36QDeclarativeGalleryGreaterThanFilterE)
    .constdata__ZTSN10QtMobility37QDeclarativeGalleryFilterIntersectionE 0x00013eb9   Section       54  declarative_gallery.in(.constdata__ZTSN10QtMobility37QDeclarativeGalleryFilterIntersectionE)
    .constdata__ZTSN10QtMobility39QDeclarativeGalleryLessThanEqualsFilterE 0x00013eef   Section       56  declarative_gallery.in(.constdata__ZTSN10QtMobility39QDeclarativeGalleryLessThanEqualsFilterE)
    .constdata__ZTSN10QtMobility42QDeclarativeGalleryGreaterThanEqualsFilterE 0x00013f27   Section       59  declarative_gallery.in(.constdata__ZTSN10QtMobility42QDeclarativeGalleryGreaterThanEqualsFilterE)
    .constdata__ZTSN19QDeclarativePrivate19QDeclarativeElementIN10QtMobility30QDeclarativeGalleryFilterUnionEEE 0x00013f62   Section       93  declarative_gallery.in(.constdata__ZTSN19QDeclarativePrivate19QDeclarativeElementIN10QtMobility30QDeclarativeGalleryFilterUnionEEE)
    .constdata__ZTSN19QDeclarativePrivate19QDeclarativeElementIN10QtMobility31QDeclarativeDocumentGalleryItemEEE 0x00013fbf   Section       94  declarative_gallery.in(.constdata__ZTSN19QDeclarativePrivate19QDeclarativeElementIN10QtMobility31QDeclarativeDocumentGalleryItemEEE)
    .constdata__ZTSN19QDeclarativePrivate19QDeclarativeElementIN10QtMobility31QDeclarativeDocumentGalleryTypeEEE 0x0001401d   Section       94  declarative_gallery.in(.constdata__ZTSN19QDeclarativePrivate19QDeclarativeElementIN10QtMobility31QDeclarativeDocumentGalleryTypeEEE)
    .constdata__ZTSN19QDeclarativePrivate19QDeclarativeElementIN10QtMobility31QDeclarativeGalleryEqualsFilterEEE 0x0001407b   Section       94  declarative_gallery.in(.constdata__ZTSN19QDeclarativePrivate19QDeclarativeElementIN10QtMobility31QDeclarativeGalleryEqualsFilterEEE)
    .constdata__ZTSN19QDeclarativePrivate19QDeclarativeElementIN10QtMobility32QDeclarativeDocumentGalleryModelEEE 0x000140d9   Section       95  declarative_gallery.in(.constdata__ZTSN19QDeclarativePrivate19QDeclarativeElementIN10QtMobility32QDeclarativeDocumentGalleryModelEEE)
    .constdata__ZTSN19QDeclarativePrivate19QDeclarativeElementIN10QtMobility33QDeclarativeGalleryContainsFilterEEE 0x00014138   Section       96  declarative_gallery.in(.constdata__ZTSN19QDeclarativePrivate19QDeclarativeElementIN10QtMobility33QDeclarativeGalleryContainsFilterEEE)
    .constdata__ZTSN19QDeclarativePrivate19QDeclarativeElementIN10QtMobility33QDeclarativeGalleryEndsWithFilterEEE 0x00014198   Section       96  declarative_gallery.in(.constdata__ZTSN19QDeclarativePrivate19QDeclarativeElementIN10QtMobility33QDeclarativeGalleryEndsWithFilterEEE)
    .constdata__ZTSN19QDeclarativePrivate19QDeclarativeElementIN10QtMobility33QDeclarativeGalleryLessThanFilterEEE 0x000141f8   Section       96  declarative_gallery.in(.constdata__ZTSN19QDeclarativePrivate19QDeclarativeElementIN10QtMobility33QDeclarativeGalleryLessThanFilterEEE)
    .constdata__ZTSN19QDeclarativePrivate19QDeclarativeElementIN10QtMobility33QDeclarativeGalleryWildcardFilterEEE 0x00014258   Section       96  declarative_gallery.in(.constdata__ZTSN19QDeclarativePrivate19QDeclarativeElementIN10QtMobility33QDeclarativeGalleryWildcardFilterEEE)
    .constdata__ZTSN19QDeclarativePrivate19QDeclarativeElementIN10QtMobility35QDeclarativeGalleryStartsWithFilterEEE 0x000142b8   Section       98  declarative_gallery.in(.constdata__ZTSN19QDeclarativePrivate19QDeclarativeElementIN10QtMobility35QDeclarativeGalleryStartsWithFilterEEE)
    .constdata__ZTSN19QDeclarativePrivate19QDeclarativeElementIN10QtMobility36QDeclarativeGalleryGreaterThanFilterEEE 0x0001431a   Section       99  declarative_gallery.in(.constdata__ZTSN19QDeclarativePrivate19QDeclarativeElementIN10QtMobility36QDeclarativeGalleryGreaterThanFilterEEE)
    .constdata__ZTSN19QDeclarativePrivate19QDeclarativeElementIN10QtMobility37QDeclarativeGalleryFilterIntersectionEEE 0x0001437d   Section      100  declarative_gallery.in(.constdata__ZTSN19QDeclarativePrivate19QDeclarativeElementIN10QtMobility37QDeclarativeGalleryFilterIntersectionEEE)
    .constdata__ZTSN19QDeclarativePrivate19QDeclarativeElementIN10QtMobility39QDeclarativeGalleryLessThanEqualsFilterEEE 0x000143e1   Section      102  declarative_gallery.in(.constdata__ZTSN19QDeclarativePrivate19QDeclarativeElementIN10QtMobility39QDeclarativeGalleryLessThanEqualsFilterEEE)
    .constdata__ZTSN19QDeclarativePrivate19QDeclarativeElementIN10QtMobility42QDeclarativeGalleryGreaterThanEqualsFilterEEE 0x00014447   Section      105  declarative_gallery.in(.constdata__ZTSN19QDeclarativePrivate19QDeclarativeElementIN10QtMobility42QDeclarativeGalleryGreaterThanEqualsFilterEEE)
    .constdata__ZTVN10QtMobility23QDeclarativeGalleryItemE 0x000144b0   Section       84  declarative_gallery.in(.constdata__ZTVN10QtMobility23QDeclarativeGalleryItemE)
    .constdata__ZTVN10QtMobility23QDeclarativeGalleryTypeE 0x00014504   Section       84  declarative_gallery.in(.constdata__ZTVN10QtMobility23QDeclarativeGalleryTypeE)
    .constdata__ZTVN10QtMobility25QGalleryDeclarativeModuleE 0x00014558   Section       88  declarative_gallery.in(.constdata__ZTVN10QtMobility25QGalleryDeclarativeModuleE)
    .constdata__ZTVN10QtMobility29QDeclarativeGalleryFilterBaseE 0x000145b0   Section       60  declarative_gallery.in(.constdata__ZTVN10QtMobility29QDeclarativeGalleryFilterBaseE)
    .constdata__ZTVN10QtMobility29QDeclarativeGalleryQueryModelE 0x000145ec   Section      200  declarative_gallery.in(.constdata__ZTVN10QtMobility29QDeclarativeGalleryQueryModelE)
    .constdata__ZTVN10QtMobility30QDeclarativeGalleryFilterGroupE 0x000146b4   Section       92  declarative_gallery.in(.constdata__ZTVN10QtMobility30QDeclarativeGalleryFilterGroupE)
    .constdata__ZTVN10QtMobility30QDeclarativeGalleryValueFilterE 0x00014710   Section       60  declarative_gallery.in(.constdata__ZTVN10QtMobility30QDeclarativeGalleryValueFilterE)
    .constdata__ZTVN10QtMobility31QDeclarativeDocumentGalleryItemE 0x0001474c   Section       88  declarative_gallery.in(.constdata__ZTVN10QtMobility31QDeclarativeDocumentGalleryItemE)
    .constdata__ZTVN10QtMobility31QDeclarativeDocumentGalleryTypeE 0x000147a4   Section       88  declarative_gallery.in(.constdata__ZTVN10QtMobility31QDeclarativeDocumentGalleryTypeE)
    .constdata__ZTVN10QtMobility31QDeclarativeGalleryStringFilterE 0x000147fc   Section       60  declarative_gallery.in(.constdata__ZTVN10QtMobility31QDeclarativeGalleryStringFilterE)
    .constdata__ZTVN10QtMobility32QDeclarativeDocumentGalleryModelE 0x00014838   Section      204  declarative_gallery.in(.constdata__ZTVN10QtMobility32QDeclarativeDocumentGalleryModelE)
    .constdata__ZTVN19QDeclarativePrivate19QDeclarativeElementIN10QtMobility30QDeclarativeGalleryFilterUnionEEE 0x00014904   Section       92  declarative_gallery.in(.constdata__ZTVN19QDeclarativePrivate19QDeclarativeElementIN10QtMobility30QDeclarativeGalleryFilterUnionEEE)
    .constdata__ZTVN19QDeclarativePrivate19QDeclarativeElementIN10QtMobility31QDeclarativeDocumentGalleryItemEEE 0x00014960   Section       88  declarative_gallery.in(.constdata__ZTVN19QDeclarativePrivate19QDeclarativeElementIN10QtMobility31QDeclarativeDocumentGalleryItemEEE)
    .constdata__ZTVN19QDeclarativePrivate19QDeclarativeElementIN10QtMobility31QDeclarativeDocumentGalleryTypeEEE 0x000149b8   Section       88  declarative_gallery.in(.constdata__ZTVN19QDeclarativePrivate19QDeclarativeElementIN10QtMobility31QDeclarativeDocumentGalleryTypeEEE)
    .constdata__ZTVN19QDeclarativePrivate19QDeclarativeElementIN10QtMobility31QDeclarativeGalleryEqualsFilterEEE 0x00014a10   Section       60  declarative_gallery.in(.constdata__ZTVN19QDeclarativePrivate19QDeclarativeElementIN10QtMobility31QDeclarativeGalleryEqualsFilterEEE)
    .constdata__ZTVN19QDeclarativePrivate19QDeclarativeElementIN10QtMobility32QDeclarativeDocumentGalleryModelEEE 0x00014a4c   Section      204  declarative_gallery.in(.constdata__ZTVN19QDeclarativePrivate19QDeclarativeElementIN10QtMobility32QDeclarativeDocumentGalleryModelEEE)
    .constdata__ZTVN19QDeclarativePrivate19QDeclarativeElementIN10QtMobility33QDeclarativeGalleryContainsFilterEEE 0x00014b18   Section       60  declarative_gallery.in(.constdata__ZTVN19QDeclarativePrivate19QDeclarativeElementIN10QtMobility33QDeclarativeGalleryContainsFilterEEE)
    .constdata__ZTVN19QDeclarativePrivate19QDeclarativeElementIN10QtMobility33QDeclarativeGalleryEndsWithFilterEEE 0x00014b54   Section       60  declarative_gallery.in(.constdata__ZTVN19QDeclarativePrivate19QDeclarativeElementIN10QtMobility33QDeclarativeGalleryEndsWithFilterEEE)
    .constdata__ZTVN19QDeclarativePrivate19QDeclarativeElementIN10QtMobility33QDeclarativeGalleryLessThanFilterEEE 0x00014b90   Section       60  declarative_gallery.in(.constdata__ZTVN19QDeclarativePrivate19QDeclarativeElementIN10QtMobility33QDeclarativeGalleryLessThanFilterEEE)
    .constdata__ZTVN19QDeclarativePrivate19QDeclarativeElementIN10QtMobility33QDeclarativeGalleryWildcardFilterEEE 0x00014bcc   Section       60  declarative_gallery.in(.constdata__ZTVN19QDeclarativePrivate19QDeclarativeElementIN10QtMobility33QDeclarativeGalleryWildcardFilterEEE)
    .constdata__ZTVN19QDeclarativePrivate19QDeclarativeElementIN10QtMobility35QDeclarativeGalleryStartsWithFilterEEE 0x00014c08   Section       60  declarative_gallery.in(.constdata__ZTVN19QDeclarativePrivate19QDeclarativeElementIN10QtMobility35QDeclarativeGalleryStartsWithFilterEEE)
    .constdata__ZTVN19QDeclarativePrivate19QDeclarativeElementIN10QtMobility36QDeclarativeGalleryGreaterThanFilterEEE 0x00014c44   Section       60  declarative_gallery.in(.constdata__ZTVN19QDeclarativePrivate19QDeclarativeElementIN10QtMobility36QDeclarativeGalleryGreaterThanFilterEEE)
    .constdata__ZTVN19QDeclarativePrivate19QDeclarativeElementIN10QtMobility37QDeclarativeGalleryFilterIntersectionEEE 0x00014c80   Section       92  declarative_gallery.in(.constdata__ZTVN19QDeclarativePrivate19QDeclarativeElementIN10QtMobility37QDeclarativeGalleryFilterIntersectionEEE)
    .constdata__ZTVN19QDeclarativePrivate19QDeclarativeElementIN10QtMobility39QDeclarativeGalleryLessThanEqualsFilterEEE 0x00014cdc   Section       60  declarative_gallery.in(.constdata__ZTVN19QDeclarativePrivate19QDeclarativeElementIN10QtMobility39QDeclarativeGalleryLessThanEqualsFilterEEE)
    .constdata__ZTVN19QDeclarativePrivate19QDeclarativeElementIN10QtMobility42QDeclarativeGalleryGreaterThanEqualsFilterEEE 0x00014d18   Section       60  declarative_gallery.in(.constdata__ZTVN19QDeclarativePrivate19QDeclarativeElementIN10QtMobility42QDeclarativeGalleryGreaterThanEqualsFilterEEE)
    __ARM_d__Z15qmlRegisterTypeIN10QtMobility29QDeclarativeGalleryFilterBaseEEiv$36 0x00014d54   Data           0  declarative_gallery.in(__ARM_d__Z15qmlRegisterTypeIN10QtMobility29QDeclarativeGalleryFilterBaseEEiv)
    __ARM_d__Z15qmlRegisterTypeIN10QtMobility29QDeclarativeGalleryFilterBaseEEiv 0x00014d54   Section       76  declarative_gallery.in(__ARM_d__Z15qmlRegisterTypeIN10QtMobility29QDeclarativeGalleryFilterBaseEEiv)
    __ARM_d__Z15qmlRegisterTypeIN10QtMobility30QDeclarativeGalleryFilterUnionEEiPKciiS3_$66 0x00014da0   Data           0  declarative_gallery.in(__ARM_d__Z15qmlRegisterTypeIN10QtMobility30QDeclarativeGalleryFilterUnionEEiPKciiS3_)
    __ARM_d__Z15qmlRegisterTypeIN10QtMobility30QDeclarativeGalleryFilterUnionEEiPKciiS3_ 0x00014da0   Section       76  declarative_gallery.in(__ARM_d__Z15qmlRegisterTypeIN10QtMobility30QDeclarativeGalleryFilterUnionEEiPKciiS3_)
    __ARM_d__Z15qmlRegisterTypeIN10QtMobility31QDeclarativeDocumentGalleryItemEEiPKciiS3_$72 0x00014dec   Data           0  declarative_gallery.in(__ARM_d__Z15qmlRegisterTypeIN10QtMobility31QDeclarativeDocumentGalleryItemEEiPKciiS3_)
    __ARM_d__Z15qmlRegisterTypeIN10QtMobility31QDeclarativeDocumentGalleryItemEEiPKciiS3_ 0x00014dec   Section       76  declarative_gallery.in(__ARM_d__Z15qmlRegisterTypeIN10QtMobility31QDeclarativeDocumentGalleryItemEEiPKciiS3_)
    __ARM_d__Z15qmlRegisterTypeIN10QtMobility31QDeclarativeDocumentGalleryTypeEEiPKciiS3_$78 0x00014e38   Data           0  declarative_gallery.in(__ARM_d__Z15qmlRegisterTypeIN10QtMobility31QDeclarativeDocumentGalleryTypeEEiPKciiS3_)
    __ARM_d__Z15qmlRegisterTypeIN10QtMobility31QDeclarativeDocumentGalleryTypeEEiPKciiS3_ 0x00014e38   Section       76  declarative_gallery.in(__ARM_d__Z15qmlRegisterTypeIN10QtMobility31QDeclarativeDocumentGalleryTypeEEiPKciiS3_)
    __ARM_d__Z15qmlRegisterTypeIN10QtMobility31QDeclarativeGalleryEqualsFilterEEiPKciiS3_$39 0x00014e84   Data           0  declarative_gallery.in(__ARM_d__Z15qmlRegisterTypeIN10QtMobility31QDeclarativeGalleryEqualsFilterEEiPKciiS3_)
    __ARM_d__Z15qmlRegisterTypeIN10QtMobility31QDeclarativeGalleryEqualsFilterEEiPKciiS3_ 0x00014e84   Section       76  declarative_gallery.in(__ARM_d__Z15qmlRegisterTypeIN10QtMobility31QDeclarativeGalleryEqualsFilterEEiPKciiS3_)
    __ARM_d__Z15qmlRegisterTypeIN10QtMobility32QDeclarativeDocumentGalleryModelEEiPKciiS3_$75 0x00014ed0   Data           0  declarative_gallery.in(__ARM_d__Z15qmlRegisterTypeIN10QtMobility32QDeclarativeDocumentGalleryModelEEiPKciiS3_)
    __ARM_d__Z15qmlRegisterTypeIN10QtMobility32QDeclarativeDocumentGalleryModelEEiPKciiS3_ 0x00014ed0   Section       76  declarative_gallery.in(__ARM_d__Z15qmlRegisterTypeIN10QtMobility32QDeclarativeDocumentGalleryModelEEiPKciiS3_)
    __ARM_d__Z15qmlRegisterTypeIN10QtMobility33QDeclarativeGalleryContainsFilterEEiPKciiS3_$54 0x00014f1c   Data           0  declarative_gallery.in(__ARM_d__Z15qmlRegisterTypeIN10QtMobility33QDeclarativeGalleryContainsFilterEEiPKciiS3_)
    __ARM_d__Z15qmlRegisterTypeIN10QtMobility33QDeclarativeGalleryContainsFilterEEiPKciiS3_ 0x00014f1c   Section       76  declarative_gallery.in(__ARM_d__Z15qmlRegisterTypeIN10QtMobility33QDeclarativeGalleryContainsFilterEEiPKciiS3_)
    __ARM_d__Z15qmlRegisterTypeIN10QtMobility33QDeclarativeGalleryEndsWithFilterEEiPKciiS3_$60 0x00014f68   Data           0  declarative_gallery.in(__ARM_d__Z15qmlRegisterTypeIN10QtMobility33QDeclarativeGalleryEndsWithFilterEEiPKciiS3_)
    __ARM_d__Z15qmlRegisterTypeIN10QtMobility33QDeclarativeGalleryEndsWithFilterEEiPKciiS3_ 0x00014f68   Section       76  declarative_gallery.in(__ARM_d__Z15qmlRegisterTypeIN10QtMobility33QDeclarativeGalleryEndsWithFilterEEiPKciiS3_)
    __ARM_d__Z15qmlRegisterTypeIN10QtMobility33QDeclarativeGalleryLessThanFilterEEiPKciiS3_$42 0x00014fb4   Data           0  declarative_gallery.in(__ARM_d__Z15qmlRegisterTypeIN10QtMobility33QDeclarativeGalleryLessThanFilterEEiPKciiS3_)
    __ARM_d__Z15qmlRegisterTypeIN10QtMobility33QDeclarativeGalleryLessThanFilterEEiPKciiS3_ 0x00014fb4   Section       76  declarative_gallery.in(__ARM_d__Z15qmlRegisterTypeIN10QtMobility33QDeclarativeGalleryLessThanFilterEEiPKciiS3_)
    __ARM_d__Z15qmlRegisterTypeIN10QtMobility33QDeclarativeGalleryWildcardFilterEEiPKciiS3_$63 0x00015000   Data           0  declarative_gallery.in(__ARM_d__Z15qmlRegisterTypeIN10QtMobility33QDeclarativeGalleryWildcardFilterEEiPKciiS3_)
    __ARM_d__Z15qmlRegisterTypeIN10QtMobility33QDeclarativeGalleryWildcardFilterEEiPKciiS3_ 0x00015000   Section       76  declarative_gallery.in(__ARM_d__Z15qmlRegisterTypeIN10QtMobility33QDeclarativeGalleryWildcardFilterEEiPKciiS3_)
    __ARM_d__Z15qmlRegisterTypeIN10QtMobility35QDeclarativeGalleryStartsWithFilterEEiPKciiS3_$57 0x0001504c   Data           0  declarative_gallery.in(__ARM_d__Z15qmlRegisterTypeIN10QtMobility35QDeclarativeGalleryStartsWithFilterEEiPKciiS3_)
    __ARM_d__Z15qmlRegisterTypeIN10QtMobility35QDeclarativeGalleryStartsWithFilterEEiPKciiS3_ 0x0001504c   Section       76  declarative_gallery.in(__ARM_d__Z15qmlRegisterTypeIN10QtMobility35QDeclarativeGalleryStartsWithFilterEEiPKciiS3_)
    __ARM_d__Z15qmlRegisterTypeIN10QtMobility36QDeclarativeGalleryGreaterThanFilterEEiPKciiS3_$48 0x00015098   Data           0  declarative_gallery.in(__ARM_d__Z15qmlRegisterTypeIN10QtMobility36QDeclarativeGalleryGreaterThanFilterEEiPKciiS3_)
    __ARM_d__Z15qmlRegisterTypeIN10QtMobility36QDeclarativeGalleryGreaterThanFilterEEiPKciiS3_ 0x00015098   Section       76  declarative_gallery.in(__ARM_d__Z15qmlRegisterTypeIN10QtMobility36QDeclarativeGalleryGreaterThanFilterEEiPKciiS3_)
    __ARM_d__Z15qmlRegisterTypeIN10QtMobility37QDeclarativeGalleryFilterIntersectionEEiPKciiS3_$69 0x000150e4   Data           0  declarative_gallery.in(__ARM_d__Z15qmlRegisterTypeIN10QtMobility37QDeclarativeGalleryFilterIntersectionEEiPKciiS3_)
    __ARM_d__Z15qmlRegisterTypeIN10QtMobility37QDeclarativeGalleryFilterIntersectionEEiPKciiS3_ 0x000150e4   Section       76  declarative_gallery.in(__ARM_d__Z15qmlRegisterTypeIN10QtMobility37QDeclarativeGalleryFilterIntersectionEEiPKciiS3_)
    __ARM_d__Z15qmlRegisterTypeIN10QtMobility39QDeclarativeGalleryLessThanEqualsFilterEEiPKciiS3_$45 0x00015130   Data           0  declarative_gallery.in(__ARM_d__Z15qmlRegisterTypeIN10QtMobility39QDeclarativeGalleryLessThanEqualsFilterEEiPKciiS3_)
    __ARM_d__Z15qmlRegisterTypeIN10QtMobility39QDeclarativeGalleryLessThanEqualsFilterEEiPKciiS3_ 0x00015130   Section       76  declarative_gallery.in(__ARM_d__Z15qmlRegisterTypeIN10QtMobility39QDeclarativeGalleryLessThanEqualsFilterEEiPKciiS3_)
    __ARM_d__Z15qmlRegisterTypeIN10QtMobility42QDeclarativeGalleryGreaterThanEqualsFilterEEiPKciiS3_$51 0x0001517c   Data           0  declarative_gallery.in(__ARM_d__Z15qmlRegisterTypeIN10QtMobility42QDeclarativeGalleryGreaterThanEqualsFilterEEiPKciiS3_)
    __ARM_d__Z15qmlRegisterTypeIN10QtMobility42QDeclarativeGalleryGreaterThanEqualsFilterEEiPKciiS3_ 0x0001517c   Section       76  declarative_gallery.in(__ARM_d__Z15qmlRegisterTypeIN10QtMobility42QDeclarativeGalleryGreaterThanEqualsFilterEEiPKciiS3_)
    __ARM_d__Z26qmlRegisterUncreatableTypeIN10QtMobility27QDeclarativeDocumentGalleryEEiPKciiS3_RK7QString$33 0x000151c8   Data           0  declarative_gallery.in(__ARM_d__Z26qmlRegisterUncreatableTypeIN10QtMobility27QDeclarativeDocumentGalleryEEiPKciiS3_RK7QString)
    __ARM_d__Z26qmlRegisterUncreatableTypeIN10QtMobility27QDeclarativeDocumentGalleryEEiPKciiS3_RK7QString 0x000151c8   Section       76  declarative_gallery.in(__ARM_d__Z26qmlRegisterUncreatableTypeIN10QtMobility27QDeclarativeDocumentGalleryEEiPKciiS3_RK7QString)
    .ARM.exidx                               0x00015214   Section        8  ucppinit_aeabi.o(.ARM.exidx)
    .data$0                                  0x00400000   Data           0  declarative_gallery.in(.data)
    _ZGVcleanup@_ZN10QtMobility37qt_declarativeDocumentGalleryInstanceEv_0 0x00400000   Data           4  declarative_gallery.in(.data)
    .data                                    0x00400000   Section       16  declarative_gallery.in(.data)
    cleanup@_ZN10QtMobility37qt_declarativeDocumentGalleryInstanceEv_1 0x00400004   Data           4  declarative_gallery.in(.data)
    QtMobility::this_qt_declarativeDocumentGalleryInstance 0x00400008   Data           8  declarative_gallery.in(.data)
    .data$0                                  0x00400010   Data           0  declarative_gallery.in(.data)
    _ZGV_instance@qt_plugin_instance_0       0x00400010   Data           4  declarative_gallery.in(.data)
    .data                                    0x00400010   Section        8  declarative_gallery.in(.data)
    _instance@qt_plugin_instance_1           0x00400014   Data           4  declarative_gallery.in(.data)
    .data$0                                  0x00400018   Data           0  ucppfini.o(.data)
    .data                                    0x00400018   Section        4  ucppfini.o(.data)
    .data__ZZN11QMetaTypeIdI24QDeclarativeListPropertyIN10QtMobility29QDeclarativeGalleryFilterBaseEEE14qt_metatype_idEvE11metatype_id 0x0040001c   Section        4  declarative_gallery.in(.data__ZZN11QMetaTypeIdI24QDeclarativeListPropertyIN10QtMobility29QDeclarativeGalleryFilterBaseEEE14qt_metatype_idEvE11metatype_id)
    .data__ZZN11QMetaTypeIdI24QDeclarativeListPropertyIN10QtMobility30QDeclarativeGalleryFilterUnionEEE14qt_metatype_idEvE11metatype_id 0x00400020   Section        4  declarative_gallery.in(.data__ZZN11QMetaTypeIdI24QDeclarativeListPropertyIN10QtMobility30QDeclarativeGalleryFilterUnionEEE14qt_metatype_idEvE11metatype_id)
    .data__ZZN11QMetaTypeIdI24QDeclarativeListPropertyIN10QtMobility31QDeclarativeDocumentGalleryItemEEE14qt_metatype_idEvE11metatype_id 0x00400024   Section        4  declarative_gallery.in(.data__ZZN11QMetaTypeIdI24QDeclarativeListPropertyIN10QtMobility31QDeclarativeDocumentGalleryItemEEE14qt_metatype_idEvE11metatype_id)
    .data__ZZN11QMetaTypeIdI24QDeclarativeListPropertyIN10QtMobility31QDeclarativeDocumentGalleryTypeEEE14qt_metatype_idEvE11metatype_id 0x00400028   Section        4  declarative_gallery.in(.data__ZZN11QMetaTypeIdI24QDeclarativeListPropertyIN10QtMobility31QDeclarativeDocumentGalleryTypeEEE14qt_metatype_idEvE11metatype_id)
    .data__ZZN11QMetaTypeIdI24QDeclarativeListPropertyIN10QtMobility31QDeclarativeGalleryEqualsFilterEEE14qt_metatype_idEvE11metatype_id 0x0040002c   Section        4  declarative_gallery.in(.data__ZZN11QMetaTypeIdI24QDeclarativeListPropertyIN10QtMobility31QDeclarativeGalleryEqualsFilterEEE14qt_metatype_idEvE11metatype_id)
    .data__ZZN11QMetaTypeIdI24QDeclarativeListPropertyIN10QtMobility32QDeclarativeDocumentGalleryModelEEE14qt_metatype_idEvE11metatype_id 0x00400030   Section        4  declarative_gallery.in(.data__ZZN11QMetaTypeIdI24QDeclarativeListPropertyIN10QtMobility32QDeclarativeDocumentGalleryModelEEE14qt_metatype_idEvE11metatype_id)
    .data__ZZN11QMetaTypeIdI24QDeclarativeListPropertyIN10QtMobility33QDeclarativeGalleryContainsFilterEEE14qt_metatype_idEvE11metatype_id 0x00400034   Section        4  declarative_gallery.in(.data__ZZN11QMetaTypeIdI24QDeclarativeListPropertyIN10QtMobility33QDeclarativeGalleryContainsFilterEEE14qt_metatype_idEvE11metatype_id)
    .data__ZZN11QMetaTypeIdI24QDeclarativeListPropertyIN10QtMobility33QDeclarativeGalleryEndsWithFilterEEE14qt_metatype_idEvE11metatype_id 0x00400038   Section        4  declarative_gallery.in(.data__ZZN11QMetaTypeIdI24QDeclarativeListPropertyIN10QtMobility33QDeclarativeGalleryEndsWithFilterEEE14qt_metatype_idEvE11metatype_id)
    .data__ZZN11QMetaTypeIdI24QDeclarativeListPropertyIN10QtMobility33QDeclarativeGalleryLessThanFilterEEE14qt_metatype_idEvE11metatype_id 0x0040003c   Section        4  declarative_gallery.in(.data__ZZN11QMetaTypeIdI24QDeclarativeListPropertyIN10QtMobility33QDeclarativeGalleryLessThanFilterEEE14qt_metatype_idEvE11metatype_id)
    .data__ZZN11QMetaTypeIdI24QDeclarativeListPropertyIN10QtMobility33QDeclarativeGalleryWildcardFilterEEE14qt_metatype_idEvE11metatype_id 0x00400040   Section        4  declarative_gallery.in(.data__ZZN11QMetaTypeIdI24QDeclarativeListPropertyIN10QtMobility33QDeclarativeGalleryWildcardFilterEEE14qt_metatype_idEvE11metatype_id)
    .data__ZZN11QMetaTypeIdI24QDeclarativeListPropertyIN10QtMobility35QDeclarativeGalleryStartsWithFilterEEE14qt_metatype_idEvE11metatype_id 0x00400044   Section        4  declarative_gallery.in(.data__ZZN11QMetaTypeIdI24QDeclarativeListPropertyIN10QtMobility35QDeclarativeGalleryStartsWithFilterEEE14qt_metatype_idEvE11metatype_id)
    .data__ZZN11QMetaTypeIdI24QDeclarativeListPropertyIN10QtMobility36QDeclarativeGalleryGreaterThanFilterEEE14qt_metatype_idEvE11metatype_id 0x00400048   Section        4  declarative_gallery.in(.data__ZZN11QMetaTypeIdI24QDeclarativeListPropertyIN10QtMobility36QDeclarativeGalleryGreaterThanFilterEEE14qt_metatype_idEvE11metatype_id)
    .data__ZZN11QMetaTypeIdI24QDeclarativeListPropertyIN10QtMobility37QDeclarativeGalleryFilterIntersectionEEE14qt_metatype_idEvE11metatype_id 0x0040004c   Section        4  declarative_gallery.in(.data__ZZN11QMetaTypeIdI24QDeclarativeListPropertyIN10QtMobility37QDeclarativeGalleryFilterIntersectionEEE14qt_metatype_idEvE11metatype_id)
    .data__ZZN11QMetaTypeIdI24QDeclarativeListPropertyIN10QtMobility39QDeclarativeGalleryLessThanEqualsFilterEEE14qt_metatype_idEvE11metatype_id 0x00400050   Section        4  declarative_gallery.in(.data__ZZN11QMetaTypeIdI24QDeclarativeListPropertyIN10QtMobility39QDeclarativeGalleryLessThanEqualsFilterEEE14qt_metatype_idEvE11metatype_id)
    .data__ZZN11QMetaTypeIdI24QDeclarativeListPropertyIN10QtMobility42QDeclarativeGalleryGreaterThanEqualsFilterEEE14qt_metatype_idEvE11metatype_id 0x00400054   Section        4  declarative_gallery.in(.data__ZZN11QMetaTypeIdI24QDeclarativeListPropertyIN10QtMobility42QDeclarativeGalleryGreaterThanEqualsFilterEEE14qt_metatype_idEvE11metatype_id)
    .data__ZZN11QMetaTypeIdIN10QtMobility27QDeclarativeDocumentGallery8ItemTypeEE14qt_metatype_idEvE11metatype_id 0x00400058   Section        4  declarative_gallery.in(.data__ZZN11QMetaTypeIdIN10QtMobility27QDeclarativeDocumentGallery8ItemTypeEE14qt_metatype_idEvE11metatype_id)
    .data__ZZN11QMetaTypeIdIPN10QtMobility29QDeclarativeGalleryFilterBaseEE14qt_metatype_idEvE11metatype_id 0x0040005c   Section        4  declarative_gallery.in(.data__ZZN11QMetaTypeIdIPN10QtMobility29QDeclarativeGalleryFilterBaseEE14qt_metatype_idEvE11metatype_id)
    .data__ZZN11QMetaTypeIdIPN10QtMobility30QDeclarativeGalleryFilterUnionEE14qt_metatype_idEvE11metatype_id 0x00400060   Section        4  declarative_gallery.in(.data__ZZN11QMetaTypeIdIPN10QtMobility30QDeclarativeGalleryFilterUnionEE14qt_metatype_idEvE11metatype_id)
    .data__ZZN11QMetaTypeIdIPN10QtMobility31QDeclarativeDocumentGalleryItemEE14qt_metatype_idEvE11metatype_id 0x00400064   Section        4  declarative_gallery.in(.data__ZZN11QMetaTypeIdIPN10QtMobility31QDeclarativeDocumentGalleryItemEE14qt_metatype_idEvE11metatype_id)
    .data__ZZN11QMetaTypeIdIPN10QtMobility31QDeclarativeDocumentGalleryTypeEE14qt_metatype_idEvE11metatype_id 0x00400068   Section        4  declarative_gallery.in(.data__ZZN11QMetaTypeIdIPN10QtMobility31QDeclarativeDocumentGalleryTypeEE14qt_metatype_idEvE11metatype_id)
    .data__ZZN11QMetaTypeIdIPN10QtMobility31QDeclarativeGalleryEqualsFilterEE14qt_metatype_idEvE11metatype_id 0x0040006c   Section        4  declarative_gallery.in(.data__ZZN11QMetaTypeIdIPN10QtMobility31QDeclarativeGalleryEqualsFilterEE14qt_metatype_idEvE11metatype_id)
    .data__ZZN11QMetaTypeIdIPN10QtMobility32QDeclarativeDocumentGalleryModelEE14qt_metatype_idEvE11metatype_id 0x00400070   Section        4  declarative_gallery.in(.data__ZZN11QMetaTypeIdIPN10QtMobility32QDeclarativeDocumentGalleryModelEE14qt_metatype_idEvE11metatype_id)
    .data__ZZN11QMetaTypeIdIPN10QtMobility33QDeclarativeGalleryContainsFilterEE14qt_metatype_idEvE11metatype_id 0x00400074   Section        4  declarative_gallery.in(.data__ZZN11QMetaTypeIdIPN10QtMobility33QDeclarativeGalleryContainsFilterEE14qt_metatype_idEvE11metatype_id)
    .data__ZZN11QMetaTypeIdIPN10QtMobility33QDeclarativeGalleryEndsWithFilterEE14qt_metatype_idEvE11metatype_id 0x00400078   Section        4  declarative_gallery.in(.data__ZZN11QMetaTypeIdIPN10QtMobility33QDeclarativeGalleryEndsWithFilterEE14qt_metatype_idEvE11metatype_id)
    .data__ZZN11QMetaTypeIdIPN10QtMobility33QDeclarativeGalleryLessThanFilterEE14qt_metatype_idEvE11metatype_id 0x0040007c   Section        4  declarative_gallery.in(.data__ZZN11QMetaTypeIdIPN10QtMobility33QDeclarativeGalleryLessThanFilterEE14qt_metatype_idEvE11metatype_id)
    .data__ZZN11QMetaTypeIdIPN10QtMobility33QDeclarativeGalleryWildcardFilterEE14qt_metatype_idEvE11metatype_id 0x00400080   Section        4  declarative_gallery.in(.data__ZZN11QMetaTypeIdIPN10QtMobility33QDeclarativeGalleryWildcardFilterEE14qt_metatype_idEvE11metatype_id)
    .data__ZZN11QMetaTypeIdIPN10QtMobility35QDeclarativeGalleryStartsWithFilterEE14qt_metatype_idEvE11metatype_id 0x00400084   Section        4  declarative_gallery.in(.data__ZZN11QMetaTypeIdIPN10QtMobility35QDeclarativeGalleryStartsWithFilterEE14qt_metatype_idEvE11metatype_id)
    .data__ZZN11QMetaTypeIdIPN10QtMobility36QDeclarativeGalleryGreaterThanFilterEE14qt_metatype_idEvE11metatype_id 0x00400088   Section        4  declarative_gallery.in(.data__ZZN11QMetaTypeIdIPN10QtMobility36QDeclarativeGalleryGreaterThanFilterEE14qt_metatype_idEvE11metatype_id)
    .data__ZZN11QMetaTypeIdIPN10QtMobility37QDeclarativeGalleryFilterIntersectionEE14qt_metatype_idEvE11metatype_id 0x0040008c   Section        4  declarative_gallery.in(.data__ZZN11QMetaTypeIdIPN10QtMobility37QDeclarativeGalleryFilterIntersectionEE14qt_metatype_idEvE11metatype_id)
    .data__ZZN11QMetaTypeIdIPN10QtMobility39QDeclarativeGalleryLessThanEqualsFilterEE14qt_metatype_idEvE11metatype_id 0x00400090   Section        4  declarative_gallery.in(.data__ZZN11QMetaTypeIdIPN10QtMobility39QDeclarativeGalleryLessThanEqualsFilterEE14qt_metatype_idEvE11metatype_id)
    .data__ZZN11QMetaTypeIdIPN10QtMobility42QDeclarativeGalleryGreaterThanEqualsFilterEE14qt_metatype_idEvE11metatype_id 0x00400094   Section        4  declarative_gallery.in(.data__ZZN11QMetaTypeIdIPN10QtMobility42QDeclarativeGalleryGreaterThanEqualsFilterEE14qt_metatype_idEvE11metatype_id)
    .bss$5                                   0x00400098   Data           0  ucppfini.o(.bss)
    dtor_rec                                 0x00400098   Data        2048  ucppfini.o(.bss)
    .bss                                     0x00400098   Section     2048  ucppfini.o(.bss)

    Global Symbols

    Symbol Name                              Value     Ov Type        Size  Object(Section)

    BuildAttributes$$THUMB_ISAv2$ARM_ISAv5$M$PE$A:L22$X:L11$S22$IEEE1$IW$USESV6$~STKCKD$USESV7$~SHL$OSPACE$IEEEJ$EBA8$UX$REQ8$PRES8$EABIv2 0x00000000   Number         0  anon$$obj.o ABSOLUTE
    #<DLL>QtCore{00040703}[2001b2dc].dll#<\DLL>112  - Undefined Reference
    #<DLL>QtCore{00040703}[2001b2dc].dll#<\DLL>113  - Undefined Reference
    #<DLL>QtCore{00040703}[2001b2dc].dll#<\DLL>11a  - Undefined Reference
    #<DLL>QtCore{00040703}[2001b2dc].dll#<\DLL>14b  - Undefined Reference
    #<DLL>QtCore{00040703}[2001b2dc].dll#<\DLL>14c  - Undefined Reference
    #<DLL>QtCore{00040703}[2001b2dc].dll#<\DLL>188  - Undefined Reference
    #<DLL>QtCore{00040703}[2001b2dc].dll#<\DLL>2e5  - Undefined Reference
    #<DLL>QtCore{00040703}[2001b2dc].dll#<\DLL>31a  - Undefined Reference
    #<DLL>QtCore{00040703}[2001b2dc].dll#<\DLL>38  - Undefined Reference
    #<DLL>QtCore{00040703}[2001b2dc].dll#<\DLL>3dc  - Undefined Reference
    #<DLL>QtCore{00040703}[2001b2dc].dll#<\DLL>3de  - Undefined Reference
    #<DLL>QtCore{00040703}[2001b2dc].dll#<\DLL>3df  - Undefined Reference
    #<DLL>QtCore{00040703}[2001b2dc].dll#<\DLL>3e0  - Undefined Reference
    #<DLL>QtCore{00040703}[2001b2dc].dll#<\DLL>3e4  - Undefined Reference
    #<DLL>QtCore{00040703}[2001b2dc].dll#<\DLL>3e8  - Undefined Reference
    #<DLL>QtCore{00040703}[2001b2dc].dll#<\DLL>3e9  - Undefined Reference
    #<DLL>QtCore{00040703}[2001b2dc].dll#<\DLL>3ea  - Undefined Reference
    #<DLL>QtCore{00040703}[2001b2dc].dll#<\DLL>3eb  - Undefined Reference
    #<DLL>QtCore{00040703}[2001b2dc].dll#<\DLL>3ed  - Undefined Reference
    #<DLL>QtCore{00040703}[2001b2dc].dll#<\DLL>3ef  - Undefined Reference
    #<DLL>QtCore{00040703}[2001b2dc].dll#<\DLL>3f0  - Undefined Reference
    #<DLL>QtCore{00040703}[2001b2dc].dll#<\DLL>3f3  - Undefined Reference
    #<DLL>QtCore{00040703}[2001b2dc].dll#<\DLL>3f4  - Undefined Reference
    #<DLL>QtCore{00040703}[2001b2dc].dll#<\DLL>40a  - Undefined Reference
    #<DLL>QtCore{00040703}[2001b2dc].dll#<\DLL>40c  - Undefined Reference
    #<DLL>QtCore{00040703}[2001b2dc].dll#<\DLL>40d  - Undefined Reference
    #<DLL>QtCore{00040703}[2001b2dc].dll#<\DLL>40f  - Undefined Reference
    #<DLL>QtCore{00040703}[2001b2dc].dll#<\DLL>416  - Undefined Reference
    #<DLL>QtCore{00040703}[2001b2dc].dll#<\DLL>417  - Undefined Reference
    #<DLL>QtCore{00040703}[2001b2dc].dll#<\DLL>418  - Undefined Reference
    #<DLL>QtCore{00040703}[2001b2dc].dll#<\DLL>41b  - Undefined Reference
    #<DLL>QtCore{00040703}[2001b2dc].dll#<\DLL>41f  - Undefined Reference
    #<DLL>QtCore{00040703}[2001b2dc].dll#<\DLL>46  - Undefined Reference
    #<DLL>QtCore{00040703}[2001b2dc].dll#<\DLL>5fb  - Undefined Reference
    #<DLL>QtCore{00040703}[2001b2dc].dll#<\DLL>5fe  - Undefined Reference
    #<DLL>QtCore{00040703}[2001b2dc].dll#<\DLL>675  - Undefined Reference
    #<DLL>QtCore{00040703}[2001b2dc].dll#<\DLL>6d  - Undefined Reference
    #<DLL>QtCore{00040703}[2001b2dc].dll#<\DLL>6e0  - Undefined Reference
    #<DLL>QtCore{00040703}[2001b2dc].dll#<\DLL>6e1  - Undefined Reference
    #<DLL>QtCore{00040703}[2001b2dc].dll#<\DLL>6e3  - Undefined Reference
    #<DLL>QtCore{00040703}[2001b2dc].dll#<\DLL>6e4  - Undefined Reference
    #<DLL>QtCore{00040703}[2001b2dc].dll#<\DLL>6e6  - Undefined Reference
    #<DLL>QtCore{00040703}[2001b2dc].dll#<\DLL>6e7  - Undefined Reference
    #<DLL>QtCore{00040703}[2001b2dc].dll#<\DLL>6e8  - Undefined Reference
    #<DLL>QtCore{00040703}[2001b2dc].dll#<\DLL>6ed  - Undefined Reference
    #<DLL>QtCore{00040703}[2001b2dc].dll#<\DLL>6f1  - Undefined Reference
    #<DLL>QtCore{00040703}[2001b2dc].dll#<\DLL>6f8  - Undefined Reference
    #<DLL>QtCore{00040703}[2001b2dc].dll#<\DLL>6f9  - Undefined Reference
    #<DLL>QtCore{00040703}[2001b2dc].dll#<\DLL>6fd  - Undefined Reference
    #<DLL>QtCore{00040703}[2001b2dc].dll#<\DLL>702  - Undefined Reference
    #<DLL>QtCore{00040703}[2001b2dc].dll#<\DLL>716  - Undefined Reference
    #<DLL>QtCore{00040703}[2001b2dc].dll#<\DLL>722  - Undefined Reference
    #<DLL>QtCore{00040703}[2001b2dc].dll#<\DLL>726  - Undefined Reference
    #<DLL>QtCore{00040703}[2001b2dc].dll#<\DLL>752  - Undefined Reference
    #<DLL>QtCore{00040703}[2001b2dc].dll#<\DLL>75d  - Undefined Reference
    #<DLL>QtCore{00040703}[2001b2dc].dll#<\DLL>7db  - Undefined Reference
    #<DLL>QtCore{00040703}[2001b2dc].dll#<\DLL>7e  - Undefined Reference
    #<DLL>QtCore{00040703}[2001b2dc].dll#<\DLL>7f2  - Undefined Reference
    #<DLL>QtCore{00040703}[2001b2dc].dll#<\DLL>7f5  - Undefined Reference
    #<DLL>QtCore{00040703}[2001b2dc].dll#<\DLL>7fa  - Undefined Reference
    #<DLL>QtCore{00040703}[2001b2dc].dll#<\DLL>80  - Undefined Reference
    #<DLL>QtCore{00040703}[2001b2dc].dll#<\DLL>81  - Undefined Reference
    #<DLL>QtCore{00040703}[2001b2dc].dll#<\DLL>822  - Undefined Reference
    #<DLL>QtCore{00040703}[2001b2dc].dll#<\DLL>824  - Undefined Reference
    #<DLL>QtCore{00040703}[2001b2dc].dll#<\DLL>856  - Undefined Reference
    #<DLL>QtCore{00040703}[2001b2dc].dll#<\DLL>85d  - Undefined Reference
    #<DLL>QtCore{00040703}[2001b2dc].dll#<\DLL>85f  - Undefined Reference
    #<DLL>QtCore{00040703}[2001b2dc].dll#<\DLL>88c  - Undefined Reference
    #<DLL>QtCore{00040703}[2001b2dc].dll#<\DLL>897  - Undefined Reference
    #<DLL>QtCore{00040703}[2001b2dc].dll#<\DLL>95b  - Undefined Reference
    #<DLL>QtCore{00040703}[2001b2dc].dll#<\DLL>970  - Undefined Reference
    #<DLL>QtCore{00040703}[2001b2dc].dll#<\DLL>9f  - Undefined Reference
    #<DLL>QtCore{00040703}[2001b2dc].dll#<\DLL>a70  - Undefined Reference
    #<DLL>QtCore{00040703}[2001b2dc].dll#<\DLL>a73  - Undefined Reference
    #<DLL>QtCore{00040703}[2001b2dc].dll#<\DLL>a76  - Undefined Reference
    #<DLL>QtCore{00040703}[2001b2dc].dll#<\DLL>a77  - Undefined Reference
    #<DLL>QtCore{00040703}[2001b2dc].dll#<\DLL>a78  - Undefined Reference
    #<DLL>QtCore{00040703}[2001b2dc].dll#<\DLL>a79  - Undefined Reference
    #<DLL>QtCore{00040703}[2001b2dc].dll#<\DLL>a7a  - Undefined Reference
    #<DLL>QtCore{00040703}[2001b2dc].dll#<\DLL>a7c  - Undefined Reference
    #<DLL>QtCore{00040703}[2001b2dc].dll#<\DLL>a7d  - Undefined Reference
    #<DLL>QtCore{00040703}[2001b2dc].dll#<\DLL>a7e  - Undefined Reference
    #<DLL>QtCore{00040703}[2001b2dc].dll#<\DLL>a8  - Undefined Reference
    #<DLL>QtCore{00040703}[2001b2dc].dll#<\DLL>a81  - Undefined Reference
    #<DLL>QtCore{00040703}[2001b2dc].dll#<\DLL>a82  - Undefined Reference
    #<DLL>QtCore{00040703}[2001b2dc].dll#<\DLL>a84  - Undefined Reference
    #<DLL>QtCore{00040703}[2001b2dc].dll#<\DLL>be0  - Undefined Reference
    #<DLL>QtCore{00040703}[2001b2dc].dll#<\DLL>be9  - Undefined Reference
    #<DLL>QtCore{00040703}[2001b2dc].dll#<\DLL>c17  - Undefined Reference
    #<DLL>QtCore{00040703}[2001b2dc].dll#<\DLL>c19  - Undefined Reference
    #<DLL>QtCore{00040703}[2001b2dc].dll#<\DLL>c1a  - Undefined Reference
    #<DLL>QtCore{00040703}[2001b2dc].dll#<\DLL>c40  - Undefined Reference
    #<DLL>QtCore{00040703}[2001b2dc].dll#<\DLL>c42  - Undefined Reference
    #<DLL>QtCore{00040703}[2001b2dc].dll#<\DLL>c46  - Undefined Reference
    #<DLL>QtCore{00040703}[2001b2dc].dll#<\DLL>c5b  - Undefined Reference
    #<DLL>QtCore{00040703}[2001b2dc].dll#<\DLL>c5d  - Undefined Reference
    #<DLL>QtCore{00040703}[2001b2dc].dll#<\DLL>c5e  - Undefined Reference
    #<DLL>QtCore{00040703}[2001b2dc].dll#<\DLL>ca8  - Undefined Reference
    #<DLL>QtCore{00040703}[2001b2dc].dll#<\DLL>ca9  - Undefined Reference
    #<DLL>QtCore{00040703}[2001b2dc].dll#<\DLL>e00  - Undefined Reference
    #<DLL>QtCore{00040703}[2001b2dc].dll#<\DLL>e01  - Undefined Reference
    #<DLL>QtCore{00040703}[2001b2dc].dll#<\DLL>e19  - Undefined Reference
    #<DLL>QtCore{00040703}[2001b2dc].dll#<\DLL>e1a  - Undefined Reference
    #<DLL>QtCore{00040703}[2001b2dc].dll#<\DLL>e69  - Undefined Reference
    #<DLL>QtCore{00040703}[2001b2dc].dll#<\DLL>e6b  - Undefined Reference
    #<DLL>QtCore{00040703}[2001b2dc].dll#<\DLL>e6c  - Undefined Reference
    #<DLL>QtDeclarative{00040703}[2001e623].dll#<\DLL>191  - Undefined Reference
    #<DLL>QtDeclarative{00040703}[2001e623].dll#<\DLL>192  - Undefined Reference
    #<DLL>QtDeclarative{00040703}[2001e623].dll#<\DLL>2b  - Undefined Reference
    #<DLL>QtDeclarative{00040703}[2001e623].dll#<\DLL>2ef  - Undefined Reference
    #<DLL>QtDeclarative{00040703}[2001e623].dll#<\DLL>2f0  - Undefined Reference
    #<DLL>QtDeclarative{00040703}[2001e623].dll#<\DLL>2f1  - Undefined Reference
    #<DLL>QtDeclarative{00040703}[2001e623].dll#<\DLL>310  - Undefined Reference
    #<DLL>QtDeclarative{00040703}[2001e623].dll#<\DLL>313  - Undefined Reference
    #<DLL>QtDeclarative{00040703}[2001e623].dll#<\DLL>369  - Undefined Reference
    #<DLL>QtDeclarative{00040703}[2001e623].dll#<\DLL>36a  - Undefined Reference
    #<DLL>QtDeclarative{00040703}[2001e623].dll#<\DLL>36b  - Undefined Reference
    #<DLL>QtDeclarative{00040703}[2001e623].dll#<\DLL>36e  - Undefined Reference
    #<DLL>QtDeclarative{00040703}[2001e623].dll#<\DLL>371  - Undefined Reference
    #<DLL>QtDeclarative{00040703}[2001e623].dll#<\DLL>5  - Undefined Reference
    #<DLL>QtDeclarative{00040703}[2001e623].dll#<\DLL>67e  - Undefined Reference
    #<DLL>QtGallery{00010103}[2002bfcb].dll#<\DLL>1  - Undefined Reference
    #<DLL>QtGallery{00010103}[2002bfcb].dll#<\DLL>103  - Undefined Reference
    #<DLL>QtGallery{00010103}[2002bfcb].dll#<\DLL>107  - Undefined Reference
    #<DLL>QtGallery{00010103}[2002bfcb].dll#<\DLL>10d  - Undefined Reference
    #<DLL>QtGallery{00010103}[2002bfcb].dll#<\DLL>114  - Undefined Reference
    #<DLL>QtGallery{00010103}[2002bfcb].dll#<\DLL>115  - Undefined Reference
    #<DLL>QtGallery{00010103}[2002bfcb].dll#<\DLL>116  - Undefined Reference
    #<DLL>QtGallery{00010103}[2002bfcb].dll#<\DLL>117  - Undefined Reference
    #<DLL>QtGallery{00010103}[2002bfcb].dll#<\DLL>118  - Undefined Reference
    #<DLL>QtGallery{00010103}[2002bfcb].dll#<\DLL>11d  - Undefined Reference
    #<DLL>QtGallery{00010103}[2002bfcb].dll#<\DLL>11f  - Undefined Reference
    #<DLL>QtGallery{00010103}[2002bfcb].dll#<\DLL>120  - Undefined Reference
    #<DLL>QtGallery{00010103}[2002bfcb].dll#<\DLL>121  - Undefined Reference
    #<DLL>QtGallery{00010103}[2002bfcb].dll#<\DLL>122  - Undefined Reference
    #<DLL>QtGallery{00010103}[2002bfcb].dll#<\DLL>124  - Undefined Reference
    #<DLL>QtGallery{00010103}[2002bfcb].dll#<\DLL>125  - Undefined Reference
    #<DLL>QtGallery{00010103}[2002bfcb].dll#<\DLL>129  - Undefined Reference
    #<DLL>QtGallery{00010103}[2002bfcb].dll#<\DLL>12c  - Undefined Reference
    #<DLL>QtGallery{00010103}[2002bfcb].dll#<\DLL>137  - Undefined Reference
    #<DLL>QtGallery{00010103}[2002bfcb].dll#<\DLL>139  - Undefined Reference
    #<DLL>QtGallery{00010103}[2002bfcb].dll#<\DLL>13a  - Undefined Reference
    #<DLL>QtGallery{00010103}[2002bfcb].dll#<\DLL>15a  - Undefined Reference
    #<DLL>QtGallery{00010103}[2002bfcb].dll#<\DLL>15b  - Undefined Reference
    #<DLL>QtGallery{00010103}[2002bfcb].dll#<\DLL>15c  - Undefined Reference
    #<DLL>QtGallery{00010103}[2002bfcb].dll#<\DLL>169  - Undefined Reference
    #<DLL>QtGallery{00010103}[2002bfcb].dll#<\DLL>16e  - Undefined Reference
    #<DLL>QtGallery{00010103}[2002bfcb].dll#<\DLL>177  - Undefined Reference
    #<DLL>QtGallery{00010103}[2002bfcb].dll#<\DLL>178  - Undefined Reference
    #<DLL>QtGallery{00010103}[2002bfcb].dll#<\DLL>179  - Undefined Reference
    #<DLL>QtGallery{00010103}[2002bfcb].dll#<\DLL>17a  - Undefined Reference
    #<DLL>QtGallery{00010103}[2002bfcb].dll#<\DLL>1a1  - Undefined Reference
    #<DLL>QtGallery{00010103}[2002bfcb].dll#<\DLL>1a3  - Undefined Reference
    #<DLL>QtGallery{00010103}[2002bfcb].dll#<\DLL>1a4  - Undefined Reference
    #<DLL>QtGallery{00010103}[2002bfcb].dll#<\DLL>1a5  - Undefined Reference
    #<DLL>QtGallery{00010103}[2002bfcb].dll#<\DLL>1a7  - Undefined Reference
    #<DLL>QtGallery{00010103}[2002bfcb].dll#<\DLL>1a8  - Undefined Reference
    #<DLL>QtGallery{00010103}[2002bfcb].dll#<\DLL>1a9  - Undefined Reference
    #<DLL>QtGallery{00010103}[2002bfcb].dll#<\DLL>1aa  - Undefined Reference
    #<DLL>QtGallery{00010103}[2002bfcb].dll#<\DLL>1ac  - Undefined Reference
    #<DLL>QtGallery{00010103}[2002bfcb].dll#<\DLL>1af  - Undefined Reference
    #<DLL>QtGallery{00010103}[2002bfcb].dll#<\DLL>1b1  - Undefined Reference
    #<DLL>QtGallery{00010103}[2002bfcb].dll#<\DLL>1b2  - Undefined Reference
    #<DLL>QtGallery{00010103}[2002bfcb].dll#<\DLL>1b3  - Undefined Reference
    #<DLL>QtGallery{00010103}[2002bfcb].dll#<\DLL>1b5  - Undefined Reference
    #<DLL>QtGallery{00010103}[2002bfcb].dll#<\DLL>1b6  - Undefined Reference
    #<DLL>QtGallery{00010103}[2002bfcb].dll#<\DLL>1b8  - Undefined Reference
    #<DLL>QtGallery{00010103}[2002bfcb].dll#<\DLL>1be  - Undefined Reference
    #<DLL>QtGallery{00010103}[2002bfcb].dll#<\DLL>1c3  - Undefined Reference
    #<DLL>QtGallery{00010103}[2002bfcb].dll#<\DLL>1c4  - Undefined Reference
    #<DLL>QtGallery{00010103}[2002bfcb].dll#<\DLL>1c6  - Undefined Reference
    #<DLL>QtGallery{00010103}[2002bfcb].dll#<\DLL>1c7  - Undefined Reference
    #<DLL>QtGallery{00010103}[2002bfcb].dll#<\DLL>1ca  - Undefined Reference
    #<DLL>QtGallery{00010103}[2002bfcb].dll#<\DLL>1d0  - Undefined Reference
    #<DLL>QtGallery{00010103}[2002bfcb].dll#<\DLL>1d1  - Undefined Reference
    #<DLL>QtGallery{00010103}[2002bfcb].dll#<\DLL>1d6  - Undefined Reference
    #<DLL>QtGallery{00010103}[2002bfcb].dll#<\DLL>1d7  - Undefined Reference
    #<DLL>QtGallery{00010103}[2002bfcb].dll#<\DLL>1d9  - Undefined Reference
    #<DLL>QtGallery{00010103}[2002bfcb].dll#<\DLL>1dc  - Undefined Reference
    #<DLL>QtGallery{00010103}[2002bfcb].dll#<\DLL>1de  - Undefined Reference
    #<DLL>QtGallery{00010103}[2002bfcb].dll#<\DLL>1df  - Undefined Reference
    #<DLL>QtGallery{00010103}[2002bfcb].dll#<\DLL>1e1  - Undefined Reference
    #<DLL>QtGallery{00010103}[2002bfcb].dll#<\DLL>1e2  - Undefined Reference
    #<DLL>QtGallery{00010103}[2002bfcb].dll#<\DLL>2  - Undefined Reference
    #<DLL>QtGallery{00010103}[2002bfcb].dll#<\DLL>3  - Undefined Reference
    #<DLL>QtGallery{00010103}[2002bfcb].dll#<\DLL>5  - Undefined Reference
    #<DLL>QtGallery{00010103}[2002bfcb].dll#<\DLL>63  - Undefined Reference
    #<DLL>QtGallery{00010103}[2002bfcb].dll#<\DLL>b  - Undefined Reference
    #<DLL>QtGallery{00010103}[2002bfcb].dll#<\DLL>b6  - Undefined Reference
    #<DLL>QtGallery{00010103}[2002bfcb].dll#<\DLL>ba  - Undefined Reference
    #<DLL>QtGallery{00010103}[2002bfcb].dll#<\DLL>bd  - Undefined Reference
    #<DLL>QtGallery{00010103}[2002bfcb].dll#<\DLL>c2  - Undefined Reference
    #<DLL>QtGallery{00010103}[2002bfcb].dll#<\DLL>c3  - Undefined Reference
    #<DLL>QtGallery{00010103}[2002bfcb].dll#<\DLL>c8  - Undefined Reference
    #<DLL>QtGallery{00010103}[2002bfcb].dll#<\DLL>cc  - Undefined Reference
    #<DLL>QtGallery{00010103}[2002bfcb].dll#<\DLL>cf  - Undefined Reference
    #<DLL>QtGallery{00010103}[2002bfcb].dll#<\DLL>d3  - Undefined Reference
    #<DLL>QtGallery{00010103}[2002bfcb].dll#<\DLL>d8  - Undefined Reference
    #<DLL>QtGallery{00010103}[2002bfcb].dll#<\DLL>dd  - Undefined Reference
    #<DLL>QtGallery{00010103}[2002bfcb].dll#<\DLL>e0  - Undefined Reference
    #<DLL>QtGallery{00010103}[2002bfcb].dll#<\DLL>e1  - Undefined Reference
    #<DLL>QtGallery{00010103}[2002bfcb].dll#<\DLL>e2  - Undefined Reference
    #<DLL>QtGallery{00010103}[2002bfcb].dll#<\DLL>ef  - Undefined Reference
    #<DLL>QtGallery{00010103}[2002bfcb].dll#<\DLL>f4  - Undefined Reference
    #<DLL>QtGallery{00010103}[2002bfcb].dll#<\DLL>fd  - Undefined Reference
    #<DLL>QtGallery{00010103}[2002bfcb].dll#<\DLL>fe  - Undefined Reference
    #<DLL>QtScript{00040703}[2001b2e1].dll#<\DLL>105  - Undefined Reference
    #<DLL>QtScript{00040703}[2001b2e1].dll#<\DLL>139  - Undefined Reference
    #<DLL>QtScript{00040703}[2001b2e1].dll#<\DLL>13b  - Undefined Reference
    #<DLL>QtScript{00040703}[2001b2e1].dll#<\DLL>13c  - Undefined Reference
    #<DLL>QtScript{00040703}[2001b2e1].dll#<\DLL>15  - Undefined Reference
    #<DLL>QtScript{00040703}[2001b2e1].dll#<\DLL>2b  - Undefined Reference
    #<DLL>QtScript{00040703}[2001b2e1].dll#<\DLL>30  - Undefined Reference
    #<DLL>QtScript{00040703}[2001b2e1].dll#<\DLL>43  - Undefined Reference
    #<DLL>QtScript{00040703}[2001b2e1].dll#<\DLL>45  - Undefined Reference
    #<DLL>QtScript{00040703}[2001b2e1].dll#<\DLL>49  - Undefined Reference
    #<DLL>QtScript{00040703}[2001b2e1].dll#<\DLL>55  - Undefined Reference
    #<DLL>QtScript{00040703}[2001b2e1].dll#<\DLL>62  - Undefined Reference
    #<DLL>QtScript{00040703}[2001b2e1].dll#<\DLL>6c  - Undefined Reference
    #<DLL>QtScript{00040703}[2001b2e1].dll#<\DLL>a6  - Undefined Reference
    #<DLL>QtScript{00040703}[2001b2e1].dll#<\DLL>ac  - Undefined Reference
    #<DLL>QtScript{00040703}[2001b2e1].dll#<\DLL>ae  - Undefined Reference
    #<DLL>QtScript{00040703}[2001b2e1].dll#<\DLL>e5  - Undefined Reference
    #<DLL>QtScript{00040703}[2001b2e1].dll#<\DLL>ed  - Undefined Reference
    #<DLL>QtScript{00040703}[2001b2e1].dll#<\DLL>ee  - Undefined Reference
    #<DLL>dfpaeabi{000a0000}.dll#<\DLL>24     - Undefined Reference
    #<DLL>dfpaeabi{000a0000}.dll#<\DLL>2a     - Undefined Reference
    #<DLL>drtaeabi{000a0000}.dll#<\DLL>93     - Undefined Reference
    #<DLL>drtaeabi{000a0000}.dll#<\DLL>9b     - Undefined Reference
    #<DLL>drtaeabi{000a0000}.dll#<\DLL>9e     - Undefined Reference
    #<DLL>drtaeabi{000a0000}.dll#<\DLL>b4     - Undefined Reference
    #<DLL>drtaeabi{000a0000}.dll#<\DLL>b7     - Undefined Reference
    #<DLL>drtaeabi{000a0000}.dll#<\DLL>b8     - Undefined Reference
    #<DLL>drtaeabi{000a0000}.dll#<\DLL>ba     - Undefined Reference
    #<DLL>drtaeabi{000a0000}.dll#<\DLL>bb     - Undefined Reference
    #<DLL>drtaeabi{000a0000}.dll#<\DLL>bc     - Undefined Reference
    #<DLL>drtaeabi{000a0000}.dll#<\DLL>bd     - Undefined Reference
    #<DLL>drtaeabi{000a0000}.dll#<\DLL>be     - Undefined Reference
    #<DLL>drtrvct2_2{000a0000}.dll#<\DLL>1c   - Undefined Reference
    #<DLL>euser{000a0000}[100039e5].dll#<\DLL>29e  - Undefined Reference
    #<DLL>euser{000a0000}[100039e5].dll#<\DLL>29f  - Undefined Reference
    #<DLL>libc{00010000}[10207369].dll#<\DLL>15e  - Undefined Reference
    #<DLL>libstdcpp{00010000}[10282872].dll#<\DLL>3dc  - Undefined Reference
    #<DLL>libstdcpp{00010000}[10282872].dll#<\DLL>3e0  - Undefined Reference
    SHT$$INIT_ARRAY$$Base                     - Undefined Weak Reference
    SHT$$INIT_ARRAY$$Limit                    - Undefined Weak Reference
    QtMobility::QDocumentGallery::File        - Undefined Reference
    QVectorData::shared_null                  - Undefined Reference
    QAbstractListModel::staticMetaObject      - Undefined Reference
    QDeclarativeExtensionPlugin::staticMetaObject  - Undefined Reference
    QObject::staticMetaObject                 - Undefined Reference
    QString::shared_null                      - Undefined Reference
    QHashData::shared_null                    - Undefined Reference
    QListData::shared_null                    - Undefined Reference
    typeinfo for QAbstractListModel           - Undefined Reference
    typeinfo for QDeclarativeParserStatus     - Undefined Reference
    typeinfo for QDeclarativeExtensionPlugin  - Undefined Reference
    typeinfo for QObject                      - Undefined Reference
    typeinfo for std::exception               - Undefined Reference
    vtable for __cxxabiv1::__si_class_type_info  - Undefined Reference
    vtable for __cxxabiv1::__vmi_class_type_info  - Undefined Reference
    _fp_init                                  - Undefined Weak Reference
    Image$$ER_RO$$Base                       0x00008000   Number         0  anon$$obj.o(linker$$defined$$symbols)
    _E32Dll                                  0x00008000   ARM Code      40  uc_dll_.o(.emb_text)
    Symbian$$CPP$$Exception$$Descriptor      0x00008014   Data           0  uc_dll_.o(.emb_text)
    __cpp_initialize__aeabi_                 0x00008028   ARM Code      72  ucppinit_aeabi.o(.emb_text)
    QtMobility::QDeclarativeDocumentGallery::getStaticMetaObject() 0x00008071   Thumb Code     4  declarative_gallery.in(.text)
    std::nothrow                             0x00008071   Thumb Code     0  ucppinit_aeabi.o(.emb_text)
    QtMobility::QDeclarativeDocumentGallery::metaObject() const 0x00008075   Thumb Code    12  declarative_gallery.in(.text)
    QtMobility::QDeclarativeDocumentGallery::qt_metacast(const char*) 0x00008081   Thumb Code    40  declarative_gallery.in(.text)
    QtMobility::QDeclarativeDocumentGallery::qt_metacall(QMetaObject::Call, int, void**) 0x000080a9   Thumb Code     8  declarative_gallery.in(.text)
    QtMobility::QDeclarativeDocumentGallery::toString(QtMobility::QDeclarativeDocumentGallery::ItemType) 0x000080b1   Thumb Code    94  declarative_gallery.in(.text)
    QtMobility::QDeclarativeDocumentGallery::itemTypeFromString(const QString&) 0x0000810f   Thumb Code    60  declarative_gallery.in(.text)
    QtMobility::QDeclarativeDocumentGallery::gallery(QObject*) 0x0000814b   Thumb Code     8  declarative_gallery.in(.text)
    qt_plugin_query_verification_data        0x000081dd   Thumb Code     4  declarative_gallery.in(.text)
    qt_plugin_instance                       0x000081e1   Thumb Code   110  declarative_gallery.in(.text)
    QtMobility::QGalleryDeclarativeModule::getStaticMetaObject() 0x0000824f   Thumb Code     6  declarative_gallery.in(.text)
    QtMobility::QGalleryDeclarativeModule::metaObject() const 0x00008255   Thumb Code    14  declarative_gallery.in(.text)
    QtMobility::QGalleryDeclarativeModule::qt_metacast(const char*) 0x00008263   Thumb Code    40  declarative_gallery.in(.text)
    QtMobility::QGalleryDeclarativeModule::qt_metacall(QMetaObject::Call, int, void**) 0x0000828b   Thumb Code     8  declarative_gallery.in(.text)
    QtMobility::QDeclarativeGalleryFilterBase::getStaticMetaObject() 0x000082a9   Thumb Code     4  declarative_gallery.in(.text)
    QtMobility::QDeclarativeGalleryFilterBase::metaObject() const 0x000082ad   Thumb Code    12  declarative_gallery.in(.text)
    QtMobility::QDeclarativeGalleryFilterBase::qt_metacast(const char*) 0x000082b9   Thumb Code    40  declarative_gallery.in(.text)
    QtMobility::QDeclarativeGalleryFilterBase::filterChanged() 0x000082e1   Thumb Code    14  declarative_gallery.in(.text)
    QtMobility::QDeclarativeGalleryFilterBase::qt_metacall(QMetaObject::Call, int, void**) 0x000082ef   Thumb Code    34  declarative_gallery.in(.text)
    QtMobility::QDeclarativeGalleryValueFilter::getStaticMetaObject() 0x00008311   Thumb Code     6  declarative_gallery.in(.text)
    QtMobility::QDeclarativeGalleryValueFilter::metaObject() const 0x00008317   Thumb Code    14  declarative_gallery.in(.text)
    QtMobility::QDeclarativeGalleryValueFilter::qt_metacast(const char*) 0x00008325   Thumb Code    38  declarative_gallery.in(.text)
    QtMobility::QDeclarativeGalleryValueFilter::negatedChanged() 0x0000834b   Thumb Code    16  declarative_gallery.in(.text)
    QtMobility::QDeclarativeGalleryValueFilter::setNegated(bool) 0x0000835b   Thumb Code    42  declarative_gallery.in(.text)
    QtMobility::QDeclarativeGalleryValueFilter::valueChanged() 0x00008385   Thumb Code    16  declarative_gallery.in(.text)
    QtMobility::QDeclarativeGalleryValueFilter::setValue(const QVariant&) 0x00008395   Thumb Code    68  declarative_gallery.in(.text)
    QtMobility::QDeclarativeGalleryValueFilter::propertyNameChanged() 0x000083d9   Thumb Code    16  declarative_gallery.in(.text)
    QtMobility::QDeclarativeGalleryValueFilter::setPropertyName(const QString&) 0x000083e9   Thumb Code    60  declarative_gallery.in(.text)
    QtMobility::QDeclarativeGalleryValueFilter::qt_metacall(QMetaObject::Call, int, void**) 0x00008425   Thumb Code   210  declarative_gallery.in(.text)
    QtMobility::QDeclarativeGalleryValueFilter::filter() const 0x000084f7   Thumb Code    10  declarative_gallery.in(.text)
    QtMobility::QDeclarativeGalleryStringFilter::getStaticMetaObject() 0x00008501   Thumb Code     6  declarative_gallery.in(.text)
    QtMobility::QDeclarativeGalleryStringFilter::metaObject() const 0x00008507   Thumb Code    14  declarative_gallery.in(.text)
    QtMobility::QDeclarativeGalleryStringFilter::qt_metacast(const char*) 0x00008515   Thumb Code    40  declarative_gallery.in(.text)
    QtMobility::QDeclarativeGalleryStringFilter::negatedChanged() 0x0000853d   Thumb Code    16  declarative_gallery.in(.text)
    QtMobility::QDeclarativeGalleryStringFilter::setNegated(bool) 0x0000854d   Thumb Code    42  declarative_gallery.in(.text)
    QtMobility::QDeclarativeGalleryStringFilter::valueChanged() 0x00008577   Thumb Code    16  declarative_gallery.in(.text)
    QtMobility::QDeclarativeGalleryStringFilter::setValue(const QString&) 0x00008587   Thumb Code    98  declarative_gallery.in(.text)
    QtMobility::QDeclarativeGalleryStringFilter::propertyNameChanged() 0x000085e9   Thumb Code    16  declarative_gallery.in(.text)
    QtMobility::QDeclarativeGalleryStringFilter::setPropertyName(const QString&) 0x000085f9   Thumb Code    60  declarative_gallery.in(.text)
    QtMobility::QDeclarativeGalleryStringFilter::qt_metacall(QMetaObject::Call, int, void**) 0x00008635   Thumb Code   226  declarative_gallery.in(.text)
    QtMobility::QDeclarativeGalleryStringFilter::filter() const 0x00008717   Thumb Code    10  declarative_gallery.in(.text)
    QtMobility::QDeclarativeGalleryEqualsFilter::getStaticMetaObject() 0x00008721   Thumb Code     4  declarative_gallery.in(.text)
    QtMobility::QDeclarativeGalleryEqualsFilter::metaObject() const 0x00008725   Thumb Code    12  declarative_gallery.in(.text)
    QtMobility::QDeclarativeGalleryEqualsFilter::qt_metacast(const char*) 0x00008731   Thumb Code    38  declarative_gallery.in(.text)
    QtMobility::QDeclarativeGalleryEqualsFilter::qt_metacall(QMetaObject::Call, int, void**) 0x00008757   Thumb Code     2  declarative_gallery.in(.text)
    QtMobility::QDeclarativeGalleryEqualsFilter::filter() const 0x00008759   Thumb Code    88  declarative_gallery.in(.text)
    QtMobility::QDeclarativeGalleryLessThanFilter::getStaticMetaObject() 0x000087b1   Thumb Code     6  declarative_gallery.in(.text)
    QtMobility::QDeclarativeGalleryLessThanFilter::metaObject() const 0x000087b7   Thumb Code    14  declarative_gallery.in(.text)
    QtMobility::QDeclarativeGalleryLessThanFilter::qt_metacast(const char*) 0x000087c5   Thumb Code    40  declarative_gallery.in(.text)
    QtMobility::QDeclarativeGalleryLessThanFilter::qt_metacall(QMetaObject::Call, int, void**) 0x000087ed   Thumb Code     8  declarative_gallery.in(.text)
    QtMobility::QDeclarativeGalleryLessThanEqualsFilter::getStaticMetaObject() 0x000087f5   Thumb Code     6  declarative_gallery.in(.text)
    QtMobility::QDeclarativeGalleryLessThanEqualsFilter::metaObject() const 0x000087fb   Thumb Code    14  declarative_gallery.in(.text)
    QtMobility::QDeclarativeGalleryLessThanEqualsFilter::qt_metacast(const char*) 0x00008809   Thumb Code    40  declarative_gallery.in(.text)
    QtMobility::QDeclarativeGalleryLessThanEqualsFilter::qt_metacall(QMetaObject::Call, int, void**) 0x00008831   Thumb Code     8  declarative_gallery.in(.text)
    QtMobility::QDeclarativeGalleryGreaterThanFilter::getStaticMetaObject() 0x00008839   Thumb Code     6  declarative_gallery.in(.text)
    QtMobility::QDeclarativeGalleryGreaterThanFilter::metaObject() const 0x0000883f   Thumb Code    14  declarative_gallery.in(.text)
    QtMobility::QDeclarativeGalleryGreaterThanFilter::qt_metacast(const char*) 0x0000884d   Thumb Code    40  declarative_gallery.in(.text)
    QtMobility::QDeclarativeGalleryGreaterThanFilter::qt_metacall(QMetaObject::Call, int, void**) 0x00008875   Thumb Code     8  declarative_gallery.in(.text)
    QtMobility::QDeclarativeGalleryGreaterThanEqualsFilter::getStaticMetaObject() 0x0000887d   Thumb Code     6  declarative_gallery.in(.text)
    QtMobility::QDeclarativeGalleryGreaterThanEqualsFilter::metaObject() const 0x00008883   Thumb Code    14  declarative_gallery.in(.text)
    QtMobility::QDeclarativeGalleryGreaterThanEqualsFilter::qt_metacast(const char*) 0x00008891   Thumb Code    40  declarative_gallery.in(.text)
    QtMobility::QDeclarativeGalleryGreaterThanEqualsFilter::qt_metacall(QMetaObject::Call, int, void**) 0x000088b9   Thumb Code     8  declarative_gallery.in(.text)
    QtMobility::QDeclarativeGalleryContainsFilter::getStaticMetaObject() 0x000088c1   Thumb Code     6  declarative_gallery.in(.text)
    QtMobility::QDeclarativeGalleryContainsFilter::metaObject() const 0x000088c7   Thumb Code    14  declarative_gallery.in(.text)
    QtMobility::QDeclarativeGalleryContainsFilter::qt_metacast(const char*) 0x000088d5   Thumb Code    40  declarative_gallery.in(.text)
    QtMobility::QDeclarativeGalleryContainsFilter::qt_metacall(QMetaObject::Call, int, void**) 0x000088fd   Thumb Code     2  declarative_gallery.in(.text)
    QtMobility::QDeclarativeGalleryStartsWithFilter::getStaticMetaObject() 0x000088ff   Thumb Code     6  declarative_gallery.in(.text)
    QtMobility::QDeclarativeGalleryStartsWithFilter::metaObject() const 0x00008905   Thumb Code    14  declarative_gallery.in(.text)
    QtMobility::QDeclarativeGalleryStartsWithFilter::qt_metacast(const char*) 0x00008913   Thumb Code    40  declarative_gallery.in(.text)
    QtMobility::QDeclarativeGalleryStartsWithFilter::qt_metacall(QMetaObject::Call, int, void**) 0x0000893b   Thumb Code     2  declarative_gallery.in(.text)
    QtMobility::QDeclarativeGalleryEndsWithFilter::getStaticMetaObject() 0x0000893d   Thumb Code     6  declarative_gallery.in(.text)
    QtMobility::QDeclarativeGalleryEndsWithFilter::metaObject() const 0x00008943   Thumb Code    14  declarative_gallery.in(.text)
    QtMobility::QDeclarativeGalleryEndsWithFilter::qt_metacast(const char*) 0x00008951   Thumb Code    38  declarative_gallery.in(.text)
    QtMobility::QDeclarativeGalleryEndsWithFilter::qt_metacall(QMetaObject::Call, int, void**) 0x00008977   Thumb Code     2  declarative_gallery.in(.text)
    QtMobility::QDeclarativeGalleryWildcardFilter::getStaticMetaObject() 0x00008979   Thumb Code     6  declarative_gallery.in(.text)
    QtMobility::QDeclarativeGalleryWildcardFilter::metaObject() const 0x0000897f   Thumb Code    14  declarative_gallery.in(.text)
    QtMobility::QDeclarativeGalleryWildcardFilter::qt_metacast(const char*) 0x0000898d   Thumb Code    40  declarative_gallery.in(.text)
    QtMobility::QDeclarativeGalleryWildcardFilter::qt_metacall(QMetaObject::Call, int, void**) 0x000089b5   Thumb Code     2  declarative_gallery.in(.text)
    QtMobility::QDeclarativeGalleryFilterGroup::getStaticMetaObject() 0x000089b7   Thumb Code     6  declarative_gallery.in(.text)
    QtMobility::QDeclarativeGalleryFilterGroup::metaObject() const 0x000089bd   Thumb Code    14  declarative_gallery.in(.text)
    QtMobility::QDeclarativeGalleryFilterGroup::qt_metacast(const char*) 0x000089cb   Thumb Code    72  declarative_gallery.in(.text)
    QtMobility::QDeclarativeGalleryFilterGroup::clear(QDeclarativeListProperty<QtMobility::QDeclarativeGalleryFilterBase>*) 0x00008a13   Thumb Code    68  declarative_gallery.in(.text)
    QtMobility::QDeclarativeGalleryFilterGroup::at(QDeclarativeListProperty<QtMobility::QDeclarativeGalleryFilterBase>*, int) 0x00008a57   Thumb Code    20  declarative_gallery.in(.text)
    QtMobility::QDeclarativeGalleryFilterGroup::count(QDeclarativeListProperty<QtMobility::QDeclarativeGalleryFilterBase>*) 0x00008a6b   Thumb Code    12  declarative_gallery.in(.text)
    QtMobility::QDeclarativeGalleryFilterGroup::append(QDeclarativeListProperty<QtMobility::QDeclarativeGalleryFilterBase>*, QtMobility::QDeclarativeGalleryFilterBase*) 0x00008a77   Thumb Code   186  declarative_gallery.in(.text)
    QtMobility::QDeclarativeGalleryFilterGroup::filters() 0x00008b31   Thumb Code    44  declarative_gallery.in(.text)
    QtMobility::QDeclarativeGalleryFilterGroup::qt_metacall(QMetaObject::Call, int, void**) 0x00008b5d   Thumb Code    68  declarative_gallery.in(.text)
    QtMobility::QDeclarativeGalleryFilterGroup::classBegin() 0x00008ba1   Thumb Code     2  declarative_gallery.in(.text)
    thunk{-8} to QtMobility::QDeclarativeGalleryFilterGroup::classBegin() 0x00008ba3   Thumb Code     2  declarative_gallery.in(.text)
    QtMobility::QDeclarativeGalleryFilterGroup::componentComplete() 0x00008ba5   Thumb Code    68  declarative_gallery.in(.text)
    thunk{-8} to QtMobility::QDeclarativeGalleryFilterGroup::componentComplete() 0x00008be9   Thumb Code     4  declarative_gallery.in(.text)
    QtMobility::QDeclarativeGalleryFilterUnion::getStaticMetaObject() 0x00008bed   Thumb Code     4  declarative_gallery.in(.text)
    QtMobility::QDeclarativeGalleryFilterUnion::metaObject() const 0x00008bf1   Thumb Code    12  declarative_gallery.in(.text)
    QtMobility::QDeclarativeGalleryFilterUnion::qt_metacast(const char*) 0x00008bfd   Thumb Code    38  declarative_gallery.in(.text)
    QtMobility::QDeclarativeGalleryFilterUnion::qt_metacall(QMetaObject::Call, int, void**) 0x00008c23   Thumb Code     2  declarative_gallery.in(.text)
    QtMobility::QDeclarativeGalleryFilterUnion::filter() const 0x00008c25   Thumb Code   176  declarative_gallery.in(.text)
    QtMobility::QDeclarativeGalleryFilterIntersection::getStaticMetaObject() 0x00008cd5   Thumb Code     6  declarative_gallery.in(.text)
    QtMobility::QDeclarativeGalleryFilterIntersection::metaObject() const 0x00008cdb   Thumb Code    14  declarative_gallery.in(.text)
    QtMobility::QDeclarativeGalleryFilterIntersection::qt_metacast(const char*) 0x00008ce9   Thumb Code    40  declarative_gallery.in(.text)
    QtMobility::QDeclarativeGalleryFilterIntersection::qt_metacall(QMetaObject::Call, int, void**) 0x00008d11   Thumb Code     2  declarative_gallery.in(.text)
    QtMobility::QDeclarativeGalleryFilterIntersection::filter() const 0x00008d13   Thumb Code   174  declarative_gallery.in(.text)
    QtMobility::QDeclarativeGalleryItem::getStaticMetaObject() 0x00008ddd   Thumb Code     4  declarative_gallery.in(.text)
    QtMobility::QDeclarativeGalleryItem::metaObject() const 0x00008de1   Thumb Code    12  declarative_gallery.in(.text)
    QtMobility::QDeclarativeGalleryItem::qt_metacast(const char*) 0x00008ded   Thumb Code    72  declarative_gallery.in(.text)
    QtMobility::QDeclarativeGalleryItem::itemIdChanged() 0x00008e35   Thumb Code    14  declarative_gallery.in(.text)
    QtMobility::QDeclarativeGalleryItem::setItemId(const QVariant&) 0x00008e43   Thumb Code    92  declarative_gallery.in(.text)
    QtMobility::QDeclarativeGalleryItem::autoUpdateChanged() 0x00008e9f   Thumb Code    14  declarative_gallery.in(.text)
    QtMobility::QDeclarativeGalleryItem::deferredExecute() 0x00008ead   Thumb Code    62  declarative_gallery.in(.text)
    QtMobility::QDeclarativeGalleryItem::setAutoUpdate(bool) 0x00008eeb   Thumb Code    60  declarative_gallery.in(.text)
    QtMobility::QDeclarativeGalleryItem::propertyNamesChanged() 0x00008f27   Thumb Code    14  declarative_gallery.in(.text)
    QtMobility::QDeclarativeGalleryItem::setPropertyNames(const QStringList&) 0x00008f35   Thumb Code    26  declarative_gallery.in(.text)
    QtMobility::QDeclarativeGalleryItem::progress() const 0x00008f4f   Thumb Code    46  declarative_gallery.in(.text)
    QtMobility::QDeclarativeGalleryItem::_q_metaDataChanged(const QList<int>&) 0x00008f7d   Thumb Code   180  declarative_gallery.in(.text)
    QtMobility::QDeclarativeGalleryItem::availableChanged() 0x00009031   Thumb Code    14  declarative_gallery.in(.text)
    QtMobility::QDeclarativeGalleryItem::_q_itemChanged() 0x0000903f   Thumb Code   276  declarative_gallery.in(.text)
    QtMobility::QDeclarativeGalleryItem::statusChanged() 0x00009153   Thumb Code    14  declarative_gallery.in(.text)
    QtMobility::QDeclarativeGalleryItem::_q_stateChanged() 0x00009161   Thumb Code   324  declarative_gallery.in(.text)
    QtMobility::QDeclarativeGalleryItem::clear() 0x000092a5   Thumb Code    20  declarative_gallery.in(.text)
    QtMobility::QDeclarativeGalleryItem::cancel() 0x000092b9   Thumb Code    20  declarative_gallery.in(.text)
    QtMobility::QDeclarativeGalleryItem::reload() 0x000092cd   Thumb Code    20  declarative_gallery.in(.text)
    QtMobility::QDeclarativeGalleryItem::galleryChanged() 0x000092e1   Thumb Code    14  declarative_gallery.in(.text)
    QtMobility::QDeclarativeGalleryItem::metaDataChanged() 0x000092ef   Thumb Code    14  declarative_gallery.in(.text)
    QtMobility::QDeclarativeGalleryItem::progressChanged() 0x000092fd   Thumb Code    14  declarative_gallery.in(.text)
    QtMobility::QDeclarativeGalleryItem::qt_metacall(QMetaObject::Call, int, void**) 0x0000930b   Thumb Code   418  declarative_gallery.in(.text)
    QtMobility::QDeclarativeGalleryItem::~QDeclarativeGalleryItem() 0x000094ad   Thumb Code     0  declarative_gallery.in(.text)
    QtMobility::QDeclarativeGalleryItem::~QDeclarativeGalleryItem__sub_object() 0x000094ad   Thumb Code    52  declarative_gallery.in(.text)
    QtMobility::QDeclarativeGalleryItem::~QDeclarativeGalleryItem__deallocating() 0x000094e1   Thumb Code    16  declarative_gallery.in(.text)
    thunk{-8} to QtMobility::QDeclarativeGalleryItem::~QDeclarativeGalleryItem__deallocating() 0x000094f1   Thumb Code     4  declarative_gallery.in(.text)
    thunk{-8} to QtMobility::QDeclarativeGalleryItem::~QDeclarativeGalleryItem() 0x000094f5   Thumb Code     4  declarative_gallery.in(.text)
    QtMobility::QDeclarativeGalleryItem::componentComplete() 0x000094f9   Thumb Code    44  declarative_gallery.in(.text)
    thunk{-8} to QtMobility::QDeclarativeGalleryItem::componentComplete() 0x00009525   Thumb Code     4  declarative_gallery.in(.text)
    QtMobility::QDeclarativeGalleryItem::QDeclarativeGalleryItem__sub_object(QObject*) 0x00009529   Thumb Code   458  declarative_gallery.in(.text)
    QtMobility::QDeclarativeGalleryItem::event(QEvent*) 0x000096f3   Thumb Code    34  declarative_gallery.in(.text)
    QtMobility::QDeclarativeDocumentGalleryItem::getStaticMetaObject() 0x00009715   Thumb Code     4  declarative_gallery.in(.text)
    QtMobility::QDeclarativeDocumentGalleryItem::metaObject() const 0x00009719   Thumb Code    12  declarative_gallery.in(.text)
    QtMobility::QDeclarativeDocumentGalleryItem::qt_metacast(const char*) 0x00009725   Thumb Code    38  declarative_gallery.in(.text)
    QtMobility::QDeclarativeDocumentGalleryItem::itemType() const 0x0000974b   Thumb Code    30  declarative_gallery.in(.text)
    QtMobility::QDeclarativeDocumentGalleryItem::itemTypeChanged() 0x00009769   Thumb Code    14  declarative_gallery.in(.text)
    QtMobility::QDeclarativeDocumentGalleryItem::qt_metacall(QMetaObject::Call, int, void**) 0x00009777   Thumb Code    86  declarative_gallery.in(.text)
    QtMobility::QDeclarativeDocumentGalleryItem::QDeclarativeDocumentGalleryItem(QObject*) 0x000097cd   Thumb Code    36  declarative_gallery.in(.text)
    QtMobility::QDeclarativeDocumentGalleryItem::QDeclarativeDocumentGalleryItem__sub_object(QObject*) 0x000097cd   Thumb Code     0  declarative_gallery.in(.text)
    QtMobility::QDeclarativeDocumentGalleryItem::~QDeclarativeDocumentGalleryItem() 0x000097f1   Thumb Code     2  declarative_gallery.in(.text)
    QtMobility::QDeclarativeDocumentGalleryItem::~QDeclarativeDocumentGalleryItem__sub_object() 0x000097f1   Thumb Code     0  declarative_gallery.in(.text)
    QtMobility::QDeclarativeDocumentGalleryItem::~QDeclarativeDocumentGalleryItem__deallocating() 0x000097f3   Thumb Code    16  declarative_gallery.in(.text)
    thunk{-8} to QtMobility::QDeclarativeDocumentGalleryItem::~QDeclarativeDocumentGalleryItem__deallocating() 0x00009803   Thumb Code     4  declarative_gallery.in(.text)
    thunk{-8} to QtMobility::QDeclarativeDocumentGalleryItem::~QDeclarativeDocumentGalleryItem() 0x00009807   Thumb Code     4  declarative_gallery.in(.text)
    QtMobility::QDeclarativeDocumentGalleryItem::classBegin() 0x0000980b   Thumb Code    20  declarative_gallery.in(.text)
    thunk{-8} to QtMobility::QDeclarativeDocumentGalleryItem::classBegin() 0x0000981f   Thumb Code     4  declarative_gallery.in(.text)
    QtMobility::QDeclarativeGalleryQueryModel::getStaticMetaObject() 0x0000989d   Thumb Code     4  declarative_gallery.in(.text)
    QtMobility::QDeclarativeGalleryQueryModel::metaObject() const 0x000098a1   Thumb Code    12  declarative_gallery.in(.text)
    QtMobility::QDeclarativeGalleryQueryModel::qt_metacast(const char*) 0x000098ad   Thumb Code    72  declarative_gallery.in(.text)
    QtMobility::QDeclarativeGalleryQueryModel::filterChanged() 0x000098f5   Thumb Code    14  declarative_gallery.in(.text)
    QtMobility::QDeclarativeGalleryQueryModel::deferredExecute() 0x00009903   Thumb Code    62  declarative_gallery.in(.text)
    QtMobility::QDeclarativeGalleryQueryModel::setFilter(QtMobility::QDeclarativeGalleryFilterBase*) 0x00009941   Thumb Code   154  declarative_gallery.in(.text)
    QtMobility::QDeclarativeGalleryQueryModel::limitChanged() 0x000099db   Thumb Code    14  declarative_gallery.in(.text)
    QtMobility::QDeclarativeGalleryQueryModel::setLimit(int) 0x000099e9   Thumb Code    42  declarative_gallery.in(.text)
    QtMobility::QDeclarativeGalleryQueryModel::offsetChanged() 0x00009a13   Thumb Code    14  declarative_gallery.in(.text)
    QtMobility::QDeclarativeGalleryQueryModel::setOffset(int) 0x00009a21   Thumb Code    42  declarative_gallery.in(.text)
    QtMobility::QDeclarativeGalleryQueryModel::scopeChanged() 0x00009a4b   Thumb Code    14  declarative_gallery.in(.text)
    QtMobility::QDeclarativeGalleryQueryModel::setScope(QtMobility::QDeclarativeGalleryQueryModel::Scope) 0x00009a59   Thumb Code    42  declarative_gallery.in(.text)
    QtMobility::QDeclarativeGalleryQueryModel::rootItemChanged() 0x00009a83   Thumb Code    14  declarative_gallery.in(.text)
    QtMobility::QDeclarativeGalleryQueryModel::setRootItem(const QVariant&) 0x00009a91   Thumb Code    68  declarative_gallery.in(.text)
    QtMobility::QDeclarativeGalleryQueryModel::autoUpdateChanged() 0x00009ad5   Thumb Code    14  declarative_gallery.in(.text)
    QtMobility::QDeclarativeGalleryQueryModel::setAutoUpdate(bool) 0x00009ae3   Thumb Code    60  declarative_gallery.in(.text)
    QtMobility::QDeclarativeGalleryQueryModel::sortPropertyNamesChanged() 0x00009b1f   Thumb Code    14  declarative_gallery.in(.text)
    QtMobility::QDeclarativeGalleryQueryModel::setSortPropertyNames(const QStringList&) 0x00009b2d   Thumb Code   134  declarative_gallery.in(.text)
    QtMobility::QDeclarativeGalleryQueryModel::propertyNamesChanged() 0x00009bb3   Thumb Code    14  declarative_gallery.in(.text)
    QtMobility::QDeclarativeGalleryQueryModel::setPropertyNames(const QStringList&) 0x00009bc1   Thumb Code    26  declarative_gallery.in(.text)
    QtMobility::QDeclarativeGalleryQueryModel::progress() const 0x00009bdb   Thumb Code    46  declarative_gallery.in(.text)
    QtMobility::QDeclarativeGalleryQueryModel::setProperty(int, const QString&, const QVariant&) 0x00009c09   Thumb Code   188  declarative_gallery.in(.text)
    QtMobility::QDeclarativeGalleryQueryModel::set(int, const QScriptValue&) 0x00009cc5   Thumb Code   150  declarative_gallery.in(.text)
    QtMobility::QDeclarativeGalleryQueryModel::property(int, const QString&) const 0x00009d5b   Thumb Code   220  declarative_gallery.in(.text)
    QtMobility::QDeclarativeGalleryQueryModel::get(const QScriptValue&) const 0x00009e37   Thumb Code   366  declarative_gallery.in(.text)
    QtMobility::QDeclarativeGalleryQueryModel::_q_itemsChanged(int, int) 0x00009fa5   Thumb Code    38  declarative_gallery.in(.text)
    QtMobility::QDeclarativeGalleryQueryModel::_q_itemsMoved(int, int, int) 0x00009fcb   Thumb Code    64  declarative_gallery.in(.text)
    QtMobility::QDeclarativeGalleryQueryModel::countChanged() 0x0000a00b   Thumb Code    14  declarative_gallery.in(.text)
    QtMobility::QDeclarativeGalleryQueryModel::_q_itemsRemoved(int, int) 0x0000a019   Thumb Code    54  declarative_gallery.in(.text)
    QtMobility::QDeclarativeGalleryQueryModel::_q_itemsInserted(int, int) 0x0000a04f   Thumb Code    54  declarative_gallery.in(.text)
    QtMobility::QDeclarativeGalleryQueryModel::_q_setResultSet(QtMobility::QGalleryResultSet*) 0x0000a085   Thumb Code   468  declarative_gallery.in(.text)
    QtMobility::QDeclarativeGalleryQueryModel::statusChanged() 0x0000a259   Thumb Code    14  declarative_gallery.in(.text)
    QtMobility::QDeclarativeGalleryQueryModel::_q_stateChanged() 0x0000a267   Thumb Code   684  declarative_gallery.in(.text)
    QtMobility::QDeclarativeGalleryQueryModel::clear() 0x0000a513   Thumb Code    20  declarative_gallery.in(.text)
    QtMobility::QDeclarativeGalleryQueryModel::cancel() 0x0000a527   Thumb Code    20  declarative_gallery.in(.text)
    QtMobility::QDeclarativeGalleryQueryModel::reload() 0x0000a53b   Thumb Code   100  declarative_gallery.in(.text)
    QtMobility::QDeclarativeGalleryQueryModel::progressChanged() 0x0000a59f   Thumb Code    14  declarative_gallery.in(.text)
    QtMobility::QDeclarativeGalleryQueryModel::qt_metacall(QMetaObject::Call, int, void**) 0x0000a5ad   Thumb Code   866  declarative_gallery.in(.text)
    QtMobility::QDeclarativeGalleryQueryModel::~QDeclarativeGalleryQueryModel() 0x0000a90f   Thumb Code     0  declarative_gallery.in(.text)
    QtMobility::QDeclarativeGalleryQueryModel::~QDeclarativeGalleryQueryModel__sub_object() 0x0000a90f   Thumb Code    64  declarative_gallery.in(.text)
    QtMobility::QDeclarativeGalleryQueryModel::~QDeclarativeGalleryQueryModel__deallocating() 0x0000a94f   Thumb Code    16  declarative_gallery.in(.text)
    thunk{-8} to QtMobility::QDeclarativeGalleryQueryModel::~QDeclarativeGalleryQueryModel__deallocating() 0x0000a95f   Thumb Code     4  declarative_gallery.in(.text)
    thunk{-8} to QtMobility::QDeclarativeGalleryQueryModel::~QDeclarativeGalleryQueryModel() 0x0000a963   Thumb Code     4  declarative_gallery.in(.text)
    QtMobility::QDeclarativeGalleryQueryModel::rowCount(const QModelIndex&) const 0x0000a967   Thumb Code    22  declarative_gallery.in(.text)
    QtMobility::QDeclarativeGalleryQueryModel::data(const QModelIndex&, int) const 0x0000a97d   Thumb Code   176  declarative_gallery.in(.text)
    QtMobility::QDeclarativeGalleryQueryModel::setData(const QModelIndex&, const QVariant&, int) 0x0000aa2d   Thumb Code    68  declarative_gallery.in(.text)
    QtMobility::QDeclarativeGalleryQueryModel::index(int, int, const QModelIndex&) const 0x0000aa71   Thumb Code   110  declarative_gallery.in(.text)
    QtMobility::QDeclarativeGalleryQueryModel::componentComplete() 0x0000aadf   Thumb Code    84  declarative_gallery.in(.text)
    thunk{-8} to QtMobility::QDeclarativeGalleryQueryModel::componentComplete() 0x0000ab33   Thumb Code     4  declarative_gallery.in(.text)
    QtMobility::QDeclarativeGalleryQueryModel::QDeclarativeGalleryQueryModel__sub_object(QObject*) 0x0000ab37   Thumb Code   124  declarative_gallery.in(.text)
    QtMobility::QDeclarativeGalleryQueryModel::event(QEvent*) 0x0000abb3   Thumb Code   116  declarative_gallery.in(.text)
    QtMobility::QDeclarativeDocumentGalleryModel::getStaticMetaObject() 0x0000ac27   Thumb Code     4  declarative_gallery.in(.text)
    QtMobility::QDeclarativeDocumentGalleryModel::metaObject() const 0x0000ac2b   Thumb Code    12  declarative_gallery.in(.text)
    QtMobility::QDeclarativeDocumentGalleryModel::qt_metacast(const char*) 0x0000ac37   Thumb Code    38  declarative_gallery.in(.text)
    QtMobility::QDeclarativeDocumentGalleryModel::rootTypeChanged() 0x0000ac5d   Thumb Code    14  declarative_gallery.in(.text)
    QtMobility::QDeclarativeDocumentGalleryModel::setRootType(QtMobility::QDeclarativeDocumentGallery::ItemType) 0x0000ac6b   Thumb Code    40  declarative_gallery.in(.text)
    QtMobility::QDeclarativeDocumentGalleryModel::rootType() const 0x0000ac93   Thumb Code   246  declarative_gallery.in(.text)
    QtMobility::QDeclarativeDocumentGalleryModel::qt_metacall(QMetaObject::Call, int, void**) 0x0000ad89   Thumb Code   102  declarative_gallery.in(.text)
    QtMobility::QDeclarativeDocumentGalleryModel::QDeclarativeDocumentGalleryModel(QObject*) 0x0000adef   Thumb Code    46  declarative_gallery.in(.text)
    QtMobility::QDeclarativeDocumentGalleryModel::QDeclarativeDocumentGalleryModel__sub_object(QObject*) 0x0000adef   Thumb Code     0  declarative_gallery.in(.text)
    QtMobility::QDeclarativeDocumentGalleryModel::~QDeclarativeDocumentGalleryModel() 0x0000ae1d   Thumb Code     8  declarative_gallery.in(.text)
    QtMobility::QDeclarativeDocumentGalleryModel::~QDeclarativeDocumentGalleryModel__sub_object() 0x0000ae1d   Thumb Code     0  declarative_gallery.in(.text)
    QtMobility::QDeclarativeDocumentGalleryModel::~QDeclarativeDocumentGalleryModel__deallocating() 0x0000ae25   Thumb Code    16  declarative_gallery.in(.text)
    thunk{-8} to QtMobility::QDeclarativeDocumentGalleryModel::~QDeclarativeDocumentGalleryModel__deallocating() 0x0000ae35   Thumb Code     4  declarative_gallery.in(.text)
    thunk{-8} to QtMobility::QDeclarativeDocumentGalleryModel::~QDeclarativeDocumentGalleryModel() 0x0000ae39   Thumb Code     4  declarative_gallery.in(.text)
    QtMobility::QDeclarativeDocumentGalleryModel::classBegin() 0x0000ae3d   Thumb Code    20  declarative_gallery.in(.text)
    thunk{-8} to QtMobility::QDeclarativeDocumentGalleryModel::classBegin() 0x0000ae51   Thumb Code     4  declarative_gallery.in(.text)
    QtMobility::QDeclarativeDocumentGalleryModel::itemType(const QString&) const 0x0000ae55   Thumb Code    30  declarative_gallery.in(.text)
    QtMobility::QDeclarativeGalleryType::getStaticMetaObject() 0x0000ae7d   Thumb Code     4  declarative_gallery.in(.text)
    QtMobility::QDeclarativeGalleryType::metaObject() const 0x0000ae81   Thumb Code    12  declarative_gallery.in(.text)
    QtMobility::QDeclarativeGalleryType::qt_metacast(const char*) 0x0000ae8d   Thumb Code    72  declarative_gallery.in(.text)
    QtMobility::QDeclarativeGalleryType::autoUpdateChanged() 0x0000aed5   Thumb Code    14  declarative_gallery.in(.text)
    QtMobility::QDeclarativeGalleryType::deferredExecute() 0x0000aee3   Thumb Code    62  declarative_gallery.in(.text)
    QtMobility::QDeclarativeGalleryType::setAutoUpdate(bool) 0x0000af21   Thumb Code    60  declarative_gallery.in(.text)
    QtMobility::QDeclarativeGalleryType::propertyNamesChanged() 0x0000af5d   Thumb Code    14  declarative_gallery.in(.text)
    QtMobility::QDeclarativeGalleryType::setPropertyNames(const QStringList&) 0x0000af6b   Thumb Code    26  declarative_gallery.in(.text)
    QtMobility::QDeclarativeGalleryType::progress() const 0x0000af85   Thumb Code    46  declarative_gallery.in(.text)
    QtMobility::QDeclarativeGalleryType::_q_metaDataChanged(const QList<int>&) 0x0000afb3   Thumb Code   180  declarative_gallery.in(.text)
    QtMobility::QDeclarativeGalleryType::availableChanged() 0x0000b067   Thumb Code    14  declarative_gallery.in(.text)
    QtMobility::QDeclarativeGalleryType::_q_typeChanged() 0x0000b075   Thumb Code   276  declarative_gallery.in(.text)
    QtMobility::QDeclarativeGalleryType::statusChanged() 0x0000b189   Thumb Code    14  declarative_gallery.in(.text)
    QtMobility::QDeclarativeGalleryType::_q_stateChanged() 0x0000b197   Thumb Code   444  declarative_gallery.in(.text)
    QtMobility::QDeclarativeGalleryType::clear() 0x0000b353   Thumb Code    20  declarative_gallery.in(.text)
    QtMobility::QDeclarativeGalleryType::cancel() 0x0000b367   Thumb Code    20  declarative_gallery.in(.text)
    QtMobility::QDeclarativeGalleryType::reload() 0x0000b37b   Thumb Code    20  declarative_gallery.in(.text)
    QtMobility::QDeclarativeGalleryType::galleryChanged() 0x0000b38f   Thumb Code    14  declarative_gallery.in(.text)
    QtMobility::QDeclarativeGalleryType::metaDataChanged() 0x0000b39d   Thumb Code    14  declarative_gallery.in(.text)
    QtMobility::QDeclarativeGalleryType::progressChanged() 0x0000b3ab   Thumb Code    14  declarative_gallery.in(.text)
    QtMobility::QDeclarativeGalleryType::qt_metacall(QMetaObject::Call, int, void**) 0x0000b3b9   Thumb Code   332  declarative_gallery.in(.text)
    QtMobility::QDeclarativeGalleryType::~QDeclarativeGalleryType() 0x0000b505   Thumb Code     0  declarative_gallery.in(.text)
    QtMobility::QDeclarativeGalleryType::~QDeclarativeGalleryType__sub_object() 0x0000b505   Thumb Code    52  declarative_gallery.in(.text)
    QtMobility::QDeclarativeGalleryType::~QDeclarativeGalleryType__deallocating() 0x0000b539   Thumb Code    16  declarative_gallery.in(.text)
    thunk{-8} to QtMobility::QDeclarativeGalleryType::~QDeclarativeGalleryType__deallocating() 0x0000b549   Thumb Code     4  declarative_gallery.in(.text)
    thunk{-8} to QtMobility::QDeclarativeGalleryType::~QDeclarativeGalleryType() 0x0000b54d   Thumb Code     4  declarative_gallery.in(.text)
    QtMobility::QDeclarativeGalleryType::componentComplete() 0x0000b551   Thumb Code    44  declarative_gallery.in(.text)
    thunk{-8} to QtMobility::QDeclarativeGalleryType::componentComplete() 0x0000b57d   Thumb Code     4  declarative_gallery.in(.text)
    QtMobility::QDeclarativeGalleryType::QDeclarativeGalleryType__sub_object(QObject*) 0x0000b581   Thumb Code   156  declarative_gallery.in(.text)
    QtMobility::QDeclarativeGalleryType::event(QEvent*) 0x0000b61d   Thumb Code    34  declarative_gallery.in(.text)
    QtMobility::QDeclarativeDocumentGalleryType::getStaticMetaObject() 0x0000b63f   Thumb Code     6  declarative_gallery.in(.text)
    QtMobility::QDeclarativeDocumentGalleryType::metaObject() const 0x0000b645   Thumb Code    14  declarative_gallery.in(.text)
    QtMobility::QDeclarativeDocumentGalleryType::qt_metacast(const char*) 0x0000b653   Thumb Code    38  declarative_gallery.in(.text)
    QtMobility::QDeclarativeDocumentGalleryType::itemTypeChanged() 0x0000b679   Thumb Code    16  declarative_gallery.in(.text)
    QtMobility::QDeclarativeDocumentGalleryType::setItemType(QtMobility::QDeclarativeDocumentGallery::ItemType) 0x0000b689   Thumb Code    98  declarative_gallery.in(.text)
    QtMobility::QDeclarativeDocumentGalleryType::itemType() const 0x0000b6eb   Thumb Code    30  declarative_gallery.in(.text)
    QtMobility::QDeclarativeDocumentGalleryType::qt_metacall(QMetaObject::Call, int, void**) 0x0000b709   Thumb Code   332  declarative_gallery.in(.text)
    QtMobility::QDeclarativeDocumentGalleryType::QDeclarativeDocumentGalleryType(QObject*) 0x0000b855   Thumb Code    16  declarative_gallery.in(.text)
    QtMobility::QDeclarativeDocumentGalleryType::QDeclarativeDocumentGalleryType__sub_object(QObject*) 0x0000b855   Thumb Code     0  declarative_gallery.in(.text)
    QtMobility::QDeclarativeDocumentGalleryType::~QDeclarativeDocumentGalleryType() 0x0000b865   Thumb Code     2  declarative_gallery.in(.text)
    QtMobility::QDeclarativeDocumentGalleryType::~QDeclarativeDocumentGalleryType__sub_object() 0x0000b865   Thumb Code     0  declarative_gallery.in(.text)
    QtMobility::QDeclarativeDocumentGalleryType::~QDeclarativeDocumentGalleryType__deallocating() 0x0000b867   Thumb Code    16  declarative_gallery.in(.text)
    thunk{-8} to QtMobility::QDeclarativeDocumentGalleryType::~QDeclarativeDocumentGalleryType__deallocating() 0x0000b877   Thumb Code     4  declarative_gallery.in(.text)
    thunk{-8} to QtMobility::QDeclarativeDocumentGalleryType::~QDeclarativeDocumentGalleryType() 0x0000b87b   Thumb Code     4  declarative_gallery.in(.text)
    QtMobility::QDeclarativeDocumentGalleryType::classBegin() 0x0000b87f   Thumb Code    20  declarative_gallery.in(.text)
    thunk{-8} to QtMobility::QDeclarativeDocumentGalleryType::classBegin() 0x0000b893   Thumb Code     4  declarative_gallery.in(.text)
    _E32Dll_Body                             0x0000b89d   Thumb Code    34  uc_dll.o(.text)
    CppBSSInitializationError                0x0000b8c4   ARM Code       4  ucppfini.o(.text)
    __aeabi_atexit                           0x0000b8c8   ARM Code      28  ucppfini.o(.text)
    __cxa_atexit                             0x0000b8e4   ARM Code      48  ucppfini.o(.text)
    __cxa_finalize                           0x0000b914   ARM Code      48  ucppfini.o(.text)
    run_static_dtors                         0x0000b944   ARM Code       8  ucppfini.o(.text)
    __DLL_Export_Table__                     0x0000bec8   ARM Code       0  declarative_gallery{000a0000}.exp(ExportTable)
    DLL##ExportTableSize                     0x0000becc   Data           0  declarative_gallery{000a0000}.exp(ExportTable)
    DLL##ExportTable                         0x0000bed0   Data           0  declarative_gallery{000a0000}.exp(ExportTable)
    QtMobility::QGalleryFilter::QGalleryFilter(const QtMobility::QGalleryUnionFilter&) 0x0000bed8   ARM Code       0  QtGallery{00010103}-1.o(StubCode)
    QtMobility::QGalleryFilter::~QGalleryFilter() 0x0000bee0   ARM Code       0  QtGallery{00010103}-11.o(StubCode)
    QtMobility::QGalleryItemRequest::setMetaData(const QString&, const QVariant&) 0x0000bee8   ARM Code       0  QtGallery{00010103}-182.o(StubCode)
    QtMobility::QGalleryItemRequest::setAutoUpdate(bool) 0x0000bef0   ARM Code       0  QtGallery{00010103}-186.o(StubCode)
    QtMobility::QGalleryItemRequest::setPropertyNames(const QStringList&) 0x0000bef8   ARM Code       0  QtGallery{00010103}-189.o(StubCode)
    QtMobility::QGalleryItemRequest::setItemId(const QVariant&) 0x0000bf00   ARM Code       0  QtGallery{00010103}-194.o(StubCode)
    QtMobility::QGalleryItemRequest::QGalleryItemRequest(QObject*) 0x0000bf08   ARM Code       0  QtGallery{00010103}-195.o(StubCode)
    QtMobility::QGalleryFilter::QGalleryFilter(const QtMobility::QGalleryMetaDataFilter&) 0x0000bf10   ARM Code       0  QtGallery{00010103}-2.o(StubCode)
    QtMobility::QGalleryItemRequest::~QGalleryItemRequest() 0x0000bf18   ARM Code       0  QtGallery{00010103}-200.o(StubCode)
    QtMobility::QGalleryTypeRequest::setItemType(const QString&) 0x0000bf20   ARM Code       0  QtGallery{00010103}-204.o(StubCode)
    QtMobility::QGalleryTypeRequest::setAutoUpdate(bool) 0x0000bf28   ARM Code       0  QtGallery{00010103}-207.o(StubCode)
    QtMobility::QGalleryTypeRequest::setPropertyNames(const QStringList&) 0x0000bf30   ARM Code       0  QtGallery{00010103}-211.o(StubCode)
    QtMobility::QGalleryTypeRequest::QGalleryTypeRequest(QObject*) 0x0000bf38   ARM Code       0  QtGallery{00010103}-216.o(StubCode)
    QtMobility::QGalleryTypeRequest::~QGalleryTypeRequest() 0x0000bf40   ARM Code       0  QtGallery{00010103}-221.o(StubCode)
    QtMobility::QGalleryUnionFilter::append(const QtMobility::QGalleryMetaDataFilter&) 0x0000bf48   ARM Code       0  QtGallery{00010103}-224.o(StubCode)
    QtMobility::QGalleryUnionFilter::append(const QtMobility::QGalleryIntersectionFilter&) 0x0000bf50   ARM Code       0  QtGallery{00010103}-225.o(StubCode)
    QtMobility::QGalleryUnionFilter::append(const QtMobility::QGalleryUnionFilter&) 0x0000bf58   ARM Code       0  QtGallery{00010103}-226.o(StubCode)
    QtMobility::QGalleryUnionFilter::QGalleryUnionFilter() 0x0000bf60   ARM Code       0  QtGallery{00010103}-239.o(StubCode)
    QtMobility::QGalleryUnionFilter::~QGalleryUnionFilter() 0x0000bf68   ARM Code       0  QtGallery{00010103}-244.o(StubCode)
    QtMobility::QGalleryQueryRequest::setRootItem(const QVariant&) 0x0000bf70   ARM Code       0  QtGallery{00010103}-253.o(StubCode)
    QtMobility::QGalleryQueryRequest::setRootType(const QString&) 0x0000bf78   ARM Code       0  QtGallery{00010103}-254.o(StubCode)
    QtMobility::QGalleryQueryRequest::setAutoUpdate(bool) 0x0000bf80   ARM Code       0  QtGallery{00010103}-259.o(StubCode)
    QtMobility::QGalleryQueryRequest::setPropertyNames(const QStringList&) 0x0000bf88   ARM Code       0  QtGallery{00010103}-263.o(StubCode)
    QtMobility::QGalleryQueryRequest::setSortPropertyNames(const QStringList&) 0x0000bf90   ARM Code       0  QtGallery{00010103}-269.o(StubCode)
    QtMobility::QGalleryQueryRequest::setLimit(int) 0x0000bf98   ARM Code       0  QtGallery{00010103}-276.o(StubCode)
    QtMobility::QGalleryQueryRequest::setScope(QtMobility::QGalleryQueryRequest::Scope) 0x0000bfa0   ARM Code       0  QtGallery{00010103}-277.o(StubCode)
    QtMobility::QGalleryQueryRequest::setFilter(const QtMobility::QGalleryFilter&) 0x0000bfa8   ARM Code       0  QtGallery{00010103}-278.o(StubCode)
    QtMobility::QGalleryQueryRequest::setOffset(int) 0x0000bfb0   ARM Code       0  QtGallery{00010103}-279.o(StubCode)
    QtMobility::QGalleryQueryRequest::QGalleryQueryRequest(QObject*) 0x0000bfb8   ARM Code       0  QtGallery{00010103}-280.o(StubCode)
    QtMobility::QGalleryQueryRequest::~QGalleryQueryRequest() 0x0000bfc0   ARM Code       0  QtGallery{00010103}-285.o(StubCode)
    QtMobility::QGalleryMetaDataFilter::setNegated(bool) 0x0000bfc8   ARM Code       0  QtGallery{00010103}-287.o(StubCode)
    QtMobility::QGalleryMetaDataFilter::setComparator(QtMobility::QGalleryFilter::Comparator) 0x0000bfd0   ARM Code       0  QtGallery{00010103}-288.o(StubCode)
    QtMobility::QGalleryMetaDataFilter::setPropertyName(const QString&) 0x0000bfd8   ARM Code       0  QtGallery{00010103}-289.o(StubCode)
    QtMobility::QGalleryMetaDataFilter::setValue(const QVariant&) 0x0000bfe0   ARM Code       0  QtGallery{00010103}-290.o(StubCode)
    QtMobility::QGalleryMetaDataFilter::QGalleryMetaDataFilter(const QtMobility::QGalleryMetaDataFilter&) 0x0000bfe8   ARM Code       0  QtGallery{00010103}-292.o(StubCode)
    QtMobility::QGalleryMetaDataFilter::QGalleryMetaDataFilter() 0x0000bff0   ARM Code       0  QtGallery{00010103}-293.o(StubCode)
    QtMobility::QGalleryMetaDataFilter::~QGalleryMetaDataFilter() 0x0000bff8   ARM Code       0  QtGallery{00010103}-297.o(StubCode)
    QtMobility::QGalleryFilter::QGalleryFilter(const QtMobility::QGalleryIntersectionFilter&) 0x0000c000   ARM Code       0  QtGallery{00010103}-3.o(StubCode)
    QtMobility::QGalleryAbstractRequest::setGallery(QtMobility::QAbstractGallery*) 0x0000c008   ARM Code       0  QtGallery{00010103}-300.o(StubCode)
    QtMobility::QGalleryAbstractRequest::clear() 0x0000c010   ARM Code       0  QtGallery{00010103}-311.o(StubCode)
    QtMobility::QGalleryAbstractRequest::cancel() 0x0000c018   ARM Code       0  QtGallery{00010103}-313.o(StubCode)
    QtMobility::QGalleryAbstractRequest::execute() 0x0000c020   ARM Code       0  QtGallery{00010103}-314.o(StubCode)
    QtMobility::QGalleryIntersectionFilter::append(const QtMobility::QGalleryUnionFilter&) 0x0000c028   ARM Code       0  QtGallery{00010103}-346.o(StubCode)
    QtMobility::QGalleryIntersectionFilter::append(const QtMobility::QGalleryMetaDataFilter&) 0x0000c030   ARM Code       0  QtGallery{00010103}-347.o(StubCode)
    QtMobility::QGalleryIntersectionFilter::append(const QtMobility::QGalleryIntersectionFilter&) 0x0000c038   ARM Code       0  QtGallery{00010103}-348.o(StubCode)
    QtMobility::QGalleryIntersectionFilter::QGalleryIntersectionFilter() 0x0000c040   ARM Code       0  QtGallery{00010103}-361.o(StubCode)
    QtMobility::QGalleryIntersectionFilter::~QGalleryIntersectionFilter() 0x0000c048   ARM Code       0  QtGallery{00010103}-366.o(StubCode)
    QtMobility::QGalleryFilter::toUnionFilter() const 0x0000c050   ARM Code       0  QtGallery{00010103}-375.o(StubCode)
    QtMobility::QGalleryFilter::toMetaDataFilter() const 0x0000c058   ARM Code       0  QtGallery{00010103}-376.o(StubCode)
    QtMobility::QGalleryFilter::toIntersectionFilter() const 0x0000c060   ARM Code       0  QtGallery{00010103}-377.o(StubCode)
    QtMobility::QGalleryFilter::type() const 0x0000c068   ARM Code       0  QtGallery{00010103}-378.o(StubCode)
    QtMobility::QGalleryItemRequest::autoUpdate() const 0x0000c070   ARM Code       0  QtGallery{00010103}-417.o(StubCode)
    QtMobility::QGalleryItemRequest::propertyKey(const QString&) const 0x0000c078   ARM Code       0  QtGallery{00010103}-419.o(StubCode)
    QtMobility::QGalleryItemRequest::propertyType(int) const 0x0000c080   ARM Code       0  QtGallery{00010103}-420.o(StubCode)
    QtMobility::QGalleryItemRequest::propertyNames() const 0x0000c088   ARM Code       0  QtGallery{00010103}-421.o(StubCode)
    QtMobility::QGalleryItemRequest::itemId() const 0x0000c090   ARM Code       0  QtGallery{00010103}-423.o(StubCode)
    QtMobility::QGalleryItemRequest::isValid() const 0x0000c098   ARM Code       0  QtGallery{00010103}-424.o(StubCode)
    QtMobility::QGalleryItemRequest::itemUrl() const 0x0000c0a0   ARM Code       0  QtGallery{00010103}-425.o(StubCode)
    QtMobility::QGalleryItemRequest::itemType() const 0x0000c0a8   ARM Code       0  QtGallery{00010103}-426.o(StubCode)
    QtMobility::QGalleryItemRequest::metaData(int) const 0x0000c0b0   ARM Code       0  QtGallery{00010103}-428.o(StubCode)
    QtMobility::QGalleryTypeRequest::autoUpdate() const 0x0000c0b8   ARM Code       0  QtGallery{00010103}-431.o(StubCode)
    QtMobility::QGalleryTypeRequest::propertyKey(const QString&) const 0x0000c0c0   ARM Code       0  QtGallery{00010103}-433.o(StubCode)
    QtMobility::QGalleryTypeRequest::propertyType(int) const 0x0000c0c8   ARM Code       0  QtGallery{00010103}-434.o(StubCode)
    QtMobility::QGalleryTypeRequest::propertyNames() const 0x0000c0d0   ARM Code       0  QtGallery{00010103}-435.o(StubCode)
    QtMobility::QGalleryTypeRequest::isValid() const 0x0000c0d8   ARM Code       0  QtGallery{00010103}-437.o(StubCode)
    QtMobility::QGalleryTypeRequest::itemType() const 0x0000c0e0   ARM Code       0  QtGallery{00010103}-438.o(StubCode)
    QtMobility::QGalleryTypeRequest::metaData(int) const 0x0000c0e8   ARM Code       0  QtGallery{00010103}-440.o(StubCode)
    QtMobility::QGalleryQueryRequest::autoUpdate() const 0x0000c0f0   ARM Code       0  QtGallery{00010103}-446.o(StubCode)
    QtMobility::QGalleryQueryRequest::propertyNames() const 0x0000c0f8   ARM Code       0  QtGallery{00010103}-451.o(StubCode)
    QtMobility::QGalleryQueryRequest::sortPropertyNames() const 0x0000c100   ARM Code       0  QtGallery{00010103}-452.o(StubCode)
    QtMobility::QGalleryQueryRequest::limit() const 0x0000c108   ARM Code       0  QtGallery{00010103}-454.o(StubCode)
    QtMobility::QGalleryQueryRequest::scope() const 0x0000c110   ARM Code       0  QtGallery{00010103}-455.o(StubCode)
    QtMobility::QGalleryQueryRequest::offset() const 0x0000c118   ARM Code       0  QtGallery{00010103}-458.o(StubCode)
    QtMobility::QGalleryQueryRequest::rootItem() const 0x0000c120   ARM Code       0  QtGallery{00010103}-464.o(StubCode)
    QtMobility::QGalleryQueryRequest::rootType() const 0x0000c128   ARM Code       0  QtGallery{00010103}-465.o(StubCode)
    QtMobility::QGalleryMetaDataFilter::propertyName() const 0x0000c130   ARM Code       0  QtGallery{00010103}-470.o(StubCode)
    QtMobility::QGalleryMetaDataFilter::value() const 0x0000c138   ARM Code       0  QtGallery{00010103}-471.o(StubCode)
    QtMobility::QGalleryMetaDataFilter::isNegated() const 0x0000c140   ARM Code       0  QtGallery{00010103}-473.o(StubCode)
    QtMobility::QGalleryAbstractRequest::errorString() const 0x0000c148   ARM Code       0  QtGallery{00010103}-476.o(StubCode)
    QtMobility::QGalleryAbstractRequest::currentProgress() const 0x0000c150   ARM Code       0  QtGallery{00010103}-478.o(StubCode)
    QtMobility::QGalleryAbstractRequest::maximumProgress() const 0x0000c158   ARM Code       0  QtGallery{00010103}-479.o(StubCode)
    QtMobility::QGalleryAbstractRequest::error() const 0x0000c160   ARM Code       0  QtGallery{00010103}-481.o(StubCode)
    QtMobility::QGalleryAbstractRequest::state() const 0x0000c168   ARM Code       0  QtGallery{00010103}-482.o(StubCode)
    QtMobility::QGalleryFilter::QGalleryFilter() 0x0000c170   ARM Code       0  QtGallery{00010103}-5.o(StubCode)
    QtMobility::QDocumentGallery::QDocumentGallery(QObject*) 0x0000c178   ARM Code       0  QtGallery{00010103}-99.o(StubCode)
    operator delete (void*)                  0x0000c180   ARM Code       0  libstdcpp{00010000}-988.o(StubCode)
    operator new(unsigned)                   0x0000c188   ARM Code       0  libstdcpp{00010000}-992.o(StubCode)
    thunk{-8} to QDeclarativeExtensionPlugin::initializeEngine(QDeclarativeEngine*, const char*) 0x0000c190   ARM Code       0  QtDeclarative{00040703}-1662.o(StubCode)
    QDeclarativePrivate::qmlregister(QDeclarativePrivate::RegistrationType, void*) 0x0000c198   ARM Code       0  QtDeclarative{00040703}-401.o(StubCode)
    QDeclarativePrivate::qdeclarativeelement_destructor(QObject*) 0x0000c1a0   ARM Code       0  QtDeclarative{00040703}-402.o(StubCode)
    QDeclarativeInfo::~QDeclarativeInfo()    0x0000c1a8   ARM Code       0  QtDeclarative{00040703}-43.o(StubCode)
    qmlInfo(const QObject*)                  0x0000c1b0   ARM Code       0  QtDeclarative{00040703}-5.o(StubCode)
    QDeclarativePropertyMap::clear(const QString&) 0x0000c1b8   ARM Code       0  QtDeclarative{00040703}-751.o(StubCode)
    QDeclarativePropertyMap::insert(const QString&, const QVariant&) 0x0000c1c0   ARM Code       0  QtDeclarative{00040703}-752.o(StubCode)
    QDeclarativePropertyMap::QDeclarativePropertyMap(QObject*) 0x0000c1c8   ARM Code       0  QtDeclarative{00040703}-753.o(StubCode)
    QDeclarativeParserStatus::QDeclarativeParserStatus__sub_object() 0x0000c1d0   ARM Code       0  QtDeclarative{00040703}-784.o(StubCode)
    QDeclarativeParserStatus::~QDeclarativeParserStatus__sub_object() 0x0000c1d8   ARM Code       0  QtDeclarative{00040703}-787.o(StubCode)
    QDeclarativeExtensionPlugin::qt_metacall(QMetaObject::Call, int, void**) 0x0000c1e0   ARM Code       0  QtDeclarative{00040703}-873.o(StubCode)
    QDeclarativeExtensionPlugin::qt_metacast(const char*) 0x0000c1e8   ARM Code       0  QtDeclarative{00040703}-874.o(StubCode)
    QDeclarativeExtensionPlugin::initializeEngine(QDeclarativeEngine*, const char*) 0x0000c1f0   ARM Code       0  QtDeclarative{00040703}-875.o(StubCode)
    QDeclarativeExtensionPlugin::QDeclarativeExtensionPlugin__sub_object(QObject*) 0x0000c1f8   ARM Code       0  QtDeclarative{00040703}-878.o(StubCode)
    QDeclarativeExtensionPlugin::~QDeclarativeExtensionPlugin__sub_object() 0x0000c200   ARM Code       0  QtDeclarative{00040703}-881.o(StubCode)
    QScriptEngine::newObject()               0x0000c208   ARM Code       0  QtScript{00040703}-108.o(StubCode)
    QScriptValueIterator::next()             0x0000c210   ARM Code       0  QtScript{00040703}-166.o(StubCode)
    QScriptValueIterator::QScriptValueIterator(const QScriptValue&) 0x0000c218   ARM Code       0  QtScript{00040703}-172.o(StubCode)
    QScriptValueIterator::~QScriptValueIterator() 0x0000c220   ARM Code       0  QtScript{00040703}-174.o(StubCode)
    QScriptValue::setProperty(const QString&, const QScriptValue&, const QFlags<QScriptValue::PropertyFlag>&) 0x0000c228   ARM Code       0  QtScript{00040703}-21.o(StubCode)
    QScriptValue::engine() const             0x0000c230   ARM Code       0  QtScript{00040703}-229.o(StubCode)
    QScriptValue::isValid() const            0x0000c238   ARM Code       0  QtScript{00040703}-237.o(StubCode)
    QScriptValue::toInt32() const            0x0000c240   ARM Code       0  QtScript{00040703}-238.o(StubCode)
    QScriptValue::toVariant() const          0x0000c248   ARM Code       0  QtScript{00040703}-261.o(StubCode)
    QScriptValueIterator::name() const       0x0000c250   ARM Code       0  QtScript{00040703}-313.o(StubCode)
    QScriptValueIterator::value() const      0x0000c258   ARM Code       0  QtScript{00040703}-315.o(StubCode)
    QScriptValueIterator::hasNext() const    0x0000c260   ARM Code       0  QtScript{00040703}-316.o(StubCode)
    QScriptValue::QScriptValue(const QScriptValue&) 0x0000c268   ARM Code       0  QtScript{00040703}-43.o(StubCode)
    QScriptValue::QScriptValue()             0x0000c270   ARM Code       0  QtScript{00040703}-48.o(StubCode)
    QScriptValue::~QScriptValue()            0x0000c278   ARM Code       0  QtScript{00040703}-67.o(StubCode)
    QScriptValue::operator =(const QScriptValue&) 0x0000c280   ARM Code       0  QtScript{00040703}-69.o(StubCode)
    QScriptEngine::newVariant(const QVariant&) 0x0000c288   ARM Code       0  QtScript{00040703}-73.o(StubCode)
    QScriptEngine::undefinedValue()          0x0000c290   ARM Code       0  QtScript{00040703}-85.o(StubCode)
    QScriptEngine::create(int, const void*)  0x0000c298   ARM Code       0  QtScript{00040703}-98.o(StubCode)
    QAbstractItemModel::setRoleNames(const QHash<int, QByteArray>&) 0x0000c2a0   ARM Code       0  QtCore{00040703}-1000.o(StubCode)
    QAbstractItemModel::beginMoveRows(const QModelIndex&, int, int, const QModelIndex&, int) 0x0000c2a8   ARM Code       0  QtCore{00040703}-1001.o(StubCode)
    QAbstractItemModel::endInsertRows()      0x0000c2b0   ARM Code       0  QtCore{00040703}-1002.o(StubCode)
    QAbstractItemModel::endRemoveRows()      0x0000c2b8   ARM Code       0  QtCore{00040703}-1003.o(StubCode)
    QAbstractItemModel::insertColumns(int, int, const QModelIndex&) 0x0000c2c0   ARM Code       0  QtCore{00040703}-1005.o(StubCode)
    QAbstractItemModel::removeColumns(int, int, const QModelIndex&) 0x0000c2c8   ARM Code       0  QtCore{00040703}-1007.o(StubCode)
    QAbstractItemModel::setHeaderData(int, Qt::Orientation, const QVariant&, int) 0x0000c2d0   ARM Code       0  QtCore{00040703}-1008.o(StubCode)
    QAbstractItemModel::beginInsertRows(const QModelIndex&, int, int) 0x0000c2d8   ARM Code       0  QtCore{00040703}-1011.o(StubCode)
    QAbstractItemModel::beginRemoveRows(const QModelIndex&, int, int) 0x0000c2e0   ARM Code       0  QtCore{00040703}-1012.o(StubCode)
    QAbstractItemModel::sort(int, Qt::SortOrder) 0x0000c2e8   ARM Code       0  QtCore{00040703}-1034.o(StubCode)
    QAbstractItemModel::revert()             0x0000c2f0   ARM Code       0  QtCore{00040703}-1036.o(StubCode)
    QAbstractItemModel::submit()             0x0000c2f8   ARM Code       0  QtCore{00040703}-1037.o(StubCode)
    QAbstractItemModel::fetchMore(const QModelIndex&) 0x0000c300   ARM Code       0  QtCore{00040703}-1039.o(StubCode)
    QAbstractListModel::qt_metacall(QMetaObject::Call, int, void**) 0x0000c308   ARM Code       0  QtCore{00040703}-1046.o(StubCode)
    QAbstractListModel::qt_metacast(const char*) 0x0000c310   ARM Code       0  QtCore{00040703}-1047.o(StubCode)
    QAbstractListModel::dropMimeData(const QMimeData*, Qt::DropAction, int, int, const QModelIndex&) 0x0000c318   ARM Code       0  QtCore{00040703}-1048.o(StubCode)
    QAbstractListModel::QAbstractListModel__sub_object(QObject*) 0x0000c320   ARM Code       0  QtCore{00040703}-1051.o(StubCode)
    QAbstractListModel::~QAbstractListModel__sub_object() 0x0000c328   ARM Code       0  QtCore{00040703}-1055.o(StubCode)
    qBadAlloc()                              0x0000c330   ARM Code       0  QtCore{00040703}-109.o(StubCode)
    QByteArray::append(const char*)          0x0000c338   ARM Code       0  QtCore{00040703}-126.o(StubCode)
    QByteArray::append(const QByteArray&)    0x0000c340   ARM Code       0  QtCore{00040703}-128.o(StubCode)
    QByteArray::append(char)                 0x0000c348   ARM Code       0  QtCore{00040703}-129.o(StubCode)
    QUrl::~QUrl()                            0x0000c350   ARM Code       0  QtCore{00040703}-1531.o(StubCode)
    QUrl::operator =(const QUrl&)            0x0000c358   ARM Code       0  QtCore{00040703}-1534.o(StubCode)
    QByteArray::QByteArray(const char*)      0x0000c360   ARM Code       0  QtCore{00040703}-159.o(StubCode)
    QEvent::QEvent(QEvent::Type)             0x0000c368   ARM Code       0  QtCore{00040703}-1653.o(StubCode)
    QByteArray::operator =(const QByteArray&) 0x0000c370   ARM Code       0  QtCore{00040703}-168.o(StubCode)
    QObject::childEvent(QChildEvent*)        0x0000c378   ARM Code       0  QtCore{00040703}-1760.o(StubCode)
    QObject::disconnect(const QObject*, const char*, const QObject*, const char*) 0x0000c380   ARM Code       0  QtCore{00040703}-1761.o(StubCode)
    QObject::timerEvent(QTimerEvent*)        0x0000c388   ARM Code       0  QtCore{00040703}-1763.o(StubCode)
    QObject::customEvent(QEvent*)            0x0000c390   ARM Code       0  QtCore{00040703}-1764.o(StubCode)
    QObject::eventFilter(QObject*, QEvent*)  0x0000c398   ARM Code       0  QtCore{00040703}-1766.o(StubCode)
    QObject::qt_metacall(QMetaObject::Call, int, void**) 0x0000c3a0   ARM Code       0  QtCore{00040703}-1767.o(StubCode)
    QObject::qt_metacast(const char*)        0x0000c3a8   ARM Code       0  QtCore{00040703}-1768.o(StubCode)
    QObject::connectNotify(const char*)      0x0000c3b0   ARM Code       0  QtCore{00040703}-1773.o(StubCode)
    QObject::disconnectNotify(const char*)   0x0000c3b8   ARM Code       0  QtCore{00040703}-1777.o(StubCode)
    QObject::event(QEvent*)                  0x0000c3c0   ARM Code       0  QtCore{00040703}-1784.o(StubCode)
    QObject::connect(const QObject*, const char*, const QObject*, const char*, Qt::ConnectionType) 0x0000c3c8   ARM Code       0  QtCore{00040703}-1785.o(StubCode)
    QObject::QObject(QObject*)               0x0000c3d0   ARM Code       0  QtCore{00040703}-1789.o(StubCode)
    QObject::~QObject()                      0x0000c3d8   ARM Code       0  QtCore{00040703}-1794.o(StubCode)
    QString::fromLatin1(const char*, int)    0x0000c3e0   ARM Code       0  QtCore{00040703}-1814.o(StubCode)
    QString::fromLatin1_helper(const char*, int) 0x0000c3e8   ARM Code       0  QtCore{00040703}-1826.o(StubCode)
    QString::free(QString::Data*)            0x0000c3f0   ARM Code       0  QtCore{00040703}-1830.o(StubCode)
    QString::fromAscii(const char*, int)     0x0000c3f8   ARM Code       0  QtCore{00040703}-1874.o(StubCode)
    QString::operator =(const QString&)      0x0000c400   ARM Code       0  QtCore{00040703}-1885.o(StubCode)
    QVariant::QVariant(QVariant::Type)       0x0000c408   ARM Code       0  QtCore{00040703}-2011.o(StubCode)
    QVariant::QVariant(const QString&)       0x0000c410   ARM Code       0  QtCore{00040703}-2034.o(StubCode)
    QVariant::QVariant(const QVariant&)      0x0000c418   ARM Code       0  QtCore{00040703}-2037.o(StubCode)
    QVariant::QVariant(int, const void*, unsigned) 0x0000c420   ARM Code       0  QtCore{00040703}-2042.o(StubCode)
    QVariant::~QVariant()                    0x0000c428   ARM Code       0  QtCore{00040703}-2082.o(StubCode)
    QVariant::operator =(const QVariant&)    0x0000c430   ARM Code       0  QtCore{00040703}-2084.o(StubCode)
    QHashData::free_helper(void(*)(QHashData::Node*)) 0x0000c438   ARM Code       0  QtCore{00040703}-2134.o(StubCode)
    QHashData::rehash(int)                   0x0000c440   ARM Code       0  QtCore{00040703}-2141.o(StubCode)
    QHashData::nextNode(QHashData::Node*)    0x0000c448   ARM Code       0  QtCore{00040703}-2143.o(StubCode)
    QListData::append()                      0x0000c450   ARM Code       0  QtCore{00040703}-2188.o(StubCode)
    QMetaType::registerType(const char*, void(*)(void*), void*(*)(const void*)) 0x0000c458   ARM Code       0  QtCore{00040703}-2199.o(StubCode)
    QMetaObject::enumerator(int) const       0x0000c460   ARM Code       0  QtCore{00040703}-2395.o(StubCode)
    QMetaObject::tr(const char*, const char*) const 0x0000c468   ARM Code       0  QtCore{00040703}-2416.o(StubCode)
    QAbstractItemModel::headerData(int, Qt::Orientation, int) const 0x0000c470   ARM Code       0  QtCore{00040703}-2672.o(StubCode)
    QAbstractItemModel::canFetchMore(const QModelIndex&) const 0x0000c478   ARM Code       0  QtCore{00040703}-2675.o(StubCode)
    QAbstractItemModel::supportedDropActions() const 0x0000c480   ARM Code       0  QtCore{00040703}-2678.o(StubCode)
    QAbstractItemModel::span(const QModelIndex&) const 0x0000c488   ARM Code       0  QtCore{00040703}-2679.o(StubCode)
    QAbstractItemModel::buddy(const QModelIndex&) const 0x0000c490   ARM Code       0  QtCore{00040703}-2680.o(StubCode)
    QAbstractItemModel::flags(const QModelIndex&) const 0x0000c498   ARM Code       0  QtCore{00040703}-2681.o(StubCode)
    QAbstractItemModel::match(const QModelIndex&, int, const QVariant&, int, QFlags<Qt::MatchFlag>) const 0x0000c4a0   ARM Code       0  QtCore{00040703}-2682.o(StubCode)
    QAbstractItemModel::itemData(const QModelIndex&) const 0x0000c4a8   ARM Code       0  QtCore{00040703}-2684.o(StubCode)
    QAbstractItemModel::mimeData(const QList<QModelIndex>&) const 0x0000c4b0   ARM Code       0  QtCore{00040703}-2685.o(StubCode)
    QAbstractItemModel::mimeTypes() const    0x0000c4b8   ARM Code       0  QtCore{00040703}-2686.o(StubCode)
    QAbstractListModel::columnCount(const QModelIndex&) const 0x0000c4c0   ARM Code       0  QtCore{00040703}-2689.o(StubCode)
    QAbstractListModel::hasChildren(const QModelIndex&) const 0x0000c4c8   ARM Code       0  QtCore{00040703}-2690.o(StubCode)
    QAbstractListModel::parent(const QModelIndex&) const 0x0000c4d0   ARM Code       0  QtCore{00040703}-2692.o(StubCode)
    QMetaObject::changeGuard(QObject**, QObject*) 0x0000c4d8   ARM Code       0  QtCore{00040703}-274.o(StubCode)
    QMetaObject::removeGuard(QObject**)      0x0000c4e0   ARM Code       0  QtCore{00040703}-275.o(StubCode)
    QMetaObject::activate(QObject*, const QMetaObject*, int, void**) 0x0000c4e8   ARM Code       0  QtCore{00040703}-282.o(StubCode)
    QString::toLocal8Bit() const             0x0000c4f0   ARM Code       0  QtCore{00040703}-3040.o(StubCode)
    QString::arg(const QString&, int, const QChar&) const 0x0000c4f8   ARM Code       0  QtCore{00040703}-3049.o(StubCode)
    QString::toLatin1() const                0x0000c500   ARM Code       0  QtCore{00040703}-3095.o(StubCode)
    QString::operator ==(const QLatin1String&) const 0x0000c508   ARM Code       0  QtCore{00040703}-3097.o(StubCode)
    QString::operator ==(const QString&) const 0x0000c510   ARM Code       0  QtCore{00040703}-3098.o(StubCode)
    QVariant::cmp(const QVariant&) const     0x0000c518   ARM Code       0  QtCore{00040703}-3136.o(StubCode)
    QVariant::type() const                   0x0000c520   ARM Code       0  QtCore{00040703}-3138.o(StubCode)
    QVariant::isNull() const                 0x0000c528   ARM Code       0  QtCore{00040703}-3142.o(StubCode)
    QVariant::toString() const               0x0000c530   ARM Code       0  QtCore{00040703}-3163.o(StubCode)
    QVariant::userType() const               0x0000c538   ARM Code       0  QtCore{00040703}-3165.o(StubCode)
    QVariant::constData() const              0x0000c540   ARM Code       0  QtCore{00040703}-3166.o(StubCode)
    QMetaEnum::keyToValue(const char*) const 0x0000c548   ARM Code       0  QtCore{00040703}-3240.o(StubCode)
    QMetaEnum::valueToKey(int) const         0x0000c550   ARM Code       0  QtCore{00040703}-3241.o(StubCode)
    QTextStream::operator <<(const QString&) 0x0000c558   ARM Code       0  QtCore{00040703}-331.o(StubCode)
    QTextStream::operator <<(char)           0x0000c560   ARM Code       0  QtCore{00040703}-332.o(StubCode)
    QVectorData::free(QVectorData*, int)     0x0000c568   ARM Code       0  QtCore{00040703}-3584.o(StubCode)
    QVectorData::allocate(int, int)          0x0000c570   ARM Code       0  QtCore{00040703}-3585.o(StubCode)
    QHashData::allocateNode(int)             0x0000c578   ARM Code       0  QtCore{00040703}-3609.o(StubCode)
    QHashData::detach_helper2(void(*)(QHashData::Node*, void*), void(*)(QHashData::Node*), int, int) 0x0000c580   ARM Code       0  QtCore{00040703}-3610.o(StubCode)
    QListData::detach_grow(int*, int)        0x0000c588   ARM Code       0  QtCore{00040703}-3689.o(StubCode)
    QListData::detach(int)                   0x0000c590   ARM Code       0  QtCore{00040703}-3691.o(StubCode)
    QMetaType::registerTypedef(const char*, int) 0x0000c598   ARM Code       0  QtCore{00040703}-3692.o(StubCode)
    QVectorData::grow(int, int, int, bool)   0x0000c5a0   ARM Code       0  QtCore{00040703}-392.o(StubCode)
    QBasicAtomicPointer_testAndSetOrdered(void*volatile *, void*, void*) 0x0000c5a8   ARM Code       0  QtCore{00040703}-56.o(StubCode)
    qFree(void*)                             0x0000c5b0   ARM Code       0  QtCore{00040703}-70.o(StubCode)
    QtSharedPointer::ExternalRefCountData::getAndRef(const QObject*) 0x0000c5b8   ARM Code       0  QtCore{00040703}-741.o(StubCode)
    QCoreApplication::postEvent(QObject*, QEvent*) 0x0000c5c0   ARM Code       0  QtCore{00040703}-794.o(StubCode)
    QAbstractItemModel::insertRows(int, int, const QModelIndex&) 0x0000c5c8   ARM Code       0  QtCore{00040703}-988.o(StubCode)
    QAbstractItemModel::removeRows(int, int, const QModelIndex&) 0x0000c5d0   ARM Code       0  QtCore{00040703}-990.o(StubCode)
    QAbstractItemModel::dataChanged(const QModelIndex&, const QModelIndex&) 0x0000c5d8   ARM Code       0  QtCore{00040703}-991.o(StubCode)
    QAbstractItemModel::endMoveRows()        0x0000c5e0   ARM Code       0  QtCore{00040703}-992.o(StubCode)
    QAbstractItemModel::setItemData(const QModelIndex&, const QMap<int, QVariant>&) 0x0000c5e8   ARM Code       0  QtCore{00040703}-996.o(StubCode)
    strcmp                                   0x0000c5f0   ARM Code       0  libc{00010000}-350.o(StubCode)
    User::LockedDec(int&)                    0x0000c5f8   ARM Code       0  euser{000a0000}-670.o(StubCode)
    User::LockedInc(int&)                    0x0000c600   ARM Code       0  euser{000a0000}-671.o(StubCode)
    __aeabi_fdiv                             0x0000c608   ARM Code       0  dfpaeabi{000a0000}-36.o(StubCode)
    __aeabi_i2f                              0x0000c610   ARM Code       0  dfpaeabi{000a0000}-42.o(StubCode)
    __aeabi_memcpy4                          0x0000c618   ARM Code       0  drtaeabi{000a0000}-147.o(StubCode)
    __aeabi_uidivmod                         0x0000c620   ARM Code       0  drtaeabi{000a0000}-155.o(StubCode)
    __aeabi_unwind_cpp_pr0                   0x0000c628   ARM Code       0  drtaeabi{000a0000}-158.o(StubCode)
    __cxa_begin_catch                        0x0000c630   ARM Code       0  drtaeabi{000a0000}-180.o(StubCode)
    __cxa_end_catch                          0x0000c638   ARM Code       0  drtaeabi{000a0000}-183.o(StubCode)
    __cxa_end_cleanup                        0x0000c640   ARM Code       0  drtaeabi{000a0000}-184.o(StubCode)
    __cxa_guard_abort                        0x0000c648   ARM Code       0  drtaeabi{000a0000}-186.o(StubCode)
    __cxa_guard_acquire                      0x0000c650   ARM Code       0  drtaeabi{000a0000}-187.o(StubCode)
    __cxa_guard_release                      0x0000c658   ARM Code       0  drtaeabi{000a0000}-188.o(StubCode)
    __cxa_pure_virtual                       0x0000c660   ARM Code       0  drtaeabi{000a0000}-189.o(StubCode)
    __cxa_rethrow                            0x0000c668   ARM Code       0  drtaeabi{000a0000}-190.o(StubCode)
    __ARM_switch8                            0x0000c670   ARM Code       0  drtrvct2_2{000a0000}-28.o(StubCode)
    qScriptValueFromValue_helper(QScriptEngine*, int, const void*) 0x0000c679   Thumb Code    18  declarative_gallery.in(i._Z28qScriptValueFromValue_helperP13QScriptEngineiPKv)
    QByteArray::QByteArray(const QByteArray&) 0x0000c68b   Thumb Code    16  declarative_gallery.in(i._ZN10QByteArrayC1ERKS_)
    QByteArray::QByteArray__sub_object(const QByteArray&) 0x0000c68b   Thumb Code     0  declarative_gallery.in(i._ZN10QByteArrayC1ERKS_)
    QByteArray::~QByteArray()                0x0000c69b   Thumb Code    24  declarative_gallery.in(i._ZN10QByteArrayD1Ev)
    QByteArray::~QByteArray__sub_object()    0x0000c69b   Thumb Code     0  declarative_gallery.in(i._ZN10QByteArrayD1Ev)
    QtMobility::QGalleryDeclarativeModule::registerTypes(const char*) 0x0000c6b5   Thumb Code   616  declarative_gallery.in(i._ZN10QtMobility25QGalleryDeclarativeModule13registerTypesEPKc)
    QtMobility::QGalleryDeclarativeModule::~QGalleryDeclarativeModule__deallocating() 0x0000c927   Thumb Code    16  declarative_gallery.in(i._ZN10QtMobility25QGalleryDeclarativeModuleD0Ev)
    QtMobility::QGalleryDeclarativeModule::~QGalleryDeclarativeModule() 0x0000c937   Thumb Code     8  declarative_gallery.in(i._ZN10QtMobility25QGalleryDeclarativeModuleD1Ev)
    QtMobility::QGalleryDeclarativeModule::~QGalleryDeclarativeModule__sub_object() 0x0000c937   Thumb Code     0  declarative_gallery.in(i._ZN10QtMobility25QGalleryDeclarativeModuleD1Ev)
    QtMobility::QDeclarativeGalleryFilterBase::QDeclarativeGalleryFilterBase__sub_object(QObject*) 0x0000c941   Thumb Code    12  declarative_gallery.in(i._ZN10QtMobility29QDeclarativeGalleryFilterBaseC2EP7QObject)
    QtMobility::QDeclarativeGalleryFilterBase::~QDeclarativeGalleryFilterBase__deallocating() 0x0000c951   Thumb Code    16  declarative_gallery.in(i._ZN10QtMobility29QDeclarativeGalleryFilterBaseD0Ev)
    QtMobility::QDeclarativeGalleryFilterBase::~QDeclarativeGalleryFilterBase() 0x0000c961   Thumb Code     0  declarative_gallery.in(i._ZN10QtMobility29QDeclarativeGalleryFilterBaseD2Ev)
    QtMobility::QDeclarativeGalleryFilterBase::~QDeclarativeGalleryFilterBase__sub_object() 0x0000c961   Thumb Code     8  declarative_gallery.in(i._ZN10QtMobility29QDeclarativeGalleryFilterBaseD2Ev)
    QtMobility::QDeclarativeGalleryQueryModel::tr(const char*, const char*) 0x0000c969   Thumb Code    14  declarative_gallery.in(i._ZN10QtMobility29QDeclarativeGalleryQueryModel2trEPKcS2_)
    QtMobility::QDeclarativeGalleryFilterGroup::QDeclarativeGalleryFilterGroup__sub_object(QObject*) 0x0000c97d   Thumb Code    48  declarative_gallery.in(i._ZN10QtMobility30QDeclarativeGalleryFilterGroupC2EP7QObject)
    QtMobility::QDeclarativeGalleryFilterGroup::~QDeclarativeGalleryFilterGroup__deallocating() 0x0000c9cb   Thumb Code    16  declarative_gallery.in(i._ZN10QtMobility30QDeclarativeGalleryFilterGroupD0Ev)
    QtMobility::QDeclarativeGalleryFilterGroup::~QDeclarativeGalleryFilterGroup() 0x0000c9dd   Thumb Code     0  declarative_gallery.in(i._ZN10QtMobility30QDeclarativeGalleryFilterGroupD2Ev)
    QtMobility::QDeclarativeGalleryFilterGroup::~QDeclarativeGalleryFilterGroup__sub_object() 0x0000c9dd   Thumb Code    40  declarative_gallery.in(i._ZN10QtMobility30QDeclarativeGalleryFilterGroupD2Ev)
    QtMobility::QDeclarativeGalleryFilterUnion::~QDeclarativeGalleryFilterUnion__deallocating() 0x0000ca1f   Thumb Code    16  declarative_gallery.in(i._ZN10QtMobility30QDeclarativeGalleryFilterUnionD0Ev)
    QtMobility::QDeclarativeGalleryFilterUnion::~QDeclarativeGalleryFilterUnion() 0x0000ca2f   Thumb Code     8  declarative_gallery.in(i._ZN10QtMobility30QDeclarativeGalleryFilterUnionD1Ev)
    QtMobility::QDeclarativeGalleryFilterUnion::~QDeclarativeGalleryFilterUnion__sub_object() 0x0000ca2f   Thumb Code     0  declarative_gallery.in(i._ZN10QtMobility30QDeclarativeGalleryFilterUnionD1Ev)
    QtMobility::QDeclarativeGalleryValueFilter::QDeclarativeGalleryValueFilter(QtMobility::QGalleryFilter::Comparator, QObject*) 0x0000ca39   Thumb Code    42  declarative_gallery.in(i._ZN10QtMobility30QDeclarativeGalleryValueFilterC1ENS_14QGalleryFilter10ComparatorEP7QObject)
    QtMobility::QDeclarativeGalleryValueFilter::QDeclarativeGalleryValueFilter__sub_object(QtMobility::QGalleryFilter::Comparator, QObject*) 0x0000ca39   Thumb Code     0  declarative_gallery.in(i._ZN10QtMobility30QDeclarativeGalleryValueFilterC1ENS_14QGalleryFilter10ComparatorEP7QObject)
    QtMobility::QDeclarativeGalleryValueFilter::~QDeclarativeGalleryValueFilter__deallocating() 0x0000ca7f   Thumb Code    16  declarative_gallery.in(i._ZN10QtMobility30QDeclarativeGalleryValueFilterD0Ev)
    QtMobility::QDeclarativeGalleryValueFilter::~QDeclarativeGalleryValueFilter() 0x0000ca91   Thumb Code    24  declarative_gallery.in(i._ZN10QtMobility30QDeclarativeGalleryValueFilterD1Ev)
    QtMobility::QDeclarativeGalleryValueFilter::~QDeclarativeGalleryValueFilter__sub_object() 0x0000ca91   Thumb Code     0  declarative_gallery.in(i._ZN10QtMobility30QDeclarativeGalleryValueFilterD1Ev)
    QtMobility::QDeclarativeGalleryEqualsFilter::~QDeclarativeGalleryEqualsFilter__deallocating() 0x0000cab7   Thumb Code    16  declarative_gallery.in(i._ZN10QtMobility31QDeclarativeGalleryEqualsFilterD0Ev)
    QtMobility::QDeclarativeGalleryEqualsFilter::~QDeclarativeGalleryEqualsFilter() 0x0000cac7   Thumb Code     8  declarative_gallery.in(i._ZN10QtMobility31QDeclarativeGalleryEqualsFilterD1Ev)
    QtMobility::QDeclarativeGalleryEqualsFilter::~QDeclarativeGalleryEqualsFilter__sub_object() 0x0000cac7   Thumb Code     0  declarative_gallery.in(i._ZN10QtMobility31QDeclarativeGalleryEqualsFilterD1Ev)
    QtMobility::QDeclarativeGalleryStringFilter::QDeclarativeGalleryStringFilter(QtMobility::QGalleryFilter::Comparator, QObject*) 0x0000cad1   Thumb Code    42  declarative_gallery.in(i._ZN10QtMobility31QDeclarativeGalleryStringFilterC1ENS_14QGalleryFilter10ComparatorEP7QObject)
    QtMobility::QDeclarativeGalleryStringFilter::QDeclarativeGalleryStringFilter__sub_object(QtMobility::QGalleryFilter::Comparator, QObject*) 0x0000cad1   Thumb Code     0  declarative_gallery.in(i._ZN10QtMobility31QDeclarativeGalleryStringFilterC1ENS_14QGalleryFilter10ComparatorEP7QObject)
    QtMobility::QDeclarativeGalleryStringFilter::~QDeclarativeGalleryStringFilter__deallocating() 0x0000cb17   Thumb Code    16  declarative_gallery.in(i._ZN10QtMobility31QDeclarativeGalleryStringFilterD0Ev)
    QtMobility::QDeclarativeGalleryStringFilter::~QDeclarativeGalleryStringFilter() 0x0000cb29   Thumb Code    24  declarative_gallery.in(i._ZN10QtMobility31QDeclarativeGalleryStringFilterD1Ev)
    QtMobility::QDeclarativeGalleryStringFilter::~QDeclarativeGalleryStringFilter__sub_object() 0x0000cb29   Thumb Code     0  declarative_gallery.in(i._ZN10QtMobility31QDeclarativeGalleryStringFilterD1Ev)
    QtMobility::QDeclarativeGalleryContainsFilter::~QDeclarativeGalleryContainsFilter__deallocating() 0x0000cb4f   Thumb Code    16  declarative_gallery.in(i._ZN10QtMobility33QDeclarativeGalleryContainsFilterD0Ev)
    QtMobility::QDeclarativeGalleryContainsFilter::~QDeclarativeGalleryContainsFilter() 0x0000cb5f   Thumb Code     8  declarative_gallery.in(i._ZN10QtMobility33QDeclarativeGalleryContainsFilterD1Ev)
    QtMobility::QDeclarativeGalleryContainsFilter::~QDeclarativeGalleryContainsFilter__sub_object() 0x0000cb5f   Thumb Code     0  declarative_gallery.in(i._ZN10QtMobility33QDeclarativeGalleryContainsFilterD1Ev)
    QtMobility::QDeclarativeGalleryEndsWithFilter::~QDeclarativeGalleryEndsWithFilter__deallocating() 0x0000cb67   Thumb Code    16  declarative_gallery.in(i._ZN10QtMobility33QDeclarativeGalleryEndsWithFilterD0Ev)
    QtMobility::QDeclarativeGalleryEndsWithFilter::~QDeclarativeGalleryEndsWithFilter() 0x0000cb77   Thumb Code     8  declarative_gallery.in(i._ZN10QtMobility33QDeclarativeGalleryEndsWithFilterD1Ev)
    QtMobility::QDeclarativeGalleryEndsWithFilter::~QDeclarativeGalleryEndsWithFilter__sub_object() 0x0000cb77   Thumb Code     0  declarative_gallery.in(i._ZN10QtMobility33QDeclarativeGalleryEndsWithFilterD1Ev)
    QtMobility::QDeclarativeGalleryLessThanFilter::~QDeclarativeGalleryLessThanFilter__deallocating() 0x0000cb7f   Thumb Code    16  declarative_gallery.in(i._ZN10QtMobility33QDeclarativeGalleryLessThanFilterD0Ev)
    QtMobility::QDeclarativeGalleryLessThanFilter::~QDeclarativeGalleryLessThanFilter() 0x0000cb8f   Thumb Code     8  declarative_gallery.in(i._ZN10QtMobility33QDeclarativeGalleryLessThanFilterD1Ev)
    QtMobility::QDeclarativeGalleryLessThanFilter::~QDeclarativeGalleryLessThanFilter__sub_object() 0x0000cb8f   Thumb Code     0  declarative_gallery.in(i._ZN10QtMobility33QDeclarativeGalleryLessThanFilterD1Ev)
    QtMobility::QDeclarativeGalleryWildcardFilter::~QDeclarativeGalleryWildcardFilter__deallocating() 0x0000cb97   Thumb Code    16  declarative_gallery.in(i._ZN10QtMobility33QDeclarativeGalleryWildcardFilterD0Ev)
    QtMobility::QDeclarativeGalleryWildcardFilter::~QDeclarativeGalleryWildcardFilter() 0x0000cba7   Thumb Code     8  declarative_gallery.in(i._ZN10QtMobility33QDeclarativeGalleryWildcardFilterD1Ev)
    QtMobility::QDeclarativeGalleryWildcardFilter::~QDeclarativeGalleryWildcardFilter__sub_object() 0x0000cba7   Thumb Code     0  declarative_gallery.in(i._ZN10QtMobility33QDeclarativeGalleryWildcardFilterD1Ev)
    QtMobility::QDeclarativeGalleryStartsWithFilter::~QDeclarativeGalleryStartsWithFilter__deallocating() 0x0000cbaf   Thumb Code    16  declarative_gallery.in(i._ZN10QtMobility35QDeclarativeGalleryStartsWithFilterD0Ev)
    QtMobility::QDeclarativeGalleryStartsWithFilter::~QDeclarativeGalleryStartsWithFilter() 0x0000cbbf   Thumb Code     8  declarative_gallery.in(i._ZN10QtMobility35QDeclarativeGalleryStartsWithFilterD1Ev)
    QtMobility::QDeclarativeGalleryStartsWithFilter::~QDeclarativeGalleryStartsWithFilter__sub_object() 0x0000cbbf   Thumb Code     0  declarative_gallery.in(i._ZN10QtMobility35QDeclarativeGalleryStartsWithFilterD1Ev)
    QtMobility::QDeclarativeGalleryGreaterThanFilter::~QDeclarativeGalleryGreaterThanFilter__deallocating() 0x0000cbc7   Thumb Code    16  declarative_gallery.in(i._ZN10QtMobility36QDeclarativeGalleryGreaterThanFilterD0Ev)
    QtMobility::QDeclarativeGalleryGreaterThanFilter::~QDeclarativeGalleryGreaterThanFilter() 0x0000cbd7   Thumb Code     8  declarative_gallery.in(i._ZN10QtMobility36QDeclarativeGalleryGreaterThanFilterD1Ev)
    QtMobility::QDeclarativeGalleryGreaterThanFilter::~QDeclarativeGalleryGreaterThanFilter__sub_object() 0x0000cbd7   Thumb Code     0  declarative_gallery.in(i._ZN10QtMobility36QDeclarativeGalleryGreaterThanFilterD1Ev)
    QtMobility::QDeclarativeGalleryFilterIntersection::~QDeclarativeGalleryFilterIntersection__deallocating() 0x0000cbdf   Thumb Code    16  declarative_gallery.in(i._ZN10QtMobility37QDeclarativeGalleryFilterIntersectionD0Ev)
    QtMobility::QDeclarativeGalleryFilterIntersection::~QDeclarativeGalleryFilterIntersection() 0x0000cbef   Thumb Code     8  declarative_gallery.in(i._ZN10QtMobility37QDeclarativeGalleryFilterIntersectionD1Ev)
    QtMobility::QDeclarativeGalleryFilterIntersection::~QDeclarativeGalleryFilterIntersection__sub_object() 0x0000cbef   Thumb Code     0  declarative_gallery.in(i._ZN10QtMobility37QDeclarativeGalleryFilterIntersectionD1Ev)
    QtMobility::QDeclarativeGalleryLessThanEqualsFilter::~QDeclarativeGalleryLessThanEqualsFilter__deallocating() 0x0000cbf7   Thumb Code    16  declarative_gallery.in(i._ZN10QtMobility39QDeclarativeGalleryLessThanEqualsFilterD0Ev)
    QtMobility::QDeclarativeGalleryLessThanEqualsFilter::~QDeclarativeGalleryLessThanEqualsFilter() 0x0000cc07   Thumb Code     8  declarative_gallery.in(i._ZN10QtMobility39QDeclarativeGalleryLessThanEqualsFilterD1Ev)
    QtMobility::QDeclarativeGalleryLessThanEqualsFilter::~QDeclarativeGalleryLessThanEqualsFilter__sub_object() 0x0000cc07   Thumb Code     0  declarative_gallery.in(i._ZN10QtMobility39QDeclarativeGalleryLessThanEqualsFilterD1Ev)
    QtMobility::QDeclarativeGalleryGreaterThanEqualsFilter::~QDeclarativeGalleryGreaterThanEqualsFilter__deallocating() 0x0000cc0f   Thumb Code    16  declarative_gallery.in(i._ZN10QtMobility42QDeclarativeGalleryGreaterThanEqualsFilterD0Ev)
    QtMobility::QDeclarativeGalleryGreaterThanEqualsFilter::~QDeclarativeGalleryGreaterThanEqualsFilter() 0x0000cc1f   Thumb Code     8  declarative_gallery.in(i._ZN10QtMobility42QDeclarativeGalleryGreaterThanEqualsFilterD1Ev)
    QtMobility::QDeclarativeGalleryGreaterThanEqualsFilter::~QDeclarativeGalleryGreaterThanEqualsFilter__sub_object() 0x0000cc1f   Thumb Code     0  declarative_gallery.in(i._ZN10QtMobility42QDeclarativeGalleryGreaterThanEqualsFilterD1Ev)
    QModelIndex::QModelIndex()               0x0000cc27   Thumb Code    16  declarative_gallery.in(i._ZN11QModelIndexC1Ev)
    QModelIndex::QModelIndex__sub_object()   0x0000cc27   Thumb Code     0  declarative_gallery.in(i._ZN11QModelIndexC1Ev)
    QModelIndex::~QModelIndex()              0x0000cc37   Thumb Code     8  declarative_gallery.in(i._ZN11QModelIndexD1Ev)
    QModelIndex::~QModelIndex__sub_object()  0x0000cc37   Thumb Code     0  declarative_gallery.in(i._ZN11QModelIndexD1Ev)
    QStringList::~QStringList()              0x0000cc3f   Thumb Code     8  declarative_gallery.in(i._ZN11QStringListD1Ev)
    QStringList::~QStringList__sub_object()  0x0000cc3f   Thumb Code     0  declarative_gallery.in(i._ZN11QStringListD1Ev)
    QStringList::operator =(const QStringList&) 0x0000cc47   Thumb Code    56  declarative_gallery.in(i._ZN11QStringListaSERKS_)
    QBasicAtomicInt::ref()                   0x0000cc7f   Thumb Code    18  declarative_gallery.in(i._ZN15QBasicAtomicInt3refEv)
    QBasicAtomicInt::deref()                 0x0000cc91   Thumb Code    18  declarative_gallery.in(i._ZN15QBasicAtomicInt5derefEv)
    QDeclarativeInfo::operator <<(const QString&) 0x0000cca3   Thumb Code    62  declarative_gallery.in(i._ZN16QDeclarativeInfolsERK7QString)
    QDeclarativePrivate::RegisterType::~RegisterType() 0x0000ccf3   Thumb Code    12  declarative_gallery.in(i._ZN19QDeclarativePrivate12RegisterTypeD1Ev)
    QDeclarativePrivate::RegisterType::~RegisterType__sub_object() 0x0000ccf3   Thumb Code     0  declarative_gallery.in(i._ZN19QDeclarativePrivate12RegisterTypeD1Ev)
    QDeclarativePrivate::QDeclarativeElement<QtMobility::QDeclarativeGalleryFilterUnion>::~QDeclarativeElement__deallocating() 0x0000ccff   Thumb Code    16  declarative_gallery.in(i._ZN19QDeclarativePrivate19QDeclarativeElementIN10QtMobility30QDeclarativeGalleryFilterUnionEED0Ev)
    QDeclarativePrivate::QDeclarativeElement<QtMobility::QDeclarativeDocumentGalleryItem>::~QDeclarativeElement__deallocating() 0x0000cd0f   Thumb Code    16  declarative_gallery.in(i._ZN19QDeclarativePrivate19QDeclarativeElementIN10QtMobility31QDeclarativeDocumentGalleryItemEED0Ev)
    QDeclarativePrivate::QDeclarativeElement<QtMobility::QDeclarativeDocumentGalleryType>::~QDeclarativeElement__deallocating() 0x0000cd1f   Thumb Code    16  declarative_gallery.in(i._ZN19QDeclarativePrivate19QDeclarativeElementIN10QtMobility31QDeclarativeDocumentGalleryTypeEED0Ev)
    QDeclarativePrivate::QDeclarativeElement<QtMobility::QDeclarativeGalleryEqualsFilter>::~QDeclarativeElement__deallocating() 0x0000cd2f   Thumb Code    16  declarative_gallery.in(i._ZN19QDeclarativePrivate19QDeclarativeElementIN10QtMobility31QDeclarativeGalleryEqualsFilterEED0Ev)
    QDeclarativePrivate::QDeclarativeElement<QtMobility::QDeclarativeDocumentGalleryModel>::~QDeclarativeElement__deallocating() 0x0000cd3f   Thumb Code    16  declarative_gallery.in(i._ZN19QDeclarativePrivate19QDeclarativeElementIN10QtMobility32QDeclarativeDocumentGalleryModelEED0Ev)
    QDeclarativePrivate::QDeclarativeElement<QtMobility::QDeclarativeGalleryContainsFilter>::~QDeclarativeElement__deallocating() 0x0000cd4f   Thumb Code    16  declarative_gallery.in(i._ZN19QDeclarativePrivate19QDeclarativeElementIN10QtMobility33QDeclarativeGalleryContainsFilterEED0Ev)
    QDeclarativePrivate::QDeclarativeElement<QtMobility::QDeclarativeGalleryEndsWithFilter>::~QDeclarativeElement__deallocating() 0x0000cd5f   Thumb Code    16  declarative_gallery.in(i._ZN19QDeclarativePrivate19QDeclarativeElementIN10QtMobility33QDeclarativeGalleryEndsWithFilterEED0Ev)
    QDeclarativePrivate::QDeclarativeElement<QtMobility::QDeclarativeGalleryLessThanFilter>::~QDeclarativeElement__deallocating() 0x0000cd6f   Thumb Code    16  declarative_gallery.in(i._ZN19QDeclarativePrivate19QDeclarativeElementIN10QtMobility33QDeclarativeGalleryLessThanFilterEED0Ev)
    QDeclarativePrivate::QDeclarativeElement<QtMobility::QDeclarativeGalleryWildcardFilter>::~QDeclarativeElement__deallocating() 0x0000cd7f   Thumb Code    16  declarative_gallery.in(i._ZN19QDeclarativePrivate19QDeclarativeElementIN10QtMobility33QDeclarativeGalleryWildcardFilterEED0Ev)
    QDeclarativePrivate::QDeclarativeElement<QtMobility::QDeclarativeGalleryStartsWithFilter>::~QDeclarativeElement__deallocating() 0x0000cd8f   Thumb Code    16  declarative_gallery.in(i._ZN19QDeclarativePrivate19QDeclarativeElementIN10QtMobility35QDeclarativeGalleryStartsWithFilterEED0Ev)
    QDeclarativePrivate::QDeclarativeElement<QtMobility::QDeclarativeGalleryGreaterThanFilter>::~QDeclarativeElement__deallocating() 0x0000cd9f   Thumb Code    16  declarative_gallery.in(i._ZN19QDeclarativePrivate19QDeclarativeElementIN10QtMobility36QDeclarativeGalleryGreaterThanFilterEED0Ev)
    QDeclarativePrivate::QDeclarativeElement<QtMobility::QDeclarativeGalleryFilterIntersection>::~QDeclarativeElement__deallocating() 0x0000cdaf   Thumb Code    16  declarative_gallery.in(i._ZN19QDeclarativePrivate19QDeclarativeElementIN10QtMobility37QDeclarativeGalleryFilterIntersectionEED0Ev)
    QDeclarativePrivate::QDeclarativeElement<QtMobility::QDeclarativeGalleryLessThanEqualsFilter>::~QDeclarativeElement__deallocating() 0x0000cdbf   Thumb Code    16  declarative_gallery.in(i._ZN19QDeclarativePrivate19QDeclarativeElementIN10QtMobility39QDeclarativeGalleryLessThanEqualsFilterEED0Ev)
    QDeclarativePrivate::QDeclarativeElement<QtMobility::QDeclarativeGalleryGreaterThanEqualsFilter>::~QDeclarativeElement__deallocating() 0x0000cdcf   Thumb Code    16  declarative_gallery.in(i._ZN19QDeclarativePrivate19QDeclarativeElementIN10QtMobility42QDeclarativeGalleryGreaterThanEqualsFilterEED0Ev)
    QPair<int, QString>::QPair(const QPair<int, QString>&) 0x0000cddf   Thumb Code    14  declarative_gallery.in(i._ZN5QPairIi7QStringEC1ERKS1_)
    QPair<int, QString>::QPair__sub_object(const QPair<int, QString>&) 0x0000cddf   Thumb Code     0  declarative_gallery.in(i._ZN5QPairIi7QStringEC1ERKS1_)
    QPair<int, QString>::~QPair()            0x0000cded   Thumb Code    12  declarative_gallery.in(i._ZN5QPairIi7QStringED1Ev)
    QPair<int, QString>::~QPair__sub_object() 0x0000cded   Thumb Code     0  declarative_gallery.in(i._ZN5QPairIi7QStringED1Ev)
    QString::QString(const QLatin1String&)   0x0000cdf9   Thumb Code    20  declarative_gallery.in(i._ZN7QStringC1ERK13QLatin1String)
    QString::QString__sub_object(const QLatin1String&) 0x0000cdf9   Thumb Code     0  declarative_gallery.in(i._ZN7QStringC1ERK13QLatin1String)
    QString::QString(const QString&)         0x0000ce0d   Thumb Code    16  declarative_gallery.in(i._ZN7QStringC1ERKS_)
    QString::QString__sub_object(const QString&) 0x0000ce0d   Thumb Code     0  declarative_gallery.in(i._ZN7QStringC1ERKS_)
    QString::QString()                       0x0000ce1d   Thumb Code    16  declarative_gallery.in(i._ZN7QStringC1Ev)
    QString::QString__sub_object()           0x0000ce1d   Thumb Code     0  declarative_gallery.in(i._ZN7QStringC1Ev)
    QString::~QString()                      0x0000ce31   Thumb Code    24  declarative_gallery.in(i._ZN7QStringD1Ev)
    QString::~QString__sub_object()          0x0000ce31   Thumb Code     0  declarative_gallery.in(i._ZN7QStringD1Ev)
    QVariant::QVariant()                     0x0000ce49   Thumb Code    24  declarative_gallery.in(i._ZN8QVariantC1Ev)
    QVariant::QVariant__sub_object()         0x0000ce49   Thumb Code     0  declarative_gallery.in(i._ZN8QVariantC1Ev)
    QModelIndex::isValid() const             0x0000ce61   Thumb Code    26  declarative_gallery.in(i._ZNK11QModelIndex7isValidEv)
    QBasicAtomicInt::operator ==(int) const  0x0000ce7b   Thumb Code    14  declarative_gallery.in(i._ZNK15QBasicAtomicInteqEi)
    QBasicAtomicInt::operator !=(int) const  0x0000ce89   Thumb Code    14  declarative_gallery.in(i._ZNK15QBasicAtomicIntneEi)
    QBasicAtomicInt::operator !() const      0x0000ce97   Thumb Code    14  declarative_gallery.in(i._ZNK15QBasicAtomicIntntEv)
    QString::isEmpty() const                 0x0000cea5   Thumb Code    16  declarative_gallery.in(i._ZNK7QString7isEmptyEv)
    QString::operator !=(const QString&) const 0x0000ceb5   Thumb Code    12  declarative_gallery.in(i._ZNK7QStringneERKS_)
    QVariant::isValid() const                0x0000cec1   Thumb Code    14  declarative_gallery.in(i._ZNK8QVariant7isValidEv)
    QListData::end() const                   0x0000cecf   Thumb Code    12  declarative_gallery.in(i._ZNK9QListData3endEv)
    QListData::begin() const                 0x0000cedb   Thumb Code    12  declarative_gallery.in(i._ZNK9QListData5beginEv)
    thunk{-8} to QtMobility::QGalleryDeclarativeModule::registerTypes(const char*) 0x0000cee7   Thumb Code    10  declarative_gallery.in(i._ZThn8_N10QtMobility25QGalleryDeclarativeModule13registerTypesEPKc)
    thunk{-8} to QtMobility::QGalleryDeclarativeModule::~QGalleryDeclarativeModule__deallocating() 0x0000cef1   Thumb Code    10  declarative_gallery.in(i._ZThn8_N10QtMobility25QGalleryDeclarativeModuleD0Ev)
    thunk{-8} to QtMobility::QGalleryDeclarativeModule::~QGalleryDeclarativeModule() 0x0000cefb   Thumb Code    10  declarative_gallery.in(i._ZThn8_N10QtMobility25QGalleryDeclarativeModuleD1Ev)
    thunk{-8} to QtMobility::QDeclarativeGalleryFilterGroup::~QDeclarativeGalleryFilterGroup__deallocating() 0x0000cf05   Thumb Code    10  declarative_gallery.in(i._ZThn8_N10QtMobility30QDeclarativeGalleryFilterGroupD0Ev)
    thunk{-8} to QtMobility::QDeclarativeGalleryFilterGroup::~QDeclarativeGalleryFilterGroup() 0x0000cf0f   Thumb Code    10  declarative_gallery.in(i._ZThn8_N10QtMobility30QDeclarativeGalleryFilterGroupD1Ev)
    thunk{-8} to QtMobility::QDeclarativeGalleryFilterUnion::~QDeclarativeGalleryFilterUnion__deallocating() 0x0000cf19   Thumb Code    10  declarative_gallery.in(i._ZThn8_N10QtMobility30QDeclarativeGalleryFilterUnionD0Ev)
    thunk{-8} to QtMobility::QDeclarativeGalleryFilterUnion::~QDeclarativeGalleryFilterUnion() 0x0000cf23   Thumb Code    10  declarative_gallery.in(i._ZThn8_N10QtMobility30QDeclarativeGalleryFilterUnionD1Ev)
    thunk{-8} to QtMobility::QDeclarativeGalleryFilterIntersection::~QDeclarativeGalleryFilterIntersection__deallocating() 0x0000cf2d   Thumb Code    10  declarative_gallery.in(i._ZThn8_N10QtMobility37QDeclarativeGalleryFilterIntersectionD0Ev)
    thunk{-8} to QtMobility::QDeclarativeGalleryFilterIntersection::~QDeclarativeGalleryFilterIntersection() 0x0000cf37   Thumb Code    10  declarative_gallery.in(i._ZThn8_N10QtMobility37QDeclarativeGalleryFilterIntersectionD1Ev)
    thunk{-8} to QDeclarativePrivate::QDeclarativeElement<QtMobility::QDeclarativeGalleryFilterUnion>::~QDeclarativeElement__deallocating() 0x0000cf41   Thumb Code    10  declarative_gallery.in(i._ZThn8_N19QDeclarativePrivate19QDeclarativeElementIN10QtMobility30QDeclarativeGalleryFilterUnionEED0Ev)
    thunk{-8} to QDeclarativePrivate::QDeclarativeElement<QtMobility::QDeclarativeGalleryFilterUnion>::~QDeclarativeElement() 0x0000cf4b   Thumb Code    10  declarative_gallery.in(i._ZThn8_N19QDeclarativePrivate19QDeclarativeElementIN10QtMobility30QDeclarativeGalleryFilterUnionEED1Ev)
    thunk{-8} to QDeclarativePrivate::QDeclarativeElement<QtMobility::QDeclarativeDocumentGalleryItem>::~QDeclarativeElement__deallocating() 0x0000cf55   Thumb Code    10  declarative_gallery.in(i._ZThn8_N19QDeclarativePrivate19QDeclarativeElementIN10QtMobility31QDeclarativeDocumentGalleryItemEED0Ev)
    thunk{-8} to QDeclarativePrivate::QDeclarativeElement<QtMobility::QDeclarativeDocumentGalleryItem>::~QDeclarativeElement() 0x0000cf5f   Thumb Code    10  declarative_gallery.in(i._ZThn8_N19QDeclarativePrivate19QDeclarativeElementIN10QtMobility31QDeclarativeDocumentGalleryItemEED1Ev)
    thunk{-8} to QDeclarativePrivate::QDeclarativeElement<QtMobility::QDeclarativeDocumentGalleryType>::~QDeclarativeElement__deallocating() 0x0000cf69   Thumb Code    10  declarative_gallery.in(i._ZThn8_N19QDeclarativePrivate19QDeclarativeElementIN10QtMobility31QDeclarativeDocumentGalleryTypeEED0Ev)
    thunk{-8} to QDeclarativePrivate::QDeclarativeElement<QtMobility::QDeclarativeDocumentGalleryType>::~QDeclarativeElement() 0x0000cf73   Thumb Code    10  declarative_gallery.in(i._ZThn8_N19QDeclarativePrivate19QDeclarativeElementIN10QtMobility31QDeclarativeDocumentGalleryTypeEED1Ev)
    thunk{-8} to QDeclarativePrivate::QDeclarativeElement<QtMobility::QDeclarativeDocumentGalleryModel>::~QDeclarativeElement__deallocating() 0x0000cf7d   Thumb Code    10  declarative_gallery.in(i._ZThn8_N19QDeclarativePrivate19QDeclarativeElementIN10QtMobility32QDeclarativeDocumentGalleryModelEED0Ev)
    thunk{-8} to QDeclarativePrivate::QDeclarativeElement<QtMobility::QDeclarativeDocumentGalleryModel>::~QDeclarativeElement() 0x0000cf87   Thumb Code    10  declarative_gallery.in(i._ZThn8_N19QDeclarativePrivate19QDeclarativeElementIN10QtMobility32QDeclarativeDocumentGalleryModelEED1Ev)
    thunk{-8} to QDeclarativePrivate::QDeclarativeElement<QtMobility::QDeclarativeGalleryFilterIntersection>::~QDeclarativeElement__deallocating() 0x0000cf91   Thumb Code    10  declarative_gallery.in(i._ZThn8_N19QDeclarativePrivate19QDeclarativeElementIN10QtMobility37QDeclarativeGalleryFilterIntersectionEED0Ev)
    thunk{-8} to QDeclarativePrivate::QDeclarativeElement<QtMobility::QDeclarativeGalleryFilterIntersection>::~QDeclarativeElement() 0x0000cf9b   Thumb Code    10  declarative_gallery.in(i._ZThn8_N19QDeclarativePrivate19QDeclarativeElementIN10QtMobility37QDeclarativeGalleryFilterIntersectionEED1Ev)
    operator delete (void*, void*)           0x0000cfa5   Thumb Code     2  declarative_gallery.in(i._ZdlPvS_)
    operator new(unsigned, void*)            0x0000cfa7   Thumb Code     4  declarative_gallery.in(i._ZnwjPv)
    operator +(const char*, const QByteArray&) 0x0000cfab   Thumb Code    34  declarative_gallery.in(i._ZplPKcRK10QByteArray)
    operator +(const QByteArray&, const char*) 0x0000cfd7   Thumb Code    34  declarative_gallery.in(i._ZplRK10QByteArrayPKc)
    operator +(const QByteArray&, char)      0x0000d003   Thumb Code    34  declarative_gallery.in(i._ZplRK10QByteArrayc)
    qmlRegisterType<QtMobility::QDeclarativeGalleryFilterBase>() 0x0000d031   Thumb Code   172  declarative_gallery.in(t._Z15qmlRegisterTypeIN10QtMobility29QDeclarativeGalleryFilterBaseEEiv)
    qmlRegisterType<QtMobility::QDeclarativeGalleryFilterUnion>(const char*, int, int, const char*) 0x0000d131   Thumb Code   186  declarative_gallery.in(t._Z15qmlRegisterTypeIN10QtMobility30QDeclarativeGalleryFilterUnionEEiPKciiS3_)
    qmlRegisterType<QtMobility::QDeclarativeDocumentGalleryItem>(const char*, int, int, const char*) 0x0000d241   Thumb Code   186  declarative_gallery.in(t._Z15qmlRegisterTypeIN10QtMobility31QDeclarativeDocumentGalleryItemEEiPKciiS3_)
    qmlRegisterType<QtMobility::QDeclarativeDocumentGalleryType>(const char*, int, int, const char*) 0x0000d351   Thumb Code   186  declarative_gallery.in(t._Z15qmlRegisterTypeIN10QtMobility31QDeclarativeDocumentGalleryTypeEEiPKciiS3_)
    qmlRegisterType<QtMobility::QDeclarativeGalleryEqualsFilter>(const char*, int, int, const char*) 0x0000d461   Thumb Code   184  declarative_gallery.in(t._Z15qmlRegisterTypeIN10QtMobility31QDeclarativeGalleryEqualsFilterEEiPKciiS3_)
    qmlRegisterType<QtMobility::QDeclarativeDocumentGalleryModel>(const char*, int, int, const char*) 0x0000d56d   Thumb Code   186  declarative_gallery.in(t._Z15qmlRegisterTypeIN10QtMobility32QDeclarativeDocumentGalleryModelEEiPKciiS3_)
    qmlRegisterType<QtMobility::QDeclarativeGalleryContainsFilter>(const char*, int, int, const char*) 0x0000d67d   Thumb Code   184  declarative_gallery.in(t._Z15qmlRegisterTypeIN10QtMobility33QDeclarativeGalleryContainsFilterEEiPKciiS3_)
    qmlRegisterType<QtMobility::QDeclarativeGalleryEndsWithFilter>(const char*, int, int, const char*) 0x0000d789   Thumb Code   184  declarative_gallery.in(t._Z15qmlRegisterTypeIN10QtMobility33QDeclarativeGalleryEndsWithFilterEEiPKciiS3_)
    qmlRegisterType<QtMobility::QDeclarativeGalleryLessThanFilter>(const char*, int, int, const char*) 0x0000d895   Thumb Code   184  declarative_gallery.in(t._Z15qmlRegisterTypeIN10QtMobility33QDeclarativeGalleryLessThanFilterEEiPKciiS3_)
    qmlRegisterType<QtMobility::QDeclarativeGalleryWildcardFilter>(const char*, int, int, const char*) 0x0000d9a1   Thumb Code   184  declarative_gallery.in(t._Z15qmlRegisterTypeIN10QtMobility33QDeclarativeGalleryWildcardFilterEEiPKciiS3_)
    qmlRegisterType<QtMobility::QDeclarativeGalleryStartsWithFilter>(const char*, int, int, const char*) 0x0000daad   Thumb Code   184  declarative_gallery.in(t._Z15qmlRegisterTypeIN10QtMobility35QDeclarativeGalleryStartsWithFilterEEiPKciiS3_)
    qmlRegisterType<QtMobility::QDeclarativeGalleryGreaterThanFilter>(const char*, int, int, const char*) 0x0000dbb9   Thumb Code   184  declarative_gallery.in(t._Z15qmlRegisterTypeIN10QtMobility36QDeclarativeGalleryGreaterThanFilterEEiPKciiS3_)
    qmlRegisterType<QtMobility::QDeclarativeGalleryFilterIntersection>(const char*, int, int, const char*) 0x0000dcc5   Thumb Code   186  declarative_gallery.in(t._Z15qmlRegisterTypeIN10QtMobility37QDeclarativeGalleryFilterIntersectionEEiPKciiS3_)
    qmlRegisterType<QtMobility::QDeclarativeGalleryLessThanEqualsFilter>(const char*, int, int, const char*) 0x0000ddd5   Thumb Code   184  declarative_gallery.in(t._Z15qmlRegisterTypeIN10QtMobility39QDeclarativeGalleryLessThanEqualsFilterEEiPKciiS3_)
    qmlRegisterType<QtMobility::QDeclarativeGalleryGreaterThanEqualsFilter>(const char*, int, int, const char*) 0x0000dee1   Thumb Code   184  declarative_gallery.in(t._Z15qmlRegisterTypeIN10QtMobility42QDeclarativeGalleryGreaterThanEqualsFilterEEiPKciiS3_)
    qRegisterMetaType<QDeclarativeListProperty<QtMobility::QDeclarativeGalleryFilterBase>>(const char*, T1*) 0x0000dfed   Thumb Code    64  declarative_gallery.in(t._Z17qRegisterMetaTypeI24QDeclarativeListPropertyIN10QtMobility29QDeclarativeGalleryFilterBaseEEEiPKcPT_)
    qRegisterMetaType<QDeclarativeListProperty<QtMobility::QDeclarativeGalleryFilterUnion>>(const char*, T1*) 0x0000e03d   Thumb Code    64  declarative_gallery.in(t._Z17qRegisterMetaTypeI24QDeclarativeListPropertyIN10QtMobility30QDeclarativeGalleryFilterUnionEEEiPKcPT_)
    qRegisterMetaType<QDeclarativeListProperty<QtMobility::QDeclarativeDocumentGalleryItem>>(const char*, T1*) 0x0000e08d   Thumb Code    64  declarative_gallery.in(t._Z17qRegisterMetaTypeI24QDeclarativeListPropertyIN10QtMobility31QDeclarativeDocumentGalleryItemEEEiPKcPT_)
    qRegisterMetaType<QDeclarativeListProperty<QtMobility::QDeclarativeDocumentGalleryType>>(const char*, T1*) 0x0000e0dd   Thumb Code    64  declarative_gallery.in(t._Z17qRegisterMetaTypeI24QDeclarativeListPropertyIN10QtMobility31QDeclarativeDocumentGalleryTypeEEEiPKcPT_)
    qRegisterMetaType<QDeclarativeListProperty<QtMobility::QDeclarativeGalleryEqualsFilter>>(const char*, T1*) 0x0000e12d   Thumb Code    64  declarative_gallery.in(t._Z17qRegisterMetaTypeI24QDeclarativeListPropertyIN10QtMobility31QDeclarativeGalleryEqualsFilterEEEiPKcPT_)
    qRegisterMetaType<QDeclarativeListProperty<QtMobility::QDeclarativeDocumentGalleryModel>>(const char*, T1*) 0x0000e17d   Thumb Code    64  declarative_gallery.in(t._Z17qRegisterMetaTypeI24QDeclarativeListPropertyIN10QtMobility32QDeclarativeDocumentGalleryModelEEEiPKcPT_)
    qRegisterMetaType<QDeclarativeListProperty<QtMobility::QDeclarativeGalleryContainsFilter>>(const char*, T1*) 0x0000e1cd   Thumb Code    64  declarative_gallery.in(t._Z17qRegisterMetaTypeI24QDeclarativeListPropertyIN10QtMobility33QDeclarativeGalleryContainsFilterEEEiPKcPT_)
    qRegisterMetaType<QDeclarativeListProperty<QtMobility::QDeclarativeGalleryEndsWithFilter>>(const char*, T1*) 0x0000e21d   Thumb Code    64  declarative_gallery.in(t._Z17qRegisterMetaTypeI24QDeclarativeListPropertyIN10QtMobility33QDeclarativeGalleryEndsWithFilterEEEiPKcPT_)
    qRegisterMetaType<QDeclarativeListProperty<QtMobility::QDeclarativeGalleryLessThanFilter>>(const char*, T1*) 0x0000e26d   Thumb Code    64  declarative_gallery.in(t._Z17qRegisterMetaTypeI24QDeclarativeListPropertyIN10QtMobility33QDeclarativeGalleryLessThanFilterEEEiPKcPT_)
    qRegisterMetaType<QDeclarativeListProperty<QtMobility::QDeclarativeGalleryWildcardFilter>>(const char*, T1*) 0x0000e2bd   Thumb Code    64  declarative_gallery.in(t._Z17qRegisterMetaTypeI24QDeclarativeListPropertyIN10QtMobility33QDeclarativeGalleryWildcardFilterEEEiPKcPT_)
    qRegisterMetaType<QDeclarativeListProperty<QtMobility::QDeclarativeGalleryStartsWithFilter>>(const char*, T1*) 0x0000e30d   Thumb Code    64  declarative_gallery.in(t._Z17qRegisterMetaTypeI24QDeclarativeListPropertyIN10QtMobility35QDeclarativeGalleryStartsWithFilterEEEiPKcPT_)
    qRegisterMetaType<QDeclarativeListProperty<QtMobility::QDeclarativeGalleryGreaterThanFilter>>(const char*, T1*) 0x0000e35d   Thumb Code    64  declarative_gallery.in(t._Z17qRegisterMetaTypeI24QDeclarativeListPropertyIN10QtMobility36QDeclarativeGalleryGreaterThanFilterEEEiPKcPT_)
    qRegisterMetaType<QDeclarativeListProperty<QtMobility::QDeclarativeGalleryFilterIntersection>>(const char*, T1*) 0x0000e3ad   Thumb Code    64  declarative_gallery.in(t._Z17qRegisterMetaTypeI24QDeclarativeListPropertyIN10QtMobility37QDeclarativeGalleryFilterIntersectionEEEiPKcPT_)
    qRegisterMetaType<QDeclarativeListProperty<QtMobility::QDeclarativeGalleryLessThanEqualsFilter>>(const char*, T1*) 0x0000e3fd   Thumb Code    64  declarative_gallery.in(t._Z17qRegisterMetaTypeI24QDeclarativeListPropertyIN10QtMobility39QDeclarativeGalleryLessThanEqualsFilterEEEiPKcPT_)
    qRegisterMetaType<QDeclarativeListProperty<QtMobility::QDeclarativeGalleryGreaterThanEqualsFilter>>(const char*, T1*) 0x0000e44d   Thumb Code    64  declarative_gallery.in(t._Z17qRegisterMetaTypeI24QDeclarativeListPropertyIN10QtMobility42QDeclarativeGalleryGreaterThanEqualsFilterEEEiPKcPT_)
    qRegisterMetaType<QtMobility::QDeclarativeDocumentGallery::ItemType>(const char*, T1*) 0x0000e49d   Thumb Code    44  declarative_gallery.in(t._Z17qRegisterMetaTypeIN10QtMobility27QDeclarativeDocumentGallery8ItemTypeEEiPKcPT_)
    qRegisterMetaType<QtMobility::QDeclarativeGalleryFilterBase*>(const char*, T1*) 0x0000e4d1   Thumb Code    64  declarative_gallery.in(t._Z17qRegisterMetaTypeIPN10QtMobility29QDeclarativeGalleryFilterBaseEEiPKcPT_)
    qRegisterMetaType<QtMobility::QDeclarativeGalleryFilterUnion*>(const char*, T1*) 0x0000e54d   Thumb Code    64  declarative_gallery.in(t._Z17qRegisterMetaTypeIPN10QtMobility30QDeclarativeGalleryFilterUnionEEiPKcPT_)
    qRegisterMetaType<QtMobility::QDeclarativeDocumentGalleryItem*>(const char*, T1*) 0x0000e5c9   Thumb Code    64  declarative_gallery.in(t._Z17qRegisterMetaTypeIPN10QtMobility31QDeclarativeDocumentGalleryItemEEiPKcPT_)
    qRegisterMetaType<QtMobility::QDeclarativeDocumentGalleryType*>(const char*, T1*) 0x0000e645   Thumb Code    64  declarative_gallery.in(t._Z17qRegisterMetaTypeIPN10QtMobility31QDeclarativeDocumentGalleryTypeEEiPKcPT_)
    qRegisterMetaType<QtMobility::QDeclarativeGalleryEqualsFilter*>(const char*, T1*) 0x0000e6c1   Thumb Code    64  declarative_gallery.in(t._Z17qRegisterMetaTypeIPN10QtMobility31QDeclarativeGalleryEqualsFilterEEiPKcPT_)
    qRegisterMetaType<QtMobility::QDeclarativeDocumentGalleryModel*>(const char*, T1*) 0x0000e73d   Thumb Code    64  declarative_gallery.in(t._Z17qRegisterMetaTypeIPN10QtMobility32QDeclarativeDocumentGalleryModelEEiPKcPT_)
    qRegisterMetaType<QtMobility::QDeclarativeGalleryContainsFilter*>(const char*, T1*) 0x0000e7bd   Thumb Code    64  declarative_gallery.in(t._Z17qRegisterMetaTypeIPN10QtMobility33QDeclarativeGalleryContainsFilterEEiPKcPT_)
    qRegisterMetaType<QtMobility::QDeclarativeGalleryEndsWithFilter*>(const char*, T1*) 0x0000e83d   Thumb Code    64  declarative_gallery.in(t._Z17qRegisterMetaTypeIPN10QtMobility33QDeclarativeGalleryEndsWithFilterEEiPKcPT_)
    qRegisterMetaType<QtMobility::QDeclarativeGalleryLessThanFilter*>(const char*, T1*) 0x0000e8bd   Thumb Code    64  declarative_gallery.in(t._Z17qRegisterMetaTypeIPN10QtMobility33QDeclarativeGalleryLessThanFilterEEiPKcPT_)
    qRegisterMetaType<QtMobility::QDeclarativeGalleryWildcardFilter*>(const char*, T1*) 0x0000e93d   Thumb Code    64  declarative_gallery.in(t._Z17qRegisterMetaTypeIPN10QtMobility33QDeclarativeGalleryWildcardFilterEEiPKcPT_)
    qRegisterMetaType<QtMobility::QDeclarativeGalleryStartsWithFilter*>(const char*, T1*) 0x0000e9bd   Thumb Code    64  declarative_gallery.in(t._Z17qRegisterMetaTypeIPN10QtMobility35QDeclarativeGalleryStartsWithFilterEEiPKcPT_)
    qRegisterMetaType<QtMobility::QDeclarativeGalleryGreaterThanFilter*>(const char*, T1*) 0x0000ea3d   Thumb Code    64  declarative_gallery.in(t._Z17qRegisterMetaTypeIPN10QtMobility36QDeclarativeGalleryGreaterThanFilterEEiPKcPT_)
    qRegisterMetaType<QtMobility::QDeclarativeGalleryFilterIntersection*>(const char*, T1*) 0x0000eac1   Thumb Code    64  declarative_gallery.in(t._Z17qRegisterMetaTypeIPN10QtMobility37QDeclarativeGalleryFilterIntersectionEEiPKcPT_)
    qRegisterMetaType<QtMobility::QDeclarativeGalleryLessThanEqualsFilter*>(const char*, T1*) 0x0000eb45   Thumb Code    64  declarative_gallery.in(t._Z17qRegisterMetaTypeIPN10QtMobility39QDeclarativeGalleryLessThanEqualsFilterEEiPKcPT_)
    qRegisterMetaType<QtMobility::QDeclarativeGalleryGreaterThanEqualsFilter*>(const char*, T1*) 0x0000ebc9   Thumb Code    64  declarative_gallery.in(t._Z17qRegisterMetaTypeIPN10QtMobility42QDeclarativeGalleryGreaterThanEqualsFilterEEiPKcPT_)
    qMetaTypeDeleteHelper<QDeclarativeListProperty<QtMobility::QDeclarativeDocumentGallery>>(T1*) 0x0000ec51   Thumb Code     8  declarative_gallery.in(t._Z21qMetaTypeDeleteHelperI24QDeclarativeListPropertyIN10QtMobility27QDeclarativeDocumentGalleryEEEvPT_)
    qMetaTypeDeleteHelper<QDeclarativeListProperty<QtMobility::QDeclarativeGalleryFilterBase>>(T1*) 0x0000ec59   Thumb Code     8  declarative_gallery.in(t._Z21qMetaTypeDeleteHelperI24QDeclarativeListPropertyIN10QtMobility29QDeclarativeGalleryFilterBaseEEEvPT_)
    qMetaTypeDeleteHelper<QDeclarativeListProperty<QtMobility::QDeclarativeGalleryFilterUnion>>(T1*) 0x0000ec61   Thumb Code     8  declarative_gallery.in(t._Z21qMetaTypeDeleteHelperI24QDeclarativeListPropertyIN10QtMobility30QDeclarativeGalleryFilterUnionEEEvPT_)
    qMetaTypeDeleteHelper<QDeclarativeListProperty<QtMobility::QDeclarativeDocumentGalleryItem>>(T1*) 0x0000ec69   Thumb Code     8  declarative_gallery.in(t._Z21qMetaTypeDeleteHelperI24QDeclarativeListPropertyIN10QtMobility31QDeclarativeDocumentGalleryItemEEEvPT_)
    qMetaTypeDeleteHelper<QDeclarativeListProperty<QtMobility::QDeclarativeDocumentGalleryType>>(T1*) 0x0000ec71   Thumb Code     8  declarative_gallery.in(t._Z21qMetaTypeDeleteHelperI24QDeclarativeListPropertyIN10QtMobility31QDeclarativeDocumentGalleryTypeEEEvPT_)
    qMetaTypeDeleteHelper<QDeclarativeListProperty<QtMobility::QDeclarativeGalleryEqualsFilter>>(T1*) 0x0000ec79   Thumb Code     8  declarative_gallery.in(t._Z21qMetaTypeDeleteHelperI24QDeclarativeListPropertyIN10QtMobility31QDeclarativeGalleryEqualsFilterEEEvPT_)
    qMetaTypeDeleteHelper<QDeclarativeListProperty<QtMobility::QDeclarativeDocumentGalleryModel>>(T1*) 0x0000ec81   Thumb Code     8  declarative_gallery.in(t._Z21qMetaTypeDeleteHelperI24QDeclarativeListPropertyIN10QtMobility32QDeclarativeDocumentGalleryModelEEEvPT_)
    qMetaTypeDeleteHelper<QDeclarativeListProperty<QtMobility::QDeclarativeGalleryContainsFilter>>(T1*) 0x0000ec89   Thumb Code     8  declarative_gallery.in(t._Z21qMetaTypeDeleteHelperI24QDeclarativeListPropertyIN10QtMobility33QDeclarativeGalleryContainsFilterEEEvPT_)
    qMetaTypeDeleteHelper<QDeclarativeListProperty<QtMobility::QDeclarativeGalleryEndsWithFilter>>(T1*) 0x0000ec91   Thumb Code     8  declarative_gallery.in(t._Z21qMetaTypeDeleteHelperI24QDeclarativeListPropertyIN10QtMobility33QDeclarativeGalleryEndsWithFilterEEEvPT_)
    qMetaTypeDeleteHelper<QDeclarativeListProperty<QtMobility::QDeclarativeGalleryLessThanFilter>>(T1*) 0x0000ec99   Thumb Code     8  declarative_gallery.in(t._Z21qMetaTypeDeleteHelperI24QDeclarativeListPropertyIN10QtMobility33QDeclarativeGalleryLessThanFilterEEEvPT_)
    qMetaTypeDeleteHelper<QDeclarativeListProperty<QtMobility::QDeclarativeGalleryWildcardFilter>>(T1*) 0x0000eca1   Thumb Code     8  declarative_gallery.in(t._Z21qMetaTypeDeleteHelperI24QDeclarativeListPropertyIN10QtMobility33QDeclarativeGalleryWildcardFilterEEEvPT_)
    qMetaTypeDeleteHelper<QDeclarativeListProperty<QtMobility::QDeclarativeGalleryStartsWithFilter>>(T1*) 0x0000eca9   Thumb Code     8  declarative_gallery.in(t._Z21qMetaTypeDeleteHelperI24QDeclarativeListPropertyIN10QtMobility35QDeclarativeGalleryStartsWithFilterEEEvPT_)
    qMetaTypeDeleteHelper<QDeclarativeListProperty<QtMobility::QDeclarativeGalleryGreaterThanFilter>>(T1*) 0x0000ecb1   Thumb Code     8  declarative_gallery.in(t._Z21qMetaTypeDeleteHelperI24QDeclarativeListPropertyIN10QtMobility36QDeclarativeGalleryGreaterThanFilterEEEvPT_)
    qMetaTypeDeleteHelper<QDeclarativeListProperty<QtMobility::QDeclarativeGalleryFilterIntersection>>(T1*) 0x0000ecb9   Thumb Code     8  declarative_gallery.in(t._Z21qMetaTypeDeleteHelperI24QDeclarativeListPropertyIN10QtMobility37QDeclarativeGalleryFilterIntersectionEEEvPT_)
    qMetaTypeDeleteHelper<QDeclarativeListProperty<QtMobility::QDeclarativeGalleryLessThanEqualsFilter>>(T1*) 0x0000ecc1   Thumb Code     8  declarative_gallery.in(t._Z21qMetaTypeDeleteHelperI24QDeclarativeListPropertyIN10QtMobility39QDeclarativeGalleryLessThanEqualsFilterEEEvPT_)
    qMetaTypeDeleteHelper<QDeclarativeListProperty<QtMobility::QDeclarativeGalleryGreaterThanEqualsFilter>>(T1*) 0x0000ecc9   Thumb Code     8  declarative_gallery.in(t._Z21qMetaTypeDeleteHelperI24QDeclarativeListPropertyIN10QtMobility42QDeclarativeGalleryGreaterThanEqualsFilterEEEvPT_)
    qMetaTypeDeleteHelper<QtMobility::QDeclarativeDocumentGallery::ItemType>(T1*) 0x0000ecd1   Thumb Code     8  declarative_gallery.in(t._Z21qMetaTypeDeleteHelperIN10QtMobility27QDeclarativeDocumentGallery8ItemTypeEEvPT_)
    qMetaTypeDeleteHelper<QtMobility::QDeclarativeDocumentGallery*>(T1*) 0x0000ecd9   Thumb Code     8  declarative_gallery.in(t._Z21qMetaTypeDeleteHelperIPN10QtMobility27QDeclarativeDocumentGalleryEEvPT_)
    qMetaTypeDeleteHelper<QtMobility::QDeclarativeGalleryFilterBase*>(T1*) 0x0000ece1   Thumb Code     8  declarative_gallery.in(t._Z21qMetaTypeDeleteHelperIPN10QtMobility29QDeclarativeGalleryFilterBaseEEvPT_)
    qMetaTypeDeleteHelper<QtMobility::QDeclarativeGalleryFilterUnion*>(T1*) 0x0000ece9   Thumb Code     8  declarative_gallery.in(t._Z21qMetaTypeDeleteHelperIPN10QtMobility30QDeclarativeGalleryFilterUnionEEvPT_)
    qMetaTypeDeleteHelper<QtMobility::QDeclarativeDocumentGalleryItem*>(T1*) 0x0000ecf1   Thumb Code     8  declarative_gallery.in(t._Z21qMetaTypeDeleteHelperIPN10QtMobility31QDeclarativeDocumentGalleryItemEEvPT_)
    qMetaTypeDeleteHelper<QtMobility::QDeclarativeDocumentGalleryType*>(T1*) 0x0000ecf9   Thumb Code     8  declarative_gallery.in(t._Z21qMetaTypeDeleteHelperIPN10QtMobility31QDeclarativeDocumentGalleryTypeEEvPT_)
    qMetaTypeDeleteHelper<QtMobility::QDeclarativeGalleryEqualsFilter*>(T1*) 0x0000ed01   Thumb Code     8  declarative_gallery.in(t._Z21qMetaTypeDeleteHelperIPN10QtMobility31QDeclarativeGalleryEqualsFilterEEvPT_)
    qMetaTypeDeleteHelper<QtMobility::QDeclarativeDocumentGalleryModel*>(T1*) 0x0000ed09   Thumb Code     8  declarative_gallery.in(t._Z21qMetaTypeDeleteHelperIPN10QtMobility32QDeclarativeDocumentGalleryModelEEvPT_)
    qMetaTypeDeleteHelper<QtMobility::QDeclarativeGalleryContainsFilter*>(T1*) 0x0000ed11   Thumb Code     8  declarative_gallery.in(t._Z21qMetaTypeDeleteHelperIPN10QtMobility33QDeclarativeGalleryContainsFilterEEvPT_)
    qMetaTypeDeleteHelper<QtMobility::QDeclarativeGalleryEndsWithFilter*>(T1*) 0x0000ed19   Thumb Code     8  declarative_gallery.in(t._Z21qMetaTypeDeleteHelperIPN10QtMobility33QDeclarativeGalleryEndsWithFilterEEvPT_)
    qMetaTypeDeleteHelper<QtMobility::QDeclarativeGalleryLessThanFilter*>(T1*) 0x0000ed21   Thumb Code     8  declarative_gallery.in(t._Z21qMetaTypeDeleteHelperIPN10QtMobility33QDeclarativeGalleryLessThanFilterEEvPT_)
    qMetaTypeDeleteHelper<QtMobility::QDeclarativeGalleryWildcardFilter*>(T1*) 0x0000ed29   Thumb Code     8  declarative_gallery.in(t._Z21qMetaTypeDeleteHelperIPN10QtMobility33QDeclarativeGalleryWildcardFilterEEvPT_)
    qMetaTypeDeleteHelper<QtMobility::QDeclarativeGalleryStartsWithFilter*>(T1*) 0x0000ed31   Thumb Code     8  declarative_gallery.in(t._Z21qMetaTypeDeleteHelperIPN10QtMobility35QDeclarativeGalleryStartsWithFilterEEvPT_)
    qMetaTypeDeleteHelper<QtMobility::QDeclarativeGalleryGreaterThanFilter*>(T1*) 0x0000ed39   Thumb Code     8  declarative_gallery.in(t._Z21qMetaTypeDeleteHelperIPN10QtMobility36QDeclarativeGalleryGreaterThanFilterEEvPT_)
    qMetaTypeDeleteHelper<QtMobility::QDeclarativeGalleryFilterIntersection*>(T1*) 0x0000ed41   Thumb Code     8  declarative_gallery.in(t._Z21qMetaTypeDeleteHelperIPN10QtMobility37QDeclarativeGalleryFilterIntersectionEEvPT_)
    qMetaTypeDeleteHelper<QtMobility::QDeclarativeGalleryLessThanEqualsFilter*>(T1*) 0x0000ed49   Thumb Code     8  declarative_gallery.in(t._Z21qMetaTypeDeleteHelperIPN10QtMobility39QDeclarativeGalleryLessThanEqualsFilterEEvPT_)
    qMetaTypeDeleteHelper<QtMobility::QDeclarativeGalleryGreaterThanEqualsFilter*>(T1*) 0x0000ed51   Thumb Code     8  declarative_gallery.in(t._Z21qMetaTypeDeleteHelperIPN10QtMobility42QDeclarativeGalleryGreaterThanEqualsFilterEEvPT_)
    qScriptValueFromValue<QVariant>(QScriptEngine*, const T1&) 0x0000ed59   Thumb Code    70  declarative_gallery.in(t._Z21qScriptValueFromValueI8QVariantE12QScriptValueP13QScriptEngineRKT_)
    qMetaTypeConstructHelper<QDeclarativeListProperty<QtMobility::QDeclarativeDocumentGallery>>(const T1*) 0x0000edaf   Thumb Code    82  declarative_gallery.in(t._Z24qMetaTypeConstructHelperI24QDeclarativeListPropertyIN10QtMobility27QDeclarativeDocumentGalleryEEEPvPKT_)
    qMetaTypeConstructHelper<QDeclarativeListProperty<QtMobility::QDeclarativeGalleryFilterBase>>(const T1*) 0x0000ee01   Thumb Code    82  declarative_gallery.in(t._Z24qMetaTypeConstructHelperI24QDeclarativeListPropertyIN10QtMobility29QDeclarativeGalleryFilterBaseEEEPvPKT_)
    qMetaTypeConstructHelper<QDeclarativeListProperty<QtMobility::QDeclarativeGalleryFilterUnion>>(const T1*) 0x0000ee53   Thumb Code    82  declarative_gallery.in(t._Z24qMetaTypeConstructHelperI24QDeclarativeListPropertyIN10QtMobility30QDeclarativeGalleryFilterUnionEEEPvPKT_)
    qMetaTypeConstructHelper<QDeclarativeListProperty<QtMobility::QDeclarativeDocumentGalleryItem>>(const T1*) 0x0000eea5   Thumb Code    82  declarative_gallery.in(t._Z24qMetaTypeConstructHelperI24QDeclarativeListPropertyIN10QtMobility31QDeclarativeDocumentGalleryItemEEEPvPKT_)
    qMetaTypeConstructHelper<QDeclarativeListProperty<QtMobility::QDeclarativeDocumentGalleryType>>(const T1*) 0x0000eef7   Thumb Code    82  declarative_gallery.in(t._Z24qMetaTypeConstructHelperI24QDeclarativeListPropertyIN10QtMobility31QDeclarativeDocumentGalleryTypeEEEPvPKT_)
    qMetaTypeConstructHelper<QDeclarativeListProperty<QtMobility::QDeclarativeGalleryEqualsFilter>>(const T1*) 0x0000ef49   Thumb Code    82  declarative_gallery.in(t._Z24qMetaTypeConstructHelperI24QDeclarativeListPropertyIN10QtMobility31QDeclarativeGalleryEqualsFilterEEEPvPKT_)
    qMetaTypeConstructHelper<QDeclarativeListProperty<QtMobility::QDeclarativeDocumentGalleryModel>>(const T1*) 0x0000ef9b   Thumb Code    82  declarative_gallery.in(t._Z24qMetaTypeConstructHelperI24QDeclarativeListPropertyIN10QtMobility32QDeclarativeDocumentGalleryModelEEEPvPKT_)
    qMetaTypeConstructHelper<QDeclarativeListProperty<QtMobility::QDeclarativeGalleryContainsFilter>>(const T1*) 0x0000efed   Thumb Code    82  declarative_gallery.in(t._Z24qMetaTypeConstructHelperI24QDeclarativeListPropertyIN10QtMobility33QDeclarativeGalleryContainsFilterEEEPvPKT_)
    qMetaTypeConstructHelper<QDeclarativeListProperty<QtMobility::QDeclarativeGalleryEndsWithFilter>>(const T1*) 0x0000f03f   Thumb Code    82  declarative_gallery.in(t._Z24qMetaTypeConstructHelperI24QDeclarativeListPropertyIN10QtMobility33QDeclarativeGalleryEndsWithFilterEEEPvPKT_)
    qMetaTypeConstructHelper<QDeclarativeListProperty<QtMobility::QDeclarativeGalleryLessThanFilter>>(const T1*) 0x0000f091   Thumb Code    82  declarative_gallery.in(t._Z24qMetaTypeConstructHelperI24QDeclarativeListPropertyIN10QtMobility33QDeclarativeGalleryLessThanFilterEEEPvPKT_)
    qMetaTypeConstructHelper<QDeclarativeListProperty<QtMobility::QDeclarativeGalleryWildcardFilter>>(const T1*) 0x0000f0e3   Thumb Code    82  declarative_gallery.in(t._Z24qMetaTypeConstructHelperI24QDeclarativeListPropertyIN10QtMobility33QDeclarativeGalleryWildcardFilterEEEPvPKT_)
    qMetaTypeConstructHelper<QDeclarativeListProperty<QtMobility::QDeclarativeGalleryStartsWithFilter>>(const T1*) 0x0000f135   Thumb Code    82  declarative_gallery.in(t._Z24qMetaTypeConstructHelperI24QDeclarativeListPropertyIN10QtMobility35QDeclarativeGalleryStartsWithFilterEEEPvPKT_)
    qMetaTypeConstructHelper<QDeclarativeListProperty<QtMobility::QDeclarativeGalleryGreaterThanFilter>>(const T1*) 0x0000f187   Thumb Code    82  declarative_gallery.in(t._Z24qMetaTypeConstructHelperI24QDeclarativeListPropertyIN10QtMobility36QDeclarativeGalleryGreaterThanFilterEEEPvPKT_)
    qMetaTypeConstructHelper<QDeclarativeListProperty<QtMobility::QDeclarativeGalleryFilterIntersection>>(const T1*) 0x0000f1d9   Thumb Code    82  declarative_gallery.in(t._Z24qMetaTypeConstructHelperI24QDeclarativeListPropertyIN10QtMobility37QDeclarativeGalleryFilterIntersectionEEEPvPKT_)
    qMetaTypeConstructHelper<QDeclarativeListProperty<QtMobility::QDeclarativeGalleryLessThanEqualsFilter>>(const T1*) 0x0000f22b   Thumb Code    82  declarative_gallery.in(t._Z24qMetaTypeConstructHelperI24QDeclarativeListPropertyIN10QtMobility39QDeclarativeGalleryLessThanEqualsFilterEEEPvPKT_)
    qMetaTypeConstructHelper<QDeclarativeListProperty<QtMobility::QDeclarativeGalleryGreaterThanEqualsFilter>>(const T1*) 0x0000f27d   Thumb Code    82  declarative_gallery.in(t._Z24qMetaTypeConstructHelperI24QDeclarativeListPropertyIN10QtMobility42QDeclarativeGalleryGreaterThanEqualsFilterEEEPvPKT_)
    qMetaTypeConstructHelper<QtMobility::QDeclarativeDocumentGallery::ItemType>(const T1*) 0x0000f2cf   Thumb Code    34  declarative_gallery.in(t._Z24qMetaTypeConstructHelperIN10QtMobility27QDeclarativeDocumentGallery8ItemTypeEEPvPKT_)
    qMetaTypeConstructHelper<QtMobility::QDeclarativeDocumentGallery*>(const T1*) 0x0000f2f1   Thumb Code    34  declarative_gallery.in(t._Z24qMetaTypeConstructHelperIPN10QtMobility27QDeclarativeDocumentGalleryEEPvPKT_)
    qMetaTypeConstructHelper<QtMobility::QDeclarativeGalleryFilterBase*>(const T1*) 0x0000f313   Thumb Code    34  declarative_gallery.in(t._Z24qMetaTypeConstructHelperIPN10QtMobility29QDeclarativeGalleryFilterBaseEEPvPKT_)
    qMetaTypeConstructHelper<QtMobility::QDeclarativeGalleryFilterUnion*>(const T1*) 0x0000f335   Thumb Code    34  declarative_gallery.in(t._Z24qMetaTypeConstructHelperIPN10QtMobility30QDeclarativeGalleryFilterUnionEEPvPKT_)
    qMetaTypeConstructHelper<QtMobility::QDeclarativeDocumentGalleryItem*>(const T1*) 0x0000f357   Thumb Code    34  declarative_gallery.in(t._Z24qMetaTypeConstructHelperIPN10QtMobility31QDeclarativeDocumentGalleryItemEEPvPKT_)
    qMetaTypeConstructHelper<QtMobility::QDeclarativeDocumentGalleryType*>(const T1*) 0x0000f379   Thumb Code    34  declarative_gallery.in(t._Z24qMetaTypeConstructHelperIPN10QtMobility31QDeclarativeDocumentGalleryTypeEEPvPKT_)
    qMetaTypeConstructHelper<QtMobility::QDeclarativeGalleryEqualsFilter*>(const T1*) 0x0000f39b   Thumb Code    34  declarative_gallery.in(t._Z24qMetaTypeConstructHelperIPN10QtMobility31QDeclarativeGalleryEqualsFilterEEPvPKT_)
    qMetaTypeConstructHelper<QtMobility::QDeclarativeDocumentGalleryModel*>(const T1*) 0x0000f3bd   Thumb Code    34  declarative_gallery.in(t._Z24qMetaTypeConstructHelperIPN10QtMobility32QDeclarativeDocumentGalleryModelEEPvPKT_)
    qMetaTypeConstructHelper<QtMobility::QDeclarativeGalleryContainsFilter*>(const T1*) 0x0000f3df   Thumb Code    34  declarative_gallery.in(t._Z24qMetaTypeConstructHelperIPN10QtMobility33QDeclarativeGalleryContainsFilterEEPvPKT_)
    qMetaTypeConstructHelper<QtMobility::QDeclarativeGalleryEndsWithFilter*>(const T1*) 0x0000f401   Thumb Code    34  declarative_gallery.in(t._Z24qMetaTypeConstructHelperIPN10QtMobility33QDeclarativeGalleryEndsWithFilterEEPvPKT_)
    qMetaTypeConstructHelper<QtMobility::QDeclarativeGalleryLessThanFilter*>(const T1*) 0x0000f423   Thumb Code    34  declarative_gallery.in(t._Z24qMetaTypeConstructHelperIPN10QtMobility33QDeclarativeGalleryLessThanFilterEEPvPKT_)
    qMetaTypeConstructHelper<QtMobility::QDeclarativeGalleryWildcardFilter*>(const T1*) 0x0000f445   Thumb Code    34  declarative_gallery.in(t._Z24qMetaTypeConstructHelperIPN10QtMobility33QDeclarativeGalleryWildcardFilterEEPvPKT_)
    qMetaTypeConstructHelper<QtMobility::QDeclarativeGalleryStartsWithFilter*>(const T1*) 0x0000f467   Thumb Code    34  declarative_gallery.in(t._Z24qMetaTypeConstructHelperIPN10QtMobility35QDeclarativeGalleryStartsWithFilterEEPvPKT_)
    qMetaTypeConstructHelper<QtMobility::QDeclarativeGalleryGreaterThanFilter*>(const T1*) 0x0000f489   Thumb Code    34  declarative_gallery.in(t._Z24qMetaTypeConstructHelperIPN10QtMobility36QDeclarativeGalleryGreaterThanFilterEEPvPKT_)
    qMetaTypeConstructHelper<QtMobility::QDeclarativeGalleryFilterIntersection*>(const T1*) 0x0000f4ab   Thumb Code    34  declarative_gallery.in(t._Z24qMetaTypeConstructHelperIPN10QtMobility37QDeclarativeGalleryFilterIntersectionEEPvPKT_)
    qMetaTypeConstructHelper<QtMobility::QDeclarativeGalleryLessThanEqualsFilter*>(const T1*) 0x0000f4cd   Thumb Code    34  declarative_gallery.in(t._Z24qMetaTypeConstructHelperIPN10QtMobility39QDeclarativeGalleryLessThanEqualsFilterEEPvPKT_)
    qMetaTypeConstructHelper<QtMobility::QDeclarativeGalleryGreaterThanEqualsFilter*>(const T1*) 0x0000f4ef   Thumb Code    34  declarative_gallery.in(t._Z24qMetaTypeConstructHelperIPN10QtMobility42QDeclarativeGalleryGreaterThanEqualsFilterEEPvPKT_)
    qmlRegisterUncreatableType<QtMobility::QDeclarativeDocumentGallery>(const char*, int, int, const char*, const QString&) 0x0000f511   Thumb Code   196  declarative_gallery.in(t._Z26qmlRegisterUncreatableTypeIN10QtMobility27QDeclarativeDocumentGalleryEEiPKciiS3_RK7QString)
    QMetaTypeId2<QtMobility::QDeclarativeDocumentGallery::ItemType>::qt_metatype_id() 0x0000f639   Thumb Code    24  declarative_gallery.in(t._ZN12QMetaTypeId2IN10QtMobility27QDeclarativeDocumentGallery8ItemTypeEE14qt_metatype_idEv)
    QWeakPointer<QtMobility::QDeclarativeGalleryFilterBase>::~QWeakPointer() 0x0000f695   Thumb Code    36  declarative_gallery.in(t._ZN12QWeakPointerIN10QtMobility29QDeclarativeGalleryFilterBaseEED1Ev)
    QWeakPointer<QtMobility::QDeclarativeGalleryFilterBase>::~QWeakPointer__sub_object() 0x0000f695   Thumb Code     0  declarative_gallery.in(t._ZN12QWeakPointerIN10QtMobility29QDeclarativeGalleryFilterBaseEED1Ev)
    QDeclarativePrivate::createInto<QtMobility::QDeclarativeGalleryFilterUnion>(void*) 0x0000f6b9   Thumb Code    34  declarative_gallery.in(t._ZN19QDeclarativePrivate10createIntoIN10QtMobility30QDeclarativeGalleryFilterUnionEEEvPv)
    QDeclarativePrivate::createInto<QtMobility::QDeclarativeDocumentGalleryItem>(void*) 0x0000f6ed   Thumb Code    34  declarative_gallery.in(t._ZN19QDeclarativePrivate10createIntoIN10QtMobility31QDeclarativeDocumentGalleryItemEEEvPv)
    QDeclarativePrivate::createInto<QtMobility::QDeclarativeDocumentGalleryType>(void*) 0x0000f721   Thumb Code    34  declarative_gallery.in(t._ZN19QDeclarativePrivate10createIntoIN10QtMobility31QDeclarativeDocumentGalleryTypeEEEvPv)
    QDeclarativePrivate::createInto<QtMobility::QDeclarativeGalleryEqualsFilter>(void*) 0x0000f755   Thumb Code    32  declarative_gallery.in(t._ZN19QDeclarativePrivate10createIntoIN10QtMobility31QDeclarativeGalleryEqualsFilterEEEvPv)
    QDeclarativePrivate::createInto<QtMobility::QDeclarativeDocumentGalleryModel>(void*) 0x0000f785   Thumb Code    34  declarative_gallery.in(t._ZN19QDeclarativePrivate10createIntoIN10QtMobility32QDeclarativeDocumentGalleryModelEEEvPv)
    QDeclarativePrivate::createInto<QtMobility::QDeclarativeGalleryContainsFilter>(void*) 0x0000f7b9   Thumb Code    32  declarative_gallery.in(t._ZN19QDeclarativePrivate10createIntoIN10QtMobility33QDeclarativeGalleryContainsFilterEEEvPv)
    QDeclarativePrivate::createInto<QtMobility::QDeclarativeGalleryEndsWithFilter>(void*) 0x0000f7e9   Thumb Code    32  declarative_gallery.in(t._ZN19QDeclarativePrivate10createIntoIN10QtMobility33QDeclarativeGalleryEndsWithFilterEEEvPv)
    QDeclarativePrivate::createInto<QtMobility::QDeclarativeGalleryLessThanFilter>(void*) 0x0000f819   Thumb Code    32  declarative_gallery.in(t._ZN19QDeclarativePrivate10createIntoIN10QtMobility33QDeclarativeGalleryLessThanFilterEEEvPv)
    QDeclarativePrivate::createInto<QtMobility::QDeclarativeGalleryWildcardFilter>(void*) 0x0000f849   Thumb Code    32  declarative_gallery.in(t._ZN19QDeclarativePrivate10createIntoIN10QtMobility33QDeclarativeGalleryWildcardFilterEEEvPv)
    QDeclarativePrivate::createInto<QtMobility::QDeclarativeGalleryStartsWithFilter>(void*) 0x0000f879   Thumb Code    32  declarative_gallery.in(t._ZN19QDeclarativePrivate10createIntoIN10QtMobility35QDeclarativeGalleryStartsWithFilterEEEvPv)
    QDeclarativePrivate::createInto<QtMobility::QDeclarativeGalleryGreaterThanFilter>(void*) 0x0000f8a9   Thumb Code    32  declarative_gallery.in(t._ZN19QDeclarativePrivate10createIntoIN10QtMobility36QDeclarativeGalleryGreaterThanFilterEEEvPv)
    QDeclarativePrivate::createInto<QtMobility::QDeclarativeGalleryFilterIntersection>(void*) 0x0000f8d9   Thumb Code    34  declarative_gallery.in(t._ZN19QDeclarativePrivate10createIntoIN10QtMobility37QDeclarativeGalleryFilterIntersectionEEEvPv)
    QDeclarativePrivate::createInto<QtMobility::QDeclarativeGalleryLessThanEqualsFilter>(void*) 0x0000f90d   Thumb Code    32  declarative_gallery.in(t._ZN19QDeclarativePrivate10createIntoIN10QtMobility39QDeclarativeGalleryLessThanEqualsFilterEEEvPv)
    QDeclarativePrivate::createInto<QtMobility::QDeclarativeGalleryGreaterThanEqualsFilter>(void*) 0x0000f93d   Thumb Code    32  declarative_gallery.in(t._ZN19QDeclarativePrivate10createIntoIN10QtMobility42QDeclarativeGalleryGreaterThanEqualsFilterEEEvPv)
    QDeclarativePrivate::QDeclarativeElement<QtMobility::QDeclarativeGalleryFilterUnion>::~QDeclarativeElement() 0x0000f96d   Thumb Code    26  declarative_gallery.in(t._ZN19QDeclarativePrivate19QDeclarativeElementIN10QtMobility30QDeclarativeGalleryFilterUnionEED1Ev)
    QDeclarativePrivate::QDeclarativeElement<QtMobility::QDeclarativeGalleryFilterUnion>::~QDeclarativeElement__sub_object() 0x0000f96d   Thumb Code     0  declarative_gallery.in(t._ZN19QDeclarativePrivate19QDeclarativeElementIN10QtMobility30QDeclarativeGalleryFilterUnionEED1Ev)
    QDeclarativePrivate::QDeclarativeElement<QtMobility::QDeclarativeDocumentGalleryItem>::~QDeclarativeElement() 0x0000f999   Thumb Code    26  declarative_gallery.in(t._ZN19QDeclarativePrivate19QDeclarativeElementIN10QtMobility31QDeclarativeDocumentGalleryItemEED1Ev)
    QDeclarativePrivate::QDeclarativeElement<QtMobility::QDeclarativeDocumentGalleryItem>::~QDeclarativeElement__sub_object() 0x0000f999   Thumb Code     0  declarative_gallery.in(t._ZN19QDeclarativePrivate19QDeclarativeElementIN10QtMobility31QDeclarativeDocumentGalleryItemEED1Ev)
    QDeclarativePrivate::QDeclarativeElement<QtMobility::QDeclarativeDocumentGalleryType>::~QDeclarativeElement() 0x0000f9c5   Thumb Code    26  declarative_gallery.in(t._ZN19QDeclarativePrivate19QDeclarativeElementIN10QtMobility31QDeclarativeDocumentGalleryTypeEED1Ev)
    QDeclarativePrivate::QDeclarativeElement<QtMobility::QDeclarativeDocumentGalleryType>::~QDeclarativeElement__sub_object() 0x0000f9c5   Thumb Code     0  declarative_gallery.in(t._ZN19QDeclarativePrivate19QDeclarativeElementIN10QtMobility31QDeclarativeDocumentGalleryTypeEED1Ev)
    QDeclarativePrivate::QDeclarativeElement<QtMobility::QDeclarativeGalleryEqualsFilter>::~QDeclarativeElement() 0x0000f9f1   Thumb Code    22  declarative_gallery.in(t._ZN19QDeclarativePrivate19QDeclarativeElementIN10QtMobility31QDeclarativeGalleryEqualsFilterEED1Ev)
    QDeclarativePrivate::QDeclarativeElement<QtMobility::QDeclarativeGalleryEqualsFilter>::~QDeclarativeElement__sub_object() 0x0000f9f1   Thumb Code     0  declarative_gallery.in(t._ZN19QDeclarativePrivate19QDeclarativeElementIN10QtMobility31QDeclarativeGalleryEqualsFilterEED1Ev)
    QDeclarativePrivate::QDeclarativeElement<QtMobility::QDeclarativeDocumentGalleryModel>::~QDeclarativeElement() 0x0000fa19   Thumb Code    26  declarative_gallery.in(t._ZN19QDeclarativePrivate19QDeclarativeElementIN10QtMobility32QDeclarativeDocumentGalleryModelEED1Ev)
    QDeclarativePrivate::QDeclarativeElement<QtMobility::QDeclarativeDocumentGalleryModel>::~QDeclarativeElement__sub_object() 0x0000fa19   Thumb Code     0  declarative_gallery.in(t._ZN19QDeclarativePrivate19QDeclarativeElementIN10QtMobility32QDeclarativeDocumentGalleryModelEED1Ev)
    QDeclarativePrivate::QDeclarativeElement<QtMobility::QDeclarativeGalleryContainsFilter>::~QDeclarativeElement() 0x0000fa45   Thumb Code    22  declarative_gallery.in(t._ZN19QDeclarativePrivate19QDeclarativeElementIN10QtMobility33QDeclarativeGalleryContainsFilterEED1Ev)
    QDeclarativePrivate::QDeclarativeElement<QtMobility::QDeclarativeGalleryContainsFilter>::~QDeclarativeElement__sub_object() 0x0000fa45   Thumb Code     0  declarative_gallery.in(t._ZN19QDeclarativePrivate19QDeclarativeElementIN10QtMobility33QDeclarativeGalleryContainsFilterEED1Ev)
    QDeclarativePrivate::QDeclarativeElement<QtMobility::QDeclarativeGalleryEndsWithFilter>::~QDeclarativeElement() 0x0000fa6d   Thumb Code    22  declarative_gallery.in(t._ZN19QDeclarativePrivate19QDeclarativeElementIN10QtMobility33QDeclarativeGalleryEndsWithFilterEED1Ev)
    QDeclarativePrivate::QDeclarativeElement<QtMobility::QDeclarativeGalleryEndsWithFilter>::~QDeclarativeElement__sub_object() 0x0000fa6d   Thumb Code     0  declarative_gallery.in(t._ZN19QDeclarativePrivate19QDeclarativeElementIN10QtMobility33QDeclarativeGalleryEndsWithFilterEED1Ev)
    QDeclarativePrivate::QDeclarativeElement<QtMobility::QDeclarativeGalleryLessThanFilter>::~QDeclarativeElement() 0x0000fa95   Thumb Code    22  declarative_gallery.in(t._ZN19QDeclarativePrivate19QDeclarativeElementIN10QtMobility33QDeclarativeGalleryLessThanFilterEED1Ev)
    QDeclarativePrivate::QDeclarativeElement<QtMobility::QDeclarativeGalleryLessThanFilter>::~QDeclarativeElement__sub_object() 0x0000fa95   Thumb Code     0  declarative_gallery.in(t._ZN19QDeclarativePrivate19QDeclarativeElementIN10QtMobility33QDeclarativeGalleryLessThanFilterEED1Ev)
    QDeclarativePrivate::QDeclarativeElement<QtMobility::QDeclarativeGalleryWildcardFilter>::~QDeclarativeElement() 0x0000fabd   Thumb Code    22  declarative_gallery.in(t._ZN19QDeclarativePrivate19QDeclarativeElementIN10QtMobility33QDeclarativeGalleryWildcardFilterEED1Ev)
    QDeclarativePrivate::QDeclarativeElement<QtMobility::QDeclarativeGalleryWildcardFilter>::~QDeclarativeElement__sub_object() 0x0000fabd   Thumb Code     0  declarative_gallery.in(t._ZN19QDeclarativePrivate19QDeclarativeElementIN10QtMobility33QDeclarativeGalleryWildcardFilterEED1Ev)
    QDeclarativePrivate::QDeclarativeElement<QtMobility::QDeclarativeGalleryStartsWithFilter>::~QDeclarativeElement() 0x0000fae5   Thumb Code    22  declarative_gallery.in(t._ZN19QDeclarativePrivate19QDeclarativeElementIN10QtMobility35QDeclarativeGalleryStartsWithFilterEED1Ev)
    QDeclarativePrivate::QDeclarativeElement<QtMobility::QDeclarativeGalleryStartsWithFilter>::~QDeclarativeElement__sub_object() 0x0000fae5   Thumb Code     0  declarative_gallery.in(t._ZN19QDeclarativePrivate19QDeclarativeElementIN10QtMobility35QDeclarativeGalleryStartsWithFilterEED1Ev)
    QDeclarativePrivate::QDeclarativeElement<QtMobility::QDeclarativeGalleryGreaterThanFilter>::~QDeclarativeElement() 0x0000fb0d   Thumb Code    22  declarative_gallery.in(t._ZN19QDeclarativePrivate19QDeclarativeElementIN10QtMobility36QDeclarativeGalleryGreaterThanFilterEED1Ev)
    QDeclarativePrivate::QDeclarativeElement<QtMobility::QDeclarativeGalleryGreaterThanFilter>::~QDeclarativeElement__sub_object() 0x0000fb0d   Thumb Code     0  declarative_gallery.in(t._ZN19QDeclarativePrivate19QDeclarativeElementIN10QtMobility36QDeclarativeGalleryGreaterThanFilterEED1Ev)
    QDeclarativePrivate::QDeclarativeElement<QtMobility::QDeclarativeGalleryFilterIntersection>::~QDeclarativeElement() 0x0000fb35   Thumb Code    26  declarative_gallery.in(t._ZN19QDeclarativePrivate19QDeclarativeElementIN10QtMobility37QDeclarativeGalleryFilterIntersectionEED1Ev)
    QDeclarativePrivate::QDeclarativeElement<QtMobility::QDeclarativeGalleryFilterIntersection>::~QDeclarativeElement__sub_object() 0x0000fb35   Thumb Code     0  declarative_gallery.in(t._ZN19QDeclarativePrivate19QDeclarativeElementIN10QtMobility37QDeclarativeGalleryFilterIntersectionEED1Ev)
    QDeclarativePrivate::QDeclarativeElement<QtMobility::QDeclarativeGalleryLessThanEqualsFilter>::~QDeclarativeElement() 0x0000fb61   Thumb Code    22  declarative_gallery.in(t._ZN19QDeclarativePrivate19QDeclarativeElementIN10QtMobility39QDeclarativeGalleryLessThanEqualsFilterEED1Ev)
    QDeclarativePrivate::QDeclarativeElement<QtMobility::QDeclarativeGalleryLessThanEqualsFilter>::~QDeclarativeElement__sub_object() 0x0000fb61   Thumb Code     0  declarative_gallery.in(t._ZN19QDeclarativePrivate19QDeclarativeElementIN10QtMobility39QDeclarativeGalleryLessThanEqualsFilterEED1Ev)
    QDeclarativePrivate::QDeclarativeElement<QtMobility::QDeclarativeGalleryGreaterThanEqualsFilter>::~QDeclarativeElement() 0x0000fb89   Thumb Code    22  declarative_gallery.in(t._ZN19QDeclarativePrivate19QDeclarativeElementIN10QtMobility42QDeclarativeGalleryGreaterThanEqualsFilterEED1Ev)
    QDeclarativePrivate::QDeclarativeElement<QtMobility::QDeclarativeGalleryGreaterThanEqualsFilter>::~QDeclarativeElement__sub_object() 0x0000fb89   Thumb Code     0  declarative_gallery.in(t._ZN19QDeclarativePrivate19QDeclarativeElementIN10QtMobility42QDeclarativeGalleryGreaterThanEqualsFilterEED1Ev)
    QGlobalStaticDeleter<QtMobility::QDocumentGallery>::~QGlobalStaticDeleter() 0x0000fbaf   Thumb Code    34  declarative_gallery.in(t._ZN20QGlobalStaticDeleterIN10QtMobility16QDocumentGalleryEED1Ev)
    QGlobalStaticDeleter<QtMobility::QDocumentGallery>::~QGlobalStaticDeleter__sub_object() 0x0000fbaf   Thumb Code     0  declarative_gallery.in(t._ZN20QGlobalStaticDeleterIN10QtMobility16QDocumentGalleryEED1Ev)
    QHash<int, QByteArray>::deleteNode2(QHashData::Node*) 0x0000fbd1   Thumb Code    10  declarative_gallery.in(t._ZN5QHashIi10QByteArrayE11deleteNode2EPN9QHashData4NodeE)
    QHash<int, QByteArray>::duplicateNode(QHashData::Node*, void*) 0x0000fbdb   Thumb Code    30  declarative_gallery.in(t._ZN5QHashIi10QByteArrayE13duplicateNodeEPN9QHashData4NodeEPv)
    QHash<int, QByteArray>::insert(const int&, const QByteArray&) 0x0000fc05   Thumb Code   184  declarative_gallery.in(t._ZN5QHashIi10QByteArrayE6insertERKiRKS0_)
    QHash<int, QByteArray>::freeData(QHashData*) 0x0000fcd1   Thumb Code    12  declarative_gallery.in(t._ZN5QHashIi10QByteArrayE8freeDataEP9QHashData)
    QHash<int, QByteArray>::~QHash()         0x0000fce1   Thumb Code    28  declarative_gallery.in(t._ZN5QHashIi10QByteArrayED1Ev)
    QHash<int, QByteArray>::~QHash__sub_object() 0x0000fce1   Thumb Code     0  declarative_gallery.in(t._ZN5QHashIi10QByteArrayED1Ev)
    QHash<int, QString>::deleteNode2(QHashData::Node*) 0x0000fcfd   Thumb Code    10  declarative_gallery.in(t._ZN5QHashIi7QStringE11deleteNode2EPN9QHashData4NodeE)
    QHash<int, QString>::detach_helper()     0x0000fd09   Thumb Code    46  declarative_gallery.in(t._ZN5QHashIi7QStringE13detach_helperEv)
    QHash<int, QString>::duplicateNode(QHashData::Node*, void*) 0x0000fd41   Thumb Code    30  declarative_gallery.in(t._ZN5QHashIi7QStringE13duplicateNodeEPN9QHashData4NodeEPv)
    QHash<int, QString>::clear()             0x0000fd6b   Thumb Code    68  declarative_gallery.in(t._ZN5QHashIi7QStringE5clearEv)
    QHash<int, QString>::insert(const int&, const QString&) 0x0000fdb9   Thumb Code   144  declarative_gallery.in(t._ZN5QHashIi7QStringE6insertERKiRKS0_)
    QHash<int, QString>::freeData(QHashData*) 0x0000fe55   Thumb Code    12  declarative_gallery.in(t._ZN5QHashIi7QStringE8freeDataEP9QHashData)
    QHash<int, QString>::QHash()             0x0000fe65   Thumb Code    18  declarative_gallery.in(t._ZN5QHashIi7QStringEC1Ev)
    QHash<int, QString>::QHash__sub_object() 0x0000fe65   Thumb Code     0  declarative_gallery.in(t._ZN5QHashIi7QStringEC1Ev)
    QHash<int, QString>::~QHash()            0x0000fe7d   Thumb Code    28  declarative_gallery.in(t._ZN5QHashIi7QStringED1Ev)
    QHash<int, QString>::~QHash__sub_object() 0x0000fe7d   Thumb Code     0  declarative_gallery.in(t._ZN5QHashIi7QStringED1Ev)
    QList<QString>::detach_helper(int)       0x0000fe99   Thumb Code   142  declarative_gallery.in(t._ZN5QListI7QStringE13detach_helperEi)
    QList<QString>::free(QListData::Data*)   0x0000ff3b   Thumb Code    48  declarative_gallery.in(t._ZN5QListI7QStringE4freeEPN9QListData4DataE)
    QList<QString>::~QList()                 0x0000ff6b   Thumb Code    30  declarative_gallery.in(t._ZN5QListI7QStringED1Ev)
    QList<QString>::~QList__sub_object()     0x0000ff6b   Thumb Code     0  declarative_gallery.in(t._ZN5QListI7QStringED1Ev)
    QList<QtMobility::QDeclarativeGalleryFilterBase*>::detach_helper() 0x0000ff89   Thumb Code    88  declarative_gallery.in(t._ZN5QListIPN10QtMobility29QDeclarativeGalleryFilterBaseEE13detach_helperEv)
    QList<QtMobility::QDeclarativeGalleryFilterBase*>::detach_helper_grow(int, int) 0x0000ffe9   Thumb Code   164  declarative_gallery.in(t._ZN5QListIPN10QtMobility29QDeclarativeGalleryFilterBaseEE18detach_helper_growEii)
    QList<QtMobility::QDeclarativeGalleryFilterBase*>::free(QListData::Data*) 0x00010095   Thumb Code    16  declarative_gallery.in(t._ZN5QListIPN10QtMobility29QDeclarativeGalleryFilterBaseEE4freeEPN9QListData4DataE)
    QList<QtMobility::QDeclarativeGalleryFilterBase*>::clear() 0x000100a5   Thumb Code    66  declarative_gallery.in(t._ZN5QListIPN10QtMobility29QDeclarativeGalleryFilterBaseEE5clearEv)
    QList<QtMobility::QDeclarativeGalleryFilterBase*>::node_copy(QList<QtMobility::QDeclarativeGalleryFilterBase*>::Node*, QList<QtMobility::QDeclarativeGalleryFilterBase*>::Node*, QList<QtMobility::QDeclarativeGalleryFilterBase*>::Node*) 0x000100f7   Thumb Code    28  declarative_gallery.in(t._ZN5QListIPN10QtMobility29QDeclarativeGalleryFilterBaseEE9node_copyEPNS3_4NodeES5_S5_)
    QList<QtMobility::QDeclarativeGalleryFilterBase*>::~QList() 0x00010113   Thumb Code    30  declarative_gallery.in(t._ZN5QListIPN10QtMobility29QDeclarativeGalleryFilterBaseEED1Ev)
    QList<QtMobility::QDeclarativeGalleryFilterBase*>::~QList__sub_object() 0x00010113   Thumb Code     0  declarative_gallery.in(t._ZN5QListIPN10QtMobility29QDeclarativeGalleryFilterBaseEED1Ev)
    QVector<QPair<int, QString>>::free(QVectorTypedData<QPair<int, QString>>*) 0x00010131   Thumb Code    40  declarative_gallery.in(t._ZN7QVectorI5QPairIi7QStringEE4freeEP16QVectorTypedDataIS2_E)
    QVector<QPair<int, QString>>::append(const QPair<int, QString>&) 0x00010159   Thumb Code   140  declarative_gallery.in(t._ZN7QVectorI5QPairIi7QStringEE6appendERKS2_)
    QVector<QPair<int, QString>>::realloc(int, int) 0x00010201   Thumb Code   328  declarative_gallery.in(t._ZN7QVectorI5QPairIi7QStringEE7reallocEii)
    QVector<QPair<int, QString>>::QVector()  0x00010371   Thumb Code    16  declarative_gallery.in(t._ZN7QVectorI5QPairIi7QStringEEC1Ev)
    QVector<QPair<int, QString>>::QVector__sub_object() 0x00010371   Thumb Code     0  declarative_gallery.in(t._ZN7QVectorI5QPairIi7QStringEEC1Ev)
    QVector<QPair<int, QString>>::~QVector() 0x00010385   Thumb Code    30  declarative_gallery.in(t._ZN7QVectorI5QPairIi7QStringEED1Ev)
    QVector<QPair<int, QString>>::~QVector__sub_object() 0x00010385   Thumb Code     0  declarative_gallery.in(t._ZN7QVectorI5QPairIi7QStringEED1Ev)
    QPointer<QObject>::~QPointer()           0x000103a3   Thumb Code    12  declarative_gallery.in(t._ZN8QPointerI7QObjectED1Ev)
    QPointer<QObject>::~QPointer__sub_object() 0x000103a3   Thumb Code     0  declarative_gallery.in(t._ZN8QPointerI7QObjectED1Ev)
    QHashNode<int, QByteArray>::QHashNode(int, const QByteArray&) 0x000103af   Thumb Code    20  declarative_gallery.in(t._ZN9QHashNodeIi10QByteArrayEC1EiRKS0_)
    QHashNode<int, QByteArray>::QHashNode__sub_object(int, const QByteArray&) 0x000103af   Thumb Code     0  declarative_gallery.in(t._ZN9QHashNodeIi10QByteArrayEC1EiRKS0_)
    QHashNode<int, QString>::QHashNode(int, const QString&) 0x000103c3   Thumb Code    14  declarative_gallery.in(t._ZN9QHashNodeIi7QStringEC1EiRKS0_)
    QHashNode<int, QString>::QHashNode__sub_object(int, const QString&) 0x000103c3   Thumb Code     0  declarative_gallery.in(t._ZN9QHashNodeIi7QStringEC1EiRKS0_)
    QWeakPointer<QtMobility::QDeclarativeGalleryFilterBase>::data() const 0x000103d1   Thumb Code    30  declarative_gallery.in(t._ZNK12QWeakPointerIN10QtMobility29QDeclarativeGalleryFilterBaseEE4dataEv)
    QWeakPointer<QtMobility::QDeclarativeGalleryFilterBase>::operator QtMobility::QDeclarativeGalleryFilterBase*QWeakPointer<QtMobility::QDeclarativeGalleryFilterBase>::*() const 0x000103ef   Thumb Code    48  declarative_gallery.in(t._ZNK12QWeakPointerIN10QtMobility29QDeclarativeGalleryFilterBaseEEcvMS2_PS1_Ev)
    QHash<int, QByteArray>::findNode(const int&, unsigned*) const 0x0001041f   Thumb Code    50  declarative_gallery.in(t._ZNK5QHashIi10QByteArrayE8findNodeERKiPj)
    QHash<int, QString>::constBegin() const  0x00010451   Thumb Code    28  declarative_gallery.in(t._ZNK5QHashIi7QStringE10constBeginEv)
    QHash<int, QString>::findNode(const int&, unsigned*) const 0x0001046d   Thumb Code    50  declarative_gallery.in(t._ZNK5QHashIi7QStringE8findNodeERKiPj)
    QList<QtMobility::QDeclarativeGalleryFilterBase*>::const_iterator::operator !=(const QList<QtMobility::QDeclarativeGalleryFilterBase*>::const_iterator&) const 0x0001049f   Thumb Code    16  declarative_gallery.in(t._ZNK5QListIPN10QtMobility29QDeclarativeGalleryFilterBaseEE14const_iteratorneERKS4_)
    QtMobility::QDeclarativeDocumentGallery::staticMetaObject 0x000118c0   Data          16  declarative_gallery.in(.constdata)
    QtMobility::QGalleryDeclarativeModule::staticMetaObject 0x00011a80   Data          16  declarative_gallery.in(.constdata)
    QtMobility::QDeclarativeGalleryFilterBase::staticMetaObject 0x00011f5c   Data          16  declarative_gallery.in(.constdata)
    QtMobility::QDeclarativeGalleryValueFilter::staticMetaObject 0x00011f6c   Data          16  declarative_gallery.in(.constdata)
    QtMobility::QDeclarativeGalleryStringFilter::staticMetaObject 0x00011f7c   Data          16  declarative_gallery.in(.constdata)
    QtMobility::QDeclarativeGalleryEqualsFilter::staticMetaObject 0x00011f8c   Data          16  declarative_gallery.in(.constdata)
    QtMobility::QDeclarativeGalleryLessThanFilter::staticMetaObject 0x00011f9c   Data          16  declarative_gallery.in(.constdata)
    QtMobility::QDeclarativeGalleryLessThanEqualsFilter::staticMetaObject 0x00011fac   Data          16  declarative_gallery.in(.constdata)
    QtMobility::QDeclarativeGalleryGreaterThanFilter::staticMetaObject 0x00011fbc   Data          16  declarative_gallery.in(.constdata)
    QtMobility::QDeclarativeGalleryGreaterThanEqualsFilter::staticMetaObject 0x00011fcc   Data          16  declarative_gallery.in(.constdata)
    QtMobility::QDeclarativeGalleryContainsFilter::staticMetaObject 0x00011fdc   Data          16  declarative_gallery.in(.constdata)
    QtMobility::QDeclarativeGalleryStartsWithFilter::staticMetaObject 0x00011fec   Data          16  declarative_gallery.in(.constdata)
    QtMobility::QDeclarativeGalleryEndsWithFilter::staticMetaObject 0x00011ffc   Data          16  declarative_gallery.in(.constdata)
    QtMobility::QDeclarativeGalleryWildcardFilter::staticMetaObject 0x0001200c   Data          16  declarative_gallery.in(.constdata)
    QtMobility::QDeclarativeGalleryFilterGroup::staticMetaObject 0x0001201c   Data          16  declarative_gallery.in(.constdata)
    QtMobility::QDeclarativeGalleryFilterUnion::staticMetaObject 0x0001202c   Data          16  declarative_gallery.in(.constdata)
    QtMobility::QDeclarativeGalleryFilterIntersection::staticMetaObject 0x0001203c   Data          16  declarative_gallery.in(.constdata)
    QtMobility::QDeclarativeGalleryItem::staticMetaObject 0x00012804   Data          16  declarative_gallery.in(.constdata)
    QtMobility::QDeclarativeDocumentGalleryItem::staticMetaObject 0x00012814   Data          16  declarative_gallery.in(.constdata)
    QtMobility::QDeclarativeGalleryQueryModel::staticMetaObject 0x00012d10   Data          16  declarative_gallery.in(.constdata)
    QtMobility::QDeclarativeDocumentGalleryModel::staticMetaObject 0x00012d20   Data          16  declarative_gallery.in(.constdata)
    QtMobility::QDeclarativeGalleryType::staticMetaObject 0x000134c8   Data          16  declarative_gallery.in(.constdata)
    QtMobility::QDeclarativeDocumentGalleryType::staticMetaObject 0x000134d8   Data          16  declarative_gallery.in(.constdata)
    typeinfo for QtMobility::QDeclarativeGalleryItem 0x00013934   Data          32  declarative_gallery.in(.constdata__ZTIN10QtMobility23QDeclarativeGalleryItemE)
    typeinfo for QtMobility::QDeclarativeGalleryType 0x00013954   Data          32  declarative_gallery.in(.constdata__ZTIN10QtMobility23QDeclarativeGalleryTypeE)
    typeinfo for QtMobility::QGalleryDeclarativeModule 0x00013974   Data          12  declarative_gallery.in(.constdata__ZTIN10QtMobility25QGalleryDeclarativeModuleE)
    typeinfo for QtMobility::QDeclarativeGalleryFilterBase 0x00013980   Data          12  declarative_gallery.in(.constdata__ZTIN10QtMobility29QDeclarativeGalleryFilterBaseE)
    typeinfo for QtMobility::QDeclarativeGalleryQueryModel 0x0001398c   Data          32  declarative_gallery.in(.constdata__ZTIN10QtMobility29QDeclarativeGalleryQueryModelE)
    typeinfo for QtMobility::QDeclarativeGalleryFilterGroup 0x000139ac   Data          32  declarative_gallery.in(.constdata__ZTIN10QtMobility30QDeclarativeGalleryFilterGroupE)
    typeinfo for QtMobility::QDeclarativeGalleryFilterUnion 0x000139cc   Data          12  declarative_gallery.in(.constdata__ZTIN10QtMobility30QDeclarativeGalleryFilterUnionE)
    typeinfo for QtMobility::QDeclarativeGalleryValueFilter 0x000139d8   Data          12  declarative_gallery.in(.constdata__ZTIN10QtMobility30QDeclarativeGalleryValueFilterE)
    typeinfo for QtMobility::QDeclarativeDocumentGalleryItem 0x000139e4   Data          12  declarative_gallery.in(.constdata__ZTIN10QtMobility31QDeclarativeDocumentGalleryItemE)
    typeinfo for QtMobility::QDeclarativeDocumentGalleryType 0x000139f0   Data          12  declarative_gallery.in(.constdata__ZTIN10QtMobility31QDeclarativeDocumentGalleryTypeE)
    typeinfo for QtMobility::QDeclarativeGalleryEqualsFilter 0x000139fc   Data          12  declarative_gallery.in(.constdata__ZTIN10QtMobility31QDeclarativeGalleryEqualsFilterE)
    typeinfo for QtMobility::QDeclarativeGalleryStringFilter 0x00013a08   Data          12  declarative_gallery.in(.constdata__ZTIN10QtMobility31QDeclarativeGalleryStringFilterE)
    typeinfo for QtMobility::QDeclarativeDocumentGalleryModel 0x00013a14   Data          12  declarative_gallery.in(.constdata__ZTIN10QtMobility32QDeclarativeDocumentGalleryModelE)
    typeinfo for QtMobility::QDeclarativeGalleryContainsFilter 0x00013a20   Data          12  declarative_gallery.in(.constdata__ZTIN10QtMobility33QDeclarativeGalleryContainsFilterE)
    typeinfo for QtMobility::QDeclarativeGalleryEndsWithFilter 0x00013a2c   Data          12  declarative_gallery.in(.constdata__ZTIN10QtMobility33QDeclarativeGalleryEndsWithFilterE)
    typeinfo for QtMobility::QDeclarativeGalleryLessThanFilter 0x00013a38   Data          12  declarative_gallery.in(.constdata__ZTIN10QtMobility33QDeclarativeGalleryLessThanFilterE)
    typeinfo for QtMobility::QDeclarativeGalleryWildcardFilter 0x00013a44   Data          12  declarative_gallery.in(.constdata__ZTIN10QtMobility33QDeclarativeGalleryWildcardFilterE)
    typeinfo for QtMobility::QDeclarativeGalleryStartsWithFilter 0x00013a50   Data          12  declarative_gallery.in(.constdata__ZTIN10QtMobility35QDeclarativeGalleryStartsWithFilterE)
    typeinfo for QtMobility::QDeclarativeGalleryGreaterThanFilter 0x00013a5c   Data          12  declarative_gallery.in(.constdata__ZTIN10QtMobility36QDeclarativeGalleryGreaterThanFilterE)
    typeinfo for QtMobility::QDeclarativeGalleryFilterIntersection 0x00013a68   Data          12  declarative_gallery.in(.constdata__ZTIN10QtMobility37QDeclarativeGalleryFilterIntersectionE)
    typeinfo for QtMobility::QDeclarativeGalleryLessThanEqualsFilter 0x00013a74   Data          12  declarative_gallery.in(.constdata__ZTIN10QtMobility39QDeclarativeGalleryLessThanEqualsFilterE)
    typeinfo for QtMobility::QDeclarativeGalleryGreaterThanEqualsFilter 0x00013a80   Data          12  declarative_gallery.in(.constdata__ZTIN10QtMobility42QDeclarativeGalleryGreaterThanEqualsFilterE)
    typeinfo for QDeclarativePrivate::QDeclarativeElement<QtMobility::QDeclarativeGalleryFilterUnion> 0x00013a8c   Data          12  declarative_gallery.in(.constdata__ZTIN19QDeclarativePrivate19QDeclarativeElementIN10QtMobility30QDeclarativeGalleryFilterUnionEEE)
    typeinfo for QDeclarativePrivate::QDeclarativeElement<QtMobility::QDeclarativeDocumentGalleryItem> 0x00013a98   Data          12  declarative_gallery.in(.constdata__ZTIN19QDeclarativePrivate19QDeclarativeElementIN10QtMobility31QDeclarativeDocumentGalleryItemEEE)
    typeinfo for QDeclarativePrivate::QDeclarativeElement<QtMobility::QDeclarativeDocumentGalleryType> 0x00013aa4   Data          12  declarative_gallery.in(.constdata__ZTIN19QDeclarativePrivate19QDeclarativeElementIN10QtMobility31QDeclarativeDocumentGalleryTypeEEE)
    typeinfo for QDeclarativePrivate::QDeclarativeElement<QtMobility::QDeclarativeGalleryEqualsFilter> 0x00013ab0   Data          12  declarative_gallery.in(.constdata__ZTIN19QDeclarativePrivate19QDeclarativeElementIN10QtMobility31QDeclarativeGalleryEqualsFilterEEE)
    typeinfo for QDeclarativePrivate::QDeclarativeElement<QtMobility::QDeclarativeDocumentGalleryModel> 0x00013abc   Data          12  declarative_gallery.in(.constdata__ZTIN19QDeclarativePrivate19QDeclarativeElementIN10QtMobility32QDeclarativeDocumentGalleryModelEEE)
    typeinfo for QDeclarativePrivate::QDeclarativeElement<QtMobility::QDeclarativeGalleryContainsFilter> 0x00013ac8   Data          12  declarative_gallery.in(.constdata__ZTIN19QDeclarativePrivate19QDeclarativeElementIN10QtMobility33QDeclarativeGalleryContainsFilterEEE)
    typeinfo for QDeclarativePrivate::QDeclarativeElement<QtMobility::QDeclarativeGalleryEndsWithFilter> 0x00013ad4   Data          12  declarative_gallery.in(.constdata__ZTIN19QDeclarativePrivate19QDeclarativeElementIN10QtMobility33QDeclarativeGalleryEndsWithFilterEEE)
    typeinfo for QDeclarativePrivate::QDeclarativeElement<QtMobility::QDeclarativeGalleryLessThanFilter> 0x00013ae0   Data          12  declarative_gallery.in(.constdata__ZTIN19QDeclarativePrivate19QDeclarativeElementIN10QtMobility33QDeclarativeGalleryLessThanFilterEEE)
    typeinfo for QDeclarativePrivate::QDeclarativeElement<QtMobility::QDeclarativeGalleryWildcardFilter> 0x00013aec   Data          12  declarative_gallery.in(.constdata__ZTIN19QDeclarativePrivate19QDeclarativeElementIN10QtMobility33QDeclarativeGalleryWildcardFilterEEE)
    typeinfo for QDeclarativePrivate::QDeclarativeElement<QtMobility::QDeclarativeGalleryStartsWithFilter> 0x00013af8   Data          12  declarative_gallery.in(.constdata__ZTIN19QDeclarativePrivate19QDeclarativeElementIN10QtMobility35QDeclarativeGalleryStartsWithFilterEEE)
    typeinfo for QDeclarativePrivate::QDeclarativeElement<QtMobility::QDeclarativeGalleryGreaterThanFilter> 0x00013b04   Data          12  declarative_gallery.in(.constdata__ZTIN19QDeclarativePrivate19QDeclarativeElementIN10QtMobility36QDeclarativeGalleryGreaterThanFilterEEE)
    typeinfo for QDeclarativePrivate::QDeclarativeElement<QtMobility::QDeclarativeGalleryFilterIntersection> 0x00013b10   Data          12  declarative_gallery.in(.constdata__ZTIN19QDeclarativePrivate19QDeclarativeElementIN10QtMobility37QDeclarativeGalleryFilterIntersectionEEE)
    typeinfo for QDeclarativePrivate::QDeclarativeElement<QtMobility::QDeclarativeGalleryLessThanEqualsFilter> 0x00013b1c   Data          12  declarative_gallery.in(.constdata__ZTIN19QDeclarativePrivate19QDeclarativeElementIN10QtMobility39QDeclarativeGalleryLessThanEqualsFilterEEE)
    typeinfo for QDeclarativePrivate::QDeclarativeElement<QtMobility::QDeclarativeGalleryGreaterThanEqualsFilter> 0x00013b28   Data          12  declarative_gallery.in(.constdata__ZTIN19QDeclarativePrivate19QDeclarativeElementIN10QtMobility42QDeclarativeGalleryGreaterThanEqualsFilterEEE)
    typeinfo name for QtMobility::QDeclarativeGalleryItem 0x00013b34   Data          40  declarative_gallery.in(.constdata__ZTSN10QtMobility23QDeclarativeGalleryItemE)
    typeinfo name for QtMobility::QDeclarativeGalleryType 0x00013b5c   Data          40  declarative_gallery.in(.constdata__ZTSN10QtMobility23QDeclarativeGalleryTypeE)
    typeinfo name for QtMobility::QGalleryDeclarativeModule 0x00013b84   Data          42  declarative_gallery.in(.constdata__ZTSN10QtMobility25QGalleryDeclarativeModuleE)
    typeinfo name for QtMobility::QDeclarativeGalleryFilterBase 0x00013bae   Data          46  declarative_gallery.in(.constdata__ZTSN10QtMobility29QDeclarativeGalleryFilterBaseE)
    typeinfo name for QtMobility::QDeclarativeGalleryQueryModel 0x00013bdc   Data          46  declarative_gallery.in(.constdata__ZTSN10QtMobility29QDeclarativeGalleryQueryModelE)
    typeinfo name for QtMobility::QDeclarativeGalleryFilterGroup 0x00013c0a   Data          47  declarative_gallery.in(.constdata__ZTSN10QtMobility30QDeclarativeGalleryFilterGroupE)
    typeinfo name for QtMobility::QDeclarativeGalleryFilterUnion 0x00013c39   Data          47  declarative_gallery.in(.constdata__ZTSN10QtMobility30QDeclarativeGalleryFilterUnionE)
    typeinfo name for QtMobility::QDeclarativeGalleryValueFilter 0x00013c68   Data          47  declarative_gallery.in(.constdata__ZTSN10QtMobility30QDeclarativeGalleryValueFilterE)
    typeinfo name for QtMobility::QDeclarativeDocumentGalleryItem 0x00013c97   Data          48  declarative_gallery.in(.constdata__ZTSN10QtMobility31QDeclarativeDocumentGalleryItemE)
    typeinfo name for QtMobility::QDeclarativeDocumentGalleryType 0x00013cc7   Data          48  declarative_gallery.in(.constdata__ZTSN10QtMobility31QDeclarativeDocumentGalleryTypeE)
    typeinfo name for QtMobility::QDeclarativeGalleryEqualsFilter 0x00013cf7   Data          48  declarative_gallery.in(.constdata__ZTSN10QtMobility31QDeclarativeGalleryEqualsFilterE)
    typeinfo name for QtMobility::QDeclarativeGalleryStringFilter 0x00013d27   Data          48  declarative_gallery.in(.constdata__ZTSN10QtMobility31QDeclarativeGalleryStringFilterE)
    typeinfo name for QtMobility::QDeclarativeDocumentGalleryModel 0x00013d57   Data          49  declarative_gallery.in(.constdata__ZTSN10QtMobility32QDeclarativeDocumentGalleryModelE)
    typeinfo name for QtMobility::QDeclarativeGalleryContainsFilter 0x00013d88   Data          50  declarative_gallery.in(.constdata__ZTSN10QtMobility33QDeclarativeGalleryContainsFilterE)
    typeinfo name for QtMobility::QDeclarativeGalleryEndsWithFilter 0x00013dba   Data          50  declarative_gallery.in(.constdata__ZTSN10QtMobility33QDeclarativeGalleryEndsWithFilterE)
    typeinfo name for QtMobility::QDeclarativeGalleryLessThanFilter 0x00013dec   Data          50  declarative_gallery.in(.constdata__ZTSN10QtMobility33QDeclarativeGalleryLessThanFilterE)
    typeinfo name for QtMobility::QDeclarativeGalleryWildcardFilter 0x00013e1e   Data          50  declarative_gallery.in(.constdata__ZTSN10QtMobility33QDeclarativeGalleryWildcardFilterE)
    typeinfo name for QtMobility::QDeclarativeGalleryStartsWithFilter 0x00013e50   Data          52  declarative_gallery.in(.constdata__ZTSN10QtMobility35QDeclarativeGalleryStartsWithFilterE)
    typeinfo name for QtMobility::QDeclarativeGalleryGreaterThanFilter 0x00013e84   Data          53  declarative_gallery.in(.constdata__ZTSN10QtMobility36QDeclarativeGalleryGreaterThanFilterE)
    typeinfo name for QtMobility::QDeclarativeGalleryFilterIntersection 0x00013eb9   Data          54  declarative_gallery.in(.constdata__ZTSN10QtMobility37QDeclarativeGalleryFilterIntersectionE)
    typeinfo name for QtMobility::QDeclarativeGalleryLessThanEqualsFilter 0x00013eef   Data          56  declarative_gallery.in(.constdata__ZTSN10QtMobility39QDeclarativeGalleryLessThanEqualsFilterE)
    typeinfo name for QtMobility::QDeclarativeGalleryGreaterThanEqualsFilter 0x00013f27   Data          59  declarative_gallery.in(.constdata__ZTSN10QtMobility42QDeclarativeGalleryGreaterThanEqualsFilterE)
    typeinfo name for QDeclarativePrivate::QDeclarativeElement<QtMobility::QDeclarativeGalleryFilterUnion> 0x00013f62   Data          93  declarative_gallery.in(.constdata__ZTSN19QDeclarativePrivate19QDeclarativeElementIN10QtMobility30QDeclarativeGalleryFilterUnionEEE)
    typeinfo name for QDeclarativePrivate::QDeclarativeElement<QtMobility::QDeclarativeDocumentGalleryItem> 0x00013fbf   Data          94  declarative_gallery.in(.constdata__ZTSN19QDeclarativePrivate19QDeclarativeElementIN10QtMobility31QDeclarativeDocumentGalleryItemEEE)
    typeinfo name for QDeclarativePrivate::QDeclarativeElement<QtMobility::QDeclarativeDocumentGalleryType> 0x0001401d   Data          94  declarative_gallery.in(.constdata__ZTSN19QDeclarativePrivate19QDeclarativeElementIN10QtMobility31QDeclarativeDocumentGalleryTypeEEE)
    typeinfo name for QDeclarativePrivate::QDeclarativeElement<QtMobility::QDeclarativeGalleryEqualsFilter> 0x0001407b   Data          94  declarative_gallery.in(.constdata__ZTSN19QDeclarativePrivate19QDeclarativeElementIN10QtMobility31QDeclarativeGalleryEqualsFilterEEE)
    typeinfo name for QDeclarativePrivate::QDeclarativeElement<QtMobility::QDeclarativeDocumentGalleryModel> 0x000140d9   Data          95  declarative_gallery.in(.constdata__ZTSN19QDeclarativePrivate19QDeclarativeElementIN10QtMobility32QDeclarativeDocumentGalleryModelEEE)
    typeinfo name for QDeclarativePrivate::QDeclarativeElement<QtMobility::QDeclarativeGalleryContainsFilter> 0x00014138   Data          96  declarative_gallery.in(.constdata__ZTSN19QDeclarativePrivate19QDeclarativeElementIN10QtMobility33QDeclarativeGalleryContainsFilterEEE)
    typeinfo name for QDeclarativePrivate::QDeclarativeElement<QtMobility::QDeclarativeGalleryEndsWithFilter> 0x00014198   Data          96  declarative_gallery.in(.constdata__ZTSN19QDeclarativePrivate19QDeclarativeElementIN10QtMobility33QDeclarativeGalleryEndsWithFilterEEE)
    typeinfo name for QDeclarativePrivate::QDeclarativeElement<QtMobility::QDeclarativeGalleryLessThanFilter> 0x000141f8   Data          96  declarative_gallery.in(.constdata__ZTSN19QDeclarativePrivate19QDeclarativeElementIN10QtMobility33QDeclarativeGalleryLessThanFilterEEE)
    typeinfo name for QDeclarativePrivate::QDeclarativeElement<QtMobility::QDeclarativeGalleryWildcardFilter> 0x00014258   Data          96  declarative_gallery.in(.constdata__ZTSN19QDeclarativePrivate19QDeclarativeElementIN10QtMobility33QDeclarativeGalleryWildcardFilterEEE)
    typeinfo name for QDeclarativePrivate::QDeclarativeElement<QtMobility::QDeclarativeGalleryStartsWithFilter> 0x000142b8   Data          98  declarative_gallery.in(.constdata__ZTSN19QDeclarativePrivate19QDeclarativeElementIN10QtMobility35QDeclarativeGalleryStartsWithFilterEEE)
    typeinfo name for QDeclarativePrivate::QDeclarativeElement<QtMobility::QDeclarativeGalleryGreaterThanFilter> 0x0001431a   Data          99  declarative_gallery.in(.constdata__ZTSN19QDeclarativePrivate19QDeclarativeElementIN10QtMobility36QDeclarativeGalleryGreaterThanFilterEEE)
    typeinfo name for QDeclarativePrivate::QDeclarativeElement<QtMobility::QDeclarativeGalleryFilterIntersection> 0x0001437d   Data         100  declarative_gallery.in(.constdata__ZTSN19QDeclarativePrivate19QDeclarativeElementIN10QtMobility37QDeclarativeGalleryFilterIntersectionEEE)
    typeinfo name for QDeclarativePrivate::QDeclarativeElement<QtMobility::QDeclarativeGalleryLessThanEqualsFilter> 0x000143e1   Data         102  declarative_gallery.in(.constdata__ZTSN19QDeclarativePrivate19QDeclarativeElementIN10QtMobility39QDeclarativeGalleryLessThanEqualsFilterEEE)
    typeinfo name for QDeclarativePrivate::QDeclarativeElement<QtMobility::QDeclarativeGalleryGreaterThanEqualsFilter> 0x00014447   Data         105  declarative_gallery.in(.constdata__ZTSN19QDeclarativePrivate19QDeclarativeElementIN10QtMobility42QDeclarativeGalleryGreaterThanEqualsFilterEEE)
    vtable for QtMobility::QDeclarativeGalleryItem 0x000144b0   Data          84  declarative_gallery.in(.constdata__ZTVN10QtMobility23QDeclarativeGalleryItemE)
    vtable for QtMobility::QDeclarativeGalleryType 0x00014504   Data          84  declarative_gallery.in(.constdata__ZTVN10QtMobility23QDeclarativeGalleryTypeE)
    vtable for QtMobility::QGalleryDeclarativeModule 0x00014558   Data          88  declarative_gallery.in(.constdata__ZTVN10QtMobility25QGalleryDeclarativeModuleE)
    vtable for QtMobility::QDeclarativeGalleryFilterBase 0x000145b0   Data          60  declarative_gallery.in(.constdata__ZTVN10QtMobility29QDeclarativeGalleryFilterBaseE)
    vtable for QtMobility::QDeclarativeGalleryQueryModel 0x000145ec   Data         200  declarative_gallery.in(.constdata__ZTVN10QtMobility29QDeclarativeGalleryQueryModelE)
    vtable for QtMobility::QDeclarativeGalleryFilterGroup 0x000146b4   Data          92  declarative_gallery.in(.constdata__ZTVN10QtMobility30QDeclarativeGalleryFilterGroupE)
    vtable for QtMobility::QDeclarativeGalleryValueFilter 0x00014710   Data          60  declarative_gallery.in(.constdata__ZTVN10QtMobility30QDeclarativeGalleryValueFilterE)
    vtable for QtMobility::QDeclarativeDocumentGalleryItem 0x0001474c   Data          88  declarative_gallery.in(.constdata__ZTVN10QtMobility31QDeclarativeDocumentGalleryItemE)
    vtable for QtMobility::QDeclarativeDocumentGalleryType 0x000147a4   Data          88  declarative_gallery.in(.constdata__ZTVN10QtMobility31QDeclarativeDocumentGalleryTypeE)
    vtable for QtMobility::QDeclarativeGalleryStringFilter 0x000147fc   Data          60  declarative_gallery.in(.constdata__ZTVN10QtMobility31QDeclarativeGalleryStringFilterE)
    vtable for QtMobility::QDeclarativeDocumentGalleryModel 0x00014838   Data         204  declarative_gallery.in(.constdata__ZTVN10QtMobility32QDeclarativeDocumentGalleryModelE)
    vtable for QDeclarativePrivate::QDeclarativeElement<QtMobility::QDeclarativeGalleryFilterUnion> 0x00014904   Data          92  declarative_gallery.in(.constdata__ZTVN19QDeclarativePrivate19QDeclarativeElementIN10QtMobility30QDeclarativeGalleryFilterUnionEEE)
    vtable for QDeclarativePrivate::QDeclarativeElement<QtMobility::QDeclarativeDocumentGalleryItem> 0x00014960   Data          88  declarative_gallery.in(.constdata__ZTVN19QDeclarativePrivate19QDeclarativeElementIN10QtMobility31QDeclarativeDocumentGalleryItemEEE)
    vtable for QDeclarativePrivate::QDeclarativeElement<QtMobility::QDeclarativeDocumentGalleryType> 0x000149b8   Data          88  declarative_gallery.in(.constdata__ZTVN19QDeclarativePrivate19QDeclarativeElementIN10QtMobility31QDeclarativeDocumentGalleryTypeEEE)
    vtable for QDeclarativePrivate::QDeclarativeElement<QtMobility::QDeclarativeGalleryEqualsFilter> 0x00014a10   Data          60  declarative_gallery.in(.constdata__ZTVN19QDeclarativePrivate19QDeclarativeElementIN10QtMobility31QDeclarativeGalleryEqualsFilterEEE)
    vtable for QDeclarativePrivate::QDeclarativeElement<QtMobility::QDeclarativeDocumentGalleryModel> 0x00014a4c   Data         204  declarative_gallery.in(.constdata__ZTVN19QDeclarativePrivate19QDeclarativeElementIN10QtMobility32QDeclarativeDocumentGalleryModelEEE)
    vtable for QDeclarativePrivate::QDeclarativeElement<QtMobility::QDeclarativeGalleryContainsFilter> 0x00014b18   Data          60  declarative_gallery.in(.constdata__ZTVN19QDeclarativePrivate19QDeclarativeElementIN10QtMobility33QDeclarativeGalleryContainsFilterEEE)
    vtable for QDeclarativePrivate::QDeclarativeElement<QtMobility::QDeclarativeGalleryEndsWithFilter> 0x00014b54   Data          60  declarative_gallery.in(.constdata__ZTVN19QDeclarativePrivate19QDeclarativeElementIN10QtMobility33QDeclarativeGalleryEndsWithFilterEEE)
    vtable for QDeclarativePrivate::QDeclarativeElement<QtMobility::QDeclarativeGalleryLessThanFilter> 0x00014b90   Data          60  declarative_gallery.in(.constdata__ZTVN19QDeclarativePrivate19QDeclarativeElementIN10QtMobility33QDeclarativeGalleryLessThanFilterEEE)
    vtable for QDeclarativePrivate::QDeclarativeElement<QtMobility::QDeclarativeGalleryWildcardFilter> 0x00014bcc   Data          60  declarative_gallery.in(.constdata__ZTVN19QDeclarativePrivate19QDeclarativeElementIN10QtMobility33QDeclarativeGalleryWildcardFilterEEE)
    vtable for QDeclarativePrivate::QDeclarativeElement<QtMobility::QDeclarativeGalleryStartsWithFilter> 0x00014c08   Data          60  declarative_gallery.in(.constdata__ZTVN19QDeclarativePrivate19QDeclarativeElementIN10QtMobility35QDeclarativeGalleryStartsWithFilterEEE)
    vtable for QDeclarativePrivate::QDeclarativeElement<QtMobility::QDeclarativeGalleryGreaterThanFilter> 0x00014c44   Data          60  declarative_gallery.in(.constdata__ZTVN19QDeclarativePrivate19QDeclarativeElementIN10QtMobility36QDeclarativeGalleryGreaterThanFilterEEE)
    vtable for QDeclarativePrivate::QDeclarativeElement<QtMobility::QDeclarativeGalleryFilterIntersection> 0x00014c80   Data          92  declarative_gallery.in(.constdata__ZTVN19QDeclarativePrivate19QDeclarativeElementIN10QtMobility37QDeclarativeGalleryFilterIntersectionEEE)
    vtable for QDeclarativePrivate::QDeclarativeElement<QtMobility::QDeclarativeGalleryLessThanEqualsFilter> 0x00014cdc   Data          60  declarative_gallery.in(.constdata__ZTVN19QDeclarativePrivate19QDeclarativeElementIN10QtMobility39QDeclarativeGalleryLessThanEqualsFilterEEE)
    vtable for QDeclarativePrivate::QDeclarativeElement<QtMobility::QDeclarativeGalleryGreaterThanEqualsFilter> 0x00014d18   Data          60  declarative_gallery.in(.constdata__ZTVN19QDeclarativePrivate19QDeclarativeElementIN10QtMobility42QDeclarativeGalleryGreaterThanEqualsFilterEEE)
    .ARM.exidx$$Base                         0x00015214   Number         0  ucppinit_aeabi.o(.ARM.exidx)
    .ARM.exidx$$Limit                        0x00015c1c   Number         0  declarative_gallery.in(.ARM.exidx)
    Image$$ER_RO$$Limit                      0x00015c1c   Number         0  anon$$obj.o(linker$$defined$$symbols)
    __dso_handle                             0x00400018   Data           4  ucppfini.o(.data)
    QMetaTypeId<QDeclarativeListProperty<QtMobility::QDeclarativeGalleryFilterBase>>::qt_metatype_id()::metatype_id 0x0040001c   Data           4  declarative_gallery.in(.data__ZZN11QMetaTypeIdI24QDeclarativeListPropertyIN10QtMobility29QDeclarativeGalleryFilterBaseEEE14qt_metatype_idEvE11metatype_id)
    QMetaTypeId<QDeclarativeListProperty<QtMobility::QDeclarativeGalleryFilterUnion>>::qt_metatype_id()::metatype_id 0x00400020   Data           4  declarative_gallery.in(.data__ZZN11QMetaTypeIdI24QDeclarativeListPropertyIN10QtMobility30QDeclarativeGalleryFilterUnionEEE14qt_metatype_idEvE11metatype_id)
    QMetaTypeId<QDeclarativeListProperty<QtMobility::QDeclarativeDocumentGalleryItem>>::qt_metatype_id()::metatype_id 0x00400024   Data           4  declarative_gallery.in(.data__ZZN11QMetaTypeIdI24QDeclarativeListPropertyIN10QtMobility31QDeclarativeDocumentGalleryItemEEE14qt_metatype_idEvE11metatype_id)
    QMetaTypeId<QDeclarativeListProperty<QtMobility::QDeclarativeDocumentGalleryType>>::qt_metatype_id()::metatype_id 0x00400028   Data           4  declarative_gallery.in(.data__ZZN11QMetaTypeIdI24QDeclarativeListPropertyIN10QtMobility31QDeclarativeDocumentGalleryTypeEEE14qt_metatype_idEvE11metatype_id)
    QMetaTypeId<QDeclarativeListProperty<QtMobility::QDeclarativeGalleryEqualsFilter>>::qt_metatype_id()::metatype_id 0x0040002c   Data           4  declarative_gallery.in(.data__ZZN11QMetaTypeIdI24QDeclarativeListPropertyIN10QtMobility31QDeclarativeGalleryEqualsFilterEEE14qt_metatype_idEvE11metatype_id)
    QMetaTypeId<QDeclarativeListProperty<QtMobility::QDeclarativeDocumentGalleryModel>>::qt_metatype_id()::metatype_id 0x00400030   Data           4  declarative_gallery.in(.data__ZZN11QMetaTypeIdI24QDeclarativeListPropertyIN10QtMobility32QDeclarativeDocumentGalleryModelEEE14qt_metatype_idEvE11metatype_id)
    QMetaTypeId<QDeclarativeListProperty<QtMobility::QDeclarativeGalleryContainsFilter>>::qt_metatype_id()::metatype_id 0x00400034   Data           4  declarative_gallery.in(.data__ZZN11QMetaTypeIdI24QDeclarativeListPropertyIN10QtMobility33QDeclarativeGalleryContainsFilterEEE14qt_metatype_idEvE11metatype_id)
    QMetaTypeId<QDeclarativeListProperty<QtMobility::QDeclarativeGalleryEndsWithFilter>>::qt_metatype_id()::metatype_id 0x00400038   Data           4  declarative_gallery.in(.data__ZZN11QMetaTypeIdI24QDeclarativeListPropertyIN10QtMobility33QDeclarativeGalleryEndsWithFilterEEE14qt_metatype_idEvE11metatype_id)
    QMetaTypeId<QDeclarativeListProperty<QtMobility::QDeclarativeGalleryLessThanFilter>>::qt_metatype_id()::metatype_id 0x0040003c   Data           4  declarative_gallery.in(.data__ZZN11QMetaTypeIdI24QDeclarativeListPropertyIN10QtMobility33QDeclarativeGalleryLessThanFilterEEE14qt_metatype_idEvE11metatype_id)
    QMetaTypeId<QDeclarativeListProperty<QtMobility::QDeclarativeGalleryWildcardFilter>>::qt_metatype_id()::metatype_id 0x00400040   Data           4  declarative_gallery.in(.data__ZZN11QMetaTypeIdI24QDeclarativeListPropertyIN10QtMobility33QDeclarativeGalleryWildcardFilterEEE14qt_metatype_idEvE11metatype_id)
    QMetaTypeId<QDeclarativeListProperty<QtMobility::QDeclarativeGalleryStartsWithFilter>>::qt_metatype_id()::metatype_id 0x00400044   Data           4  declarative_gallery.in(.data__ZZN11QMetaTypeIdI24QDeclarativeListPropertyIN10QtMobility35QDeclarativeGalleryStartsWithFilterEEE14qt_metatype_idEvE11metatype_id)
    QMetaTypeId<QDeclarativeListProperty<QtMobility::QDeclarativeGalleryGreaterThanFilter>>::qt_metatype_id()::metatype_id 0x00400048   Data           4  declarative_gallery.in(.data__ZZN11QMetaTypeIdI24QDeclarativeListPropertyIN10QtMobility36QDeclarativeGalleryGreaterThanFilterEEE14qt_metatype_idEvE11metatype_id)
    QMetaTypeId<QDeclarativeListProperty<QtMobility::QDeclarativeGalleryFilterIntersection>>::qt_metatype_id()::metatype_id 0x0040004c   Data           4  declarative_gallery.in(.data__ZZN11QMetaTypeIdI24QDeclarativeListPropertyIN10QtMobility37QDeclarativeGalleryFilterIntersectionEEE14qt_metatype_idEvE11metatype_id)
    QMetaTypeId<QDeclarativeListProperty<QtMobility::QDeclarativeGalleryLessThanEqualsFilter>>::qt_metatype_id()::metatype_id 0x00400050   Data           4  declarative_gallery.in(.data__ZZN11QMetaTypeIdI24QDeclarativeListPropertyIN10QtMobility39QDeclarativeGalleryLessThanEqualsFilterEEE14qt_metatype_idEvE11metatype_id)
    QMetaTypeId<QDeclarativeListProperty<QtMobility::QDeclarativeGalleryGreaterThanEqualsFilter>>::qt_metatype_id()::metatype_id 0x00400054   Data           4  declarative_gallery.in(.data__ZZN11QMetaTypeIdI24QDeclarativeListPropertyIN10QtMobility42QDeclarativeGalleryGreaterThanEqualsFilterEEE14qt_metatype_idEvE11metatype_id)
    QMetaTypeId<QtMobility::QDeclarativeDocumentGallery::ItemType>::qt_metatype_id()::metatype_id 0x00400058   Data           4  declarative_gallery.in(.data__ZZN11QMetaTypeIdIN10QtMobility27QDeclarativeDocumentGallery8ItemTypeEE14qt_metatype_idEvE11metatype_id)
    QMetaTypeId<QtMobility::QDeclarativeGalleryFilterBase*>::qt_metatype_id()::metatype_id 0x0040005c   Data           4  declarative_gallery.in(.data__ZZN11QMetaTypeIdIPN10QtMobility29QDeclarativeGalleryFilterBaseEE14qt_metatype_idEvE11metatype_id)
    QMetaTypeId<QtMobility::QDeclarativeGalleryFilterUnion*>::qt_metatype_id()::metatype_id 0x00400060   Data           4  declarative_gallery.in(.data__ZZN11QMetaTypeIdIPN10QtMobility30QDeclarativeGalleryFilterUnionEE14qt_metatype_idEvE11metatype_id)
    QMetaTypeId<QtMobility::QDeclarativeDocumentGalleryItem*>::qt_metatype_id()::metatype_id 0x00400064   Data           4  declarative_gallery.in(.data__ZZN11QMetaTypeIdIPN10QtMobility31QDeclarativeDocumentGalleryItemEE14qt_metatype_idEvE11metatype_id)
    QMetaTypeId<QtMobility::QDeclarativeDocumentGalleryType*>::qt_metatype_id()::metatype_id 0x00400068   Data           4  declarative_gallery.in(.data__ZZN11QMetaTypeIdIPN10QtMobility31QDeclarativeDocumentGalleryTypeEE14qt_metatype_idEvE11metatype_id)
    QMetaTypeId<QtMobility::QDeclarativeGalleryEqualsFilter*>::qt_metatype_id()::metatype_id 0x0040006c   Data           4  declarative_gallery.in(.data__ZZN11QMetaTypeIdIPN10QtMobility31QDeclarativeGalleryEqualsFilterEE14qt_metatype_idEvE11metatype_id)
    QMetaTypeId<QtMobility::QDeclarativeDocumentGalleryModel*>::qt_metatype_id()::metatype_id 0x00400070   Data           4  declarative_gallery.in(.data__ZZN11QMetaTypeIdIPN10QtMobility32QDeclarativeDocumentGalleryModelEE14qt_metatype_idEvE11metatype_id)
    QMetaTypeId<QtMobility::QDeclarativeGalleryContainsFilter*>::qt_metatype_id()::metatype_id 0x00400074   Data           4  declarative_gallery.in(.data__ZZN11QMetaTypeIdIPN10QtMobility33QDeclarativeGalleryContainsFilterEE14qt_metatype_idEvE11metatype_id)
    QMetaTypeId<QtMobility::QDeclarativeGalleryEndsWithFilter*>::qt_metatype_id()::metatype_id 0x00400078   Data           4  declarative_gallery.in(.data__ZZN11QMetaTypeIdIPN10QtMobility33QDeclarativeGalleryEndsWithFilterEE14qt_metatype_idEvE11metatype_id)
    QMetaTypeId<QtMobility::QDeclarativeGalleryLessThanFilter*>::qt_metatype_id()::metatype_id 0x0040007c   Data           4  declarative_gallery.in(.data__ZZN11QMetaTypeIdIPN10QtMobility33QDeclarativeGalleryLessThanFilterEE14qt_metatype_idEvE11metatype_id)
    QMetaTypeId<QtMobility::QDeclarativeGalleryWildcardFilter*>::qt_metatype_id()::metatype_id 0x00400080   Data           4  declarative_gallery.in(.data__ZZN11QMetaTypeIdIPN10QtMobility33QDeclarativeGalleryWildcardFilterEE14qt_metatype_idEvE11metatype_id)
    QMetaTypeId<QtMobility::QDeclarativeGalleryStartsWithFilter*>::qt_metatype_id()::metatype_id 0x00400084   Data           4  declarative_gallery.in(.data__ZZN11QMetaTypeIdIPN10QtMobility35QDeclarativeGalleryStartsWithFilterEE14qt_metatype_idEvE11metatype_id)
    QMetaTypeId<QtMobility::QDeclarativeGalleryGreaterThanFilter*>::qt_metatype_id()::metatype_id 0x00400088   Data           4  declarative_gallery.in(.data__ZZN11QMetaTypeIdIPN10QtMobility36QDeclarativeGalleryGreaterThanFilterEE14qt_metatype_idEvE11metatype_id)
    QMetaTypeId<QtMobility::QDeclarativeGalleryFilterIntersection*>::qt_metatype_id()::metatype_id 0x0040008c   Data           4  declarative_gallery.in(.data__ZZN11QMetaTypeIdIPN10QtMobility37QDeclarativeGalleryFilterIntersectionEE14qt_metatype_idEvE11metatype_id)
    QMetaTypeId<QtMobility::QDeclarativeGalleryLessThanEqualsFilter*>::qt_metatype_id()::metatype_id 0x00400090   Data           4  declarative_gallery.in(.data__ZZN11QMetaTypeIdIPN10QtMobility39QDeclarativeGalleryLessThanEqualsFilterEE14qt_metatype_idEvE11metatype_id)
    QMetaTypeId<QtMobility::QDeclarativeGalleryGreaterThanEqualsFilter*>::qt_metatype_id()::metatype_id 0x00400094   Data           4  declarative_gallery.in(.data__ZZN11QMetaTypeIdIPN10QtMobility42QDeclarativeGalleryGreaterThanEqualsFilterEE14qt_metatype_idEvE11metatype_id)

