ARM Linker, RVCT2.2 [Build 686]

================================================================================

Image Symbol Table

    Local Symbols

    Symbol Name                              Value     Ov Type        Size  Object(Section)

    [Anonymous Symbol]                       0x00000000   Number         0  QtCore{00040703}-276.o ABSOLUTE
    [Anonymous Symbol]                       0x00000000   Number         0  QtCore{00040703}-1874.o ABSOLUTE
    [Anonymous Symbol]                       0x00000000   Number         0  QtCore{00040703}-1003.o ABSOLUTE
    [Anonymous Symbol]                       0x00000000   Number         0  QtCore{00040703}-282.o ABSOLUTE
    [Anonymous Symbol]                       0x00000000   Number         0  QtCore{00040703}-1902.o ABSOLUTE
    [Anonymous Symbol]                       0x00000000   Number         0  QtCore{00040703}-1004.o ABSOLUTE
    [Anonymous Symbol]                       0x00000000   Number         0  QtCore{00040703}-3131.o ABSOLUTE
    [Anonymous Symbol]                       0x00000000   Number         0  QtCore{00040703}-1903.o ABSOLUTE
    [Anonymous Symbol]                       0x00000000   Number         0  QtCore{00040703}-1005.o ABSOLUTE
    [Anonymous Symbol]                       0x00000000   Number         0  QtCore{00040703}-3136.o ABSOLUTE
    [Anonymous Symbol]                       0x00000000   Number         0  QtCore{00040703}-1905.o ABSOLUTE
    [Anonymous Symbol]                       0x00000000   Number         0  QtCore{00040703}-1007.o ABSOLUTE
    [Anonymous Symbol]                       0x00000000   Number         0  QtCore{00040703}-3139.o ABSOLUTE
    [Anonymous Symbol]                       0x00000000   Number         0  QtCore{00040703}-1912.o ABSOLUTE
    [Anonymous Symbol]                       0x00000000   Number         0  QtCore{00040703}-1008.o ABSOLUTE
    [Anonymous Symbol]                       0x00000000   Number         0  QtCore{00040703}-3163.o ABSOLUTE
    [Anonymous Symbol]                       0x00000000   Number         0  QtCore{00040703}-1917.o ABSOLUTE
    [Anonymous Symbol]                       0x00000000   Number         0  QtCore{00040703}-1012.o ABSOLUTE
    [Anonymous Symbol]                       0x00000000   Number         0  QtCore{00040703}-331.o ABSOLUTE
    [Anonymous Symbol]                       0x00000000   Number         0  QtCore{00040703}-2015.o ABSOLUTE
    [Anonymous Symbol]                       0x00000000   Number         0  QtCore{00040703}-1013.o ABSOLUTE
    [Anonymous Symbol]                       0x00000000   Number         0  QtCore{00040703}-332.o ABSOLUTE
    [Anonymous Symbol]                       0x00000000   Number         0  QtCore{00040703}-2034.o ABSOLUTE
    [Anonymous Symbol]                       0x00000000   Number         0  QtCore{00040703}-1034.o ABSOLUTE
    [Anonymous Symbol]                       0x00000000   Number         0  QtCore{00040703}-335.o ABSOLUTE
    [Anonymous Symbol]                       0x00000000   Number         0  QtCore{00040703}-2036.o ABSOLUTE
    [Anonymous Symbol]                       0x00000000   Number         0  QtCore{00040703}-1036.o ABSOLUTE
    [Anonymous Symbol]                       0x00000000   Number         0  QtCore{00040703}-3609.o ABSOLUTE
    [Anonymous Symbol]                       0x00000000   Number         0  QtCore{00040703}-2037.o ABSOLUTE
    [Anonymous Symbol]                       0x00000000   Number         0  QtCore{00040703}-1037.o ABSOLUTE
    [Anonymous Symbol]                       0x00000000   Number         0  QtCore{00040703}-3610.o ABSOLUTE
    [Anonymous Symbol]                       0x00000000   Number         0  QtCore{00040703}-2038.o ABSOLUTE
    [Anonymous Symbol]                       0x00000000   Number         0  QtCore{00040703}-1038.o ABSOLUTE
    [Anonymous Symbol]                       0x00000000   Number         0  QtCore{00040703}-3689.o ABSOLUTE
    [Anonymous Symbol]                       0x00000000   Number         0  QtCore{00040703}-2040.o ABSOLUTE
    [Anonymous Symbol]                       0x00000000   Number         0  QtCore{00040703}-1039.o ABSOLUTE
    [Anonymous Symbol]                       0x00000000   Number         0  QtCore{00040703}-3691.o ABSOLUTE
    [Anonymous Symbol]                       0x00000000   Number         0  QtCore{00040703}-2043.o ABSOLUTE
    [Anonymous Symbol]                       0x00000000   Number         0  QtCore{00040703}-1046.o ABSOLUTE
    [Anonymous Symbol]                       0x00000000   Number         0  QtCore{00040703}-3692.o ABSOLUTE
    [Anonymous Symbol]                       0x00000000   Number         0  QtCore{00040703}-2082.o ABSOLUTE
    [Anonymous Symbol]                       0x00000000   Number         0  QtCore{00040703}-1047.o ABSOLUTE
    [Anonymous Symbol]                       0x00000000   Number         0  QtCore{00040703}-70.o ABSOLUTE
    [Anonymous Symbol]                       0x00000000   Number         0  QtCore{00040703}-2084.o ABSOLUTE
    [Anonymous Symbol]                       0x00000000   Number         0  QtCore{00040703}-1048.o ABSOLUTE
    [Anonymous Symbol]                       0x00000000   Number         0  QtCore{00040703}-988.o ABSOLUTE
    [Anonymous Symbol]                       0x00000000   Number         0  QtCore{00040703}-2110.o ABSOLUTE
    [Anonymous Symbol]                       0x00000000   Number         0  QtCore{00040703}-1051.o ABSOLUTE
    [Anonymous Symbol]                       0x00000000   Number         0  QtCore{00040703}-990.o ABSOLUTE
    [Anonymous Symbol]                       0x00000000   Number         0  QtCore{00040703}-2134.o ABSOLUTE
    [Anonymous Symbol]                       0x00000000   Number         0  QtCore{00040703}-1055.o ABSOLUTE
    [Anonymous Symbol]                       0x00000000   Number         0  QtCore{00040703}-991.o ABSOLUTE
    [Anonymous Symbol]                       0x00000000   Number         0  QtCore{00040703}-2141.o ABSOLUTE
    [Anonymous Symbol]                       0x00000000   Number         0  QtCore{00040703}-126.o ABSOLUTE
    [Anonymous Symbol]                       0x00000000   Number         0  QtCore{00040703}-996.o ABSOLUTE
    [Anonymous Symbol]                       0x00000000   Number         0  QtCore{00040703}-2142.o ABSOLUTE
    [Anonymous Symbol]                       0x00000000   Number         0  QtCore{00040703}-128.o ABSOLUTE
    [Anonymous Symbol]                       0x00000000   Number         0  libc{00010000}-350.o ABSOLUTE
    [Anonymous Symbol]                       0x00000000   Number         0  QtCore{00040703}-2186.o ABSOLUTE
    [Anonymous Symbol]                       0x00000000   Number         0  QtCore{00040703}-129.o ABSOLUTE
    [Anonymous Symbol]                       0x00000000   Number         0  euser{000a0000}-670.o ABSOLUTE
    [Anonymous Symbol]                       0x00000000   Number         0  QtCore{00040703}-2188.o ABSOLUTE
    [Anonymous Symbol]                       0x00000000   Number         0  QtCore{00040703}-159.o ABSOLUTE
    [Anonymous Symbol]                       0x00000000   Number         0  euser{000a0000}-671.o ABSOLUTE
    [Anonymous Symbol]                       0x00000000   Number         0  QtCore{00040703}-2191.o ABSOLUTE
    [Anonymous Symbol]                       0x00000000   Number         0  QtCore{00040703}-167.o ABSOLUTE
    [Anonymous Symbol]                       0x00000000   Number         0  QtCore{00040703}-2690.o ABSOLUTE
    [Anonymous Symbol]                       0x00000000   Number         0  QtCore{00040703}-2199.o ABSOLUTE
    [Anonymous Symbol]                       0x00000000   Number         0  QtCore{00040703}-1670.o ABSOLUTE
    [Anonymous Symbol]                       0x00000000   Number         0  QtMessaging{00010103}-10.o ABSOLUTE
    [Anonymous Symbol]                       0x00000000   Number         0  QtCore{00040703}-2416.o ABSOLUTE
    [Anonymous Symbol]                       0x00000000   Number         0  QtCore{00040703}-1671.o ABSOLUTE
    [Anonymous Symbol]                       0x00000000   Number         0  QtMessaging{00010103}-101.o ABSOLUTE
    [Anonymous Symbol]                       0x00000000   Number         0  QtCore{00040703}-2672.o ABSOLUTE
    [Anonymous Symbol]                       0x00000000   Number         0  QtCore{00040703}-1674.o ABSOLUTE
    [Anonymous Symbol]                       0x00000000   Number         0  QtMessaging{00010103}-107.o ABSOLUTE
    [Anonymous Symbol]                       0x00000000   Number         0  QtCore{00040703}-2675.o ABSOLUTE
    [Anonymous Symbol]                       0x00000000   Number         0  QtCore{00040703}-1676.o ABSOLUTE
    [Anonymous Symbol]                       0x00000000   Number         0  QtMessaging{00010103}-11.o ABSOLUTE
    [Anonymous Symbol]                       0x00000000   Number         0  QtCore{00040703}-2678.o ABSOLUTE
    [Anonymous Symbol]                       0x00000000   Number         0  QtCore{00040703}-1760.o ABSOLUTE
    [Anonymous Symbol]                       0x00000000   Number         0  QtMessaging{00010103}-114.o ABSOLUTE
    [Anonymous Symbol]                       0x00000000   Number         0  QtCore{00040703}-2679.o ABSOLUTE
    [Anonymous Symbol]                       0x00000000   Number         0  QtCore{00040703}-1763.o ABSOLUTE
    [Anonymous Symbol]                       0x00000000   Number         0  QtMessaging{00010103}-115.o ABSOLUTE
    [Anonymous Symbol]                       0x00000000   Number         0  QtCore{00040703}-2680.o ABSOLUTE
    [Anonymous Symbol]                       0x00000000   Number         0  QtCore{00040703}-1764.o ABSOLUTE
    [Anonymous Symbol]                       0x00000000   Number         0  QtMessaging{00010103}-118.o ABSOLUTE
    [Anonymous Symbol]                       0x00000000   Number         0  QtCore{00040703}-2681.o ABSOLUTE
    [Anonymous Symbol]                       0x00000000   Number         0  QtCore{00040703}-1766.o ABSOLUTE
    [Anonymous Symbol]                       0x00000000   Number         0  QtMessaging{00010103}-12.o ABSOLUTE
    [Anonymous Symbol]                       0x00000000   Number         0  QtCore{00040703}-2682.o ABSOLUTE
    [Anonymous Symbol]                       0x00000000   Number         0  QtCore{00040703}-1767.o ABSOLUTE
    [Anonymous Symbol]                       0x00000000   Number         0  QtMessaging{00010103}-13.o ABSOLUTE
    [Anonymous Symbol]                       0x00000000   Number         0  QtCore{00040703}-2684.o ABSOLUTE
    [Anonymous Symbol]                       0x00000000   Number         0  QtCore{00040703}-1768.o ABSOLUTE
    [Anonymous Symbol]                       0x00000000   Number         0  QtMessaging{00010103}-141.o ABSOLUTE
    [Anonymous Symbol]                       0x00000000   Number         0  QtCore{00040703}-2685.o ABSOLUTE
    [Anonymous Symbol]                       0x00000000   Number         0  QtCore{00040703}-1772.o ABSOLUTE
    [Anonymous Symbol]                       0x00000000   Number         0  QtMessaging{00010103}-142.o ABSOLUTE
    [Anonymous Symbol]                       0x00000000   Number         0  QtCore{00040703}-2686.o ABSOLUTE
    [Anonymous Symbol]                       0x00000000   Number         0  QtCore{00040703}-1773.o ABSOLUTE
    [Anonymous Symbol]                       0x00000000   Number         0  QtMessaging{00010103}-143.o ABSOLUTE
    [Anonymous Symbol]                       0x00000000   Number         0  QtCore{00040703}-2689.o ABSOLUTE
    [Anonymous Symbol]                       0x00000000   Number         0  QtCore{00040703}-1777.o ABSOLUTE
    [Anonymous Symbol]                       0x00000000   Number         0  QtMessaging{00010103}-144.o ABSOLUTE
    [Anonymous Symbol]                       0x00000000   Number         0  QtMessaging{00010103}-386.o ABSOLUTE
    [Anonymous Symbol]                       0x00000000   Number         0  QtCore{00040703}-1784.o ABSOLUTE
    [Anonymous Symbol]                       0x00000000   Number         0  QtMessaging{00010103}-145.o ABSOLUTE
    [Anonymous Symbol]                       0x00000000   Number         0  QtCore{00040703}-2691.o ABSOLUTE
    [Anonymous Symbol]                       0x00000000   Number         0  QtCore{00040703}-1785.o ABSOLUTE
    [Anonymous Symbol]                       0x00000000   Number         0  QtMessaging{00010103}-146.o ABSOLUTE
    [Anonymous Symbol]                       0x00000000   Number         0  QtCore{00040703}-2692.o ABSOLUTE
    [Anonymous Symbol]                       0x00000000   Number         0  QtCore{00040703}-1789.o ABSOLUTE
    [Anonymous Symbol]                       0x00000000   Number         0  QtMessaging{00010103}-147.o ABSOLUTE
    [Anonymous Symbol]                       0x00000000   Number         0  QtCore{00040703}-274.o ABSOLUTE
    [Anonymous Symbol]                       0x00000000   Number         0  QtCore{00040703}-1794.o ABSOLUTE
    [Anonymous Symbol]                       0x00000000   Number         0  QtMessaging{00010103}-148.o ABSOLUTE
    [Anonymous Symbol]                       0x00000000   Number         0  QtCore{00040703}-275.o ABSOLUTE
    [Anonymous Symbol]                       0x00000000   Number         0  QtCore{00040703}-1830.o ABSOLUTE
    [Anonymous Symbol]                       0x00000000   Number         0  QtMessaging{00010103}-149.o ABSOLUTE
    [Anonymous Symbol]                       0x00000000   Number         0  QtCore{00040703}-1000.o ABSOLUTE
    [Anonymous Symbol]                       0x00000000   Number         0  QtMessaging{00010103}-366.o ABSOLUTE
    [Anonymous Symbol]                       0x00000000   Number         0  QtMessaging{00010103}-150.o ABSOLUTE
    [Anonymous Symbol]                       0x00000000   Number         0  QtMessaging{00010103}-42.o ABSOLUTE
    [Anonymous Symbol]                       0x00000000   Number         0  QtMessaging{00010103}-37.o ABSOLUTE
    [Anonymous Symbol]                       0x00000000   Number         0  QtMessaging{00010103}-151.o ABSOLUTE
    [Anonymous Symbol]                       0x00000000   Number         0  QtMessaging{00010103}-44.o ABSOLUTE
    [Anonymous Symbol]                       0x00000000   Number         0  QtMessaging{00010103}-370.o ABSOLUTE
    [Anonymous Symbol]                       0x00000000   Number         0  QtMessaging{00010103}-155.o ABSOLUTE
    [Anonymous Symbol]                       0x00000000   Number         0  QtMessaging{00010103}-45.o ABSOLUTE
    [Anonymous Symbol]                       0x00000000   Number         0  QtMessaging{00010103}-375.o ABSOLUTE
    [Anonymous Symbol]                       0x00000000   Number         0  QtMessaging{00010103}-157.o ABSOLUTE
    [Anonymous Symbol]                       0x00000000   Number         0  QtMessaging{00010103}-46.o ABSOLUTE
    [Anonymous Symbol]                       0x00000000   Number         0  QtMessaging{00010103}-38.o ABSOLUTE
    [Anonymous Symbol]                       0x00000000   Number         0  QtMessaging{00010103}-16.o ABSOLUTE
    [Anonymous Symbol]                       0x00000000   Number         0  QtMessaging{00010103}-7.o ABSOLUTE
    [Anonymous Symbol]                       0x00000000   Number         0  QtMessaging{00010103}-382.o ABSOLUTE
    [Anonymous Symbol]                       0x00000000   Number         0  QtMessaging{00010103}-17.o ABSOLUTE
    [Anonymous Symbol]                       0x00000000   Number         0  QtMessaging{00010103}-72.o ABSOLUTE
    [Anonymous Symbol]                       0x00000000   Number         0  QtMessaging{00010103}-383.o ABSOLUTE
    [Anonymous Symbol]                       0x00000000   Number         0  QtMessaging{00010103}-171.o ABSOLUTE
    [Anonymous Symbol]                       0x00000000   Number         0  QtMessaging{00010103}-78.o ABSOLUTE
    [Anonymous Symbol]                       0x00000000   Number         0  QtMessaging{00010103}-385.o ABSOLUTE
    [Anonymous Symbol]                       0x00000000   Number         0  QtMessaging{00010103}-172.o ABSOLUTE
    [Anonymous Symbol]                       0x00000000   Number         0  QtMessaging{00010103}-85.o ABSOLUTE
    [Anonymous Symbol]                       0x00000000   Number         0  QtMessaging{00010103}-27.o ABSOLUTE
    [Anonymous Symbol]                       0x00000000   Number         0  QtMessaging{00010103}-178.o ABSOLUTE
    [Anonymous Symbol]                       0x00000000   Number         0  QtMessaging{00010103}-9.o ABSOLUTE
    [Anonymous Symbol]                       0x00000000   Number         0  QtMessaging{00010103}-387.o ABSOLUTE
    [Anonymous Symbol]                       0x00000000   Number         0  QtMessaging{00010103}-2.o ABSOLUTE
    [Anonymous Symbol]                       0x00000000   Number         0  QtMessaging{00010103}-92.o ABSOLUTE
    [Anonymous Symbol]                       0x00000000   Number         0  QtMessaging{00010103}-388.o ABSOLUTE
    [Anonymous Symbol]                       0x00000000   Number         0  QtMessaging{00010103}-21.o ABSOLUTE
    [Anonymous Symbol]                       0x00000000   Number         0  QtMessaging{00010103}-93.o ABSOLUTE
    [Anonymous Symbol]                       0x00000000   Number         0  QtMessaging{00010103}-389.o ABSOLUTE
    [Anonymous Symbol]                       0x00000000   Number         0  QtMessaging{00010103}-22.o ABSOLUTE
    [Anonymous Symbol]                       0x00000000   Number         0  QtMessaging{00010103}-94.o ABSOLUTE
    [Anonymous Symbol]                       0x00000000   Number         0  QtMessaging{00010103}-391.o ABSOLUTE
    [Anonymous Symbol]                       0x00000000   Number         0  QtMessaging{00010103}-225.o ABSOLUTE
    [Anonymous Symbol]                       0x00000000   Number         0  libstdcpp{00010000}-988.o ABSOLUTE
    [Anonymous Symbol]                       0x00000000   Number         0  QtMessaging{00010103}-392.o ABSOLUTE
    [Anonymous Symbol]                       0x00000000   Number         0  QtMessaging{00010103}-23.o ABSOLUTE
    [Anonymous Symbol]                       0x00000000   Number         0  libstdcpp{00010000}-992.o ABSOLUTE
    [Anonymous Symbol]                       0x00000000   Number         0  QtMessaging{00010103}-29.o ABSOLUTE
    [Anonymous Symbol]                       0x00000000   Number         0  QtMessaging{00010103}-234.o ABSOLUTE
    [Anonymous Symbol]                       0x00000000   Number         0  QtDeclarative{00040703}-1662.o ABSOLUTE
    [Anonymous Symbol]                       0x00000000   Number         0  QtMessaging{00010103}-292.o ABSOLUTE
    [Anonymous Symbol]                       0x00000000   Number         0  QtMessaging{00010103}-237.o ABSOLUTE
    [Anonymous Symbol]                       0x00000000   Number         0  QtDeclarative{00040703}-401.o ABSOLUTE
    [Anonymous Symbol]                       0x00000000   Number         0  QtMessaging{00010103}-3.o ABSOLUTE
    [Anonymous Symbol]                       0x00000000   Number         0  QtMessaging{00010103}-260.o ABSOLUTE
    [Anonymous Symbol]                       0x00000000   Number         0  QtDeclarative{00040703}-402.o ABSOLUTE
    [Anonymous Symbol]                       0x00000000   Number         0  QtMessaging{00010103}-30.o ABSOLUTE
    [Anonymous Symbol]                       0x00000000   Number         0  QtMessaging{00010103}-261.o ABSOLUTE
    [Anonymous Symbol]                       0x00000000   Number         0  QtDeclarative{00040703}-43.o ABSOLUTE
    [Anonymous Symbol]                       0x00000000   Number         0  QtMessaging{00010103}-31.o ABSOLUTE
    [Anonymous Symbol]                       0x00000000   Number         0  QtMessaging{00010103}-262.o ABSOLUTE
    [Anonymous Symbol]                       0x00000000   Number         0  QtDeclarative{00040703}-5.o ABSOLUTE
    [Anonymous Symbol]                       0x00000000   Number         0  QtMessaging{00010103}-313.o ABSOLUTE
    [Anonymous Symbol]                       0x00000000   Number         0  QtMessaging{00010103}-267.o ABSOLUTE
    [Anonymous Symbol]                       0x00000000   Number         0  QtDeclarative{00040703}-784.o ABSOLUTE
    [Anonymous Symbol]                       0x00000000   Number         0  QtMessaging{00010103}-32.o ABSOLUTE
    [Anonymous Symbol]                       0x00000000   Number         0  QtMessaging{00010103}-269.o ABSOLUTE
    [Anonymous Symbol]                       0x00000000   Number         0  QtDeclarative{00040703}-787.o ABSOLUTE
    [Anonymous Symbol]                       0x00000000   Number         0  QtMessaging{00010103}-33.o ABSOLUTE
    [Anonymous Symbol]                       0x00000000   Number         0  drtaeabi{000a0000}-190.o ABSOLUTE
    [Anonymous Symbol]                       0x00000000   Number         0  QtDeclarative{00040703}-873.o ABSOLUTE
    [Anonymous Symbol]                       0x00000000   Number         0  QtMessaging{00010103}-34.o ABSOLUTE
    [Anonymous Symbol]                       0x00000000   Number         0  QtMessaging{00010103}-270.o ABSOLUTE
    [Anonymous Symbol]                       0x00000000   Number         0  QtDeclarative{00040703}-874.o ABSOLUTE
    [Anonymous Symbol]                       0x00000000   Number         0  QtMessaging{00010103}-35.o ABSOLUTE
    [Anonymous Symbol]                       0x00000000   Number         0  QtMessaging{00010103}-272.o ABSOLUTE
    [Anonymous Symbol]                       0x00000000   Number         0  QtDeclarative{00040703}-875.o ABSOLUTE
    [Anonymous Symbol]                       0x00000000   Number         0  QtMessaging{00010103}-356.o ABSOLUTE
    [Anonymous Symbol]                       0x00000000   Number         0  QtMessaging{00010103}-274.o ABSOLUTE
    [Anonymous Symbol]                       0x00000000   Number         0  QtDeclarative{00040703}-878.o ABSOLUTE
    [Anonymous Symbol]                       0x00000000   Number         0  QtMessaging{00010103}-36.o ABSOLUTE
    [Anonymous Symbol]                       0x00000000   Number         0  QtMessaging{00010103}-279.o ABSOLUTE
    [Anonymous Symbol]                       0x00000000   Number         0  QtDeclarative{00040703}-881.o ABSOLUTE
    [Anonymous Symbol]                       0x00000000   Number         0  QtMessaging{00010103}-365.o ABSOLUTE
    [Anonymous Symbol]                       0x00000000   Number         0  QtMessaging{00010103}-28.o ABSOLUTE
    [Anonymous Symbol]                       0x00000000   Number         0  drtaeabi{000a0000}-158.o ABSOLUTE
    [Anonymous Symbol]                       0x00000000   Number         0  drtrvct2_2{000a0000}-28.o ABSOLUTE
    [Anonymous Symbol]                       0x00000000   Number         0  drtaeabi{000a0000}-187.o ABSOLUTE
    [Anonymous Symbol]                       0x00000000   Number         0  drtaeabi{000a0000}-180.o ABSOLUTE
    [Anonymous Symbol]                       0x00000000   Number         0  drtaeabi{000a0000}-189.o ABSOLUTE
    [Anonymous Symbol]                       0x00000000   Number         0  drtaeabi{000a0000}-188.o ABSOLUTE
    [Anonymous Symbol]                       0x00000000   Number         0  drtaeabi{000a0000}-183.o ABSOLUTE
    [Anonymous Symbol]                       0x00000000   Number         0  drtaeabi{000a0000}-155.o ABSOLUTE
    [Anonymous Symbol]                       0x00000000   Number         0  drtaeabi{000a0000}-186.o ABSOLUTE
    [Anonymous Symbol]                       0x00000000   Number         0  drtaeabi{000a0000}-184.o ABSOLUTE
    [Anonymous Symbol]                       0x00000000   Number         0  drtaeabi{000a0000}-147.o ABSOLUTE
    ..\..\..\..\EPOC32\BUILD\s60\osext\mobileruntime\group\LIBSTDCPP\ARMV5\VtblExports.s 0x00000000   Number         0  VtblExports.o ABSOLUTE
    \EPOC32\BUILD\src\cedar\generic\base\e32\compsupp\DRTAEABI\ARMV5\VtblExports.s 0x00000000   Number         0  VtblExports.o ABSOLUTE
    \EPOC32\BUILD\src\cedar\generic\base\e32\euser\EDLL\ARMV5\urel\uc_dll_.cpp 0x00000000   Number         0  uc_dll_.o ABSOLUTE
    \EPOC32\BUILD\src\cedar\generic\base\e32\euser\EUSER\ARMV5\VtblExports.s 0x00000000   Number         0  VtblExports.o ABSOLUTE
    \EPOC32\BUILD\wk29\stdlibs\group\LIBC\ARMV5\VtblExports.s 0x00000000   Number         0  VtblExports.o ABSOLUTE
    \EPOC32\BUILD\wk29\stdlibs\group\LIBDL\ARMV5\VtblExports.s 0x00000000   Number         0  VtblExports.o ABSOLUTE
    \EPOC32\BUILD\wk29\stdlibs\group\LIBM\ARMV5\VtblExports.s 0x00000000   Number         0  VtblExports.o ABSOLUTE
    \EPOC32\BUILD\wk29\stdlibs\group\LIBPTHREAD\ARMV5\VtblExports.s 0x00000000   Number         0  VtblExports.o ABSOLUTE
    \\EPOC32\\BUILD\\src\\cedar\\generic\\base\\e32\\euser\\EDLL\\ARMV5\\urel\\uc_dll_.cpp 0x00000000   Number         0  uc_dll_.o ABSOLUTE
    \\src\\cedar\\generic\\base\\e32\\compsupp\\RVCT2_2\\ucppinit_aeabi.cpp 0x00000000   Number         0  ucppinit_aeabi.o ABSOLUTE
    \dev\symb\SDKs\32\EPOC32\BUILD\iwmake\buildS60____PADDING________\src\QTCORE_DLL\ARMV6\VtblExports.s 0x00000000   Number         0  VtblExports.o ABSOLUTE
    \dev\symb\SDKs\32\EPOC32\BUILD\iwmake\buildS60____PADDING________\src\QTDECLARATIVE_DLL\ARMV6\VtblExports.s 0x00000000   Number         0  VtblExports.o ABSOLUTE
    \dev\symb\SDKs\32\EPOC32\BUILD\iwmake\buildS60____PADDING________\src\QTGUI_DLL\ARMV6\VtblExports.s 0x00000000   Number         0  VtblExports.o ABSOLUTE
    \s60\5.0\EPOC32\BUILD\scripts\5.0\qtmobility\DECLARATIVE_MESSAGING_DLL\ARMV5\urel\declarative_messaging{000a0000}.s 0x00000000   Number         0  declarative_messaging{000a0000}.exp ABSOLUTE
    \s60\5.0\EPOC32\BUILD\scripts\5.0\qtmobility\QTMESSAGING_DLL\ARMV5\VtblExports.s 0x00000000   Number         0  VtblExports.o ABSOLUTE
    \scripts\5.0\qtmobility\build\Release\declarative_messaging\moc\moc_qdeclarativemessagefilter.cpp 0x00000000   Number         0  declarative_messaging.in ABSOLUTE
    \scripts\5.0\qtmobility\build\Release\declarative_messaging\moc\moc_qdeclarativemessagemodel.cpp 0x00000000   Number         0  declarative_messaging.in ABSOLUTE
    \scripts\5.0\qtmobility\plugins\declarative\messaging\plugin.cpp 0x00000000   Number         0  declarative_messaging.in ABSOLUTE
    \scripts\5.0\qtmobility\plugins\declarative\messaging\qdeclarativemessagefilter.cpp 0x00000000   Number         0  declarative_messaging.in ABSOLUTE
    \scripts\5.0\qtmobility\plugins\declarative\messaging\qdeclarativemessagemodel.cpp 0x00000000   Number         0  declarative_messaging.in ABSOLUTE
    \src\cedar\generic\base\e32\compsupp\RVCT2_2\ucppfini.cpp 0x00000000   Number         0  ucppfini.o ABSOLUTE
    \src\cedar\generic\base\e32\compsupp\RVCT2_2\ucppinit_aeabi.cpp 0x00000000   Number         0  ucppinit_aeabi.o ABSOLUTE
    \src\cedar\generic\base\e32\euser\epoc\arm\uc_dll.cpp 0x00000000   Number         0  uc_dll.o ABSOLUTE
    .emb_text                                0x00008000   Section       40  uc_dll_.o(.emb_text)
    .emb_text                                0x00008028   Section       72  ucppinit_aeabi.o(.emb_text)
    skip                                     0x0000803c   ARM Code       0  ucppinit_aeabi.o(.emb_text)
    loop                                     0x0000804c   ARM Code       0  ucppinit_aeabi.o(.emb_text)
    fpinit                                   0x00008064   Data           0  ucppinit_aeabi.o(.emb_text)
    base                                     0x00008068   Data           0  ucppinit_aeabi.o(.emb_text)
    limit                                    0x0000806c   Data           0  ucppinit_aeabi.o(.emb_text)
    .text                                    0x00008070   Section      740  declarative_messaging.in(.text)
    .text                                    0x00008354   Section      600  declarative_messaging.in(.text)
    .text                                    0x000085ac   Section     2328  declarative_messaging.in(.text)
    .text                                    0x00008ec4   Section     4424  declarative_messaging.in(.text)
    |L1.1048|                                0x000092dc   Data           0  declarative_messaging.in(.text)
    .text                                    0x0000a00c   Section      204  declarative_messaging.in(.text)
    .text                                    0x0000a0d8   Section       40  uc_dll.o(.text)
    .text                                    0x0000a100   Section      148  ucppfini.o(.text)
    .text.clean                              0x0000a194   Section       10  declarative_messaging.in(.text.clean)
    .text.clean                              0x0000a19e   Section       10  declarative_messaging.in(.text.clean)
    .text.clean                              0x0000a1a8   Section      130  declarative_messaging.in(.text.clean)
    .text.clean                              0x0000a22a   Section      522  declarative_messaging.in(.text.clean)
    .text.clean                              0x0000a434   Section       28  declarative_messaging.in(.text.clean)
    ExportTable                              0x0000a450   Section       16  declarative_messaging{000a0000}.exp(ExportTable)
    StubCode                                 0x0000a460   Section        8  QtMessaging{00010103}-10.o(StubCode)
    theImportedSymbol                        0x0000a464   Data           0  QtMessaging{00010103}-10.o(StubCode)
    StubCode                                 0x0000a468   Section        8  QtMessaging{00010103}-101.o(StubCode)
    theImportedSymbol                        0x0000a46c   Data           0  QtMessaging{00010103}-101.o(StubCode)
    StubCode                                 0x0000a470   Section        8  QtMessaging{00010103}-107.o(StubCode)
    theImportedSymbol                        0x0000a474   Data           0  QtMessaging{00010103}-107.o(StubCode)
    StubCode                                 0x0000a478   Section        8  QtMessaging{00010103}-11.o(StubCode)
    theImportedSymbol                        0x0000a47c   Data           0  QtMessaging{00010103}-11.o(StubCode)
    StubCode                                 0x0000a480   Section        8  QtMessaging{00010103}-114.o(StubCode)
    theImportedSymbol                        0x0000a484   Data           0  QtMessaging{00010103}-114.o(StubCode)
    StubCode                                 0x0000a488   Section        8  QtMessaging{00010103}-115.o(StubCode)
    theImportedSymbol                        0x0000a48c   Data           0  QtMessaging{00010103}-115.o(StubCode)
    StubCode                                 0x0000a490   Section        8  QtMessaging{00010103}-118.o(StubCode)
    theImportedSymbol                        0x0000a494   Data           0  QtMessaging{00010103}-118.o(StubCode)
    StubCode                                 0x0000a498   Section        8  QtMessaging{00010103}-12.o(StubCode)
    theImportedSymbol                        0x0000a49c   Data           0  QtMessaging{00010103}-12.o(StubCode)
    StubCode                                 0x0000a4a0   Section        8  QtMessaging{00010103}-13.o(StubCode)
    theImportedSymbol                        0x0000a4a4   Data           0  QtMessaging{00010103}-13.o(StubCode)
    StubCode                                 0x0000a4a8   Section        8  QtMessaging{00010103}-141.o(StubCode)
    theImportedSymbol                        0x0000a4ac   Data           0  QtMessaging{00010103}-141.o(StubCode)
    StubCode                                 0x0000a4b0   Section        8  QtMessaging{00010103}-142.o(StubCode)
    theImportedSymbol                        0x0000a4b4   Data           0  QtMessaging{00010103}-142.o(StubCode)
    StubCode                                 0x0000a4b8   Section        8  QtMessaging{00010103}-143.o(StubCode)
    theImportedSymbol                        0x0000a4bc   Data           0  QtMessaging{00010103}-143.o(StubCode)
    StubCode                                 0x0000a4c0   Section        8  QtMessaging{00010103}-144.o(StubCode)
    theImportedSymbol                        0x0000a4c4   Data           0  QtMessaging{00010103}-144.o(StubCode)
    StubCode                                 0x0000a4c8   Section        8  QtMessaging{00010103}-145.o(StubCode)
    theImportedSymbol                        0x0000a4cc   Data           0  QtMessaging{00010103}-145.o(StubCode)
    StubCode                                 0x0000a4d0   Section        8  QtMessaging{00010103}-146.o(StubCode)
    theImportedSymbol                        0x0000a4d4   Data           0  QtMessaging{00010103}-146.o(StubCode)
    StubCode                                 0x0000a4d8   Section        8  QtMessaging{00010103}-147.o(StubCode)
    theImportedSymbol                        0x0000a4dc   Data           0  QtMessaging{00010103}-147.o(StubCode)
    StubCode                                 0x0000a4e0   Section        8  QtMessaging{00010103}-148.o(StubCode)
    theImportedSymbol                        0x0000a4e4   Data           0  QtMessaging{00010103}-148.o(StubCode)
    StubCode                                 0x0000a4e8   Section        8  QtMessaging{00010103}-149.o(StubCode)
    theImportedSymbol                        0x0000a4ec   Data           0  QtMessaging{00010103}-149.o(StubCode)
    StubCode                                 0x0000a4f0   Section        8  QtMessaging{00010103}-150.o(StubCode)
    theImportedSymbol                        0x0000a4f4   Data           0  QtMessaging{00010103}-150.o(StubCode)
    StubCode                                 0x0000a4f8   Section        8  QtMessaging{00010103}-151.o(StubCode)
    theImportedSymbol                        0x0000a4fc   Data           0  QtMessaging{00010103}-151.o(StubCode)
    StubCode                                 0x0000a500   Section        8  QtMessaging{00010103}-155.o(StubCode)
    theImportedSymbol                        0x0000a504   Data           0  QtMessaging{00010103}-155.o(StubCode)
    StubCode                                 0x0000a508   Section        8  QtMessaging{00010103}-157.o(StubCode)
    theImportedSymbol                        0x0000a50c   Data           0  QtMessaging{00010103}-157.o(StubCode)
    StubCode                                 0x0000a510   Section        8  QtMessaging{00010103}-16.o(StubCode)
    theImportedSymbol                        0x0000a514   Data           0  QtMessaging{00010103}-16.o(StubCode)
    StubCode                                 0x0000a518   Section        8  QtMessaging{00010103}-17.o(StubCode)
    theImportedSymbol                        0x0000a51c   Data           0  QtMessaging{00010103}-17.o(StubCode)
    StubCode                                 0x0000a520   Section        8  QtMessaging{00010103}-171.o(StubCode)
    theImportedSymbol                        0x0000a524   Data           0  QtMessaging{00010103}-171.o(StubCode)
    StubCode                                 0x0000a528   Section        8  QtMessaging{00010103}-172.o(StubCode)
    theImportedSymbol                        0x0000a52c   Data           0  QtMessaging{00010103}-172.o(StubCode)
    StubCode                                 0x0000a530   Section        8  QtMessaging{00010103}-178.o(StubCode)
    theImportedSymbol                        0x0000a534   Data           0  QtMessaging{00010103}-178.o(StubCode)
    StubCode                                 0x0000a538   Section        8  QtMessaging{00010103}-2.o(StubCode)
    theImportedSymbol                        0x0000a53c   Data           0  QtMessaging{00010103}-2.o(StubCode)
    StubCode                                 0x0000a540   Section        8  QtMessaging{00010103}-21.o(StubCode)
    theImportedSymbol                        0x0000a544   Data           0  QtMessaging{00010103}-21.o(StubCode)
    StubCode                                 0x0000a548   Section        8  QtMessaging{00010103}-22.o(StubCode)
    theImportedSymbol                        0x0000a54c   Data           0  QtMessaging{00010103}-22.o(StubCode)
    StubCode                                 0x0000a550   Section        8  QtMessaging{00010103}-225.o(StubCode)
    theImportedSymbol                        0x0000a554   Data           0  QtMessaging{00010103}-225.o(StubCode)
    StubCode                                 0x0000a558   Section        8  QtMessaging{00010103}-23.o(StubCode)
    theImportedSymbol                        0x0000a55c   Data           0  QtMessaging{00010103}-23.o(StubCode)
    StubCode                                 0x0000a560   Section        8  QtMessaging{00010103}-234.o(StubCode)
    theImportedSymbol                        0x0000a564   Data           0  QtMessaging{00010103}-234.o(StubCode)
    StubCode                                 0x0000a568   Section        8  QtMessaging{00010103}-237.o(StubCode)
    theImportedSymbol                        0x0000a56c   Data           0  QtMessaging{00010103}-237.o(StubCode)
    StubCode                                 0x0000a570   Section        8  QtMessaging{00010103}-260.o(StubCode)
    theImportedSymbol                        0x0000a574   Data           0  QtMessaging{00010103}-260.o(StubCode)
    StubCode                                 0x0000a578   Section        8  QtMessaging{00010103}-261.o(StubCode)
    theImportedSymbol                        0x0000a57c   Data           0  QtMessaging{00010103}-261.o(StubCode)
    StubCode                                 0x0000a580   Section        8  QtMessaging{00010103}-262.o(StubCode)
    theImportedSymbol                        0x0000a584   Data           0  QtMessaging{00010103}-262.o(StubCode)
    StubCode                                 0x0000a588   Section        8  QtMessaging{00010103}-267.o(StubCode)
    theImportedSymbol                        0x0000a58c   Data           0  QtMessaging{00010103}-267.o(StubCode)
    StubCode                                 0x0000a590   Section        8  QtMessaging{00010103}-269.o(StubCode)
    theImportedSymbol                        0x0000a594   Data           0  QtMessaging{00010103}-269.o(StubCode)
    StubCode                                 0x0000a598   Section        8  QtMessaging{00010103}-27.o(StubCode)
    theImportedSymbol                        0x0000a59c   Data           0  QtMessaging{00010103}-27.o(StubCode)
    StubCode                                 0x0000a5a0   Section        8  QtMessaging{00010103}-270.o(StubCode)
    theImportedSymbol                        0x0000a5a4   Data           0  QtMessaging{00010103}-270.o(StubCode)
    StubCode                                 0x0000a5a8   Section        8  QtMessaging{00010103}-272.o(StubCode)
    theImportedSymbol                        0x0000a5ac   Data           0  QtMessaging{00010103}-272.o(StubCode)
    StubCode                                 0x0000a5b0   Section        8  QtMessaging{00010103}-274.o(StubCode)
    theImportedSymbol                        0x0000a5b4   Data           0  QtMessaging{00010103}-274.o(StubCode)
    StubCode                                 0x0000a5b8   Section        8  QtMessaging{00010103}-279.o(StubCode)
    theImportedSymbol                        0x0000a5bc   Data           0  QtMessaging{00010103}-279.o(StubCode)
    StubCode                                 0x0000a5c0   Section        8  QtMessaging{00010103}-28.o(StubCode)
    theImportedSymbol                        0x0000a5c4   Data           0  QtMessaging{00010103}-28.o(StubCode)
    StubCode                                 0x0000a5c8   Section        8  QtMessaging{00010103}-29.o(StubCode)
    theImportedSymbol                        0x0000a5cc   Data           0  QtMessaging{00010103}-29.o(StubCode)
    StubCode                                 0x0000a5d0   Section        8  QtMessaging{00010103}-292.o(StubCode)
    theImportedSymbol                        0x0000a5d4   Data           0  QtMessaging{00010103}-292.o(StubCode)
    StubCode                                 0x0000a5d8   Section        8  QtMessaging{00010103}-3.o(StubCode)
    theImportedSymbol                        0x0000a5dc   Data           0  QtMessaging{00010103}-3.o(StubCode)
    StubCode                                 0x0000a5e0   Section        8  QtMessaging{00010103}-30.o(StubCode)
    theImportedSymbol                        0x0000a5e4   Data           0  QtMessaging{00010103}-30.o(StubCode)
    StubCode                                 0x0000a5e8   Section        8  QtMessaging{00010103}-31.o(StubCode)
    theImportedSymbol                        0x0000a5ec   Data           0  QtMessaging{00010103}-31.o(StubCode)
    StubCode                                 0x0000a5f0   Section        8  QtMessaging{00010103}-313.o(StubCode)
    theImportedSymbol                        0x0000a5f4   Data           0  QtMessaging{00010103}-313.o(StubCode)
    StubCode                                 0x0000a5f8   Section        8  QtMessaging{00010103}-32.o(StubCode)
    theImportedSymbol                        0x0000a5fc   Data           0  QtMessaging{00010103}-32.o(StubCode)
    StubCode                                 0x0000a600   Section        8  QtMessaging{00010103}-33.o(StubCode)
    theImportedSymbol                        0x0000a604   Data           0  QtMessaging{00010103}-33.o(StubCode)
    StubCode                                 0x0000a608   Section        8  QtMessaging{00010103}-34.o(StubCode)
    theImportedSymbol                        0x0000a60c   Data           0  QtMessaging{00010103}-34.o(StubCode)
    StubCode                                 0x0000a610   Section        8  QtMessaging{00010103}-35.o(StubCode)
    theImportedSymbol                        0x0000a614   Data           0  QtMessaging{00010103}-35.o(StubCode)
    StubCode                                 0x0000a618   Section        8  QtMessaging{00010103}-356.o(StubCode)
    theImportedSymbol                        0x0000a61c   Data           0  QtMessaging{00010103}-356.o(StubCode)
    StubCode                                 0x0000a620   Section        8  QtMessaging{00010103}-36.o(StubCode)
    theImportedSymbol                        0x0000a624   Data           0  QtMessaging{00010103}-36.o(StubCode)
    StubCode                                 0x0000a628   Section        8  QtMessaging{00010103}-365.o(StubCode)
    theImportedSymbol                        0x0000a62c   Data           0  QtMessaging{00010103}-365.o(StubCode)
    StubCode                                 0x0000a630   Section        8  QtMessaging{00010103}-366.o(StubCode)
    theImportedSymbol                        0x0000a634   Data           0  QtMessaging{00010103}-366.o(StubCode)
    StubCode                                 0x0000a638   Section        8  QtMessaging{00010103}-37.o(StubCode)
    theImportedSymbol                        0x0000a63c   Data           0  QtMessaging{00010103}-37.o(StubCode)
    StubCode                                 0x0000a640   Section        8  QtMessaging{00010103}-370.o(StubCode)
    theImportedSymbol                        0x0000a644   Data           0  QtMessaging{00010103}-370.o(StubCode)
    StubCode                                 0x0000a648   Section        8  QtMessaging{00010103}-375.o(StubCode)
    theImportedSymbol                        0x0000a64c   Data           0  QtMessaging{00010103}-375.o(StubCode)
    StubCode                                 0x0000a650   Section        8  QtMessaging{00010103}-38.o(StubCode)
    theImportedSymbol                        0x0000a654   Data           0  QtMessaging{00010103}-38.o(StubCode)
    StubCode                                 0x0000a658   Section        8  QtMessaging{00010103}-382.o(StubCode)
    theImportedSymbol                        0x0000a65c   Data           0  QtMessaging{00010103}-382.o(StubCode)
    StubCode                                 0x0000a660   Section        8  QtMessaging{00010103}-383.o(StubCode)
    theImportedSymbol                        0x0000a664   Data           0  QtMessaging{00010103}-383.o(StubCode)
    StubCode                                 0x0000a668   Section        8  QtMessaging{00010103}-385.o(StubCode)
    theImportedSymbol                        0x0000a66c   Data           0  QtMessaging{00010103}-385.o(StubCode)
    StubCode                                 0x0000a670   Section        8  QtMessaging{00010103}-386.o(StubCode)
    theImportedSymbol                        0x0000a674   Data           0  QtMessaging{00010103}-386.o(StubCode)
    StubCode                                 0x0000a678   Section        8  QtMessaging{00010103}-387.o(StubCode)
    theImportedSymbol                        0x0000a67c   Data           0  QtMessaging{00010103}-387.o(StubCode)
    StubCode                                 0x0000a680   Section        8  QtMessaging{00010103}-388.o(StubCode)
    theImportedSymbol                        0x0000a684   Data           0  QtMessaging{00010103}-388.o(StubCode)
    StubCode                                 0x0000a688   Section        8  QtMessaging{00010103}-389.o(StubCode)
    theImportedSymbol                        0x0000a68c   Data           0  QtMessaging{00010103}-389.o(StubCode)
    StubCode                                 0x0000a690   Section        8  QtMessaging{00010103}-391.o(StubCode)
    theImportedSymbol                        0x0000a694   Data           0  QtMessaging{00010103}-391.o(StubCode)
    StubCode                                 0x0000a698   Section        8  QtMessaging{00010103}-392.o(StubCode)
    theImportedSymbol                        0x0000a69c   Data           0  QtMessaging{00010103}-392.o(StubCode)
    StubCode                                 0x0000a6a0   Section        8  QtMessaging{00010103}-42.o(StubCode)
    theImportedSymbol                        0x0000a6a4   Data           0  QtMessaging{00010103}-42.o(StubCode)
    StubCode                                 0x0000a6a8   Section        8  QtMessaging{00010103}-44.o(StubCode)
    theImportedSymbol                        0x0000a6ac   Data           0  QtMessaging{00010103}-44.o(StubCode)
    StubCode                                 0x0000a6b0   Section        8  QtMessaging{00010103}-45.o(StubCode)
    theImportedSymbol                        0x0000a6b4   Data           0  QtMessaging{00010103}-45.o(StubCode)
    StubCode                                 0x0000a6b8   Section        8  QtMessaging{00010103}-46.o(StubCode)
    theImportedSymbol                        0x0000a6bc   Data           0  QtMessaging{00010103}-46.o(StubCode)
    StubCode                                 0x0000a6c0   Section        8  QtMessaging{00010103}-7.o(StubCode)
    theImportedSymbol                        0x0000a6c4   Data           0  QtMessaging{00010103}-7.o(StubCode)
    StubCode                                 0x0000a6c8   Section        8  QtMessaging{00010103}-72.o(StubCode)
    theImportedSymbol                        0x0000a6cc   Data           0  QtMessaging{00010103}-72.o(StubCode)
    StubCode                                 0x0000a6d0   Section        8  QtMessaging{00010103}-78.o(StubCode)
    theImportedSymbol                        0x0000a6d4   Data           0  QtMessaging{00010103}-78.o(StubCode)
    StubCode                                 0x0000a6d8   Section        8  QtMessaging{00010103}-85.o(StubCode)
    theImportedSymbol                        0x0000a6dc   Data           0  QtMessaging{00010103}-85.o(StubCode)
    StubCode                                 0x0000a6e0   Section        8  QtMessaging{00010103}-9.o(StubCode)
    theImportedSymbol                        0x0000a6e4   Data           0  QtMessaging{00010103}-9.o(StubCode)
    StubCode                                 0x0000a6e8   Section        8  QtMessaging{00010103}-92.o(StubCode)
    theImportedSymbol                        0x0000a6ec   Data           0  QtMessaging{00010103}-92.o(StubCode)
    StubCode                                 0x0000a6f0   Section        8  QtMessaging{00010103}-93.o(StubCode)
    theImportedSymbol                        0x0000a6f4   Data           0  QtMessaging{00010103}-93.o(StubCode)
    StubCode                                 0x0000a6f8   Section        8  QtMessaging{00010103}-94.o(StubCode)
    theImportedSymbol                        0x0000a6fc   Data           0  QtMessaging{00010103}-94.o(StubCode)
    StubCode                                 0x0000a700   Section        8  libstdcpp{00010000}-988.o(StubCode)
    theImportedSymbol                        0x0000a704   Data           0  libstdcpp{00010000}-988.o(StubCode)
    StubCode                                 0x0000a708   Section        8  libstdcpp{00010000}-992.o(StubCode)
    theImportedSymbol                        0x0000a70c   Data           0  libstdcpp{00010000}-992.o(StubCode)
    StubCode                                 0x0000a710   Section        8  QtDeclarative{00040703}-1662.o(StubCode)
    theImportedSymbol                        0x0000a714   Data           0  QtDeclarative{00040703}-1662.o(StubCode)
    StubCode                                 0x0000a718   Section        8  QtDeclarative{00040703}-401.o(StubCode)
    theImportedSymbol                        0x0000a71c   Data           0  QtDeclarative{00040703}-401.o(StubCode)
    StubCode                                 0x0000a720   Section        8  QtDeclarative{00040703}-402.o(StubCode)
    theImportedSymbol                        0x0000a724   Data           0  QtDeclarative{00040703}-402.o(StubCode)
    StubCode                                 0x0000a728   Section        8  QtDeclarative{00040703}-43.o(StubCode)
    theImportedSymbol                        0x0000a72c   Data           0  QtDeclarative{00040703}-43.o(StubCode)
    StubCode                                 0x0000a730   Section        8  QtDeclarative{00040703}-5.o(StubCode)
    theImportedSymbol                        0x0000a734   Data           0  QtDeclarative{00040703}-5.o(StubCode)
    StubCode                                 0x0000a738   Section        8  QtDeclarative{00040703}-784.o(StubCode)
    theImportedSymbol                        0x0000a73c   Data           0  QtDeclarative{00040703}-784.o(StubCode)
    StubCode                                 0x0000a740   Section        8  QtDeclarative{00040703}-787.o(StubCode)
    theImportedSymbol                        0x0000a744   Data           0  QtDeclarative{00040703}-787.o(StubCode)
    StubCode                                 0x0000a748   Section        8  QtDeclarative{00040703}-873.o(StubCode)
    theImportedSymbol                        0x0000a74c   Data           0  QtDeclarative{00040703}-873.o(StubCode)
    StubCode                                 0x0000a750   Section        8  QtDeclarative{00040703}-874.o(StubCode)
    theImportedSymbol                        0x0000a754   Data           0  QtDeclarative{00040703}-874.o(StubCode)
    StubCode                                 0x0000a758   Section        8  QtDeclarative{00040703}-875.o(StubCode)
    theImportedSymbol                        0x0000a75c   Data           0  QtDeclarative{00040703}-875.o(StubCode)
    StubCode                                 0x0000a760   Section        8  QtDeclarative{00040703}-878.o(StubCode)
    theImportedSymbol                        0x0000a764   Data           0  QtDeclarative{00040703}-878.o(StubCode)
    StubCode                                 0x0000a768   Section        8  QtDeclarative{00040703}-881.o(StubCode)
    theImportedSymbol                        0x0000a76c   Data           0  QtDeclarative{00040703}-881.o(StubCode)
    StubCode                                 0x0000a770   Section        8  QtCore{00040703}-1000.o(StubCode)
    theImportedSymbol                        0x0000a774   Data           0  QtCore{00040703}-1000.o(StubCode)
    StubCode                                 0x0000a778   Section        8  QtCore{00040703}-1003.o(StubCode)
    theImportedSymbol                        0x0000a77c   Data           0  QtCore{00040703}-1003.o(StubCode)
    StubCode                                 0x0000a780   Section        8  QtCore{00040703}-1004.o(StubCode)
    theImportedSymbol                        0x0000a784   Data           0  QtCore{00040703}-1004.o(StubCode)
    StubCode                                 0x0000a788   Section        8  QtCore{00040703}-1005.o(StubCode)
    theImportedSymbol                        0x0000a78c   Data           0  QtCore{00040703}-1005.o(StubCode)
    StubCode                                 0x0000a790   Section        8  QtCore{00040703}-1007.o(StubCode)
    theImportedSymbol                        0x0000a794   Data           0  QtCore{00040703}-1007.o(StubCode)
    StubCode                                 0x0000a798   Section        8  QtCore{00040703}-1008.o(StubCode)
    theImportedSymbol                        0x0000a79c   Data           0  QtCore{00040703}-1008.o(StubCode)
    StubCode                                 0x0000a7a0   Section        8  QtCore{00040703}-1012.o(StubCode)
    theImportedSymbol                        0x0000a7a4   Data           0  QtCore{00040703}-1012.o(StubCode)
    StubCode                                 0x0000a7a8   Section        8  QtCore{00040703}-1013.o(StubCode)
    theImportedSymbol                        0x0000a7ac   Data           0  QtCore{00040703}-1013.o(StubCode)
    StubCode                                 0x0000a7b0   Section        8  QtCore{00040703}-1034.o(StubCode)
    theImportedSymbol                        0x0000a7b4   Data           0  QtCore{00040703}-1034.o(StubCode)
    StubCode                                 0x0000a7b8   Section        8  QtCore{00040703}-1036.o(StubCode)
    theImportedSymbol                        0x0000a7bc   Data           0  QtCore{00040703}-1036.o(StubCode)
    StubCode                                 0x0000a7c0   Section        8  QtCore{00040703}-1037.o(StubCode)
    theImportedSymbol                        0x0000a7c4   Data           0  QtCore{00040703}-1037.o(StubCode)
    StubCode                                 0x0000a7c8   Section        8  QtCore{00040703}-1038.o(StubCode)
    theImportedSymbol                        0x0000a7cc   Data           0  QtCore{00040703}-1038.o(StubCode)
    StubCode                                 0x0000a7d0   Section        8  QtCore{00040703}-1039.o(StubCode)
    theImportedSymbol                        0x0000a7d4   Data           0  QtCore{00040703}-1039.o(StubCode)
    StubCode                                 0x0000a7d8   Section        8  QtCore{00040703}-1046.o(StubCode)
    theImportedSymbol                        0x0000a7dc   Data           0  QtCore{00040703}-1046.o(StubCode)
    StubCode                                 0x0000a7e0   Section        8  QtCore{00040703}-1047.o(StubCode)
    theImportedSymbol                        0x0000a7e4   Data           0  QtCore{00040703}-1047.o(StubCode)
    StubCode                                 0x0000a7e8   Section        8  QtCore{00040703}-1048.o(StubCode)
    theImportedSymbol                        0x0000a7ec   Data           0  QtCore{00040703}-1048.o(StubCode)
    StubCode                                 0x0000a7f0   Section        8  QtCore{00040703}-1051.o(StubCode)
    theImportedSymbol                        0x0000a7f4   Data           0  QtCore{00040703}-1051.o(StubCode)
    StubCode                                 0x0000a7f8   Section        8  QtCore{00040703}-1055.o(StubCode)
    theImportedSymbol                        0x0000a7fc   Data           0  QtCore{00040703}-1055.o(StubCode)
    StubCode                                 0x0000a800   Section        8  QtCore{00040703}-126.o(StubCode)
    theImportedSymbol                        0x0000a804   Data           0  QtCore{00040703}-126.o(StubCode)
    StubCode                                 0x0000a808   Section        8  QtCore{00040703}-128.o(StubCode)
    theImportedSymbol                        0x0000a80c   Data           0  QtCore{00040703}-128.o(StubCode)
    StubCode                                 0x0000a810   Section        8  QtCore{00040703}-129.o(StubCode)
    theImportedSymbol                        0x0000a814   Data           0  QtCore{00040703}-129.o(StubCode)
    StubCode                                 0x0000a818   Section        8  QtCore{00040703}-159.o(StubCode)
    theImportedSymbol                        0x0000a81c   Data           0  QtCore{00040703}-159.o(StubCode)
    StubCode                                 0x0000a820   Section        8  QtCore{00040703}-167.o(StubCode)
    theImportedSymbol                        0x0000a824   Data           0  QtCore{00040703}-167.o(StubCode)
    StubCode                                 0x0000a828   Section        8  QtCore{00040703}-1670.o(StubCode)
    theImportedSymbol                        0x0000a82c   Data           0  QtCore{00040703}-1670.o(StubCode)
    StubCode                                 0x0000a830   Section        8  QtCore{00040703}-1671.o(StubCode)
    theImportedSymbol                        0x0000a834   Data           0  QtCore{00040703}-1671.o(StubCode)
    StubCode                                 0x0000a838   Section        8  QtCore{00040703}-1674.o(StubCode)
    theImportedSymbol                        0x0000a83c   Data           0  QtCore{00040703}-1674.o(StubCode)
    StubCode                                 0x0000a840   Section        8  QtCore{00040703}-1676.o(StubCode)
    theImportedSymbol                        0x0000a844   Data           0  QtCore{00040703}-1676.o(StubCode)
    StubCode                                 0x0000a848   Section        8  QtCore{00040703}-1760.o(StubCode)
    theImportedSymbol                        0x0000a84c   Data           0  QtCore{00040703}-1760.o(StubCode)
    StubCode                                 0x0000a850   Section        8  QtCore{00040703}-1763.o(StubCode)
    theImportedSymbol                        0x0000a854   Data           0  QtCore{00040703}-1763.o(StubCode)
    StubCode                                 0x0000a858   Section        8  QtCore{00040703}-1764.o(StubCode)
    theImportedSymbol                        0x0000a85c   Data           0  QtCore{00040703}-1764.o(StubCode)
    StubCode                                 0x0000a860   Section        8  QtCore{00040703}-1766.o(StubCode)
    theImportedSymbol                        0x0000a864   Data           0  QtCore{00040703}-1766.o(StubCode)
    StubCode                                 0x0000a868   Section        8  QtCore{00040703}-1767.o(StubCode)
    theImportedSymbol                        0x0000a86c   Data           0  QtCore{00040703}-1767.o(StubCode)
    StubCode                                 0x0000a870   Section        8  QtCore{00040703}-1768.o(StubCode)
    theImportedSymbol                        0x0000a874   Data           0  QtCore{00040703}-1768.o(StubCode)
    StubCode                                 0x0000a878   Section        8  QtCore{00040703}-1772.o(StubCode)
    theImportedSymbol                        0x0000a87c   Data           0  QtCore{00040703}-1772.o(StubCode)
    StubCode                                 0x0000a880   Section        8  QtCore{00040703}-1773.o(StubCode)
    theImportedSymbol                        0x0000a884   Data           0  QtCore{00040703}-1773.o(StubCode)
    StubCode                                 0x0000a888   Section        8  QtCore{00040703}-1777.o(StubCode)
    theImportedSymbol                        0x0000a88c   Data           0  QtCore{00040703}-1777.o(StubCode)
    StubCode                                 0x0000a890   Section        8  QtCore{00040703}-1784.o(StubCode)
    theImportedSymbol                        0x0000a894   Data           0  QtCore{00040703}-1784.o(StubCode)
    StubCode                                 0x0000a898   Section        8  QtCore{00040703}-1785.o(StubCode)
    theImportedSymbol                        0x0000a89c   Data           0  QtCore{00040703}-1785.o(StubCode)
    StubCode                                 0x0000a8a0   Section        8  QtCore{00040703}-1789.o(StubCode)
    theImportedSymbol                        0x0000a8a4   Data           0  QtCore{00040703}-1789.o(StubCode)
    StubCode                                 0x0000a8a8   Section        8  QtCore{00040703}-1794.o(StubCode)
    theImportedSymbol                        0x0000a8ac   Data           0  QtCore{00040703}-1794.o(StubCode)
    StubCode                                 0x0000a8b0   Section        8  QtCore{00040703}-1830.o(StubCode)
    theImportedSymbol                        0x0000a8b4   Data           0  QtCore{00040703}-1830.o(StubCode)
    StubCode                                 0x0000a8b8   Section        8  QtCore{00040703}-1874.o(StubCode)
    theImportedSymbol                        0x0000a8bc   Data           0  QtCore{00040703}-1874.o(StubCode)
    StubCode                                 0x0000a8c0   Section        8  QtCore{00040703}-1902.o(StubCode)
    theImportedSymbol                        0x0000a8c4   Data           0  QtCore{00040703}-1902.o(StubCode)
    StubCode                                 0x0000a8c8   Section        8  QtCore{00040703}-1903.o(StubCode)
    theImportedSymbol                        0x0000a8cc   Data           0  QtCore{00040703}-1903.o(StubCode)
    StubCode                                 0x0000a8d0   Section        8  QtCore{00040703}-1905.o(StubCode)
    theImportedSymbol                        0x0000a8d4   Data           0  QtCore{00040703}-1905.o(StubCode)
    StubCode                                 0x0000a8d8   Section        8  QtCore{00040703}-1912.o(StubCode)
    theImportedSymbol                        0x0000a8dc   Data           0  QtCore{00040703}-1912.o(StubCode)
    StubCode                                 0x0000a8e0   Section        8  QtCore{00040703}-1917.o(StubCode)
    theImportedSymbol                        0x0000a8e4   Data           0  QtCore{00040703}-1917.o(StubCode)
    StubCode                                 0x0000a8e8   Section        8  QtCore{00040703}-2015.o(StubCode)
    theImportedSymbol                        0x0000a8ec   Data           0  QtCore{00040703}-2015.o(StubCode)
    StubCode                                 0x0000a8f0   Section        8  QtCore{00040703}-2034.o(StubCode)
    theImportedSymbol                        0x0000a8f4   Data           0  QtCore{00040703}-2034.o(StubCode)
    StubCode                                 0x0000a8f8   Section        8  QtCore{00040703}-2036.o(StubCode)
    theImportedSymbol                        0x0000a8fc   Data           0  QtCore{00040703}-2036.o(StubCode)
    StubCode                                 0x0000a900   Section        8  QtCore{00040703}-2037.o(StubCode)
    theImportedSymbol                        0x0000a904   Data           0  QtCore{00040703}-2037.o(StubCode)
    StubCode                                 0x0000a908   Section        8  QtCore{00040703}-2038.o(StubCode)
    theImportedSymbol                        0x0000a90c   Data           0  QtCore{00040703}-2038.o(StubCode)
    StubCode                                 0x0000a910   Section        8  QtCore{00040703}-2040.o(StubCode)
    theImportedSymbol                        0x0000a914   Data           0  QtCore{00040703}-2040.o(StubCode)
    StubCode                                 0x0000a918   Section        8  QtCore{00040703}-2043.o(StubCode)
    theImportedSymbol                        0x0000a91c   Data           0  QtCore{00040703}-2043.o(StubCode)
    StubCode                                 0x0000a920   Section        8  QtCore{00040703}-2082.o(StubCode)
    theImportedSymbol                        0x0000a924   Data           0  QtCore{00040703}-2082.o(StubCode)
    StubCode                                 0x0000a928   Section        8  QtCore{00040703}-2084.o(StubCode)
    theImportedSymbol                        0x0000a92c   Data           0  QtCore{00040703}-2084.o(StubCode)
    StubCode                                 0x0000a930   Section        8  QtCore{00040703}-2110.o(StubCode)
    theImportedSymbol                        0x0000a934   Data           0  QtCore{00040703}-2110.o(StubCode)
    StubCode                                 0x0000a938   Section        8  QtCore{00040703}-2134.o(StubCode)
    theImportedSymbol                        0x0000a93c   Data           0  QtCore{00040703}-2134.o(StubCode)
    StubCode                                 0x0000a940   Section        8  QtCore{00040703}-2141.o(StubCode)
    theImportedSymbol                        0x0000a944   Data           0  QtCore{00040703}-2141.o(StubCode)
    StubCode                                 0x0000a948   Section        8  QtCore{00040703}-2142.o(StubCode)
    theImportedSymbol                        0x0000a94c   Data           0  QtCore{00040703}-2142.o(StubCode)
    StubCode                                 0x0000a950   Section        8  QtCore{00040703}-2186.o(StubCode)
    theImportedSymbol                        0x0000a954   Data           0  QtCore{00040703}-2186.o(StubCode)
    StubCode                                 0x0000a958   Section        8  QtCore{00040703}-2188.o(StubCode)
    theImportedSymbol                        0x0000a95c   Data           0  QtCore{00040703}-2188.o(StubCode)
    StubCode                                 0x0000a960   Section        8  QtCore{00040703}-2191.o(StubCode)
    theImportedSymbol                        0x0000a964   Data           0  QtCore{00040703}-2191.o(StubCode)
    StubCode                                 0x0000a968   Section        8  QtCore{00040703}-2199.o(StubCode)
    theImportedSymbol                        0x0000a96c   Data           0  QtCore{00040703}-2199.o(StubCode)
    StubCode                                 0x0000a970   Section        8  QtCore{00040703}-2416.o(StubCode)
    theImportedSymbol                        0x0000a974   Data           0  QtCore{00040703}-2416.o(StubCode)
    StubCode                                 0x0000a978   Section        8  QtCore{00040703}-2672.o(StubCode)
    theImportedSymbol                        0x0000a97c   Data           0  QtCore{00040703}-2672.o(StubCode)
    StubCode                                 0x0000a980   Section        8  QtCore{00040703}-2675.o(StubCode)
    theImportedSymbol                        0x0000a984   Data           0  QtCore{00040703}-2675.o(StubCode)
    StubCode                                 0x0000a988   Section        8  QtCore{00040703}-2678.o(StubCode)
    theImportedSymbol                        0x0000a98c   Data           0  QtCore{00040703}-2678.o(StubCode)
    StubCode                                 0x0000a990   Section        8  QtCore{00040703}-2679.o(StubCode)
    theImportedSymbol                        0x0000a994   Data           0  QtCore{00040703}-2679.o(StubCode)
    StubCode                                 0x0000a998   Section        8  QtCore{00040703}-2680.o(StubCode)
    theImportedSymbol                        0x0000a99c   Data           0  QtCore{00040703}-2680.o(StubCode)
    StubCode                                 0x0000a9a0   Section        8  QtCore{00040703}-2681.o(StubCode)
    theImportedSymbol                        0x0000a9a4   Data           0  QtCore{00040703}-2681.o(StubCode)
    StubCode                                 0x0000a9a8   Section        8  QtCore{00040703}-2682.o(StubCode)
    theImportedSymbol                        0x0000a9ac   Data           0  QtCore{00040703}-2682.o(StubCode)
    StubCode                                 0x0000a9b0   Section        8  QtCore{00040703}-2684.o(StubCode)
    theImportedSymbol                        0x0000a9b4   Data           0  QtCore{00040703}-2684.o(StubCode)
    StubCode                                 0x0000a9b8   Section        8  QtCore{00040703}-2685.o(StubCode)
    theImportedSymbol                        0x0000a9bc   Data           0  QtCore{00040703}-2685.o(StubCode)
    StubCode                                 0x0000a9c0   Section        8  QtCore{00040703}-2686.o(StubCode)
    theImportedSymbol                        0x0000a9c4   Data           0  QtCore{00040703}-2686.o(StubCode)
    StubCode                                 0x0000a9c8   Section        8  QtCore{00040703}-2689.o(StubCode)
    theImportedSymbol                        0x0000a9cc   Data           0  QtCore{00040703}-2689.o(StubCode)
    StubCode                                 0x0000a9d0   Section        8  QtCore{00040703}-2690.o(StubCode)
    theImportedSymbol                        0x0000a9d4   Data           0  QtCore{00040703}-2690.o(StubCode)
    StubCode                                 0x0000a9d8   Section        8  QtCore{00040703}-2691.o(StubCode)
    theImportedSymbol                        0x0000a9dc   Data           0  QtCore{00040703}-2691.o(StubCode)
    StubCode                                 0x0000a9e0   Section        8  QtCore{00040703}-2692.o(StubCode)
    theImportedSymbol                        0x0000a9e4   Data           0  QtCore{00040703}-2692.o(StubCode)
    StubCode                                 0x0000a9e8   Section        8  QtCore{00040703}-274.o(StubCode)
    theImportedSymbol                        0x0000a9ec   Data           0  QtCore{00040703}-274.o(StubCode)
    StubCode                                 0x0000a9f0   Section        8  QtCore{00040703}-275.o(StubCode)
    theImportedSymbol                        0x0000a9f4   Data           0  QtCore{00040703}-275.o(StubCode)
    StubCode                                 0x0000a9f8   Section        8  QtCore{00040703}-276.o(StubCode)
    theImportedSymbol                        0x0000a9fc   Data           0  QtCore{00040703}-276.o(StubCode)
    StubCode                                 0x0000aa00   Section        8  QtCore{00040703}-282.o(StubCode)
    theImportedSymbol                        0x0000aa04   Data           0  QtCore{00040703}-282.o(StubCode)
    StubCode                                 0x0000aa08   Section        8  QtCore{00040703}-3131.o(StubCode)
    theImportedSymbol                        0x0000aa0c   Data           0  QtCore{00040703}-3131.o(StubCode)
    StubCode                                 0x0000aa10   Section        8  QtCore{00040703}-3136.o(StubCode)
    theImportedSymbol                        0x0000aa14   Data           0  QtCore{00040703}-3136.o(StubCode)
    StubCode                                 0x0000aa18   Section        8  QtCore{00040703}-3139.o(StubCode)
    theImportedSymbol                        0x0000aa1c   Data           0  QtCore{00040703}-3139.o(StubCode)
    StubCode                                 0x0000aa20   Section        8  QtCore{00040703}-3163.o(StubCode)
    theImportedSymbol                        0x0000aa24   Data           0  QtCore{00040703}-3163.o(StubCode)
    StubCode                                 0x0000aa28   Section        8  QtCore{00040703}-331.o(StubCode)
    theImportedSymbol                        0x0000aa2c   Data           0  QtCore{00040703}-331.o(StubCode)
    StubCode                                 0x0000aa30   Section        8  QtCore{00040703}-332.o(StubCode)
    theImportedSymbol                        0x0000aa34   Data           0  QtCore{00040703}-332.o(StubCode)
    StubCode                                 0x0000aa38   Section        8  QtCore{00040703}-335.o(StubCode)
    theImportedSymbol                        0x0000aa3c   Data           0  QtCore{00040703}-335.o(StubCode)
    StubCode                                 0x0000aa40   Section        8  QtCore{00040703}-3609.o(StubCode)
    theImportedSymbol                        0x0000aa44   Data           0  QtCore{00040703}-3609.o(StubCode)
    StubCode                                 0x0000aa48   Section        8  QtCore{00040703}-3610.o(StubCode)
    theImportedSymbol                        0x0000aa4c   Data           0  QtCore{00040703}-3610.o(StubCode)
    StubCode                                 0x0000aa50   Section        8  QtCore{00040703}-3689.o(StubCode)
    theImportedSymbol                        0x0000aa54   Data           0  QtCore{00040703}-3689.o(StubCode)
    StubCode                                 0x0000aa58   Section        8  QtCore{00040703}-3691.o(StubCode)
    theImportedSymbol                        0x0000aa5c   Data           0  QtCore{00040703}-3691.o(StubCode)
    StubCode                                 0x0000aa60   Section        8  QtCore{00040703}-3692.o(StubCode)
    theImportedSymbol                        0x0000aa64   Data           0  QtCore{00040703}-3692.o(StubCode)
    StubCode                                 0x0000aa68   Section        8  QtCore{00040703}-70.o(StubCode)
    theImportedSymbol                        0x0000aa6c   Data           0  QtCore{00040703}-70.o(StubCode)
    StubCode                                 0x0000aa70   Section        8  QtCore{00040703}-988.o(StubCode)
    theImportedSymbol                        0x0000aa74   Data           0  QtCore{00040703}-988.o(StubCode)
    StubCode                                 0x0000aa78   Section        8  QtCore{00040703}-990.o(StubCode)
    theImportedSymbol                        0x0000aa7c   Data           0  QtCore{00040703}-990.o(StubCode)
    StubCode                                 0x0000aa80   Section        8  QtCore{00040703}-991.o(StubCode)
    theImportedSymbol                        0x0000aa84   Data           0  QtCore{00040703}-991.o(StubCode)
    StubCode                                 0x0000aa88   Section        8  QtCore{00040703}-996.o(StubCode)
    theImportedSymbol                        0x0000aa8c   Data           0  QtCore{00040703}-996.o(StubCode)
    StubCode                                 0x0000aa90   Section        8  libc{00010000}-350.o(StubCode)
    theImportedSymbol                        0x0000aa94   Data           0  libc{00010000}-350.o(StubCode)
    StubCode                                 0x0000aa98   Section        8  euser{000a0000}-670.o(StubCode)
    theImportedSymbol                        0x0000aa9c   Data           0  euser{000a0000}-670.o(StubCode)
    StubCode                                 0x0000aaa0   Section        8  euser{000a0000}-671.o(StubCode)
    theImportedSymbol                        0x0000aaa4   Data           0  euser{000a0000}-671.o(StubCode)
    StubCode                                 0x0000aaa8   Section        8  drtaeabi{000a0000}-147.o(StubCode)
    theImportedSymbol                        0x0000aaac   Data           0  drtaeabi{000a0000}-147.o(StubCode)
    StubCode                                 0x0000aab0   Section        8  drtaeabi{000a0000}-155.o(StubCode)
    theImportedSymbol                        0x0000aab4   Data           0  drtaeabi{000a0000}-155.o(StubCode)
    StubCode                                 0x0000aab8   Section        8  drtaeabi{000a0000}-158.o(StubCode)
    theImportedSymbol                        0x0000aabc   Data           0  drtaeabi{000a0000}-158.o(StubCode)
    StubCode                                 0x0000aac0   Section        8  drtaeabi{000a0000}-180.o(StubCode)
    theImportedSymbol                        0x0000aac4   Data           0  drtaeabi{000a0000}-180.o(StubCode)
    StubCode                                 0x0000aac8   Section        8  drtaeabi{000a0000}-183.o(StubCode)
    theImportedSymbol                        0x0000aacc   Data           0  drtaeabi{000a0000}-183.o(StubCode)
    StubCode                                 0x0000aad0   Section        8  drtaeabi{000a0000}-184.o(StubCode)
    theImportedSymbol                        0x0000aad4   Data           0  drtaeabi{000a0000}-184.o(StubCode)
    StubCode                                 0x0000aad8   Section        8  drtaeabi{000a0000}-186.o(StubCode)
    theImportedSymbol                        0x0000aadc   Data           0  drtaeabi{000a0000}-186.o(StubCode)
    StubCode                                 0x0000aae0   Section        8  drtaeabi{000a0000}-187.o(StubCode)
    theImportedSymbol                        0x0000aae4   Data           0  drtaeabi{000a0000}-187.o(StubCode)
    StubCode                                 0x0000aae8   Section        8  drtaeabi{000a0000}-188.o(StubCode)
    theImportedSymbol                        0x0000aaec   Data           0  drtaeabi{000a0000}-188.o(StubCode)
    StubCode                                 0x0000aaf0   Section        8  drtaeabi{000a0000}-189.o(StubCode)
    theImportedSymbol                        0x0000aaf4   Data           0  drtaeabi{000a0000}-189.o(StubCode)
    StubCode                                 0x0000aaf8   Section        8  drtaeabi{000a0000}-190.o(StubCode)
    theImportedSymbol                        0x0000aafc   Data           0  drtaeabi{000a0000}-190.o(StubCode)
    StubCode                                 0x0000ab00   Section        8  drtrvct2_2{000a0000}-28.o(StubCode)
    theImportedSymbol                        0x0000ab04   Data           0  drtrvct2_2{000a0000}-28.o(StubCode)
    i._ZN10QByteArrayC1ERKS_                 0x0000ab08   Section       16  declarative_messaging.in(i._ZN10QByteArrayC1ERKS_)
    i._ZN10QByteArrayD1Ev                    0x0000ab18   Section       24  declarative_messaging.in(i._ZN10QByteArrayD1Ev)
    i._ZN11QMetaObject12invokeMethodEP7QObjectPKcN2Qt14ConnectionTypeE16QGenericArgumentS6_S6_S6_S6_S6_S6_S6_S6_S6_ 0x0000ab30   Section      118  declarative_messaging.in(i._ZN11QMetaObject12invokeMethodEP7QObjectPKcN2Qt14ConnectionTypeE16QGenericArgumentS6_S6_S6_S6_S6_S6_S6_S6_S6_)
    i._ZN11QModelIndexC1Ev                   0x0000aba6   Section       16  declarative_messaging.in(i._ZN11QModelIndexC1Ev)
    i._ZN11QModelIndexD1Ev                   0x0000abb6   Section        8  declarative_messaging.in(i._ZN11QModelIndexD1Ev)
    i._ZN11QStringListD1Ev                   0x0000abbe   Section        8  declarative_messaging.in(i._ZN11QStringListD1Ev)
    i._ZN12QMutexLocker6unlockEv             0x0000abc6   Section       24  declarative_messaging.in(i._ZN12QMutexLocker6unlockEv)
    i._ZN12QMutexLockerC1EP6QMutex           0x0000abde   Section       28  declarative_messaging.in(i._ZN12QMutexLockerC1EP6QMutex)
    i._ZN12QMutexLockerD1Ev                  0x0000abfa   Section       12  declarative_messaging.in(i._ZN12QMutexLockerD1Ev)
    i._ZN15QBasicAtomicInt3refEv             0x0000ac06   Section       18  declarative_messaging.in(i._ZN15QBasicAtomicInt3refEv)
    i._ZN15QBasicAtomicInt5derefEv           0x0000ac18   Section       18  declarative_messaging.in(i._ZN15QBasicAtomicInt5derefEv)
    i._ZN16QDeclarativeInfolsEPKc            0x0000ac2a   Section       38  declarative_messaging.in(i._ZN16QDeclarativeInfolsEPKc)
    i._ZN16QDeclarativeInfolsEPKc.clean      0x0000ac50   Section       10  declarative_messaging.in(i._ZN16QDeclarativeInfolsEPKc.clean)
    i._ZN17QForeachContainerI5QListIN10QtMobility15QMessageAddressEEED1Ev 0x0000ac5a   Section        8  declarative_messaging.in(i._ZN17QForeachContainerI5QListIN10QtMobility15QMessageAddressEEED1Ev)
    i._ZN18MessageModelWorker10getMessageERKN10QtMobility10QMessageIdE 0x0000ac64   Section      248  declarative_messaging.in(i._ZN18MessageModelWorker10getMessageERKN10QtMobility10QMessageIdE)
    i._ZN18MessageModelWorker10getMessageERKN10QtMobility10QMessageIdE.clean 0x0000ad5c   Section       10  declarative_messaging.in(i._ZN18MessageModelWorker10getMessageERKN10QtMobility10QMessageIdE.clean)
    i._ZN18MessageModelWorker11requestBodyERKN10QtMobility10QMessageIdE 0x0000ad68   Section      108  declarative_messaging.in(i._ZN18MessageModelWorker11requestBodyERKN10QtMobility10QMessageIdE)
    i._ZN18MessageModelWorker11requestBodyERKN10QtMobility10QMessageIdE.clean 0x0000add4   Section       10  declarative_messaging.in(i._ZN18MessageModelWorker11requestBodyERKN10QtMobility10QMessageIdE.clean)
    i._ZN18MessageModelWorker12cacheMessageERKN10QtMobility10QMessageIdE 0x0000adde   Section      118  declarative_messaging.in(i._ZN18MessageModelWorker12cacheMessageERKN10QtMobility10QMessageIdE)
    i._ZN18MessageModelWorker12cacheMessageERKN10QtMobility10QMessageIdE.clean 0x0000ae54   Section       16  declarative_messaging.in(i._ZN18MessageModelWorker12cacheMessageERKN10QtMobility10QMessageIdE.clean)
    i._ZN18MessageModelWorker15removeFromCacheERKN10QtMobility10QMessageIdE 0x0000ae64   Section       34  declarative_messaging.in(i._ZN18MessageModelWorker15removeFromCacheERKN10QtMobility10QMessageIdE)
    i._ZN18MessageModelWorker15removeFromCacheERKN10QtMobility10QMessageIdE.clean 0x0000ae86   Section       10  declarative_messaging.in(i._ZN18MessageModelWorker15removeFromCacheERKN10QtMobility10QMessageIdE.clean)
    i._ZN18MessageModelWorkerD0Ev            0x0000ae90   Section       16  declarative_messaging.in(i._ZN18MessageModelWorkerD0Ev)
    i._ZN18MessageModelWorkerD1Ev            0x0000aea0   Section      112  declarative_messaging.in(i._ZN18MessageModelWorkerD1Ev)
    i._ZN18MessageModelWorkerD1Ev.clean      0x0000af10   Section       94  declarative_messaging.in(i._ZN18MessageModelWorkerD1Ev.clean)
    i._ZN19QDeclarativePrivate12RegisterTypeD1Ev 0x0000af6e   Section       12  declarative_messaging.in(i._ZN19QDeclarativePrivate12RegisterTypeD1Ev)
    i._ZN19QDeclarativePrivate19QDeclarativeElementI24QDeclarativeMessageModelED0Ev 0x0000af7a   Section       16  declarative_messaging.in(i._ZN19QDeclarativePrivate19QDeclarativeElementI24QDeclarativeMessageModelED0Ev)
    i._ZN19QDeclarativePrivate19QDeclarativeElementI25QDeclarativeMessageFilterED0Ev 0x0000af8a   Section       16  declarative_messaging.in(i._ZN19QDeclarativePrivate19QDeclarativeElementI25QDeclarativeMessageFilterED0Ev)
    i._ZN19QDeclarativePrivate19QDeclarativeElementI30QDeclarativeMessageUnionFilterED0Ev 0x0000af9a   Section       16  declarative_messaging.in(i._ZN19QDeclarativePrivate19QDeclarativeElementI30QDeclarativeMessageUnionFilterED0Ev)
    i._ZN19QDeclarativePrivate19QDeclarativeElementI37QDeclarativeMessageIntersectionFilterED0Ev 0x0000afaa   Section       16  declarative_messaging.in(i._ZN19QDeclarativePrivate19QDeclarativeElementI37QDeclarativeMessageIntersectionFilterED0Ev)
    i._ZN24QDeclarativeMessageModel10classBeginEv 0x0000afba   Section        2  declarative_messaging.in(i._ZN24QDeclarativeMessageModel10classBeginEv)
    i._ZN25QDeclarativeMessageFilterD0Ev     0x0000afbc   Section       16  declarative_messaging.in(i._ZN25QDeclarativeMessageFilterD0Ev)
    i._ZN25QDeclarativeMessageFilterD1Ev     0x0000afcc   Section        8  declarative_messaging.in(i._ZN25QDeclarativeMessageFilterD1Ev)
    i._ZN29QDeclarativeMessageFilterBaseD0Ev 0x0000afd4   Section       16  declarative_messaging.in(i._ZN29QDeclarativeMessageFilterBaseD0Ev)
    i._ZN29QDeclarativeMessageFilterBaseD2Ev 0x0000afe4   Section        8  declarative_messaging.in(i._ZN29QDeclarativeMessageFilterBaseD2Ev)
    i._ZN30QDeclarativeMessageModelPlugin13registerTypesEPKc 0x0000afec   Section      288  declarative_messaging.in(i._ZN30QDeclarativeMessageModelPlugin13registerTypesEPKc)
    i._ZN30QDeclarativeMessageModelPlugin13registerTypesEPKc.clean 0x0000b10c   Section       10  declarative_messaging.in(i._ZN30QDeclarativeMessageModelPlugin13registerTypesEPKc.clean)
    i._ZN30QDeclarativeMessageModelPluginD0Ev 0x0000b116   Section       16  declarative_messaging.in(i._ZN30QDeclarativeMessageModelPluginD0Ev)
    i._ZN30QDeclarativeMessageModelPluginD1Ev 0x0000b126   Section        8  declarative_messaging.in(i._ZN30QDeclarativeMessageModelPluginD1Ev)
    i._ZN30QDeclarativeMessageUnionFilterD0Ev 0x0000b12e   Section       16  declarative_messaging.in(i._ZN30QDeclarativeMessageUnionFilterD0Ev)
    i._ZN30QDeclarativeMessageUnionFilterD1Ev 0x0000b140   Section       28  declarative_messaging.in(i._ZN30QDeclarativeMessageUnionFilterD1Ev)
    i._ZN30QDeclarativeMessageUnionFilterD1Ev.clean 0x0000b15c   Section       10  declarative_messaging.in(i._ZN30QDeclarativeMessageUnionFilterD1Ev.clean)
    i._ZN31QDeclarativeMessageModelPrivateC1EP24QDeclarativeMessageModel 0x0000b168   Section      448  declarative_messaging.in(i._ZN31QDeclarativeMessageModelPrivateC1EP24QDeclarativeMessageModel)
    i._ZN31QDeclarativeMessageModelPrivateC1EP24QDeclarativeMessageModel.clean 0x0000b328   Section       42  declarative_messaging.in(i._ZN31QDeclarativeMessageModelPrivateC1EP24QDeclarativeMessageModel.clean)
    i._ZN37QDeclarativeMessageIntersectionFilterD0Ev 0x0000b352   Section       16  declarative_messaging.in(i._ZN37QDeclarativeMessageIntersectionFilterD0Ev)
    i._ZN37QDeclarativeMessageIntersectionFilterD1Ev 0x0000b364   Section       28  declarative_messaging.in(i._ZN37QDeclarativeMessageIntersectionFilterD1Ev)
    i._ZN37QDeclarativeMessageIntersectionFilterD1Ev.clean 0x0000b380   Section       10  declarative_messaging.in(i._ZN37QDeclarativeMessageIntersectionFilterD1Ev.clean)
    i._ZN4QSetIiED1Ev                        0x0000b38a   Section        8  declarative_messaging.in(i._ZN4QSetIiED1Ev)
    i._ZN6QDebug10maybeSpaceEv               0x0000b392   Section       22  declarative_messaging.in(i._ZN6QDebug10maybeSpaceEv)
    i._ZN7QStringC1ERKS_                     0x0000b3a8   Section       16  declarative_messaging.in(i._ZN7QStringC1ERKS_)
    i._ZN7QStringC1Ev                        0x0000b3b8   Section       20  declarative_messaging.in(i._ZN7QStringC1Ev)
    i._ZN7QStringD1Ev                        0x0000b3cc   Section       24  declarative_messaging.in(i._ZN7QStringD1Ev)
    i._ZN9QHashData8willGrowEv               0x0000b3e4   Section       28  declarative_messaging.in(i._ZN9QHashData8willGrowEv)
    i._ZNK15QBasicAtomicIntneEi              0x0000b400   Section       14  declarative_messaging.in(i._ZNK15QBasicAtomicIntneEi)
    i._ZNK15QBasicAtomicIntntEv              0x0000b40e   Section       14  declarative_messaging.in(i._ZNK15QBasicAtomicIntntEv)
    i._ZNK9QListData2atEi                    0x0000b41c   Section       16  declarative_messaging.in(i._ZNK9QListData2atEi)
    i._ZNK9QListData3endEv                   0x0000b42c   Section       12  declarative_messaging.in(i._ZNK9QListData3endEv)
    i._ZNK9QListData5beginEv                 0x0000b438   Section       12  declarative_messaging.in(i._ZNK9QListData5beginEv)
    i._ZThn8_N19QDeclarativePrivate19QDeclarativeElementI24QDeclarativeMessageModelED0Ev 0x0000b444   Section       10  declarative_messaging.in(i._ZThn8_N19QDeclarativePrivate19QDeclarativeElementI24QDeclarativeMessageModelED0Ev)
    i._ZThn8_N19QDeclarativePrivate19QDeclarativeElementI24QDeclarativeMessageModelED1Ev 0x0000b44e   Section       10  declarative_messaging.in(i._ZThn8_N19QDeclarativePrivate19QDeclarativeElementI24QDeclarativeMessageModelED1Ev)
    i._ZThn8_N24QDeclarativeMessageModel10classBeginEv 0x0000b458   Section        2  declarative_messaging.in(i._ZThn8_N24QDeclarativeMessageModel10classBeginEv)
    i._ZThn8_N30QDeclarativeMessageModelPlugin13registerTypesEPKc 0x0000b45a   Section       10  declarative_messaging.in(i._ZThn8_N30QDeclarativeMessageModelPlugin13registerTypesEPKc)
    i._ZThn8_N30QDeclarativeMessageModelPluginD0Ev 0x0000b464   Section       10  declarative_messaging.in(i._ZThn8_N30QDeclarativeMessageModelPluginD0Ev)
    i._ZThn8_N30QDeclarativeMessageModelPluginD1Ev 0x0000b46e   Section       10  declarative_messaging.in(i._ZThn8_N30QDeclarativeMessageModelPluginD1Ev)
    i._ZdlPvS_                               0x0000b478   Section        2  declarative_messaging.in(i._ZdlPvS_)
    i._ZnwjPv                                0x0000b47a   Section        4  declarative_messaging.in(i._ZnwjPv)
    i._ZplPKcRK10QByteArray                  0x0000b47e   Section       34  declarative_messaging.in(i._ZplPKcRK10QByteArray)
    i._ZplPKcRK10QByteArray.clean            0x0000b4a0   Section       10  declarative_messaging.in(i._ZplPKcRK10QByteArray.clean)
    i._ZplRK10QByteArrayPKc                  0x0000b4aa   Section       34  declarative_messaging.in(i._ZplRK10QByteArrayPKc)
    i._ZplRK10QByteArrayPKc.clean            0x0000b4cc   Section       10  declarative_messaging.in(i._ZplRK10QByteArrayPKc.clean)
    i._ZplRK10QByteArrayc                    0x0000b4d6   Section       34  declarative_messaging.in(i._ZplRK10QByteArrayc)
    i._ZplRK10QByteArrayc.clean              0x0000b4f8   Section       10  declarative_messaging.in(i._ZplRK10QByteArrayc.clean)
    t._Z15qmlRegisterTypeI24QDeclarativeMessageModelEiPKciiS2_ 0x0000b504   Section      228  declarative_messaging.in(t._Z15qmlRegisterTypeI24QDeclarativeMessageModelEiPKciiS2_)
    t._Z15qmlRegisterTypeI24QDeclarativeMessageModelEiPKciiS2_.clean 0x0000b5e8   Section       44  declarative_messaging.in(t._Z15qmlRegisterTypeI24QDeclarativeMessageModelEiPKciiS2_.clean)
    t._Z15qmlRegisterTypeI25QDeclarativeMessageFilterEiPKciiS2_ 0x0000b614   Section      224  declarative_messaging.in(t._Z15qmlRegisterTypeI25QDeclarativeMessageFilterEiPKciiS2_)
    t._Z15qmlRegisterTypeI25QDeclarativeMessageFilterEiPKciiS2_.clean 0x0000b6f4   Section       44  declarative_messaging.in(t._Z15qmlRegisterTypeI25QDeclarativeMessageFilterEiPKciiS2_.clean)
    t._Z15qmlRegisterTypeI30QDeclarativeMessageUnionFilterEiPKciiS2_ 0x0000b720   Section      224  declarative_messaging.in(t._Z15qmlRegisterTypeI30QDeclarativeMessageUnionFilterEiPKciiS2_)
    t._Z15qmlRegisterTypeI30QDeclarativeMessageUnionFilterEiPKciiS2_.clean 0x0000b800   Section       44  declarative_messaging.in(t._Z15qmlRegisterTypeI30QDeclarativeMessageUnionFilterEiPKciiS2_.clean)
    t._Z15qmlRegisterTypeI37QDeclarativeMessageIntersectionFilterEiPKciiS2_ 0x0000b82c   Section      224  declarative_messaging.in(t._Z15qmlRegisterTypeI37QDeclarativeMessageIntersectionFilterEiPKciiS2_)
    t._Z15qmlRegisterTypeI37QDeclarativeMessageIntersectionFilterEiPKciiS2_.clean 0x0000b90c   Section       44  declarative_messaging.in(t._Z15qmlRegisterTypeI37QDeclarativeMessageIntersectionFilterEiPKciiS2_.clean)
    t._Z17qRegisterMetaTypeI24QDeclarativeListPropertyI24QDeclarativeMessageModelEEiPKcPT_ 0x0000b938   Section      128  declarative_messaging.in(t._Z17qRegisterMetaTypeI24QDeclarativeListPropertyI24QDeclarativeMessageModelEEiPKcPT_)
    t._Z17qRegisterMetaTypeI24QDeclarativeListPropertyI25QDeclarativeMessageFilterEEiPKcPT_ 0x0000b9b8   Section      128  declarative_messaging.in(t._Z17qRegisterMetaTypeI24QDeclarativeListPropertyI25QDeclarativeMessageFilterEEiPKcPT_)
    t._Z17qRegisterMetaTypeI24QDeclarativeListPropertyI29QDeclarativeMessageFilterBaseEEiPKcPT_ 0x0000ba38   Section      132  declarative_messaging.in(t._Z17qRegisterMetaTypeI24QDeclarativeListPropertyI29QDeclarativeMessageFilterBaseEEiPKcPT_)
    t._Z17qRegisterMetaTypeI24QDeclarativeListPropertyI30QDeclarativeMessageUnionFilterEEiPKcPT_ 0x0000babc   Section      136  declarative_messaging.in(t._Z17qRegisterMetaTypeI24QDeclarativeListPropertyI30QDeclarativeMessageUnionFilterEEiPKcPT_)
    t._Z17qRegisterMetaTypeI24QDeclarativeListPropertyI37QDeclarativeMessageIntersectionFilterEEiPKcPT_ 0x0000bb44   Section      140  declarative_messaging.in(t._Z17qRegisterMetaTypeI24QDeclarativeListPropertyI37QDeclarativeMessageIntersectionFilterEEiPKcPT_)
    t._Z17qRegisterMetaTypeIN10QtMobility10QMessageIdEEiPKcPT_ 0x0000bbd0   Section      112  declarative_messaging.in(t._Z17qRegisterMetaTypeIN10QtMobility10QMessageIdEEiPKcPT_)
    t._Z17qRegisterMetaTypeIP24QDeclarativeMessageModelEiPKcPT_ 0x0000bc40   Section      104  declarative_messaging.in(t._Z17qRegisterMetaTypeIP24QDeclarativeMessageModelEiPKcPT_)
    t._Z17qRegisterMetaTypeIP25QDeclarativeMessageFilterEiPKcPT_ 0x0000bca8   Section      104  declarative_messaging.in(t._Z17qRegisterMetaTypeIP25QDeclarativeMessageFilterEiPKcPT_)
    t._Z17qRegisterMetaTypeIP29QDeclarativeMessageFilterBaseEiPKcPT_ 0x0000bd10   Section      108  declarative_messaging.in(t._Z17qRegisterMetaTypeIP29QDeclarativeMessageFilterBaseEiPKcPT_)
    t._Z17qRegisterMetaTypeIP30QDeclarativeMessageUnionFilterEiPKcPT_ 0x0000bd7c   Section      112  declarative_messaging.in(t._Z17qRegisterMetaTypeIP30QDeclarativeMessageUnionFilterEiPKcPT_)
    t._Z17qRegisterMetaTypeIP37QDeclarativeMessageIntersectionFilterEiPKcPT_ 0x0000bdec   Section      116  declarative_messaging.in(t._Z17qRegisterMetaTypeIP37QDeclarativeMessageIntersectionFilterEiPKcPT_)
    t._Z21qMetaTypeDeleteHelperI24QDeclarativeListPropertyI24QDeclarativeMessageModelEEvPT_ 0x0000be60   Section        8  declarative_messaging.in(t._Z21qMetaTypeDeleteHelperI24QDeclarativeListPropertyI24QDeclarativeMessageModelEEvPT_)
    t._Z21qMetaTypeDeleteHelperI24QDeclarativeListPropertyI25QDeclarativeMessageFilterEEvPT_ 0x0000be68   Section        8  declarative_messaging.in(t._Z21qMetaTypeDeleteHelperI24QDeclarativeListPropertyI25QDeclarativeMessageFilterEEvPT_)
    t._Z21qMetaTypeDeleteHelperI24QDeclarativeListPropertyI29QDeclarativeMessageFilterBaseEEvPT_ 0x0000be70   Section        8  declarative_messaging.in(t._Z21qMetaTypeDeleteHelperI24QDeclarativeListPropertyI29QDeclarativeMessageFilterBaseEEvPT_)
    t._Z21qMetaTypeDeleteHelperI24QDeclarativeListPropertyI30QDeclarativeMessageUnionFilterEEvPT_ 0x0000be78   Section        8  declarative_messaging.in(t._Z21qMetaTypeDeleteHelperI24QDeclarativeListPropertyI30QDeclarativeMessageUnionFilterEEvPT_)
    t._Z21qMetaTypeDeleteHelperI24QDeclarativeListPropertyI37QDeclarativeMessageIntersectionFilterEEvPT_ 0x0000be80   Section        8  declarative_messaging.in(t._Z21qMetaTypeDeleteHelperI24QDeclarativeListPropertyI37QDeclarativeMessageIntersectionFilterEEvPT_)
    t._Z21qMetaTypeDeleteHelperI5QListIN10QtMobility10QMessageIdEEEvPT_ 0x0000be88   Section       36  declarative_messaging.in(t._Z21qMetaTypeDeleteHelperI5QListIN10QtMobility10QMessageIdEEEvPT_)
    t._Z21qMetaTypeDeleteHelperIN10QtMobility10QMessageIdEEvPT_ 0x0000beac   Section       16  declarative_messaging.in(t._Z21qMetaTypeDeleteHelperIN10QtMobility10QMessageIdEEvPT_)
    t._Z21qMetaTypeDeleteHelperIP24QDeclarativeMessageModelEvPT_ 0x0000bebc   Section        8  declarative_messaging.in(t._Z21qMetaTypeDeleteHelperIP24QDeclarativeMessageModelEvPT_)
    t._Z21qMetaTypeDeleteHelperIP25QDeclarativeMessageFilterEvPT_ 0x0000bec4   Section        8  declarative_messaging.in(t._Z21qMetaTypeDeleteHelperIP25QDeclarativeMessageFilterEvPT_)
    t._Z21qMetaTypeDeleteHelperIP29QDeclarativeMessageFilterBaseEvPT_ 0x0000becc   Section        8  declarative_messaging.in(t._Z21qMetaTypeDeleteHelperIP29QDeclarativeMessageFilterBaseEvPT_)
    t._Z21qMetaTypeDeleteHelperIP30QDeclarativeMessageUnionFilterEvPT_ 0x0000bed4   Section        8  declarative_messaging.in(t._Z21qMetaTypeDeleteHelperIP30QDeclarativeMessageUnionFilterEvPT_)
    t._Z21qMetaTypeDeleteHelperIP37QDeclarativeMessageIntersectionFilterEvPT_ 0x0000bedc   Section        8  declarative_messaging.in(t._Z21qMetaTypeDeleteHelperIP37QDeclarativeMessageIntersectionFilterEvPT_)
    t._Z24qMetaTypeConstructHelperI24QDeclarativeListPropertyI24QDeclarativeMessageModelEEPvPKT_ 0x0000bee4   Section       82  declarative_messaging.in(t._Z24qMetaTypeConstructHelperI24QDeclarativeListPropertyI24QDeclarativeMessageModelEEPvPKT_)
    t._Z24qMetaTypeConstructHelperI24QDeclarativeListPropertyI25QDeclarativeMessageFilterEEPvPKT_ 0x0000bf36   Section       82  declarative_messaging.in(t._Z24qMetaTypeConstructHelperI24QDeclarativeListPropertyI25QDeclarativeMessageFilterEEPvPKT_)
    t._Z24qMetaTypeConstructHelperI24QDeclarativeListPropertyI29QDeclarativeMessageFilterBaseEEPvPKT_ 0x0000bf88   Section       82  declarative_messaging.in(t._Z24qMetaTypeConstructHelperI24QDeclarativeListPropertyI29QDeclarativeMessageFilterBaseEEPvPKT_)
    t._Z24qMetaTypeConstructHelperI24QDeclarativeListPropertyI30QDeclarativeMessageUnionFilterEEPvPKT_ 0x0000bfda   Section       82  declarative_messaging.in(t._Z24qMetaTypeConstructHelperI24QDeclarativeListPropertyI30QDeclarativeMessageUnionFilterEEPvPKT_)
    t._Z24qMetaTypeConstructHelperI24QDeclarativeListPropertyI37QDeclarativeMessageIntersectionFilterEEPvPKT_ 0x0000c02c   Section       82  declarative_messaging.in(t._Z24qMetaTypeConstructHelperI24QDeclarativeListPropertyI37QDeclarativeMessageIntersectionFilterEEPvPKT_)
    t._Z24qMetaTypeConstructHelperI5QListIN10QtMobility10QMessageIdEEEPvPKT_ 0x0000c080   Section       76  declarative_messaging.in(t._Z24qMetaTypeConstructHelperI5QListIN10QtMobility10QMessageIdEEEPvPKT_)
    t._Z24qMetaTypeConstructHelperI5QListIN10QtMobility10QMessageIdEEEPvPKT_.clean 0x0000c0cc   Section       14  declarative_messaging.in(t._Z24qMetaTypeConstructHelperI5QListIN10QtMobility10QMessageIdEEEPvPKT_.clean)
    t._Z24qMetaTypeConstructHelperIN10QtMobility10QMessageIdEEPvPKT_ 0x0000c0da   Section       48  declarative_messaging.in(t._Z24qMetaTypeConstructHelperIN10QtMobility10QMessageIdEEPvPKT_)
    t._Z24qMetaTypeConstructHelperIN10QtMobility10QMessageIdEEPvPKT_.clean 0x0000c10a   Section       16  declarative_messaging.in(t._Z24qMetaTypeConstructHelperIN10QtMobility10QMessageIdEEPvPKT_.clean)
    t._Z24qMetaTypeConstructHelperIP24QDeclarativeMessageModelEPvPKT_ 0x0000c11a   Section       34  declarative_messaging.in(t._Z24qMetaTypeConstructHelperIP24QDeclarativeMessageModelEPvPKT_)
    t._Z24qMetaTypeConstructHelperIP25QDeclarativeMessageFilterEPvPKT_ 0x0000c13c   Section       34  declarative_messaging.in(t._Z24qMetaTypeConstructHelperIP25QDeclarativeMessageFilterEPvPKT_)
    t._Z24qMetaTypeConstructHelperIP29QDeclarativeMessageFilterBaseEPvPKT_ 0x0000c15e   Section       34  declarative_messaging.in(t._Z24qMetaTypeConstructHelperIP29QDeclarativeMessageFilterBaseEPvPKT_)
    t._Z24qMetaTypeConstructHelperIP30QDeclarativeMessageUnionFilterEPvPKT_ 0x0000c180   Section       34  declarative_messaging.in(t._Z24qMetaTypeConstructHelperIP30QDeclarativeMessageUnionFilterEPvPKT_)
    t._Z24qMetaTypeConstructHelperIP37QDeclarativeMessageIntersectionFilterEPvPKT_ 0x0000c1a2   Section       34  declarative_messaging.in(t._Z24qMetaTypeConstructHelperIP37QDeclarativeMessageIntersectionFilterEPvPKT_)
    t._Z26qmlRegisterUncreatableTypeI29QDeclarativeMessageFilterBaseEiPKciiS2_RK7QString 0x0000c1c4   Section      232  declarative_messaging.in(t._Z26qmlRegisterUncreatableTypeI29QDeclarativeMessageFilterBaseEiPKciiS2_RK7QString)
    t._Z26qmlRegisterUncreatableTypeI29QDeclarativeMessageFilterBaseEiPKciiS2_RK7QString.clean 0x0000c2ac   Section       44  declarative_messaging.in(t._Z26qmlRegisterUncreatableTypeI29QDeclarativeMessageFilterBaseEiPKciiS2_RK7QString.clean)
    t._ZN19QDeclarativePrivate10createIntoI24QDeclarativeMessageModelEEvPv 0x0000c2d8   Section       40  declarative_messaging.in(t._ZN19QDeclarativePrivate10createIntoI24QDeclarativeMessageModelEEvPv)
    t._ZN19QDeclarativePrivate10createIntoI24QDeclarativeMessageModelEEvPv.clean 0x0000c300   Section       12  declarative_messaging.in(t._ZN19QDeclarativePrivate10createIntoI24QDeclarativeMessageModelEEvPv.clean)
    t._ZN19QDeclarativePrivate10createIntoI25QDeclarativeMessageFilterEEvPv 0x0000c30c   Section       36  declarative_messaging.in(t._ZN19QDeclarativePrivate10createIntoI25QDeclarativeMessageFilterEEvPv)
    t._ZN19QDeclarativePrivate10createIntoI25QDeclarativeMessageFilterEEvPv.clean 0x0000c330   Section       12  declarative_messaging.in(t._ZN19QDeclarativePrivate10createIntoI25QDeclarativeMessageFilterEEvPv.clean)
    t._ZN19QDeclarativePrivate10createIntoI30QDeclarativeMessageUnionFilterEEvPv 0x0000c33c   Section       36  declarative_messaging.in(t._ZN19QDeclarativePrivate10createIntoI30QDeclarativeMessageUnionFilterEEvPv)
    t._ZN19QDeclarativePrivate10createIntoI30QDeclarativeMessageUnionFilterEEvPv.clean 0x0000c360   Section       12  declarative_messaging.in(t._ZN19QDeclarativePrivate10createIntoI30QDeclarativeMessageUnionFilterEEvPv.clean)
    t._ZN19QDeclarativePrivate10createIntoI37QDeclarativeMessageIntersectionFilterEEvPv 0x0000c36c   Section       36  declarative_messaging.in(t._ZN19QDeclarativePrivate10createIntoI37QDeclarativeMessageIntersectionFilterEEvPv)
    t._ZN19QDeclarativePrivate10createIntoI37QDeclarativeMessageIntersectionFilterEEvPv.clean 0x0000c390   Section       12  declarative_messaging.in(t._ZN19QDeclarativePrivate10createIntoI37QDeclarativeMessageIntersectionFilterEEvPv.clean)
    t._ZN19QDeclarativePrivate19QDeclarativeElementI24QDeclarativeMessageModelED1Ev 0x0000c39c   Section       32  declarative_messaging.in(t._ZN19QDeclarativePrivate19QDeclarativeElementI24QDeclarativeMessageModelED1Ev)
    t._ZN19QDeclarativePrivate19QDeclarativeElementI24QDeclarativeMessageModelED1Ev.clean 0x0000c3bc   Section       10  declarative_messaging.in(t._ZN19QDeclarativePrivate19QDeclarativeElementI24QDeclarativeMessageModelED1Ev.clean)
    t._ZN19QDeclarativePrivate19QDeclarativeElementI25QDeclarativeMessageFilterED1Ev 0x0000c3c8   Section       28  declarative_messaging.in(t._ZN19QDeclarativePrivate19QDeclarativeElementI25QDeclarativeMessageFilterED1Ev)
    t._ZN19QDeclarativePrivate19QDeclarativeElementI25QDeclarativeMessageFilterED1Ev.clean 0x0000c3e4   Section       10  declarative_messaging.in(t._ZN19QDeclarativePrivate19QDeclarativeElementI25QDeclarativeMessageFilterED1Ev.clean)
    t._ZN19QDeclarativePrivate19QDeclarativeElementI30QDeclarativeMessageUnionFilterED1Ev 0x0000c3f0   Section       28  declarative_messaging.in(t._ZN19QDeclarativePrivate19QDeclarativeElementI30QDeclarativeMessageUnionFilterED1Ev)
    t._ZN19QDeclarativePrivate19QDeclarativeElementI30QDeclarativeMessageUnionFilterED1Ev.clean 0x0000c40c   Section       10  declarative_messaging.in(t._ZN19QDeclarativePrivate19QDeclarativeElementI30QDeclarativeMessageUnionFilterED1Ev.clean)
    t._ZN19QDeclarativePrivate19QDeclarativeElementI37QDeclarativeMessageIntersectionFilterED1Ev 0x0000c418   Section       28  declarative_messaging.in(t._ZN19QDeclarativePrivate19QDeclarativeElementI37QDeclarativeMessageIntersectionFilterED1Ev)
    t._ZN19QDeclarativePrivate19QDeclarativeElementI37QDeclarativeMessageIntersectionFilterED1Ev.clean 0x0000c434   Section       10  declarative_messaging.in(t._ZN19QDeclarativePrivate19QDeclarativeElementI37QDeclarativeMessageIntersectionFilterED1Ev.clean)
    t._ZN24QDeclarativeListPropertyI29QDeclarativeMessageFilterBaseE11qlist_clearEPS1_ 0x0000c43e   Section       64  declarative_messaging.in(t._ZN24QDeclarativeListPropertyI29QDeclarativeMessageFilterBaseE11qlist_clearEPS1_)
    t._ZN24QDeclarativeListPropertyI29QDeclarativeMessageFilterBaseE11qlist_clearEPS1_.clean 0x0000c47e   Section       10  declarative_messaging.in(t._ZN24QDeclarativeListPropertyI29QDeclarativeMessageFilterBaseE11qlist_clearEPS1_.clean)
    t._ZN24QDeclarativeListPropertyI29QDeclarativeMessageFilterBaseE11qlist_countEPS1_ 0x0000c488   Section       10  declarative_messaging.in(t._ZN24QDeclarativeListPropertyI29QDeclarativeMessageFilterBaseE11qlist_countEPS1_)
    t._ZN24QDeclarativeListPropertyI29QDeclarativeMessageFilterBaseE12qlist_appendEPS1_PS0_ 0x0000c494   Section       52  declarative_messaging.in(t._ZN24QDeclarativeListPropertyI29QDeclarativeMessageFilterBaseE12qlist_appendEPS1_PS0_)
    t._ZN24QDeclarativeListPropertyI29QDeclarativeMessageFilterBaseE12qlist_appendEPS1_PS0_.clean 0x0000c4c8   Section       10  declarative_messaging.in(t._ZN24QDeclarativeListPropertyI29QDeclarativeMessageFilterBaseE12qlist_appendEPS1_PS0_.clean)
    t._ZN24QDeclarativeListPropertyI29QDeclarativeMessageFilterBaseE8qlist_atEPS1_i 0x0000c4d2   Section       12  declarative_messaging.in(t._ZN24QDeclarativeListPropertyI29QDeclarativeMessageFilterBaseE8qlist_atEPS1_i)
    t._ZN24QDeclarativeListPropertyI29QDeclarativeMessageFilterBaseEC1EP7QObjectR5QListIPS0_E 0x0000c4e0   Section       44  declarative_messaging.in(t._ZN24QDeclarativeListPropertyI29QDeclarativeMessageFilterBaseEC1EP7QObjectR5QListIPS0_E)
    t._ZN4QSetIiEC1ERKS0_                    0x0000c50c   Section       88  declarative_messaging.in(t._ZN4QSetIiEC1ERKS0_)
    t._ZN5QHashIN10QtMobility10QMessageIdEN6QCacheIS1_NS0_8QMessageEE4NodeEE11deleteNode2EPN9QHashData4NodeE 0x0000c564   Section       10  declarative_messaging.in(t._ZN5QHashIN10QtMobility10QMessageIdEN6QCacheIS1_NS0_8QMessageEE4NodeEE11deleteNode2EPN9QHashData4NodeE)
    t._ZN5QHashIN10QtMobility10QMessageIdEN6QCacheIS1_NS0_8QMessageEE4NodeEE13detach_helperEv 0x0000c570   Section       56  declarative_messaging.in(t._ZN5QHashIN10QtMobility10QMessageIdEN6QCacheIS1_NS0_8QMessageEE4NodeEE13detach_helperEv)
    t._ZN5QHashIN10QtMobility10QMessageIdEN6QCacheIS1_NS0_8QMessageEE4NodeEE13duplicateNodeEPN9QHashData4NodeEPv 0x0000c5a8   Section       30  declarative_messaging.in(t._ZN5QHashIN10QtMobility10QMessageIdEN6QCacheIS1_NS0_8QMessageEE4NodeEE13duplicateNodeEPN9QHashData4NodeEPv)
    t._ZN5QHashIN10QtMobility10QMessageIdEN6QCacheIS1_NS0_8QMessageEE4NodeEE13duplicateNodeEPN9QHashData4NodeEPv.clean 0x0000c5c6   Section       12  declarative_messaging.in(t._ZN5QHashIN10QtMobility10QMessageIdEN6QCacheIS1_NS0_8QMessageEE4NodeEE13duplicateNodeEPN9QHashData4NodeEPv.clean)
    t._ZN5QHashIN10QtMobility10QMessageIdEN6QCacheIS1_NS0_8QMessageEE4NodeEE4findERKS1_ 0x0000c5d2   Section       24  declarative_messaging.in(t._ZN5QHashIN10QtMobility10QMessageIdEN6QCacheIS1_NS0_8QMessageEE4NodeEE4findERKS1_)
    t._ZN5QHashIN10QtMobility10QMessageIdEN6QCacheIS1_NS0_8QMessageEE4NodeEE6detachEv 0x0000c5ea   Section       26  declarative_messaging.in(t._ZN5QHashIN10QtMobility10QMessageIdEN6QCacheIS1_NS0_8QMessageEE4NodeEE6detachEv)
    t._ZN5QHashIN10QtMobility10QMessageIdEN6QCacheIS1_NS0_8QMessageEE4NodeEE6insertERKS1_RKS5_ 0x0000c604   Section      124  declarative_messaging.in(t._ZN5QHashIN10QtMobility10QMessageIdEN6QCacheIS1_NS0_8QMessageEE4NodeEE6insertERKS1_RKS5_)
    t._ZN5QHashIN10QtMobility10QMessageIdEN6QCacheIS1_NS0_8QMessageEE4NodeEE6insertERKS1_RKS5_.clean 0x0000c680   Section       12  declarative_messaging.in(t._ZN5QHashIN10QtMobility10QMessageIdEN6QCacheIS1_NS0_8QMessageEE4NodeEE6insertERKS1_RKS5_.clean)
    t._ZN5QHashIN10QtMobility10QMessageIdEN6QCacheIS1_NS0_8QMessageEE4NodeEE6removeERKS1_ 0x0000c68c   Section      186  declarative_messaging.in(t._ZN5QHashIN10QtMobility10QMessageIdEN6QCacheIS1_NS0_8QMessageEE4NodeEE6removeERKS1_)
    t._ZN5QHashIN10QtMobility10QMessageIdEN6QCacheIS1_NS0_8QMessageEE4NodeEE8freeDataEP9QHashData 0x0000c748   Section       16  declarative_messaging.in(t._ZN5QHashIN10QtMobility10QMessageIdEN6QCacheIS1_NS0_8QMessageEE4NodeEE8freeDataEP9QHashData)
    t._ZN5QHashIN10QtMobility10QMessageIdEN6QCacheIS1_NS0_8QMessageEE4NodeEEC1Ev 0x0000c758   Section       24  declarative_messaging.in(t._ZN5QHashIN10QtMobility10QMessageIdEN6QCacheIS1_NS0_8QMessageEE4NodeEEC1Ev)
    t._ZN5QHashIN10QtMobility10QMessageIdEN6QCacheIS1_NS0_8QMessageEE4NodeEED1Ev 0x0000c770   Section       28  declarative_messaging.in(t._ZN5QHashIN10QtMobility10QMessageIdEN6QCacheIS1_NS0_8QMessageEE4NodeEED1Ev)
    t._ZN5QHashIi10QByteArrayE11deleteNode2EPN9QHashData4NodeE 0x0000c78c   Section       10  declarative_messaging.in(t._ZN5QHashIi10QByteArrayE11deleteNode2EPN9QHashData4NodeE)
    t._ZN5QHashIi10QByteArrayE13duplicateNodeEPN9QHashData4NodeEPv 0x0000c796   Section       30  declarative_messaging.in(t._ZN5QHashIi10QByteArrayE13duplicateNodeEPN9QHashData4NodeEPv)
    t._ZN5QHashIi10QByteArrayE13duplicateNodeEPN9QHashData4NodeEPv.clean 0x0000c7b4   Section       12  declarative_messaging.in(t._ZN5QHashIi10QByteArrayE13duplicateNodeEPN9QHashData4NodeEPv.clean)
    t._ZN5QHashIi10QByteArrayE8freeDataEP9QHashData 0x0000c7c0   Section       16  declarative_messaging.in(t._ZN5QHashIi10QByteArrayE8freeDataEP9QHashData)
    t._ZN5QHashIi10QByteArrayED1Ev           0x0000c7d0   Section       28  declarative_messaging.in(t._ZN5QHashIi10QByteArrayED1Ev)
    t._ZN5QHashIi10QByteArrayEixERKi         0x0000c7ec   Section      204  declarative_messaging.in(t._ZN5QHashIi10QByteArrayEixERKi)
    t._ZN5QHashIi10QByteArrayEixERKi.clean   0x0000c8b8   Section       20  declarative_messaging.in(t._ZN5QHashIi10QByteArrayEixERKi.clean)
    t._ZN5QHashIi15QHashDummyValueE11deleteNode2EPN9QHashData4NodeE 0x0000c8cc   Section        2  declarative_messaging.in(t._ZN5QHashIi15QHashDummyValueE11deleteNode2EPN9QHashData4NodeE)
    t._ZN5QHashIi15QHashDummyValueE13duplicateNodeEPN9QHashData4NodeEPv 0x0000c8ce   Section       10  declarative_messaging.in(t._ZN5QHashIi15QHashDummyValueE13duplicateNodeEPN9QHashData4NodeEPv)
    t._ZN5QHashIi15QHashDummyValueE8freeDataEP9QHashData 0x0000c8d8   Section       16  declarative_messaging.in(t._ZN5QHashIi15QHashDummyValueE8freeDataEP9QHashData)
    t._ZN5QHashIi15QHashDummyValueED1Ev      0x0000c8e8   Section       28  declarative_messaging.in(t._ZN5QHashIi15QHashDummyValueED1Ev)
    t._ZN5QListI7QStringE14node_constructEPNS1_4NodeERKS0_ 0x0000c904   Section       26  declarative_messaging.in(t._ZN5QListI7QStringE14node_constructEPNS1_4NodeERKS0_)
    t._ZN5QListI7QStringE14node_constructEPNS1_4NodeERKS0_.clean 0x0000c91e   Section       12  declarative_messaging.in(t._ZN5QListI7QStringE14node_constructEPNS1_4NodeERKS0_.clean)
    t._ZN5QListI7QStringE18detach_helper_growEii 0x0000c92a   Section      186  declarative_messaging.in(t._ZN5QListI7QStringE18detach_helper_growEii)
    t._ZN5QListI7QStringE18detach_helper_growEii.clean 0x0000c9e4   Section        8  declarative_messaging.in(t._ZN5QListI7QStringE18detach_helper_growEii.clean)
    t._ZN5QListI7QStringE4freeEPN9QListData4DataE 0x0000c9ec   Section       48  declarative_messaging.in(t._ZN5QListI7QStringE4freeEPN9QListData4DataE)
    t._ZN5QListI7QStringE6appendERKS0_       0x0000ca1c   Section      100  declarative_messaging.in(t._ZN5QListI7QStringE6appendERKS0_)
    t._ZN5QListI7QStringE6appendERKS0_.clean 0x0000ca80   Section        8  declarative_messaging.in(t._ZN5QListI7QStringE6appendERKS0_.clean)
    t._ZN5QListI7QStringE9node_copyEPNS1_4NodeES3_S3_ 0x0000ca88   Section       70  declarative_messaging.in(t._ZN5QListI7QStringE9node_copyEPNS1_4NodeES3_S3_)
    t._ZN5QListI7QStringE9node_copyEPNS1_4NodeES3_S3_.clean 0x0000cace   Section       22  declarative_messaging.in(t._ZN5QListI7QStringE9node_copyEPNS1_4NodeES3_S3_.clean)
    t._ZN5QListI7QStringED1Ev                0x0000cae4   Section       30  declarative_messaging.in(t._ZN5QListI7QStringED1Ev)
    t._ZN5QListIN10QtMobility10QMessageIdEE13detach_helperEi 0x0000cb02   Section      154  declarative_messaging.in(t._ZN5QListIN10QtMobility10QMessageIdEE13detach_helperEi)
    t._ZN5QListIN10QtMobility10QMessageIdEE13detach_helperEi.clean 0x0000cb9c   Section       18  declarative_messaging.in(t._ZN5QListIN10QtMobility10QMessageIdEE13detach_helperEi.clean)
    t._ZN5QListIN10QtMobility10QMessageIdEE13detach_helperEv 0x0000cbae   Section       88  declarative_messaging.in(t._ZN5QListIN10QtMobility10QMessageIdEE13detach_helperEv)
    t._ZN5QListIN10QtMobility10QMessageIdEE13detach_helperEv.clean 0x0000cc06   Section        8  declarative_messaging.in(t._ZN5QListIN10QtMobility10QMessageIdEE13detach_helperEv.clean)
    t._ZN5QListIN10QtMobility10QMessageIdEE13node_destructEPNS2_4NodeE 0x0000cc0e   Section       18  declarative_messaging.in(t._ZN5QListIN10QtMobility10QMessageIdEE13node_destructEPNS2_4NodeE)
    t._ZN5QListIN10QtMobility10QMessageIdEE13node_destructEPNS2_4NodeES4_ 0x0000cc20   Section       30  declarative_messaging.in(t._ZN5QListIN10QtMobility10QMessageIdEE13node_destructEPNS2_4NodeES4_)
    t._ZN5QListIN10QtMobility10QMessageIdEE14node_constructEPNS2_4NodeERKS1_ 0x0000cc3e   Section       32  declarative_messaging.in(t._ZN5QListIN10QtMobility10QMessageIdEE14node_constructEPNS2_4NodeERKS1_)
    t._ZN5QListIN10QtMobility10QMessageIdEE14node_constructEPNS2_4NodeERKS1_.clean 0x0000cc5e   Section       10  declarative_messaging.in(t._ZN5QListIN10QtMobility10QMessageIdEE14node_constructEPNS2_4NodeERKS1_.clean)
    t._ZN5QListIN10QtMobility10QMessageIdEE18detach_helper_growEii 0x0000cc68   Section      180  declarative_messaging.in(t._ZN5QListIN10QtMobility10QMessageIdEE18detach_helper_growEii)
    t._ZN5QListIN10QtMobility10QMessageIdEE18detach_helper_growEii.clean 0x0000cd1c   Section        8  declarative_messaging.in(t._ZN5QListIN10QtMobility10QMessageIdEE18detach_helper_growEii.clean)
    t._ZN5QListIN10QtMobility10QMessageIdEE3endEv 0x0000cd24   Section       22  declarative_messaging.in(t._ZN5QListIN10QtMobility10QMessageIdEE3endEv)
    t._ZN5QListIN10QtMobility10QMessageIdEE4freeEPN9QListData4DataE 0x0000cd3a   Section       38  declarative_messaging.in(t._ZN5QListIN10QtMobility10QMessageIdEE4freeEPN9QListData4DataE)
    t._ZN5QListIN10QtMobility10QMessageIdEE6appendERKS1_ 0x0000cd60   Section       96  declarative_messaging.in(t._ZN5QListIN10QtMobility10QMessageIdEE6appendERKS1_)
    t._ZN5QListIN10QtMobility10QMessageIdEE6appendERKS1_.clean 0x0000cdc0   Section        8  declarative_messaging.in(t._ZN5QListIN10QtMobility10QMessageIdEE6appendERKS1_.clean)
    t._ZN5QListIN10QtMobility10QMessageIdEE6detachEv 0x0000cdc8   Section       24  declarative_messaging.in(t._ZN5QListIN10QtMobility10QMessageIdEE6detachEv)
    t._ZN5QListIN10QtMobility10QMessageIdEE9node_copyEPNS2_4NodeES4_S4_ 0x0000cde0   Section       80  declarative_messaging.in(t._ZN5QListIN10QtMobility10QMessageIdEE9node_copyEPNS2_4NodeES4_S4_)
    t._ZN5QListIN10QtMobility10QMessageIdEE9node_copyEPNS2_4NodeES4_S4_.clean 0x0000ce30   Section       18  declarative_messaging.in(t._ZN5QListIN10QtMobility10QMessageIdEE9node_copyEPNS2_4NodeES4_S4_.clean)
    t._ZN5QListIN10QtMobility10QMessageIdEE9removeAllERKS1_ 0x0000ce44   Section      116  declarative_messaging.in(t._ZN5QListIN10QtMobility10QMessageIdEE9removeAllERKS1_)
    t._ZN5QListIN10QtMobility10QMessageIdEE9removeAllERKS1_.clean 0x0000ceb8   Section       10  declarative_messaging.in(t._ZN5QListIN10QtMobility10QMessageIdEE9removeAllERKS1_.clean)
    t._ZN5QListIN10QtMobility10QMessageIdEEC1Ev 0x0000cec4   Section       20  declarative_messaging.in(t._ZN5QListIN10QtMobility10QMessageIdEEC1Ev)
    t._ZN5QListIN10QtMobility10QMessageIdEED1Ev 0x0000ced8   Section       30  declarative_messaging.in(t._ZN5QListIN10QtMobility10QMessageIdEED1Ev)
    t._ZN5QListIN10QtMobility15QMessageAddressEE13detach_helperEi 0x0000cef6   Section      150  declarative_messaging.in(t._ZN5QListIN10QtMobility15QMessageAddressEE13detach_helperEi)
    t._ZN5QListIN10QtMobility15QMessageAddressEE13detach_helperEi.clean 0x0000cf8c   Section       18  declarative_messaging.in(t._ZN5QListIN10QtMobility15QMessageAddressEE13detach_helperEi.clean)
    t._ZN5QListIN10QtMobility15QMessageAddressEE4freeEPN9QListData4DataE 0x0000cf9e   Section       54  declarative_messaging.in(t._ZN5QListIN10QtMobility15QMessageAddressEE4freeEPN9QListData4DataE)
    t._ZN5QListIN10QtMobility15QMessageAddressEED1Ev 0x0000cfd4   Section       30  declarative_messaging.in(t._ZN5QListIN10QtMobility15QMessageAddressEED1Ev)
    t._ZN5QListIP29QDeclarativeMessageFilterBaseE13detach_helperEv 0x0000cff2   Section       88  declarative_messaging.in(t._ZN5QListIP29QDeclarativeMessageFilterBaseE13detach_helperEv)
    t._ZN5QListIP29QDeclarativeMessageFilterBaseE13detach_helperEv.clean 0x0000d04a   Section        8  declarative_messaging.in(t._ZN5QListIP29QDeclarativeMessageFilterBaseE13detach_helperEv.clean)
    t._ZN5QListIP29QDeclarativeMessageFilterBaseE18detach_helper_growEii 0x0000d052   Section      164  declarative_messaging.in(t._ZN5QListIP29QDeclarativeMessageFilterBaseE18detach_helper_growEii)
    t._ZN5QListIP29QDeclarativeMessageFilterBaseE18detach_helper_growEii.clean 0x0000d0f6   Section        8  declarative_messaging.in(t._ZN5QListIP29QDeclarativeMessageFilterBaseE18detach_helper_growEii.clean)
    t._ZN5QListIP29QDeclarativeMessageFilterBaseE4freeEPN9QListData4DataE 0x0000d0fe   Section       16  declarative_messaging.in(t._ZN5QListIP29QDeclarativeMessageFilterBaseE4freeEPN9QListData4DataE)
    t._ZN5QListIP29QDeclarativeMessageFilterBaseE5firstEv 0x0000d10e   Section       32  declarative_messaging.in(t._ZN5QListIP29QDeclarativeMessageFilterBaseE5firstEv)
    t._ZN5QListIP29QDeclarativeMessageFilterBaseE9node_copyEPNS2_4NodeES4_S4_ 0x0000d12e   Section       28  declarative_messaging.in(t._ZN5QListIP29QDeclarativeMessageFilterBaseE9node_copyEPNS2_4NodeES4_S4_)
    t._ZN5QListIP29QDeclarativeMessageFilterBaseEC1Ev 0x0000d14c   Section       20  declarative_messaging.in(t._ZN5QListIP29QDeclarativeMessageFilterBaseEC1Ev)
    t._ZN5QListIP29QDeclarativeMessageFilterBaseED1Ev 0x0000d160   Section       30  declarative_messaging.in(t._ZN5QListIP29QDeclarativeMessageFilterBaseED1Ev)
    t._ZN6QCacheIN10QtMobility10QMessageIdENS0_8QMessageEE5clearEv 0x0000d17e   Section      104  declarative_messaging.in(t._ZN6QCacheIN10QtMobility10QMessageIdENS0_8QMessageEE5clearEv)
    t._ZN6QCacheIN10QtMobility10QMessageIdENS0_8QMessageEE5clearEv.clean 0x0000d1e6   Section       10  declarative_messaging.in(t._ZN6QCacheIN10QtMobility10QMessageIdENS0_8QMessageEE5clearEv.clean)
    t._ZN6QCacheIN10QtMobility10QMessageIdENS0_8QMessageEE6insertERKS1_PS2_i 0x0000d1f0   Section      138  declarative_messaging.in(t._ZN6QCacheIN10QtMobility10QMessageIdENS0_8QMessageEE6insertERKS1_PS2_i)
    t._ZN6QCacheIN10QtMobility10QMessageIdENS0_8QMessageEE6removeERKS1_ 0x0000d27a   Section       50  declarative_messaging.in(t._ZN6QCacheIN10QtMobility10QMessageIdENS0_8QMessageEE6removeERKS1_)
    t._ZN6QCacheIN10QtMobility10QMessageIdENS0_8QMessageEE6unlinkERNS3_4NodeE 0x0000d2ac   Section       72  declarative_messaging.in(t._ZN6QCacheIN10QtMobility10QMessageIdENS0_8QMessageEE6unlinkERNS3_4NodeE)
    t._ZN6QCacheIN10QtMobility10QMessageIdENS0_8QMessageEED1Ev 0x0000d2f4   Section       20  declarative_messaging.in(t._ZN6QCacheIN10QtMobility10QMessageIdENS0_8QMessageEED1Ev)
    t._ZN6QCacheIN10QtMobility10QMessageIdENS0_8QMessageEED1Ev.clean 0x0000d308   Section       10  declarative_messaging.in(t._ZN6QCacheIN10QtMobility10QMessageIdENS0_8QMessageEED1Ev.clean)
    t._ZN8QPointerI7QObjectED1Ev             0x0000d312   Section       12  declarative_messaging.in(t._ZN8QPointerI7QObjectED1Ev)
    t._ZN9QHashNodeIN10QtMobility10QMessageIdEN6QCacheIS1_NS0_8QMessageEE4NodeEEC1ERKS1_RKS5_ 0x0000d31e   Section       34  declarative_messaging.in(t._ZN9QHashNodeIN10QtMobility10QMessageIdEN6QCacheIS1_NS0_8QMessageEE4NodeEEC1ERKS1_RKS5_)
    t._ZN9QHashNodeIi10QByteArrayEC1EiRKS0_  0x0000d340   Section       20  declarative_messaging.in(t._ZN9QHashNodeIi10QByteArrayEC1EiRKS0_)
    t._ZNK5QHashIN10QtMobility10QMessageIdEN6QCacheIS1_NS0_8QMessageEE4NodeEE14const_iteratoreqERKS7_ 0x0000d354   Section       16  declarative_messaging.in(t._ZNK5QHashIN10QtMobility10QMessageIdEN6QCacheIS1_NS0_8QMessageEE4NodeEE14const_iteratoreqERKS7_)
    t._ZNK5QHashIN10QtMobility10QMessageIdEN6QCacheIS1_NS0_8QMessageEE4NodeEE8findNodeERKS1_Pj 0x0000d364   Section       90  declarative_messaging.in(t._ZNK5QHashIN10QtMobility10QMessageIdEN6QCacheIS1_NS0_8QMessageEE4NodeEE8findNodeERKS1_Pj)
    t._ZNK5QHashIi10QByteArrayE8findNodeERKiPj 0x0000d3be   Section       50  declarative_messaging.in(t._ZNK5QHashIi10QByteArrayE8findNodeERKiPj)
    t._ZNK5QListIN10QtMobility10QMessageIdEE2atEi 0x0000d3f0   Section       10  declarative_messaging.in(t._ZNK5QListIN10QtMobility10QMessageIdEE2atEi)
    t._ZNK5QListIN10QtMobility10QMessageIdEE5countEv 0x0000d3fa   Section       10  declarative_messaging.in(t._ZNK5QListIN10QtMobility10QMessageIdEE5countEv)
    t._ZNK5QListIP29QDeclarativeMessageFilterBaseE2atEi 0x0000d404   Section       16  declarative_messaging.in(t._ZNK5QListIP29QDeclarativeMessageFilterBaseE2atEi)
    t._ZNK5QListIP29QDeclarativeMessageFilterBaseE5countEv 0x0000d414   Section       10  declarative_messaging.in(t._ZNK5QListIP29QDeclarativeMessageFilterBaseE5countEv)
    t._ZNK6QCacheIN10QtMobility10QMessageIdENS0_8QMessageEE6objectERKS1_ 0x0000d41e   Section       92  declarative_messaging.in(t._ZNK6QCacheIN10QtMobility10QMessageIdENS0_8QMessageEE6objectERKS1_)
    t._ZNK6QCacheIN10QtMobility10QMessageIdENS0_8QMessageEE8containsERKS1_ 0x0000d47a   Section       30  declarative_messaging.in(t._ZNK6QCacheIN10QtMobility10QMessageIdENS0_8QMessageEE8containsERKS1_)
    .extab._ZN25QDeclarativeMessageFilter11qt_metacallEN11QMetaObject4CallEiPPv 0x0000d498   Data           0  declarative_messaging.in(.ARM.extab)
    .extab._ZN37QDeclarativeMessageIntersectionFilterD1Ev 0x0000d4a8   Data           0  declarative_messaging.in(.ARM.extab)
    .extab._ZN30QDeclarativeMessageUnionFilterD1Ev 0x0000d4b8   Data           0  declarative_messaging.in(.ARM.extab)
    .extab._ZN24QDeclarativeMessageModel11qt_metacallEN11QMetaObject4CallEiPPv 0x0000d4c8   Data           0  declarative_messaging.in(.ARM.extab)
    .extab._ZN37QDeclarativeMessageIntersectionFilterC1EP7QObject 0x0000d4d8   Data           0  declarative_messaging.in(.ARM.extab)
    .extab._ZN37QDeclarativeMessageIntersectionFilter6filterEv 0x0000d4e8   Data           0  declarative_messaging.in(.ARM.extab)
    .extab._ZN30QDeclarativeMessageUnionFilterC1EP7QObject 0x0000d508   Data           0  declarative_messaging.in(.ARM.extab)
    .extab._ZN30QDeclarativeMessageUnionFilter6filterEv 0x0000d518   Data           0  declarative_messaging.in(.ARM.extab)
    .extab._ZN25QDeclarativeMessageFilter6filterEv 0x0000d538   Data           0  declarative_messaging.in(.ARM.extab)
    .extab._ZN5QListIP29QDeclarativeMessageFilterBaseE13detach_helperEv 0x0000d878   Data           0  declarative_messaging.in(.ARM.extab)
    .extab._ZN5QListIP29QDeclarativeMessageFilterBaseE18detach_helper_growEii 0x0000d894   Data           0  declarative_messaging.in(.ARM.extab)
    .extab._ZN16QDeclarativeInfolsEPKc       0x0000d8c4   Data           0  declarative_messaging.in(.ARM.extab)
    .extab._ZN24QDeclarativeListPropertyI29QDeclarativeMessageFilterBaseE11qlist_clearEPS1_ 0x0000d8d4   Data           0  declarative_messaging.in(.ARM.extab)
    .extab._ZN24QDeclarativeListPropertyI29QDeclarativeMessageFilterBaseE12qlist_appendEPS1_PS0_ 0x0000d8e4   Data           0  declarative_messaging.in(.ARM.extab)
    .extab._ZN18MessageModelWorkerC1Ev       0x0000d900   Data           0  declarative_messaging.in(.ARM.extab)
    .extab._ZN24QDeclarativeMessageModelC1EP7QObject 0x0000d948   Data           0  declarative_messaging.in(.ARM.extab)
    .extab._ZN24QDeclarativeMessageModelD1Ev 0x0000d978   Data           0  declarative_messaging.in(.ARM.extab)
    .extab._ZNK24QDeclarativeMessageModel4dataERK11QModelIndexi 0x0000d9a8   Data           0  declarative_messaging.in(.ARM.extab)
    .extab._ZN31QDeclarativeMessageModelPrivate12updateFilterEv 0x0000dbc8   Data           0  declarative_messaging.in(.ARM.extab)
    .extab._ZN24QDeclarativeMessageModel13messagesFoundERK5QListIN10QtMobility10QMessageIdEE 0x0000dcb8   Data           0  declarative_messaging.in(.ARM.extab)
    .extab._ZN24QDeclarativeMessageModel14messageUpdatedERKN10QtMobility10QMessageIdE 0x0000dcc8   Data           0  declarative_messaging.in(.ARM.extab)
    .extab._ZN24QDeclarativeMessageModel14messageRemovedERKN10QtMobility10QMessageIdE 0x0000dce0   Data           0  declarative_messaging.in(.ARM.extab)
    .extab._ZN18MessageModelWorker7getBodyERKN10QtMobility10QMessageIdE 0x0000dcf0   Data           0  declarative_messaging.in(.ARM.extab)
    .extab._ZN18MessageModelWorker4initEv    0x0000dd20   Data           0  declarative_messaging.in(.ARM.extab)
    .extab._ZN18MessageModelWorker12getRequestedEv 0x0000dd38   Data           0  declarative_messaging.in(.ARM.extab)
    .extab._ZN18MessageModelWorker11qt_metacallEN11QMetaObject4CallEiPPv 0x0000dd90   Data           0  declarative_messaging.in(.ARM.extab)
    .extab._ZN5QListIN10QtMobility15QMessageAddressEE13detach_helperEi 0x0000ddc8   Data           0  declarative_messaging.in(.ARM.extab)
    .extab._ZN5QListI7QStringE9node_copyEPNS1_4NodeES3_S3_ 0x0000de0c   Data           0  declarative_messaging.in(.ARM.extab)
    .extab._ZN5QListI7QStringE18detach_helper_growEii 0x0000de30   Data           0  declarative_messaging.in(.ARM.extab)
    .extab._ZN5QHashIi10QByteArrayEixERKi    0x0000de60   Data           0  declarative_messaging.in(.ARM.extab)
    .extab._ZN31QDeclarativeMessageModelPrivateC1EP24QDeclarativeMessageModel 0x0000de78   Data           0  declarative_messaging.in(.ARM.extab)
    .extab._ZN5QListIN10QtMobility10QMessageIdEE14node_constructEPNS2_4NodeERKS1_ 0x0000dea0   Data           0  declarative_messaging.in(.ARM.extab)
    .extab._ZN5QListIN10QtMobility10QMessageIdEE9node_copyEPNS2_4NodeES4_S4_ 0x0000deb0   Data           0  declarative_messaging.in(.ARM.extab)
    .extab._ZN5QListIN10QtMobility10QMessageIdEE18detach_helper_growEii 0x0000ded4   Data           0  declarative_messaging.in(.ARM.extab)
    .extab._ZN5QListIN10QtMobility10QMessageIdEE6appendERKS1_ 0x0000df04   Data           0  declarative_messaging.in(.ARM.extab)
    .extab._ZN5QListIN10QtMobility10QMessageIdEE13detach_helperEv 0x0000df34   Data           0  declarative_messaging.in(.ARM.extab)
    .extab._ZN18MessageModelWorker10getMessageERKN10QtMobility10QMessageIdE 0x0000df50   Data           0  declarative_messaging.in(.ARM.extab)
    .extab._ZN5QHashIN10QtMobility10QMessageIdEN6QCacheIS1_NS0_8QMessageEE4NodeEE6removeERKS1_ 0x0000df68   Data           0  declarative_messaging.in(.ARM.extab)
    .extab._ZN18MessageModelWorker12cacheMessageERKN10QtMobility10QMessageIdE 0x0000df7c   Data           0  declarative_messaging.in(.ARM.extab)
    .extab._ZN18MessageModelWorker15removeFromCacheERKN10QtMobility10QMessageIdE 0x0000df9c   Data           0  declarative_messaging.in(.ARM.extab)
    .extab._ZN18MessageModelWorkerD1Ev       0x0000dfac   Data           0  declarative_messaging.in(.ARM.extab)
    .extab._ZN5QListI7QStringE6appendERKS0_  0x0000dff4   Data           0  declarative_messaging.in(.ARM.extab)
    .extab._ZN5QHashIi10QByteArrayE13duplicateNodeEPN9QHashData4NodeEPv 0x0000e024   Data           0  declarative_messaging.in(.ARM.extab)
    .extab._ZN5QHashIN10QtMobility10QMessageIdEN6QCacheIS1_NS0_8QMessageEE4NodeEE13duplicateNodeEPN9QHashData4NodeEPv 0x0000e034   Data           0  declarative_messaging.in(.ARM.extab)
    .extab._ZN6QCacheIN10QtMobility10QMessageIdENS0_8QMessageEED1Ev 0x0000e044   Data           0  declarative_messaging.in(.ARM.extab)
    .extab._ZN18MessageModelWorker11requestBodyERKN10QtMobility10QMessageIdE 0x0000e054   Data           0  declarative_messaging.in(.ARM.extab)
    .extab._ZN5QListIN10QtMobility10QMessageIdEE9removeAllERKS1_ 0x0000e064   Data           0  declarative_messaging.in(.ARM.extab)
    .extab._ZN5QListI7QStringE14node_constructEPNS1_4NodeERKS0_ 0x0000e074   Data           0  declarative_messaging.in(.ARM.extab)
    .extab._ZN6QCacheIN10QtMobility10QMessageIdENS0_8QMessageEE5clearEv 0x0000e084   Data           0  declarative_messaging.in(.ARM.extab)
    .extab._ZN5QHashIN10QtMobility10QMessageIdEN6QCacheIS1_NS0_8QMessageEE4NodeEE6insertERKS1_RKS5_ 0x0000e094   Data           0  declarative_messaging.in(.ARM.extab)
    .extab.qt_plugin_instance                0x0000e0a4   Data           0  declarative_messaging.in(.ARM.extab)
    .extab._ZplRK10QByteArrayPKc             0x0000e0bc   Data           0  declarative_messaging.in(.ARM.extab)
    .extab._ZplRK10QByteArrayc               0x0000e0cc   Data           0  declarative_messaging.in(.ARM.extab)
    .extab._ZplPKcRK10QByteArray             0x0000e0dc   Data           0  declarative_messaging.in(.ARM.extab)
    .extab._Z24qMetaTypeConstructHelperIN10QtMobility10QMessageIdEEPvPKT_ 0x0000e0ec   Data           0  declarative_messaging.in(.ARM.extab)
    .extab._Z15qmlRegisterTypeI24QDeclarativeMessageModelEiPKciiS2_ 0x0000e104   Data           0  declarative_messaging.in(.ARM.extab)
    .extab._Z15qmlRegisterTypeI37QDeclarativeMessageIntersectionFilterEiPKciiS2_ 0x0000e174   Data           0  declarative_messaging.in(.ARM.extab)
    .extab._Z15qmlRegisterTypeI30QDeclarativeMessageUnionFilterEiPKciiS2_ 0x0000e1e4   Data           0  declarative_messaging.in(.ARM.extab)
    .extab._Z15qmlRegisterTypeI25QDeclarativeMessageFilterEiPKciiS2_ 0x0000e254   Data           0  declarative_messaging.in(.ARM.extab)
    .extab._Z26qmlRegisterUncreatableTypeI29QDeclarativeMessageFilterBaseEiPKciiS2_RK7QString 0x0000e2c4   Data           0  declarative_messaging.in(.ARM.extab)
    .extab._ZN5QListIN10QtMobility10QMessageIdEE13detach_helperEi 0x0000e334   Data           0  declarative_messaging.in(.ARM.extab)
    .extab._Z24qMetaTypeConstructHelperI5QListIN10QtMobility10QMessageIdEEEPvPKT_ 0x0000e378   Data           0  declarative_messaging.in(.ARM.extab)
    .extab._ZN30QDeclarativeMessageModelPlugin13registerTypesEPKc 0x0000e390   Data           0  declarative_messaging.in(.ARM.extab)
    .extab._ZN19QDeclarativePrivate19QDeclarativeElementI24QDeclarativeMessageModelED1Ev 0x0000e3a0   Data           0  declarative_messaging.in(.ARM.extab)
    .extab._ZN19QDeclarativePrivate10createIntoI24QDeclarativeMessageModelEEvPv 0x0000e3b0   Data           0  declarative_messaging.in(.ARM.extab)
    .extab._ZN19QDeclarativePrivate10createIntoI37QDeclarativeMessageIntersectionFilterEEvPv 0x0000e3c0   Data           0  declarative_messaging.in(.ARM.extab)
    .extab._ZN19QDeclarativePrivate10createIntoI30QDeclarativeMessageUnionFilterEEvPv 0x0000e3d0   Data           0  declarative_messaging.in(.ARM.extab)
    .extab._ZN19QDeclarativePrivate10createIntoI25QDeclarativeMessageFilterEEvPv 0x0000e3e0   Data           0  declarative_messaging.in(.ARM.extab)
    .extab._ZN19QDeclarativePrivate19QDeclarativeElementI37QDeclarativeMessageIntersectionFilterED1Ev 0x0000e3f0   Data           0  declarative_messaging.in(.ARM.extab)
    .extab._ZN19QDeclarativePrivate19QDeclarativeElementI30QDeclarativeMessageUnionFilterED1Ev 0x0000e400   Data           0  declarative_messaging.in(.ARM.extab)
    .extab._ZN19QDeclarativePrivate19QDeclarativeElementI25QDeclarativeMessageFilterED1Ev 0x0000e410   Data           0  declarative_messaging.in(.ARM.extab)
    .constdata$1                             0x0000e420   Data           0  declarative_messaging.in(.constdata)
    qt_meta_stringdata_QDeclarativeMessageFilterBase 0x0000e420   Data          62  declarative_messaging.in(.constdata)
    .constdata                               0x0000e420   Section      812  declarative_messaging.in(.constdata)
    qt_meta_stringdata_QDeclarativeMessageIntersectionFilter 0x0000e45e   Data         119  declarative_messaging.in(.constdata)
    qt_meta_stringdata_QDeclarativeMessageUnionFilter 0x0000e4d5   Data         112  declarative_messaging.in(.constdata)
    qt_meta_stringdata_QDeclarativeMessageFilter 0x0000e545   Data         453  declarative_messaging.in(.constdata)
    .constdata$19                            0x0000e74c   Data           0  declarative_messaging.in(.constdata)
    qt_meta_data_QDeclarativeMessageFilterBase 0x0000e74c   Data          96  declarative_messaging.in(.constdata)
    .constdata                               0x0000e74c   Section       96  declarative_messaging.in(.constdata)
    .constdata$25                            0x0000e7ac   Data           0  declarative_messaging.in(.constdata)
    qt_meta_data_QDeclarativeMessageIntersectionFilter 0x0000e7ac   Data          80  declarative_messaging.in(.constdata)
    .constdata                               0x0000e7ac   Section       80  declarative_messaging.in(.constdata)
    .constdata$31                            0x0000e7fc   Data           0  declarative_messaging.in(.constdata)
    qt_meta_data_QDeclarativeMessageUnionFilter 0x0000e7fc   Data          80  declarative_messaging.in(.constdata)
    .constdata                               0x0000e7fc   Section       80  declarative_messaging.in(.constdata)
    .constdata$37                            0x0000e84c   Data           0  declarative_messaging.in(.constdata)
    qt_meta_data_QDeclarativeMessageFilter   0x0000e84c   Data         504  declarative_messaging.in(.constdata)
    .constdata                               0x0000e84c   Section      504  declarative_messaging.in(.constdata)
    .constdata$1                             0x0000ea44   Data           0  declarative_messaging.in(.constdata)
    qt_meta_stringdata_QDeclarativeMessageModel 0x0000ea44   Data         534  declarative_messaging.in(.constdata)
    .constdata                               0x0000ea44   Section      552  declarative_messaging.in(.constdata)
    .constdata$10                            0x0000ec6c   Data           0  declarative_messaging.in(.constdata)
    qt_meta_data_QDeclarativeMessageModel    0x0000ec6c   Data         528  declarative_messaging.in(.constdata)
    .constdata                               0x0000ec6c   Section      528  declarative_messaging.in(.constdata)
    .constdata$1                             0x0000ee7c   Data           0  declarative_messaging.in(.constdata)
    .constdata                               0x0000ee7c   Section      212  declarative_messaging.in(.constdata)
    .constdata$1                             0x0000ef50   Data           0  declarative_messaging.in(.constdata)
    qt_meta_stringdata_MessageModelWorker    0x0000ef50   Data         567  declarative_messaging.in(.constdata)
    .constdata                               0x0000ef50   Section     1080  declarative_messaging.in(.constdata)
    .constdata$10                            0x0000f388   Data           0  declarative_messaging.in(.constdata)
    qt_meta_data_MessageModelWorker          0x0000f388   Data         360  declarative_messaging.in(.constdata)
    .constdata                               0x0000f388   Section      360  declarative_messaging.in(.constdata)
    .constdata$1                             0x0000f4f0   Data           0  declarative_messaging.in(.constdata)
    qt_plugin_verification_data              0x0000f4f0   Data          91  declarative_messaging.in(.constdata)
    .constdata                               0x0000f4f0   Section      140  declarative_messaging.in(.constdata)
    qt_meta_stringdata_QDeclarativeMessageModelPlugin 0x0000f54b   Data          32  declarative_messaging.in(.constdata)
    .constdata$10                            0x0000f57c   Data           0  declarative_messaging.in(.constdata)
    qt_meta_data_QDeclarativeMessageModelPlugin 0x0000f57c   Data          60  declarative_messaging.in(.constdata)
    .constdata                               0x0000f57c   Section       60  declarative_messaging.in(.constdata)
    .constdata__ZTI18MessageModelWorker      0x0000f5b8   Section       12  declarative_messaging.in(.constdata__ZTI18MessageModelWorker)
    .constdata__ZTI24QDeclarativeMessageModel 0x0000f5c4   Section       32  declarative_messaging.in(.constdata__ZTI24QDeclarativeMessageModel)
    .constdata__ZTI25QDeclarativeMessageFilter 0x0000f5e4   Section       12  declarative_messaging.in(.constdata__ZTI25QDeclarativeMessageFilter)
    .constdata__ZTI29QDeclarativeMessageFilterBase 0x0000f5f0   Section       12  declarative_messaging.in(.constdata__ZTI29QDeclarativeMessageFilterBase)
    .constdata__ZTI30QDeclarativeMessageModelPlugin 0x0000f5fc   Section       12  declarative_messaging.in(.constdata__ZTI30QDeclarativeMessageModelPlugin)
    .constdata__ZTI30QDeclarativeMessageUnionFilter 0x0000f608   Section       12  declarative_messaging.in(.constdata__ZTI30QDeclarativeMessageUnionFilter)
    .constdata__ZTI37QDeclarativeMessageIntersectionFilter 0x0000f614   Section       12  declarative_messaging.in(.constdata__ZTI37QDeclarativeMessageIntersectionFilter)
    .constdata__ZTIN19QDeclarativePrivate19QDeclarativeElementI24QDeclarativeMessageModelEE 0x0000f620   Section       12  declarative_messaging.in(.constdata__ZTIN19QDeclarativePrivate19QDeclarativeElementI24QDeclarativeMessageModelEE)
    .constdata__ZTIN19QDeclarativePrivate19QDeclarativeElementI25QDeclarativeMessageFilterEE 0x0000f62c   Section       12  declarative_messaging.in(.constdata__ZTIN19QDeclarativePrivate19QDeclarativeElementI25QDeclarativeMessageFilterEE)
    .constdata__ZTIN19QDeclarativePrivate19QDeclarativeElementI30QDeclarativeMessageUnionFilterEE 0x0000f638   Section       12  declarative_messaging.in(.constdata__ZTIN19QDeclarativePrivate19QDeclarativeElementI30QDeclarativeMessageUnionFilterEE)
    .constdata__ZTIN19QDeclarativePrivate19QDeclarativeElementI37QDeclarativeMessageIntersectionFilterEE 0x0000f644   Section       12  declarative_messaging.in(.constdata__ZTIN19QDeclarativePrivate19QDeclarativeElementI37QDeclarativeMessageIntersectionFilterEE)
    .constdata__ZTISt9bad_alloc              0x0000f650   Section       12  declarative_messaging.in(.constdata__ZTISt9bad_alloc)
    .constdata__ZTS18MessageModelWorker      0x0000f65c   Section       21  declarative_messaging.in(.constdata__ZTS18MessageModelWorker)
    .constdata__ZTS24QDeclarativeMessageModel 0x0000f671   Section       27  declarative_messaging.in(.constdata__ZTS24QDeclarativeMessageModel)
    .constdata__ZTS25QDeclarativeMessageFilter 0x0000f68c   Section       28  declarative_messaging.in(.constdata__ZTS25QDeclarativeMessageFilter)
    .constdata__ZTS29QDeclarativeMessageFilterBase 0x0000f6a8   Section       32  declarative_messaging.in(.constdata__ZTS29QDeclarativeMessageFilterBase)
    .constdata__ZTS30QDeclarativeMessageModelPlugin 0x0000f6c8   Section       33  declarative_messaging.in(.constdata__ZTS30QDeclarativeMessageModelPlugin)
    .constdata__ZTS30QDeclarativeMessageUnionFilter 0x0000f6e9   Section       33  declarative_messaging.in(.constdata__ZTS30QDeclarativeMessageUnionFilter)
    .constdata__ZTS37QDeclarativeMessageIntersectionFilter 0x0000f70a   Section       40  declarative_messaging.in(.constdata__ZTS37QDeclarativeMessageIntersectionFilter)
    .constdata__ZTSN19QDeclarativePrivate19QDeclarativeElementI24QDeclarativeMessageModelEE 0x0000f732   Section       73  declarative_messaging.in(.constdata__ZTSN19QDeclarativePrivate19QDeclarativeElementI24QDeclarativeMessageModelEE)
    .constdata__ZTSN19QDeclarativePrivate19QDeclarativeElementI25QDeclarativeMessageFilterEE 0x0000f77b   Section       74  declarative_messaging.in(.constdata__ZTSN19QDeclarativePrivate19QDeclarativeElementI25QDeclarativeMessageFilterEE)
    .constdata__ZTSN19QDeclarativePrivate19QDeclarativeElementI30QDeclarativeMessageUnionFilterEE 0x0000f7c5   Section       79  declarative_messaging.in(.constdata__ZTSN19QDeclarativePrivate19QDeclarativeElementI30QDeclarativeMessageUnionFilterEE)
    .constdata__ZTSN19QDeclarativePrivate19QDeclarativeElementI37QDeclarativeMessageIntersectionFilterEE 0x0000f814   Section       86  declarative_messaging.in(.constdata__ZTSN19QDeclarativePrivate19QDeclarativeElementI37QDeclarativeMessageIntersectionFilterEE)
    .constdata__ZTSSt9bad_alloc              0x0000f86a   Section       13  declarative_messaging.in(.constdata__ZTSSt9bad_alloc)
    .constdata__ZTV18MessageModelWorker      0x0000f878   Section       56  declarative_messaging.in(.constdata__ZTV18MessageModelWorker)
    .constdata__ZTV24QDeclarativeMessageModel 0x0000f8b0   Section      200  declarative_messaging.in(.constdata__ZTV24QDeclarativeMessageModel)
    .constdata__ZTV25QDeclarativeMessageFilter 0x0000f978   Section       60  declarative_messaging.in(.constdata__ZTV25QDeclarativeMessageFilter)
    .constdata__ZTV29QDeclarativeMessageFilterBase 0x0000f9b4   Section       60  declarative_messaging.in(.constdata__ZTV29QDeclarativeMessageFilterBase)
    .constdata__ZTV30QDeclarativeMessageModelPlugin 0x0000f9f0   Section       88  declarative_messaging.in(.constdata__ZTV30QDeclarativeMessageModelPlugin)
    .constdata__ZTV30QDeclarativeMessageUnionFilter 0x0000fa48   Section       60  declarative_messaging.in(.constdata__ZTV30QDeclarativeMessageUnionFilter)
    .constdata__ZTV37QDeclarativeMessageIntersectionFilter 0x0000fa84   Section       60  declarative_messaging.in(.constdata__ZTV37QDeclarativeMessageIntersectionFilter)
    .constdata__ZTVN19QDeclarativePrivate19QDeclarativeElementI24QDeclarativeMessageModelEE 0x0000fac0   Section      200  declarative_messaging.in(.constdata__ZTVN19QDeclarativePrivate19QDeclarativeElementI24QDeclarativeMessageModelEE)
    .constdata__ZTVN19QDeclarativePrivate19QDeclarativeElementI25QDeclarativeMessageFilterEE 0x0000fb88   Section       60  declarative_messaging.in(.constdata__ZTVN19QDeclarativePrivate19QDeclarativeElementI25QDeclarativeMessageFilterEE)
    .constdata__ZTVN19QDeclarativePrivate19QDeclarativeElementI30QDeclarativeMessageUnionFilterEE 0x0000fbc4   Section       60  declarative_messaging.in(.constdata__ZTVN19QDeclarativePrivate19QDeclarativeElementI30QDeclarativeMessageUnionFilterEE)
    .constdata__ZTVN19QDeclarativePrivate19QDeclarativeElementI37QDeclarativeMessageIntersectionFilterEE 0x0000fc00   Section       60  declarative_messaging.in(.constdata__ZTVN19QDeclarativePrivate19QDeclarativeElementI37QDeclarativeMessageIntersectionFilterEE)
    __ARM_d__Z15qmlRegisterTypeI24QDeclarativeMessageModelEiPKciiS2_$33 0x0000fc3c   Data           0  declarative_messaging.in(__ARM_d__Z15qmlRegisterTypeI24QDeclarativeMessageModelEiPKciiS2_)
    __ARM_d__Z15qmlRegisterTypeI24QDeclarativeMessageModelEiPKciiS2_ 0x0000fc3c   Section       76  declarative_messaging.in(__ARM_d__Z15qmlRegisterTypeI24QDeclarativeMessageModelEiPKciiS2_)
    __ARM_d__Z15qmlRegisterTypeI25QDeclarativeMessageFilterEiPKciiS2_$42 0x0000fc88   Data           0  declarative_messaging.in(__ARM_d__Z15qmlRegisterTypeI25QDeclarativeMessageFilterEiPKciiS2_)
    __ARM_d__Z15qmlRegisterTypeI25QDeclarativeMessageFilterEiPKciiS2_ 0x0000fc88   Section       76  declarative_messaging.in(__ARM_d__Z15qmlRegisterTypeI25QDeclarativeMessageFilterEiPKciiS2_)
    __ARM_d__Z15qmlRegisterTypeI30QDeclarativeMessageUnionFilterEiPKciiS2_$39 0x0000fcd4   Data           0  declarative_messaging.in(__ARM_d__Z15qmlRegisterTypeI30QDeclarativeMessageUnionFilterEiPKciiS2_)
    __ARM_d__Z15qmlRegisterTypeI30QDeclarativeMessageUnionFilterEiPKciiS2_ 0x0000fcd4   Section       76  declarative_messaging.in(__ARM_d__Z15qmlRegisterTypeI30QDeclarativeMessageUnionFilterEiPKciiS2_)
    __ARM_d__Z15qmlRegisterTypeI37QDeclarativeMessageIntersectionFilterEiPKciiS2_$36 0x0000fd20   Data           0  declarative_messaging.in(__ARM_d__Z15qmlRegisterTypeI37QDeclarativeMessageIntersectionFilterEiPKciiS2_)
    __ARM_d__Z15qmlRegisterTypeI37QDeclarativeMessageIntersectionFilterEiPKciiS2_ 0x0000fd20   Section       76  declarative_messaging.in(__ARM_d__Z15qmlRegisterTypeI37QDeclarativeMessageIntersectionFilterEiPKciiS2_)
    __ARM_d__Z26qmlRegisterUncreatableTypeI29QDeclarativeMessageFilterBaseEiPKciiS2_RK7QString$45 0x0000fd6c   Data           0  declarative_messaging.in(__ARM_d__Z26qmlRegisterUncreatableTypeI29QDeclarativeMessageFilterBaseEiPKciiS2_RK7QString)
    __ARM_d__Z26qmlRegisterUncreatableTypeI29QDeclarativeMessageFilterBaseEiPKciiS2_RK7QString 0x0000fd6c   Section       76  declarative_messaging.in(__ARM_d__Z26qmlRegisterUncreatableTypeI29QDeclarativeMessageFilterBaseEiPKciiS2_RK7QString)
    .ARM.exidx                               0x0000fdb8   Section        8  ucppinit_aeabi.o(.ARM.exidx)
    .data$0                                  0x00400000   Data           0  declarative_messaging.in(.data)
    _ZGV_instance@qt_plugin_instance_0       0x00400000   Data           4  declarative_messaging.in(.data)
    .data                                    0x00400000   Section        8  declarative_messaging.in(.data)
    _instance@qt_plugin_instance_1           0x00400004   Data           4  declarative_messaging.in(.data)
    .data$0                                  0x00400008   Data           0  ucppfini.o(.data)
    .data                                    0x00400008   Section        4  ucppfini.o(.data)
    .data__ZZN11QMetaTypeIdI24QDeclarativeListPropertyI24QDeclarativeMessageModelEE14qt_metatype_idEvE11metatype_id 0x0040000c   Section        4  declarative_messaging.in(.data__ZZN11QMetaTypeIdI24QDeclarativeListPropertyI24QDeclarativeMessageModelEE14qt_metatype_idEvE11metatype_id)
    .data__ZZN11QMetaTypeIdI24QDeclarativeListPropertyI25QDeclarativeMessageFilterEE14qt_metatype_idEvE11metatype_id 0x00400010   Section        4  declarative_messaging.in(.data__ZZN11QMetaTypeIdI24QDeclarativeListPropertyI25QDeclarativeMessageFilterEE14qt_metatype_idEvE11metatype_id)
    .data__ZZN11QMetaTypeIdI24QDeclarativeListPropertyI29QDeclarativeMessageFilterBaseEE14qt_metatype_idEvE11metatype_id 0x00400014   Section        4  declarative_messaging.in(.data__ZZN11QMetaTypeIdI24QDeclarativeListPropertyI29QDeclarativeMessageFilterBaseEE14qt_metatype_idEvE11metatype_id)
    .data__ZZN11QMetaTypeIdI24QDeclarativeListPropertyI30QDeclarativeMessageUnionFilterEE14qt_metatype_idEvE11metatype_id 0x00400018   Section        4  declarative_messaging.in(.data__ZZN11QMetaTypeIdI24QDeclarativeListPropertyI30QDeclarativeMessageUnionFilterEE14qt_metatype_idEvE11metatype_id)
    .data__ZZN11QMetaTypeIdI24QDeclarativeListPropertyI37QDeclarativeMessageIntersectionFilterEE14qt_metatype_idEvE11metatype_id 0x0040001c   Section        4  declarative_messaging.in(.data__ZZN11QMetaTypeIdI24QDeclarativeListPropertyI37QDeclarativeMessageIntersectionFilterEE14qt_metatype_idEvE11metatype_id)
    .data__ZZN11QMetaTypeIdIN10QtMobility10QMessageIdEE14qt_metatype_idEvE11metatype_id 0x00400020   Section        4  declarative_messaging.in(.data__ZZN11QMetaTypeIdIN10QtMobility10QMessageIdEE14qt_metatype_idEvE11metatype_id)
    .data__ZZN11QMetaTypeIdIP24QDeclarativeMessageModelE14qt_metatype_idEvE11metatype_id 0x00400024   Section        4  declarative_messaging.in(.data__ZZN11QMetaTypeIdIP24QDeclarativeMessageModelE14qt_metatype_idEvE11metatype_id)
    .data__ZZN11QMetaTypeIdIP25QDeclarativeMessageFilterE14qt_metatype_idEvE11metatype_id 0x00400028   Section        4  declarative_messaging.in(.data__ZZN11QMetaTypeIdIP25QDeclarativeMessageFilterE14qt_metatype_idEvE11metatype_id)
    .data__ZZN11QMetaTypeIdIP29QDeclarativeMessageFilterBaseE14qt_metatype_idEvE11metatype_id 0x0040002c   Section        4  declarative_messaging.in(.data__ZZN11QMetaTypeIdIP29QDeclarativeMessageFilterBaseE14qt_metatype_idEvE11metatype_id)
    .data__ZZN11QMetaTypeIdIP30QDeclarativeMessageUnionFilterE14qt_metatype_idEvE11metatype_id 0x00400030   Section        4  declarative_messaging.in(.data__ZZN11QMetaTypeIdIP30QDeclarativeMessageUnionFilterE14qt_metatype_idEvE11metatype_id)
    .data__ZZN11QMetaTypeIdIP37QDeclarativeMessageIntersectionFilterE14qt_metatype_idEvE11metatype_id 0x00400034   Section        4  declarative_messaging.in(.data__ZZN11QMetaTypeIdIP37QDeclarativeMessageIntersectionFilterE14qt_metatype_idEvE11metatype_id)
    .bss$5                                   0x00400038   Data           0  ucppfini.o(.bss)
    dtor_rec                                 0x00400038   Data        2048  ucppfini.o(.bss)
    .bss                                     0x00400038   Section     2048  ucppfini.o(.bss)

    Global Symbols

    Symbol Name                              Value     Ov Type        Size  Object(Section)

    BuildAttributes$$THUMB_ISAv2$ARM_ISAv5$M$PE$A:L22$X:L11$S22$IEEE1$IW$USESV6$~STKCKD$USESV7$~SHL$OSPACE$IEEEJ$EBA8$UX$REQ8$PRES8$EABIv2 0x00000000   Number         0  anon$$obj.o ABSOLUTE
    #<DLL>QtCore{00040703}[2001b2dc].dll#<\DLL>112  - Undefined Reference
    #<DLL>QtCore{00040703}[2001b2dc].dll#<\DLL>113  - Undefined Reference
    #<DLL>QtCore{00040703}[2001b2dc].dll#<\DLL>114  - Undefined Reference
    #<DLL>QtCore{00040703}[2001b2dc].dll#<\DLL>11a  - Undefined Reference
    #<DLL>QtCore{00040703}[2001b2dc].dll#<\DLL>14b  - Undefined Reference
    #<DLL>QtCore{00040703}[2001b2dc].dll#<\DLL>14c  - Undefined Reference
    #<DLL>QtCore{00040703}[2001b2dc].dll#<\DLL>14f  - Undefined Reference
    #<DLL>QtCore{00040703}[2001b2dc].dll#<\DLL>3dc  - Undefined Reference
    #<DLL>QtCore{00040703}[2001b2dc].dll#<\DLL>3de  - Undefined Reference
    #<DLL>QtCore{00040703}[2001b2dc].dll#<\DLL>3df  - Undefined Reference
    #<DLL>QtCore{00040703}[2001b2dc].dll#<\DLL>3e4  - Undefined Reference
    #<DLL>QtCore{00040703}[2001b2dc].dll#<\DLL>3e8  - Undefined Reference
    #<DLL>QtCore{00040703}[2001b2dc].dll#<\DLL>3eb  - Undefined Reference
    #<DLL>QtCore{00040703}[2001b2dc].dll#<\DLL>3ec  - Undefined Reference
    #<DLL>QtCore{00040703}[2001b2dc].dll#<\DLL>3ed  - Undefined Reference
    #<DLL>QtCore{00040703}[2001b2dc].dll#<\DLL>3ef  - Undefined Reference
    #<DLL>QtCore{00040703}[2001b2dc].dll#<\DLL>3f0  - Undefined Reference
    #<DLL>QtCore{00040703}[2001b2dc].dll#<\DLL>3f4  - Undefined Reference
    #<DLL>QtCore{00040703}[2001b2dc].dll#<\DLL>3f5  - Undefined Reference
    #<DLL>QtCore{00040703}[2001b2dc].dll#<\DLL>40a  - Undefined Reference
    #<DLL>QtCore{00040703}[2001b2dc].dll#<\DLL>40c  - Undefined Reference
    #<DLL>QtCore{00040703}[2001b2dc].dll#<\DLL>40d  - Undefined Reference
    #<DLL>QtCore{00040703}[2001b2dc].dll#<\DLL>40e  - Undefined Reference
    #<DLL>QtCore{00040703}[2001b2dc].dll#<\DLL>40f  - Undefined Reference
    #<DLL>QtCore{00040703}[2001b2dc].dll#<\DLL>416  - Undefined Reference
    #<DLL>QtCore{00040703}[2001b2dc].dll#<\DLL>417  - Undefined Reference
    #<DLL>QtCore{00040703}[2001b2dc].dll#<\DLL>418  - Undefined Reference
    #<DLL>QtCore{00040703}[2001b2dc].dll#<\DLL>41b  - Undefined Reference
    #<DLL>QtCore{00040703}[2001b2dc].dll#<\DLL>41f  - Undefined Reference
    #<DLL>QtCore{00040703}[2001b2dc].dll#<\DLL>46  - Undefined Reference
    #<DLL>QtCore{00040703}[2001b2dc].dll#<\DLL>686  - Undefined Reference
    #<DLL>QtCore{00040703}[2001b2dc].dll#<\DLL>687  - Undefined Reference
    #<DLL>QtCore{00040703}[2001b2dc].dll#<\DLL>68a  - Undefined Reference
    #<DLL>QtCore{00040703}[2001b2dc].dll#<\DLL>68c  - Undefined Reference
    #<DLL>QtCore{00040703}[2001b2dc].dll#<\DLL>6e0  - Undefined Reference
    #<DLL>QtCore{00040703}[2001b2dc].dll#<\DLL>6e3  - Undefined Reference
    #<DLL>QtCore{00040703}[2001b2dc].dll#<\DLL>6e4  - Undefined Reference
    #<DLL>QtCore{00040703}[2001b2dc].dll#<\DLL>6e6  - Undefined Reference
    #<DLL>QtCore{00040703}[2001b2dc].dll#<\DLL>6e7  - Undefined Reference
    #<DLL>QtCore{00040703}[2001b2dc].dll#<\DLL>6e8  - Undefined Reference
    #<DLL>QtCore{00040703}[2001b2dc].dll#<\DLL>6ec  - Undefined Reference
    #<DLL>QtCore{00040703}[2001b2dc].dll#<\DLL>6ed  - Undefined Reference
    #<DLL>QtCore{00040703}[2001b2dc].dll#<\DLL>6f1  - Undefined Reference
    #<DLL>QtCore{00040703}[2001b2dc].dll#<\DLL>6f8  - Undefined Reference
    #<DLL>QtCore{00040703}[2001b2dc].dll#<\DLL>6f9  - Undefined Reference
    #<DLL>QtCore{00040703}[2001b2dc].dll#<\DLL>6fd  - Undefined Reference
    #<DLL>QtCore{00040703}[2001b2dc].dll#<\DLL>702  - Undefined Reference
    #<DLL>QtCore{00040703}[2001b2dc].dll#<\DLL>726  - Undefined Reference
    #<DLL>QtCore{00040703}[2001b2dc].dll#<\DLL>752  - Undefined Reference
    #<DLL>QtCore{00040703}[2001b2dc].dll#<\DLL>76e  - Undefined Reference
    #<DLL>QtCore{00040703}[2001b2dc].dll#<\DLL>76f  - Undefined Reference
    #<DLL>QtCore{00040703}[2001b2dc].dll#<\DLL>771  - Undefined Reference
    #<DLL>QtCore{00040703}[2001b2dc].dll#<\DLL>778  - Undefined Reference
    #<DLL>QtCore{00040703}[2001b2dc].dll#<\DLL>77d  - Undefined Reference
    #<DLL>QtCore{00040703}[2001b2dc].dll#<\DLL>7df  - Undefined Reference
    #<DLL>QtCore{00040703}[2001b2dc].dll#<\DLL>7e  - Undefined Reference
    #<DLL>QtCore{00040703}[2001b2dc].dll#<\DLL>7f2  - Undefined Reference
    #<DLL>QtCore{00040703}[2001b2dc].dll#<\DLL>7f4  - Undefined Reference
    #<DLL>QtCore{00040703}[2001b2dc].dll#<\DLL>7f5  - Undefined Reference
    #<DLL>QtCore{00040703}[2001b2dc].dll#<\DLL>7f6  - Undefined Reference
    #<DLL>QtCore{00040703}[2001b2dc].dll#<\DLL>7f8  - Undefined Reference
    #<DLL>QtCore{00040703}[2001b2dc].dll#<\DLL>7fb  - Undefined Reference
    #<DLL>QtCore{00040703}[2001b2dc].dll#<\DLL>80  - Undefined Reference
    #<DLL>QtCore{00040703}[2001b2dc].dll#<\DLL>81  - Undefined Reference
    #<DLL>QtCore{00040703}[2001b2dc].dll#<\DLL>822  - Undefined Reference
    #<DLL>QtCore{00040703}[2001b2dc].dll#<\DLL>824  - Undefined Reference
    #<DLL>QtCore{00040703}[2001b2dc].dll#<\DLL>83e  - Undefined Reference
    #<DLL>QtCore{00040703}[2001b2dc].dll#<\DLL>856  - Undefined Reference
    #<DLL>QtCore{00040703}[2001b2dc].dll#<\DLL>85d  - Undefined Reference
    #<DLL>QtCore{00040703}[2001b2dc].dll#<\DLL>85e  - Undefined Reference
    #<DLL>QtCore{00040703}[2001b2dc].dll#<\DLL>88a  - Undefined Reference
    #<DLL>QtCore{00040703}[2001b2dc].dll#<\DLL>88c  - Undefined Reference
    #<DLL>QtCore{00040703}[2001b2dc].dll#<\DLL>88f  - Undefined Reference
    #<DLL>QtCore{00040703}[2001b2dc].dll#<\DLL>897  - Undefined Reference
    #<DLL>QtCore{00040703}[2001b2dc].dll#<\DLL>970  - Undefined Reference
    #<DLL>QtCore{00040703}[2001b2dc].dll#<\DLL>9f  - Undefined Reference
    #<DLL>QtCore{00040703}[2001b2dc].dll#<\DLL>a7  - Undefined Reference
    #<DLL>QtCore{00040703}[2001b2dc].dll#<\DLL>a70  - Undefined Reference
    #<DLL>QtCore{00040703}[2001b2dc].dll#<\DLL>a73  - Undefined Reference
    #<DLL>QtCore{00040703}[2001b2dc].dll#<\DLL>a76  - Undefined Reference
    #<DLL>QtCore{00040703}[2001b2dc].dll#<\DLL>a77  - Undefined Reference
    #<DLL>QtCore{00040703}[2001b2dc].dll#<\DLL>a78  - Undefined Reference
    #<DLL>QtCore{00040703}[2001b2dc].dll#<\DLL>a79  - Undefined Reference
    #<DLL>QtCore{00040703}[2001b2dc].dll#<\DLL>a7a  - Undefined Reference
    #<DLL>QtCore{00040703}[2001b2dc].dll#<\DLL>a7c  - Undefined Reference
    #<DLL>QtCore{00040703}[2001b2dc].dll#<\DLL>a7d  - Undefined Reference
    #<DLL>QtCore{00040703}[2001b2dc].dll#<\DLL>a7e  - Undefined Reference
    #<DLL>QtCore{00040703}[2001b2dc].dll#<\DLL>a81  - Undefined Reference
    #<DLL>QtCore{00040703}[2001b2dc].dll#<\DLL>a82  - Undefined Reference
    #<DLL>QtCore{00040703}[2001b2dc].dll#<\DLL>a83  - Undefined Reference
    #<DLL>QtCore{00040703}[2001b2dc].dll#<\DLL>a84  - Undefined Reference
    #<DLL>QtCore{00040703}[2001b2dc].dll#<\DLL>c3b  - Undefined Reference
    #<DLL>QtCore{00040703}[2001b2dc].dll#<\DLL>c40  - Undefined Reference
    #<DLL>QtCore{00040703}[2001b2dc].dll#<\DLL>c43  - Undefined Reference
    #<DLL>QtCore{00040703}[2001b2dc].dll#<\DLL>c5b  - Undefined Reference
    #<DLL>QtCore{00040703}[2001b2dc].dll#<\DLL>e19  - Undefined Reference
    #<DLL>QtCore{00040703}[2001b2dc].dll#<\DLL>e1a  - Undefined Reference
    #<DLL>QtCore{00040703}[2001b2dc].dll#<\DLL>e69  - Undefined Reference
    #<DLL>QtCore{00040703}[2001b2dc].dll#<\DLL>e6b  - Undefined Reference
    #<DLL>QtCore{00040703}[2001b2dc].dll#<\DLL>e6c  - Undefined Reference
    #<DLL>QtDeclarative{00040703}[2001e623].dll#<\DLL>191  - Undefined Reference
    #<DLL>QtDeclarative{00040703}[2001e623].dll#<\DLL>192  - Undefined Reference
    #<DLL>QtDeclarative{00040703}[2001e623].dll#<\DLL>2b  - Undefined Reference
    #<DLL>QtDeclarative{00040703}[2001e623].dll#<\DLL>310  - Undefined Reference
    #<DLL>QtDeclarative{00040703}[2001e623].dll#<\DLL>313  - Undefined Reference
    #<DLL>QtDeclarative{00040703}[2001e623].dll#<\DLL>369  - Undefined Reference
    #<DLL>QtDeclarative{00040703}[2001e623].dll#<\DLL>36a  - Undefined Reference
    #<DLL>QtDeclarative{00040703}[2001e623].dll#<\DLL>36b  - Undefined Reference
    #<DLL>QtDeclarative{00040703}[2001e623].dll#<\DLL>36e  - Undefined Reference
    #<DLL>QtDeclarative{00040703}[2001e623].dll#<\DLL>371  - Undefined Reference
    #<DLL>QtDeclarative{00040703}[2001e623].dll#<\DLL>5  - Undefined Reference
    #<DLL>QtDeclarative{00040703}[2001e623].dll#<\DLL>67e  - Undefined Reference
    #<DLL>QtMessaging{00010103}[2002ac82].dll#<\DLL>10  - Undefined Reference
    #<DLL>QtMessaging{00010103}[2002ac82].dll#<\DLL>104  - Undefined Reference
    #<DLL>QtMessaging{00010103}[2002ac82].dll#<\DLL>105  - Undefined Reference
    #<DLL>QtMessaging{00010103}[2002ac82].dll#<\DLL>106  - Undefined Reference
    #<DLL>QtMessaging{00010103}[2002ac82].dll#<\DLL>10b  - Undefined Reference
    #<DLL>QtMessaging{00010103}[2002ac82].dll#<\DLL>10d  - Undefined Reference
    #<DLL>QtMessaging{00010103}[2002ac82].dll#<\DLL>10e  - Undefined Reference
    #<DLL>QtMessaging{00010103}[2002ac82].dll#<\DLL>11  - Undefined Reference
    #<DLL>QtMessaging{00010103}[2002ac82].dll#<\DLL>110  - Undefined Reference
    #<DLL>QtMessaging{00010103}[2002ac82].dll#<\DLL>112  - Undefined Reference
    #<DLL>QtMessaging{00010103}[2002ac82].dll#<\DLL>117  - Undefined Reference
    #<DLL>QtMessaging{00010103}[2002ac82].dll#<\DLL>124  - Undefined Reference
    #<DLL>QtMessaging{00010103}[2002ac82].dll#<\DLL>139  - Undefined Reference
    #<DLL>QtMessaging{00010103}[2002ac82].dll#<\DLL>15  - Undefined Reference
    #<DLL>QtMessaging{00010103}[2002ac82].dll#<\DLL>16  - Undefined Reference
    #<DLL>QtMessaging{00010103}[2002ac82].dll#<\DLL>164  - Undefined Reference
    #<DLL>QtMessaging{00010103}[2002ac82].dll#<\DLL>16d  - Undefined Reference
    #<DLL>QtMessaging{00010103}[2002ac82].dll#<\DLL>16e  - Undefined Reference
    #<DLL>QtMessaging{00010103}[2002ac82].dll#<\DLL>17  - Undefined Reference
    #<DLL>QtMessaging{00010103}[2002ac82].dll#<\DLL>172  - Undefined Reference
    #<DLL>QtMessaging{00010103}[2002ac82].dll#<\DLL>177  - Undefined Reference
    #<DLL>QtMessaging{00010103}[2002ac82].dll#<\DLL>17e  - Undefined Reference
    #<DLL>QtMessaging{00010103}[2002ac82].dll#<\DLL>17f  - Undefined Reference
    #<DLL>QtMessaging{00010103}[2002ac82].dll#<\DLL>181  - Undefined Reference
    #<DLL>QtMessaging{00010103}[2002ac82].dll#<\DLL>182  - Undefined Reference
    #<DLL>QtMessaging{00010103}[2002ac82].dll#<\DLL>183  - Undefined Reference
    #<DLL>QtMessaging{00010103}[2002ac82].dll#<\DLL>184  - Undefined Reference
    #<DLL>QtMessaging{00010103}[2002ac82].dll#<\DLL>185  - Undefined Reference
    #<DLL>QtMessaging{00010103}[2002ac82].dll#<\DLL>187  - Undefined Reference
    #<DLL>QtMessaging{00010103}[2002ac82].dll#<\DLL>188  - Undefined Reference
    #<DLL>QtMessaging{00010103}[2002ac82].dll#<\DLL>1b  - Undefined Reference
    #<DLL>QtMessaging{00010103}[2002ac82].dll#<\DLL>1c  - Undefined Reference
    #<DLL>QtMessaging{00010103}[2002ac82].dll#<\DLL>1d  - Undefined Reference
    #<DLL>QtMessaging{00010103}[2002ac82].dll#<\DLL>1e  - Undefined Reference
    #<DLL>QtMessaging{00010103}[2002ac82].dll#<\DLL>1f  - Undefined Reference
    #<DLL>QtMessaging{00010103}[2002ac82].dll#<\DLL>2  - Undefined Reference
    #<DLL>QtMessaging{00010103}[2002ac82].dll#<\DLL>20  - Undefined Reference
    #<DLL>QtMessaging{00010103}[2002ac82].dll#<\DLL>21  - Undefined Reference
    #<DLL>QtMessaging{00010103}[2002ac82].dll#<\DLL>22  - Undefined Reference
    #<DLL>QtMessaging{00010103}[2002ac82].dll#<\DLL>23  - Undefined Reference
    #<DLL>QtMessaging{00010103}[2002ac82].dll#<\DLL>24  - Undefined Reference
    #<DLL>QtMessaging{00010103}[2002ac82].dll#<\DLL>25  - Undefined Reference
    #<DLL>QtMessaging{00010103}[2002ac82].dll#<\DLL>26  - Undefined Reference
    #<DLL>QtMessaging{00010103}[2002ac82].dll#<\DLL>2a  - Undefined Reference
    #<DLL>QtMessaging{00010103}[2002ac82].dll#<\DLL>2c  - Undefined Reference
    #<DLL>QtMessaging{00010103}[2002ac82].dll#<\DLL>2d  - Undefined Reference
    #<DLL>QtMessaging{00010103}[2002ac82].dll#<\DLL>2e  - Undefined Reference
    #<DLL>QtMessaging{00010103}[2002ac82].dll#<\DLL>3  - Undefined Reference
    #<DLL>QtMessaging{00010103}[2002ac82].dll#<\DLL>48  - Undefined Reference
    #<DLL>QtMessaging{00010103}[2002ac82].dll#<\DLL>4e  - Undefined Reference
    #<DLL>QtMessaging{00010103}[2002ac82].dll#<\DLL>55  - Undefined Reference
    #<DLL>QtMessaging{00010103}[2002ac82].dll#<\DLL>5c  - Undefined Reference
    #<DLL>QtMessaging{00010103}[2002ac82].dll#<\DLL>5d  - Undefined Reference
    #<DLL>QtMessaging{00010103}[2002ac82].dll#<\DLL>5e  - Undefined Reference
    #<DLL>QtMessaging{00010103}[2002ac82].dll#<\DLL>65  - Undefined Reference
    #<DLL>QtMessaging{00010103}[2002ac82].dll#<\DLL>6b  - Undefined Reference
    #<DLL>QtMessaging{00010103}[2002ac82].dll#<\DLL>7  - Undefined Reference
    #<DLL>QtMessaging{00010103}[2002ac82].dll#<\DLL>72  - Undefined Reference
    #<DLL>QtMessaging{00010103}[2002ac82].dll#<\DLL>73  - Undefined Reference
    #<DLL>QtMessaging{00010103}[2002ac82].dll#<\DLL>76  - Undefined Reference
    #<DLL>QtMessaging{00010103}[2002ac82].dll#<\DLL>8d  - Undefined Reference
    #<DLL>QtMessaging{00010103}[2002ac82].dll#<\DLL>8e  - Undefined Reference
    #<DLL>QtMessaging{00010103}[2002ac82].dll#<\DLL>8f  - Undefined Reference
    #<DLL>QtMessaging{00010103}[2002ac82].dll#<\DLL>9  - Undefined Reference
    #<DLL>QtMessaging{00010103}[2002ac82].dll#<\DLL>90  - Undefined Reference
    #<DLL>QtMessaging{00010103}[2002ac82].dll#<\DLL>91  - Undefined Reference
    #<DLL>QtMessaging{00010103}[2002ac82].dll#<\DLL>92  - Undefined Reference
    #<DLL>QtMessaging{00010103}[2002ac82].dll#<\DLL>93  - Undefined Reference
    #<DLL>QtMessaging{00010103}[2002ac82].dll#<\DLL>94  - Undefined Reference
    #<DLL>QtMessaging{00010103}[2002ac82].dll#<\DLL>95  - Undefined Reference
    #<DLL>QtMessaging{00010103}[2002ac82].dll#<\DLL>96  - Undefined Reference
    #<DLL>QtMessaging{00010103}[2002ac82].dll#<\DLL>97  - Undefined Reference
    #<DLL>QtMessaging{00010103}[2002ac82].dll#<\DLL>9b  - Undefined Reference
    #<DLL>QtMessaging{00010103}[2002ac82].dll#<\DLL>9d  - Undefined Reference
    #<DLL>QtMessaging{00010103}[2002ac82].dll#<\DLL>a  - Undefined Reference
    #<DLL>QtMessaging{00010103}[2002ac82].dll#<\DLL>ab  - Undefined Reference
    #<DLL>QtMessaging{00010103}[2002ac82].dll#<\DLL>ac  - Undefined Reference
    #<DLL>QtMessaging{00010103}[2002ac82].dll#<\DLL>b  - Undefined Reference
    #<DLL>QtMessaging{00010103}[2002ac82].dll#<\DLL>b2  - Undefined Reference
    #<DLL>QtMessaging{00010103}[2002ac82].dll#<\DLL>c  - Undefined Reference
    #<DLL>QtMessaging{00010103}[2002ac82].dll#<\DLL>d  - Undefined Reference
    #<DLL>QtMessaging{00010103}[2002ac82].dll#<\DLL>e1  - Undefined Reference
    #<DLL>QtMessaging{00010103}[2002ac82].dll#<\DLL>ea  - Undefined Reference
    #<DLL>QtMessaging{00010103}[2002ac82].dll#<\DLL>ed  - Undefined Reference
    #<DLL>drtaeabi{000a0000}.dll#<\DLL>93     - Undefined Reference
    #<DLL>drtaeabi{000a0000}.dll#<\DLL>9b     - Undefined Reference
    #<DLL>drtaeabi{000a0000}.dll#<\DLL>9e     - Undefined Reference
    #<DLL>drtaeabi{000a0000}.dll#<\DLL>b4     - Undefined Reference
    #<DLL>drtaeabi{000a0000}.dll#<\DLL>b7     - Undefined Reference
    #<DLL>drtaeabi{000a0000}.dll#<\DLL>b8     - Undefined Reference
    #<DLL>drtaeabi{000a0000}.dll#<\DLL>ba     - Undefined Reference
    #<DLL>drtaeabi{000a0000}.dll#<\DLL>bb     - Undefined Reference
    #<DLL>drtaeabi{000a0000}.dll#<\DLL>bc     - Undefined Reference
    #<DLL>drtaeabi{000a0000}.dll#<\DLL>bd     - Undefined Reference
    #<DLL>drtaeabi{000a0000}.dll#<\DLL>be     - Undefined Reference
    #<DLL>drtrvct2_2{000a0000}.dll#<\DLL>1c   - Undefined Reference
    #<DLL>euser{000a0000}[100039e5].dll#<\DLL>29e  - Undefined Reference
    #<DLL>euser{000a0000}[100039e5].dll#<\DLL>29f  - Undefined Reference
    #<DLL>libc{00010000}[10207369].dll#<\DLL>15e  - Undefined Reference
    #<DLL>libstdcpp{00010000}[10282872].dll#<\DLL>3dc  - Undefined Reference
    #<DLL>libstdcpp{00010000}[10282872].dll#<\DLL>3e0  - Undefined Reference
    SHT$$INIT_ARRAY$$Base                     - Undefined Weak Reference
    SHT$$INIT_ARRAY$$Limit                    - Undefined Weak Reference
    QByteArray::shared_null                   - Undefined Reference
    QAbstractListModel::staticMetaObject      - Undefined Reference
    QDeclarativeExtensionPlugin::staticMetaObject  - Undefined Reference
    QObject::staticMetaObject                 - Undefined Reference
    QString::shared_null                      - Undefined Reference
    QHashData::shared_null                    - Undefined Reference
    QListData::shared_null                    - Undefined Reference
    typeinfo for QAbstractListModel           - Undefined Reference
    typeinfo for QDeclarativeParserStatus     - Undefined Reference
    typeinfo for QDeclarativeExtensionPlugin  - Undefined Reference
    typeinfo for QObject                      - Undefined Reference
    typeinfo for std::exception               - Undefined Reference
    vtable for __cxxabiv1::__si_class_type_info  - Undefined Reference
    vtable for __cxxabiv1::__vmi_class_type_info  - Undefined Reference
    _fp_init                                  - Undefined Weak Reference
    Image$$ER_RO$$Base                       0x00008000   Number         0  anon$$obj.o(linker$$defined$$symbols)
    _E32Dll                                  0x00008000   ARM Code      40  uc_dll_.o(.emb_text)
    Symbian$$CPP$$Exception$$Descriptor      0x00008014   Data           0  uc_dll_.o(.emb_text)
    __cpp_initialize__aeabi_                 0x00008028   ARM Code      72  ucppinit_aeabi.o(.emb_text)
    QDeclarativeMessageFilterBase::getStaticMetaObject() 0x00008071   Thumb Code     4  declarative_messaging.in(.text)
    std::nothrow                             0x00008071   Thumb Code     0  ucppinit_aeabi.o(.emb_text)
    QDeclarativeMessageFilterBase::metaObject() const 0x00008075   Thumb Code    12  declarative_messaging.in(.text)
    QDeclarativeMessageFilterBase::qt_metacast(const char*) 0x00008081   Thumb Code    38  declarative_messaging.in(.text)
    QDeclarativeMessageFilterBase::negatedChanged() 0x000080a7   Thumb Code    14  declarative_messaging.in(.text)
    QDeclarativeMessageFilterBase::qt_metacall(QMetaObject::Call, int, void**) 0x000080b5   Thumb Code   102  declarative_messaging.in(.text)
    QDeclarativeMessageIntersectionFilter::getStaticMetaObject() 0x0000811b   Thumb Code     6  declarative_messaging.in(.text)
    QDeclarativeMessageIntersectionFilter::metaObject() const 0x00008121   Thumb Code    14  declarative_messaging.in(.text)
    QDeclarativeMessageIntersectionFilter::qt_metacast(const char*) 0x0000812f   Thumb Code    40  declarative_messaging.in(.text)
    QDeclarativeMessageIntersectionFilter::qt_metacall(QMetaObject::Call, int, void**) 0x00008157   Thumb Code    68  declarative_messaging.in(.text)
    QDeclarativeMessageUnionFilter::getStaticMetaObject() 0x0000819b   Thumb Code     6  declarative_messaging.in(.text)
    QDeclarativeMessageUnionFilter::metaObject() const 0x000081a1   Thumb Code    14  declarative_messaging.in(.text)
    QDeclarativeMessageUnionFilter::qt_metacast(const char*) 0x000081af   Thumb Code    40  declarative_messaging.in(.text)
    QDeclarativeMessageUnionFilter::qt_metacall(QMetaObject::Call, int, void**) 0x000081d7   Thumb Code    68  declarative_messaging.in(.text)
    QDeclarativeMessageFilter::getStaticMetaObject() 0x0000821b   Thumb Code     6  declarative_messaging.in(.text)
    QDeclarativeMessageFilter::metaObject() const 0x00008221   Thumb Code    14  declarative_messaging.in(.text)
    QDeclarativeMessageFilter::qt_metacast(const char*) 0x0000822f   Thumb Code    38  declarative_messaging.in(.text)
    QDeclarativeMessageFilter::comparatorChanged() 0x00008255   Thumb Code    16  declarative_messaging.in(.text)
    QDeclarativeMessageFilter::valueChanged() 0x00008265   Thumb Code    16  declarative_messaging.in(.text)
    QDeclarativeMessageFilter::typeChanged() 0x00008275   Thumb Code    16  declarative_messaging.in(.text)
    QDeclarativeMessageFilter::qt_metacall(QMetaObject::Call, int, void**) 0x00008285   Thumb Code   196  declarative_messaging.in(.text)
    QDeclarativeMessageModel::getStaticMetaObject() 0x00008355   Thumb Code     4  declarative_messaging.in(.text)
    QDeclarativeMessageModel::metaObject() const 0x00008359   Thumb Code    12  declarative_messaging.in(.text)
    QDeclarativeMessageModel::qt_metacast(const char*) 0x00008365   Thumb Code    70  declarative_messaging.in(.text)
    QDeclarativeMessageModel::messageAdded() 0x000083ab   Thumb Code    14  declarative_messaging.in(.text)
    QDeclarativeMessageModel::countChanged() 0x000083b9   Thumb Code    14  declarative_messaging.in(.text)
    QDeclarativeMessageModel::limitChanged() 0x000083c7   Thumb Code    14  declarative_messaging.in(.text)
    QDeclarativeMessageModel::sortOrderChanged() 0x000083d5   Thumb Code    14  declarative_messaging.in(.text)
    QDeclarativeMessageModel::sortByChanged() 0x000083e3   Thumb Code    14  declarative_messaging.in(.text)
    QDeclarativeMessageModel::filterChanged() 0x000083f1   Thumb Code    14  declarative_messaging.in(.text)
    QDeclarativeMessageModel::qt_metacall(QMetaObject::Call, int, void**) 0x000083ff   Thumb Code   350  declarative_messaging.in(.text)
    QDeclarativeMessageFilterBase::QDeclarativeMessageFilterBase__sub_object(QObject*) 0x000085ad   Thumb Code    16  declarative_messaging.in(.text)
    QDeclarativeMessageFilterBase::negated() const 0x000085bd   Thumb Code     4  declarative_messaging.in(.text)
    QDeclarativeMessageFilterBase::setNegated(bool) 0x000085c1   Thumb Code    16  declarative_messaging.in(.text)
    QDeclarativeMessageIntersectionFilter::QDeclarativeMessageIntersectionFilter(QObject*) 0x000085d1   Thumb Code    24  declarative_messaging.in(.text)
    QDeclarativeMessageIntersectionFilter::QDeclarativeMessageIntersectionFilter__sub_object(QObject*) 0x000085d1   Thumb Code     0  declarative_messaging.in(.text)
    QDeclarativeMessageIntersectionFilter::filters() 0x000085e9   Thumb Code    30  declarative_messaging.in(.text)
    QDeclarativeMessageIntersectionFilter::filter() 0x00008607   Thumb Code   128  declarative_messaging.in(.text)
    QDeclarativeMessageUnionFilter::QDeclarativeMessageUnionFilter(QObject*) 0x00008687   Thumb Code    24  declarative_messaging.in(.text)
    QDeclarativeMessageUnionFilter::QDeclarativeMessageUnionFilter__sub_object(QObject*) 0x00008687   Thumb Code     0  declarative_messaging.in(.text)
    QDeclarativeMessageUnionFilter::filters() 0x0000869f   Thumb Code    28  declarative_messaging.in(.text)
    QDeclarativeMessageUnionFilter::filter() 0x000086bb   Thumb Code   126  declarative_messaging.in(.text)
    QDeclarativeMessageFilter::QDeclarativeMessageFilter(QObject*) 0x00008739   Thumb Code    58  declarative_messaging.in(.text)
    QDeclarativeMessageFilter::QDeclarativeMessageFilter__sub_object(QObject*) 0x00008739   Thumb Code     0  declarative_messaging.in(.text)
    QDeclarativeMessageFilter::type() const  0x00008773   Thumb Code     6  declarative_messaging.in(.text)
    QDeclarativeMessageFilter::setType(QDeclarativeMessageFilter::FilterType) 0x00008779   Thumb Code    18  declarative_messaging.in(.text)
    QDeclarativeMessageFilter::value() const 0x0000878b   Thumb Code    12  declarative_messaging.in(.text)
    QDeclarativeMessageFilter::setValue(const QVariant&) 0x00008797   Thumb Code    36  declarative_messaging.in(.text)
    QDeclarativeMessageFilter::comparator() const 0x000087bb   Thumb Code     6  declarative_messaging.in(.text)
    QDeclarativeMessageFilter::setComparator(QDeclarativeMessageFilter::Comparator) 0x000087c1   Thumb Code    18  declarative_messaging.in(.text)
    QDeclarativeMessageFilter::filter()      0x000087d3   Thumb Code  1696  declarative_messaging.in(.text)
    MessageModelWorker::MessageModelWorker() 0x00008ec5   Thumb Code   152  declarative_messaging.in(.text)
    MessageModelWorker::MessageModelWorker__sub_object() 0x00008ec5   Thumb Code     0  declarative_messaging.in(.text)
    QDeclarativeMessageModel::QDeclarativeMessageModel(QObject*) 0x00008f5d   Thumb Code   258  declarative_messaging.in(.text)
    QDeclarativeMessageModel::QDeclarativeMessageModel__sub_object(QObject*) 0x00008f5d   Thumb Code     0  declarative_messaging.in(.text)
    QDeclarativeMessageModel::~QDeclarativeMessageModel() 0x0000905f   Thumb Code    98  declarative_messaging.in(.text)
    QDeclarativeMessageModel::~QDeclarativeMessageModel__sub_object() 0x0000905f   Thumb Code     0  declarative_messaging.in(.text)
    QDeclarativeMessageModel::~QDeclarativeMessageModel__deallocating() 0x000090c1   Thumb Code    16  declarative_messaging.in(.text)
    thunk{-8} to QDeclarativeMessageModel::~QDeclarativeMessageModel__deallocating() 0x000090d1   Thumb Code     4  declarative_messaging.in(.text)
    thunk{-8} to QDeclarativeMessageModel::~QDeclarativeMessageModel() 0x000090d5   Thumb Code     4  declarative_messaging.in(.text)
    QDeclarativeMessageModel::filter() const 0x000090d9   Thumb Code     6  declarative_messaging.in(.text)
    QDeclarativeMessageModel::scheduleUpdate() 0x000090df   Thumb Code    74  declarative_messaging.in(.text)
    QDeclarativeMessageModel::setFilter(QDeclarativeMessageFilterBase*) 0x00009129   Thumb Code    28  declarative_messaging.in(.text)
    QDeclarativeMessageModel::sortBy() const 0x00009145   Thumb Code     6  declarative_messaging.in(.text)
    QDeclarativeMessageModel::setSortBy(QDeclarativeMessageModel::SortKey) 0x0000914b   Thumb Code    28  declarative_messaging.in(.text)
    QDeclarativeMessageModel::sortOrder() const 0x00009167   Thumb Code     6  declarative_messaging.in(.text)
    QDeclarativeMessageModel::setSortOrder(QDeclarativeMessageModel::SortOrder) 0x0000916d   Thumb Code    28  declarative_messaging.in(.text)
    QDeclarativeMessageModel::showMessage(int) const 0x00009189   Thumb Code    98  declarative_messaging.in(.text)
    QDeclarativeMessageModel::removeMessage(int) 0x000091eb   Thumb Code    96  declarative_messaging.in(.text)
    QDeclarativeMessageModel::limit() const  0x0000924b   Thumb Code     6  declarative_messaging.in(.text)
    QDeclarativeMessageModel::setLimit(int)  0x00009251   Thumb Code    28  declarative_messaging.in(.text)
    QDeclarativeMessageModel::rowCount(const QModelIndex&) const 0x0000926d   Thumb Code   156  declarative_messaging.in(.text)
    QDeclarativeMessageModel::data(const QModelIndex&, int) const 0x00009309   Thumb Code   870  declarative_messaging.in(.text)
    MessageModelWorker::setFilter(QtMobility::QMessageFilter, QtMobility::QMessageSortOrder, int) 0x0000966f   Thumb Code   118  declarative_messaging.in(.text)
    QDeclarativeMessageModelPrivate::updateFilter() 0x000096e5   Thumb Code   340  declarative_messaging.in(.text)
    QDeclarativeMessageModel::componentComplete() 0x00009839   Thumb Code    14  declarative_messaging.in(.text)
    thunk{-8} to QDeclarativeMessageModel::componentComplete() 0x00009847   Thumb Code     4  declarative_messaging.in(.text)
    QDeclarativeMessageModel::messagesFound(const QList<QtMobility::QMessageId>&) 0x0000984b   Thumb Code    96  declarative_messaging.in(.text)
    QDeclarativeMessageModel::serviceProgressChanged(unsigned, unsigned) 0x000098ab   Thumb Code     2  declarative_messaging.in(.text)
    QDeclarativeMessageModel::messageUpdated(const QtMobility::QMessageId&) 0x000098ad   Thumb Code    96  declarative_messaging.in(.text)
    QDeclarativeMessageModel::messageRemoved(const QtMobility::QMessageId&) 0x0000990d   Thumb Code   128  declarative_messaging.in(.text)
    QDeclarativeMessageModel::updateFilter() 0x0000998d   Thumb Code     4  declarative_messaging.in(.text)
    MessageModelWorker::getStaticMetaObject() 0x00009991   Thumb Code     4  declarative_messaging.in(.text)
    MessageModelWorker::metaObject() const   0x00009995   Thumb Code    12  declarative_messaging.in(.text)
    MessageModelWorker::qt_metacast(const char*) 0x000099a1   Thumb Code    38  declarative_messaging.in(.text)
    MessageModelWorker::messageUpdated(const QtMobility::QMessageId&) 0x000099c7   Thumb Code    24  declarative_messaging.in(.text)
    MessageModelWorker::messageUpdated(const QtMobility::QMessageId&, QSet<int>) 0x000099df   Thumb Code    28  declarative_messaging.in(.text)
    MessageModelWorker::messageRemoved(const QtMobility::QMessageId&) 0x000099fb   Thumb Code    24  declarative_messaging.in(.text)
    MessageModelWorker::messageRemoved(const QtMobility::QMessageId&, QSet<int>) 0x00009a13   Thumb Code    20  declarative_messaging.in(.text)
    MessageModelWorker::messageAdded(const QtMobility::QMessageId&) 0x00009a27   Thumb Code    24  declarative_messaging.in(.text)
    MessageModelWorker::messageAdded(const QtMobility::QMessageId&, QSet<int>) 0x00009a3f   Thumb Code    84  declarative_messaging.in(.text)
    MessageModelWorker::serviceStateChanged(QtMobility::QMessageService::State) 0x00009a93   Thumb Code    60  declarative_messaging.in(.text)
    MessageModelWorker::getBody(const QtMobility::QMessageId&) 0x00009acf   Thumb Code   134  declarative_messaging.in(.text)
    MessageModelWorker::init()               0x00009b55   Thumb Code   172  declarative_messaging.in(.text)
    MessageModelWorker::getRequested()       0x00009c01   Thumb Code   552  declarative_messaging.in(.text)
    MessageModelWorker::updateFilter()       0x00009e29   Thumb Code    86  declarative_messaging.in(.text)
    MessageModelWorker::remove(const QtMobility::QMessageId&) 0x00009e7f   Thumb Code    22  declarative_messaging.in(.text)
    MessageModelWorker::show(const QtMobility::QMessageId&) 0x00009e95   Thumb Code    20  declarative_messaging.in(.text)
    MessageModelWorker::serviceProgressChanged(unsigned, unsigned) 0x00009ea9   Thumb Code    36  declarative_messaging.in(.text)
    MessageModelWorker::messagesFound(const QList<QtMobility::QMessageId>&) 0x00009ecd   Thumb Code    22  declarative_messaging.in(.text)
    MessageModelWorker::qt_metacall(QMetaObject::Call, int, void**) 0x00009ee3   Thumb Code   292  declarative_messaging.in(.text)
    qt_plugin_query_verification_data        0x0000a00d   Thumb Code     4  declarative_messaging.in(.text)
    qt_plugin_instance                       0x0000a011   Thumb Code   110  declarative_messaging.in(.text)
    QDeclarativeMessageModelPlugin::getStaticMetaObject() 0x0000a07f   Thumb Code     6  declarative_messaging.in(.text)
    QDeclarativeMessageModelPlugin::metaObject() const 0x0000a085   Thumb Code    14  declarative_messaging.in(.text)
    QDeclarativeMessageModelPlugin::qt_metacast(const char*) 0x0000a093   Thumb Code    40  declarative_messaging.in(.text)
    QDeclarativeMessageModelPlugin::qt_metacall(QMetaObject::Call, int, void**) 0x0000a0bb   Thumb Code     8  declarative_messaging.in(.text)
    _E32Dll_Body                             0x0000a0d9   Thumb Code    34  uc_dll.o(.text)
    CppBSSInitializationError                0x0000a100   ARM Code       4  ucppfini.o(.text)
    __aeabi_atexit                           0x0000a104   ARM Code      28  ucppfini.o(.text)
    __cxa_atexit                             0x0000a120   ARM Code      48  ucppfini.o(.text)
    __cxa_finalize                           0x0000a150   ARM Code      48  ucppfini.o(.text)
    run_static_dtors                         0x0000a180   ARM Code       8  ucppfini.o(.text)
    __DLL_Export_Table__                     0x0000a450   ARM Code       0  declarative_messaging{000a0000}.exp(ExportTable)
    DLL##ExportTableSize                     0x0000a454   Data           0  declarative_messaging{000a0000}.exp(ExportTable)
    DLL##ExportTable                         0x0000a458   Data           0  declarative_messaging{000a0000}.exp(ExportTable)
    QtMobility::QMessageFilter::byPriority(QtMobility::QMessage::Priority, QtMobility::QMessageDataComparator::EqualityComparator) 0x0000a460   ARM Code       0  QtMessaging{00010103}-10.o(StubCode)
    QtMobility::QMessageService::retrieveBody(const QtMobility::QMessageId&) 0x0000a468   ARM Code       0  QtMessaging{00010103}-101.o(StubCode)
    QtMobility::QMessageService::queryMessages(const QtMobility::QMessageFilter&, const QtMobility::QMessageSortOrder&, unsigned, unsigned) 0x0000a470   ARM Code       0  QtMessaging{00010103}-107.o(StubCode)
    QtMobility::QMessageFilter::byTimeStamp(const QDateTime&, QtMobility::QMessageDataComparator::EqualityComparator) 0x0000a478   ARM Code       0  QtMessaging{00010103}-11.o(StubCode)
    QtMobility::QMessageService::show(const QtMobility::QMessageId&) 0x0000a480   ARM Code       0  QtMessaging{00010103}-114.o(StubCode)
    QtMobility::QMessageService::cancel()    0x0000a488   ARM Code       0  QtMessaging{00010103}-115.o(StubCode)
    QtMobility::QMessageService::QMessageService(QObject*) 0x0000a490   ARM Code       0  QtMessaging{00010103}-118.o(StubCode)
    QtMobility::QMessageFilter::byTimeStamp(const QDateTime&, QtMobility::QMessageDataComparator::RelationComparator) 0x0000a498   ARM Code       0  QtMessaging{00010103}-12.o(StubCode)
    QtMobility::QMessageFilter::byRecipients(const QString&, QtMobility::QMessageDataComparator::InclusionComparator) 0x0000a4a0   ARM Code       0  QtMessaging{00010103}-13.o(StubCode)
    QtMobility::QMessageSortOrder::byPriority(Qt::SortOrder) 0x0000a4a8   ARM Code       0  QtMessaging{00010103}-141.o(StubCode)
    QtMobility::QMessageSortOrder::byTimeStamp(Qt::SortOrder) 0x0000a4b0   ARM Code       0  QtMessaging{00010103}-142.o(StubCode)
    QtMobility::QMessageSortOrder::byRecipients(Qt::SortOrder) 0x0000a4b8   ARM Code       0  QtMessaging{00010103}-143.o(StubCode)
    QtMobility::QMessageSortOrder::byReceptionTimeStamp(Qt::SortOrder) 0x0000a4c0   ARM Code       0  QtMessaging{00010103}-144.o(StubCode)
    QtMobility::QMessageSortOrder::bySize(Qt::SortOrder) 0x0000a4c8   ARM Code       0  QtMessaging{00010103}-145.o(StubCode)
    QtMobility::QMessageSortOrder::byType(Qt::SortOrder) 0x0000a4d0   ARM Code       0  QtMessaging{00010103}-146.o(StubCode)
    QtMobility::QMessageSortOrder::bySender(Qt::SortOrder) 0x0000a4d8   ARM Code       0  QtMessaging{00010103}-147.o(StubCode)
    QtMobility::QMessageSortOrder::byStatus(QtMobility::QMessage::Status, Qt::SortOrder) 0x0000a4e0   ARM Code       0  QtMessaging{00010103}-148.o(StubCode)
    QtMobility::QMessageSortOrder::bySubject(Qt::SortOrder) 0x0000a4e8   ARM Code       0  QtMessaging{00010103}-149.o(StubCode)
    QtMobility::QMessageSortOrder::QMessageSortOrder(const QtMobility::QMessageSortOrder&) 0x0000a4f0   ARM Code       0  QtMessaging{00010103}-150.o(StubCode)
    QtMobility::QMessageSortOrder::QMessageSortOrder() 0x0000a4f8   ARM Code       0  QtMessaging{00010103}-151.o(StubCode)
    QtMobility::QMessageSortOrder::~QMessageSortOrder() 0x0000a500   ARM Code       0  QtMessaging{00010103}-155.o(StubCode)
    QtMobility::QMessageSortOrder::operator =(const QtMobility::QMessageSortOrder&) 0x0000a508   ARM Code       0  QtMessaging{00010103}-157.o(StubCode)
    QtMobility::QMessageFilter::byParentFolderId(const QtMobility::QMessageFolderFilter&, QtMobility::QMessageDataComparator::InclusionComparator) 0x0000a510   ARM Code       0  QtMessaging{00010103}-16.o(StubCode)
    QtMobility::QMessageFilter::byStandardFolder(QtMobility::QMessage::StandardFolder, QtMobility::QMessageDataComparator::EqualityComparator) 0x0000a518   ARM Code       0  QtMessaging{00010103}-17.o(StubCode)
    QtMobility::QMessageFolderFilter::byPath(const QString&, QtMobility::QMessageDataComparator::EqualityComparator) 0x0000a520   ARM Code       0  QtMessaging{00010103}-171.o(StubCode)
    QtMobility::QMessageFolderFilter::byPath(const QString&, QtMobility::QMessageDataComparator::InclusionComparator) 0x0000a528   ARM Code       0  QtMessaging{00010103}-172.o(StubCode)
    QtMobility::QMessageFolderFilter::~QMessageFolderFilter() 0x0000a530   ARM Code       0  QtMessaging{00010103}-178.o(StubCode)
    QtMobility::QMessageId::QMessageId(const QtMobility::QMessageId&) 0x0000a538   ARM Code       0  QtMessaging{00010103}-2.o(StubCode)
    QtMobility::QMessageFilter::byAncestorFolderIds(const QtMobility::QMessageFolderFilter&, QtMobility::QMessageDataComparator::InclusionComparator) 0x0000a540   ARM Code       0  QtMessaging{00010103}-21.o(StubCode)
    QtMobility::QMessageFilter::byReceptionTimeStamp(const QDateTime&, QtMobility::QMessageDataComparator::EqualityComparator) 0x0000a548   ARM Code       0  QtMessaging{00010103}-22.o(StubCode)
    QtMobility::QMessageContentContainer::~QMessageContentContainer() 0x0000a550   ARM Code       0  QtMessaging{00010103}-225.o(StubCode)
    QtMobility::QMessageFilter::byReceptionTimeStamp(const QDateTime&, QtMobility::QMessageDataComparator::RelationComparator) 0x0000a558   ARM Code       0  QtMessaging{00010103}-23.o(StubCode)
    QtMobility::QMessageContentContainerId::~QMessageContentContainerId() 0x0000a560   ARM Code       0  QtMessaging{00010103}-234.o(StubCode)
    QtMobility::qHash(const QtMobility::QMessageId&) 0x0000a568   ARM Code       0  QtMessaging{00010103}-237.o(StubCode)
    QtMobility::QMessage::QMessage(const QtMobility::QMessageId&) 0x0000a570   ARM Code       0  QtMessaging{00010103}-260.o(StubCode)
    QtMobility::QMessage::QMessage(const QtMobility::QMessage&) 0x0000a578   ARM Code       0  QtMessaging{00010103}-261.o(StubCode)
    QtMobility::QMessage::QMessage()         0x0000a580   ARM Code       0  QtMessaging{00010103}-262.o(StubCode)
    QtMobility::QMessage::~QMessage()        0x0000a588   ARM Code       0  QtMessaging{00010103}-267.o(StubCode)
    QtMobility::QMessage::operator =(const QtMobility::QMessage&) 0x0000a590   ARM Code       0  QtMessaging{00010103}-269.o(StubCode)
    QtMobility::QMessageFilter::bySize(int, QtMobility::QMessageDataComparator::EqualityComparator) 0x0000a598   ARM Code       0  QtMessaging{00010103}-27.o(StubCode)
    QtMobility::QMessageId::isValid() const  0x0000a5a0   ARM Code       0  QtMessaging{00010103}-270.o(StubCode)
    QtMobility::QMessageId::operator ==(const QtMobility::QMessageId&) const 0x0000a5a8   ARM Code       0  QtMessaging{00010103}-272.o(StubCode)
    QtMobility::QMessageId::operator !=(const QtMobility::QMessageId&) const 0x0000a5b0   ARM Code       0  QtMessaging{00010103}-274.o(StubCode)
    QtMobility::QMessageFilter::operator ~() const 0x0000a5b8   ARM Code       0  QtMessaging{00010103}-279.o(StubCode)
    QtMobility::QMessageFilter::bySize(int, QtMobility::QMessageDataComparator::RelationComparator) 0x0000a5c0   ARM Code       0  QtMessaging{00010103}-28.o(StubCode)
    QtMobility::QMessageFilter::byType(QFlags<QtMobility::QMessage::Type>, QtMobility::QMessageDataComparator::InclusionComparator) 0x0000a5c8   ARM Code       0  QtMessaging{00010103}-29.o(StubCode)
    QtMobility::QMessageAddress::addressee() const 0x0000a5d0   ARM Code       0  QtMessaging{00010103}-292.o(StubCode)
    QtMobility::QMessageId::QMessageId()     0x0000a5d8   ARM Code       0  QtMessaging{00010103}-3.o(StubCode)
    QtMobility::QMessageFilter::byType(QtMobility::QMessage::Type, QtMobility::QMessageDataComparator::EqualityComparator) 0x0000a5e0   ARM Code       0  QtMessaging{00010103}-30.o(StubCode)
    QtMobility::QMessageFilter::bySender(const QString&, QtMobility::QMessageDataComparator::EqualityComparator) 0x0000a5e8   ARM Code       0  QtMessaging{00010103}-31.o(StubCode)
    QtMobility::QMessageService::state() const 0x0000a5f0   ARM Code       0  QtMessaging{00010103}-313.o(StubCode)
    QtMobility::QMessageFilter::bySender(const QString&, QtMobility::QMessageDataComparator::InclusionComparator) 0x0000a5f8   ARM Code       0  QtMessaging{00010103}-32.o(StubCode)
    QtMobility::QMessageFilter::byStatus(QFlags<QtMobility::QMessage::Status>, QtMobility::QMessageDataComparator::InclusionComparator) 0x0000a600   ARM Code       0  QtMessaging{00010103}-33.o(StubCode)
    QtMobility::QMessageFilter::byStatus(QtMobility::QMessage::Status, QtMobility::QMessageDataComparator::EqualityComparator) 0x0000a608   ARM Code       0  QtMessaging{00010103}-34.o(StubCode)
    QtMobility::QMessageFilter::bySubject(const QString&, QtMobility::QMessageDataComparator::EqualityComparator) 0x0000a610   ARM Code       0  QtMessaging{00010103}-35.o(StubCode)
    QtMobility::QMessageContentContainer::textContent() const 0x0000a618   ARM Code       0  QtMessaging{00010103}-356.o(StubCode)
    QtMobility::QMessageFilter::bySubject(const QString&, QtMobility::QMessageDataComparator::InclusionComparator) 0x0000a620   ARM Code       0  QtMessaging{00010103}-36.o(StubCode)
    QtMobility::QMessageContentContainer::isContentAvailable() const 0x0000a628   ARM Code       0  QtMessaging{00010103}-365.o(StubCode)
    QtMobility::QMessageContentContainer::find(const QtMobility::QMessageContentContainerId&) const 0x0000a630   ARM Code       0  QtMessaging{00010103}-366.o(StubCode)
    QtMobility::QMessageFilter::QMessageFilter(const QtMobility::QMessageFilter&) 0x0000a638   ARM Code       0  QtMessaging{00010103}-37.o(StubCode)
    QtMobility::QMessageContentContainerId::isValid() const 0x0000a640   ARM Code       0  QtMessaging{00010103}-370.o(StubCode)
    QtMobility::QMessage::receivedDate() const 0x0000a648   ARM Code       0  QtMessaging{00010103}-375.o(StubCode)
    QtMobility::QMessageFilter::QMessageFilter() 0x0000a650   ARM Code       0  QtMessaging{00010103}-38.o(StubCode)
    QtMobility::QMessage::id() const         0x0000a658   ARM Code       0  QtMessaging{00010103}-382.o(StubCode)
    QtMobility::QMessage::to() const         0x0000a660   ARM Code       0  QtMessaging{00010103}-383.o(StubCode)
    QtMobility::QMessage::date() const       0x0000a668   ARM Code       0  QtMessaging{00010103}-385.o(StubCode)
    QtMobility::QMessage::from() const       0x0000a670   ARM Code       0  QtMessaging{00010103}-386.o(StubCode)
    QtMobility::QMessage::size() const       0x0000a678   ARM Code       0  QtMessaging{00010103}-387.o(StubCode)
    QtMobility::QMessage::type() const       0x0000a680   ARM Code       0  QtMessaging{00010103}-388.o(StubCode)
    QtMobility::QMessage::bodyId() const     0x0000a688   ARM Code       0  QtMessaging{00010103}-389.o(StubCode)
    QtMobility::QMessage::subject() const    0x0000a690   ARM Code       0  QtMessaging{00010103}-391.o(StubCode)
    QtMobility::QMessage::priority() const   0x0000a698   ARM Code       0  QtMessaging{00010103}-392.o(StubCode)
    QtMobility::QMessageFilter::~QMessageFilter() 0x0000a6a0   ARM Code       0  QtMessaging{00010103}-42.o(StubCode)
    QtMobility::QMessageFilter::operator &=(const QtMobility::QMessageFilter&) 0x0000a6a8   ARM Code       0  QtMessaging{00010103}-44.o(StubCode)
    QtMobility::QMessageFilter::operator =(const QtMobility::QMessageFilter&) 0x0000a6b0   ARM Code       0  QtMessaging{00010103}-45.o(StubCode)
    QtMobility::QMessageFilter::operator |=(const QtMobility::QMessageFilter&) 0x0000a6b8   ARM Code       0  QtMessaging{00010103}-46.o(StubCode)
    QtMobility::QMessageId::~QMessageId()    0x0000a6c0   ARM Code       0  QtMessaging{00010103}-7.o(StubCode)
    QtMobility::QMessageAddress::QMessageAddress(const QtMobility::QMessageAddress&) 0x0000a6c8   ARM Code       0  QtMessaging{00010103}-72.o(StubCode)
    QtMobility::QMessageAddress::~QMessageAddress() 0x0000a6d0   ARM Code       0  QtMessaging{00010103}-78.o(StubCode)
    QtMobility::QMessageManager::removeMessage(const QtMobility::QMessageId&, QtMobility::QMessageManager::RemovalOption) 0x0000a6d8   ARM Code       0  QtMessaging{00010103}-85.o(StubCode)
    QtMobility::QMessageId::operator =(const QtMobility::QMessageId&) 0x0000a6e0   ARM Code       0  QtMessaging{00010103}-9.o(StubCode)
    QtMobility::QMessageManager::registerNotificationFilter(const QtMobility::QMessageFilter&) 0x0000a6e8   ARM Code       0  QtMessaging{00010103}-92.o(StubCode)
    QtMobility::QMessageManager::unregisterNotificationFilter(int) 0x0000a6f0   ARM Code       0  QtMessaging{00010103}-93.o(StubCode)
    QtMobility::QMessageManager::QMessageManager(QObject*) 0x0000a6f8   ARM Code       0  QtMessaging{00010103}-94.o(StubCode)
    operator delete (void*)                  0x0000a700   ARM Code       0  libstdcpp{00010000}-988.o(StubCode)
    operator new(unsigned)                   0x0000a708   ARM Code       0  libstdcpp{00010000}-992.o(StubCode)
    thunk{-8} to QDeclarativeExtensionPlugin::initializeEngine(QDeclarativeEngine*, const char*) 0x0000a710   ARM Code       0  QtDeclarative{00040703}-1662.o(StubCode)
    QDeclarativePrivate::qmlregister(QDeclarativePrivate::RegistrationType, void*) 0x0000a718   ARM Code       0  QtDeclarative{00040703}-401.o(StubCode)
    QDeclarativePrivate::qdeclarativeelement_destructor(QObject*) 0x0000a720   ARM Code       0  QtDeclarative{00040703}-402.o(StubCode)
    QDeclarativeInfo::~QDeclarativeInfo()    0x0000a728   ARM Code       0  QtDeclarative{00040703}-43.o(StubCode)
    qmlInfo(const QObject*)                  0x0000a730   ARM Code       0  QtDeclarative{00040703}-5.o(StubCode)
    QDeclarativeParserStatus::QDeclarativeParserStatus__sub_object() 0x0000a738   ARM Code       0  QtDeclarative{00040703}-784.o(StubCode)
    QDeclarativeParserStatus::~QDeclarativeParserStatus__sub_object() 0x0000a740   ARM Code       0  QtDeclarative{00040703}-787.o(StubCode)
    QDeclarativeExtensionPlugin::qt_metacall(QMetaObject::Call, int, void**) 0x0000a748   ARM Code       0  QtDeclarative{00040703}-873.o(StubCode)
    QDeclarativeExtensionPlugin::qt_metacast(const char*) 0x0000a750   ARM Code       0  QtDeclarative{00040703}-874.o(StubCode)
    QDeclarativeExtensionPlugin::initializeEngine(QDeclarativeEngine*, const char*) 0x0000a758   ARM Code       0  QtDeclarative{00040703}-875.o(StubCode)
    QDeclarativeExtensionPlugin::QDeclarativeExtensionPlugin__sub_object(QObject*) 0x0000a760   ARM Code       0  QtDeclarative{00040703}-878.o(StubCode)
    QDeclarativeExtensionPlugin::~QDeclarativeExtensionPlugin__sub_object() 0x0000a768   ARM Code       0  QtDeclarative{00040703}-881.o(StubCode)
    QAbstractItemModel::setRoleNames(const QHash<int, QByteArray>&) 0x0000a770   ARM Code       0  QtCore{00040703}-1000.o(StubCode)
    QAbstractItemModel::endRemoveRows()      0x0000a778   ARM Code       0  QtCore{00040703}-1003.o(StubCode)
    QAbstractItemModel::endResetModel()      0x0000a780   ARM Code       0  QtCore{00040703}-1004.o(StubCode)
    QAbstractItemModel::insertColumns(int, int, const QModelIndex&) 0x0000a788   ARM Code       0  QtCore{00040703}-1005.o(StubCode)
    QAbstractItemModel::removeColumns(int, int, const QModelIndex&) 0x0000a790   ARM Code       0  QtCore{00040703}-1007.o(StubCode)
    QAbstractItemModel::setHeaderData(int, Qt::Orientation, const QVariant&, int) 0x0000a798   ARM Code       0  QtCore{00040703}-1008.o(StubCode)
    QAbstractItemModel::beginRemoveRows(const QModelIndex&, int, int) 0x0000a7a0   ARM Code       0  QtCore{00040703}-1012.o(StubCode)
    QAbstractItemModel::beginResetModel()    0x0000a7a8   ARM Code       0  QtCore{00040703}-1013.o(StubCode)
    QAbstractItemModel::sort(int, Qt::SortOrder) 0x0000a7b0   ARM Code       0  QtCore{00040703}-1034.o(StubCode)
    QAbstractItemModel::revert()             0x0000a7b8   ARM Code       0  QtCore{00040703}-1036.o(StubCode)
    QAbstractItemModel::submit()             0x0000a7c0   ARM Code       0  QtCore{00040703}-1037.o(StubCode)
    QAbstractItemModel::setData(const QModelIndex&, const QVariant&, int) 0x0000a7c8   ARM Code       0  QtCore{00040703}-1038.o(StubCode)
    QAbstractItemModel::fetchMore(const QModelIndex&) 0x0000a7d0   ARM Code       0  QtCore{00040703}-1039.o(StubCode)
    QAbstractListModel::qt_metacall(QMetaObject::Call, int, void**) 0x0000a7d8   ARM Code       0  QtCore{00040703}-1046.o(StubCode)
    QAbstractListModel::qt_metacast(const char*) 0x0000a7e0   ARM Code       0  QtCore{00040703}-1047.o(StubCode)
    QAbstractListModel::dropMimeData(const QMimeData*, Qt::DropAction, int, int, const QModelIndex&) 0x0000a7e8   ARM Code       0  QtCore{00040703}-1048.o(StubCode)
    QAbstractListModel::QAbstractListModel__sub_object(QObject*) 0x0000a7f0   ARM Code       0  QtCore{00040703}-1051.o(StubCode)
    QAbstractListModel::~QAbstractListModel__sub_object() 0x0000a7f8   ARM Code       0  QtCore{00040703}-1055.o(StubCode)
    QByteArray::append(const char*)          0x0000a800   ARM Code       0  QtCore{00040703}-126.o(StubCode)
    QByteArray::append(const QByteArray&)    0x0000a808   ARM Code       0  QtCore{00040703}-128.o(StubCode)
    QByteArray::append(char)                 0x0000a810   ARM Code       0  QtCore{00040703}-129.o(StubCode)
    QByteArray::QByteArray(const char*)      0x0000a818   ARM Code       0  QtCore{00040703}-159.o(StubCode)
    QByteArray::operator =(const char*)      0x0000a820   ARM Code       0  QtCore{00040703}-167.o(StubCode)
    QMutex::lock()                           0x0000a828   ARM Code       0  QtCore{00040703}-1670.o(StubCode)
    QMutex::unlock()                         0x0000a830   ARM Code       0  QtCore{00040703}-1671.o(StubCode)
    QMutex::QMutex(QMutex::RecursionMode)    0x0000a838   ARM Code       0  QtCore{00040703}-1674.o(StubCode)
    QMutex::~QMutex()                        0x0000a840   ARM Code       0  QtCore{00040703}-1676.o(StubCode)
    QObject::childEvent(QChildEvent*)        0x0000a848   ARM Code       0  QtCore{00040703}-1760.o(StubCode)
    QObject::timerEvent(QTimerEvent*)        0x0000a850   ARM Code       0  QtCore{00040703}-1763.o(StubCode)
    QObject::customEvent(QEvent*)            0x0000a858   ARM Code       0  QtCore{00040703}-1764.o(StubCode)
    QObject::eventFilter(QObject*, QEvent*)  0x0000a860   ARM Code       0  QtCore{00040703}-1766.o(StubCode)
    QObject::qt_metacall(QMetaObject::Call, int, void**) 0x0000a868   ARM Code       0  QtCore{00040703}-1767.o(StubCode)
    QObject::qt_metacast(const char*)        0x0000a870   ARM Code       0  QtCore{00040703}-1768.o(StubCode)
    QObject::moveToThread(QThread*)          0x0000a878   ARM Code       0  QtCore{00040703}-1772.o(StubCode)
    QObject::connectNotify(const char*)      0x0000a880   ARM Code       0  QtCore{00040703}-1773.o(StubCode)
    QObject::disconnectNotify(const char*)   0x0000a888   ARM Code       0  QtCore{00040703}-1777.o(StubCode)
    QObject::event(QEvent*)                  0x0000a890   ARM Code       0  QtCore{00040703}-1784.o(StubCode)
    QObject::connect(const QObject*, const char*, const QObject*, const char*, Qt::ConnectionType) 0x0000a898   ARM Code       0  QtCore{00040703}-1785.o(StubCode)
    QObject::QObject(QObject*)               0x0000a8a0   ARM Code       0  QtCore{00040703}-1789.o(StubCode)
    QObject::~QObject()                      0x0000a8a8   ARM Code       0  QtCore{00040703}-1794.o(StubCode)
    QString::free(QString::Data*)            0x0000a8b0   ARM Code       0  QtCore{00040703}-1830.o(StubCode)
    QString::fromAscii(const char*, int)     0x0000a8b8   ARM Code       0  QtCore{00040703}-1874.o(StubCode)
    QThread::quit()                          0x0000a8c0   ARM Code       0  QtCore{00040703}-1902.o(StubCode)
    QThread::wait(unsigned long)             0x0000a8c8   ARM Code       0  QtCore{00040703}-1903.o(StubCode)
    QThread::start(QThread::Priority)        0x0000a8d0   ARM Code       0  QtCore{00040703}-1905.o(StubCode)
    QThread::QThread(QObject*)               0x0000a8d8   ARM Code       0  QtCore{00040703}-1912.o(StubCode)
    QThread::~QThread()                      0x0000a8e0   ARM Code       0  QtCore{00040703}-1917.o(StubCode)
    QVariant::QVariant(const QStringList&)   0x0000a8e8   ARM Code       0  QtCore{00040703}-2015.o(StubCode)
    QVariant::QVariant(const QString&)       0x0000a8f0   ARM Code       0  QtCore{00040703}-2034.o(StubCode)
    QVariant::QVariant(const QDateTime&)     0x0000a8f8   ARM Code       0  QtCore{00040703}-2036.o(StubCode)
    QVariant::QVariant(const QVariant&)      0x0000a900   ARM Code       0  QtCore{00040703}-2037.o(StubCode)
    QVariant::QVariant(bool)                 0x0000a908   ARM Code       0  QtCore{00040703}-2038.o(StubCode)
    QVariant::QVariant(int)                  0x0000a910   ARM Code       0  QtCore{00040703}-2040.o(StubCode)
    QVariant::QVariant(unsigned)             0x0000a918   ARM Code       0  QtCore{00040703}-2043.o(StubCode)
    QVariant::~QVariant()                    0x0000a920   ARM Code       0  QtCore{00040703}-2082.o(StubCode)
    QVariant::operator =(const QVariant&)    0x0000a928   ARM Code       0  QtCore{00040703}-2084.o(StubCode)
    QDateTime::~QDateTime()                  0x0000a930   ARM Code       0  QtCore{00040703}-2110.o(StubCode)
    QHashData::free_helper(void(*)(QHashData::Node*)) 0x0000a938   ARM Code       0  QtCore{00040703}-2134.o(StubCode)
    QHashData::rehash(int)                   0x0000a940   ARM Code       0  QtCore{00040703}-2141.o(StubCode)
    QHashData::freeNode(void*)               0x0000a948   ARM Code       0  QtCore{00040703}-2142.o(StubCode)
    QListData::erase(void**)                 0x0000a950   ARM Code       0  QtCore{00040703}-2186.o(StubCode)
    QListData::append()                      0x0000a958   ARM Code       0  QtCore{00040703}-2188.o(StubCode)
    QListData::remove(int)                   0x0000a960   ARM Code       0  QtCore{00040703}-2191.o(StubCode)
    QMetaType::registerType(const char*, void(*)(void*), void*(*)(const void*)) 0x0000a968   ARM Code       0  QtCore{00040703}-2199.o(StubCode)
    QMetaObject::tr(const char*, const char*) const 0x0000a970   ARM Code       0  QtCore{00040703}-2416.o(StubCode)
    QAbstractItemModel::headerData(int, Qt::Orientation, int) const 0x0000a978   ARM Code       0  QtCore{00040703}-2672.o(StubCode)
    QAbstractItemModel::canFetchMore(const QModelIndex&) const 0x0000a980   ARM Code       0  QtCore{00040703}-2675.o(StubCode)
    QAbstractItemModel::supportedDropActions() const 0x0000a988   ARM Code       0  QtCore{00040703}-2678.o(StubCode)
    QAbstractItemModel::span(const QModelIndex&) const 0x0000a990   ARM Code       0  QtCore{00040703}-2679.o(StubCode)
    QAbstractItemModel::buddy(const QModelIndex&) const 0x0000a998   ARM Code       0  QtCore{00040703}-2680.o(StubCode)
    QAbstractItemModel::flags(const QModelIndex&) const 0x0000a9a0   ARM Code       0  QtCore{00040703}-2681.o(StubCode)
    QAbstractItemModel::match(const QModelIndex&, int, const QVariant&, int, QFlags<Qt::MatchFlag>) const 0x0000a9a8   ARM Code       0  QtCore{00040703}-2682.o(StubCode)
    QAbstractItemModel::itemData(const QModelIndex&) const 0x0000a9b0   ARM Code       0  QtCore{00040703}-2684.o(StubCode)
    QAbstractItemModel::mimeData(const QList<QModelIndex>&) const 0x0000a9b8   ARM Code       0  QtCore{00040703}-2685.o(StubCode)
    QAbstractItemModel::mimeTypes() const    0x0000a9c0   ARM Code       0  QtCore{00040703}-2686.o(StubCode)
    QAbstractListModel::columnCount(const QModelIndex&) const 0x0000a9c8   ARM Code       0  QtCore{00040703}-2689.o(StubCode)
    QAbstractListModel::hasChildren(const QModelIndex&) const 0x0000a9d0   ARM Code       0  QtCore{00040703}-2690.o(StubCode)
    QAbstractListModel::index(int, int, const QModelIndex&) const 0x0000a9d8   ARM Code       0  QtCore{00040703}-2691.o(StubCode)
    QAbstractListModel::parent(const QModelIndex&) const 0x0000a9e0   ARM Code       0  QtCore{00040703}-2692.o(StubCode)
    QMetaObject::changeGuard(QObject**, QObject*) 0x0000a9e8   ARM Code       0  QtCore{00040703}-274.o(StubCode)
    QMetaObject::removeGuard(QObject**)      0x0000a9f0   ARM Code       0  QtCore{00040703}-275.o(StubCode)
    QMetaObject::invokeMethod(QObject*, const char*, Qt::ConnectionType, QGenericReturnArgument, QGenericArgument, QGenericArgument, QGenericArgument, QGenericArgument, QGenericArgument, QGenericArgument, QGenericArgument, QGenericArgument, QGenericArgument, QGenericArgument) 0x0000a9f8   ARM Code       0  QtCore{00040703}-276.o(StubCode)
    QMetaObject::activate(QObject*, const QMetaObject*, int, void**) 0x0000aa00   ARM Code       0  QtCore{00040703}-282.o(StubCode)
    QVariant::toDateTime() const             0x0000aa08   ARM Code       0  QtCore{00040703}-3131.o(StubCode)
    QVariant::cmp(const QVariant&) const     0x0000aa10   ARM Code       0  QtCore{00040703}-3136.o(StubCode)
    QVariant::toInt(bool*) const             0x0000aa18   ARM Code       0  QtCore{00040703}-3139.o(StubCode)
    QVariant::toString() const               0x0000aa20   ARM Code       0  QtCore{00040703}-3163.o(StubCode)
    QTextStream::operator <<(const QString&) 0x0000aa28   ARM Code       0  QtCore{00040703}-331.o(StubCode)
    QTextStream::operator <<(char)           0x0000aa30   ARM Code       0  QtCore{00040703}-332.o(StubCode)
    QTextStream::operator <<(int)            0x0000aa38   ARM Code       0  QtCore{00040703}-335.o(StubCode)
    QHashData::allocateNode(int)             0x0000aa40   ARM Code       0  QtCore{00040703}-3609.o(StubCode)
    QHashData::detach_helper2(void(*)(QHashData::Node*, void*), void(*)(QHashData::Node*), int, int) 0x0000aa48   ARM Code       0  QtCore{00040703}-3610.o(StubCode)
    QListData::detach_grow(int*, int)        0x0000aa50   ARM Code       0  QtCore{00040703}-3689.o(StubCode)
    QListData::detach(int)                   0x0000aa58   ARM Code       0  QtCore{00040703}-3691.o(StubCode)
    QMetaType::registerTypedef(const char*, int) 0x0000aa60   ARM Code       0  QtCore{00040703}-3692.o(StubCode)
    qFree(void*)                             0x0000aa68   ARM Code       0  QtCore{00040703}-70.o(StubCode)
    QAbstractItemModel::insertRows(int, int, const QModelIndex&) 0x0000aa70   ARM Code       0  QtCore{00040703}-988.o(StubCode)
    QAbstractItemModel::removeRows(int, int, const QModelIndex&) 0x0000aa78   ARM Code       0  QtCore{00040703}-990.o(StubCode)
    QAbstractItemModel::dataChanged(const QModelIndex&, const QModelIndex&) 0x0000aa80   ARM Code       0  QtCore{00040703}-991.o(StubCode)
    QAbstractItemModel::setItemData(const QModelIndex&, const QMap<int, QVariant>&) 0x0000aa88   ARM Code       0  QtCore{00040703}-996.o(StubCode)
    strcmp                                   0x0000aa90   ARM Code       0  libc{00010000}-350.o(StubCode)
    User::LockedDec(int&)                    0x0000aa98   ARM Code       0  euser{000a0000}-670.o(StubCode)
    User::LockedInc(int&)                    0x0000aaa0   ARM Code       0  euser{000a0000}-671.o(StubCode)
    __aeabi_memcpy4                          0x0000aaa8   ARM Code       0  drtaeabi{000a0000}-147.o(StubCode)
    __aeabi_uidivmod                         0x0000aab0   ARM Code       0  drtaeabi{000a0000}-155.o(StubCode)
    __aeabi_unwind_cpp_pr0                   0x0000aab8   ARM Code       0  drtaeabi{000a0000}-158.o(StubCode)
    __cxa_begin_catch                        0x0000aac0   ARM Code       0  drtaeabi{000a0000}-180.o(StubCode)
    __cxa_end_catch                          0x0000aac8   ARM Code       0  drtaeabi{000a0000}-183.o(StubCode)
    __cxa_end_cleanup                        0x0000aad0   ARM Code       0  drtaeabi{000a0000}-184.o(StubCode)
    __cxa_guard_abort                        0x0000aad8   ARM Code       0  drtaeabi{000a0000}-186.o(StubCode)
    __cxa_guard_acquire                      0x0000aae0   ARM Code       0  drtaeabi{000a0000}-187.o(StubCode)
    __cxa_guard_release                      0x0000aae8   ARM Code       0  drtaeabi{000a0000}-188.o(StubCode)
    __cxa_pure_virtual                       0x0000aaf0   ARM Code       0  drtaeabi{000a0000}-189.o(StubCode)
    __cxa_rethrow                            0x0000aaf8   ARM Code       0  drtaeabi{000a0000}-190.o(StubCode)
    __ARM_switch8                            0x0000ab00   ARM Code       0  drtrvct2_2{000a0000}-28.o(StubCode)
    QByteArray::QByteArray(const QByteArray&) 0x0000ab09   Thumb Code    16  declarative_messaging.in(i._ZN10QByteArrayC1ERKS_)
    QByteArray::QByteArray__sub_object(const QByteArray&) 0x0000ab09   Thumb Code     0  declarative_messaging.in(i._ZN10QByteArrayC1ERKS_)
    QByteArray::~QByteArray()                0x0000ab19   Thumb Code    24  declarative_messaging.in(i._ZN10QByteArrayD1Ev)
    QByteArray::~QByteArray__sub_object()    0x0000ab19   Thumb Code     0  declarative_messaging.in(i._ZN10QByteArrayD1Ev)
    QMetaObject::invokeMethod(QObject*, const char*, Qt::ConnectionType, QGenericArgument, QGenericArgument, QGenericArgument, QGenericArgument, QGenericArgument, QGenericArgument, QGenericArgument, QGenericArgument, QGenericArgument, QGenericArgument) 0x0000ab31   Thumb Code   118  declarative_messaging.in(i._ZN11QMetaObject12invokeMethodEP7QObjectPKcN2Qt14ConnectionTypeE16QGenericArgumentS6_S6_S6_S6_S6_S6_S6_S6_S6_)
    QModelIndex::QModelIndex()               0x0000aba7   Thumb Code    16  declarative_messaging.in(i._ZN11QModelIndexC1Ev)
    QModelIndex::QModelIndex__sub_object()   0x0000aba7   Thumb Code     0  declarative_messaging.in(i._ZN11QModelIndexC1Ev)
    QModelIndex::~QModelIndex()              0x0000abb7   Thumb Code     8  declarative_messaging.in(i._ZN11QModelIndexD1Ev)
    QModelIndex::~QModelIndex__sub_object()  0x0000abb7   Thumb Code     0  declarative_messaging.in(i._ZN11QModelIndexD1Ev)
    QStringList::~QStringList()              0x0000abbf   Thumb Code     8  declarative_messaging.in(i._ZN11QStringListD1Ev)
    QStringList::~QStringList__sub_object()  0x0000abbf   Thumb Code     0  declarative_messaging.in(i._ZN11QStringListD1Ev)
    QMutexLocker::unlock()                   0x0000abc7   Thumb Code    24  declarative_messaging.in(i._ZN12QMutexLocker6unlockEv)
    QMutexLocker::QMutexLocker(QMutex*)      0x0000abdf   Thumb Code    28  declarative_messaging.in(i._ZN12QMutexLockerC1EP6QMutex)
    QMutexLocker::QMutexLocker__sub_object(QMutex*) 0x0000abdf   Thumb Code     0  declarative_messaging.in(i._ZN12QMutexLockerC1EP6QMutex)
    QMutexLocker::~QMutexLocker()            0x0000abfb   Thumb Code    12  declarative_messaging.in(i._ZN12QMutexLockerD1Ev)
    QMutexLocker::~QMutexLocker__sub_object() 0x0000abfb   Thumb Code     0  declarative_messaging.in(i._ZN12QMutexLockerD1Ev)
    QBasicAtomicInt::ref()                   0x0000ac07   Thumb Code    18  declarative_messaging.in(i._ZN15QBasicAtomicInt3refEv)
    QBasicAtomicInt::deref()                 0x0000ac19   Thumb Code    18  declarative_messaging.in(i._ZN15QBasicAtomicInt5derefEv)
    QDeclarativeInfo::operator <<(const char*) 0x0000ac2b   Thumb Code    38  declarative_messaging.in(i._ZN16QDeclarativeInfolsEPKc)
    QForeachContainer<QList<QtMobility::QMessageAddress>>::~QForeachContainer() 0x0000ac5b   Thumb Code     8  declarative_messaging.in(i._ZN17QForeachContainerI5QListIN10QtMobility15QMessageAddressEEED1Ev)
    QForeachContainer<QList<QtMobility::QMessageAddress>>::~QForeachContainer__sub_object() 0x0000ac5b   Thumb Code     0  declarative_messaging.in(i._ZN17QForeachContainerI5QListIN10QtMobility15QMessageAddressEEED1Ev)
    MessageModelWorker::getMessage(const QtMobility::QMessageId&) 0x0000ac65   Thumb Code   230  declarative_messaging.in(i._ZN18MessageModelWorker10getMessageERKN10QtMobility10QMessageIdE)
    MessageModelWorker::requestBody(const QtMobility::QMessageId&) 0x0000ad69   Thumb Code    90  declarative_messaging.in(i._ZN18MessageModelWorker11requestBodyERKN10QtMobility10QMessageIdE)
    MessageModelWorker::cacheMessage(const QtMobility::QMessageId&) 0x0000addf   Thumb Code   118  declarative_messaging.in(i._ZN18MessageModelWorker12cacheMessageERKN10QtMobility10QMessageIdE)
    MessageModelWorker::removeFromCache(const QtMobility::QMessageId&) 0x0000ae65   Thumb Code    34  declarative_messaging.in(i._ZN18MessageModelWorker15removeFromCacheERKN10QtMobility10QMessageIdE)
    MessageModelWorker::~MessageModelWorker__deallocating() 0x0000ae91   Thumb Code    16  declarative_messaging.in(i._ZN18MessageModelWorkerD0Ev)
    MessageModelWorker::~MessageModelWorker() 0x0000aea1   Thumb Code   108  declarative_messaging.in(i._ZN18MessageModelWorkerD1Ev)
    MessageModelWorker::~MessageModelWorker__sub_object() 0x0000aea1   Thumb Code     0  declarative_messaging.in(i._ZN18MessageModelWorkerD1Ev)
    QDeclarativePrivate::RegisterType::~RegisterType() 0x0000af6f   Thumb Code    12  declarative_messaging.in(i._ZN19QDeclarativePrivate12RegisterTypeD1Ev)
    QDeclarativePrivate::RegisterType::~RegisterType__sub_object() 0x0000af6f   Thumb Code     0  declarative_messaging.in(i._ZN19QDeclarativePrivate12RegisterTypeD1Ev)
    QDeclarativePrivate::QDeclarativeElement<QDeclarativeMessageModel>::~QDeclarativeElement__deallocating() 0x0000af7b   Thumb Code    16  declarative_messaging.in(i._ZN19QDeclarativePrivate19QDeclarativeElementI24QDeclarativeMessageModelED0Ev)
    QDeclarativePrivate::QDeclarativeElement<QDeclarativeMessageFilter>::~QDeclarativeElement__deallocating() 0x0000af8b   Thumb Code    16  declarative_messaging.in(i._ZN19QDeclarativePrivate19QDeclarativeElementI25QDeclarativeMessageFilterED0Ev)
    QDeclarativePrivate::QDeclarativeElement<QDeclarativeMessageUnionFilter>::~QDeclarativeElement__deallocating() 0x0000af9b   Thumb Code    16  declarative_messaging.in(i._ZN19QDeclarativePrivate19QDeclarativeElementI30QDeclarativeMessageUnionFilterED0Ev)
    QDeclarativePrivate::QDeclarativeElement<QDeclarativeMessageIntersectionFilter>::~QDeclarativeElement__deallocating() 0x0000afab   Thumb Code    16  declarative_messaging.in(i._ZN19QDeclarativePrivate19QDeclarativeElementI37QDeclarativeMessageIntersectionFilterED0Ev)
    QDeclarativeMessageModel::classBegin()   0x0000afbb   Thumb Code     2  declarative_messaging.in(i._ZN24QDeclarativeMessageModel10classBeginEv)
    QDeclarativeMessageFilter::~QDeclarativeMessageFilter__deallocating() 0x0000afbd   Thumb Code    16  declarative_messaging.in(i._ZN25QDeclarativeMessageFilterD0Ev)
    QDeclarativeMessageFilter::~QDeclarativeMessageFilter() 0x0000afcd   Thumb Code     8  declarative_messaging.in(i._ZN25QDeclarativeMessageFilterD1Ev)
    QDeclarativeMessageFilter::~QDeclarativeMessageFilter__sub_object() 0x0000afcd   Thumb Code     0  declarative_messaging.in(i._ZN25QDeclarativeMessageFilterD1Ev)
    QDeclarativeMessageFilterBase::~QDeclarativeMessageFilterBase__deallocating() 0x0000afd5   Thumb Code    16  declarative_messaging.in(i._ZN29QDeclarativeMessageFilterBaseD0Ev)
    QDeclarativeMessageFilterBase::~QDeclarativeMessageFilterBase() 0x0000afe5   Thumb Code     0  declarative_messaging.in(i._ZN29QDeclarativeMessageFilterBaseD2Ev)
    QDeclarativeMessageFilterBase::~QDeclarativeMessageFilterBase__sub_object() 0x0000afe5   Thumb Code     8  declarative_messaging.in(i._ZN29QDeclarativeMessageFilterBaseD2Ev)
    QDeclarativeMessageModelPlugin::registerTypes(const char*) 0x0000afed   Thumb Code   108  declarative_messaging.in(i._ZN30QDeclarativeMessageModelPlugin13registerTypesEPKc)
    QDeclarativeMessageModelPlugin::~QDeclarativeMessageModelPlugin__deallocating() 0x0000b117   Thumb Code    16  declarative_messaging.in(i._ZN30QDeclarativeMessageModelPluginD0Ev)
    QDeclarativeMessageModelPlugin::~QDeclarativeMessageModelPlugin() 0x0000b127   Thumb Code     8  declarative_messaging.in(i._ZN30QDeclarativeMessageModelPluginD1Ev)
    QDeclarativeMessageModelPlugin::~QDeclarativeMessageModelPlugin__sub_object() 0x0000b127   Thumb Code     0  declarative_messaging.in(i._ZN30QDeclarativeMessageModelPluginD1Ev)
    QDeclarativeMessageUnionFilter::~QDeclarativeMessageUnionFilter__deallocating() 0x0000b12f   Thumb Code    16  declarative_messaging.in(i._ZN30QDeclarativeMessageUnionFilterD0Ev)
    QDeclarativeMessageUnionFilter::~QDeclarativeMessageUnionFilter() 0x0000b141   Thumb Code    24  declarative_messaging.in(i._ZN30QDeclarativeMessageUnionFilterD1Ev)
    QDeclarativeMessageUnionFilter::~QDeclarativeMessageUnionFilter__sub_object() 0x0000b141   Thumb Code     0  declarative_messaging.in(i._ZN30QDeclarativeMessageUnionFilterD1Ev)
    QDeclarativeMessageModelPrivate::QDeclarativeMessageModelPrivate(QDeclarativeMessageModel*) 0x0000b169   Thumb Code   448  declarative_messaging.in(i._ZN31QDeclarativeMessageModelPrivateC1EP24QDeclarativeMessageModel)
    QDeclarativeMessageModelPrivate::QDeclarativeMessageModelPrivate__sub_object(QDeclarativeMessageModel*) 0x0000b169   Thumb Code     0  declarative_messaging.in(i._ZN31QDeclarativeMessageModelPrivateC1EP24QDeclarativeMessageModel)
    QDeclarativeMessageIntersectionFilter::~QDeclarativeMessageIntersectionFilter__deallocating() 0x0000b353   Thumb Code    16  declarative_messaging.in(i._ZN37QDeclarativeMessageIntersectionFilterD0Ev)
    QDeclarativeMessageIntersectionFilter::~QDeclarativeMessageIntersectionFilter() 0x0000b365   Thumb Code    24  declarative_messaging.in(i._ZN37QDeclarativeMessageIntersectionFilterD1Ev)
    QDeclarativeMessageIntersectionFilter::~QDeclarativeMessageIntersectionFilter__sub_object() 0x0000b365   Thumb Code     0  declarative_messaging.in(i._ZN37QDeclarativeMessageIntersectionFilterD1Ev)
    QSet<int>::~QSet()                       0x0000b38b   Thumb Code     8  declarative_messaging.in(i._ZN4QSetIiED1Ev)
    QSet<int>::~QSet__sub_object()           0x0000b38b   Thumb Code     0  declarative_messaging.in(i._ZN4QSetIiED1Ev)
    QDebug::maybeSpace()                     0x0000b393   Thumb Code    22  declarative_messaging.in(i._ZN6QDebug10maybeSpaceEv)
    QString::QString(const QString&)         0x0000b3a9   Thumb Code    16  declarative_messaging.in(i._ZN7QStringC1ERKS_)
    QString::QString__sub_object(const QString&) 0x0000b3a9   Thumb Code     0  declarative_messaging.in(i._ZN7QStringC1ERKS_)
    QString::QString()                       0x0000b3b9   Thumb Code    16  declarative_messaging.in(i._ZN7QStringC1Ev)
    QString::QString__sub_object()           0x0000b3b9   Thumb Code     0  declarative_messaging.in(i._ZN7QStringC1Ev)
    QString::~QString()                      0x0000b3cd   Thumb Code    24  declarative_messaging.in(i._ZN7QStringD1Ev)
    QString::~QString__sub_object()          0x0000b3cd   Thumb Code     0  declarative_messaging.in(i._ZN7QStringD1Ev)
    QHashData::willGrow()                    0x0000b3e5   Thumb Code    28  declarative_messaging.in(i._ZN9QHashData8willGrowEv)
    QBasicAtomicInt::operator !=(int) const  0x0000b401   Thumb Code    14  declarative_messaging.in(i._ZNK15QBasicAtomicIntneEi)
    QBasicAtomicInt::operator !() const      0x0000b40f   Thumb Code    14  declarative_messaging.in(i._ZNK15QBasicAtomicIntntEv)
    QListData::at(int) const                 0x0000b41d   Thumb Code    16  declarative_messaging.in(i._ZNK9QListData2atEi)
    QListData::end() const                   0x0000b42d   Thumb Code    12  declarative_messaging.in(i._ZNK9QListData3endEv)
    QListData::begin() const                 0x0000b439   Thumb Code    12  declarative_messaging.in(i._ZNK9QListData5beginEv)
    thunk{-8} to QDeclarativePrivate::QDeclarativeElement<QDeclarativeMessageModel>::~QDeclarativeElement__deallocating() 0x0000b445   Thumb Code    10  declarative_messaging.in(i._ZThn8_N19QDeclarativePrivate19QDeclarativeElementI24QDeclarativeMessageModelED0Ev)
    thunk{-8} to QDeclarativePrivate::QDeclarativeElement<QDeclarativeMessageModel>::~QDeclarativeElement() 0x0000b44f   Thumb Code    10  declarative_messaging.in(i._ZThn8_N19QDeclarativePrivate19QDeclarativeElementI24QDeclarativeMessageModelED1Ev)
    thunk{-8} to QDeclarativeMessageModel::classBegin() 0x0000b459   Thumb Code     2  declarative_messaging.in(i._ZThn8_N24QDeclarativeMessageModel10classBeginEv)
    thunk{-8} to QDeclarativeMessageModelPlugin::registerTypes(const char*) 0x0000b45b   Thumb Code    10  declarative_messaging.in(i._ZThn8_N30QDeclarativeMessageModelPlugin13registerTypesEPKc)
    thunk{-8} to QDeclarativeMessageModelPlugin::~QDeclarativeMessageModelPlugin__deallocating() 0x0000b465   Thumb Code    10  declarative_messaging.in(i._ZThn8_N30QDeclarativeMessageModelPluginD0Ev)
    thunk{-8} to QDeclarativeMessageModelPlugin::~QDeclarativeMessageModelPlugin() 0x0000b46f   Thumb Code    10  declarative_messaging.in(i._ZThn8_N30QDeclarativeMessageModelPluginD1Ev)
    operator delete (void*, void*)           0x0000b479   Thumb Code     2  declarative_messaging.in(i._ZdlPvS_)
    operator new(unsigned, void*)            0x0000b47b   Thumb Code     4  declarative_messaging.in(i._ZnwjPv)
    operator +(const char*, const QByteArray&) 0x0000b47f   Thumb Code    34  declarative_messaging.in(i._ZplPKcRK10QByteArray)
    operator +(const QByteArray&, const char*) 0x0000b4ab   Thumb Code    34  declarative_messaging.in(i._ZplRK10QByteArrayPKc)
    operator +(const QByteArray&, char)      0x0000b4d7   Thumb Code    34  declarative_messaging.in(i._ZplRK10QByteArrayc)
    qmlRegisterType<QDeclarativeMessageModel>(const char*, int, int, const char*) 0x0000b505   Thumb Code   186  declarative_messaging.in(t._Z15qmlRegisterTypeI24QDeclarativeMessageModelEiPKciiS2_)
    qmlRegisterType<QDeclarativeMessageFilter>(const char*, int, int, const char*) 0x0000b615   Thumb Code   184  declarative_messaging.in(t._Z15qmlRegisterTypeI25QDeclarativeMessageFilterEiPKciiS2_)
    qmlRegisterType<QDeclarativeMessageUnionFilter>(const char*, int, int, const char*) 0x0000b721   Thumb Code   184  declarative_messaging.in(t._Z15qmlRegisterTypeI30QDeclarativeMessageUnionFilterEiPKciiS2_)
    qmlRegisterType<QDeclarativeMessageIntersectionFilter>(const char*, int, int, const char*) 0x0000b82d   Thumb Code   184  declarative_messaging.in(t._Z15qmlRegisterTypeI37QDeclarativeMessageIntersectionFilterEiPKciiS2_)
    qRegisterMetaType<QDeclarativeListProperty<QDeclarativeMessageModel>>(const char*, T1*) 0x0000b939   Thumb Code    64  declarative_messaging.in(t._Z17qRegisterMetaTypeI24QDeclarativeListPropertyI24QDeclarativeMessageModelEEiPKcPT_)
    qRegisterMetaType<QDeclarativeListProperty<QDeclarativeMessageFilter>>(const char*, T1*) 0x0000b9b9   Thumb Code    64  declarative_messaging.in(t._Z17qRegisterMetaTypeI24QDeclarativeListPropertyI25QDeclarativeMessageFilterEEiPKcPT_)
    qRegisterMetaType<QDeclarativeListProperty<QDeclarativeMessageFilterBase>>(const char*, T1*) 0x0000ba39   Thumb Code    64  declarative_messaging.in(t._Z17qRegisterMetaTypeI24QDeclarativeListPropertyI29QDeclarativeMessageFilterBaseEEiPKcPT_)
    qRegisterMetaType<QDeclarativeListProperty<QDeclarativeMessageUnionFilter>>(const char*, T1*) 0x0000babd   Thumb Code    64  declarative_messaging.in(t._Z17qRegisterMetaTypeI24QDeclarativeListPropertyI30QDeclarativeMessageUnionFilterEEiPKcPT_)
    qRegisterMetaType<QDeclarativeListProperty<QDeclarativeMessageIntersectionFilter>>(const char*, T1*) 0x0000bb45   Thumb Code    64  declarative_messaging.in(t._Z17qRegisterMetaTypeI24QDeclarativeListPropertyI37QDeclarativeMessageIntersectionFilterEEiPKcPT_)
    qRegisterMetaType<QtMobility::QMessageId>(const char*, T1*) 0x0000bbd1   Thumb Code    64  declarative_messaging.in(t._Z17qRegisterMetaTypeIN10QtMobility10QMessageIdEEiPKcPT_)
    qRegisterMetaType<QDeclarativeMessageModel*>(const char*, T1*) 0x0000bc41   Thumb Code    64  declarative_messaging.in(t._Z17qRegisterMetaTypeIP24QDeclarativeMessageModelEiPKcPT_)
    qRegisterMetaType<QDeclarativeMessageFilter*>(const char*, T1*) 0x0000bca9   Thumb Code    64  declarative_messaging.in(t._Z17qRegisterMetaTypeIP25QDeclarativeMessageFilterEiPKcPT_)
    qRegisterMetaType<QDeclarativeMessageFilterBase*>(const char*, T1*) 0x0000bd11   Thumb Code    64  declarative_messaging.in(t._Z17qRegisterMetaTypeIP29QDeclarativeMessageFilterBaseEiPKcPT_)
    qRegisterMetaType<QDeclarativeMessageUnionFilter*>(const char*, T1*) 0x0000bd7d   Thumb Code    64  declarative_messaging.in(t._Z17qRegisterMetaTypeIP30QDeclarativeMessageUnionFilterEiPKcPT_)
    qRegisterMetaType<QDeclarativeMessageIntersectionFilter*>(const char*, T1*) 0x0000bded   Thumb Code    64  declarative_messaging.in(t._Z17qRegisterMetaTypeIP37QDeclarativeMessageIntersectionFilterEiPKcPT_)
    qMetaTypeDeleteHelper<QDeclarativeListProperty<QDeclarativeMessageModel>>(T1*) 0x0000be61   Thumb Code     8  declarative_messaging.in(t._Z21qMetaTypeDeleteHelperI24QDeclarativeListPropertyI24QDeclarativeMessageModelEEvPT_)
    qMetaTypeDeleteHelper<QDeclarativeListProperty<QDeclarativeMessageFilter>>(T1*) 0x0000be69   Thumb Code     8  declarative_messaging.in(t._Z21qMetaTypeDeleteHelperI24QDeclarativeListPropertyI25QDeclarativeMessageFilterEEvPT_)
    qMetaTypeDeleteHelper<QDeclarativeListProperty<QDeclarativeMessageFilterBase>>(T1*) 0x0000be71   Thumb Code     8  declarative_messaging.in(t._Z21qMetaTypeDeleteHelperI24QDeclarativeListPropertyI29QDeclarativeMessageFilterBaseEEvPT_)
    qMetaTypeDeleteHelper<QDeclarativeListProperty<QDeclarativeMessageUnionFilter>>(T1*) 0x0000be79   Thumb Code     8  declarative_messaging.in(t._Z21qMetaTypeDeleteHelperI24QDeclarativeListPropertyI30QDeclarativeMessageUnionFilterEEvPT_)
    qMetaTypeDeleteHelper<QDeclarativeListProperty<QDeclarativeMessageIntersectionFilter>>(T1*) 0x0000be81   Thumb Code     8  declarative_messaging.in(t._Z21qMetaTypeDeleteHelperI24QDeclarativeListPropertyI37QDeclarativeMessageIntersectionFilterEEvPT_)
    qMetaTypeDeleteHelper<QList<QtMobility::QMessageId>>(T1*) 0x0000be89   Thumb Code    36  declarative_messaging.in(t._Z21qMetaTypeDeleteHelperI5QListIN10QtMobility10QMessageIdEEEvPT_)
    qMetaTypeDeleteHelper<QtMobility::QMessageId>(T1*) 0x0000bead   Thumb Code    16  declarative_messaging.in(t._Z21qMetaTypeDeleteHelperIN10QtMobility10QMessageIdEEvPT_)
    qMetaTypeDeleteHelper<QDeclarativeMessageModel*>(T1*) 0x0000bebd   Thumb Code     8  declarative_messaging.in(t._Z21qMetaTypeDeleteHelperIP24QDeclarativeMessageModelEvPT_)
    qMetaTypeDeleteHelper<QDeclarativeMessageFilter*>(T1*) 0x0000bec5   Thumb Code     8  declarative_messaging.in(t._Z21qMetaTypeDeleteHelperIP25QDeclarativeMessageFilterEvPT_)
    qMetaTypeDeleteHelper<QDeclarativeMessageFilterBase*>(T1*) 0x0000becd   Thumb Code     8  declarative_messaging.in(t._Z21qMetaTypeDeleteHelperIP29QDeclarativeMessageFilterBaseEvPT_)
    qMetaTypeDeleteHelper<QDeclarativeMessageUnionFilter*>(T1*) 0x0000bed5   Thumb Code     8  declarative_messaging.in(t._Z21qMetaTypeDeleteHelperIP30QDeclarativeMessageUnionFilterEvPT_)
    qMetaTypeDeleteHelper<QDeclarativeMessageIntersectionFilter*>(T1*) 0x0000bedd   Thumb Code     8  declarative_messaging.in(t._Z21qMetaTypeDeleteHelperIP37QDeclarativeMessageIntersectionFilterEvPT_)
    qMetaTypeConstructHelper<QDeclarativeListProperty<QDeclarativeMessageModel>>(const T1*) 0x0000bee5   Thumb Code    82  declarative_messaging.in(t._Z24qMetaTypeConstructHelperI24QDeclarativeListPropertyI24QDeclarativeMessageModelEEPvPKT_)
    qMetaTypeConstructHelper<QDeclarativeListProperty<QDeclarativeMessageFilter>>(const T1*) 0x0000bf37   Thumb Code    82  declarative_messaging.in(t._Z24qMetaTypeConstructHelperI24QDeclarativeListPropertyI25QDeclarativeMessageFilterEEPvPKT_)
    qMetaTypeConstructHelper<QDeclarativeListProperty<QDeclarativeMessageFilterBase>>(const T1*) 0x0000bf89   Thumb Code    82  declarative_messaging.in(t._Z24qMetaTypeConstructHelperI24QDeclarativeListPropertyI29QDeclarativeMessageFilterBaseEEPvPKT_)
    qMetaTypeConstructHelper<QDeclarativeListProperty<QDeclarativeMessageUnionFilter>>(const T1*) 0x0000bfdb   Thumb Code    82  declarative_messaging.in(t._Z24qMetaTypeConstructHelperI24QDeclarativeListPropertyI30QDeclarativeMessageUnionFilterEEPvPKT_)
    qMetaTypeConstructHelper<QDeclarativeListProperty<QDeclarativeMessageIntersectionFilter>>(const T1*) 0x0000c02d   Thumb Code    82  declarative_messaging.in(t._Z24qMetaTypeConstructHelperI24QDeclarativeListPropertyI37QDeclarativeMessageIntersectionFilterEEPvPKT_)
    qMetaTypeConstructHelper<QList<QtMobility::QMessageId>>(const T1*) 0x0000c081   Thumb Code    70  declarative_messaging.in(t._Z24qMetaTypeConstructHelperI5QListIN10QtMobility10QMessageIdEEEPvPKT_)
    qMetaTypeConstructHelper<QtMobility::QMessageId>(const T1*) 0x0000c0db   Thumb Code    48  declarative_messaging.in(t._Z24qMetaTypeConstructHelperIN10QtMobility10QMessageIdEEPvPKT_)
    qMetaTypeConstructHelper<QDeclarativeMessageModel*>(const T1*) 0x0000c11b   Thumb Code    34  declarative_messaging.in(t._Z24qMetaTypeConstructHelperIP24QDeclarativeMessageModelEPvPKT_)
    qMetaTypeConstructHelper<QDeclarativeMessageFilter*>(const T1*) 0x0000c13d   Thumb Code    34  declarative_messaging.in(t._Z24qMetaTypeConstructHelperIP25QDeclarativeMessageFilterEPvPKT_)
    qMetaTypeConstructHelper<QDeclarativeMessageFilterBase*>(const T1*) 0x0000c15f   Thumb Code    34  declarative_messaging.in(t._Z24qMetaTypeConstructHelperIP29QDeclarativeMessageFilterBaseEPvPKT_)
    qMetaTypeConstructHelper<QDeclarativeMessageUnionFilter*>(const T1*) 0x0000c181   Thumb Code    34  declarative_messaging.in(t._Z24qMetaTypeConstructHelperIP30QDeclarativeMessageUnionFilterEPvPKT_)
    qMetaTypeConstructHelper<QDeclarativeMessageIntersectionFilter*>(const T1*) 0x0000c1a3   Thumb Code    34  declarative_messaging.in(t._Z24qMetaTypeConstructHelperIP37QDeclarativeMessageIntersectionFilterEPvPKT_)
    qmlRegisterUncreatableType<QDeclarativeMessageFilterBase>(const char*, int, int, const char*, const QString&) 0x0000c1c5   Thumb Code   190  declarative_messaging.in(t._Z26qmlRegisterUncreatableTypeI29QDeclarativeMessageFilterBaseEiPKciiS2_RK7QString)
    QDeclarativePrivate::createInto<QDeclarativeMessageModel>(void*) 0x0000c2d9   Thumb Code    34  declarative_messaging.in(t._ZN19QDeclarativePrivate10createIntoI24QDeclarativeMessageModelEEvPv)
    QDeclarativePrivate::createInto<QDeclarativeMessageFilter>(void*) 0x0000c30d   Thumb Code    30  declarative_messaging.in(t._ZN19QDeclarativePrivate10createIntoI25QDeclarativeMessageFilterEEvPv)
    QDeclarativePrivate::createInto<QDeclarativeMessageUnionFilter>(void*) 0x0000c33d   Thumb Code    30  declarative_messaging.in(t._ZN19QDeclarativePrivate10createIntoI30QDeclarativeMessageUnionFilterEEvPv)
    QDeclarativePrivate::createInto<QDeclarativeMessageIntersectionFilter>(void*) 0x0000c36d   Thumb Code    30  declarative_messaging.in(t._ZN19QDeclarativePrivate10createIntoI37QDeclarativeMessageIntersectionFilterEEvPv)
    QDeclarativePrivate::QDeclarativeElement<QDeclarativeMessageModel>::~QDeclarativeElement() 0x0000c39d   Thumb Code    26  declarative_messaging.in(t._ZN19QDeclarativePrivate19QDeclarativeElementI24QDeclarativeMessageModelED1Ev)
    QDeclarativePrivate::QDeclarativeElement<QDeclarativeMessageModel>::~QDeclarativeElement__sub_object() 0x0000c39d   Thumb Code     0  declarative_messaging.in(t._ZN19QDeclarativePrivate19QDeclarativeElementI24QDeclarativeMessageModelED1Ev)
    QDeclarativePrivate::QDeclarativeElement<QDeclarativeMessageFilter>::~QDeclarativeElement() 0x0000c3c9   Thumb Code    22  declarative_messaging.in(t._ZN19QDeclarativePrivate19QDeclarativeElementI25QDeclarativeMessageFilterED1Ev)
    QDeclarativePrivate::QDeclarativeElement<QDeclarativeMessageFilter>::~QDeclarativeElement__sub_object() 0x0000c3c9   Thumb Code     0  declarative_messaging.in(t._ZN19QDeclarativePrivate19QDeclarativeElementI25QDeclarativeMessageFilterED1Ev)
    QDeclarativePrivate::QDeclarativeElement<QDeclarativeMessageUnionFilter>::~QDeclarativeElement() 0x0000c3f1   Thumb Code    22  declarative_messaging.in(t._ZN19QDeclarativePrivate19QDeclarativeElementI30QDeclarativeMessageUnionFilterED1Ev)
    QDeclarativePrivate::QDeclarativeElement<QDeclarativeMessageUnionFilter>::~QDeclarativeElement__sub_object() 0x0000c3f1   Thumb Code     0  declarative_messaging.in(t._ZN19QDeclarativePrivate19QDeclarativeElementI30QDeclarativeMessageUnionFilterED1Ev)
    QDeclarativePrivate::QDeclarativeElement<QDeclarativeMessageIntersectionFilter>::~QDeclarativeElement() 0x0000c419   Thumb Code    22  declarative_messaging.in(t._ZN19QDeclarativePrivate19QDeclarativeElementI37QDeclarativeMessageIntersectionFilterED1Ev)
    QDeclarativePrivate::QDeclarativeElement<QDeclarativeMessageIntersectionFilter>::~QDeclarativeElement__sub_object() 0x0000c419   Thumb Code     0  declarative_messaging.in(t._ZN19QDeclarativePrivate19QDeclarativeElementI37QDeclarativeMessageIntersectionFilterED1Ev)
    QDeclarativeListProperty<QDeclarativeMessageFilterBase>::qlist_clear(QDeclarativeListProperty<QDeclarativeMessageFilterBase>*) 0x0000c43f   Thumb Code    64  declarative_messaging.in(t._ZN24QDeclarativeListPropertyI29QDeclarativeMessageFilterBaseE11qlist_clearEPS1_)
    QDeclarativeListProperty<QDeclarativeMessageFilterBase>::qlist_count(QDeclarativeListProperty<QDeclarativeMessageFilterBase>*) 0x0000c489   Thumb Code    10  declarative_messaging.in(t._ZN24QDeclarativeListPropertyI29QDeclarativeMessageFilterBaseE11qlist_countEPS1_)
    QDeclarativeListProperty<QDeclarativeMessageFilterBase>::qlist_append(QDeclarativeListProperty<QDeclarativeMessageFilterBase>*, QDeclarativeMessageFilterBase*) 0x0000c495   Thumb Code    48  declarative_messaging.in(t._ZN24QDeclarativeListPropertyI29QDeclarativeMessageFilterBaseE12qlist_appendEPS1_PS0_)
    QDeclarativeListProperty<QDeclarativeMessageFilterBase>::qlist_at(QDeclarativeListProperty<QDeclarativeMessageFilterBase>*, int) 0x0000c4d3   Thumb Code    12  declarative_messaging.in(t._ZN24QDeclarativeListPropertyI29QDeclarativeMessageFilterBaseE8qlist_atEPS1_i)
    QDeclarativeListProperty<QDeclarativeMessageFilterBase>::QDeclarativeListProperty(QObject*, QList<QDeclarativeMessageFilterBase*>&) 0x0000c4e1   Thumb Code    28  declarative_messaging.in(t._ZN24QDeclarativeListPropertyI29QDeclarativeMessageFilterBaseEC1EP7QObjectR5QListIPS0_E)
    QDeclarativeListProperty<QDeclarativeMessageFilterBase>::QDeclarativeListProperty__sub_object(QObject*, QList<QDeclarativeMessageFilterBase*>&) 0x0000c4e1   Thumb Code     0  declarative_messaging.in(t._ZN24QDeclarativeListPropertyI29QDeclarativeMessageFilterBaseEC1EP7QObjectR5QListIPS0_E)
    QSet<int>::QSet(const QSet<int>&)        0x0000c50d   Thumb Code    78  declarative_messaging.in(t._ZN4QSetIiEC1ERKS0_)
    QSet<int>::QSet__sub_object(const QSet<int>&) 0x0000c50d   Thumb Code     0  declarative_messaging.in(t._ZN4QSetIiEC1ERKS0_)
    QHash<QtMobility::QMessageId, QCache<QtMobility::QMessageId, QtMobility::QMessage>::Node>::deleteNode2(QHashData::Node*) 0x0000c565   Thumb Code    10  declarative_messaging.in(t._ZN5QHashIN10QtMobility10QMessageIdEN6QCacheIS1_NS0_8QMessageEE4NodeEE11deleteNode2EPN9QHashData4NodeE)
    QHash<QtMobility::QMessageId, QCache<QtMobility::QMessageId, QtMobility::QMessage>::Node>::detach_helper() 0x0000c571   Thumb Code    46  declarative_messaging.in(t._ZN5QHashIN10QtMobility10QMessageIdEN6QCacheIS1_NS0_8QMessageEE4NodeEE13detach_helperEv)
    QHash<QtMobility::QMessageId, QCache<QtMobility::QMessageId, QtMobility::QMessage>::Node>::duplicateNode(QHashData::Node*, void*) 0x0000c5a9   Thumb Code    30  declarative_messaging.in(t._ZN5QHashIN10QtMobility10QMessageIdEN6QCacheIS1_NS0_8QMessageEE4NodeEE13duplicateNodeEPN9QHashData4NodeEPv)
    QHash<QtMobility::QMessageId, QCache<QtMobility::QMessageId, QtMobility::QMessage>::Node>::find(const QtMobility::QMessageId&) 0x0000c5d3   Thumb Code    24  declarative_messaging.in(t._ZN5QHashIN10QtMobility10QMessageIdEN6QCacheIS1_NS0_8QMessageEE4NodeEE4findERKS1_)
    QHash<QtMobility::QMessageId, QCache<QtMobility::QMessageId, QtMobility::QMessage>::Node>::detach() 0x0000c5eb   Thumb Code    26  declarative_messaging.in(t._ZN5QHashIN10QtMobility10QMessageIdEN6QCacheIS1_NS0_8QMessageEE4NodeEE6detachEv)
    QHash<QtMobility::QMessageId, QCache<QtMobility::QMessageId, QtMobility::QMessage>::Node>::insert(const QtMobility::QMessageId&, const QCache<QtMobility::QMessageId, QtMobility::QMessage>::Node&) 0x0000c605   Thumb Code   124  declarative_messaging.in(t._ZN5QHashIN10QtMobility10QMessageIdEN6QCacheIS1_NS0_8QMessageEE4NodeEE6insertERKS1_RKS5_)
    QHash<QtMobility::QMessageId, QCache<QtMobility::QMessageId, QtMobility::QMessage>::Node>::remove(const QtMobility::QMessageId&) 0x0000c68d   Thumb Code   186  declarative_messaging.in(t._ZN5QHashIN10QtMobility10QMessageIdEN6QCacheIS1_NS0_8QMessageEE4NodeEE6removeERKS1_)
    QHash<QtMobility::QMessageId, QCache<QtMobility::QMessageId, QtMobility::QMessage>::Node>::freeData(QHashData*) 0x0000c749   Thumb Code    12  declarative_messaging.in(t._ZN5QHashIN10QtMobility10QMessageIdEN6QCacheIS1_NS0_8QMessageEE4NodeEE8freeDataEP9QHashData)
    QHash<QtMobility::QMessageId, QCache<QtMobility::QMessageId, QtMobility::QMessage>::Node>::QHash() 0x0000c759   Thumb Code    18  declarative_messaging.in(t._ZN5QHashIN10QtMobility10QMessageIdEN6QCacheIS1_NS0_8QMessageEE4NodeEEC1Ev)
    QHash<QtMobility::QMessageId, QCache<QtMobility::QMessageId, QtMobility::QMessage>::Node>::QHash__sub_object() 0x0000c759   Thumb Code     0  declarative_messaging.in(t._ZN5QHashIN10QtMobility10QMessageIdEN6QCacheIS1_NS0_8QMessageEE4NodeEEC1Ev)
    QHash<QtMobility::QMessageId, QCache<QtMobility::QMessageId, QtMobility::QMessage>::Node>::~QHash() 0x0000c771   Thumb Code    28  declarative_messaging.in(t._ZN5QHashIN10QtMobility10QMessageIdEN6QCacheIS1_NS0_8QMessageEE4NodeEED1Ev)
    QHash<QtMobility::QMessageId, QCache<QtMobility::QMessageId, QtMobility::QMessage>::Node>::~QHash__sub_object() 0x0000c771   Thumb Code     0  declarative_messaging.in(t._ZN5QHashIN10QtMobility10QMessageIdEN6QCacheIS1_NS0_8QMessageEE4NodeEED1Ev)
    QHash<int, QByteArray>::deleteNode2(QHashData::Node*) 0x0000c78d   Thumb Code    10  declarative_messaging.in(t._ZN5QHashIi10QByteArrayE11deleteNode2EPN9QHashData4NodeE)
    QHash<int, QByteArray>::duplicateNode(QHashData::Node*, void*) 0x0000c797   Thumb Code    30  declarative_messaging.in(t._ZN5QHashIi10QByteArrayE13duplicateNodeEPN9QHashData4NodeEPv)
    QHash<int, QByteArray>::freeData(QHashData*) 0x0000c7c1   Thumb Code    12  declarative_messaging.in(t._ZN5QHashIi10QByteArrayE8freeDataEP9QHashData)
    QHash<int, QByteArray>::~QHash()         0x0000c7d1   Thumb Code    28  declarative_messaging.in(t._ZN5QHashIi10QByteArrayED1Ev)
    QHash<int, QByteArray>::~QHash__sub_object() 0x0000c7d1   Thumb Code     0  declarative_messaging.in(t._ZN5QHashIi10QByteArrayED1Ev)
    QHash<int, QByteArray>::operator [](const int&) 0x0000c7ed   Thumb Code   190  declarative_messaging.in(t._ZN5QHashIi10QByteArrayEixERKi)
    QHash<int, QHashDummyValue>::deleteNode2(QHashData::Node*) 0x0000c8cd   Thumb Code     2  declarative_messaging.in(t._ZN5QHashIi15QHashDummyValueE11deleteNode2EPN9QHashData4NodeE)
    QHash<int, QHashDummyValue>::duplicateNode(QHashData::Node*, void*) 0x0000c8cf   Thumb Code    10  declarative_messaging.in(t._ZN5QHashIi15QHashDummyValueE13duplicateNodeEPN9QHashData4NodeEPv)
    QHash<int, QHashDummyValue>::freeData(QHashData*) 0x0000c8d9   Thumb Code    12  declarative_messaging.in(t._ZN5QHashIi15QHashDummyValueE8freeDataEP9QHashData)
    QHash<int, QHashDummyValue>::~QHash()    0x0000c8e9   Thumb Code    28  declarative_messaging.in(t._ZN5QHashIi15QHashDummyValueED1Ev)
    QHash<int, QHashDummyValue>::~QHash__sub_object() 0x0000c8e9   Thumb Code     0  declarative_messaging.in(t._ZN5QHashIi15QHashDummyValueED1Ev)
    QList<QString>::node_construct(QList<QString>::Node*, const QString&) 0x0000c905   Thumb Code    26  declarative_messaging.in(t._ZN5QListI7QStringE14node_constructEPNS1_4NodeERKS0_)
    QList<QString>::detach_helper_grow(int, int) 0x0000c92b   Thumb Code   186  declarative_messaging.in(t._ZN5QListI7QStringE18detach_helper_growEii)
    QList<QString>::free(QListData::Data*)   0x0000c9ed   Thumb Code    48  declarative_messaging.in(t._ZN5QListI7QStringE4freeEPN9QListData4DataE)
    QList<QString>::append(const QString&)   0x0000ca1d   Thumb Code    94  declarative_messaging.in(t._ZN5QListI7QStringE6appendERKS0_)
    QList<QString>::node_copy(QList<QString>::Node*, QList<QString>::Node*, QList<QString>::Node*) 0x0000ca89   Thumb Code    70  declarative_messaging.in(t._ZN5QListI7QStringE9node_copyEPNS1_4NodeES3_S3_)
    QList<QString>::~QList()                 0x0000cae5   Thumb Code    30  declarative_messaging.in(t._ZN5QListI7QStringED1Ev)
    QList<QString>::~QList__sub_object()     0x0000cae5   Thumb Code     0  declarative_messaging.in(t._ZN5QListI7QStringED1Ev)
    QList<QtMobility::QMessageId>::detach_helper(int) 0x0000cb03   Thumb Code   154  declarative_messaging.in(t._ZN5QListIN10QtMobility10QMessageIdEE13detach_helperEi)
    QList<QtMobility::QMessageId>::detach_helper() 0x0000cbaf   Thumb Code    88  declarative_messaging.in(t._ZN5QListIN10QtMobility10QMessageIdEE13detach_helperEv)
    QList<QtMobility::QMessageId>::node_destruct(QList<QtMobility::QMessageId>::Node*) 0x0000cc0f   Thumb Code    18  declarative_messaging.in(t._ZN5QListIN10QtMobility10QMessageIdEE13node_destructEPNS2_4NodeE)
    QList<QtMobility::QMessageId>::node_destruct(QList<QtMobility::QMessageId>::Node*, QList<QtMobility::QMessageId>::Node*) 0x0000cc21   Thumb Code    30  declarative_messaging.in(t._ZN5QListIN10QtMobility10QMessageIdEE13node_destructEPNS2_4NodeES4_)
    QList<QtMobility::QMessageId>::node_construct(QList<QtMobility::QMessageId>::Node*, const QtMobility::QMessageId&) 0x0000cc3f   Thumb Code    32  declarative_messaging.in(t._ZN5QListIN10QtMobility10QMessageIdEE14node_constructEPNS2_4NodeERKS1_)
    QList<QtMobility::QMessageId>::detach_helper_grow(int, int) 0x0000cc69   Thumb Code   180  declarative_messaging.in(t._ZN5QListIN10QtMobility10QMessageIdEE18detach_helper_growEii)
    QList<QtMobility::QMessageId>::end()     0x0000cd25   Thumb Code    22  declarative_messaging.in(t._ZN5QListIN10QtMobility10QMessageIdEE3endEv)
    QList<QtMobility::QMessageId>::free(QListData::Data*) 0x0000cd3b   Thumb Code    38  declarative_messaging.in(t._ZN5QListIN10QtMobility10QMessageIdEE4freeEPN9QListData4DataE)
    QList<QtMobility::QMessageId>::append(const QtMobility::QMessageId&) 0x0000cd61   Thumb Code    90  declarative_messaging.in(t._ZN5QListIN10QtMobility10QMessageIdEE6appendERKS1_)
    QList<QtMobility::QMessageId>::detach()  0x0000cdc9   Thumb Code    24  declarative_messaging.in(t._ZN5QListIN10QtMobility10QMessageIdEE6detachEv)
    QList<QtMobility::QMessageId>::node_copy(QList<QtMobility::QMessageId>::Node*, QList<QtMobility::QMessageId>::Node*, QList<QtMobility::QMessageId>::Node*) 0x0000cde1   Thumb Code    80  declarative_messaging.in(t._ZN5QListIN10QtMobility10QMessageIdEE9node_copyEPNS2_4NodeES4_S4_)
    QList<QtMobility::QMessageId>::removeAll(const QtMobility::QMessageId&) 0x0000ce45   Thumb Code   112  declarative_messaging.in(t._ZN5QListIN10QtMobility10QMessageIdEE9removeAllERKS1_)
    QList<QtMobility::QMessageId>::QList()   0x0000cec5   Thumb Code    16  declarative_messaging.in(t._ZN5QListIN10QtMobility10QMessageIdEEC1Ev)
    QList<QtMobility::QMessageId>::QList__sub_object() 0x0000cec5   Thumb Code     0  declarative_messaging.in(t._ZN5QListIN10QtMobility10QMessageIdEEC1Ev)
    QList<QtMobility::QMessageId>::~QList()  0x0000ced9   Thumb Code    30  declarative_messaging.in(t._ZN5QListIN10QtMobility10QMessageIdEED1Ev)
    QList<QtMobility::QMessageId>::~QList__sub_object() 0x0000ced9   Thumb Code     0  declarative_messaging.in(t._ZN5QListIN10QtMobility10QMessageIdEED1Ev)
    QList<QtMobility::QMessageAddress>::detach_helper(int) 0x0000cef7   Thumb Code   150  declarative_messaging.in(t._ZN5QListIN10QtMobility15QMessageAddressEE13detach_helperEi)
    QList<QtMobility::QMessageAddress>::free(QListData::Data*) 0x0000cf9f   Thumb Code    54  declarative_messaging.in(t._ZN5QListIN10QtMobility15QMessageAddressEE4freeEPN9QListData4DataE)
    QList<QtMobility::QMessageAddress>::~QList() 0x0000cfd5   Thumb Code    30  declarative_messaging.in(t._ZN5QListIN10QtMobility15QMessageAddressEED1Ev)
    QList<QtMobility::QMessageAddress>::~QList__sub_object() 0x0000cfd5   Thumb Code     0  declarative_messaging.in(t._ZN5QListIN10QtMobility15QMessageAddressEED1Ev)
    QList<QDeclarativeMessageFilterBase*>::detach_helper() 0x0000cff3   Thumb Code    88  declarative_messaging.in(t._ZN5QListIP29QDeclarativeMessageFilterBaseE13detach_helperEv)
    QList<QDeclarativeMessageFilterBase*>::detach_helper_grow(int, int) 0x0000d053   Thumb Code   164  declarative_messaging.in(t._ZN5QListIP29QDeclarativeMessageFilterBaseE18detach_helper_growEii)
    QList<QDeclarativeMessageFilterBase*>::free(QListData::Data*) 0x0000d0ff   Thumb Code    16  declarative_messaging.in(t._ZN5QListIP29QDeclarativeMessageFilterBaseE4freeEPN9QListData4DataE)
    QList<QDeclarativeMessageFilterBase*>::first() 0x0000d10f   Thumb Code    32  declarative_messaging.in(t._ZN5QListIP29QDeclarativeMessageFilterBaseE5firstEv)
    QList<QDeclarativeMessageFilterBase*>::node_copy(QList<QDeclarativeMessageFilterBase*>::Node*, QList<QDeclarativeMessageFilterBase*>::Node*, QList<QDeclarativeMessageFilterBase*>::Node*) 0x0000d12f   Thumb Code    28  declarative_messaging.in(t._ZN5QListIP29QDeclarativeMessageFilterBaseE9node_copyEPNS2_4NodeES4_S4_)
    QList<QDeclarativeMessageFilterBase*>::QList() 0x0000d14d   Thumb Code    16  declarative_messaging.in(t._ZN5QListIP29QDeclarativeMessageFilterBaseEC1Ev)
    QList<QDeclarativeMessageFilterBase*>::QList__sub_object() 0x0000d14d   Thumb Code     0  declarative_messaging.in(t._ZN5QListIP29QDeclarativeMessageFilterBaseEC1Ev)
    QList<QDeclarativeMessageFilterBase*>::~QList() 0x0000d161   Thumb Code    30  declarative_messaging.in(t._ZN5QListIP29QDeclarativeMessageFilterBaseED1Ev)
    QList<QDeclarativeMessageFilterBase*>::~QList__sub_object() 0x0000d161   Thumb Code     0  declarative_messaging.in(t._ZN5QListIP29QDeclarativeMessageFilterBaseED1Ev)
    QCache<QtMobility::QMessageId, QtMobility::QMessage>::clear() 0x0000d17f   Thumb Code   104  declarative_messaging.in(t._ZN6QCacheIN10QtMobility10QMessageIdENS0_8QMessageEE5clearEv)
    QCache<QtMobility::QMessageId, QtMobility::QMessage>::insert(const QtMobility::QMessageId&, QtMobility::QMessage*, int) 0x0000d1f1   Thumb Code   138  declarative_messaging.in(t._ZN6QCacheIN10QtMobility10QMessageIdENS0_8QMessageEE6insertERKS1_PS2_i)
    QCache<QtMobility::QMessageId, QtMobility::QMessage>::remove(const QtMobility::QMessageId&) 0x0000d27b   Thumb Code    50  declarative_messaging.in(t._ZN6QCacheIN10QtMobility10QMessageIdENS0_8QMessageEE6removeERKS1_)
    QCache<QtMobility::QMessageId, QtMobility::QMessage>::unlink(QCache<QtMobility::QMessageId, QtMobility::QMessage>::Node&) 0x0000d2ad   Thumb Code    72  declarative_messaging.in(t._ZN6QCacheIN10QtMobility10QMessageIdENS0_8QMessageEE6unlinkERNS3_4NodeE)
    QCache<QtMobility::QMessageId, QtMobility::QMessage>::~QCache() 0x0000d2f5   Thumb Code    20  declarative_messaging.in(t._ZN6QCacheIN10QtMobility10QMessageIdENS0_8QMessageEED1Ev)
    QCache<QtMobility::QMessageId, QtMobility::QMessage>::~QCache__sub_object() 0x0000d2f5   Thumb Code     0  declarative_messaging.in(t._ZN6QCacheIN10QtMobility10QMessageIdENS0_8QMessageEED1Ev)
    QPointer<QObject>::~QPointer()           0x0000d313   Thumb Code    12  declarative_messaging.in(t._ZN8QPointerI7QObjectED1Ev)
    QPointer<QObject>::~QPointer__sub_object() 0x0000d313   Thumb Code     0  declarative_messaging.in(t._ZN8QPointerI7QObjectED1Ev)
    QHashNode<QtMobility::QMessageId, QCache<QtMobility::QMessageId, QtMobility::QMessage>::Node>::QHashNode(const QtMobility::QMessageId&, const QCache<QtMobility::QMessageId, QtMobility::QMessage>::Node&) 0x0000d31f   Thumb Code    34  declarative_messaging.in(t._ZN9QHashNodeIN10QtMobility10QMessageIdEN6QCacheIS1_NS0_8QMessageEE4NodeEEC1ERKS1_RKS5_)
    QHashNode<QtMobility::QMessageId, QCache<QtMobility::QMessageId, QtMobility::QMessage>::Node>::QHashNode__sub_object(const QtMobility::QMessageId&, const QCache<QtMobility::QMessageId, QtMobility::QMessage>::Node&) 0x0000d31f   Thumb Code     0  declarative_messaging.in(t._ZN9QHashNodeIN10QtMobility10QMessageIdEN6QCacheIS1_NS0_8QMessageEE4NodeEEC1ERKS1_RKS5_)
    QHashNode<int, QByteArray>::QHashNode(int, const QByteArray&) 0x0000d341   Thumb Code    20  declarative_messaging.in(t._ZN9QHashNodeIi10QByteArrayEC1EiRKS0_)
    QHashNode<int, QByteArray>::QHashNode__sub_object(int, const QByteArray&) 0x0000d341   Thumb Code     0  declarative_messaging.in(t._ZN9QHashNodeIi10QByteArrayEC1EiRKS0_)
    QHash<QtMobility::QMessageId, QCache<QtMobility::QMessageId, QtMobility::QMessage>::Node>::const_iterator::operator ==(const QHash<QtMobility::QMessageId, QCache<QtMobility::QMessageId, QtMobility::QMessage>::Node>::const_iterator&) const 0x0000d355   Thumb Code    16  declarative_messaging.in(t._ZNK5QHashIN10QtMobility10QMessageIdEN6QCacheIS1_NS0_8QMessageEE4NodeEE14const_iteratoreqERKS7_)
    QHash<QtMobility::QMessageId, QCache<QtMobility::QMessageId, QtMobility::QMessage>::Node>::findNode(const QtMobility::QMessageId&, unsigned*) const 0x0000d365   Thumb Code    90  declarative_messaging.in(t._ZNK5QHashIN10QtMobility10QMessageIdEN6QCacheIS1_NS0_8QMessageEE4NodeEE8findNodeERKS1_Pj)
    QHash<int, QByteArray>::findNode(const int&, unsigned*) const 0x0000d3bf   Thumb Code    50  declarative_messaging.in(t._ZNK5QHashIi10QByteArrayE8findNodeERKiPj)
    QList<QtMobility::QMessageId>::at(int) const 0x0000d3f1   Thumb Code    10  declarative_messaging.in(t._ZNK5QListIN10QtMobility10QMessageIdEE2atEi)
    QList<QtMobility::QMessageId>::count() const 0x0000d3fb   Thumb Code    10  declarative_messaging.in(t._ZNK5QListIN10QtMobility10QMessageIdEE5countEv)
    QList<QDeclarativeMessageFilterBase*>::at(int) const 0x0000d405   Thumb Code    16  declarative_messaging.in(t._ZNK5QListIP29QDeclarativeMessageFilterBaseE2atEi)
    QList<QDeclarativeMessageFilterBase*>::count() const 0x0000d415   Thumb Code    10  declarative_messaging.in(t._ZNK5QListIP29QDeclarativeMessageFilterBaseE5countEv)
    QCache<QtMobility::QMessageId, QtMobility::QMessage>::object(const QtMobility::QMessageId&) const 0x0000d41f   Thumb Code    92  declarative_messaging.in(t._ZNK6QCacheIN10QtMobility10QMessageIdENS0_8QMessageEE6objectERKS1_)
    QCache<QtMobility::QMessageId, QtMobility::QMessage>::contains(const QtMobility::QMessageId&) const 0x0000d47b   Thumb Code    30  declarative_messaging.in(t._ZNK6QCacheIN10QtMobility10QMessageIdENS0_8QMessageEE8containsERKS1_)
    QDeclarativeMessageFilterBase::staticMetaObject 0x0000e70c   Data          16  declarative_messaging.in(.constdata)
    QDeclarativeMessageIntersectionFilter::staticMetaObject 0x0000e71c   Data          16  declarative_messaging.in(.constdata)
    QDeclarativeMessageUnionFilter::staticMetaObject 0x0000e72c   Data          16  declarative_messaging.in(.constdata)
    QDeclarativeMessageFilter::staticMetaObject 0x0000e73c   Data          16  declarative_messaging.in(.constdata)
    QDeclarativeMessageModel::staticMetaObject 0x0000ec5c   Data          16  declarative_messaging.in(.constdata)
    MessageModelWorker::staticMetaObject     0x0000f188   Data          16  declarative_messaging.in(.constdata)
    QDeclarativeMessageModelPlugin::staticMetaObject 0x0000f56c   Data          16  declarative_messaging.in(.constdata)
    typeinfo for MessageModelWorker          0x0000f5b8   Data          12  declarative_messaging.in(.constdata__ZTI18MessageModelWorker)
    typeinfo for QDeclarativeMessageModel    0x0000f5c4   Data          32  declarative_messaging.in(.constdata__ZTI24QDeclarativeMessageModel)
    typeinfo for QDeclarativeMessageFilter   0x0000f5e4   Data          12  declarative_messaging.in(.constdata__ZTI25QDeclarativeMessageFilter)
    typeinfo for QDeclarativeMessageFilterBase 0x0000f5f0   Data          12  declarative_messaging.in(.constdata__ZTI29QDeclarativeMessageFilterBase)
    typeinfo for QDeclarativeMessageModelPlugin 0x0000f5fc   Data          12  declarative_messaging.in(.constdata__ZTI30QDeclarativeMessageModelPlugin)
    typeinfo for QDeclarativeMessageUnionFilter 0x0000f608   Data          12  declarative_messaging.in(.constdata__ZTI30QDeclarativeMessageUnionFilter)
    typeinfo for QDeclarativeMessageIntersectionFilter 0x0000f614   Data          12  declarative_messaging.in(.constdata__ZTI37QDeclarativeMessageIntersectionFilter)
    typeinfo for QDeclarativePrivate::QDeclarativeElement<QDeclarativeMessageModel> 0x0000f620   Data          12  declarative_messaging.in(.constdata__ZTIN19QDeclarativePrivate19QDeclarativeElementI24QDeclarativeMessageModelEE)
    typeinfo for QDeclarativePrivate::QDeclarativeElement<QDeclarativeMessageFilter> 0x0000f62c   Data          12  declarative_messaging.in(.constdata__ZTIN19QDeclarativePrivate19QDeclarativeElementI25QDeclarativeMessageFilterEE)
    typeinfo for QDeclarativePrivate::QDeclarativeElement<QDeclarativeMessageUnionFilter> 0x0000f638   Data          12  declarative_messaging.in(.constdata__ZTIN19QDeclarativePrivate19QDeclarativeElementI30QDeclarativeMessageUnionFilterEE)
    typeinfo for QDeclarativePrivate::QDeclarativeElement<QDeclarativeMessageIntersectionFilter> 0x0000f644   Data          12  declarative_messaging.in(.constdata__ZTIN19QDeclarativePrivate19QDeclarativeElementI37QDeclarativeMessageIntersectionFilterEE)
    typeinfo for std::bad_alloc              0x0000f650   Data          12  declarative_messaging.in(.constdata__ZTISt9bad_alloc)
    typeinfo name for MessageModelWorker     0x0000f65c   Data          21  declarative_messaging.in(.constdata__ZTS18MessageModelWorker)
    typeinfo name for QDeclarativeMessageModel 0x0000f671   Data          27  declarative_messaging.in(.constdata__ZTS24QDeclarativeMessageModel)
    typeinfo name for QDeclarativeMessageFilter 0x0000f68c   Data          28  declarative_messaging.in(.constdata__ZTS25QDeclarativeMessageFilter)
    typeinfo name for QDeclarativeMessageFilterBase 0x0000f6a8   Data          32  declarative_messaging.in(.constdata__ZTS29QDeclarativeMessageFilterBase)
    typeinfo name for QDeclarativeMessageModelPlugin 0x0000f6c8   Data          33  declarative_messaging.in(.constdata__ZTS30QDeclarativeMessageModelPlugin)
    typeinfo name for QDeclarativeMessageUnionFilter 0x0000f6e9   Data          33  declarative_messaging.in(.constdata__ZTS30QDeclarativeMessageUnionFilter)
    typeinfo name for QDeclarativeMessageIntersectionFilter 0x0000f70a   Data          40  declarative_messaging.in(.constdata__ZTS37QDeclarativeMessageIntersectionFilter)
    typeinfo name for QDeclarativePrivate::QDeclarativeElement<QDeclarativeMessageModel> 0x0000f732   Data          73  declarative_messaging.in(.constdata__ZTSN19QDeclarativePrivate19QDeclarativeElementI24QDeclarativeMessageModelEE)
    typeinfo name for QDeclarativePrivate::QDeclarativeElement<QDeclarativeMessageFilter> 0x0000f77b   Data          74  declarative_messaging.in(.constdata__ZTSN19QDeclarativePrivate19QDeclarativeElementI25QDeclarativeMessageFilterEE)
    typeinfo name for QDeclarativePrivate::QDeclarativeElement<QDeclarativeMessageUnionFilter> 0x0000f7c5   Data          79  declarative_messaging.in(.constdata__ZTSN19QDeclarativePrivate19QDeclarativeElementI30QDeclarativeMessageUnionFilterEE)
    typeinfo name for QDeclarativePrivate::QDeclarativeElement<QDeclarativeMessageIntersectionFilter> 0x0000f814   Data          86  declarative_messaging.in(.constdata__ZTSN19QDeclarativePrivate19QDeclarativeElementI37QDeclarativeMessageIntersectionFilterEE)
    typeinfo name for std::bad_alloc         0x0000f86a   Data          13  declarative_messaging.in(.constdata__ZTSSt9bad_alloc)
    vtable for MessageModelWorker            0x0000f878   Data          56  declarative_messaging.in(.constdata__ZTV18MessageModelWorker)
    vtable for QDeclarativeMessageModel      0x0000f8b0   Data         200  declarative_messaging.in(.constdata__ZTV24QDeclarativeMessageModel)
    vtable for QDeclarativeMessageFilter     0x0000f978   Data          60  declarative_messaging.in(.constdata__ZTV25QDeclarativeMessageFilter)
    vtable for QDeclarativeMessageFilterBase 0x0000f9b4   Data          60  declarative_messaging.in(.constdata__ZTV29QDeclarativeMessageFilterBase)
    vtable for QDeclarativeMessageModelPlugin 0x0000f9f0   Data          88  declarative_messaging.in(.constdata__ZTV30QDeclarativeMessageModelPlugin)
    vtable for QDeclarativeMessageUnionFilter 0x0000fa48   Data          60  declarative_messaging.in(.constdata__ZTV30QDeclarativeMessageUnionFilter)
    vtable for QDeclarativeMessageIntersectionFilter 0x0000fa84   Data          60  declarative_messaging.in(.constdata__ZTV37QDeclarativeMessageIntersectionFilter)
    vtable for QDeclarativePrivate::QDeclarativeElement<QDeclarativeMessageModel> 0x0000fac0   Data         200  declarative_messaging.in(.constdata__ZTVN19QDeclarativePrivate19QDeclarativeElementI24QDeclarativeMessageModelEE)
    vtable for QDeclarativePrivate::QDeclarativeElement<QDeclarativeMessageFilter> 0x0000fb88   Data          60  declarative_messaging.in(.constdata__ZTVN19QDeclarativePrivate19QDeclarativeElementI25QDeclarativeMessageFilterEE)
    vtable for QDeclarativePrivate::QDeclarativeElement<QDeclarativeMessageUnionFilter> 0x0000fbc4   Data          60  declarative_messaging.in(.constdata__ZTVN19QDeclarativePrivate19QDeclarativeElementI30QDeclarativeMessageUnionFilterEE)
    vtable for QDeclarativePrivate::QDeclarativeElement<QDeclarativeMessageIntersectionFilter> 0x0000fc00   Data          60  declarative_messaging.in(.constdata__ZTVN19QDeclarativePrivate19QDeclarativeElementI37QDeclarativeMessageIntersectionFilterEE)
    .ARM.exidx$$Base                         0x0000fdb8   Number         0  ucppinit_aeabi.o(.ARM.exidx)
    .ARM.exidx$$Limit                        0x000104b0   Number         0  declarative_messaging.in(.ARM.exidx)
    Image$$ER_RO$$Limit                      0x000104b0   Number         0  anon$$obj.o(linker$$defined$$symbols)
    __dso_handle                             0x00400008   Data           4  ucppfini.o(.data)
    QMetaTypeId<QDeclarativeListProperty<QDeclarativeMessageModel>>::qt_metatype_id()::metatype_id 0x0040000c   Data           4  declarative_messaging.in(.data__ZZN11QMetaTypeIdI24QDeclarativeListPropertyI24QDeclarativeMessageModelEE14qt_metatype_idEvE11metatype_id)
    QMetaTypeId<QDeclarativeListProperty<QDeclarativeMessageFilter>>::qt_metatype_id()::metatype_id 0x00400010   Data           4  declarative_messaging.in(.data__ZZN11QMetaTypeIdI24QDeclarativeListPropertyI25QDeclarativeMessageFilterEE14qt_metatype_idEvE11metatype_id)
    QMetaTypeId<QDeclarativeListProperty<QDeclarativeMessageFilterBase>>::qt_metatype_id()::metatype_id 0x00400014   Data           4  declarative_messaging.in(.data__ZZN11QMetaTypeIdI24QDeclarativeListPropertyI29QDeclarativeMessageFilterBaseEE14qt_metatype_idEvE11metatype_id)
    QMetaTypeId<QDeclarativeListProperty<QDeclarativeMessageUnionFilter>>::qt_metatype_id()::metatype_id 0x00400018   Data           4  declarative_messaging.in(.data__ZZN11QMetaTypeIdI24QDeclarativeListPropertyI30QDeclarativeMessageUnionFilterEE14qt_metatype_idEvE11metatype_id)
    QMetaTypeId<QDeclarativeListProperty<QDeclarativeMessageIntersectionFilter>>::qt_metatype_id()::metatype_id 0x0040001c   Data           4  declarative_messaging.in(.data__ZZN11QMetaTypeIdI24QDeclarativeListPropertyI37QDeclarativeMessageIntersectionFilterEE14qt_metatype_idEvE11metatype_id)
    QMetaTypeId<QtMobility::QMessageId>::qt_metatype_id()::metatype_id 0x00400020   Data           4  declarative_messaging.in(.data__ZZN11QMetaTypeIdIN10QtMobility10QMessageIdEE14qt_metatype_idEvE11metatype_id)
    QMetaTypeId<QDeclarativeMessageModel*>::qt_metatype_id()::metatype_id 0x00400024   Data           4  declarative_messaging.in(.data__ZZN11QMetaTypeIdIP24QDeclarativeMessageModelE14qt_metatype_idEvE11metatype_id)
    QMetaTypeId<QDeclarativeMessageFilter*>::qt_metatype_id()::metatype_id 0x00400028   Data           4  declarative_messaging.in(.data__ZZN11QMetaTypeIdIP25QDeclarativeMessageFilterE14qt_metatype_idEvE11metatype_id)
    QMetaTypeId<QDeclarativeMessageFilterBase*>::qt_metatype_id()::metatype_id 0x0040002c   Data           4  declarative_messaging.in(.data__ZZN11QMetaTypeIdIP29QDeclarativeMessageFilterBaseE14qt_metatype_idEvE11metatype_id)
    QMetaTypeId<QDeclarativeMessageUnionFilter*>::qt_metatype_id()::metatype_id 0x00400030   Data           4  declarative_messaging.in(.data__ZZN11QMetaTypeIdIP30QDeclarativeMessageUnionFilterE14qt_metatype_idEvE11metatype_id)
    QMetaTypeId<QDeclarativeMessageIntersectionFilter*>::qt_metatype_id()::metatype_id 0x00400034   Data           4  declarative_messaging.in(.data__ZZN11QMetaTypeIdIP37QDeclarativeMessageIntersectionFilterE14qt_metatype_idEvE11metatype_id)

