ARM Linker, RVCT2.2 [Build 686]

================================================================================

Image Symbol Table

    Local Symbols

    Symbol Name                              Value     Ov Type        Size  Object(Section)

    [Anonymous Symbol]                       0x00000000   Number         0  euser{000a0000}-120.o ABSOLUTE
    [Anonymous Symbol]                       0x00000000   Number         0  QtGui{00040703}-5733.o ABSOLUTE
    [Anonymous Symbol]                       0x00000000   Number         0  euser{000a0000}-262.o ABSOLUTE
    [Anonymous Symbol]                       0x00000000   Number         0  euser{000a0000}-1246.o ABSOLUTE
    [Anonymous Symbol]                       0x00000000   Number         0  QtGui{00040703}-5735.o ABSOLUTE
    [Anonymous Symbol]                       0x00000000   Number         0  euser{000a0000}-424.o ABSOLUTE
    [Anonymous Symbol]                       0x00000000   Number         0  euser{000a0000}-1253.o ABSOLUTE
    [Anonymous Symbol]                       0x00000000   Number         0  QtGui{00040703}-5748.o ABSOLUTE
    [Anonymous Symbol]                       0x00000000   Number         0  euser{000a0000}-505.o ABSOLUTE
    [Anonymous Symbol]                       0x00000000   Number         0  euser{000a0000}-1324.o ABSOLUTE
    [Anonymous Symbol]                       0x00000000   Number         0  QtGui{00040703}-6043.o ABSOLUTE
    [Anonymous Symbol]                       0x00000000   Number         0  euser{000a0000}-507.o ABSOLUTE
    [Anonymous Symbol]                       0x00000000   Number         0  euser{000a0000}-1326.o ABSOLUTE
    [Anonymous Symbol]                       0x00000000   Number         0  QtGui{00040703}-6063.o ABSOLUTE
    [Anonymous Symbol]                       0x00000000   Number         0  euser{000a0000}-508.o ABSOLUTE
    [Anonymous Symbol]                       0x00000000   Number         0  euser{000a0000}-1355.o ABSOLUTE
    [Anonymous Symbol]                       0x00000000   Number         0  QtGui{00040703}-9807.o ABSOLUTE
    [Anonymous Symbol]                       0x00000000   Number         0  euser{000a0000}-586.o ABSOLUTE
    [Anonymous Symbol]                       0x00000000   Number         0  euser{000a0000}-1483.o ABSOLUTE
    [Anonymous Symbol]                       0x00000000   Number         0  QtGui{00040703}-9810.o ABSOLUTE
    [Anonymous Symbol]                       0x00000000   Number         0  euser{000a0000}-593.o ABSOLUTE
    [Anonymous Symbol]                       0x00000000   Number         0  euser{000a0000}-1547.o ABSOLUTE
    [Anonymous Symbol]                       0x00000000   Number         0  QtGui{00040703}-9820.o ABSOLUTE
    [Anonymous Symbol]                       0x00000000   Number         0  euser{000a0000}-604.o ABSOLUTE
    [Anonymous Symbol]                       0x00000000   Number         0  euser{000a0000}-1553.o ABSOLUTE
    [Anonymous Symbol]                       0x00000000   Number         0  QtGui{00040703}-9981.o ABSOLUTE
    [Anonymous Symbol]                       0x00000000   Number         0  euser{000a0000}-617.o ABSOLUTE
    [Anonymous Symbol]                       0x00000000   Number         0  euser{000a0000}-1601.o ABSOLUTE
    [Anonymous Symbol]                       0x00000000   Number         0  QtCore{00040703}-1493.o ABSOLUTE
    [Anonymous Symbol]                       0x00000000   Number         0  euser{000a0000}-649.o ABSOLUTE
    [Anonymous Symbol]                       0x00000000   Number         0  euser{000a0000}-1602.o ABSOLUTE
    [Anonymous Symbol]                       0x00000000   Number         0  QtCore{00040703}-1523.o ABSOLUTE
    [Anonymous Symbol]                       0x00000000   Number         0  euser{000a0000}-652.o ABSOLUTE
    [Anonymous Symbol]                       0x00000000   Number         0  euser{000a0000}-1618.o ABSOLUTE
    [Anonymous Symbol]                       0x00000000   Number         0  QtCore{00040703}-1525.o ABSOLUTE
    [Anonymous Symbol]                       0x00000000   Number         0  euser{000a0000}-654.o ABSOLUTE
    [Anonymous Symbol]                       0x00000000   Number         0  euser{000a0000}-1622.o ABSOLUTE
    [Anonymous Symbol]                       0x00000000   Number         0  QtCore{00040703}-1526.o ABSOLUTE
    [Anonymous Symbol]                       0x00000000   Number         0  euser{000a0000}-669.o ABSOLUTE
    [Anonymous Symbol]                       0x00000000   Number         0  euser{000a0000}-1678.o ABSOLUTE
    [Anonymous Symbol]                       0x00000000   Number         0  QtCore{00040703}-1531.o ABSOLUTE
    [Anonymous Symbol]                       0x00000000   Number         0  euser{000a0000}-670.o ABSOLUTE
    [Anonymous Symbol]                       0x00000000   Number         0  euser{000a0000}-1679.o ABSOLUTE
    [Anonymous Symbol]                       0x00000000   Number         0  QtCore{00040703}-1559.o ABSOLUTE
    [Anonymous Symbol]                       0x00000000   Number         0  euser{000a0000}-671.o ABSOLUTE
    [Anonymous Symbol]                       0x00000000   Number         0  euser{000a0000}-1719.o ABSOLUTE
    [Anonymous Symbol]                       0x00000000   Number         0  QtCore{00040703}-1560.o ABSOLUTE
    [Anonymous Symbol]                       0x00000000   Number         0  euser{000a0000}-81.o ABSOLUTE
    [Anonymous Symbol]                       0x00000000   Number         0  euser{000a0000}-1806.o ABSOLUTE
    [Anonymous Symbol]                       0x00000000   Number         0  QtCore{00040703}-1582.o ABSOLUTE
    [Anonymous Symbol]                       0x00000000   Number         0  euser{000a0000}-816.o ABSOLUTE
    [Anonymous Symbol]                       0x00000000   Number         0  euser{000a0000}-1807.o ABSOLUTE
    [Anonymous Symbol]                       0x00000000   Number         0  QtCore{00040703}-160.o ABSOLUTE
    [Anonymous Symbol]                       0x00000000   Number         0  euser{000a0000}-953.o ABSOLUTE
    [Anonymous Symbol]                       0x00000000   Number         0  euser{000a0000}-1813.o ABSOLUTE
    [Anonymous Symbol]                       0x00000000   Number         0  QtCore{00040703}-1706.o ABSOLUTE
    [Anonymous Symbol]                       0x00000000   Number         0  euser{000a0000}-966.o ABSOLUTE
    [Anonymous Symbol]                       0x00000000   Number         0  euser{000a0000}-1821.o ABSOLUTE
    [Anonymous Symbol]                       0x00000000   Number         0  QtCore{00040703}-1760.o ABSOLUTE
    [Anonymous Symbol]                       0x00000000   Number         0  euser{000a0000}-972.o ABSOLUTE
    [Anonymous Symbol]                       0x00000000   Number         0  euser{000a0000}-1842.o ABSOLUTE
    [Anonymous Symbol]                       0x00000000   Number         0  QtCore{00040703}-1763.o ABSOLUTE
    [Anonymous Symbol]                       0x00000000   Number         0  euser{000a0000}-973.o ABSOLUTE
    [Anonymous Symbol]                       0x00000000   Number         0  euser{000a0000}-1844.o ABSOLUTE
    [Anonymous Symbol]                       0x00000000   Number         0  QtCore{00040703}-1764.o ABSOLUTE
    [Anonymous Symbol]                       0x00000000   Number         0  QtContacts{00010103}-585.o ABSOLUTE
    [Anonymous Symbol]                       0x00000000   Number         0  euser{000a0000}-202.o ABSOLUTE
    [Anonymous Symbol]                       0x00000000   Number         0  QtCore{00040703}-1766.o ABSOLUTE
    [Anonymous Symbol]                       0x00000000   Number         0  QtContacts{00010103}-586.o ABSOLUTE
    [Anonymous Symbol]                       0x00000000   Number         0  euser{000a0000}-203.o ABSOLUTE
    [Anonymous Symbol]                       0x00000000   Number         0  QtCore{00040703}-1767.o ABSOLUTE
    [Anonymous Symbol]                       0x00000000   Number         0  QtContacts{00010103}-587.o ABSOLUTE
    [Anonymous Symbol]                       0x00000000   Number         0  euser{000a0000}-205.o ABSOLUTE
    [Anonymous Symbol]                       0x00000000   Number         0  QtCore{00040703}-1768.o ABSOLUTE
    [Anonymous Symbol]                       0x00000000   Number         0  QtContacts{00010103}-590.o ABSOLUTE
    [Anonymous Symbol]                       0x00000000   Number         0  euser{000a0000}-2060.o ABSOLUTE
    [Anonymous Symbol]                       0x00000000   Number         0  QtCore{00040703}-1773.o ABSOLUTE
    [Anonymous Symbol]                       0x00000000   Number         0  QtContacts{00010103}-592.o ABSOLUTE
    [Anonymous Symbol]                       0x00000000   Number         0  euser{000a0000}-2061.o ABSOLUTE
    [Anonymous Symbol]                       0x00000000   Number         0  QtCore{00040703}-1777.o ABSOLUTE
    [Anonymous Symbol]                       0x00000000   Number         0  QtContacts{00010103}-593.o ABSOLUTE
    [Anonymous Symbol]                       0x00000000   Number         0  euser{000a0000}-208.o ABSOLUTE
    [Anonymous Symbol]                       0x00000000   Number         0  QtCore{00040703}-1784.o ABSOLUTE
    [Anonymous Symbol]                       0x00000000   Number         0  QtContacts{00010103}-594.o ABSOLUTE
    [Anonymous Symbol]                       0x00000000   Number         0  euser{000a0000}-2082.o ABSOLUTE
    [Anonymous Symbol]                       0x00000000   Number         0  QtCore{00040703}-1785.o ABSOLUTE
    [Anonymous Symbol]                       0x00000000   Number         0  QtContacts{00010103}-595.o ABSOLUTE
    [Anonymous Symbol]                       0x00000000   Number         0  euser{000a0000}-209.o ABSOLUTE
    [Anonymous Symbol]                       0x00000000   Number         0  QtCore{00040703}-1789.o ABSOLUTE
    [Anonymous Symbol]                       0x00000000   Number         0  QtContacts{00010103}-596.o ABSOLUTE
    [Anonymous Symbol]                       0x00000000   Number         0  euser{000a0000}-2106.o ABSOLUTE
    [Anonymous Symbol]                       0x00000000   Number         0  QtCore{00040703}-1794.o ABSOLUTE
    [Anonymous Symbol]                       0x00000000   Number         0  QtContacts{00010103}-598.o ABSOLUTE
    [Anonymous Symbol]                       0x00000000   Number         0  euser{000a0000}-2107.o ABSOLUTE
    [Anonymous Symbol]                       0x00000000   Number         0  QtCore{00040703}-1814.o ABSOLUTE
    [Anonymous Symbol]                       0x00000000   Number         0  QtContacts{00010103}-599.o ABSOLUTE
    [Anonymous Symbol]                       0x00000000   Number         0  euser{000a0000}-211.o ABSOLUTE
    [Anonymous Symbol]                       0x00000000   Number         0  QtCore{00040703}-1825.o ABSOLUTE
    [Anonymous Symbol]                       0x00000000   Number         0  QtContacts{00010103}-601.o ABSOLUTE
    [Anonymous Symbol]                       0x00000000   Number         0  euser{000a0000}-2123.o ABSOLUTE
    [Anonymous Symbol]                       0x00000000   Number         0  QtCore{00040703}-1826.o ABSOLUTE
    [Anonymous Symbol]                       0x00000000   Number         0  QtContacts{00010103}-602.o ABSOLUTE
    [Anonymous Symbol]                       0x00000000   Number         0  euser{000a0000}-2128.o ABSOLUTE
    [Anonymous Symbol]                       0x00000000   Number         0  QtCore{00040703}-1830.o ABSOLUTE
    [Anonymous Symbol]                       0x00000000   Number         0  QtContacts{00010103}-603.o ABSOLUTE
    [Anonymous Symbol]                       0x00000000   Number         0  euser{000a0000}-241.o ABSOLUTE
    [Anonymous Symbol]                       0x00000000   Number         0  QtCore{00040703}-1831.o ABSOLUTE
    [Anonymous Symbol]                       0x00000000   Number         0  QtContacts{00010103}-604.o ABSOLUTE
    [Anonymous Symbol]                       0x00000000   Number         0  euser{000a0000}-247.o ABSOLUTE
    [Anonymous Symbol]                       0x00000000   Number         0  QtCore{00040703}-1833.o ABSOLUTE
    [Anonymous Symbol]                       0x00000000   Number         0  QtContacts{00010103}-609.o ABSOLUTE
    [Anonymous Symbol]                       0x00000000   Number         0  euser{000a0000}-250.o ABSOLUTE
    [Anonymous Symbol]                       0x00000000   Number         0  QtCore{00040703}-1836.o ABSOLUTE
    [Anonymous Symbol]                       0x00000000   Number         0  QtContacts{00010103}-614.o ABSOLUTE
    [Anonymous Symbol]                       0x00000000   Number         0  euser{000a0000}-254.o ABSOLUTE
    [Anonymous Symbol]                       0x00000000   Number         0  QtCore{00040703}-1838.o ABSOLUTE
    [Anonymous Symbol]                       0x00000000   Number         0  QtContacts{00010103}-615.o ABSOLUTE
    [Anonymous Symbol]                       0x00000000   Number         0  euser{000a0000}-257.o ABSOLUTE
    [Anonymous Symbol]                       0x00000000   Number         0  QtCore{00040703}-1841.o ABSOLUTE
    [Anonymous Symbol]                       0x00000000   Number         0  QtContacts{00010103}-616.o ABSOLUTE
    [Anonymous Symbol]                       0x00000000   Number         0  euser{000a0000}-259.o ABSOLUTE
    [Anonymous Symbol]                       0x00000000   Number         0  QtCore{00040703}-1855.o ABSOLUTE
    [Anonymous Symbol]                       0x00000000   Number         0  QtContacts{00010103}-619.o ABSOLUTE
    [Anonymous Symbol]                       0x00000000   Number         0  QtCore{00040703}-3052.o ABSOLUTE
    [Anonymous Symbol]                       0x00000000   Number         0  QtCore{00040703}-1865.o ABSOLUTE
    [Anonymous Symbol]                       0x00000000   Number         0  QtContacts{00010103}-62.o ABSOLUTE
    [Anonymous Symbol]                       0x00000000   Number         0  QtCore{00040703}-3053.o ABSOLUTE
    [Anonymous Symbol]                       0x00000000   Number         0  QtCore{00040703}-1874.o ABSOLUTE
    [Anonymous Symbol]                       0x00000000   Number         0  QtContacts{00010103}-621.o ABSOLUTE
    [Anonymous Symbol]                       0x00000000   Number         0  QtCore{00040703}-3055.o ABSOLUTE
    [Anonymous Symbol]                       0x00000000   Number         0  QtCore{00040703}-1875.o ABSOLUTE
    [Anonymous Symbol]                       0x00000000   Number         0  QtContacts{00010103}-622.o ABSOLUTE
    [Anonymous Symbol]                       0x00000000   Number         0  QtCore{00040703}-3059.o ABSOLUTE
    [Anonymous Symbol]                       0x00000000   Number         0  QtCore{00040703}-1885.o ABSOLUTE
    [Anonymous Symbol]                       0x00000000   Number         0  QtContacts{00010103}-627.o ABSOLUTE
    [Anonymous Symbol]                       0x00000000   Number         0  QtCore{00040703}-3060.o ABSOLUTE
    [Anonymous Symbol]                       0x00000000   Number         0  QtCore{00040703}-1947.o ABSOLUTE
    [Anonymous Symbol]                       0x00000000   Number         0  QtContacts{00010103}-634.o ABSOLUTE
    [Anonymous Symbol]                       0x00000000   Number         0  QtCore{00040703}-3064.o ABSOLUTE
    [Anonymous Symbol]                       0x00000000   Number         0  QtCore{00040703}-1949.o ABSOLUTE
    [Anonymous Symbol]                       0x00000000   Number         0  QtContacts{00010103}-636.o ABSOLUTE
    [Anonymous Symbol]                       0x00000000   Number         0  QtCore{00040703}-3071.o ABSOLUTE
    [Anonymous Symbol]                       0x00000000   Number         0  QtCore{00040703}-2015.o ABSOLUTE
    [Anonymous Symbol]                       0x00000000   Number         0  QtContacts{00010103}-64.o ABSOLUTE
    [Anonymous Symbol]                       0x00000000   Number         0  QtCore{00040703}-3073.o ABSOLUTE
    [Anonymous Symbol]                       0x00000000   Number         0  QtCore{00040703}-2016.o ABSOLUTE
    [Anonymous Symbol]                       0x00000000   Number         0  QtContacts{00010103}-641.o ABSOLUTE
    [Anonymous Symbol]                       0x00000000   Number         0  QtCore{00040703}-3091.o ABSOLUTE
    [Anonymous Symbol]                       0x00000000   Number         0  QtCore{00040703}-2018.o ABSOLUTE
    [Anonymous Symbol]                       0x00000000   Number         0  QtContacts{00010103}-642.o ABSOLUTE
    [Anonymous Symbol]                       0x00000000   Number         0  QtCore{00040703}-3094.o ABSOLUTE
    [Anonymous Symbol]                       0x00000000   Number         0  QtCore{00040703}-2020.o ABSOLUTE
    [Anonymous Symbol]                       0x00000000   Number         0  QtContacts{00010103}-652.o ABSOLUTE
    [Anonymous Symbol]                       0x00000000   Number         0  QtCore{00040703}-3097.o ABSOLUTE
    [Anonymous Symbol]                       0x00000000   Number         0  QtCore{00040703}-2034.o ABSOLUTE
    [Anonymous Symbol]                       0x00000000   Number         0  QtContacts{00010103}-653.o ABSOLUTE
    [Anonymous Symbol]                       0x00000000   Number         0  QtCore{00040703}-3098.o ABSOLUTE
    [Anonymous Symbol]                       0x00000000   Number         0  QtCore{00040703}-2036.o ABSOLUTE
    [Anonymous Symbol]                       0x00000000   Number         0  QtContacts{00010103}-654.o ABSOLUTE
    [Anonymous Symbol]                       0x00000000   Number         0  QtCore{00040703}-3101.o ABSOLUTE
    [Anonymous Symbol]                       0x00000000   Number         0  QtCore{00040703}-2037.o ABSOLUTE
    [Anonymous Symbol]                       0x00000000   Number         0  QtContacts{00010103}-655.o ABSOLUTE
    [Anonymous Symbol]                       0x00000000   Number         0  QtCore{00040703}-3129.o ABSOLUTE
    [Anonymous Symbol]                       0x00000000   Number         0  QtCore{00040703}-2039.o ABSOLUTE
    [Anonymous Symbol]                       0x00000000   Number         0  QtContacts{00010103}-658.o ABSOLUTE
    [Anonymous Symbol]                       0x00000000   Number         0  QtCore{00040703}-3135.o ABSOLUTE
    [Anonymous Symbol]                       0x00000000   Number         0  QtCore{00040703}-2082.o ABSOLUTE
    [Anonymous Symbol]                       0x00000000   Number         0  QtContacts{00010103}-659.o ABSOLUTE
    [Anonymous Symbol]                       0x00000000   Number         0  QtCore{00040703}-3138.o ABSOLUTE
    [Anonymous Symbol]                       0x00000000   Number         0  QtCore{00040703}-2093.o ABSOLUTE
    [Anonymous Symbol]                       0x00000000   Number         0  QtContacts{00010103}-660.o ABSOLUTE
    [Anonymous Symbol]                       0x00000000   Number         0  QtCore{00040703}-3143.o ABSOLUTE
    [Anonymous Symbol]                       0x00000000   Number         0  QtCore{00040703}-2110.o ABSOLUTE
    [Anonymous Symbol]                       0x00000000   Number         0  QtContacts{00010103}-666.o ABSOLUTE
    [Anonymous Symbol]                       0x00000000   Number         0  QtCore{00040703}-3159.o ABSOLUTE
    [Anonymous Symbol]                       0x00000000   Number         0  QtCore{00040703}-2134.o ABSOLUTE
    [Anonymous Symbol]                       0x00000000   Number         0  QtContacts{00010103}-670.o ABSOLUTE
    [Anonymous Symbol]                       0x00000000   Number         0  QtCore{00040703}-3163.o ABSOLUTE
    [Anonymous Symbol]                       0x00000000   Number         0  QtCore{00040703}-2137.o ABSOLUTE
    [Anonymous Symbol]                       0x00000000   Number         0  QtContacts{00010103}-671.o ABSOLUTE
    [Anonymous Symbol]                       0x00000000   Number         0  QtCore{00040703}-3165.o ABSOLUTE
    [Anonymous Symbol]                       0x00000000   Number         0  QtCore{00040703}-2141.o ABSOLUTE
    [Anonymous Symbol]                       0x00000000   Number         0  QtContacts{00010103}-672.o ABSOLUTE
    [Anonymous Symbol]                       0x00000000   Number         0  QtCore{00040703}-3166.o ABSOLUTE
    [Anonymous Symbol]                       0x00000000   Number         0  QtCore{00040703}-2142.o ABSOLUTE
    [Anonymous Symbol]                       0x00000000   Number         0  QtContacts{00010103}-674.o ABSOLUTE
    [Anonymous Symbol]                       0x00000000   Number         0  QtCore{00040703}-3607.o ABSOLUTE
    [Anonymous Symbol]                       0x00000000   Number         0  QtCore{00040703}-2143.o ABSOLUTE
    [Anonymous Symbol]                       0x00000000   Number         0  QtContacts{00010103}-681.o ABSOLUTE
    [Anonymous Symbol]                       0x00000000   Number         0  QtCore{00040703}-3608.o ABSOLUTE
    [Anonymous Symbol]                       0x00000000   Number         0  QtCore{00040703}-2186.o ABSOLUTE
    [Anonymous Symbol]                       0x00000000   Number         0  QtContacts{00010103}-683.o ABSOLUTE
    [Anonymous Symbol]                       0x00000000   Number         0  QtCore{00040703}-3609.o ABSOLUTE
    [Anonymous Symbol]                       0x00000000   Number         0  QtCore{00040703}-2188.o ABSOLUTE
    [Anonymous Symbol]                       0x00000000   Number         0  dfpaeabi{000a0000}-3.o ABSOLUTE
    [Anonymous Symbol]                       0x00000000   Number         0  QtCore{00040703}-3610.o ABSOLUTE
    [Anonymous Symbol]                       0x00000000   Number         0  QtCore{00040703}-2190.o ABSOLUTE
    [Anonymous Symbol]                       0x00000000   Number         0  drtaeabi{000a0000}-135.o ABSOLUTE
    [Anonymous Symbol]                       0x00000000   Number         0  QtCore{00040703}-3689.o ABSOLUTE
    [Anonymous Symbol]                       0x00000000   Number         0  QtCore{00040703}-2191.o ABSOLUTE
    [Anonymous Symbol]                       0x00000000   Number         0  drtaeabi{000a0000}-147.o ABSOLUTE
    [Anonymous Symbol]                       0x00000000   Number         0  QtCore{00040703}-3691.o ABSOLUTE
    [Anonymous Symbol]                       0x00000000   Number         0  QtCore{00040703}-2193.o ABSOLUTE
    [Anonymous Symbol]                       0x00000000   Number         0  drtaeabi{000a0000}-155.o ABSOLUTE
    [Anonymous Symbol]                       0x00000000   Number         0  QtCore{00040703}-49.o ABSOLUTE
    [Anonymous Symbol]                       0x00000000   Number         0  QtCore{00040703}-2197.o ABSOLUTE
    [Anonymous Symbol]                       0x00000000   Number         0  drtaeabi{000a0000}-158.o ABSOLUTE
    [Anonymous Symbol]                       0x00000000   Number         0  QtCore{00040703}-70.o ABSOLUTE
    [Anonymous Symbol]                       0x00000000   Number         0  QtCore{00040703}-2315.o ABSOLUTE
    [Anonymous Symbol]                       0x00000000   Number         0  drtaeabi{000a0000}-159.o ABSOLUTE
    [Anonymous Symbol]                       0x00000000   Number         0  QtCore{00040703}-73.o ABSOLUTE
    [Anonymous Symbol]                       0x00000000   Number         0  QtCore{00040703}-2321.o ABSOLUTE
    [Anonymous Symbol]                       0x00000000   Number         0  drtaeabi{000a0000}-180.o ABSOLUTE
    [Anonymous Symbol]                       0x00000000   Number         0  libc{00010000}-350.o ABSOLUTE
    [Anonymous Symbol]                       0x00000000   Number         0  QtCore{00040703}-274.o ABSOLUTE
    [Anonymous Symbol]                       0x00000000   Number         0  drtaeabi{000a0000}-182.o ABSOLUTE
    [Anonymous Symbol]                       0x00000000   Number         0  euser{000a0000}-1003.o ABSOLUTE
    [Anonymous Symbol]                       0x00000000   Number         0  QtCore{00040703}-275.o ABSOLUTE
    [Anonymous Symbol]                       0x00000000   Number         0  drtaeabi{000a0000}-183.o ABSOLUTE
    [Anonymous Symbol]                       0x00000000   Number         0  euser{000a0000}-1010.o ABSOLUTE
    [Anonymous Symbol]                       0x00000000   Number         0  QtCore{00040703}-282.o ABSOLUTE
    [Anonymous Symbol]                       0x00000000   Number         0  drtaeabi{000a0000}-184.o ABSOLUTE
    [Anonymous Symbol]                       0x00000000   Number         0  euser{000a0000}-1016.o ABSOLUTE
    [Anonymous Symbol]                       0x00000000   Number         0  QtCore{00040703}-2823.o ABSOLUTE
    [Anonymous Symbol]                       0x00000000   Number         0  drtaeabi{000a0000}-186.o ABSOLUTE
    [Anonymous Symbol]                       0x00000000   Number         0  euser{000a0000}-1088.o ABSOLUTE
    [Anonymous Symbol]                       0x00000000   Number         0  QtCore{00040703}-2841.o ABSOLUTE
    [Anonymous Symbol]                       0x00000000   Number         0  drtaeabi{000a0000}-187.o ABSOLUTE
    [Anonymous Symbol]                       0x00000000   Number         0  euser{000a0000}-1090.o ABSOLUTE
    [Anonymous Symbol]                       0x00000000   Number         0  QtCore{00040703}-2843.o ABSOLUTE
    [Anonymous Symbol]                       0x00000000   Number         0  drtaeabi{000a0000}-188.o ABSOLUTE
    [Anonymous Symbol]                       0x00000000   Number         0  euser{000a0000}-1091.o ABSOLUTE
    [Anonymous Symbol]                       0x00000000   Number         0  QtCore{00040703}-2848.o ABSOLUTE
    [Anonymous Symbol]                       0x00000000   Number         0  drtaeabi{000a0000}-189.o ABSOLUTE
    [Anonymous Symbol]                       0x00000000   Number         0  euser{000a0000}-1094.o ABSOLUTE
    [Anonymous Symbol]                       0x00000000   Number         0  QtCore{00040703}-2883.o ABSOLUTE
    [Anonymous Symbol]                       0x00000000   Number         0  drtaeabi{000a0000}-190.o ABSOLUTE
    [Anonymous Symbol]                       0x00000000   Number         0  euser{000a0000}-1116.o ABSOLUTE
    [Anonymous Symbol]                       0x00000000   Number         0  QtCore{00040703}-2884.o ABSOLUTE
    [Anonymous Symbol]                       0x00000000   Number         0  drtrvct2_2{000a0000}-28.o ABSOLUTE
    [Anonymous Symbol]                       0x00000000   Number         0  euser{000a0000}-1169.o ABSOLUTE
    [Anonymous Symbol]                       0x00000000   Number         0  QtCore{00040703}-2885.o ABSOLUTE
    [Anonymous Symbol]                       0x00000000   Number         0  QtGui{00040703}-5707.o ABSOLUTE
    [Anonymous Symbol]                       0x00000000   Number         0  QtContacts{00010103}-341.o ABSOLUTE
    [Anonymous Symbol]                       0x00000000   Number         0  cntmodel{000a0000}-136.o ABSOLUTE
    [Anonymous Symbol]                       0x00000000   Number         0  QtContacts{00010103}-522.o ABSOLUTE
    [Anonymous Symbol]                       0x00000000   Number         0  QtContacts{00010103}-343.o ABSOLUTE
    [Anonymous Symbol]                       0x00000000   Number         0  cntmodel{000a0000}-169.o ABSOLUTE
    [Anonymous Symbol]                       0x00000000   Number         0  QtContacts{00010103}-524.o ABSOLUTE
    [Anonymous Symbol]                       0x00000000   Number         0  QtContacts{00010103}-344.o ABSOLUTE
    [Anonymous Symbol]                       0x00000000   Number         0  cntmodel{000a0000}-175.o ABSOLUTE
    [Anonymous Symbol]                       0x00000000   Number         0  QtContacts{00010103}-53.o ABSOLUTE
    [Anonymous Symbol]                       0x00000000   Number         0  QtContacts{00010103}-345.o ABSOLUTE
    [Anonymous Symbol]                       0x00000000   Number         0  cntmodel{000a0000}-193.o ABSOLUTE
    [Anonymous Symbol]                       0x00000000   Number         0  QtContacts{00010103}-531.o ABSOLUTE
    [Anonymous Symbol]                       0x00000000   Number         0  QtContacts{00010103}-347.o ABSOLUTE
    [Anonymous Symbol]                       0x00000000   Number         0  cntmodel{000a0000}-195.o ABSOLUTE
    [Anonymous Symbol]                       0x00000000   Number         0  QtContacts{00010103}-532.o ABSOLUTE
    [Anonymous Symbol]                       0x00000000   Number         0  QtContacts{00010103}-349.o ABSOLUTE
    [Anonymous Symbol]                       0x00000000   Number         0  cntmodel{000a0000}-201.o ABSOLUTE
    [Anonymous Symbol]                       0x00000000   Number         0  QtContacts{00010103}-535.o ABSOLUTE
    [Anonymous Symbol]                       0x00000000   Number         0  QtContacts{00010103}-351.o ABSOLUTE
    [Anonymous Symbol]                       0x00000000   Number         0  cntmodel{000a0000}-212.o ABSOLUTE
    [Anonymous Symbol]                       0x00000000   Number         0  QtContacts{00010103}-536.o ABSOLUTE
    [Anonymous Symbol]                       0x00000000   Number         0  QtContacts{00010103}-352.o ABSOLUTE
    [Anonymous Symbol]                       0x00000000   Number         0  cntmodel{000a0000}-219.o ABSOLUTE
    [Anonymous Symbol]                       0x00000000   Number         0  QtContacts{00010103}-537.o ABSOLUTE
    [Anonymous Symbol]                       0x00000000   Number         0  QtContacts{00010103}-353.o ABSOLUTE
    [Anonymous Symbol]                       0x00000000   Number         0  cntmodel{000a0000}-223.o ABSOLUTE
    [Anonymous Symbol]                       0x00000000   Number         0  QtContacts{00010103}-538.o ABSOLUTE
    [Anonymous Symbol]                       0x00000000   Number         0  QtContacts{00010103}-354.o ABSOLUTE
    [Anonymous Symbol]                       0x00000000   Number         0  cntmodel{000a0000}-224.o ABSOLUTE
    [Anonymous Symbol]                       0x00000000   Number         0  QtContacts{00010103}-539.o ABSOLUTE
    [Anonymous Symbol]                       0x00000000   Number         0  QtContacts{00010103}-4.o ABSOLUTE
    [Anonymous Symbol]                       0x00000000   Number         0  cntmodel{000a0000}-23.o ABSOLUTE
    [Anonymous Symbol]                       0x00000000   Number         0  QtContacts{00010103}-542.o ABSOLUTE
    [Anonymous Symbol]                       0x00000000   Number         0  QtContacts{00010103}-403.o ABSOLUTE
    [Anonymous Symbol]                       0x00000000   Number         0  cntmodel{000a0000}-272.o ABSOLUTE
    [Anonymous Symbol]                       0x00000000   Number         0  QtContacts{00010103}-543.o ABSOLUTE
    [Anonymous Symbol]                       0x00000000   Number         0  QtContacts{00010103}-404.o ABSOLUTE
    [Anonymous Symbol]                       0x00000000   Number         0  cntmodel{000a0000}-274.o ABSOLUTE
    [Anonymous Symbol]                       0x00000000   Number         0  QtContacts{00010103}-544.o ABSOLUTE
    [Anonymous Symbol]                       0x00000000   Number         0  QtContacts{00010103}-405.o ABSOLUTE
    [Anonymous Symbol]                       0x00000000   Number         0  cntmodel{000a0000}-281.o ABSOLUTE
    [Anonymous Symbol]                       0x00000000   Number         0  QtContacts{00010103}-548.o ABSOLUTE
    [Anonymous Symbol]                       0x00000000   Number         0  QtContacts{00010103}-406.o ABSOLUTE
    [Anonymous Symbol]                       0x00000000   Number         0  cntmodel{000a0000}-286.o ABSOLUTE
    [Anonymous Symbol]                       0x00000000   Number         0  QtContacts{00010103}-549.o ABSOLUTE
    [Anonymous Symbol]                       0x00000000   Number         0  QtContacts{00010103}-407.o ABSOLUTE
    [Anonymous Symbol]                       0x00000000   Number         0  cntmodel{000a0000}-290.o ABSOLUTE
    [Anonymous Symbol]                       0x00000000   Number         0  QtContacts{00010103}-55.o ABSOLUTE
    [Anonymous Symbol]                       0x00000000   Number         0  QtContacts{00010103}-410.o ABSOLUTE
    [Anonymous Symbol]                       0x00000000   Number         0  cntmodel{000a0000}-291.o ABSOLUTE
    [Anonymous Symbol]                       0x00000000   Number         0  QtContacts{00010103}-579.o ABSOLUTE
    [Anonymous Symbol]                       0x00000000   Number         0  QtContacts{00010103}-412.o ABSOLUTE
    [Anonymous Symbol]                       0x00000000   Number         0  cntmodel{000a0000}-292.o ABSOLUTE
    [Anonymous Symbol]                       0x00000000   Number         0  QtContacts{00010103}-580.o ABSOLUTE
    [Anonymous Symbol]                       0x00000000   Number         0  QtContacts{00010103}-421.o ABSOLUTE
    [Anonymous Symbol]                       0x00000000   Number         0  cntmodel{000a0000}-31.o ABSOLUTE
    [Anonymous Symbol]                       0x00000000   Number         0  QtContacts{00010103}-582.o ABSOLUTE
    [Anonymous Symbol]                       0x00000000   Number         0  QtContacts{00010103}-424.o ABSOLUTE
    [Anonymous Symbol]                       0x00000000   Number         0  cntmodel{000a0000}-320.o ABSOLUTE
    [Anonymous Symbol]                       0x00000000   Number         0  QtContacts{00010103}-583.o ABSOLUTE
    [Anonymous Symbol]                       0x00000000   Number         0  QtContacts{00010103}-425.o ABSOLUTE
    [Anonymous Symbol]                       0x00000000   Number         0  cntmodel{000a0000}-330.o ABSOLUTE
    [Anonymous Symbol]                       0x00000000   Number         0  QtContacts{00010103}-584.o ABSOLUTE
    [Anonymous Symbol]                       0x00000000   Number         0  QtContacts{00010103}-432.o ABSOLUTE
    [Anonymous Symbol]                       0x00000000   Number         0  cntmodel{000a0000}-333.o ABSOLUTE
    [Anonymous Symbol]                       0x00000000   Number         0  QtContacts{00010103}-255.o ABSOLUTE
    [Anonymous Symbol]                       0x00000000   Number         0  QtContacts{00010103}-446.o ABSOLUTE
    [Anonymous Symbol]                       0x00000000   Number         0  cntmodel{000a0000}-335.o ABSOLUTE
    [Anonymous Symbol]                       0x00000000   Number         0  QtContacts{00010103}-256.o ABSOLUTE
    [Anonymous Symbol]                       0x00000000   Number         0  QtContacts{00010103}-447.o ABSOLUTE
    [Anonymous Symbol]                       0x00000000   Number         0  cntmodel{000a0000}-357.o ABSOLUTE
    [Anonymous Symbol]                       0x00000000   Number         0  QtContacts{00010103}-257.o ABSOLUTE
    [Anonymous Symbol]                       0x00000000   Number         0  QtContacts{00010103}-69.o ABSOLUTE
    [Anonymous Symbol]                       0x00000000   Number         0  cntmodel{000a0000}-360.o ABSOLUTE
    [Anonymous Symbol]                       0x00000000   Number         0  QtContacts{00010103}-258.o ABSOLUTE
    [Anonymous Symbol]                       0x00000000   Number         0  QtContacts{00010103}-692.o ABSOLUTE
    [Anonymous Symbol]                       0x00000000   Number         0  cntmodel{000a0000}-377.o ABSOLUTE
    [Anonymous Symbol]                       0x00000000   Number         0  QtContacts{00010103}-287.o ABSOLUTE
    [Anonymous Symbol]                       0x00000000   Number         0  QtContacts{00010103}-693.o ABSOLUTE
    [Anonymous Symbol]                       0x00000000   Number         0  cntmodel{000a0000}-390.o ABSOLUTE
    [Anonymous Symbol]                       0x00000000   Number         0  QtContacts{00010103}-289.o ABSOLUTE
    [Anonymous Symbol]                       0x00000000   Number         0  QtContacts{00010103}-694.o ABSOLUTE
    [Anonymous Symbol]                       0x00000000   Number         0  cntmodel{000a0000}-391.o ABSOLUTE
    [Anonymous Symbol]                       0x00000000   Number         0  QtContacts{00010103}-292.o ABSOLUTE
    [Anonymous Symbol]                       0x00000000   Number         0  QtContacts{00010103}-695.o ABSOLUTE
    [Anonymous Symbol]                       0x00000000   Number         0  cntmodel{000a0000}-392.o ABSOLUTE
    [Anonymous Symbol]                       0x00000000   Number         0  QtContacts{00010103}-293.o ABSOLUTE
    [Anonymous Symbol]                       0x00000000   Number         0  QtContacts{00010103}-696.o ABSOLUTE
    [Anonymous Symbol]                       0x00000000   Number         0  cntmodel{000a0000}-394.o ABSOLUTE
    [Anonymous Symbol]                       0x00000000   Number         0  QtContacts{00010103}-294.o ABSOLUTE
    [Anonymous Symbol]                       0x00000000   Number         0  QtContacts{00010103}-698.o ABSOLUTE
    [Anonymous Symbol]                       0x00000000   Number         0  cntmodel{000a0000}-396.o ABSOLUTE
    [Anonymous Symbol]                       0x00000000   Number         0  QtContacts{00010103}-297.o ABSOLUTE
    [Anonymous Symbol]                       0x00000000   Number         0  QtContacts{00010103}-7.o ABSOLUTE
    [Anonymous Symbol]                       0x00000000   Number         0  cntmodel{000a0000}-397.o ABSOLUTE
    [Anonymous Symbol]                       0x00000000   Number         0  QtContacts{00010103}-3.o ABSOLUTE
    [Anonymous Symbol]                       0x00000000   Number         0  QtContacts{00010103}-70.o ABSOLUTE
    [Anonymous Symbol]                       0x00000000   Number         0  cntmodel{000a0000}-400.o ABSOLUTE
    [Anonymous Symbol]                       0x00000000   Number         0  cntmodel{000a0000}-110.o ABSOLUTE
    [Anonymous Symbol]                       0x00000000   Number         0  QtContacts{00010103}-701.o ABSOLUTE
    [Anonymous Symbol]                       0x00000000   Number         0  cntmodel{000a0000}-401.o ABSOLUTE
    [Anonymous Symbol]                       0x00000000   Number         0  cntmodel{000a0000}-116.o ABSOLUTE
    [Anonymous Symbol]                       0x00000000   Number         0  QtContacts{00010103}-74.o ABSOLUTE
    [Anonymous Symbol]                       0x00000000   Number         0  cntmodel{000a0000}-409.o ABSOLUTE
    [Anonymous Symbol]                       0x00000000   Number         0  cntmodel{000a0000}-121.o ABSOLUTE
    [Anonymous Symbol]                       0x00000000   Number         0  QtContacts{00010103}-797.o ABSOLUTE
    [Anonymous Symbol]                       0x00000000   Number         0  cntmodel{000a0000}-414.o ABSOLUTE
    [Anonymous Symbol]                       0x00000000   Number         0  cntmodel{000a0000}-122.o ABSOLUTE
    [Anonymous Symbol]                       0x00000000   Number         0  QtContacts{00010103}-855.o ABSOLUTE
    [Anonymous Symbol]                       0x00000000   Number         0  cntmodel{000a0000}-426.o ABSOLUTE
    [Anonymous Symbol]                       0x00000000   Number         0  cntmodel{000a0000}-128.o ABSOLUTE
    [Anonymous Symbol]                       0x00000000   Number         0  QtContacts{00010103}-914.o ABSOLUTE
    [Anonymous Symbol]                       0x00000000   Number         0  cntmodel{000a0000}-433.o ABSOLUTE
    [Anonymous Symbol]                       0x00000000   Number         0  cntmodel{000a0000}-130.o ABSOLUTE
    [Anonymous Symbol]                       0x00000000   Number         0  libstdcpp{00010000}-988.o ABSOLUTE
    [Anonymous Symbol]                       0x00000000   Number         0  cntmodel{000a0000}-437.o ABSOLUTE
    [Anonymous Symbol]                       0x00000000   Number         0  cntmodel{000a0000}-132.o ABSOLUTE
    [Anonymous Symbol]                       0x00000000   Number         0  libstdcpp{00010000}-992.o ABSOLUTE
    [Anonymous Symbol]                       0x00000000   Number         0  cntmodel{000a0000}-438.o ABSOLUTE
    [Anonymous Symbol]                       0x00000000   Number         0  cntmodel{000a0000}-133.o ABSOLUTE
    [Anonymous Symbol]                       0x00000000   Number         0  QtContacts{00010103}-52.o ABSOLUTE
    [Anonymous Symbol]                       0x00000000   Number         0  cntmodel{000a0000}-443.o ABSOLUTE
    [Anonymous Symbol]                       0x00000000   Number         0  QtContacts{00010103}-177.o ABSOLUTE
    [Anonymous Symbol]                       0x00000000   Number         0  QtContacts{00010103}-120.o ABSOLUTE
    [Anonymous Symbol]                       0x00000000   Number         0  cntmodel{000a0000}-444.o ABSOLUTE
    [Anonymous Symbol]                       0x00000000   Number         0  QtContacts{00010103}-180.o ABSOLUTE
    [Anonymous Symbol]                       0x00000000   Number         0  QtContacts{00010103}-147.o ABSOLUTE
    [Anonymous Symbol]                       0x00000000   Number         0  cntmodel{000a0000}-445.o ABSOLUTE
    [Anonymous Symbol]                       0x00000000   Number         0  QtContacts{00010103}-187.o ABSOLUTE
    [Anonymous Symbol]                       0x00000000   Number         0  QtContacts{00010103}-148.o ABSOLUTE
    [Anonymous Symbol]                       0x00000000   Number         0  cntmodel{000a0000}-446.o ABSOLUTE
    [Anonymous Symbol]                       0x00000000   Number         0  QtContacts{00010103}-188.o ABSOLUTE
    [Anonymous Symbol]                       0x00000000   Number         0  QtContacts{00010103}-150.o ABSOLUTE
    [Anonymous Symbol]                       0x00000000   Number         0  cntmodel{000a0000}-448.o ABSOLUTE
    [Anonymous Symbol]                       0x00000000   Number         0  QtContacts{00010103}-191.o ABSOLUTE
    [Anonymous Symbol]                       0x00000000   Number         0  QtContacts{00010103}-154.o ABSOLUTE
    [Anonymous Symbol]                       0x00000000   Number         0  cntmodel{000a0000}-450.o ABSOLUTE
    [Anonymous Symbol]                       0x00000000   Number         0  QtContacts{00010103}-193.o ABSOLUTE
    [Anonymous Symbol]                       0x00000000   Number         0  QtContacts{00010103}-155.o ABSOLUTE
    [Anonymous Symbol]                       0x00000000   Number         0  cntmodel{000a0000}-458.o ABSOLUTE
    [Anonymous Symbol]                       0x00000000   Number         0  QtContacts{00010103}-2.o ABSOLUTE
    [Anonymous Symbol]                       0x00000000   Number         0  QtContacts{00010103}-158.o ABSOLUTE
    [Anonymous Symbol]                       0x00000000   Number         0  cntmodel{000a0000}-460.o ABSOLUTE
    [Anonymous Symbol]                       0x00000000   Number         0  QtContacts{00010103}-249.o ABSOLUTE
    [Anonymous Symbol]                       0x00000000   Number         0  QtContacts{00010103}-160.o ABSOLUTE
    [Anonymous Symbol]                       0x00000000   Number         0  cntmodel{000a0000}-467.o ABSOLUTE
    [Anonymous Symbol]                       0x00000000   Number         0  QtContacts{00010103}-514.o ABSOLUTE
    [Anonymous Symbol]                       0x00000000   Number         0  QtContacts{00010103}-161.o ABSOLUTE
    [Anonymous Symbol]                       0x00000000   Number         0  cntmodel{000a0000}-468.o ABSOLUTE
    [Anonymous Symbol]                       0x00000000   Number         0  QtContacts{00010103}-515.o ABSOLUTE
    [Anonymous Symbol]                       0x00000000   Number         0  QtContacts{00010103}-163.o ABSOLUTE
    [Anonymous Symbol]                       0x00000000   Number         0  cntmodel{000a0000}-469.o ABSOLUTE
    [Anonymous Symbol]                       0x00000000   Number         0  QtContacts{00010103}-516.o ABSOLUTE
    [Anonymous Symbol]                       0x00000000   Number         0  QtContacts{00010103}-164.o ABSOLUTE
    [Anonymous Symbol]                       0x00000000   Number         0  cntmodel{000a0000}-611.o ABSOLUTE
    [Anonymous Symbol]                       0x00000000   Number         0  QtContacts{00010103}-518.o ABSOLUTE
    [Anonymous Symbol]                       0x00000000   Number         0  QtContacts{00010103}-167.o ABSOLUTE
    [Anonymous Symbol]                       0x00000000   Number         0  cntmodel{000a0000}-80.o ABSOLUTE
    [Anonymous Symbol]                       0x00000000   Number         0  QtContacts{00010103}-519.o ABSOLUTE
    [Anonymous Symbol]                       0x00000000   Number         0  QtContacts{00010103}-170.o ABSOLUTE
    [Anonymous Symbol]                       0x00000000   Number         0  cntmodel{000a0000}-81.o ABSOLUTE
    [Anonymous Symbol]                       0x00000000   Number         0  QtContacts{00010103}-1.o ABSOLUTE
    [Anonymous Symbol]                       0x00000000   Number         0  QtContacts{00010103}-453.o ABSOLUTE
    [Anonymous Symbol]                       0x00000000   Number         0  cntmodel{000a0000}-85.o ABSOLUTE
    [Anonymous Symbol]                       0x00000000   Number         0  QtContacts{00010103}-51.o ABSOLUTE
    [Anonymous Symbol]                       0x00000000   Number         0  QtContacts{00010103}-455.o ABSOLUTE
    [Anonymous Symbol]                       0x00000000   Number         0  centralrepository{000a0000}-1.o ABSOLUTE
    [Anonymous Symbol]                       0x00000000   Number         0  QtContacts{00010103}-512.o ABSOLUTE
    [Anonymous Symbol]                       0x00000000   Number         0  QtContacts{00010103}-48.o ABSOLUTE
    [Anonymous Symbol]                       0x00000000   Number         0  centralrepository{000a0000}-14.o ABSOLUTE
    [Anonymous Symbol]                       0x00000000   Number         0  QtContacts{00010103}-513.o ABSOLUTE
    [Anonymous Symbol]                       0x00000000   Number         0  QtContacts{00010103}-49.o ABSOLUTE
    [Anonymous Symbol]                       0x00000000   Number         0  centralrepository{000a0000}-3.o ABSOLUTE
    [Anonymous Symbol]                       0x00000000   Number         0  QtContacts{00010103}-450.o ABSOLUTE
    [Anonymous Symbol]                       0x00000000   Number         0  QtContacts{00010103}-50.o ABSOLUTE
    [Anonymous Symbol]                       0x00000000   Number         0  centralrepository{000a0000}-9.o ABSOLUTE
    [Anonymous Symbol]                       0x00000000   Number         0  bitmaptransforms{000a0000}-2.o ABSOLUTE
    [Anonymous Symbol]                       0x00000000   Number         0  efsrv{000a0000}-214.o ABSOLUTE
    [Anonymous Symbol]                       0x00000000   Number         0  estor{000a0000}-13.o ABSOLUTE
    [Anonymous Symbol]                       0x00000000   Number         0  QtContacts{00010103}-301.o ABSOLUTE
    [Anonymous Symbol]                       0x00000000   Number         0  QtContacts{00010103}-448.o ABSOLUTE
    [Anonymous Symbol]                       0x00000000   Number         0  estor{000a0000}-254.o ABSOLUTE
    [Anonymous Symbol]                       0x00000000   Number         0  QtContacts{00010103}-309.o ABSOLUTE
    [Anonymous Symbol]                       0x00000000   Number         0  QtContacts{00010103}-449.o ABSOLUTE
    [Anonymous Symbol]                       0x00000000   Number         0  estor{000a0000}-499.o ABSOLUTE
    [Anonymous Symbol]                       0x00000000   Number         0  QtContacts{00010103}-311.o ABSOLUTE
    [Anonymous Symbol]                       0x00000000   Number         0  imageconversion{000a0000}-60.o ABSOLUTE
    [Anonymous Symbol]                       0x00000000   Number         0  estor{000a0000}-96.o ABSOLUTE
    [Anonymous Symbol]                       0x00000000   Number         0  QtContacts{00010103}-312.o ABSOLUTE
    [Anonymous Symbol]                       0x00000000   Number         0  imageconversion{000a0000}-36.o ABSOLUTE
    [Anonymous Symbol]                       0x00000000   Number         0  imageconversion{000a0000}-298.o ABSOLUTE
    [Anonymous Symbol]                       0x00000000   Number         0  QtContacts{00010103}-315.o ABSOLUTE
    [Anonymous Symbol]                       0x00000000   Number         0  bitmaptransforms{000a0000}-3.o ABSOLUTE
    [Anonymous Symbol]                       0x00000000   Number         0  QtContacts{00010103}-338.o ABSOLUTE
    [Anonymous Symbol]                       0x00000000   Number         0  QtContacts{00010103}-333.o ABSOLUTE
    [Anonymous Symbol]                       0x00000000   Number         0  bafl{000a0000}-257.o ABSOLUTE
    [Anonymous Symbol]                       0x00000000   Number         0  imageconversion{000a0000}-59.o ABSOLUTE
    [Anonymous Symbol]                       0x00000000   Number         0  tzclient{000a0000}-18.o ABSOLUTE
    [Anonymous Symbol]                       0x00000000   Number         0  tzclient{000a0000}-1.o ABSOLUTE
    [Anonymous Symbol]                       0x00000000   Number         0  tzclient{000a0000}-21.o ABSOLUTE
    [Anonymous Symbol]                       0x00000000   Number         0  QtContacts{00010103}-340.o ABSOLUTE
    [Anonymous Symbol]                       0x00000000   Number         0  tzclient{000a0000}-5.o ABSOLUTE
    [Anonymous Symbol]                       0x00000000   Number         0  tzclient{000a0000}-23.o ABSOLUTE
    [Anonymous Symbol]                       0x00000000   Number         0  fbscli{000a0000}-26.o ABSOLUTE
    [Anonymous Symbol]                       0x00000000   Number         0  tzclient{000a0000}-20.o ABSOLUTE
    [Anonymous Symbol]                       0x00000000   Number         0  fbscli{000a0000}-31.o ABSOLUTE
    [Anonymous Symbol]                       0x00000000   Number         0  efsrv{000a0000}-68.o ABSOLUTE
    ..\..\..\..\EPOC32\BUILD\s60\osext\mobileruntime\group\LIBSTDCPP\ARMV5\VtblExports.s 0x00000000   Number         0  VtblExports.o ABSOLUTE
    \EPOC32\BUILD\src\cedar\generic\base\e32\compsupp\DRTAEABI\ARMV5\VtblExports.s 0x00000000   Number         0  VtblExports.o ABSOLUTE
    \EPOC32\BUILD\src\cedar\generic\base\e32\euser\EDLL\ARMV5\urel\uc_dll_.cpp 0x00000000   Number         0  uc_dll_.o ABSOLUTE
    \EPOC32\BUILD\src\cedar\generic\base\e32\euser\EUSER\ARMV5\VtblExports.s 0x00000000   Number         0  VtblExports.o ABSOLUTE
    \EPOC32\BUILD\src\cedar\generic\base\f32\group\EFSRV\ARMV5\VtblExports.s 0x00000000   Number         0  VtblExports.o ABSOLUTE
    \EPOC32\BUILD\src\common\generic\app-engines\cntmodel\group\CNTMODEL\ARMV5\VtblExports.s 0x00000000   Number         0  VtblExports.o ABSOLUTE
    \EPOC32\BUILD\src\common\generic\app-services\tz\group\TIMEZONECLIENT\ARMV5\VtblExports.s 0x00000000   Number         0  VtblExports.o ABSOLUTE
    \EPOC32\BUILD\src\common\generic\comms-infras\flogger\group\FLOGGER\ARMV5\VtblExports.s 0x00000000   Number         0  VtblExports.o ABSOLUTE
    \EPOC32\BUILD\src\common\generic\graphics\fbserv\group\FBSCLI\ARMV5\VtblExports.s 0x00000000   Number         0  VtblExports.o ABSOLUTE
    \EPOC32\BUILD\src\common\generic\multimedia\icl\group\BITMAPTRANSFORMS\ARMV5\VtblExports.s 0x00000000   Number         0  VtblExports.o ABSOLUTE
    \EPOC32\BUILD\src\common\generic\multimedia\icl\group\IMAGECONVERSION\ARMV5\VtblExports.s 0x00000000   Number         0  VtblExports.o ABSOLUTE
    \EPOC32\BUILD\src\common\generic\syslibs\bafl\group\BAFL\ARMV5\VtblExports.s 0x00000000   Number         0  VtblExports.o ABSOLUTE
    \EPOC32\BUILD\src\common\generic\syslibs\centralrepository\group\CENREPCLI\ARMV5\VtblExports.s 0x00000000   Number         0  VtblExports.o ABSOLUTE
    \EPOC32\BUILD\src\common\generic\syslibs\store\group\ESTOR\ARMV5\VtblExports.s 0x00000000   Number         0  VtblExports.o ABSOLUTE
    \EPOC32\BUILD\wk29\stdlibs\group\LIBC\ARMV5\VtblExports.s 0x00000000   Number         0  VtblExports.o ABSOLUTE
    \EPOC32\BUILD\wk29\stdlibs\group\LIBDL\ARMV5\VtblExports.s 0x00000000   Number         0  VtblExports.o ABSOLUTE
    \EPOC32\BUILD\wk29\stdlibs\group\LIBM\ARMV5\VtblExports.s 0x00000000   Number         0  VtblExports.o ABSOLUTE
    \EPOC32\BUILD\wk29\stdlibs\group\LIBPTHREAD\ARMV5\VtblExports.s 0x00000000   Number         0  VtblExports.o ABSOLUTE
    \\EPOC32\\BUILD\\src\\cedar\\generic\\base\\e32\\euser\\EDLL\\ARMV5\\urel\\uc_dll_.cpp 0x00000000   Number         0  uc_dll_.o ABSOLUTE
    \\src\\cedar\\generic\\base\\e32\\compsupp\\RVCT2_2\\ucppinit_aeabi.cpp 0x00000000   Number         0  ucppinit_aeabi.o ABSOLUTE
    \dev\symb\SDKs\32\EPOC32\BUILD\iwmake\buildS60____PADDING________\src\QTCORE_DLL\ARMV6\VtblExports.s 0x00000000   Number         0  VtblExports.o ABSOLUTE
    \dev\symb\SDKs\32\EPOC32\BUILD\iwmake\buildS60____PADDING________\src\QTGUI_DLL\ARMV6\VtblExports.s 0x00000000   Number         0  VtblExports.o ABSOLUTE
    \s60\5.0\EPOC32\BUILD\scripts\5.0\qtmobility\QTCONTACTS_DLL\ARMV5\VtblExports.s 0x00000000   Number         0  VtblExports.o ABSOLUTE
    \s60\5.0\EPOC32\BUILD\scripts\5.0\qtmobility\QTCONTACTS_SYMBIAN_DLL\ARMV5\urel\qtcontacts_symbian{000a0000}.s 0x00000000   Number         0  qtcontacts_symbian{000a0000}.exp ABSOLUTE
    \scripts\5.0\qtmobility\build\Release\qtcontacts_symbian\moc\moc_cntdbinfo.cpp 0x00000000   Number         0  qtcontacts_symbian.in ABSOLUTE
    \scripts\5.0\qtmobility\build\Release\qtcontacts_symbian\moc\moc_cntdisplaylabel.cpp 0x00000000   Number         0  qtcontacts_symbian.in ABSOLUTE
    \scripts\5.0\qtmobility\build\Release\qtcontacts_symbian\moc\moc_cntsymbiandatabase.cpp 0x00000000   Number         0  qtcontacts_symbian.in ABSOLUTE
    \scripts\5.0\qtmobility\build\Release\qtcontacts_symbian\moc\moc_cntsymbianengine.cpp 0x00000000   Number         0  qtcontacts_symbian.in ABSOLUTE
    \scripts\5.0\qtmobility\build\Release\qtcontacts_symbian\moc\moc_cnttransformcontactdata.cpp 0x00000000   Number         0  qtcontacts_symbian.in ABSOLUTE
    \scripts\5.0\qtmobility\plugins\contacts\symbian\plugin\src\cntabstractrelationship.cpp 0x00000000   Number         0  qtcontacts_symbian.in ABSOLUTE
    \scripts\5.0\qtmobility\plugins\contacts\symbian\plugin\src\cntdisplaylabel.cpp 0x00000000   Number         0  qtcontacts_symbian.in ABSOLUTE
    \scripts\5.0\qtmobility\plugins\contacts\symbian\plugin\src\cntrelationship.cpp 0x00000000   Number         0  qtcontacts_symbian.in ABSOLUTE
    \scripts\5.0\qtmobility\plugins\contacts\symbian\plugin\src\cntrelationshipgroup.cpp 0x00000000   Number         0  qtcontacts_symbian.in ABSOLUTE
    \scripts\5.0\qtmobility\plugins\contacts\symbian\plugin\src\cntsymbiandatabase.cpp 0x00000000   Number         0  qtcontacts_symbian.in ABSOLUTE
    \scripts\5.0\qtmobility\plugins\contacts\symbian\plugin\src\cntsymbianengine.cpp 0x00000000   Number         0  qtcontacts_symbian.in ABSOLUTE
    \scripts\5.0\qtmobility\plugins\contacts\symbian\plugin\src\cntsymbiantransformerror.cpp 0x00000000   Number         0  qtcontacts_symbian.in ABSOLUTE
    \scripts\5.0\qtmobility\plugins\contacts\symbian\plugin\src\filtering\cntdbinfo.cpp 0x00000000   Number         0  qtcontacts_symbian.in ABSOLUTE
    \scripts\5.0\qtmobility\plugins\contacts\symbian\plugin\src\filtering\cntfilterdefault.cpp 0x00000000   Number         0  qtcontacts_symbian.in ABSOLUTE
    \scripts\5.0\qtmobility\plugins\contacts\symbian\plugin\src\filtering\cntfilterdetail.cpp 0x00000000   Number         0  qtcontacts_symbian.in ABSOLUTE
    \scripts\5.0\qtmobility\plugins\contacts\symbian\plugin\src\filtering\cntfilterintersection.cpp 0x00000000   Number         0  qtcontacts_symbian.in ABSOLUTE
    \scripts\5.0\qtmobility\plugins\contacts\symbian\plugin\src\filtering\cntfilterrelationship.cpp 0x00000000   Number         0  qtcontacts_symbian.in ABSOLUTE
    \scripts\5.0\qtmobility\plugins\contacts\symbian\plugin\src\filtering\cntfilterunion.cpp 0x00000000   Number         0  qtcontacts_symbian.in ABSOLUTE
    \scripts\5.0\qtmobility\plugins\contacts\symbian\plugin\src\filtering\cntsymbianfilterdbms.cpp 0x00000000   Number         0  qtcontacts_symbian.in ABSOLUTE
    \scripts\5.0\qtmobility\plugins\contacts\symbian\plugin\src\filtering\cntsymbianfiltersql.cpp 0x00000000   Number         0  qtcontacts_symbian.in ABSOLUTE
    \scripts\5.0\qtmobility\plugins\contacts\symbian\plugin\src\filtering\cntsymbiansorterdbms.cpp 0x00000000   Number         0  qtcontacts_symbian.in ABSOLUTE
    \scripts\5.0\qtmobility\plugins\contacts\symbian\plugin\src\filtering\cntsymbiansrvconnection.cpp 0x00000000   Number         0  qtcontacts_symbian.in ABSOLUTE
    \scripts\5.0\qtmobility\plugins\contacts\symbian\plugin\src\transform\cntthumbnailcreator.cpp 0x00000000   Number         0  qtcontacts_symbian.in ABSOLUTE
    \scripts\5.0\qtmobility\plugins\contacts\symbian\plugin\src\transform\cnttransformaddress.cpp 0x00000000   Number         0  qtcontacts_symbian.in ABSOLUTE
    \scripts\5.0\qtmobility\plugins\contacts\symbian\plugin\src\transform\cnttransformanniversary.cpp 0x00000000   Number         0  qtcontacts_symbian.in ABSOLUTE
    \scripts\5.0\qtmobility\plugins\contacts\symbian\plugin\src\transform\cnttransformanniversarysimple.cpp 0x00000000   Number         0  qtcontacts_symbian.in ABSOLUTE
    \scripts\5.0\qtmobility\plugins\contacts\symbian\plugin\src\transform\cnttransformavatar.cpp 0x00000000   Number         0  qtcontacts_symbian.in ABSOLUTE
    \scripts\5.0\qtmobility\plugins\contacts\symbian\plugin\src\transform\cnttransformbirthday.cpp 0x00000000   Number         0  qtcontacts_symbian.in ABSOLUTE
    \scripts\5.0\qtmobility\plugins\contacts\symbian\plugin\src\transform\cnttransformcontact.cpp 0x00000000   Number         0  qtcontacts_symbian.in ABSOLUTE
    \scripts\5.0\qtmobility\plugins\contacts\symbian\plugin\src\transform\cnttransformcontactdata.cpp 0x00000000   Number         0  qtcontacts_symbian.in ABSOLUTE
    \scripts\5.0\qtmobility\plugins\contacts\symbian\plugin\src\transform\cnttransformemail.cpp 0x00000000   Number         0  qtcontacts_symbian.in ABSOLUTE
    \scripts\5.0\qtmobility\plugins\contacts\symbian\plugin\src\transform\cnttransformempty.cpp 0x00000000   Number         0  qtcontacts_symbian.in ABSOLUTE
    \scripts\5.0\qtmobility\plugins\contacts\symbian\plugin\src\transform\cnttransformfamily.cpp 0x00000000   Number         0  qtcontacts_symbian.in ABSOLUTE
    \scripts\5.0\qtmobility\plugins\contacts\symbian\plugin\src\transform\cnttransformfavorite.cpp 0x00000000   Number         0  qtcontacts_symbian.in ABSOLUTE
    \scripts\5.0\qtmobility\plugins\contacts\symbian\plugin\src\transform\cnttransformgender.cpp 0x00000000   Number         0  qtcontacts_symbian.in ABSOLUTE
    \scripts\5.0\qtmobility\plugins\contacts\symbian\plugin\src\transform\cnttransformgeolocation.cpp 0x00000000   Number         0  qtcontacts_symbian.in ABSOLUTE
    \scripts\5.0\qtmobility\plugins\contacts\symbian\plugin\src\transform\cnttransformname.cpp 0x00000000   Number         0  qtcontacts_symbian.in ABSOLUTE
    \scripts\5.0\qtmobility\plugins\contacts\symbian\plugin\src\transform\cnttransformnickname.cpp 0x00000000   Number         0  qtcontacts_symbian.in ABSOLUTE
    \scripts\5.0\qtmobility\plugins\contacts\symbian\plugin\src\transform\cnttransformnote.cpp 0x00000000   Number         0  qtcontacts_symbian.in ABSOLUTE
    \scripts\5.0\qtmobility\plugins\contacts\symbian\plugin\src\transform\cnttransformonlineaccount.cpp 0x00000000   Number         0  qtcontacts_symbian.in ABSOLUTE
    \scripts\5.0\qtmobility\plugins\contacts\symbian\plugin\src\transform\cnttransformonlineaccountsimple.cpp 0x00000000   Number         0  qtcontacts_symbian.in ABSOLUTE
    \scripts\5.0\qtmobility\plugins\contacts\symbian\plugin\src\transform\cnttransformorganisation.cpp 0x00000000   Number         0  qtcontacts_symbian.in ABSOLUTE
    \scripts\5.0\qtmobility\plugins\contacts\symbian\plugin\src\transform\cnttransformphonenumber.cpp 0x00000000   Number         0  qtcontacts_symbian.in ABSOLUTE
    \scripts\5.0\qtmobility\plugins\contacts\symbian\plugin\src\transform\cnttransformpresence.cpp 0x00000000   Number         0  qtcontacts_symbian.in ABSOLUTE
    \scripts\5.0\qtmobility\plugins\contacts\symbian\plugin\src\transform\cnttransformringtone.cpp 0x00000000   Number         0  qtcontacts_symbian.in ABSOLUTE
    \scripts\5.0\qtmobility\plugins\contacts\symbian\plugin\src\transform\cnttransformsynctarget.cpp 0x00000000   Number         0  qtcontacts_symbian.in ABSOLUTE
    \scripts\5.0\qtmobility\plugins\contacts\symbian\plugin\src\transform\cnttransformthumbnail.cpp 0x00000000   Number         0  qtcontacts_symbian.in ABSOLUTE
    \scripts\5.0\qtmobility\plugins\contacts\symbian\plugin\src\transform\cnttransformurl.cpp 0x00000000   Number         0  qtcontacts_symbian.in ABSOLUTE
    \src\cedar\generic\base\e32\compsupp\RVCT2_2\ucppfini.cpp 0x00000000   Number         0  ucppfini.o ABSOLUTE
    \src\cedar\generic\base\e32\compsupp\RVCT2_2\ucppinit_aeabi.cpp 0x00000000   Number         0  ucppinit_aeabi.o ABSOLUTE
    \src\cedar\generic\base\e32\euser\epoc\arm\uc_dll.cpp 0x00000000   Number         0  uc_dll.o ABSOLUTE
    .emb_text                                0x00008000   Section       40  uc_dll_.o(.emb_text)
    .emb_text                                0x00008028   Section       72  ucppinit_aeabi.o(.emb_text)
    skip                                     0x0000803c   ARM Code       0  ucppinit_aeabi.o(.emb_text)
    loop                                     0x0000804c   ARM Code       0  ucppinit_aeabi.o(.emb_text)
    fpinit                                   0x00008064   Data           0  ucppinit_aeabi.o(.emb_text)
    base                                     0x00008068   Data           0  ucppinit_aeabi.o(.emb_text)
    limit                                    0x0000806c   Data           0  ucppinit_aeabi.o(.emb_text)
    .text                                    0x00008070   Section      280  qtcontacts_symbian.in(.text)
    .text                                    0x00008188   Section      108  qtcontacts_symbian.in(.text)
    .text                                    0x000081f4   Section      144  qtcontacts_symbian.in(.text)
    .text                                    0x00008284   Section       68  qtcontacts_symbian.in(.text)
    .text                                    0x000082c8   Section       68  qtcontacts_symbian.in(.text)
    .text                                    0x0000830c   Section     7164  qtcontacts_symbian.in(.text)
    |L1.1020|                                0x00008708   Data           0  qtcontacts_symbian.in(.text)
    __sti___20_cntsymbianengine_cpp          0x00009dbf   Thumb Code   330  qtcontacts_symbian.in(.text)
    .text                                    0x00009f08   Section      108  qtcontacts_symbian.in(.text)
    .text                                    0x00009f74   Section     1568  qtcontacts_symbian.in(.text)
    .text                                    0x0000a594   Section      104  qtcontacts_symbian.in(.text)
    .text                                    0x0000a5fc   Section     1280  qtcontacts_symbian.in(.text)
    .text                                    0x0000aafc   Section     1300  qtcontacts_symbian.in(.text)
    .text                                    0x0000b010   Section     1626  qtcontacts_symbian.in(.text)
    .text                                    0x0000b66c   Section      724  qtcontacts_symbian.in(.text)
    .text                                    0x0000b940   Section     5392  qtcontacts_symbian.in(.text)
    |L1.2280|                                0x0000c228   Data           0  qtcontacts_symbian.in(.text)
    |L1.2292|                                0x0000c234   Data           0  qtcontacts_symbian.in(.text)
    |L1.2300|                                0x0000c23c   Data           0  qtcontacts_symbian.in(.text)
    |L1.3504|                                0x0000c6f0   Data           0  qtcontacts_symbian.in(.text)
    |L1.3520|                                0x0000c700   Data           0  qtcontacts_symbian.in(.text)
    |L1.3564|                                0x0000c72c   Data           0  qtcontacts_symbian.in(.text)
    |L1.3620|                                0x0000c764   Data           0  qtcontacts_symbian.in(.text)
    .text                                    0x0000ce50   Section     3084  qtcontacts_symbian.in(.text)
    |L1.976|                                 0x0000d220   Data           0  qtcontacts_symbian.in(.text)
    .text                                    0x0000da5c   Section      300  qtcontacts_symbian.in(.text)
    .text                                    0x0000db88   Section      740  qtcontacts_symbian.in(.text)
    .text                                    0x0000de6c   Section      736  qtcontacts_symbian.in(.text)
    .text                                    0x0000e14c   Section     3136  qtcontacts_symbian.in(.text)
    .text                                    0x0000ed8c   Section     1192  qtcontacts_symbian.in(.text)
    .text                                    0x0000f234   Section     1900  qtcontacts_symbian.in(.text)
    .text                                    0x0000f9a0   Section     4472  qtcontacts_symbian.in(.text)
    |L1.2172|                                0x0001021c   Data           0  qtcontacts_symbian.in(.text)
    |L1.2184|                                0x00010228   Data           0  qtcontacts_symbian.in(.text)
    |L1.2192|                                0x00010230   Data           0  qtcontacts_symbian.in(.text)
    |L1.2208|                                0x00010240   Data           0  qtcontacts_symbian.in(.text)
    |L1.2220|                                0x0001024c   Data           0  qtcontacts_symbian.in(.text)
    |L1.2248|                                0x00010268   Data           0  qtcontacts_symbian.in(.text)
    __sti___23_cnttransformcontact_cpp       0x000109d3   Thumb Code   128  qtcontacts_symbian.in(.text)
    .text                                    0x00010b18   Section      304  qtcontacts_symbian.in(.text)
    .text                                    0x00010c48   Section     1616  qtcontacts_symbian.in(.text)
    .text                                    0x00011298   Section      656  qtcontacts_symbian.in(.text)
    .text                                    0x00011528   Section     2156  qtcontacts_symbian.in(.text)
    .text                                    0x00011d94   Section      748  qtcontacts_symbian.in(.text)
    .text                                    0x00012080   Section     2164  qtcontacts_symbian.in(.text)
    .text                                    0x000128f4   Section     1166  qtcontacts_symbian.in(.text)
    .text                                    0x00012d84   Section      708  qtcontacts_symbian.in(.text)
    .text                                    0x00013048   Section     1460  qtcontacts_symbian.in(.text)
    .text                                    0x000135fc   Section     1508  qtcontacts_symbian.in(.text)
    .text                                    0x00013be0   Section     1082  qtcontacts_symbian.in(.text)
    .text                                    0x0001401c   Section      616  qtcontacts_symbian.in(.text)
    __sti___25_cnttransformthumbnail_cpp     0x00014257   Thumb Code    12  qtcontacts_symbian.in(.text)
    .text                                    0x00014284   Section      916  qtcontacts_symbian.in(.text)
    .text                                    0x00014618   Section     1000  qtcontacts_symbian.in(.text)
    __sti___23_cntthumbnailcreator_cpp       0x000149f3   Thumb Code    10  qtcontacts_symbian.in(.text)
    .text                                    0x00014a00   Section      844  qtcontacts_symbian.in(.text)
    .text                                    0x00014d4c   Section      620  qtcontacts_symbian.in(.text)
    .text                                    0x00014fb8   Section     1040  qtcontacts_symbian.in(.text)
    .text                                    0x000153c8   Section      736  qtcontacts_symbian.in(.text)
    .text                                    0x000156a8   Section     1130  qtcontacts_symbian.in(.text)
    .text                                    0x00015b14   Section      560  qtcontacts_symbian.in(.text)
    .text                                    0x00015d44   Section      984  qtcontacts_symbian.in(.text)
    .text                                    0x0001611c   Section      368  qtcontacts_symbian.in(.text)
    .text                                    0x0001628c   Section       40  uc_dll.o(.text)
    .text                                    0x000162b4   Section      148  ucppfini.o(.text)
    .text.clean                              0x00016348   Section     1068  qtcontacts_symbian.in(.text.clean)
    .text.clean                              0x00016774   Section       24  qtcontacts_symbian.in(.text.clean)
    .text.clean                              0x0001678c   Section      236  qtcontacts_symbian.in(.text.clean)
    .text.clean                              0x00016878   Section      172  qtcontacts_symbian.in(.text.clean)
    .text.clean                              0x00016924   Section      216  qtcontacts_symbian.in(.text.clean)
    .text.clean                              0x000169fc   Section      224  qtcontacts_symbian.in(.text.clean)
    .text.clean                              0x00016adc   Section      100  qtcontacts_symbian.in(.text.clean)
    .text.clean                              0x00016b40   Section      754  qtcontacts_symbian.in(.text.clean)
    .text.clean                              0x00016e32   Section      392  qtcontacts_symbian.in(.text.clean)
    .text.clean                              0x00016fba   Section       38  qtcontacts_symbian.in(.text.clean)
    .text.clean                              0x00016fe0   Section      108  qtcontacts_symbian.in(.text.clean)
    .text.clean                              0x0001704c   Section      108  qtcontacts_symbian.in(.text.clean)
    .text.clean                              0x000170b8   Section      358  qtcontacts_symbian.in(.text.clean)
    .text.clean                              0x0001721e   Section      190  qtcontacts_symbian.in(.text.clean)
    .text.clean                              0x000172dc   Section      240  qtcontacts_symbian.in(.text.clean)
    .text.clean                              0x000173cc   Section      436  qtcontacts_symbian.in(.text.clean)
    .text.clean                              0x00017580   Section       30  qtcontacts_symbian.in(.text.clean)
    .text.clean                              0x0001759e   Section      136  qtcontacts_symbian.in(.text.clean)
    .text.clean                              0x00017626   Section      122  qtcontacts_symbian.in(.text.clean)
    .text.clean                              0x000176a0   Section      198  qtcontacts_symbian.in(.text.clean)
    .text.clean                              0x00017766   Section      136  qtcontacts_symbian.in(.text.clean)
    .text.clean                              0x000177ee   Section      228  qtcontacts_symbian.in(.text.clean)
    .text.clean                              0x000178d2   Section      184  qtcontacts_symbian.in(.text.clean)
    .text.clean                              0x0001798a   Section      102  qtcontacts_symbian.in(.text.clean)
    .text.clean                              0x000179f0   Section      164  qtcontacts_symbian.in(.text.clean)
    .text.clean                              0x00017a94   Section      176  qtcontacts_symbian.in(.text.clean)
    .text.clean                              0x00017b44   Section      150  qtcontacts_symbian.in(.text.clean)
    .text.clean                              0x00017bda   Section       94  qtcontacts_symbian.in(.text.clean)
    .text.clean                              0x00017c38   Section      138  qtcontacts_symbian.in(.text.clean)
    .text.clean                              0x00017cc2   Section       28  qtcontacts_symbian.in(.text.clean)
    .text.clean                              0x00017cde   Section      160  qtcontacts_symbian.in(.text.clean)
    .text.clean                              0x00017d7e   Section      104  qtcontacts_symbian.in(.text.clean)
    .text.clean                              0x00017de6   Section      122  qtcontacts_symbian.in(.text.clean)
    .text.clean                              0x00017e60   Section       86  qtcontacts_symbian.in(.text.clean)
    .text.clean                              0x00017eb6   Section      130  qtcontacts_symbian.in(.text.clean)
    .text.clean                              0x00017f38   Section      104  qtcontacts_symbian.in(.text.clean)
    .text.clean                              0x00017fa0   Section      148  qtcontacts_symbian.in(.text.clean)
    .text.clean                              0x00018034   Section       26  qtcontacts_symbian.in(.text.clean)
    ExportTable                              0x00018050   Section       16  qtcontacts_symbian{000a0000}.exp(ExportTable)
    StubCode                                 0x00018060   Section        8  cntmodel{000a0000}-110.o(StubCode)
    theImportedSymbol                        0x00018064   Data           0  cntmodel{000a0000}-110.o(StubCode)
    StubCode                                 0x00018068   Section        8  cntmodel{000a0000}-116.o(StubCode)
    theImportedSymbol                        0x0001806c   Data           0  cntmodel{000a0000}-116.o(StubCode)
    StubCode                                 0x00018070   Section        8  cntmodel{000a0000}-121.o(StubCode)
    theImportedSymbol                        0x00018074   Data           0  cntmodel{000a0000}-121.o(StubCode)
    StubCode                                 0x00018078   Section        8  cntmodel{000a0000}-122.o(StubCode)
    theImportedSymbol                        0x0001807c   Data           0  cntmodel{000a0000}-122.o(StubCode)
    StubCode                                 0x00018080   Section        8  cntmodel{000a0000}-128.o(StubCode)
    theImportedSymbol                        0x00018084   Data           0  cntmodel{000a0000}-128.o(StubCode)
    StubCode                                 0x00018088   Section        8  cntmodel{000a0000}-130.o(StubCode)
    theImportedSymbol                        0x0001808c   Data           0  cntmodel{000a0000}-130.o(StubCode)
    StubCode                                 0x00018090   Section        8  cntmodel{000a0000}-132.o(StubCode)
    theImportedSymbol                        0x00018094   Data           0  cntmodel{000a0000}-132.o(StubCode)
    StubCode                                 0x00018098   Section        8  cntmodel{000a0000}-133.o(StubCode)
    theImportedSymbol                        0x0001809c   Data           0  cntmodel{000a0000}-133.o(StubCode)
    StubCode                                 0x000180a0   Section        8  cntmodel{000a0000}-136.o(StubCode)
    theImportedSymbol                        0x000180a4   Data           0  cntmodel{000a0000}-136.o(StubCode)
    StubCode                                 0x000180a8   Section        8  cntmodel{000a0000}-169.o(StubCode)
    theImportedSymbol                        0x000180ac   Data           0  cntmodel{000a0000}-169.o(StubCode)
    StubCode                                 0x000180b0   Section        8  cntmodel{000a0000}-175.o(StubCode)
    theImportedSymbol                        0x000180b4   Data           0  cntmodel{000a0000}-175.o(StubCode)
    StubCode                                 0x000180b8   Section        8  cntmodel{000a0000}-193.o(StubCode)
    theImportedSymbol                        0x000180bc   Data           0  cntmodel{000a0000}-193.o(StubCode)
    StubCode                                 0x000180c0   Section        8  cntmodel{000a0000}-195.o(StubCode)
    theImportedSymbol                        0x000180c4   Data           0  cntmodel{000a0000}-195.o(StubCode)
    StubCode                                 0x000180c8   Section        8  cntmodel{000a0000}-201.o(StubCode)
    theImportedSymbol                        0x000180cc   Data           0  cntmodel{000a0000}-201.o(StubCode)
    StubCode                                 0x000180d0   Section        8  cntmodel{000a0000}-212.o(StubCode)
    theImportedSymbol                        0x000180d4   Data           0  cntmodel{000a0000}-212.o(StubCode)
    StubCode                                 0x000180d8   Section        8  cntmodel{000a0000}-219.o(StubCode)
    theImportedSymbol                        0x000180dc   Data           0  cntmodel{000a0000}-219.o(StubCode)
    StubCode                                 0x000180e0   Section        8  cntmodel{000a0000}-223.o(StubCode)
    theImportedSymbol                        0x000180e4   Data           0  cntmodel{000a0000}-223.o(StubCode)
    StubCode                                 0x000180e8   Section        8  cntmodel{000a0000}-224.o(StubCode)
    theImportedSymbol                        0x000180ec   Data           0  cntmodel{000a0000}-224.o(StubCode)
    StubCode                                 0x000180f0   Section        8  cntmodel{000a0000}-23.o(StubCode)
    theImportedSymbol                        0x000180f4   Data           0  cntmodel{000a0000}-23.o(StubCode)
    StubCode                                 0x000180f8   Section        8  cntmodel{000a0000}-272.o(StubCode)
    theImportedSymbol                        0x000180fc   Data           0  cntmodel{000a0000}-272.o(StubCode)
    StubCode                                 0x00018100   Section        8  cntmodel{000a0000}-274.o(StubCode)
    theImportedSymbol                        0x00018104   Data           0  cntmodel{000a0000}-274.o(StubCode)
    StubCode                                 0x00018108   Section        8  cntmodel{000a0000}-281.o(StubCode)
    theImportedSymbol                        0x0001810c   Data           0  cntmodel{000a0000}-281.o(StubCode)
    StubCode                                 0x00018110   Section        8  cntmodel{000a0000}-286.o(StubCode)
    theImportedSymbol                        0x00018114   Data           0  cntmodel{000a0000}-286.o(StubCode)
    StubCode                                 0x00018118   Section        8  cntmodel{000a0000}-290.o(StubCode)
    theImportedSymbol                        0x0001811c   Data           0  cntmodel{000a0000}-290.o(StubCode)
    StubCode                                 0x00018120   Section        8  cntmodel{000a0000}-291.o(StubCode)
    theImportedSymbol                        0x00018124   Data           0  cntmodel{000a0000}-291.o(StubCode)
    StubCode                                 0x00018128   Section        8  cntmodel{000a0000}-292.o(StubCode)
    theImportedSymbol                        0x0001812c   Data           0  cntmodel{000a0000}-292.o(StubCode)
    StubCode                                 0x00018130   Section        8  cntmodel{000a0000}-31.o(StubCode)
    theImportedSymbol                        0x00018134   Data           0  cntmodel{000a0000}-31.o(StubCode)
    StubCode                                 0x00018138   Section        8  cntmodel{000a0000}-320.o(StubCode)
    theImportedSymbol                        0x0001813c   Data           0  cntmodel{000a0000}-320.o(StubCode)
    StubCode                                 0x00018140   Section        8  cntmodel{000a0000}-330.o(StubCode)
    theImportedSymbol                        0x00018144   Data           0  cntmodel{000a0000}-330.o(StubCode)
    StubCode                                 0x00018148   Section        8  cntmodel{000a0000}-333.o(StubCode)
    theImportedSymbol                        0x0001814c   Data           0  cntmodel{000a0000}-333.o(StubCode)
    StubCode                                 0x00018150   Section        8  cntmodel{000a0000}-335.o(StubCode)
    theImportedSymbol                        0x00018154   Data           0  cntmodel{000a0000}-335.o(StubCode)
    StubCode                                 0x00018158   Section        8  cntmodel{000a0000}-357.o(StubCode)
    theImportedSymbol                        0x0001815c   Data           0  cntmodel{000a0000}-357.o(StubCode)
    StubCode                                 0x00018160   Section        8  cntmodel{000a0000}-360.o(StubCode)
    theImportedSymbol                        0x00018164   Data           0  cntmodel{000a0000}-360.o(StubCode)
    StubCode                                 0x00018168   Section        8  cntmodel{000a0000}-377.o(StubCode)
    theImportedSymbol                        0x0001816c   Data           0  cntmodel{000a0000}-377.o(StubCode)
    StubCode                                 0x00018170   Section        8  cntmodel{000a0000}-390.o(StubCode)
    theImportedSymbol                        0x00018174   Data           0  cntmodel{000a0000}-390.o(StubCode)
    StubCode                                 0x00018178   Section        8  cntmodel{000a0000}-391.o(StubCode)
    theImportedSymbol                        0x0001817c   Data           0  cntmodel{000a0000}-391.o(StubCode)
    StubCode                                 0x00018180   Section        8  cntmodel{000a0000}-392.o(StubCode)
    theImportedSymbol                        0x00018184   Data           0  cntmodel{000a0000}-392.o(StubCode)
    StubCode                                 0x00018188   Section        8  cntmodel{000a0000}-394.o(StubCode)
    theImportedSymbol                        0x0001818c   Data           0  cntmodel{000a0000}-394.o(StubCode)
    StubCode                                 0x00018190   Section        8  cntmodel{000a0000}-396.o(StubCode)
    theImportedSymbol                        0x00018194   Data           0  cntmodel{000a0000}-396.o(StubCode)
    StubCode                                 0x00018198   Section        8  cntmodel{000a0000}-397.o(StubCode)
    theImportedSymbol                        0x0001819c   Data           0  cntmodel{000a0000}-397.o(StubCode)
    StubCode                                 0x000181a0   Section        8  cntmodel{000a0000}-400.o(StubCode)
    theImportedSymbol                        0x000181a4   Data           0  cntmodel{000a0000}-400.o(StubCode)
    StubCode                                 0x000181a8   Section        8  cntmodel{000a0000}-401.o(StubCode)
    theImportedSymbol                        0x000181ac   Data           0  cntmodel{000a0000}-401.o(StubCode)
    StubCode                                 0x000181b0   Section        8  cntmodel{000a0000}-409.o(StubCode)
    theImportedSymbol                        0x000181b4   Data           0  cntmodel{000a0000}-409.o(StubCode)
    StubCode                                 0x000181b8   Section        8  cntmodel{000a0000}-414.o(StubCode)
    theImportedSymbol                        0x000181bc   Data           0  cntmodel{000a0000}-414.o(StubCode)
    StubCode                                 0x000181c0   Section        8  cntmodel{000a0000}-426.o(StubCode)
    theImportedSymbol                        0x000181c4   Data           0  cntmodel{000a0000}-426.o(StubCode)
    StubCode                                 0x000181c8   Section        8  cntmodel{000a0000}-433.o(StubCode)
    theImportedSymbol                        0x000181cc   Data           0  cntmodel{000a0000}-433.o(StubCode)
    StubCode                                 0x000181d0   Section        8  cntmodel{000a0000}-437.o(StubCode)
    theImportedSymbol                        0x000181d4   Data           0  cntmodel{000a0000}-437.o(StubCode)
    StubCode                                 0x000181d8   Section        8  cntmodel{000a0000}-438.o(StubCode)
    theImportedSymbol                        0x000181dc   Data           0  cntmodel{000a0000}-438.o(StubCode)
    StubCode                                 0x000181e0   Section        8  cntmodel{000a0000}-443.o(StubCode)
    theImportedSymbol                        0x000181e4   Data           0  cntmodel{000a0000}-443.o(StubCode)
    StubCode                                 0x000181e8   Section        8  cntmodel{000a0000}-444.o(StubCode)
    theImportedSymbol                        0x000181ec   Data           0  cntmodel{000a0000}-444.o(StubCode)
    StubCode                                 0x000181f0   Section        8  cntmodel{000a0000}-445.o(StubCode)
    theImportedSymbol                        0x000181f4   Data           0  cntmodel{000a0000}-445.o(StubCode)
    StubCode                                 0x000181f8   Section        8  cntmodel{000a0000}-446.o(StubCode)
    theImportedSymbol                        0x000181fc   Data           0  cntmodel{000a0000}-446.o(StubCode)
    StubCode                                 0x00018200   Section        8  cntmodel{000a0000}-448.o(StubCode)
    theImportedSymbol                        0x00018204   Data           0  cntmodel{000a0000}-448.o(StubCode)
    StubCode                                 0x00018208   Section        8  cntmodel{000a0000}-450.o(StubCode)
    theImportedSymbol                        0x0001820c   Data           0  cntmodel{000a0000}-450.o(StubCode)
    StubCode                                 0x00018210   Section        8  cntmodel{000a0000}-458.o(StubCode)
    theImportedSymbol                        0x00018214   Data           0  cntmodel{000a0000}-458.o(StubCode)
    StubCode                                 0x00018218   Section        8  cntmodel{000a0000}-460.o(StubCode)
    theImportedSymbol                        0x0001821c   Data           0  cntmodel{000a0000}-460.o(StubCode)
    StubCode                                 0x00018220   Section        8  cntmodel{000a0000}-467.o(StubCode)
    theImportedSymbol                        0x00018224   Data           0  cntmodel{000a0000}-467.o(StubCode)
    StubCode                                 0x00018228   Section        8  cntmodel{000a0000}-468.o(StubCode)
    theImportedSymbol                        0x0001822c   Data           0  cntmodel{000a0000}-468.o(StubCode)
    StubCode                                 0x00018230   Section        8  cntmodel{000a0000}-469.o(StubCode)
    theImportedSymbol                        0x00018234   Data           0  cntmodel{000a0000}-469.o(StubCode)
    StubCode                                 0x00018238   Section        8  cntmodel{000a0000}-611.o(StubCode)
    theImportedSymbol                        0x0001823c   Data           0  cntmodel{000a0000}-611.o(StubCode)
    StubCode                                 0x00018240   Section        8  cntmodel{000a0000}-80.o(StubCode)
    theImportedSymbol                        0x00018244   Data           0  cntmodel{000a0000}-80.o(StubCode)
    StubCode                                 0x00018248   Section        8  cntmodel{000a0000}-81.o(StubCode)
    theImportedSymbol                        0x0001824c   Data           0  cntmodel{000a0000}-81.o(StubCode)
    StubCode                                 0x00018250   Section        8  cntmodel{000a0000}-85.o(StubCode)
    theImportedSymbol                        0x00018254   Data           0  cntmodel{000a0000}-85.o(StubCode)
    StubCode                                 0x00018258   Section        8  centralrepository{000a0000}-1.o(StubCode)
    theImportedSymbol                        0x0001825c   Data           0  centralrepository{000a0000}-1.o(StubCode)
    StubCode                                 0x00018260   Section        8  centralrepository{000a0000}-14.o(StubCode)
    theImportedSymbol                        0x00018264   Data           0  centralrepository{000a0000}-14.o(StubCode)
    StubCode                                 0x00018268   Section        8  centralrepository{000a0000}-3.o(StubCode)
    theImportedSymbol                        0x0001826c   Data           0  centralrepository{000a0000}-3.o(StubCode)
    StubCode                                 0x00018270   Section        8  centralrepository{000a0000}-9.o(StubCode)
    theImportedSymbol                        0x00018274   Data           0  centralrepository{000a0000}-9.o(StubCode)
    StubCode                                 0x00018278   Section        8  estor{000a0000}-13.o(StubCode)
    theImportedSymbol                        0x0001827c   Data           0  estor{000a0000}-13.o(StubCode)
    StubCode                                 0x00018280   Section        8  estor{000a0000}-254.o(StubCode)
    theImportedSymbol                        0x00018284   Data           0  estor{000a0000}-254.o(StubCode)
    StubCode                                 0x00018288   Section        8  estor{000a0000}-499.o(StubCode)
    theImportedSymbol                        0x0001828c   Data           0  estor{000a0000}-499.o(StubCode)
    StubCode                                 0x00018290   Section        8  estor{000a0000}-96.o(StubCode)
    theImportedSymbol                        0x00018294   Data           0  estor{000a0000}-96.o(StubCode)
    StubCode                                 0x00018298   Section        8  efsrv{000a0000}-214.o(StubCode)
    theImportedSymbol                        0x0001829c   Data           0  efsrv{000a0000}-214.o(StubCode)
    StubCode                                 0x000182a0   Section        8  efsrv{000a0000}-68.o(StubCode)
    theImportedSymbol                        0x000182a4   Data           0  efsrv{000a0000}-68.o(StubCode)
    StubCode                                 0x000182a8   Section        8  fbscli{000a0000}-26.o(StubCode)
    theImportedSymbol                        0x000182ac   Data           0  fbscli{000a0000}-26.o(StubCode)
    StubCode                                 0x000182b0   Section        8  fbscli{000a0000}-31.o(StubCode)
    theImportedSymbol                        0x000182b4   Data           0  fbscli{000a0000}-31.o(StubCode)
    StubCode                                 0x000182b8   Section        8  imageconversion{000a0000}-298.o(StubCode)
    theImportedSymbol                        0x000182bc   Data           0  imageconversion{000a0000}-298.o(StubCode)
    StubCode                                 0x000182c0   Section        8  imageconversion{000a0000}-36.o(StubCode)
    theImportedSymbol                        0x000182c4   Data           0  imageconversion{000a0000}-36.o(StubCode)
    StubCode                                 0x000182c8   Section        8  imageconversion{000a0000}-59.o(StubCode)
    theImportedSymbol                        0x000182cc   Data           0  imageconversion{000a0000}-59.o(StubCode)
    StubCode                                 0x000182d0   Section        8  imageconversion{000a0000}-60.o(StubCode)
    theImportedSymbol                        0x000182d4   Data           0  imageconversion{000a0000}-60.o(StubCode)
    StubCode                                 0x000182d8   Section        8  bitmaptransforms{000a0000}-2.o(StubCode)
    theImportedSymbol                        0x000182dc   Data           0  bitmaptransforms{000a0000}-2.o(StubCode)
    StubCode                                 0x000182e0   Section        8  bitmaptransforms{000a0000}-3.o(StubCode)
    theImportedSymbol                        0x000182e4   Data           0  bitmaptransforms{000a0000}-3.o(StubCode)
    StubCode                                 0x000182e8   Section        8  bafl{000a0000}-257.o(StubCode)
    theImportedSymbol                        0x000182ec   Data           0  bafl{000a0000}-257.o(StubCode)
    StubCode                                 0x000182f0   Section        8  tzclient{000a0000}-1.o(StubCode)
    theImportedSymbol                        0x000182f4   Data           0  tzclient{000a0000}-1.o(StubCode)
    StubCode                                 0x000182f8   Section        8  tzclient{000a0000}-18.o(StubCode)
    theImportedSymbol                        0x000182fc   Data           0  tzclient{000a0000}-18.o(StubCode)
    StubCode                                 0x00018300   Section        8  tzclient{000a0000}-20.o(StubCode)
    theImportedSymbol                        0x00018304   Data           0  tzclient{000a0000}-20.o(StubCode)
    StubCode                                 0x00018308   Section        8  tzclient{000a0000}-21.o(StubCode)
    theImportedSymbol                        0x0001830c   Data           0  tzclient{000a0000}-21.o(StubCode)
    StubCode                                 0x00018310   Section        8  tzclient{000a0000}-23.o(StubCode)
    theImportedSymbol                        0x00018314   Data           0  tzclient{000a0000}-23.o(StubCode)
    StubCode                                 0x00018318   Section        8  tzclient{000a0000}-5.o(StubCode)
    theImportedSymbol                        0x0001831c   Data           0  tzclient{000a0000}-5.o(StubCode)
    StubCode                                 0x00018320   Section        8  QtContacts{00010103}-1.o(StubCode)
    theImportedSymbol                        0x00018324   Data           0  QtContacts{00010103}-1.o(StubCode)
    StubCode                                 0x00018328   Section        8  QtContacts{00010103}-120.o(StubCode)
    theImportedSymbol                        0x0001832c   Data           0  QtContacts{00010103}-120.o(StubCode)
    StubCode                                 0x00018330   Section        8  QtContacts{00010103}-147.o(StubCode)
    theImportedSymbol                        0x00018334   Data           0  QtContacts{00010103}-147.o(StubCode)
    StubCode                                 0x00018338   Section        8  QtContacts{00010103}-148.o(StubCode)
    theImportedSymbol                        0x0001833c   Data           0  QtContacts{00010103}-148.o(StubCode)
    StubCode                                 0x00018340   Section        8  QtContacts{00010103}-150.o(StubCode)
    theImportedSymbol                        0x00018344   Data           0  QtContacts{00010103}-150.o(StubCode)
    StubCode                                 0x00018348   Section        8  QtContacts{00010103}-154.o(StubCode)
    theImportedSymbol                        0x0001834c   Data           0  QtContacts{00010103}-154.o(StubCode)
    StubCode                                 0x00018350   Section        8  QtContacts{00010103}-155.o(StubCode)
    theImportedSymbol                        0x00018354   Data           0  QtContacts{00010103}-155.o(StubCode)
    StubCode                                 0x00018358   Section        8  QtContacts{00010103}-158.o(StubCode)
    theImportedSymbol                        0x0001835c   Data           0  QtContacts{00010103}-158.o(StubCode)
    StubCode                                 0x00018360   Section        8  QtContacts{00010103}-160.o(StubCode)
    theImportedSymbol                        0x00018364   Data           0  QtContacts{00010103}-160.o(StubCode)
    StubCode                                 0x00018368   Section        8  QtContacts{00010103}-161.o(StubCode)
    theImportedSymbol                        0x0001836c   Data           0  QtContacts{00010103}-161.o(StubCode)
    StubCode                                 0x00018370   Section        8  QtContacts{00010103}-163.o(StubCode)
    theImportedSymbol                        0x00018374   Data           0  QtContacts{00010103}-163.o(StubCode)
    StubCode                                 0x00018378   Section        8  QtContacts{00010103}-164.o(StubCode)
    theImportedSymbol                        0x0001837c   Data           0  QtContacts{00010103}-164.o(StubCode)
    StubCode                                 0x00018380   Section        8  QtContacts{00010103}-167.o(StubCode)
    theImportedSymbol                        0x00018384   Data           0  QtContacts{00010103}-167.o(StubCode)
    StubCode                                 0x00018388   Section        8  QtContacts{00010103}-170.o(StubCode)
    theImportedSymbol                        0x0001838c   Data           0  QtContacts{00010103}-170.o(StubCode)
    StubCode                                 0x00018390   Section        8  QtContacts{00010103}-177.o(StubCode)
    theImportedSymbol                        0x00018394   Data           0  QtContacts{00010103}-177.o(StubCode)
    StubCode                                 0x00018398   Section        8  QtContacts{00010103}-180.o(StubCode)
    theImportedSymbol                        0x0001839c   Data           0  QtContacts{00010103}-180.o(StubCode)
    StubCode                                 0x000183a0   Section        8  QtContacts{00010103}-187.o(StubCode)
    theImportedSymbol                        0x000183a4   Data           0  QtContacts{00010103}-187.o(StubCode)
    StubCode                                 0x000183a8   Section        8  QtContacts{00010103}-188.o(StubCode)
    theImportedSymbol                        0x000183ac   Data           0  QtContacts{00010103}-188.o(StubCode)
    StubCode                                 0x000183b0   Section        8  QtContacts{00010103}-191.o(StubCode)
    theImportedSymbol                        0x000183b4   Data           0  QtContacts{00010103}-191.o(StubCode)
    StubCode                                 0x000183b8   Section        8  QtContacts{00010103}-193.o(StubCode)
    theImportedSymbol                        0x000183bc   Data           0  QtContacts{00010103}-193.o(StubCode)
    StubCode                                 0x000183c0   Section        8  QtContacts{00010103}-2.o(StubCode)
    theImportedSymbol                        0x000183c4   Data           0  QtContacts{00010103}-2.o(StubCode)
    StubCode                                 0x000183c8   Section        8  QtContacts{00010103}-249.o(StubCode)
    theImportedSymbol                        0x000183cc   Data           0  QtContacts{00010103}-249.o(StubCode)
    StubCode                                 0x000183d0   Section        8  QtContacts{00010103}-255.o(StubCode)
    theImportedSymbol                        0x000183d4   Data           0  QtContacts{00010103}-255.o(StubCode)
    StubCode                                 0x000183d8   Section        8  QtContacts{00010103}-256.o(StubCode)
    theImportedSymbol                        0x000183dc   Data           0  QtContacts{00010103}-256.o(StubCode)
    StubCode                                 0x000183e0   Section        8  QtContacts{00010103}-257.o(StubCode)
    theImportedSymbol                        0x000183e4   Data           0  QtContacts{00010103}-257.o(StubCode)
    StubCode                                 0x000183e8   Section        8  QtContacts{00010103}-258.o(StubCode)
    theImportedSymbol                        0x000183ec   Data           0  QtContacts{00010103}-258.o(StubCode)
    StubCode                                 0x000183f0   Section        8  QtContacts{00010103}-287.o(StubCode)
    theImportedSymbol                        0x000183f4   Data           0  QtContacts{00010103}-287.o(StubCode)
    StubCode                                 0x000183f8   Section        8  QtContacts{00010103}-289.o(StubCode)
    theImportedSymbol                        0x000183fc   Data           0  QtContacts{00010103}-289.o(StubCode)
    StubCode                                 0x00018400   Section        8  QtContacts{00010103}-292.o(StubCode)
    theImportedSymbol                        0x00018404   Data           0  QtContacts{00010103}-292.o(StubCode)
    StubCode                                 0x00018408   Section        8  QtContacts{00010103}-293.o(StubCode)
    theImportedSymbol                        0x0001840c   Data           0  QtContacts{00010103}-293.o(StubCode)
    StubCode                                 0x00018410   Section        8  QtContacts{00010103}-294.o(StubCode)
    theImportedSymbol                        0x00018414   Data           0  QtContacts{00010103}-294.o(StubCode)
    StubCode                                 0x00018418   Section        8  QtContacts{00010103}-297.o(StubCode)
    theImportedSymbol                        0x0001841c   Data           0  QtContacts{00010103}-297.o(StubCode)
    StubCode                                 0x00018420   Section        8  QtContacts{00010103}-3.o(StubCode)
    theImportedSymbol                        0x00018424   Data           0  QtContacts{00010103}-3.o(StubCode)
    StubCode                                 0x00018428   Section        8  QtContacts{00010103}-301.o(StubCode)
    theImportedSymbol                        0x0001842c   Data           0  QtContacts{00010103}-301.o(StubCode)
    StubCode                                 0x00018430   Section        8  QtContacts{00010103}-309.o(StubCode)
    theImportedSymbol                        0x00018434   Data           0  QtContacts{00010103}-309.o(StubCode)
    StubCode                                 0x00018438   Section        8  QtContacts{00010103}-311.o(StubCode)
    theImportedSymbol                        0x0001843c   Data           0  QtContacts{00010103}-311.o(StubCode)
    StubCode                                 0x00018440   Section        8  QtContacts{00010103}-312.o(StubCode)
    theImportedSymbol                        0x00018444   Data           0  QtContacts{00010103}-312.o(StubCode)
    StubCode                                 0x00018448   Section        8  QtContacts{00010103}-315.o(StubCode)
    theImportedSymbol                        0x0001844c   Data           0  QtContacts{00010103}-315.o(StubCode)
    StubCode                                 0x00018450   Section        8  QtContacts{00010103}-333.o(StubCode)
    theImportedSymbol                        0x00018454   Data           0  QtContacts{00010103}-333.o(StubCode)
    StubCode                                 0x00018458   Section        8  QtContacts{00010103}-338.o(StubCode)
    theImportedSymbol                        0x0001845c   Data           0  QtContacts{00010103}-338.o(StubCode)
    StubCode                                 0x00018460   Section        8  QtContacts{00010103}-340.o(StubCode)
    theImportedSymbol                        0x00018464   Data           0  QtContacts{00010103}-340.o(StubCode)
    StubCode                                 0x00018468   Section        8  QtContacts{00010103}-341.o(StubCode)
    theImportedSymbol                        0x0001846c   Data           0  QtContacts{00010103}-341.o(StubCode)
    StubCode                                 0x00018470   Section        8  QtContacts{00010103}-343.o(StubCode)
    theImportedSymbol                        0x00018474   Data           0  QtContacts{00010103}-343.o(StubCode)
    StubCode                                 0x00018478   Section        8  QtContacts{00010103}-344.o(StubCode)
    theImportedSymbol                        0x0001847c   Data           0  QtContacts{00010103}-344.o(StubCode)
    StubCode                                 0x00018480   Section        8  QtContacts{00010103}-345.o(StubCode)
    theImportedSymbol                        0x00018484   Data           0  QtContacts{00010103}-345.o(StubCode)
    StubCode                                 0x00018488   Section        8  QtContacts{00010103}-347.o(StubCode)
    theImportedSymbol                        0x0001848c   Data           0  QtContacts{00010103}-347.o(StubCode)
    StubCode                                 0x00018490   Section        8  QtContacts{00010103}-349.o(StubCode)
    theImportedSymbol                        0x00018494   Data           0  QtContacts{00010103}-349.o(StubCode)
    StubCode                                 0x00018498   Section        8  QtContacts{00010103}-351.o(StubCode)
    theImportedSymbol                        0x0001849c   Data           0  QtContacts{00010103}-351.o(StubCode)
    StubCode                                 0x000184a0   Section        8  QtContacts{00010103}-352.o(StubCode)
    theImportedSymbol                        0x000184a4   Data           0  QtContacts{00010103}-352.o(StubCode)
    StubCode                                 0x000184a8   Section        8  QtContacts{00010103}-353.o(StubCode)
    theImportedSymbol                        0x000184ac   Data           0  QtContacts{00010103}-353.o(StubCode)
    StubCode                                 0x000184b0   Section        8  QtContacts{00010103}-354.o(StubCode)
    theImportedSymbol                        0x000184b4   Data           0  QtContacts{00010103}-354.o(StubCode)
    StubCode                                 0x000184b8   Section        8  QtContacts{00010103}-4.o(StubCode)
    theImportedSymbol                        0x000184bc   Data           0  QtContacts{00010103}-4.o(StubCode)
    StubCode                                 0x000184c0   Section        8  QtContacts{00010103}-403.o(StubCode)
    theImportedSymbol                        0x000184c4   Data           0  QtContacts{00010103}-403.o(StubCode)
    StubCode                                 0x000184c8   Section        8  QtContacts{00010103}-404.o(StubCode)
    theImportedSymbol                        0x000184cc   Data           0  QtContacts{00010103}-404.o(StubCode)
    StubCode                                 0x000184d0   Section        8  QtContacts{00010103}-405.o(StubCode)
    theImportedSymbol                        0x000184d4   Data           0  QtContacts{00010103}-405.o(StubCode)
    StubCode                                 0x000184d8   Section        8  QtContacts{00010103}-406.o(StubCode)
    theImportedSymbol                        0x000184dc   Data           0  QtContacts{00010103}-406.o(StubCode)
    StubCode                                 0x000184e0   Section        8  QtContacts{00010103}-407.o(StubCode)
    theImportedSymbol                        0x000184e4   Data           0  QtContacts{00010103}-407.o(StubCode)
    StubCode                                 0x000184e8   Section        8  QtContacts{00010103}-410.o(StubCode)
    theImportedSymbol                        0x000184ec   Data           0  QtContacts{00010103}-410.o(StubCode)
    StubCode                                 0x000184f0   Section        8  QtContacts{00010103}-412.o(StubCode)
    theImportedSymbol                        0x000184f4   Data           0  QtContacts{00010103}-412.o(StubCode)
    StubCode                                 0x000184f8   Section        8  QtContacts{00010103}-421.o(StubCode)
    theImportedSymbol                        0x000184fc   Data           0  QtContacts{00010103}-421.o(StubCode)
    StubCode                                 0x00018500   Section        8  QtContacts{00010103}-424.o(StubCode)
    theImportedSymbol                        0x00018504   Data           0  QtContacts{00010103}-424.o(StubCode)
    StubCode                                 0x00018508   Section        8  QtContacts{00010103}-425.o(StubCode)
    theImportedSymbol                        0x0001850c   Data           0  QtContacts{00010103}-425.o(StubCode)
    StubCode                                 0x00018510   Section        8  QtContacts{00010103}-432.o(StubCode)
    theImportedSymbol                        0x00018514   Data           0  QtContacts{00010103}-432.o(StubCode)
    StubCode                                 0x00018518   Section        8  QtContacts{00010103}-446.o(StubCode)
    theImportedSymbol                        0x0001851c   Data           0  QtContacts{00010103}-446.o(StubCode)
    StubCode                                 0x00018520   Section        8  QtContacts{00010103}-447.o(StubCode)
    theImportedSymbol                        0x00018524   Data           0  QtContacts{00010103}-447.o(StubCode)
    StubCode                                 0x00018528   Section        8  QtContacts{00010103}-448.o(StubCode)
    theImportedSymbol                        0x0001852c   Data           0  QtContacts{00010103}-448.o(StubCode)
    StubCode                                 0x00018530   Section        8  QtContacts{00010103}-449.o(StubCode)
    theImportedSymbol                        0x00018534   Data           0  QtContacts{00010103}-449.o(StubCode)
    StubCode                                 0x00018538   Section        8  QtContacts{00010103}-450.o(StubCode)
    theImportedSymbol                        0x0001853c   Data           0  QtContacts{00010103}-450.o(StubCode)
    StubCode                                 0x00018540   Section        8  QtContacts{00010103}-453.o(StubCode)
    theImportedSymbol                        0x00018544   Data           0  QtContacts{00010103}-453.o(StubCode)
    StubCode                                 0x00018548   Section        8  QtContacts{00010103}-455.o(StubCode)
    theImportedSymbol                        0x0001854c   Data           0  QtContacts{00010103}-455.o(StubCode)
    StubCode                                 0x00018550   Section        8  QtContacts{00010103}-48.o(StubCode)
    theImportedSymbol                        0x00018554   Data           0  QtContacts{00010103}-48.o(StubCode)
    StubCode                                 0x00018558   Section        8  QtContacts{00010103}-49.o(StubCode)
    theImportedSymbol                        0x0001855c   Data           0  QtContacts{00010103}-49.o(StubCode)
    StubCode                                 0x00018560   Section        8  QtContacts{00010103}-50.o(StubCode)
    theImportedSymbol                        0x00018564   Data           0  QtContacts{00010103}-50.o(StubCode)
    StubCode                                 0x00018568   Section        8  QtContacts{00010103}-51.o(StubCode)
    theImportedSymbol                        0x0001856c   Data           0  QtContacts{00010103}-51.o(StubCode)
    StubCode                                 0x00018570   Section        8  QtContacts{00010103}-512.o(StubCode)
    theImportedSymbol                        0x00018574   Data           0  QtContacts{00010103}-512.o(StubCode)
    StubCode                                 0x00018578   Section        8  QtContacts{00010103}-513.o(StubCode)
    theImportedSymbol                        0x0001857c   Data           0  QtContacts{00010103}-513.o(StubCode)
    StubCode                                 0x00018580   Section        8  QtContacts{00010103}-514.o(StubCode)
    theImportedSymbol                        0x00018584   Data           0  QtContacts{00010103}-514.o(StubCode)
    StubCode                                 0x00018588   Section        8  QtContacts{00010103}-515.o(StubCode)
    theImportedSymbol                        0x0001858c   Data           0  QtContacts{00010103}-515.o(StubCode)
    StubCode                                 0x00018590   Section        8  QtContacts{00010103}-516.o(StubCode)
    theImportedSymbol                        0x00018594   Data           0  QtContacts{00010103}-516.o(StubCode)
    StubCode                                 0x00018598   Section        8  QtContacts{00010103}-518.o(StubCode)
    theImportedSymbol                        0x0001859c   Data           0  QtContacts{00010103}-518.o(StubCode)
    StubCode                                 0x000185a0   Section        8  QtContacts{00010103}-519.o(StubCode)
    theImportedSymbol                        0x000185a4   Data           0  QtContacts{00010103}-519.o(StubCode)
    StubCode                                 0x000185a8   Section        8  QtContacts{00010103}-52.o(StubCode)
    theImportedSymbol                        0x000185ac   Data           0  QtContacts{00010103}-52.o(StubCode)
    StubCode                                 0x000185b0   Section        8  QtContacts{00010103}-522.o(StubCode)
    theImportedSymbol                        0x000185b4   Data           0  QtContacts{00010103}-522.o(StubCode)
    StubCode                                 0x000185b8   Section        8  QtContacts{00010103}-524.o(StubCode)
    theImportedSymbol                        0x000185bc   Data           0  QtContacts{00010103}-524.o(StubCode)
    StubCode                                 0x000185c0   Section        8  QtContacts{00010103}-53.o(StubCode)
    theImportedSymbol                        0x000185c4   Data           0  QtContacts{00010103}-53.o(StubCode)
    StubCode                                 0x000185c8   Section        8  QtContacts{00010103}-531.o(StubCode)
    theImportedSymbol                        0x000185cc   Data           0  QtContacts{00010103}-531.o(StubCode)
    StubCode                                 0x000185d0   Section        8  QtContacts{00010103}-532.o(StubCode)
    theImportedSymbol                        0x000185d4   Data           0  QtContacts{00010103}-532.o(StubCode)
    StubCode                                 0x000185d8   Section        8  QtContacts{00010103}-535.o(StubCode)
    theImportedSymbol                        0x000185dc   Data           0  QtContacts{00010103}-535.o(StubCode)
    StubCode                                 0x000185e0   Section        8  QtContacts{00010103}-536.o(StubCode)
    theImportedSymbol                        0x000185e4   Data           0  QtContacts{00010103}-536.o(StubCode)
    StubCode                                 0x000185e8   Section        8  QtContacts{00010103}-537.o(StubCode)
    theImportedSymbol                        0x000185ec   Data           0  QtContacts{00010103}-537.o(StubCode)
    StubCode                                 0x000185f0   Section        8  QtContacts{00010103}-538.o(StubCode)
    theImportedSymbol                        0x000185f4   Data           0  QtContacts{00010103}-538.o(StubCode)
    StubCode                                 0x000185f8   Section        8  QtContacts{00010103}-539.o(StubCode)
    theImportedSymbol                        0x000185fc   Data           0  QtContacts{00010103}-539.o(StubCode)
    StubCode                                 0x00018600   Section        8  QtContacts{00010103}-542.o(StubCode)
    theImportedSymbol                        0x00018604   Data           0  QtContacts{00010103}-542.o(StubCode)
    StubCode                                 0x00018608   Section        8  QtContacts{00010103}-543.o(StubCode)
    theImportedSymbol                        0x0001860c   Data           0  QtContacts{00010103}-543.o(StubCode)
    StubCode                                 0x00018610   Section        8  QtContacts{00010103}-544.o(StubCode)
    theImportedSymbol                        0x00018614   Data           0  QtContacts{00010103}-544.o(StubCode)
    StubCode                                 0x00018618   Section        8  QtContacts{00010103}-548.o(StubCode)
    theImportedSymbol                        0x0001861c   Data           0  QtContacts{00010103}-548.o(StubCode)
    StubCode                                 0x00018620   Section        8  QtContacts{00010103}-549.o(StubCode)
    theImportedSymbol                        0x00018624   Data           0  QtContacts{00010103}-549.o(StubCode)
    StubCode                                 0x00018628   Section        8  QtContacts{00010103}-55.o(StubCode)
    theImportedSymbol                        0x0001862c   Data           0  QtContacts{00010103}-55.o(StubCode)
    StubCode                                 0x00018630   Section        8  QtContacts{00010103}-579.o(StubCode)
    theImportedSymbol                        0x00018634   Data           0  QtContacts{00010103}-579.o(StubCode)
    StubCode                                 0x00018638   Section        8  QtContacts{00010103}-580.o(StubCode)
    theImportedSymbol                        0x0001863c   Data           0  QtContacts{00010103}-580.o(StubCode)
    StubCode                                 0x00018640   Section        8  QtContacts{00010103}-582.o(StubCode)
    theImportedSymbol                        0x00018644   Data           0  QtContacts{00010103}-582.o(StubCode)
    StubCode                                 0x00018648   Section        8  QtContacts{00010103}-583.o(StubCode)
    theImportedSymbol                        0x0001864c   Data           0  QtContacts{00010103}-583.o(StubCode)
    StubCode                                 0x00018650   Section        8  QtContacts{00010103}-584.o(StubCode)
    theImportedSymbol                        0x00018654   Data           0  QtContacts{00010103}-584.o(StubCode)
    StubCode                                 0x00018658   Section        8  QtContacts{00010103}-585.o(StubCode)
    theImportedSymbol                        0x0001865c   Data           0  QtContacts{00010103}-585.o(StubCode)
    StubCode                                 0x00018660   Section        8  QtContacts{00010103}-586.o(StubCode)
    theImportedSymbol                        0x00018664   Data           0  QtContacts{00010103}-586.o(StubCode)
    StubCode                                 0x00018668   Section        8  QtContacts{00010103}-587.o(StubCode)
    theImportedSymbol                        0x0001866c   Data           0  QtContacts{00010103}-587.o(StubCode)
    StubCode                                 0x00018670   Section        8  QtContacts{00010103}-590.o(StubCode)
    theImportedSymbol                        0x00018674   Data           0  QtContacts{00010103}-590.o(StubCode)
    StubCode                                 0x00018678   Section        8  QtContacts{00010103}-592.o(StubCode)
    theImportedSymbol                        0x0001867c   Data           0  QtContacts{00010103}-592.o(StubCode)
    StubCode                                 0x00018680   Section        8  QtContacts{00010103}-593.o(StubCode)
    theImportedSymbol                        0x00018684   Data           0  QtContacts{00010103}-593.o(StubCode)
    StubCode                                 0x00018688   Section        8  QtContacts{00010103}-594.o(StubCode)
    theImportedSymbol                        0x0001868c   Data           0  QtContacts{00010103}-594.o(StubCode)
    StubCode                                 0x00018690   Section        8  QtContacts{00010103}-595.o(StubCode)
    theImportedSymbol                        0x00018694   Data           0  QtContacts{00010103}-595.o(StubCode)
    StubCode                                 0x00018698   Section        8  QtContacts{00010103}-596.o(StubCode)
    theImportedSymbol                        0x0001869c   Data           0  QtContacts{00010103}-596.o(StubCode)
    StubCode                                 0x000186a0   Section        8  QtContacts{00010103}-598.o(StubCode)
    theImportedSymbol                        0x000186a4   Data           0  QtContacts{00010103}-598.o(StubCode)
    StubCode                                 0x000186a8   Section        8  QtContacts{00010103}-599.o(StubCode)
    theImportedSymbol                        0x000186ac   Data           0  QtContacts{00010103}-599.o(StubCode)
    StubCode                                 0x000186b0   Section        8  QtContacts{00010103}-601.o(StubCode)
    theImportedSymbol                        0x000186b4   Data           0  QtContacts{00010103}-601.o(StubCode)
    StubCode                                 0x000186b8   Section        8  QtContacts{00010103}-602.o(StubCode)
    theImportedSymbol                        0x000186bc   Data           0  QtContacts{00010103}-602.o(StubCode)
    StubCode                                 0x000186c0   Section        8  QtContacts{00010103}-603.o(StubCode)
    theImportedSymbol                        0x000186c4   Data           0  QtContacts{00010103}-603.o(StubCode)
    StubCode                                 0x000186c8   Section        8  QtContacts{00010103}-604.o(StubCode)
    theImportedSymbol                        0x000186cc   Data           0  QtContacts{00010103}-604.o(StubCode)
    StubCode                                 0x000186d0   Section        8  QtContacts{00010103}-609.o(StubCode)
    theImportedSymbol                        0x000186d4   Data           0  QtContacts{00010103}-609.o(StubCode)
    StubCode                                 0x000186d8   Section        8  QtContacts{00010103}-614.o(StubCode)
    theImportedSymbol                        0x000186dc   Data           0  QtContacts{00010103}-614.o(StubCode)
    StubCode                                 0x000186e0   Section        8  QtContacts{00010103}-615.o(StubCode)
    theImportedSymbol                        0x000186e4   Data           0  QtContacts{00010103}-615.o(StubCode)
    StubCode                                 0x000186e8   Section        8  QtContacts{00010103}-616.o(StubCode)
    theImportedSymbol                        0x000186ec   Data           0  QtContacts{00010103}-616.o(StubCode)
    StubCode                                 0x000186f0   Section        8  QtContacts{00010103}-619.o(StubCode)
    theImportedSymbol                        0x000186f4   Data           0  QtContacts{00010103}-619.o(StubCode)
    StubCode                                 0x000186f8   Section        8  QtContacts{00010103}-62.o(StubCode)
    theImportedSymbol                        0x000186fc   Data           0  QtContacts{00010103}-62.o(StubCode)
    StubCode                                 0x00018700   Section        8  QtContacts{00010103}-621.o(StubCode)
    theImportedSymbol                        0x00018704   Data           0  QtContacts{00010103}-621.o(StubCode)
    StubCode                                 0x00018708   Section        8  QtContacts{00010103}-622.o(StubCode)
    theImportedSymbol                        0x0001870c   Data           0  QtContacts{00010103}-622.o(StubCode)
    StubCode                                 0x00018710   Section        8  QtContacts{00010103}-627.o(StubCode)
    theImportedSymbol                        0x00018714   Data           0  QtContacts{00010103}-627.o(StubCode)
    StubCode                                 0x00018718   Section        8  QtContacts{00010103}-634.o(StubCode)
    theImportedSymbol                        0x0001871c   Data           0  QtContacts{00010103}-634.o(StubCode)
    StubCode                                 0x00018720   Section        8  QtContacts{00010103}-636.o(StubCode)
    theImportedSymbol                        0x00018724   Data           0  QtContacts{00010103}-636.o(StubCode)
    StubCode                                 0x00018728   Section        8  QtContacts{00010103}-64.o(StubCode)
    theImportedSymbol                        0x0001872c   Data           0  QtContacts{00010103}-64.o(StubCode)
    StubCode                                 0x00018730   Section        8  QtContacts{00010103}-641.o(StubCode)
    theImportedSymbol                        0x00018734   Data           0  QtContacts{00010103}-641.o(StubCode)
    StubCode                                 0x00018738   Section        8  QtContacts{00010103}-642.o(StubCode)
    theImportedSymbol                        0x0001873c   Data           0  QtContacts{00010103}-642.o(StubCode)
    StubCode                                 0x00018740   Section        8  QtContacts{00010103}-652.o(StubCode)
    theImportedSymbol                        0x00018744   Data           0  QtContacts{00010103}-652.o(StubCode)
    StubCode                                 0x00018748   Section        8  QtContacts{00010103}-653.o(StubCode)
    theImportedSymbol                        0x0001874c   Data           0  QtContacts{00010103}-653.o(StubCode)
    StubCode                                 0x00018750   Section        8  QtContacts{00010103}-654.o(StubCode)
    theImportedSymbol                        0x00018754   Data           0  QtContacts{00010103}-654.o(StubCode)
    StubCode                                 0x00018758   Section        8  QtContacts{00010103}-655.o(StubCode)
    theImportedSymbol                        0x0001875c   Data           0  QtContacts{00010103}-655.o(StubCode)
    StubCode                                 0x00018760   Section        8  QtContacts{00010103}-658.o(StubCode)
    theImportedSymbol                        0x00018764   Data           0  QtContacts{00010103}-658.o(StubCode)
    StubCode                                 0x00018768   Section        8  QtContacts{00010103}-659.o(StubCode)
    theImportedSymbol                        0x0001876c   Data           0  QtContacts{00010103}-659.o(StubCode)
    StubCode                                 0x00018770   Section        8  QtContacts{00010103}-660.o(StubCode)
    theImportedSymbol                        0x00018774   Data           0  QtContacts{00010103}-660.o(StubCode)
    StubCode                                 0x00018778   Section        8  QtContacts{00010103}-666.o(StubCode)
    theImportedSymbol                        0x0001877c   Data           0  QtContacts{00010103}-666.o(StubCode)
    StubCode                                 0x00018780   Section        8  QtContacts{00010103}-670.o(StubCode)
    theImportedSymbol                        0x00018784   Data           0  QtContacts{00010103}-670.o(StubCode)
    StubCode                                 0x00018788   Section        8  QtContacts{00010103}-671.o(StubCode)
    theImportedSymbol                        0x0001878c   Data           0  QtContacts{00010103}-671.o(StubCode)
    StubCode                                 0x00018790   Section        8  QtContacts{00010103}-672.o(StubCode)
    theImportedSymbol                        0x00018794   Data           0  QtContacts{00010103}-672.o(StubCode)
    StubCode                                 0x00018798   Section        8  QtContacts{00010103}-674.o(StubCode)
    theImportedSymbol                        0x0001879c   Data           0  QtContacts{00010103}-674.o(StubCode)
    StubCode                                 0x000187a0   Section        8  QtContacts{00010103}-681.o(StubCode)
    theImportedSymbol                        0x000187a4   Data           0  QtContacts{00010103}-681.o(StubCode)
    StubCode                                 0x000187a8   Section        8  QtContacts{00010103}-683.o(StubCode)
    theImportedSymbol                        0x000187ac   Data           0  QtContacts{00010103}-683.o(StubCode)
    StubCode                                 0x000187b0   Section        8  QtContacts{00010103}-69.o(StubCode)
    theImportedSymbol                        0x000187b4   Data           0  QtContacts{00010103}-69.o(StubCode)
    StubCode                                 0x000187b8   Section        8  QtContacts{00010103}-692.o(StubCode)
    theImportedSymbol                        0x000187bc   Data           0  QtContacts{00010103}-692.o(StubCode)
    StubCode                                 0x000187c0   Section        8  QtContacts{00010103}-693.o(StubCode)
    theImportedSymbol                        0x000187c4   Data           0  QtContacts{00010103}-693.o(StubCode)
    StubCode                                 0x000187c8   Section        8  QtContacts{00010103}-694.o(StubCode)
    theImportedSymbol                        0x000187cc   Data           0  QtContacts{00010103}-694.o(StubCode)
    StubCode                                 0x000187d0   Section        8  QtContacts{00010103}-695.o(StubCode)
    theImportedSymbol                        0x000187d4   Data           0  QtContacts{00010103}-695.o(StubCode)
    StubCode                                 0x000187d8   Section        8  QtContacts{00010103}-696.o(StubCode)
    theImportedSymbol                        0x000187dc   Data           0  QtContacts{00010103}-696.o(StubCode)
    StubCode                                 0x000187e0   Section        8  QtContacts{00010103}-698.o(StubCode)
    theImportedSymbol                        0x000187e4   Data           0  QtContacts{00010103}-698.o(StubCode)
    StubCode                                 0x000187e8   Section        8  QtContacts{00010103}-7.o(StubCode)
    theImportedSymbol                        0x000187ec   Data           0  QtContacts{00010103}-7.o(StubCode)
    StubCode                                 0x000187f0   Section        8  QtContacts{00010103}-70.o(StubCode)
    theImportedSymbol                        0x000187f4   Data           0  QtContacts{00010103}-70.o(StubCode)
    StubCode                                 0x000187f8   Section        8  QtContacts{00010103}-701.o(StubCode)
    theImportedSymbol                        0x000187fc   Data           0  QtContacts{00010103}-701.o(StubCode)
    StubCode                                 0x00018800   Section        8  QtContacts{00010103}-74.o(StubCode)
    theImportedSymbol                        0x00018804   Data           0  QtContacts{00010103}-74.o(StubCode)
    StubCode                                 0x00018808   Section        8  QtContacts{00010103}-797.o(StubCode)
    theImportedSymbol                        0x0001880c   Data           0  QtContacts{00010103}-797.o(StubCode)
    StubCode                                 0x00018810   Section        8  QtContacts{00010103}-855.o(StubCode)
    theImportedSymbol                        0x00018814   Data           0  QtContacts{00010103}-855.o(StubCode)
    StubCode                                 0x00018818   Section        8  QtContacts{00010103}-914.o(StubCode)
    theImportedSymbol                        0x0001881c   Data           0  QtContacts{00010103}-914.o(StubCode)
    StubCode                                 0x00018820   Section        8  libstdcpp{00010000}-988.o(StubCode)
    theImportedSymbol                        0x00018824   Data           0  libstdcpp{00010000}-988.o(StubCode)
    StubCode                                 0x00018828   Section        8  libstdcpp{00010000}-992.o(StubCode)
    theImportedSymbol                        0x0001882c   Data           0  libstdcpp{00010000}-992.o(StubCode)
    StubCode                                 0x00018830   Section        8  QtGui{00040703}-5707.o(StubCode)
    theImportedSymbol                        0x00018834   Data           0  QtGui{00040703}-5707.o(StubCode)
    StubCode                                 0x00018838   Section        8  QtGui{00040703}-5733.o(StubCode)
    theImportedSymbol                        0x0001883c   Data           0  QtGui{00040703}-5733.o(StubCode)
    StubCode                                 0x00018840   Section        8  QtGui{00040703}-5735.o(StubCode)
    theImportedSymbol                        0x00018844   Data           0  QtGui{00040703}-5735.o(StubCode)
    StubCode                                 0x00018848   Section        8  QtGui{00040703}-5748.o(StubCode)
    theImportedSymbol                        0x0001884c   Data           0  QtGui{00040703}-5748.o(StubCode)
    StubCode                                 0x00018850   Section        8  QtGui{00040703}-6043.o(StubCode)
    theImportedSymbol                        0x00018854   Data           0  QtGui{00040703}-6043.o(StubCode)
    StubCode                                 0x00018858   Section        8  QtGui{00040703}-6063.o(StubCode)
    theImportedSymbol                        0x0001885c   Data           0  QtGui{00040703}-6063.o(StubCode)
    StubCode                                 0x00018860   Section        8  QtGui{00040703}-9807.o(StubCode)
    theImportedSymbol                        0x00018864   Data           0  QtGui{00040703}-9807.o(StubCode)
    StubCode                                 0x00018868   Section        8  QtGui{00040703}-9810.o(StubCode)
    theImportedSymbol                        0x0001886c   Data           0  QtGui{00040703}-9810.o(StubCode)
    StubCode                                 0x00018870   Section        8  QtGui{00040703}-9820.o(StubCode)
    theImportedSymbol                        0x00018874   Data           0  QtGui{00040703}-9820.o(StubCode)
    StubCode                                 0x00018878   Section        8  QtGui{00040703}-9981.o(StubCode)
    theImportedSymbol                        0x0001887c   Data           0  QtGui{00040703}-9981.o(StubCode)
    StubCode                                 0x00018880   Section        8  QtCore{00040703}-1493.o(StubCode)
    theImportedSymbol                        0x00018884   Data           0  QtCore{00040703}-1493.o(StubCode)
    StubCode                                 0x00018888   Section        8  QtCore{00040703}-1523.o(StubCode)
    theImportedSymbol                        0x0001888c   Data           0  QtCore{00040703}-1523.o(StubCode)
    StubCode                                 0x00018890   Section        8  QtCore{00040703}-1525.o(StubCode)
    theImportedSymbol                        0x00018894   Data           0  QtCore{00040703}-1525.o(StubCode)
    StubCode                                 0x00018898   Section        8  QtCore{00040703}-1526.o(StubCode)
    theImportedSymbol                        0x0001889c   Data           0  QtCore{00040703}-1526.o(StubCode)
    StubCode                                 0x000188a0   Section        8  QtCore{00040703}-1531.o(StubCode)
    theImportedSymbol                        0x000188a4   Data           0  QtCore{00040703}-1531.o(StubCode)
    StubCode                                 0x000188a8   Section        8  QtCore{00040703}-1559.o(StubCode)
    theImportedSymbol                        0x000188ac   Data           0  QtCore{00040703}-1559.o(StubCode)
    StubCode                                 0x000188b0   Section        8  QtCore{00040703}-1560.o(StubCode)
    theImportedSymbol                        0x000188b4   Data           0  QtCore{00040703}-1560.o(StubCode)
    StubCode                                 0x000188b8   Section        8  QtCore{00040703}-1582.o(StubCode)
    theImportedSymbol                        0x000188bc   Data           0  QtCore{00040703}-1582.o(StubCode)
    StubCode                                 0x000188c0   Section        8  QtCore{00040703}-160.o(StubCode)
    theImportedSymbol                        0x000188c4   Data           0  QtCore{00040703}-160.o(StubCode)
    StubCode                                 0x000188c8   Section        8  QtCore{00040703}-1706.o(StubCode)
    theImportedSymbol                        0x000188cc   Data           0  QtCore{00040703}-1706.o(StubCode)
    StubCode                                 0x000188d0   Section        8  QtCore{00040703}-1760.o(StubCode)
    theImportedSymbol                        0x000188d4   Data           0  QtCore{00040703}-1760.o(StubCode)
    StubCode                                 0x000188d8   Section        8  QtCore{00040703}-1763.o(StubCode)
    theImportedSymbol                        0x000188dc   Data           0  QtCore{00040703}-1763.o(StubCode)
    StubCode                                 0x000188e0   Section        8  QtCore{00040703}-1764.o(StubCode)
    theImportedSymbol                        0x000188e4   Data           0  QtCore{00040703}-1764.o(StubCode)
    StubCode                                 0x000188e8   Section        8  QtCore{00040703}-1766.o(StubCode)
    theImportedSymbol                        0x000188ec   Data           0  QtCore{00040703}-1766.o(StubCode)
    StubCode                                 0x000188f0   Section        8  QtCore{00040703}-1767.o(StubCode)
    theImportedSymbol                        0x000188f4   Data           0  QtCore{00040703}-1767.o(StubCode)
    StubCode                                 0x000188f8   Section        8  QtCore{00040703}-1768.o(StubCode)
    theImportedSymbol                        0x000188fc   Data           0  QtCore{00040703}-1768.o(StubCode)
    StubCode                                 0x00018900   Section        8  QtCore{00040703}-1773.o(StubCode)
    theImportedSymbol                        0x00018904   Data           0  QtCore{00040703}-1773.o(StubCode)
    StubCode                                 0x00018908   Section        8  QtCore{00040703}-1777.o(StubCode)
    theImportedSymbol                        0x0001890c   Data           0  QtCore{00040703}-1777.o(StubCode)
    StubCode                                 0x00018910   Section        8  QtCore{00040703}-1784.o(StubCode)
    theImportedSymbol                        0x00018914   Data           0  QtCore{00040703}-1784.o(StubCode)
    StubCode                                 0x00018918   Section        8  QtCore{00040703}-1785.o(StubCode)
    theImportedSymbol                        0x0001891c   Data           0  QtCore{00040703}-1785.o(StubCode)
    StubCode                                 0x00018920   Section        8  QtCore{00040703}-1789.o(StubCode)
    theImportedSymbol                        0x00018924   Data           0  QtCore{00040703}-1789.o(StubCode)
    StubCode                                 0x00018928   Section        8  QtCore{00040703}-1794.o(StubCode)
    theImportedSymbol                        0x0001892c   Data           0  QtCore{00040703}-1794.o(StubCode)
    StubCode                                 0x00018930   Section        8  QtCore{00040703}-1814.o(StubCode)
    theImportedSymbol                        0x00018934   Data           0  QtCore{00040703}-1814.o(StubCode)
    StubCode                                 0x00018938   Section        8  QtCore{00040703}-1825.o(StubCode)
    theImportedSymbol                        0x0001893c   Data           0  QtCore{00040703}-1825.o(StubCode)
    StubCode                                 0x00018940   Section        8  QtCore{00040703}-1826.o(StubCode)
    theImportedSymbol                        0x00018944   Data           0  QtCore{00040703}-1826.o(StubCode)
    StubCode                                 0x00018948   Section        8  QtCore{00040703}-1830.o(StubCode)
    theImportedSymbol                        0x0001894c   Data           0  QtCore{00040703}-1830.o(StubCode)
    StubCode                                 0x00018950   Section        8  QtCore{00040703}-1831.o(StubCode)
    theImportedSymbol                        0x00018954   Data           0  QtCore{00040703}-1831.o(StubCode)
    StubCode                                 0x00018958   Section        8  QtCore{00040703}-1833.o(StubCode)
    theImportedSymbol                        0x0001895c   Data           0  QtCore{00040703}-1833.o(StubCode)
    StubCode                                 0x00018960   Section        8  QtCore{00040703}-1836.o(StubCode)
    theImportedSymbol                        0x00018964   Data           0  QtCore{00040703}-1836.o(StubCode)
    StubCode                                 0x00018968   Section        8  QtCore{00040703}-1838.o(StubCode)
    theImportedSymbol                        0x0001896c   Data           0  QtCore{00040703}-1838.o(StubCode)
    StubCode                                 0x00018970   Section        8  QtCore{00040703}-1841.o(StubCode)
    theImportedSymbol                        0x00018974   Data           0  QtCore{00040703}-1841.o(StubCode)
    StubCode                                 0x00018978   Section        8  QtCore{00040703}-1855.o(StubCode)
    theImportedSymbol                        0x0001897c   Data           0  QtCore{00040703}-1855.o(StubCode)
    StubCode                                 0x00018980   Section        8  QtCore{00040703}-1865.o(StubCode)
    theImportedSymbol                        0x00018984   Data           0  QtCore{00040703}-1865.o(StubCode)
    StubCode                                 0x00018988   Section        8  QtCore{00040703}-1874.o(StubCode)
    theImportedSymbol                        0x0001898c   Data           0  QtCore{00040703}-1874.o(StubCode)
    StubCode                                 0x00018990   Section        8  QtCore{00040703}-1875.o(StubCode)
    theImportedSymbol                        0x00018994   Data           0  QtCore{00040703}-1875.o(StubCode)
    StubCode                                 0x00018998   Section        8  QtCore{00040703}-1885.o(StubCode)
    theImportedSymbol                        0x0001899c   Data           0  QtCore{00040703}-1885.o(StubCode)
    StubCode                                 0x000189a0   Section        8  QtCore{00040703}-1947.o(StubCode)
    theImportedSymbol                        0x000189a4   Data           0  QtCore{00040703}-1947.o(StubCode)
    StubCode                                 0x000189a8   Section        8  QtCore{00040703}-1949.o(StubCode)
    theImportedSymbol                        0x000189ac   Data           0  QtCore{00040703}-1949.o(StubCode)
    StubCode                                 0x000189b0   Section        8  QtCore{00040703}-2015.o(StubCode)
    theImportedSymbol                        0x000189b4   Data           0  QtCore{00040703}-2015.o(StubCode)
    StubCode                                 0x000189b8   Section        8  QtCore{00040703}-2016.o(StubCode)
    theImportedSymbol                        0x000189bc   Data           0  QtCore{00040703}-2016.o(StubCode)
    StubCode                                 0x000189c0   Section        8  QtCore{00040703}-2018.o(StubCode)
    theImportedSymbol                        0x000189c4   Data           0  QtCore{00040703}-2018.o(StubCode)
    StubCode                                 0x000189c8   Section        8  QtCore{00040703}-2020.o(StubCode)
    theImportedSymbol                        0x000189cc   Data           0  QtCore{00040703}-2020.o(StubCode)
    StubCode                                 0x000189d0   Section        8  QtCore{00040703}-2034.o(StubCode)
    theImportedSymbol                        0x000189d4   Data           0  QtCore{00040703}-2034.o(StubCode)
    StubCode                                 0x000189d8   Section        8  QtCore{00040703}-2036.o(StubCode)
    theImportedSymbol                        0x000189dc   Data           0  QtCore{00040703}-2036.o(StubCode)
    StubCode                                 0x000189e0   Section        8  QtCore{00040703}-2037.o(StubCode)
    theImportedSymbol                        0x000189e4   Data           0  QtCore{00040703}-2037.o(StubCode)
    StubCode                                 0x000189e8   Section        8  QtCore{00040703}-2039.o(StubCode)
    theImportedSymbol                        0x000189ec   Data           0  QtCore{00040703}-2039.o(StubCode)
    StubCode                                 0x000189f0   Section        8  QtCore{00040703}-2082.o(StubCode)
    theImportedSymbol                        0x000189f4   Data           0  QtCore{00040703}-2082.o(StubCode)
    StubCode                                 0x000189f8   Section        8  QtCore{00040703}-2093.o(StubCode)
    theImportedSymbol                        0x000189fc   Data           0  QtCore{00040703}-2093.o(StubCode)
    StubCode                                 0x00018a00   Section        8  QtCore{00040703}-2110.o(StubCode)
    theImportedSymbol                        0x00018a04   Data           0  QtCore{00040703}-2110.o(StubCode)
    StubCode                                 0x00018a08   Section        8  QtCore{00040703}-2134.o(StubCode)
    theImportedSymbol                        0x00018a0c   Data           0  QtCore{00040703}-2134.o(StubCode)
    StubCode                                 0x00018a10   Section        8  QtCore{00040703}-2137.o(StubCode)
    theImportedSymbol                        0x00018a14   Data           0  QtCore{00040703}-2137.o(StubCode)
    StubCode                                 0x00018a18   Section        8  QtCore{00040703}-2141.o(StubCode)
    theImportedSymbol                        0x00018a1c   Data           0  QtCore{00040703}-2141.o(StubCode)
    StubCode                                 0x00018a20   Section        8  QtCore{00040703}-2142.o(StubCode)
    theImportedSymbol                        0x00018a24   Data           0  QtCore{00040703}-2142.o(StubCode)
    StubCode                                 0x00018a28   Section        8  QtCore{00040703}-2143.o(StubCode)
    theImportedSymbol                        0x00018a2c   Data           0  QtCore{00040703}-2143.o(StubCode)
    StubCode                                 0x00018a30   Section        8  QtCore{00040703}-2186.o(StubCode)
    theImportedSymbol                        0x00018a34   Data           0  QtCore{00040703}-2186.o(StubCode)
    StubCode                                 0x00018a38   Section        8  QtCore{00040703}-2188.o(StubCode)
    theImportedSymbol                        0x00018a3c   Data           0  QtCore{00040703}-2188.o(StubCode)
    StubCode                                 0x00018a40   Section        8  QtCore{00040703}-2190.o(StubCode)
    theImportedSymbol                        0x00018a44   Data           0  QtCore{00040703}-2190.o(StubCode)
    StubCode                                 0x00018a48   Section        8  QtCore{00040703}-2191.o(StubCode)
    theImportedSymbol                        0x00018a4c   Data           0  QtCore{00040703}-2191.o(StubCode)
    StubCode                                 0x00018a50   Section        8  QtCore{00040703}-2193.o(StubCode)
    theImportedSymbol                        0x00018a54   Data           0  QtCore{00040703}-2193.o(StubCode)
    StubCode                                 0x00018a58   Section        8  QtCore{00040703}-2197.o(StubCode)
    theImportedSymbol                        0x00018a5c   Data           0  QtCore{00040703}-2197.o(StubCode)
    StubCode                                 0x00018a60   Section        8  QtCore{00040703}-2315.o(StubCode)
    theImportedSymbol                        0x00018a64   Data           0  QtCore{00040703}-2315.o(StubCode)
    StubCode                                 0x00018a68   Section        8  QtCore{00040703}-2321.o(StubCode)
    theImportedSymbol                        0x00018a6c   Data           0  QtCore{00040703}-2321.o(StubCode)
    StubCode                                 0x00018a70   Section        8  QtCore{00040703}-274.o(StubCode)
    theImportedSymbol                        0x00018a74   Data           0  QtCore{00040703}-274.o(StubCode)
    StubCode                                 0x00018a78   Section        8  QtCore{00040703}-275.o(StubCode)
    theImportedSymbol                        0x00018a7c   Data           0  QtCore{00040703}-275.o(StubCode)
    StubCode                                 0x00018a80   Section        8  QtCore{00040703}-282.o(StubCode)
    theImportedSymbol                        0x00018a84   Data           0  QtCore{00040703}-282.o(StubCode)
    StubCode                                 0x00018a88   Section        8  QtCore{00040703}-2823.o(StubCode)
    theImportedSymbol                        0x00018a8c   Data           0  QtCore{00040703}-2823.o(StubCode)
    StubCode                                 0x00018a90   Section        8  QtCore{00040703}-2841.o(StubCode)
    theImportedSymbol                        0x00018a94   Data           0  QtCore{00040703}-2841.o(StubCode)
    StubCode                                 0x00018a98   Section        8  QtCore{00040703}-2843.o(StubCode)
    theImportedSymbol                        0x00018a9c   Data           0  QtCore{00040703}-2843.o(StubCode)
    StubCode                                 0x00018aa0   Section        8  QtCore{00040703}-2848.o(StubCode)
    theImportedSymbol                        0x00018aa4   Data           0  QtCore{00040703}-2848.o(StubCode)
    StubCode                                 0x00018aa8   Section        8  QtCore{00040703}-2883.o(StubCode)
    theImportedSymbol                        0x00018aac   Data           0  QtCore{00040703}-2883.o(StubCode)
    StubCode                                 0x00018ab0   Section        8  QtCore{00040703}-2884.o(StubCode)
    theImportedSymbol                        0x00018ab4   Data           0  QtCore{00040703}-2884.o(StubCode)
    StubCode                                 0x00018ab8   Section        8  QtCore{00040703}-2885.o(StubCode)
    theImportedSymbol                        0x00018abc   Data           0  QtCore{00040703}-2885.o(StubCode)
    StubCode                                 0x00018ac0   Section        8  QtCore{00040703}-3052.o(StubCode)
    theImportedSymbol                        0x00018ac4   Data           0  QtCore{00040703}-3052.o(StubCode)
    StubCode                                 0x00018ac8   Section        8  QtCore{00040703}-3053.o(StubCode)
    theImportedSymbol                        0x00018acc   Data           0  QtCore{00040703}-3053.o(StubCode)
    StubCode                                 0x00018ad0   Section        8  QtCore{00040703}-3055.o(StubCode)
    theImportedSymbol                        0x00018ad4   Data           0  QtCore{00040703}-3055.o(StubCode)
    StubCode                                 0x00018ad8   Section        8  QtCore{00040703}-3059.o(StubCode)
    theImportedSymbol                        0x00018adc   Data           0  QtCore{00040703}-3059.o(StubCode)
    StubCode                                 0x00018ae0   Section        8  QtCore{00040703}-3060.o(StubCode)
    theImportedSymbol                        0x00018ae4   Data           0  QtCore{00040703}-3060.o(StubCode)
    StubCode                                 0x00018ae8   Section        8  QtCore{00040703}-3064.o(StubCode)
    theImportedSymbol                        0x00018aec   Data           0  QtCore{00040703}-3064.o(StubCode)
    StubCode                                 0x00018af0   Section        8  QtCore{00040703}-3071.o(StubCode)
    theImportedSymbol                        0x00018af4   Data           0  QtCore{00040703}-3071.o(StubCode)
    StubCode                                 0x00018af8   Section        8  QtCore{00040703}-3073.o(StubCode)
    theImportedSymbol                        0x00018afc   Data           0  QtCore{00040703}-3073.o(StubCode)
    StubCode                                 0x00018b00   Section        8  QtCore{00040703}-3091.o(StubCode)
    theImportedSymbol                        0x00018b04   Data           0  QtCore{00040703}-3091.o(StubCode)
    StubCode                                 0x00018b08   Section        8  QtCore{00040703}-3094.o(StubCode)
    theImportedSymbol                        0x00018b0c   Data           0  QtCore{00040703}-3094.o(StubCode)
    StubCode                                 0x00018b10   Section        8  QtCore{00040703}-3097.o(StubCode)
    theImportedSymbol                        0x00018b14   Data           0  QtCore{00040703}-3097.o(StubCode)
    StubCode                                 0x00018b18   Section        8  QtCore{00040703}-3098.o(StubCode)
    theImportedSymbol                        0x00018b1c   Data           0  QtCore{00040703}-3098.o(StubCode)
    StubCode                                 0x00018b20   Section        8  QtCore{00040703}-3101.o(StubCode)
    theImportedSymbol                        0x00018b24   Data           0  QtCore{00040703}-3101.o(StubCode)
    StubCode                                 0x00018b28   Section        8  QtCore{00040703}-3129.o(StubCode)
    theImportedSymbol                        0x00018b2c   Data           0  QtCore{00040703}-3129.o(StubCode)
    StubCode                                 0x00018b30   Section        8  QtCore{00040703}-3135.o(StubCode)
    theImportedSymbol                        0x00018b34   Data           0  QtCore{00040703}-3135.o(StubCode)
    StubCode                                 0x00018b38   Section        8  QtCore{00040703}-3138.o(StubCode)
    theImportedSymbol                        0x00018b3c   Data           0  QtCore{00040703}-3138.o(StubCode)
    StubCode                                 0x00018b40   Section        8  QtCore{00040703}-3143.o(StubCode)
    theImportedSymbol                        0x00018b44   Data           0  QtCore{00040703}-3143.o(StubCode)
    StubCode                                 0x00018b48   Section        8  QtCore{00040703}-3159.o(StubCode)
    theImportedSymbol                        0x00018b4c   Data           0  QtCore{00040703}-3159.o(StubCode)
    StubCode                                 0x00018b50   Section        8  QtCore{00040703}-3163.o(StubCode)
    theImportedSymbol                        0x00018b54   Data           0  QtCore{00040703}-3163.o(StubCode)
    StubCode                                 0x00018b58   Section        8  QtCore{00040703}-3165.o(StubCode)
    theImportedSymbol                        0x00018b5c   Data           0  QtCore{00040703}-3165.o(StubCode)
    StubCode                                 0x00018b60   Section        8  QtCore{00040703}-3166.o(StubCode)
    theImportedSymbol                        0x00018b64   Data           0  QtCore{00040703}-3166.o(StubCode)
    StubCode                                 0x00018b68   Section        8  QtCore{00040703}-3607.o(StubCode)
    theImportedSymbol                        0x00018b6c   Data           0  QtCore{00040703}-3607.o(StubCode)
    StubCode                                 0x00018b70   Section        8  QtCore{00040703}-3608.o(StubCode)
    theImportedSymbol                        0x00018b74   Data           0  QtCore{00040703}-3608.o(StubCode)
    StubCode                                 0x00018b78   Section        8  QtCore{00040703}-3609.o(StubCode)
    theImportedSymbol                        0x00018b7c   Data           0  QtCore{00040703}-3609.o(StubCode)
    StubCode                                 0x00018b80   Section        8  QtCore{00040703}-3610.o(StubCode)
    theImportedSymbol                        0x00018b84   Data           0  QtCore{00040703}-3610.o(StubCode)
    StubCode                                 0x00018b88   Section        8  QtCore{00040703}-3689.o(StubCode)
    theImportedSymbol                        0x00018b8c   Data           0  QtCore{00040703}-3689.o(StubCode)
    StubCode                                 0x00018b90   Section        8  QtCore{00040703}-3691.o(StubCode)
    theImportedSymbol                        0x00018b94   Data           0  QtCore{00040703}-3691.o(StubCode)
    StubCode                                 0x00018b98   Section        8  QtCore{00040703}-49.o(StubCode)
    theImportedSymbol                        0x00018b9c   Data           0  QtCore{00040703}-49.o(StubCode)
    StubCode                                 0x00018ba0   Section        8  QtCore{00040703}-70.o(StubCode)
    theImportedSymbol                        0x00018ba4   Data           0  QtCore{00040703}-70.o(StubCode)
    StubCode                                 0x00018ba8   Section        8  QtCore{00040703}-73.o(StubCode)
    theImportedSymbol                        0x00018bac   Data           0  QtCore{00040703}-73.o(StubCode)
    StubCode                                 0x00018bb0   Section        8  libc{00010000}-350.o(StubCode)
    theImportedSymbol                        0x00018bb4   Data           0  libc{00010000}-350.o(StubCode)
    StubCode                                 0x00018bb8   Section        8  euser{000a0000}-1003.o(StubCode)
    theImportedSymbol                        0x00018bbc   Data           0  euser{000a0000}-1003.o(StubCode)
    StubCode                                 0x00018bc0   Section        8  euser{000a0000}-1010.o(StubCode)
    theImportedSymbol                        0x00018bc4   Data           0  euser{000a0000}-1010.o(StubCode)
    StubCode                                 0x00018bc8   Section        8  euser{000a0000}-1016.o(StubCode)
    theImportedSymbol                        0x00018bcc   Data           0  euser{000a0000}-1016.o(StubCode)
    StubCode                                 0x00018bd0   Section        8  euser{000a0000}-1088.o(StubCode)
    theImportedSymbol                        0x00018bd4   Data           0  euser{000a0000}-1088.o(StubCode)
    StubCode                                 0x00018bd8   Section        8  euser{000a0000}-1090.o(StubCode)
    theImportedSymbol                        0x00018bdc   Data           0  euser{000a0000}-1090.o(StubCode)
    StubCode                                 0x00018be0   Section        8  euser{000a0000}-1091.o(StubCode)
    theImportedSymbol                        0x00018be4   Data           0  euser{000a0000}-1091.o(StubCode)
    StubCode                                 0x00018be8   Section        8  euser{000a0000}-1094.o(StubCode)
    theImportedSymbol                        0x00018bec   Data           0  euser{000a0000}-1094.o(StubCode)
    StubCode                                 0x00018bf0   Section        8  euser{000a0000}-1116.o(StubCode)
    theImportedSymbol                        0x00018bf4   Data           0  euser{000a0000}-1116.o(StubCode)
    StubCode                                 0x00018bf8   Section        8  euser{000a0000}-1169.o(StubCode)
    theImportedSymbol                        0x00018bfc   Data           0  euser{000a0000}-1169.o(StubCode)
    StubCode                                 0x00018c00   Section        8  euser{000a0000}-120.o(StubCode)
    theImportedSymbol                        0x00018c04   Data           0  euser{000a0000}-120.o(StubCode)
    StubCode                                 0x00018c08   Section        8  euser{000a0000}-1246.o(StubCode)
    theImportedSymbol                        0x00018c0c   Data           0  euser{000a0000}-1246.o(StubCode)
    StubCode                                 0x00018c10   Section        8  euser{000a0000}-1253.o(StubCode)
    theImportedSymbol                        0x00018c14   Data           0  euser{000a0000}-1253.o(StubCode)
    StubCode                                 0x00018c18   Section        8  euser{000a0000}-1324.o(StubCode)
    theImportedSymbol                        0x00018c1c   Data           0  euser{000a0000}-1324.o(StubCode)
    StubCode                                 0x00018c20   Section        8  euser{000a0000}-1326.o(StubCode)
    theImportedSymbol                        0x00018c24   Data           0  euser{000a0000}-1326.o(StubCode)
    StubCode                                 0x00018c28   Section        8  euser{000a0000}-1355.o(StubCode)
    theImportedSymbol                        0x00018c2c   Data           0  euser{000a0000}-1355.o(StubCode)
    StubCode                                 0x00018c30   Section        8  euser{000a0000}-1483.o(StubCode)
    theImportedSymbol                        0x00018c34   Data           0  euser{000a0000}-1483.o(StubCode)
    StubCode                                 0x00018c38   Section        8  euser{000a0000}-1547.o(StubCode)
    theImportedSymbol                        0x00018c3c   Data           0  euser{000a0000}-1547.o(StubCode)
    StubCode                                 0x00018c40   Section        8  euser{000a0000}-1553.o(StubCode)
    theImportedSymbol                        0x00018c44   Data           0  euser{000a0000}-1553.o(StubCode)
    StubCode                                 0x00018c48   Section        8  euser{000a0000}-1601.o(StubCode)
    theImportedSymbol                        0x00018c4c   Data           0  euser{000a0000}-1601.o(StubCode)
    StubCode                                 0x00018c50   Section        8  euser{000a0000}-1602.o(StubCode)
    theImportedSymbol                        0x00018c54   Data           0  euser{000a0000}-1602.o(StubCode)
    StubCode                                 0x00018c58   Section        8  euser{000a0000}-1618.o(StubCode)
    theImportedSymbol                        0x00018c5c   Data           0  euser{000a0000}-1618.o(StubCode)
    StubCode                                 0x00018c60   Section        8  euser{000a0000}-1622.o(StubCode)
    theImportedSymbol                        0x00018c64   Data           0  euser{000a0000}-1622.o(StubCode)
    StubCode                                 0x00018c68   Section        8  euser{000a0000}-1678.o(StubCode)
    theImportedSymbol                        0x00018c6c   Data           0  euser{000a0000}-1678.o(StubCode)
    StubCode                                 0x00018c70   Section        8  euser{000a0000}-1679.o(StubCode)
    theImportedSymbol                        0x00018c74   Data           0  euser{000a0000}-1679.o(StubCode)
    StubCode                                 0x00018c78   Section        8  euser{000a0000}-1719.o(StubCode)
    theImportedSymbol                        0x00018c7c   Data           0  euser{000a0000}-1719.o(StubCode)
    StubCode                                 0x00018c80   Section        8  euser{000a0000}-1806.o(StubCode)
    theImportedSymbol                        0x00018c84   Data           0  euser{000a0000}-1806.o(StubCode)
    StubCode                                 0x00018c88   Section        8  euser{000a0000}-1807.o(StubCode)
    theImportedSymbol                        0x00018c8c   Data           0  euser{000a0000}-1807.o(StubCode)
    StubCode                                 0x00018c90   Section        8  euser{000a0000}-1813.o(StubCode)
    theImportedSymbol                        0x00018c94   Data           0  euser{000a0000}-1813.o(StubCode)
    StubCode                                 0x00018c98   Section        8  euser{000a0000}-1821.o(StubCode)
    theImportedSymbol                        0x00018c9c   Data           0  euser{000a0000}-1821.o(StubCode)
    StubCode                                 0x00018ca0   Section        8  euser{000a0000}-1842.o(StubCode)
    theImportedSymbol                        0x00018ca4   Data           0  euser{000a0000}-1842.o(StubCode)
    StubCode                                 0x00018ca8   Section        8  euser{000a0000}-1844.o(StubCode)
    theImportedSymbol                        0x00018cac   Data           0  euser{000a0000}-1844.o(StubCode)
    StubCode                                 0x00018cb0   Section        8  euser{000a0000}-202.o(StubCode)
    theImportedSymbol                        0x00018cb4   Data           0  euser{000a0000}-202.o(StubCode)
    StubCode                                 0x00018cb8   Section        8  euser{000a0000}-203.o(StubCode)
    theImportedSymbol                        0x00018cbc   Data           0  euser{000a0000}-203.o(StubCode)
    StubCode                                 0x00018cc0   Section        8  euser{000a0000}-205.o(StubCode)
    theImportedSymbol                        0x00018cc4   Data           0  euser{000a0000}-205.o(StubCode)
    StubCode                                 0x00018cc8   Section        8  euser{000a0000}-2060.o(StubCode)
    theImportedSymbol                        0x00018ccc   Data           0  euser{000a0000}-2060.o(StubCode)
    StubCode                                 0x00018cd0   Section        8  euser{000a0000}-2061.o(StubCode)
    theImportedSymbol                        0x00018cd4   Data           0  euser{000a0000}-2061.o(StubCode)
    StubCode                                 0x00018cd8   Section        8  euser{000a0000}-208.o(StubCode)
    theImportedSymbol                        0x00018cdc   Data           0  euser{000a0000}-208.o(StubCode)
    StubCode                                 0x00018ce0   Section        8  euser{000a0000}-2082.o(StubCode)
    theImportedSymbol                        0x00018ce4   Data           0  euser{000a0000}-2082.o(StubCode)
    StubCode                                 0x00018ce8   Section        8  euser{000a0000}-209.o(StubCode)
    theImportedSymbol                        0x00018cec   Data           0  euser{000a0000}-209.o(StubCode)
    StubCode                                 0x00018cf0   Section        8  euser{000a0000}-2106.o(StubCode)
    theImportedSymbol                        0x00018cf4   Data           0  euser{000a0000}-2106.o(StubCode)
    StubCode                                 0x00018cf8   Section        8  euser{000a0000}-2107.o(StubCode)
    theImportedSymbol                        0x00018cfc   Data           0  euser{000a0000}-2107.o(StubCode)
    StubCode                                 0x00018d00   Section        8  euser{000a0000}-211.o(StubCode)
    theImportedSymbol                        0x00018d04   Data           0  euser{000a0000}-211.o(StubCode)
    StubCode                                 0x00018d08   Section        8  euser{000a0000}-2123.o(StubCode)
    theImportedSymbol                        0x00018d0c   Data           0  euser{000a0000}-2123.o(StubCode)
    StubCode                                 0x00018d10   Section        8  euser{000a0000}-2128.o(StubCode)
    theImportedSymbol                        0x00018d14   Data           0  euser{000a0000}-2128.o(StubCode)
    StubCode                                 0x00018d18   Section        8  euser{000a0000}-241.o(StubCode)
    theImportedSymbol                        0x00018d1c   Data           0  euser{000a0000}-241.o(StubCode)
    StubCode                                 0x00018d20   Section        8  euser{000a0000}-247.o(StubCode)
    theImportedSymbol                        0x00018d24   Data           0  euser{000a0000}-247.o(StubCode)
    StubCode                                 0x00018d28   Section        8  euser{000a0000}-250.o(StubCode)
    theImportedSymbol                        0x00018d2c   Data           0  euser{000a0000}-250.o(StubCode)
    StubCode                                 0x00018d30   Section        8  euser{000a0000}-254.o(StubCode)
    theImportedSymbol                        0x00018d34   Data           0  euser{000a0000}-254.o(StubCode)
    StubCode                                 0x00018d38   Section        8  euser{000a0000}-257.o(StubCode)
    theImportedSymbol                        0x00018d3c   Data           0  euser{000a0000}-257.o(StubCode)
    StubCode                                 0x00018d40   Section        8  euser{000a0000}-259.o(StubCode)
    theImportedSymbol                        0x00018d44   Data           0  euser{000a0000}-259.o(StubCode)
    StubCode                                 0x00018d48   Section        8  euser{000a0000}-262.o(StubCode)
    theImportedSymbol                        0x00018d4c   Data           0  euser{000a0000}-262.o(StubCode)
    StubCode                                 0x00018d50   Section        8  euser{000a0000}-424.o(StubCode)
    theImportedSymbol                        0x00018d54   Data           0  euser{000a0000}-424.o(StubCode)
    StubCode                                 0x00018d58   Section        8  euser{000a0000}-505.o(StubCode)
    theImportedSymbol                        0x00018d5c   Data           0  euser{000a0000}-505.o(StubCode)
    StubCode                                 0x00018d60   Section        8  euser{000a0000}-507.o(StubCode)
    theImportedSymbol                        0x00018d64   Data           0  euser{000a0000}-507.o(StubCode)
    StubCode                                 0x00018d68   Section        8  euser{000a0000}-508.o(StubCode)
    theImportedSymbol                        0x00018d6c   Data           0  euser{000a0000}-508.o(StubCode)
    StubCode                                 0x00018d70   Section        8  euser{000a0000}-586.o(StubCode)
    theImportedSymbol                        0x00018d74   Data           0  euser{000a0000}-586.o(StubCode)
    StubCode                                 0x00018d78   Section        8  euser{000a0000}-593.o(StubCode)
    theImportedSymbol                        0x00018d7c   Data           0  euser{000a0000}-593.o(StubCode)
    StubCode                                 0x00018d80   Section        8  euser{000a0000}-604.o(StubCode)
    theImportedSymbol                        0x00018d84   Data           0  euser{000a0000}-604.o(StubCode)
    StubCode                                 0x00018d88   Section        8  euser{000a0000}-617.o(StubCode)
    theImportedSymbol                        0x00018d8c   Data           0  euser{000a0000}-617.o(StubCode)
    StubCode                                 0x00018d90   Section        8  euser{000a0000}-649.o(StubCode)
    theImportedSymbol                        0x00018d94   Data           0  euser{000a0000}-649.o(StubCode)
    StubCode                                 0x00018d98   Section        8  euser{000a0000}-652.o(StubCode)
    theImportedSymbol                        0x00018d9c   Data           0  euser{000a0000}-652.o(StubCode)
    StubCode                                 0x00018da0   Section        8  euser{000a0000}-654.o(StubCode)
    theImportedSymbol                        0x00018da4   Data           0  euser{000a0000}-654.o(StubCode)
    StubCode                                 0x00018da8   Section        8  euser{000a0000}-669.o(StubCode)
    theImportedSymbol                        0x00018dac   Data           0  euser{000a0000}-669.o(StubCode)
    StubCode                                 0x00018db0   Section        8  euser{000a0000}-670.o(StubCode)
    theImportedSymbol                        0x00018db4   Data           0  euser{000a0000}-670.o(StubCode)
    StubCode                                 0x00018db8   Section        8  euser{000a0000}-671.o(StubCode)
    theImportedSymbol                        0x00018dbc   Data           0  euser{000a0000}-671.o(StubCode)
    StubCode                                 0x00018dc0   Section        8  euser{000a0000}-81.o(StubCode)
    theImportedSymbol                        0x00018dc4   Data           0  euser{000a0000}-81.o(StubCode)
    StubCode                                 0x00018dc8   Section        8  euser{000a0000}-816.o(StubCode)
    theImportedSymbol                        0x00018dcc   Data           0  euser{000a0000}-816.o(StubCode)
    StubCode                                 0x00018dd0   Section        8  euser{000a0000}-953.o(StubCode)
    theImportedSymbol                        0x00018dd4   Data           0  euser{000a0000}-953.o(StubCode)
    StubCode                                 0x00018dd8   Section        8  euser{000a0000}-966.o(StubCode)
    theImportedSymbol                        0x00018ddc   Data           0  euser{000a0000}-966.o(StubCode)
    StubCode                                 0x00018de0   Section        8  euser{000a0000}-972.o(StubCode)
    theImportedSymbol                        0x00018de4   Data           0  euser{000a0000}-972.o(StubCode)
    StubCode                                 0x00018de8   Section        8  euser{000a0000}-973.o(StubCode)
    theImportedSymbol                        0x00018dec   Data           0  euser{000a0000}-973.o(StubCode)
    StubCode                                 0x00018df0   Section        8  dfpaeabi{000a0000}-3.o(StubCode)
    theImportedSymbol                        0x00018df4   Data           0  dfpaeabi{000a0000}-3.o(StubCode)
    StubCode                                 0x00018df8   Section        8  drtaeabi{000a0000}-135.o(StubCode)
    theImportedSymbol                        0x00018dfc   Data           0  drtaeabi{000a0000}-135.o(StubCode)
    StubCode                                 0x00018e00   Section        8  drtaeabi{000a0000}-147.o(StubCode)
    theImportedSymbol                        0x00018e04   Data           0  drtaeabi{000a0000}-147.o(StubCode)
    StubCode                                 0x00018e08   Section        8  drtaeabi{000a0000}-155.o(StubCode)
    theImportedSymbol                        0x00018e0c   Data           0  drtaeabi{000a0000}-155.o(StubCode)
    StubCode                                 0x00018e10   Section        8  drtaeabi{000a0000}-158.o(StubCode)
    theImportedSymbol                        0x00018e14   Data           0  drtaeabi{000a0000}-158.o(StubCode)
    StubCode                                 0x00018e18   Section        8  drtaeabi{000a0000}-159.o(StubCode)
    theImportedSymbol                        0x00018e1c   Data           0  drtaeabi{000a0000}-159.o(StubCode)
    StubCode                                 0x00018e20   Section        8  drtaeabi{000a0000}-180.o(StubCode)
    theImportedSymbol                        0x00018e24   Data           0  drtaeabi{000a0000}-180.o(StubCode)
    StubCode                                 0x00018e28   Section        8  drtaeabi{000a0000}-182.o(StubCode)
    theImportedSymbol                        0x00018e2c   Data           0  drtaeabi{000a0000}-182.o(StubCode)
    StubCode                                 0x00018e30   Section        8  drtaeabi{000a0000}-183.o(StubCode)
    theImportedSymbol                        0x00018e34   Data           0  drtaeabi{000a0000}-183.o(StubCode)
    StubCode                                 0x00018e38   Section        8  drtaeabi{000a0000}-184.o(StubCode)
    theImportedSymbol                        0x00018e3c   Data           0  drtaeabi{000a0000}-184.o(StubCode)
    StubCode                                 0x00018e40   Section        8  drtaeabi{000a0000}-186.o(StubCode)
    theImportedSymbol                        0x00018e44   Data           0  drtaeabi{000a0000}-186.o(StubCode)
    StubCode                                 0x00018e48   Section        8  drtaeabi{000a0000}-187.o(StubCode)
    theImportedSymbol                        0x00018e4c   Data           0  drtaeabi{000a0000}-187.o(StubCode)
    StubCode                                 0x00018e50   Section        8  drtaeabi{000a0000}-188.o(StubCode)
    theImportedSymbol                        0x00018e54   Data           0  drtaeabi{000a0000}-188.o(StubCode)
    StubCode                                 0x00018e58   Section        8  drtaeabi{000a0000}-189.o(StubCode)
    theImportedSymbol                        0x00018e5c   Data           0  drtaeabi{000a0000}-189.o(StubCode)
    StubCode                                 0x00018e60   Section        8  drtaeabi{000a0000}-190.o(StubCode)
    theImportedSymbol                        0x00018e64   Data           0  drtaeabi{000a0000}-190.o(StubCode)
    StubCode                                 0x00018e68   Section        8  drtrvct2_2{000a0000}-28.o(StubCode)
    theImportedSymbol                        0x00018e6c   Data           0  drtrvct2_2{000a0000}-28.o(StubCode)
    i._ZN10QByteArrayD1Ev                    0x00018e70   Section       24  qtcontacts_symbian.in(i._ZN10QByteArrayD1Ev)
    i._ZN10QtMobility12QContactGuidD1Ev      0x00018e88   Section        8  qtcontacts_symbian.in(i._ZN10QtMobility12QContactGuidD1Ev)
    i._ZN10QtMobility12QContactNameD1Ev      0x00018e90   Section        8  qtcontacts_symbian.in(i._ZN10QtMobility12QContactNameD1Ev)
    i._ZN10QtMobility14QContactDetail11setContextsERK7QString 0x00018e98   Section       60  qtcontacts_symbian.in(i._ZN10QtMobility14QContactDetail11setContextsERK7QString)
    i._ZN10QtMobility14QContactDetail11setContextsERK7QString.clean 0x00018ed4   Section       24  qtcontacts_symbian.in(i._ZN10QtMobility14QContactDetail11setContextsERK7QString.clean)
    i._ZN10QtMobility14QContactFamilyD1Ev    0x00018eec   Section        8  qtcontacts_symbian.in(i._ZN10QtMobility14QContactFamilyD1Ev)
    i._ZN10QtMobility15QContactAddressC1ERKS0_ 0x00018ef4   Section        8  qtcontacts_symbian.in(i._ZN10QtMobility15QContactAddressC1ERKS0_)
    i._ZN10QtMobility15QContactAddressD1Ev   0x00018efc   Section        8  qtcontacts_symbian.in(i._ZN10QtMobility15QContactAddressD1Ev)
    i._ZN10QtMobility16QContactBirthdayD1Ev  0x00018f04   Section        8  qtcontacts_symbian.in(i._ZN10QtMobility16QContactBirthdayD1Ev)
    i._ZN10QtMobility16QContactNicknameD1Ev  0x00018f0c   Section        8  qtcontacts_symbian.in(i._ZN10QtMobility16QContactNicknameD1Ev)
    i._ZN10QtMobility16QContactRingtoneD1Ev  0x00018f14   Section        8  qtcontacts_symbian.in(i._ZN10QtMobility16QContactRingtoneD1Ev)
    i._ZN10QtMobility17QContactTimestampD1Ev 0x00018f1c   Section        8  qtcontacts_symbian.in(i._ZN10QtMobility17QContactTimestampD1Ev)
    i._ZN10QtMobility19QContactAnniversaryD1Ev 0x00018f24   Section        8  qtcontacts_symbian.in(i._ZN10QtMobility19QContactAnniversaryD1Ev)
    i._ZN10QtMobility19QContactGeoLocation11setLatitudeEd 0x00018f2c   Section       32  qtcontacts_symbian.in(i._ZN10QtMobility19QContactGeoLocation11setLatitudeEd)
    i._ZN10QtMobility19QContactGeoLocation11setLatitudeEd.clean 0x00018f4c   Section       10  qtcontacts_symbian.in(i._ZN10QtMobility19QContactGeoLocation11setLatitudeEd.clean)
    i._ZN10QtMobility19QContactGeoLocation12setLongitudeEd 0x00018f58   Section       32  qtcontacts_symbian.in(i._ZN10QtMobility19QContactGeoLocation12setLongitudeEd)
    i._ZN10QtMobility19QContactGeoLocation12setLongitudeEd.clean 0x00018f78   Section       10  qtcontacts_symbian.in(i._ZN10QtMobility19QContactGeoLocation12setLongitudeEd.clean)
    i._ZN10QtMobility19QContactPhoneNumber11setSubTypesERK7QString 0x00018f84   Section       60  qtcontacts_symbian.in(i._ZN10QtMobility19QContactPhoneNumber11setSubTypesERK7QString)
    i._ZN10QtMobility19QContactPhoneNumber11setSubTypesERK7QString.clean 0x00018fc0   Section       24  qtcontacts_symbian.in(i._ZN10QtMobility19QContactPhoneNumber11setSubTypesERK7QString.clean)
    i._ZN10QtMobility19QContactUnionFilterD1Ev 0x00018fd8   Section        8  qtcontacts_symbian.in(i._ZN10QtMobility19QContactUnionFilterD1Ev)
    i._ZN10QtMobility20QContactDetailFilterD1Ev 0x00018fe0   Section        8  qtcontacts_symbian.in(i._ZN10QtMobility20QContactDetailFilterD1Ev)
    i._ZN10QtMobility20QContactOrganizationD1Ev 0x00018fe8   Section        8  qtcontacts_symbian.in(i._ZN10QtMobility20QContactOrganizationD1Ev)
    i._ZN10QtMobility21QContactInvalidFilterD1Ev 0x00018ff0   Section        8  qtcontacts_symbian.in(i._ZN10QtMobility21QContactInvalidFilterD1Ev)
    i._ZN10QtMobility21QContactManagerEngineD2Ev 0x00018ff8   Section        8  qtcontacts_symbian.in(i._ZN10QtMobility21QContactManagerEngineD2Ev)
    i._ZN10QtMobility21QContactOnlineAccount11setSubTypesERK7QString 0x00019000   Section       60  qtcontacts_symbian.in(i._ZN10QtMobility21QContactOnlineAccount11setSubTypesERK7QString)
    i._ZN10QtMobility21QContactOnlineAccount11setSubTypesERK7QString.clean 0x0001903c   Section       24  qtcontacts_symbian.in(i._ZN10QtMobility21QContactOnlineAccount11setSubTypesERK7QString.clean)
    i._ZN10QtMobility21QContactOnlineAccount13setAccountUriERK7QString 0x00019054   Section       32  qtcontacts_symbian.in(i._ZN10QtMobility21QContactOnlineAccount13setAccountUriERK7QString)
    i._ZN10QtMobility21QContactOnlineAccount13setAccountUriERK7QString.clean 0x00019074   Section       10  qtcontacts_symbian.in(i._ZN10QtMobility21QContactOnlineAccount13setAccountUriERK7QString.clean)
    i._ZN10QtMobility26QContactIntersectionFilterD1Ev 0x0001907e   Section        8  qtcontacts_symbian.in(i._ZN10QtMobility26QContactIntersectionFilterD1Ev)
    i._ZN10QtMobility26QContactRelationshipFilterD1Ev 0x00019086   Section        8  qtcontacts_symbian.in(i._ZN10QtMobility26QContactRelationshipFilterD1Ev)
    i._ZN11QStringListC1ERKS_                0x0001908e   Section        8  qtcontacts_symbian.in(i._ZN11QStringListC1ERKS_)
    i._ZN11QStringListC1Ev                   0x00019096   Section        8  qtcontacts_symbian.in(i._ZN11QStringListC1Ev)
    i._ZN11QStringListD1Ev                   0x0001909e   Section        8  qtcontacts_symbian.in(i._ZN11QStringListD1Ev)
    i._ZN13CArrayFixFlatIN16CContactDatabase9TSortPrefEED0Ev 0x000190a6   Section       16  qtcontacts_symbian.in(i._ZN13CArrayFixFlatIN16CContactDatabase9TSortPrefEED0Ev)
    i._ZN13CArrayFixFlatIN16CContactDatabase9TSortPrefEED1Ev 0x000190b6   Section        8  qtcontacts_symbian.in(i._ZN13CArrayFixFlatIN16CContactDatabase9TSortPrefEED1Ev)
    i._ZN14RBufReadStreamC1Ev                0x000190be   Section       14  qtcontacts_symbian.in(i._ZN14RBufReadStreamC1Ev)
    i._ZN15CContactIdArrayixEi               0x000190cc   Section       10  qtcontacts_symbian.in(i._ZN15CContactIdArrayixEi)
    i._ZN15CntTransformUrlD0Ev               0x000190d6   Section       16  qtcontacts_symbian.in(i._ZN15CntTransformUrlD0Ev)
    i._ZN15CntTransformUrlD1Ev               0x000190e6   Section        8  qtcontacts_symbian.in(i._ZN15CntTransformUrlD1Ev)
    i._ZN15QBasicAtomicInt3refEv             0x000190ee   Section       18  qtcontacts_symbian.in(i._ZN15QBasicAtomicInt3refEv)
    i._ZN15QBasicAtomicInt5derefEv           0x00019100   Section       18  qtcontacts_symbian.in(i._ZN15QBasicAtomicInt5derefEv)
    i._ZN16CntTransformNameD0Ev              0x00019112   Section       16  qtcontacts_symbian.in(i._ZN16CntTransformNameD0Ev)
    i._ZN16CntTransformNameD1Ev              0x00019122   Section        8  qtcontacts_symbian.in(i._ZN16CntTransformNameD1Ev)
    i._ZN16CntTransformNoteD0Ev              0x0001912a   Section       16  qtcontacts_symbian.in(i._ZN16CntTransformNoteD0Ev)
    i._ZN16CntTransformNoteD1Ev              0x0001913a   Section        8  qtcontacts_symbian.in(i._ZN16CntTransformNoteD1Ev)
    i._ZN17CntSymbianFactoryD0Ev             0x00019142   Section       16  qtcontacts_symbian.in(i._ZN17CntSymbianFactoryD0Ev)
    i._ZN17CntSymbianFactoryD1Ev             0x00019152   Section       18  qtcontacts_symbian.in(i._ZN17CntSymbianFactoryD1Ev)
    i._ZN17CntSymbianFactoryD1Ev.clean       0x00019164   Section       10  qtcontacts_symbian.in(i._ZN17CntSymbianFactoryD1Ev.clean)
    i._ZN17CntTransformEmailD0Ev             0x0001916e   Section       16  qtcontacts_symbian.in(i._ZN17CntTransformEmailD0Ev)
    i._ZN17CntTransformEmailD1Ev             0x0001917e   Section        8  qtcontacts_symbian.in(i._ZN17CntTransformEmailD1Ev)
    i._ZN17CntTransformEmptyD0Ev             0x00019186   Section       16  qtcontacts_symbian.in(i._ZN17CntTransformEmptyD0Ev)
    i._ZN17CntTransformEmptyD1Ev             0x00019196   Section        8  qtcontacts_symbian.in(i._ZN17CntTransformEmptyD1Ev)
    i._ZN17QForeachContainerI11QStringListED1Ev 0x0001919e   Section        8  qtcontacts_symbian.in(i._ZN17QForeachContainerI11QStringListED1Ev)
    i._ZN17QForeachContainerI5QListI4TUidEED1Ev 0x000191a6   Section        8  qtcontacts_symbian.in(i._ZN17QForeachContainerI5QListI4TUidEED1Ev)
    i._ZN17QForeachContainerI5QListI7QStringEED1Ev 0x000191ae   Section        8  qtcontacts_symbian.in(i._ZN17QForeachContainerI5QListI7QStringEED1Ev)
    i._ZN17QForeachContainerI5QListIN10QtMobility15QContactAddressEEED1Ev 0x000191b6   Section        8  qtcontacts_symbian.in(i._ZN17QForeachContainerI5QListIN10QtMobility15QContactAddressEEED1Ev)
    i._ZN17QForeachContainerI5QListIN10QtMobility17QContactSortOrderEEED1Ev 0x000191be   Section        8  qtcontacts_symbian.in(i._ZN17QForeachContainerI5QListIN10QtMobility17QContactSortOrderEEED1Ev)
    i._ZN17QForeachContainerI5QListIjEED1Ev  0x000191c6   Section        8  qtcontacts_symbian.in(i._ZN17QForeachContainerI5QListIjEED1Ev)
    i._ZN18CntTransformAvatarD0Ev            0x000191ce   Section       16  qtcontacts_symbian.in(i._ZN18CntTransformAvatarD0Ev)
    i._ZN18CntTransformAvatarD1Ev            0x000191de   Section        8  qtcontacts_symbian.in(i._ZN18CntTransformAvatarD1Ev)
    i._ZN18CntTransformFamilyD0Ev            0x000191e6   Section       16  qtcontacts_symbian.in(i._ZN18CntTransformFamilyD0Ev)
    i._ZN18CntTransformFamilyD1Ev            0x000191f6   Section        8  qtcontacts_symbian.in(i._ZN18CntTransformFamilyD1Ev)
    i._ZN19CntTransformAddressD0Ev           0x000191fe   Section       16  qtcontacts_symbian.in(i._ZN19CntTransformAddressD0Ev)
    i._ZN19CntTransformAddressD1Ev           0x0001920e   Section        8  qtcontacts_symbian.in(i._ZN19CntTransformAddressD1Ev)
    i._ZN20CContactItemFieldDefD0Ev          0x00019216   Section       16  qtcontacts_symbian.in(i._ZN20CContactItemFieldDefD0Ev)
    i._ZN20CContactItemFieldDefD1Ev          0x00019226   Section        8  qtcontacts_symbian.in(i._ZN20CContactItemFieldDefD1Ev)
    i._ZN20CContactItemFieldSetixEi          0x0001922e   Section       12  qtcontacts_symbian.in(i._ZN20CContactItemFieldSetixEi)
    i._ZN20CntTransformBirthdayD0Ev          0x0001923a   Section       16  qtcontacts_symbian.in(i._ZN20CntTransformBirthdayD0Ev)
    i._ZN20CntTransformBirthdayD1Ev          0x0001924a   Section        8  qtcontacts_symbian.in(i._ZN20CntTransformBirthdayD1Ev)
    i._ZN20CntTransformNicknameD0Ev          0x00019252   Section       16  qtcontacts_symbian.in(i._ZN20CntTransformNicknameD0Ev)
    i._ZN20CntTransformNicknameD1Ev          0x00019262   Section        8  qtcontacts_symbian.in(i._ZN20CntTransformNicknameD1Ev)
    i._ZN20CntTransformRingtoneD0Ev          0x0001926a   Section       16  qtcontacts_symbian.in(i._ZN20CntTransformRingtoneD0Ev)
    i._ZN20CntTransformRingtoneD1Ev          0x0001927a   Section        8  qtcontacts_symbian.in(i._ZN20CntTransformRingtoneD1Ev)
    i._ZN22CntTransformSyncTargetD0Ev        0x00019282   Section       16  qtcontacts_symbian.in(i._ZN22CntTransformSyncTargetD0Ev)
    i._ZN22CntTransformSyncTargetD1Ev        0x00019292   Section        8  qtcontacts_symbian.in(i._ZN22CntTransformSyncTargetD1Ev)
    i._ZN23CntTransformContactData5resetEv   0x0001929a   Section        2  qtcontacts_symbian.in(i._ZN23CntTransformContactData5resetEv)
    i._ZN23CntTransformContactDataC2Ev       0x0001929c   Section       20  qtcontacts_symbian.in(i._ZN23CntTransformContactDataC2Ev)
    i._ZN23CntTransformContactDataD0Ev       0x000192b0   Section       16  qtcontacts_symbian.in(i._ZN23CntTransformContactDataD0Ev)
    i._ZN23CntTransformContactDataD2Ev       0x000192c0   Section        8  qtcontacts_symbian.in(i._ZN23CntTransformContactDataD2Ev)
    i._ZN23CntTransformPhoneNumberD0Ev       0x000192c8   Section       16  qtcontacts_symbian.in(i._ZN23CntTransformPhoneNumberD0Ev)
    i._ZN23CntTransformPhoneNumberD1Ev       0x000192d8   Section        8  qtcontacts_symbian.in(i._ZN23CntTransformPhoneNumberD1Ev)
    i._ZN24CntAbstractContactFilterD2Ev      0x000192e0   Section        2  qtcontacts_symbian.in(i._ZN24CntAbstractContactFilterD2Ev)
    i._ZN24CntTransformOrganisationD0Ev      0x000192e2   Section       16  qtcontacts_symbian.in(i._ZN24CntTransformOrganisationD0Ev)
    i._ZN24CntTransformOrganisationD1Ev      0x000192f2   Section        8  qtcontacts_symbian.in(i._ZN24CntTransformOrganisationD1Ev)
    i._ZN25CntTransformOnlineAccountD0Ev     0x000192fa   Section       16  qtcontacts_symbian.in(i._ZN25CntTransformOnlineAccountD0Ev)
    i._ZN25CntTransformOnlineAccountD1Ev     0x0001930a   Section        8  qtcontacts_symbian.in(i._ZN25CntTransformOnlineAccountD1Ev)
    i._ZN29CntTransformAnniversarySimpleD0Ev 0x00019312   Section       16  qtcontacts_symbian.in(i._ZN29CntTransformAnniversarySimpleD0Ev)
    i._ZN29CntTransformAnniversarySimpleD1Ev 0x00019322   Section        8  qtcontacts_symbian.in(i._ZN29CntTransformAnniversarySimpleD1Ev)
    i._ZN4QSetIjED1Ev                        0x0001932a   Section        8  qtcontacts_symbian.in(i._ZN4QSetIjED1Ev)
    i._ZN5CBasenwEj                          0x00019332   Section        8  qtcontacts_symbian.in(i._ZN5CBasenwEj)
    i._ZN5QPairIj7QStringEC1ERKS1_           0x0001933a   Section       14  qtcontacts_symbian.in(i._ZN5QPairIj7QStringEC1ERKS1_)
    i._ZN5QPairIj7QStringED1Ev               0x00019348   Section       12  qtcontacts_symbian.in(i._ZN5QPairIj7QStringED1Ev)
    i._ZN6TLex16C1ERK7TDesC16                0x00019354   Section       16  qtcontacts_symbian.in(i._ZN6TLex16C1ERK7TDesC16)
    i._ZN7QString5clearEv                    0x00019364   Section       40  qtcontacts_symbian.in(i._ZN7QString5clearEv)
    i._ZN7QString5clearEv.clean              0x0001938c   Section       10  qtcontacts_symbian.in(i._ZN7QString5clearEv.clean)
    i._ZN7QStringC1EPKc                      0x00019396   Section       20  qtcontacts_symbian.in(i._ZN7QStringC1EPKc)
    i._ZN7QStringC1ERK13QLatin1String        0x000193aa   Section       20  qtcontacts_symbian.in(i._ZN7QStringC1ERK13QLatin1String)
    i._ZN7QStringC1ERKS_                     0x000193be   Section       16  qtcontacts_symbian.in(i._ZN7QStringC1ERKS_)
    i._ZN7QStringC1Ev                        0x000193d0   Section       20  qtcontacts_symbian.in(i._ZN7QStringC1Ev)
    i._ZN7QStringD1Ev                        0x000193e4   Section       24  qtcontacts_symbian.in(i._ZN7QStringD1Ev)
    i._ZN7QStringaSEPKc                      0x000193fc   Section       34  qtcontacts_symbian.in(i._ZN7QStringaSEPKc)
    i._ZN7QStringaSEPKc.clean                0x0001941e   Section       10  qtcontacts_symbian.in(i._ZN7QStringaSEPKc.clean)
    i._ZN7QStringpLEPKc                      0x00019428   Section       34  qtcontacts_symbian.in(i._ZN7QStringpLEPKc)
    i._ZN7QStringpLEPKc.clean                0x0001944a   Section       10  qtcontacts_symbian.in(i._ZN7QStringpLEPKc.clean)
    i._ZN7QStringpLEc                        0x00019454   Section       20  qtcontacts_symbian.in(i._ZN7QStringpLEc)
    i._ZN8TIpcArgs3SetEiP5TDes8              0x00019468   Section       20  qtcontacts_symbian.in(i._ZN8TIpcArgs3SetEiP5TDes8)
    i._ZN8TIpcArgs3SetEiPK7TDesC16           0x0001947c   Section       20  qtcontacts_symbian.in(i._ZN8TIpcArgs3SetEiPK7TDesC16)
    i._ZN9CArrayFixIN16CContactDatabase9TSortPrefEED1Ev 0x00019490   Section        8  qtcontacts_symbian.in(i._ZN9CArrayFixIN16CContactDatabase9TSortPrefEED1Ev)
    i._ZN9QHashData8willGrowEv               0x00019498   Section       28  qtcontacts_symbian.in(i._ZN9QHashData8willGrowEv)
    i._ZNK10QtMobility14QContactDetail8contextsEv 0x000194b4   Section       16  qtcontacts_symbian.in(i._ZNK10QtMobility14QContactDetail8contextsEv)
    i._ZNK10QtMobility14QContactFamily8childrenEv 0x000194c4   Section       16  qtcontacts_symbian.in(i._ZNK10QtMobility14QContactFamily8childrenEv)
    i._ZNK10QtMobility16QContactBirthday4dateEv 0x000194d4   Section       84  qtcontacts_symbian.in(i._ZNK10QtMobility16QContactBirthday4dateEv)
    i._ZNK10QtMobility16QContactBirthday4dateEv.clean 0x00019528   Section       10  qtcontacts_symbian.in(i._ZNK10QtMobility16QContactBirthday4dateEv.clean)
    i._ZNK10QtMobility16QContactRingtone16audioRingtoneUrlEv 0x00019534   Section       32  qtcontacts_symbian.in(i._ZNK10QtMobility16QContactRingtone16audioRingtoneUrlEv)
    i._ZNK10QtMobility16QContactRingtone16audioRingtoneUrlEv.clean 0x00019554   Section       10  qtcontacts_symbian.in(i._ZNK10QtMobility16QContactRingtone16audioRingtoneUrlEv.clean)
    i._ZNK10QtMobility16QContactRingtone16videoRingtoneUrlEv 0x00019560   Section       32  qtcontacts_symbian.in(i._ZNK10QtMobility16QContactRingtone16videoRingtoneUrlEv)
    i._ZNK10QtMobility16QContactRingtone16videoRingtoneUrlEv.clean 0x00019580   Section       10  qtcontacts_symbian.in(i._ZNK10QtMobility16QContactRingtone16videoRingtoneUrlEv.clean)
    i._ZNK10QtMobility17QContactThumbnail9thumbnailEv 0x0001958c   Section       16  qtcontacts_symbian.in(i._ZNK10QtMobility17QContactThumbnail9thumbnailEv)
    i._ZNK10QtMobility19QContactAnniversary12originalDateEv 0x0001959c   Section       84  qtcontacts_symbian.in(i._ZNK10QtMobility19QContactAnniversary12originalDateEv)
    i._ZNK10QtMobility19QContactAnniversary12originalDateEv.clean 0x000195f0   Section       10  qtcontacts_symbian.in(i._ZNK10QtMobility19QContactAnniversary12originalDateEv.clean)
    i._ZNK10QtMobility19QContactGeoLocation8latitudeEv 0x000195fc   Section       44  qtcontacts_symbian.in(i._ZNK10QtMobility19QContactGeoLocation8latitudeEv)
    i._ZNK10QtMobility19QContactGeoLocation8latitudeEv.clean 0x00019628   Section       10  qtcontacts_symbian.in(i._ZNK10QtMobility19QContactGeoLocation8latitudeEv.clean)
    i._ZNK10QtMobility19QContactGeoLocation9longitudeEv 0x00019634   Section       44  qtcontacts_symbian.in(i._ZNK10QtMobility19QContactGeoLocation9longitudeEv)
    i._ZNK10QtMobility19QContactGeoLocation9longitudeEv.clean 0x00019660   Section       10  qtcontacts_symbian.in(i._ZNK10QtMobility19QContactGeoLocation9longitudeEv.clean)
    i._ZNK10QtMobility21QContactOnlineAccount10accountUriEv 0x0001966c   Section       16  qtcontacts_symbian.in(i._ZNK10QtMobility21QContactOnlineAccount10accountUriEv)
    i._ZNK11QStringList8containsERK7QStringN2Qt15CaseSensitivityE 0x0001967c   Section        8  qtcontacts_symbian.in(i._ZNK11QStringList8containsERK7QStringN2Qt15CaseSensitivityE)
    i._ZNK15CContactIdArrayixEi              0x00019684   Section       10  qtcontacts_symbian.in(i._ZNK15CContactIdArrayixEi)
    i._ZNK15QBasicAtomicInteqEi              0x0001968e   Section       14  qtcontacts_symbian.in(i._ZNK15QBasicAtomicInteqEi)
    i._ZNK15QBasicAtomicIntneEi              0x0001969c   Section       14  qtcontacts_symbian.in(i._ZNK15QBasicAtomicIntneEi)
    i._ZNK16CntSymbianEngine14managerVersionEv 0x000196aa   Section        4  qtcontacts_symbian.in(i._ZNK16CntSymbianEngine14managerVersionEv)
    i._ZNK16CntSymbianEngine17compatibleContactERKN10QtMobility8QContactEPNS0_15QContactManager5ErrorE 0x000196ae   Section        8  qtcontacts_symbian.in(i._ZNK16CntSymbianEngine17compatibleContactERKN10QtMobility8QContactEPNS0_15QContactManager5ErrorE)
    i._ZNK20CContactItemFieldSet4FindE4TUidS0_ 0x000196b6   Section       12  qtcontacts_symbian.in(i._ZNK20CContactItemFieldSet4FindE4TUidS0_)
    i._ZNK23CntTransformContactData13supportsFieldEm 0x000196c2   Section       96  qtcontacts_symbian.in(i._ZNK23CntTransformContactData13supportsFieldEm)
    i._ZNK23CntTransformContactData13supportsFieldEm.clean 0x00019722   Section       10  qtcontacts_symbian.in(i._ZNK23CntTransformContactData13supportsFieldEm.clean)
    i._ZNK5QBoolcvPKvEv                      0x0001972c   Section       14  qtcontacts_symbian.in(i._ZNK5QBoolcvPKvEv)
    i._ZNK7QString3argERKS_S1_               0x0001973a   Section       16  qtcontacts_symbian.in(i._ZNK7QString3argERKS_S1_)
    i._ZNK7QString3argEiiiRK5QChar           0x0001974a   Section       30  qtcontacts_symbian.in(i._ZNK7QString3argEiiiRK5QChar)
    i._ZNK7QString3argEjiiRK5QChar           0x00019768   Section       32  qtcontacts_symbian.in(i._ZNK7QString3argEjiiRK5QChar)
    i._ZNK7QString3argEliiRK5QChar           0x00019788   Section       30  qtcontacts_symbian.in(i._ZNK7QString3argEliiRK5QChar)
    i._ZNK7QString7isEmptyEv                 0x000197a6   Section       16  qtcontacts_symbian.in(i._ZNK7QString7isEmptyEv)
    i._ZNK7QStringneERK13QLatin1String       0x000197b6   Section       12  qtcontacts_symbian.in(i._ZNK7QStringneERK13QLatin1String)
    i._ZNK9QListData2atEi                    0x000197c2   Section       16  qtcontacts_symbian.in(i._ZNK9QListData2atEi)
    i._ZNK9QListData3endEv                   0x000197d2   Section       12  qtcontacts_symbian.in(i._ZNK9QListData3endEv)
    i._ZNK9QListData4sizeEv                  0x000197de   Section       10  qtcontacts_symbian.in(i._ZNK9QListData4sizeEv)
    i._ZNK9QListData5beginEv                 0x000197e8   Section       12  qtcontacts_symbian.in(i._ZNK9QListData5beginEv)
    i._ZNK9QListData7isEmptyEv               0x000197f4   Section       18  qtcontacts_symbian.in(i._ZNK9QListData7isEmptyEv)
    i._ZThn8_N17CntSymbianFactoryD0Ev        0x00019806   Section       10  qtcontacts_symbian.in(i._ZThn8_N17CntSymbianFactoryD0Ev)
    i._ZThn8_N17CntSymbianFactoryD1Ev        0x00019810   Section       10  qtcontacts_symbian.in(i._ZThn8_N17CntSymbianFactoryD1Ev)
    i._ZdlPvS_                               0x0001981a   Section        2  qtcontacts_symbian.in(i._ZdlPvS_)
    i._ZnwjPv                                0x0001981c   Section        4  qtcontacts_symbian.in(i._ZnwjPv)
    i._ZplPKcRK7QString                      0x00019820   Section       40  qtcontacts_symbian.in(i._ZplPKcRK7QString)
    i._ZplPKcRK7QString.clean                0x00019848   Section       10  qtcontacts_symbian.in(i._ZplPKcRK7QString.clean)
    i._ZplRK7QStringPKc                      0x00019852   Section       54  qtcontacts_symbian.in(i._ZplRK7QStringPKc)
    i._ZplRK7QStringPKc.clean                0x00019888   Section       16  qtcontacts_symbian.in(i._ZplRK7QStringPKc.clean)
    i._ZplRK7QStringS1_                      0x00019898   Section       36  qtcontacts_symbian.in(i._ZplRK7QStringS1_)
    i._ZplRK7QStringS1_.clean                0x000198bc   Section       10  qtcontacts_symbian.in(i._ZplRK7QStringS1_.clean)
    i._ZplRK7QStringc                        0x000198c6   Section      110  qtcontacts_symbian.in(i._ZplRK7QStringc)
    i._ZplRK7QStringc.clean                  0x00019934   Section       10  qtcontacts_symbian.in(i._ZplRK7QStringc.clean)
    t._Z15qMapLessThanKeyI7QStringEbRKT_S3_  0x0001993e   Section        8  qtcontacts_symbian.in(t._Z15qMapLessThanKeyI7QStringEbRKT_S3_)
    t._Z15qMapLessThanKeyIN19CntTransformContact11ContactDataEEbRKT_S4_ 0x00019946   Section       16  qtcontacts_symbian.in(t._Z15qMapLessThanKeyIN19CntTransformContact11ContactDataEEbRKT_S4_)
    t._Z15qMapLessThanKeyIiEbRKT_S2_         0x00019956   Section       16  qtcontacts_symbian.in(t._Z15qMapLessThanKeyIiEbRKT_S2_)
    t._Z15qMapLessThanKeyIjEbRKT_S2_         0x00019966   Section       16  qtcontacts_symbian.in(t._Z15qMapLessThanKeyIjEbRKT_S2_)
    t._Z20qForeachContainerNewI5QListIN10QtMobility17QContactSortOrderEEE17QForeachContainerIT_ERKS5_ 0x00019976   Section       62  qtcontacts_symbian.in(t._Z20qForeachContainerNewI5QListIN10QtMobility17QContactSortOrderEEE17QForeachContainerIT_ERKS5_)
    t._Z20qForeachContainerNewI5QListIN10QtMobility17QContactSortOrderEEE17QForeachContainerIT_ERKS5_.clean 0x000199b4   Section       10  qtcontacts_symbian.in(t._Z20qForeachContainerNewI5QListIN10QtMobility17QContactSortOrderEEE17QForeachContainerIT_ERKS5_.clean)
    t._Z20qForeachContainerNewI5QListIjEE17QForeachContainerIT_ERKS3_ 0x000199be   Section       46  qtcontacts_symbian.in(t._Z20qForeachContainerNewI5QListIjEE17QForeachContainerIT_ERKS3_)
    t._Z20qForeachContainerNewI5QListIjEE17QForeachContainerIT_ERKS3_.clean 0x000199ec   Section       10  qtcontacts_symbian.in(t._Z20qForeachContainerNewI5QListIjEE17QForeachContainerIT_ERKS3_.clean)
    t._Z9qMakePairI13QLatin1StringS0_E5QPairIT_T0_ERKS2_RKS3_ 0x000199f6   Section       18  qtcontacts_symbian.in(t._Z9qMakePairI13QLatin1StringS0_E5QPairIT_T0_ERKS2_RKS3_)
    t._ZN10QtMobilityeqILi10EEEbRKNS_15QLatin1ConstantIXT_EEERK7QString 0x00019a08   Section       16  qtcontacts_symbian.in(t._ZN10QtMobilityeqILi10EEEbRKNS_15QLatin1ConstantIXT_EEERK7QString)
    t._ZN10QtMobilityeqILi11EEEbRK7QStringRKNS_15QLatin1ConstantIXT_EEE 0x00019a18   Section       12  qtcontacts_symbian.in(t._ZN10QtMobilityeqILi11EEEbRK7QStringRKNS_15QLatin1ConstantIXT_EEE)
    t._ZN10QtMobilityeqILi11EEEbRKNS_15QLatin1ConstantIXT_EEERK7QString 0x00019a24   Section       16  qtcontacts_symbian.in(t._ZN10QtMobilityeqILi11EEEbRKNS_15QLatin1ConstantIXT_EEERK7QString)
    t._ZN10QtMobilityeqILi12EEEbRK7QStringRKNS_15QLatin1ConstantIXT_EEE 0x00019a34   Section       12  qtcontacts_symbian.in(t._ZN10QtMobilityeqILi12EEEbRK7QStringRKNS_15QLatin1ConstantIXT_EEE)
    t._ZN10QtMobilityeqILi13EEEbRK7QStringRKNS_15QLatin1ConstantIXT_EEE 0x00019a40   Section       12  qtcontacts_symbian.in(t._ZN10QtMobilityeqILi13EEEbRK7QStringRKNS_15QLatin1ConstantIXT_EEE)
    t._ZN10QtMobilityeqILi14EEEbRK7QStringRKNS_15QLatin1ConstantIXT_EEE 0x00019a4c   Section       12  qtcontacts_symbian.in(t._ZN10QtMobilityeqILi14EEEbRK7QStringRKNS_15QLatin1ConstantIXT_EEE)
    t._ZN10QtMobilityeqILi14EEEbRKNS_15QLatin1ConstantIXT_EEERK7QString 0x00019a58   Section       16  qtcontacts_symbian.in(t._ZN10QtMobilityeqILi14EEEbRKNS_15QLatin1ConstantIXT_EEERK7QString)
    t._ZN10QtMobilityeqILi17EEEbRKNS_15QLatin1ConstantIXT_EEERK7QString 0x00019a68   Section       16  qtcontacts_symbian.in(t._ZN10QtMobilityeqILi17EEEbRKNS_15QLatin1ConstantIXT_EEERK7QString)
    t._ZN10QtMobilityeqILi4EEEbRK7QStringRKNS_15QLatin1ConstantIXT_EEE 0x00019a78   Section       12  qtcontacts_symbian.in(t._ZN10QtMobilityeqILi4EEEbRK7QStringRKNS_15QLatin1ConstantIXT_EEE)
    t._ZN10QtMobilityeqILi4EEEbRKNS_15QLatin1ConstantIXT_EEERK7QString 0x00019a84   Section       16  qtcontacts_symbian.in(t._ZN10QtMobilityeqILi4EEEbRKNS_15QLatin1ConstantIXT_EEERK7QString)
    t._ZN10QtMobilityeqILi5EEEbRK7QStringRKNS_15QLatin1ConstantIXT_EEE 0x00019a94   Section       12  qtcontacts_symbian.in(t._ZN10QtMobilityeqILi5EEEbRK7QStringRKNS_15QLatin1ConstantIXT_EEE)
    t._ZN10QtMobilityeqILi6EEEbRK7QStringRKNS_15QLatin1ConstantIXT_EEE 0x00019aa0   Section       12  qtcontacts_symbian.in(t._ZN10QtMobilityeqILi6EEEbRK7QStringRKNS_15QLatin1ConstantIXT_EEE)
    t._ZN10QtMobilityeqILi6EEEbRKNS_15QLatin1ConstantIXT_EEERK7QString 0x00019aac   Section       16  qtcontacts_symbian.in(t._ZN10QtMobilityeqILi6EEEbRKNS_15QLatin1ConstantIXT_EEERK7QString)
    t._ZN10QtMobilityeqILi7EEEbRK7QStringRKNS_15QLatin1ConstantIXT_EEE 0x00019abc   Section       12  qtcontacts_symbian.in(t._ZN10QtMobilityeqILi7EEEbRK7QStringRKNS_15QLatin1ConstantIXT_EEE)
    t._ZN10QtMobilityeqILi7EEEbRKNS_15QLatin1ConstantIXT_EEERK7QString 0x00019ac8   Section       16  qtcontacts_symbian.in(t._ZN10QtMobilityeqILi7EEEbRKNS_15QLatin1ConstantIXT_EEERK7QString)
    t._ZN10QtMobilityeqILi8EEEbRK7QStringRKNS_15QLatin1ConstantIXT_EEE 0x00019ad8   Section       12  qtcontacts_symbian.in(t._ZN10QtMobilityeqILi8EEEbRK7QStringRKNS_15QLatin1ConstantIXT_EEE)
    t._ZN10QtMobilityeqILi8EEEbRKNS_15QLatin1ConstantIXT_EEERK7QString 0x00019ae4   Section       16  qtcontacts_symbian.in(t._ZN10QtMobilityeqILi8EEEbRKNS_15QLatin1ConstantIXT_EEERK7QString)
    t._ZN10QtMobilityeqILi9EEEbRK7QStringRKNS_15QLatin1ConstantIXT_EEE 0x00019af4   Section       12  qtcontacts_symbian.in(t._ZN10QtMobilityeqILi9EEEbRK7QStringRKNS_15QLatin1ConstantIXT_EEE)
    t._ZN10QtMobilityeqILi9EEEbRKNS_15QLatin1ConstantIXT_EEERK7QString 0x00019b00   Section       16  qtcontacts_symbian.in(t._ZN10QtMobilityeqILi9EEEbRKNS_15QLatin1ConstantIXT_EEERK7QString)
    t._ZN10QtMobilityneILi6EEEbRK7QStringRKNS_15QLatin1ConstantIXT_EEE 0x00019b10   Section       12  qtcontacts_symbian.in(t._ZN10QtMobilityneILi6EEEbRK7QStringRKNS_15QLatin1ConstantIXT_EEE)
    t._ZN10QtMobilityneILi8EEEbRK7QStringRKNS_15QLatin1ConstantIXT_EEE 0x00019b1c   Section       12  qtcontacts_symbian.in(t._ZN10QtMobilityneILi8EEEbRK7QStringRKNS_15QLatin1ConstantIXT_EEE)
    t._ZN14QScopedPointerI5QListIjE21QScopedPointerDeleterIS1_EED1Ev 0x00019b28   Section       26  qtcontacts_symbian.in(t._ZN14QScopedPointerI5QListIjE21QScopedPointerDeleterIS1_EED1Ev)
    t._ZN14QScopedPointerI7QString21QScopedPointerDeleterIS0_EED1Ev 0x00019b42   Section       26  qtcontacts_symbian.in(t._ZN14QScopedPointerI7QString21QScopedPointerDeleterIS0_EED1Ev)
    t._ZN14QScopedPointerIN10QtMobility10QContactIdE21QScopedPointerDeleterIS1_EED1Ev 0x00019b5c   Section       26  qtcontacts_symbian.in(t._ZN14QScopedPointerIN10QtMobility10QContactIdE21QScopedPointerDeleterIS1_EED1Ev)
    t._ZN14QScopedPointerIN10QtMobility14QContactDetailE21QScopedPointerDeleterIS1_EED1Ev 0x00019b76   Section       26  qtcontacts_symbian.in(t._ZN14QScopedPointerIN10QtMobility14QContactDetailE21QScopedPointerDeleterIS1_EED1Ev)
    t._ZN14QScopedPointerIN10QtMobility8QContactE21QScopedPointerDeleterIS1_EED1Ev 0x00019b90   Section       26  qtcontacts_symbian.in(t._ZN14QScopedPointerIN10QtMobility8QContactE21QScopedPointerDeleterIS1_EED1Ev)
    t._ZN4QMapI7QString8QVariantED1Ev        0x00019baa   Section       64  qtcontacts_symbian.in(t._ZN4QMapI7QString8QVariantED1Ev)
    t._ZN4QMapI7QStringN10QtMobility24QContactDetailDefinitionEE11node_createEP8QMapDataPPNS4_4NodeERKS0_RKS2_ 0x00019bea   Section      106  qtcontacts_symbian.in(t._ZN4QMapI7QStringN10QtMobility24QContactDetailDefinitionEE11node_createEP8QMapDataPPNS4_4NodeERKS0_RKS2_)
    t._ZN4QMapI7QStringN10QtMobility24QContactDetailDefinitionEE11node_createEP8QMapDataPPNS4_4NodeERKS0_RKS2_.clean 0x00019c54   Section       38  qtcontacts_symbian.in(t._ZN4QMapI7QStringN10QtMobility24QContactDetailDefinitionEE11node_createEP8QMapDataPPNS4_4NodeERKS0_RKS2_.clean)
    t._ZN4QMapI7QStringN10QtMobility24QContactDetailDefinitionEE13detach_helperEv 0x00019c7a   Section      114  qtcontacts_symbian.in(t._ZN4QMapI7QStringN10QtMobility24QContactDetailDefinitionEE13detach_helperEv)
    t._ZN4QMapI7QStringN10QtMobility24QContactDetailDefinitionEE13detach_helperEv.clean 0x00019cec   Section        8  qtcontacts_symbian.in(t._ZN4QMapI7QStringN10QtMobility24QContactDetailDefinitionEE13detach_helperEv.clean)
    t._ZN4QMapI7QStringN10QtMobility24QContactDetailDefinitionEE6detachEv 0x00019cf4   Section       26  qtcontacts_symbian.in(t._ZN4QMapI7QStringN10QtMobility24QContactDetailDefinitionEE6detachEv)
    t._ZN4QMapI7QStringN10QtMobility24QContactDetailDefinitionEE6insertERKS0_RKS2_ 0x00019d0e   Section      128  qtcontacts_symbian.in(t._ZN4QMapI7QStringN10QtMobility24QContactDetailDefinitionEE6insertERKS0_RKS2_)
    t._ZN4QMapI7QStringN10QtMobility24QContactDetailDefinitionEE6removeERKS0_ 0x00019d8e   Section      178  qtcontacts_symbian.in(t._ZN4QMapI7QStringN10QtMobility24QContactDetailDefinitionEE6removeERKS0_)
    t._ZN4QMapI7QStringN10QtMobility24QContactDetailDefinitionEE8freeDataEP8QMapData 0x00019e40   Section       42  qtcontacts_symbian.in(t._ZN4QMapI7QStringN10QtMobility24QContactDetailDefinitionEE8freeDataEP8QMapData)
    t._ZN4QMapI7QStringN10QtMobility24QContactDetailDefinitionEEC1ERKS3_ 0x00019e6a   Section       32  qtcontacts_symbian.in(t._ZN4QMapI7QStringN10QtMobility24QContactDetailDefinitionEEC1ERKS3_)
    t._ZN4QMapI7QStringN10QtMobility24QContactDetailDefinitionEEC1Ev 0x00019e8c   Section       24  qtcontacts_symbian.in(t._ZN4QMapI7QStringN10QtMobility24QContactDetailDefinitionEEC1Ev)
    t._ZN4QMapI7QStringN10QtMobility24QContactDetailDefinitionEED1Ev 0x00019ea4   Section       32  qtcontacts_symbian.in(t._ZN4QMapI7QStringN10QtMobility24QContactDetailDefinitionEED1Ev)
    t._ZN4QMapI7QStringN10QtMobility29QContactDetailFieldDefinitionEE11node_createEP8QMapDataPPNS4_4NodeERKS0_RKS2_ 0x00019ec4   Section      106  qtcontacts_symbian.in(t._ZN4QMapI7QStringN10QtMobility29QContactDetailFieldDefinitionEE11node_createEP8QMapDataPPNS4_4NodeERKS0_RKS2_)
    t._ZN4QMapI7QStringN10QtMobility29QContactDetailFieldDefinitionEE11node_createEP8QMapDataPPNS4_4NodeERKS0_RKS2_.clean 0x00019f2e   Section       38  qtcontacts_symbian.in(t._ZN4QMapI7QStringN10QtMobility29QContactDetailFieldDefinitionEE11node_createEP8QMapDataPPNS4_4NodeERKS0_RKS2_.clean)
    t._ZN4QMapI7QStringN10QtMobility29QContactDetailFieldDefinitionEE13detach_helperEv 0x00019f54   Section      114  qtcontacts_symbian.in(t._ZN4QMapI7QStringN10QtMobility29QContactDetailFieldDefinitionEE13detach_helperEv)
    t._ZN4QMapI7QStringN10QtMobility29QContactDetailFieldDefinitionEE13detach_helperEv.clean 0x00019fc6   Section        8  qtcontacts_symbian.in(t._ZN4QMapI7QStringN10QtMobility29QContactDetailFieldDefinitionEE13detach_helperEv.clean)
    t._ZN4QMapI7QStringN10QtMobility29QContactDetailFieldDefinitionEE6detachEv 0x00019fce   Section       26  qtcontacts_symbian.in(t._ZN4QMapI7QStringN10QtMobility29QContactDetailFieldDefinitionEE6detachEv)
    t._ZN4QMapI7QStringN10QtMobility29QContactDetailFieldDefinitionEE6insertERKS0_RKS2_ 0x00019fe8   Section      140  qtcontacts_symbian.in(t._ZN4QMapI7QStringN10QtMobility29QContactDetailFieldDefinitionEE6insertERKS0_RKS2_)
    t._ZN4QMapI7QStringN10QtMobility29QContactDetailFieldDefinitionEE6removeERKS0_ 0x0001a074   Section      168  qtcontacts_symbian.in(t._ZN4QMapI7QStringN10QtMobility29QContactDetailFieldDefinitionEE6removeERKS0_)
    t._ZN4QMapI7QStringN10QtMobility29QContactDetailFieldDefinitionEE8freeDataEP8QMapData 0x0001a11c   Section       42  qtcontacts_symbian.in(t._ZN4QMapI7QStringN10QtMobility29QContactDetailFieldDefinitionEE8freeDataEP8QMapData)
    t._ZN4QMapI7QStringN10QtMobility29QContactDetailFieldDefinitionEED1Ev 0x0001a146   Section       32  qtcontacts_symbian.in(t._ZN4QMapI7QStringN10QtMobility29QContactDetailFieldDefinitionEED1Ev)
    t._ZN4QMapI7QStringN10QtMobility29QContactDetailFieldDefinitionEEixERKS0_ 0x0001a166   Section      126  qtcontacts_symbian.in(t._ZN4QMapI7QStringN10QtMobility29QContactDetailFieldDefinitionEEixERKS0_)
    t._ZN4QMapI7QStringN10QtMobility29QContactDetailFieldDefinitionEEixERKS0_.clean 0x0001a1e4   Section       10  qtcontacts_symbian.in(t._ZN4QMapI7QStringN10QtMobility29QContactDetailFieldDefinitionEEixERKS0_.clean)
    t._ZN4QMapI7QStringP23CntAbstractRelationshipE11node_createEP8QMapDataPPNS4_4NodeERKS0_RKS2_ 0x0001a1ee   Section       86  qtcontacts_symbian.in(t._ZN4QMapI7QStringP23CntAbstractRelationshipE11node_createEP8QMapDataPPNS4_4NodeERKS0_RKS2_)
    t._ZN4QMapI7QStringP23CntAbstractRelationshipE11node_createEP8QMapDataPPNS4_4NodeERKS0_RKS2_.clean 0x0001a244   Section       20  qtcontacts_symbian.in(t._ZN4QMapI7QStringP23CntAbstractRelationshipE11node_createEP8QMapDataPPNS4_4NodeERKS0_RKS2_.clean)
    t._ZN4QMapI7QStringP23CntAbstractRelationshipE13detach_helperEv 0x0001a258   Section      114  qtcontacts_symbian.in(t._ZN4QMapI7QStringP23CntAbstractRelationshipE13detach_helperEv)
    t._ZN4QMapI7QStringP23CntAbstractRelationshipE13detach_helperEv.clean 0x0001a2ca   Section        8  qtcontacts_symbian.in(t._ZN4QMapI7QStringP23CntAbstractRelationshipE13detach_helperEv.clean)
    t._ZN4QMapI7QStringP23CntAbstractRelationshipE6detachEv 0x0001a2d2   Section       26  qtcontacts_symbian.in(t._ZN4QMapI7QStringP23CntAbstractRelationshipE6detachEv)
    t._ZN4QMapI7QStringP23CntAbstractRelationshipE8freeDataEP8QMapData 0x0001a2ec   Section       32  qtcontacts_symbian.in(t._ZN4QMapI7QStringP23CntAbstractRelationshipE8freeDataEP8QMapData)
    t._ZN4QMapI7QStringP23CntAbstractRelationshipED1Ev 0x0001a30c   Section       32  qtcontacts_symbian.in(t._ZN4QMapI7QStringP23CntAbstractRelationshipED1Ev)
    t._ZN4QMapI7QStringS_IS0_N10QtMobility24QContactDetailDefinitionEEED1Ev 0x0001a32c   Section       62  qtcontacts_symbian.in(t._ZN4QMapI7QStringS_IS0_N10QtMobility24QContactDetailDefinitionEEED1Ev)
    t._ZN4QMapIN19CntTransformContact11ContactDataEP23CntTransformContactDataE11node_createEP8QMapDataPPNS5_4NodeERKS1_RKS3_ 0x0001a36a   Section       60  qtcontacts_symbian.in(t._ZN4QMapIN19CntTransformContact11ContactDataEP23CntTransformContactDataE11node_createEP8QMapDataPPNS5_4NodeERKS1_RKS3_)
    t._ZN4QMapIN19CntTransformContact11ContactDataEP23CntTransformContactDataE13detach_helperEv 0x0001a3a6   Section      114  qtcontacts_symbian.in(t._ZN4QMapIN19CntTransformContact11ContactDataEP23CntTransformContactDataE13detach_helperEv)
    t._ZN4QMapIN19CntTransformContact11ContactDataEP23CntTransformContactDataE13detach_helperEv.clean 0x0001a418   Section        8  qtcontacts_symbian.in(t._ZN4QMapIN19CntTransformContact11ContactDataEP23CntTransformContactDataE13detach_helperEv.clean)
    t._ZN4QMapIN19CntTransformContact11ContactDataEP23CntTransformContactDataE6detachEv 0x0001a420   Section       26  qtcontacts_symbian.in(t._ZN4QMapIN19CntTransformContact11ContactDataEP23CntTransformContactDataE6detachEv)
    t._ZN4QMapIN19CntTransformContact11ContactDataEP23CntTransformContactDataE6insertERKS1_RKS3_ 0x0001a43a   Section      130  qtcontacts_symbian.in(t._ZN4QMapIN19CntTransformContact11ContactDataEP23CntTransformContactDataE6insertERKS1_RKS3_)
    t._ZN4QMapIN19CntTransformContact11ContactDataEP23CntTransformContactDataE8freeDataEP8QMapData 0x0001a4bc   Section       22  qtcontacts_symbian.in(t._ZN4QMapIN19CntTransformContact11ContactDataEP23CntTransformContactDataE8freeDataEP8QMapData)
    t._ZN4QMapIN19CntTransformContact11ContactDataEP23CntTransformContactDataED1Ev 0x0001a4d2   Section       32  qtcontacts_symbian.in(t._ZN4QMapIN19CntTransformContact11ContactDataEP23CntTransformContactDataED1Ev)
    t._ZN4QMapIiN10QtMobility15QContactManager5ErrorEE11node_createEP8QMapDataPPNS4_4NodeERKiRKS2_ 0x0001a4f2   Section       60  qtcontacts_symbian.in(t._ZN4QMapIiN10QtMobility15QContactManager5ErrorEE11node_createEP8QMapDataPPNS4_4NodeERKiRKS2_)
    t._ZN4QMapIiN10QtMobility15QContactManager5ErrorEE13detach_helperEv 0x0001a52e   Section      114  qtcontacts_symbian.in(t._ZN4QMapIiN10QtMobility15QContactManager5ErrorEE13detach_helperEv)
    t._ZN4QMapIiN10QtMobility15QContactManager5ErrorEE13detach_helperEv.clean 0x0001a5a0   Section        8  qtcontacts_symbian.in(t._ZN4QMapIiN10QtMobility15QContactManager5ErrorEE13detach_helperEv.clean)
    t._ZN4QMapIiN10QtMobility15QContactManager5ErrorEE5clearEv 0x0001a5a8   Section       68  qtcontacts_symbian.in(t._ZN4QMapIiN10QtMobility15QContactManager5ErrorEE5clearEv)
    t._ZN4QMapIiN10QtMobility15QContactManager5ErrorEE5clearEv.clean 0x0001a5ec   Section       10  qtcontacts_symbian.in(t._ZN4QMapIiN10QtMobility15QContactManager5ErrorEE5clearEv.clean)
    t._ZN4QMapIiN10QtMobility15QContactManager5ErrorEE6insertERKiRKS2_ 0x0001a5f6   Section      142  qtcontacts_symbian.in(t._ZN4QMapIiN10QtMobility15QContactManager5ErrorEE6insertERKiRKS2_)
    t._ZN4QMapIiN10QtMobility15QContactManager5ErrorEE8freeDataEP8QMapData 0x0001a684   Section       22  qtcontacts_symbian.in(t._ZN4QMapIiN10QtMobility15QContactManager5ErrorEE8freeDataEP8QMapData)
    t._ZN4QMapIiN10QtMobility15QContactManager5ErrorEEC1Ev 0x0001a69c   Section       24  qtcontacts_symbian.in(t._ZN4QMapIiN10QtMobility15QContactManager5ErrorEEC1Ev)
    t._ZN4QMapIiN10QtMobility15QContactManager5ErrorEED1Ev 0x0001a6b4   Section       32  qtcontacts_symbian.in(t._ZN4QMapIiN10QtMobility15QContactManager5ErrorEED1Ev)
    t._ZN4QMapIj4QSetIjEE11node_createEP8QMapDataPPNS3_4NodeERKjRKS1_ 0x0001a6d4   Section       98  qtcontacts_symbian.in(t._ZN4QMapIj4QSetIjEE11node_createEP8QMapDataPPNS3_4NodeERKjRKS1_)
    t._ZN4QMapIj4QSetIjEE11node_createEP8QMapDataPPNS3_4NodeERKjRKS1_.clean 0x0001a736   Section       28  qtcontacts_symbian.in(t._ZN4QMapIj4QSetIjEE11node_createEP8QMapDataPPNS3_4NodeERKjRKS1_.clean)
    t._ZN4QMapIj4QSetIjEE13detach_helperEv   0x0001a752   Section      114  qtcontacts_symbian.in(t._ZN4QMapIj4QSetIjEE13detach_helperEv)
    t._ZN4QMapIj4QSetIjEE13detach_helperEv.clean 0x0001a7c4   Section        8  qtcontacts_symbian.in(t._ZN4QMapIj4QSetIjEE13detach_helperEv.clean)
    t._ZN4QMapIj4QSetIjEE6detachEv           0x0001a7cc   Section       26  qtcontacts_symbian.in(t._ZN4QMapIj4QSetIjEE6detachEv)
    t._ZN4QMapIj4QSetIjEE6insertERKjRKS1_    0x0001a7e6   Section      128  qtcontacts_symbian.in(t._ZN4QMapIj4QSetIjEE6insertERKjRKS1_)
    t._ZN4QMapIj4QSetIjEE6removeERKj         0x0001a866   Section      154  qtcontacts_symbian.in(t._ZN4QMapIj4QSetIjEE6removeERKj)
    t._ZN4QMapIj4QSetIjEE8freeDataEP8QMapData 0x0001a900   Section       32  qtcontacts_symbian.in(t._ZN4QMapIj4QSetIjEE8freeDataEP8QMapData)
    t._ZN4QMapIj4QSetIjEED1Ev                0x0001a920   Section       32  qtcontacts_symbian.in(t._ZN4QMapIj4QSetIjEED1Ev)
    t._ZN4QSetIjE14const_iteratormmEv        0x0001a940   Section       16  qtcontacts_symbian.in(t._ZN4QSetIjE14const_iteratormmEv)
    t._ZN4QSetIjE6insertERKj                 0x0001a950   Section       22  qtcontacts_symbian.in(t._ZN4QSetIjE6insertERKj)
    t._ZN4QSetIjE6removeERKj                 0x0001a966   Section       18  qtcontacts_symbian.in(t._ZN4QSetIjE6removeERKj)
    t._ZN4QSetIjE8subtractERKS0_             0x0001a978   Section       96  qtcontacts_symbian.in(t._ZN4QSetIjE8subtractERKS0_)
    t._ZN4QSetIjE8subtractERKS0_.clean       0x0001a9d8   Section       16  qtcontacts_symbian.in(t._ZN4QSetIjE8subtractERKS0_.clean)
    t._ZN4QSetIjE9intersectERKS0_            0x0001a9e8   Section      112  qtcontacts_symbian.in(t._ZN4QSetIjE9intersectERKS0_)
    t._ZN4QSetIjE9intersectERKS0_.clean      0x0001aa58   Section       16  qtcontacts_symbian.in(t._ZN4QSetIjE9intersectERKS0_.clean)
    t._ZN4QSetIjEC1ERKS0_                    0x0001aa68   Section       32  qtcontacts_symbian.in(t._ZN4QSetIjEC1ERKS0_)
    t._ZN4QSetIjEC1Ev                        0x0001aa88   Section       24  qtcontacts_symbian.in(t._ZN4QSetIjEC1Ev)
    t._ZN4QSetIjEaSERKS0_                    0x0001aaa0   Section       58  qtcontacts_symbian.in(t._ZN4QSetIjEaSERKS0_)
    t._ZN4QSetIjEmiERKS0_                    0x0001aada   Section       18  qtcontacts_symbian.in(t._ZN4QSetIjEmiERKS0_)
    t._ZN4QSetIjEmiERKS0_.clean              0x0001aaec   Section       10  qtcontacts_symbian.in(t._ZN4QSetIjEmiERKS0_.clean)
    t._ZN4TBufILi256EEC1Ev                   0x0001aaf6   Section       12  qtcontacts_symbian.in(t._ZN4TBufILi256EEC1Ev)
    t._ZN5QHashI7QString5QPairIibEE11deleteNode2EPN9QHashData4NodeE 0x0001ab02   Section       10  qtcontacts_symbian.in(t._ZN5QHashI7QString5QPairIibEE11deleteNode2EPN9QHashData4NodeE)
    t._ZN5QHashI7QString5QPairIibEE13detach_helperEv 0x0001ab0c   Section       56  qtcontacts_symbian.in(t._ZN5QHashI7QString5QPairIibEE13detach_helperEv)
    t._ZN5QHashI7QString5QPairIibEE13duplicateNodeEPN9QHashData4NodeEPv 0x0001ab44   Section       30  qtcontacts_symbian.in(t._ZN5QHashI7QString5QPairIibEE13duplicateNodeEPN9QHashData4NodeEPv)
    t._ZN5QHashI7QString5QPairIibEE13duplicateNodeEPN9QHashData4NodeEPv.clean 0x0001ab62   Section       12  qtcontacts_symbian.in(t._ZN5QHashI7QString5QPairIibEE13duplicateNodeEPN9QHashData4NodeEPv.clean)
    t._ZN5QHashI7QString5QPairIibEE6insertERKS0_RKS2_ 0x0001ab6e   Section      144  qtcontacts_symbian.in(t._ZN5QHashI7QString5QPairIibEE6insertERKS0_RKS2_)
    t._ZN5QHashI7QString5QPairIibEE6insertERKS0_RKS2_.clean 0x0001abfe   Section       12  qtcontacts_symbian.in(t._ZN5QHashI7QString5QPairIibEE6insertERKS0_RKS2_.clean)
    t._ZN5QHashI7QString5QPairIibEE8freeDataEP9QHashData 0x0001ac0c   Section       16  qtcontacts_symbian.in(t._ZN5QHashI7QString5QPairIibEE8freeDataEP9QHashData)
    t._ZN5QHashI7QString5QPairIibEEC1Ev      0x0001ac1c   Section       24  qtcontacts_symbian.in(t._ZN5QHashI7QString5QPairIibEEC1Ev)
    t._ZN5QHashI7QString5QPairIibEED1Ev      0x0001ac34   Section       28  qtcontacts_symbian.in(t._ZN5QHashI7QString5QPairIibEED1Ev)
    t._ZN5QHashI7QStringS0_E11deleteNode2EPN9QHashData4NodeE 0x0001ac50   Section       18  qtcontacts_symbian.in(t._ZN5QHashI7QStringS0_E11deleteNode2EPN9QHashData4NodeE)
    t._ZN5QHashI7QStringS0_E11deleteNode2EPN9QHashData4NodeE.clean 0x0001ac62   Section       12  qtcontacts_symbian.in(t._ZN5QHashI7QStringS0_E11deleteNode2EPN9QHashData4NodeE.clean)
    t._ZN5QHashI7QStringS0_E13detach_helperEv 0x0001ac70   Section       56  qtcontacts_symbian.in(t._ZN5QHashI7QStringS0_E13detach_helperEv)
    t._ZN5QHashI7QStringS0_E13duplicateNodeEPN9QHashData4NodeEPv 0x0001aca8   Section       30  qtcontacts_symbian.in(t._ZN5QHashI7QStringS0_E13duplicateNodeEPN9QHashData4NodeEPv)
    t._ZN5QHashI7QStringS0_E13duplicateNodeEPN9QHashData4NodeEPv.clean 0x0001acc6   Section       12  qtcontacts_symbian.in(t._ZN5QHashI7QStringS0_E13duplicateNodeEPN9QHashData4NodeEPv.clean)
    t._ZN5QHashI7QStringS0_E6insertERKS0_S3_ 0x0001acd2   Section      138  qtcontacts_symbian.in(t._ZN5QHashI7QStringS0_E6insertERKS0_S3_)
    t._ZN5QHashI7QStringS0_E6insertERKS0_S3_.clean 0x0001ad5c   Section       12  qtcontacts_symbian.in(t._ZN5QHashI7QStringS0_E6insertERKS0_S3_.clean)
    t._ZN5QHashI7QStringS0_E8freeDataEP9QHashData 0x0001ad68   Section       16  qtcontacts_symbian.in(t._ZN5QHashI7QStringS0_E8freeDataEP9QHashData)
    t._ZN5QHashI7QStringS0_EC1Ev             0x0001ad78   Section       24  qtcontacts_symbian.in(t._ZN5QHashI7QStringS0_EC1Ev)
    t._ZN5QHashI7QStringS0_ED1Ev             0x0001ad90   Section       28  qtcontacts_symbian.in(t._ZN5QHashI7QStringS0_ED1Ev)
    t._ZN5QHashI7QStringiE11deleteNode2EPN9QHashData4NodeE 0x0001adac   Section       10  qtcontacts_symbian.in(t._ZN5QHashI7QStringiE11deleteNode2EPN9QHashData4NodeE)
    t._ZN5QHashI7QStringiE13detach_helperEv  0x0001adb8   Section       56  qtcontacts_symbian.in(t._ZN5QHashI7QStringiE13detach_helperEv)
    t._ZN5QHashI7QStringiE13duplicateNodeEPN9QHashData4NodeEPv 0x0001adf0   Section       30  qtcontacts_symbian.in(t._ZN5QHashI7QStringiE13duplicateNodeEPN9QHashData4NodeEPv)
    t._ZN5QHashI7QStringiE13duplicateNodeEPN9QHashData4NodeEPv.clean 0x0001ae0e   Section       12  qtcontacts_symbian.in(t._ZN5QHashI7QStringiE13duplicateNodeEPN9QHashData4NodeEPv.clean)
    t._ZN5QHashI7QStringiE6insertERKS0_RKi   0x0001ae1a   Section      134  qtcontacts_symbian.in(t._ZN5QHashI7QStringiE6insertERKS0_RKi)
    t._ZN5QHashI7QStringiE6insertERKS0_RKi.clean 0x0001aea0   Section       12  qtcontacts_symbian.in(t._ZN5QHashI7QStringiE6insertERKS0_RKi.clean)
    t._ZN5QHashI7QStringiE8freeDataEP9QHashData 0x0001aeac   Section       16  qtcontacts_symbian.in(t._ZN5QHashI7QStringiE8freeDataEP9QHashData)
    t._ZN5QHashI7QStringiEC1Ev               0x0001aebc   Section       24  qtcontacts_symbian.in(t._ZN5QHashI7QStringiEC1Ev)
    t._ZN5QHashI7QStringiED1Ev               0x0001aed4   Section       28  qtcontacts_symbian.in(t._ZN5QHashI7QStringiED1Ev)
    t._ZN5QHashIj15QHashDummyValueE11deleteNode2EPN9QHashData4NodeE 0x0001aef0   Section        2  qtcontacts_symbian.in(t._ZN5QHashIj15QHashDummyValueE11deleteNode2EPN9QHashData4NodeE)
    t._ZN5QHashIj15QHashDummyValueE13detach_helperEv 0x0001aef4   Section       56  qtcontacts_symbian.in(t._ZN5QHashIj15QHashDummyValueE13detach_helperEv)
    t._ZN5QHashIj15QHashDummyValueE13duplicateNodeEPN9QHashData4NodeEPv 0x0001af2c   Section       10  qtcontacts_symbian.in(t._ZN5QHashIj15QHashDummyValueE13duplicateNodeEPN9QHashData4NodeEPv)
    t._ZN5QHashIj15QHashDummyValueE6detachEv 0x0001af36   Section       26  qtcontacts_symbian.in(t._ZN5QHashIj15QHashDummyValueE6detachEv)
    t._ZN5QHashIj15QHashDummyValueE6insertERKjRKS0_ 0x0001af50   Section      104  qtcontacts_symbian.in(t._ZN5QHashIj15QHashDummyValueE6insertERKjRKS0_)
    t._ZN5QHashIj15QHashDummyValueE6removeERKj 0x0001afb8   Section      162  qtcontacts_symbian.in(t._ZN5QHashIj15QHashDummyValueE6removeERKj)
    t._ZN5QHashIj15QHashDummyValueE8freeDataEP9QHashData 0x0001b05c   Section       16  qtcontacts_symbian.in(t._ZN5QHashIj15QHashDummyValueE8freeDataEP9QHashData)
    t._ZN5QHashIj15QHashDummyValueED1Ev      0x0001b06c   Section       28  qtcontacts_symbian.in(t._ZN5QHashIj15QHashDummyValueED1Ev)
    t._ZN5QHashImP23CntTransformContactDataE10createNodeEjRKmRKS1_PP9QHashNodeImS1_E 0x0001b088   Section       66  qtcontacts_symbian.in(t._ZN5QHashImP23CntTransformContactDataE10createNodeEjRKmRKS1_PP9QHashNodeImS1_E)
    t._ZN5QHashImP23CntTransformContactDataE11deleteNode2EPN9QHashData4NodeE 0x0001b0ca   Section        2  qtcontacts_symbian.in(t._ZN5QHashImP23CntTransformContactDataE11deleteNode2EPN9QHashData4NodeE)
    t._ZN5QHashImP23CntTransformContactDataE13detach_helperEv 0x0001b0cc   Section       56  qtcontacts_symbian.in(t._ZN5QHashImP23CntTransformContactDataE13detach_helperEv)
    t._ZN5QHashImP23CntTransformContactDataE13duplicateNodeEPN9QHashData4NodeEPv 0x0001b104   Section       24  qtcontacts_symbian.in(t._ZN5QHashImP23CntTransformContactDataE13duplicateNodeEPN9QHashData4NodeEPv)
    t._ZN5QHashImP23CntTransformContactDataE6detachEv 0x0001b11c   Section       26  qtcontacts_symbian.in(t._ZN5QHashImP23CntTransformContactDataE6detachEv)
    t._ZN5QHashImP23CntTransformContactDataE8freeDataEP9QHashData 0x0001b138   Section       16  qtcontacts_symbian.in(t._ZN5QHashImP23CntTransformContactDataE8freeDataEP9QHashData)
    t._ZN5QHashImP23CntTransformContactDataEC1Ev 0x0001b148   Section       24  qtcontacts_symbian.in(t._ZN5QHashImP23CntTransformContactDataEC1Ev)
    t._ZN5QHashImP23CntTransformContactDataED1Ev 0x0001b160   Section       28  qtcontacts_symbian.in(t._ZN5QHashImP23CntTransformContactDataED1Ev)
    t._ZN5QListI4TUidE13detach_helperEi      0x0001b17c   Section      108  qtcontacts_symbian.in(t._ZN5QListI4TUidE13detach_helperEi)
    t._ZN5QListI4TUidE13detach_helperEi.clean 0x0001b1e8   Section        8  qtcontacts_symbian.in(t._ZN5QListI4TUidE13detach_helperEi.clean)
    t._ZN5QListI4TUidE13detach_helperEv      0x0001b1f0   Section       88  qtcontacts_symbian.in(t._ZN5QListI4TUidE13detach_helperEv)
    t._ZN5QListI4TUidE13detach_helperEv.clean 0x0001b248   Section        8  qtcontacts_symbian.in(t._ZN5QListI4TUidE13detach_helperEv.clean)
    t._ZN5QListI4TUidE13node_destructEPNS1_4NodeES3_ 0x0001b250   Section       22  qtcontacts_symbian.in(t._ZN5QListI4TUidE13node_destructEPNS1_4NodeES3_)
    t._ZN5QListI4TUidE14node_constructEPNS1_4NodeERKS0_ 0x0001b266   Section       28  qtcontacts_symbian.in(t._ZN5QListI4TUidE14node_constructEPNS1_4NodeERKS0_)
    t._ZN5QListI4TUidE18detach_helper_growEii 0x0001b282   Section      180  qtcontacts_symbian.in(t._ZN5QListI4TUidE18detach_helper_growEii)
    t._ZN5QListI4TUidE18detach_helper_growEii.clean 0x0001b336   Section        8  qtcontacts_symbian.in(t._ZN5QListI4TUidE18detach_helper_growEii.clean)
    t._ZN5QListI4TUidE4freeEPN9QListData4DataE 0x0001b33e   Section       38  qtcontacts_symbian.in(t._ZN5QListI4TUidE4freeEPN9QListData4DataE)
    t._ZN5QListI4TUidE6appendERKS0_          0x0001b364   Section       92  qtcontacts_symbian.in(t._ZN5QListI4TUidE6appendERKS0_)
    t._ZN5QListI4TUidE6appendERKS0_.clean    0x0001b3c0   Section        8  qtcontacts_symbian.in(t._ZN5QListI4TUidE6appendERKS0_.clean)
    t._ZN5QListI4TUidE9node_copyEPNS1_4NodeES3_S3_ 0x0001b3c8   Section       40  qtcontacts_symbian.in(t._ZN5QListI4TUidE9node_copyEPNS1_4NodeES3_S3_)
    t._ZN5QListI4TUidEC1ERKS1_               0x0001b3f0   Section       30  qtcontacts_symbian.in(t._ZN5QListI4TUidEC1ERKS1_)
    t._ZN5QListI4TUidEC1Ev                   0x0001b410   Section       20  qtcontacts_symbian.in(t._ZN5QListI4TUidEC1Ev)
    t._ZN5QListI4TUidED1Ev                   0x0001b424   Section       30  qtcontacts_symbian.in(t._ZN5QListI4TUidED1Ev)
    t._ZN5QListI4TUidEaSERKS1_               0x0001b442   Section       54  qtcontacts_symbian.in(t._ZN5QListI4TUidEaSERKS1_)
    t._ZN5QListI4TUidElsERKS0_               0x0001b478   Section       12  qtcontacts_symbian.in(t._ZN5QListI4TUidElsERKS0_)
    t._ZN5QListI4TUidEpLERKS1_               0x0001b484   Section      136  qtcontacts_symbian.in(t._ZN5QListI4TUidEpLERKS1_)
    t._ZN5QListI4TUidEpLERKS1_.clean         0x0001b50c   Section        8  qtcontacts_symbian.in(t._ZN5QListI4TUidEpLERKS1_.clean)
    t._ZN5QListI5QPairI13QLatin1StringS1_EE13detach_helperEv 0x0001b514   Section       88  qtcontacts_symbian.in(t._ZN5QListI5QPairI13QLatin1StringS1_EE13detach_helperEv)
    t._ZN5QListI5QPairI13QLatin1StringS1_EE13detach_helperEv.clean 0x0001b56c   Section        8  qtcontacts_symbian.in(t._ZN5QListI5QPairI13QLatin1StringS1_EE13detach_helperEv.clean)
    t._ZN5QListI5QPairI13QLatin1StringS1_EE13node_destructEPNS3_4NodeES5_ 0x0001b574   Section       22  qtcontacts_symbian.in(t._ZN5QListI5QPairI13QLatin1StringS1_EE13node_destructEPNS3_4NodeES5_)
    t._ZN5QListI5QPairI13QLatin1StringS1_EE14node_constructEPNS3_4NodeERKS2_ 0x0001b58a   Section       32  qtcontacts_symbian.in(t._ZN5QListI5QPairI13QLatin1StringS1_EE14node_constructEPNS3_4NodeERKS2_)
    t._ZN5QListI5QPairI13QLatin1StringS1_EE18detach_helper_growEii 0x0001b5aa   Section      180  qtcontacts_symbian.in(t._ZN5QListI5QPairI13QLatin1StringS1_EE18detach_helper_growEii)
    t._ZN5QListI5QPairI13QLatin1StringS1_EE18detach_helper_growEii.clean 0x0001b65e   Section        8  qtcontacts_symbian.in(t._ZN5QListI5QPairI13QLatin1StringS1_EE18detach_helper_growEii.clean)
    t._ZN5QListI5QPairI13QLatin1StringS1_EE4freeEPN9QListData4DataE 0x0001b666   Section       38  qtcontacts_symbian.in(t._ZN5QListI5QPairI13QLatin1StringS1_EE4freeEPN9QListData4DataE)
    t._ZN5QListI5QPairI13QLatin1StringS1_EE6appendERKS2_ 0x0001b68c   Section       96  qtcontacts_symbian.in(t._ZN5QListI5QPairI13QLatin1StringS1_EE6appendERKS2_)
    t._ZN5QListI5QPairI13QLatin1StringS1_EE6appendERKS2_.clean 0x0001b6ec   Section        8  qtcontacts_symbian.in(t._ZN5QListI5QPairI13QLatin1StringS1_EE6appendERKS2_.clean)
    t._ZN5QListI5QPairI13QLatin1StringS1_EE9node_copyEPNS3_4NodeES5_S5_ 0x0001b6f4   Section       44  qtcontacts_symbian.in(t._ZN5QListI5QPairI13QLatin1StringS1_EE9node_copyEPNS3_4NodeES5_S5_)
    t._ZN5QListI5QPairI13QLatin1StringS1_EEC1ERKS3_ 0x0001b720   Section       30  qtcontacts_symbian.in(t._ZN5QListI5QPairI13QLatin1StringS1_EEC1ERKS3_)
    t._ZN5QListI5QPairI13QLatin1StringS1_EEC1Ev 0x0001b740   Section       20  qtcontacts_symbian.in(t._ZN5QListI5QPairI13QLatin1StringS1_EEC1Ev)
    t._ZN5QListI5QPairI13QLatin1StringS1_EED1Ev 0x0001b754   Section       30  qtcontacts_symbian.in(t._ZN5QListI5QPairI13QLatin1StringS1_EED1Ev)
    t._ZN5QListI5QPairIj7QStringEE13detach_helperEv 0x0001b772   Section       88  qtcontacts_symbian.in(t._ZN5QListI5QPairIj7QStringEE13detach_helperEv)
    t._ZN5QListI5QPairIj7QStringEE13detach_helperEv.clean 0x0001b7ca   Section        8  qtcontacts_symbian.in(t._ZN5QListI5QPairIj7QStringEE13detach_helperEv.clean)
    t._ZN5QListI5QPairIj7QStringEE13node_destructEPNS3_4NodeES5_ 0x0001b7d2   Section       30  qtcontacts_symbian.in(t._ZN5QListI5QPairIj7QStringEE13node_destructEPNS3_4NodeES5_)
    t._ZN5QListI5QPairIj7QStringEE14node_constructEPNS3_4NodeERKS2_ 0x0001b7f0   Section       32  qtcontacts_symbian.in(t._ZN5QListI5QPairIj7QStringEE14node_constructEPNS3_4NodeERKS2_)
    t._ZN5QListI5QPairIj7QStringEE14node_constructEPNS3_4NodeERKS2_.clean 0x0001b810   Section       10  qtcontacts_symbian.in(t._ZN5QListI5QPairIj7QStringEE14node_constructEPNS3_4NodeERKS2_.clean)
    t._ZN5QListI5QPairIj7QStringEE18detach_helper_growEii 0x0001b81a   Section      180  qtcontacts_symbian.in(t._ZN5QListI5QPairIj7QStringEE18detach_helper_growEii)
    t._ZN5QListI5QPairIj7QStringEE18detach_helper_growEii.clean 0x0001b8ce   Section        8  qtcontacts_symbian.in(t._ZN5QListI5QPairIj7QStringEE18detach_helper_growEii.clean)
    t._ZN5QListI5QPairIj7QStringEE4freeEPN9QListData4DataE 0x0001b8d6   Section       38  qtcontacts_symbian.in(t._ZN5QListI5QPairIj7QStringEE4freeEPN9QListData4DataE)
    t._ZN5QListI5QPairIj7QStringEE6appendERKS2_ 0x0001b8fc   Section       96  qtcontacts_symbian.in(t._ZN5QListI5QPairIj7QStringEE6appendERKS2_)
    t._ZN5QListI5QPairIj7QStringEE6appendERKS2_.clean 0x0001b95c   Section        8  qtcontacts_symbian.in(t._ZN5QListI5QPairIj7QStringEE6appendERKS2_.clean)
    t._ZN5QListI5QPairIj7QStringEE9node_copyEPNS3_4NodeES5_S5_ 0x0001b964   Section       80  qtcontacts_symbian.in(t._ZN5QListI5QPairIj7QStringEE9node_copyEPNS3_4NodeES5_S5_)
    t._ZN5QListI5QPairIj7QStringEE9node_copyEPNS3_4NodeES5_S5_.clean 0x0001b9b4   Section       18  qtcontacts_symbian.in(t._ZN5QListI5QPairIj7QStringEE9node_copyEPNS3_4NodeES5_S5_.clean)
    t._ZN5QListI5QPairIj7QStringEEC1Ev       0x0001b9c8   Section       20  qtcontacts_symbian.in(t._ZN5QListI5QPairIj7QStringEEC1Ev)
    t._ZN5QListI5QPairIj7QStringEED1Ev       0x0001b9dc   Section       30  qtcontacts_symbian.in(t._ZN5QListI5QPairIj7QStringEED1Ev)
    t._ZN5QListI7QStringE13detach_helperEi   0x0001b9fa   Section       86  qtcontacts_symbian.in(t._ZN5QListI7QStringE13detach_helperEi)
    t._ZN5QListI7QStringE13detach_helperEi.clean 0x0001ba50   Section        8  qtcontacts_symbian.in(t._ZN5QListI7QStringE13detach_helperEi.clean)
    t._ZN5QListI7QStringE13detach_helperEv   0x0001ba58   Section       12  qtcontacts_symbian.in(t._ZN5QListI7QStringE13detach_helperEv)
    t._ZN5QListI7QStringE14node_constructEPNS1_4NodeERKS0_ 0x0001ba64   Section       26  qtcontacts_symbian.in(t._ZN5QListI7QStringE14node_constructEPNS1_4NodeERKS0_)
    t._ZN5QListI7QStringE14node_constructEPNS1_4NodeERKS0_.clean 0x0001ba7e   Section       12  qtcontacts_symbian.in(t._ZN5QListI7QStringE14node_constructEPNS1_4NodeERKS0_.clean)
    t._ZN5QListI7QStringE18detach_helper_growEii 0x0001ba8a   Section      186  qtcontacts_symbian.in(t._ZN5QListI7QStringE18detach_helper_growEii)
    t._ZN5QListI7QStringE18detach_helper_growEii.clean 0x0001bb44   Section        8  qtcontacts_symbian.in(t._ZN5QListI7QStringE18detach_helper_growEii.clean)
    t._ZN5QListI7QStringE4freeEPN9QListData4DataE 0x0001bb4c   Section       48  qtcontacts_symbian.in(t._ZN5QListI7QStringE4freeEPN9QListData4DataE)
    t._ZN5QListI7QStringE6appendERKS0_       0x0001bb7c   Section      100  qtcontacts_symbian.in(t._ZN5QListI7QStringE6appendERKS0_)
    t._ZN5QListI7QStringE6appendERKS0_.clean 0x0001bbe0   Section        8  qtcontacts_symbian.in(t._ZN5QListI7QStringE6appendERKS0_.clean)
    t._ZN5QListI7QStringE9node_copyEPNS1_4NodeES3_S3_ 0x0001bbe8   Section       70  qtcontacts_symbian.in(t._ZN5QListI7QStringE9node_copyEPNS1_4NodeES3_S3_)
    t._ZN5QListI7QStringE9node_copyEPNS1_4NodeES3_S3_.clean 0x0001bc2e   Section       22  qtcontacts_symbian.in(t._ZN5QListI7QStringE9node_copyEPNS1_4NodeES3_S3_.clean)
    t._ZN5QListI7QStringEC1ERKS1_            0x0001bc44   Section       30  qtcontacts_symbian.in(t._ZN5QListI7QStringEC1ERKS1_)
    t._ZN5QListI7QStringEC1Ev                0x0001bc64   Section       20  qtcontacts_symbian.in(t._ZN5QListI7QStringEC1Ev)
    t._ZN5QListI7QStringED1Ev                0x0001bc78   Section       30  qtcontacts_symbian.in(t._ZN5QListI7QStringED1Ev)
    t._ZN5QListI8QVariantE13detach_helperEv  0x0001bc96   Section       88  qtcontacts_symbian.in(t._ZN5QListI8QVariantE13detach_helperEv)
    t._ZN5QListI8QVariantE13detach_helperEv.clean 0x0001bcee   Section        8  qtcontacts_symbian.in(t._ZN5QListI8QVariantE13detach_helperEv.clean)
    t._ZN5QListI8QVariantE13node_destructEPNS1_4NodeES3_ 0x0001bcf6   Section       30  qtcontacts_symbian.in(t._ZN5QListI8QVariantE13node_destructEPNS1_4NodeES3_)
    t._ZN5QListI8QVariantE14node_constructEPNS1_4NodeERKS0_ 0x0001bd14   Section       32  qtcontacts_symbian.in(t._ZN5QListI8QVariantE14node_constructEPNS1_4NodeERKS0_)
    t._ZN5QListI8QVariantE14node_constructEPNS1_4NodeERKS0_.clean 0x0001bd34   Section       10  qtcontacts_symbian.in(t._ZN5QListI8QVariantE14node_constructEPNS1_4NodeERKS0_.clean)
    t._ZN5QListI8QVariantE18detach_helper_growEii 0x0001bd3e   Section      180  qtcontacts_symbian.in(t._ZN5QListI8QVariantE18detach_helper_growEii)
    t._ZN5QListI8QVariantE18detach_helper_growEii.clean 0x0001bdf2   Section        8  qtcontacts_symbian.in(t._ZN5QListI8QVariantE18detach_helper_growEii.clean)
    t._ZN5QListI8QVariantE4freeEPN9QListData4DataE 0x0001bdfa   Section       38  qtcontacts_symbian.in(t._ZN5QListI8QVariantE4freeEPN9QListData4DataE)
    t._ZN5QListI8QVariantE6appendERKS0_      0x0001be20   Section       96  qtcontacts_symbian.in(t._ZN5QListI8QVariantE6appendERKS0_)
    t._ZN5QListI8QVariantE6appendERKS0_.clean 0x0001be80   Section        8  qtcontacts_symbian.in(t._ZN5QListI8QVariantE6appendERKS0_.clean)
    t._ZN5QListI8QVariantE9node_copyEPNS1_4NodeES3_S3_ 0x0001be88   Section       80  qtcontacts_symbian.in(t._ZN5QListI8QVariantE9node_copyEPNS1_4NodeES3_S3_)
    t._ZN5QListI8QVariantE9node_copyEPNS1_4NodeES3_S3_.clean 0x0001bed8   Section       18  qtcontacts_symbian.in(t._ZN5QListI8QVariantE9node_copyEPNS1_4NodeES3_S3_.clean)
    t._ZN5QListI8QVariantEC1ERKS1_           0x0001beea   Section       30  qtcontacts_symbian.in(t._ZN5QListI8QVariantEC1ERKS1_)
    t._ZN5QListI8QVariantEC1Ev               0x0001bf08   Section       20  qtcontacts_symbian.in(t._ZN5QListI8QVariantEC1Ev)
    t._ZN5QListI8QVariantED1Ev               0x0001bf1c   Section       30  qtcontacts_symbian.in(t._ZN5QListI8QVariantED1Ev)
    t._ZN5QListI8QVariantElsERKS0_           0x0001bf3a   Section       12  qtcontacts_symbian.in(t._ZN5QListI8QVariantElsERKS0_)
    t._ZN5QListIN10QtMobility14QContactDetailEE13detach_helperEi 0x0001bf46   Section      142  qtcontacts_symbian.in(t._ZN5QListIN10QtMobility14QContactDetailEE13detach_helperEi)
    t._ZN5QListIN10QtMobility14QContactDetailEE13detach_helperEi.clean 0x0001bfd4   Section       20  qtcontacts_symbian.in(t._ZN5QListIN10QtMobility14QContactDetailEE13detach_helperEi.clean)
    t._ZN5QListIN10QtMobility14QContactDetailEE13detach_helperEv 0x0001bfe8   Section       12  qtcontacts_symbian.in(t._ZN5QListIN10QtMobility14QContactDetailEE13detach_helperEv)
    t._ZN5QListIN10QtMobility14QContactDetailEE4freeEPN9QListData4DataE 0x0001bff4   Section       48  qtcontacts_symbian.in(t._ZN5QListIN10QtMobility14QContactDetailEE4freeEPN9QListData4DataE)
    t._ZN5QListIN10QtMobility14QContactDetailEED1Ev 0x0001c024   Section       30  qtcontacts_symbian.in(t._ZN5QListIN10QtMobility14QContactDetailEED1Ev)
    t._ZN5QListIN10QtMobility14QContactDetailEEixEi 0x0001c042   Section       34  qtcontacts_symbian.in(t._ZN5QListIN10QtMobility14QContactDetailEEixEi)
    t._ZN5QListIN10QtMobility14QContactFilterEE13detach_helperEi 0x0001c064   Section      142  qtcontacts_symbian.in(t._ZN5QListIN10QtMobility14QContactFilterEE13detach_helperEi)
    t._ZN5QListIN10QtMobility14QContactFilterEE13detach_helperEi.clean 0x0001c0f2   Section       20  qtcontacts_symbian.in(t._ZN5QListIN10QtMobility14QContactFilterEE13detach_helperEi.clean)
    t._ZN5QListIN10QtMobility14QContactFilterEE4freeEPN9QListData4DataE 0x0001c106   Section       48  qtcontacts_symbian.in(t._ZN5QListIN10QtMobility14QContactFilterEE4freeEPN9QListData4DataE)
    t._ZN5QListIN10QtMobility14QContactFilterEED1Ev 0x0001c136   Section       30  qtcontacts_symbian.in(t._ZN5QListIN10QtMobility14QContactFilterEED1Ev)
    t._ZN5QListIN10QtMobility14QContactFilterEEixEi 0x0001c154   Section       38  qtcontacts_symbian.in(t._ZN5QListIN10QtMobility14QContactFilterEEixEi)
    t._ZN5QListIN10QtMobility15QContactAddressEE13detach_helperEv 0x0001c17a   Section       88  qtcontacts_symbian.in(t._ZN5QListIN10QtMobility15QContactAddressEE13detach_helperEv)
    t._ZN5QListIN10QtMobility15QContactAddressEE13detach_helperEv.clean 0x0001c1d2   Section        8  qtcontacts_symbian.in(t._ZN5QListIN10QtMobility15QContactAddressEE13detach_helperEv.clean)
    t._ZN5QListIN10QtMobility15QContactAddressEE13node_destructEPNS2_4NodeES4_ 0x0001c1da   Section       30  qtcontacts_symbian.in(t._ZN5QListIN10QtMobility15QContactAddressEE13node_destructEPNS2_4NodeES4_)
    t._ZN5QListIN10QtMobility15QContactAddressEE14node_constructEPNS2_4NodeERKS1_ 0x0001c1f8   Section       32  qtcontacts_symbian.in(t._ZN5QListIN10QtMobility15QContactAddressEE14node_constructEPNS2_4NodeERKS1_)
    t._ZN5QListIN10QtMobility15QContactAddressEE14node_constructEPNS2_4NodeERKS1_.clean 0x0001c218   Section       10  qtcontacts_symbian.in(t._ZN5QListIN10QtMobility15QContactAddressEE14node_constructEPNS2_4NodeERKS1_.clean)
    t._ZN5QListIN10QtMobility15QContactAddressEE18detach_helper_growEii 0x0001c222   Section      180  qtcontacts_symbian.in(t._ZN5QListIN10QtMobility15QContactAddressEE18detach_helper_growEii)
    t._ZN5QListIN10QtMobility15QContactAddressEE18detach_helper_growEii.clean 0x0001c2d6   Section        8  qtcontacts_symbian.in(t._ZN5QListIN10QtMobility15QContactAddressEE18detach_helper_growEii.clean)
    t._ZN5QListIN10QtMobility15QContactAddressEE4freeEPN9QListData4DataE 0x0001c2de   Section       44  qtcontacts_symbian.in(t._ZN5QListIN10QtMobility15QContactAddressEE4freeEPN9QListData4DataE)
    t._ZN5QListIN10QtMobility15QContactAddressEE6appendERKS1_ 0x0001c30c   Section       96  qtcontacts_symbian.in(t._ZN5QListIN10QtMobility15QContactAddressEE6appendERKS1_)
    t._ZN5QListIN10QtMobility15QContactAddressEE6appendERKS1_.clean 0x0001c36c   Section        8  qtcontacts_symbian.in(t._ZN5QListIN10QtMobility15QContactAddressEE6appendERKS1_.clean)
    t._ZN5QListIN10QtMobility15QContactAddressEE9node_copyEPNS2_4NodeES4_S4_ 0x0001c374   Section       80  qtcontacts_symbian.in(t._ZN5QListIN10QtMobility15QContactAddressEE9node_copyEPNS2_4NodeES4_S4_)
    t._ZN5QListIN10QtMobility15QContactAddressEE9node_copyEPNS2_4NodeES4_S4_.clean 0x0001c3c4   Section       18  qtcontacts_symbian.in(t._ZN5QListIN10QtMobility15QContactAddressEE9node_copyEPNS2_4NodeES4_S4_.clean)
    t._ZN5QListIN10QtMobility15QContactAddressEED1Ev 0x0001c3d6   Section       30  qtcontacts_symbian.in(t._ZN5QListIN10QtMobility15QContactAddressEED1Ev)
    t._ZN5QListIN10QtMobility15QContactManager5ErrorEED1Ev 0x0001c3f4   Section       72  qtcontacts_symbian.in(t._ZN5QListIN10QtMobility15QContactManager5ErrorEED1Ev)
    t._ZN5QListIN10QtMobility17QContactSortOrderEE13detach_helperEi 0x0001c43c   Section      142  qtcontacts_symbian.in(t._ZN5QListIN10QtMobility17QContactSortOrderEE13detach_helperEi)
    t._ZN5QListIN10QtMobility17QContactSortOrderEE13detach_helperEi.clean 0x0001c4ca   Section       20  qtcontacts_symbian.in(t._ZN5QListIN10QtMobility17QContactSortOrderEE13detach_helperEi.clean)
    t._ZN5QListIN10QtMobility17QContactSortOrderEE4freeEPN9QListData4DataE 0x0001c4de   Section       48  qtcontacts_symbian.in(t._ZN5QListIN10QtMobility17QContactSortOrderEE4freeEPN9QListData4DataE)
    t._ZN5QListIN10QtMobility17QContactSortOrderEED1Ev 0x0001c50e   Section       30  qtcontacts_symbian.in(t._ZN5QListIN10QtMobility17QContactSortOrderEED1Ev)
    t._ZN5QListIN10QtMobility20QContactRelationshipEE13detach_helperEv 0x0001c52c   Section       88  qtcontacts_symbian.in(t._ZN5QListIN10QtMobility20QContactRelationshipEE13detach_helperEv)
    t._ZN5QListIN10QtMobility20QContactRelationshipEE13detach_helperEv.clean 0x0001c584   Section        8  qtcontacts_symbian.in(t._ZN5QListIN10QtMobility20QContactRelationshipEE13detach_helperEv.clean)
    t._ZN5QListIN10QtMobility20QContactRelationshipEE13node_destructEPNS2_4NodeES4_ 0x0001c58c   Section       30  qtcontacts_symbian.in(t._ZN5QListIN10QtMobility20QContactRelationshipEE13node_destructEPNS2_4NodeES4_)
    t._ZN5QListIN10QtMobility20QContactRelationshipEE14node_constructEPNS2_4NodeERKS1_ 0x0001c5aa   Section       32  qtcontacts_symbian.in(t._ZN5QListIN10QtMobility20QContactRelationshipEE14node_constructEPNS2_4NodeERKS1_)
    t._ZN5QListIN10QtMobility20QContactRelationshipEE14node_constructEPNS2_4NodeERKS1_.clean 0x0001c5ca   Section       10  qtcontacts_symbian.in(t._ZN5QListIN10QtMobility20QContactRelationshipEE14node_constructEPNS2_4NodeERKS1_.clean)
    t._ZN5QListIN10QtMobility20QContactRelationshipEE18detach_helper_growEii 0x0001c5d4   Section      180  qtcontacts_symbian.in(t._ZN5QListIN10QtMobility20QContactRelationshipEE18detach_helper_growEii)
    t._ZN5QListIN10QtMobility20QContactRelationshipEE18detach_helper_growEii.clean 0x0001c688   Section        8  qtcontacts_symbian.in(t._ZN5QListIN10QtMobility20QContactRelationshipEE18detach_helper_growEii.clean)
    t._ZN5QListIN10QtMobility20QContactRelationshipEE4freeEPN9QListData4DataE 0x0001c690   Section       38  qtcontacts_symbian.in(t._ZN5QListIN10QtMobility20QContactRelationshipEE4freeEPN9QListData4DataE)
    t._ZN5QListIN10QtMobility20QContactRelationshipEE6appendERKS1_ 0x0001c6b8   Section       96  qtcontacts_symbian.in(t._ZN5QListIN10QtMobility20QContactRelationshipEE6appendERKS1_)
    t._ZN5QListIN10QtMobility20QContactRelationshipEE6appendERKS1_.clean 0x0001c718   Section        8  qtcontacts_symbian.in(t._ZN5QListIN10QtMobility20QContactRelationshipEE6appendERKS1_.clean)
    t._ZN5QListIN10QtMobility20QContactRelationshipEE9node_copyEPNS2_4NodeES4_S4_ 0x0001c720   Section       80  qtcontacts_symbian.in(t._ZN5QListIN10QtMobility20QContactRelationshipEE9node_copyEPNS2_4NodeES4_S4_)
    t._ZN5QListIN10QtMobility20QContactRelationshipEE9node_copyEPNS2_4NodeES4_S4_.clean 0x0001c770   Section       18  qtcontacts_symbian.in(t._ZN5QListIN10QtMobility20QContactRelationshipEE9node_copyEPNS2_4NodeES4_S4_.clean)
    t._ZN5QListIN10QtMobility20QContactRelationshipEEC1Ev 0x0001c784   Section       20  qtcontacts_symbian.in(t._ZN5QListIN10QtMobility20QContactRelationshipEEC1Ev)
    t._ZN5QListIN10QtMobility20QContactRelationshipEED1Ev 0x0001c798   Section       30  qtcontacts_symbian.in(t._ZN5QListIN10QtMobility20QContactRelationshipEED1Ev)
    t._ZN5QListIN10QtMobility20QContactRelationshipEEaSERKS2_ 0x0001c7b6   Section       54  qtcontacts_symbian.in(t._ZN5QListIN10QtMobility20QContactRelationshipEEaSERKS2_)
    t._ZN5QListIN10QtMobility20QContactRelationshipEEpLERKS2_ 0x0001c7ec   Section      136  qtcontacts_symbian.in(t._ZN5QListIN10QtMobility20QContactRelationshipEEpLERKS2_)
    t._ZN5QListIN10QtMobility20QContactRelationshipEEpLERKS2_.clean 0x0001c874   Section        8  qtcontacts_symbian.in(t._ZN5QListIN10QtMobility20QContactRelationshipEEpLERKS2_.clean)
    t._ZN5QListIN10QtMobility8QContactEE13detach_helperEv 0x0001c87c   Section       88  qtcontacts_symbian.in(t._ZN5QListIN10QtMobility8QContactEE13detach_helperEv)
    t._ZN5QListIN10QtMobility8QContactEE13detach_helperEv.clean 0x0001c8d4   Section        8  qtcontacts_symbian.in(t._ZN5QListIN10QtMobility8QContactEE13detach_helperEv.clean)
    t._ZN5QListIN10QtMobility8QContactEE14node_constructEPNS2_4NodeERKS1_ 0x0001c8dc   Section       26  qtcontacts_symbian.in(t._ZN5QListIN10QtMobility8QContactEE14node_constructEPNS2_4NodeERKS1_)
    t._ZN5QListIN10QtMobility8QContactEE14node_constructEPNS2_4NodeERKS1_.clean 0x0001c8f6   Section       12  qtcontacts_symbian.in(t._ZN5QListIN10QtMobility8QContactEE14node_constructEPNS2_4NodeERKS1_.clean)
    t._ZN5QListIN10QtMobility8QContactEE18detach_helper_growEii 0x0001c902   Section      186  qtcontacts_symbian.in(t._ZN5QListIN10QtMobility8QContactEE18detach_helper_growEii)
    t._ZN5QListIN10QtMobility8QContactEE18detach_helper_growEii.clean 0x0001c9bc   Section        8  qtcontacts_symbian.in(t._ZN5QListIN10QtMobility8QContactEE18detach_helper_growEii.clean)
    t._ZN5QListIN10QtMobility8QContactEE4freeEPN9QListData4DataE 0x0001c9c4   Section       48  qtcontacts_symbian.in(t._ZN5QListIN10QtMobility8QContactEE4freeEPN9QListData4DataE)
    t._ZN5QListIN10QtMobility8QContactEE6appendERKS1_ 0x0001c9f4   Section      100  qtcontacts_symbian.in(t._ZN5QListIN10QtMobility8QContactEE6appendERKS1_)
    t._ZN5QListIN10QtMobility8QContactEE6appendERKS1_.clean 0x0001ca58   Section        8  qtcontacts_symbian.in(t._ZN5QListIN10QtMobility8QContactEE6appendERKS1_.clean)
    t._ZN5QListIN10QtMobility8QContactEE9node_copyEPNS2_4NodeES4_S4_ 0x0001ca60   Section       70  qtcontacts_symbian.in(t._ZN5QListIN10QtMobility8QContactEE9node_copyEPNS2_4NodeES4_S4_)
    t._ZN5QListIN10QtMobility8QContactEE9node_copyEPNS2_4NodeES4_S4_.clean 0x0001caa6   Section       22  qtcontacts_symbian.in(t._ZN5QListIN10QtMobility8QContactEE9node_copyEPNS2_4NodeES4_S4_.clean)
    t._ZN5QListIN10QtMobility8QContactEEC1Ev 0x0001cabc   Section       20  qtcontacts_symbian.in(t._ZN5QListIN10QtMobility8QContactEEC1Ev)
    t._ZN5QListIN10QtMobility8QContactEED1Ev 0x0001cad0   Section       30  qtcontacts_symbian.in(t._ZN5QListIN10QtMobility8QContactEED1Ev)
    t._ZN5QListIN10QtMobility8QContactEEaSERKS2_ 0x0001caee   Section       54  qtcontacts_symbian.in(t._ZN5QListIN10QtMobility8QContactEEaSERKS2_)
    t._ZN5QListIN8QVariant4TypeEE13node_destructEPNS2_4NodeES4_ 0x0001cb24   Section       22  qtcontacts_symbian.in(t._ZN5QListIN8QVariant4TypeEE13node_destructEPNS2_4NodeES4_)
    t._ZN5QListIN8QVariant4TypeEE14node_constructEPNS2_4NodeERKS1_ 0x0001cb3a   Section       28  qtcontacts_symbian.in(t._ZN5QListIN8QVariant4TypeEE14node_constructEPNS2_4NodeERKS1_)
    t._ZN5QListIN8QVariant4TypeEE18detach_helper_growEii 0x0001cb56   Section      180  qtcontacts_symbian.in(t._ZN5QListIN8QVariant4TypeEE18detach_helper_growEii)
    t._ZN5QListIN8QVariant4TypeEE18detach_helper_growEii.clean 0x0001cc0a   Section        8  qtcontacts_symbian.in(t._ZN5QListIN8QVariant4TypeEE18detach_helper_growEii.clean)
    t._ZN5QListIN8QVariant4TypeEE4freeEPN9QListData4DataE 0x0001cc12   Section       44  qtcontacts_symbian.in(t._ZN5QListIN8QVariant4TypeEE4freeEPN9QListData4DataE)
    t._ZN5QListIN8QVariant4TypeEE6appendERKS1_ 0x0001cc40   Section       96  qtcontacts_symbian.in(t._ZN5QListIN8QVariant4TypeEE6appendERKS1_)
    t._ZN5QListIN8QVariant4TypeEE6appendERKS1_.clean 0x0001cca0   Section        8  qtcontacts_symbian.in(t._ZN5QListIN8QVariant4TypeEE6appendERKS1_.clean)
    t._ZN5QListIN8QVariant4TypeEE9node_copyEPNS2_4NodeES4_S4_ 0x0001cca8   Section       40  qtcontacts_symbian.in(t._ZN5QListIN8QVariant4TypeEE9node_copyEPNS2_4NodeES4_S4_)
    t._ZN5QListIN8QVariant4TypeEED1Ev        0x0001ccd0   Section       30  qtcontacts_symbian.in(t._ZN5QListIN8QVariant4TypeEED1Ev)
    t._ZN5QListIP17CContactItemFieldE13detach_helperEi 0x0001ccee   Section       98  qtcontacts_symbian.in(t._ZN5QListIP17CContactItemFieldE13detach_helperEi)
    t._ZN5QListIP17CContactItemFieldE13detach_helperEi.clean 0x0001cd50   Section        8  qtcontacts_symbian.in(t._ZN5QListIP17CContactItemFieldE13detach_helperEi.clean)
    t._ZN5QListIP17CContactItemFieldE18detach_helper_growEii 0x0001cd58   Section      164  qtcontacts_symbian.in(t._ZN5QListIP17CContactItemFieldE18detach_helper_growEii)
    t._ZN5QListIP17CContactItemFieldE18detach_helper_growEii.clean 0x0001cdfc   Section        8  qtcontacts_symbian.in(t._ZN5QListIP17CContactItemFieldE18detach_helper_growEii.clean)
    t._ZN5QListIP17CContactItemFieldE4freeEPN9QListData4DataE 0x0001ce04   Section       16  qtcontacts_symbian.in(t._ZN5QListIP17CContactItemFieldE4freeEPN9QListData4DataE)
    t._ZN5QListIP17CContactItemFieldE9node_copyEPNS2_4NodeES4_S4_ 0x0001ce14   Section       28  qtcontacts_symbian.in(t._ZN5QListIP17CContactItemFieldE9node_copyEPNS2_4NodeES4_S4_)
    t._ZN5QListIP17CContactItemFieldED1Ev    0x0001ce30   Section       30  qtcontacts_symbian.in(t._ZN5QListIP17CContactItemFieldED1Ev)
    t._ZN5QListIPN10QtMobility23QContactAbstractRequestEE13detach_helperEv 0x0001ce4e   Section       88  qtcontacts_symbian.in(t._ZN5QListIPN10QtMobility23QContactAbstractRequestEE13detach_helperEv)
    t._ZN5QListIPN10QtMobility23QContactAbstractRequestEE13detach_helperEv.clean 0x0001cea6   Section        8  qtcontacts_symbian.in(t._ZN5QListIPN10QtMobility23QContactAbstractRequestEE13detach_helperEv.clean)
    t._ZN5QListIPN10QtMobility23QContactAbstractRequestEE18detach_helper_growEii 0x0001ceae   Section      164  qtcontacts_symbian.in(t._ZN5QListIPN10QtMobility23QContactAbstractRequestEE18detach_helper_growEii)
    t._ZN5QListIPN10QtMobility23QContactAbstractRequestEE18detach_helper_growEii.clean 0x0001cf52   Section        8  qtcontacts_symbian.in(t._ZN5QListIPN10QtMobility23QContactAbstractRequestEE18detach_helper_growEii.clean)
    t._ZN5QListIPN10QtMobility23QContactAbstractRequestEE4freeEPN9QListData4DataE 0x0001cf5a   Section       24  qtcontacts_symbian.in(t._ZN5QListIPN10QtMobility23QContactAbstractRequestEE4freeEPN9QListData4DataE)
    t._ZN5QListIPN10QtMobility23QContactAbstractRequestEE5beginEv 0x0001cf72   Section       22  qtcontacts_symbian.in(t._ZN5QListIPN10QtMobility23QContactAbstractRequestEE5beginEv)
    t._ZN5QListIPN10QtMobility23QContactAbstractRequestEE6detachEv 0x0001cf88   Section       24  qtcontacts_symbian.in(t._ZN5QListIPN10QtMobility23QContactAbstractRequestEE6detachEv)
    t._ZN5QListIPN10QtMobility23QContactAbstractRequestEE9node_copyEPNS3_4NodeES5_S5_ 0x0001cfa0   Section       28  qtcontacts_symbian.in(t._ZN5QListIPN10QtMobility23QContactAbstractRequestEE9node_copyEPNS3_4NodeES5_S5_)
    t._ZN5QListIPN10QtMobility23QContactAbstractRequestEE9removeOneERKS2_ 0x0001cfbc   Section      144  qtcontacts_symbian.in(t._ZN5QListIPN10QtMobility23QContactAbstractRequestEE9removeOneERKS2_)
    t._ZN5QListIPN10QtMobility23QContactAbstractRequestEED1Ev 0x0001d04c   Section       30  qtcontacts_symbian.in(t._ZN5QListIPN10QtMobility23QContactAbstractRequestEED1Ev)
    t._ZN5QListIS_I5QPairI13QLatin1StringS1_EEE13detach_helperEv 0x0001d06a   Section       88  qtcontacts_symbian.in(t._ZN5QListIS_I5QPairI13QLatin1StringS1_EEE13detach_helperEv)
    t._ZN5QListIS_I5QPairI13QLatin1StringS1_EEE13detach_helperEv.clean 0x0001d0c2   Section        8  qtcontacts_symbian.in(t._ZN5QListIS_I5QPairI13QLatin1StringS1_EEE13detach_helperEv.clean)
    t._ZN5QListIS_I5QPairI13QLatin1StringS1_EEE13node_destructEPNS4_4NodeES6_ 0x0001d0ca   Section       30  qtcontacts_symbian.in(t._ZN5QListIS_I5QPairI13QLatin1StringS1_EEE13node_destructEPNS4_4NodeES6_)
    t._ZN5QListIS_I5QPairI13QLatin1StringS1_EEE14node_constructEPNS4_4NodeERKS3_ 0x0001d0e8   Section       32  qtcontacts_symbian.in(t._ZN5QListIS_I5QPairI13QLatin1StringS1_EEE14node_constructEPNS4_4NodeERKS3_)
    t._ZN5QListIS_I5QPairI13QLatin1StringS1_EEE14node_constructEPNS4_4NodeERKS3_.clean 0x0001d108   Section       10  qtcontacts_symbian.in(t._ZN5QListIS_I5QPairI13QLatin1StringS1_EEE14node_constructEPNS4_4NodeERKS3_.clean)
    t._ZN5QListIS_I5QPairI13QLatin1StringS1_EEE18detach_helper_growEii 0x0001d112   Section      180  qtcontacts_symbian.in(t._ZN5QListIS_I5QPairI13QLatin1StringS1_EEE18detach_helper_growEii)
    t._ZN5QListIS_I5QPairI13QLatin1StringS1_EEE18detach_helper_growEii.clean 0x0001d1c6   Section        8  qtcontacts_symbian.in(t._ZN5QListIS_I5QPairI13QLatin1StringS1_EEE18detach_helper_growEii.clean)
    t._ZN5QListIS_I5QPairI13QLatin1StringS1_EEE4freeEPN9QListData4DataE 0x0001d1ce   Section       38  qtcontacts_symbian.in(t._ZN5QListIS_I5QPairI13QLatin1StringS1_EEE4freeEPN9QListData4DataE)
    t._ZN5QListIS_I5QPairI13QLatin1StringS1_EEE5clearEv 0x0001d1f4   Section       64  qtcontacts_symbian.in(t._ZN5QListIS_I5QPairI13QLatin1StringS1_EEE5clearEv)
    t._ZN5QListIS_I5QPairI13QLatin1StringS1_EEE5clearEv.clean 0x0001d234   Section       10  qtcontacts_symbian.in(t._ZN5QListIS_I5QPairI13QLatin1StringS1_EEE5clearEv.clean)
    t._ZN5QListIS_I5QPairI13QLatin1StringS1_EEE6appendERKS3_ 0x0001d240   Section       96  qtcontacts_symbian.in(t._ZN5QListIS_I5QPairI13QLatin1StringS1_EEE6appendERKS3_)
    t._ZN5QListIS_I5QPairI13QLatin1StringS1_EEE6appendERKS3_.clean 0x0001d2a0   Section        8  qtcontacts_symbian.in(t._ZN5QListIS_I5QPairI13QLatin1StringS1_EEE6appendERKS3_.clean)
    t._ZN5QListIS_I5QPairI13QLatin1StringS1_EEE9node_copyEPNS4_4NodeES6_S6_ 0x0001d2a8   Section       80  qtcontacts_symbian.in(t._ZN5QListIS_I5QPairI13QLatin1StringS1_EEE9node_copyEPNS4_4NodeES6_S6_)
    t._ZN5QListIS_I5QPairI13QLatin1StringS1_EEE9node_copyEPNS4_4NodeES6_S6_.clean 0x0001d2f8   Section       18  qtcontacts_symbian.in(t._ZN5QListIS_I5QPairI13QLatin1StringS1_EEE9node_copyEPNS4_4NodeES6_S6_.clean)
    t._ZN5QListIS_I5QPairI13QLatin1StringS1_EEEC1ERKS4_ 0x0001d30a   Section       30  qtcontacts_symbian.in(t._ZN5QListIS_I5QPairI13QLatin1StringS1_EEEC1ERKS4_)
    t._ZN5QListIS_I5QPairI13QLatin1StringS1_EEEC1Ev 0x0001d328   Section       20  qtcontacts_symbian.in(t._ZN5QListIS_I5QPairI13QLatin1StringS1_EEEC1Ev)
    t._ZN5QListIS_I5QPairI13QLatin1StringS1_EEED1Ev 0x0001d33c   Section       30  qtcontacts_symbian.in(t._ZN5QListIS_I5QPairI13QLatin1StringS1_EEED1Ev)
    t._ZN5QListIjE13detach_helperEi          0x0001d35a   Section       86  qtcontacts_symbian.in(t._ZN5QListIjE13detach_helperEi)
    t._ZN5QListIjE13detach_helperEi.clean    0x0001d3b0   Section        8  qtcontacts_symbian.in(t._ZN5QListIjE13detach_helperEi.clean)
    t._ZN5QListIjE13detach_helperEv          0x0001d3b8   Section       12  qtcontacts_symbian.in(t._ZN5QListIjE13detach_helperEv)
    t._ZN5QListIjE18detach_helper_growEii    0x0001d3c4   Section      164  qtcontacts_symbian.in(t._ZN5QListIjE18detach_helper_growEii)
    t._ZN5QListIjE18detach_helper_growEii.clean 0x0001d468   Section        8  qtcontacts_symbian.in(t._ZN5QListIjE18detach_helper_growEii.clean)
    t._ZN5QListIjE4freeEPN9QListData4DataE   0x0001d470   Section       16  qtcontacts_symbian.in(t._ZN5QListIjE4freeEPN9QListData4DataE)
    t._ZN5QListIjE6appendERKj                0x0001d480   Section       48  qtcontacts_symbian.in(t._ZN5QListIjE6appendERKj)
    t._ZN5QListIjE6appendERKj.clean          0x0001d4b0   Section       10  qtcontacts_symbian.in(t._ZN5QListIjE6appendERKj.clean)
    t._ZN5QListIjE9node_copyEPNS0_4NodeES2_S2_ 0x0001d4ba   Section       28  qtcontacts_symbian.in(t._ZN5QListIjE9node_copyEPNS0_4NodeES2_S2_)
    t._ZN5QListIjEC1ERKS0_                   0x0001d4d6   Section       30  qtcontacts_symbian.in(t._ZN5QListIjEC1ERKS0_)
    t._ZN5QListIjEC1Ev                       0x0001d4f4   Section       20  qtcontacts_symbian.in(t._ZN5QListIjEC1Ev)
    t._ZN5QListIjED1Ev                       0x0001d508   Section       30  qtcontacts_symbian.in(t._ZN5QListIjED1Ev)
    t._ZN5QListIjEaSERKS0_                   0x0001d526   Section       54  qtcontacts_symbian.in(t._ZN5QListIjEaSERKS0_)
    t._ZN5QListIjEpLERKS0_                   0x0001d55c   Section      176  qtcontacts_symbian.in(t._ZN5QListIjEpLERKS0_)
    t._ZN5QListIjEpLERKS0_.clean             0x0001d60c   Section        8  qtcontacts_symbian.in(t._ZN5QListIjEpLERKS0_.clean)
    t._ZN6QQueueIPN10QtMobility23QContactAbstractRequestEED1Ev 0x0001d614   Section        8  qtcontacts_symbian.in(t._ZN6QQueueIPN10QtMobility23QContactAbstractRequestEED1Ev)
    t._ZN8QPointerI7QObjectED1Ev             0x0001d61c   Section       12  qtcontacts_symbian.in(t._ZN8QPointerI7QObjectED1Ev)
    t._ZN9CArrayFixI4TUidE7AppendLERKS0_     0x0001d628   Section       12  qtcontacts_symbian.in(t._ZN9CArrayFixI4TUidE7AppendLERKS0_)
    t._ZN9QHashNodeI7QString5QPairIibEEC1ERKS0_RKS2_ 0x0001d634   Section       22  qtcontacts_symbian.in(t._ZN9QHashNodeI7QString5QPairIibEEC1ERKS0_RKS2_)
    t._ZN9QHashNodeI7QStringS0_EC1ERKS0_S3_  0x0001d64a   Section       28  qtcontacts_symbian.in(t._ZN9QHashNodeI7QStringS0_EC1ERKS0_S3_)
    t._ZN9QHashNodeI7QStringS0_EC1ERKS0_S3_.clean 0x0001d666   Section       12  qtcontacts_symbian.in(t._ZN9QHashNodeI7QStringS0_EC1ERKS0_S3_.clean)
    t._ZN9QHashNodeI7QStringiEC1ERKS0_RKi    0x0001d672   Section       18  qtcontacts_symbian.in(t._ZN9QHashNodeI7QStringiEC1ERKS0_RKi)
    t._ZNK10QtMobility14QContactDetail5valueI11QStringListEET_PKc 0x0001d684   Section      112  qtcontacts_symbian.in(t._ZNK10QtMobility14QContactDetail5valueI11QStringListEET_PKc)
    t._ZNK10QtMobility14QContactDetail5valueI11QStringListEET_PKc.clean 0x0001d6f4   Section       18  qtcontacts_symbian.in(t._ZNK10QtMobility14QContactDetail5valueI11QStringListEET_PKc.clean)
    t._ZNK10QtMobility14QContactDetail5valueI4QUrlEET_PKc 0x0001d708   Section      112  qtcontacts_symbian.in(t._ZNK10QtMobility14QContactDetail5valueI4QUrlEET_PKc)
    t._ZNK10QtMobility14QContactDetail5valueI4QUrlEET_PKc.clean 0x0001d778   Section       18  qtcontacts_symbian.in(t._ZNK10QtMobility14QContactDetail5valueI4QUrlEET_PKc.clean)
    t._ZNK10QtMobility14QContactDetail5valueI6QImageEET_PKc 0x0001d78c   Section      112  qtcontacts_symbian.in(t._ZNK10QtMobility14QContactDetail5valueI6QImageEET_PKc)
    t._ZNK10QtMobility14QContactDetail5valueI6QImageEET_PKc.clean 0x0001d7fc   Section       18  qtcontacts_symbian.in(t._ZNK10QtMobility14QContactDetail5valueI6QImageEET_PKc.clean)
    t._ZNK10QtMobility15QLatin1ConstantILi4EEcv7QStringEv 0x0001d80e   Section       10  qtcontacts_symbian.in(t._ZNK10QtMobility15QLatin1ConstantILi4EEcv7QStringEv)
    t._ZNK10QtMobility15QLatin1ConstantILi5EEcv7QStringEv 0x0001d818   Section       10  qtcontacts_symbian.in(t._ZNK10QtMobility15QLatin1ConstantILi5EEcv7QStringEv)
    t._ZNK10QtMobility15QLatin1ConstantILi6EEcv7QStringEv 0x0001d822   Section       10  qtcontacts_symbian.in(t._ZNK10QtMobility15QLatin1ConstantILi6EEcv7QStringEv)
    t._ZNK10QtMobility15QLatin1ConstantILi9EEcv7QStringEv 0x0001d82c   Section       10  qtcontacts_symbian.in(t._ZNK10QtMobility15QLatin1ConstantILi9EEcv7QStringEv)
    t._ZNK10QtMobility8QContact7detailsINS_15QContactAddressEEE5QListIT_Ev 0x0001d838   Section       88  qtcontacts_symbian.in(t._ZNK10QtMobility8QContact7detailsINS_15QContactAddressEEE5QListIT_Ev)
    t._ZNK10QtMobility8QContact7detailsINS_15QContactAddressEEE5QListIT_Ev.clean 0x0001d890   Section       22  qtcontacts_symbian.in(t._ZNK10QtMobility8QContact7detailsINS_15QContactAddressEEE5QListIT_Ev.clean)
    t._ZNK17QForeachContainerI5QListIN10QtMobility17QContactSortOrderEEE9conditionEv 0x0001d8a6   Section       26  qtcontacts_symbian.in(t._ZNK17QForeachContainerI5QListIN10QtMobility17QContactSortOrderEEE9conditionEv)
    t._ZNK17QForeachContainerI5QListIjEE9conditionEv 0x0001d8c0   Section       26  qtcontacts_symbian.in(t._ZNK17QForeachContainerI5QListIjEE9conditionEv)
    t._ZNK4QMapI7QString8QVariantE4keysEv    0x0001d8da   Section       80  qtcontacts_symbian.in(t._ZNK4QMapI7QString8QVariantE4keysEv)
    t._ZNK4QMapI7QString8QVariantE4keysEv.clean 0x0001d92a   Section       10  qtcontacts_symbian.in(t._ZNK4QMapI7QString8QVariantE4keysEv.clean)
    t._ZNK4QMapI7QStringN10QtMobility24QContactDetailDefinitionEE4keysEv 0x0001d934   Section       88  qtcontacts_symbian.in(t._ZNK4QMapI7QStringN10QtMobility24QContactDetailDefinitionEE4keysEv)
    t._ZNK4QMapI7QStringN10QtMobility24QContactDetailDefinitionEE4keysEv.clean 0x0001d98c   Section       10  qtcontacts_symbian.in(t._ZNK4QMapI7QStringN10QtMobility24QContactDetailDefinitionEE4keysEv.clean)
    t._ZNK4QMapI7QStringN10QtMobility24QContactDetailDefinitionEE8containsERKS0_ 0x0001d996   Section       90  qtcontacts_symbian.in(t._ZNK4QMapI7QStringN10QtMobility24QContactDetailDefinitionEE8containsERKS0_)
    t._ZNK4QMapI7QStringN10QtMobility24QContactDetailDefinitionEE8findNodeERKS0_ 0x0001d9f0   Section       82  qtcontacts_symbian.in(t._ZNK4QMapI7QStringN10QtMobility24QContactDetailDefinitionEE8findNodeERKS0_)
    t._ZNK4QMapI7QStringN10QtMobility29QContactDetailFieldDefinitionEE15mutableFindNodeEPPN8QMapData4NodeERKS0_ 0x0001da42   Section       86  qtcontacts_symbian.in(t._ZNK4QMapI7QStringN10QtMobility29QContactDetailFieldDefinitionEE15mutableFindNodeEPPN8QMapData4NodeERKS0_)
    t._ZNK4QMapI7QStringP23CntAbstractRelationshipE4keysEv 0x0001da98   Section       88  qtcontacts_symbian.in(t._ZNK4QMapI7QStringP23CntAbstractRelationshipE4keysEv)
    t._ZNK4QMapI7QStringP23CntAbstractRelationshipE4keysEv.clean 0x0001daf0   Section       10  qtcontacts_symbian.in(t._ZNK4QMapI7QStringP23CntAbstractRelationshipE4keysEv.clean)
    t._ZNK4QMapI7QStringP23CntAbstractRelationshipE5valueERKS0_ 0x0001dafa   Section       34  qtcontacts_symbian.in(t._ZNK4QMapI7QStringP23CntAbstractRelationshipE5valueERKS0_)
    t._ZNK4QMapI7QStringP23CntAbstractRelationshipE8containsERKS0_ 0x0001db1c   Section       22  qtcontacts_symbian.in(t._ZNK4QMapI7QStringP23CntAbstractRelationshipE8containsERKS0_)
    t._ZNK4QMapI7QStringP23CntAbstractRelationshipE8findNodeERKS0_ 0x0001db32   Section       82  qtcontacts_symbian.in(t._ZNK4QMapI7QStringP23CntAbstractRelationshipE8findNodeERKS0_)
    t._ZNK4QMapIN19CntTransformContact11ContactDataEP23CntTransformContactDataE14const_iteratorneERKS5_ 0x0001db84   Section       16  qtcontacts_symbian.in(t._ZNK4QMapIN19CntTransformContact11ContactDataEP23CntTransformContactDataE14const_iteratorneERKS5_)
    t._ZNK4QMapIj4QSetIjEE5valueERKj         0x0001db94   Section       46  qtcontacts_symbian.in(t._ZNK4QMapIj4QSetIjEE5valueERKj)
    t._ZNK4QMapIj4QSetIjEE8findNodeERKj      0x0001dbc2   Section       82  qtcontacts_symbian.in(t._ZNK4QMapIj4QSetIjEE8findNodeERKj)
    t._ZNK4QSetIjE10constBeginEv             0x0001dc14   Section       32  qtcontacts_symbian.in(t._ZNK4QSetIjE10constBeginEv)
    t._ZNK4QSetIjE14const_iteratorneERKS1_   0x0001dc34   Section       16  qtcontacts_symbian.in(t._ZNK4QSetIjE14const_iteratorneERKS1_)
    t._ZNK4QSetIjE6toListEv                  0x0001dc44   Section       96  qtcontacts_symbian.in(t._ZNK4QSetIjE6toListEv)
    t._ZNK4QSetIjE6toListEv.clean            0x0001dca4   Section       10  qtcontacts_symbian.in(t._ZNK4QSetIjE6toListEv.clean)
    t._ZNK4QSetIjE8containsERKj              0x0001dcae   Section       26  qtcontacts_symbian.in(t._ZNK4QSetIjE8containsERKj)
    t._ZNK5QHashI7QString5QPairIibEE8containsERKS0_ 0x0001dcc8   Section       26  qtcontacts_symbian.in(t._ZNK5QHashI7QString5QPairIibEE8containsERKS0_)
    t._ZNK5QHashI7QString5QPairIibEE8findNodeERKS0_Pj 0x0001dce2   Section       90  qtcontacts_symbian.in(t._ZNK5QHashI7QString5QPairIibEE8findNodeERKS0_Pj)
    t._ZNK5QHashI7QStringS0_E8containsERKS0_ 0x0001dd3c   Section       26  qtcontacts_symbian.in(t._ZNK5QHashI7QStringS0_E8containsERKS0_)
    t._ZNK5QHashI7QStringS0_E8findNodeERKS0_Pj 0x0001dd56   Section       90  qtcontacts_symbian.in(t._ZNK5QHashI7QStringS0_E8findNodeERKS0_Pj)
    t._ZNK5QHashI7QStringiE8containsERKS0_   0x0001ddb0   Section       26  qtcontacts_symbian.in(t._ZNK5QHashI7QStringiE8containsERKS0_)
    t._ZNK5QHashI7QStringiE8findNodeERKS0_Pj 0x0001ddca   Section       90  qtcontacts_symbian.in(t._ZNK5QHashI7QStringiE8findNodeERKS0_Pj)
    t._ZNK5QHashIj15QHashDummyValueE8findNodeERKjPj 0x0001de24   Section       50  qtcontacts_symbian.in(t._ZNK5QHashIj15QHashDummyValueE8findNodeERKjPj)
    t._ZNK5QHashImP23CntTransformContactDataE8findNodeERKmPj 0x0001de56   Section       62  qtcontacts_symbian.in(t._ZNK5QHashImP23CntTransformContactDataE8findNodeERKmPj)
    t._ZNK5QListI4TUidE7isEmptyEv            0x0001de94   Section       18  qtcontacts_symbian.in(t._ZNK5QListI4TUidE7isEmptyEv)
    t._ZNK5QListI5QPairIj7QStringEE2atEi     0x0001dea6   Section       10  qtcontacts_symbian.in(t._ZNK5QListI5QPairIj7QStringEE2atEi)
    t._ZNK5QListI7QStringE2atEi              0x0001deb0   Section       16  qtcontacts_symbian.in(t._ZNK5QListI7QStringE2atEi)
    t._ZNK5QListIN10QtMobility20QContactRelationshipEE2atEi 0x0001dec0   Section       10  qtcontacts_symbian.in(t._ZNK5QListIN10QtMobility20QContactRelationshipEE2atEi)
    t._ZNK5QListIN10QtMobility20QContactRelationshipEE7isEmptyEv 0x0001deca   Section       18  qtcontacts_symbian.in(t._ZNK5QListIN10QtMobility20QContactRelationshipEE7isEmptyEv)
    t._ZNK5QListIP17CContactItemFieldE2atEi  0x0001dedc   Section        8  qtcontacts_symbian.in(t._ZNK5QListIP17CContactItemFieldE2atEi)
    t._ZNK5QListIS_I5QPairI13QLatin1StringS1_EEE2atEi 0x0001dee4   Section       10  qtcontacts_symbian.in(t._ZNK5QListIS_I5QPairI13QLatin1StringS1_EEE2atEi)
    t._ZNK5QListIjE2atEi                     0x0001deee   Section        8  qtcontacts_symbian.in(t._ZNK5QListIjE2atEi)
    t._ZNK5QListIjE5countEv                  0x0001def6   Section        8  qtcontacts_symbian.in(t._ZNK5QListIjE5countEv)
    t._ZNK5QListIjE5toSetEv                  0x0001df00   Section      100  qtcontacts_symbian.in(t._ZNK5QListIjE5toSetEv)
    t._ZNK5QListIjE5toSetEv.clean            0x0001df64   Section       10  qtcontacts_symbian.in(t._ZNK5QListIjE5toSetEv.clean)
    t._ZNK5QListIjE7isEmptyEv                0x0001df6e   Section       18  qtcontacts_symbian.in(t._ZNK5QListIjE7isEmptyEv)
    t._ZrsI4TBufILi256EEER11RReadStreamS3_RT_ 0x0001df80   Section       20  qtcontacts_symbian.in(t._ZrsI4TBufILi256EEER11RReadStreamS3_RT_)
    .extab._ZN17CntSymbianFactoryD1Ev        0x0001df94   Data           0  qtcontacts_symbian.in(.ARM.extab)
    .extab.qt_plugin_instance                0x0001dfa4   Data           0  qtcontacts_symbian.in(.ARM.extab)
    .extab._ZN16CntSymbianEngineC1ERK4QMapI7QStringS1_EPN10QtMobility15QContactManager5ErrorE 0x0001dfbc   Data           0  qtcontacts_symbian.in(.ARM.extab)
    .extab._ZN16CntSymbianEngineD1Ev         0x0001e03c   Data           0  qtcontacts_symbian.in(.ARM.extab)
    .extab._ZN16CntSymbianEngine16saveRelationshipEPN10QtMobility20QContactRelationshipEPNS0_15QContactManager5ErrorE 0x0001e05c   Data           0  qtcontacts_symbian.in(.ARM.extab)
    .extab._ZN16CntSymbianEngine18removeRelationshipERKN10QtMobility20QContactRelationshipEPNS0_15QContactManager5ErrorE 0x0001e06c   Data           0  qtcontacts_symbian.in(.ARM.extab)
    .extab._ZNK16CntSymbianEngine18updateDisplayLabelERN10QtMobility8QContactE 0x0001e07c   Data           0  qtcontacts_symbian.in(.ARM.extab)
    .extab._ZN16CntSymbianEngine14updateContactLERN10QtMobility8QContactE 0x0001e08c   Data           0  qtcontacts_symbian.in(.ARM.extab)
    .extab._ZN16CntSymbianEngine11addContactLERN10QtMobility8QContactE 0x0001e0b4   Data           0  qtcontacts_symbian.in(.ARM.extab)
    .extab._ZN16CntSymbianEngine10addContactERN10QtMobility8QContactERNS0_17QContactChangeSetEPNS0_15QContactManager5ErrorE 0x0001e0e4   Data           0  qtcontacts_symbian.in(.ARM.extab)
    .extab._ZN16CntSymbianEngine13updateContactERN10QtMobility8QContactERNS0_17QContactChangeSetEPNS0_15QContactManager5ErrorE 0x0001e10c   Data           0  qtcontacts_symbian.in(.ARM.extab)
    .extab._ZN16CntSymbianEngine13doSaveContactEPN10QtMobility8QContactERNS0_17QContactChangeSetEPNS0_15QContactManager5ErrorE 0x0001e134   Data           0  qtcontacts_symbian.in(.ARM.extab)
    .extab._ZN16CntSymbianEngine11saveContactEPN10QtMobility8QContactEPNS0_15QContactManager5ErrorE 0x0001e224   Data           0  qtcontacts_symbian.in(.ARM.extab)
    .extab._ZN16CntSymbianEngine13removeContactERKjRN10QtMobility17QContactChangeSetEPNS2_15QContactManager5ErrorE 0x0001e234   Data           0  qtcontacts_symbian.in(.ARM.extab)
    .extab._ZN16CntSymbianEngine13removeContactERKjPN10QtMobility15QContactManager5ErrorE 0x0001e25c   Data           0  qtcontacts_symbian.in(.ARM.extab)
    .extab._ZNK16CntSymbianEngine8slowSortERK5QListIjERKS0_IN10QtMobility17QContactSortOrderEEPNS4_15QContactManager5ErrorE 0x0001e26c   Data           0  qtcontacts_symbian.in(.ARM.extab)
    .extab._ZNK16CntSymbianEngine10slowFilterERKN10QtMobility14QContactFilterERK5QListIjEPNS0_15QContactManager5ErrorE 0x0001e2c4   Data           0  qtcontacts_symbian.in(.ARM.extab)
    .extab._ZNK16CntSymbianEngine10contactIdsERKN10QtMobility14QContactFilterERK5QListINS0_17QContactSortOrderEEPNS0_15QContactManager5ErrorE 0x0001e310   Data           0  qtcontacts_symbian.in(.ARM.extab)
    .extab._ZNK16CntSymbianEngine8contactsERKN10QtMobility14QContactFilterERK5QListINS0_17QContactSortOrderEERKNS0_17QContactFetchHintEPNS0_15QContactManager5ErrorE 0x0001e370   Data           0  qtcontacts_symbian.in(.ARM.extab)
    .extab._ZNK16CntSymbianEngine13fetchContactLERKjRK11QStringList 0x0001e428   Data           0  qtcontacts_symbian.in(.ARM.extab)
    .extab._ZNK16CntSymbianEngine7contactERKjRKN10QtMobility17QContactFetchHintEPNS2_15QContactManager5ErrorE 0x0001e4a0   Data           0  qtcontacts_symbian.in(.ARM.extab)
    .extab._ZN16CntSymbianEngine12saveContactsEP5QListIN10QtMobility8QContactEEP4QMapIiNS1_15QContactManager5ErrorEEPS7_ 0x0001e538   Data           0  qtcontacts_symbian.in(.ARM.extab)
    .extab._ZN16CntSymbianEngine14removeContactsERK5QListIjEP4QMapIiN10QtMobility15QContactManager5ErrorEEPS7_ 0x0001e558   Data           0  qtcontacts_symbian.in(.ARM.extab)
    .extab._ZN16CntSymbianEngine16setSelfContactIdERKjPN10QtMobility15QContactManager5ErrorE 0x0001e570   Data           0  qtcontacts_symbian.in(.ARM.extab)
    .extab._ZN16CntSymbianEngine17saveRelationshipsEP5QListIN10QtMobility20QContactRelationshipEEP4QMapIiNS1_15QContactManager5ErrorEEPS7_ 0x0001e598   Data           0  qtcontacts_symbian.in(.ARM.extab)
    .extab._ZN16CntSymbianEngine19removeRelationshipsERK5QListIN10QtMobility20QContactRelationshipEEP4QMapIiNS1_15QContactManager5ErrorEEPS8_ 0x0001e5a8   Data           0  qtcontacts_symbian.in(.ARM.extab)
    .extab._ZNK16CntSymbianEngine17detailDefinitionsERK7QStringPN10QtMobility15QContactManager5ErrorE 0x0001e5b8   Data           0  qtcontacts_symbian.in(.ARM.extab)
    .extab._ZNK16CntSymbianEngine18supportedDataTypesEv 0x0001e5d8   Data           0  qtcontacts_symbian.in(.ARM.extab)
    .extab._ZN16CntSymbianEngine12startRequestEPN10QtMobility23QContactAbstractRequestE 0x0001e5e8   Data           0  qtcontacts_symbian.in(.ARM.extab)
    .extab._ZN16CntSymbianEngine28performAsynchronousOperationEv 0x0001e604   Data           0  qtcontacts_symbian.in(.ARM.extab)
    .extab._ZN16CntSymbianEngine22waitForRequestProgressEPN10QtMobility23QContactAbstractRequestEi 0x0001e8c4   Data           0  qtcontacts_symbian.in(.ARM.extab)
    .extab._ZN17CntSymbianFactory6engineERK4QMapI7QStringS1_EPN10QtMobility15QContactManager5ErrorE 0x0001e8e0   Data           0  qtcontacts_symbian.in(.ARM.extab)
    .extab.__sti___20_cntsymbianengine_cpp   0x0001e8f0   Data           0  qtcontacts_symbian.in(.ARM.extab)
    .extab._Z20qForeachContainerNewI5QListIjEE17QForeachContainerIT_ERKS3_ 0x0001e930   Data           0  qtcontacts_symbian.in(.ARM.extab)
    .extab._ZN5QListI7QStringE9node_copyEPNS1_4NodeES3_S3_ 0x0001e940   Data           0  qtcontacts_symbian.in(.ARM.extab)
    .extab._ZN5QListI7QStringE13detach_helperEi 0x0001e964   Data           0  qtcontacts_symbian.in(.ARM.extab)
    .extab._ZN5QListI7QStringE18detach_helper_growEii 0x0001e980   Data           0  qtcontacts_symbian.in(.ARM.extab)
    .extab._ZN5QListIN10QtMobility8QContactEE9node_copyEPNS2_4NodeES4_S4_ 0x0001e9b0   Data           0  qtcontacts_symbian.in(.ARM.extab)
    .extab._ZN5QListIN10QtMobility8QContactEE18detach_helper_growEii 0x0001e9d4   Data           0  qtcontacts_symbian.in(.ARM.extab)
    .extab._ZN5QListIN10QtMobility8QContactEE6appendERKS1_ 0x0001ea04   Data           0  qtcontacts_symbian.in(.ARM.extab)
    .extab._ZN5QListIjE18detach_helper_growEii 0x0001ea34   Data           0  qtcontacts_symbian.in(.ARM.extab)
    .extab._ZN5QListIN10QtMobility8QContactEE13detach_helperEv 0x0001ea64   Data           0  qtcontacts_symbian.in(.ARM.extab)
    .extab._ZN4QMapIiN10QtMobility15QContactManager5ErrorEE13detach_helperEv 0x0001ea80   Data           0  qtcontacts_symbian.in(.ARM.extab)
    .extab._ZN4QMapIiN10QtMobility15QContactManager5ErrorEE5clearEv 0x0001ea9c   Data           0  qtcontacts_symbian.in(.ARM.extab)
    .extab._ZN4QMapI7QStringN10QtMobility24QContactDetailDefinitionEE11node_createEP8QMapDataPPNS4_4NodeERKS0_RKS2_ 0x0001eaac   Data           0  qtcontacts_symbian.in(.ARM.extab)
    .extab._ZN5QListIN8QVariant4TypeEE18detach_helper_growEii 0x0001eaf8   Data           0  qtcontacts_symbian.in(.ARM.extab)
    .extab._ZN5QListIPN10QtMobility23QContactAbstractRequestEE13detach_helperEv 0x0001eb28   Data           0  qtcontacts_symbian.in(.ARM.extab)
    .extab._ZN5QListIPN10QtMobility23QContactAbstractRequestEE18detach_helper_growEii 0x0001eb44   Data           0  qtcontacts_symbian.in(.ARM.extab)
    .extab._ZN5QListIN10QtMobility20QContactRelationshipEE14node_constructEPNS2_4NodeERKS1_ 0x0001eb74   Data           0  qtcontacts_symbian.in(.ARM.extab)
    .extab._ZN5QListIN10QtMobility20QContactRelationshipEE9node_copyEPNS2_4NodeES4_S4_ 0x0001eb84   Data           0  qtcontacts_symbian.in(.ARM.extab)
    .extab._ZN5QListIN10QtMobility20QContactRelationshipEE18detach_helper_growEii 0x0001eba8   Data           0  qtcontacts_symbian.in(.ARM.extab)
    .extab._ZN5QListIN10QtMobility20QContactRelationshipEE6appendERKS1_ 0x0001ebd8   Data           0  qtcontacts_symbian.in(.ARM.extab)
    .extab._ZN5QListI4TUidE13detach_helperEi 0x0001ec08   Data           0  qtcontacts_symbian.in(.ARM.extab)
    .extab._ZN5QListIN10QtMobility14QContactDetailEE13detach_helperEi 0x0001ec24   Data           0  qtcontacts_symbian.in(.ARM.extab)
    .extab._ZN5QListIN10QtMobility8QContactEE14node_constructEPNS2_4NodeERKS1_ 0x0001ec68   Data           0  qtcontacts_symbian.in(.ARM.extab)
    .extab._ZN5QListIN8QVariant4TypeEE6appendERKS1_ 0x0001ec78   Data           0  qtcontacts_symbian.in(.ARM.extab)
    .extab._ZNK4QMapI7QStringN10QtMobility24QContactDetailDefinitionEE4keysEv 0x0001eca8   Data           0  qtcontacts_symbian.in(.ARM.extab)
    .extab._ZN5QListI7QStringE6appendERKS0_  0x0001ecb8   Data           0  qtcontacts_symbian.in(.ARM.extab)
    .extab._ZN5QListI7QStringE14node_constructEPNS1_4NodeERKS0_ 0x0001ece8   Data           0  qtcontacts_symbian.in(.ARM.extab)
    .extab._ZN4QMapI7QStringN10QtMobility24QContactDetailDefinitionEE13detach_helperEv 0x0001ecf8   Data           0  qtcontacts_symbian.in(.ARM.extab)
    .extab._ZN23CntAbstractRelationshipC2EP16CContactDatabaseRK7QStringS4_ 0x0001ed14   Data           0  qtcontacts_symbian.in(.ARM.extab)
    .extab._ZN23CntAbstractRelationshipD2Ev  0x0001ed24   Data           0  qtcontacts_symbian.in(.ARM.extab)
    .extab._ZN20CntRelationshipGroupC1EP16CContactDatabaseRK7QString 0x0001ed34   Data           0  qtcontacts_symbian.in(.ARM.extab)
    .extab._ZN20CntRelationshipGroup18fetchGroupMembersLERKjP5QListIN10QtMobility20QContactRelationshipEE 0x0001ed44   Data           0  qtcontacts_symbian.in(.ARM.extab)
    .extab._ZN20CntRelationshipGroup20fetchMemberOfGroupsLERKjP5QListIN10QtMobility20QContactRelationshipEE 0x0001eda4   Data           0  qtcontacts_symbian.in(.ARM.extab)
    .extab._ZN20CntRelationshipGroup14relationshipsLERKN10QtMobility10QContactIdENS0_20QContactRelationship4RoleEPNS0_15QContactManager5ErrorE 0x0001ee04   Data           0  qtcontacts_symbian.in(.ARM.extab)
    .extab._ZN20CntRelationshipGroup17saveRelationshipLEP4QSetIjEPN10QtMobility20QContactRelationshipEPNS3_15QContactManager5ErrorE 0x0001ee24   Data           0  qtcontacts_symbian.in(.ARM.extab)
    .extab._ZN20CntRelationshipGroup19removeRelationshipLEP4QSetIjERKN10QtMobility20QContactRelationshipEPNS3_15QContactManager5ErrorE 0x0001ee64   Data           0  qtcontacts_symbian.in(.ARM.extab)
    .extab._ZN20CntRelationshipGroup20validateRelationshipERKN10QtMobility20QContactRelationshipEPNS0_15QContactManager5ErrorE 0x0001eea4   Data           0  qtcontacts_symbian.in(.ARM.extab)
    .extab._ZN18CntSymbianDatabase13groupMembersLEj 0x0001eef4   Data           0  qtcontacts_symbian.in(.ARM.extab)
    .extab._ZN18CntSymbianDatabase23updateGroupMembershipsLEjR4QSetIjES2_ 0x0001ef04   Data           0  qtcontacts_symbian.in(.ARM.extab)
    .extab._ZN18CntSymbianDatabase23updateGroupMembershipsLEv 0x0001ef44   Data           0  qtcontacts_symbian.in(.ARM.extab)
    .extab._ZN18CntSymbianDatabase11initializeLEv 0x0001ef54   Data           0  qtcontacts_symbian.in(.ARM.extab)
    .extab._ZN18CntSymbianDatabaseC1EPN10QtMobility21QContactManagerEngineEPNS0_15QContactManager5ErrorE 0x0001ef9c   Data           0  qtcontacts_symbian.in(.ARM.extab)
    .extab._ZN18CntSymbianDatabaseD1Ev       0x0001efdc   Data           0  qtcontacts_symbian.in(.ARM.extab)
    .extab._ZN18CntSymbianDatabase20HandleDatabaseEventLE23TContactDbObserverEvent 0x0001effc   Data           0  qtcontacts_symbian.in(.ARM.extab)
    .extab._ZN4QMapIj4QSetIjEE11node_createEP8QMapDataPPNS3_4NodeERKjRKS1_ 0x0001f0a4   Data           0  qtcontacts_symbian.in(.ARM.extab)
    .extab._ZN5QListIjE13detach_helperEi     0x0001f0dc   Data           0  qtcontacts_symbian.in(.ARM.extab)
    .extab._ZN5QListIjEpLERKS0_              0x0001f0f8   Data           0  qtcontacts_symbian.in(.ARM.extab)
    .extab._ZNK4QSetIjE6toListEv             0x0001f114   Data           0  qtcontacts_symbian.in(.ARM.extab)
    .extab._ZN4QSetIjEmiERKS0_               0x0001f124   Data           0  qtcontacts_symbian.in(.ARM.extab)
    .extab._ZN4QMapIj4QSetIjEE13detach_helperEv 0x0001f134   Data           0  qtcontacts_symbian.in(.ARM.extab)
    .extab._ZN5QHashIj15QHashDummyValueE6removeERKj 0x0001f150   Data           0  qtcontacts_symbian.in(.ARM.extab)
    .extab._ZN4QSetIjE8subtractERKS0_        0x0001f164   Data           0  qtcontacts_symbian.in(.ARM.extab)
    .extab._ZN9CntCenrepC1ER13MDisplayLabel  0x0001f184   Data           0  qtcontacts_symbian.in(.ARM.extab)
    .extab._ZN9CntCenrepD1Ev                 0x0001f1dc   Data           0  qtcontacts_symbian.in(.ARM.extab)
    .extab._ZN15CntDisplayLabel22setDisplayLabelDetailsEv 0x0001f1ec   Data           0  qtcontacts_symbian.in(.ARM.extab)
    .extab._ZN15CntDisplayLabelC1Ev          0x0001f20c   Data           0  qtcontacts_symbian.in(.ARM.extab)
    .extab._ZN15CntDisplayLabelD1Ev          0x0001f234   Data           0  qtcontacts_symbian.in(.ARM.extab)
    .extab._ZNK15CntDisplayLabel20generateDisplayLabelERKN10QtMobility8QContactE5QListIS4_I5QPairI13QLatin1StringS6_EEE 0x0001f254   Data           0  qtcontacts_symbian.in(.ARM.extab)
    .extab._ZN15CntDisplayLabel23synthesizedDisplayLabelERKN10QtMobility8QContactEPNS0_15QContactManager5ErrorE 0x0001f304   Data           0  qtcontacts_symbian.in(.ARM.extab)
    .extab._ZN5QListIS_I5QPairI13QLatin1StringS1_EEE14node_constructEPNS4_4NodeERKS3_ 0x0001f374   Data           0  qtcontacts_symbian.in(.ARM.extab)
    .extab._ZN5QListIS_I5QPairI13QLatin1StringS1_EEE9node_copyEPNS4_4NodeES6_S6_ 0x0001f384   Data           0  qtcontacts_symbian.in(.ARM.extab)
    .extab._ZN5QListIS_I5QPairI13QLatin1StringS1_EEE18detach_helper_growEii 0x0001f3a8   Data           0  qtcontacts_symbian.in(.ARM.extab)
    .extab._ZN5QListIS_I5QPairI13QLatin1StringS1_EEE6appendERKS3_ 0x0001f3d8   Data           0  qtcontacts_symbian.in(.ARM.extab)
    .extab._ZN5QListI5QPairI13QLatin1StringS1_EE18detach_helper_growEii 0x0001f408   Data           0  qtcontacts_symbian.in(.ARM.extab)
    .extab._ZN5QListI5QPairI13QLatin1StringS1_EE6appendERKS2_ 0x0001f438   Data           0  qtcontacts_symbian.in(.ARM.extab)
    .extab._ZN5QListIS_I5QPairI13QLatin1StringS1_EEE13detach_helperEv 0x0001f468   Data           0  qtcontacts_symbian.in(.ARM.extab)
    .extab._ZN5QListIS_I5QPairI13QLatin1StringS1_EEE5clearEv 0x0001f484   Data           0  qtcontacts_symbian.in(.ARM.extab)
    .extab._ZN5CBasenwEj                     0x0001f494   Data           0  qtcontacts_symbian.in(.ARM.extab)
    .extab._ZN5QListI5QPairI13QLatin1StringS1_EE13detach_helperEv 0x0001f4a4   Data           0  qtcontacts_symbian.in(.ARM.extab)
    .extab._ZN15CntRelationshipC1EP16CContactDatabaseRK7QString 0x0001f4c0   Data           0  qtcontacts_symbian.in(.ARM.extab)
    .extab._ZN15CntRelationshipD1Ev          0x0001f4f0   Data           0  qtcontacts_symbian.in(.ARM.extab)
    .extab._ZNK15CntRelationship13relationshipsERK7QStringRKN10QtMobility10QContactIdENS3_20QContactRelationship4RoleEPNS3_15QContactManager5ErrorE 0x0001f508   Data           0  qtcontacts_symbian.in(.ARM.extab)
    .extab._ZN15CntRelationship20validateRelationshipERKN10QtMobility20QContactRelationshipEPNS0_15QContactManager5ErrorE 0x0001f5a0   Data           0  qtcontacts_symbian.in(.ARM.extab)
    .extab._ZN15CntRelationship16saveRelationshipEP4QSetIjEPN10QtMobility20QContactRelationshipEPNS3_15QContactManager5ErrorE 0x0001f678   Data           0  qtcontacts_symbian.in(.ARM.extab)
    .extab._ZN15CntRelationship18removeRelationshipEP4QSetIjERKN10QtMobility20QContactRelationshipEPNS3_15QContactManager5ErrorE 0x0001f6c8   Data           0  qtcontacts_symbian.in(.ARM.extab)
    .extab._ZN4QMapI7QStringP23CntAbstractRelationshipE11node_createEP8QMapDataPPNS4_4NodeERKS0_RKS2_ 0x0001f6f8   Data           0  qtcontacts_symbian.in(.ARM.extab)
    .extab._ZN5QListIN10QtMobility20QContactRelationshipEE13detach_helperEv 0x0001f71c   Data           0  qtcontacts_symbian.in(.ARM.extab)
    .extab._ZN5QListIN10QtMobility20QContactRelationshipEEpLERKS2_ 0x0001f738   Data           0  qtcontacts_symbian.in(.ARM.extab)
    .extab._ZNK4QMapI7QStringP23CntAbstractRelationshipE4keysEv 0x0001f754   Data           0  qtcontacts_symbian.in(.ARM.extab)
    .extab._ZN4QMapI7QStringP23CntAbstractRelationshipE13detach_helperEv 0x0001f764   Data           0  qtcontacts_symbian.in(.ARM.extab)
    .extab._ZN21CntFilterRelationship17createSelectQueryERKN10QtMobility14QContactFilterER7QStringPNS0_15QContactManager5ErrorE 0x0001f780   Data           0  qtcontacts_symbian.in(.ARM.extab)
    .extab._ZN21CntFilterRelationship8contactsERKN10QtMobility14QContactFilterERK5QListINS0_17QContactSortOrderEERbPNS0_15QContactManager5ErrorE 0x0001f828   Data           0  qtcontacts_symbian.in(.ARM.extab)
    .extab._ZN21CntFilterRelationship15filterSupportedERKN10QtMobility14QContactFilterE 0x0001f878   Data           0  qtcontacts_symbian.in(.ARM.extab)
    .extab._ZNK15CntFilterDetail18updateForMatchFlagERKN10QtMobility20QContactDetailFilterER7QStringPNS0_15QContactManager5ErrorE 0x0001f898   Data           0  qtcontacts_symbian.in(.ARM.extab)
    .extab._ZNK15CntFilterDetail23getTableNameWhereClauseERKN10QtMobility20QContactDetailFilterER7QStringS5_PNS0_15QContactManager5ErrorE 0x0001f9c8   Data           0  qtcontacts_symbian.in(.ARM.extab)
    .extab._ZN15CntFilterDetail17createSelectQueryERKN10QtMobility14QContactFilterER7QStringPNS0_15QContactManager5ErrorE 0x0001fa60   Data           0  qtcontacts_symbian.in(.ARM.extab)
    .extab._ZN15CntFilterDetail28HandlePredictiveSearchFilterERKN10QtMobility14QContactFilterEPNS0_15QContactManager5ErrorE 0x0001fc50   Data           0  qtcontacts_symbian.in(.ARM.extab)
    .extab._ZN15CntFilterDetail27createMatchPhoneNumberQueryERKN10QtMobility14QContactFilterER7QStringPNS0_15QContactManager5ErrorE 0x0001fc80   Data           0  qtcontacts_symbian.in(.ARM.extab)
    .extab._ZN15CntFilterDetail25bestMatchPhoneNumberQueryERKN10QtMobility14QContactFilterER7QStringPNS0_15QContactManager5ErrorE 0x0001fe58   Data           0  qtcontacts_symbian.in(.ARM.extab)
    .extab._ZN15CntFilterDetail19bestMatchingEnabledEv 0x0001ff80   Data           0  qtcontacts_symbian.in(.ARM.extab)
    .extab._ZN15CntFilterDetail20fetchAllPhoneNumbersER7QString 0x0001ffa8   Data           0  qtcontacts_symbian.in(.ARM.extab)
    .extab._ZN15CntFilterDetail22createPhoneNumberQueryERKN10QtMobility14QContactFilterER7QStringPNS0_15QContactManager5ErrorE 0x0001ffe0   Data           0  qtcontacts_symbian.in(.ARM.extab)
    .extab._ZN15CntFilterDetail8contactsERKN10QtMobility14QContactFilterERK5QListINS0_17QContactSortOrderEERbPNS0_15QContactManager5ErrorE 0x00020030   Data           0  qtcontacts_symbian.in(.ARM.extab)
    .extab._ZN15CntFilterDetail15filterSupportedERKN10QtMobility14QContactFilterE 0x000200b0   Data           0  qtcontacts_symbian.in(.ARM.extab)
    .extab._ZplRK7QStringS1_                 0x00020178   Data           0  qtcontacts_symbian.in(.ARM.extab)
    .extab._ZplRK7QStringPKc                 0x00020188   Data           0  qtcontacts_symbian.in(.ARM.extab)
    .extab._ZplPKcRK7QString                 0x000201a8   Data           0  qtcontacts_symbian.in(.ARM.extab)
    .extab._ZplRK7QStringc                   0x000201b8   Data           0  qtcontacts_symbian.in(.ARM.extab)
    .extab._ZN7QStringaSEPKc                 0x000201c8   Data           0  qtcontacts_symbian.in(.ARM.extab)
    .extab._ZN7QStringpLEPKc                 0x000201d8   Data           0  qtcontacts_symbian.in(.ARM.extab)
    .extab._ZN9CntDbInfoC1EPN10QtMobility21QContactManagerEngineE 0x000201e8   Data           0  qtcontacts_symbian.in(.ARM.extab)
    .extab._ZN9CntDbInfoD1Ev                 0x00020420   Data           0  qtcontacts_symbian.in(.ARM.extab)
    .extab._ZNK9CntDbInfo23getDbTableAndColumnNameE7QStringS0_RS0_S1_Rb 0x00020460   Data           0  qtcontacts_symbian.in(.ARM.extab)
    .extab._ZN9CntDbInfo14SupportsDetailE7QStringS0_ 0x000204c8   Data           0  qtcontacts_symbian.in(.ARM.extab)
    .extab._ZN9CntDbInfo12getSortQueryERK5QListIN10QtMobility17QContactSortOrderEERK7QStringPNS1_15QContactManager5ErrorE 0x000204e8   Data           0  qtcontacts_symbian.in(.ARM.extab)
    .extab._ZN7QString5clearEv               0x00020700   Data           0  qtcontacts_symbian.in(.ARM.extab)
    .extab._ZN5QHashI7QString5QPairIibEE6insertERKS0_RKS2_ 0x00020710   Data           0  qtcontacts_symbian.in(.ARM.extab)
    .extab._ZN9QHashNodeI7QStringS0_EC1ERKS0_S3_ 0x00020720   Data           0  qtcontacts_symbian.in(.ARM.extab)
    .extab._ZN5QHashI7QStringS0_E6insertERKS0_S3_ 0x00020730   Data           0  qtcontacts_symbian.in(.ARM.extab)
    .extab._ZN5QListIN10QtMobility17QContactSortOrderEE13detach_helperEi 0x00020740   Data           0  qtcontacts_symbian.in(.ARM.extab)
    .extab._ZN5QHashI7QStringS0_E11deleteNode2EPN9QHashData4NodeE 0x00020784   Data           0  qtcontacts_symbian.in(.ARM.extab)
    .extab._ZN5QHashI7QStringiE13duplicateNodeEPN9QHashData4NodeEPv 0x00020794   Data           0  qtcontacts_symbian.in(.ARM.extab)
    .extab._ZN5QHashI7QStringiE6insertERKS0_RKi 0x000207a4   Data           0  qtcontacts_symbian.in(.ARM.extab)
    .extab._ZN5QHashI7QString5QPairIibEE13duplicateNodeEPN9QHashData4NodeEPv 0x000207b4   Data           0  qtcontacts_symbian.in(.ARM.extab)
    .extab._ZN5QHashI7QStringS0_E13duplicateNodeEPN9QHashData4NodeEPv 0x000207c4   Data           0  qtcontacts_symbian.in(.ARM.extab)
    .extab._ZN16CntFilterDefault17createSelectQueryERKN10QtMobility14QContactFilterER7QStringPNS0_15QContactManager5ErrorE 0x000207d4   Data           0  qtcontacts_symbian.in(.ARM.extab)
    .extab._ZN16CntFilterDefault8contactsERKN10QtMobility14QContactFilterERK5QListINS0_17QContactSortOrderEERbPNS0_15QContactManager5ErrorE 0x000207e4   Data           0  qtcontacts_symbian.in(.ARM.extab)
    .extab._ZN21CntFilterIntersection23getSelectQueryforFilterERKN10QtMobility14QContactFilterER7QStringPNS0_15QContactManager5ErrorE 0x00020824   Data           0  qtcontacts_symbian.in(.ARM.extab)
    .extab._ZN21CntFilterIntersection17createSelectQueryERKN10QtMobility14QContactFilterER7QStringPNS0_15QContactManager5ErrorE 0x00020884   Data           0  qtcontacts_symbian.in(.ARM.extab)
    .extab._ZN21CntFilterIntersection8contactsERKN10QtMobility14QContactFilterERK5QListINS0_17QContactSortOrderEERbPNS0_15QContactManager5ErrorE 0x000208ac   Data           0  qtcontacts_symbian.in(.ARM.extab)
    .extab._ZN5QListIN10QtMobility14QContactFilterEE13detach_helperEi 0x000208ec   Data           0  qtcontacts_symbian.in(.ARM.extab)
    .extab._ZN14CntFilterUnion23getSelectQueryforFilterERKN10QtMobility14QContactFilterER7QStringPNS0_15QContactManager5ErrorE 0x00020930   Data           0  qtcontacts_symbian.in(.ARM.extab)
    .extab._ZN14CntFilterUnion17createSelectQueryERKN10QtMobility14QContactFilterER7QStringPNS0_15QContactManager5ErrorE 0x00020990   Data           0  qtcontacts_symbian.in(.ARM.extab)
    .extab._ZN14CntFilterUnion8contactsERKN10QtMobility14QContactFilterERK5QListINS0_17QContactSortOrderEERbPNS0_15QContactManager5ErrorE 0x000209b8   Data           0  qtcontacts_symbian.in(.ARM.extab)
    .extab._ZN16CntSymbianFilterC1ER16CContactDatabase 0x000209f8   Data           0  qtcontacts_symbian.in(.ARM.extab)
    .extab._ZN16CntSymbianFilterD1Ev         0x00020a10   Data           0  qtcontacts_symbian.in(.ARM.extab)
    .extab._ZNK16CntSymbianFilter12findContactsERP15CContactIdArrayRK20CContactItemFieldDefRK7TDesC16 0x00020a20   Data           0  qtcontacts_symbian.in(.ARM.extab)
    .extab._ZN16CntSymbianFilter22transformDetailFilterLERKN10QtMobility20QContactDetailFilterERP20CContactItemFieldDef 0x00020a48   Data           0  qtcontacts_symbian.in(.ARM.extab)
    .extab._ZN16CntSymbianFilter13contactExistsERKl 0x00020a98   Data           0  qtcontacts_symbian.in(.ARM.extab)
    .extab._ZN16CntSymbianFilter13matchContactsERP15CContactIdArrayRK7TDesC16i 0x00020ac0   Data           0  qtcontacts_symbian.in(.ARM.extab)
    .extab._ZN16CntSymbianFilter18filterSupportLevelERKN10QtMobility14QContactFilterE 0x00020ae8   Data           0  qtcontacts_symbian.in(.ARM.extab)
    .extab._ZN16CntSymbianFilter14filterContactsERKN10QtMobility14QContactFilterEPNS0_15QContactManager5ErrorE 0x00020b68   Data           0  qtcontacts_symbian.in(.ARM.extab)
    .extab._ZN16CntSymbianFilter8contactsERKN10QtMobility14QContactFilterERK5QListINS0_17QContactSortOrderEERbPNS0_15QContactManager5ErrorE 0x00020c48   Data           0  qtcontacts_symbian.in(.ARM.extab)
    .extab._ZNK5QListIjE5toSetEv             0x00020e50   Data           0  qtcontacts_symbian.in(.ARM.extab)
    .extab._ZN4QSetIjE9intersectERKS0_       0x00020e60   Data           0  qtcontacts_symbian.in(.ARM.extab)
    .extab._ZNK20CntSymbianSorterDbms5sortLEPK15CContactIdArrayRK5QListIN10QtMobility17QContactSortOrderEE 0x00020e80   Data           0  qtcontacts_symbian.in(.ARM.extab)
    .extab._ZNK20CntSymbianSorterDbms9contactsLERK5QListIN10QtMobility17QContactSortOrderEE 0x00020ed8   Data           0  qtcontacts_symbian.in(.ARM.extab)
    .extab._ZN20CntSymbianSorterDbms8contactsERK5QListIN10QtMobility17QContactSortOrderEEPNS1_15QContactManager5ErrorE 0x00020ee8   Data           0  qtcontacts_symbian.in(.ARM.extab)
    .extab._ZNK20CntSymbianSorterDbms5sortLERK5QListIjERKS0_IN10QtMobility17QContactSortOrderEE 0x00020f3c   Data           0  qtcontacts_symbian.in(.ARM.extab)
    .extab._ZN20CntSymbianSorterDbms4sortE5QListIjERKS0_IN10QtMobility17QContactSortOrderEEPNS2_15QContactManager5ErrorE 0x00020f5c   Data           0  qtcontacts_symbian.in(.ARM.extab)
    .extab._ZN20CntSymbianSorterDbms18sortOrderSupportedERK5QListIN10QtMobility17QContactSortOrderEE 0x00020fb0   Data           0  qtcontacts_symbian.in(.ARM.extab)
    .extab._Z20qForeachContainerNewI5QListIN10QtMobility17QContactSortOrderEEE17QForeachContainerIT_ERKS5_ 0x00020ff8   Data           0  qtcontacts_symbian.in(.ARM.extab)
    .extab._ZN5QListIjE6appendERKj           0x00021008   Data           0  qtcontacts_symbian.in(.ARM.extab)
    .extab._ZN23CntSymbianSrvConnection17searchContactIdsLERK7TDesC16NS_9QueryTypeE 0x00021024   Data           0  qtcontacts_symbian.in(.ARM.extab)
    .extab._ZN23CntSymbianSrvConnection14searchContactsERK7QStringPN10QtMobility15QContactManager5ErrorE 0x00021050   Data           0  qtcontacts_symbian.in(.ARM.extab)
    .extab._ZN23CntSymbianSrvConnection19searchContactNamesLERK7TDesC16 0x00021090   Data           0  qtcontacts_symbian.in(.ARM.extab)
    .extab._ZN23CntSymbianSrvConnection17searchContactNameEjPN10QtMobility15QContactManager5ErrorE 0x00021174   Data           0  qtcontacts_symbian.in(.ARM.extab)
    .extab._ZN23CntSymbianSrvConnection14searchOnServerERK7QStringNS_9QueryTypeEPN10QtMobility15QContactManager5ErrorE 0x000211b4   Data           0  qtcontacts_symbian.in(.ARM.extab)
    .extab._ZN23CntSymbianSrvConnection21searchAllContactNamesEPN10QtMobility15QContactManager5ErrorE 0x000211f4   Data           0  qtcontacts_symbian.in(.ARM.extab)
    .extab._ZN23CntSymbianSrvConnection19searchPhoneNumbersLERK7TDesC16NS_9QueryTypeE 0x0002122c   Data           0  qtcontacts_symbian.in(.ARM.extab)
    .extab._ZN23CntSymbianSrvConnection18searchPhoneNumbersERK7QStringPN10QtMobility15QContactManager5ErrorE 0x0002125c   Data           0  qtcontacts_symbian.in(.ARM.extab)
    .extab._ZN5QListI5QPairIj7QStringEE14node_constructEPNS3_4NodeERKS2_ 0x0002129c   Data           0  qtcontacts_symbian.in(.ARM.extab)
    .extab._ZN5QListI5QPairIj7QStringEE9node_copyEPNS3_4NodeES5_S5_ 0x000212ac   Data           0  qtcontacts_symbian.in(.ARM.extab)
    .extab._ZN5QListI5QPairIj7QStringEE18detach_helper_growEii 0x000212d0   Data           0  qtcontacts_symbian.in(.ARM.extab)
    .extab._ZN5QListI5QPairIj7QStringEE6appendERKS2_ 0x00021300   Data           0  qtcontacts_symbian.in(.ARM.extab)
    .extab._ZN5QListI5QPairIj7QStringEE13detach_helperEv 0x00021330   Data           0  qtcontacts_symbian.in(.ARM.extab)
    .extab._ZN19CntTransformContact33initializeCntTransformContactDataEv 0x0002134c   Data           0  qtcontacts_symbian.in(.ARM.extab)
    .extab._ZN19CntTransformContactC1Ev      0x000213dc   Data           0  qtcontacts_symbian.in(.ARM.extab)
    .extab._ZN19CntTransformContactD1Ev      0x000213fc   Data           0  qtcontacts_symbian.in(.ARM.extab)
    .extab._ZNK19CntTransformContact24transformPreferredDetailERK17CContactItemFieldRKN10QtMobility14QContactDetailERNS3_8QContactE 0x00021424   Data           0  qtcontacts_symbian.in(.ARM.extab)
    .extab._ZN19CntTransformContact17transformContactLER12CContactItem 0x0002145c   Data           0  qtcontacts_symbian.in(.ARM.extab)
    .extab._ZN19CntTransformContact28transformTimestampItemFieldLERK12CContactItemRK16CContactDatabase 0x0002148c   Data           0  qtcontacts_symbian.in(.ARM.extab)
    .extab._ZNK19CntTransformContact23transformGuidItemFieldLERK12CContactItemRK16CContactDatabase 0x000214f4   Data           0  qtcontacts_symbian.in(.ARM.extab)
    .extab._ZN19CntTransformContact25transformPostSaveDetailsLERK12CContactItemRN10QtMobility8QContactERK16CContactDatabase7QString 0x00021514   Data           0  qtcontacts_symbian.in(.ARM.extab)
    .extab._ZNK19CntTransformContact25transformPreferredDetailLERKN10QtMobility8QContactERKNS0_14QContactDetailER5QListIP17CContactItemFieldE 0x00021564   Data           0  qtcontacts_symbian.in(.ARM.extab)
    .extab._ZNK19CntTransformContact16transformDetailLERKN10QtMobility14QContactDetailE 0x0002159c   Data           0  qtcontacts_symbian.in(.ARM.extab)
    .extab._ZNK19CntTransformContact17transformContactLERN10QtMobility8QContactER12CContactItem 0x000215e4   Data           0  qtcontacts_symbian.in(.ARM.extab)
    .extab._ZN19CntTransformContact26supportedSortingFieldTypesE7QStringS0_ 0x00021644   Data           0  qtcontacts_symbian.in(.ARM.extab)
    .extab._ZNK19CntTransformContact14itemFieldUidsLE7QString 0x00021684   Data           0  qtcontacts_symbian.in(.ARM.extab)
    .extab._ZNK19CntTransformContact15GetIdForDetailLERKN10QtMobility20QContactDetailFilterERb 0x000216b4   Data           0  qtcontacts_symbian.in(.ARM.extab)
    .extab.__sti___23_cnttransformcontact_cpp 0x00021704   Data           0  qtcontacts_symbian.in(.ARM.extab)
    .extab._ZN5QListI4TUidE18detach_helper_growEii 0x00021744   Data           0  qtcontacts_symbian.in(.ARM.extab)
    .extab._ZN5QListIP17CContactItemFieldE13detach_helperEi 0x00021774   Data           0  qtcontacts_symbian.in(.ARM.extab)
    .extab._ZN5QListI4TUidE13detach_helperEv 0x00021790   Data           0  qtcontacts_symbian.in(.ARM.extab)
    .extab._ZN5QListI4TUidEpLERKS1_          0x000217ac   Data           0  qtcontacts_symbian.in(.ARM.extab)
    .extab._ZN4QMapIN19CntTransformContact11ContactDataEP23CntTransformContactDataE13detach_helperEv 0x000217c8   Data           0  qtcontacts_symbian.in(.ARM.extab)
    .extab._ZN23CntTransformContactData12setContextsLERKN10QtMobility14QContactDetailER17CContactItemField 0x000217e4   Data           0  qtcontacts_symbian.in(.ARM.extab)
    .extab._ZN23CntTransformContactData21transformToTextFieldLERKN10QtMobility14QContactDetailER5QListIP17CContactItemFieldERK7QString4TUidSC_b 0x000217f4   Data           0  qtcontacts_symbian.in(.ARM.extab)
    .extab._ZN23CntTransformContactData11setContextsERK4TUidRN10QtMobility14QContactDetailE 0x00021810   Data           0  qtcontacts_symbian.in(.ARM.extab)
    .extab._ZN10QtMobility14QContactDetail11setContextsERK7QString 0x00021828   Data           0  qtcontacts_symbian.in(.ARM.extab)
    .extab._ZNK10QtMobility14QContactDetail5valueI11QStringListEET_PKc 0x00021850   Data           0  qtcontacts_symbian.in(.ARM.extab)
    .extab._ZN16CntTransformName16transformDetailLERKN10QtMobility14QContactDetailE 0x00021868   Data           0  qtcontacts_symbian.in(.ARM.extab)
    .extab._ZN16CntTransformName18transformItemFieldERK17CContactItemFieldRKN10QtMobility8QContactE 0x000218e0   Data           0  qtcontacts_symbian.in(.ARM.extab)
    .extab._ZNK16CntTransformName15supportedFieldsEv 0x00021940   Data           0  qtcontacts_symbian.in(.ARM.extab)
    .extab._ZNK16CntTransformName26supportedSortingFieldTypesE7QString 0x00021950   Data           0  qtcontacts_symbian.in(.ARM.extab)
    .extab._ZNK16CntTransformName17detailDefinitionsER4QMapI7QStringN10QtMobility24QContactDetailDefinitionEERKS1_ 0x00021960   Data           0  qtcontacts_symbian.in(.ARM.extab)
    .extab._ZN4QMapI7QStringN10QtMobility29QContactDetailFieldDefinitionEE13detach_helperEv 0x00021a10   Data           0  qtcontacts_symbian.in(.ARM.extab)
    .extab._ZN4QMapI7QStringN10QtMobility29QContactDetailFieldDefinitionEE11node_createEP8QMapDataPPNS4_4NodeERKS0_RKS2_ 0x00021a2c   Data           0  qtcontacts_symbian.in(.ARM.extab)
    .extab._ZN20CntTransformNickname16transformDetailLERKN10QtMobility14QContactDetailE 0x00021a78   Data           0  qtcontacts_symbian.in(.ARM.extab)
    .extab._ZN20CntTransformNickname18transformItemFieldERK17CContactItemFieldRKN10QtMobility8QContactE 0x00021aa0   Data           0  qtcontacts_symbian.in(.ARM.extab)
    .extab._ZNK20CntTransformNickname15supportedFieldsEv 0x00021ad8   Data           0  qtcontacts_symbian.in(.ARM.extab)
    .extab._ZNK20CntTransformNickname26supportedSortingFieldTypesE7QString 0x00021ae8   Data           0  qtcontacts_symbian.in(.ARM.extab)
    .extab._ZNK20CntTransformNickname17detailDefinitionsER4QMapI7QStringN10QtMobility24QContactDetailDefinitionEERKS1_ 0x00021af8   Data           0  qtcontacts_symbian.in(.ARM.extab)
    .extab._ZN23CntTransformPhoneNumber16transformDetailLERKN10QtMobility14QContactDetailE 0x00021b48   Data           0  qtcontacts_symbian.in(.ARM.extab)
    .extab._ZN23CntTransformPhoneNumber18transformItemFieldERK17CContactItemFieldRKN10QtMobility8QContactE 0x00021c2c   Data           0  qtcontacts_symbian.in(.ARM.extab)
    .extab._ZNK23CntTransformPhoneNumber15supportedFieldsEv 0x00021cdc   Data           0  qtcontacts_symbian.in(.ARM.extab)
    .extab._ZNK23CntTransformPhoneNumber26supportedSortingFieldTypesE7QString 0x00021cec   Data           0  qtcontacts_symbian.in(.ARM.extab)
    .extab._ZNK23CntTransformPhoneNumber17detailDefinitionsER4QMapI7QStringN10QtMobility24QContactDetailDefinitionEERKS1_ 0x00021cfc   Data           0  qtcontacts_symbian.in(.ARM.extab)
    .extab._ZN5QListI8QVariantE9node_copyEPNS1_4NodeES3_S3_ 0x00021d9c   Data           0  qtcontacts_symbian.in(.ARM.extab)
    .extab._ZN5QListI8QVariantE14node_constructEPNS1_4NodeERKS0_ 0x00021dc0   Data           0  qtcontacts_symbian.in(.ARM.extab)
    .extab._ZN5QListI8QVariantE18detach_helper_growEii 0x00021dd0   Data           0  qtcontacts_symbian.in(.ARM.extab)
    .extab._ZN5QListIP17CContactItemFieldE18detach_helper_growEii 0x00021e00   Data           0  qtcontacts_symbian.in(.ARM.extab)
    .extab._ZN10QtMobility19QContactPhoneNumber11setSubTypesERK7QString 0x00021e30   Data           0  qtcontacts_symbian.in(.ARM.extab)
    .extab._ZN5QListI8QVariantE13detach_helperEv 0x00021e58   Data           0  qtcontacts_symbian.in(.ARM.extab)
    .extab._ZNK23CntTransformContactData13supportsFieldEm 0x00021e74   Data           0  qtcontacts_symbian.in(.ARM.extab)
    .extab._ZN5QListI8QVariantE6appendERKS0_ 0x00021e84   Data           0  qtcontacts_symbian.in(.ARM.extab)
    .extab._ZN17CntTransformEmail16transformDetailLERKN10QtMobility14QContactDetailE 0x00021eb4   Data           0  qtcontacts_symbian.in(.ARM.extab)
    .extab._ZN17CntTransformEmail18transformItemFieldERK17CContactItemFieldRKN10QtMobility8QContactE 0x00021edc   Data           0  qtcontacts_symbian.in(.ARM.extab)
    .extab._ZNK17CntTransformEmail15supportedFieldsEv 0x00021efc   Data           0  qtcontacts_symbian.in(.ARM.extab)
    .extab._ZNK17CntTransformEmail26supportedSortingFieldTypesE7QString 0x00021f0c   Data           0  qtcontacts_symbian.in(.ARM.extab)
    .extab._ZNK17CntTransformEmail17detailDefinitionsER4QMapI7QStringN10QtMobility24QContactDetailDefinitionEERKS1_ 0x00021f1c   Data           0  qtcontacts_symbian.in(.ARM.extab)
    .extab._ZN19CntTransformAddress16transformDetailLERKN10QtMobility14QContactDetailE 0x00021fbc   Data           0  qtcontacts_symbian.in(.ARM.extab)
    .extab._ZN19CntTransformAddress18transformItemFieldERK17CContactItemFieldRKN10QtMobility8QContactE 0x00022034   Data           0  qtcontacts_symbian.in(.ARM.extab)
    .extab._ZNK19CntTransformAddress15supportedFieldsEv 0x0002212c   Data           0  qtcontacts_symbian.in(.ARM.extab)
    .extab._ZNK19CntTransformAddress26supportedSortingFieldTypesE7QString 0x0002213c   Data           0  qtcontacts_symbian.in(.ARM.extab)
    .extab._ZNK19CntTransformAddress17detailDefinitionsER4QMapI7QStringN10QtMobility24QContactDetailDefinitionEERKS1_ 0x0002214c   Data           0  qtcontacts_symbian.in(.ARM.extab)
    .extab._ZN5QListIN10QtMobility15QContactAddressEE9node_copyEPNS2_4NodeES4_S4_ 0x000221fc   Data           0  qtcontacts_symbian.in(.ARM.extab)
    .extab._ZN5QListIN10QtMobility15QContactAddressEE14node_constructEPNS2_4NodeERKS1_ 0x00022220   Data           0  qtcontacts_symbian.in(.ARM.extab)
    .extab._ZN5QListIN10QtMobility15QContactAddressEE18detach_helper_growEii 0x00022230   Data           0  qtcontacts_symbian.in(.ARM.extab)
    .extab._ZN5QListIN10QtMobility15QContactAddressEE13detach_helperEv 0x00022260   Data           0  qtcontacts_symbian.in(.ARM.extab)
    .extab._ZNK4QMapI7QString8QVariantE4keysEv 0x0002227c   Data           0  qtcontacts_symbian.in(.ARM.extab)
    .extab._ZNK10QtMobility8QContact7detailsINS_15QContactAddressEEE5QListIT_Ev 0x0002228c   Data           0  qtcontacts_symbian.in(.ARM.extab)
    .extab._ZN4QMapI7QStringN10QtMobility29QContactDetailFieldDefinitionEEixERKS0_ 0x000222b4   Data           0  qtcontacts_symbian.in(.ARM.extab)
    .extab._ZN5QListIN10QtMobility15QContactAddressEE6appendERKS1_ 0x000222c4   Data           0  qtcontacts_symbian.in(.ARM.extab)
    .extab._ZN15CntTransformUrl16transformDetailLERKN10QtMobility14QContactDetailE 0x000222f4   Data           0  qtcontacts_symbian.in(.ARM.extab)
    .extab._ZN15CntTransformUrl18transformItemFieldERK17CContactItemFieldRKN10QtMobility8QContactE 0x00022358   Data           0  qtcontacts_symbian.in(.ARM.extab)
    .extab._ZNK15CntTransformUrl15supportedFieldsEv 0x00022390   Data           0  qtcontacts_symbian.in(.ARM.extab)
    .extab._ZNK15CntTransformUrl26supportedSortingFieldTypesE7QString 0x000223a0   Data           0  qtcontacts_symbian.in(.ARM.extab)
    .extab._ZNK15CntTransformUrl17detailDefinitionsER4QMapI7QStringN10QtMobility24QContactDetailDefinitionEERKS1_ 0x000223b0   Data           0  qtcontacts_symbian.in(.ARM.extab)
    .extab._ZN20CntTransformBirthday16transformDetailLERKN10QtMobility14QContactDetailE 0x000224a8   Data           0  qtcontacts_symbian.in(.ARM.extab)
    .extab._ZN20CntTransformBirthday18transformItemFieldERK17CContactItemFieldRKN10QtMobility8QContactE 0x000224ec   Data           0  qtcontacts_symbian.in(.ARM.extab)
    .extab._ZNK20CntTransformBirthday15supportedFieldsEv 0x00022504   Data           0  qtcontacts_symbian.in(.ARM.extab)
    .extab._ZNK20CntTransformBirthday26supportedSortingFieldTypesE7QString 0x00022514   Data           0  qtcontacts_symbian.in(.ARM.extab)
    .extab._ZNK20CntTransformBirthday17detailDefinitionsER4QMapI7QStringN10QtMobility24QContactDetailDefinitionEERKS1_ 0x00022524   Data           0  qtcontacts_symbian.in(.ARM.extab)
    .extab._ZNK10QtMobility16QContactBirthday4dateEv 0x00022574   Data           0  qtcontacts_symbian.in(.ARM.extab)
    .extab._ZN25CntTransformOnlineAccount16transformDetailLERKN10QtMobility14QContactDetailE 0x00022584   Data           0  qtcontacts_symbian.in(.ARM.extab)
    .extab._ZN25CntTransformOnlineAccount18transformItemFieldERK17CContactItemFieldRKN10QtMobility8QContactE 0x0002260c   Data           0  qtcontacts_symbian.in(.ARM.extab)
    .extab._ZNK25CntTransformOnlineAccount15supportedFieldsEv 0x00022654   Data           0  qtcontacts_symbian.in(.ARM.extab)
    .extab._ZNK25CntTransformOnlineAccount26supportedSortingFieldTypesE7QString 0x00022664   Data           0  qtcontacts_symbian.in(.ARM.extab)
    .extab._ZNK25CntTransformOnlineAccount17detailDefinitionsER4QMapI7QStringN10QtMobility24QContactDetailDefinitionEERKS1_ 0x00022674   Data           0  qtcontacts_symbian.in(.ARM.extab)
    .extab._ZN10QtMobility21QContactOnlineAccount11setSubTypesERK7QString 0x000227a4   Data           0  qtcontacts_symbian.in(.ARM.extab)
    .extab._ZN10QtMobility21QContactOnlineAccount13setAccountUriERK7QString 0x000227cc   Data           0  qtcontacts_symbian.in(.ARM.extab)
    .extab._ZN24CntTransformOrganisation16transformDetailLERKN10QtMobility14QContactDetailE 0x000227dc   Data           0  qtcontacts_symbian.in(.ARM.extab)
    .extab._ZN24CntTransformOrganisation18transformItemFieldERK17CContactItemFieldRKN10QtMobility8QContactE 0x00022834   Data           0  qtcontacts_symbian.in(.ARM.extab)
    .extab._ZNK24CntTransformOrganisation15supportedFieldsEv 0x0002289c   Data           0  qtcontacts_symbian.in(.ARM.extab)
    .extab._ZNK24CntTransformOrganisation26supportedSortingFieldTypesE7QString 0x000228ac   Data           0  qtcontacts_symbian.in(.ARM.extab)
    .extab._ZNK24CntTransformOrganisation17detailDefinitionsER4QMapI7QStringN10QtMobility24QContactDetailDefinitionEERKS1_ 0x000228bc   Data           0  qtcontacts_symbian.in(.ARM.extab)
    .extab._ZN20CntTransformRingtone16transformDetailLERKN10QtMobility14QContactDetailE 0x00022964   Data           0  qtcontacts_symbian.in(.ARM.extab)
    .extab._ZN20CntTransformRingtone18transformItemFieldERK17CContactItemFieldRKN10QtMobility8QContactE 0x00022a7c   Data           0  qtcontacts_symbian.in(.ARM.extab)
    .extab._ZNK20CntTransformRingtone15supportedFieldsEv 0x00022acc   Data           0  qtcontacts_symbian.in(.ARM.extab)
    .extab._ZNK20CntTransformRingtone17detailDefinitionsER4QMapI7QStringN10QtMobility24QContactDetailDefinitionEERKS1_ 0x00022adc   Data           0  qtcontacts_symbian.in(.ARM.extab)
    .extab._ZNK10QtMobility16QContactRingtone16videoRingtoneUrlEv 0x00022b3c   Data           0  qtcontacts_symbian.in(.ARM.extab)
    .extab._ZNK10QtMobility16QContactRingtone16audioRingtoneUrlEv 0x00022b4c   Data           0  qtcontacts_symbian.in(.ARM.extab)
    .extab._ZN21CntTransformThumbnailD1Ev    0x00022b5c   Data           0  qtcontacts_symbian.in(.ARM.extab)
    .extab._ZN21CntTransformThumbnail16transformDetailLERKN10QtMobility14QContactDetailE 0x00022b6c   Data           0  qtcontacts_symbian.in(.ARM.extab)
    .extab._ZN21CntTransformThumbnail18transformItemFieldERK17CContactItemFieldRKN10QtMobility8QContactE 0x00022bc4   Data           0  qtcontacts_symbian.in(.ARM.extab)
    .extab._ZNK21CntTransformThumbnail15supportedFieldsEv 0x00022bf4   Data           0  qtcontacts_symbian.in(.ARM.extab)
    .extab._ZN5QListI4TUidE6appendERKS0_     0x00022c04   Data           0  qtcontacts_symbian.in(.ARM.extab)
    .extab._ZNK10QtMobility14QContactDetail5valueI6QImageEET_PKc 0x00022c34   Data           0  qtcontacts_symbian.in(.ARM.extab)
    .extab._ZN18CntTransformAvatar16transformDetailLERKN10QtMobility14QContactDetailE 0x00022c4c   Data           0  qtcontacts_symbian.in(.ARM.extab)
    .extab._ZN18CntTransformAvatar18transformItemFieldERK17CContactItemFieldRKN10QtMobility8QContactE 0x00022d00   Data           0  qtcontacts_symbian.in(.ARM.extab)
    .extab._ZNK18CntTransformAvatar15supportedFieldsEv 0x00022d30   Data           0  qtcontacts_symbian.in(.ARM.extab)
    .extab._ZNK18CntTransformAvatar17detailDefinitionsER4QMapI7QStringN10QtMobility24QContactDetailDefinitionEERKS1_ 0x00022d40   Data           0  qtcontacts_symbian.in(.ARM.extab)
    .extab._ZNK10QtMobility14QContactDetail5valueI4QUrlEET_PKc 0x00022da0   Data           0  qtcontacts_symbian.in(.ARM.extab)
    .extab._ZN19CntThumbnailCreatorC1Ev      0x00022db8   Data           0  qtcontacts_symbian.in(.ARM.extab)
    .extab._ZN19CntThumbnailCreatorD1Ev      0x00022dc8   Data           0  qtcontacts_symbian.in(.ARM.extab)
    .extab._ZN19CntThumbnailCreator19CreateContactFieldLEv 0x00022dd8   Data           0  qtcontacts_symbian.in(.ARM.extab)
    .extab._ZN22CntTransformSyncTarget16transformDetailLERKN10QtMobility14QContactDetailE 0x00022e14   Data           0  qtcontacts_symbian.in(.ARM.extab)
    .extab._ZN22CntTransformSyncTarget18transformItemFieldERK17CContactItemFieldRKN10QtMobility8QContactE 0x00022e3c   Data           0  qtcontacts_symbian.in(.ARM.extab)
    .extab._ZNK22CntTransformSyncTarget15supportedFieldsEv 0x00022e5c   Data           0  qtcontacts_symbian.in(.ARM.extab)
    .extab._ZNK22CntTransformSyncTarget26supportedSortingFieldTypesE7QString 0x00022e6c   Data           0  qtcontacts_symbian.in(.ARM.extab)
    .extab._ZNK22CntTransformSyncTarget17detailDefinitionsER4QMapI7QStringN10QtMobility24QContactDetailDefinitionEERKS1_ 0x00022e7c   Data           0  qtcontacts_symbian.in(.ARM.extab)
    .extab._ZN18CntTransformGender16transformDetailLERKN10QtMobility14QContactDetailE 0x00022f64   Data           0  qtcontacts_symbian.in(.ARM.extab)
    .extab._ZN18CntTransformGender18transformItemFieldERK17CContactItemFieldRKN10QtMobility8QContactE 0x00022f8c   Data           0  qtcontacts_symbian.in(.ARM.extab)
    .extab._ZNK18CntTransformGender15supportedFieldsEv 0x00022fac   Data           0  qtcontacts_symbian.in(.ARM.extab)
    .extab._ZNK18CntTransformGender26supportedSortingFieldTypesE7QString 0x00022fbc   Data           0  qtcontacts_symbian.in(.ARM.extab)
    .extab._ZNK18CntTransformGender17detailDefinitionsER4QMapI7QStringN10QtMobility24QContactDetailDefinitionEERKS1_ 0x00022fcc   Data           0  qtcontacts_symbian.in(.ARM.extab)
    .extab._ZN23CntTransformAnniversary16transformDetailLERKN10QtMobility14QContactDetailE 0x0002301c   Data           0  qtcontacts_symbian.in(.ARM.extab)
    .extab._ZN23CntTransformAnniversary18transformItemFieldERK17CContactItemFieldRKN10QtMobility8QContactE 0x00023060   Data           0  qtcontacts_symbian.in(.ARM.extab)
    .extab._ZNK23CntTransformAnniversary15supportedFieldsEv 0x000230a0   Data           0  qtcontacts_symbian.in(.ARM.extab)
    .extab._ZNK23CntTransformAnniversary17detailDefinitionsER4QMapI7QStringN10QtMobility24QContactDetailDefinitionEERKS1_ 0x000230b0   Data           0  qtcontacts_symbian.in(.ARM.extab)
    .extab._ZNK10QtMobility19QContactAnniversary12originalDateEv 0x00023120   Data           0  qtcontacts_symbian.in(.ARM.extab)
    .extab._ZN29CntTransformAnniversarySimple16transformDetailLERKN10QtMobility14QContactDetailE 0x00023130   Data           0  qtcontacts_symbian.in(.ARM.extab)
    .extab._ZN29CntTransformAnniversarySimple18transformItemFieldERK17CContactItemFieldRKN10QtMobility8QContactE 0x00023164   Data           0  qtcontacts_symbian.in(.ARM.extab)
    .extab._ZNK29CntTransformAnniversarySimple15supportedFieldsEv 0x0002317c   Data           0  qtcontacts_symbian.in(.ARM.extab)
    .extab._ZNK29CntTransformAnniversarySimple17detailDefinitionsER4QMapI7QStringN10QtMobility24QContactDetailDefinitionEERKS1_ 0x0002318c   Data           0  qtcontacts_symbian.in(.ARM.extab)
    .extab._ZN23CntTransformGeolocation16transformDetailLERKN10QtMobility14QContactDetailE 0x0002320c   Data           0  qtcontacts_symbian.in(.ARM.extab)
    .extab._ZN23CntTransformGeolocation18transformItemFieldERK17CContactItemFieldRKN10QtMobility8QContactE 0x00023254   Data           0  qtcontacts_symbian.in(.ARM.extab)
    .extab._ZNK23CntTransformGeolocation15supportedFieldsEv 0x0002328c   Data           0  qtcontacts_symbian.in(.ARM.extab)
    .extab._ZNK23CntTransformGeolocation17detailDefinitionsER4QMapI7QStringN10QtMobility24QContactDetailDefinitionEERKS1_ 0x0002329c   Data           0  qtcontacts_symbian.in(.ARM.extab)
    .extab._ZNK10QtMobility19QContactGeoLocation9longitudeEv 0x0002333c   Data           0  qtcontacts_symbian.in(.ARM.extab)
    .extab._ZNK10QtMobility19QContactGeoLocation8latitudeEv 0x0002334c   Data           0  qtcontacts_symbian.in(.ARM.extab)
    .extab._ZN10QtMobility19QContactGeoLocation12setLongitudeEd 0x0002335c   Data           0  qtcontacts_symbian.in(.ARM.extab)
    .extab._ZN10QtMobility19QContactGeoLocation11setLatitudeEd 0x0002336c   Data           0  qtcontacts_symbian.in(.ARM.extab)
    .extab._ZN16CntTransformNote16transformDetailLERKN10QtMobility14QContactDetailE 0x0002337c   Data           0  qtcontacts_symbian.in(.ARM.extab)
    .extab._ZN16CntTransformNote18transformItemFieldERK17CContactItemFieldRKN10QtMobility8QContactE 0x000233a4   Data           0  qtcontacts_symbian.in(.ARM.extab)
    .extab._ZNK16CntTransformNote15supportedFieldsEv 0x000233c4   Data           0  qtcontacts_symbian.in(.ARM.extab)
    .extab._ZNK16CntTransformNote26supportedSortingFieldTypesE7QString 0x000233d4   Data           0  qtcontacts_symbian.in(.ARM.extab)
    .extab._ZNK16CntTransformNote17detailDefinitionsER4QMapI7QStringN10QtMobility24QContactDetailDefinitionEERKS1_ 0x000233e4   Data           0  qtcontacts_symbian.in(.ARM.extab)
    .extab._ZN18CntTransformFamily16transformDetailLERKN10QtMobility14QContactDetailE 0x00023434   Data           0  qtcontacts_symbian.in(.ARM.extab)
    .extab._ZN18CntTransformFamily18transformItemFieldERK17CContactItemFieldRKN10QtMobility8QContactE 0x00023484   Data           0  qtcontacts_symbian.in(.ARM.extab)
    .extab._ZNK18CntTransformFamily15supportedFieldsEv 0x000234d4   Data           0  qtcontacts_symbian.in(.ARM.extab)
    .extab._ZNK18CntTransformFamily17detailDefinitionsER4QMapI7QStringN10QtMobility24QContactDetailDefinitionEERKS1_ 0x000234e4   Data           0  qtcontacts_symbian.in(.ARM.extab)
    .extab._ZN17CntTransformEmpty18transformItemFieldERK17CContactItemFieldRKN10QtMobility8QContactE 0x00023564   Data           0  qtcontacts_symbian.in(.ARM.extab)
    .extab._ZNK17CntTransformEmpty17detailDefinitionsER4QMapI7QStringN10QtMobility24QContactDetailDefinitionEERKS1_ 0x00023574   Data           0  qtcontacts_symbian.in(.ARM.extab)
    .constdata$1                             0x000235cc   Data           0  qtcontacts_symbian.in(.constdata)
    qt_meta_stringdata_CntSymbianEngine      0x000235cc   Data          50  qtcontacts_symbian.in(.constdata)
    .constdata                               0x000235cc   Section      104  qtcontacts_symbian.in(.constdata)
    qt_meta_stringdata_CntSymbianFactory     0x000235fe   Data          19  qtcontacts_symbian.in(.constdata)
    .constdata$13                            0x00023634   Data           0  qtcontacts_symbian.in(.constdata)
    qt_meta_data_CntSymbianEngine            0x00023634   Data          80  qtcontacts_symbian.in(.constdata)
    .constdata                               0x00023634   Section       80  qtcontacts_symbian.in(.constdata)
    .constdata$19                            0x00023684   Data           0  qtcontacts_symbian.in(.constdata)
    qt_meta_data_CntSymbianFactory           0x00023684   Data          60  qtcontacts_symbian.in(.constdata)
    .constdata                               0x00023684   Section       60  qtcontacts_symbian.in(.constdata)
    .constdata$1                             0x000236c0   Data           0  qtcontacts_symbian.in(.constdata)
    qt_meta_stringdata_CntSymbianDatabase    0x000236c0   Data          20  qtcontacts_symbian.in(.constdata)
    .constdata                               0x000236c0   Section       36  qtcontacts_symbian.in(.constdata)
    .constdata$10                            0x000236e4   Data           0  qtcontacts_symbian.in(.constdata)
    qt_meta_data_CntSymbianDatabase          0x000236e4   Data          60  qtcontacts_symbian.in(.constdata)
    .constdata                               0x000236e4   Section       60  qtcontacts_symbian.in(.constdata)
    .constdata$1                             0x00023720   Data           0  qtcontacts_symbian.in(.constdata)
    qt_meta_stringdata_CntDisplayLabel       0x00023720   Data          40  qtcontacts_symbian.in(.constdata)
    .constdata                               0x00023720   Section       56  qtcontacts_symbian.in(.constdata)
    .constdata$10                            0x00023758   Data           0  qtcontacts_symbian.in(.constdata)
    qt_meta_data_CntDisplayLabel             0x00023758   Data          80  qtcontacts_symbian.in(.constdata)
    .constdata                               0x00023758   Section       80  qtcontacts_symbian.in(.constdata)
    .constdata$1                             0x000237a8   Data           0  qtcontacts_symbian.in(.constdata)
    qt_meta_stringdata_CntTransformContactData 0x000237a8   Data          25  qtcontacts_symbian.in(.constdata)
    .constdata                               0x000237a8   Section       44  qtcontacts_symbian.in(.constdata)
    .constdata$10                            0x000237d4   Data           0  qtcontacts_symbian.in(.constdata)
    qt_meta_data_CntTransformContactData     0x000237d4   Data          60  qtcontacts_symbian.in(.constdata)
    .constdata                               0x000237d4   Section       60  qtcontacts_symbian.in(.constdata)
    .constdata$1                             0x00023810   Data           0  qtcontacts_symbian.in(.constdata)
    qt_meta_stringdata_CntDbInfo             0x00023810   Data          11  qtcontacts_symbian.in(.constdata)
    .constdata                               0x00023810   Section       28  qtcontacts_symbian.in(.constdata)
    .constdata$10                            0x0002382c   Data           0  qtcontacts_symbian.in(.constdata)
    qt_meta_data_CntDbInfo                   0x0002382c   Data          60  qtcontacts_symbian.in(.constdata)
    .constdata                               0x0002382c   Section       60  qtcontacts_symbian.in(.constdata)
    .constdata$1                             0x00023868   Data           0  qtcontacts_symbian.in(.constdata)
    KUidContactCard                          0x00023868   Data           4  qtcontacts_symbian.in(.constdata)
    .constdata                               0x00023868   Section      103  qtcontacts_symbian.in(.constdata)
    KUidContactGroup                         0x0002386c   Data           4  qtcontacts_symbian.in(.constdata)
    KUidContactOwnCard                       0x00023870   Data           4  qtcontacts_symbian.in(.constdata)
    qt_plugin_verification_data              0x00023874   Data          91  qtcontacts_symbian.in(.constdata)
    .constdata$1                             0x000238d0   Data           0  qtcontacts_symbian.in(.constdata)
    KUidContactCard                          0x000238d0   Data           4  qtcontacts_symbian.in(.constdata)
    .constdata                               0x000238d0   Section       16  qtcontacts_symbian.in(.constdata)
    KUidContactGroup                         0x000238d4   Data           4  qtcontacts_symbian.in(.constdata)
    KUidContactOwnCard                       0x000238d8   Data           4  qtcontacts_symbian.in(.constdata)
    KUidContactICCEntry                      0x000238dc   Data           4  qtcontacts_symbian.in(.constdata)
    .constdata$1                             0x000238e0   Data           0  qtcontacts_symbian.in(.constdata)
    KCRCntSettings                           0x000238e0   Data           4  qtcontacts_symbian.in(.constdata)
    .constdata                               0x000238e0   Section        8  qtcontacts_symbian.in(.constdata)
    KCRUidPhonebook                          0x000238e4   Data           4  qtcontacts_symbian.in(.constdata)
    .constdata$1                             0x000238e8   Data           0  qtcontacts_symbian.in(.constdata)
    .constdata                               0x000238e8   Section      316  qtcontacts_symbian.in(.constdata)
    .constdata$1                             0x00023a24   Data           0  qtcontacts_symbian.in(.constdata)
    KCRUidTelConfiguration                   0x00023a24   Data           4  qtcontacts_symbian.in(.constdata)
    .constdata                               0x00023a24   Section        4  qtcontacts_symbian.in(.constdata)
    .constdata$1                             0x00023a28   Data           0  qtcontacts_symbian.in(.constdata)
    .constdata                               0x00023a28   Section       92  qtcontacts_symbian.in(.constdata)
    .constdata$1                             0x00023a84   Data           0  qtcontacts_symbian.in(.constdata)
    KUidContactFieldCompanyName              0x00023a84   Data           4  qtcontacts_symbian.in(.constdata)
    .constdata                               0x00023a84   Section       36  qtcontacts_symbian.in(.constdata)
    KUidContactFieldGivenName                0x00023a88   Data           4  qtcontacts_symbian.in(.constdata)
    KUidContactFieldFamilyName               0x00023a8c   Data           4  qtcontacts_symbian.in(.constdata)
    KUidContactFieldAdditionalName           0x00023a90   Data           4  qtcontacts_symbian.in(.constdata)
    KUidContactFieldSuffixName               0x00023a94   Data           4  qtcontacts_symbian.in(.constdata)
    KUidContactFieldPrefixName               0x00023a98   Data           4  qtcontacts_symbian.in(.constdata)
    KUidContactFieldEMail                    0x00023a9c   Data           4  qtcontacts_symbian.in(.constdata)
    KUidContactFieldSecondName               0x00023aa0   Data           4  qtcontacts_symbian.in(.constdata)
    KCRUidTelConfiguration                   0x00023aa4   Data           4  qtcontacts_symbian.in(.constdata)
    .constdata$1                             0x00023aa8   Data           0  qtcontacts_symbian.in(.constdata)
    KNullDesC                                0x00023aa8   Data           8  qtcontacts_symbian.in(.constdata)
    .constdata                               0x00023aa8   Section      424  qtcontacts_symbian.in(.constdata)
    KCntServerExe                            0x00023ab0   Data          28  qtcontacts_symbian.in(.constdata)
    KCntServerName                           0x00023acc   Data          20  qtcontacts_symbian.in(.constdata)
    .constdata$1                             0x00023c50   Data           0  qtcontacts_symbian.in(.constdata)
    KUidContactGroup                         0x00023c50   Data           4  qtcontacts_symbian.in(.constdata)
    .constdata                               0x00023c50   Section       40  qtcontacts_symbian.in(.constdata)
    KDateFormat@_ZN19CntTransformContact28transformTimestampItemFieldLERK12CContactItemRK16CContactDatabase_0 0x00023c54   Data          36  qtcontacts_symbian.in(.constdata)
    .constdata$1                             0x00023c78   Data           0  qtcontacts_symbian.in(.constdata)
    KUidContactFieldVCardMapWORK             0x00023c78   Data           4  qtcontacts_symbian.in(.constdata)
    .constdata                               0x00023c78   Section        8  qtcontacts_symbian.in(.constdata)
    KUidContactFieldVCardMapHOME             0x00023c7c   Data           4  qtcontacts_symbian.in(.constdata)
    .constdata$1                             0x00023c80   Data           0  qtcontacts_symbian.in(.constdata)
    KUidContactFieldGivenName                0x00023c80   Data           4  qtcontacts_symbian.in(.constdata)
    .constdata                               0x00023c80   Section       28  qtcontacts_symbian.in(.constdata)
    KUidContactFieldFamilyName               0x00023c84   Data           4  qtcontacts_symbian.in(.constdata)
    KUidContactFieldAdditionalName           0x00023c88   Data           4  qtcontacts_symbian.in(.constdata)
    KUidContactFieldSuffixName               0x00023c8c   Data           4  qtcontacts_symbian.in(.constdata)
    KUidContactFieldPrefixName               0x00023c90   Data           4  qtcontacts_symbian.in(.constdata)
    KUidContactFieldTemplateLabel            0x00023c94   Data           4  qtcontacts_symbian.in(.constdata)
    KUidContactFieldVCardMapUnusedN          0x00023c98   Data           4  qtcontacts_symbian.in(.constdata)
    .constdata$1                             0x00023c9c   Data           0  qtcontacts_symbian.in(.constdata)
    KUidContactFieldSecondName               0x00023c9c   Data           4  qtcontacts_symbian.in(.constdata)
    .constdata                               0x00023c9c   Section        8  qtcontacts_symbian.in(.constdata)
    KUidContactFieldVCardMapSECONDNAME       0x00023ca0   Data           4  qtcontacts_symbian.in(.constdata)
    .constdata$1                             0x00023ca4   Data           0  qtcontacts_symbian.in(.constdata)
    KUidContactFieldPhoneNumber              0x00023ca4   Data           4  qtcontacts_symbian.in(.constdata)
    .constdata                               0x00023ca4   Section       52  qtcontacts_symbian.in(.constdata)
    KUidContactFieldFax                      0x00023ca8   Data           4  qtcontacts_symbian.in(.constdata)
    KUidContactFieldDTMF                     0x00023cac   Data           4  qtcontacts_symbian.in(.constdata)
    KUidContactFieldVCardMapTEL              0x00023cb0   Data           4  qtcontacts_symbian.in(.constdata)
    KUidContactFieldVCardMapUnknown          0x00023cb4   Data           4  qtcontacts_symbian.in(.constdata)
    KUidContactFieldVCardMapVOICE            0x00023cb8   Data           4  qtcontacts_symbian.in(.constdata)
    KUidContactFieldVCardMapFAX              0x00023cbc   Data           4  qtcontacts_symbian.in(.constdata)
    KUidContactFieldVCardMapCELL             0x00023cc0   Data           4  qtcontacts_symbian.in(.constdata)
    KUidContactFieldVCardMapPAGER            0x00023cc4   Data           4  qtcontacts_symbian.in(.constdata)
    KUidContactFieldVCardMapBBS              0x00023cc8   Data           4  qtcontacts_symbian.in(.constdata)
    KUidContactFieldVCardMapCAR              0x00023ccc   Data           4  qtcontacts_symbian.in(.constdata)
    KUidContactFieldVCardMapVIDEO            0x00023cd0   Data           4  qtcontacts_symbian.in(.constdata)
    KUidContactFieldVCardMapAssistantTel     0x00023cd4   Data           4  qtcontacts_symbian.in(.constdata)
    .constdata$1                             0x00023cd8   Data           0  qtcontacts_symbian.in(.constdata)
    KUidContactFieldEMail                    0x00023cd8   Data           4  qtcontacts_symbian.in(.constdata)
    .constdata                               0x00023cd8   Section        8  qtcontacts_symbian.in(.constdata)
    KUidContactFieldVCardMapEMAILINTERNET    0x00023cdc   Data           4  qtcontacts_symbian.in(.constdata)
    .constdata$1                             0x00023ce0   Data           0  qtcontacts_symbian.in(.constdata)
    KUidContactFieldAddress                  0x00023ce0   Data           4  qtcontacts_symbian.in(.constdata)
    .constdata                               0x00023ce0   Section       48  qtcontacts_symbian.in(.constdata)
    KUidContactFieldPostOffice               0x00023ce4   Data           4  qtcontacts_symbian.in(.constdata)
    KUidContactFieldLocality                 0x00023ce8   Data           4  qtcontacts_symbian.in(.constdata)
    KUidContactFieldRegion                   0x00023cec   Data           4  qtcontacts_symbian.in(.constdata)
    KUidContactFieldPostcode                 0x00023cf0   Data           4  qtcontacts_symbian.in(.constdata)
    KUidContactFieldCountry                  0x00023cf4   Data           4  qtcontacts_symbian.in(.constdata)
    KUidContactFieldVCardMapPOSTOFFICE       0x00023cf8   Data           4  qtcontacts_symbian.in(.constdata)
    KUidContactFieldVCardMapADR              0x00023cfc   Data           4  qtcontacts_symbian.in(.constdata)
    KUidContactFieldVCardMapLOCALITY         0x00023d00   Data           4  qtcontacts_symbian.in(.constdata)
    KUidContactFieldVCardMapREGION           0x00023d04   Data           4  qtcontacts_symbian.in(.constdata)
    KUidContactFieldVCardMapPOSTCODE         0x00023d08   Data           4  qtcontacts_symbian.in(.constdata)
    KUidContactFieldVCardMapCOUNTRY          0x00023d0c   Data           4  qtcontacts_symbian.in(.constdata)
    .constdata$1                             0x00023d10   Data           0  qtcontacts_symbian.in(.constdata)
    KUidContactFieldUrl                      0x00023d10   Data           4  qtcontacts_symbian.in(.constdata)
    .constdata                               0x00023d10   Section        8  qtcontacts_symbian.in(.constdata)
    KUidContactFieldVCardMapURL              0x00023d14   Data           4  qtcontacts_symbian.in(.constdata)
    .constdata$1                             0x00023d18   Data           0  qtcontacts_symbian.in(.constdata)
    KUidContactFieldBirthday                 0x00023d18   Data           4  qtcontacts_symbian.in(.constdata)
    .constdata                               0x00023d18   Section        8  qtcontacts_symbian.in(.constdata)
    KUidContactFieldVCardMapBDAY             0x00023d1c   Data           4  qtcontacts_symbian.in(.constdata)
    .constdata$1                             0x00023d20   Data           0  qtcontacts_symbian.in(.constdata)
    KUidContactFieldSIPID                    0x00023d20   Data           4  qtcontacts_symbian.in(.constdata)
    .constdata                               0x00023d20   Section       16  qtcontacts_symbian.in(.constdata)
    KUidContactFieldVCardMapSIPID            0x00023d24   Data           4  qtcontacts_symbian.in(.constdata)
    KUidContactFieldVCardMapSWIS             0x00023d28   Data           4  qtcontacts_symbian.in(.constdata)
    KUidContactFieldVCardMapVOIP             0x00023d2c   Data           4  qtcontacts_symbian.in(.constdata)
    .constdata$1                             0x00023d30   Data           0  qtcontacts_symbian.in(.constdata)
    KUidContactFieldCompanyName              0x00023d30   Data           4  qtcontacts_symbian.in(.constdata)
    .constdata                               0x00023d30   Section       32  qtcontacts_symbian.in(.constdata)
    KUidContactFieldJobTitle                 0x00023d34   Data           4  qtcontacts_symbian.in(.constdata)
    KUidContactFieldAssistant                0x00023d38   Data           4  qtcontacts_symbian.in(.constdata)
    KUidContactFieldDepartmentName           0x00023d3c   Data           4  qtcontacts_symbian.in(.constdata)
    KUidContactFieldVCardMapORG              0x00023d40   Data           4  qtcontacts_symbian.in(.constdata)
    KUidContactFieldVCardMapTITLE            0x00023d44   Data           4  qtcontacts_symbian.in(.constdata)
    KUidContactFieldVCardMapAssistant        0x00023d48   Data           4  qtcontacts_symbian.in(.constdata)
    KUidContactFieldVCardMapDepartment       0x00023d4c   Data           4  qtcontacts_symbian.in(.constdata)
    .constdata$1                             0x00023d50   Data           0  qtcontacts_symbian.in(.constdata)
    KUidContactFieldRingTone                 0x00023d50   Data           4  qtcontacts_symbian.in(.constdata)
    .constdata                               0x00023d50   Section       12  qtcontacts_symbian.in(.constdata)
    KUidContactFieldVCardMapUnknown          0x00023d54   Data           4  qtcontacts_symbian.in(.constdata)
    KUidContactFieldVideoRingTone            0x00023d58   Data           4  qtcontacts_symbian.in(.constdata)
    .constdata$1                             0x00023d5c   Data           0  qtcontacts_symbian.in(.constdata)
    KUidContactFieldPicture                  0x00023d5c   Data           4  qtcontacts_symbian.in(.constdata)
    .constdata                               0x00023d5c   Section        8  qtcontacts_symbian.in(.constdata)
    KUidContactFieldVCardMapJPEG             0x00023d60   Data           4  qtcontacts_symbian.in(.constdata)
    .constdata$1                             0x00023d64   Data           0  qtcontacts_symbian.in(.constdata)
    KUidContactFieldVCardMapUnknown          0x00023d64   Data           4  qtcontacts_symbian.in(.constdata)
    .constdata                               0x00023d64   Section        8  qtcontacts_symbian.in(.constdata)
    KUidContactFieldCodImage                 0x00023d68   Data           4  qtcontacts_symbian.in(.constdata)
    .constdata$1                             0x00023d6c   Data           0  qtcontacts_symbian.in(.constdata)
    KUidContactFieldPicture                  0x00023d6c   Data           4  qtcontacts_symbian.in(.constdata)
    .constdata                               0x00023d6c   Section       16  qtcontacts_symbian.in(.constdata)
    KUidContactFieldVCardMapPHOTO            0x00023d70   Data           4  qtcontacts_symbian.in(.constdata)
    KUidContactFieldVCardMapJPEG             0x00023d74   Data           4  qtcontacts_symbian.in(.constdata)
    KImageTypeJPGUid                         0x00023d78   Data           4  qtcontacts_symbian.in(.constdata)
    .constdata$1                             0x00023d7c   Data           0  qtcontacts_symbian.in(.constdata)
    KUidContactFieldClass                    0x00023d7c   Data           4  qtcontacts_symbian.in(.constdata)
    .constdata                               0x00023d7c   Section        8  qtcontacts_symbian.in(.constdata)
    KUidContactFieldVCardMapClass            0x00023d80   Data           4  qtcontacts_symbian.in(.constdata)
    .constdata$1                             0x00023d84   Data           0  qtcontacts_symbian.in(.constdata)
    KUidContactFieldVCardMapUnknown          0x00023d84   Data           4  qtcontacts_symbian.in(.constdata)
    .constdata                               0x00023d84   Section        8  qtcontacts_symbian.in(.constdata)
    KUidContactFieldGender                   0x00023d88   Data           4  qtcontacts_symbian.in(.constdata)
    .constdata$1                             0x00023d8c   Data           0  qtcontacts_symbian.in(.constdata)
    KUidContactFieldAnniversary              0x00023d8c   Data           4  qtcontacts_symbian.in(.constdata)
    .constdata                               0x00023d8c   Section       16  qtcontacts_symbian.in(.constdata)
    KUidContactFieldVCardMapUnknown          0x00023d90   Data           4  qtcontacts_symbian.in(.constdata)
    KUidContactFieldVCardMapAnniversary      0x00023d94   Data           4  qtcontacts_symbian.in(.constdata)
    KUidContactFieldAnniversaryEvent         0x00023d98   Data           4  qtcontacts_symbian.in(.constdata)
    .constdata$1                             0x00023d9c   Data           0  qtcontacts_symbian.in(.constdata)
    KUidContactFieldAnniversary              0x00023d9c   Data           4  qtcontacts_symbian.in(.constdata)
    .constdata                               0x00023d9c   Section        8  qtcontacts_symbian.in(.constdata)
    KUidContactFieldVCardMapAnniversary      0x00023da0   Data           4  qtcontacts_symbian.in(.constdata)
    .constdata$1                             0x00023da4   Data           0  qtcontacts_symbian.in(.constdata)
    KUidContactFieldVCardMapGEO              0x00023da4   Data           4  qtcontacts_symbian.in(.constdata)
    .constdata                               0x00023da4   Section        8  qtcontacts_symbian.in(.constdata)
    KUidContactFieldGEO                      0x00023da8   Data           4  qtcontacts_symbian.in(.constdata)
    .constdata$1                             0x00023dac   Data           0  qtcontacts_symbian.in(.constdata)
    KUidContactFieldNote                     0x00023dac   Data           4  qtcontacts_symbian.in(.constdata)
    .constdata                               0x00023dac   Section        8  qtcontacts_symbian.in(.constdata)
    KUidContactFieldVCardMapNOTE             0x00023db0   Data           4  qtcontacts_symbian.in(.constdata)
    .constdata$1                             0x00023db4   Data           0  qtcontacts_symbian.in(.constdata)
    KUidContactFieldSpouse                   0x00023db4   Data           4  qtcontacts_symbian.in(.constdata)
    .constdata                               0x00023db4   Section       16  qtcontacts_symbian.in(.constdata)
    KUidContactFieldChildren                 0x00023db8   Data           4  qtcontacts_symbian.in(.constdata)
    KUidContactFieldVCardMapSpouse           0x00023dbc   Data           4  qtcontacts_symbian.in(.constdata)
    KUidContactFieldVCardMapChildren         0x00023dc0   Data           4  qtcontacts_symbian.in(.constdata)
    .constdata__ZTI13CArrayFixFlatIN16CContactDatabase9TSortPrefEE 0x00023dc4   Section       12  qtcontacts_symbian.in(.constdata__ZTI13CArrayFixFlatIN16CContactDatabase9TSortPrefEE)
    .constdata__ZTI13MDisplayLabel           0x00023dd0   Section        8  qtcontacts_symbian.in(.constdata__ZTI13MDisplayLabel)
    .constdata__ZTI14CntFilterUnion          0x00023dd8   Section       12  qtcontacts_symbian.in(.constdata__ZTI14CntFilterUnion)
    .constdata__ZTI15CntDisplayLabel         0x00023de4   Section       32  qtcontacts_symbian.in(.constdata__ZTI15CntDisplayLabel)
    .constdata__ZTI15CntFilterDetail         0x00023e04   Section       12  qtcontacts_symbian.in(.constdata__ZTI15CntFilterDetail)
    .constdata__ZTI15CntRelationship         0x00023e10   Section        8  qtcontacts_symbian.in(.constdata__ZTI15CntRelationship)
    .constdata__ZTI15CntTransformUrl         0x00023e18   Section       12  qtcontacts_symbian.in(.constdata__ZTI15CntTransformUrl)
    .constdata__ZTI16CntFilterDefault        0x00023e24   Section       12  qtcontacts_symbian.in(.constdata__ZTI16CntFilterDefault)
    .constdata__ZTI16CntSymbianEngine        0x00023e30   Section       12  qtcontacts_symbian.in(.constdata__ZTI16CntSymbianEngine)
    .constdata__ZTI16CntSymbianFilter        0x00023e3c   Section       12  qtcontacts_symbian.in(.constdata__ZTI16CntSymbianFilter)
    .constdata__ZTI16CntTransformName        0x00023e48   Section       12  qtcontacts_symbian.in(.constdata__ZTI16CntTransformName)
    .constdata__ZTI16CntTransformNote        0x00023e54   Section       12  qtcontacts_symbian.in(.constdata__ZTI16CntTransformNote)
    .constdata__ZTI17CntSymbianFactory       0x00023e60   Section       32  qtcontacts_symbian.in(.constdata__ZTI17CntSymbianFactory)
    .constdata__ZTI17CntTransformEmail       0x00023e80   Section       12  qtcontacts_symbian.in(.constdata__ZTI17CntTransformEmail)
    .constdata__ZTI17CntTransformEmpty       0x00023e8c   Section       12  qtcontacts_symbian.in(.constdata__ZTI17CntTransformEmpty)
    .constdata__ZTI18CntSymbianDatabase      0x00023e98   Section       32  qtcontacts_symbian.in(.constdata__ZTI18CntSymbianDatabase)
    .constdata__ZTI18CntTransformAvatar      0x00023eb8   Section       12  qtcontacts_symbian.in(.constdata__ZTI18CntTransformAvatar)
    .constdata__ZTI18CntTransformFamily      0x00023ec4   Section       12  qtcontacts_symbian.in(.constdata__ZTI18CntTransformFamily)
    .constdata__ZTI18MContactDbObserver      0x00023ed0   Section        8  qtcontacts_symbian.in(.constdata__ZTI18MContactDbObserver)
    .constdata__ZTI19CntThumbnailCreator     0x00023ed8   Section       12  qtcontacts_symbian.in(.constdata__ZTI19CntThumbnailCreator)
    .constdata__ZTI19CntTransformAddress     0x00023ee4   Section       12  qtcontacts_symbian.in(.constdata__ZTI19CntTransformAddress)
    .constdata__ZTI19CntTransformContact     0x00023ef0   Section        8  qtcontacts_symbian.in(.constdata__ZTI19CntTransformContact)
    .constdata__ZTI20CContactItemFieldDef    0x00023ef8   Section       12  qtcontacts_symbian.in(.constdata__ZTI20CContactItemFieldDef)
    .constdata__ZTI20CntRelationshipGroup    0x00023f04   Section       12  qtcontacts_symbian.in(.constdata__ZTI20CntRelationshipGroup)
    .constdata__ZTI20CntSymbianSorterDbms    0x00023f10   Section       12  qtcontacts_symbian.in(.constdata__ZTI20CntSymbianSorterDbms)
    .constdata__ZTI20CntTransformBirthday    0x00023f1c   Section       12  qtcontacts_symbian.in(.constdata__ZTI20CntTransformBirthday)
    .constdata__ZTI20CntTransformNickname    0x00023f28   Section       12  qtcontacts_symbian.in(.constdata__ZTI20CntTransformNickname)
    .constdata__ZTI20CntTransformRingtone    0x00023f34   Section       12  qtcontacts_symbian.in(.constdata__ZTI20CntTransformRingtone)
    .constdata__ZTI21CntFilterIntersection   0x00023f40   Section       12  qtcontacts_symbian.in(.constdata__ZTI21CntFilterIntersection)
    .constdata__ZTI21CntFilterRelationship   0x00023f4c   Section       12  qtcontacts_symbian.in(.constdata__ZTI21CntFilterRelationship)
    .constdata__ZTI21CntTransformThumbnail   0x00023f58   Section       12  qtcontacts_symbian.in(.constdata__ZTI21CntTransformThumbnail)
    .constdata__ZTI22CntTransformSyncTarget  0x00023f64   Section       12  qtcontacts_symbian.in(.constdata__ZTI22CntTransformSyncTarget)
    .constdata__ZTI23CntAbstractRelationship 0x00023f70   Section        8  qtcontacts_symbian.in(.constdata__ZTI23CntAbstractRelationship)
    .constdata__ZTI23CntTransformContactData 0x00023f78   Section       12  qtcontacts_symbian.in(.constdata__ZTI23CntTransformContactData)
    .constdata__ZTI23CntTransformPhoneNumber 0x00023f84   Section       12  qtcontacts_symbian.in(.constdata__ZTI23CntTransformPhoneNumber)
    .constdata__ZTI24CntAbstractContactFilter 0x00023f90   Section        8  qtcontacts_symbian.in(.constdata__ZTI24CntAbstractContactFilter)
    .constdata__ZTI24CntAbstractContactSorter 0x00023f98   Section        8  qtcontacts_symbian.in(.constdata__ZTI24CntAbstractContactSorter)
    .constdata__ZTI24CntTransformOrganisation 0x00023fa0   Section       12  qtcontacts_symbian.in(.constdata__ZTI24CntTransformOrganisation)
    .constdata__ZTI25CntTransformOnlineAccount 0x00023fac   Section       12  qtcontacts_symbian.in(.constdata__ZTI25CntTransformOnlineAccount)
    .constdata__ZTI29CntTransformAnniversarySimple 0x00023fb8   Section       12  qtcontacts_symbian.in(.constdata__ZTI29CntTransformAnniversarySimple)
    .constdata__ZTI9CArrayFixIN16CContactDatabase9TSortPrefEE 0x00023fc4   Section       12  qtcontacts_symbian.in(.constdata__ZTI9CArrayFixIN16CContactDatabase9TSortPrefEE)
    .constdata__ZTI9CntCenrep                0x00023fd0   Section       12  qtcontacts_symbian.in(.constdata__ZTI9CntCenrep)
    .constdata__ZTI9CntDbInfo                0x00023fdc   Section       12  qtcontacts_symbian.in(.constdata__ZTI9CntDbInfo)
    .constdata__ZTISt9bad_alloc              0x00023fe8   Section       12  qtcontacts_symbian.in(.constdata__ZTISt9bad_alloc)
    .constdata__ZTS13CArrayFixFlatIN16CContactDatabase9TSortPrefEE 0x00023ff4   Section       48  qtcontacts_symbian.in(.constdata__ZTS13CArrayFixFlatIN16CContactDatabase9TSortPrefEE)
    .constdata__ZTS13MDisplayLabel           0x00024024   Section       16  qtcontacts_symbian.in(.constdata__ZTS13MDisplayLabel)
    .constdata__ZTS14CntFilterUnion          0x00024034   Section       17  qtcontacts_symbian.in(.constdata__ZTS14CntFilterUnion)
    .constdata__ZTS15CntDisplayLabel         0x00024045   Section       18  qtcontacts_symbian.in(.constdata__ZTS15CntDisplayLabel)
    .constdata__ZTS15CntFilterDetail         0x00024057   Section       18  qtcontacts_symbian.in(.constdata__ZTS15CntFilterDetail)
    .constdata__ZTS15CntRelationship         0x00024069   Section       18  qtcontacts_symbian.in(.constdata__ZTS15CntRelationship)
    .constdata__ZTS15CntTransformUrl         0x0002407b   Section       18  qtcontacts_symbian.in(.constdata__ZTS15CntTransformUrl)
    .constdata__ZTS16CntFilterDefault        0x0002408d   Section       19  qtcontacts_symbian.in(.constdata__ZTS16CntFilterDefault)
    .constdata__ZTS16CntSymbianEngine        0x000240a0   Section       19  qtcontacts_symbian.in(.constdata__ZTS16CntSymbianEngine)
    .constdata__ZTS16CntSymbianFilter        0x000240b3   Section       19  qtcontacts_symbian.in(.constdata__ZTS16CntSymbianFilter)
    .constdata__ZTS16CntTransformName        0x000240c6   Section       19  qtcontacts_symbian.in(.constdata__ZTS16CntTransformName)
    .constdata__ZTS16CntTransformNote        0x000240d9   Section       19  qtcontacts_symbian.in(.constdata__ZTS16CntTransformNote)
    .constdata__ZTS17CntSymbianFactory       0x000240ec   Section       20  qtcontacts_symbian.in(.constdata__ZTS17CntSymbianFactory)
    .constdata__ZTS17CntTransformEmail       0x00024100   Section       20  qtcontacts_symbian.in(.constdata__ZTS17CntTransformEmail)
    .constdata__ZTS17CntTransformEmpty       0x00024114   Section       20  qtcontacts_symbian.in(.constdata__ZTS17CntTransformEmpty)
    .constdata__ZTS18CntSymbianDatabase      0x00024128   Section       21  qtcontacts_symbian.in(.constdata__ZTS18CntSymbianDatabase)
    .constdata__ZTS18CntTransformAvatar      0x0002413d   Section       21  qtcontacts_symbian.in(.constdata__ZTS18CntTransformAvatar)
    .constdata__ZTS18CntTransformFamily      0x00024152   Section       21  qtcontacts_symbian.in(.constdata__ZTS18CntTransformFamily)
    .constdata__ZTS18MContactDbObserver      0x00024167   Section       21  qtcontacts_symbian.in(.constdata__ZTS18MContactDbObserver)
    .constdata__ZTS19CntThumbnailCreator     0x0002417c   Section       22  qtcontacts_symbian.in(.constdata__ZTS19CntThumbnailCreator)
    .constdata__ZTS19CntTransformAddress     0x00024192   Section       22  qtcontacts_symbian.in(.constdata__ZTS19CntTransformAddress)
    .constdata__ZTS19CntTransformContact     0x000241a8   Section       22  qtcontacts_symbian.in(.constdata__ZTS19CntTransformContact)
    .constdata__ZTS20CContactItemFieldDef    0x000241be   Section       23  qtcontacts_symbian.in(.constdata__ZTS20CContactItemFieldDef)
    .constdata__ZTS20CntRelationshipGroup    0x000241d5   Section       23  qtcontacts_symbian.in(.constdata__ZTS20CntRelationshipGroup)
    .constdata__ZTS20CntSymbianSorterDbms    0x000241ec   Section       23  qtcontacts_symbian.in(.constdata__ZTS20CntSymbianSorterDbms)
    .constdata__ZTS20CntTransformBirthday    0x00024203   Section       23  qtcontacts_symbian.in(.constdata__ZTS20CntTransformBirthday)
    .constdata__ZTS20CntTransformNickname    0x0002421a   Section       23  qtcontacts_symbian.in(.constdata__ZTS20CntTransformNickname)
    .constdata__ZTS20CntTransformRingtone    0x00024231   Section       23  qtcontacts_symbian.in(.constdata__ZTS20CntTransformRingtone)
    .constdata__ZTS21CntFilterIntersection   0x00024248   Section       24  qtcontacts_symbian.in(.constdata__ZTS21CntFilterIntersection)
    .constdata__ZTS21CntFilterRelationship   0x00024260   Section       24  qtcontacts_symbian.in(.constdata__ZTS21CntFilterRelationship)
    .constdata__ZTS21CntTransformThumbnail   0x00024278   Section       24  qtcontacts_symbian.in(.constdata__ZTS21CntTransformThumbnail)
    .constdata__ZTS22CntTransformSyncTarget  0x00024290   Section       25  qtcontacts_symbian.in(.constdata__ZTS22CntTransformSyncTarget)
    .constdata__ZTS23CntAbstractRelationship 0x000242a9   Section       26  qtcontacts_symbian.in(.constdata__ZTS23CntAbstractRelationship)
    .constdata__ZTS23CntTransformContactData 0x000242c3   Section       26  qtcontacts_symbian.in(.constdata__ZTS23CntTransformContactData)
    .constdata__ZTS23CntTransformPhoneNumber 0x000242dd   Section       26  qtcontacts_symbian.in(.constdata__ZTS23CntTransformPhoneNumber)
    .constdata__ZTS24CntAbstractContactFilter 0x000242f7   Section       27  qtcontacts_symbian.in(.constdata__ZTS24CntAbstractContactFilter)
    .constdata__ZTS24CntAbstractContactSorter 0x00024312   Section       27  qtcontacts_symbian.in(.constdata__ZTS24CntAbstractContactSorter)
    .constdata__ZTS24CntTransformOrganisation 0x0002432d   Section       27  qtcontacts_symbian.in(.constdata__ZTS24CntTransformOrganisation)
    .constdata__ZTS25CntTransformOnlineAccount 0x00024348   Section       28  qtcontacts_symbian.in(.constdata__ZTS25CntTransformOnlineAccount)
    .constdata__ZTS29CntTransformAnniversarySimple 0x00024364   Section       32  qtcontacts_symbian.in(.constdata__ZTS29CntTransformAnniversarySimple)
    .constdata__ZTS9CArrayFixIN16CContactDatabase9TSortPrefEE 0x00024384   Section       43  qtcontacts_symbian.in(.constdata__ZTS9CArrayFixIN16CContactDatabase9TSortPrefEE)
    .constdata__ZTS9CntCenrep                0x000243af   Section       11  qtcontacts_symbian.in(.constdata__ZTS9CntCenrep)
    .constdata__ZTS9CntDbInfo                0x000243ba   Section       11  qtcontacts_symbian.in(.constdata__ZTS9CntDbInfo)
    .constdata__ZTSSt9bad_alloc              0x000243c5   Section       13  qtcontacts_symbian.in(.constdata__ZTSSt9bad_alloc)
    .constdata__ZTV13CArrayFixFlatIN16CContactDatabase9TSortPrefEE 0x000243d4   Section       20  qtcontacts_symbian.in(.constdata__ZTV13CArrayFixFlatIN16CContactDatabase9TSortPrefEE)
    .constdata__ZTV14CntFilterUnion          0x000243e8   Section       24  qtcontacts_symbian.in(.constdata__ZTV14CntFilterUnion)
    .constdata__ZTV15CntDisplayLabel         0x00024400   Section       72  qtcontacts_symbian.in(.constdata__ZTV15CntDisplayLabel)
    .constdata__ZTV15CntFilterDetail         0x00024448   Section       24  qtcontacts_symbian.in(.constdata__ZTV15CntFilterDetail)
    .constdata__ZTV15CntRelationship         0x00024460   Section       16  qtcontacts_symbian.in(.constdata__ZTV15CntRelationship)
    .constdata__ZTV15CntTransformUrl         0x00024470   Section       96  qtcontacts_symbian.in(.constdata__ZTV15CntTransformUrl)
    .constdata__ZTV16CntFilterDefault        0x000244d0   Section       24  qtcontacts_symbian.in(.constdata__ZTV16CntFilterDefault)
    .constdata__ZTV16CntSymbianEngine        0x000244e8   Section      192  qtcontacts_symbian.in(.constdata__ZTV16CntSymbianEngine)
    .constdata__ZTV16CntSymbianFilter        0x000245a8   Section       24  qtcontacts_symbian.in(.constdata__ZTV16CntSymbianFilter)
    .constdata__ZTV16CntTransformName        0x000245c0   Section       96  qtcontacts_symbian.in(.constdata__ZTV16CntTransformName)
    .constdata__ZTV16CntTransformNote        0x00024620   Section       96  qtcontacts_symbian.in(.constdata__ZTV16CntTransformNote)
    .constdata__ZTV17CntSymbianFactory       0x00024680   Section       92  qtcontacts_symbian.in(.constdata__ZTV17CntSymbianFactory)
    .constdata__ZTV17CntTransformEmail       0x000246dc   Section       96  qtcontacts_symbian.in(.constdata__ZTV17CntTransformEmail)
    .constdata__ZTV17CntTransformEmpty       0x0002473c   Section       96  qtcontacts_symbian.in(.constdata__ZTV17CntTransformEmpty)
    .constdata__ZTV18CntSymbianDatabase      0x0002479c   Section       72  qtcontacts_symbian.in(.constdata__ZTV18CntSymbianDatabase)
    .constdata__ZTV18CntTransformAvatar      0x000247e4   Section       96  qtcontacts_symbian.in(.constdata__ZTV18CntTransformAvatar)
    .constdata__ZTV18CntTransformFamily      0x00024844   Section       96  qtcontacts_symbian.in(.constdata__ZTV18CntTransformFamily)
    .constdata__ZTV19CntThumbnailCreator     0x000248a4   Section       32  qtcontacts_symbian.in(.constdata__ZTV19CntThumbnailCreator)
    .constdata__ZTV19CntTransformAddress     0x000248c4   Section       96  qtcontacts_symbian.in(.constdata__ZTV19CntTransformAddress)
    .constdata__ZTV19CntTransformContact     0x00024924   Section       16  qtcontacts_symbian.in(.constdata__ZTV19CntTransformContact)
    .constdata__ZTV20CContactItemFieldDef    0x00024934   Section       20  qtcontacts_symbian.in(.constdata__ZTV20CContactItemFieldDef)
    .constdata__ZTV20CntRelationshipGroup    0x00024948   Section       32  qtcontacts_symbian.in(.constdata__ZTV20CntRelationshipGroup)
    .constdata__ZTV20CntSymbianSorterDbms    0x00024968   Section       20  qtcontacts_symbian.in(.constdata__ZTV20CntSymbianSorterDbms)
    .constdata__ZTV20CntTransformBirthday    0x0002497c   Section       96  qtcontacts_symbian.in(.constdata__ZTV20CntTransformBirthday)
    .constdata__ZTV20CntTransformNickname    0x000249dc   Section       96  qtcontacts_symbian.in(.constdata__ZTV20CntTransformNickname)
    .constdata__ZTV20CntTransformRingtone    0x00024a3c   Section       96  qtcontacts_symbian.in(.constdata__ZTV20CntTransformRingtone)
    .constdata__ZTV21CntFilterIntersection   0x00024a9c   Section       24  qtcontacts_symbian.in(.constdata__ZTV21CntFilterIntersection)
    .constdata__ZTV21CntFilterRelationship   0x00024ab4   Section       24  qtcontacts_symbian.in(.constdata__ZTV21CntFilterRelationship)
    .constdata__ZTV21CntTransformThumbnail   0x00024acc   Section       96  qtcontacts_symbian.in(.constdata__ZTV21CntTransformThumbnail)
    .constdata__ZTV22CntTransformSyncTarget  0x00024b2c   Section       96  qtcontacts_symbian.in(.constdata__ZTV22CntTransformSyncTarget)
    .constdata__ZTV23CntAbstractRelationship 0x00024b8c   Section       32  qtcontacts_symbian.in(.constdata__ZTV23CntAbstractRelationship)
    .constdata__ZTV23CntTransformContactData 0x00024bac   Section       96  qtcontacts_symbian.in(.constdata__ZTV23CntTransformContactData)
    .constdata__ZTV23CntTransformPhoneNumber 0x00024c0c   Section       96  qtcontacts_symbian.in(.constdata__ZTV23CntTransformPhoneNumber)
    .constdata__ZTV24CntTransformOrganisation 0x00024c6c   Section       96  qtcontacts_symbian.in(.constdata__ZTV24CntTransformOrganisation)
    .constdata__ZTV25CntTransformOnlineAccount 0x00024ccc   Section       96  qtcontacts_symbian.in(.constdata__ZTV25CntTransformOnlineAccount)
    .constdata__ZTV29CntTransformAnniversarySimple 0x00024d2c   Section       96  qtcontacts_symbian.in(.constdata__ZTV29CntTransformAnniversarySimple)
    .constdata__ZTV9CntCenrep                0x00024d8c   Section       32  qtcontacts_symbian.in(.constdata__ZTV9CntCenrep)
    .constdata__ZTV9CntDbInfo                0x00024dac   Section       56  qtcontacts_symbian.in(.constdata__ZTV9CntDbInfo)
    .init_array                              0x00024de4   Section        4  qtcontacts_symbian.in(.init_array)
    .init_array                              0x00024de8   Section        4  qtcontacts_symbian.in(.init_array)
    .init_array                              0x00024dec   Section        4  qtcontacts_symbian.in(.init_array)
    .init_array                              0x00024df0   Section        4  qtcontacts_symbian.in(.init_array)
    .ARM.exidx                               0x00024df4   Section        8  ucppinit_aeabi.o(.ARM.exidx)
    .data$0                                  0x00400000   Data           0  qtcontacts_symbian.in(.data)
    _ZGV_instance@qt_plugin_instance_0       0x00400000   Data           4  qtcontacts_symbian.in(.data)
    .data                                    0x00400000   Section       36  qtcontacts_symbian.in(.data)
    _instance@qt_plugin_instance_1           0x00400004   Data           4  qtcontacts_symbian.in(.data)
    SYMBIAN_BACKEND                          0x00400008   Data           4  qtcontacts_symbian.in(.data)
    SIM_BACKEND                              0x0040000c   Data           4  qtcontacts_symbian.in(.data)
    SIM_BACKEND_ADN                          0x00400010   Data           4  qtcontacts_symbian.in(.data)
    SIM_BACKEND_SDN                          0x00400014   Data           4  qtcontacts_symbian.in(.data)
    SIM_BACKEND_FDN                          0x00400018   Data           4  qtcontacts_symbian.in(.data)
    SIM_BACKEND_ON                           0x0040001c   Data           4  qtcontacts_symbian.in(.data)
    MYCARD_DEFINTION                         0x00400020   Data           4  qtcontacts_symbian.in(.data)
    .data$0                                  0x00400024   Data           0  qtcontacts_symbian.in(.data)
    SYMBIAN_BACKEND                          0x00400024   Data           4  qtcontacts_symbian.in(.data)
    .data                                    0x00400024   Section       28  qtcontacts_symbian.in(.data)
    SIM_BACKEND                              0x00400028   Data           4  qtcontacts_symbian.in(.data)
    SIM_BACKEND_ADN                          0x0040002c   Data           4  qtcontacts_symbian.in(.data)
    SIM_BACKEND_SDN                          0x00400030   Data           4  qtcontacts_symbian.in(.data)
    SIM_BACKEND_FDN                          0x00400034   Data           4  qtcontacts_symbian.in(.data)
    SIM_BACKEND_ON                           0x00400038   Data           4  qtcontacts_symbian.in(.data)
    MYCARD_DEFINTION                         0x0040003c   Data           4  qtcontacts_symbian.in(.data)
    .data$0                                  0x00400040   Data           0  qtcontacts_symbian.in(.data)
    KMaxThumbnailSize                        0x00400040   Data           8  qtcontacts_symbian.in(.data)
    .data                                    0x00400040   Section        8  qtcontacts_symbian.in(.data)
    .data$0                                  0x00400048   Data           0  qtcontacts_symbian.in(.data)
    KThumbnailSizeUninitialized              0x00400048   Data           8  qtcontacts_symbian.in(.data)
    .data                                    0x00400048   Section        8  qtcontacts_symbian.in(.data)
    .data$0                                  0x00400050   Data           0  ucppfini.o(.data)
    .data                                    0x00400050   Section        4  ucppfini.o(.data)
    .bss$5                                   0x00400054   Data           0  ucppfini.o(.bss)
    dtor_rec                                 0x00400054   Data        2048  ucppfini.o(.bss)
    .bss                                     0x00400054   Section     2048  ucppfini.o(.bss)

    Global Symbols

    Symbol Name                              Value     Ov Type        Size  Object(Section)

    BuildAttributes$$THUMB_ISAv2$ARM_ISAv5$M$PE$A:L22$X:L11$S22$IEEE1$IW$USESV6$~STKCKD$USESV7$~SHL$OSPACE$IEEEJ$EBA8$UX$REQ8$PRES8$EABIv2 0x00000000   Number         0  anon$$obj.o ABSOLUTE
    #<DLL>QtContacts{00010103}[2002ac7a].dll#<\DLL>1  - Undefined Reference
    #<DLL>QtContacts{00010103}[2002ac7a].dll#<\DLL>100  - Undefined Reference
    #<DLL>QtContacts{00010103}[2002ac7a].dll#<\DLL>101  - Undefined Reference
    #<DLL>QtContacts{00010103}[2002ac7a].dll#<\DLL>102  - Undefined Reference
    #<DLL>QtContacts{00010103}[2002ac7a].dll#<\DLL>11f  - Undefined Reference
    #<DLL>QtContacts{00010103}[2002ac7a].dll#<\DLL>121  - Undefined Reference
    #<DLL>QtContacts{00010103}[2002ac7a].dll#<\DLL>124  - Undefined Reference
    #<DLL>QtContacts{00010103}[2002ac7a].dll#<\DLL>125  - Undefined Reference
    #<DLL>QtContacts{00010103}[2002ac7a].dll#<\DLL>126  - Undefined Reference
    #<DLL>QtContacts{00010103}[2002ac7a].dll#<\DLL>129  - Undefined Reference
    #<DLL>QtContacts{00010103}[2002ac7a].dll#<\DLL>12d  - Undefined Reference
    #<DLL>QtContacts{00010103}[2002ac7a].dll#<\DLL>135  - Undefined Reference
    #<DLL>QtContacts{00010103}[2002ac7a].dll#<\DLL>137  - Undefined Reference
    #<DLL>QtContacts{00010103}[2002ac7a].dll#<\DLL>138  - Undefined Reference
    #<DLL>QtContacts{00010103}[2002ac7a].dll#<\DLL>13b  - Undefined Reference
    #<DLL>QtContacts{00010103}[2002ac7a].dll#<\DLL>14d  - Undefined Reference
    #<DLL>QtContacts{00010103}[2002ac7a].dll#<\DLL>152  - Undefined Reference
    #<DLL>QtContacts{00010103}[2002ac7a].dll#<\DLL>154  - Undefined Reference
    #<DLL>QtContacts{00010103}[2002ac7a].dll#<\DLL>155  - Undefined Reference
    #<DLL>QtContacts{00010103}[2002ac7a].dll#<\DLL>157  - Undefined Reference
    #<DLL>QtContacts{00010103}[2002ac7a].dll#<\DLL>158  - Undefined Reference
    #<DLL>QtContacts{00010103}[2002ac7a].dll#<\DLL>159  - Undefined Reference
    #<DLL>QtContacts{00010103}[2002ac7a].dll#<\DLL>15b  - Undefined Reference
    #<DLL>QtContacts{00010103}[2002ac7a].dll#<\DLL>15d  - Undefined Reference
    #<DLL>QtContacts{00010103}[2002ac7a].dll#<\DLL>15f  - Undefined Reference
    #<DLL>QtContacts{00010103}[2002ac7a].dll#<\DLL>160  - Undefined Reference
    #<DLL>QtContacts{00010103}[2002ac7a].dll#<\DLL>161  - Undefined Reference
    #<DLL>QtContacts{00010103}[2002ac7a].dll#<\DLL>162  - Undefined Reference
    #<DLL>QtContacts{00010103}[2002ac7a].dll#<\DLL>193  - Undefined Reference
    #<DLL>QtContacts{00010103}[2002ac7a].dll#<\DLL>194  - Undefined Reference
    #<DLL>QtContacts{00010103}[2002ac7a].dll#<\DLL>195  - Undefined Reference
    #<DLL>QtContacts{00010103}[2002ac7a].dll#<\DLL>196  - Undefined Reference
    #<DLL>QtContacts{00010103}[2002ac7a].dll#<\DLL>197  - Undefined Reference
    #<DLL>QtContacts{00010103}[2002ac7a].dll#<\DLL>19a  - Undefined Reference
    #<DLL>QtContacts{00010103}[2002ac7a].dll#<\DLL>19c  - Undefined Reference
    #<DLL>QtContacts{00010103}[2002ac7a].dll#<\DLL>1a5  - Undefined Reference
    #<DLL>QtContacts{00010103}[2002ac7a].dll#<\DLL>1a8  - Undefined Reference
    #<DLL>QtContacts{00010103}[2002ac7a].dll#<\DLL>1a9  - Undefined Reference
    #<DLL>QtContacts{00010103}[2002ac7a].dll#<\DLL>1b0  - Undefined Reference
    #<DLL>QtContacts{00010103}[2002ac7a].dll#<\DLL>1be  - Undefined Reference
    #<DLL>QtContacts{00010103}[2002ac7a].dll#<\DLL>1bf  - Undefined Reference
    #<DLL>QtContacts{00010103}[2002ac7a].dll#<\DLL>1c0  - Undefined Reference
    #<DLL>QtContacts{00010103}[2002ac7a].dll#<\DLL>1c1  - Undefined Reference
    #<DLL>QtContacts{00010103}[2002ac7a].dll#<\DLL>1c2  - Undefined Reference
    #<DLL>QtContacts{00010103}[2002ac7a].dll#<\DLL>1c5  - Undefined Reference
    #<DLL>QtContacts{00010103}[2002ac7a].dll#<\DLL>1c7  - Undefined Reference
    #<DLL>QtContacts{00010103}[2002ac7a].dll#<\DLL>2  - Undefined Reference
    #<DLL>QtContacts{00010103}[2002ac7a].dll#<\DLL>200  - Undefined Reference
    #<DLL>QtContacts{00010103}[2002ac7a].dll#<\DLL>201  - Undefined Reference
    #<DLL>QtContacts{00010103}[2002ac7a].dll#<\DLL>202  - Undefined Reference
    #<DLL>QtContacts{00010103}[2002ac7a].dll#<\DLL>203  - Undefined Reference
    #<DLL>QtContacts{00010103}[2002ac7a].dll#<\DLL>204  - Undefined Reference
    #<DLL>QtContacts{00010103}[2002ac7a].dll#<\DLL>206  - Undefined Reference
    #<DLL>QtContacts{00010103}[2002ac7a].dll#<\DLL>207  - Undefined Reference
    #<DLL>QtContacts{00010103}[2002ac7a].dll#<\DLL>20a  - Undefined Reference
    #<DLL>QtContacts{00010103}[2002ac7a].dll#<\DLL>20c  - Undefined Reference
    #<DLL>QtContacts{00010103}[2002ac7a].dll#<\DLL>213  - Undefined Reference
    #<DLL>QtContacts{00010103}[2002ac7a].dll#<\DLL>214  - Undefined Reference
    #<DLL>QtContacts{00010103}[2002ac7a].dll#<\DLL>217  - Undefined Reference
    #<DLL>QtContacts{00010103}[2002ac7a].dll#<\DLL>218  - Undefined Reference
    #<DLL>QtContacts{00010103}[2002ac7a].dll#<\DLL>219  - Undefined Reference
    #<DLL>QtContacts{00010103}[2002ac7a].dll#<\DLL>21a  - Undefined Reference
    #<DLL>QtContacts{00010103}[2002ac7a].dll#<\DLL>21b  - Undefined Reference
    #<DLL>QtContacts{00010103}[2002ac7a].dll#<\DLL>21e  - Undefined Reference
    #<DLL>QtContacts{00010103}[2002ac7a].dll#<\DLL>21f  - Undefined Reference
    #<DLL>QtContacts{00010103}[2002ac7a].dll#<\DLL>220  - Undefined Reference
    #<DLL>QtContacts{00010103}[2002ac7a].dll#<\DLL>224  - Undefined Reference
    #<DLL>QtContacts{00010103}[2002ac7a].dll#<\DLL>225  - Undefined Reference
    #<DLL>QtContacts{00010103}[2002ac7a].dll#<\DLL>243  - Undefined Reference
    #<DLL>QtContacts{00010103}[2002ac7a].dll#<\DLL>244  - Undefined Reference
    #<DLL>QtContacts{00010103}[2002ac7a].dll#<\DLL>246  - Undefined Reference
    #<DLL>QtContacts{00010103}[2002ac7a].dll#<\DLL>247  - Undefined Reference
    #<DLL>QtContacts{00010103}[2002ac7a].dll#<\DLL>248  - Undefined Reference
    #<DLL>QtContacts{00010103}[2002ac7a].dll#<\DLL>249  - Undefined Reference
    #<DLL>QtContacts{00010103}[2002ac7a].dll#<\DLL>24a  - Undefined Reference
    #<DLL>QtContacts{00010103}[2002ac7a].dll#<\DLL>24b  - Undefined Reference
    #<DLL>QtContacts{00010103}[2002ac7a].dll#<\DLL>24e  - Undefined Reference
    #<DLL>QtContacts{00010103}[2002ac7a].dll#<\DLL>250  - Undefined Reference
    #<DLL>QtContacts{00010103}[2002ac7a].dll#<\DLL>251  - Undefined Reference
    #<DLL>QtContacts{00010103}[2002ac7a].dll#<\DLL>252  - Undefined Reference
    #<DLL>QtContacts{00010103}[2002ac7a].dll#<\DLL>253  - Undefined Reference
    #<DLL>QtContacts{00010103}[2002ac7a].dll#<\DLL>254  - Undefined Reference
    #<DLL>QtContacts{00010103}[2002ac7a].dll#<\DLL>256  - Undefined Reference
    #<DLL>QtContacts{00010103}[2002ac7a].dll#<\DLL>257  - Undefined Reference
    #<DLL>QtContacts{00010103}[2002ac7a].dll#<\DLL>259  - Undefined Reference
    #<DLL>QtContacts{00010103}[2002ac7a].dll#<\DLL>25a  - Undefined Reference
    #<DLL>QtContacts{00010103}[2002ac7a].dll#<\DLL>25b  - Undefined Reference
    #<DLL>QtContacts{00010103}[2002ac7a].dll#<\DLL>25c  - Undefined Reference
    #<DLL>QtContacts{00010103}[2002ac7a].dll#<\DLL>261  - Undefined Reference
    #<DLL>QtContacts{00010103}[2002ac7a].dll#<\DLL>266  - Undefined Reference
    #<DLL>QtContacts{00010103}[2002ac7a].dll#<\DLL>267  - Undefined Reference
    #<DLL>QtContacts{00010103}[2002ac7a].dll#<\DLL>268  - Undefined Reference
    #<DLL>QtContacts{00010103}[2002ac7a].dll#<\DLL>26b  - Undefined Reference
    #<DLL>QtContacts{00010103}[2002ac7a].dll#<\DLL>26d  - Undefined Reference
    #<DLL>QtContacts{00010103}[2002ac7a].dll#<\DLL>26e  - Undefined Reference
    #<DLL>QtContacts{00010103}[2002ac7a].dll#<\DLL>273  - Undefined Reference
    #<DLL>QtContacts{00010103}[2002ac7a].dll#<\DLL>27a  - Undefined Reference
    #<DLL>QtContacts{00010103}[2002ac7a].dll#<\DLL>27c  - Undefined Reference
    #<DLL>QtContacts{00010103}[2002ac7a].dll#<\DLL>281  - Undefined Reference
    #<DLL>QtContacts{00010103}[2002ac7a].dll#<\DLL>282  - Undefined Reference
    #<DLL>QtContacts{00010103}[2002ac7a].dll#<\DLL>28c  - Undefined Reference
    #<DLL>QtContacts{00010103}[2002ac7a].dll#<\DLL>28d  - Undefined Reference
    #<DLL>QtContacts{00010103}[2002ac7a].dll#<\DLL>28e  - Undefined Reference
    #<DLL>QtContacts{00010103}[2002ac7a].dll#<\DLL>28f  - Undefined Reference
    #<DLL>QtContacts{00010103}[2002ac7a].dll#<\DLL>292  - Undefined Reference
    #<DLL>QtContacts{00010103}[2002ac7a].dll#<\DLL>293  - Undefined Reference
    #<DLL>QtContacts{00010103}[2002ac7a].dll#<\DLL>294  - Undefined Reference
    #<DLL>QtContacts{00010103}[2002ac7a].dll#<\DLL>29a  - Undefined Reference
    #<DLL>QtContacts{00010103}[2002ac7a].dll#<\DLL>29e  - Undefined Reference
    #<DLL>QtContacts{00010103}[2002ac7a].dll#<\DLL>29f  - Undefined Reference
    #<DLL>QtContacts{00010103}[2002ac7a].dll#<\DLL>2a0  - Undefined Reference
    #<DLL>QtContacts{00010103}[2002ac7a].dll#<\DLL>2a2  - Undefined Reference
    #<DLL>QtContacts{00010103}[2002ac7a].dll#<\DLL>2a9  - Undefined Reference
    #<DLL>QtContacts{00010103}[2002ac7a].dll#<\DLL>2ab  - Undefined Reference
    #<DLL>QtContacts{00010103}[2002ac7a].dll#<\DLL>2b4  - Undefined Reference
    #<DLL>QtContacts{00010103}[2002ac7a].dll#<\DLL>2b5  - Undefined Reference
    #<DLL>QtContacts{00010103}[2002ac7a].dll#<\DLL>2b6  - Undefined Reference
    #<DLL>QtContacts{00010103}[2002ac7a].dll#<\DLL>2b7  - Undefined Reference
    #<DLL>QtContacts{00010103}[2002ac7a].dll#<\DLL>2b8  - Undefined Reference
    #<DLL>QtContacts{00010103}[2002ac7a].dll#<\DLL>2ba  - Undefined Reference
    #<DLL>QtContacts{00010103}[2002ac7a].dll#<\DLL>2bd  - Undefined Reference
    #<DLL>QtContacts{00010103}[2002ac7a].dll#<\DLL>3  - Undefined Reference
    #<DLL>QtContacts{00010103}[2002ac7a].dll#<\DLL>30  - Undefined Reference
    #<DLL>QtContacts{00010103}[2002ac7a].dll#<\DLL>31  - Undefined Reference
    #<DLL>QtContacts{00010103}[2002ac7a].dll#<\DLL>31d  - Undefined Reference
    #<DLL>QtContacts{00010103}[2002ac7a].dll#<\DLL>32  - Undefined Reference
    #<DLL>QtContacts{00010103}[2002ac7a].dll#<\DLL>33  - Undefined Reference
    #<DLL>QtContacts{00010103}[2002ac7a].dll#<\DLL>34  - Undefined Reference
    #<DLL>QtContacts{00010103}[2002ac7a].dll#<\DLL>35  - Undefined Reference
    #<DLL>QtContacts{00010103}[2002ac7a].dll#<\DLL>357  - Undefined Reference
    #<DLL>QtContacts{00010103}[2002ac7a].dll#<\DLL>37  - Undefined Reference
    #<DLL>QtContacts{00010103}[2002ac7a].dll#<\DLL>392  - Undefined Reference
    #<DLL>QtContacts{00010103}[2002ac7a].dll#<\DLL>3e  - Undefined Reference
    #<DLL>QtContacts{00010103}[2002ac7a].dll#<\DLL>4  - Undefined Reference
    #<DLL>QtContacts{00010103}[2002ac7a].dll#<\DLL>40  - Undefined Reference
    #<DLL>QtContacts{00010103}[2002ac7a].dll#<\DLL>45  - Undefined Reference
    #<DLL>QtContacts{00010103}[2002ac7a].dll#<\DLL>46  - Undefined Reference
    #<DLL>QtContacts{00010103}[2002ac7a].dll#<\DLL>4a  - Undefined Reference
    #<DLL>QtContacts{00010103}[2002ac7a].dll#<\DLL>7  - Undefined Reference
    #<DLL>QtContacts{00010103}[2002ac7a].dll#<\DLL>78  - Undefined Reference
    #<DLL>QtContacts{00010103}[2002ac7a].dll#<\DLL>93  - Undefined Reference
    #<DLL>QtContacts{00010103}[2002ac7a].dll#<\DLL>94  - Undefined Reference
    #<DLL>QtContacts{00010103}[2002ac7a].dll#<\DLL>96  - Undefined Reference
    #<DLL>QtContacts{00010103}[2002ac7a].dll#<\DLL>9a  - Undefined Reference
    #<DLL>QtContacts{00010103}[2002ac7a].dll#<\DLL>9b  - Undefined Reference
    #<DLL>QtContacts{00010103}[2002ac7a].dll#<\DLL>9e  - Undefined Reference
    #<DLL>QtContacts{00010103}[2002ac7a].dll#<\DLL>a0  - Undefined Reference
    #<DLL>QtContacts{00010103}[2002ac7a].dll#<\DLL>a1  - Undefined Reference
    #<DLL>QtContacts{00010103}[2002ac7a].dll#<\DLL>a3  - Undefined Reference
    #<DLL>QtContacts{00010103}[2002ac7a].dll#<\DLL>a4  - Undefined Reference
    #<DLL>QtContacts{00010103}[2002ac7a].dll#<\DLL>a7  - Undefined Reference
    #<DLL>QtContacts{00010103}[2002ac7a].dll#<\DLL>aa  - Undefined Reference
    #<DLL>QtContacts{00010103}[2002ac7a].dll#<\DLL>b1  - Undefined Reference
    #<DLL>QtContacts{00010103}[2002ac7a].dll#<\DLL>b4  - Undefined Reference
    #<DLL>QtContacts{00010103}[2002ac7a].dll#<\DLL>bb  - Undefined Reference
    #<DLL>QtContacts{00010103}[2002ac7a].dll#<\DLL>bc  - Undefined Reference
    #<DLL>QtContacts{00010103}[2002ac7a].dll#<\DLL>bf  - Undefined Reference
    #<DLL>QtContacts{00010103}[2002ac7a].dll#<\DLL>c1  - Undefined Reference
    #<DLL>QtContacts{00010103}[2002ac7a].dll#<\DLL>f9  - Undefined Reference
    #<DLL>QtContacts{00010103}[2002ac7a].dll#<\DLL>ff  - Undefined Reference
    #<DLL>QtCore{00040703}[2001b2dc].dll#<\DLL>112  - Undefined Reference
    #<DLL>QtCore{00040703}[2001b2dc].dll#<\DLL>113  - Undefined Reference
    #<DLL>QtCore{00040703}[2001b2dc].dll#<\DLL>11a  - Undefined Reference
    #<DLL>QtCore{00040703}[2001b2dc].dll#<\DLL>31  - Undefined Reference
    #<DLL>QtCore{00040703}[2001b2dc].dll#<\DLL>46  - Undefined Reference
    #<DLL>QtCore{00040703}[2001b2dc].dll#<\DLL>49  - Undefined Reference
    #<DLL>QtCore{00040703}[2001b2dc].dll#<\DLL>5d5  - Undefined Reference
    #<DLL>QtCore{00040703}[2001b2dc].dll#<\DLL>5f3  - Undefined Reference
    #<DLL>QtCore{00040703}[2001b2dc].dll#<\DLL>5f5  - Undefined Reference
    #<DLL>QtCore{00040703}[2001b2dc].dll#<\DLL>5f6  - Undefined Reference
    #<DLL>QtCore{00040703}[2001b2dc].dll#<\DLL>5fb  - Undefined Reference
    #<DLL>QtCore{00040703}[2001b2dc].dll#<\DLL>617  - Undefined Reference
    #<DLL>QtCore{00040703}[2001b2dc].dll#<\DLL>618  - Undefined Reference
    #<DLL>QtCore{00040703}[2001b2dc].dll#<\DLL>62e  - Undefined Reference
    #<DLL>QtCore{00040703}[2001b2dc].dll#<\DLL>6aa  - Undefined Reference
    #<DLL>QtCore{00040703}[2001b2dc].dll#<\DLL>6e0  - Undefined Reference
    #<DLL>QtCore{00040703}[2001b2dc].dll#<\DLL>6e3  - Undefined Reference
    #<DLL>QtCore{00040703}[2001b2dc].dll#<\DLL>6e4  - Undefined Reference
    #<DLL>QtCore{00040703}[2001b2dc].dll#<\DLL>6e6  - Undefined Reference
    #<DLL>QtCore{00040703}[2001b2dc].dll#<\DLL>6e7  - Undefined Reference
    #<DLL>QtCore{00040703}[2001b2dc].dll#<\DLL>6e8  - Undefined Reference
    #<DLL>QtCore{00040703}[2001b2dc].dll#<\DLL>6ed  - Undefined Reference
    #<DLL>QtCore{00040703}[2001b2dc].dll#<\DLL>6f1  - Undefined Reference
    #<DLL>QtCore{00040703}[2001b2dc].dll#<\DLL>6f8  - Undefined Reference
    #<DLL>QtCore{00040703}[2001b2dc].dll#<\DLL>6f9  - Undefined Reference
    #<DLL>QtCore{00040703}[2001b2dc].dll#<\DLL>6fd  - Undefined Reference
    #<DLL>QtCore{00040703}[2001b2dc].dll#<\DLL>702  - Undefined Reference
    #<DLL>QtCore{00040703}[2001b2dc].dll#<\DLL>716  - Undefined Reference
    #<DLL>QtCore{00040703}[2001b2dc].dll#<\DLL>721  - Undefined Reference
    #<DLL>QtCore{00040703}[2001b2dc].dll#<\DLL>722  - Undefined Reference
    #<DLL>QtCore{00040703}[2001b2dc].dll#<\DLL>726  - Undefined Reference
    #<DLL>QtCore{00040703}[2001b2dc].dll#<\DLL>727  - Undefined Reference
    #<DLL>QtCore{00040703}[2001b2dc].dll#<\DLL>729  - Undefined Reference
    #<DLL>QtCore{00040703}[2001b2dc].dll#<\DLL>72c  - Undefined Reference
    #<DLL>QtCore{00040703}[2001b2dc].dll#<\DLL>72e  - Undefined Reference
    #<DLL>QtCore{00040703}[2001b2dc].dll#<\DLL>731  - Undefined Reference
    #<DLL>QtCore{00040703}[2001b2dc].dll#<\DLL>73f  - Undefined Reference
    #<DLL>QtCore{00040703}[2001b2dc].dll#<\DLL>749  - Undefined Reference
    #<DLL>QtCore{00040703}[2001b2dc].dll#<\DLL>752  - Undefined Reference
    #<DLL>QtCore{00040703}[2001b2dc].dll#<\DLL>753  - Undefined Reference
    #<DLL>QtCore{00040703}[2001b2dc].dll#<\DLL>75d  - Undefined Reference
    #<DLL>QtCore{00040703}[2001b2dc].dll#<\DLL>79b  - Undefined Reference
    #<DLL>QtCore{00040703}[2001b2dc].dll#<\DLL>79d  - Undefined Reference
    #<DLL>QtCore{00040703}[2001b2dc].dll#<\DLL>7df  - Undefined Reference
    #<DLL>QtCore{00040703}[2001b2dc].dll#<\DLL>7e0  - Undefined Reference
    #<DLL>QtCore{00040703}[2001b2dc].dll#<\DLL>7e2  - Undefined Reference
    #<DLL>QtCore{00040703}[2001b2dc].dll#<\DLL>7e4  - Undefined Reference
    #<DLL>QtCore{00040703}[2001b2dc].dll#<\DLL>7f2  - Undefined Reference
    #<DLL>QtCore{00040703}[2001b2dc].dll#<\DLL>7f4  - Undefined Reference
    #<DLL>QtCore{00040703}[2001b2dc].dll#<\DLL>7f5  - Undefined Reference
    #<DLL>QtCore{00040703}[2001b2dc].dll#<\DLL>7f7  - Undefined Reference
    #<DLL>QtCore{00040703}[2001b2dc].dll#<\DLL>822  - Undefined Reference
    #<DLL>QtCore{00040703}[2001b2dc].dll#<\DLL>82d  - Undefined Reference
    #<DLL>QtCore{00040703}[2001b2dc].dll#<\DLL>83e  - Undefined Reference
    #<DLL>QtCore{00040703}[2001b2dc].dll#<\DLL>856  - Undefined Reference
    #<DLL>QtCore{00040703}[2001b2dc].dll#<\DLL>859  - Undefined Reference
    #<DLL>QtCore{00040703}[2001b2dc].dll#<\DLL>85d  - Undefined Reference
    #<DLL>QtCore{00040703}[2001b2dc].dll#<\DLL>85e  - Undefined Reference
    #<DLL>QtCore{00040703}[2001b2dc].dll#<\DLL>85f  - Undefined Reference
    #<DLL>QtCore{00040703}[2001b2dc].dll#<\DLL>88a  - Undefined Reference
    #<DLL>QtCore{00040703}[2001b2dc].dll#<\DLL>88c  - Undefined Reference
    #<DLL>QtCore{00040703}[2001b2dc].dll#<\DLL>88e  - Undefined Reference
    #<DLL>QtCore{00040703}[2001b2dc].dll#<\DLL>88f  - Undefined Reference
    #<DLL>QtCore{00040703}[2001b2dc].dll#<\DLL>891  - Undefined Reference
    #<DLL>QtCore{00040703}[2001b2dc].dll#<\DLL>895  - Undefined Reference
    #<DLL>QtCore{00040703}[2001b2dc].dll#<\DLL>90b  - Undefined Reference
    #<DLL>QtCore{00040703}[2001b2dc].dll#<\DLL>911  - Undefined Reference
    #<DLL>QtCore{00040703}[2001b2dc].dll#<\DLL>a0  - Undefined Reference
    #<DLL>QtCore{00040703}[2001b2dc].dll#<\DLL>b07  - Undefined Reference
    #<DLL>QtCore{00040703}[2001b2dc].dll#<\DLL>b19  - Undefined Reference
    #<DLL>QtCore{00040703}[2001b2dc].dll#<\DLL>b1b  - Undefined Reference
    #<DLL>QtCore{00040703}[2001b2dc].dll#<\DLL>b20  - Undefined Reference
    #<DLL>QtCore{00040703}[2001b2dc].dll#<\DLL>b43  - Undefined Reference
    #<DLL>QtCore{00040703}[2001b2dc].dll#<\DLL>b44  - Undefined Reference
    #<DLL>QtCore{00040703}[2001b2dc].dll#<\DLL>b45  - Undefined Reference
    #<DLL>QtCore{00040703}[2001b2dc].dll#<\DLL>bec  - Undefined Reference
    #<DLL>QtCore{00040703}[2001b2dc].dll#<\DLL>bed  - Undefined Reference
    #<DLL>QtCore{00040703}[2001b2dc].dll#<\DLL>bef  - Undefined Reference
    #<DLL>QtCore{00040703}[2001b2dc].dll#<\DLL>bf3  - Undefined Reference
    #<DLL>QtCore{00040703}[2001b2dc].dll#<\DLL>bf4  - Undefined Reference
    #<DLL>QtCore{00040703}[2001b2dc].dll#<\DLL>bf8  - Undefined Reference
    #<DLL>QtCore{00040703}[2001b2dc].dll#<\DLL>bff  - Undefined Reference
    #<DLL>QtCore{00040703}[2001b2dc].dll#<\DLL>c01  - Undefined Reference
    #<DLL>QtCore{00040703}[2001b2dc].dll#<\DLL>c13  - Undefined Reference
    #<DLL>QtCore{00040703}[2001b2dc].dll#<\DLL>c16  - Undefined Reference
    #<DLL>QtCore{00040703}[2001b2dc].dll#<\DLL>c19  - Undefined Reference
    #<DLL>QtCore{00040703}[2001b2dc].dll#<\DLL>c1a  - Undefined Reference
    #<DLL>QtCore{00040703}[2001b2dc].dll#<\DLL>c1d  - Undefined Reference
    #<DLL>QtCore{00040703}[2001b2dc].dll#<\DLL>c39  - Undefined Reference
    #<DLL>QtCore{00040703}[2001b2dc].dll#<\DLL>c3f  - Undefined Reference
    #<DLL>QtCore{00040703}[2001b2dc].dll#<\DLL>c42  - Undefined Reference
    #<DLL>QtCore{00040703}[2001b2dc].dll#<\DLL>c47  - Undefined Reference
    #<DLL>QtCore{00040703}[2001b2dc].dll#<\DLL>c57  - Undefined Reference
    #<DLL>QtCore{00040703}[2001b2dc].dll#<\DLL>c5b  - Undefined Reference
    #<DLL>QtCore{00040703}[2001b2dc].dll#<\DLL>c5d  - Undefined Reference
    #<DLL>QtCore{00040703}[2001b2dc].dll#<\DLL>c5e  - Undefined Reference
    #<DLL>QtCore{00040703}[2001b2dc].dll#<\DLL>e17  - Undefined Reference
    #<DLL>QtCore{00040703}[2001b2dc].dll#<\DLL>e18  - Undefined Reference
    #<DLL>QtCore{00040703}[2001b2dc].dll#<\DLL>e19  - Undefined Reference
    #<DLL>QtCore{00040703}[2001b2dc].dll#<\DLL>e1a  - Undefined Reference
    #<DLL>QtCore{00040703}[2001b2dc].dll#<\DLL>e69  - Undefined Reference
    #<DLL>QtCore{00040703}[2001b2dc].dll#<\DLL>e6b  - Undefined Reference
    #<DLL>QtGui{00040703}[2001b2dd].dll#<\DLL>164b  - Undefined Reference
    #<DLL>QtGui{00040703}[2001b2dd].dll#<\DLL>1665  - Undefined Reference
    #<DLL>QtGui{00040703}[2001b2dd].dll#<\DLL>1667  - Undefined Reference
    #<DLL>QtGui{00040703}[2001b2dd].dll#<\DLL>1674  - Undefined Reference
    #<DLL>QtGui{00040703}[2001b2dd].dll#<\DLL>179b  - Undefined Reference
    #<DLL>QtGui{00040703}[2001b2dd].dll#<\DLL>17af  - Undefined Reference
    #<DLL>QtGui{00040703}[2001b2dd].dll#<\DLL>264f  - Undefined Reference
    #<DLL>QtGui{00040703}[2001b2dd].dll#<\DLL>2652  - Undefined Reference
    #<DLL>QtGui{00040703}[2001b2dd].dll#<\DLL>265c  - Undefined Reference
    #<DLL>QtGui{00040703}[2001b2dd].dll#<\DLL>26fd  - Undefined Reference
    #<DLL>bafl{000a0000}[10003a0f].dll#<\DLL>101  - Undefined Reference
    #<DLL>bitmaptransforms{000a0000}[101f45ec].dll#<\DLL>2  - Undefined Reference
    #<DLL>bitmaptransforms{000a0000}[101f45ec].dll#<\DLL>3  - Undefined Reference
    #<DLL>centralrepository{000a0000}[101fbc70].dll#<\DLL>1  - Undefined Reference
    #<DLL>centralrepository{000a0000}[101fbc70].dll#<\DLL>3  - Undefined Reference
    #<DLL>centralrepository{000a0000}[101fbc70].dll#<\DLL>9  - Undefined Reference
    #<DLL>centralrepository{000a0000}[101fbc70].dll#<\DLL>e  - Undefined Reference
    #<DLL>cntmodel{000a0000}[10003a71].dll#<\DLL>110  - Undefined Reference
    #<DLL>cntmodel{000a0000}[10003a71].dll#<\DLL>112  - Undefined Reference
    #<DLL>cntmodel{000a0000}[10003a71].dll#<\DLL>119  - Undefined Reference
    #<DLL>cntmodel{000a0000}[10003a71].dll#<\DLL>11e  - Undefined Reference
    #<DLL>cntmodel{000a0000}[10003a71].dll#<\DLL>122  - Undefined Reference
    #<DLL>cntmodel{000a0000}[10003a71].dll#<\DLL>123  - Undefined Reference
    #<DLL>cntmodel{000a0000}[10003a71].dll#<\DLL>124  - Undefined Reference
    #<DLL>cntmodel{000a0000}[10003a71].dll#<\DLL>140  - Undefined Reference
    #<DLL>cntmodel{000a0000}[10003a71].dll#<\DLL>14a  - Undefined Reference
    #<DLL>cntmodel{000a0000}[10003a71].dll#<\DLL>14d  - Undefined Reference
    #<DLL>cntmodel{000a0000}[10003a71].dll#<\DLL>14f  - Undefined Reference
    #<DLL>cntmodel{000a0000}[10003a71].dll#<\DLL>165  - Undefined Reference
    #<DLL>cntmodel{000a0000}[10003a71].dll#<\DLL>168  - Undefined Reference
    #<DLL>cntmodel{000a0000}[10003a71].dll#<\DLL>17  - Undefined Reference
    #<DLL>cntmodel{000a0000}[10003a71].dll#<\DLL>179  - Undefined Reference
    #<DLL>cntmodel{000a0000}[10003a71].dll#<\DLL>186  - Undefined Reference
    #<DLL>cntmodel{000a0000}[10003a71].dll#<\DLL>187  - Undefined Reference
    #<DLL>cntmodel{000a0000}[10003a71].dll#<\DLL>188  - Undefined Reference
    #<DLL>cntmodel{000a0000}[10003a71].dll#<\DLL>18a  - Undefined Reference
    #<DLL>cntmodel{000a0000}[10003a71].dll#<\DLL>18c  - Undefined Reference
    #<DLL>cntmodel{000a0000}[10003a71].dll#<\DLL>18d  - Undefined Reference
    #<DLL>cntmodel{000a0000}[10003a71].dll#<\DLL>190  - Undefined Reference
    #<DLL>cntmodel{000a0000}[10003a71].dll#<\DLL>191  - Undefined Reference
    #<DLL>cntmodel{000a0000}[10003a71].dll#<\DLL>199  - Undefined Reference
    #<DLL>cntmodel{000a0000}[10003a71].dll#<\DLL>19e  - Undefined Reference
    #<DLL>cntmodel{000a0000}[10003a71].dll#<\DLL>1aa  - Undefined Reference
    #<DLL>cntmodel{000a0000}[10003a71].dll#<\DLL>1b1  - Undefined Reference
    #<DLL>cntmodel{000a0000}[10003a71].dll#<\DLL>1b5  - Undefined Reference
    #<DLL>cntmodel{000a0000}[10003a71].dll#<\DLL>1b6  - Undefined Reference
    #<DLL>cntmodel{000a0000}[10003a71].dll#<\DLL>1bb  - Undefined Reference
    #<DLL>cntmodel{000a0000}[10003a71].dll#<\DLL>1bc  - Undefined Reference
    #<DLL>cntmodel{000a0000}[10003a71].dll#<\DLL>1bd  - Undefined Reference
    #<DLL>cntmodel{000a0000}[10003a71].dll#<\DLL>1be  - Undefined Reference
    #<DLL>cntmodel{000a0000}[10003a71].dll#<\DLL>1c0  - Undefined Reference
    #<DLL>cntmodel{000a0000}[10003a71].dll#<\DLL>1c2  - Undefined Reference
    #<DLL>cntmodel{000a0000}[10003a71].dll#<\DLL>1ca  - Undefined Reference
    #<DLL>cntmodel{000a0000}[10003a71].dll#<\DLL>1cc  - Undefined Reference
    #<DLL>cntmodel{000a0000}[10003a71].dll#<\DLL>1d3  - Undefined Reference
    #<DLL>cntmodel{000a0000}[10003a71].dll#<\DLL>1d4  - Undefined Reference
    #<DLL>cntmodel{000a0000}[10003a71].dll#<\DLL>1d5  - Undefined Reference
    #<DLL>cntmodel{000a0000}[10003a71].dll#<\DLL>1f  - Undefined Reference
    #<DLL>cntmodel{000a0000}[10003a71].dll#<\DLL>263  - Undefined Reference
    #<DLL>cntmodel{000a0000}[10003a71].dll#<\DLL>50  - Undefined Reference
    #<DLL>cntmodel{000a0000}[10003a71].dll#<\DLL>51  - Undefined Reference
    #<DLL>cntmodel{000a0000}[10003a71].dll#<\DLL>55  - Undefined Reference
    #<DLL>cntmodel{000a0000}[10003a71].dll#<\DLL>6e  - Undefined Reference
    #<DLL>cntmodel{000a0000}[10003a71].dll#<\DLL>74  - Undefined Reference
    #<DLL>cntmodel{000a0000}[10003a71].dll#<\DLL>79  - Undefined Reference
    #<DLL>cntmodel{000a0000}[10003a71].dll#<\DLL>7a  - Undefined Reference
    #<DLL>cntmodel{000a0000}[10003a71].dll#<\DLL>80  - Undefined Reference
    #<DLL>cntmodel{000a0000}[10003a71].dll#<\DLL>82  - Undefined Reference
    #<DLL>cntmodel{000a0000}[10003a71].dll#<\DLL>84  - Undefined Reference
    #<DLL>cntmodel{000a0000}[10003a71].dll#<\DLL>85  - Undefined Reference
    #<DLL>cntmodel{000a0000}[10003a71].dll#<\DLL>88  - Undefined Reference
    #<DLL>cntmodel{000a0000}[10003a71].dll#<\DLL>a9  - Undefined Reference
    #<DLL>cntmodel{000a0000}[10003a71].dll#<\DLL>af  - Undefined Reference
    #<DLL>cntmodel{000a0000}[10003a71].dll#<\DLL>c1  - Undefined Reference
    #<DLL>cntmodel{000a0000}[10003a71].dll#<\DLL>c3  - Undefined Reference
    #<DLL>cntmodel{000a0000}[10003a71].dll#<\DLL>c9  - Undefined Reference
    #<DLL>cntmodel{000a0000}[10003a71].dll#<\DLL>d4  - Undefined Reference
    #<DLL>cntmodel{000a0000}[10003a71].dll#<\DLL>db  - Undefined Reference
    #<DLL>cntmodel{000a0000}[10003a71].dll#<\DLL>df  - Undefined Reference
    #<DLL>cntmodel{000a0000}[10003a71].dll#<\DLL>e0  - Undefined Reference
    #<DLL>dfpaeabi{000a0000}.dll#<\DLL>3      - Undefined Reference
    #<DLL>drtaeabi{000a0000}.dll#<\DLL>87     - Undefined Reference
    #<DLL>drtaeabi{000a0000}.dll#<\DLL>93     - Undefined Reference
    #<DLL>drtaeabi{000a0000}.dll#<\DLL>9b     - Undefined Reference
    #<DLL>drtaeabi{000a0000}.dll#<\DLL>9e     - Undefined Reference
    #<DLL>drtaeabi{000a0000}.dll#<\DLL>9f     - Undefined Reference
    #<DLL>drtaeabi{000a0000}.dll#<\DLL>b4     - Undefined Reference
    #<DLL>drtaeabi{000a0000}.dll#<\DLL>b6     - Undefined Reference
    #<DLL>drtaeabi{000a0000}.dll#<\DLL>b7     - Undefined Reference
    #<DLL>drtaeabi{000a0000}.dll#<\DLL>b8     - Undefined Reference
    #<DLL>drtaeabi{000a0000}.dll#<\DLL>ba     - Undefined Reference
    #<DLL>drtaeabi{000a0000}.dll#<\DLL>bb     - Undefined Reference
    #<DLL>drtaeabi{000a0000}.dll#<\DLL>bc     - Undefined Reference
    #<DLL>drtaeabi{000a0000}.dll#<\DLL>bd     - Undefined Reference
    #<DLL>drtaeabi{000a0000}.dll#<\DLL>be     - Undefined Reference
    #<DLL>drtrvct2_2{000a0000}.dll#<\DLL>1c   - Undefined Reference
    #<DLL>efsrv{000a0000}[100039e4].dll#<\DLL>44  - Undefined Reference
    #<DLL>efsrv{000a0000}[100039e4].dll#<\DLL>d6  - Undefined Reference
    #<DLL>estor{000a0000}[10003b0d].dll#<\DLL>1f3  - Undefined Reference
    #<DLL>estor{000a0000}[10003b0d].dll#<\DLL>60  - Undefined Reference
    #<DLL>estor{000a0000}[10003b0d].dll#<\DLL>d  - Undefined Reference
    #<DLL>estor{000a0000}[10003b0d].dll#<\DLL>fe  - Undefined Reference
    #<DLL>euser{000a0000}[100039e5].dll#<\DLL>101  - Undefined Reference
    #<DLL>euser{000a0000}[100039e5].dll#<\DLL>103  - Undefined Reference
    #<DLL>euser{000a0000}[100039e5].dll#<\DLL>106  - Undefined Reference
    #<DLL>euser{000a0000}[100039e5].dll#<\DLL>1a8  - Undefined Reference
    #<DLL>euser{000a0000}[100039e5].dll#<\DLL>1f9  - Undefined Reference
    #<DLL>euser{000a0000}[100039e5].dll#<\DLL>1fb  - Undefined Reference
    #<DLL>euser{000a0000}[100039e5].dll#<\DLL>1fc  - Undefined Reference
    #<DLL>euser{000a0000}[100039e5].dll#<\DLL>24a  - Undefined Reference
    #<DLL>euser{000a0000}[100039e5].dll#<\DLL>251  - Undefined Reference
    #<DLL>euser{000a0000}[100039e5].dll#<\DLL>25c  - Undefined Reference
    #<DLL>euser{000a0000}[100039e5].dll#<\DLL>269  - Undefined Reference
    #<DLL>euser{000a0000}[100039e5].dll#<\DLL>289  - Undefined Reference
    #<DLL>euser{000a0000}[100039e5].dll#<\DLL>28c  - Undefined Reference
    #<DLL>euser{000a0000}[100039e5].dll#<\DLL>28e  - Undefined Reference
    #<DLL>euser{000a0000}[100039e5].dll#<\DLL>29d  - Undefined Reference
    #<DLL>euser{000a0000}[100039e5].dll#<\DLL>29e  - Undefined Reference
    #<DLL>euser{000a0000}[100039e5].dll#<\DLL>29f  - Undefined Reference
    #<DLL>euser{000a0000}[100039e5].dll#<\DLL>330  - Undefined Reference
    #<DLL>euser{000a0000}[100039e5].dll#<\DLL>3b9  - Undefined Reference
    #<DLL>euser{000a0000}[100039e5].dll#<\DLL>3c6  - Undefined Reference
    #<DLL>euser{000a0000}[100039e5].dll#<\DLL>3cc  - Undefined Reference
    #<DLL>euser{000a0000}[100039e5].dll#<\DLL>3cd  - Undefined Reference
    #<DLL>euser{000a0000}[100039e5].dll#<\DLL>3eb  - Undefined Reference
    #<DLL>euser{000a0000}[100039e5].dll#<\DLL>3f2  - Undefined Reference
    #<DLL>euser{000a0000}[100039e5].dll#<\DLL>3f8  - Undefined Reference
    #<DLL>euser{000a0000}[100039e5].dll#<\DLL>440  - Undefined Reference
    #<DLL>euser{000a0000}[100039e5].dll#<\DLL>442  - Undefined Reference
    #<DLL>euser{000a0000}[100039e5].dll#<\DLL>443  - Undefined Reference
    #<DLL>euser{000a0000}[100039e5].dll#<\DLL>446  - Undefined Reference
    #<DLL>euser{000a0000}[100039e5].dll#<\DLL>45c  - Undefined Reference
    #<DLL>euser{000a0000}[100039e5].dll#<\DLL>491  - Undefined Reference
    #<DLL>euser{000a0000}[100039e5].dll#<\DLL>4de  - Undefined Reference
    #<DLL>euser{000a0000}[100039e5].dll#<\DLL>4e5  - Undefined Reference
    #<DLL>euser{000a0000}[100039e5].dll#<\DLL>51  - Undefined Reference
    #<DLL>euser{000a0000}[100039e5].dll#<\DLL>52c  - Undefined Reference
    #<DLL>euser{000a0000}[100039e5].dll#<\DLL>52e  - Undefined Reference
    #<DLL>euser{000a0000}[100039e5].dll#<\DLL>54b  - Undefined Reference
    #<DLL>euser{000a0000}[100039e5].dll#<\DLL>5cb  - Undefined Reference
    #<DLL>euser{000a0000}[100039e5].dll#<\DLL>60b  - Undefined Reference
    #<DLL>euser{000a0000}[100039e5].dll#<\DLL>611  - Undefined Reference
    #<DLL>euser{000a0000}[100039e5].dll#<\DLL>641  - Undefined Reference
    #<DLL>euser{000a0000}[100039e5].dll#<\DLL>642  - Undefined Reference
    #<DLL>euser{000a0000}[100039e5].dll#<\DLL>652  - Undefined Reference
    #<DLL>euser{000a0000}[100039e5].dll#<\DLL>656  - Undefined Reference
    #<DLL>euser{000a0000}[100039e5].dll#<\DLL>68e  - Undefined Reference
    #<DLL>euser{000a0000}[100039e5].dll#<\DLL>68f  - Undefined Reference
    #<DLL>euser{000a0000}[100039e5].dll#<\DLL>6b7  - Undefined Reference
    #<DLL>euser{000a0000}[100039e5].dll#<\DLL>70e  - Undefined Reference
    #<DLL>euser{000a0000}[100039e5].dll#<\DLL>70f  - Undefined Reference
    #<DLL>euser{000a0000}[100039e5].dll#<\DLL>715  - Undefined Reference
    #<DLL>euser{000a0000}[100039e5].dll#<\DLL>71d  - Undefined Reference
    #<DLL>euser{000a0000}[100039e5].dll#<\DLL>732  - Undefined Reference
    #<DLL>euser{000a0000}[100039e5].dll#<\DLL>734  - Undefined Reference
    #<DLL>euser{000a0000}[100039e5].dll#<\DLL>78  - Undefined Reference
    #<DLL>euser{000a0000}[100039e5].dll#<\DLL>80c  - Undefined Reference
    #<DLL>euser{000a0000}[100039e5].dll#<\DLL>80d  - Undefined Reference
    #<DLL>euser{000a0000}[100039e5].dll#<\DLL>822  - Undefined Reference
    #<DLL>euser{000a0000}[100039e5].dll#<\DLL>83a  - Undefined Reference
    #<DLL>euser{000a0000}[100039e5].dll#<\DLL>83b  - Undefined Reference
    #<DLL>euser{000a0000}[100039e5].dll#<\DLL>84b  - Undefined Reference
    #<DLL>euser{000a0000}[100039e5].dll#<\DLL>850  - Undefined Reference
    #<DLL>euser{000a0000}[100039e5].dll#<\DLL>ca  - Undefined Reference
    #<DLL>euser{000a0000}[100039e5].dll#<\DLL>cb  - Undefined Reference
    #<DLL>euser{000a0000}[100039e5].dll#<\DLL>cd  - Undefined Reference
    #<DLL>euser{000a0000}[100039e5].dll#<\DLL>d0  - Undefined Reference
    #<DLL>euser{000a0000}[100039e5].dll#<\DLL>d1  - Undefined Reference
    #<DLL>euser{000a0000}[100039e5].dll#<\DLL>d3  - Undefined Reference
    #<DLL>euser{000a0000}[100039e5].dll#<\DLL>f1  - Undefined Reference
    #<DLL>euser{000a0000}[100039e5].dll#<\DLL>f7  - Undefined Reference
    #<DLL>euser{000a0000}[100039e5].dll#<\DLL>fa  - Undefined Reference
    #<DLL>euser{000a0000}[100039e5].dll#<\DLL>fe  - Undefined Reference
    #<DLL>fbscli{000a0000}[10003a15].dll#<\DLL>1a  - Undefined Reference
    #<DLL>fbscli{000a0000}[10003a15].dll#<\DLL>1f  - Undefined Reference
    #<DLL>imageconversion{000a0000}[101f45ad].dll#<\DLL>12a  - Undefined Reference
    #<DLL>imageconversion{000a0000}[101f45ad].dll#<\DLL>24  - Undefined Reference
    #<DLL>imageconversion{000a0000}[101f45ad].dll#<\DLL>3b  - Undefined Reference
    #<DLL>imageconversion{000a0000}[101f45ad].dll#<\DLL>3c  - Undefined Reference
    #<DLL>libc{00010000}[10207369].dll#<\DLL>15e  - Undefined Reference
    #<DLL>libstdcpp{00010000}[10282872].dll#<\DLL>3dc  - Undefined Reference
    #<DLL>libstdcpp{00010000}[10282872].dll#<\DLL>3e0  - Undefined Reference
    #<DLL>tzclient{000a0000}[1020383d].dll#<\DLL>1  - Undefined Reference
    #<DLL>tzclient{000a0000}[1020383d].dll#<\DLL>12  - Undefined Reference
    #<DLL>tzclient{000a0000}[1020383d].dll#<\DLL>14  - Undefined Reference
    #<DLL>tzclient{000a0000}[1020383d].dll#<\DLL>15  - Undefined Reference
    #<DLL>tzclient{000a0000}[1020383d].dll#<\DLL>17  - Undefined Reference
    #<DLL>tzclient{000a0000}[1020383d].dll#<\DLL>5  - Undefined Reference
    QtMobility::QContactTag::DefinitionName   - Undefined Reference
    QtMobility::QContactUrl::FieldSubType     - Undefined Reference
    QtMobility::QContactUrl::DefinitionName   - Undefined Reference
    QtMobility::QContactUrl::SubTypeHomePage  - Undefined Reference
    QtMobility::QContactUrl::SubTypeFavourite  - Undefined Reference
    QtMobility::QContactUrl::FieldUrl         - Undefined Reference
    QtMobility::QContactGuid::DefinitionName  - Undefined Reference
    QtMobility::QContactGuid::FieldGuid       - Undefined Reference
    QtMobility::QContactName::FieldPrefix     - Undefined Reference
    QtMobility::QContactName::FieldSuffix     - Undefined Reference
    QtMobility::QContactName::FieldLastName   - Undefined Reference
    QtMobility::QContactName::DefinitionName  - Undefined Reference
    QtMobility::QContactName::FieldFirstName  - Undefined Reference
    QtMobility::QContactName::FieldMiddleName  - Undefined Reference
    QtMobility::QContactName::FieldCustomLabel  - Undefined Reference
    QtMobility::QContactNote::DefinitionName  - Undefined Reference
    QtMobility::QContactNote::FieldNote       - Undefined Reference
    QtMobility::QContactType::TypeContact     - Undefined Reference
    QtMobility::QContactType::DefinitionName  - Undefined Reference
    QtMobility::QContactType::FieldType       - Undefined Reference
    QtMobility::QContactType::TypeGroup       - Undefined Reference
    QtMobility::QContactAvatar::FieldImageUrl  - Undefined Reference
    QtMobility::QContactAvatar::FieldVideoUrl  - Undefined Reference
    QtMobility::QContactAvatar::DefinitionName  - Undefined Reference
    QtMobility::QContactDetail::ContextHome   - Undefined Reference
    QtMobility::QContactDetail::ContextWork   - Undefined Reference
    QtMobility::QContactDetail::FieldContext  - Undefined Reference
    QtMobility::QContactDetail::FieldDetailUri  - Undefined Reference
    QtMobility::QContactDetail::FieldLinkedDetailUris  - Undefined Reference
    QtMobility::QContactFamily::FieldSpouse   - Undefined Reference
    QtMobility::QContactFamily::FieldChildren  - Undefined Reference
    QtMobility::QContactFamily::DefinitionName  - Undefined Reference
    QtMobility::QContactGender::GenderMale    - Undefined Reference
    QtMobility::QContactGender::FieldGender   - Undefined Reference
    QtMobility::QContactGender::GenderFemale  - Undefined Reference
    QtMobility::QContactGender::DefinitionName  - Undefined Reference
    QtMobility::QContactGender::GenderUnspecified  - Undefined Reference
    QtMobility::QContactAddress::FieldRegion  - Undefined Reference
    QtMobility::QContactAddress::FieldStreet  - Undefined Reference
    QtMobility::QContactAddress::FieldCountry  - Undefined Reference
    QtMobility::QContactAddress::FieldLocality  - Undefined Reference
    QtMobility::QContactAddress::FieldPostcode  - Undefined Reference
    QtMobility::QContactAddress::FieldSubTypes  - Undefined Reference
    QtMobility::QContactAddress::SubTypeParcel  - Undefined Reference
    QtMobility::QContactAddress::SubTypePostal  - Undefined Reference
    QtMobility::QContactAddress::DefinitionName  - Undefined Reference
    QtMobility::QContactAddress::SubTypeDomestic  - Undefined Reference
    QtMobility::QContactAddress::FieldPostOfficeBox  - Undefined Reference
    QtMobility::QContactAddress::SubTypeInternational  - Undefined Reference
    QtMobility::QContactBirthday::FieldBirthday  - Undefined Reference
    QtMobility::QContactBirthday::DefinitionName  - Undefined Reference
    QtMobility::QContactFavorite::FieldFavorite  - Undefined Reference
    QtMobility::QContactFavorite::DefinitionName  - Undefined Reference
    QtMobility::QContactNickname::FieldNickname  - Undefined Reference
    QtMobility::QContactNickname::DefinitionName  - Undefined Reference
    QtMobility::QContactPresence::DefinitionName  - Undefined Reference
    QtMobility::QContactRingtone::DefinitionName  - Undefined Reference
    QtMobility::QContactRingtone::FieldAudioRingtoneUrl  - Undefined Reference
    QtMobility::QContactRingtone::FieldVideoRingtoneUrl  - Undefined Reference
    QtMobility::QContactRingtone::FieldVibrationRingtoneUrl  - Undefined Reference
    QtMobility::QContactThumbnail::DefinitionName  - Undefined Reference
    QtMobility::QContactThumbnail::FieldThumbnail  - Undefined Reference
    QtMobility::QContactTimestamp::DefinitionName  - Undefined Reference
    QtMobility::QContactTimestamp::FieldCreationTimestamp  - Undefined Reference
    QtMobility::QContactTimestamp::FieldModificationTimestamp  - Undefined Reference
    QtMobility::QContactSyncTarget::DefinitionName  - Undefined Reference
    QtMobility::QContactSyncTarget::FieldSyncTarget  - Undefined Reference
    QtMobility::QContactAnniversary::FieldEvent  - Undefined Reference
    QtMobility::QContactAnniversary::FieldSubType  - Undefined Reference
    QtMobility::QContactAnniversary::SubTypeHouse  - Undefined Reference
    QtMobility::QContactAnniversary::DefinitionName  - Undefined Reference
    QtMobility::QContactAnniversary::SubTypeWedding  - Undefined Reference
    QtMobility::QContactAnniversary::FieldCalendarId  - Undefined Reference
    QtMobility::QContactAnniversary::SubTypeMemorial  - Undefined Reference
    QtMobility::QContactAnniversary::FieldOriginalDate  - Undefined Reference
    QtMobility::QContactAnniversary::SubTypeEmployment  - Undefined Reference
    QtMobility::QContactAnniversary::SubTypeEngagement  - Undefined Reference
    QtMobility::QContactGeoLocation::FieldLabel  - Undefined Reference
    QtMobility::QContactGeoLocation::FieldSpeed  - Undefined Reference
    QtMobility::QContactGeoLocation::FieldHeading  - Undefined Reference
    QtMobility::QContactGeoLocation::FieldAccuracy  - Undefined Reference
    QtMobility::QContactGeoLocation::FieldAltitude  - Undefined Reference
    QtMobility::QContactGeoLocation::FieldLatitude  - Undefined Reference
    QtMobility::QContactGeoLocation::DefinitionName  - Undefined Reference
    QtMobility::QContactGeoLocation::FieldLongitude  - Undefined Reference
    QtMobility::QContactGeoLocation::FieldTimestamp  - Undefined Reference
    QtMobility::QContactGeoLocation::FieldAltitudeAccuracy  - Undefined Reference
    QtMobility::QContactPhoneNumber::SubTypeCar  - Undefined Reference
    QtMobility::QContactPhoneNumber::SubTypeFax  - Undefined Reference
    QtMobility::QContactPhoneNumber::FieldNumber  - Undefined Reference
    QtMobility::QContactPhoneNumber::SubTypeModem  - Undefined Reference
    QtMobility::QContactPhoneNumber::SubTypePager  - Undefined Reference
    QtMobility::QContactPhoneNumber::SubTypeVideo  - Undefined Reference
    QtMobility::QContactPhoneNumber::SubTypeVoice  - Undefined Reference
    QtMobility::QContactPhoneNumber::FieldSubTypes  - Undefined Reference
    QtMobility::QContactPhoneNumber::SubTypeMobile  - Undefined Reference
    QtMobility::QContactPhoneNumber::DefinitionName  - Undefined Reference
    QtMobility::QContactPhoneNumber::SubTypeDtmfMenu  - Undefined Reference
    QtMobility::QContactPhoneNumber::SubTypeLandline  - Undefined Reference
    QtMobility::QContactPhoneNumber::SubTypeAssistant  - Undefined Reference
    QtMobility::QContactPhoneNumber::SubTypeMessagingCapable  - Undefined Reference
    QtMobility::QContactPhoneNumber::SubTypeBulletinBoardSystem  - Undefined Reference
    QtMobility::QContactDisplayLabel::DefinitionName  - Undefined Reference
    QtMobility::QContactEmailAddress::DefinitionName  - Undefined Reference
    QtMobility::QContactEmailAddress::FieldEmailAddress  - Undefined Reference
    QtMobility::QContactOrganization::FieldTitle  - Undefined Reference
    QtMobility::QContactOrganization::FieldLogoUrl  - Undefined Reference
    QtMobility::QContactOrganization::FieldLocation  - Undefined Reference
    QtMobility::QContactOrganization::DefinitionName  - Undefined Reference
    QtMobility::QContactOrganization::FieldDepartment  - Undefined Reference
    QtMobility::QContactOrganization::FieldAssistantName  - Undefined Reference
    QtMobility::QContactOrganization::FieldName  - Undefined Reference
    QtMobility::QContactRelationship::HasMember  - Undefined Reference
    QtMobility::QContactManagerEngine::staticMetaObject  - Undefined Reference
    QtMobility::QContactOnlineAccount::SubTypeSip  - Undefined Reference
    QtMobility::QContactOnlineAccount::FieldSubTypes  - Undefined Reference
    QtMobility::QContactOnlineAccount::DefinitionName  - Undefined Reference
    QtMobility::QContactOnlineAccount::SubTypeSipVoip  - Undefined Reference
    QtMobility::QContactOnlineAccount::FieldAccountUri  - Undefined Reference
    QtMobility::QContactOnlineAccount::FieldCapabilities  - Undefined Reference
    QtMobility::QContactOnlineAccount::SubTypeVideoShare  - Undefined Reference
    QtMobility::QContactOnlineAccount::FieldServiceProvider  - Undefined Reference
    QtMobility::QContactGlobalPresence::DefinitionName  - Undefined Reference
    QObject::staticMetaObject                 - Undefined Reference
    QString::shared_null                      - Undefined Reference
    QMapData::shared_null                     - Undefined Reference
    QVariant::handler                         - Undefined Reference
    QHashData::shared_null                    - Undefined Reference
    QListData::shared_null                    - Undefined Reference
    typeinfo for CArrayFixBase                - Undefined Reference
    typeinfo for CArrayFixFlat<TUid>          - Undefined Reference
    typeinfo for XLeaveException              - Undefined Reference
    typeinfo for CActive                      - Undefined Reference
    typeinfo for QObject                      - Undefined Reference
    typeinfo for QtMobility::QContactManagerEngine  - Undefined Reference
    typeinfo for QtMobility::QContactManagerEngineFactory  - Undefined Reference
    typeinfo for std::exception               - Undefined Reference
    vtable for __cxxabiv1::__class_type_info  - Undefined Reference
    vtable for __cxxabiv1::__si_class_type_info  - Undefined Reference
    vtable for __cxxabiv1::__vmi_class_type_info  - Undefined Reference
    _fp_init                                  - Undefined Weak Reference
    Image$$ER_RO$$Base                       0x00008000   Number         0  anon$$obj.o(linker$$defined$$symbols)
    _E32Dll                                  0x00008000   ARM Code      40  uc_dll_.o(.emb_text)
    Symbian$$CPP$$Exception$$Descriptor      0x00008014   Data           0  uc_dll_.o(.emb_text)
    __cpp_initialize__aeabi_                 0x00008028   ARM Code      72  ucppinit_aeabi.o(.emb_text)
    CntSymbianEngine::getStaticMetaObject()  0x00008071   Thumb Code     4  qtcontacts_symbian.in(.text)
    std::nothrow                             0x00008071   Thumb Code     0  ucppinit_aeabi.o(.emb_text)
    CntSymbianEngine::metaObject() const     0x00008075   Thumb Code    12  qtcontacts_symbian.in(.text)
    CntSymbianEngine::qt_metacast(const char*) 0x00008081   Thumb Code    40  qtcontacts_symbian.in(.text)
    CntSymbianEngine::qt_metacall(QMetaObject::Call, int, void**) 0x000080a9   Thumb Code    34  qtcontacts_symbian.in(.text)
    CntSymbianFactory::getStaticMetaObject() 0x000080cb   Thumb Code     6  qtcontacts_symbian.in(.text)
    CntSymbianFactory::metaObject() const    0x000080d1   Thumb Code    14  qtcontacts_symbian.in(.text)
    CntSymbianFactory::qt_metacast(const char*) 0x000080df   Thumb Code    72  qtcontacts_symbian.in(.text)
    CntSymbianFactory::qt_metacall(QMetaObject::Call, int, void**) 0x00008127   Thumb Code     8  qtcontacts_symbian.in(.text)
    CntSymbianDatabase::getStaticMetaObject() 0x00008189   Thumb Code     4  qtcontacts_symbian.in(.text)
    CntSymbianDatabase::metaObject() const   0x0000818d   Thumb Code    12  qtcontacts_symbian.in(.text)
    CntSymbianDatabase::qt_metacast(const char*) 0x00008199   Thumb Code    58  qtcontacts_symbian.in(.text)
    CntSymbianDatabase::qt_metacall(QMetaObject::Call, int, void**) 0x000081d3   Thumb Code     8  qtcontacts_symbian.in(.text)
    CntDisplayLabel::getStaticMetaObject()   0x000081f5   Thumb Code     4  qtcontacts_symbian.in(.text)
    CntDisplayLabel::metaObject() const      0x000081f9   Thumb Code    12  qtcontacts_symbian.in(.text)
    CntDisplayLabel::qt_metacast(const char*) 0x00008205   Thumb Code    58  qtcontacts_symbian.in(.text)
    CntDisplayLabel::displayLabelChanged()   0x0000823f   Thumb Code    14  qtcontacts_symbian.in(.text)
    CntDisplayLabel::qt_metacall(QMetaObject::Call, int, void**) 0x0000824d   Thumb Code    34  qtcontacts_symbian.in(.text)
    CntTransformContactData::getStaticMetaObject() 0x00008285   Thumb Code     4  qtcontacts_symbian.in(.text)
    CntTransformContactData::metaObject() const 0x00008289   Thumb Code    12  qtcontacts_symbian.in(.text)
    CntTransformContactData::qt_metacast(const char*) 0x00008295   Thumb Code    40  qtcontacts_symbian.in(.text)
    CntTransformContactData::qt_metacall(QMetaObject::Call, int, void**) 0x000082bd   Thumb Code     8  qtcontacts_symbian.in(.text)
    CntDbInfo::getStaticMetaObject()         0x000082c9   Thumb Code     4  qtcontacts_symbian.in(.text)
    CntDbInfo::metaObject() const            0x000082cd   Thumb Code    12  qtcontacts_symbian.in(.text)
    CntDbInfo::qt_metacast(const char*)      0x000082d9   Thumb Code    40  qtcontacts_symbian.in(.text)
    CntDbInfo::qt_metacall(QMetaObject::Call, int, void**) 0x00008301   Thumb Code     8  qtcontacts_symbian.in(.text)
    qt_plugin_query_verification_data        0x0000830d   Thumb Code     4  qtcontacts_symbian.in(.text)
    qt_plugin_instance                       0x00008311   Thumb Code   110  qtcontacts_symbian.in(.text)
    CntSymbianEngine::CntSymbianEngine(const QMap<QString, QString>&, QtMobility::QContactManager::Error*) 0x0000837f   Thumb Code   324  qtcontacts_symbian.in(.text)
    CntSymbianEngine::CntSymbianEngine__sub_object(const QMap<QString, QString>&, QtMobility::QContactManager::Error*) 0x0000837f   Thumb Code     0  qtcontacts_symbian.in(.text)
    CntSymbianEngine::~CntSymbianEngine()    0x000084c3   Thumb Code   118  qtcontacts_symbian.in(.text)
    CntSymbianEngine::~CntSymbianEngine__sub_object() 0x000084c3   Thumb Code     0  qtcontacts_symbian.in(.text)
    CntSymbianEngine::~CntSymbianEngine__deallocating() 0x00008539   Thumb Code    16  qtcontacts_symbian.in(.text)
    CntSymbianEngine::managerName() const    0x00008549   Thumb Code    10  qtcontacts_symbian.in(.text)
    CntSymbianEngine::saveRelationship(QtMobility::QContactRelationship*, QtMobility::QContactManager::Error*) 0x00008553   Thumb Code    38  qtcontacts_symbian.in(.text)
    CntSymbianEngine::removeRelationship(const QtMobility::QContactRelationship&, QtMobility::QContactManager::Error*) 0x00008579   Thumb Code    38  qtcontacts_symbian.in(.text)
    CntSymbianEngine::updateDisplayLabel(QtMobility::QContact&) const 0x0000859f   Thumb Code    44  qtcontacts_symbian.in(.text)
    CntSymbianEngine::updateContactL(QtMobility::QContact&) 0x000085cb   Thumb Code   374  qtcontacts_symbian.in(.text)
    CntSymbianEngine::addContactL(QtMobility::QContact&) 0x00008741   Thumb Code   306  qtcontacts_symbian.in(.text)
    CntSymbianEngine::addContact(QtMobility::QContact&, QtMobility::QContactChangeSet&, QtMobility::QContactManager::Error*) 0x00008873   Thumb Code    84  qtcontacts_symbian.in(.text)
    CntSymbianEngine::updateContact(QtMobility::QContact&, QtMobility::QContactChangeSet&, QtMobility::QContactManager::Error*) 0x000088c7   Thumb Code    84  qtcontacts_symbian.in(.text)
    CntSymbianEngine::doSaveContact(QtMobility::QContact*, QtMobility::QContactChangeSet&, QtMobility::QContactManager::Error*) 0x0000891b   Thumb Code   604  qtcontacts_symbian.in(.text)
    CntSymbianEngine::saveContact(QtMobility::QContact*, QtMobility::QContactManager::Error*) 0x00008b77   Thumb Code    46  qtcontacts_symbian.in(.text)
    CntSymbianEngine::removeContactL(unsigned) 0x00008ba5   Thumb Code    28  qtcontacts_symbian.in(.text)
    CntSymbianEngine::removeContact(const unsigned&, QtMobility::QContactChangeSet&, QtMobility::QContactManager::Error*) 0x00008bc1   Thumb Code    78  qtcontacts_symbian.in(.text)
    CntSymbianEngine::removeContact(const unsigned&, QtMobility::QContactManager::Error*) 0x00008c0f   Thumb Code    54  qtcontacts_symbian.in(.text)
    CntSymbianEngine::slowSort(const QList<unsigned>&, QList<QtMobility::QContactSortOrder>&, QtMobility::QContactManager::Error*) const 0x00008c45   Thumb Code   162  qtcontacts_symbian.in(.text)
    CntSymbianEngine::slowFilter(const QtMobility::QContactFilter&, const QList<unsigned>&, QtMobility::QContactManager::Error*) const 0x00008ce7   Thumb Code   138  qtcontacts_symbian.in(.text)
    CntSymbianEngine::contactIds(const QtMobility::QContactFilter&, const QList<QtMobility::QContactSortOrder>&, QtMobility::QContactManager::Error*) const 0x00008d71   Thumb Code   204  qtcontacts_symbian.in(.text)
    CntSymbianEngine::contacts(const QtMobility::QContactFilter&, const QList<QtMobility::QContactSortOrder>&, const QtMobility::QContactFetchHint&, QtMobility::QContactManager::Error*) const 0x00008e3d   Thumb Code   442  qtcontacts_symbian.in(.text)
    CntSymbianEngine::fetchContactL(const unsigned&, const QStringList&) const 0x00008ff7   Thumb Code   430  qtcontacts_symbian.in(.text)
    CntSymbianEngine::contact(const unsigned&, const QtMobility::QContactFetchHint&, QtMobility::QContactManager::Error*) const 0x000091a5   Thumb Code   344  qtcontacts_symbian.in(.text)
    CntSymbianEngine::saveContacts(QList<QtMobility::QContact>*, QMap<int, QtMobility::QContactManager::Error>*, QtMobility::QContactManager::Error*) 0x000092fd   Thumb Code   188  qtcontacts_symbian.in(.text)
    CntSymbianEngine::removeContacts(const QList<unsigned>&, QMap<int, QtMobility::QContactManager::Error>*, QtMobility::QContactManager::Error*) 0x000093b9   Thumb Code   226  qtcontacts_symbian.in(.text)
    CntSymbianEngine::synthesizedDisplayLabel(const QtMobility::QContact&, QtMobility::QContactManager::Error*) const 0x0000949b   Thumb Code    14  qtcontacts_symbian.in(.text)
    CntSymbianEngine::setSelfContactId(const unsigned&, QtMobility::QContactManager::Error*) 0x000094a9   Thumb Code   120  qtcontacts_symbian.in(.text)
    CntSymbianEngine::selfContactId(QtMobility::QContactManager::Error*) const 0x00009521   Thumb Code    36  qtcontacts_symbian.in(.text)
    CntSymbianEngine::relationships(const QString&, const QtMobility::QContactId&, QtMobility::QContactRelationship::Role, QtMobility::QContactManager::Error*) const 0x00009545   Thumb Code    24  qtcontacts_symbian.in(.text)
    CntSymbianEngine::saveRelationships(QList<QtMobility::QContactRelationship>*, QMap<int, QtMobility::QContactManager::Error>*, QtMobility::QContactManager::Error*) 0x0000955d   Thumb Code    52  qtcontacts_symbian.in(.text)
    CntSymbianEngine::removeRelationships(const QList<QtMobility::QContactRelationship>&, QMap<int, QtMobility::QContactManager::Error>*, QtMobility::QContactManager::Error*) 0x00009591   Thumb Code    42  qtcontacts_symbian.in(.text)
    CntSymbianEngine::detailDefinitions(const QString&, QtMobility::QContactManager::Error*) const 0x000095bb   Thumb Code   192  qtcontacts_symbian.in(.text)
    CntSymbianEngine::hasFeature(QtMobility::QContactManager::ManagerFeature, const QString&) const 0x0000967b   Thumb Code    54  qtcontacts_symbian.in(.text)
    CntSymbianEngine::isRelationshipTypeSupported(const QString&, const QString&) const 0x000096b1   Thumb Code    10  qtcontacts_symbian.in(.text)
    CntSymbianEngine::isFilterSupported(const QtMobility::QContactFilter&) const 0x000096bb   Thumb Code     8  qtcontacts_symbian.in(.text)
    CntSymbianEngine::supportedDataTypes() const 0x000096c3   Thumb Code    26  qtcontacts_symbian.in(.text)
    CntSymbianEngine::requestDestroyed(QtMobility::QContactAbstractRequest*) 0x000096dd   Thumb Code    12  qtcontacts_symbian.in(.text)
    CntSymbianEngine::startRequest(QtMobility::QContactAbstractRequest*) 0x000096e9   Thumb Code   140  qtcontacts_symbian.in(.text)
    CntSymbianEngine::cancelRequest(QtMobility::QContactAbstractRequest*) 0x00009775   Thumb Code    14  qtcontacts_symbian.in(.text)
    CntSymbianEngine::performAsynchronousOperation() 0x00009783   Thumb Code  1464  qtcontacts_symbian.in(.text)
    CntSymbianEngine::waitForRequestProgress(QtMobility::QContactAbstractRequest*, int) 0x00009d3b   Thumb Code    80  qtcontacts_symbian.in(.text)
    CntSymbianEngine::waitForRequestFinished(QtMobility::QContactAbstractRequest*, int) 0x00009d8b   Thumb Code     2  qtcontacts_symbian.in(.text)
    CntSymbianFactory::engine(const QMap<QString, QString>&, QtMobility::QContactManager::Error*) 0x00009d8d   Thumb Code    32  qtcontacts_symbian.in(.text)
    thunk{-8} to CntSymbianFactory::engine(const QMap<QString, QString>&, QtMobility::QContactManager::Error*) 0x00009dad   Thumb Code     4  qtcontacts_symbian.in(.text)
    CntSymbianFactory::managerName() const   0x00009db1   Thumb Code    10  qtcontacts_symbian.in(.text)
    thunk{-8} to CntSymbianFactory::managerName() const 0x00009dbb   Thumb Code     4  qtcontacts_symbian.in(.text)
    CntAbstractRelationship::CntAbstractRelationship__sub_object(CContactDatabase*, const QString&, const QString&) 0x00009f09   Thumb Code    36  qtcontacts_symbian.in(.text)
    CntAbstractRelationship::~CntAbstractRelationship() 0x00009f2d   Thumb Code     0  qtcontacts_symbian.in(.text)
    CntAbstractRelationship::~CntAbstractRelationship__sub_object() 0x00009f2d   Thumb Code    26  qtcontacts_symbian.in(.text)
    CntAbstractRelationship::~CntAbstractRelationship__deallocating() 0x00009f47   Thumb Code    16  qtcontacts_symbian.in(.text)
    CntAbstractRelationship::relationshipType() const 0x00009f57   Thumb Code    10  qtcontacts_symbian.in(.text)
    CntAbstractRelationship::database()      0x00009f61   Thumb Code     4  qtcontacts_symbian.in(.text)
    CntAbstractRelationship::managerUri()    0x00009f65   Thumb Code    10  qtcontacts_symbian.in(.text)
    CntRelationshipGroup::CntRelationshipGroup(CContactDatabase*, const QString&) 0x00009f75   Thumb Code    46  qtcontacts_symbian.in(.text)
    CntRelationshipGroup::CntRelationshipGroup__sub_object(CContactDatabase*, const QString&) 0x00009f75   Thumb Code     0  qtcontacts_symbian.in(.text)
    CntRelationshipGroup::~CntRelationshipGroup() 0x00009fa3   Thumb Code     8  qtcontacts_symbian.in(.text)
    CntRelationshipGroup::~CntRelationshipGroup__sub_object() 0x00009fa3   Thumb Code     0  qtcontacts_symbian.in(.text)
    CntRelationshipGroup::~CntRelationshipGroup__deallocating() 0x00009fab   Thumb Code    16  qtcontacts_symbian.in(.text)
    CntRelationshipGroup::fetchGroupMembersL(const unsigned&, QList<QtMobility::QContactRelationship>*) 0x00009fbb   Thumb Code   232  qtcontacts_symbian.in(.text)
    CntRelationshipGroup::fetchMembersOfAllGroupsL(QList<QtMobility::QContactRelationship>*) 0x0000a0a3   Thumb Code    64  qtcontacts_symbian.in(.text)
    CntRelationshipGroup::fetchMemberOfGroupsL(const unsigned&, QList<QtMobility::QContactRelationship>*) 0x0000a0e3   Thumb Code   310  qtcontacts_symbian.in(.text)
    CntRelationshipGroup::relationshipsL(const QtMobility::QContactId&, QtMobility::QContactRelationship::Role, QtMobility::QContactManager::Error*) 0x0000a219   Thumb Code   124  qtcontacts_symbian.in(.text)
    CntRelationshipGroup::saveRelationshipL(QSet<unsigned>*, QtMobility::QContactRelationship*, QtMobility::QContactManager::Error*) 0x0000a295   Thumb Code   216  qtcontacts_symbian.in(.text)
    CntRelationshipGroup::isGroupMemberL(const CContactItem*, long) const 0x0000a36d   Thumb Code   136  qtcontacts_symbian.in(.text)
    CntRelationshipGroup::removeRelationshipL(QSet<unsigned>*, const QtMobility::QContactRelationship&, QtMobility::QContactManager::Error*) 0x0000a3f5   Thumb Code   268  qtcontacts_symbian.in(.text)
    CntRelationshipGroup::validateRelationship(const QtMobility::QContactRelationship&, QtMobility::QContactManager::Error*) 0x0000a501   Thumb Code   144  qtcontacts_symbian.in(.text)
    CntSymbianTransformError::transformError(int, QtMobility::QContactManager::Error*) 0x0000a595   Thumb Code    96  qtcontacts_symbian.in(.text)
    CntSymbianDatabase::groupMembersL(unsigned) 0x0000a5fd   Thumb Code    72  qtcontacts_symbian.in(.text)
    CntSymbianDatabase::updateGroupMembershipsL(unsigned, QSet<unsigned>&, QSet<unsigned>&) 0x0000a645   Thumb Code   118  qtcontacts_symbian.in(.text)
    CntSymbianDatabase::updateGroupMembershipsL() 0x0000a6bb   Thumb Code    72  qtcontacts_symbian.in(.text)
    CntSymbianDatabase::initializeL()        0x0000a703   Thumb Code   156  qtcontacts_symbian.in(.text)
    CntSymbianDatabase::CntSymbianDatabase(QtMobility::QContactManagerEngine*, QtMobility::QContactManager::Error*) 0x0000a79f   Thumb Code   122  qtcontacts_symbian.in(.text)
    CntSymbianDatabase::CntSymbianDatabase__sub_object(QtMobility::QContactManagerEngine*, QtMobility::QContactManager::Error*) 0x0000a79f   Thumb Code     0  qtcontacts_symbian.in(.text)
    CntSymbianDatabase::~CntSymbianDatabase() 0x0000a819   Thumb Code    70  qtcontacts_symbian.in(.text)
    CntSymbianDatabase::~CntSymbianDatabase__sub_object() 0x0000a819   Thumb Code     0  qtcontacts_symbian.in(.text)
    CntSymbianDatabase::~CntSymbianDatabase__deallocating() 0x0000a85f   Thumb Code    16  qtcontacts_symbian.in(.text)
    CntSymbianDatabase::contactDatabase()    0x0000a86f   Thumb Code     4  qtcontacts_symbian.in(.text)
    CntSymbianDatabase::appendContactsEmitted(const QList<unsigned>&) 0x0000a873   Thumb Code    10  qtcontacts_symbian.in(.text)
    CntSymbianDatabase::appendContactEmitted(unsigned) 0x0000a87d   Thumb Code    12  qtcontacts_symbian.in(.text)
    CntSymbianDatabase::HandleDatabaseEventL(TContactDbObserverEvent) 0x0000a889   Thumb Code   616  qtcontacts_symbian.in(.text)
    thunk{-8} to CntSymbianDatabase::HandleDatabaseEventL(TContactDbObserverEvent) 0x0000aaf1   Thumb Code     4  qtcontacts_symbian.in(.text)
    CntCenrep::getValue()                    0x0000aafd   Thumb Code    32  qtcontacts_symbian.in(.text)
    CntCenrep::CntCenrep(MDisplayLabel&)     0x0000ab1d   Thumb Code   180  qtcontacts_symbian.in(.text)
    CntCenrep::CntCenrep__sub_object(MDisplayLabel&) 0x0000ab1d   Thumb Code     0  qtcontacts_symbian.in(.text)
    CntCenrep::~CntCenrep()                  0x0000abd1   Thumb Code    34  qtcontacts_symbian.in(.text)
    CntCenrep::~CntCenrep__sub_object()      0x0000abd1   Thumb Code     0  qtcontacts_symbian.in(.text)
    CntCenrep::~CntCenrep__deallocating()    0x0000abf3   Thumb Code    16  qtcontacts_symbian.in(.text)
    CntCenrep::RunL()                        0x0000ac03   Thumb Code    48  qtcontacts_symbian.in(.text)
    CntCenrep::RunError(int)                 0x0000ac33   Thumb Code     4  qtcontacts_symbian.in(.text)
    CntCenrep::DoCancel()                    0x0000ac37   Thumb Code    18  qtcontacts_symbian.in(.text)
    CntDisplayLabel::setDisplayLabelDetails() 0x0000ac49   Thumb Code   166  qtcontacts_symbian.in(.text)
    CntDisplayLabel::CntDisplayLabel()       0x0000acef   Thumb Code    84  qtcontacts_symbian.in(.text)
    CntDisplayLabel::CntDisplayLabel__sub_object() 0x0000acef   Thumb Code     0  qtcontacts_symbian.in(.text)
    CntDisplayLabel::~CntDisplayLabel()      0x0000ad43   Thumb Code    54  qtcontacts_symbian.in(.text)
    CntDisplayLabel::~CntDisplayLabel__sub_object() 0x0000ad43   Thumb Code     0  qtcontacts_symbian.in(.text)
    CntDisplayLabel::~CntDisplayLabel__deallocating() 0x0000ad79   Thumb Code    16  qtcontacts_symbian.in(.text)
    CntDisplayLabel::delimiter() const       0x0000ad89   Thumb Code    10  qtcontacts_symbian.in(.text)
    CntDisplayLabel::comma() const           0x0000ad93   Thumb Code    10  qtcontacts_symbian.in(.text)
    CntDisplayLabel::generateDisplayLabel(const QtMobility::QContact&, QList<QList<QPair<QLatin1String, QLatin1String>>>) const 0x0000ad9d   Thumb Code   348  qtcontacts_symbian.in(.text)
    CntDisplayLabel::synthesizedDisplayLabel(const QtMobility::QContact&, QtMobility::QContactManager::Error*) 0x0000aef9   Thumb Code   202  qtcontacts_symbian.in(.text)
    CntDisplayLabel::contactFilterDetails() const 0x0000afc3   Thumb Code    24  qtcontacts_symbian.in(.text)
    CntDisplayLabel::groupFilterDetails() const 0x0000afdb   Thumb Code    24  qtcontacts_symbian.in(.text)
    CntDisplayLabel::updateNameOrdering()    0x0000aff3   Thumb Code     8  qtcontacts_symbian.in(.text)
    thunk{-8} to CntDisplayLabel::updateNameOrdering() 0x0000affb   Thumb Code    10  qtcontacts_symbian.in(.text)
    CntRelationship::CntRelationship(CContactDatabase*, const QString&) 0x0000b011   Thumb Code   206  qtcontacts_symbian.in(.text)
    CntRelationship::CntRelationship__sub_object(CContactDatabase*, const QString&) 0x0000b011   Thumb Code     0  qtcontacts_symbian.in(.text)
    CntRelationship::~CntRelationship()      0x0000b0df   Thumb Code    82  qtcontacts_symbian.in(.text)
    CntRelationship::~CntRelationship__sub_object() 0x0000b0df   Thumb Code     0  qtcontacts_symbian.in(.text)
    CntRelationship::~CntRelationship__deallocating() 0x0000b131   Thumb Code    16  qtcontacts_symbian.in(.text)
    CntRelationship::isRelationshipTypeSupported(const QString&, const QString&) const 0x0000b141   Thumb Code    10  qtcontacts_symbian.in(.text)
    CntRelationship::relationships(const QString&, const QtMobility::QContactId&, QtMobility::QContactRelationship::Role, QtMobility::QContactManager::Error*) const 0x0000b14b   Thumb Code   474  qtcontacts_symbian.in(.text)
    CntRelationship::validateRelationship(const QtMobility::QContactRelationship&, QtMobility::QContactManager::Error*) 0x0000b325   Thumb Code   484  qtcontacts_symbian.in(.text)
    CntRelationship::saveRelationship(QSet<unsigned>*, QtMobility::QContactRelationship*, QtMobility::QContactManager::Error*) 0x0000b509   Thumb Code   204  qtcontacts_symbian.in(.text)
    CntRelationship::saveRelationships(QSet<unsigned>*, QList<QtMobility::QContactRelationship>*, QMap<int, QtMobility::QContactManager::Error>*, QtMobility::QContactManager::Error*) 0x0000b5d5   Thumb Code    10  qtcontacts_symbian.in(.text)
    CntRelationship::removeRelationship(QSet<unsigned>*, const QtMobility::QContactRelationship&, QtMobility::QContactManager::Error*) 0x0000b5df   Thumb Code   130  qtcontacts_symbian.in(.text)
    CntRelationship::removeRelationships(QSet<unsigned>*, const QList<QtMobility::QContactRelationship>&, QMap<int, QtMobility::QContactManager::Error>*, QtMobility::QContactManager::Error*) 0x0000b661   Thumb Code    10  qtcontacts_symbian.in(.text)
    CntFilterRelationship::CntFilterRelationship(CContactDatabase&, CntSymbianSrvConnection&, CntDbInfo&) 0x0000b66d   Thumb Code    14  qtcontacts_symbian.in(.text)
    CntFilterRelationship::CntFilterRelationship__sub_object(CContactDatabase&, CntSymbianSrvConnection&, CntDbInfo&) 0x0000b66d   Thumb Code     0  qtcontacts_symbian.in(.text)
    CntFilterRelationship::~CntFilterRelationship() 0x0000b67b   Thumb Code     2  qtcontacts_symbian.in(.text)
    CntFilterRelationship::~CntFilterRelationship__sub_object() 0x0000b67b   Thumb Code     0  qtcontacts_symbian.in(.text)
    CntFilterRelationship::~CntFilterRelationship__deallocating() 0x0000b67d   Thumb Code    12  qtcontacts_symbian.in(.text)
    CntFilterRelationship::createSelectQuery(const QtMobility::QContactFilter&, QString&, QtMobility::QContactManager::Error*) 0x0000b689   Thumb Code   396  qtcontacts_symbian.in(.text)
    CntFilterRelationship::contacts(const QtMobility::QContactFilter&, const QList<QtMobility::QContactSortOrder>&, bool&, QtMobility::QContactManager::Error*) 0x0000b815   Thumb Code   208  qtcontacts_symbian.in(.text)
    CntFilterRelationship::filterSupported(const QtMobility::QContactFilter&) 0x0000b8e5   Thumb Code    68  qtcontacts_symbian.in(.text)
    CntFilterRelationship::getSqlquery(const QtMobility::QContactRelationshipFilter&, QString&, QtMobility::QContactManager::Error*) const 0x0000b929   Thumb Code     2  qtcontacts_symbian.in(.text)
    CntFilterDetail::CntFilterDetail(CContactDatabase&, CntSymbianSrvConnection&, CntDbInfo&) 0x0000b941   Thumb Code    18  qtcontacts_symbian.in(.text)
    CntFilterDetail::CntFilterDetail__sub_object(CContactDatabase&, CntSymbianSrvConnection&, CntDbInfo&) 0x0000b941   Thumb Code     0  qtcontacts_symbian.in(.text)
    CntFilterDetail::~CntFilterDetail()      0x0000b953   Thumb Code     2  qtcontacts_symbian.in(.text)
    CntFilterDetail::~CntFilterDetail__sub_object() 0x0000b953   Thumb Code     0  qtcontacts_symbian.in(.text)
    CntFilterDetail::~CntFilterDetail__deallocating() 0x0000b955   Thumb Code    12  qtcontacts_symbian.in(.text)
    CntFilterDetail::updateForMatchFlag(const QtMobility::QContactDetailFilter&, QString&, QtMobility::QContactManager::Error*) const 0x0000b961   Thumb Code   400  qtcontacts_symbian.in(.text)
    CntFilterDetail::getTableNameWhereClause(const QtMobility::QContactDetailFilter&, QString&, QString&, QtMobility::QContactManager::Error*) const 0x0000baf1   Thumb Code   334  qtcontacts_symbian.in(.text)
    CntFilterDetail::createSelectQuery(const QtMobility::QContactFilter&, QString&, QtMobility::QContactManager::Error*) 0x0000bc3f   Thumb Code  1000  qtcontacts_symbian.in(.text)
    CntFilterDetail::HandlePredictiveSearchFilter(const QtMobility::QContactFilter&, QtMobility::QContactManager::Error*) 0x0000c027   Thumb Code   112  qtcontacts_symbian.in(.text)
    CntFilterDetail::TMatch::padOutPhoneMatchNumber(long&, int) 0x0000c097   Thumb Code    24  qtcontacts_symbian.in(.text)
    CntFilterDetail::TMatch::createHash(const TDesC16&, int, int&) 0x0000c0af   Thumb Code   104  qtcontacts_symbian.in(.text)
    CntFilterDetail::TMatch::TMatch()        0x0000c117   Thumb Code    12  qtcontacts_symbian.in(.text)
    CntFilterDetail::TMatch::TMatch__sub_object() 0x0000c117   Thumb Code     0  qtcontacts_symbian.in(.text)
    CntFilterDetail::TMatch::stripOutNonDigitChars(TDes16&) 0x0000c123   Thumb Code    56  qtcontacts_symbian.in(.text)
    CntFilterDetail::createPhoneMatchNumber(const TDesC16&, int, int, QtMobility::QContactManager::Error*) 0x0000c15b   Thumb Code   318  qtcontacts_symbian.in(.text)
    CntFilterDetail::createPaddedPhoneDigits(const TDesC16&, int, int, QtMobility::QContactManager::Error*) 0x0000c299   Thumb Code    90  qtcontacts_symbian.in(.text)
    CntFilterDetail::getMatchLengthL(int&)   0x0000c2f3   Thumb Code    46  qtcontacts_symbian.in(.text)
    CntFilterDetail::createMatchPhoneNumberQuery(const QtMobility::QContactFilter&, QString&, QtMobility::QContactManager::Error*) 0x0000c321   Thumb Code   862  qtcontacts_symbian.in(.text)
    CntFilterDetail::bestMatchPhoneNumberQuery(const QtMobility::QContactFilter&, QString&, QtMobility::QContactManager::Error*) 0x0000c67f   Thumb Code   846  qtcontacts_symbian.in(.text)
    CntFilterDetail::bestMatchingEnabled()   0x0000c9cd   Thumb Code    68  qtcontacts_symbian.in(.text)
    CntFilterDetail::fetchAllPhoneNumbers(QString&) 0x0000ca11   Thumb Code   102  qtcontacts_symbian.in(.text)
    CntFilterDetail::createPhoneNumberQuery(const QtMobility::QContactFilter&, QString&, QtMobility::QContactManager::Error*) 0x0000ca77   Thumb Code   212  qtcontacts_symbian.in(.text)
    CntFilterDetail::contacts(const QtMobility::QContactFilter&, const QList<QtMobility::QContactSortOrder>&, bool&, QtMobility::QContactManager::Error*) 0x0000cb4b   Thumb Code   336  qtcontacts_symbian.in(.text)
    CntFilterDetail::filterSupported(const QtMobility::QContactFilter&) 0x0000cc9b   Thumb Code   410  qtcontacts_symbian.in(.text)
    CntDbInfo::CntDbInfo(QtMobility::QContactManagerEngine*) 0x0000ce51   Thumb Code   728  qtcontacts_symbian.in(.text)
    CntDbInfo::CntDbInfo__sub_object(QtMobility::QContactManagerEngine*) 0x0000ce51   Thumb Code     0  qtcontacts_symbian.in(.text)
    CntDbInfo::~CntDbInfo()                  0x0000d129   Thumb Code   380  qtcontacts_symbian.in(.text)
    CntDbInfo::~CntDbInfo__sub_object()      0x0000d129   Thumb Code     0  qtcontacts_symbian.in(.text)
    CntDbInfo::~CntDbInfo__deallocating()    0x0000d2a5   Thumb Code    16  qtcontacts_symbian.in(.text)
    CntDbInfo::getDbTableAndColumnName(QString, QString, QString&, QString&, bool&) const 0x0000d2b5   Thumb Code   444  qtcontacts_symbian.in(.text)
    CntDbInfo::SupportsDetail(QString, QString) 0x0000d471   Thumb Code    96  qtcontacts_symbian.in(.text)
    CntDbInfo::setDirAndCaseSensitivity(QtMobility::QContactSortOrder, QString&) 0x0000d4d1   Thumb Code    58  qtcontacts_symbian.in(.text)
    CntDbInfo::isStringFieldType(QString)    0x0000d50b   Thumb Code    44  qtcontacts_symbian.in(.text)
    CntDbInfo::getSortQuery(const QList<QtMobility::QContactSortOrder>&, const QString&, QtMobility::QContactManager::Error*) 0x0000d537   Thumb Code  1176  qtcontacts_symbian.in(.text)
    CntFilterDefault::CntFilterDefault(CContactDatabase&, CntSymbianSrvConnection&, CntDbInfo&) 0x0000da5d   Thumb Code    14  qtcontacts_symbian.in(.text)
    CntFilterDefault::CntFilterDefault__sub_object(CContactDatabase&, CntSymbianSrvConnection&, CntDbInfo&) 0x0000da5d   Thumb Code     0  qtcontacts_symbian.in(.text)
    CntFilterDefault::~CntFilterDefault()    0x0000da6b   Thumb Code     2  qtcontacts_symbian.in(.text)
    CntFilterDefault::~CntFilterDefault__sub_object() 0x0000da6b   Thumb Code     0  qtcontacts_symbian.in(.text)
    CntFilterDefault::~CntFilterDefault__deallocating() 0x0000da6d   Thumb Code    12  qtcontacts_symbian.in(.text)
    CntFilterDefault::createSelectQuery(const QtMobility::QContactFilter&, QString&, QtMobility::QContactManager::Error*) 0x0000da79   Thumb Code    48  qtcontacts_symbian.in(.text)
    CntFilterDefault::contacts(const QtMobility::QContactFilter&, const QList<QtMobility::QContactSortOrder>&, bool&, QtMobility::QContactManager::Error*) 0x0000daa9   Thumb Code   192  qtcontacts_symbian.in(.text)
    CntFilterDefault::filterSupported(const QtMobility::QContactFilter&) 0x0000db69   Thumb Code    20  qtcontacts_symbian.in(.text)
    CntFilterIntersection::CntFilterIntersection(CContactDatabase&, CntSymbianSrvConnection&, CntDbInfo&) 0x0000db89   Thumb Code    18  qtcontacts_symbian.in(.text)
    CntFilterIntersection::CntFilterIntersection__sub_object(CContactDatabase&, CntSymbianSrvConnection&, CntDbInfo&) 0x0000db89   Thumb Code     0  qtcontacts_symbian.in(.text)
    CntFilterIntersection::~CntFilterIntersection() 0x0000db9b   Thumb Code     2  qtcontacts_symbian.in(.text)
    CntFilterIntersection::~CntFilterIntersection__sub_object() 0x0000db9b   Thumb Code     0  qtcontacts_symbian.in(.text)
    CntFilterIntersection::~CntFilterIntersection__deallocating() 0x0000db9d   Thumb Code    12  qtcontacts_symbian.in(.text)
    CntFilterIntersection::getSelectQueryforFilter(const QtMobility::QContactFilter&, QString&, QtMobility::QContactManager::Error*) 0x0000dba9   Thumb Code   286  qtcontacts_symbian.in(.text)
    CntFilterIntersection::createSelectQuery(const QtMobility::QContactFilter&, QString&, QtMobility::QContactManager::Error*) 0x0000dcc7   Thumb Code   156  qtcontacts_symbian.in(.text)
    CntFilterIntersection::contacts(const QtMobility::QContactFilter&, const QList<QtMobility::QContactSortOrder>&, bool&, QtMobility::QContactManager::Error*) 0x0000dd63   Thumb Code   190  qtcontacts_symbian.in(.text)
    CntFilterIntersection::filterSupported(const QtMobility::QContactFilter&) 0x0000de21   Thumb Code    20  qtcontacts_symbian.in(.text)
    CntFilterUnion::CntFilterUnion(CContactDatabase&, CntSymbianSrvConnection&, CntDbInfo&) 0x0000de6d   Thumb Code    18  qtcontacts_symbian.in(.text)
    CntFilterUnion::CntFilterUnion__sub_object(CContactDatabase&, CntSymbianSrvConnection&, CntDbInfo&) 0x0000de6d   Thumb Code     0  qtcontacts_symbian.in(.text)
    CntFilterUnion::~CntFilterUnion()        0x0000de7f   Thumb Code     2  qtcontacts_symbian.in(.text)
    CntFilterUnion::~CntFilterUnion__sub_object() 0x0000de7f   Thumb Code     0  qtcontacts_symbian.in(.text)
    CntFilterUnion::~CntFilterUnion__deallocating() 0x0000de81   Thumb Code    12  qtcontacts_symbian.in(.text)
    CntFilterUnion::getSelectQueryforFilter(const QtMobility::QContactFilter&, QString&, QtMobility::QContactManager::Error*) 0x0000de8d   Thumb Code   286  qtcontacts_symbian.in(.text)
    CntFilterUnion::createSelectQuery(const QtMobility::QContactFilter&, QString&, QtMobility::QContactManager::Error*) 0x0000dfab   Thumb Code   156  qtcontacts_symbian.in(.text)
    CntFilterUnion::contacts(const QtMobility::QContactFilter&, const QList<QtMobility::QContactSortOrder>&, bool&, QtMobility::QContactManager::Error*) 0x0000e047   Thumb Code   190  qtcontacts_symbian.in(.text)
    CntFilterUnion::filterSupported(const QtMobility::QContactFilter&) 0x0000e105   Thumb Code    20  qtcontacts_symbian.in(.text)
    CntSymbianFilter::CntSymbianFilter(CContactDatabase&) 0x0000e14d   Thumb Code    66  qtcontacts_symbian.in(.text)
    CntSymbianFilter::CntSymbianFilter__sub_object(CContactDatabase&) 0x0000e14d   Thumb Code     0  qtcontacts_symbian.in(.text)
    CntSymbianFilter::~CntSymbianFilter()    0x0000e18f   Thumb Code    30  qtcontacts_symbian.in(.text)
    CntSymbianFilter::~CntSymbianFilter__sub_object() 0x0000e18f   Thumb Code     0  qtcontacts_symbian.in(.text)
    CntSymbianFilter::~CntSymbianFilter__deallocating() 0x0000e1ad   Thumb Code    16  qtcontacts_symbian.in(.text)
    CntSymbianFilter::isFalsePositive(const CContactItemFieldSet&, const TUid&, const TDesC16&) 0x0000e1bd   Thumb Code    88  qtcontacts_symbian.in(.text)
    CntSymbianFilter::findContactsL(const CContactItemFieldDef&, const TDesC16&) const 0x0000e215   Thumb Code    24  qtcontacts_symbian.in(.text)
    CntSymbianFilter::findContacts(CContactIdArray*&, const CContactItemFieldDef&, const TDesC16&) const 0x0000e22d   Thumb Code    74  qtcontacts_symbian.in(.text)
    CntSymbianFilter::transformDetailFilterL(const QtMobility::QContactDetailFilter&, CContactItemFieldDef*&) 0x0000e277   Thumb Code   444  qtcontacts_symbian.in(.text)
    CntSymbianFilter::contactExists(const long&) 0x0000e433   Thumb Code    66  qtcontacts_symbian.in(.text)
    CntSymbianFilter::matchContacts(CContactIdArray*&, const TDesC16&, int) 0x0000e475   Thumb Code    72  qtcontacts_symbian.in(.text)
    CntSymbianFilter::getMatchLengthL(int&)  0x0000e4bd   Thumb Code    40  qtcontacts_symbian.in(.text)
    CntSymbianFilter::filterSupportLevel(const QtMobility::QContactFilter&) 0x0000e4e5   Thumb Code   470  qtcontacts_symbian.in(.text)
    CntSymbianFilter::filterContacts(const QtMobility::QContactFilter&, QtMobility::QContactManager::Error*) 0x0000e6bb   Thumb Code   674  qtcontacts_symbian.in(.text)
    CntSymbianFilter::contacts(const QtMobility::QContactFilter&, const QList<QtMobility::QContactSortOrder>&, bool&, QtMobility::QContactManager::Error*) 0x0000e95d   Thumb Code  1042  qtcontacts_symbian.in(.text)
    CntSymbianFilter::filterSupported(const QtMobility::QContactFilter&) 0x0000ed6f   Thumb Code    30  qtcontacts_symbian.in(.text)
    CntSymbianSorterDbms::CntSymbianSorterDbms(CContactDatabase&, CntTransformContact&) 0x0000ed8d   Thumb Code    10  qtcontacts_symbian.in(.text)
    CntSymbianSorterDbms::CntSymbianSorterDbms__sub_object(CContactDatabase&, CntTransformContact&) 0x0000ed8d   Thumb Code     0  qtcontacts_symbian.in(.text)
    CntSymbianSorterDbms::~CntSymbianSorterDbms() 0x0000ed97   Thumb Code     2  qtcontacts_symbian.in(.text)
    CntSymbianSorterDbms::~CntSymbianSorterDbms__sub_object() 0x0000ed97   Thumb Code     0  qtcontacts_symbian.in(.text)
    CntSymbianSorterDbms::sortL(const CContactIdArray*, const QList<QtMobility::QContactSortOrder>&) const 0x0000ed99   Thumb Code   344  qtcontacts_symbian.in(.text)
    CntSymbianSorterDbms::contactsL(const QList<QtMobility::QContactSortOrder>&) const 0x0000eef1   Thumb Code   158  qtcontacts_symbian.in(.text)
    CntSymbianSorterDbms::contacts(const QList<QtMobility::QContactSortOrder>&, QtMobility::QContactManager::Error*) 0x0000ef8f   Thumb Code   142  qtcontacts_symbian.in(.text)
    CntSymbianSorterDbms::sortL(const QList<unsigned>&, QList<QtMobility::QContactSortOrder>&) const 0x0000f01d   Thumb Code   194  qtcontacts_symbian.in(.text)
    CntSymbianSorterDbms::sort(QList<unsigned>, QList<QtMobility::QContactSortOrder>&, QtMobility::QContactManager::Error*) 0x0000f0df   Thumb Code   158  qtcontacts_symbian.in(.text)
    CntSymbianSorterDbms::sortOrderSupported(const QList<QtMobility::QContactSortOrder>&) 0x0000f17d   Thumb Code   184  qtcontacts_symbian.in(.text)
    CntSymbianSrvConnection::CntSymbianSrvConnection(QtMobility::QContactManagerEngine*) 0x0000f235   Thumb Code    28  qtcontacts_symbian.in(.text)
    CntSymbianSrvConnection::CntSymbianSrvConnection__sub_object(QtMobility::QContactManagerEngine*) 0x0000f235   Thumb Code     0  qtcontacts_symbian.in(.text)
    CntSymbianSrvConnection::~CntSymbianSrvConnection() 0x0000f251   Thumb Code    26  qtcontacts_symbian.in(.text)
    CntSymbianSrvConnection::~CntSymbianSrvConnection__sub_object() 0x0000f251   Thumb Code     0  qtcontacts_symbian.in(.text)
    CntSymbianSrvConnection::GetReceivingBufferL(int) 0x0000f26b   Thumb Code    82  qtcontacts_symbian.in(.text)
    CntSymbianSrvConnection::OpenDatabaseL() 0x0000f2bd   Thumb Code    38  qtcontacts_symbian.in(.text)
    CntSymbianSrvConnection::Version() const 0x0000f2e3   Thumb Code    18  qtcontacts_symbian.in(.text)
    CntSymbianSrvConnection::ConnectSrvL()   0x0000f2f5   Thumb Code   140  qtcontacts_symbian.in(.text)
    CntSymbianSrvConnection::readContactsToBufferL(const TDesC16&, CntSymbianSrvConnection::QueryType) 0x0000f381   Thumb Code   126  qtcontacts_symbian.in(.text)
    CntSymbianSrvConnection::searchContactIdsL(const TDesC16&, CntSymbianSrvConnection::QueryType) 0x0000f3ff   Thumb Code   100  qtcontacts_symbian.in(.text)
    CntSymbianSrvConnection::searchContacts(const QString&, QtMobility::QContactManager::Error*) 0x0000f463   Thumb Code   106  qtcontacts_symbian.in(.text)
    CntSymbianSrvConnection::searchContactNamesL(const TDesC16&) 0x0000f4cd   Thumb Code   586  qtcontacts_symbian.in(.text)
    CntSymbianSrvConnection::searchContactName(unsigned, QtMobility::QContactManager::Error*) 0x0000f717   Thumb Code   160  qtcontacts_symbian.in(.text)
    CntSymbianSrvConnection::searchOnServer(const QString&, CntSymbianSrvConnection::QueryType, QtMobility::QContactManager::Error*) 0x0000f7b7   Thumb Code   108  qtcontacts_symbian.in(.text)
    CntSymbianSrvConnection::searchAllContactNames(QtMobility::QContactManager::Error*) 0x0000f823   Thumb Code   100  qtcontacts_symbian.in(.text)
    CntSymbianSrvConnection::searchPhoneNumbersL(const TDesC16&, CntSymbianSrvConnection::QueryType) 0x0000f887   Thumb Code   130  qtcontacts_symbian.in(.text)
    CntSymbianSrvConnection::searchPhoneNumbers(const QString&, QtMobility::QContactManager::Error*) 0x0000f909   Thumb Code   144  qtcontacts_symbian.in(.text)
    CntTransformContact::initializeCntTransformContactData() 0x0000f9a1   Thumb Code   820  qtcontacts_symbian.in(.text)
    CntTransformContact::CntTransformContact() 0x0000fcd5   Thumb Code    58  qtcontacts_symbian.in(.text)
    CntTransformContact::CntTransformContact__sub_object() 0x0000fcd5   Thumb Code     0  qtcontacts_symbian.in(.text)
    CntTransformContact::~CntTransformContact() 0x0000fd0f   Thumb Code   256  qtcontacts_symbian.in(.text)
    CntTransformContact::~CntTransformContact__sub_object() 0x0000fd0f   Thumb Code     0  qtcontacts_symbian.in(.text)
    CntTransformContact::~CntTransformContact__deallocating() 0x0000fe0f   Thumb Code    16  qtcontacts_symbian.in(.text)
    CntTransformContact::transformPreferredDetail(const CContactItemField&, const QtMobility::QContactDetail&, QtMobility::QContact&) const 0x0000fe1f   Thumb Code   264  qtcontacts_symbian.in(.text)
    CntTransformContact::transformItemField(const CContactItemField&, const QtMobility::QContact&) 0x0000ff27   Thumb Code   290  qtcontacts_symbian.in(.text)
    CntTransformContact::transformContactL(CContactItem&) 0x00010049   Thumb Code   164  qtcontacts_symbian.in(.text)
    CntTransformContact::transformTimestampItemFieldL(const CContactItem&, const CContactDatabase&) 0x000100ed   Thumb Code   514  qtcontacts_symbian.in(.text)
    CntTransformContact::transformGuidItemFieldL(const CContactItem&, const CContactDatabase&) const 0x000102ef   Thumb Code   134  qtcontacts_symbian.in(.text)
    CntTransformContact::transformPostSaveDetailsL(const CContactItem&, QtMobility::QContact&, const CContactDatabase&, QString) 0x00010375   Thumb Code   260  qtcontacts_symbian.in(.text)
    CntTransformContact::resetTransformObjects() const 0x00010479   Thumb Code    44  qtcontacts_symbian.in(.text)
    CntTransformContact::transformPreferredDetailL(const QtMobility::QContact&, const QtMobility::QContactDetail&, QList<CContactItemField*>&) const 0x000104a5   Thumb Code   314  qtcontacts_symbian.in(.text)
    CntTransformContact::transformDetailL(const QtMobility::QContactDetail&) const 0x000105df   Thumb Code   280  qtcontacts_symbian.in(.text)
    CntTransformContact::transformContactL(QtMobility::QContact&, CContactItem&) const 0x000106f7   Thumb Code   244  qtcontacts_symbian.in(.text)
    CntTransformContact::supportedSortingFieldTypes(QString, QString) 0x000107eb   Thumb Code   134  qtcontacts_symbian.in(.text)
    CntTransformContact::itemFieldUidsL(QString) const 0x00010871   Thumb Code   108  qtcontacts_symbian.in(.text)
    CntTransformContact::GetIdForDetailL(const QtMobility::QContactDetailFilter&, bool&) const 0x000108dd   Thumb Code   194  qtcontacts_symbian.in(.text)
    CntTransformContact::detailDefinitions(QMap<QString, QtMobility::QContactDetailDefinition>&, const QString&, QtMobility::QContactManager::Error*) const 0x0001099f   Thumb Code    52  qtcontacts_symbian.in(.text)
    CntTransformContactData::setContextsL(const QtMobility::QContactDetail&, CContactItemField&) 0x00010b19   Thumb Code    82  qtcontacts_symbian.in(.text)
    CntTransformContactData::transformToTextFieldL(const QtMobility::QContactDetail&, QList<CContactItemField*>&, const QString&, TUid, TUid, bool) 0x00010b6b   Thumb Code   124  qtcontacts_symbian.in(.text)
    CntTransformContactData::setContexts(const TUid&, QtMobility::QContactDetail&) 0x00010be7   Thumb Code    78  qtcontacts_symbian.in(.text)
    CntTransformName::transformDetailL(const QtMobility::QContactDetail&) 0x00010c49   Thumb Code   308  qtcontacts_symbian.in(.text)
    CntTransformName::transformItemField(const CContactItemField&, const QtMobility::QContact&) 0x00010d7d   Thumb Code   480  qtcontacts_symbian.in(.text)
    CntTransformName::supportsDetail(QString) const 0x00010f5d   Thumb Code    26  qtcontacts_symbian.in(.text)
    CntTransformName::supportedFields() const 0x00010f77   Thumb Code    72  qtcontacts_symbian.in(.text)
    CntTransformName::supportedSortingFieldTypes(QString) const 0x00010fbf   Thumb Code   196  qtcontacts_symbian.in(.text)
    CntTransformName::supportsSubType(const QString&) const 0x00011083   Thumb Code     4  qtcontacts_symbian.in(.text)
    CntTransformName::getIdForField(const QString&) const 0x00011087   Thumb Code   124  qtcontacts_symbian.in(.text)
    CntTransformName::detailDefinitions(QMap<QString, QtMobility::QContactDetailDefinition>&, const QString&) const 0x00011103   Thumb Code   352  qtcontacts_symbian.in(.text)
    CntTransformNickname::transformDetailL(const QtMobility::QContactDetail&) 0x00011299   Thumb Code   108  qtcontacts_symbian.in(.text)
    CntTransformNickname::transformItemField(const CContactItemField&, const QtMobility::QContact&) 0x00011305   Thumb Code   208  qtcontacts_symbian.in(.text)
    CntTransformNickname::supportsDetail(QString) const 0x000113d5   Thumb Code    22  qtcontacts_symbian.in(.text)
    CntTransformNickname::supportedFields() const 0x000113eb   Thumb Code    48  qtcontacts_symbian.in(.text)
    CntTransformNickname::supportedSortingFieldTypes(QString) const 0x0001141b   Thumb Code    32  qtcontacts_symbian.in(.text)
    CntTransformNickname::supportsSubType(const QString&) const 0x0001143b   Thumb Code     4  qtcontacts_symbian.in(.text)
    CntTransformNickname::getIdForField(const QString&) const 0x0001143f   Thumb Code    26  qtcontacts_symbian.in(.text)
    CntTransformNickname::detailDefinitions(QMap<QString, QtMobility::QContactDetailDefinition>&, const QString&) const 0x00011459   Thumb Code   182  qtcontacts_symbian.in(.text)
    CntTransformPhoneNumber::transformDetailL(const QtMobility::QContactDetail&) 0x00011529   Thumb Code   824  qtcontacts_symbian.in(.text)
    CntTransformPhoneNumber::transformItemField(const CContactItemField&, const QtMobility::QContact&) 0x00011861   Thumb Code   564  qtcontacts_symbian.in(.text)
    CntTransformPhoneNumber::supportsDetail(QString) const 0x00011a95   Thumb Code    22  qtcontacts_symbian.in(.text)
    CntTransformPhoneNumber::supportedFields() const 0x00011aab   Thumb Code    64  qtcontacts_symbian.in(.text)
    CntTransformPhoneNumber::supportedSortingFieldTypes(QString) const 0x00011aeb   Thumb Code    54  qtcontacts_symbian.in(.text)
    CntTransformPhoneNumber::supportsSubType(const QString&) const 0x00011b21   Thumb Code    20  qtcontacts_symbian.in(.text)
    CntTransformPhoneNumber::getIdForField(const QString&) const 0x00011b35   Thumb Code   198  qtcontacts_symbian.in(.text)
    CntTransformPhoneNumber::detailDefinitions(QMap<QString, QtMobility::QContactDetailDefinition>&, const QString&) const 0x00011bfb   Thumb Code   410  qtcontacts_symbian.in(.text)
    CntTransformEmail::transformDetailL(const QtMobility::QContactDetail&) 0x00011d95   Thumb Code   108  qtcontacts_symbian.in(.text)
    CntTransformEmail::transformItemField(const CContactItemField&, const QtMobility::QContact&) 0x00011e01   Thumb Code   158  qtcontacts_symbian.in(.text)
    CntTransformEmail::supportsDetail(QString) const 0x00011e9f   Thumb Code    22  qtcontacts_symbian.in(.text)
    CntTransformEmail::supportedFields() const 0x00011eb5   Thumb Code    48  qtcontacts_symbian.in(.text)
    CntTransformEmail::supportedSortingFieldTypes(QString) const 0x00011ee5   Thumb Code    32  qtcontacts_symbian.in(.text)
    CntTransformEmail::supportsSubType(const QString&) const 0x00011f05   Thumb Code     4  qtcontacts_symbian.in(.text)
    CntTransformEmail::getIdForField(const QString&) const 0x00011f09   Thumb Code    26  qtcontacts_symbian.in(.text)
    CntTransformEmail::detailDefinitions(QMap<QString, QtMobility::QContactDetailDefinition>&, const QString&) const 0x00011f23   Thumb Code   316  qtcontacts_symbian.in(.text)
    CntTransformAddress::transformDetailL(const QtMobility::QContactDetail&) 0x00012081   Thumb Code   308  qtcontacts_symbian.in(.text)
    CntTransformAddress::transformItemField(const CContactItemField&, const QtMobility::QContact&) 0x000121b5   Thumb Code  1020  qtcontacts_symbian.in(.text)
    CntTransformAddress::supportsDetail(QString) const 0x000125b1   Thumb Code    22  qtcontacts_symbian.in(.text)
    CntTransformAddress::supportedFields() const 0x000125c7   Thumb Code    72  qtcontacts_symbian.in(.text)
    CntTransformAddress::supportedSortingFieldTypes(QString) const 0x0001260f   Thumb Code   148  qtcontacts_symbian.in(.text)
    CntTransformAddress::supportsSubType(const QString&) const 0x000126a3   Thumb Code    20  qtcontacts_symbian.in(.text)
    CntTransformAddress::getIdForField(const QString&) const 0x000126b7   Thumb Code   158  qtcontacts_symbian.in(.text)
    CntTransformAddress::detailDefinitions(QMap<QString, QtMobility::QContactDetailDefinition>&, const QString&) const 0x00012755   Thumb Code   340  qtcontacts_symbian.in(.text)
    CntTransformUrl::transformDetailL(const QtMobility::QContactDetail&) 0x000128f5   Thumb Code   246  qtcontacts_symbian.in(.text)
    CntTransformUrl::transformItemField(const CContactItemField&, const QtMobility::QContact&) 0x000129eb   Thumb Code   198  qtcontacts_symbian.in(.text)
    CntTransformUrl::supportsDetail(QString) const 0x00012ab1   Thumb Code    22  qtcontacts_symbian.in(.text)
    CntTransformUrl::supportedFields() const 0x00012ac7   Thumb Code    48  qtcontacts_symbian.in(.text)
    CntTransformUrl::supportedSortingFieldTypes(QString) const 0x00012af7   Thumb Code    32  qtcontacts_symbian.in(.text)
    CntTransformUrl::supportsSubType(const QString&) const 0x00012b17   Thumb Code    26  qtcontacts_symbian.in(.text)
    CntTransformUrl::getIdForField(const QString&) const 0x00012b31   Thumb Code    52  qtcontacts_symbian.in(.text)
    CntTransformUrl::detailDefinitions(QMap<QString, QtMobility::QContactDetailDefinition>&, const QString&) const 0x00012b65   Thumb Code   542  qtcontacts_symbian.in(.text)
    CntTransformBirthday::transformDetailL(const QtMobility::QContactDetail&) 0x00012d85   Thumb Code   238  qtcontacts_symbian.in(.text)
    CntTransformBirthday::transformItemField(const CContactItemField&, const QtMobility::QContact&) 0x00012e73   Thumb Code   126  qtcontacts_symbian.in(.text)
    CntTransformBirthday::supportsDetail(QString) const 0x00012ef1   Thumb Code    22  qtcontacts_symbian.in(.text)
    CntTransformBirthday::supportedFields() const 0x00012f07   Thumb Code    48  qtcontacts_symbian.in(.text)
    CntTransformBirthday::supportedSortingFieldTypes(QString) const 0x00012f37   Thumb Code    32  qtcontacts_symbian.in(.text)
    CntTransformBirthday::supportsSubType(const QString&) const 0x00012f57   Thumb Code     4  qtcontacts_symbian.in(.text)
    CntTransformBirthday::getIdForField(const QString&) const 0x00012f5b   Thumb Code    26  qtcontacts_symbian.in(.text)
    CntTransformBirthday::detailDefinitions(QMap<QString, QtMobility::QContactDetailDefinition>&, const QString&) const 0x00012f75   Thumb Code   182  qtcontacts_symbian.in(.text)
    CntTransformOnlineAccount::transformDetailL(const QtMobility::QContactDetail&) 0x00013049   Thumb Code   364  qtcontacts_symbian.in(.text)
    CntTransformOnlineAccount::transformItemField(const CContactItemField&, const QtMobility::QContact&) 0x000131b5   Thumb Code   290  qtcontacts_symbian.in(.text)
    CntTransformOnlineAccount::supportsDetail(QString) const 0x000132d7   Thumb Code    26  qtcontacts_symbian.in(.text)
    CntTransformOnlineAccount::supportedFields() const 0x000132f1   Thumb Code    48  qtcontacts_symbian.in(.text)
    CntTransformOnlineAccount::supportedSortingFieldTypes(QString) const 0x00013321   Thumb Code    36  qtcontacts_symbian.in(.text)
    CntTransformOnlineAccount::supportsSubType(const QString&) const 0x00013345   Thumb Code    26  qtcontacts_symbian.in(.text)
    CntTransformOnlineAccount::getIdForField(const QString&) const 0x0001335f   Thumb Code    76  qtcontacts_symbian.in(.text)
    CntTransformOnlineAccount::detailDefinitions(QMap<QString, QtMobility::QContactDetailDefinition>&, const QString&) const 0x000133ab   Thumb Code   560  qtcontacts_symbian.in(.text)
    CntTransformOrganisation::transformDetailL(const QtMobility::QContactDetail&) 0x000135fd   Thumb Code   262  qtcontacts_symbian.in(.text)
    CntTransformOrganisation::transformItemField(const CContactItemField&, const QtMobility::QContact&) 0x00013703   Thumb Code   390  qtcontacts_symbian.in(.text)
    CntTransformOrganisation::supportsDetail(QString) const 0x00013889   Thumb Code    26  qtcontacts_symbian.in(.text)
    CntTransformOrganisation::supportedFields() const 0x000138a3   Thumb Code    56  qtcontacts_symbian.in(.text)
    CntTransformOrganisation::supportedSortingFieldTypes(QString) const 0x000138db   Thumb Code   124  qtcontacts_symbian.in(.text)
    CntTransformOrganisation::supportsSubType(const QString&) const 0x00013957   Thumb Code     4  qtcontacts_symbian.in(.text)
    CntTransformOrganisation::getIdForField(const QString&) const 0x0001395b   Thumb Code   170  qtcontacts_symbian.in(.text)
    CntTransformOrganisation::detailDefinitions(QMap<QString, QtMobility::QContactDetailDefinition>&, const QString&) const 0x00013a05   Thumb Code   448  qtcontacts_symbian.in(.text)
    CntTransformRingtone::transformDetailL(const QtMobility::QContactDetail&) 0x00013be1   Thumb Code   462  qtcontacts_symbian.in(.text)
    CntTransformRingtone::transformItemField(const CContactItemField&, const QtMobility::QContact&) 0x00013daf   Thumb Code   236  qtcontacts_symbian.in(.text)
    CntTransformRingtone::supportsDetail(QString) const 0x00013e9b   Thumb Code    26  qtcontacts_symbian.in(.text)
    CntTransformRingtone::supportedFields() const 0x00013eb5   Thumb Code    58  qtcontacts_symbian.in(.text)
    CntTransformRingtone::supportedSortingFieldTypes(QString) const 0x00013eef   Thumb Code     8  qtcontacts_symbian.in(.text)
    CntTransformRingtone::supportsSubType(const QString&) const 0x00013ef7   Thumb Code     4  qtcontacts_symbian.in(.text)
    CntTransformRingtone::getIdForField(const QString&) const 0x00013efb   Thumb Code    26  qtcontacts_symbian.in(.text)
    CntTransformRingtone::detailDefinitions(QMap<QString, QtMobility::QContactDetailDefinition>&, const QString&) const 0x00013f15   Thumb Code   262  qtcontacts_symbian.in(.text)
    CntTransformThumbnail::CntTransformThumbnail() 0x0001401d   Thumb Code    18  qtcontacts_symbian.in(.text)
    CntTransformThumbnail::CntTransformThumbnail__sub_object() 0x0001401d   Thumb Code     0  qtcontacts_symbian.in(.text)
    CntTransformThumbnail::~CntTransformThumbnail() 0x0001402f   Thumb Code    28  qtcontacts_symbian.in(.text)
    CntTransformThumbnail::~CntTransformThumbnail__sub_object() 0x0001402f   Thumb Code     0  qtcontacts_symbian.in(.text)
    CntTransformThumbnail::~CntTransformThumbnail__deallocating() 0x0001404b   Thumb Code    16  qtcontacts_symbian.in(.text)
    CntTransformThumbnail::transformDetailL(const QtMobility::QContactDetail&) 0x0001405b   Thumb Code   216  qtcontacts_symbian.in(.text)
    CntTransformThumbnail::transformItemField(const CContactItemField&, const QtMobility::QContact&) 0x00014133   Thumb Code   190  qtcontacts_symbian.in(.text)
    CntTransformThumbnail::supportsDetail(QString) const 0x000141f1   Thumb Code    26  qtcontacts_symbian.in(.text)
    CntTransformThumbnail::supportedFields() const 0x0001420b   Thumb Code    58  qtcontacts_symbian.in(.text)
    CntTransformThumbnail::supportedSortingFieldTypes(QString) const 0x00014245   Thumb Code     8  qtcontacts_symbian.in(.text)
    CntTransformThumbnail::supportsSubType(const QString&) const 0x0001424d   Thumb Code     4  qtcontacts_symbian.in(.text)
    CntTransformThumbnail::getIdForField(const QString&) const 0x00014251   Thumb Code     4  qtcontacts_symbian.in(.text)
    CntTransformThumbnail::detailDefinitions(QMap<QString, QtMobility::QContactDetailDefinition>&, const QString&) const 0x00014255   Thumb Code     2  qtcontacts_symbian.in(.text)
    CntTransformAvatar::transformDetailL(const QtMobility::QContactDetail&) 0x00014285   Thumb Code   404  qtcontacts_symbian.in(.text)
    CntTransformAvatar::transformItemField(const CContactItemField&, const QtMobility::QContact&) 0x00014419   Thumb Code   144  qtcontacts_symbian.in(.text)
    CntTransformAvatar::supportsDetail(QString) const 0x000144a9   Thumb Code    26  qtcontacts_symbian.in(.text)
    CntTransformAvatar::supportedFields() const 0x000144c3   Thumb Code    50  qtcontacts_symbian.in(.text)
    CntTransformAvatar::supportedSortingFieldTypes(QString) const 0x000144f5   Thumb Code     8  qtcontacts_symbian.in(.text)
    CntTransformAvatar::supportsSubType(const QString&) const 0x000144fd   Thumb Code     4  qtcontacts_symbian.in(.text)
    CntTransformAvatar::getIdForField(const QString&) const 0x00014501   Thumb Code    18  qtcontacts_symbian.in(.text)
    CntTransformAvatar::detailDefinitions(QMap<QString, QtMobility::QContactDetailDefinition>&, const QString&) const 0x00014513   Thumb Code   214  qtcontacts_symbian.in(.text)
    CntThumbnailCreator::CntThumbnailCreator() 0x00014619   Thumb Code    44  qtcontacts_symbian.in(.text)
    CntThumbnailCreator::CntThumbnailCreator__sub_object() 0x00014619   Thumb Code     0  qtcontacts_symbian.in(.text)
    CntThumbnailCreator::~CntThumbnailCreator() 0x00014645   Thumb Code    96  qtcontacts_symbian.in(.text)
    CntThumbnailCreator::~CntThumbnailCreator__sub_object() 0x00014645   Thumb Code     0  qtcontacts_symbian.in(.text)
    CntThumbnailCreator::~CntThumbnailCreator__deallocating() 0x000146a5   Thumb Code    16  qtcontacts_symbian.in(.text)
    CntThumbnailCreator::DecodeImageL(const TBuf<(int)256>&) 0x000146b5   Thumb Code   160  qtcontacts_symbian.in(.text)
    CntThumbnailCreator::addThumbnailFieldL(QList<CContactItemField*>*, const TBuf<(int)256>&, const TSize&) 0x00014755   Thumb Code    78  qtcontacts_symbian.in(.text)
    CntThumbnailCreator::EncodeImageL()      0x000147a3   Thumb Code    66  qtcontacts_symbian.in(.text)
    CntThumbnailCreator::addThumbnailFieldL(QList<CContactItemField*>*, CFbsBitmap*, const TSize&) 0x000147e5   Thumb Code    94  qtcontacts_symbian.in(.text)
    CntThumbnailCreator::initializeThumbnailFieldL() 0x00014843   Thumb Code    98  qtcontacts_symbian.in(.text)
    CntThumbnailCreator::CreateContactFieldL() 0x000148a5   Thumb Code   110  qtcontacts_symbian.in(.text)
    CntThumbnailCreator::ScaleImageL()       0x00014913   Thumb Code    94  qtcontacts_symbian.in(.text)
    CntThumbnailCreator::RunL()              0x00014971   Thumb Code   100  qtcontacts_symbian.in(.text)
    CntThumbnailCreator::DoCancel()          0x000149d5   Thumb Code    16  qtcontacts_symbian.in(.text)
    CntThumbnailCreator::RunError(int)       0x000149e5   Thumb Code    14  qtcontacts_symbian.in(.text)
    CntTransformSyncTarget::transformDetailL(const QtMobility::QContactDetail&) 0x00014a01   Thumb Code   108  qtcontacts_symbian.in(.text)
    CntTransformSyncTarget::transformItemField(const CContactItemField&, const QtMobility::QContact&) 0x00014a6d   Thumb Code   112  qtcontacts_symbian.in(.text)
    CntTransformSyncTarget::supportsDetail(QString) const 0x00014add   Thumb Code    22  qtcontacts_symbian.in(.text)
    CntTransformSyncTarget::supportedFields() const 0x00014af3   Thumb Code    48  qtcontacts_symbian.in(.text)
    CntTransformSyncTarget::supportedSortingFieldTypes(QString) const 0x00014b23   Thumb Code    32  qtcontacts_symbian.in(.text)
    CntTransformSyncTarget::supportsSubType(const QString&) const 0x00014b43   Thumb Code     4  qtcontacts_symbian.in(.text)
    CntTransformSyncTarget::getIdForField(const QString&) const 0x00014b47   Thumb Code    26  qtcontacts_symbian.in(.text)
    CntTransformSyncTarget::detailDefinitions(QMap<QString, QtMobility::QContactDetailDefinition>&, const QString&) const 0x00014b61   Thumb Code   442  qtcontacts_symbian.in(.text)
    CntTransformGender::transformDetailL(const QtMobility::QContactDetail&) 0x00014d4d   Thumb Code   108  qtcontacts_symbian.in(.text)
    CntTransformGender::transformItemField(const CContactItemField&, const QtMobility::QContact&) 0x00014db9   Thumb Code   112  qtcontacts_symbian.in(.text)
    CntTransformGender::supportsDetail(QString) const 0x00014e29   Thumb Code    22  qtcontacts_symbian.in(.text)
    CntTransformGender::supportedFields() const 0x00014e3f   Thumb Code    50  qtcontacts_symbian.in(.text)
    CntTransformGender::supportedSortingFieldTypes(QString) const 0x00014e71   Thumb Code    34  qtcontacts_symbian.in(.text)
    CntTransformGender::supportsSubType(const QString&) const 0x00014e93   Thumb Code     4  qtcontacts_symbian.in(.text)
    CntTransformGender::getIdForField(const QString&) const 0x00014e97   Thumb Code    62  qtcontacts_symbian.in(.text)
    CntTransformGender::detailDefinitions(QMap<QString, QtMobility::QContactDetailDefinition>&, const QString&) const 0x00014ed5   Thumb Code   190  qtcontacts_symbian.in(.text)
    CntTransformAnniversary::transformDetailL(const QtMobility::QContactDetail&) 0x00014fb9   Thumb Code   262  qtcontacts_symbian.in(.text)
    CntTransformAnniversary::transformItemField(const CContactItemField&, const QtMobility::QContact&) 0x000150bf   Thumb Code   274  qtcontacts_symbian.in(.text)
    CntTransformAnniversary::supportsDetail(QString) const 0x000151d1   Thumb Code    26  qtcontacts_symbian.in(.text)
    CntTransformAnniversary::supportedFields() const 0x000151eb   Thumb Code    48  qtcontacts_symbian.in(.text)
    CntTransformAnniversary::supportedSortingFieldTypes(QString) const 0x0001521b   Thumb Code     8  qtcontacts_symbian.in(.text)
    CntTransformAnniversary::supportsSubType(const QString&) const 0x00015223   Thumb Code    20  qtcontacts_symbian.in(.text)
    CntTransformAnniversary::getIdForField(const QString&) const 0x00015237   Thumb Code   106  qtcontacts_symbian.in(.text)
    CntTransformAnniversary::detailDefinitions(QMap<QString, QtMobility::QContactDetailDefinition>&, const QString&) const 0x000152a1   Thumb Code   296  qtcontacts_symbian.in(.text)
    CntTransformAnniversarySimple::transformDetailL(const QtMobility::QContactDetail&) 0x000153c9   Thumb Code   222  qtcontacts_symbian.in(.text)
    CntTransformAnniversarySimple::transformItemField(const CContactItemField&, const QtMobility::QContact&) 0x000154a7   Thumb Code   126  qtcontacts_symbian.in(.text)
    CntTransformAnniversarySimple::supportsDetail(QString) const 0x00015525   Thumb Code    26  qtcontacts_symbian.in(.text)
    CntTransformAnniversarySimple::supportedFields() const 0x0001553f   Thumb Code    48  qtcontacts_symbian.in(.text)
    CntTransformAnniversarySimple::supportedSortingFieldTypes(QString) const 0x0001556f   Thumb Code     8  qtcontacts_symbian.in(.text)
    CntTransformAnniversarySimple::supportsSubType(const QString&) const 0x00015577   Thumb Code     4  qtcontacts_symbian.in(.text)
    CntTransformAnniversarySimple::getIdForField(const QString&) const 0x0001557b   Thumb Code     4  qtcontacts_symbian.in(.text)
    CntTransformAnniversarySimple::detailDefinitions(QMap<QString, QtMobility::QContactDetailDefinition>&, const QString&) const 0x0001557f   Thumb Code   262  qtcontacts_symbian.in(.text)
    CntTransformGeolocation::transformDetailL(const QtMobility::QContactDetail&) 0x000156a9   Thumb Code   238  qtcontacts_symbian.in(.text)
    CntTransformGeolocation::transformItemField(const CContactItemField&, const QtMobility::QContact&) 0x00015797   Thumb Code   290  qtcontacts_symbian.in(.text)
    CntTransformGeolocation::supportsDetail(QString) const 0x000158b9   Thumb Code    26  qtcontacts_symbian.in(.text)
    CntTransformGeolocation::supportedFields() const 0x000158d3   Thumb Code    50  qtcontacts_symbian.in(.text)
    CntTransformGeolocation::supportedSortingFieldTypes(QString) const 0x00015905   Thumb Code     8  qtcontacts_symbian.in(.text)
    CntTransformGeolocation::supportsSubType(const QString&) const 0x0001590d   Thumb Code     4  qtcontacts_symbian.in(.text)
    CntTransformGeolocation::getIdForField(const QString&) const 0x00015911   Thumb Code   118  qtcontacts_symbian.in(.text)
    CntTransformGeolocation::detailDefinitions(QMap<QString, QtMobility::QContactDetailDefinition>&, const QString&) const 0x00015987   Thumb Code   396  qtcontacts_symbian.in(.text)
    CntTransformNote::transformDetailL(const QtMobility::QContactDetail&) 0x00015b15   Thumb Code   108  qtcontacts_symbian.in(.text)
    CntTransformNote::transformItemField(const CContactItemField&, const QtMobility::QContact&) 0x00015b81   Thumb Code   112  qtcontacts_symbian.in(.text)
    CntTransformNote::supportsDetail(QString) const 0x00015bf1   Thumb Code    22  qtcontacts_symbian.in(.text)
    CntTransformNote::supportedFields() const 0x00015c07   Thumb Code    48  qtcontacts_symbian.in(.text)
    CntTransformNote::supportedSortingFieldTypes(QString) const 0x00015c37   Thumb Code    32  qtcontacts_symbian.in(.text)
    CntTransformNote::supportsSubType(const QString&) const 0x00015c57   Thumb Code     4  qtcontacts_symbian.in(.text)
    CntTransformNote::getIdForField(const QString&) const 0x00015c5b   Thumb Code    26  qtcontacts_symbian.in(.text)
    CntTransformNote::detailDefinitions(QMap<QString, QtMobility::QContactDetailDefinition>&, const QString&) const 0x00015c75   Thumb Code   182  qtcontacts_symbian.in(.text)
    CntTransformFamily::transformDetailL(const QtMobility::QContactDetail&) 0x00015d45   Thumb Code   254  qtcontacts_symbian.in(.text)
    CntTransformFamily::transformItemField(const CContactItemField&, const QtMobility::QContact&) 0x00015e43   Thumb Code   284  qtcontacts_symbian.in(.text)
    CntTransformFamily::supportsDetail(QString) const 0x00015f5f   Thumb Code    26  qtcontacts_symbian.in(.text)
    CntTransformFamily::supportedFields() const 0x00015f79   Thumb Code    58  qtcontacts_symbian.in(.text)
    CntTransformFamily::supportedSortingFieldTypes(QString) const 0x00015fb3   Thumb Code     8  qtcontacts_symbian.in(.text)
    CntTransformFamily::supportsSubType(const QString&) const 0x00015fbb   Thumb Code     4  qtcontacts_symbian.in(.text)
    CntTransformFamily::getIdForField(const QString&) const 0x00015fbf   Thumb Code    50  qtcontacts_symbian.in(.text)
    CntTransformFamily::detailDefinitions(QMap<QString, QtMobility::QContactDetailDefinition>&, const QString&) const 0x00015ff1   Thumb Code   300  qtcontacts_symbian.in(.text)
    CntTransformEmpty::transformDetailL(const QtMobility::QContactDetail&) 0x0001611d   Thumb Code    14  qtcontacts_symbian.in(.text)
    CntTransformEmpty::transformItemField(const CContactItemField&, const QtMobility::QContact&) 0x0001612b   Thumb Code    24  qtcontacts_symbian.in(.text)
    CntTransformEmpty::supportsDetail(QString) const 0x00016143   Thumb Code     4  qtcontacts_symbian.in(.text)
    CntTransformEmpty::supportedFields() const 0x00016147   Thumb Code     8  qtcontacts_symbian.in(.text)
    CntTransformEmpty::supportedSortingFieldTypes(QString) const 0x0001614f   Thumb Code     8  qtcontacts_symbian.in(.text)
    CntTransformEmpty::supportsSubType(const QString&) const 0x00016157   Thumb Code     4  qtcontacts_symbian.in(.text)
    CntTransformEmpty::getIdForField(const QString&) const 0x0001615b   Thumb Code     4  qtcontacts_symbian.in(.text)
    CntTransformEmpty::detailDefinitions(QMap<QString, QtMobility::QContactDetailDefinition>&, const QString&) const 0x0001615f   Thumb Code   276  qtcontacts_symbian.in(.text)
    _E32Dll_Body                             0x0001628d   Thumb Code    34  uc_dll.o(.text)
    CppBSSInitializationError                0x000162b4   ARM Code       4  ucppfini.o(.text)
    __aeabi_atexit                           0x000162b8   ARM Code      28  ucppfini.o(.text)
    __cxa_atexit                             0x000162d4   ARM Code      48  ucppfini.o(.text)
    __cxa_finalize                           0x00016304   ARM Code      48  ucppfini.o(.text)
    run_static_dtors                         0x00016334   ARM Code       8  ucppfini.o(.text)
    __DLL_Export_Table__                     0x00018050   ARM Code       0  qtcontacts_symbian{000a0000}.exp(ExportTable)
    DLL##ExportTableSize                     0x00018054   Data           0  qtcontacts_symbian{000a0000}.exp(ExportTable)
    DLL##ExportTable                         0x00018058   Data           0  qtcontacts_symbian{000a0000}.exp(ExportTable)
    CContactDatabase::SortArrayL(const CContactIdArray*, const CArrayFix<CContactDatabase::TSortPref>*) 0x00018060   ARM Code       0  cntmodel{000a0000}-110.o(StubCode)
    CContactDatabase::SetOwnCardL(const CContactItem&) 0x00018068   ARM Code       0  cntmodel{000a0000}-116.o(StubCode)
    CContactDatabase::ReadContactL(long)     0x00018070   ARM Code       0  cntmodel{000a0000}-121.o(StubCode)
    CContactDatabase::ReadContactL(long, const CContactItemViewDef&) 0x00018078   ARM Code       0  cntmodel{000a0000}-122.o(StubCode)
    CContactDatabase::OpenContactLX(long)    0x00018080   ARM Code       0  cntmodel{000a0000}-128.o(StubCode)
    CContactDatabase::ReadContactLC(long)    0x00018088   ARM Code       0  cntmodel{000a0000}-130.o(StubCode)
    CContactDatabase::AddNewContactL(CContactItem&) 0x00018090   ARM Code       0  cntmodel{000a0000}-132.o(StubCode)
    CContactDatabase::CommitContactL(const CContactItem&) 0x00018098   ARM Code       0  cntmodel{000a0000}-133.o(StubCode)
    CContactDatabase::DeleteContactL(long)   0x000180a0   ARM Code       0  cntmodel{000a0000}-136.o(StubCode)
    CContactDatabase::MatchPhoneNumberL(const TDesC16&, int) 0x000180a8   ARM Code       0  cntmodel{000a0000}-169.o(StubCode)
    CContactDatabase::AddContactToGroupL(long, long) 0x000180b0   ARM Code       0  cntmodel{000a0000}-175.o(StubCode)
    CContactDatabase::ReadMinimalContactL(long) 0x000180b8   ARM Code       0  cntmodel{000a0000}-193.o(StubCode)
    CContactDatabase::CreateContactGroupLC(int) 0x000180c0   ARM Code       0  cntmodel{000a0000}-195.o(StubCode)
    CContactDatabase::ContactsChangedSinceL(const TTime&) 0x000180c8   ARM Code       0  cntmodel{000a0000}-201.o(StubCode)
    CContactDatabase::RemoveContactFromGroupL(long, long) 0x000180d0   ARM Code       0  cntmodel{000a0000}-212.o(StubCode)
    CContactDatabase::OpenL(CContactDatabase::TThreadAccess) 0x000180d8   ARM Code       0  cntmodel{000a0000}-219.o(StubCode)
    CContactDatabase::FindLC(const TDesC16&, const CContactItemFieldDef*) 0x000180e0   ARM Code       0  cntmodel{000a0000}-223.o(StubCode)
    CContactDatabase::CreateL(CContactDatabase::TThreadAccess) 0x000180e8   ARM Code       0  cntmodel{000a0000}-224.o(StubCode)
    CContactCard::NewLC()                    0x000180f0   ARM Code       0  cntmodel{000a0000}-23.o(StubCode)
    CContactDateField::SetTime(TDateTime)    0x000180f8   ARM Code       0  cntmodel{000a0000}-272.o(StubCode)
    CContactItemField::SetMapping(TUid)      0x00018100   ARM Code       0  cntmodel{000a0000}-274.o(StubCode)
    CContactItemField::AddFieldTypeL(TUid)   0x00018108   ARM Code       0  cntmodel{000a0000}-281.o(StubCode)
    CContactItemField::NewL(const CContactItemField&) 0x00018110   ARM Code       0  cntmodel{000a0000}-286.o(StubCode)
    CContactItemField::NewLC(const CContactItemField&) 0x00018118   ARM Code       0  cntmodel{000a0000}-290.o(StubCode)
    CContactItemField::NewLC(unsigned)       0x00018120   ARM Code       0  cntmodel{000a0000}-291.o(StubCode)
    CContactItemField::NewLC(unsigned, TUid) 0x00018128   ARM Code       0  cntmodel{000a0000}-292.o(StubCode)
    CContactItem::UpdateFieldSet(CContactItemFieldSet*) 0x00018130   ARM Code       0  cntmodel{000a0000}-31.o(StubCode)
    CContactTextField::SetTextL(const TDesC16&) 0x00018138   ARM Code       0  cntmodel{000a0000}-320.o(StubCode)
    CContactStoreField::SetThingL(const HBufC8&) 0x00018140   ARM Code       0  cntmodel{000a0000}-330.o(StubCode)
    CContactItemViewDef::AddL(TUid)          0x00018148   ARM Code       0  cntmodel{000a0000}-333.o(StubCode)
    CContactItemViewDef::NewLC(CContactItemViewDef::TUse, CContactItemViewDef::TMode) 0x00018150   ARM Code       0  cntmodel{000a0000}-335.o(StubCode)
    CContactItemFieldSet::AddL(CContactItemField&) 0x00018158   ARM Code       0  cntmodel{000a0000}-357.o(StubCode)
    CContactItemFieldSet::NewLC()            0x00018160   ARM Code       0  cntmodel{000a0000}-360.o(StubCode)
    CContactChangeNotifier::NewL(CContactDatabase&, MContactDbObserver*) 0x00018168   ARM Code       0  cntmodel{000a0000}-377.o(StubCode)
    CContactItem::CardFields() const         0x00018170   ARM Code       0  cntmodel{000a0000}-390.o(StubCode)
    CContactItem::UidStringL(long long) const 0x00018178   ARM Code       0  cntmodel{000a0000}-391.o(StubCode)
    CContactItem::LastModified() const       0x00018180   ARM Code       0  cntmodel{000a0000}-392.o(StubCode)
    CContactItem::Id() const                 0x00018188   ARM Code       0  cntmodel{000a0000}-394.o(StubCode)
    CContentType::FieldTypeCount() const     0x00018190   ARM Code       0  cntmodel{000a0000}-396.o(StubCode)
    CContentType::ContainsFieldType(TUid) const 0x00018198   ARM Code       0  cntmodel{000a0000}-397.o(StubCode)
    CContentType::Mapping() const            0x000181a0   ARM Code       0  cntmodel{000a0000}-400.o(StubCode)
    CContentType::FieldType(int) const       0x000181a8   ARM Code       0  cntmodel{000a0000}-401.o(StubCode)
    CContactGroup::ItemsContained() const    0x000181b0   ARM Code       0  cntmodel{000a0000}-409.o(StubCode)
    CContactIdArray::Find(long) const        0x000181b8   ARM Code       0  cntmodel{000a0000}-414.o(StubCode)
    CContactDatabase::GetGroupIdListL() const 0x000181c0   ARM Code       0  cntmodel{000a0000}-426.o(StubCode)
    CContactDatabase::GetCardTemplateIdListL() const 0x000181c8   ARM Code       0  cntmodel{000a0000}-433.o(StubCode)
    CContactDatabase::MachineId() const      0x000181d0   ARM Code       0  cntmodel{000a0000}-437.o(StubCode)
    CContactDatabase::OwnCardId() const      0x000181d8   ARM Code       0  cntmodel{000a0000}-438.o(StubCode)
    CContactDateField::Time() const          0x000181e0   ARM Code       0  cntmodel{000a0000}-443.o(StubCode)
    CContactItemField::ContentType() const   0x000181e8   ARM Code       0  cntmodel{000a0000}-444.o(StubCode)
    CContactItemField::StorageType() const   0x000181f0   ARM Code       0  cntmodel{000a0000}-445.o(StubCode)
    CContactItemField::TextStorage() const   0x000181f8   ARM Code       0  cntmodel{000a0000}-446.o(StubCode)
    CContactItemField::StoreStorage() const  0x00018200   ARM Code       0  cntmodel{000a0000}-448.o(StubCode)
    CContactItemField::DateTimeStorage() const 0x00018208   ARM Code       0  cntmodel{000a0000}-450.o(StubCode)
    CContactTextField::Text() const          0x00018210   ARM Code       0  cntmodel{000a0000}-458.o(StubCode)
    CContactStoreField::Thing() const        0x00018218   ARM Code       0  cntmodel{000a0000}-460.o(StubCode)
    CContactItemFieldSet::FindNext(TUid, TUid, int) const 0x00018220   ARM Code       0  cntmodel{000a0000}-467.o(StubCode)
    CContactItemFieldSet::FindNext(TUid, int) const 0x00018228   ARM Code       0  cntmodel{000a0000}-468.o(StubCode)
    CContactItemPlusGroup::GroupsJoined() const 0x00018230   ARM Code       0  cntmodel{000a0000}-469.o(StubCode)
    ContactGuid::GetCreationDate(TDes16&, long long) 0x00018238   ARM Code       0  cntmodel{000a0000}-611.o(StubCode)
    CContactIdArray::AddL(long)              0x00018240   ARM Code       0  cntmodel{000a0000}-80.o(StubCode)
    CContactIdArray::NewL(const CContactIdArray*) 0x00018248   ARM Code       0  cntmodel{000a0000}-81.o(StubCode)
    CContactIdArray::NewLC()                 0x00018250   ARM Code       0  cntmodel{000a0000}-85.o(StubCode)
    CRepository::NotifyCancel(unsigned long) 0x00018258   ARM Code       0  centralrepository{000a0000}-1.o(StubCode)
    CRepository::NewL(TUid)                  0x00018260   ARM Code       0  centralrepository{000a0000}-14.o(StubCode)
    CRepository::NotifyRequest(unsigned long, TRequestStatus&) 0x00018268   ARM Code       0  centralrepository{000a0000}-3.o(StubCode)
    CRepository::Get(unsigned long, int&)    0x00018270   ARM Code       0  centralrepository{000a0000}-9.o(StubCode)
    InternalizeL(TDes16&, RReadStream&)      0x00018278   ARM Code       0  estor{000a0000}-13.o(StubCode)
    RBufReadStream::Open(const CBufBase&, int) 0x00018280   ARM Code       0  estor{000a0000}-254.o(StubCode)
    TBufBuf::TBufBuf()                       0x00018288   ARM Code       0  estor{000a0000}-499.o(StubCode)
    RReadStream::ReadInt32L()                0x00018290   ARM Code       0  estor{000a0000}-96.o(StubCode)
    RFs::IsValidName(const TDesC16&) const   0x00018298   ARM Code       0  efsrv{000a0000}-214.o(StubCode)
    RFs::Connect(int)                        0x000182a0   ARM Code       0  efsrv{000a0000}-68.o(StubCode)
    CFbsBitmap::Create(const TSize&, TDisplayMode) 0x000182a8   ARM Code       0  fbscli{000a0000}-26.o(StubCode)
    CFbsBitmap::CFbsBitmap()                 0x000182b0   ARM Code       0  fbscli{000a0000}-31.o(StubCode)
    CImageDecoder::FrameInfo(int) const      0x000182b8   ARM Code       0  imageconversion{000a0000}-298.o(StubCode)
    CImageDecoder::FileNewL(RFs&, const TDesC16&, CImageDecoder::TOptions, TUid, TUid, TUid) 0x000182c0   ARM Code       0  imageconversion{000a0000}-36.o(StubCode)
    CImageEncoder::Convert(TRequestStatus*, const CFbsBitmap&, const CFrameImageData*) 0x000182c8   ARM Code       0  imageconversion{000a0000}-59.o(StubCode)
    CImageEncoder::DataNewL(HBufC8*&, CImageEncoder::TOptions, TUid, TUid, TUid) 0x000182d0   ARM Code       0  imageconversion{000a0000}-60.o(StubCode)
    CBitmapScaler::NewL()                    0x000182d8   ARM Code       0  bitmaptransforms{000a0000}-2.o(StubCode)
    CBitmapScaler::Scale(TRequestStatus*, CFbsBitmap&, const TSize&, int) 0x000182e0   ARM Code       0  bitmaptransforms{000a0000}-3.o(StubCode)
    BaflUtils::FileExists(const RFs&, const TDesC16&) 0x000182e8   ARM Code       0  bafl{000a0000}-257.o(StubCode)
    CTzConverter::ConvertToLocalTime(TTime&) 0x000182f0   ARM Code       0  tzclient{000a0000}-1.o(StubCode)
    RTz::Close()                             0x000182f8   ARM Code       0  tzclient{000a0000}-18.o(StubCode)
    RTz::Connect()                           0x00018300   ARM Code       0  tzclient{000a0000}-20.o(StubCode)
    RTz::RTz()                               0x00018308   ARM Code       0  tzclient{000a0000}-21.o(StubCode)
    RTz::~RTz()                              0x00018310   ARM Code       0  tzclient{000a0000}-23.o(StubCode)
    CTzConverter::NewL(RTz&)                 0x00018318   ARM Code       0  tzclient{000a0000}-5.o(StubCode)
    QtMobility::QContactId::setLocalId(const unsigned&) 0x00018320   ARM Code       0  QtContacts{00010103}-1.o(StubCode)
    QtMobility::QContactManager::buildUri(const QString&, const QMap<QString, QString>&, int) 0x00018328   ARM Code       0  QtContacts{00010103}-120.o(StubCode)
    QtMobility::QContactChangeSet::emitSignals(QtMobility::QContactManagerEngine*) 0x00018330   ARM Code       0  QtContacts{00010103}-147.o(StubCode)
    QtMobility::QContactChangeSet::setDataChanged(bool) 0x00018338   ARM Code       0  QtContacts{00010103}-148.o(StubCode)
    QtMobility::QContactChangeSet::insertAddedContact(unsigned) 0x00018340   ARM Code       0  QtContacts{00010103}-150.o(StubCode)
    QtMobility::QContactChangeSet::insertChangedContact(unsigned) 0x00018348   ARM Code       0  QtContacts{00010103}-154.o(StubCode)
    QtMobility::QContactChangeSet::insertRemovedContact(unsigned) 0x00018350   ARM Code       0  QtContacts{00010103}-155.o(StubCode)
    QtMobility::QContactChangeSet::setOldAndNewSelfContactId(const QPair<unsigned, unsigned>&) 0x00018358   ARM Code       0  QtContacts{00010103}-158.o(StubCode)
    QtMobility::QContactChangeSet::insertAddedRelationshipsContact(unsigned) 0x00018360   ARM Code       0  QtContacts{00010103}-160.o(StubCode)
    QtMobility::QContactChangeSet::insertAddedRelationshipsContacts(const QList<unsigned>&) 0x00018368   ARM Code       0  QtContacts{00010103}-161.o(StubCode)
    QtMobility::QContactChangeSet::insertRemovedRelationshipsContact(unsigned) 0x00018370   ARM Code       0  QtContacts{00010103}-163.o(StubCode)
    QtMobility::QContactChangeSet::insertRemovedRelationshipsContacts(const QList<unsigned>&) 0x00018378   ARM Code       0  QtContacts{00010103}-164.o(StubCode)
    QtMobility::QContactChangeSet::QContactChangeSet() 0x00018380   ARM Code       0  QtContacts{00010103}-167.o(StubCode)
    QtMobility::QContactChangeSet::~QContactChangeSet() 0x00018388   ARM Code       0  QtContacts{00010103}-170.o(StubCode)
    QtMobility::QContactFetchHint::QContactFetchHint() 0x00018390   ARM Code       0  QtContacts{00010103}-177.o(StubCode)
    QtMobility::QContactFetchHint::~QContactFetchHint() 0x00018398   ARM Code       0  QtContacts{00010103}-180.o(StubCode)
    QtMobility::QContactSortOrder::QContactSortOrder(const QtMobility::QContactSortOrder&) 0x000183a0   ARM Code       0  QtContacts{00010103}-187.o(StubCode)
    QtMobility::QContactSortOrder::QContactSortOrder() 0x000183a8   ARM Code       0  QtContacts{00010103}-188.o(StubCode)
    QtMobility::QContactSortOrder::~QContactSortOrder() 0x000183b0   ARM Code       0  QtContacts{00010103}-191.o(StubCode)
    QtMobility::QContactSortOrder::operator =(const QtMobility::QContactSortOrder&) 0x000183b8   ARM Code       0  QtContacts{00010103}-193.o(StubCode)
    QtMobility::QContactId::setManagerUri(const QString&) 0x000183c0   ARM Code       0  QtContacts{00010103}-2.o(StubCode)
    QtMobility::QContactUnionFilter::QContactUnionFilter(const QtMobility::QContactFilter&) 0x000183c8   ARM Code       0  QtContacts{00010103}-249.o(StubCode)
    QtMobility::QContactDetailFilter::setDetailDefinitionName(const QString&, const QString&) 0x000183d0   ARM Code       0  QtContacts{00010103}-255.o(StubCode)
    QtMobility::QContactDetailFilter::setValue(const QVariant&) 0x000183d8   ARM Code       0  QtContacts{00010103}-256.o(StubCode)
    QtMobility::QContactDetailFilter::QContactDetailFilter(const QtMobility::QContactFilter&) 0x000183e0   ARM Code       0  QtContacts{00010103}-257.o(StubCode)
    QtMobility::QContactDetailFilter::QContactDetailFilter() 0x000183e8   ARM Code       0  QtContacts{00010103}-258.o(StubCode)
    QtMobility::QContactRelationship::setRelationshipType(const QString&) 0x000183f0   ARM Code       0  QtContacts{00010103}-287.o(StubCode)
    QtMobility::QContactRelationship::setFirst(const QtMobility::QContactId&) 0x000183f8   ARM Code       0  QtContacts{00010103}-289.o(StubCode)
    QtMobility::QContactRelationship::setSecond(const QtMobility::QContactId&) 0x00018400   ARM Code       0  QtContacts{00010103}-292.o(StubCode)
    QtMobility::QContactRelationship::QContactRelationship(const QtMobility::QContactRelationship&) 0x00018408   ARM Code       0  QtContacts{00010103}-293.o(StubCode)
    QtMobility::QContactRelationship::QContactRelationship() 0x00018410   ARM Code       0  QtContacts{00010103}-294.o(StubCode)
    QtMobility::QContactRelationship::~QContactRelationship() 0x00018418   ARM Code       0  QtContacts{00010103}-297.o(StubCode)
    QtMobility::QContactId::QContactId(const QtMobility::QContactId&) 0x00018420   ARM Code       0  QtContacts{00010103}-3.o(StubCode)
    QtMobility::QContactInvalidFilter::QContactInvalidFilter() 0x00018428   ARM Code       0  QtContacts{00010103}-301.o(StubCode)
    QtMobility::QContactManagerEngine::testFilter(const QtMobility::QContactFilter&, const QtMobility::QContact&) 0x00018430   ARM Code       0  QtContacts{00010103}-309.o(StubCode)
    QtMobility::QContactManagerEngine::qt_metacall(QMetaObject::Call, int, void**) 0x00018438   ARM Code       0  QtContacts{00010103}-311.o(StubCode)
    QtMobility::QContactManagerEngine::qt_metacast(const char*) 0x00018440   ARM Code       0  QtContacts{00010103}-312.o(StubCode)
    QtMobility::QContactManagerEngine::sortContacts(const QList<QtMobility::QContact>&, QList<QtMobility::QContactSortOrder>&) 0x00018448   ARM Code       0  QtContacts{00010103}-315.o(StubCode)
    QtMobility::QContactManagerEngine::updateRequestState(QtMobility::QContactAbstractRequest*, QtMobility::QContactAbstractRequest::State) 0x00018450   ARM Code       0  QtContacts{00010103}-333.o(StubCode)
    QtMobility::QContactManagerEngine::saveDetailDefinition(const QtMobility::QContactDetailDefinition&, const QString&, QtMobility::QContactManager::Error*) 0x00018458   ARM Code       0  QtContacts{00010103}-338.o(StubCode)
    QtMobility::QContactManagerEngine::removeDetailDefinition(const QString&, const QString&, QtMobility::QContactManager::Error*) 0x00018460   ARM Code       0  QtContacts{00010103}-340.o(StubCode)
    QtMobility::QContactManagerEngine::setContactDisplayLabel(QtMobility::QContact*, const QString&) 0x00018468   ARM Code       0  QtContacts{00010103}-341.o(StubCode)
    QtMobility::QContactManagerEngine::setContactRelationships(QtMobility::QContact*, const QList<QtMobility::QContactRelationship>&) 0x00018470   ARM Code       0  QtContacts{00010103}-343.o(StubCode)
    QtMobility::QContactManagerEngine::updateContactSaveRequest(QtMobility::QContactSaveRequest*, const QList<QtMobility::QContact>&, QtMobility::QContactManager::Error, const QMap<int, QtMobility::QContactManager::Error>&, QtMobility::QContactAbstractRequest::State) 0x00018478   ARM Code       0  QtContacts{00010103}-344.o(StubCode)
    QtMobility::QContactManagerEngine::updateContactFetchRequest(QtMobility::QContactFetchRequest*, const QList<QtMobility::QContact>&, QtMobility::QContactManager::Error, QtMobility::QContactAbstractRequest::State) 0x00018480   ARM Code       0  QtContacts{00010103}-345.o(StubCode)
    QtMobility::QContactManagerEngine::updateContactRemoveRequest(QtMobility::QContactRemoveRequest*, QtMobility::QContactManager::Error, const QMap<int, QtMobility::QContactManager::Error>&, QtMobility::QContactAbstractRequest::State) 0x00018488   ARM Code       0  QtContacts{00010103}-347.o(StubCode)
    QtMobility::QContactManagerEngine::updateDefinitionFetchRequest(QtMobility::QContactDetailDefinitionFetchRequest*, const QMap<QString, QtMobility::QContactDetailDefinition>&, QtMobility::QContactManager::Error, QMap<int, QtMobility::QContactManager::Error>&, QtMobility::QContactAbstractRequest::State) 0x00018490   ARM Code       0  QtContacts{00010103}-349.o(StubCode)
    QtMobility::QContactManagerEngine::updateRelationshipSaveRequest(QtMobility::QContactRelationshipSaveRequest*, const QList<QtMobility::QContactRelationship>&, QtMobility::QContactManager::Error, const QMap<int, QtMobility::QContactManager::Error>&, QtMobility::QContactAbstractRequest::State) 0x00018498   ARM Code       0  QtContacts{00010103}-351.o(StubCode)
    QtMobility::QContactManagerEngine::updateRelationshipFetchRequest(QtMobility::QContactRelationshipFetchRequest*, const QList<QtMobility::QContactRelationship>&, QtMobility::QContactManager::Error, QtMobility::QContactAbstractRequest::State) 0x000184a0   ARM Code       0  QtContacts{00010103}-352.o(StubCode)
    QtMobility::QContactManagerEngine::updateRelationshipRemoveRequest(QtMobility::QContactRelationshipRemoveRequest*, QtMobility::QContactManager::Error, const QMap<int, QtMobility::QContactManager::Error>&, QtMobility::QContactAbstractRequest::State) 0x000184a8   ARM Code       0  QtContacts{00010103}-353.o(StubCode)
    QtMobility::QContactManagerEngine::updateContactLocalIdFetchRequest(QtMobility::QContactLocalIdFetchRequest*, const QList<unsigned>&, QtMobility::QContactManager::Error, QtMobility::QContactAbstractRequest::State) 0x000184b0   ARM Code       0  QtContacts{00010103}-354.o(StubCode)
    QtMobility::QContactId::QContactId()     0x000184b8   ARM Code       0  QtContacts{00010103}-4.o(StubCode)
    QtMobility::QContactDetailDefinition::setName(const QString&) 0x000184c0   ARM Code       0  QtContacts{00010103}-403.o(StubCode)
    QtMobility::QContactDetailDefinition::setFields(const QMap<QString, QtMobility::QContactDetailFieldDefinition>&) 0x000184c8   ARM Code       0  QtContacts{00010103}-404.o(StubCode)
    QtMobility::QContactDetailDefinition::setUnique(bool) 0x000184d0   ARM Code       0  QtContacts{00010103}-405.o(StubCode)
    QtMobility::QContactDetailDefinition::QContactDetailDefinition(const QtMobility::QContactDetailDefinition&) 0x000184d8   ARM Code       0  QtContacts{00010103}-406.o(StubCode)
    QtMobility::QContactDetailDefinition::QContactDetailDefinition() 0x000184e0   ARM Code       0  QtContacts{00010103}-407.o(StubCode)
    QtMobility::QContactDetailDefinition::~QContactDetailDefinition() 0x000184e8   ARM Code       0  QtContacts{00010103}-410.o(StubCode)
    QtMobility::QContactDetailDefinition::operator =(const QtMobility::QContactDetailDefinition&) 0x000184f0   ARM Code       0  QtContacts{00010103}-412.o(StubCode)
    QtMobility::QContactIntersectionFilter::append(const QtMobility::QContactFilter&) 0x000184f8   ARM Code       0  QtContacts{00010103}-421.o(StubCode)
    QtMobility::QContactIntersectionFilter::QContactIntersectionFilter(const QtMobility::QContactFilter&) 0x00018500   ARM Code       0  QtContacts{00010103}-424.o(StubCode)
    QtMobility::QContactIntersectionFilter::QContactIntersectionFilter() 0x00018508   ARM Code       0  QtContacts{00010103}-425.o(StubCode)
    QtMobility::QContactRelationshipFilter::QContactRelationshipFilter(const QtMobility::QContactFilter&) 0x00018510   ARM Code       0  QtContacts{00010103}-432.o(StubCode)
    QtMobility::QContactManagerEngineFactory::~QContactManagerEngineFactory__sub_object() 0x00018518   ARM Code       0  QtContacts{00010103}-446.o(StubCode)
    QtMobility::QContactDetailFieldDefinition::setDataType(QVariant::Type) 0x00018520   ARM Code       0  QtContacts{00010103}-447.o(StubCode)
    QtMobility::QContactDetailFieldDefinition::setAllowableValues(QList<QVariant>) 0x00018528   ARM Code       0  QtContacts{00010103}-448.o(StubCode)
    QtMobility::QContactDetailFieldDefinition::QContactDetailFieldDefinition(const QtMobility::QContactDetailFieldDefinition&) 0x00018530   ARM Code       0  QtContacts{00010103}-449.o(StubCode)
    QtMobility::QContactDetailFieldDefinition::QContactDetailFieldDefinition() 0x00018538   ARM Code       0  QtContacts{00010103}-450.o(StubCode)
    QtMobility::QContactDetailFieldDefinition::~QContactDetailFieldDefinition() 0x00018540   ARM Code       0  QtContacts{00010103}-453.o(StubCode)
    QtMobility::QContactDetailFieldDefinition::operator =(const QtMobility::QContactDetailFieldDefinition&) 0x00018548   ARM Code       0  QtContacts{00010103}-455.o(StubCode)
    QtMobility::QContactDetail::setValue(const char*, const QVariant&) 0x00018550   ARM Code       0  QtContacts{00010103}-48.o(StubCode)
    QtMobility::QContactDetail::setValue(const QString&, const QVariant&) 0x00018558   ARM Code       0  QtContacts{00010103}-49.o(StubCode)
    QtMobility::QContactDetail::QContactDetail(const char*) 0x00018560   ARM Code       0  QtContacts{00010103}-50.o(StubCode)
    QtMobility::QContactDetail::QContactDetail(const QString&) 0x00018568   ARM Code       0  QtContacts{00010103}-51.o(StubCode)
    QtMobility::QContact::saveDetail(QtMobility::QContactDetail*) 0x00018570   ARM Code       0  QtContacts{00010103}-512.o(StubCode)
    QtMobility::QContact::clearDetails()     0x00018578   ARM Code       0  QtContacts{00010103}-513.o(StubCode)
    QtMobility::QContact::removeDetail(QtMobility::QContactDetail*) 0x00018580   ARM Code       0  QtContacts{00010103}-514.o(StubCode)
    QtMobility::QContact::setId(const QtMobility::QContactId&) 0x00018588   ARM Code       0  QtContacts{00010103}-515.o(StubCode)
    QtMobility::QContact::setType(const QString&) 0x00018590   ARM Code       0  QtContacts{00010103}-516.o(StubCode)
    QtMobility::QContact::QContact(const QtMobility::QContact&) 0x00018598   ARM Code       0  QtContacts{00010103}-518.o(StubCode)
    QtMobility::QContact::QContact()         0x000185a0   ARM Code       0  QtContacts{00010103}-519.o(StubCode)
    QtMobility::QContactDetail::QContactDetail(const QtMobility::QContactDetail&) 0x000185a8   ARM Code       0  QtContacts{00010103}-52.o(StubCode)
    QtMobility::QContact::~QContact()        0x000185b0   ARM Code       0  QtContacts{00010103}-522.o(StubCode)
    QtMobility::QContact::operator =(const QtMobility::QContact&) 0x000185b8   ARM Code       0  QtContacts{00010103}-524.o(StubCode)
    QtMobility::QContactDetail::QContactDetail(const QtMobility::QContactDetail&, const char*) 0x000185c0   ARM Code       0  QtContacts{00010103}-53.o(StubCode)
    QtMobility::QContactId::managerUri() const 0x000185c8   ARM Code       0  QtContacts{00010103}-531.o(StubCode)
    QtMobility::QContactId::localId() const  0x000185d0   ARM Code       0  QtContacts{00010103}-532.o(StubCode)
    QtMobility::QContactId::operator !=(const QtMobility::QContactId&) const 0x000185d8   ARM Code       0  QtContacts{00010103}-535.o(StubCode)
    QtMobility::QContactDetail::variantValue(const char*) const 0x000185e0   ARM Code       0  QtContacts{00010103}-536.o(StubCode)
    QtMobility::QContactDetail::variantValue(const QString&) const 0x000185e8   ARM Code       0  QtContacts{00010103}-537.o(StubCode)
    QtMobility::QContactDetail::variantValues() const 0x000185f0   ARM Code       0  QtContacts{00010103}-538.o(StubCode)
    QtMobility::QContactDetail::definitionName() const 0x000185f8   ARM Code       0  QtContacts{00010103}-539.o(StubCode)
    QtMobility::QContactDetail::value(const char*) const 0x00018600   ARM Code       0  QtContacts{00010103}-542.o(StubCode)
    QtMobility::QContactDetail::value(const QString&) const 0x00018608   ARM Code       0  QtContacts{00010103}-543.o(StubCode)
    QtMobility::QContactDetail::isEmpty() const 0x00018610   ARM Code       0  QtContacts{00010103}-544.o(StubCode)
    QtMobility::QContactFilter::type() const 0x00018618   ARM Code       0  QtContacts{00010103}-548.o(StubCode)
    QtMobility::QContactFilter::operator ==(const QtMobility::QContactFilter&) const 0x00018620   ARM Code       0  QtContacts{00010103}-549.o(StubCode)
    QtMobility::QContactDetail::QContactDetail() 0x00018628   ARM Code       0  QtContacts{00010103}-55.o(StubCode)
    QtMobility::QContactFetchHint::optimizationHints() const 0x00018630   ARM Code       0  QtContacts{00010103}-579.o(StubCode)
    QtMobility::QContactFetchHint::detailDefinitionsHint() const 0x00018638   ARM Code       0  QtContacts{00010103}-580.o(StubCode)
    QtMobility::QContactSortOrder::blankPolicy() const 0x00018640   ARM Code       0  QtContacts{00010103}-582.o(StubCode)
    QtMobility::QContactSortOrder::caseSensitivity() const 0x00018648   ARM Code       0  QtContacts{00010103}-583.o(StubCode)
    QtMobility::QContactSortOrder::detailFieldName() const 0x00018650   ARM Code       0  QtContacts{00010103}-584.o(StubCode)
    QtMobility::QContactSortOrder::detailDefinitionName() const 0x00018658   ARM Code       0  QtContacts{00010103}-585.o(StubCode)
    QtMobility::QContactSortOrder::isValid() const 0x00018660   ARM Code       0  QtContacts{00010103}-586.o(StubCode)
    QtMobility::QContactSortOrder::direction() const 0x00018668   ARM Code       0  QtContacts{00010103}-587.o(StubCode)
    QtMobility::QContactSaveRequest::contacts() const 0x00018670   ARM Code       0  QtContacts{00010103}-590.o(StubCode)
    QtMobility::QContactUnionFilter::filters() const 0x00018678   ARM Code       0  QtContacts{00010103}-592.o(StubCode)
    QtMobility::QContactDetailFilter::matchFlags() const 0x00018680   ARM Code       0  QtContacts{00010103}-593.o(StubCode)
    QtMobility::QContactDetailFilter::detailFieldName() const 0x00018688   ARM Code       0  QtContacts{00010103}-594.o(StubCode)
    QtMobility::QContactDetailFilter::detailDefinitionName() const 0x00018690   ARM Code       0  QtContacts{00010103}-595.o(StubCode)
    QtMobility::QContactDetailFilter::value() const 0x00018698   ARM Code       0  QtContacts{00010103}-596.o(StubCode)
    QtMobility::QContactFetchRequest::filter() const 0x000186a0   ARM Code       0  QtContacts{00010103}-598.o(StubCode)
    QtMobility::QContactFetchRequest::sorting() const 0x000186a8   ARM Code       0  QtContacts{00010103}-599.o(StubCode)
    QtMobility::QContactFetchRequest::fetchHint() const 0x000186b0   ARM Code       0  QtContacts{00010103}-601.o(StubCode)
    QtMobility::QContactRelationship::relationshipType() const 0x000186b8   ARM Code       0  QtContacts{00010103}-602.o(StubCode)
    QtMobility::QContactRelationship::first() const 0x000186c0   ARM Code       0  QtContacts{00010103}-603.o(StubCode)
    QtMobility::QContactRelationship::second() const 0x000186c8   ARM Code       0  QtContacts{00010103}-604.o(StubCode)
    QtMobility::QContactManagerEngine::managerUri() const 0x000186d0   ARM Code       0  QtContacts{00010103}-609.o(StubCode)
    QtMobility::QContactManagerEngine::validateContact(const QtMobility::QContact&, QtMobility::QContactManager::Error*) const 0x000186d8   ARM Code       0  QtContacts{00010103}-614.o(StubCode)
    QtMobility::QContactManagerEngine::detailDefinition(const QString&, const QString&, QtMobility::QContactManager::Error*) const 0x000186e0   ARM Code       0  QtContacts{00010103}-615.o(StubCode)
    QtMobility::QContactManagerEngine::compatibleContact(const QtMobility::QContact&, QtMobility::QContactManager::Error*) const 0x000186e8   ARM Code       0  QtContacts{00010103}-616.o(StubCode)
    QtMobility::QContactManagerEngine::managerParameters() const 0x000186f0   ARM Code       0  QtContacts{00010103}-619.o(StubCode)
    QtMobility::QContactDetail::~QContactDetail() 0x000186f8   ARM Code       0  QtContacts{00010103}-62.o(StubCode)
    QtMobility::QContactManagerEngine::validateDefinition(const QtMobility::QContactDetailDefinition&, QtMobility::QContactManager::Error*) const 0x00018700   ARM Code       0  QtContacts{00010103}-621.o(StubCode)
    QtMobility::QContactManagerEngine::supportedContactTypes() const 0x00018708   ARM Code       0  QtContacts{00010103}-622.o(StubCode)
    QtMobility::QContactRemoveRequest::contactIds() const 0x00018710   ARM Code       0  QtContacts{00010103}-627.o(StubCode)
    QtMobility::QContactAbstractRequest::type() const 0x00018718   ARM Code       0  QtContacts{00010103}-634.o(StubCode)
    QtMobility::QContactAbstractRequest::state() const 0x00018720   ARM Code       0  QtContacts{00010103}-636.o(StubCode)
    QtMobility::QContactDetail::operator =(const QtMobility::QContactDetail&) 0x00018728   ARM Code       0  QtContacts{00010103}-64.o(StubCode)
    QtMobility::QContactDetailDefinition::name() const 0x00018730   ARM Code       0  QtContacts{00010103}-641.o(StubCode)
    QtMobility::QContactDetailDefinition::fields() const 0x00018738   ARM Code       0  QtContacts{00010103}-642.o(StubCode)
    QtMobility::QContactIntersectionFilter::filters() const 0x00018740   ARM Code       0  QtContacts{00010103}-652.o(StubCode)
    QtMobility::QContactRelationshipFilter::relatedContactId() const 0x00018748   ARM Code       0  QtContacts{00010103}-653.o(StubCode)
    QtMobility::QContactRelationshipFilter::relationshipType() const 0x00018750   ARM Code       0  QtContacts{00010103}-654.o(StubCode)
    QtMobility::QContactRelationshipFilter::relatedContactRole() const 0x00018758   ARM Code       0  QtContacts{00010103}-655.o(StubCode)
    QtMobility::QContactLocalIdFetchRequest::filter() const 0x00018760   ARM Code       0  QtContacts{00010103}-658.o(StubCode)
    QtMobility::QContactLocalIdFetchRequest::sorting() const 0x00018768   ARM Code       0  QtContacts{00010103}-659.o(StubCode)
    QtMobility::QContactManagerEngineFactory::supportedImplementationVersions() const 0x00018770   ARM Code       0  QtContacts{00010103}-660.o(StubCode)
    QtMobility::QContactRelationshipSaveRequest::relationships() const 0x00018778   ARM Code       0  QtContacts{00010103}-666.o(StubCode)
    QtMobility::QContactRelationshipFetchRequest::relationshipType() const 0x00018780   ARM Code       0  QtContacts{00010103}-670.o(StubCode)
    QtMobility::QContactRelationshipFetchRequest::first() const 0x00018788   ARM Code       0  QtContacts{00010103}-671.o(StubCode)
    QtMobility::QContactRelationshipFetchRequest::second() const 0x00018790   ARM Code       0  QtContacts{00010103}-672.o(StubCode)
    QtMobility::QContactRelationshipRemoveRequest::relationships() const 0x00018798   ARM Code       0  QtContacts{00010103}-674.o(StubCode)
    QtMobility::QContactDetailDefinitionFetchRequest::contactType() const 0x000187a0   ARM Code       0  QtContacts{00010103}-681.o(StubCode)
    QtMobility::QContactDetailDefinitionFetchRequest::definitionNames() const 0x000187a8   ARM Code       0  QtContacts{00010103}-683.o(StubCode)
    QtMobility::QContactFilter::QContactFilter(const QtMobility::QContactFilter&) 0x000187b0   ARM Code       0  QtContacts{00010103}-69.o(StubCode)
    QtMobility::QContact::id() const         0x000187b8   ARM Code       0  QtContacts{00010103}-692.o(StubCode)
    QtMobility::QContact::type() const       0x000187c0   ARM Code       0  QtContacts{00010103}-693.o(StubCode)
    QtMobility::QContact::detail(const char*) const 0x000187c8   ARM Code       0  QtContacts{00010103}-694.o(StubCode)
    QtMobility::QContact::detail(const QString&) const 0x000187d0   ARM Code       0  QtContacts{00010103}-695.o(StubCode)
    QtMobility::QContact::details(const char*) const 0x000187d8   ARM Code       0  QtContacts{00010103}-696.o(StubCode)
    QtMobility::QContact::details(const QString&) const 0x000187e0   ARM Code       0  QtContacts{00010103}-698.o(StubCode)
    QtMobility::QContactId::~QContactId()    0x000187e8   ARM Code       0  QtContacts{00010103}-7.o(StubCode)
    QtMobility::QContactFilter::QContactFilter() 0x000187f0   ARM Code       0  QtContacts{00010103}-70.o(StubCode)
    QtMobility::QContact::localId() const    0x000187f8   ARM Code       0  QtContacts{00010103}-701.o(StubCode)
    QtMobility::QContactFilter::~QContactFilter() 0x00018800   ARM Code       0  QtContacts{00010103}-74.o(StubCode)
    QtMobility::QContactManagerEngine::schemaDefinitions(int) 0x00018808   ARM Code       0  QtContacts{00010103}-797.o(StubCode)
    QtMobility::QContact::setPreferredDetail(const QString&, const QtMobility::QContactDetail&) 0x00018810   ARM Code       0  QtContacts{00010103}-855.o(StubCode)
    QtMobility::QContact::isPreferredDetail(const QString&, const QtMobility::QContactDetail&) const 0x00018818   ARM Code       0  QtContacts{00010103}-914.o(StubCode)
    operator delete (void*)                  0x00018820   ARM Code       0  libstdcpp{00010000}-988.o(StubCode)
    operator new(unsigned)                   0x00018828   ARM Code       0  libstdcpp{00010000}-992.o(StubCode)
    QImage::loadFromData(const unsigned char*, int, const char*) 0x00018830   ARM Code       0  QtGui{00040703}-5707.o(StubCode)
    QImage::QImage(const QImage&)            0x00018838   ARM Code       0  QtGui{00040703}-5733.o(StubCode)
    QImage::QImage()                         0x00018840   ARM Code       0  QtGui{00040703}-5735.o(StubCode)
    QImage::~QImage()                        0x00018848   ARM Code       0  QtGui{00040703}-5748.o(StubCode)
    QPixmap::fromImage(const QImage&, QFlags<Qt::ImageConversionFlag>) 0x00018850   ARM Code       0  QtGui{00040703}-6043.o(StubCode)
    QPixmap::~QPixmap()                      0x00018858   ARM Code       0  QtGui{00040703}-6063.o(StubCode)
    QImage::isNull() const                   0x00018860   ARM Code       0  QtGui{00040703}-9807.o(StubCode)
    QImage::scaled(const QSize&, Qt::AspectRatioMode, Qt::TransformationMode) const 0x00018868   ARM Code       0  QtGui{00040703}-9810.o(StubCode)
    QImage::operator QVariant() const        0x00018870   ARM Code       0  QtGui{00040703}-9820.o(StubCode)
    QPixmap::toSymbianCFbsBitmap() const     0x00018878   ARM Code       0  QtGui{00040703}-9981.o(StubCode)
    QUrl::fromUserInput(const QString&)      0x00018880   ARM Code       0  QtCore{00040703}-1493.o(StubCode)
    QUrl::QUrl(const QString&)               0x00018888   ARM Code       0  QtCore{00040703}-1523.o(StubCode)
    QUrl::QUrl(const QUrl&)                  0x00018890   ARM Code       0  QtCore{00040703}-1525.o(StubCode)
    QUrl::QUrl()                             0x00018898   ARM Code       0  QtCore{00040703}-1526.o(StubCode)
    QUrl::~QUrl()                            0x000188a0   ARM Code       0  QtCore{00040703}-1531.o(StubCode)
    QChar::fromAscii(char)                   0x000188a8   ARM Code       0  QtCore{00040703}-1559.o(StubCode)
    QChar::QChar(char)                       0x000188b0   ARM Code       0  QtCore{00040703}-1560.o(StubCode)
    QDate::QDate(int, int, int)              0x000188b8   ARM Code       0  QtCore{00040703}-1582.o(StubCode)
    QByteArray::QByteArray(const char*, int) 0x000188c0   ARM Code       0  QtCore{00040703}-160.o(StubCode)
    QTimer::singleShot(int, QObject*, const char*) 0x000188c8   ARM Code       0  QtCore{00040703}-1706.o(StubCode)
    QObject::childEvent(QChildEvent*)        0x000188d0   ARM Code       0  QtCore{00040703}-1760.o(StubCode)
    QObject::timerEvent(QTimerEvent*)        0x000188d8   ARM Code       0  QtCore{00040703}-1763.o(StubCode)
    QObject::customEvent(QEvent*)            0x000188e0   ARM Code       0  QtCore{00040703}-1764.o(StubCode)
    QObject::eventFilter(QObject*, QEvent*)  0x000188e8   ARM Code       0  QtCore{00040703}-1766.o(StubCode)
    QObject::qt_metacall(QMetaObject::Call, int, void**) 0x000188f0   ARM Code       0  QtCore{00040703}-1767.o(StubCode)
    QObject::qt_metacast(const char*)        0x000188f8   ARM Code       0  QtCore{00040703}-1768.o(StubCode)
    QObject::connectNotify(const char*)      0x00018900   ARM Code       0  QtCore{00040703}-1773.o(StubCode)
    QObject::disconnectNotify(const char*)   0x00018908   ARM Code       0  QtCore{00040703}-1777.o(StubCode)
    QObject::event(QEvent*)                  0x00018910   ARM Code       0  QtCore{00040703}-1784.o(StubCode)
    QObject::connect(const QObject*, const char*, const QObject*, const char*, Qt::ConnectionType) 0x00018918   ARM Code       0  QtCore{00040703}-1785.o(StubCode)
    QObject::QObject(QObject*)               0x00018920   ARM Code       0  QtCore{00040703}-1789.o(StubCode)
    QObject::~QObject()                      0x00018928   ARM Code       0  QtCore{00040703}-1794.o(StubCode)
    QString::fromLatin1(const char*, int)    0x00018930   ARM Code       0  QtCore{00040703}-1814.o(StubCode)
    QString::fromAscii_helper(const char*, int) 0x00018938   ARM Code       0  QtCore{00040703}-1825.o(StubCode)
    QString::fromLatin1_helper(const char*, int) 0x00018940   ARM Code       0  QtCore{00040703}-1826.o(StubCode)
    QString::free(QString::Data*)            0x00018948   ARM Code       0  QtCore{00040703}-1830.o(StubCode)
    QString::grow(int)                       0x00018950   ARM Code       0  QtCore{00040703}-1831.o(StubCode)
    QString::append(QChar)                   0x00018958   ARM Code       0  QtCore{00040703}-1833.o(StubCode)
    QString::append(const QString&)          0x00018960   ARM Code       0  QtCore{00040703}-1836.o(StubCode)
    QString::insert(int, QChar)              0x00018968   ARM Code       0  QtCore{00040703}-1838.o(StubCode)
    QString::number(double, char, int)       0x00018970   ARM Code       0  QtCore{00040703}-1841.o(StubCode)
    QString::realloc(int)                    0x00018978   ARM Code       0  QtCore{00040703}-1855.o(StubCode)
    QString::replace(const QString&, const QString&, Qt::CaseSensitivity) 0x00018980   ARM Code       0  QtCore{00040703}-1865.o(StubCode)
    QString::fromAscii(const char*, int)     0x00018988   ARM Code       0  QtCore{00040703}-1874.o(StubCode)
    QString::fromUtf16(const unsigned short*, int) 0x00018990   ARM Code       0  QtCore{00040703}-1875.o(StubCode)
    QString::operator =(const QString&)      0x00018998   ARM Code       0  QtCore{00040703}-1885.o(StubCode)
    QMapData::node_delete(QMapData::Node**, int, QMapData::Node*) 0x000189a0   ARM Code       0  QtCore{00040703}-1947.o(StubCode)
    QMapData::continueFreeData(int)          0x000189a8   ARM Code       0  QtCore{00040703}-1949.o(StubCode)
    QVariant::QVariant(const QStringList&)   0x000189b0   ARM Code       0  QtCore{00040703}-2015.o(StubCode)
    QVariant::QVariant(const QLatin1String&) 0x000189b8   ARM Code       0  QtCore{00040703}-2016.o(StubCode)
    QVariant::QVariant(const QUrl&)          0x000189c0   ARM Code       0  QtCore{00040703}-2018.o(StubCode)
    QVariant::QVariant(const QDate&)         0x000189c8   ARM Code       0  QtCore{00040703}-2020.o(StubCode)
    QVariant::QVariant(const QString&)       0x000189d0   ARM Code       0  QtCore{00040703}-2034.o(StubCode)
    QVariant::QVariant(const QDateTime&)     0x000189d8   ARM Code       0  QtCore{00040703}-2036.o(StubCode)
    QVariant::QVariant(const QVariant&)      0x000189e0   ARM Code       0  QtCore{00040703}-2037.o(StubCode)
    QVariant::QVariant(double)               0x000189e8   ARM Code       0  QtCore{00040703}-2039.o(StubCode)
    QVariant::~QVariant()                    0x000189f0   ARM Code       0  QtCore{00040703}-2082.o(StubCode)
    QDateTime::fromString(const QString&, const QString&) 0x000189f8   ARM Code       0  QtCore{00040703}-2093.o(StubCode)
    QDateTime::~QDateTime()                  0x00018a00   ARM Code       0  QtCore{00040703}-2110.o(StubCode)
    QHashData::free_helper(void(*)(QHashData::Node*)) 0x00018a08   ARM Code       0  QtCore{00040703}-2134.o(StubCode)
    QHashData::previousNode(QHashData::Node*) 0x00018a10   ARM Code       0  QtCore{00040703}-2137.o(StubCode)
    QHashData::rehash(int)                   0x00018a18   ARM Code       0  QtCore{00040703}-2141.o(StubCode)
    QHashData::freeNode(void*)               0x00018a20   ARM Code       0  QtCore{00040703}-2142.o(StubCode)
    QHashData::nextNode(QHashData::Node*)    0x00018a28   ARM Code       0  QtCore{00040703}-2143.o(StubCode)
    QListData::erase(void**)                 0x00018a30   ARM Code       0  QtCore{00040703}-2186.o(StubCode)
    QListData::append()                      0x00018a38   ARM Code       0  QtCore{00040703}-2188.o(StubCode)
    QListData::insert(int)                   0x00018a40   ARM Code       0  QtCore{00040703}-2190.o(StubCode)
    QListData::remove(int)                   0x00018a48   ARM Code       0  QtCore{00040703}-2191.o(StubCode)
    QListData::append2(const QListData&)     0x00018a50   ARM Code       0  QtCore{00040703}-2193.o(StubCode)
    QListData::realloc(int)                  0x00018a58   ARM Code       0  QtCore{00040703}-2197.o(StubCode)
    QtPrivate::QStringList_join(const QStringList*, const QString&) 0x00018a60   ARM Code       0  QtCore{00040703}-2315.o(StubCode)
    QtPrivate::QStringList_contains(const QStringList*, const QString&, Qt::CaseSensitivity) 0x00018a68   ARM Code       0  QtCore{00040703}-2321.o(StubCode)
    QMetaObject::changeGuard(QObject**, QObject*) 0x00018a70   ARM Code       0  QtCore{00040703}-274.o(StubCode)
    QMetaObject::removeGuard(QObject**)      0x00018a78   ARM Code       0  QtCore{00040703}-275.o(StubCode)
    QMetaObject::activate(QObject*, const QMetaObject*, int, void**) 0x00018a80   ARM Code       0  QtCore{00040703}-282.o(StubCode)
    QUrl::toLocalFile() const                0x00018a88   ARM Code       0  QtCore{00040703}-2823.o(StubCode)
    QUrl::scheme() const                     0x00018a90   ARM Code       0  QtCore{00040703}-2841.o(StubCode)
    QUrl::isValid() const                    0x00018a98   ARM Code       0  QtCore{00040703}-2843.o(StubCode)
    QUrl::toString(QFlags<QUrl::FormattingOption>) const 0x00018aa0   ARM Code       0  QtCore{00040703}-2848.o(StubCode)
    QDate::day() const                       0x00018aa8   ARM Code       0  QtCore{00040703}-2883.o(StubCode)
    QDate::year() const                      0x00018ab0   ARM Code       0  QtCore{00040703}-2884.o(StubCode)
    QDate::month() const                     0x00018ab8   ARM Code       0  QtCore{00040703}-2885.o(StubCode)
    QString::arg(long long, int, int, const QChar&) const 0x00018ac0   ARM Code       0  QtCore{00040703}-3052.o(StubCode)
    QString::arg(unsigned long long, int, int, const QChar&) const 0x00018ac8   ARM Code       0  QtCore{00040703}-3053.o(StubCode)
    QString::left(int) const                 0x00018ad0   ARM Code       0  QtCore{00040703}-3055.o(StubCode)
    QString::right(int) const                0x00018ad8   ARM Code       0  QtCore{00040703}-3059.o(StubCode)
    QString::split(const QChar&, QString::SplitBehavior, Qt::CaseSensitivity) const 0x00018ae0   ARM Code       0  QtCore{00040703}-3060.o(StubCode)
    QString::utf16() const                   0x00018ae8   ARM Code       0  QtCore{00040703}-3064.o(StubCode)
    QString::compare(const QString&) const   0x00018af0   ARM Code       0  QtCore{00040703}-3071.o(StubCode)
    QString::indexOf(QChar, int, Qt::CaseSensitivity) const 0x00018af8   ARM Code       0  QtCore{00040703}-3073.o(StubCode)
    QString::multiArg(int, const QString**) const 0x00018b00   ARM Code       0  QtCore{00040703}-3091.o(StubCode)
    QString::toDouble(bool*) const           0x00018b08   ARM Code       0  QtCore{00040703}-3094.o(StubCode)
    QString::operator ==(const QLatin1String&) const 0x00018b10   ARM Code       0  QtCore{00040703}-3097.o(StubCode)
    QString::operator ==(const QString&) const 0x00018b18   ARM Code       0  QtCore{00040703}-3098.o(StubCode)
    QString::operator <(const QString&) const 0x00018b20   ARM Code       0  QtCore{00040703}-3101.o(StubCode)
    QVariant::canConvert(QVariant::Type) const 0x00018b28   ARM Code       0  QtCore{00040703}-3129.o(StubCode)
    QVariant::toStringList() const           0x00018b30   ARM Code       0  QtCore{00040703}-3135.o(StubCode)
    QVariant::type() const                   0x00018b38   ARM Code       0  QtCore{00040703}-3138.o(StubCode)
    QVariant::toBool() const                 0x00018b40   ARM Code       0  QtCore{00040703}-3143.o(StubCode)
    QVariant::toDouble(bool*) const          0x00018b48   ARM Code       0  QtCore{00040703}-3159.o(StubCode)
    QVariant::toString() const               0x00018b50   ARM Code       0  QtCore{00040703}-3163.o(StubCode)
    QVariant::userType() const               0x00018b58   ARM Code       0  QtCore{00040703}-3165.o(StubCode)
    QVariant::constData() const              0x00018b60   ARM Code       0  QtCore{00040703}-3166.o(StubCode)
    QMapData::createData(int)                0x00018b68   ARM Code       0  QtCore{00040703}-3607.o(StubCode)
    QMapData::node_create(QMapData::Node**, int, int) 0x00018b70   ARM Code       0  QtCore{00040703}-3608.o(StubCode)
    QHashData::allocateNode(int)             0x00018b78   ARM Code       0  QtCore{00040703}-3609.o(StubCode)
    QHashData::detach_helper2(void(*)(QHashData::Node*, void*), void(*)(QHashData::Node*), int, int) 0x00018b80   ARM Code       0  QtCore{00040703}-3610.o(StubCode)
    QListData::detach_grow(int*, int)        0x00018b88   ARM Code       0  QtCore{00040703}-3689.o(StubCode)
    QListData::detach(int)                   0x00018b90   ARM Code       0  QtCore{00040703}-3691.o(StubCode)
    qt_symbian_exception2Error(const std::exception&) 0x00018b98   ARM Code       0  QtCore{00040703}-49.o(StubCode)
    qFree(void*)                             0x00018ba0   ARM Code       0  QtCore{00040703}-70.o(StubCode)
    qHash(const QString&)                    0x00018ba8   ARM Code       0  QtCore{00040703}-73.o(StubCode)
    strcmp                                   0x00018bb0   ARM Code       0  libc{00010000}-350.o(StubCode)
    TLex16::Val(long long&, TRadix)          0x00018bb8   ARM Code       0  euser{000a0000}-1003.o(StubCode)
    TLex16::Val(long&)                       0x00018bc0   ARM Code       0  euser{000a0000}-1010.o(StubCode)
    TLex16::Assign(const TDesC16&)           0x00018bc8   ARM Code       0  euser{000a0000}-1016.o(StubCode)
    CActive::Cancel()                        0x00018bd0   ARM Code       0  euser{000a0000}-1088.o(StubCode)
    CActive::SetActive()                     0x00018bd8   ARM Code       0  euser{000a0000}-1090.o(StubCode)
    CActive::CActive__sub_object(int)        0x00018be0   ARM Code       0  euser{000a0000}-1091.o(StubCode)
    CActive::~CActive__sub_object()          0x00018be8   ARM Code       0  euser{000a0000}-1094.o(StubCode)
    HBufC16::Des()                           0x00018bf0   ARM Code       0  euser{000a0000}-1116.o(StubCode)
    TPtrC16::TPtrC16(const unsigned short*)  0x00018bf8   ARM Code       0  euser{000a0000}-1169.o(StubCode)
    RHandleBase::Close()                     0x00018c00   ARM Code       0  euser{000a0000}-120.o(StubCode)
    CBufBase::ResizeL(int)                   0x00018c08   ARM Code       0  euser{000a0000}-1246.o(StubCode)
    CBufFlat::NewL(int)                      0x00018c10   ARM Code       0  euser{000a0000}-1253.o(StubCode)
    RProcess::Create(const TDesC16&, const TDesC16&, TOwnerType) 0x00018c18   ARM Code       0  euser{000a0000}-1324.o(StubCode)
    RProcess::Resume()                       0x00018c20   ARM Code       0  euser{000a0000}-1326.o(StubCode)
    TVersion::TVersion(int, int, int)        0x00018c28   ARM Code       0  euser{000a0000}-1355.o(StubCode)
    TDateTime::TDateTime(int, TMonth, int, int, int, int, int) 0x00018c30   ARM Code       0  euser{000a0000}-1483.o(StubCode)
    RSessionBase::DoSendReceive(int, const TIpcArgs*) const 0x00018c38   ARM Code       0  euser{000a0000}-1547.o(StubCode)
    CArrayFixBase::At(int) const             0x00018c40   ARM Code       0  euser{000a0000}-1553.o(StubCode)
    TUid::operator ==(const TUid&) const     0x00018c48   ARM Code       0  euser{000a0000}-1601.o(StubCode)
    TUid::operator !=(const TUid&) const     0x00018c50   ARM Code       0  euser{000a0000}-1602.o(StubCode)
    TChar::GetNumericValue() const           0x00018c58   ARM Code       0  euser{000a0000}-1618.o(StubCode)
    TChar::IsDigit() const                   0x00018c60   ARM Code       0  euser{000a0000}-1622.o(StubCode)
    TTime::FormatL(TDes16&, const TDesC16&) const 0x00018c68   ARM Code       0  euser{000a0000}-1678.o(StubCode)
    TTime::DateTime() const                  0x00018c70   ARM Code       0  euser{000a0000}-1679.o(StubCode)
    TDesC8::Ptr() const                      0x00018c78   ARM Code       0  euser{000a0000}-1719.o(StubCode)
    TDesC16::AtC(int) const                  0x00018c80   ARM Code       0  euser{000a0000}-1806.o(StubCode)
    TDesC16::Ptr() const                     0x00018c88   ARM Code       0  euser{000a0000}-1807.o(StubCode)
    TDesC16::FindC(const TDesC16&) const     0x00018c90   ARM Code       0  euser{000a0000}-1813.o(StubCode)
    TDesC16::AllocLC() const                 0x00018c98   ARM Code       0  euser{000a0000}-1821.o(StubCode)
    RProcess::Rendezvous(TRequestStatus&) const 0x00018ca0   ARM Code       0  euser{000a0000}-1842.o(StubCode)
    RProcess::SetPriority(TProcessPriority) const 0x00018ca8   ARM Code       0  euser{000a0000}-1844.o(StubCode)
    CleanupStack::PopAndDestroy(int)         0x00018cb0   ARM Code       0  euser{000a0000}-202.o(StubCode)
    CleanupStack::PopAndDestroy()            0x00018cb8   ARM Code       0  euser{000a0000}-203.o(StubCode)
    CleanupStack::Pop()                      0x00018cc0   ARM Code       0  euser{000a0000}-205.o(StubCode)
    User::MarkCleanupStack()                 0x00018cc8   ARM Code       0  euser{000a0000}-2060.o(StubCode)
    User::UnMarkCleanupStack(TTrapHandler*)  0x00018cd0   ARM Code       0  euser{000a0000}-2061.o(StubCode)
    CleanupStack::PushL(CBase*)              0x00018cd8   ARM Code       0  euser{000a0000}-208.o(StubCode)
    XLeaveException::GetReason() const       0x00018ce0   ARM Code       0  euser{000a0000}-2082.o(StubCode)
    CleanupStack::PushL(void*)               0x00018ce8   ARM Code       0  euser{000a0000}-209.o(StubCode)
    TDesC16::Left(int) const                 0x00018cf0   ARM Code       0  euser{000a0000}-2106.o(StubCode)
    TDesC16::Right(int) const                0x00018cf8   ARM Code       0  euser{000a0000}-2107.o(StubCode)
    RSessionBase::CreateSession(const TDesC16&, const TVersion&, int) 0x00018d00   ARM Code       0  euser{000a0000}-211.o(StubCode)
    CBase::Extension_(unsigned, void*&, void*) 0x00018d08   ARM Code       0  euser{000a0000}-2123.o(StubCode)
    CActive::Extension_(unsigned, void*&, void*) 0x00018d10   ARM Code       0  euser{000a0000}-2128.o(StubCode)
    CArrayFixBase::SetReserveFlatL(int)      0x00018d18   ARM Code       0  euser{000a0000}-241.o(StubCode)
    CArrayFixBase::Delete(int)               0x00018d20   ARM Code       0  euser{000a0000}-247.o(StubCode)
    CArrayFixBase::InsertL(int, const void*) 0x00018d28   ARM Code       0  euser{000a0000}-250.o(StubCode)
    CArrayFixBase::CArrayFixBase(CBufBase*(*)(int), int, int) 0x00018d30   ARM Code       0  euser{000a0000}-254.o(StubCode)
    CArrayFixBase::~CArrayFixBase()          0x00018d38   ARM Code       0  euser{000a0000}-257.o(StubCode)
    CArrayFixFlat<TUid>::CArrayFixFlat(int)  0x00018d40   ARM Code       0  euser{000a0000}-259.o(StubCode)
    CArrayFixFlat<TUid>::~CArrayFixFlat()    0x00018d48   ARM Code       0  euser{000a0000}-262.o(StubCode)
    CActiveScheduler::Add(CActive*)          0x00018d50   ARM Code       0  euser{000a0000}-424.o(StubCode)
    CActiveSchedulerWait::Start()            0x00018d58   ARM Code       0  euser{000a0000}-505.o(StubCode)
    CActiveSchedulerWait::AsyncStop()        0x00018d60   ARM Code       0  euser{000a0000}-507.o(StubCode)
    CActiveSchedulerWait::CActiveSchedulerWait() 0x00018d68   ARM Code       0  euser{000a0000}-508.o(StubCode)
    User::LeaveIfNull(void*)                 0x00018d70   ARM Code       0  euser{000a0000}-586.o(StubCode)
    User::LeaveIfError(int)                  0x00018d78   ARM Code       0  euser{000a0000}-593.o(StubCode)
    User::WaitForRequest(TRequestStatus&)    0x00018d80   ARM Code       0  euser{000a0000}-604.o(StubCode)
    User::RequestComplete(TRequestStatus*&, int) 0x00018d88   ARM Code       0  euser{000a0000}-617.o(StubCode)
    User::Leave(int)                         0x00018d90   ARM Code       0  euser{000a0000}-649.o(StubCode)
    User::AllocZ(int)                        0x00018d98   ARM Code       0  euser{000a0000}-652.o(StubCode)
    User::AllocZL(int)                       0x00018da0   ARM Code       0  euser{000a0000}-654.o(StubCode)
    User::Invariant()                        0x00018da8   ARM Code       0  euser{000a0000}-669.o(StubCode)
    User::LockedDec(int&)                    0x00018db0   ARM Code       0  euser{000a0000}-670.o(StubCode)
    User::LockedInc(int&)                    0x00018db8   ARM Code       0  euser{000a0000}-671.o(StubCode)
    TBufBase16::TBufBase16(int)              0x00018dc0   ARM Code       0  euser{000a0000}-81.o(StubCode)
    TPtr8::TPtr8(unsigned char*, int, int)   0x00018dc8   ARM Code       0  euser{000a0000}-816.o(StubCode)
    TDes16::Copy(const TDesC16&)             0x00018dd0   ARM Code       0  euser{000a0000}-953.o(StubCode)
    TDes16::Append(TChar)                    0x00018dd8   ARM Code       0  euser{000a0000}-966.o(StubCode)
    TDes16::Delete(int, int)                 0x00018de0   ARM Code       0  euser{000a0000}-972.o(StubCode)
    TDes16::Format(TRefByValue<const TDesC16>, ...) 0x00018de8   ARM Code       0  euser{000a0000}-973.o(StubCode)
    __aeabi_cdrcmple                         0x00018df0   ARM Code       0  dfpaeabi{000a0000}-3.o(StubCode)
    __aeabi_idivmod                          0x00018df8   ARM Code       0  drtaeabi{000a0000}-135.o(StubCode)
    __aeabi_memcpy4                          0x00018e00   ARM Code       0  drtaeabi{000a0000}-147.o(StubCode)
    __aeabi_uidivmod                         0x00018e08   ARM Code       0  drtaeabi{000a0000}-155.o(StubCode)
    __aeabi_unwind_cpp_pr0                   0x00018e10   ARM Code       0  drtaeabi{000a0000}-158.o(StubCode)
    __aeabi_unwind_cpp_pr1                   0x00018e18   ARM Code       0  drtaeabi{000a0000}-159.o(StubCode)
    __cxa_begin_catch                        0x00018e20   ARM Code       0  drtaeabi{000a0000}-180.o(StubCode)
    __cxa_call_unexpected                    0x00018e28   ARM Code       0  drtaeabi{000a0000}-182.o(StubCode)
    __cxa_end_catch                          0x00018e30   ARM Code       0  drtaeabi{000a0000}-183.o(StubCode)
    __cxa_end_cleanup                        0x00018e38   ARM Code       0  drtaeabi{000a0000}-184.o(StubCode)
    __cxa_guard_abort                        0x00018e40   ARM Code       0  drtaeabi{000a0000}-186.o(StubCode)
    __cxa_guard_acquire                      0x00018e48   ARM Code       0  drtaeabi{000a0000}-187.o(StubCode)
    __cxa_guard_release                      0x00018e50   ARM Code       0  drtaeabi{000a0000}-188.o(StubCode)
    __cxa_pure_virtual                       0x00018e58   ARM Code       0  drtaeabi{000a0000}-189.o(StubCode)
    __cxa_rethrow                            0x00018e60   ARM Code       0  drtaeabi{000a0000}-190.o(StubCode)
    __ARM_switch8                            0x00018e68   ARM Code       0  drtrvct2_2{000a0000}-28.o(StubCode)
    QByteArray::~QByteArray()                0x00018e71   Thumb Code    24  qtcontacts_symbian.in(i._ZN10QByteArrayD1Ev)
    QByteArray::~QByteArray__sub_object()    0x00018e71   Thumb Code     0  qtcontacts_symbian.in(i._ZN10QByteArrayD1Ev)
    QtMobility::QContactGuid::~QContactGuid() 0x00018e89   Thumb Code     8  qtcontacts_symbian.in(i._ZN10QtMobility12QContactGuidD1Ev)
    QtMobility::QContactGuid::~QContactGuid__sub_object() 0x00018e89   Thumb Code     0  qtcontacts_symbian.in(i._ZN10QtMobility12QContactGuidD1Ev)
    QtMobility::QContactName::~QContactName() 0x00018e91   Thumb Code     8  qtcontacts_symbian.in(i._ZN10QtMobility12QContactNameD1Ev)
    QtMobility::QContactName::~QContactName__sub_object() 0x00018e91   Thumb Code     0  qtcontacts_symbian.in(i._ZN10QtMobility12QContactNameD1Ev)
    QtMobility::QContactDetail::setContexts(const QString&) 0x00018e99   Thumb Code    56  qtcontacts_symbian.in(i._ZN10QtMobility14QContactDetail11setContextsERK7QString)
    QtMobility::QContactFamily::~QContactFamily() 0x00018eed   Thumb Code     8  qtcontacts_symbian.in(i._ZN10QtMobility14QContactFamilyD1Ev)
    QtMobility::QContactFamily::~QContactFamily__sub_object() 0x00018eed   Thumb Code     0  qtcontacts_symbian.in(i._ZN10QtMobility14QContactFamilyD1Ev)
    QtMobility::QContactAddress::QContactAddress(const QtMobility::QContactAddress&) 0x00018ef5   Thumb Code     8  qtcontacts_symbian.in(i._ZN10QtMobility15QContactAddressC1ERKS0_)
    QtMobility::QContactAddress::QContactAddress__sub_object(const QtMobility::QContactAddress&) 0x00018ef5   Thumb Code     0  qtcontacts_symbian.in(i._ZN10QtMobility15QContactAddressC1ERKS0_)
    QtMobility::QContactAddress::~QContactAddress() 0x00018efd   Thumb Code     8  qtcontacts_symbian.in(i._ZN10QtMobility15QContactAddressD1Ev)
    QtMobility::QContactAddress::~QContactAddress__sub_object() 0x00018efd   Thumb Code     0  qtcontacts_symbian.in(i._ZN10QtMobility15QContactAddressD1Ev)
    QtMobility::QContactBirthday::~QContactBirthday() 0x00018f05   Thumb Code     8  qtcontacts_symbian.in(i._ZN10QtMobility16QContactBirthdayD1Ev)
    QtMobility::QContactBirthday::~QContactBirthday__sub_object() 0x00018f05   Thumb Code     0  qtcontacts_symbian.in(i._ZN10QtMobility16QContactBirthdayD1Ev)
    QtMobility::QContactNickname::~QContactNickname() 0x00018f0d   Thumb Code     8  qtcontacts_symbian.in(i._ZN10QtMobility16QContactNicknameD1Ev)
    QtMobility::QContactNickname::~QContactNickname__sub_object() 0x00018f0d   Thumb Code     0  qtcontacts_symbian.in(i._ZN10QtMobility16QContactNicknameD1Ev)
    QtMobility::QContactRingtone::~QContactRingtone() 0x00018f15   Thumb Code     8  qtcontacts_symbian.in(i._ZN10QtMobility16QContactRingtoneD1Ev)
    QtMobility::QContactRingtone::~QContactRingtone__sub_object() 0x00018f15   Thumb Code     0  qtcontacts_symbian.in(i._ZN10QtMobility16QContactRingtoneD1Ev)
    QtMobility::QContactTimestamp::~QContactTimestamp() 0x00018f1d   Thumb Code     8  qtcontacts_symbian.in(i._ZN10QtMobility17QContactTimestampD1Ev)
    QtMobility::QContactTimestamp::~QContactTimestamp__sub_object() 0x00018f1d   Thumb Code     0  qtcontacts_symbian.in(i._ZN10QtMobility17QContactTimestampD1Ev)
    QtMobility::QContactAnniversary::~QContactAnniversary() 0x00018f25   Thumb Code     8  qtcontacts_symbian.in(i._ZN10QtMobility19QContactAnniversaryD1Ev)
    QtMobility::QContactAnniversary::~QContactAnniversary__sub_object() 0x00018f25   Thumb Code     0  qtcontacts_symbian.in(i._ZN10QtMobility19QContactAnniversaryD1Ev)
    QtMobility::QContactGeoLocation::setLatitude(double) 0x00018f2d   Thumb Code    28  qtcontacts_symbian.in(i._ZN10QtMobility19QContactGeoLocation11setLatitudeEd)
    QtMobility::QContactGeoLocation::setLongitude(double) 0x00018f59   Thumb Code    28  qtcontacts_symbian.in(i._ZN10QtMobility19QContactGeoLocation12setLongitudeEd)
    QtMobility::QContactPhoneNumber::setSubTypes(const QString&) 0x00018f85   Thumb Code    56  qtcontacts_symbian.in(i._ZN10QtMobility19QContactPhoneNumber11setSubTypesERK7QString)
    QtMobility::QContactUnionFilter::~QContactUnionFilter() 0x00018fd9   Thumb Code     8  qtcontacts_symbian.in(i._ZN10QtMobility19QContactUnionFilterD1Ev)
    QtMobility::QContactUnionFilter::~QContactUnionFilter__sub_object() 0x00018fd9   Thumb Code     0  qtcontacts_symbian.in(i._ZN10QtMobility19QContactUnionFilterD1Ev)
    QtMobility::QContactDetailFilter::~QContactDetailFilter() 0x00018fe1   Thumb Code     8  qtcontacts_symbian.in(i._ZN10QtMobility20QContactDetailFilterD1Ev)
    QtMobility::QContactDetailFilter::~QContactDetailFilter__sub_object() 0x00018fe1   Thumb Code     0  qtcontacts_symbian.in(i._ZN10QtMobility20QContactDetailFilterD1Ev)
    QtMobility::QContactOrganization::~QContactOrganization() 0x00018fe9   Thumb Code     8  qtcontacts_symbian.in(i._ZN10QtMobility20QContactOrganizationD1Ev)
    QtMobility::QContactOrganization::~QContactOrganization__sub_object() 0x00018fe9   Thumb Code     0  qtcontacts_symbian.in(i._ZN10QtMobility20QContactOrganizationD1Ev)
    QtMobility::QContactInvalidFilter::~QContactInvalidFilter() 0x00018ff1   Thumb Code     8  qtcontacts_symbian.in(i._ZN10QtMobility21QContactInvalidFilterD1Ev)
    QtMobility::QContactInvalidFilter::~QContactInvalidFilter__sub_object() 0x00018ff1   Thumb Code     0  qtcontacts_symbian.in(i._ZN10QtMobility21QContactInvalidFilterD1Ev)
    QtMobility::QContactManagerEngine::~QContactManagerEngine() 0x00018ff9   Thumb Code     0  qtcontacts_symbian.in(i._ZN10QtMobility21QContactManagerEngineD2Ev)
    QtMobility::QContactManagerEngine::~QContactManagerEngine__sub_object() 0x00018ff9   Thumb Code     8  qtcontacts_symbian.in(i._ZN10QtMobility21QContactManagerEngineD2Ev)
    QtMobility::QContactOnlineAccount::setSubTypes(const QString&) 0x00019001   Thumb Code    56  qtcontacts_symbian.in(i._ZN10QtMobility21QContactOnlineAccount11setSubTypesERK7QString)
    QtMobility::QContactOnlineAccount::setAccountUri(const QString&) 0x00019055   Thumb Code    28  qtcontacts_symbian.in(i._ZN10QtMobility21QContactOnlineAccount13setAccountUriERK7QString)
    QtMobility::QContactIntersectionFilter::~QContactIntersectionFilter() 0x0001907f   Thumb Code     8  qtcontacts_symbian.in(i._ZN10QtMobility26QContactIntersectionFilterD1Ev)
    QtMobility::QContactIntersectionFilter::~QContactIntersectionFilter__sub_object() 0x0001907f   Thumb Code     0  qtcontacts_symbian.in(i._ZN10QtMobility26QContactIntersectionFilterD1Ev)
    QtMobility::QContactRelationshipFilter::~QContactRelationshipFilter() 0x00019087   Thumb Code     8  qtcontacts_symbian.in(i._ZN10QtMobility26QContactRelationshipFilterD1Ev)
    QtMobility::QContactRelationshipFilter::~QContactRelationshipFilter__sub_object() 0x00019087   Thumb Code     0  qtcontacts_symbian.in(i._ZN10QtMobility26QContactRelationshipFilterD1Ev)
    QStringList::QStringList(const QStringList&) 0x0001908f   Thumb Code     8  qtcontacts_symbian.in(i._ZN11QStringListC1ERKS_)
    QStringList::QStringList__sub_object(const QStringList&) 0x0001908f   Thumb Code     0  qtcontacts_symbian.in(i._ZN11QStringListC1ERKS_)
    QStringList::QStringList()               0x00019097   Thumb Code     8  qtcontacts_symbian.in(i._ZN11QStringListC1Ev)
    QStringList::QStringList__sub_object()   0x00019097   Thumb Code     0  qtcontacts_symbian.in(i._ZN11QStringListC1Ev)
    QStringList::~QStringList()              0x0001909f   Thumb Code     8  qtcontacts_symbian.in(i._ZN11QStringListD1Ev)
    QStringList::~QStringList__sub_object()  0x0001909f   Thumb Code     0  qtcontacts_symbian.in(i._ZN11QStringListD1Ev)
    CArrayFixFlat<CContactDatabase::TSortPref>::~CArrayFixFlat__deallocating() 0x000190a7   Thumb Code    16  qtcontacts_symbian.in(i._ZN13CArrayFixFlatIN16CContactDatabase9TSortPrefEED0Ev)
    CArrayFixFlat<CContactDatabase::TSortPref>::~CArrayFixFlat() 0x000190b7   Thumb Code     8  qtcontacts_symbian.in(i._ZN13CArrayFixFlatIN16CContactDatabase9TSortPrefEED1Ev)
    CArrayFixFlat<CContactDatabase::TSortPref>::~CArrayFixFlat__sub_object() 0x000190b7   Thumb Code     0  qtcontacts_symbian.in(i._ZN13CArrayFixFlatIN16CContactDatabase9TSortPrefEED1Ev)
    RBufReadStream::RBufReadStream()         0x000190bf   Thumb Code    14  qtcontacts_symbian.in(i._ZN14RBufReadStreamC1Ev)
    RBufReadStream::RBufReadStream__sub_object() 0x000190bf   Thumb Code     0  qtcontacts_symbian.in(i._ZN14RBufReadStreamC1Ev)
    CContactIdArray::operator [](int)        0x000190cd   Thumb Code    10  qtcontacts_symbian.in(i._ZN15CContactIdArrayixEi)
    CntTransformUrl::~CntTransformUrl__deallocating() 0x000190d7   Thumb Code    16  qtcontacts_symbian.in(i._ZN15CntTransformUrlD0Ev)
    CntTransformUrl::~CntTransformUrl()      0x000190e7   Thumb Code     8  qtcontacts_symbian.in(i._ZN15CntTransformUrlD1Ev)
    CntTransformUrl::~CntTransformUrl__sub_object() 0x000190e7   Thumb Code     0  qtcontacts_symbian.in(i._ZN15CntTransformUrlD1Ev)
    QBasicAtomicInt::ref()                   0x000190ef   Thumb Code    18  qtcontacts_symbian.in(i._ZN15QBasicAtomicInt3refEv)
    QBasicAtomicInt::deref()                 0x00019101   Thumb Code    18  qtcontacts_symbian.in(i._ZN15QBasicAtomicInt5derefEv)
    CntTransformName::~CntTransformName__deallocating() 0x00019113   Thumb Code    16  qtcontacts_symbian.in(i._ZN16CntTransformNameD0Ev)
    CntTransformName::~CntTransformName()    0x00019123   Thumb Code     8  qtcontacts_symbian.in(i._ZN16CntTransformNameD1Ev)
    CntTransformName::~CntTransformName__sub_object() 0x00019123   Thumb Code     0  qtcontacts_symbian.in(i._ZN16CntTransformNameD1Ev)
    CntTransformNote::~CntTransformNote__deallocating() 0x0001912b   Thumb Code    16  qtcontacts_symbian.in(i._ZN16CntTransformNoteD0Ev)
    CntTransformNote::~CntTransformNote()    0x0001913b   Thumb Code     8  qtcontacts_symbian.in(i._ZN16CntTransformNoteD1Ev)
    CntTransformNote::~CntTransformNote__sub_object() 0x0001913b   Thumb Code     0  qtcontacts_symbian.in(i._ZN16CntTransformNoteD1Ev)
    CntSymbianFactory::~CntSymbianFactory__deallocating() 0x00019143   Thumb Code    16  qtcontacts_symbian.in(i._ZN17CntSymbianFactoryD0Ev)
    CntSymbianFactory::~CntSymbianFactory()  0x00019153   Thumb Code    18  qtcontacts_symbian.in(i._ZN17CntSymbianFactoryD1Ev)
    CntSymbianFactory::~CntSymbianFactory__sub_object() 0x00019153   Thumb Code     0  qtcontacts_symbian.in(i._ZN17CntSymbianFactoryD1Ev)
    CntTransformEmail::~CntTransformEmail__deallocating() 0x0001916f   Thumb Code    16  qtcontacts_symbian.in(i._ZN17CntTransformEmailD0Ev)
    CntTransformEmail::~CntTransformEmail()  0x0001917f   Thumb Code     8  qtcontacts_symbian.in(i._ZN17CntTransformEmailD1Ev)
    CntTransformEmail::~CntTransformEmail__sub_object() 0x0001917f   Thumb Code     0  qtcontacts_symbian.in(i._ZN17CntTransformEmailD1Ev)
    CntTransformEmpty::~CntTransformEmpty__deallocating() 0x00019187   Thumb Code    16  qtcontacts_symbian.in(i._ZN17CntTransformEmptyD0Ev)
    CntTransformEmpty::~CntTransformEmpty()  0x00019197   Thumb Code     8  qtcontacts_symbian.in(i._ZN17CntTransformEmptyD1Ev)
    CntTransformEmpty::~CntTransformEmpty__sub_object() 0x00019197   Thumb Code     0  qtcontacts_symbian.in(i._ZN17CntTransformEmptyD1Ev)
    QForeachContainer<QStringList>::~QForeachContainer() 0x0001919f   Thumb Code     8  qtcontacts_symbian.in(i._ZN17QForeachContainerI11QStringListED1Ev)
    QForeachContainer<QStringList>::~QForeachContainer__sub_object() 0x0001919f   Thumb Code     0  qtcontacts_symbian.in(i._ZN17QForeachContainerI11QStringListED1Ev)
    QForeachContainer<QList<TUid>>::~QForeachContainer() 0x000191a7   Thumb Code     8  qtcontacts_symbian.in(i._ZN17QForeachContainerI5QListI4TUidEED1Ev)
    QForeachContainer<QList<TUid>>::~QForeachContainer__sub_object() 0x000191a7   Thumb Code     0  qtcontacts_symbian.in(i._ZN17QForeachContainerI5QListI4TUidEED1Ev)
    QForeachContainer<QList<QString>>::~QForeachContainer() 0x000191af   Thumb Code     8  qtcontacts_symbian.in(i._ZN17QForeachContainerI5QListI7QStringEED1Ev)
    QForeachContainer<QList<QString>>::~QForeachContainer__sub_object() 0x000191af   Thumb Code     0  qtcontacts_symbian.in(i._ZN17QForeachContainerI5QListI7QStringEED1Ev)
    QForeachContainer<QList<QtMobility::QContactAddress>>::~QForeachContainer() 0x000191b7   Thumb Code     8  qtcontacts_symbian.in(i._ZN17QForeachContainerI5QListIN10QtMobility15QContactAddressEEED1Ev)
    QForeachContainer<QList<QtMobility::QContactAddress>>::~QForeachContainer__sub_object() 0x000191b7   Thumb Code     0  qtcontacts_symbian.in(i._ZN17QForeachContainerI5QListIN10QtMobility15QContactAddressEEED1Ev)
    QForeachContainer<QList<QtMobility::QContactSortOrder>>::~QForeachContainer() 0x000191bf   Thumb Code     8  qtcontacts_symbian.in(i._ZN17QForeachContainerI5QListIN10QtMobility17QContactSortOrderEEED1Ev)
    QForeachContainer<QList<QtMobility::QContactSortOrder>>::~QForeachContainer__sub_object() 0x000191bf   Thumb Code     0  qtcontacts_symbian.in(i._ZN17QForeachContainerI5QListIN10QtMobility17QContactSortOrderEEED1Ev)
    QForeachContainer<QList<unsigned>>::~QForeachContainer() 0x000191c7   Thumb Code     8  qtcontacts_symbian.in(i._ZN17QForeachContainerI5QListIjEED1Ev)
    QForeachContainer<QList<unsigned>>::~QForeachContainer__sub_object() 0x000191c7   Thumb Code     0  qtcontacts_symbian.in(i._ZN17QForeachContainerI5QListIjEED1Ev)
    CntTransformAvatar::~CntTransformAvatar__deallocating() 0x000191cf   Thumb Code    16  qtcontacts_symbian.in(i._ZN18CntTransformAvatarD0Ev)
    CntTransformAvatar::~CntTransformAvatar() 0x000191df   Thumb Code     8  qtcontacts_symbian.in(i._ZN18CntTransformAvatarD1Ev)
    CntTransformAvatar::~CntTransformAvatar__sub_object() 0x000191df   Thumb Code     0  qtcontacts_symbian.in(i._ZN18CntTransformAvatarD1Ev)
    CntTransformFamily::~CntTransformFamily__deallocating() 0x000191e7   Thumb Code    16  qtcontacts_symbian.in(i._ZN18CntTransformFamilyD0Ev)
    CntTransformFamily::~CntTransformFamily() 0x000191f7   Thumb Code     8  qtcontacts_symbian.in(i._ZN18CntTransformFamilyD1Ev)
    CntTransformFamily::~CntTransformFamily__sub_object() 0x000191f7   Thumb Code     0  qtcontacts_symbian.in(i._ZN18CntTransformFamilyD1Ev)
    CntTransformAddress::~CntTransformAddress__deallocating() 0x000191ff   Thumb Code    16  qtcontacts_symbian.in(i._ZN19CntTransformAddressD0Ev)
    CntTransformAddress::~CntTransformAddress() 0x0001920f   Thumb Code     8  qtcontacts_symbian.in(i._ZN19CntTransformAddressD1Ev)
    CntTransformAddress::~CntTransformAddress__sub_object() 0x0001920f   Thumb Code     0  qtcontacts_symbian.in(i._ZN19CntTransformAddressD1Ev)
    CContactItemFieldDef::~CContactItemFieldDef__deallocating() 0x00019217   Thumb Code    16  qtcontacts_symbian.in(i._ZN20CContactItemFieldDefD0Ev)
    CContactItemFieldDef::~CContactItemFieldDef() 0x00019227   Thumb Code     8  qtcontacts_symbian.in(i._ZN20CContactItemFieldDefD1Ev)
    CContactItemFieldDef::~CContactItemFieldDef__sub_object() 0x00019227   Thumb Code     0  qtcontacts_symbian.in(i._ZN20CContactItemFieldDefD1Ev)
    CContactItemFieldSet::operator [](int)   0x0001922f   Thumb Code    12  qtcontacts_symbian.in(i._ZN20CContactItemFieldSetixEi)
    CntTransformBirthday::~CntTransformBirthday__deallocating() 0x0001923b   Thumb Code    16  qtcontacts_symbian.in(i._ZN20CntTransformBirthdayD0Ev)
    CntTransformBirthday::~CntTransformBirthday() 0x0001924b   Thumb Code     8  qtcontacts_symbian.in(i._ZN20CntTransformBirthdayD1Ev)
    CntTransformBirthday::~CntTransformBirthday__sub_object() 0x0001924b   Thumb Code     0  qtcontacts_symbian.in(i._ZN20CntTransformBirthdayD1Ev)
    CntTransformNickname::~CntTransformNickname__deallocating() 0x00019253   Thumb Code    16  qtcontacts_symbian.in(i._ZN20CntTransformNicknameD0Ev)
    CntTransformNickname::~CntTransformNickname() 0x00019263   Thumb Code     8  qtcontacts_symbian.in(i._ZN20CntTransformNicknameD1Ev)
    CntTransformNickname::~CntTransformNickname__sub_object() 0x00019263   Thumb Code     0  qtcontacts_symbian.in(i._ZN20CntTransformNicknameD1Ev)
    CntTransformRingtone::~CntTransformRingtone__deallocating() 0x0001926b   Thumb Code    16  qtcontacts_symbian.in(i._ZN20CntTransformRingtoneD0Ev)
    CntTransformRingtone::~CntTransformRingtone() 0x0001927b   Thumb Code     8  qtcontacts_symbian.in(i._ZN20CntTransformRingtoneD1Ev)
    CntTransformRingtone::~CntTransformRingtone__sub_object() 0x0001927b   Thumb Code     0  qtcontacts_symbian.in(i._ZN20CntTransformRingtoneD1Ev)
    CntTransformSyncTarget::~CntTransformSyncTarget__deallocating() 0x00019283   Thumb Code    16  qtcontacts_symbian.in(i._ZN22CntTransformSyncTargetD0Ev)
    CntTransformSyncTarget::~CntTransformSyncTarget() 0x00019293   Thumb Code     8  qtcontacts_symbian.in(i._ZN22CntTransformSyncTargetD1Ev)
    CntTransformSyncTarget::~CntTransformSyncTarget__sub_object() 0x00019293   Thumb Code     0  qtcontacts_symbian.in(i._ZN22CntTransformSyncTargetD1Ev)
    CntTransformContactData::reset()         0x0001929b   Thumb Code     2  qtcontacts_symbian.in(i._ZN23CntTransformContactData5resetEv)
    CntTransformContactData::CntTransformContactData__sub_object() 0x0001929d   Thumb Code    14  qtcontacts_symbian.in(i._ZN23CntTransformContactDataC2Ev)
    CntTransformContactData::~CntTransformContactData__deallocating() 0x000192b1   Thumb Code    16  qtcontacts_symbian.in(i._ZN23CntTransformContactDataD0Ev)
    CntTransformContactData::~CntTransformContactData() 0x000192c1   Thumb Code     0  qtcontacts_symbian.in(i._ZN23CntTransformContactDataD2Ev)
    CntTransformContactData::~CntTransformContactData__sub_object() 0x000192c1   Thumb Code     8  qtcontacts_symbian.in(i._ZN23CntTransformContactDataD2Ev)
    CntTransformPhoneNumber::~CntTransformPhoneNumber__deallocating() 0x000192c9   Thumb Code    16  qtcontacts_symbian.in(i._ZN23CntTransformPhoneNumberD0Ev)
    CntTransformPhoneNumber::~CntTransformPhoneNumber() 0x000192d9   Thumb Code     8  qtcontacts_symbian.in(i._ZN23CntTransformPhoneNumberD1Ev)
    CntTransformPhoneNumber::~CntTransformPhoneNumber__sub_object() 0x000192d9   Thumb Code     0  qtcontacts_symbian.in(i._ZN23CntTransformPhoneNumberD1Ev)
    CntAbstractContactFilter::~CntAbstractContactFilter() 0x000192e1   Thumb Code     0  qtcontacts_symbian.in(i._ZN24CntAbstractContactFilterD2Ev)
    CntAbstractContactFilter::~CntAbstractContactFilter__sub_object() 0x000192e1   Thumb Code     2  qtcontacts_symbian.in(i._ZN24CntAbstractContactFilterD2Ev)
    CntTransformOrganisation::~CntTransformOrganisation__deallocating() 0x000192e3   Thumb Code    16  qtcontacts_symbian.in(i._ZN24CntTransformOrganisationD0Ev)
    CntTransformOrganisation::~CntTransformOrganisation() 0x000192f3   Thumb Code     8  qtcontacts_symbian.in(i._ZN24CntTransformOrganisationD1Ev)
    CntTransformOrganisation::~CntTransformOrganisation__sub_object() 0x000192f3   Thumb Code     0  qtcontacts_symbian.in(i._ZN24CntTransformOrganisationD1Ev)
    CntTransformOnlineAccount::~CntTransformOnlineAccount__deallocating() 0x000192fb   Thumb Code    16  qtcontacts_symbian.in(i._ZN25CntTransformOnlineAccountD0Ev)
    CntTransformOnlineAccount::~CntTransformOnlineAccount() 0x0001930b   Thumb Code     8  qtcontacts_symbian.in(i._ZN25CntTransformOnlineAccountD1Ev)
    CntTransformOnlineAccount::~CntTransformOnlineAccount__sub_object() 0x0001930b   Thumb Code     0  qtcontacts_symbian.in(i._ZN25CntTransformOnlineAccountD1Ev)
    CntTransformAnniversarySimple::~CntTransformAnniversarySimple__deallocating() 0x00019313   Thumb Code    16  qtcontacts_symbian.in(i._ZN29CntTransformAnniversarySimpleD0Ev)
    CntTransformAnniversarySimple::~CntTransformAnniversarySimple() 0x00019323   Thumb Code     8  qtcontacts_symbian.in(i._ZN29CntTransformAnniversarySimpleD1Ev)
    CntTransformAnniversarySimple::~CntTransformAnniversarySimple__sub_object() 0x00019323   Thumb Code     0  qtcontacts_symbian.in(i._ZN29CntTransformAnniversarySimpleD1Ev)
    QSet<unsigned>::~QSet()                  0x0001932b   Thumb Code     8  qtcontacts_symbian.in(i._ZN4QSetIjED1Ev)
    QSet<unsigned>::~QSet__sub_object()      0x0001932b   Thumb Code     0  qtcontacts_symbian.in(i._ZN4QSetIjED1Ev)
    CBase::operator new(unsigned)            0x00019333   Thumb Code     8  qtcontacts_symbian.in(i._ZN5CBasenwEj)
    QPair<unsigned, QString>::QPair(const QPair<unsigned, QString>&) 0x0001933b   Thumb Code    14  qtcontacts_symbian.in(i._ZN5QPairIj7QStringEC1ERKS1_)
    QPair<unsigned, QString>::QPair__sub_object(const QPair<unsigned, QString>&) 0x0001933b   Thumb Code     0  qtcontacts_symbian.in(i._ZN5QPairIj7QStringEC1ERKS1_)
    QPair<unsigned, QString>::~QPair()       0x00019349   Thumb Code    12  qtcontacts_symbian.in(i._ZN5QPairIj7QStringED1Ev)
    QPair<unsigned, QString>::~QPair__sub_object() 0x00019349   Thumb Code     0  qtcontacts_symbian.in(i._ZN5QPairIj7QStringED1Ev)
    TLex16::TLex16(const TDesC16&)           0x00019355   Thumb Code    16  qtcontacts_symbian.in(i._ZN6TLex16C1ERK7TDesC16)
    TLex16::TLex16__sub_object(const TDesC16&) 0x00019355   Thumb Code     0  qtcontacts_symbian.in(i._ZN6TLex16C1ERK7TDesC16)
    QString::clear()                         0x00019365   Thumb Code    34  qtcontacts_symbian.in(i._ZN7QString5clearEv)
    QString::QString(const char*)            0x00019397   Thumb Code    20  qtcontacts_symbian.in(i._ZN7QStringC1EPKc)
    QString::QString__sub_object(const char*) 0x00019397   Thumb Code     0  qtcontacts_symbian.in(i._ZN7QStringC1EPKc)
    QString::QString(const QLatin1String&)   0x000193ab   Thumb Code    20  qtcontacts_symbian.in(i._ZN7QStringC1ERK13QLatin1String)
    QString::QString__sub_object(const QLatin1String&) 0x000193ab   Thumb Code     0  qtcontacts_symbian.in(i._ZN7QStringC1ERK13QLatin1String)
    QString::QString(const QString&)         0x000193bf   Thumb Code    16  qtcontacts_symbian.in(i._ZN7QStringC1ERKS_)
    QString::QString__sub_object(const QString&) 0x000193bf   Thumb Code     0  qtcontacts_symbian.in(i._ZN7QStringC1ERKS_)
    QString::QString()                       0x000193d1   Thumb Code    16  qtcontacts_symbian.in(i._ZN7QStringC1Ev)
    QString::QString__sub_object()           0x000193d1   Thumb Code     0  qtcontacts_symbian.in(i._ZN7QStringC1Ev)
    QString::~QString()                      0x000193e5   Thumb Code    24  qtcontacts_symbian.in(i._ZN7QStringD1Ev)
    QString::~QString__sub_object()          0x000193e5   Thumb Code     0  qtcontacts_symbian.in(i._ZN7QStringD1Ev)
    QString::operator =(const char*)         0x000193fd   Thumb Code    34  qtcontacts_symbian.in(i._ZN7QStringaSEPKc)
    QString::operator +=(const char*)        0x00019429   Thumb Code    34  qtcontacts_symbian.in(i._ZN7QStringpLEPKc)
    QString::operator +=(char)               0x00019455   Thumb Code    20  qtcontacts_symbian.in(i._ZN7QStringpLEc)
    TIpcArgs::Set(int, TDes8*)               0x00019469   Thumb Code    20  qtcontacts_symbian.in(i._ZN8TIpcArgs3SetEiP5TDes8)
    TIpcArgs::Set(int, const TDesC16*)       0x0001947d   Thumb Code    20  qtcontacts_symbian.in(i._ZN8TIpcArgs3SetEiPK7TDesC16)
    CArrayFix<CContactDatabase::TSortPref>::~CArrayFix() 0x00019491   Thumb Code     8  qtcontacts_symbian.in(i._ZN9CArrayFixIN16CContactDatabase9TSortPrefEED1Ev)
    CArrayFix<CContactDatabase::TSortPref>::~CArrayFix__sub_object() 0x00019491   Thumb Code     0  qtcontacts_symbian.in(i._ZN9CArrayFixIN16CContactDatabase9TSortPrefEED1Ev)
    QHashData::willGrow()                    0x00019499   Thumb Code    28  qtcontacts_symbian.in(i._ZN9QHashData8willGrowEv)
    QtMobility::QContactDetail::contexts() const 0x000194b5   Thumb Code    10  qtcontacts_symbian.in(i._ZNK10QtMobility14QContactDetail8contextsEv)
    QtMobility::QContactFamily::children() const 0x000194c5   Thumb Code    10  qtcontacts_symbian.in(i._ZNK10QtMobility14QContactFamily8childrenEv)
    QtMobility::QContactBirthday::date() const 0x000194d5   Thumb Code    76  qtcontacts_symbian.in(i._ZNK10QtMobility16QContactBirthday4dateEv)
    QtMobility::QContactRingtone::audioRingtoneUrl() const 0x00019535   Thumb Code    28  qtcontacts_symbian.in(i._ZNK10QtMobility16QContactRingtone16audioRingtoneUrlEv)
    QtMobility::QContactRingtone::videoRingtoneUrl() const 0x00019561   Thumb Code    28  qtcontacts_symbian.in(i._ZNK10QtMobility16QContactRingtone16videoRingtoneUrlEv)
    QtMobility::QContactThumbnail::thumbnail() const 0x0001958d   Thumb Code    10  qtcontacts_symbian.in(i._ZNK10QtMobility17QContactThumbnail9thumbnailEv)
    QtMobility::QContactAnniversary::originalDate() const 0x0001959d   Thumb Code    76  qtcontacts_symbian.in(i._ZNK10QtMobility19QContactAnniversary12originalDateEv)
    QtMobility::QContactGeoLocation::latitude() const 0x000195fd   Thumb Code    38  qtcontacts_symbian.in(i._ZNK10QtMobility19QContactGeoLocation8latitudeEv)
    QtMobility::QContactGeoLocation::longitude() const 0x00019635   Thumb Code    38  qtcontacts_symbian.in(i._ZNK10QtMobility19QContactGeoLocation9longitudeEv)
    QtMobility::QContactOnlineAccount::accountUri() const 0x0001966d   Thumb Code    10  qtcontacts_symbian.in(i._ZNK10QtMobility21QContactOnlineAccount10accountUriEv)
    QStringList::contains(const QString&, Qt::CaseSensitivity) const 0x0001967d   Thumb Code     8  qtcontacts_symbian.in(i._ZNK11QStringList8containsERK7QStringN2Qt15CaseSensitivityE)
    CContactIdArray::operator [](int) const  0x00019685   Thumb Code    10  qtcontacts_symbian.in(i._ZNK15CContactIdArrayixEi)
    QBasicAtomicInt::operator ==(int) const  0x0001968f   Thumb Code    14  qtcontacts_symbian.in(i._ZNK15QBasicAtomicInteqEi)
    QBasicAtomicInt::operator !=(int) const  0x0001969d   Thumb Code    14  qtcontacts_symbian.in(i._ZNK15QBasicAtomicIntneEi)
    CntSymbianEngine::managerVersion() const 0x000196ab   Thumb Code     4  qtcontacts_symbian.in(i._ZNK16CntSymbianEngine14managerVersionEv)
    CntSymbianEngine::compatibleContact(const QtMobility::QContact&, QtMobility::QContactManager::Error*) const 0x000196af   Thumb Code     8  qtcontacts_symbian.in(i._ZNK16CntSymbianEngine17compatibleContactERKN10QtMobility8QContactEPNS0_15QContactManager5ErrorE)
    CContactItemFieldSet::Find(TUid, TUid) const 0x000196b7   Thumb Code    12  qtcontacts_symbian.in(i._ZNK20CContactItemFieldSet4FindE4TUidS0_)
    CntTransformContactData::supportsField(unsigned long) const 0x000196c3   Thumb Code    96  qtcontacts_symbian.in(i._ZNK23CntTransformContactData13supportsFieldEm)
    QBool::operator const void*() const      0x0001972d   Thumb Code    14  qtcontacts_symbian.in(i._ZNK5QBoolcvPKvEv)
    QString::arg(const QString&, const QString&) const 0x0001973b   Thumb Code    16  qtcontacts_symbian.in(i._ZNK7QString3argERKS_S1_)
    QString::arg(int, int, int, const QChar&) const 0x0001974b   Thumb Code    30  qtcontacts_symbian.in(i._ZNK7QString3argEiiiRK5QChar)
    QString::arg(unsigned, int, int, const QChar&) const 0x00019769   Thumb Code    32  qtcontacts_symbian.in(i._ZNK7QString3argEjiiRK5QChar)
    QString::arg(long, int, int, const QChar&) const 0x00019789   Thumb Code    30  qtcontacts_symbian.in(i._ZNK7QString3argEliiRK5QChar)
    QString::isEmpty() const                 0x000197a7   Thumb Code    16  qtcontacts_symbian.in(i._ZNK7QString7isEmptyEv)
    QString::operator !=(const QLatin1String&) const 0x000197b7   Thumb Code    12  qtcontacts_symbian.in(i._ZNK7QStringneERK13QLatin1String)
    QListData::at(int) const                 0x000197c3   Thumb Code    16  qtcontacts_symbian.in(i._ZNK9QListData2atEi)
    QListData::end() const                   0x000197d3   Thumb Code    12  qtcontacts_symbian.in(i._ZNK9QListData3endEv)
    QListData::size() const                  0x000197df   Thumb Code    10  qtcontacts_symbian.in(i._ZNK9QListData4sizeEv)
    QListData::begin() const                 0x000197e9   Thumb Code    12  qtcontacts_symbian.in(i._ZNK9QListData5beginEv)
    QListData::isEmpty() const               0x000197f5   Thumb Code    18  qtcontacts_symbian.in(i._ZNK9QListData7isEmptyEv)
    thunk{-8} to CntSymbianFactory::~CntSymbianFactory__deallocating() 0x00019807   Thumb Code    10  qtcontacts_symbian.in(i._ZThn8_N17CntSymbianFactoryD0Ev)
    thunk{-8} to CntSymbianFactory::~CntSymbianFactory() 0x00019811   Thumb Code    10  qtcontacts_symbian.in(i._ZThn8_N17CntSymbianFactoryD1Ev)
    operator delete (void*, void*)           0x0001981b   Thumb Code     2  qtcontacts_symbian.in(i._ZdlPvS_)
    operator new(unsigned, void*)            0x0001981d   Thumb Code     4  qtcontacts_symbian.in(i._ZnwjPv)
    operator +(const char*, const QString&)  0x00019821   Thumb Code    40  qtcontacts_symbian.in(i._ZplPKcRK7QString)
    operator +(const QString&, const char*)  0x00019853   Thumb Code    54  qtcontacts_symbian.in(i._ZplRK7QStringPKc)
    operator +(const QString&, const QString&) 0x00019899   Thumb Code    36  qtcontacts_symbian.in(i._ZplRK7QStringS1_)
    operator +(const QString&, char)         0x000198c7   Thumb Code   110  qtcontacts_symbian.in(i._ZplRK7QStringc)
    qMapLessThanKey<QString>(const T1&, const T1&) 0x0001993f   Thumb Code     8  qtcontacts_symbian.in(t._Z15qMapLessThanKeyI7QStringEbRKT_S3_)
    qMapLessThanKey<CntTransformContact::ContactData>(const T1&, const T1&) 0x00019947   Thumb Code    16  qtcontacts_symbian.in(t._Z15qMapLessThanKeyIN19CntTransformContact11ContactDataEEbRKT_S4_)
    qMapLessThanKey<int>(const T1&, const T1&) 0x00019957   Thumb Code    16  qtcontacts_symbian.in(t._Z15qMapLessThanKeyIiEbRKT_S2_)
    qMapLessThanKey<unsigned>(const T1&, const T1&) 0x00019967   Thumb Code    16  qtcontacts_symbian.in(t._Z15qMapLessThanKeyIjEbRKT_S2_)
    qForeachContainerNew<QList<QtMobility::QContactSortOrder>>(const T1&) 0x00019977   Thumb Code    62  qtcontacts_symbian.in(t._Z20qForeachContainerNewI5QListIN10QtMobility17QContactSortOrderEEE17QForeachContainerIT_ERKS5_)
    qForeachContainerNew<QList<unsigned>>(const T1&) 0x000199bf   Thumb Code    46  qtcontacts_symbian.in(t._Z20qForeachContainerNewI5QListIjEE17QForeachContainerIT_ERKS3_)
    qMakePair<QLatin1String, QLatin1String>(const T1&, const T2&) 0x000199f7   Thumb Code    18  qtcontacts_symbian.in(t._Z9qMakePairI13QLatin1StringS0_E5QPairIT_T0_ERKS2_RKS3_)
    QtMobility::operator ==<(int)10>(const QtMobility::QLatin1Constant<T1>&, const QString&) 0x00019a09   Thumb Code    16  qtcontacts_symbian.in(t._ZN10QtMobilityeqILi10EEEbRKNS_15QLatin1ConstantIXT_EEERK7QString)
    QtMobility::operator ==<(int)11>(const QString&, const QtMobility::QLatin1Constant<T1>&) 0x00019a19   Thumb Code    12  qtcontacts_symbian.in(t._ZN10QtMobilityeqILi11EEEbRK7QStringRKNS_15QLatin1ConstantIXT_EEE)
    QtMobility::operator ==<(int)11>(const QtMobility::QLatin1Constant<T1>&, const QString&) 0x00019a25   Thumb Code    16  qtcontacts_symbian.in(t._ZN10QtMobilityeqILi11EEEbRKNS_15QLatin1ConstantIXT_EEERK7QString)
    QtMobility::operator ==<(int)12>(const QString&, const QtMobility::QLatin1Constant<T1>&) 0x00019a35   Thumb Code    12  qtcontacts_symbian.in(t._ZN10QtMobilityeqILi12EEEbRK7QStringRKNS_15QLatin1ConstantIXT_EEE)
    QtMobility::operator ==<(int)13>(const QString&, const QtMobility::QLatin1Constant<T1>&) 0x00019a41   Thumb Code    12  qtcontacts_symbian.in(t._ZN10QtMobilityeqILi13EEEbRK7QStringRKNS_15QLatin1ConstantIXT_EEE)
    QtMobility::operator ==<(int)14>(const QString&, const QtMobility::QLatin1Constant<T1>&) 0x00019a4d   Thumb Code    12  qtcontacts_symbian.in(t._ZN10QtMobilityeqILi14EEEbRK7QStringRKNS_15QLatin1ConstantIXT_EEE)
    QtMobility::operator ==<(int)14>(const QtMobility::QLatin1Constant<T1>&, const QString&) 0x00019a59   Thumb Code    16  qtcontacts_symbian.in(t._ZN10QtMobilityeqILi14EEEbRKNS_15QLatin1ConstantIXT_EEERK7QString)
    QtMobility::operator ==<(int)17>(const QtMobility::QLatin1Constant<T1>&, const QString&) 0x00019a69   Thumb Code    16  qtcontacts_symbian.in(t._ZN10QtMobilityeqILi17EEEbRKNS_15QLatin1ConstantIXT_EEERK7QString)
    QtMobility::operator ==<(int)4>(const QString&, const QtMobility::QLatin1Constant<T1>&) 0x00019a79   Thumb Code    12  qtcontacts_symbian.in(t._ZN10QtMobilityeqILi4EEEbRK7QStringRKNS_15QLatin1ConstantIXT_EEE)
    QtMobility::operator ==<(int)4>(const QtMobility::QLatin1Constant<T1>&, const QString&) 0x00019a85   Thumb Code    16  qtcontacts_symbian.in(t._ZN10QtMobilityeqILi4EEEbRKNS_15QLatin1ConstantIXT_EEERK7QString)
    QtMobility::operator ==<(int)5>(const QString&, const QtMobility::QLatin1Constant<T1>&) 0x00019a95   Thumb Code    12  qtcontacts_symbian.in(t._ZN10QtMobilityeqILi5EEEbRK7QStringRKNS_15QLatin1ConstantIXT_EEE)
    QtMobility::operator ==<(int)6>(const QString&, const QtMobility::QLatin1Constant<T1>&) 0x00019aa1   Thumb Code    12  qtcontacts_symbian.in(t._ZN10QtMobilityeqILi6EEEbRK7QStringRKNS_15QLatin1ConstantIXT_EEE)
    QtMobility::operator ==<(int)6>(const QtMobility::QLatin1Constant<T1>&, const QString&) 0x00019aad   Thumb Code    16  qtcontacts_symbian.in(t._ZN10QtMobilityeqILi6EEEbRKNS_15QLatin1ConstantIXT_EEERK7QString)
    QtMobility::operator ==<(int)7>(const QString&, const QtMobility::QLatin1Constant<T1>&) 0x00019abd   Thumb Code    12  qtcontacts_symbian.in(t._ZN10QtMobilityeqILi7EEEbRK7QStringRKNS_15QLatin1ConstantIXT_EEE)
    QtMobility::operator ==<(int)7>(const QtMobility::QLatin1Constant<T1>&, const QString&) 0x00019ac9   Thumb Code    16  qtcontacts_symbian.in(t._ZN10QtMobilityeqILi7EEEbRKNS_15QLatin1ConstantIXT_EEERK7QString)
    QtMobility::operator ==<(int)8>(const QString&, const QtMobility::QLatin1Constant<T1>&) 0x00019ad9   Thumb Code    12  qtcontacts_symbian.in(t._ZN10QtMobilityeqILi8EEEbRK7QStringRKNS_15QLatin1ConstantIXT_EEE)
    QtMobility::operator ==<(int)8>(const QtMobility::QLatin1Constant<T1>&, const QString&) 0x00019ae5   Thumb Code    16  qtcontacts_symbian.in(t._ZN10QtMobilityeqILi8EEEbRKNS_15QLatin1ConstantIXT_EEERK7QString)
    QtMobility::operator ==<(int)9>(const QString&, const QtMobility::QLatin1Constant<T1>&) 0x00019af5   Thumb Code    12  qtcontacts_symbian.in(t._ZN10QtMobilityeqILi9EEEbRK7QStringRKNS_15QLatin1ConstantIXT_EEE)
    QtMobility::operator ==<(int)9>(const QtMobility::QLatin1Constant<T1>&, const QString&) 0x00019b01   Thumb Code    16  qtcontacts_symbian.in(t._ZN10QtMobilityeqILi9EEEbRKNS_15QLatin1ConstantIXT_EEERK7QString)
    QtMobility::operator !=<(int)6>(const QString&, const QtMobility::QLatin1Constant<T1>&) 0x00019b11   Thumb Code    12  qtcontacts_symbian.in(t._ZN10QtMobilityneILi6EEEbRK7QStringRKNS_15QLatin1ConstantIXT_EEE)
    QtMobility::operator !=<(int)8>(const QString&, const QtMobility::QLatin1Constant<T1>&) 0x00019b1d   Thumb Code    12  qtcontacts_symbian.in(t._ZN10QtMobilityneILi8EEEbRK7QStringRKNS_15QLatin1ConstantIXT_EEE)
    QScopedPointer<QList<unsigned>, QScopedPointerDeleter<QList<unsigned>>>::~QScopedPointer() 0x00019b29   Thumb Code    26  qtcontacts_symbian.in(t._ZN14QScopedPointerI5QListIjE21QScopedPointerDeleterIS1_EED1Ev)
    QScopedPointer<QList<unsigned>, QScopedPointerDeleter<QList<unsigned>>>::~QScopedPointer__sub_object() 0x00019b29   Thumb Code     0  qtcontacts_symbian.in(t._ZN14QScopedPointerI5QListIjE21QScopedPointerDeleterIS1_EED1Ev)
    QScopedPointer<QString, QScopedPointerDeleter<QString>>::~QScopedPointer() 0x00019b43   Thumb Code    26  qtcontacts_symbian.in(t._ZN14QScopedPointerI7QString21QScopedPointerDeleterIS0_EED1Ev)
    QScopedPointer<QString, QScopedPointerDeleter<QString>>::~QScopedPointer__sub_object() 0x00019b43   Thumb Code     0  qtcontacts_symbian.in(t._ZN14QScopedPointerI7QString21QScopedPointerDeleterIS0_EED1Ev)
    QScopedPointer<QtMobility::QContactId, QScopedPointerDeleter<QtMobility::QContactId>>::~QScopedPointer() 0x00019b5d   Thumb Code    26  qtcontacts_symbian.in(t._ZN14QScopedPointerIN10QtMobility10QContactIdE21QScopedPointerDeleterIS1_EED1Ev)
    QScopedPointer<QtMobility::QContactId, QScopedPointerDeleter<QtMobility::QContactId>>::~QScopedPointer__sub_object() 0x00019b5d   Thumb Code     0  qtcontacts_symbian.in(t._ZN14QScopedPointerIN10QtMobility10QContactIdE21QScopedPointerDeleterIS1_EED1Ev)
    QScopedPointer<QtMobility::QContactDetail, QScopedPointerDeleter<QtMobility::QContactDetail>>::~QScopedPointer() 0x00019b77   Thumb Code    26  qtcontacts_symbian.in(t._ZN14QScopedPointerIN10QtMobility14QContactDetailE21QScopedPointerDeleterIS1_EED1Ev)
    QScopedPointer<QtMobility::QContactDetail, QScopedPointerDeleter<QtMobility::QContactDetail>>::~QScopedPointer__sub_object() 0x00019b77   Thumb Code     0  qtcontacts_symbian.in(t._ZN14QScopedPointerIN10QtMobility14QContactDetailE21QScopedPointerDeleterIS1_EED1Ev)
    QScopedPointer<QtMobility::QContact, QScopedPointerDeleter<QtMobility::QContact>>::~QScopedPointer() 0x00019b91   Thumb Code    26  qtcontacts_symbian.in(t._ZN14QScopedPointerIN10QtMobility8QContactE21QScopedPointerDeleterIS1_EED1Ev)
    QScopedPointer<QtMobility::QContact, QScopedPointerDeleter<QtMobility::QContact>>::~QScopedPointer__sub_object() 0x00019b91   Thumb Code     0  qtcontacts_symbian.in(t._ZN14QScopedPointerIN10QtMobility8QContactE21QScopedPointerDeleterIS1_EED1Ev)
    QMap<QString, QVariant>::~QMap()         0x00019bab   Thumb Code    64  qtcontacts_symbian.in(t._ZN4QMapI7QString8QVariantED1Ev)
    QMap<QString, QVariant>::~QMap__sub_object() 0x00019bab   Thumb Code     0  qtcontacts_symbian.in(t._ZN4QMapI7QString8QVariantED1Ev)
    QMap<QString, QtMobility::QContactDetailDefinition>::node_create(QMapData*, QMapData::Node**, const QString&, const QtMobility::QContactDetailDefinition&) 0x00019beb   Thumb Code   106  qtcontacts_symbian.in(t._ZN4QMapI7QStringN10QtMobility24QContactDetailDefinitionEE11node_createEP8QMapDataPPNS4_4NodeERKS0_RKS2_)
    QMap<QString, QtMobility::QContactDetailDefinition>::detach_helper() 0x00019c7b   Thumb Code   114  qtcontacts_symbian.in(t._ZN4QMapI7QStringN10QtMobility24QContactDetailDefinitionEE13detach_helperEv)
    QMap<QString, QtMobility::QContactDetailDefinition>::detach() 0x00019cf5   Thumb Code    26  qtcontacts_symbian.in(t._ZN4QMapI7QStringN10QtMobility24QContactDetailDefinitionEE6detachEv)
    QMap<QString, QtMobility::QContactDetailDefinition>::insert(const QString&, const QtMobility::QContactDetailDefinition&) 0x00019d0f   Thumb Code   128  qtcontacts_symbian.in(t._ZN4QMapI7QStringN10QtMobility24QContactDetailDefinitionEE6insertERKS0_RKS2_)
    QMap<QString, QtMobility::QContactDetailDefinition>::remove(const QString&) 0x00019d8f   Thumb Code   178  qtcontacts_symbian.in(t._ZN4QMapI7QStringN10QtMobility24QContactDetailDefinitionEE6removeERKS0_)
    QMap<QString, QtMobility::QContactDetailDefinition>::freeData(QMapData*) 0x00019e41   Thumb Code    42  qtcontacts_symbian.in(t._ZN4QMapI7QStringN10QtMobility24QContactDetailDefinitionEE8freeDataEP8QMapData)
    QMap<QString, QtMobility::QContactDetailDefinition>::QMap(const QMap<QString, QtMobility::QContactDetailDefinition>&) 0x00019e6b   Thumb Code    32  qtcontacts_symbian.in(t._ZN4QMapI7QStringN10QtMobility24QContactDetailDefinitionEEC1ERKS3_)
    QMap<QString, QtMobility::QContactDetailDefinition>::QMap__sub_object(const QMap<QString, QtMobility::QContactDetailDefinition>&) 0x00019e6b   Thumb Code     0  qtcontacts_symbian.in(t._ZN4QMapI7QStringN10QtMobility24QContactDetailDefinitionEEC1ERKS3_)
    QMap<QString, QtMobility::QContactDetailDefinition>::QMap() 0x00019e8d   Thumb Code    18  qtcontacts_symbian.in(t._ZN4QMapI7QStringN10QtMobility24QContactDetailDefinitionEEC1Ev)
    QMap<QString, QtMobility::QContactDetailDefinition>::QMap__sub_object() 0x00019e8d   Thumb Code     0  qtcontacts_symbian.in(t._ZN4QMapI7QStringN10QtMobility24QContactDetailDefinitionEEC1Ev)
    QMap<QString, QtMobility::QContactDetailDefinition>::~QMap() 0x00019ea5   Thumb Code    32  qtcontacts_symbian.in(t._ZN4QMapI7QStringN10QtMobility24QContactDetailDefinitionEED1Ev)
    QMap<QString, QtMobility::QContactDetailDefinition>::~QMap__sub_object() 0x00019ea5   Thumb Code     0  qtcontacts_symbian.in(t._ZN4QMapI7QStringN10QtMobility24QContactDetailDefinitionEED1Ev)
    QMap<QString, QtMobility::QContactDetailFieldDefinition>::node_create(QMapData*, QMapData::Node**, const QString&, const QtMobility::QContactDetailFieldDefinition&) 0x00019ec5   Thumb Code   106  qtcontacts_symbian.in(t._ZN4QMapI7QStringN10QtMobility29QContactDetailFieldDefinitionEE11node_createEP8QMapDataPPNS4_4NodeERKS0_RKS2_)
    QMap<QString, QtMobility::QContactDetailFieldDefinition>::detach_helper() 0x00019f55   Thumb Code   114  qtcontacts_symbian.in(t._ZN4QMapI7QStringN10QtMobility29QContactDetailFieldDefinitionEE13detach_helperEv)
    QMap<QString, QtMobility::QContactDetailFieldDefinition>::detach() 0x00019fcf   Thumb Code    26  qtcontacts_symbian.in(t._ZN4QMapI7QStringN10QtMobility29QContactDetailFieldDefinitionEE6detachEv)
    QMap<QString, QtMobility::QContactDetailFieldDefinition>::insert(const QString&, const QtMobility::QContactDetailFieldDefinition&) 0x00019fe9   Thumb Code   140  qtcontacts_symbian.in(t._ZN4QMapI7QStringN10QtMobility29QContactDetailFieldDefinitionEE6insertERKS0_RKS2_)
    QMap<QString, QtMobility::QContactDetailFieldDefinition>::remove(const QString&) 0x0001a075   Thumb Code   168  qtcontacts_symbian.in(t._ZN4QMapI7QStringN10QtMobility29QContactDetailFieldDefinitionEE6removeERKS0_)
    QMap<QString, QtMobility::QContactDetailFieldDefinition>::freeData(QMapData*) 0x0001a11d   Thumb Code    42  qtcontacts_symbian.in(t._ZN4QMapI7QStringN10QtMobility29QContactDetailFieldDefinitionEE8freeDataEP8QMapData)
    QMap<QString, QtMobility::QContactDetailFieldDefinition>::~QMap() 0x0001a147   Thumb Code    32  qtcontacts_symbian.in(t._ZN4QMapI7QStringN10QtMobility29QContactDetailFieldDefinitionEED1Ev)
    QMap<QString, QtMobility::QContactDetailFieldDefinition>::~QMap__sub_object() 0x0001a147   Thumb Code     0  qtcontacts_symbian.in(t._ZN4QMapI7QStringN10QtMobility29QContactDetailFieldDefinitionEED1Ev)
    QMap<QString, QtMobility::QContactDetailFieldDefinition>::operator [](const QString&) 0x0001a167   Thumb Code   126  qtcontacts_symbian.in(t._ZN4QMapI7QStringN10QtMobility29QContactDetailFieldDefinitionEEixERKS0_)
    QMap<QString, CntAbstractRelationship*>::node_create(QMapData*, QMapData::Node**, const QString&, CntAbstractRelationship*const &) 0x0001a1ef   Thumb Code    86  qtcontacts_symbian.in(t._ZN4QMapI7QStringP23CntAbstractRelationshipE11node_createEP8QMapDataPPNS4_4NodeERKS0_RKS2_)
    QMap<QString, CntAbstractRelationship*>::detach_helper() 0x0001a259   Thumb Code   114  qtcontacts_symbian.in(t._ZN4QMapI7QStringP23CntAbstractRelationshipE13detach_helperEv)
    QMap<QString, CntAbstractRelationship*>::detach() 0x0001a2d3   Thumb Code    26  qtcontacts_symbian.in(t._ZN4QMapI7QStringP23CntAbstractRelationshipE6detachEv)
    QMap<QString, CntAbstractRelationship*>::freeData(QMapData*) 0x0001a2ed   Thumb Code    32  qtcontacts_symbian.in(t._ZN4QMapI7QStringP23CntAbstractRelationshipE8freeDataEP8QMapData)
    QMap<QString, CntAbstractRelationship*>::~QMap() 0x0001a30d   Thumb Code    32  qtcontacts_symbian.in(t._ZN4QMapI7QStringP23CntAbstractRelationshipED1Ev)
    QMap<QString, CntAbstractRelationship*>::~QMap__sub_object() 0x0001a30d   Thumb Code     0  qtcontacts_symbian.in(t._ZN4QMapI7QStringP23CntAbstractRelationshipED1Ev)
    QMap<QString, QMap<QString, QtMobility::QContactDetailDefinition>>::~QMap() 0x0001a32d   Thumb Code    62  qtcontacts_symbian.in(t._ZN4QMapI7QStringS_IS0_N10QtMobility24QContactDetailDefinitionEEED1Ev)
    QMap<QString, QMap<QString, QtMobility::QContactDetailDefinition>>::~QMap__sub_object() 0x0001a32d   Thumb Code     0  qtcontacts_symbian.in(t._ZN4QMapI7QStringS_IS0_N10QtMobility24QContactDetailDefinitionEEED1Ev)
    QMap<CntTransformContact::ContactData, CntTransformContactData*>::node_create(QMapData*, QMapData::Node**, const CntTransformContact::ContactData&, CntTransformContactData*const &) 0x0001a36b   Thumb Code    60  qtcontacts_symbian.in(t._ZN4QMapIN19CntTransformContact11ContactDataEP23CntTransformContactDataE11node_createEP8QMapDataPPNS5_4NodeERKS1_RKS3_)
    QMap<CntTransformContact::ContactData, CntTransformContactData*>::detach_helper() 0x0001a3a7   Thumb Code   114  qtcontacts_symbian.in(t._ZN4QMapIN19CntTransformContact11ContactDataEP23CntTransformContactDataE13detach_helperEv)
    QMap<CntTransformContact::ContactData, CntTransformContactData*>::detach() 0x0001a421   Thumb Code    26  qtcontacts_symbian.in(t._ZN4QMapIN19CntTransformContact11ContactDataEP23CntTransformContactDataE6detachEv)
    QMap<CntTransformContact::ContactData, CntTransformContactData*>::insert(const CntTransformContact::ContactData&, CntTransformContactData*const &) 0x0001a43b   Thumb Code   130  qtcontacts_symbian.in(t._ZN4QMapIN19CntTransformContact11ContactDataEP23CntTransformContactDataE6insertERKS1_RKS3_)
    QMap<CntTransformContact::ContactData, CntTransformContactData*>::freeData(QMapData*) 0x0001a4bd   Thumb Code    22  qtcontacts_symbian.in(t._ZN4QMapIN19CntTransformContact11ContactDataEP23CntTransformContactDataE8freeDataEP8QMapData)
    QMap<CntTransformContact::ContactData, CntTransformContactData*>::~QMap() 0x0001a4d3   Thumb Code    32  qtcontacts_symbian.in(t._ZN4QMapIN19CntTransformContact11ContactDataEP23CntTransformContactDataED1Ev)
    QMap<CntTransformContact::ContactData, CntTransformContactData*>::~QMap__sub_object() 0x0001a4d3   Thumb Code     0  qtcontacts_symbian.in(t._ZN4QMapIN19CntTransformContact11ContactDataEP23CntTransformContactDataED1Ev)
    QMap<int, QtMobility::QContactManager::Error>::node_create(QMapData*, QMapData::Node**, const int&, const QtMobility::QContactManager::Error&) 0x0001a4f3   Thumb Code    60  qtcontacts_symbian.in(t._ZN4QMapIiN10QtMobility15QContactManager5ErrorEE11node_createEP8QMapDataPPNS4_4NodeERKiRKS2_)
    QMap<int, QtMobility::QContactManager::Error>::detach_helper() 0x0001a52f   Thumb Code   114  qtcontacts_symbian.in(t._ZN4QMapIiN10QtMobility15QContactManager5ErrorEE13detach_helperEv)
    QMap<int, QtMobility::QContactManager::Error>::clear() 0x0001a5a9   Thumb Code    68  qtcontacts_symbian.in(t._ZN4QMapIiN10QtMobility15QContactManager5ErrorEE5clearEv)
    QMap<int, QtMobility::QContactManager::Error>::insert(const int&, const QtMobility::QContactManager::Error&) 0x0001a5f7   Thumb Code   142  qtcontacts_symbian.in(t._ZN4QMapIiN10QtMobility15QContactManager5ErrorEE6insertERKiRKS2_)
    QMap<int, QtMobility::QContactManager::Error>::freeData(QMapData*) 0x0001a685   Thumb Code    22  qtcontacts_symbian.in(t._ZN4QMapIiN10QtMobility15QContactManager5ErrorEE8freeDataEP8QMapData)
    QMap<int, QtMobility::QContactManager::Error>::QMap() 0x0001a69d   Thumb Code    18  qtcontacts_symbian.in(t._ZN4QMapIiN10QtMobility15QContactManager5ErrorEEC1Ev)
    QMap<int, QtMobility::QContactManager::Error>::QMap__sub_object() 0x0001a69d   Thumb Code     0  qtcontacts_symbian.in(t._ZN4QMapIiN10QtMobility15QContactManager5ErrorEEC1Ev)
    QMap<int, QtMobility::QContactManager::Error>::~QMap() 0x0001a6b5   Thumb Code    32  qtcontacts_symbian.in(t._ZN4QMapIiN10QtMobility15QContactManager5ErrorEED1Ev)
    QMap<int, QtMobility::QContactManager::Error>::~QMap__sub_object() 0x0001a6b5   Thumb Code     0  qtcontacts_symbian.in(t._ZN4QMapIiN10QtMobility15QContactManager5ErrorEED1Ev)
    QMap<unsigned, QSet<unsigned>>::node_create(QMapData*, QMapData::Node**, const unsigned&, const QSet<unsigned>&) 0x0001a6d5   Thumb Code    98  qtcontacts_symbian.in(t._ZN4QMapIj4QSetIjEE11node_createEP8QMapDataPPNS3_4NodeERKjRKS1_)
    QMap<unsigned, QSet<unsigned>>::detach_helper() 0x0001a753   Thumb Code   114  qtcontacts_symbian.in(t._ZN4QMapIj4QSetIjEE13detach_helperEv)
    QMap<unsigned, QSet<unsigned>>::detach() 0x0001a7cd   Thumb Code    26  qtcontacts_symbian.in(t._ZN4QMapIj4QSetIjEE6detachEv)
    QMap<unsigned, QSet<unsigned>>::insert(const unsigned&, const QSet<unsigned>&) 0x0001a7e7   Thumb Code   128  qtcontacts_symbian.in(t._ZN4QMapIj4QSetIjEE6insertERKjRKS1_)
    QMap<unsigned, QSet<unsigned>>::remove(const unsigned&) 0x0001a867   Thumb Code   154  qtcontacts_symbian.in(t._ZN4QMapIj4QSetIjEE6removeERKj)
    QMap<unsigned, QSet<unsigned>>::freeData(QMapData*) 0x0001a901   Thumb Code    32  qtcontacts_symbian.in(t._ZN4QMapIj4QSetIjEE8freeDataEP8QMapData)
    QMap<unsigned, QSet<unsigned>>::~QMap()  0x0001a921   Thumb Code    32  qtcontacts_symbian.in(t._ZN4QMapIj4QSetIjEED1Ev)
    QMap<unsigned, QSet<unsigned>>::~QMap__sub_object() 0x0001a921   Thumb Code     0  qtcontacts_symbian.in(t._ZN4QMapIj4QSetIjEED1Ev)
    QSet<unsigned>::const_iterator::operator --() 0x0001a941   Thumb Code    16  qtcontacts_symbian.in(t._ZN4QSetIjE14const_iteratormmEv)
    QSet<unsigned>::insert(const unsigned&)  0x0001a951   Thumb Code    22  qtcontacts_symbian.in(t._ZN4QSetIjE6insertERKj)
    QSet<unsigned>::remove(const unsigned&)  0x0001a967   Thumb Code    18  qtcontacts_symbian.in(t._ZN4QSetIjE6removeERKj)
    QSet<unsigned>::subtract(const QSet<unsigned>&) 0x0001a979   Thumb Code    96  qtcontacts_symbian.in(t._ZN4QSetIjE8subtractERKS0_)
    QSet<unsigned>::intersect(const QSet<unsigned>&) 0x0001a9e9   Thumb Code   112  qtcontacts_symbian.in(t._ZN4QSetIjE9intersectERKS0_)
    QSet<unsigned>::QSet(const QSet<unsigned>&) 0x0001aa69   Thumb Code    32  qtcontacts_symbian.in(t._ZN4QSetIjEC1ERKS0_)
    QSet<unsigned>::QSet__sub_object(const QSet<unsigned>&) 0x0001aa69   Thumb Code     0  qtcontacts_symbian.in(t._ZN4QSetIjEC1ERKS0_)
    QSet<unsigned>::QSet()                   0x0001aa89   Thumb Code    18  qtcontacts_symbian.in(t._ZN4QSetIjEC1Ev)
    QSet<unsigned>::QSet__sub_object()       0x0001aa89   Thumb Code     0  qtcontacts_symbian.in(t._ZN4QSetIjEC1Ev)
    QSet<unsigned>::operator =(const QSet<unsigned>&) 0x0001aaa1   Thumb Code    58  qtcontacts_symbian.in(t._ZN4QSetIjEaSERKS0_)
    QSet<unsigned>::operator -(const QSet<unsigned>&) 0x0001aadb   Thumb Code    18  qtcontacts_symbian.in(t._ZN4QSetIjEmiERKS0_)
    TBuf<(int)256>::TBuf()                   0x0001aaf7   Thumb Code    12  qtcontacts_symbian.in(t._ZN4TBufILi256EEC1Ev)
    TBuf<(int)256>::TBuf__sub_object()       0x0001aaf7   Thumb Code     0  qtcontacts_symbian.in(t._ZN4TBufILi256EEC1Ev)
    QHash<QString, QPair<int, bool>>::deleteNode2(QHashData::Node*) 0x0001ab03   Thumb Code    10  qtcontacts_symbian.in(t._ZN5QHashI7QString5QPairIibEE11deleteNode2EPN9QHashData4NodeE)
    QHash<QString, QPair<int, bool>>::detach_helper() 0x0001ab0d   Thumb Code    46  qtcontacts_symbian.in(t._ZN5QHashI7QString5QPairIibEE13detach_helperEv)
    QHash<QString, QPair<int, bool>>::duplicateNode(QHashData::Node*, void*) 0x0001ab45   Thumb Code    30  qtcontacts_symbian.in(t._ZN5QHashI7QString5QPairIibEE13duplicateNodeEPN9QHashData4NodeEPv)
    QHash<QString, QPair<int, bool>>::insert(const QString&, const QPair<int, bool>&) 0x0001ab6f   Thumb Code   144  qtcontacts_symbian.in(t._ZN5QHashI7QString5QPairIibEE6insertERKS0_RKS2_)
    QHash<QString, QPair<int, bool>>::freeData(QHashData*) 0x0001ac0d   Thumb Code    12  qtcontacts_symbian.in(t._ZN5QHashI7QString5QPairIibEE8freeDataEP9QHashData)
    QHash<QString, QPair<int, bool>>::QHash() 0x0001ac1d   Thumb Code    18  qtcontacts_symbian.in(t._ZN5QHashI7QString5QPairIibEEC1Ev)
    QHash<QString, QPair<int, bool>>::QHash__sub_object() 0x0001ac1d   Thumb Code     0  qtcontacts_symbian.in(t._ZN5QHashI7QString5QPairIibEEC1Ev)
    QHash<QString, QPair<int, bool>>::~QHash() 0x0001ac35   Thumb Code    28  qtcontacts_symbian.in(t._ZN5QHashI7QString5QPairIibEED1Ev)
    QHash<QString, QPair<int, bool>>::~QHash__sub_object() 0x0001ac35   Thumb Code     0  qtcontacts_symbian.in(t._ZN5QHashI7QString5QPairIibEED1Ev)
    QHash<QString, QString>::deleteNode2(QHashData::Node*) 0x0001ac51   Thumb Code    18  qtcontacts_symbian.in(t._ZN5QHashI7QStringS0_E11deleteNode2EPN9QHashData4NodeE)
    QHash<QString, QString>::detach_helper() 0x0001ac71   Thumb Code    46  qtcontacts_symbian.in(t._ZN5QHashI7QStringS0_E13detach_helperEv)
    QHash<QString, QString>::duplicateNode(QHashData::Node*, void*) 0x0001aca9   Thumb Code    30  qtcontacts_symbian.in(t._ZN5QHashI7QStringS0_E13duplicateNodeEPN9QHashData4NodeEPv)
    QHash<QString, QString>::insert(const QString&, const QString&) 0x0001acd3   Thumb Code   138  qtcontacts_symbian.in(t._ZN5QHashI7QStringS0_E6insertERKS0_S3_)
    QHash<QString, QString>::freeData(QHashData*) 0x0001ad69   Thumb Code    12  qtcontacts_symbian.in(t._ZN5QHashI7QStringS0_E8freeDataEP9QHashData)
    QHash<QString, QString>::QHash()         0x0001ad79   Thumb Code    18  qtcontacts_symbian.in(t._ZN5QHashI7QStringS0_EC1Ev)
    QHash<QString, QString>::QHash__sub_object() 0x0001ad79   Thumb Code     0  qtcontacts_symbian.in(t._ZN5QHashI7QStringS0_EC1Ev)
    QHash<QString, QString>::~QHash()        0x0001ad91   Thumb Code    28  qtcontacts_symbian.in(t._ZN5QHashI7QStringS0_ED1Ev)
    QHash<QString, QString>::~QHash__sub_object() 0x0001ad91   Thumb Code     0  qtcontacts_symbian.in(t._ZN5QHashI7QStringS0_ED1Ev)
    QHash<QString, int>::deleteNode2(QHashData::Node*) 0x0001adad   Thumb Code    10  qtcontacts_symbian.in(t._ZN5QHashI7QStringiE11deleteNode2EPN9QHashData4NodeE)
    QHash<QString, int>::detach_helper()     0x0001adb9   Thumb Code    46  qtcontacts_symbian.in(t._ZN5QHashI7QStringiE13detach_helperEv)
    QHash<QString, int>::duplicateNode(QHashData::Node*, void*) 0x0001adf1   Thumb Code    30  qtcontacts_symbian.in(t._ZN5QHashI7QStringiE13duplicateNodeEPN9QHashData4NodeEPv)
    QHash<QString, int>::insert(const QString&, const int&) 0x0001ae1b   Thumb Code   134  qtcontacts_symbian.in(t._ZN5QHashI7QStringiE6insertERKS0_RKi)
    QHash<QString, int>::freeData(QHashData*) 0x0001aead   Thumb Code    12  qtcontacts_symbian.in(t._ZN5QHashI7QStringiE8freeDataEP9QHashData)
    QHash<QString, int>::QHash()             0x0001aebd   Thumb Code    18  qtcontacts_symbian.in(t._ZN5QHashI7QStringiEC1Ev)
    QHash<QString, int>::QHash__sub_object() 0x0001aebd   Thumb Code     0  qtcontacts_symbian.in(t._ZN5QHashI7QStringiEC1Ev)
    QHash<QString, int>::~QHash()            0x0001aed5   Thumb Code    28  qtcontacts_symbian.in(t._ZN5QHashI7QStringiED1Ev)
    QHash<QString, int>::~QHash__sub_object() 0x0001aed5   Thumb Code     0  qtcontacts_symbian.in(t._ZN5QHashI7QStringiED1Ev)
    QHash<unsigned, QHashDummyValue>::deleteNode2(QHashData::Node*) 0x0001aef1   Thumb Code     2  qtcontacts_symbian.in(t._ZN5QHashIj15QHashDummyValueE11deleteNode2EPN9QHashData4NodeE)
    QHash<unsigned, QHashDummyValue>::detach_helper() 0x0001aef5   Thumb Code    46  qtcontacts_symbian.in(t._ZN5QHashIj15QHashDummyValueE13detach_helperEv)
    QHash<unsigned, QHashDummyValue>::duplicateNode(QHashData::Node*, void*) 0x0001af2d   Thumb Code    10  qtcontacts_symbian.in(t._ZN5QHashIj15QHashDummyValueE13duplicateNodeEPN9QHashData4NodeEPv)
    QHash<unsigned, QHashDummyValue>::detach() 0x0001af37   Thumb Code    26  qtcontacts_symbian.in(t._ZN5QHashIj15QHashDummyValueE6detachEv)
    QHash<unsigned, QHashDummyValue>::insert(const unsigned&, const QHashDummyValue&) 0x0001af51   Thumb Code   104  qtcontacts_symbian.in(t._ZN5QHashIj15QHashDummyValueE6insertERKjRKS0_)
    QHash<unsigned, QHashDummyValue>::remove(const unsigned&) 0x0001afb9   Thumb Code   162  qtcontacts_symbian.in(t._ZN5QHashIj15QHashDummyValueE6removeERKj)
    QHash<unsigned, QHashDummyValue>::freeData(QHashData*) 0x0001b05d   Thumb Code    12  qtcontacts_symbian.in(t._ZN5QHashIj15QHashDummyValueE8freeDataEP9QHashData)
    QHash<unsigned, QHashDummyValue>::~QHash() 0x0001b06d   Thumb Code    28  qtcontacts_symbian.in(t._ZN5QHashIj15QHashDummyValueED1Ev)
    QHash<unsigned, QHashDummyValue>::~QHash__sub_object() 0x0001b06d   Thumb Code     0  qtcontacts_symbian.in(t._ZN5QHashIj15QHashDummyValueED1Ev)
    QHash<unsigned long, CntTransformContactData*>::createNode(unsigned, const unsigned long&, CntTransformContactData*const &, QHashNode<unsigned long, CntTransformContactData*>**) 0x0001b089   Thumb Code    66  qtcontacts_symbian.in(t._ZN5QHashImP23CntTransformContactDataE10createNodeEjRKmRKS1_PP9QHashNodeImS1_E)
    QHash<unsigned long, CntTransformContactData*>::deleteNode2(QHashData::Node*) 0x0001b0cb   Thumb Code     2  qtcontacts_symbian.in(t._ZN5QHashImP23CntTransformContactDataE11deleteNode2EPN9QHashData4NodeE)
    QHash<unsigned long, CntTransformContactData*>::detach_helper() 0x0001b0cd   Thumb Code    46  qtcontacts_symbian.in(t._ZN5QHashImP23CntTransformContactDataE13detach_helperEv)
    QHash<unsigned long, CntTransformContactData*>::duplicateNode(QHashData::Node*, void*) 0x0001b105   Thumb Code    24  qtcontacts_symbian.in(t._ZN5QHashImP23CntTransformContactDataE13duplicateNodeEPN9QHashData4NodeEPv)
    QHash<unsigned long, CntTransformContactData*>::detach() 0x0001b11d   Thumb Code    26  qtcontacts_symbian.in(t._ZN5QHashImP23CntTransformContactDataE6detachEv)
    QHash<unsigned long, CntTransformContactData*>::freeData(QHashData*) 0x0001b139   Thumb Code    12  qtcontacts_symbian.in(t._ZN5QHashImP23CntTransformContactDataE8freeDataEP9QHashData)
    QHash<unsigned long, CntTransformContactData*>::QHash() 0x0001b149   Thumb Code    18  qtcontacts_symbian.in(t._ZN5QHashImP23CntTransformContactDataEC1Ev)
    QHash<unsigned long, CntTransformContactData*>::QHash__sub_object() 0x0001b149   Thumb Code     0  qtcontacts_symbian.in(t._ZN5QHashImP23CntTransformContactDataEC1Ev)
    QHash<unsigned long, CntTransformContactData*>::~QHash() 0x0001b161   Thumb Code    28  qtcontacts_symbian.in(t._ZN5QHashImP23CntTransformContactDataED1Ev)
    QHash<unsigned long, CntTransformContactData*>::~QHash__sub_object() 0x0001b161   Thumb Code     0  qtcontacts_symbian.in(t._ZN5QHashImP23CntTransformContactDataED1Ev)
    QList<TUid>::detach_helper(int)          0x0001b17d   Thumb Code   108  qtcontacts_symbian.in(t._ZN5QListI4TUidE13detach_helperEi)
    QList<TUid>::detach_helper()             0x0001b1f1   Thumb Code    88  qtcontacts_symbian.in(t._ZN5QListI4TUidE13detach_helperEv)
    QList<TUid>::node_destruct(QList<TUid>::Node*, QList<TUid>::Node*) 0x0001b251   Thumb Code    22  qtcontacts_symbian.in(t._ZN5QListI4TUidE13node_destructEPNS1_4NodeES3_)
    QList<TUid>::node_construct(QList<TUid>::Node*, const TUid&) 0x0001b267   Thumb Code    28  qtcontacts_symbian.in(t._ZN5QListI4TUidE14node_constructEPNS1_4NodeERKS0_)
    QList<TUid>::detach_helper_grow(int, int) 0x0001b283   Thumb Code   180  qtcontacts_symbian.in(t._ZN5QListI4TUidE18detach_helper_growEii)
    QList<TUid>::free(QListData::Data*)      0x0001b33f   Thumb Code    38  qtcontacts_symbian.in(t._ZN5QListI4TUidE4freeEPN9QListData4DataE)
    QList<TUid>::append(const TUid&)         0x0001b365   Thumb Code    86  qtcontacts_symbian.in(t._ZN5QListI4TUidE6appendERKS0_)
    QList<TUid>::node_copy(QList<TUid>::Node*, QList<TUid>::Node*, QList<TUid>::Node*) 0x0001b3c9   Thumb Code    40  qtcontacts_symbian.in(t._ZN5QListI4TUidE9node_copyEPNS1_4NodeES3_S3_)
    QList<TUid>::QList(const QList<TUid>&)   0x0001b3f1   Thumb Code    30  qtcontacts_symbian.in(t._ZN5QListI4TUidEC1ERKS1_)
    QList<TUid>::QList__sub_object(const QList<TUid>&) 0x0001b3f1   Thumb Code     0  qtcontacts_symbian.in(t._ZN5QListI4TUidEC1ERKS1_)
    QList<TUid>::QList()                     0x0001b411   Thumb Code    16  qtcontacts_symbian.in(t._ZN5QListI4TUidEC1Ev)
    QList<TUid>::QList__sub_object()         0x0001b411   Thumb Code     0  qtcontacts_symbian.in(t._ZN5QListI4TUidEC1Ev)
    QList<TUid>::~QList()                    0x0001b425   Thumb Code    30  qtcontacts_symbian.in(t._ZN5QListI4TUidED1Ev)
    QList<TUid>::~QList__sub_object()        0x0001b425   Thumb Code     0  qtcontacts_symbian.in(t._ZN5QListI4TUidED1Ev)
    QList<TUid>::operator =(const QList<TUid>&) 0x0001b443   Thumb Code    54  qtcontacts_symbian.in(t._ZN5QListI4TUidEaSERKS1_)
    QList<TUid>::operator <<(const TUid&)    0x0001b479   Thumb Code    12  qtcontacts_symbian.in(t._ZN5QListI4TUidElsERKS0_)
    QList<TUid>::operator +=(const QList<TUid>&) 0x0001b485   Thumb Code   132  qtcontacts_symbian.in(t._ZN5QListI4TUidEpLERKS1_)
    QList<QPair<QLatin1String, QLatin1String>>::detach_helper() 0x0001b515   Thumb Code    88  qtcontacts_symbian.in(t._ZN5QListI5QPairI13QLatin1StringS1_EE13detach_helperEv)
    QList<QPair<QLatin1String, QLatin1String>>::node_destruct(QList<QPair<QLatin1String, QLatin1String>>::Node*, QList<QPair<QLatin1String, QLatin1String>>::Node*) 0x0001b575   Thumb Code    22  qtcontacts_symbian.in(t._ZN5QListI5QPairI13QLatin1StringS1_EE13node_destructEPNS3_4NodeES5_)
    QList<QPair<QLatin1String, QLatin1String>>::node_construct(QList<QPair<QLatin1String, QLatin1String>>::Node*, const QPair<QLatin1String, QLatin1String>&) 0x0001b58b   Thumb Code    32  qtcontacts_symbian.in(t._ZN5QListI5QPairI13QLatin1StringS1_EE14node_constructEPNS3_4NodeERKS2_)
    QList<QPair<QLatin1String, QLatin1String>>::detach_helper_grow(int, int) 0x0001b5ab   Thumb Code   180  qtcontacts_symbian.in(t._ZN5QListI5QPairI13QLatin1StringS1_EE18detach_helper_growEii)
    QList<QPair<QLatin1String, QLatin1String>>::free(QListData::Data*) 0x0001b667   Thumb Code    38  qtcontacts_symbian.in(t._ZN5QListI5QPairI13QLatin1StringS1_EE4freeEPN9QListData4DataE)
    QList<QPair<QLatin1String, QLatin1String>>::append(const QPair<QLatin1String, QLatin1String>&) 0x0001b68d   Thumb Code    90  qtcontacts_symbian.in(t._ZN5QListI5QPairI13QLatin1StringS1_EE6appendERKS2_)
    QList<QPair<QLatin1String, QLatin1String>>::node_copy(QList<QPair<QLatin1String, QLatin1String>>::Node*, QList<QPair<QLatin1String, QLatin1String>>::Node*, QList<QPair<QLatin1String, QLatin1String>>::Node*) 0x0001b6f5   Thumb Code    44  qtcontacts_symbian.in(t._ZN5QListI5QPairI13QLatin1StringS1_EE9node_copyEPNS3_4NodeES5_S5_)
    QList<QPair<QLatin1String, QLatin1String>>::QList(const QList<QPair<QLatin1String, QLatin1String>>&) 0x0001b721   Thumb Code    30  qtcontacts_symbian.in(t._ZN5QListI5QPairI13QLatin1StringS1_EEC1ERKS3_)
    QList<QPair<QLatin1String, QLatin1String>>::QList__sub_object(const QList<QPair<QLatin1String, QLatin1String>>&) 0x0001b721   Thumb Code     0  qtcontacts_symbian.in(t._ZN5QListI5QPairI13QLatin1StringS1_EEC1ERKS3_)
    QList<QPair<QLatin1String, QLatin1String>>::QList() 0x0001b741   Thumb Code    16  qtcontacts_symbian.in(t._ZN5QListI5QPairI13QLatin1StringS1_EEC1Ev)
    QList<QPair<QLatin1String, QLatin1String>>::QList__sub_object() 0x0001b741   Thumb Code     0  qtcontacts_symbian.in(t._ZN5QListI5QPairI13QLatin1StringS1_EEC1Ev)
    QList<QPair<QLatin1String, QLatin1String>>::~QList() 0x0001b755   Thumb Code    30  qtcontacts_symbian.in(t._ZN5QListI5QPairI13QLatin1StringS1_EED1Ev)
    QList<QPair<QLatin1String, QLatin1String>>::~QList__sub_object() 0x0001b755   Thumb Code     0  qtcontacts_symbian.in(t._ZN5QListI5QPairI13QLatin1StringS1_EED1Ev)
    QList<QPair<unsigned, QString>>::detach_helper() 0x0001b773   Thumb Code    88  qtcontacts_symbian.in(t._ZN5QListI5QPairIj7QStringEE13detach_helperEv)
    QList<QPair<unsigned, QString>>::node_destruct(QList<QPair<unsigned, QString>>::Node*, QList<QPair<unsigned, QString>>::Node*) 0x0001b7d3   Thumb Code    30  qtcontacts_symbian.in(t._ZN5QListI5QPairIj7QStringEE13node_destructEPNS3_4NodeES5_)
    QList<QPair<unsigned, QString>>::node_construct(QList<QPair<unsigned, QString>>::Node*, const QPair<unsigned, QString>&) 0x0001b7f1   Thumb Code    32  qtcontacts_symbian.in(t._ZN5QListI5QPairIj7QStringEE14node_constructEPNS3_4NodeERKS2_)
    QList<QPair<unsigned, QString>>::detach_helper_grow(int, int) 0x0001b81b   Thumb Code   180  qtcontacts_symbian.in(t._ZN5QListI5QPairIj7QStringEE18detach_helper_growEii)
    QList<QPair<unsigned, QString>>::free(QListData::Data*) 0x0001b8d7   Thumb Code    38  qtcontacts_symbian.in(t._ZN5QListI5QPairIj7QStringEE4freeEPN9QListData4DataE)
    QList<QPair<unsigned, QString>>::append(const QPair<unsigned, QString>&) 0x0001b8fd   Thumb Code    90  qtcontacts_symbian.in(t._ZN5QListI5QPairIj7QStringEE6appendERKS2_)
    QList<QPair<unsigned, QString>>::node_copy(QList<QPair<unsigned, QString>>::Node*, QList<QPair<unsigned, QString>>::Node*, QList<QPair<unsigned, QString>>::Node*) 0x0001b965   Thumb Code    80  qtcontacts_symbian.in(t._ZN5QListI5QPairIj7QStringEE9node_copyEPNS3_4NodeES5_S5_)
    QList<QPair<unsigned, QString>>::QList() 0x0001b9c9   Thumb Code    16  qtcontacts_symbian.in(t._ZN5QListI5QPairIj7QStringEEC1Ev)
    QList<QPair<unsigned, QString>>::QList__sub_object() 0x0001b9c9   Thumb Code     0  qtcontacts_symbian.in(t._ZN5QListI5QPairIj7QStringEEC1Ev)
    QList<QPair<unsigned, QString>>::~QList() 0x0001b9dd   Thumb Code    30  qtcontacts_symbian.in(t._ZN5QListI5QPairIj7QStringEED1Ev)
    QList<QPair<unsigned, QString>>::~QList__sub_object() 0x0001b9dd   Thumb Code     0  qtcontacts_symbian.in(t._ZN5QListI5QPairIj7QStringEED1Ev)
    QList<QString>::detach_helper(int)       0x0001b9fb   Thumb Code    86  qtcontacts_symbian.in(t._ZN5QListI7QStringE13detach_helperEi)
    QList<QString>::detach_helper()          0x0001ba59   Thumb Code    12  qtcontacts_symbian.in(t._ZN5QListI7QStringE13detach_helperEv)
    QList<QString>::node_construct(QList<QString>::Node*, const QString&) 0x0001ba65   Thumb Code    26  qtcontacts_symbian.in(t._ZN5QListI7QStringE14node_constructEPNS1_4NodeERKS0_)
    QList<QString>::detach_helper_grow(int, int) 0x0001ba8b   Thumb Code   186  qtcontacts_symbian.in(t._ZN5QListI7QStringE18detach_helper_growEii)
    QList<QString>::free(QListData::Data*)   0x0001bb4d   Thumb Code    48  qtcontacts_symbian.in(t._ZN5QListI7QStringE4freeEPN9QListData4DataE)
    QList<QString>::append(const QString&)   0x0001bb7d   Thumb Code    94  qtcontacts_symbian.in(t._ZN5QListI7QStringE6appendERKS0_)
    QList<QString>::node_copy(QList<QString>::Node*, QList<QString>::Node*, QList<QString>::Node*) 0x0001bbe9   Thumb Code    70  qtcontacts_symbian.in(t._ZN5QListI7QStringE9node_copyEPNS1_4NodeES3_S3_)
    QList<QString>::QList(const QList<QString>&) 0x0001bc45   Thumb Code    30  qtcontacts_symbian.in(t._ZN5QListI7QStringEC1ERKS1_)
    QList<QString>::QList__sub_object(const QList<QString>&) 0x0001bc45   Thumb Code     0  qtcontacts_symbian.in(t._ZN5QListI7QStringEC1ERKS1_)
    QList<QString>::QList()                  0x0001bc65   Thumb Code    16  qtcontacts_symbian.in(t._ZN5QListI7QStringEC1Ev)
    QList<QString>::QList__sub_object()      0x0001bc65   Thumb Code     0  qtcontacts_symbian.in(t._ZN5QListI7QStringEC1Ev)
    QList<QString>::~QList()                 0x0001bc79   Thumb Code    30  qtcontacts_symbian.in(t._ZN5QListI7QStringED1Ev)
    QList<QString>::~QList__sub_object()     0x0001bc79   Thumb Code     0  qtcontacts_symbian.in(t._ZN5QListI7QStringED1Ev)
    QList<QVariant>::detach_helper()         0x0001bc97   Thumb Code    88  qtcontacts_symbian.in(t._ZN5QListI8QVariantE13detach_helperEv)
    QList<QVariant>::node_destruct(QList<QVariant>::Node*, QList<QVariant>::Node*) 0x0001bcf7   Thumb Code    30  qtcontacts_symbian.in(t._ZN5QListI8QVariantE13node_destructEPNS1_4NodeES3_)
    QList<QVariant>::node_construct(QList<QVariant>::Node*, const QVariant&) 0x0001bd15   Thumb Code    32  qtcontacts_symbian.in(t._ZN5QListI8QVariantE14node_constructEPNS1_4NodeERKS0_)
    QList<QVariant>::detach_helper_grow(int, int) 0x0001bd3f   Thumb Code   180  qtcontacts_symbian.in(t._ZN5QListI8QVariantE18detach_helper_growEii)
    QList<QVariant>::free(QListData::Data*)  0x0001bdfb   Thumb Code    38  qtcontacts_symbian.in(t._ZN5QListI8QVariantE4freeEPN9QListData4DataE)
    QList<QVariant>::append(const QVariant&) 0x0001be21   Thumb Code    90  qtcontacts_symbian.in(t._ZN5QListI8QVariantE6appendERKS0_)
    QList<QVariant>::node_copy(QList<QVariant>::Node*, QList<QVariant>::Node*, QList<QVariant>::Node*) 0x0001be89   Thumb Code    80  qtcontacts_symbian.in(t._ZN5QListI8QVariantE9node_copyEPNS1_4NodeES3_S3_)
    QList<QVariant>::QList(const QList<QVariant>&) 0x0001beeb   Thumb Code    30  qtcontacts_symbian.in(t._ZN5QListI8QVariantEC1ERKS1_)
    QList<QVariant>::QList__sub_object(const QList<QVariant>&) 0x0001beeb   Thumb Code     0  qtcontacts_symbian.in(t._ZN5QListI8QVariantEC1ERKS1_)
    QList<QVariant>::QList()                 0x0001bf09   Thumb Code    16  qtcontacts_symbian.in(t._ZN5QListI8QVariantEC1Ev)
    QList<QVariant>::QList__sub_object()     0x0001bf09   Thumb Code     0  qtcontacts_symbian.in(t._ZN5QListI8QVariantEC1Ev)
    QList<QVariant>::~QList()                0x0001bf1d   Thumb Code    30  qtcontacts_symbian.in(t._ZN5QListI8QVariantED1Ev)
    QList<QVariant>::~QList__sub_object()    0x0001bf1d   Thumb Code     0  qtcontacts_symbian.in(t._ZN5QListI8QVariantED1Ev)
    QList<QVariant>::operator <<(const QVariant&) 0x0001bf3b   Thumb Code    12  qtcontacts_symbian.in(t._ZN5QListI8QVariantElsERKS0_)
    QList<QtMobility::QContactDetail>::detach_helper(int) 0x0001bf47   Thumb Code   142  qtcontacts_symbian.in(t._ZN5QListIN10QtMobility14QContactDetailEE13detach_helperEi)
    QList<QtMobility::QContactDetail>::detach_helper() 0x0001bfe9   Thumb Code    12  qtcontacts_symbian.in(t._ZN5QListIN10QtMobility14QContactDetailEE13detach_helperEv)
    QList<QtMobility::QContactDetail>::free(QListData::Data*) 0x0001bff5   Thumb Code    48  qtcontacts_symbian.in(t._ZN5QListIN10QtMobility14QContactDetailEE4freeEPN9QListData4DataE)
    QList<QtMobility::QContactDetail>::~QList() 0x0001c025   Thumb Code    30  qtcontacts_symbian.in(t._ZN5QListIN10QtMobility14QContactDetailEED1Ev)
    QList<QtMobility::QContactDetail>::~QList__sub_object() 0x0001c025   Thumb Code     0  qtcontacts_symbian.in(t._ZN5QListIN10QtMobility14QContactDetailEED1Ev)
    QList<QtMobility::QContactDetail>::operator [](int) 0x0001c043   Thumb Code    34  qtcontacts_symbian.in(t._ZN5QListIN10QtMobility14QContactDetailEEixEi)
    QList<QtMobility::QContactFilter>::detach_helper(int) 0x0001c065   Thumb Code   142  qtcontacts_symbian.in(t._ZN5QListIN10QtMobility14QContactFilterEE13detach_helperEi)
    QList<QtMobility::QContactFilter>::free(QListData::Data*) 0x0001c107   Thumb Code    48  qtcontacts_symbian.in(t._ZN5QListIN10QtMobility14QContactFilterEE4freeEPN9QListData4DataE)
    QList<QtMobility::QContactFilter>::~QList() 0x0001c137   Thumb Code    30  qtcontacts_symbian.in(t._ZN5QListIN10QtMobility14QContactFilterEED1Ev)
    QList<QtMobility::QContactFilter>::~QList__sub_object() 0x0001c137   Thumb Code     0  qtcontacts_symbian.in(t._ZN5QListIN10QtMobility14QContactFilterEED1Ev)
    QList<QtMobility::QContactFilter>::operator [](int) 0x0001c155   Thumb Code    38  qtcontacts_symbian.in(t._ZN5QListIN10QtMobility14QContactFilterEEixEi)
    QList<QtMobility::QContactAddress>::detach_helper() 0x0001c17b   Thumb Code    88  qtcontacts_symbian.in(t._ZN5QListIN10QtMobility15QContactAddressEE13detach_helperEv)
    QList<QtMobility::QContactAddress>::node_destruct(QList<QtMobility::QContactAddress>::Node*, QList<QtMobility::QContactAddress>::Node*) 0x0001c1db   Thumb Code    30  qtcontacts_symbian.in(t._ZN5QListIN10QtMobility15QContactAddressEE13node_destructEPNS2_4NodeES4_)
    QList<QtMobility::QContactAddress>::node_construct(QList<QtMobility::QContactAddress>::Node*, const QtMobility::QContactAddress&) 0x0001c1f9   Thumb Code    32  qtcontacts_symbian.in(t._ZN5QListIN10QtMobility15QContactAddressEE14node_constructEPNS2_4NodeERKS1_)
    QList<QtMobility::QContactAddress>::detach_helper_grow(int, int) 0x0001c223   Thumb Code   180  qtcontacts_symbian.in(t._ZN5QListIN10QtMobility15QContactAddressEE18detach_helper_growEii)
    QList<QtMobility::QContactAddress>::free(QListData::Data*) 0x0001c2df   Thumb Code    44  qtcontacts_symbian.in(t._ZN5QListIN10QtMobility15QContactAddressEE4freeEPN9QListData4DataE)
    QList<QtMobility::QContactAddress>::append(const QtMobility::QContactAddress&) 0x0001c30d   Thumb Code    90  qtcontacts_symbian.in(t._ZN5QListIN10QtMobility15QContactAddressEE6appendERKS1_)
    QList<QtMobility::QContactAddress>::node_copy(QList<QtMobility::QContactAddress>::Node*, QList<QtMobility::QContactAddress>::Node*, QList<QtMobility::QContactAddress>::Node*) 0x0001c375   Thumb Code    80  qtcontacts_symbian.in(t._ZN5QListIN10QtMobility15QContactAddressEE9node_copyEPNS2_4NodeES4_S4_)
    QList<QtMobility::QContactAddress>::~QList() 0x0001c3d7   Thumb Code    30  qtcontacts_symbian.in(t._ZN5QListIN10QtMobility15QContactAddressEED1Ev)
    QList<QtMobility::QContactAddress>::~QList__sub_object() 0x0001c3d7   Thumb Code     0  qtcontacts_symbian.in(t._ZN5QListIN10QtMobility15QContactAddressEED1Ev)
    QList<QtMobility::QContactManager::Error>::~QList() 0x0001c3f5   Thumb Code    72  qtcontacts_symbian.in(t._ZN5QListIN10QtMobility15QContactManager5ErrorEED1Ev)
    QList<QtMobility::QContactManager::Error>::~QList__sub_object() 0x0001c3f5   Thumb Code     0  qtcontacts_symbian.in(t._ZN5QListIN10QtMobility15QContactManager5ErrorEED1Ev)
    QList<QtMobility::QContactSortOrder>::detach_helper(int) 0x0001c43d   Thumb Code   142  qtcontacts_symbian.in(t._ZN5QListIN10QtMobility17QContactSortOrderEE13detach_helperEi)
    QList<QtMobility::QContactSortOrder>::free(QListData::Data*) 0x0001c4df   Thumb Code    48  qtcontacts_symbian.in(t._ZN5QListIN10QtMobility17QContactSortOrderEE4freeEPN9QListData4DataE)
    QList<QtMobility::QContactSortOrder>::~QList() 0x0001c50f   Thumb Code    30  qtcontacts_symbian.in(t._ZN5QListIN10QtMobility17QContactSortOrderEED1Ev)
    QList<QtMobility::QContactSortOrder>::~QList__sub_object() 0x0001c50f   Thumb Code     0  qtcontacts_symbian.in(t._ZN5QListIN10QtMobility17QContactSortOrderEED1Ev)
    QList<QtMobility::QContactRelationship>::detach_helper() 0x0001c52d   Thumb Code    88  qtcontacts_symbian.in(t._ZN5QListIN10QtMobility20QContactRelationshipEE13detach_helperEv)
    QList<QtMobility::QContactRelationship>::node_destruct(QList<QtMobility::QContactRelationship>::Node*, QList<QtMobility::QContactRelationship>::Node*) 0x0001c58d   Thumb Code    30  qtcontacts_symbian.in(t._ZN5QListIN10QtMobility20QContactRelationshipEE13node_destructEPNS2_4NodeES4_)
    QList<QtMobility::QContactRelationship>::node_construct(QList<QtMobility::QContactRelationship>::Node*, const QtMobility::QContactRelationship&) 0x0001c5ab   Thumb Code    32  qtcontacts_symbian.in(t._ZN5QListIN10QtMobility20QContactRelationshipEE14node_constructEPNS2_4NodeERKS1_)
    QList<QtMobility::QContactRelationship>::detach_helper_grow(int, int) 0x0001c5d5   Thumb Code   180  qtcontacts_symbian.in(t._ZN5QListIN10QtMobility20QContactRelationshipEE18detach_helper_growEii)
    QList<QtMobility::QContactRelationship>::free(QListData::Data*) 0x0001c691   Thumb Code    38  qtcontacts_symbian.in(t._ZN5QListIN10QtMobility20QContactRelationshipEE4freeEPN9QListData4DataE)
    QList<QtMobility::QContactRelationship>::append(const QtMobility::QContactRelationship&) 0x0001c6b9   Thumb Code    90  qtcontacts_symbian.in(t._ZN5QListIN10QtMobility20QContactRelationshipEE6appendERKS1_)
    QList<QtMobility::QContactRelationship>::node_copy(QList<QtMobility::QContactRelationship>::Node*, QList<QtMobility::QContactRelationship>::Node*, QList<QtMobility::QContactRelationship>::Node*) 0x0001c721   Thumb Code    80  qtcontacts_symbian.in(t._ZN5QListIN10QtMobility20QContactRelationshipEE9node_copyEPNS2_4NodeES4_S4_)
    QList<QtMobility::QContactRelationship>::QList() 0x0001c785   Thumb Code    16  qtcontacts_symbian.in(t._ZN5QListIN10QtMobility20QContactRelationshipEEC1Ev)
    QList<QtMobility::QContactRelationship>::QList__sub_object() 0x0001c785   Thumb Code     0  qtcontacts_symbian.in(t._ZN5QListIN10QtMobility20QContactRelationshipEEC1Ev)
    QList<QtMobility::QContactRelationship>::~QList() 0x0001c799   Thumb Code    30  qtcontacts_symbian.in(t._ZN5QListIN10QtMobility20QContactRelationshipEED1Ev)
    QList<QtMobility::QContactRelationship>::~QList__sub_object() 0x0001c799   Thumb Code     0  qtcontacts_symbian.in(t._ZN5QListIN10QtMobility20QContactRelationshipEED1Ev)
    QList<QtMobility::QContactRelationship>::operator =(const QList<QtMobility::QContactRelationship>&) 0x0001c7b7   Thumb Code    54  qtcontacts_symbian.in(t._ZN5QListIN10QtMobility20QContactRelationshipEEaSERKS2_)
    QList<QtMobility::QContactRelationship>::operator +=(const QList<QtMobility::QContactRelationship>&) 0x0001c7ed   Thumb Code   132  qtcontacts_symbian.in(t._ZN5QListIN10QtMobility20QContactRelationshipEEpLERKS2_)
    QList<QtMobility::QContact>::detach_helper() 0x0001c87d   Thumb Code    88  qtcontacts_symbian.in(t._ZN5QListIN10QtMobility8QContactEE13detach_helperEv)
    QList<QtMobility::QContact>::node_construct(QList<QtMobility::QContact>::Node*, const QtMobility::QContact&) 0x0001c8dd   Thumb Code    26  qtcontacts_symbian.in(t._ZN5QListIN10QtMobility8QContactEE14node_constructEPNS2_4NodeERKS1_)
    QList<QtMobility::QContact>::detach_helper_grow(int, int) 0x0001c903   Thumb Code   186  qtcontacts_symbian.in(t._ZN5QListIN10QtMobility8QContactEE18detach_helper_growEii)
    QList<QtMobility::QContact>::free(QListData::Data*) 0x0001c9c5   Thumb Code    48  qtcontacts_symbian.in(t._ZN5QListIN10QtMobility8QContactEE4freeEPN9QListData4DataE)
    QList<QtMobility::QContact>::append(const QtMobility::QContact&) 0x0001c9f5   Thumb Code    94  qtcontacts_symbian.in(t._ZN5QListIN10QtMobility8QContactEE6appendERKS1_)
    QList<QtMobility::QContact>::node_copy(QList<QtMobility::QContact>::Node*, QList<QtMobility::QContact>::Node*, QList<QtMobility::QContact>::Node*) 0x0001ca61   Thumb Code    70  qtcontacts_symbian.in(t._ZN5QListIN10QtMobility8QContactEE9node_copyEPNS2_4NodeES4_S4_)
    QList<QtMobility::QContact>::QList()     0x0001cabd   Thumb Code    16  qtcontacts_symbian.in(t._ZN5QListIN10QtMobility8QContactEEC1Ev)
    QList<QtMobility::QContact>::QList__sub_object() 0x0001cabd   Thumb Code     0  qtcontacts_symbian.in(t._ZN5QListIN10QtMobility8QContactEEC1Ev)
    QList<QtMobility::QContact>::~QList()    0x0001cad1   Thumb Code    30  qtcontacts_symbian.in(t._ZN5QListIN10QtMobility8QContactEED1Ev)
    QList<QtMobility::QContact>::~QList__sub_object() 0x0001cad1   Thumb Code     0  qtcontacts_symbian.in(t._ZN5QListIN10QtMobility8QContactEED1Ev)
    QList<QtMobility::QContact>::operator =(const QList<QtMobility::QContact>&) 0x0001caef   Thumb Code    54  qtcontacts_symbian.in(t._ZN5QListIN10QtMobility8QContactEEaSERKS2_)
    QList<QVariant::Type>::node_destruct(QList<QVariant::Type>::Node*, QList<QVariant::Type>::Node*) 0x0001cb25   Thumb Code    22  qtcontacts_symbian.in(t._ZN5QListIN8QVariant4TypeEE13node_destructEPNS2_4NodeES4_)
    QList<QVariant::Type>::node_construct(QList<QVariant::Type>::Node*, const QVariant::Type&) 0x0001cb3b   Thumb Code    28  qtcontacts_symbian.in(t._ZN5QListIN8QVariant4TypeEE14node_constructEPNS2_4NodeERKS1_)
    QList<QVariant::Type>::detach_helper_grow(int, int) 0x0001cb57   Thumb Code   180  qtcontacts_symbian.in(t._ZN5QListIN8QVariant4TypeEE18detach_helper_growEii)
    QList<QVariant::Type>::free(QListData::Data*) 0x0001cc13   Thumb Code    44  qtcontacts_symbian.in(t._ZN5QListIN8QVariant4TypeEE4freeEPN9QListData4DataE)
    QList<QVariant::Type>::append(const QVariant::Type&) 0x0001cc41   Thumb Code    90  qtcontacts_symbian.in(t._ZN5QListIN8QVariant4TypeEE6appendERKS1_)
    QList<QVariant::Type>::node_copy(QList<QVariant::Type>::Node*, QList<QVariant::Type>::Node*, QList<QVariant::Type>::Node*) 0x0001cca9   Thumb Code    40  qtcontacts_symbian.in(t._ZN5QListIN8QVariant4TypeEE9node_copyEPNS2_4NodeES4_S4_)
    QList<QVariant::Type>::~QList()          0x0001ccd1   Thumb Code    30  qtcontacts_symbian.in(t._ZN5QListIN8QVariant4TypeEED1Ev)
    QList<QVariant::Type>::~QList__sub_object() 0x0001ccd1   Thumb Code     0  qtcontacts_symbian.in(t._ZN5QListIN8QVariant4TypeEED1Ev)
    QList<CContactItemField*>::detach_helper(int) 0x0001ccef   Thumb Code    98  qtcontacts_symbian.in(t._ZN5QListIP17CContactItemFieldE13detach_helperEi)
    QList<CContactItemField*>::detach_helper_grow(int, int) 0x0001cd59   Thumb Code   164  qtcontacts_symbian.in(t._ZN5QListIP17CContactItemFieldE18detach_helper_growEii)
    QList<CContactItemField*>::free(QListData::Data*) 0x0001ce05   Thumb Code    16  qtcontacts_symbian.in(t._ZN5QListIP17CContactItemFieldE4freeEPN9QListData4DataE)
    QList<CContactItemField*>::node_copy(QList<CContactItemField*>::Node*, QList<CContactItemField*>::Node*, QList<CContactItemField*>::Node*) 0x0001ce15   Thumb Code    28  qtcontacts_symbian.in(t._ZN5QListIP17CContactItemFieldE9node_copyEPNS2_4NodeES4_S4_)
    QList<CContactItemField*>::~QList()      0x0001ce31   Thumb Code    30  qtcontacts_symbian.in(t._ZN5QListIP17CContactItemFieldED1Ev)
    QList<CContactItemField*>::~QList__sub_object() 0x0001ce31   Thumb Code     0  qtcontacts_symbian.in(t._ZN5QListIP17CContactItemFieldED1Ev)
    QList<QtMobility::QContactAbstractRequest*>::detach_helper() 0x0001ce4f   Thumb Code    88  qtcontacts_symbian.in(t._ZN5QListIPN10QtMobility23QContactAbstractRequestEE13detach_helperEv)
    QList<QtMobility::QContactAbstractRequest*>::detach_helper_grow(int, int) 0x0001ceaf   Thumb Code   164  qtcontacts_symbian.in(t._ZN5QListIPN10QtMobility23QContactAbstractRequestEE18detach_helper_growEii)
    QList<QtMobility::QContactAbstractRequest*>::free(QListData::Data*) 0x0001cf5b   Thumb Code    24  qtcontacts_symbian.in(t._ZN5QListIPN10QtMobility23QContactAbstractRequestEE4freeEPN9QListData4DataE)
    QList<QtMobility::QContactAbstractRequest*>::begin() 0x0001cf73   Thumb Code    22  qtcontacts_symbian.in(t._ZN5QListIPN10QtMobility23QContactAbstractRequestEE5beginEv)
    QList<QtMobility::QContactAbstractRequest*>::detach() 0x0001cf89   Thumb Code    24  qtcontacts_symbian.in(t._ZN5QListIPN10QtMobility23QContactAbstractRequestEE6detachEv)
    QList<QtMobility::QContactAbstractRequest*>::node_copy(QList<QtMobility::QContactAbstractRequest*>::Node*, QList<QtMobility::QContactAbstractRequest*>::Node*, QList<QtMobility::QContactAbstractRequest*>::Node*) 0x0001cfa1   Thumb Code    28  qtcontacts_symbian.in(t._ZN5QListIPN10QtMobility23QContactAbstractRequestEE9node_copyEPNS3_4NodeES5_S5_)
    QList<QtMobility::QContactAbstractRequest*>::removeOne(QtMobility::QContactAbstractRequest*const &) 0x0001cfbd   Thumb Code   138  qtcontacts_symbian.in(t._ZN5QListIPN10QtMobility23QContactAbstractRequestEE9removeOneERKS2_)
    QList<QtMobility::QContactAbstractRequest*>::~QList() 0x0001d04d   Thumb Code    30  qtcontacts_symbian.in(t._ZN5QListIPN10QtMobility23QContactAbstractRequestEED1Ev)
    QList<QtMobility::QContactAbstractRequest*>::~QList__sub_object() 0x0001d04d   Thumb Code     0  qtcontacts_symbian.in(t._ZN5QListIPN10QtMobility23QContactAbstractRequestEED1Ev)
    QList<QList<QPair<QLatin1String, QLatin1String>>>::detach_helper() 0x0001d06b   Thumb Code    88  qtcontacts_symbian.in(t._ZN5QListIS_I5QPairI13QLatin1StringS1_EEE13detach_helperEv)
    QList<QList<QPair<QLatin1String, QLatin1String>>>::node_destruct(QList<QList<QPair<QLatin1String, QLatin1String>>>::Node*, QList<QList<QPair<QLatin1String, QLatin1String>>>::Node*) 0x0001d0cb   Thumb Code    30  qtcontacts_symbian.in(t._ZN5QListIS_I5QPairI13QLatin1StringS1_EEE13node_destructEPNS4_4NodeES6_)
    QList<QList<QPair<QLatin1String, QLatin1String>>>::node_construct(QList<QList<QPair<QLatin1String, QLatin1String>>>::Node*, const QList<QPair<QLatin1String, QLatin1String>>&) 0x0001d0e9   Thumb Code    32  qtcontacts_symbian.in(t._ZN5QListIS_I5QPairI13QLatin1StringS1_EEE14node_constructEPNS4_4NodeERKS3_)
    QList<QList<QPair<QLatin1String, QLatin1String>>>::detach_helper_grow(int, int) 0x0001d113   Thumb Code   180  qtcontacts_symbian.in(t._ZN5QListIS_I5QPairI13QLatin1StringS1_EEE18detach_helper_growEii)
    QList<QList<QPair<QLatin1String, QLatin1String>>>::free(QListData::Data*) 0x0001d1cf   Thumb Code    38  qtcontacts_symbian.in(t._ZN5QListIS_I5QPairI13QLatin1StringS1_EEE4freeEPN9QListData4DataE)
    QList<QList<QPair<QLatin1String, QLatin1String>>>::clear() 0x0001d1f5   Thumb Code    64  qtcontacts_symbian.in(t._ZN5QListIS_I5QPairI13QLatin1StringS1_EEE5clearEv)
    QList<QList<QPair<QLatin1String, QLatin1String>>>::append(const QList<QPair<QLatin1String, QLatin1String>>&) 0x0001d241   Thumb Code    90  qtcontacts_symbian.in(t._ZN5QListIS_I5QPairI13QLatin1StringS1_EEE6appendERKS3_)
    QList<QList<QPair<QLatin1String, QLatin1String>>>::node_copy(QList<QList<QPair<QLatin1String, QLatin1String>>>::Node*, QList<QList<QPair<QLatin1String, QLatin1String>>>::Node*, QList<QList<QPair<QLatin1String, QLatin1String>>>::Node*) 0x0001d2a9   Thumb Code    80  qtcontacts_symbian.in(t._ZN5QListIS_I5QPairI13QLatin1StringS1_EEE9node_copyEPNS4_4NodeES6_S6_)
    QList<QList<QPair<QLatin1String, QLatin1String>>>::QList(const QList<QList<QPair<QLatin1String, QLatin1String>>>&) 0x0001d30b   Thumb Code    30  qtcontacts_symbian.in(t._ZN5QListIS_I5QPairI13QLatin1StringS1_EEEC1ERKS4_)
    QList<QList<QPair<QLatin1String, QLatin1String>>>::QList__sub_object(const QList<QList<QPair<QLatin1String, QLatin1String>>>&) 0x0001d30b   Thumb Code     0  qtcontacts_symbian.in(t._ZN5QListIS_I5QPairI13QLatin1StringS1_EEEC1ERKS4_)
    QList<QList<QPair<QLatin1String, QLatin1String>>>::QList() 0x0001d329   Thumb Code    16  qtcontacts_symbian.in(t._ZN5QListIS_I5QPairI13QLatin1StringS1_EEEC1Ev)
    QList<QList<QPair<QLatin1String, QLatin1String>>>::QList__sub_object() 0x0001d329   Thumb Code     0  qtcontacts_symbian.in(t._ZN5QListIS_I5QPairI13QLatin1StringS1_EEEC1Ev)
    QList<QList<QPair<QLatin1String, QLatin1String>>>::~QList() 0x0001d33d   Thumb Code    30  qtcontacts_symbian.in(t._ZN5QListIS_I5QPairI13QLatin1StringS1_EEED1Ev)
    QList<QList<QPair<QLatin1String, QLatin1String>>>::~QList__sub_object() 0x0001d33d   Thumb Code     0  qtcontacts_symbian.in(t._ZN5QListIS_I5QPairI13QLatin1StringS1_EEED1Ev)
    QList<unsigned>::detach_helper(int)      0x0001d35b   Thumb Code    86  qtcontacts_symbian.in(t._ZN5QListIjE13detach_helperEi)
    QList<unsigned>::detach_helper()         0x0001d3b9   Thumb Code    12  qtcontacts_symbian.in(t._ZN5QListIjE13detach_helperEv)
    QList<unsigned>::detach_helper_grow(int, int) 0x0001d3c5   Thumb Code   164  qtcontacts_symbian.in(t._ZN5QListIjE18detach_helper_growEii)
    QList<unsigned>::free(QListData::Data*)  0x0001d471   Thumb Code    16  qtcontacts_symbian.in(t._ZN5QListIjE4freeEPN9QListData4DataE)
    QList<unsigned>::append(const unsigned&) 0x0001d481   Thumb Code    44  qtcontacts_symbian.in(t._ZN5QListIjE6appendERKj)
    QList<unsigned>::node_copy(QList<unsigned>::Node*, QList<unsigned>::Node*, QList<unsigned>::Node*) 0x0001d4bb   Thumb Code    28  qtcontacts_symbian.in(t._ZN5QListIjE9node_copyEPNS0_4NodeES2_S2_)
    QList<unsigned>::QList(const QList<unsigned>&) 0x0001d4d7   Thumb Code    30  qtcontacts_symbian.in(t._ZN5QListIjEC1ERKS0_)
    QList<unsigned>::QList__sub_object(const QList<unsigned>&) 0x0001d4d7   Thumb Code     0  qtcontacts_symbian.in(t._ZN5QListIjEC1ERKS0_)
    QList<unsigned>::QList()                 0x0001d4f5   Thumb Code    16  qtcontacts_symbian.in(t._ZN5QListIjEC1Ev)
    QList<unsigned>::QList__sub_object()     0x0001d4f5   Thumb Code     0  qtcontacts_symbian.in(t._ZN5QListIjEC1Ev)
    QList<unsigned>::~QList()                0x0001d509   Thumb Code    30  qtcontacts_symbian.in(t._ZN5QListIjED1Ev)
    QList<unsigned>::~QList__sub_object()    0x0001d509   Thumb Code     0  qtcontacts_symbian.in(t._ZN5QListIjED1Ev)
    QList<unsigned>::operator =(const QList<unsigned>&) 0x0001d527   Thumb Code    54  qtcontacts_symbian.in(t._ZN5QListIjEaSERKS0_)
    QList<unsigned>::operator +=(const QList<unsigned>&) 0x0001d55d   Thumb Code   170  qtcontacts_symbian.in(t._ZN5QListIjEpLERKS0_)
    QQueue<QtMobility::QContactAbstractRequest*>::~QQueue() 0x0001d615   Thumb Code     8  qtcontacts_symbian.in(t._ZN6QQueueIPN10QtMobility23QContactAbstractRequestEED1Ev)
    QQueue<QtMobility::QContactAbstractRequest*>::~QQueue__sub_object() 0x0001d615   Thumb Code     0  qtcontacts_symbian.in(t._ZN6QQueueIPN10QtMobility23QContactAbstractRequestEED1Ev)
    QPointer<QObject>::~QPointer()           0x0001d61d   Thumb Code    12  qtcontacts_symbian.in(t._ZN8QPointerI7QObjectED1Ev)
    QPointer<QObject>::~QPointer__sub_object() 0x0001d61d   Thumb Code     0  qtcontacts_symbian.in(t._ZN8QPointerI7QObjectED1Ev)
    CArrayFix<TUid>::AppendL(const TUid&)    0x0001d629   Thumb Code    12  qtcontacts_symbian.in(t._ZN9CArrayFixI4TUidE7AppendLERKS0_)
    QHashNode<QString, QPair<int, bool>>::QHashNode(const QString&, const QPair<int, bool>&) 0x0001d635   Thumb Code    22  qtcontacts_symbian.in(t._ZN9QHashNodeI7QString5QPairIibEEC1ERKS0_RKS2_)
    QHashNode<QString, QPair<int, bool>>::QHashNode__sub_object(const QString&, const QPair<int, bool>&) 0x0001d635   Thumb Code     0  qtcontacts_symbian.in(t._ZN9QHashNodeI7QString5QPairIibEEC1ERKS0_RKS2_)
    QHashNode<QString, QString>::QHashNode(const QString&, const QString&) 0x0001d64b   Thumb Code    28  qtcontacts_symbian.in(t._ZN9QHashNodeI7QStringS0_EC1ERKS0_S3_)
    QHashNode<QString, QString>::QHashNode__sub_object(const QString&, const QString&) 0x0001d64b   Thumb Code     0  qtcontacts_symbian.in(t._ZN9QHashNodeI7QStringS0_EC1ERKS0_S3_)
    QHashNode<QString, int>::QHashNode(const QString&, const int&) 0x0001d673   Thumb Code    18  qtcontacts_symbian.in(t._ZN9QHashNodeI7QStringiEC1ERKS0_RKi)
    QHashNode<QString, int>::QHashNode__sub_object(const QString&, const int&) 0x0001d673   Thumb Code     0  qtcontacts_symbian.in(t._ZN9QHashNodeI7QStringiEC1ERKS0_RKi)
    QtMobility::QContactDetail::value<QStringList>(const char*) const 0x0001d685   Thumb Code   106  qtcontacts_symbian.in(t._ZNK10QtMobility14QContactDetail5valueI11QStringListEET_PKc)
    QtMobility::QContactDetail::value<QUrl>(const char*) const 0x0001d709   Thumb Code   106  qtcontacts_symbian.in(t._ZNK10QtMobility14QContactDetail5valueI4QUrlEET_PKc)
    QtMobility::QContactDetail::value<QImage>(const char*) const 0x0001d78d   Thumb Code   106  qtcontacts_symbian.in(t._ZNK10QtMobility14QContactDetail5valueI6QImageEET_PKc)
    QtMobility::QLatin1Constant<(int)4>::operator QString() const 0x0001d80f   Thumb Code    10  qtcontacts_symbian.in(t._ZNK10QtMobility15QLatin1ConstantILi4EEcv7QStringEv)
    QtMobility::QLatin1Constant<(int)5>::operator QString() const 0x0001d819   Thumb Code    10  qtcontacts_symbian.in(t._ZNK10QtMobility15QLatin1ConstantILi5EEcv7QStringEv)
    QtMobility::QLatin1Constant<(int)6>::operator QString() const 0x0001d823   Thumb Code    10  qtcontacts_symbian.in(t._ZNK10QtMobility15QLatin1ConstantILi6EEcv7QStringEv)
    QtMobility::QLatin1Constant<(int)9>::operator QString() const 0x0001d82d   Thumb Code    10  qtcontacts_symbian.in(t._ZNK10QtMobility15QLatin1ConstantILi9EEcv7QStringEv)
    QtMobility::QContact::details<QtMobility::QContactAddress>() const 0x0001d839   Thumb Code    80  qtcontacts_symbian.in(t._ZNK10QtMobility8QContact7detailsINS_15QContactAddressEEE5QListIT_Ev)
    QForeachContainer<QList<QtMobility::QContactSortOrder>>::condition() const 0x0001d8a7   Thumb Code    26  qtcontacts_symbian.in(t._ZNK17QForeachContainerI5QListIN10QtMobility17QContactSortOrderEEE9conditionEv)
    QForeachContainer<QList<unsigned>>::condition() const 0x0001d8c1   Thumb Code    26  qtcontacts_symbian.in(t._ZNK17QForeachContainerI5QListIjEE9conditionEv)
    QMap<QString, QVariant>::keys() const    0x0001d8db   Thumb Code    80  qtcontacts_symbian.in(t._ZNK4QMapI7QString8QVariantE4keysEv)
    QMap<QString, QtMobility::QContactDetailDefinition>::keys() const 0x0001d935   Thumb Code    84  qtcontacts_symbian.in(t._ZNK4QMapI7QStringN10QtMobility24QContactDetailDefinitionEE4keysEv)
    QMap<QString, QtMobility::QContactDetailDefinition>::contains(const QString&) const 0x0001d997   Thumb Code    90  qtcontacts_symbian.in(t._ZNK4QMapI7QStringN10QtMobility24QContactDetailDefinitionEE8containsERKS0_)
    QMap<QString, QtMobility::QContactDetailDefinition>::findNode(const QString&) const 0x0001d9f1   Thumb Code    82  qtcontacts_symbian.in(t._ZNK4QMapI7QStringN10QtMobility24QContactDetailDefinitionEE8findNodeERKS0_)
    QMap<QString, QtMobility::QContactDetailFieldDefinition>::mutableFindNode(QMapData::Node**, const QString&) const 0x0001da43   Thumb Code    86  qtcontacts_symbian.in(t._ZNK4QMapI7QStringN10QtMobility29QContactDetailFieldDefinitionEE15mutableFindNodeEPPN8QMapData4NodeERKS0_)
    QMap<QString, CntAbstractRelationship*>::keys() const 0x0001da99   Thumb Code    84  qtcontacts_symbian.in(t._ZNK4QMapI7QStringP23CntAbstractRelationshipE4keysEv)
    QMap<QString, CntAbstractRelationship*>::value(const QString&) const 0x0001dafb   Thumb Code    34  qtcontacts_symbian.in(t._ZNK4QMapI7QStringP23CntAbstractRelationshipE5valueERKS0_)
    QMap<QString, CntAbstractRelationship*>::contains(const QString&) const 0x0001db1d   Thumb Code    22  qtcontacts_symbian.in(t._ZNK4QMapI7QStringP23CntAbstractRelationshipE8containsERKS0_)
    QMap<QString, CntAbstractRelationship*>::findNode(const QString&) const 0x0001db33   Thumb Code    82  qtcontacts_symbian.in(t._ZNK4QMapI7QStringP23CntAbstractRelationshipE8findNodeERKS0_)
    QMap<CntTransformContact::ContactData, CntTransformContactData*>::const_iterator::operator !=(const QMap<CntTransformContact::ContactData, CntTransformContactData*>::const_iterator&) const 0x0001db85   Thumb Code    16  qtcontacts_symbian.in(t._ZNK4QMapIN19CntTransformContact11ContactDataEP23CntTransformContactDataE14const_iteratorneERKS5_)
    QMap<unsigned, QSet<unsigned>>::value(const unsigned&) const 0x0001db95   Thumb Code    46  qtcontacts_symbian.in(t._ZNK4QMapIj4QSetIjEE5valueERKj)
    QMap<unsigned, QSet<unsigned>>::findNode(const unsigned&) const 0x0001dbc3   Thumb Code    82  qtcontacts_symbian.in(t._ZNK4QMapIj4QSetIjEE8findNodeERKj)
    QSet<unsigned>::constBegin() const       0x0001dc15   Thumb Code    32  qtcontacts_symbian.in(t._ZNK4QSetIjE10constBeginEv)
    QSet<unsigned>::const_iterator::operator !=(const QSet<unsigned>::const_iterator&) const 0x0001dc35   Thumb Code    16  qtcontacts_symbian.in(t._ZNK4QSetIjE14const_iteratorneERKS1_)
    QSet<unsigned>::toList() const           0x0001dc45   Thumb Code    96  qtcontacts_symbian.in(t._ZNK4QSetIjE6toListEv)
    QSet<unsigned>::contains(const unsigned&) const 0x0001dcaf   Thumb Code    26  qtcontacts_symbian.in(t._ZNK4QSetIjE8containsERKj)
    QHash<QString, QPair<int, bool>>::contains(const QString&) const 0x0001dcc9   Thumb Code    26  qtcontacts_symbian.in(t._ZNK5QHashI7QString5QPairIibEE8containsERKS0_)
    QHash<QString, QPair<int, bool>>::findNode(const QString&, unsigned*) const 0x0001dce3   Thumb Code    90  qtcontacts_symbian.in(t._ZNK5QHashI7QString5QPairIibEE8findNodeERKS0_Pj)
    QHash<QString, QString>::contains(const QString&) const 0x0001dd3d   Thumb Code    26  qtcontacts_symbian.in(t._ZNK5QHashI7QStringS0_E8containsERKS0_)
    QHash<QString, QString>::findNode(const QString&, unsigned*) const 0x0001dd57   Thumb Code    90  qtcontacts_symbian.in(t._ZNK5QHashI7QStringS0_E8findNodeERKS0_Pj)
    QHash<QString, int>::contains(const QString&) const 0x0001ddb1   Thumb Code    26  qtcontacts_symbian.in(t._ZNK5QHashI7QStringiE8containsERKS0_)
    QHash<QString, int>::findNode(const QString&, unsigned*) const 0x0001ddcb   Thumb Code    90  qtcontacts_symbian.in(t._ZNK5QHashI7QStringiE8findNodeERKS0_Pj)
    QHash<unsigned, QHashDummyValue>::findNode(const unsigned&, unsigned*) const 0x0001de25   Thumb Code    50  qtcontacts_symbian.in(t._ZNK5QHashIj15QHashDummyValueE8findNodeERKjPj)
    QHash<unsigned long, CntTransformContactData*>::findNode(const unsigned long&, unsigned*) const 0x0001de57   Thumb Code    62  qtcontacts_symbian.in(t._ZNK5QHashImP23CntTransformContactDataE8findNodeERKmPj)
    QList<TUid>::isEmpty() const             0x0001de95   Thumb Code    18  qtcontacts_symbian.in(t._ZNK5QListI4TUidE7isEmptyEv)
    QList<QPair<unsigned, QString>>::at(int) const 0x0001dea7   Thumb Code    10  qtcontacts_symbian.in(t._ZNK5QListI5QPairIj7QStringEE2atEi)
    QList<QString>::at(int) const            0x0001deb1   Thumb Code    16  qtcontacts_symbian.in(t._ZNK5QListI7QStringE2atEi)
    QList<QtMobility::QContactRelationship>::at(int) const 0x0001dec1   Thumb Code    10  qtcontacts_symbian.in(t._ZNK5QListIN10QtMobility20QContactRelationshipEE2atEi)
    QList<QtMobility::QContactRelationship>::isEmpty() const 0x0001decb   Thumb Code    18  qtcontacts_symbian.in(t._ZNK5QListIN10QtMobility20QContactRelationshipEE7isEmptyEv)
    QList<CContactItemField*>::at(int) const 0x0001dedd   Thumb Code     8  qtcontacts_symbian.in(t._ZNK5QListIP17CContactItemFieldE2atEi)
    QList<QList<QPair<QLatin1String, QLatin1String>>>::at(int) const 0x0001dee5   Thumb Code    10  qtcontacts_symbian.in(t._ZNK5QListIS_I5QPairI13QLatin1StringS1_EEE2atEi)
    QList<unsigned>::at(int) const           0x0001deef   Thumb Code     8  qtcontacts_symbian.in(t._ZNK5QListIjE2atEi)
    QList<unsigned>::count() const           0x0001def7   Thumb Code     8  qtcontacts_symbian.in(t._ZNK5QListIjE5countEv)
    QList<unsigned>::toSet() const           0x0001df01   Thumb Code    96  qtcontacts_symbian.in(t._ZNK5QListIjE5toSetEv)
    QList<unsigned>::isEmpty() const         0x0001df6f   Thumb Code    18  qtcontacts_symbian.in(t._ZNK5QListIjE7isEmptyEv)
    operator >><TBuf<(int)256>>(RReadStream&, T1&) 0x0001df81   Thumb Code    20  qtcontacts_symbian.in(t._ZrsI4TBufILi256EEER11RReadStreamS3_RT_)
    CntSymbianEngine::staticMetaObject       0x00023614   Data          16  qtcontacts_symbian.in(.constdata)
    CntSymbianFactory::staticMetaObject      0x00023624   Data          16  qtcontacts_symbian.in(.constdata)
    CntSymbianDatabase::staticMetaObject     0x000236d4   Data          16  qtcontacts_symbian.in(.constdata)
    CntDisplayLabel::staticMetaObject        0x00023748   Data          16  qtcontacts_symbian.in(.constdata)
    CntTransformContactData::staticMetaObject 0x000237c4   Data          16  qtcontacts_symbian.in(.constdata)
    CntDbInfo::staticMetaObject              0x0002381c   Data          16  qtcontacts_symbian.in(.constdata)
    typeinfo for CArrayFixFlat<CContactDatabase::TSortPref> 0x00023dc4   Data          12  qtcontacts_symbian.in(.constdata__ZTI13CArrayFixFlatIN16CContactDatabase9TSortPrefEE)
    typeinfo for MDisplayLabel               0x00023dd0   Data           8  qtcontacts_symbian.in(.constdata__ZTI13MDisplayLabel)
    typeinfo for CntFilterUnion              0x00023dd8   Data          12  qtcontacts_symbian.in(.constdata__ZTI14CntFilterUnion)
    typeinfo for CntDisplayLabel             0x00023de4   Data          32  qtcontacts_symbian.in(.constdata__ZTI15CntDisplayLabel)
    typeinfo for CntFilterDetail             0x00023e04   Data          12  qtcontacts_symbian.in(.constdata__ZTI15CntFilterDetail)
    typeinfo for CntRelationship             0x00023e10   Data           8  qtcontacts_symbian.in(.constdata__ZTI15CntRelationship)
    typeinfo for CntTransformUrl             0x00023e18   Data          12  qtcontacts_symbian.in(.constdata__ZTI15CntTransformUrl)
    typeinfo for CntFilterDefault            0x00023e24   Data          12  qtcontacts_symbian.in(.constdata__ZTI16CntFilterDefault)
    typeinfo for CntSymbianEngine            0x00023e30   Data          12  qtcontacts_symbian.in(.constdata__ZTI16CntSymbianEngine)
    typeinfo for CntSymbianFilter            0x00023e3c   Data          12  qtcontacts_symbian.in(.constdata__ZTI16CntSymbianFilter)
    typeinfo for CntTransformName            0x00023e48   Data          12  qtcontacts_symbian.in(.constdata__ZTI16CntTransformName)
    typeinfo for CntTransformNote            0x00023e54   Data          12  qtcontacts_symbian.in(.constdata__ZTI16CntTransformNote)
    typeinfo for CntSymbianFactory           0x00023e60   Data          32  qtcontacts_symbian.in(.constdata__ZTI17CntSymbianFactory)
    typeinfo for CntTransformEmail           0x00023e80   Data          12  qtcontacts_symbian.in(.constdata__ZTI17CntTransformEmail)
    typeinfo for CntTransformEmpty           0x00023e8c   Data          12  qtcontacts_symbian.in(.constdata__ZTI17CntTransformEmpty)
    typeinfo for CntSymbianDatabase          0x00023e98   Data          32  qtcontacts_symbian.in(.constdata__ZTI18CntSymbianDatabase)
    typeinfo for CntTransformAvatar          0x00023eb8   Data          12  qtcontacts_symbian.in(.constdata__ZTI18CntTransformAvatar)
    typeinfo for CntTransformFamily          0x00023ec4   Data          12  qtcontacts_symbian.in(.constdata__ZTI18CntTransformFamily)
    typeinfo for MContactDbObserver          0x00023ed0   Data           8  qtcontacts_symbian.in(.constdata__ZTI18MContactDbObserver)
    typeinfo for CntThumbnailCreator         0x00023ed8   Data          12  qtcontacts_symbian.in(.constdata__ZTI19CntThumbnailCreator)
    typeinfo for CntTransformAddress         0x00023ee4   Data          12  qtcontacts_symbian.in(.constdata__ZTI19CntTransformAddress)
    typeinfo for CntTransformContact         0x00023ef0   Data           8  qtcontacts_symbian.in(.constdata__ZTI19CntTransformContact)
    typeinfo for CContactItemFieldDef        0x00023ef8   Data          12  qtcontacts_symbian.in(.constdata__ZTI20CContactItemFieldDef)
    typeinfo for CntRelationshipGroup        0x00023f04   Data          12  qtcontacts_symbian.in(.constdata__ZTI20CntRelationshipGroup)
    typeinfo for CntSymbianSorterDbms        0x00023f10   Data          12  qtcontacts_symbian.in(.constdata__ZTI20CntSymbianSorterDbms)
    typeinfo for CntTransformBirthday        0x00023f1c   Data          12  qtcontacts_symbian.in(.constdata__ZTI20CntTransformBirthday)
    typeinfo for CntTransformNickname        0x00023f28   Data          12  qtcontacts_symbian.in(.constdata__ZTI20CntTransformNickname)
    typeinfo for CntTransformRingtone        0x00023f34   Data          12  qtcontacts_symbian.in(.constdata__ZTI20CntTransformRingtone)
    typeinfo for CntFilterIntersection       0x00023f40   Data          12  qtcontacts_symbian.in(.constdata__ZTI21CntFilterIntersection)
    typeinfo for CntFilterRelationship       0x00023f4c   Data          12  qtcontacts_symbian.in(.constdata__ZTI21CntFilterRelationship)
    typeinfo for CntTransformThumbnail       0x00023f58   Data          12  qtcontacts_symbian.in(.constdata__ZTI21CntTransformThumbnail)
    typeinfo for CntTransformSyncTarget      0x00023f64   Data          12  qtcontacts_symbian.in(.constdata__ZTI22CntTransformSyncTarget)
    typeinfo for CntAbstractRelationship     0x00023f70   Data           8  qtcontacts_symbian.in(.constdata__ZTI23CntAbstractRelationship)
    typeinfo for CntTransformContactData     0x00023f78   Data          12  qtcontacts_symbian.in(.constdata__ZTI23CntTransformContactData)
    typeinfo for CntTransformPhoneNumber     0x00023f84   Data          12  qtcontacts_symbian.in(.constdata__ZTI23CntTransformPhoneNumber)
    typeinfo for CntAbstractContactFilter    0x00023f90   Data           8  qtcontacts_symbian.in(.constdata__ZTI24CntAbstractContactFilter)
    typeinfo for CntAbstractContactSorter    0x00023f98   Data           8  qtcontacts_symbian.in(.constdata__ZTI24CntAbstractContactSorter)
    typeinfo for CntTransformOrganisation    0x00023fa0   Data          12  qtcontacts_symbian.in(.constdata__ZTI24CntTransformOrganisation)
    typeinfo for CntTransformOnlineAccount   0x00023fac   Data          12  qtcontacts_symbian.in(.constdata__ZTI25CntTransformOnlineAccount)
    typeinfo for CntTransformAnniversarySimple 0x00023fb8   Data          12  qtcontacts_symbian.in(.constdata__ZTI29CntTransformAnniversarySimple)
    typeinfo for CArrayFix<CContactDatabase::TSortPref> 0x00023fc4   Data          12  qtcontacts_symbian.in(.constdata__ZTI9CArrayFixIN16CContactDatabase9TSortPrefEE)
    typeinfo for CntCenrep                   0x00023fd0   Data          12  qtcontacts_symbian.in(.constdata__ZTI9CntCenrep)
    typeinfo for CntDbInfo                   0x00023fdc   Data          12  qtcontacts_symbian.in(.constdata__ZTI9CntDbInfo)
    typeinfo for std::bad_alloc              0x00023fe8   Data          12  qtcontacts_symbian.in(.constdata__ZTISt9bad_alloc)
    typeinfo name for CArrayFixFlat<CContactDatabase::TSortPref> 0x00023ff4   Data          48  qtcontacts_symbian.in(.constdata__ZTS13CArrayFixFlatIN16CContactDatabase9TSortPrefEE)
    typeinfo name for MDisplayLabel          0x00024024   Data          16  qtcontacts_symbian.in(.constdata__ZTS13MDisplayLabel)
    typeinfo name for CntFilterUnion         0x00024034   Data          17  qtcontacts_symbian.in(.constdata__ZTS14CntFilterUnion)
    typeinfo name for CntDisplayLabel        0x00024045   Data          18  qtcontacts_symbian.in(.constdata__ZTS15CntDisplayLabel)
    typeinfo name for CntFilterDetail        0x00024057   Data          18  qtcontacts_symbian.in(.constdata__ZTS15CntFilterDetail)
    typeinfo name for CntRelationship        0x00024069   Data          18  qtcontacts_symbian.in(.constdata__ZTS15CntRelationship)
    typeinfo name for CntTransformUrl        0x0002407b   Data          18  qtcontacts_symbian.in(.constdata__ZTS15CntTransformUrl)
    typeinfo name for CntFilterDefault       0x0002408d   Data          19  qtcontacts_symbian.in(.constdata__ZTS16CntFilterDefault)
    typeinfo name for CntSymbianEngine       0x000240a0   Data          19  qtcontacts_symbian.in(.constdata__ZTS16CntSymbianEngine)
    typeinfo name for CntSymbianFilter       0x000240b3   Data          19  qtcontacts_symbian.in(.constdata__ZTS16CntSymbianFilter)
    typeinfo name for CntTransformName       0x000240c6   Data          19  qtcontacts_symbian.in(.constdata__ZTS16CntTransformName)
    typeinfo name for CntTransformNote       0x000240d9   Data          19  qtcontacts_symbian.in(.constdata__ZTS16CntTransformNote)
    typeinfo name for CntSymbianFactory      0x000240ec   Data          20  qtcontacts_symbian.in(.constdata__ZTS17CntSymbianFactory)
    typeinfo name for CntTransformEmail      0x00024100   Data          20  qtcontacts_symbian.in(.constdata__ZTS17CntTransformEmail)
    typeinfo name for CntTransformEmpty      0x00024114   Data          20  qtcontacts_symbian.in(.constdata__ZTS17CntTransformEmpty)
    typeinfo name for CntSymbianDatabase     0x00024128   Data          21  qtcontacts_symbian.in(.constdata__ZTS18CntSymbianDatabase)
    typeinfo name for CntTransformAvatar     0x0002413d   Data          21  qtcontacts_symbian.in(.constdata__ZTS18CntTransformAvatar)
    typeinfo name for CntTransformFamily     0x00024152   Data          21  qtcontacts_symbian.in(.constdata__ZTS18CntTransformFamily)
    typeinfo name for MContactDbObserver     0x00024167   Data          21  qtcontacts_symbian.in(.constdata__ZTS18MContactDbObserver)
    typeinfo name for CntThumbnailCreator    0x0002417c   Data          22  qtcontacts_symbian.in(.constdata__ZTS19CntThumbnailCreator)
    typeinfo name for CntTransformAddress    0x00024192   Data          22  qtcontacts_symbian.in(.constdata__ZTS19CntTransformAddress)
    typeinfo name for CntTransformContact    0x000241a8   Data          22  qtcontacts_symbian.in(.constdata__ZTS19CntTransformContact)
    typeinfo name for CContactItemFieldDef   0x000241be   Data          23  qtcontacts_symbian.in(.constdata__ZTS20CContactItemFieldDef)
    typeinfo name for CntRelationshipGroup   0x000241d5   Data          23  qtcontacts_symbian.in(.constdata__ZTS20CntRelationshipGroup)
    typeinfo name for CntSymbianSorterDbms   0x000241ec   Data          23  qtcontacts_symbian.in(.constdata__ZTS20CntSymbianSorterDbms)
    typeinfo name for CntTransformBirthday   0x00024203   Data          23  qtcontacts_symbian.in(.constdata__ZTS20CntTransformBirthday)
    typeinfo name for CntTransformNickname   0x0002421a   Data          23  qtcontacts_symbian.in(.constdata__ZTS20CntTransformNickname)
    typeinfo name for CntTransformRingtone   0x00024231   Data          23  qtcontacts_symbian.in(.constdata__ZTS20CntTransformRingtone)
    typeinfo name for CntFilterIntersection  0x00024248   Data          24  qtcontacts_symbian.in(.constdata__ZTS21CntFilterIntersection)
    typeinfo name for CntFilterRelationship  0x00024260   Data          24  qtcontacts_symbian.in(.constdata__ZTS21CntFilterRelationship)
    typeinfo name for CntTransformThumbnail  0x00024278   Data          24  qtcontacts_symbian.in(.constdata__ZTS21CntTransformThumbnail)
    typeinfo name for CntTransformSyncTarget 0x00024290   Data          25  qtcontacts_symbian.in(.constdata__ZTS22CntTransformSyncTarget)
    typeinfo name for CntAbstractRelationship 0x000242a9   Data          26  qtcontacts_symbian.in(.constdata__ZTS23CntAbstractRelationship)
    typeinfo name for CntTransformContactData 0x000242c3   Data          26  qtcontacts_symbian.in(.constdata__ZTS23CntTransformContactData)
    typeinfo name for CntTransformPhoneNumber 0x000242dd   Data          26  qtcontacts_symbian.in(.constdata__ZTS23CntTransformPhoneNumber)
    typeinfo name for CntAbstractContactFilter 0x000242f7   Data          27  qtcontacts_symbian.in(.constdata__ZTS24CntAbstractContactFilter)
    typeinfo name for CntAbstractContactSorter 0x00024312   Data          27  qtcontacts_symbian.in(.constdata__ZTS24CntAbstractContactSorter)
    typeinfo name for CntTransformOrganisation 0x0002432d   Data          27  qtcontacts_symbian.in(.constdata__ZTS24CntTransformOrganisation)
    typeinfo name for CntTransformOnlineAccount 0x00024348   Data          28  qtcontacts_symbian.in(.constdata__ZTS25CntTransformOnlineAccount)
    typeinfo name for CntTransformAnniversarySimple 0x00024364   Data          32  qtcontacts_symbian.in(.constdata__ZTS29CntTransformAnniversarySimple)
    typeinfo name for CArrayFix<CContactDatabase::TSortPref> 0x00024384   Data          43  qtcontacts_symbian.in(.constdata__ZTS9CArrayFixIN16CContactDatabase9TSortPrefEE)
    typeinfo name for CntCenrep              0x000243af   Data          11  qtcontacts_symbian.in(.constdata__ZTS9CntCenrep)
    typeinfo name for CntDbInfo              0x000243ba   Data          11  qtcontacts_symbian.in(.constdata__ZTS9CntDbInfo)
    typeinfo name for std::bad_alloc         0x000243c5   Data          13  qtcontacts_symbian.in(.constdata__ZTSSt9bad_alloc)
    vtable for CArrayFixFlat<CContactDatabase::TSortPref> 0x000243d4   Data          20  qtcontacts_symbian.in(.constdata__ZTV13CArrayFixFlatIN16CContactDatabase9TSortPrefEE)
    vtable for CntFilterUnion                0x000243e8   Data          24  qtcontacts_symbian.in(.constdata__ZTV14CntFilterUnion)
    vtable for CntDisplayLabel               0x00024400   Data          72  qtcontacts_symbian.in(.constdata__ZTV15CntDisplayLabel)
    vtable for CntFilterDetail               0x00024448   Data          24  qtcontacts_symbian.in(.constdata__ZTV15CntFilterDetail)
    vtable for CntRelationship               0x00024460   Data          16  qtcontacts_symbian.in(.constdata__ZTV15CntRelationship)
    vtable for CntTransformUrl               0x00024470   Data          96  qtcontacts_symbian.in(.constdata__ZTV15CntTransformUrl)
    vtable for CntFilterDefault              0x000244d0   Data          24  qtcontacts_symbian.in(.constdata__ZTV16CntFilterDefault)
    vtable for CntSymbianEngine              0x000244e8   Data         192  qtcontacts_symbian.in(.constdata__ZTV16CntSymbianEngine)
    vtable for CntSymbianFilter              0x000245a8   Data          24  qtcontacts_symbian.in(.constdata__ZTV16CntSymbianFilter)
    vtable for CntTransformName              0x000245c0   Data          96  qtcontacts_symbian.in(.constdata__ZTV16CntTransformName)
    vtable for CntTransformNote              0x00024620   Data          96  qtcontacts_symbian.in(.constdata__ZTV16CntTransformNote)
    vtable for CntSymbianFactory             0x00024680   Data          92  qtcontacts_symbian.in(.constdata__ZTV17CntSymbianFactory)
    vtable for CntTransformEmail             0x000246dc   Data          96  qtcontacts_symbian.in(.constdata__ZTV17CntTransformEmail)
    vtable for CntTransformEmpty             0x0002473c   Data          96  qtcontacts_symbian.in(.constdata__ZTV17CntTransformEmpty)
    vtable for CntSymbianDatabase            0x0002479c   Data          72  qtcontacts_symbian.in(.constdata__ZTV18CntSymbianDatabase)
    vtable for CntTransformAvatar            0x000247e4   Data          96  qtcontacts_symbian.in(.constdata__ZTV18CntTransformAvatar)
    vtable for CntTransformFamily            0x00024844   Data          96  qtcontacts_symbian.in(.constdata__ZTV18CntTransformFamily)
    vtable for CntThumbnailCreator           0x000248a4   Data          32  qtcontacts_symbian.in(.constdata__ZTV19CntThumbnailCreator)
    vtable for CntTransformAddress           0x000248c4   Data          96  qtcontacts_symbian.in(.constdata__ZTV19CntTransformAddress)
    vtable for CntTransformContact           0x00024924   Data          16  qtcontacts_symbian.in(.constdata__ZTV19CntTransformContact)
    vtable for CContactItemFieldDef          0x00024934   Data          20  qtcontacts_symbian.in(.constdata__ZTV20CContactItemFieldDef)
    vtable for CntRelationshipGroup          0x00024948   Data          32  qtcontacts_symbian.in(.constdata__ZTV20CntRelationshipGroup)
    vtable for CntSymbianSorterDbms          0x00024968   Data          20  qtcontacts_symbian.in(.constdata__ZTV20CntSymbianSorterDbms)
    vtable for CntTransformBirthday          0x0002497c   Data          96  qtcontacts_symbian.in(.constdata__ZTV20CntTransformBirthday)
    vtable for CntTransformNickname          0x000249dc   Data          96  qtcontacts_symbian.in(.constdata__ZTV20CntTransformNickname)
    vtable for CntTransformRingtone          0x00024a3c   Data          96  qtcontacts_symbian.in(.constdata__ZTV20CntTransformRingtone)
    vtable for CntFilterIntersection         0x00024a9c   Data          24  qtcontacts_symbian.in(.constdata__ZTV21CntFilterIntersection)
    vtable for CntFilterRelationship         0x00024ab4   Data          24  qtcontacts_symbian.in(.constdata__ZTV21CntFilterRelationship)
    vtable for CntTransformThumbnail         0x00024acc   Data          96  qtcontacts_symbian.in(.constdata__ZTV21CntTransformThumbnail)
    vtable for CntTransformSyncTarget        0x00024b2c   Data          96  qtcontacts_symbian.in(.constdata__ZTV22CntTransformSyncTarget)
    vtable for CntAbstractRelationship       0x00024b8c   Data          32  qtcontacts_symbian.in(.constdata__ZTV23CntAbstractRelationship)
    vtable for CntTransformContactData       0x00024bac   Data          96  qtcontacts_symbian.in(.constdata__ZTV23CntTransformContactData)
    vtable for CntTransformPhoneNumber       0x00024c0c   Data          96  qtcontacts_symbian.in(.constdata__ZTV23CntTransformPhoneNumber)
    vtable for CntTransformOrganisation      0x00024c6c   Data          96  qtcontacts_symbian.in(.constdata__ZTV24CntTransformOrganisation)
    vtable for CntTransformOnlineAccount     0x00024ccc   Data          96  qtcontacts_symbian.in(.constdata__ZTV25CntTransformOnlineAccount)
    vtable for CntTransformAnniversarySimple 0x00024d2c   Data          96  qtcontacts_symbian.in(.constdata__ZTV29CntTransformAnniversarySimple)
    vtable for CntCenrep                     0x00024d8c   Data          32  qtcontacts_symbian.in(.constdata__ZTV9CntCenrep)
    vtable for CntDbInfo                     0x00024dac   Data          56  qtcontacts_symbian.in(.constdata__ZTV9CntDbInfo)
    SHT$$INIT_ARRAY$$Base                    0x00024de4   Number         0  qtcontacts_symbian.in(.init_array)
    .ARM.exidx$$Base                         0x00024df4   Number         0  ucppinit_aeabi.o(.ARM.exidx)
    SHT$$INIT_ARRAY$$Limit                   0x00024df4   Data           0  qtcontacts_symbian.in(.init_array)
    .ARM.exidx$$Limit                        0x0002647c   Number         0  qtcontacts_symbian.in(.ARM.exidx)
    Image$$ER_RO$$Limit                      0x0002647c   Number         0  anon$$obj.o(linker$$defined$$symbols)
    __dso_handle                             0x00400050   Data           4  ucppfini.o(.data)

