ARM Linker, RVCT2.2 [Build 686]

================================================================================

Image Symbol Table

    Local Symbols

    Symbol Name                              Value     Ov Type        Size  Object(Section)

    [Anonymous Symbol]                       0x00000000   Number         0  QtCore{00040703}-1825.o ABSOLUTE
    [Anonymous Symbol]                       0x00000000   Number         0  QtContacts{00010103}-519.o ABSOLUTE
    [Anonymous Symbol]                       0x00000000   Number         0  QtContacts{00010103}-332.o ABSOLUTE
    [Anonymous Symbol]                       0x00000000   Number         0  QtCore{00040703}-1826.o ABSOLUTE
    [Anonymous Symbol]                       0x00000000   Number         0  QtContacts{00010103}-52.o ABSOLUTE
    [Anonymous Symbol]                       0x00000000   Number         0  QtContacts{00010103}-333.o ABSOLUTE
    [Anonymous Symbol]                       0x00000000   Number         0  QtCore{00040703}-1830.o ABSOLUTE
    [Anonymous Symbol]                       0x00000000   Number         0  QtContacts{00010103}-522.o ABSOLUTE
    [Anonymous Symbol]                       0x00000000   Number         0  QtContacts{00010103}-336.o ABSOLUTE
    [Anonymous Symbol]                       0x00000000   Number         0  QtCore{00040703}-1839.o ABSOLUTE
    [Anonymous Symbol]                       0x00000000   Number         0  QtContacts{00010103}-524.o ABSOLUTE
    [Anonymous Symbol]                       0x00000000   Number         0  QtContacts{00010103}-338.o ABSOLUTE
    [Anonymous Symbol]                       0x00000000   Number         0  QtCore{00040703}-1874.o ABSOLUTE
    [Anonymous Symbol]                       0x00000000   Number         0  QtContacts{00010103}-53.o ABSOLUTE
    [Anonymous Symbol]                       0x00000000   Number         0  QtContacts{00010103}-340.o ABSOLUTE
    [Anonymous Symbol]                       0x00000000   Number         0  QtCore{00040703}-1875.o ABSOLUTE
    [Anonymous Symbol]                       0x00000000   Number         0  QtContacts{00010103}-531.o ABSOLUTE
    [Anonymous Symbol]                       0x00000000   Number         0  QtContacts{00010103}-341.o ABSOLUTE
    [Anonymous Symbol]                       0x00000000   Number         0  QtCore{00040703}-1885.o ABSOLUTE
    [Anonymous Symbol]                       0x00000000   Number         0  QtContacts{00010103}-539.o ABSOLUTE
    [Anonymous Symbol]                       0x00000000   Number         0  QtContacts{00010103}-344.o ABSOLUTE
    [Anonymous Symbol]                       0x00000000   Number         0  QtCore{00040703}-1947.o ABSOLUTE
    [Anonymous Symbol]                       0x00000000   Number         0  QtContacts{00010103}-542.o ABSOLUTE
    [Anonymous Symbol]                       0x00000000   Number         0  QtContacts{00010103}-345.o ABSOLUTE
    [Anonymous Symbol]                       0x00000000   Number         0  QtCore{00040703}-1949.o ABSOLUTE
    [Anonymous Symbol]                       0x00000000   Number         0  QtContacts{00010103}-544.o ABSOLUTE
    [Anonymous Symbol]                       0x00000000   Number         0  QtContacts{00010103}-346.o ABSOLUTE
    [Anonymous Symbol]                       0x00000000   Number         0  QtCore{00040703}-2034.o ABSOLUTE
    [Anonymous Symbol]                       0x00000000   Number         0  QtContacts{00010103}-548.o ABSOLUTE
    [Anonymous Symbol]                       0x00000000   Number         0  QtContacts{00010103}-347.o ABSOLUTE
    [Anonymous Symbol]                       0x00000000   Number         0  QtCore{00040703}-2037.o ABSOLUTE
    [Anonymous Symbol]                       0x00000000   Number         0  QtContacts{00010103}-590.o ABSOLUTE
    [Anonymous Symbol]                       0x00000000   Number         0  QtContacts{00010103}-349.o ABSOLUTE
    [Anonymous Symbol]                       0x00000000   Number         0  QtCore{00040703}-2082.o ABSOLUTE
    [Anonymous Symbol]                       0x00000000   Number         0  QtContacts{00010103}-591.o ABSOLUTE
    [Anonymous Symbol]                       0x00000000   Number         0  QtContacts{00010103}-354.o ABSOLUTE
    [Anonymous Symbol]                       0x00000000   Number         0  QtCore{00040703}-2188.o ABSOLUTE
    [Anonymous Symbol]                       0x00000000   Number         0  QtContacts{00010103}-593.o ABSOLUTE
    [Anonymous Symbol]                       0x00000000   Number         0  QtContacts{00010103}-355.o ABSOLUTE
    [Anonymous Symbol]                       0x00000000   Number         0  QtCore{00040703}-2197.o ABSOLUTE
    [Anonymous Symbol]                       0x00000000   Number         0  QtContacts{00010103}-594.o ABSOLUTE
    [Anonymous Symbol]                       0x00000000   Number         0  QtContacts{00010103}-368.o ABSOLUTE
    [Anonymous Symbol]                       0x00000000   Number         0  QtCore{00040703}-2199.o ABSOLUTE
    [Anonymous Symbol]                       0x00000000   Number         0  QtContacts{00010103}-595.o ABSOLUTE
    [Anonymous Symbol]                       0x00000000   Number         0  QtContacts{00010103}-371.o ABSOLUTE
    [Anonymous Symbol]                       0x00000000   Number         0  QtCore{00040703}-2321.o ABSOLUTE
    [Anonymous Symbol]                       0x00000000   Number         0  QtContacts{00010103}-596.o ABSOLUTE
    [Anonymous Symbol]                       0x00000000   Number         0  QtContacts{00010103}-4.o ABSOLUTE
    [Anonymous Symbol]                       0x00000000   Number         0  QtCore{00040703}-274.o ABSOLUTE
    [Anonymous Symbol]                       0x00000000   Number         0  QtContacts{00010103}-598.o ABSOLUTE
    [Anonymous Symbol]                       0x00000000   Number         0  QtContacts{00010103}-403.o ABSOLUTE
    [Anonymous Symbol]                       0x00000000   Number         0  QtCore{00040703}-275.o ABSOLUTE
    [Anonymous Symbol]                       0x00000000   Number         0  QtContacts{00010103}-599.o ABSOLUTE
    [Anonymous Symbol]                       0x00000000   Number         0  QtContacts{00010103}-404.o ABSOLUTE
    [Anonymous Symbol]                       0x00000000   Number         0  QtCore{00040703}-282.o ABSOLUTE
    [Anonymous Symbol]                       0x00000000   Number         0  QtContacts{00010103}-600.o ABSOLUTE
    [Anonymous Symbol]                       0x00000000   Number         0  QtContacts{00010103}-405.o ABSOLUTE
    [Anonymous Symbol]                       0x00000000   Number         0  QtCore{00040703}-2867.o ABSOLUTE
    [Anonymous Symbol]                       0x00000000   Number         0  QtContacts{00010103}-606.o ABSOLUTE
    [Anonymous Symbol]                       0x00000000   Number         0  QtContacts{00010103}-406.o ABSOLUTE
    [Anonymous Symbol]                       0x00000000   Number         0  QtCore{00040703}-3040.o ABSOLUTE
    [Anonymous Symbol]                       0x00000000   Number         0  QtContacts{00010103}-609.o ABSOLUTE
    [Anonymous Symbol]                       0x00000000   Number         0  QtContacts{00010103}-407.o ABSOLUTE
    [Anonymous Symbol]                       0x00000000   Number         0  QtCore{00040703}-3059.o ABSOLUTE
    [Anonymous Symbol]                       0x00000000   Number         0  QtContacts{00010103}-612.o ABSOLUTE
    [Anonymous Symbol]                       0x00000000   Number         0  QtContacts{00010103}-410.o ABSOLUTE
    [Anonymous Symbol]                       0x00000000   Number         0  QtCore{00040703}-3064.o ABSOLUTE
    [Anonymous Symbol]                       0x00000000   Number         0  QtContacts{00010103}-613.o ABSOLUTE
    [Anonymous Symbol]                       0x00000000   Number         0  QtContacts{00010103}-412.o ABSOLUTE
    [Anonymous Symbol]                       0x00000000   Number         0  QtCore{00040703}-3097.o ABSOLUTE
    [Anonymous Symbol]                       0x00000000   Number         0  QtContacts{00010103}-614.o ABSOLUTE
    [Anonymous Symbol]                       0x00000000   Number         0  QtContacts{00010103}-436.o ABSOLUTE
    [Anonymous Symbol]                       0x00000000   Number         0  QtCore{00040703}-3098.o ABSOLUTE
    [Anonymous Symbol]                       0x00000000   Number         0  QtContacts{00010103}-615.o ABSOLUTE
    [Anonymous Symbol]                       0x00000000   Number         0  QtContacts{00010103}-441.o ABSOLUTE
    [Anonymous Symbol]                       0x00000000   Number         0  QtCore{00040703}-3101.o ABSOLUTE
    [Anonymous Symbol]                       0x00000000   Number         0  QtContacts{00010103}-616.o ABSOLUTE
    [Anonymous Symbol]                       0x00000000   Number         0  QtContacts{00010103}-442.o ABSOLUTE
    [Anonymous Symbol]                       0x00000000   Number         0  QtCore{00040703}-312.o ABSOLUTE
    [Anonymous Symbol]                       0x00000000   Number         0  QtContacts{00010103}-619.o ABSOLUTE
    [Anonymous Symbol]                       0x00000000   Number         0  QtContacts{00010103}-446.o ABSOLUTE
    [Anonymous Symbol]                       0x00000000   Number         0  QtCore{00040703}-3163.o ABSOLUTE
    [Anonymous Symbol]                       0x00000000   Number         0  QtContacts{00010103}-62.o ABSOLUTE
    [Anonymous Symbol]                       0x00000000   Number         0  QtContacts{00010103}-447.o ABSOLUTE
    [Anonymous Symbol]                       0x00000000   Number         0  QtCore{00040703}-32.o ABSOLUTE
    [Anonymous Symbol]                       0x00000000   Number         0  QtContacts{00010103}-620.o ABSOLUTE
    [Anonymous Symbol]                       0x00000000   Number         0  QtContacts{00010103}-448.o ABSOLUTE
    [Anonymous Symbol]                       0x00000000   Number         0  QtCore{00040703}-324.o ABSOLUTE
    [Anonymous Symbol]                       0x00000000   Number         0  QtContacts{00010103}-621.o ABSOLUTE
    [Anonymous Symbol]                       0x00000000   Number         0  QtContacts{00010103}-449.o ABSOLUTE
    [Anonymous Symbol]                       0x00000000   Number         0  QtCore{00040703}-331.o ABSOLUTE
    [Anonymous Symbol]                       0x00000000   Number         0  QtContacts{00010103}-624.o ABSOLUTE
    [Anonymous Symbol]                       0x00000000   Number         0  QtContacts{00010103}-450.o ABSOLUTE
    [Anonymous Symbol]                       0x00000000   Number         0  QtCore{00040703}-332.o ABSOLUTE
    [Anonymous Symbol]                       0x00000000   Number         0  QtContacts{00010103}-627.o ABSOLUTE
    [Anonymous Symbol]                       0x00000000   Number         0  QtContacts{00010103}-453.o ABSOLUTE
    [Anonymous Symbol]                       0x00000000   Number         0  QtCore{00040703}-335.o ABSOLUTE
    [Anonymous Symbol]                       0x00000000   Number         0  QtContacts{00010103}-629.o ABSOLUTE
    [Anonymous Symbol]                       0x00000000   Number         0  QtContacts{00010103}-455.o ABSOLUTE
    [Anonymous Symbol]                       0x00000000   Number         0  QtCore{00040703}-3607.o ABSOLUTE
    [Anonymous Symbol]                       0x00000000   Number         0  QtContacts{00010103}-634.o ABSOLUTE
    [Anonymous Symbol]                       0x00000000   Number         0  QtContacts{00010103}-48.o ABSOLUTE
    [Anonymous Symbol]                       0x00000000   Number         0  QtCore{00040703}-3608.o ABSOLUTE
    [Anonymous Symbol]                       0x00000000   Number         0  QtContacts{00010103}-635.o ABSOLUTE
    [Anonymous Symbol]                       0x00000000   Number         0  QtContacts{00010103}-50.o ABSOLUTE
    [Anonymous Symbol]                       0x00000000   Number         0  QtCore{00040703}-3689.o ABSOLUTE
    [Anonymous Symbol]                       0x00000000   Number         0  QtContacts{00010103}-636.o ABSOLUTE
    [Anonymous Symbol]                       0x00000000   Number         0  QtContacts{00010103}-512.o ABSOLUTE
    [Anonymous Symbol]                       0x00000000   Number         0  QtCore{00040703}-3691.o ABSOLUTE
    [Anonymous Symbol]                       0x00000000   Number         0  QtContacts{00010103}-638.o ABSOLUTE
    [Anonymous Symbol]                       0x00000000   Number         0  QtContacts{00010103}-513.o ABSOLUTE
    [Anonymous Symbol]                       0x00000000   Number         0  QtCore{00040703}-70.o ABSOLUTE
    [Anonymous Symbol]                       0x00000000   Number         0  QtContacts{00010103}-641.o ABSOLUTE
    [Anonymous Symbol]                       0x00000000   Number         0  QtContacts{00010103}-515.o ABSOLUTE
    [Anonymous Symbol]                       0x00000000   Number         0  libc{00010000}-350.o ABSOLUTE
    [Anonymous Symbol]                       0x00000000   Number         0  QtContacts{00010103}-657.o ABSOLUTE
    [Anonymous Symbol]                       0x00000000   Number         0  QtContacts{00010103}-516.o ABSOLUTE
    [Anonymous Symbol]                       0x00000000   Number         0  euser{000a0000}-1088.o ABSOLUTE
    [Anonymous Symbol]                       0x00000000   Number         0  QtContacts{00010103}-658.o ABSOLUTE
    [Anonymous Symbol]                       0x00000000   Number         0  QtContacts{00010103}-518.o ABSOLUTE
    [Anonymous Symbol]                       0x00000000   Number         0  euser{000a0000}-1089.o ABSOLUTE
    [Anonymous Symbol]                       0x00000000   Number         0  QtContacts{00010103}-659.o ABSOLUTE
    [Anonymous Symbol]                       0x00000000   Number         0  euser{000a0000}-881.o ABSOLUTE
    [Anonymous Symbol]                       0x00000000   Number         0  euser{000a0000}-1090.o ABSOLUTE
    [Anonymous Symbol]                       0x00000000   Number         0  QtContacts{00010103}-660.o ABSOLUTE
    [Anonymous Symbol]                       0x00000000   Number         0  euser{000a0000}-885.o ABSOLUTE
    [Anonymous Symbol]                       0x00000000   Number         0  euser{000a0000}-1091.o ABSOLUTE
    [Anonymous Symbol]                       0x00000000   Number         0  QtContacts{00010103}-681.o ABSOLUTE
    [Anonymous Symbol]                       0x00000000   Number         0  euser{000a0000}-886.o ABSOLUTE
    [Anonymous Symbol]                       0x00000000   Number         0  euser{000a0000}-1094.o ABSOLUTE
    [Anonymous Symbol]                       0x00000000   Number         0  QtContacts{00010103}-683.o ABSOLUTE
    [Anonymous Symbol]                       0x00000000   Number         0  euser{000a0000}-887.o ABSOLUTE
    [Anonymous Symbol]                       0x00000000   Number         0  euser{000a0000}-1169.o ABSOLUTE
    [Anonymous Symbol]                       0x00000000   Number         0  QtContacts{00010103}-692.o ABSOLUTE
    [Anonymous Symbol]                       0x00000000   Number         0  euser{000a0000}-890.o ABSOLUTE
    [Anonymous Symbol]                       0x00000000   Number         0  euser{000a0000}-1171.o ABSOLUTE
    [Anonymous Symbol]                       0x00000000   Number         0  QtContacts{00010103}-694.o ABSOLUTE
    [Anonymous Symbol]                       0x00000000   Number         0  euser{000a0000}-953.o ABSOLUTE
    [Anonymous Symbol]                       0x00000000   Number         0  euser{000a0000}-1172.o ABSOLUTE
    [Anonymous Symbol]                       0x00000000   Number         0  QtContacts{00010103}-696.o ABSOLUTE
    [Anonymous Symbol]                       0x00000000   Number         0  euser{000a0000}-972.o ABSOLUTE
    [Anonymous Symbol]                       0x00000000   Number         0  euser{000a0000}-120.o ABSOLUTE
    [Anonymous Symbol]                       0x00000000   Number         0  QtContacts{00010103}-698.o ABSOLUTE
    [Anonymous Symbol]                       0x00000000   Number         0  etelmm{000a0000}-586.o ABSOLUTE
    [Anonymous Symbol]                       0x00000000   Number         0  euser{000a0000}-1622.o ABSOLUTE
    [Anonymous Symbol]                       0x00000000   Number         0  QtContacts{00010103}-7.o ABSOLUTE
    [Anonymous Symbol]                       0x00000000   Number         0  etelmm{000a0000}-624.o ABSOLUTE
    [Anonymous Symbol]                       0x00000000   Number         0  euser{000a0000}-1806.o ABSOLUTE
    [Anonymous Symbol]                       0x00000000   Number         0  QtContacts{00010103}-701.o ABSOLUTE
    [Anonymous Symbol]                       0x00000000   Number         0  etelmm{000a0000}-625.o ABSOLUTE
    [Anonymous Symbol]                       0x00000000   Number         0  euser{000a0000}-1807.o ABSOLUTE
    [Anonymous Symbol]                       0x00000000   Number         0  QtContacts{00010103}-74.o ABSOLUTE
    [Anonymous Symbol]                       0x00000000   Number         0  etelmm{000a0000}-789.o ABSOLUTE
    [Anonymous Symbol]                       0x00000000   Number         0  euser{000a0000}-1816.o ABSOLUTE
    [Anonymous Symbol]                       0x00000000   Number         0  QtContacts{00010103}-76.o ABSOLUTE
    [Anonymous Symbol]                       0x00000000   Number         0  centralrepository{000a0000}-14.o ABSOLUTE
    [Anonymous Symbol]                       0x00000000   Number         0  euser{000a0000}-1822.o ABSOLUTE
    [Anonymous Symbol]                       0x00000000   Number         0  QtContacts{00010103}-764.o ABSOLUTE
    [Anonymous Symbol]                       0x00000000   Number         0  centralrepository{000a0000}-9.o ABSOLUTE
    [Anonymous Symbol]                       0x00000000   Number         0  euser{000a0000}-202.o ABSOLUTE
    [Anonymous Symbol]                       0x00000000   Number         0  QtContacts{00010103}-784.o ABSOLUTE
    [Anonymous Symbol]                       0x00000000   Number         0  QtContacts{00010103}-1.o ABSOLUTE
    [Anonymous Symbol]                       0x00000000   Number         0  euser{000a0000}-2025.o ABSOLUTE
    [Anonymous Symbol]                       0x00000000   Number         0  QtContacts{00010103}-799.o ABSOLUTE
    [Anonymous Symbol]                       0x00000000   Number         0  QtContacts{00010103}-147.o ABSOLUTE
    [Anonymous Symbol]                       0x00000000   Number         0  euser{000a0000}-203.o ABSOLUTE
    [Anonymous Symbol]                       0x00000000   Number         0  QtContacts{00010103}-833.o ABSOLUTE
    [Anonymous Symbol]                       0x00000000   Number         0  QtContacts{00010103}-148.o ABSOLUTE
    [Anonymous Symbol]                       0x00000000   Number         0  euser{000a0000}-2030.o ABSOLUTE
    [Anonymous Symbol]                       0x00000000   Number         0  libstdcpp{00010000}-988.o ABSOLUTE
    [Anonymous Symbol]                       0x00000000   Number         0  QtContacts{00010103}-150.o ABSOLUTE
    [Anonymous Symbol]                       0x00000000   Number         0  euser{000a0000}-2035.o ABSOLUTE
    [Anonymous Symbol]                       0x00000000   Number         0  libstdcpp{00010000}-992.o ABSOLUTE
    [Anonymous Symbol]                       0x00000000   Number         0  QtContacts{00010103}-154.o ABSOLUTE
    [Anonymous Symbol]                       0x00000000   Number         0  euser{000a0000}-2045.o ABSOLUTE
    [Anonymous Symbol]                       0x00000000   Number         0  QtCore{00040703}-104.o ABSOLUTE
    [Anonymous Symbol]                       0x00000000   Number         0  QtContacts{00010103}-155.o ABSOLUTE
    [Anonymous Symbol]                       0x00000000   Number         0  euser{000a0000}-205.o ABSOLUTE
    [Anonymous Symbol]                       0x00000000   Number         0  QtCore{00040703}-150.o ABSOLUTE
    [Anonymous Symbol]                       0x00000000   Number         0  QtContacts{00010103}-167.o ABSOLUTE
    [Anonymous Symbol]                       0x00000000   Number         0  euser{000a0000}-2053.o ABSOLUTE
    [Anonymous Symbol]                       0x00000000   Number         0  QtCore{00040703}-1560.o ABSOLUTE
    [Anonymous Symbol]                       0x00000000   Number         0  QtContacts{00010103}-170.o ABSOLUTE
    [Anonymous Symbol]                       0x00000000   Number         0  euser{000a0000}-2060.o ABSOLUTE
    [Anonymous Symbol]                       0x00000000   Number         0  QtCore{00040703}-1706.o ABSOLUTE
    [Anonymous Symbol]                       0x00000000   Number         0  QtContacts{00010103}-191.o ABSOLUTE
    [Anonymous Symbol]                       0x00000000   Number         0  euser{000a0000}-2061.o ABSOLUTE
    [Anonymous Symbol]                       0x00000000   Number         0  QtCore{00040703}-1714.o ABSOLUTE
    [Anonymous Symbol]                       0x00000000   Number         0  QtContacts{00010103}-2.o ABSOLUTE
    [Anonymous Symbol]                       0x00000000   Number         0  euser{000a0000}-208.o ABSOLUTE
    [Anonymous Symbol]                       0x00000000   Number         0  QtCore{00040703}-1717.o ABSOLUTE
    [Anonymous Symbol]                       0x00000000   Number         0  QtContacts{00010103}-240.o ABSOLUTE
    [Anonymous Symbol]                       0x00000000   Number         0  euser{000a0000}-2082.o ABSOLUTE
    [Anonymous Symbol]                       0x00000000   Number         0  QtCore{00040703}-175.o ABSOLUTE
    [Anonymous Symbol]                       0x00000000   Number         0  QtContacts{00010103}-243.o ABSOLUTE
    [Anonymous Symbol]                       0x00000000   Number         0  euser{000a0000}-2107.o ABSOLUTE
    [Anonymous Symbol]                       0x00000000   Number         0  QtCore{00040703}-1760.o ABSOLUTE
    [Anonymous Symbol]                       0x00000000   Number         0  QtContacts{00010103}-257.o ABSOLUTE
    [Anonymous Symbol]                       0x00000000   Number         0  euser{000a0000}-2128.o ABSOLUTE
    [Anonymous Symbol]                       0x00000000   Number         0  QtCore{00040703}-1761.o ABSOLUTE
    [Anonymous Symbol]                       0x00000000   Number         0  QtContacts{00010103}-267.o ABSOLUTE
    [Anonymous Symbol]                       0x00000000   Number         0  euser{000a0000}-424.o ABSOLUTE
    [Anonymous Symbol]                       0x00000000   Number         0  QtCore{00040703}-1763.o ABSOLUTE
    [Anonymous Symbol]                       0x00000000   Number         0  QtContacts{00010103}-270.o ABSOLUTE
    [Anonymous Symbol]                       0x00000000   Number         0  euser{000a0000}-505.o ABSOLUTE
    [Anonymous Symbol]                       0x00000000   Number         0  QtCore{00040703}-1764.o ABSOLUTE
    [Anonymous Symbol]                       0x00000000   Number         0  QtContacts{00010103}-273.o ABSOLUTE
    [Anonymous Symbol]                       0x00000000   Number         0  euser{000a0000}-507.o ABSOLUTE
    [Anonymous Symbol]                       0x00000000   Number         0  QtCore{00040703}-1765.o ABSOLUTE
    [Anonymous Symbol]                       0x00000000   Number         0  QtContacts{00010103}-274.o ABSOLUTE
    [Anonymous Symbol]                       0x00000000   Number         0  euser{000a0000}-508.o ABSOLUTE
    [Anonymous Symbol]                       0x00000000   Number         0  QtCore{00040703}-1766.o ABSOLUTE
    [Anonymous Symbol]                       0x00000000   Number         0  QtContacts{00010103}-304.o ABSOLUTE
    [Anonymous Symbol]                       0x00000000   Number         0  euser{000a0000}-593.o ABSOLUTE
    [Anonymous Symbol]                       0x00000000   Number         0  QtCore{00040703}-1767.o ABSOLUTE
    [Anonymous Symbol]                       0x00000000   Number         0  QtContacts{00010103}-305.o ABSOLUTE
    [Anonymous Symbol]                       0x00000000   Number         0  euser{000a0000}-604.o ABSOLUTE
    [Anonymous Symbol]                       0x00000000   Number         0  QtCore{00040703}-1768.o ABSOLUTE
    [Anonymous Symbol]                       0x00000000   Number         0  QtContacts{00010103}-306.o ABSOLUTE
    [Anonymous Symbol]                       0x00000000   Number         0  euser{000a0000}-649.o ABSOLUTE
    [Anonymous Symbol]                       0x00000000   Number         0  QtCore{00040703}-1773.o ABSOLUTE
    [Anonymous Symbol]                       0x00000000   Number         0  QtContacts{00010103}-309.o ABSOLUTE
    [Anonymous Symbol]                       0x00000000   Number         0  euser{000a0000}-654.o ABSOLUTE
    [Anonymous Symbol]                       0x00000000   Number         0  QtCore{00040703}-1777.o ABSOLUTE
    [Anonymous Symbol]                       0x00000000   Number         0  QtContacts{00010103}-311.o ABSOLUTE
    [Anonymous Symbol]                       0x00000000   Number         0  euser{000a0000}-669.o ABSOLUTE
    [Anonymous Symbol]                       0x00000000   Number         0  QtCore{00040703}-1784.o ABSOLUTE
    [Anonymous Symbol]                       0x00000000   Number         0  QtContacts{00010103}-312.o ABSOLUTE
    [Anonymous Symbol]                       0x00000000   Number         0  euser{000a0000}-670.o ABSOLUTE
    [Anonymous Symbol]                       0x00000000   Number         0  QtCore{00040703}-1785.o ABSOLUTE
    [Anonymous Symbol]                       0x00000000   Number         0  QtContacts{00010103}-313.o ABSOLUTE
    [Anonymous Symbol]                       0x00000000   Number         0  euser{000a0000}-671.o ABSOLUTE
    [Anonymous Symbol]                       0x00000000   Number         0  QtCore{00040703}-1789.o ABSOLUTE
    [Anonymous Symbol]                       0x00000000   Number         0  QtContacts{00010103}-319.o ABSOLUTE
    [Anonymous Symbol]                       0x00000000   Number         0  euser{000a0000}-752.o ABSOLUTE
    [Anonymous Symbol]                       0x00000000   Number         0  QtCore{00040703}-179.o ABSOLUTE
    [Anonymous Symbol]                       0x00000000   Number         0  QtContacts{00010103}-326.o ABSOLUTE
    [Anonymous Symbol]                       0x00000000   Number         0  euser{000a0000}-81.o ABSOLUTE
    [Anonymous Symbol]                       0x00000000   Number         0  QtCore{00040703}-1794.o ABSOLUTE
    [Anonymous Symbol]                       0x00000000   Number         0  QtContacts{00010103}-327.o ABSOLUTE
    [Anonymous Symbol]                       0x00000000   Number         0  euser{000a0000}-816.o ABSOLUTE
    [Anonymous Symbol]                       0x00000000   Number         0  QtCore{00040703}-1814.o ABSOLUTE
    [Anonymous Symbol]                       0x00000000   Number         0  QtContacts{00010103}-329.o ABSOLUTE
    [Anonymous Symbol]                       0x00000000   Number         0  drtaeabi{000a0000}-184.o ABSOLUTE
    [Anonymous Symbol]                       0x00000000   Number         0  etelmm{000a0000}-179.o ABSOLUTE
    [Anonymous Symbol]                       0x00000000   Number         0  drtaeabi{000a0000}-190.o ABSOLUTE
    [Anonymous Symbol]                       0x00000000   Number         0  drtaeabi{000a0000}-186.o ABSOLUTE
    [Anonymous Symbol]                       0x00000000   Number         0  etelmm{000a0000}-260.o ABSOLUTE
    [Anonymous Symbol]                       0x00000000   Number         0  drtrvct2_2{000a0000}-28.o ABSOLUTE
    [Anonymous Symbol]                       0x00000000   Number         0  drtaeabi{000a0000}-187.o ABSOLUTE
    [Anonymous Symbol]                       0x00000000   Number         0  etelmm{000a0000}-262.o ABSOLUTE
    [Anonymous Symbol]                       0x00000000   Number         0  etelmm{000a0000}-170.o ABSOLUTE
    [Anonymous Symbol]                       0x00000000   Number         0  drtaeabi{000a0000}-188.o ABSOLUTE
    [Anonymous Symbol]                       0x00000000   Number         0  etelmm{000a0000}-263.o ABSOLUTE
    [Anonymous Symbol]                       0x00000000   Number         0  etelmm{000a0000}-171.o ABSOLUTE
    [Anonymous Symbol]                       0x00000000   Number         0  drtaeabi{000a0000}-189.o ABSOLUTE
    [Anonymous Symbol]                       0x00000000   Number         0  etelmm{000a0000}-582.o ABSOLUTE
    [Anonymous Symbol]                       0x00000000   Number         0  etelmm{000a0000}-173.o ABSOLUTE
    [Anonymous Symbol]                       0x00000000   Number         0  drtaeabi{000a0000}-147.o ABSOLUTE
    [Anonymous Symbol]                       0x00000000   Number         0  etelmm{000a0000}-583.o ABSOLUTE
    [Anonymous Symbol]                       0x00000000   Number         0  etelmm{000a0000}-174.o ABSOLUTE
    [Anonymous Symbol]                       0x00000000   Number         0  drtaeabi{000a0000}-158.o ABSOLUTE
    [Anonymous Symbol]                       0x00000000   Number         0  etelmm{000a0000}-585.o ABSOLUTE
    [Anonymous Symbol]                       0x00000000   Number         0  etelmm{000a0000}-176.o ABSOLUTE
    [Anonymous Symbol]                       0x00000000   Number         0  drtaeabi{000a0000}-180.o ABSOLUTE
    [Anonymous Symbol]                       0x00000000   Number         0  etel{000a0000}-183.o ABSOLUTE
    [Anonymous Symbol]                       0x00000000   Number         0  etelmm{000a0000}-177.o ABSOLUTE
    [Anonymous Symbol]                       0x00000000   Number         0  drtaeabi{000a0000}-183.o ABSOLUTE
    [Anonymous Symbol]                       0x00000000   Number         0  etel{000a0000}-29.o ABSOLUTE
    [Anonymous Symbol]                       0x00000000   Number         0  etelmm{000a0000}-178.o ABSOLUTE
    [Anonymous Symbol]                       0x00000000   Number         0  etelmm{000a0000}-138.o ABSOLUTE
    [Anonymous Symbol]                       0x00000000   Number         0  etelmm{000a0000}-168.o ABSOLUTE
    [Anonymous Symbol]                       0x00000000   Number         0  etelmm{000a0000}-164.o ABSOLUTE
    [Anonymous Symbol]                       0x00000000   Number         0  etelmm{000a0000}-139.o ABSOLUTE
    [Anonymous Symbol]                       0x00000000   Number         0  etelmm{000a0000}-134.o ABSOLUTE
    [Anonymous Symbol]                       0x00000000   Number         0  etelmm{000a0000}-161.o ABSOLUTE
    [Anonymous Symbol]                       0x00000000   Number         0  etelmm{000a0000}-140.o ABSOLUTE
    [Anonymous Symbol]                       0x00000000   Number         0  etelmm{000a0000}-136.o ABSOLUTE
    [Anonymous Symbol]                       0x00000000   Number         0  etelmm{000a0000}-162.o ABSOLUTE
    [Anonymous Symbol]                       0x00000000   Number         0  etel{000a0000}-114.o ABSOLUTE
    [Anonymous Symbol]                       0x00000000   Number         0  etel{000a0000}-113.o ABSOLUTE
    [Anonymous Symbol]                       0x00000000   Number         0  etel{000a0000}-30.o ABSOLUTE
    [Anonymous Symbol]                       0x00000000   Number         0  etel{000a0000}-166.o ABSOLUTE
    [Anonymous Symbol]                       0x00000000   Number         0  etelmm{000a0000}-124.o ABSOLUTE
    [Anonymous Symbol]                       0x00000000   Number         0  etel{000a0000}-168.o ABSOLUTE
    ..\..\..\..\EPOC32\BUILD\s60\osext\mobileruntime\group\LIBSTDCPP\ARMV5\VtblExports.s 0x00000000   Number         0  VtblExports.o ABSOLUTE
    \EPOC32\BUILD\src\cedar\generic\base\e32\compsupp\DRTAEABI\ARMV5\VtblExports.s 0x00000000   Number         0  VtblExports.o ABSOLUTE
    \EPOC32\BUILD\src\cedar\generic\base\e32\euser\EDLL\ARMV5\urel\uc_dll_.cpp 0x00000000   Number         0  uc_dll_.o ABSOLUTE
    \EPOC32\BUILD\src\cedar\generic\base\e32\euser\EUSER\ARMV5\VtblExports.s 0x00000000   Number         0  VtblExports.o ABSOLUTE
    \EPOC32\BUILD\src\cedar\generic\base\f32\group\EFSRV\ARMV5\VtblExports.s 0x00000000   Number         0  VtblExports.o ABSOLUTE
    \EPOC32\BUILD\src\common\generic\app-engines\cntmodel\group\CNTMODEL\ARMV5\VtblExports.s 0x00000000   Number         0  VtblExports.o ABSOLUTE
    \EPOC32\BUILD\src\common\generic\comms-infras\flogger\group\FLOGGER\ARMV5\VtblExports.s 0x00000000   Number         0  VtblExports.o ABSOLUTE
    \EPOC32\BUILD\src\common\generic\syslibs\centralrepository\group\CENREPCLI\ARMV5\VtblExports.s 0x00000000   Number         0  VtblExports.o ABSOLUTE
    \EPOC32\BUILD\src\common\generic\telephony\etel\group\ETEL\ARMV5\VtblExports.s 0x00000000   Number         0  VtblExports.o ABSOLUTE
    \EPOC32\BUILD\src\common\generic\telephony\etelmm\group\ETELMM\ARMV5\VtblExports.s 0x00000000   Number         0  VtblExports.o ABSOLUTE
    \EPOC32\BUILD\wk29\stdlibs\group\LIBC\ARMV5\VtblExports.s 0x00000000   Number         0  VtblExports.o ABSOLUTE
    \EPOC32\BUILD\wk29\stdlibs\group\LIBDL\ARMV5\VtblExports.s 0x00000000   Number         0  VtblExports.o ABSOLUTE
    \EPOC32\BUILD\wk29\stdlibs\group\LIBM\ARMV5\VtblExports.s 0x00000000   Number         0  VtblExports.o ABSOLUTE
    \EPOC32\BUILD\wk29\stdlibs\group\LIBPTHREAD\ARMV5\VtblExports.s 0x00000000   Number         0  VtblExports.o ABSOLUTE
    \\EPOC32\\BUILD\\src\\cedar\\generic\\base\\e32\\euser\\EDLL\\ARMV5\\urel\\uc_dll_.cpp 0x00000000   Number         0  uc_dll_.o ABSOLUTE
    \\src\\cedar\\generic\\base\\e32\\compsupp\\RVCT2_2\\ucppinit_aeabi.cpp 0x00000000   Number         0  ucppinit_aeabi.o ABSOLUTE
    \dev\symb\SDKs\32\EPOC32\BUILD\iwmake\buildS60____PADDING________\src\QTCORE_DLL\ARMV6\VtblExports.s 0x00000000   Number         0  VtblExports.o ABSOLUTE
    \dev\symb\SDKs\32\EPOC32\BUILD\iwmake\buildS60____PADDING________\src\QTGUI_DLL\ARMV6\VtblExports.s 0x00000000   Number         0  VtblExports.o ABSOLUTE
    \s60\5.0\EPOC32\BUILD\scripts\5.0\qtmobility\QTCONTACTS_DLL\ARMV5\VtblExports.s 0x00000000   Number         0  VtblExports.o ABSOLUTE
    \s60\5.0\EPOC32\BUILD\scripts\5.0\qtmobility\QTCONTACTS_SYMBIANSIM_DLL\ARMV5\urel\qtcontacts_symbiansim{000a0000}.s 0x00000000   Number         0  qtcontacts_symbiansim{000a0000}.exp ABSOLUTE
    \scripts\5.0\qtmobility\build\Release\qtcontacts_symbiansim\moc\moc_cntabstractsimrequest.cpp 0x00000000   Number         0  qtcontacts_symbiansim.in ABSOLUTE
    \scripts\5.0\qtmobility\build\Release\qtcontacts_symbiansim\moc\moc_cntsimcontactfetchrequest.cpp 0x00000000   Number         0  qtcontacts_symbiansim.in ABSOLUTE
    \scripts\5.0\qtmobility\build\Release\qtcontacts_symbiansim\moc\moc_cntsimcontactlocalidfetchrequest.cpp 0x00000000   Number         0  qtcontacts_symbiansim.in ABSOLUTE
    \scripts\5.0\qtmobility\build\Release\qtcontacts_symbiansim\moc\moc_cntsimcontactremoverequest.cpp 0x00000000   Number         0  qtcontacts_symbiansim.in ABSOLUTE
    \scripts\5.0\qtmobility\build\Release\qtcontacts_symbiansim\moc\moc_cntsimcontactsaverequest.cpp 0x00000000   Number         0  qtcontacts_symbiansim.in ABSOLUTE
    \scripts\5.0\qtmobility\build\Release\qtcontacts_symbiansim\moc\moc_cntsimdetaildefinitionfetchrequest.cpp 0x00000000   Number         0  qtcontacts_symbiansim.in ABSOLUTE
    \scripts\5.0\qtmobility\build\Release\qtcontacts_symbiansim\moc\moc_cntsimstore.cpp 0x00000000   Number         0  qtcontacts_symbiansim.in ABSOLUTE
    \scripts\5.0\qtmobility\build\Release\qtcontacts_symbiansim\moc\moc_cntsymbiansimengine.cpp 0x00000000   Number         0  qtcontacts_symbiansim.in ABSOLUTE
    \scripts\5.0\qtmobility\plugins\contacts\symbiansim\src\cntabstractsimrequest.cpp 0x00000000   Number         0  qtcontacts_symbiansim.in ABSOLUTE
    \scripts\5.0\qtmobility\plugins\contacts\symbiansim\src\cntsimcontactfetchrequest.cpp 0x00000000   Number         0  qtcontacts_symbiansim.in ABSOLUTE
    \scripts\5.0\qtmobility\plugins\contacts\symbiansim\src\cntsimcontactlocalidfetchrequest.cpp 0x00000000   Number         0  qtcontacts_symbiansim.in ABSOLUTE
    \scripts\5.0\qtmobility\plugins\contacts\symbiansim\src\cntsimcontactremoverequest.cpp 0x00000000   Number         0  qtcontacts_symbiansim.in ABSOLUTE
    \scripts\5.0\qtmobility\plugins\contacts\symbiansim\src\cntsimcontactsaverequest.cpp 0x00000000   Number         0  qtcontacts_symbiansim.in ABSOLUTE
    \scripts\5.0\qtmobility\plugins\contacts\symbiansim\src\cntsimdetaildefinitionfetchrequest.cpp 0x00000000   Number         0  qtcontacts_symbiansim.in ABSOLUTE
    \scripts\5.0\qtmobility\plugins\contacts\symbiansim\src\cntsimstore.cpp 0x00000000   Number         0  qtcontacts_symbiansim.in ABSOLUTE
    \scripts\5.0\qtmobility\plugins\contacts\symbiansim\src\cntsimstoreeventlistener.cpp 0x00000000   Number         0  qtcontacts_symbiansim.in ABSOLUTE
    \scripts\5.0\qtmobility\plugins\contacts\symbiansim\src\cntsimstoreprivate.cpp 0x00000000   Number         0  qtcontacts_symbiansim.in ABSOLUTE
    \scripts\5.0\qtmobility\plugins\contacts\symbiansim\src\cntsymbiansimengine.cpp 0x00000000   Number         0  qtcontacts_symbiansim.in ABSOLUTE
    \scripts\5.0\qtmobility\plugins\contacts\symbiansim\src\cntsymbiansimtransformerror.cpp 0x00000000   Number         0  qtcontacts_symbiansim.in ABSOLUTE
    \src\cedar\generic\base\e32\compsupp\RVCT2_2\ucppfini.cpp 0x00000000   Number         0  ucppfini.o ABSOLUTE
    \src\cedar\generic\base\e32\compsupp\RVCT2_2\ucppinit_aeabi.cpp 0x00000000   Number         0  ucppinit_aeabi.o ABSOLUTE
    \src\cedar\generic\base\e32\euser\epoc\arm\uc_dll.cpp 0x00000000   Number         0  uc_dll.o ABSOLUTE
    .emb_text                                0x00008000   Section       40  uc_dll_.o(.emb_text)
    .emb_text                                0x00008028   Section       72  ucppinit_aeabi.o(.emb_text)
    skip                                     0x0000803c   ARM Code       0  ucppinit_aeabi.o(.emb_text)
    loop                                     0x0000804c   ARM Code       0  ucppinit_aeabi.o(.emb_text)
    fpinit                                   0x00008064   Data           0  ucppinit_aeabi.o(.emb_text)
    base                                     0x00008068   Data           0  ucppinit_aeabi.o(.emb_text)
    limit                                    0x0000806c   Data           0  ucppinit_aeabi.o(.emb_text)
    .text                                    0x00008070   Section      252  qtcontacts_symbiansim.in(.text)
    .text                                    0x0000816c   Section      400  qtcontacts_symbiansim.in(.text)
    .text                                    0x000082fc   Section      120  qtcontacts_symbiansim.in(.text)
    .text                                    0x00008374   Section      164  qtcontacts_symbiansim.in(.text)
    .text                                    0x00008418   Section      164  qtcontacts_symbiansim.in(.text)
    .text                                    0x000084bc   Section      200  qtcontacts_symbiansim.in(.text)
    .text                                    0x00008584   Section      144  qtcontacts_symbiansim.in(.text)
    .text                                    0x00008614   Section       96  qtcontacts_symbiansim.in(.text)
    .text                                    0x00008674   Section     5532  qtcontacts_symbiansim.in(.text)
    |L1.2184|                                0x00008efc   Data           0  qtcontacts_symbiansim.in(.text)
    .text                                    0x00009c10   Section      120  qtcontacts_symbiansim.in(.text)
    .text                                    0x00009c88   Section      404  qtcontacts_symbiansim.in(.text)
    .text                                    0x00009e1c   Section     5924  qtcontacts_symbiansim.in(.text)
    .text                                    0x0000b540   Section      340  qtcontacts_symbiansim.in(.text)
    .text                                    0x0000b694   Section      300  qtcontacts_symbiansim.in(.text)
    .text                                    0x0000b7c0   Section      656  qtcontacts_symbiansim.in(.text)
    .text                                    0x0000ba50   Section      616  qtcontacts_symbiansim.in(.text)
    .text                                    0x0000bcb8   Section     1012  qtcontacts_symbiansim.in(.text)
    .text                                    0x0000c0ac   Section      756  qtcontacts_symbiansim.in(.text)
    .text                                    0x0000c3a0   Section      492  qtcontacts_symbiansim.in(.text)
    .text                                    0x0000c58c   Section       40  uc_dll.o(.text)
    .text                                    0x0000c5b4   Section      148  ucppfini.o(.text)
    .text.clean                              0x0000c648   Section       26  qtcontacts_symbiansim.in(.text.clean)
    .text.clean                              0x0000c662   Section       10  qtcontacts_symbiansim.in(.text.clean)
    .text.clean                              0x0000c66c   Section       10  qtcontacts_symbiansim.in(.text.clean)
    .text.clean                              0x0000c676   Section       10  qtcontacts_symbiansim.in(.text.clean)
    .text.clean                              0x0000c680   Section       10  qtcontacts_symbiansim.in(.text.clean)
    .text.clean                              0x0000c68c   Section      536  qtcontacts_symbiansim.in(.text.clean)
    .text.clean                              0x0000c8a4   Section       24  qtcontacts_symbiansim.in(.text.clean)
    .text.clean                              0x0000c8bc   Section      714  qtcontacts_symbiansim.in(.text.clean)
    .text.clean                              0x0000cb86   Section       46  qtcontacts_symbiansim.in(.text.clean)
    .text.clean                              0x0000cbb4   Section       10  qtcontacts_symbiansim.in(.text.clean)
    .text.clean                              0x0000cbbe   Section       88  qtcontacts_symbiansim.in(.text.clean)
    .text.clean                              0x0000cc16   Section       68  qtcontacts_symbiansim.in(.text.clean)
    .text.clean                              0x0000cc5a   Section      120  qtcontacts_symbiansim.in(.text.clean)
    .text.clean                              0x0000ccd2   Section      102  qtcontacts_symbiansim.in(.text.clean)
    .text.clean                              0x0000cd38   Section       58  qtcontacts_symbiansim.in(.text.clean)
    ExportTable                              0x0000cd74   Section       16  qtcontacts_symbiansim{000a0000}.exp(ExportTable)
    StubCode                                 0x0000cd84   Section        8  etel{000a0000}-113.o(StubCode)
    theImportedSymbol                        0x0000cd88   Data           0  etel{000a0000}-113.o(StubCode)
    StubCode                                 0x0000cd8c   Section        8  etel{000a0000}-114.o(StubCode)
    theImportedSymbol                        0x0000cd90   Data           0  etel{000a0000}-114.o(StubCode)
    StubCode                                 0x0000cd94   Section        8  etel{000a0000}-166.o(StubCode)
    theImportedSymbol                        0x0000cd98   Data           0  etel{000a0000}-166.o(StubCode)
    StubCode                                 0x0000cd9c   Section        8  etel{000a0000}-168.o(StubCode)
    theImportedSymbol                        0x0000cda0   Data           0  etel{000a0000}-168.o(StubCode)
    StubCode                                 0x0000cda4   Section        8  etel{000a0000}-183.o(StubCode)
    theImportedSymbol                        0x0000cda8   Data           0  etel{000a0000}-183.o(StubCode)
    StubCode                                 0x0000cdac   Section        8  etel{000a0000}-29.o(StubCode)
    theImportedSymbol                        0x0000cdb0   Data           0  etel{000a0000}-29.o(StubCode)
    StubCode                                 0x0000cdb4   Section        8  etel{000a0000}-30.o(StubCode)
    theImportedSymbol                        0x0000cdb8   Data           0  etel{000a0000}-30.o(StubCode)
    StubCode                                 0x0000cdbc   Section        8  etelmm{000a0000}-124.o(StubCode)
    theImportedSymbol                        0x0000cdc0   Data           0  etelmm{000a0000}-124.o(StubCode)
    StubCode                                 0x0000cdc4   Section        8  etelmm{000a0000}-134.o(StubCode)
    theImportedSymbol                        0x0000cdc8   Data           0  etelmm{000a0000}-134.o(StubCode)
    StubCode                                 0x0000cdcc   Section        8  etelmm{000a0000}-136.o(StubCode)
    theImportedSymbol                        0x0000cdd0   Data           0  etelmm{000a0000}-136.o(StubCode)
    StubCode                                 0x0000cdd4   Section        8  etelmm{000a0000}-138.o(StubCode)
    theImportedSymbol                        0x0000cdd8   Data           0  etelmm{000a0000}-138.o(StubCode)
    StubCode                                 0x0000cddc   Section        8  etelmm{000a0000}-139.o(StubCode)
    theImportedSymbol                        0x0000cde0   Data           0  etelmm{000a0000}-139.o(StubCode)
    StubCode                                 0x0000cde4   Section        8  etelmm{000a0000}-140.o(StubCode)
    theImportedSymbol                        0x0000cde8   Data           0  etelmm{000a0000}-140.o(StubCode)
    StubCode                                 0x0000cdec   Section        8  etelmm{000a0000}-161.o(StubCode)
    theImportedSymbol                        0x0000cdf0   Data           0  etelmm{000a0000}-161.o(StubCode)
    StubCode                                 0x0000cdf4   Section        8  etelmm{000a0000}-162.o(StubCode)
    theImportedSymbol                        0x0000cdf8   Data           0  etelmm{000a0000}-162.o(StubCode)
    StubCode                                 0x0000cdfc   Section        8  etelmm{000a0000}-164.o(StubCode)
    theImportedSymbol                        0x0000ce00   Data           0  etelmm{000a0000}-164.o(StubCode)
    StubCode                                 0x0000ce04   Section        8  etelmm{000a0000}-168.o(StubCode)
    theImportedSymbol                        0x0000ce08   Data           0  etelmm{000a0000}-168.o(StubCode)
    StubCode                                 0x0000ce0c   Section        8  etelmm{000a0000}-170.o(StubCode)
    theImportedSymbol                        0x0000ce10   Data           0  etelmm{000a0000}-170.o(StubCode)
    StubCode                                 0x0000ce14   Section        8  etelmm{000a0000}-171.o(StubCode)
    theImportedSymbol                        0x0000ce18   Data           0  etelmm{000a0000}-171.o(StubCode)
    StubCode                                 0x0000ce1c   Section        8  etelmm{000a0000}-173.o(StubCode)
    theImportedSymbol                        0x0000ce20   Data           0  etelmm{000a0000}-173.o(StubCode)
    StubCode                                 0x0000ce24   Section        8  etelmm{000a0000}-174.o(StubCode)
    theImportedSymbol                        0x0000ce28   Data           0  etelmm{000a0000}-174.o(StubCode)
    StubCode                                 0x0000ce2c   Section        8  etelmm{000a0000}-176.o(StubCode)
    theImportedSymbol                        0x0000ce30   Data           0  etelmm{000a0000}-176.o(StubCode)
    StubCode                                 0x0000ce34   Section        8  etelmm{000a0000}-177.o(StubCode)
    theImportedSymbol                        0x0000ce38   Data           0  etelmm{000a0000}-177.o(StubCode)
    StubCode                                 0x0000ce3c   Section        8  etelmm{000a0000}-178.o(StubCode)
    theImportedSymbol                        0x0000ce40   Data           0  etelmm{000a0000}-178.o(StubCode)
    StubCode                                 0x0000ce44   Section        8  etelmm{000a0000}-179.o(StubCode)
    theImportedSymbol                        0x0000ce48   Data           0  etelmm{000a0000}-179.o(StubCode)
    StubCode                                 0x0000ce4c   Section        8  etelmm{000a0000}-260.o(StubCode)
    theImportedSymbol                        0x0000ce50   Data           0  etelmm{000a0000}-260.o(StubCode)
    StubCode                                 0x0000ce54   Section        8  etelmm{000a0000}-262.o(StubCode)
    theImportedSymbol                        0x0000ce58   Data           0  etelmm{000a0000}-262.o(StubCode)
    StubCode                                 0x0000ce5c   Section        8  etelmm{000a0000}-263.o(StubCode)
    theImportedSymbol                        0x0000ce60   Data           0  etelmm{000a0000}-263.o(StubCode)
    StubCode                                 0x0000ce64   Section        8  etelmm{000a0000}-582.o(StubCode)
    theImportedSymbol                        0x0000ce68   Data           0  etelmm{000a0000}-582.o(StubCode)
    StubCode                                 0x0000ce6c   Section        8  etelmm{000a0000}-583.o(StubCode)
    theImportedSymbol                        0x0000ce70   Data           0  etelmm{000a0000}-583.o(StubCode)
    StubCode                                 0x0000ce74   Section        8  etelmm{000a0000}-585.o(StubCode)
    theImportedSymbol                        0x0000ce78   Data           0  etelmm{000a0000}-585.o(StubCode)
    StubCode                                 0x0000ce7c   Section        8  etelmm{000a0000}-586.o(StubCode)
    theImportedSymbol                        0x0000ce80   Data           0  etelmm{000a0000}-586.o(StubCode)
    StubCode                                 0x0000ce84   Section        8  etelmm{000a0000}-624.o(StubCode)
    theImportedSymbol                        0x0000ce88   Data           0  etelmm{000a0000}-624.o(StubCode)
    StubCode                                 0x0000ce8c   Section        8  etelmm{000a0000}-625.o(StubCode)
    theImportedSymbol                        0x0000ce90   Data           0  etelmm{000a0000}-625.o(StubCode)
    StubCode                                 0x0000ce94   Section        8  etelmm{000a0000}-789.o(StubCode)
    theImportedSymbol                        0x0000ce98   Data           0  etelmm{000a0000}-789.o(StubCode)
    StubCode                                 0x0000ce9c   Section        8  centralrepository{000a0000}-14.o(StubCode)
    theImportedSymbol                        0x0000cea0   Data           0  centralrepository{000a0000}-14.o(StubCode)
    StubCode                                 0x0000cea4   Section        8  centralrepository{000a0000}-9.o(StubCode)
    theImportedSymbol                        0x0000cea8   Data           0  centralrepository{000a0000}-9.o(StubCode)
    StubCode                                 0x0000ceac   Section        8  QtContacts{00010103}-1.o(StubCode)
    theImportedSymbol                        0x0000ceb0   Data           0  QtContacts{00010103}-1.o(StubCode)
    StubCode                                 0x0000ceb4   Section        8  QtContacts{00010103}-147.o(StubCode)
    theImportedSymbol                        0x0000ceb8   Data           0  QtContacts{00010103}-147.o(StubCode)
    StubCode                                 0x0000cebc   Section        8  QtContacts{00010103}-148.o(StubCode)
    theImportedSymbol                        0x0000cec0   Data           0  QtContacts{00010103}-148.o(StubCode)
    StubCode                                 0x0000cec4   Section        8  QtContacts{00010103}-150.o(StubCode)
    theImportedSymbol                        0x0000cec8   Data           0  QtContacts{00010103}-150.o(StubCode)
    StubCode                                 0x0000cecc   Section        8  QtContacts{00010103}-154.o(StubCode)
    theImportedSymbol                        0x0000ced0   Data           0  QtContacts{00010103}-154.o(StubCode)
    StubCode                                 0x0000ced4   Section        8  QtContacts{00010103}-155.o(StubCode)
    theImportedSymbol                        0x0000ced8   Data           0  QtContacts{00010103}-155.o(StubCode)
    StubCode                                 0x0000cedc   Section        8  QtContacts{00010103}-167.o(StubCode)
    theImportedSymbol                        0x0000cee0   Data           0  QtContacts{00010103}-167.o(StubCode)
    StubCode                                 0x0000cee4   Section        8  QtContacts{00010103}-170.o(StubCode)
    theImportedSymbol                        0x0000cee8   Data           0  QtContacts{00010103}-170.o(StubCode)
    StubCode                                 0x0000ceec   Section        8  QtContacts{00010103}-191.o(StubCode)
    theImportedSymbol                        0x0000cef0   Data           0  QtContacts{00010103}-191.o(StubCode)
    StubCode                                 0x0000cef4   Section        8  QtContacts{00010103}-2.o(StubCode)
    theImportedSymbol                        0x0000cef8   Data           0  QtContacts{00010103}-2.o(StubCode)
    StubCode                                 0x0000cefc   Section        8  QtContacts{00010103}-240.o(StubCode)
    theImportedSymbol                        0x0000cf00   Data           0  QtContacts{00010103}-240.o(StubCode)
    StubCode                                 0x0000cf04   Section        8  QtContacts{00010103}-243.o(StubCode)
    theImportedSymbol                        0x0000cf08   Data           0  QtContacts{00010103}-243.o(StubCode)
    StubCode                                 0x0000cf0c   Section        8  QtContacts{00010103}-257.o(StubCode)
    theImportedSymbol                        0x0000cf10   Data           0  QtContacts{00010103}-257.o(StubCode)
    StubCode                                 0x0000cf14   Section        8  QtContacts{00010103}-267.o(StubCode)
    theImportedSymbol                        0x0000cf18   Data           0  QtContacts{00010103}-267.o(StubCode)
    StubCode                                 0x0000cf1c   Section        8  QtContacts{00010103}-270.o(StubCode)
    theImportedSymbol                        0x0000cf20   Data           0  QtContacts{00010103}-270.o(StubCode)
    StubCode                                 0x0000cf24   Section        8  QtContacts{00010103}-273.o(StubCode)
    theImportedSymbol                        0x0000cf28   Data           0  QtContacts{00010103}-273.o(StubCode)
    StubCode                                 0x0000cf2c   Section        8  QtContacts{00010103}-274.o(StubCode)
    theImportedSymbol                        0x0000cf30   Data           0  QtContacts{00010103}-274.o(StubCode)
    StubCode                                 0x0000cf34   Section        8  QtContacts{00010103}-304.o(StubCode)
    theImportedSymbol                        0x0000cf38   Data           0  QtContacts{00010103}-304.o(StubCode)
    StubCode                                 0x0000cf3c   Section        8  QtContacts{00010103}-305.o(StubCode)
    theImportedSymbol                        0x0000cf40   Data           0  QtContacts{00010103}-305.o(StubCode)
    StubCode                                 0x0000cf44   Section        8  QtContacts{00010103}-306.o(StubCode)
    theImportedSymbol                        0x0000cf48   Data           0  QtContacts{00010103}-306.o(StubCode)
    StubCode                                 0x0000cf4c   Section        8  QtContacts{00010103}-309.o(StubCode)
    theImportedSymbol                        0x0000cf50   Data           0  QtContacts{00010103}-309.o(StubCode)
    StubCode                                 0x0000cf54   Section        8  QtContacts{00010103}-311.o(StubCode)
    theImportedSymbol                        0x0000cf58   Data           0  QtContacts{00010103}-311.o(StubCode)
    StubCode                                 0x0000cf5c   Section        8  QtContacts{00010103}-312.o(StubCode)
    theImportedSymbol                        0x0000cf60   Data           0  QtContacts{00010103}-312.o(StubCode)
    StubCode                                 0x0000cf64   Section        8  QtContacts{00010103}-313.o(StubCode)
    theImportedSymbol                        0x0000cf68   Data           0  QtContacts{00010103}-313.o(StubCode)
    StubCode                                 0x0000cf6c   Section        8  QtContacts{00010103}-319.o(StubCode)
    theImportedSymbol                        0x0000cf70   Data           0  QtContacts{00010103}-319.o(StubCode)
    StubCode                                 0x0000cf74   Section        8  QtContacts{00010103}-326.o(StubCode)
    theImportedSymbol                        0x0000cf78   Data           0  QtContacts{00010103}-326.o(StubCode)
    StubCode                                 0x0000cf7c   Section        8  QtContacts{00010103}-327.o(StubCode)
    theImportedSymbol                        0x0000cf80   Data           0  QtContacts{00010103}-327.o(StubCode)
    StubCode                                 0x0000cf84   Section        8  QtContacts{00010103}-329.o(StubCode)
    theImportedSymbol                        0x0000cf88   Data           0  QtContacts{00010103}-329.o(StubCode)
    StubCode                                 0x0000cf8c   Section        8  QtContacts{00010103}-332.o(StubCode)
    theImportedSymbol                        0x0000cf90   Data           0  QtContacts{00010103}-332.o(StubCode)
    StubCode                                 0x0000cf94   Section        8  QtContacts{00010103}-333.o(StubCode)
    theImportedSymbol                        0x0000cf98   Data           0  QtContacts{00010103}-333.o(StubCode)
    StubCode                                 0x0000cf9c   Section        8  QtContacts{00010103}-336.o(StubCode)
    theImportedSymbol                        0x0000cfa0   Data           0  QtContacts{00010103}-336.o(StubCode)
    StubCode                                 0x0000cfa4   Section        8  QtContacts{00010103}-338.o(StubCode)
    theImportedSymbol                        0x0000cfa8   Data           0  QtContacts{00010103}-338.o(StubCode)
    StubCode                                 0x0000cfac   Section        8  QtContacts{00010103}-340.o(StubCode)
    theImportedSymbol                        0x0000cfb0   Data           0  QtContacts{00010103}-340.o(StubCode)
    StubCode                                 0x0000cfb4   Section        8  QtContacts{00010103}-341.o(StubCode)
    theImportedSymbol                        0x0000cfb8   Data           0  QtContacts{00010103}-341.o(StubCode)
    StubCode                                 0x0000cfbc   Section        8  QtContacts{00010103}-344.o(StubCode)
    theImportedSymbol                        0x0000cfc0   Data           0  QtContacts{00010103}-344.o(StubCode)
    StubCode                                 0x0000cfc4   Section        8  QtContacts{00010103}-345.o(StubCode)
    theImportedSymbol                        0x0000cfc8   Data           0  QtContacts{00010103}-345.o(StubCode)
    StubCode                                 0x0000cfcc   Section        8  QtContacts{00010103}-346.o(StubCode)
    theImportedSymbol                        0x0000cfd0   Data           0  QtContacts{00010103}-346.o(StubCode)
    StubCode                                 0x0000cfd4   Section        8  QtContacts{00010103}-347.o(StubCode)
    theImportedSymbol                        0x0000cfd8   Data           0  QtContacts{00010103}-347.o(StubCode)
    StubCode                                 0x0000cfdc   Section        8  QtContacts{00010103}-349.o(StubCode)
    theImportedSymbol                        0x0000cfe0   Data           0  QtContacts{00010103}-349.o(StubCode)
    StubCode                                 0x0000cfe4   Section        8  QtContacts{00010103}-354.o(StubCode)
    theImportedSymbol                        0x0000cfe8   Data           0  QtContacts{00010103}-354.o(StubCode)
    StubCode                                 0x0000cfec   Section        8  QtContacts{00010103}-355.o(StubCode)
    theImportedSymbol                        0x0000cff0   Data           0  QtContacts{00010103}-355.o(StubCode)
    StubCode                                 0x0000cff4   Section        8  QtContacts{00010103}-368.o(StubCode)
    theImportedSymbol                        0x0000cff8   Data           0  QtContacts{00010103}-368.o(StubCode)
    StubCode                                 0x0000cffc   Section        8  QtContacts{00010103}-371.o(StubCode)
    theImportedSymbol                        0x0000d000   Data           0  QtContacts{00010103}-371.o(StubCode)
    StubCode                                 0x0000d004   Section        8  QtContacts{00010103}-4.o(StubCode)
    theImportedSymbol                        0x0000d008   Data           0  QtContacts{00010103}-4.o(StubCode)
    StubCode                                 0x0000d00c   Section        8  QtContacts{00010103}-403.o(StubCode)
    theImportedSymbol                        0x0000d010   Data           0  QtContacts{00010103}-403.o(StubCode)
    StubCode                                 0x0000d014   Section        8  QtContacts{00010103}-404.o(StubCode)
    theImportedSymbol                        0x0000d018   Data           0  QtContacts{00010103}-404.o(StubCode)
    StubCode                                 0x0000d01c   Section        8  QtContacts{00010103}-405.o(StubCode)
    theImportedSymbol                        0x0000d020   Data           0  QtContacts{00010103}-405.o(StubCode)
    StubCode                                 0x0000d024   Section        8  QtContacts{00010103}-406.o(StubCode)
    theImportedSymbol                        0x0000d028   Data           0  QtContacts{00010103}-406.o(StubCode)
    StubCode                                 0x0000d02c   Section        8  QtContacts{00010103}-407.o(StubCode)
    theImportedSymbol                        0x0000d030   Data           0  QtContacts{00010103}-407.o(StubCode)
    StubCode                                 0x0000d034   Section        8  QtContacts{00010103}-410.o(StubCode)
    theImportedSymbol                        0x0000d038   Data           0  QtContacts{00010103}-410.o(StubCode)
    StubCode                                 0x0000d03c   Section        8  QtContacts{00010103}-412.o(StubCode)
    theImportedSymbol                        0x0000d040   Data           0  QtContacts{00010103}-412.o(StubCode)
    StubCode                                 0x0000d044   Section        8  QtContacts{00010103}-436.o(StubCode)
    theImportedSymbol                        0x0000d048   Data           0  QtContacts{00010103}-436.o(StubCode)
    StubCode                                 0x0000d04c   Section        8  QtContacts{00010103}-441.o(StubCode)
    theImportedSymbol                        0x0000d050   Data           0  QtContacts{00010103}-441.o(StubCode)
    StubCode                                 0x0000d054   Section        8  QtContacts{00010103}-442.o(StubCode)
    theImportedSymbol                        0x0000d058   Data           0  QtContacts{00010103}-442.o(StubCode)
    StubCode                                 0x0000d05c   Section        8  QtContacts{00010103}-446.o(StubCode)
    theImportedSymbol                        0x0000d060   Data           0  QtContacts{00010103}-446.o(StubCode)
    StubCode                                 0x0000d064   Section        8  QtContacts{00010103}-447.o(StubCode)
    theImportedSymbol                        0x0000d068   Data           0  QtContacts{00010103}-447.o(StubCode)
    StubCode                                 0x0000d06c   Section        8  QtContacts{00010103}-448.o(StubCode)
    theImportedSymbol                        0x0000d070   Data           0  QtContacts{00010103}-448.o(StubCode)
    StubCode                                 0x0000d074   Section        8  QtContacts{00010103}-449.o(StubCode)
    theImportedSymbol                        0x0000d078   Data           0  QtContacts{00010103}-449.o(StubCode)
    StubCode                                 0x0000d07c   Section        8  QtContacts{00010103}-450.o(StubCode)
    theImportedSymbol                        0x0000d080   Data           0  QtContacts{00010103}-450.o(StubCode)
    StubCode                                 0x0000d084   Section        8  QtContacts{00010103}-453.o(StubCode)
    theImportedSymbol                        0x0000d088   Data           0  QtContacts{00010103}-453.o(StubCode)
    StubCode                                 0x0000d08c   Section        8  QtContacts{00010103}-455.o(StubCode)
    theImportedSymbol                        0x0000d090   Data           0  QtContacts{00010103}-455.o(StubCode)
    StubCode                                 0x0000d094   Section        8  QtContacts{00010103}-48.o(StubCode)
    theImportedSymbol                        0x0000d098   Data           0  QtContacts{00010103}-48.o(StubCode)
    StubCode                                 0x0000d09c   Section        8  QtContacts{00010103}-50.o(StubCode)
    theImportedSymbol                        0x0000d0a0   Data           0  QtContacts{00010103}-50.o(StubCode)
    StubCode                                 0x0000d0a4   Section        8  QtContacts{00010103}-512.o(StubCode)
    theImportedSymbol                        0x0000d0a8   Data           0  QtContacts{00010103}-512.o(StubCode)
    StubCode                                 0x0000d0ac   Section        8  QtContacts{00010103}-513.o(StubCode)
    theImportedSymbol                        0x0000d0b0   Data           0  QtContacts{00010103}-513.o(StubCode)
    StubCode                                 0x0000d0b4   Section        8  QtContacts{00010103}-515.o(StubCode)
    theImportedSymbol                        0x0000d0b8   Data           0  QtContacts{00010103}-515.o(StubCode)
    StubCode                                 0x0000d0bc   Section        8  QtContacts{00010103}-516.o(StubCode)
    theImportedSymbol                        0x0000d0c0   Data           0  QtContacts{00010103}-516.o(StubCode)
    StubCode                                 0x0000d0c4   Section        8  QtContacts{00010103}-518.o(StubCode)
    theImportedSymbol                        0x0000d0c8   Data           0  QtContacts{00010103}-518.o(StubCode)
    StubCode                                 0x0000d0cc   Section        8  QtContacts{00010103}-519.o(StubCode)
    theImportedSymbol                        0x0000d0d0   Data           0  QtContacts{00010103}-519.o(StubCode)
    StubCode                                 0x0000d0d4   Section        8  QtContacts{00010103}-52.o(StubCode)
    theImportedSymbol                        0x0000d0d8   Data           0  QtContacts{00010103}-52.o(StubCode)
    StubCode                                 0x0000d0dc   Section        8  QtContacts{00010103}-522.o(StubCode)
    theImportedSymbol                        0x0000d0e0   Data           0  QtContacts{00010103}-522.o(StubCode)
    StubCode                                 0x0000d0e4   Section        8  QtContacts{00010103}-524.o(StubCode)
    theImportedSymbol                        0x0000d0e8   Data           0  QtContacts{00010103}-524.o(StubCode)
    StubCode                                 0x0000d0ec   Section        8  QtContacts{00010103}-53.o(StubCode)
    theImportedSymbol                        0x0000d0f0   Data           0  QtContacts{00010103}-53.o(StubCode)
    StubCode                                 0x0000d0f4   Section        8  QtContacts{00010103}-531.o(StubCode)
    theImportedSymbol                        0x0000d0f8   Data           0  QtContacts{00010103}-531.o(StubCode)
    StubCode                                 0x0000d0fc   Section        8  QtContacts{00010103}-539.o(StubCode)
    theImportedSymbol                        0x0000d100   Data           0  QtContacts{00010103}-539.o(StubCode)
    StubCode                                 0x0000d104   Section        8  QtContacts{00010103}-542.o(StubCode)
    theImportedSymbol                        0x0000d108   Data           0  QtContacts{00010103}-542.o(StubCode)
    StubCode                                 0x0000d10c   Section        8  QtContacts{00010103}-544.o(StubCode)
    theImportedSymbol                        0x0000d110   Data           0  QtContacts{00010103}-544.o(StubCode)
    StubCode                                 0x0000d114   Section        8  QtContacts{00010103}-548.o(StubCode)
    theImportedSymbol                        0x0000d118   Data           0  QtContacts{00010103}-548.o(StubCode)
    StubCode                                 0x0000d11c   Section        8  QtContacts{00010103}-590.o(StubCode)
    theImportedSymbol                        0x0000d120   Data           0  QtContacts{00010103}-590.o(StubCode)
    StubCode                                 0x0000d124   Section        8  QtContacts{00010103}-591.o(StubCode)
    theImportedSymbol                        0x0000d128   Data           0  QtContacts{00010103}-591.o(StubCode)
    StubCode                                 0x0000d12c   Section        8  QtContacts{00010103}-593.o(StubCode)
    theImportedSymbol                        0x0000d130   Data           0  QtContacts{00010103}-593.o(StubCode)
    StubCode                                 0x0000d134   Section        8  QtContacts{00010103}-594.o(StubCode)
    theImportedSymbol                        0x0000d138   Data           0  QtContacts{00010103}-594.o(StubCode)
    StubCode                                 0x0000d13c   Section        8  QtContacts{00010103}-595.o(StubCode)
    theImportedSymbol                        0x0000d140   Data           0  QtContacts{00010103}-595.o(StubCode)
    StubCode                                 0x0000d144   Section        8  QtContacts{00010103}-596.o(StubCode)
    theImportedSymbol                        0x0000d148   Data           0  QtContacts{00010103}-596.o(StubCode)
    StubCode                                 0x0000d14c   Section        8  QtContacts{00010103}-598.o(StubCode)
    theImportedSymbol                        0x0000d150   Data           0  QtContacts{00010103}-598.o(StubCode)
    StubCode                                 0x0000d154   Section        8  QtContacts{00010103}-599.o(StubCode)
    theImportedSymbol                        0x0000d158   Data           0  QtContacts{00010103}-599.o(StubCode)
    StubCode                                 0x0000d15c   Section        8  QtContacts{00010103}-600.o(StubCode)
    theImportedSymbol                        0x0000d160   Data           0  QtContacts{00010103}-600.o(StubCode)
    StubCode                                 0x0000d164   Section        8  QtContacts{00010103}-606.o(StubCode)
    theImportedSymbol                        0x0000d168   Data           0  QtContacts{00010103}-606.o(StubCode)
    StubCode                                 0x0000d16c   Section        8  QtContacts{00010103}-609.o(StubCode)
    theImportedSymbol                        0x0000d170   Data           0  QtContacts{00010103}-609.o(StubCode)
    StubCode                                 0x0000d174   Section        8  QtContacts{00010103}-612.o(StubCode)
    theImportedSymbol                        0x0000d178   Data           0  QtContacts{00010103}-612.o(StubCode)
    StubCode                                 0x0000d17c   Section        8  QtContacts{00010103}-613.o(StubCode)
    theImportedSymbol                        0x0000d180   Data           0  QtContacts{00010103}-613.o(StubCode)
    StubCode                                 0x0000d184   Section        8  QtContacts{00010103}-614.o(StubCode)
    theImportedSymbol                        0x0000d188   Data           0  QtContacts{00010103}-614.o(StubCode)
    StubCode                                 0x0000d18c   Section        8  QtContacts{00010103}-615.o(StubCode)
    theImportedSymbol                        0x0000d190   Data           0  QtContacts{00010103}-615.o(StubCode)
    StubCode                                 0x0000d194   Section        8  QtContacts{00010103}-616.o(StubCode)
    theImportedSymbol                        0x0000d198   Data           0  QtContacts{00010103}-616.o(StubCode)
    StubCode                                 0x0000d19c   Section        8  QtContacts{00010103}-619.o(StubCode)
    theImportedSymbol                        0x0000d1a0   Data           0  QtContacts{00010103}-619.o(StubCode)
    StubCode                                 0x0000d1a4   Section        8  QtContacts{00010103}-62.o(StubCode)
    theImportedSymbol                        0x0000d1a8   Data           0  QtContacts{00010103}-62.o(StubCode)
    StubCode                                 0x0000d1ac   Section        8  QtContacts{00010103}-620.o(StubCode)
    theImportedSymbol                        0x0000d1b0   Data           0  QtContacts{00010103}-620.o(StubCode)
    StubCode                                 0x0000d1b4   Section        8  QtContacts{00010103}-621.o(StubCode)
    theImportedSymbol                        0x0000d1b8   Data           0  QtContacts{00010103}-621.o(StubCode)
    StubCode                                 0x0000d1bc   Section        8  QtContacts{00010103}-624.o(StubCode)
    theImportedSymbol                        0x0000d1c0   Data           0  QtContacts{00010103}-624.o(StubCode)
    StubCode                                 0x0000d1c4   Section        8  QtContacts{00010103}-627.o(StubCode)
    theImportedSymbol                        0x0000d1c8   Data           0  QtContacts{00010103}-627.o(StubCode)
    StubCode                                 0x0000d1cc   Section        8  QtContacts{00010103}-629.o(StubCode)
    theImportedSymbol                        0x0000d1d0   Data           0  QtContacts{00010103}-629.o(StubCode)
    StubCode                                 0x0000d1d4   Section        8  QtContacts{00010103}-634.o(StubCode)
    theImportedSymbol                        0x0000d1d8   Data           0  QtContacts{00010103}-634.o(StubCode)
    StubCode                                 0x0000d1dc   Section        8  QtContacts{00010103}-635.o(StubCode)
    theImportedSymbol                        0x0000d1e0   Data           0  QtContacts{00010103}-635.o(StubCode)
    StubCode                                 0x0000d1e4   Section        8  QtContacts{00010103}-636.o(StubCode)
    theImportedSymbol                        0x0000d1e8   Data           0  QtContacts{00010103}-636.o(StubCode)
    StubCode                                 0x0000d1ec   Section        8  QtContacts{00010103}-638.o(StubCode)
    theImportedSymbol                        0x0000d1f0   Data           0  QtContacts{00010103}-638.o(StubCode)
    StubCode                                 0x0000d1f4   Section        8  QtContacts{00010103}-641.o(StubCode)
    theImportedSymbol                        0x0000d1f8   Data           0  QtContacts{00010103}-641.o(StubCode)
    StubCode                                 0x0000d1fc   Section        8  QtContacts{00010103}-657.o(StubCode)
    theImportedSymbol                        0x0000d200   Data           0  QtContacts{00010103}-657.o(StubCode)
    StubCode                                 0x0000d204   Section        8  QtContacts{00010103}-658.o(StubCode)
    theImportedSymbol                        0x0000d208   Data           0  QtContacts{00010103}-658.o(StubCode)
    StubCode                                 0x0000d20c   Section        8  QtContacts{00010103}-659.o(StubCode)
    theImportedSymbol                        0x0000d210   Data           0  QtContacts{00010103}-659.o(StubCode)
    StubCode                                 0x0000d214   Section        8  QtContacts{00010103}-660.o(StubCode)
    theImportedSymbol                        0x0000d218   Data           0  QtContacts{00010103}-660.o(StubCode)
    StubCode                                 0x0000d21c   Section        8  QtContacts{00010103}-681.o(StubCode)
    theImportedSymbol                        0x0000d220   Data           0  QtContacts{00010103}-681.o(StubCode)
    StubCode                                 0x0000d224   Section        8  QtContacts{00010103}-683.o(StubCode)
    theImportedSymbol                        0x0000d228   Data           0  QtContacts{00010103}-683.o(StubCode)
    StubCode                                 0x0000d22c   Section        8  QtContacts{00010103}-692.o(StubCode)
    theImportedSymbol                        0x0000d230   Data           0  QtContacts{00010103}-692.o(StubCode)
    StubCode                                 0x0000d234   Section        8  QtContacts{00010103}-694.o(StubCode)
    theImportedSymbol                        0x0000d238   Data           0  QtContacts{00010103}-694.o(StubCode)
    StubCode                                 0x0000d23c   Section        8  QtContacts{00010103}-696.o(StubCode)
    theImportedSymbol                        0x0000d240   Data           0  QtContacts{00010103}-696.o(StubCode)
    StubCode                                 0x0000d244   Section        8  QtContacts{00010103}-698.o(StubCode)
    theImportedSymbol                        0x0000d248   Data           0  QtContacts{00010103}-698.o(StubCode)
    StubCode                                 0x0000d24c   Section        8  QtContacts{00010103}-7.o(StubCode)
    theImportedSymbol                        0x0000d250   Data           0  QtContacts{00010103}-7.o(StubCode)
    StubCode                                 0x0000d254   Section        8  QtContacts{00010103}-701.o(StubCode)
    theImportedSymbol                        0x0000d258   Data           0  QtContacts{00010103}-701.o(StubCode)
    StubCode                                 0x0000d25c   Section        8  QtContacts{00010103}-74.o(StubCode)
    theImportedSymbol                        0x0000d260   Data           0  QtContacts{00010103}-74.o(StubCode)
    StubCode                                 0x0000d264   Section        8  QtContacts{00010103}-76.o(StubCode)
    theImportedSymbol                        0x0000d268   Data           0  QtContacts{00010103}-76.o(StubCode)
    StubCode                                 0x0000d26c   Section        8  QtContacts{00010103}-764.o(StubCode)
    theImportedSymbol                        0x0000d270   Data           0  QtContacts{00010103}-764.o(StubCode)
    StubCode                                 0x0000d274   Section        8  QtContacts{00010103}-784.o(StubCode)
    theImportedSymbol                        0x0000d278   Data           0  QtContacts{00010103}-784.o(StubCode)
    StubCode                                 0x0000d27c   Section        8  QtContacts{00010103}-799.o(StubCode)
    theImportedSymbol                        0x0000d280   Data           0  QtContacts{00010103}-799.o(StubCode)
    StubCode                                 0x0000d284   Section        8  QtContacts{00010103}-833.o(StubCode)
    theImportedSymbol                        0x0000d288   Data           0  QtContacts{00010103}-833.o(StubCode)
    StubCode                                 0x0000d28c   Section        8  libstdcpp{00010000}-988.o(StubCode)
    theImportedSymbol                        0x0000d290   Data           0  libstdcpp{00010000}-988.o(StubCode)
    StubCode                                 0x0000d294   Section        8  libstdcpp{00010000}-992.o(StubCode)
    theImportedSymbol                        0x0000d298   Data           0  libstdcpp{00010000}-992.o(StubCode)
    StubCode                                 0x0000d29c   Section        8  QtCore{00040703}-104.o(StubCode)
    theImportedSymbol                        0x0000d2a0   Data           0  QtCore{00040703}-104.o(StubCode)
    StubCode                                 0x0000d2a4   Section        8  QtCore{00040703}-150.o(StubCode)
    theImportedSymbol                        0x0000d2a8   Data           0  QtCore{00040703}-150.o(StubCode)
    StubCode                                 0x0000d2ac   Section        8  QtCore{00040703}-1560.o(StubCode)
    theImportedSymbol                        0x0000d2b0   Data           0  QtCore{00040703}-1560.o(StubCode)
    StubCode                                 0x0000d2b4   Section        8  QtCore{00040703}-1706.o(StubCode)
    theImportedSymbol                        0x0000d2b8   Data           0  QtCore{00040703}-1706.o(StubCode)
    StubCode                                 0x0000d2bc   Section        8  QtCore{00040703}-1714.o(StubCode)
    theImportedSymbol                        0x0000d2c0   Data           0  QtCore{00040703}-1714.o(StubCode)
    StubCode                                 0x0000d2c4   Section        8  QtCore{00040703}-1717.o(StubCode)
    theImportedSymbol                        0x0000d2c8   Data           0  QtCore{00040703}-1717.o(StubCode)
    StubCode                                 0x0000d2cc   Section        8  QtCore{00040703}-175.o(StubCode)
    theImportedSymbol                        0x0000d2d0   Data           0  QtCore{00040703}-175.o(StubCode)
    StubCode                                 0x0000d2d4   Section        8  QtCore{00040703}-1760.o(StubCode)
    theImportedSymbol                        0x0000d2d8   Data           0  QtCore{00040703}-1760.o(StubCode)
    StubCode                                 0x0000d2dc   Section        8  QtCore{00040703}-1761.o(StubCode)
    theImportedSymbol                        0x0000d2e0   Data           0  QtCore{00040703}-1761.o(StubCode)
    StubCode                                 0x0000d2e4   Section        8  QtCore{00040703}-1763.o(StubCode)
    theImportedSymbol                        0x0000d2e8   Data           0  QtCore{00040703}-1763.o(StubCode)
    StubCode                                 0x0000d2ec   Section        8  QtCore{00040703}-1764.o(StubCode)
    theImportedSymbol                        0x0000d2f0   Data           0  QtCore{00040703}-1764.o(StubCode)
    StubCode                                 0x0000d2f4   Section        8  QtCore{00040703}-1765.o(StubCode)
    theImportedSymbol                        0x0000d2f8   Data           0  QtCore{00040703}-1765.o(StubCode)
    StubCode                                 0x0000d2fc   Section        8  QtCore{00040703}-1766.o(StubCode)
    theImportedSymbol                        0x0000d300   Data           0  QtCore{00040703}-1766.o(StubCode)
    StubCode                                 0x0000d304   Section        8  QtCore{00040703}-1767.o(StubCode)
    theImportedSymbol                        0x0000d308   Data           0  QtCore{00040703}-1767.o(StubCode)
    StubCode                                 0x0000d30c   Section        8  QtCore{00040703}-1768.o(StubCode)
    theImportedSymbol                        0x0000d310   Data           0  QtCore{00040703}-1768.o(StubCode)
    StubCode                                 0x0000d314   Section        8  QtCore{00040703}-1773.o(StubCode)
    theImportedSymbol                        0x0000d318   Data           0  QtCore{00040703}-1773.o(StubCode)
    StubCode                                 0x0000d31c   Section        8  QtCore{00040703}-1777.o(StubCode)
    theImportedSymbol                        0x0000d320   Data           0  QtCore{00040703}-1777.o(StubCode)
    StubCode                                 0x0000d324   Section        8  QtCore{00040703}-1784.o(StubCode)
    theImportedSymbol                        0x0000d328   Data           0  QtCore{00040703}-1784.o(StubCode)
    StubCode                                 0x0000d32c   Section        8  QtCore{00040703}-1785.o(StubCode)
    theImportedSymbol                        0x0000d330   Data           0  QtCore{00040703}-1785.o(StubCode)
    StubCode                                 0x0000d334   Section        8  QtCore{00040703}-1789.o(StubCode)
    theImportedSymbol                        0x0000d338   Data           0  QtCore{00040703}-1789.o(StubCode)
    StubCode                                 0x0000d33c   Section        8  QtCore{00040703}-179.o(StubCode)
    theImportedSymbol                        0x0000d340   Data           0  QtCore{00040703}-179.o(StubCode)
    StubCode                                 0x0000d344   Section        8  QtCore{00040703}-1794.o(StubCode)
    theImportedSymbol                        0x0000d348   Data           0  QtCore{00040703}-1794.o(StubCode)
    StubCode                                 0x0000d34c   Section        8  QtCore{00040703}-1814.o(StubCode)
    theImportedSymbol                        0x0000d350   Data           0  QtCore{00040703}-1814.o(StubCode)
    StubCode                                 0x0000d354   Section        8  QtCore{00040703}-1825.o(StubCode)
    theImportedSymbol                        0x0000d358   Data           0  QtCore{00040703}-1825.o(StubCode)
    StubCode                                 0x0000d35c   Section        8  QtCore{00040703}-1826.o(StubCode)
    theImportedSymbol                        0x0000d360   Data           0  QtCore{00040703}-1826.o(StubCode)
    StubCode                                 0x0000d364   Section        8  QtCore{00040703}-1830.o(StubCode)
    theImportedSymbol                        0x0000d368   Data           0  QtCore{00040703}-1830.o(StubCode)
    StubCode                                 0x0000d36c   Section        8  QtCore{00040703}-1839.o(StubCode)
    theImportedSymbol                        0x0000d370   Data           0  QtCore{00040703}-1839.o(StubCode)
    StubCode                                 0x0000d374   Section        8  QtCore{00040703}-1874.o(StubCode)
    theImportedSymbol                        0x0000d378   Data           0  QtCore{00040703}-1874.o(StubCode)
    StubCode                                 0x0000d37c   Section        8  QtCore{00040703}-1875.o(StubCode)
    theImportedSymbol                        0x0000d380   Data           0  QtCore{00040703}-1875.o(StubCode)
    StubCode                                 0x0000d384   Section        8  QtCore{00040703}-1885.o(StubCode)
    theImportedSymbol                        0x0000d388   Data           0  QtCore{00040703}-1885.o(StubCode)
    StubCode                                 0x0000d38c   Section        8  QtCore{00040703}-1947.o(StubCode)
    theImportedSymbol                        0x0000d390   Data           0  QtCore{00040703}-1947.o(StubCode)
    StubCode                                 0x0000d394   Section        8  QtCore{00040703}-1949.o(StubCode)
    theImportedSymbol                        0x0000d398   Data           0  QtCore{00040703}-1949.o(StubCode)
    StubCode                                 0x0000d39c   Section        8  QtCore{00040703}-2034.o(StubCode)
    theImportedSymbol                        0x0000d3a0   Data           0  QtCore{00040703}-2034.o(StubCode)
    StubCode                                 0x0000d3a4   Section        8  QtCore{00040703}-2037.o(StubCode)
    theImportedSymbol                        0x0000d3a8   Data           0  QtCore{00040703}-2037.o(StubCode)
    StubCode                                 0x0000d3ac   Section        8  QtCore{00040703}-2082.o(StubCode)
    theImportedSymbol                        0x0000d3b0   Data           0  QtCore{00040703}-2082.o(StubCode)
    StubCode                                 0x0000d3b4   Section        8  QtCore{00040703}-2188.o(StubCode)
    theImportedSymbol                        0x0000d3b8   Data           0  QtCore{00040703}-2188.o(StubCode)
    StubCode                                 0x0000d3bc   Section        8  QtCore{00040703}-2197.o(StubCode)
    theImportedSymbol                        0x0000d3c0   Data           0  QtCore{00040703}-2197.o(StubCode)
    StubCode                                 0x0000d3c4   Section        8  QtCore{00040703}-2199.o(StubCode)
    theImportedSymbol                        0x0000d3c8   Data           0  QtCore{00040703}-2199.o(StubCode)
    StubCode                                 0x0000d3cc   Section        8  QtCore{00040703}-2321.o(StubCode)
    theImportedSymbol                        0x0000d3d0   Data           0  QtCore{00040703}-2321.o(StubCode)
    StubCode                                 0x0000d3d4   Section        8  QtCore{00040703}-274.o(StubCode)
    theImportedSymbol                        0x0000d3d8   Data           0  QtCore{00040703}-274.o(StubCode)
    StubCode                                 0x0000d3dc   Section        8  QtCore{00040703}-275.o(StubCode)
    theImportedSymbol                        0x0000d3e0   Data           0  QtCore{00040703}-275.o(StubCode)
    StubCode                                 0x0000d3e4   Section        8  QtCore{00040703}-282.o(StubCode)
    theImportedSymbol                        0x0000d3e8   Data           0  QtCore{00040703}-282.o(StubCode)
    StubCode                                 0x0000d3ec   Section        8  QtCore{00040703}-2867.o(StubCode)
    theImportedSymbol                        0x0000d3f0   Data           0  QtCore{00040703}-2867.o(StubCode)
    StubCode                                 0x0000d3f4   Section        8  QtCore{00040703}-3040.o(StubCode)
    theImportedSymbol                        0x0000d3f8   Data           0  QtCore{00040703}-3040.o(StubCode)
    StubCode                                 0x0000d3fc   Section        8  QtCore{00040703}-3059.o(StubCode)
    theImportedSymbol                        0x0000d400   Data           0  QtCore{00040703}-3059.o(StubCode)
    StubCode                                 0x0000d404   Section        8  QtCore{00040703}-3064.o(StubCode)
    theImportedSymbol                        0x0000d408   Data           0  QtCore{00040703}-3064.o(StubCode)
    StubCode                                 0x0000d40c   Section        8  QtCore{00040703}-3097.o(StubCode)
    theImportedSymbol                        0x0000d410   Data           0  QtCore{00040703}-3097.o(StubCode)
    StubCode                                 0x0000d414   Section        8  QtCore{00040703}-3098.o(StubCode)
    theImportedSymbol                        0x0000d418   Data           0  QtCore{00040703}-3098.o(StubCode)
    StubCode                                 0x0000d41c   Section        8  QtCore{00040703}-3101.o(StubCode)
    theImportedSymbol                        0x0000d420   Data           0  QtCore{00040703}-3101.o(StubCode)
    StubCode                                 0x0000d424   Section        8  QtCore{00040703}-312.o(StubCode)
    theImportedSymbol                        0x0000d428   Data           0  QtCore{00040703}-312.o(StubCode)
    StubCode                                 0x0000d42c   Section        8  QtCore{00040703}-3163.o(StubCode)
    theImportedSymbol                        0x0000d430   Data           0  QtCore{00040703}-3163.o(StubCode)
    StubCode                                 0x0000d434   Section        8  QtCore{00040703}-32.o(StubCode)
    theImportedSymbol                        0x0000d438   Data           0  QtCore{00040703}-32.o(StubCode)
    StubCode                                 0x0000d43c   Section        8  QtCore{00040703}-324.o(StubCode)
    theImportedSymbol                        0x0000d440   Data           0  QtCore{00040703}-324.o(StubCode)
    StubCode                                 0x0000d444   Section        8  QtCore{00040703}-331.o(StubCode)
    theImportedSymbol                        0x0000d448   Data           0  QtCore{00040703}-331.o(StubCode)
    StubCode                                 0x0000d44c   Section        8  QtCore{00040703}-332.o(StubCode)
    theImportedSymbol                        0x0000d450   Data           0  QtCore{00040703}-332.o(StubCode)
    StubCode                                 0x0000d454   Section        8  QtCore{00040703}-335.o(StubCode)
    theImportedSymbol                        0x0000d458   Data           0  QtCore{00040703}-335.o(StubCode)
    StubCode                                 0x0000d45c   Section        8  QtCore{00040703}-3607.o(StubCode)
    theImportedSymbol                        0x0000d460   Data           0  QtCore{00040703}-3607.o(StubCode)
    StubCode                                 0x0000d464   Section        8  QtCore{00040703}-3608.o(StubCode)
    theImportedSymbol                        0x0000d468   Data           0  QtCore{00040703}-3608.o(StubCode)
    StubCode                                 0x0000d46c   Section        8  QtCore{00040703}-3689.o(StubCode)
    theImportedSymbol                        0x0000d470   Data           0  QtCore{00040703}-3689.o(StubCode)
    StubCode                                 0x0000d474   Section        8  QtCore{00040703}-3691.o(StubCode)
    theImportedSymbol                        0x0000d478   Data           0  QtCore{00040703}-3691.o(StubCode)
    StubCode                                 0x0000d47c   Section        8  QtCore{00040703}-70.o(StubCode)
    theImportedSymbol                        0x0000d480   Data           0  QtCore{00040703}-70.o(StubCode)
    StubCode                                 0x0000d484   Section        8  libc{00010000}-350.o(StubCode)
    theImportedSymbol                        0x0000d488   Data           0  libc{00010000}-350.o(StubCode)
    StubCode                                 0x0000d48c   Section        8  euser{000a0000}-1088.o(StubCode)
    theImportedSymbol                        0x0000d490   Data           0  euser{000a0000}-1088.o(StubCode)
    StubCode                                 0x0000d494   Section        8  euser{000a0000}-1089.o(StubCode)
    theImportedSymbol                        0x0000d498   Data           0  euser{000a0000}-1089.o(StubCode)
    StubCode                                 0x0000d49c   Section        8  euser{000a0000}-1090.o(StubCode)
    theImportedSymbol                        0x0000d4a0   Data           0  euser{000a0000}-1090.o(StubCode)
    StubCode                                 0x0000d4a4   Section        8  euser{000a0000}-1091.o(StubCode)
    theImportedSymbol                        0x0000d4a8   Data           0  euser{000a0000}-1091.o(StubCode)
    StubCode                                 0x0000d4ac   Section        8  euser{000a0000}-1094.o(StubCode)
    theImportedSymbol                        0x0000d4b0   Data           0  euser{000a0000}-1094.o(StubCode)
    StubCode                                 0x0000d4b4   Section        8  euser{000a0000}-1169.o(StubCode)
    theImportedSymbol                        0x0000d4b8   Data           0  euser{000a0000}-1169.o(StubCode)
    StubCode                                 0x0000d4bc   Section        8  euser{000a0000}-1171.o(StubCode)
    theImportedSymbol                        0x0000d4c0   Data           0  euser{000a0000}-1171.o(StubCode)
    StubCode                                 0x0000d4c4   Section        8  euser{000a0000}-1172.o(StubCode)
    theImportedSymbol                        0x0000d4c8   Data           0  euser{000a0000}-1172.o(StubCode)
    StubCode                                 0x0000d4cc   Section        8  euser{000a0000}-120.o(StubCode)
    theImportedSymbol                        0x0000d4d0   Data           0  euser{000a0000}-120.o(StubCode)
    StubCode                                 0x0000d4d4   Section        8  euser{000a0000}-1622.o(StubCode)
    theImportedSymbol                        0x0000d4d8   Data           0  euser{000a0000}-1622.o(StubCode)
    StubCode                                 0x0000d4dc   Section        8  euser{000a0000}-1806.o(StubCode)
    theImportedSymbol                        0x0000d4e0   Data           0  euser{000a0000}-1806.o(StubCode)
    StubCode                                 0x0000d4e4   Section        8  euser{000a0000}-1807.o(StubCode)
    theImportedSymbol                        0x0000d4e8   Data           0  euser{000a0000}-1807.o(StubCode)
    StubCode                                 0x0000d4ec   Section        8  euser{000a0000}-1816.o(StubCode)
    theImportedSymbol                        0x0000d4f0   Data           0  euser{000a0000}-1816.o(StubCode)
    StubCode                                 0x0000d4f4   Section        8  euser{000a0000}-1822.o(StubCode)
    theImportedSymbol                        0x0000d4f8   Data           0  euser{000a0000}-1822.o(StubCode)
    StubCode                                 0x0000d4fc   Section        8  euser{000a0000}-202.o(StubCode)
    theImportedSymbol                        0x0000d500   Data           0  euser{000a0000}-202.o(StubCode)
    StubCode                                 0x0000d504   Section        8  euser{000a0000}-2025.o(StubCode)
    theImportedSymbol                        0x0000d508   Data           0  euser{000a0000}-2025.o(StubCode)
    StubCode                                 0x0000d50c   Section        8  euser{000a0000}-203.o(StubCode)
    theImportedSymbol                        0x0000d510   Data           0  euser{000a0000}-203.o(StubCode)
    StubCode                                 0x0000d514   Section        8  euser{000a0000}-2030.o(StubCode)
    theImportedSymbol                        0x0000d518   Data           0  euser{000a0000}-2030.o(StubCode)
    StubCode                                 0x0000d51c   Section        8  euser{000a0000}-2035.o(StubCode)
    theImportedSymbol                        0x0000d520   Data           0  euser{000a0000}-2035.o(StubCode)
    StubCode                                 0x0000d524   Section        8  euser{000a0000}-2045.o(StubCode)
    theImportedSymbol                        0x0000d528   Data           0  euser{000a0000}-2045.o(StubCode)
    StubCode                                 0x0000d52c   Section        8  euser{000a0000}-205.o(StubCode)
    theImportedSymbol                        0x0000d530   Data           0  euser{000a0000}-205.o(StubCode)
    StubCode                                 0x0000d534   Section        8  euser{000a0000}-2053.o(StubCode)
    theImportedSymbol                        0x0000d538   Data           0  euser{000a0000}-2053.o(StubCode)
    StubCode                                 0x0000d53c   Section        8  euser{000a0000}-2060.o(StubCode)
    theImportedSymbol                        0x0000d540   Data           0  euser{000a0000}-2060.o(StubCode)
    StubCode                                 0x0000d544   Section        8  euser{000a0000}-2061.o(StubCode)
    theImportedSymbol                        0x0000d548   Data           0  euser{000a0000}-2061.o(StubCode)
    StubCode                                 0x0000d54c   Section        8  euser{000a0000}-208.o(StubCode)
    theImportedSymbol                        0x0000d550   Data           0  euser{000a0000}-208.o(StubCode)
    StubCode                                 0x0000d554   Section        8  euser{000a0000}-2082.o(StubCode)
    theImportedSymbol                        0x0000d558   Data           0  euser{000a0000}-2082.o(StubCode)
    StubCode                                 0x0000d55c   Section        8  euser{000a0000}-2107.o(StubCode)
    theImportedSymbol                        0x0000d560   Data           0  euser{000a0000}-2107.o(StubCode)
    StubCode                                 0x0000d564   Section        8  euser{000a0000}-2128.o(StubCode)
    theImportedSymbol                        0x0000d568   Data           0  euser{000a0000}-2128.o(StubCode)
    StubCode                                 0x0000d56c   Section        8  euser{000a0000}-424.o(StubCode)
    theImportedSymbol                        0x0000d570   Data           0  euser{000a0000}-424.o(StubCode)
    StubCode                                 0x0000d574   Section        8  euser{000a0000}-505.o(StubCode)
    theImportedSymbol                        0x0000d578   Data           0  euser{000a0000}-505.o(StubCode)
    StubCode                                 0x0000d57c   Section        8  euser{000a0000}-507.o(StubCode)
    theImportedSymbol                        0x0000d580   Data           0  euser{000a0000}-507.o(StubCode)
    StubCode                                 0x0000d584   Section        8  euser{000a0000}-508.o(StubCode)
    theImportedSymbol                        0x0000d588   Data           0  euser{000a0000}-508.o(StubCode)
    StubCode                                 0x0000d58c   Section        8  euser{000a0000}-593.o(StubCode)
    theImportedSymbol                        0x0000d590   Data           0  euser{000a0000}-593.o(StubCode)
    StubCode                                 0x0000d594   Section        8  euser{000a0000}-604.o(StubCode)
    theImportedSymbol                        0x0000d598   Data           0  euser{000a0000}-604.o(StubCode)
    StubCode                                 0x0000d59c   Section        8  euser{000a0000}-649.o(StubCode)
    theImportedSymbol                        0x0000d5a0   Data           0  euser{000a0000}-649.o(StubCode)
    StubCode                                 0x0000d5a4   Section        8  euser{000a0000}-654.o(StubCode)
    theImportedSymbol                        0x0000d5a8   Data           0  euser{000a0000}-654.o(StubCode)
    StubCode                                 0x0000d5ac   Section        8  euser{000a0000}-669.o(StubCode)
    theImportedSymbol                        0x0000d5b0   Data           0  euser{000a0000}-669.o(StubCode)
    StubCode                                 0x0000d5b4   Section        8  euser{000a0000}-670.o(StubCode)
    theImportedSymbol                        0x0000d5b8   Data           0  euser{000a0000}-670.o(StubCode)
    StubCode                                 0x0000d5bc   Section        8  euser{000a0000}-671.o(StubCode)
    theImportedSymbol                        0x0000d5c0   Data           0  euser{000a0000}-671.o(StubCode)
    StubCode                                 0x0000d5c4   Section        8  euser{000a0000}-752.o(StubCode)
    theImportedSymbol                        0x0000d5c8   Data           0  euser{000a0000}-752.o(StubCode)
    StubCode                                 0x0000d5cc   Section        8  euser{000a0000}-81.o(StubCode)
    theImportedSymbol                        0x0000d5d0   Data           0  euser{000a0000}-81.o(StubCode)
    StubCode                                 0x0000d5d4   Section        8  euser{000a0000}-816.o(StubCode)
    theImportedSymbol                        0x0000d5d8   Data           0  euser{000a0000}-816.o(StubCode)
    StubCode                                 0x0000d5dc   Section        8  euser{000a0000}-881.o(StubCode)
    theImportedSymbol                        0x0000d5e0   Data           0  euser{000a0000}-881.o(StubCode)
    StubCode                                 0x0000d5e4   Section        8  euser{000a0000}-885.o(StubCode)
    theImportedSymbol                        0x0000d5e8   Data           0  euser{000a0000}-885.o(StubCode)
    StubCode                                 0x0000d5ec   Section        8  euser{000a0000}-886.o(StubCode)
    theImportedSymbol                        0x0000d5f0   Data           0  euser{000a0000}-886.o(StubCode)
    StubCode                                 0x0000d5f4   Section        8  euser{000a0000}-887.o(StubCode)
    theImportedSymbol                        0x0000d5f8   Data           0  euser{000a0000}-887.o(StubCode)
    StubCode                                 0x0000d5fc   Section        8  euser{000a0000}-890.o(StubCode)
    theImportedSymbol                        0x0000d600   Data           0  euser{000a0000}-890.o(StubCode)
    StubCode                                 0x0000d604   Section        8  euser{000a0000}-953.o(StubCode)
    theImportedSymbol                        0x0000d608   Data           0  euser{000a0000}-953.o(StubCode)
    StubCode                                 0x0000d60c   Section        8  euser{000a0000}-972.o(StubCode)
    theImportedSymbol                        0x0000d610   Data           0  euser{000a0000}-972.o(StubCode)
    StubCode                                 0x0000d614   Section        8  drtaeabi{000a0000}-147.o(StubCode)
    theImportedSymbol                        0x0000d618   Data           0  drtaeabi{000a0000}-147.o(StubCode)
    StubCode                                 0x0000d61c   Section        8  drtaeabi{000a0000}-158.o(StubCode)
    theImportedSymbol                        0x0000d620   Data           0  drtaeabi{000a0000}-158.o(StubCode)
    StubCode                                 0x0000d624   Section        8  drtaeabi{000a0000}-180.o(StubCode)
    theImportedSymbol                        0x0000d628   Data           0  drtaeabi{000a0000}-180.o(StubCode)
    StubCode                                 0x0000d62c   Section        8  drtaeabi{000a0000}-183.o(StubCode)
    theImportedSymbol                        0x0000d630   Data           0  drtaeabi{000a0000}-183.o(StubCode)
    StubCode                                 0x0000d634   Section        8  drtaeabi{000a0000}-184.o(StubCode)
    theImportedSymbol                        0x0000d638   Data           0  drtaeabi{000a0000}-184.o(StubCode)
    StubCode                                 0x0000d63c   Section        8  drtaeabi{000a0000}-186.o(StubCode)
    theImportedSymbol                        0x0000d640   Data           0  drtaeabi{000a0000}-186.o(StubCode)
    StubCode                                 0x0000d644   Section        8  drtaeabi{000a0000}-187.o(StubCode)
    theImportedSymbol                        0x0000d648   Data           0  drtaeabi{000a0000}-187.o(StubCode)
    StubCode                                 0x0000d64c   Section        8  drtaeabi{000a0000}-188.o(StubCode)
    theImportedSymbol                        0x0000d650   Data           0  drtaeabi{000a0000}-188.o(StubCode)
    StubCode                                 0x0000d654   Section        8  drtaeabi{000a0000}-189.o(StubCode)
    theImportedSymbol                        0x0000d658   Data           0  drtaeabi{000a0000}-189.o(StubCode)
    StubCode                                 0x0000d65c   Section        8  drtaeabi{000a0000}-190.o(StubCode)
    theImportedSymbol                        0x0000d660   Data           0  drtaeabi{000a0000}-190.o(StubCode)
    StubCode                                 0x0000d664   Section        8  drtrvct2_2{000a0000}-28.o(StubCode)
    theImportedSymbol                        0x0000d668   Data           0  drtrvct2_2{000a0000}-28.o(StubCode)
    i._Z8qWarningv                           0x0000d66c   Section       72  qtcontacts_symbiansim.in(i._Z8qWarningv)
    i._Z8qWarningv.clean                     0x0000d6b4   Section       18  qtcontacts_symbiansim.in(i._Z8qWarningv.clean)
    i._ZN10QByteArrayD1Ev                    0x0000d6c6   Section       24  qtcontacts_symbiansim.in(i._ZN10QByteArrayD1Ev)
    i._ZN10QtMobility12QContactName14setCustomLabelERK7QString 0x0000d6e0   Section       32  qtcontacts_symbiansim.in(i._ZN10QtMobility12QContactName14setCustomLabelERK7QString)
    i._ZN10QtMobility12QContactName14setCustomLabelERK7QString.clean 0x0000d700   Section       10  qtcontacts_symbiansim.in(i._ZN10QtMobility12QContactName14setCustomLabelERK7QString.clean)
    i._ZN10QtMobility12QContactNameC1Ev      0x0000d70c   Section       16  qtcontacts_symbiansim.in(i._ZN10QtMobility12QContactNameC1Ev)
    i._ZN10QtMobility12QContactNameD1Ev      0x0000d71c   Section        8  qtcontacts_symbiansim.in(i._ZN10QtMobility12QContactNameD1Ev)
    i._ZN10QtMobility12QContactTypeC1ERKNS_14QContactDetailE 0x0000d724   Section       16  qtcontacts_symbiansim.in(i._ZN10QtMobility12QContactTypeC1ERKNS_14QContactDetailE)
    i._ZN10QtMobility12QContactTypeD1Ev      0x0000d734   Section        8  qtcontacts_symbiansim.in(i._ZN10QtMobility12QContactTypeD1Ev)
    i._ZN10QtMobility16QContactNickname11setNicknameERK7QString 0x0000d73c   Section       32  qtcontacts_symbiansim.in(i._ZN10QtMobility16QContactNickname11setNicknameERK7QString)
    i._ZN10QtMobility16QContactNickname11setNicknameERK7QString.clean 0x0000d75c   Section       10  qtcontacts_symbiansim.in(i._ZN10QtMobility16QContactNickname11setNicknameERK7QString.clean)
    i._ZN10QtMobility16QContactNicknameC1Ev  0x0000d768   Section       16  qtcontacts_symbiansim.in(i._ZN10QtMobility16QContactNicknameC1Ev)
    i._ZN10QtMobility16QContactNicknameD1Ev  0x0000d778   Section        8  qtcontacts_symbiansim.in(i._ZN10QtMobility16QContactNicknameD1Ev)
    i._ZN10QtMobility18QContactSyncTarget13setSyncTargetERK7QString 0x0000d780   Section       32  qtcontacts_symbiansim.in(i._ZN10QtMobility18QContactSyncTarget13setSyncTargetERK7QString)
    i._ZN10QtMobility18QContactSyncTarget13setSyncTargetERK7QString.clean 0x0000d7a0   Section       10  qtcontacts_symbiansim.in(i._ZN10QtMobility18QContactSyncTarget13setSyncTargetERK7QString.clean)
    i._ZN10QtMobility18QContactSyncTargetD1Ev 0x0000d7aa   Section        8  qtcontacts_symbiansim.in(i._ZN10QtMobility18QContactSyncTargetD1Ev)
    i._ZN10QtMobility19QContactPhoneNumber9setNumberERK7QString 0x0000d7b4   Section       32  qtcontacts_symbiansim.in(i._ZN10QtMobility19QContactPhoneNumber9setNumberERK7QString)
    i._ZN10QtMobility19QContactPhoneNumber9setNumberERK7QString.clean 0x0000d7d4   Section       10  qtcontacts_symbiansim.in(i._ZN10QtMobility19QContactPhoneNumber9setNumberERK7QString.clean)
    i._ZN10QtMobility19QContactPhoneNumberC1ERKNS_14QContactDetailE 0x0000d7e0   Section       16  qtcontacts_symbiansim.in(i._ZN10QtMobility19QContactPhoneNumberC1ERKNS_14QContactDetailE)
    i._ZN10QtMobility19QContactPhoneNumberC1ERKS0_ 0x0000d7f0   Section        8  qtcontacts_symbiansim.in(i._ZN10QtMobility19QContactPhoneNumberC1ERKS0_)
    i._ZN10QtMobility19QContactPhoneNumberC1Ev 0x0000d7f8   Section       16  qtcontacts_symbiansim.in(i._ZN10QtMobility19QContactPhoneNumberC1Ev)
    i._ZN10QtMobility19QContactPhoneNumberD1Ev 0x0000d808   Section        8  qtcontacts_symbiansim.in(i._ZN10QtMobility19QContactPhoneNumberD1Ev)
    i._ZN10QtMobility20QContactDetailFilterD1Ev 0x0000d810   Section        8  qtcontacts_symbiansim.in(i._ZN10QtMobility20QContactDetailFilterD1Ev)
    i._ZN10QtMobility20QContactEmailAddress15setEmailAddressERK7QString 0x0000d818   Section       32  qtcontacts_symbiansim.in(i._ZN10QtMobility20QContactEmailAddress15setEmailAddressERK7QString)
    i._ZN10QtMobility20QContactEmailAddress15setEmailAddressERK7QString.clean 0x0000d838   Section       10  qtcontacts_symbiansim.in(i._ZN10QtMobility20QContactEmailAddress15setEmailAddressERK7QString.clean)
    i._ZN10QtMobility20QContactEmailAddressC1Ev 0x0000d844   Section       16  qtcontacts_symbiansim.in(i._ZN10QtMobility20QContactEmailAddressC1Ev)
    i._ZN10QtMobility20QContactEmailAddressD1Ev 0x0000d854   Section        8  qtcontacts_symbiansim.in(i._ZN10QtMobility20QContactEmailAddressD1Ev)
    i._ZN10QtMobility21QContactLocalIdFilterD1Ev 0x0000d85c   Section        8  qtcontacts_symbiansim.in(i._ZN10QtMobility21QContactLocalIdFilterD1Ev)
    i._ZN10QtMobility21QContactManagerEngineC2Ev 0x0000d864   Section       20  qtcontacts_symbiansim.in(i._ZN10QtMobility21QContactManagerEngineC2Ev)
    i._ZN10QtMobility21QContactManagerEngineD2Ev 0x0000d878   Section        8  qtcontacts_symbiansim.in(i._ZN10QtMobility21QContactManagerEngineD2Ev)
    i._ZN11QStringListD1Ev                   0x0000d880   Section        8  qtcontacts_symbiansim.in(i._ZN11QStringListD1Ev)
    i._ZN12SimStoreInfoD1Ev                  0x0000d888   Section        8  qtcontacts_symbiansim.in(i._ZN12SimStoreInfoD1Ev)
    i._ZN15QBasicAtomicInt3refEv             0x0000d890   Section       18  qtcontacts_symbiansim.in(i._ZN15QBasicAtomicInt3refEv)
    i._ZN15QBasicAtomicInt5derefEv           0x0000d8a2   Section       18  qtcontacts_symbiansim.in(i._ZN15QBasicAtomicInt5derefEv)
    i._ZN17QForeachContainerI5QListIN10QtMobility14QContactDetailEEED1Ev 0x0000d8b4   Section        8  qtcontacts_symbiansim.in(i._ZN17QForeachContainerI5QListIN10QtMobility14QContactDetailEEED1Ev)
    i._ZN17QForeachContainerI5QListIN10QtMobility19QContactPhoneNumberEEED1Ev 0x0000d8bc   Section        8  qtcontacts_symbiansim.in(i._ZN17QForeachContainerI5QListIN10QtMobility19QContactPhoneNumberEEED1Ev)
    i._ZN17QForeachContainerI5QListIPN10QtMobility23QContactAbstractRequestEEED1Ev 0x0000d8c4   Section        8  qtcontacts_symbiansim.in(i._ZN17QForeachContainerI5QListIPN10QtMobility23QContactAbstractRequestEEED1Ev)
    i._ZN17QForeachContainerI7QStringED1Ev   0x0000d8cc   Section        8  qtcontacts_symbiansim.in(i._ZN17QForeachContainerI7QStringED1Ev)
    i._ZN20CntSymbianSimFactoryD0Ev          0x0000d8d4   Section       16  qtcontacts_symbiansim.in(i._ZN20CntSymbianSimFactoryD0Ev)
    i._ZN20CntSymbianSimFactoryD1Ev          0x0000d8e4   Section       18  qtcontacts_symbiansim.in(i._ZN20CntSymbianSimFactoryD1Ev)
    i._ZN20CntSymbianSimFactoryD1Ev.clean    0x0000d8f6   Section       10  qtcontacts_symbiansim.in(i._ZN20CntSymbianSimFactoryD1Ev.clean)
    i._ZN21CntAbstractSimRequestD0Ev         0x0000d900   Section       16  qtcontacts_symbiansim.in(i._ZN21CntAbstractSimRequestD0Ev)
    i._ZN21CntAbstractSimRequestD2Ev         0x0000d910   Section        8  qtcontacts_symbiansim.in(i._ZN21CntAbstractSimRequestD2Ev)
    i._ZN6QDebug10maybeSpaceEv               0x0000d918   Section       22  qtcontacts_symbiansim.in(i._ZN6QDebug10maybeSpaceEv)
    i._ZN6QDebugD1Ev                         0x0000d92e   Section      126  qtcontacts_symbiansim.in(i._ZN6QDebugD1Ev)
    i._ZN6QDebugD1Ev.clean                   0x0000d9ac   Section       20  qtcontacts_symbiansim.in(i._ZN6QDebugD1Ev.clean)
    i._ZN6TDes16ixEi                         0x0000d9c0   Section        8  qtcontacts_symbiansim.in(i._ZN6TDes16ixEi)
    i._ZN7QStringC1EPKc                      0x0000d9c8   Section       20  qtcontacts_symbiansim.in(i._ZN7QStringC1EPKc)
    i._ZN7QStringC1ERK13QLatin1String        0x0000d9dc   Section       20  qtcontacts_symbiansim.in(i._ZN7QStringC1ERK13QLatin1String)
    i._ZN7QStringC1ERKS_                     0x0000d9f0   Section       16  qtcontacts_symbiansim.in(i._ZN7QStringC1ERKS_)
    i._ZN7QStringC1Ev                        0x0000da00   Section       20  qtcontacts_symbiansim.in(i._ZN7QStringC1Ev)
    i._ZN7QStringD1Ev                        0x0000da14   Section       24  qtcontacts_symbiansim.in(i._ZN7QStringD1Ev)
    i._ZN7TPtrC163SetERK7TDesC16             0x0000da2c   Section       28  qtcontacts_symbiansim.in(i._ZN7TPtrC163SetERK7TDesC16)
    i._ZN7TPtrC163SetERK7TDesC16.clean       0x0000da48   Section       12  qtcontacts_symbiansim.in(i._ZN7TPtrC163SetERK7TDesC16.clean)
    i._ZN7TPtrC163SetERKS_                   0x0000da54   Section       26  qtcontacts_symbiansim.in(i._ZN7TPtrC163SetERKS_)
    i._ZNK10QtMobility12QContactName11customLabelEv 0x0000da70   Section       16  qtcontacts_symbiansim.in(i._ZNK10QtMobility12QContactName11customLabelEv)
    i._ZNK10QtMobility19QContactPhoneNumber6numberEv 0x0000da80   Section       16  qtcontacts_symbiansim.in(i._ZNK10QtMobility19QContactPhoneNumber6numberEv)
    i._ZNK15QBasicAtomicInteqEi              0x0000da90   Section       14  qtcontacts_symbiansim.in(i._ZNK15QBasicAtomicInteqEi)
    i._ZNK15QBasicAtomicIntneEi              0x0000da9e   Section       14  qtcontacts_symbiansim.in(i._ZNK15QBasicAtomicIntneEi)
    i._ZNK19CntSymbianSimEngine14managerVersionEv 0x0000daac   Section        4  qtcontacts_symbiansim.in(i._ZNK19CntSymbianSimEngine14managerVersionEv)
    i._ZNK19CntSymbianSimEngine18supportedDataTypesEv 0x0000dab0   Section        8  qtcontacts_symbiansim.in(i._ZNK19CntSymbianSimEngine18supportedDataTypesEv)
    i._ZNK7QString7isEmptyEv                 0x0000dab8   Section       16  qtcontacts_symbiansim.in(i._ZNK7QString7isEmptyEv)
    i._ZNK9QListData2atEi                    0x0000dac8   Section       16  qtcontacts_symbiansim.in(i._ZNK9QListData2atEi)
    i._ZNK9QListData3endEv                   0x0000dad8   Section       12  qtcontacts_symbiansim.in(i._ZNK9QListData3endEv)
    i._ZNK9QListData5beginEv                 0x0000dae4   Section       12  qtcontacts_symbiansim.in(i._ZNK9QListData5beginEv)
    i._ZThn8_N20CntSymbianSimFactoryD0Ev     0x0000daf0   Section       10  qtcontacts_symbiansim.in(i._ZThn8_N20CntSymbianSimFactoryD0Ev)
    i._ZThn8_N20CntSymbianSimFactoryD1Ev     0x0000dafa   Section       10  qtcontacts_symbiansim.in(i._ZThn8_N20CntSymbianSimFactoryD1Ev)
    i._ZdlPvS_                               0x0000db04   Section        2  qtcontacts_symbiansim.in(i._ZdlPvS_)
    i._Zne5QCharS_                           0x0000db06   Section       20  qtcontacts_symbiansim.in(i._Zne5QCharS_)
    i._ZnwjPv                                0x0000db1a   Section        4  qtcontacts_symbiansim.in(i._ZnwjPv)
    t._Z15qMapLessThanKeyI7QStringEbRKT_S3_  0x0000db1e   Section        8  qtcontacts_symbiansim.in(t._Z15qMapLessThanKeyI7QStringEbRKT_S3_)
    t._Z15qMapLessThanKeyIPN10QtMobility23QContactAbstractRequestEEbRKT_S5_ 0x0000db26   Section       16  qtcontacts_symbiansim.in(t._Z15qMapLessThanKeyIPN10QtMobility23QContactAbstractRequestEEbRKT_S5_)
    t._Z15qMapLessThanKeyIiEbRKT_S2_         0x0000db36   Section       16  qtcontacts_symbiansim.in(t._Z15qMapLessThanKeyIiEbRKT_S2_)
    t._Z21qMetaTypeDeleteHelperI5QListIN10QtMobility8QContactEEEvPT_ 0x0000db46   Section       36  qtcontacts_symbiansim.in(t._Z21qMetaTypeDeleteHelperI5QListIN10QtMobility8QContactEEEvPT_)
    t._Z21qMetaTypeDeleteHelperI5QListIiEEvPT_ 0x0000db6a   Section       36  qtcontacts_symbiansim.in(t._Z21qMetaTypeDeleteHelperI5QListIiEEvPT_)
    t._Z21qMetaTypeDeleteHelperIN10QtMobility15QContactManager5ErrorEEvPT_ 0x0000db8e   Section        8  qtcontacts_symbiansim.in(t._Z21qMetaTypeDeleteHelperIN10QtMobility15QContactManager5ErrorEEvPT_)
    t._Z21qMetaTypeDeleteHelperIN10QtMobility8QContactEEvPT_ 0x0000db96   Section       16  qtcontacts_symbiansim.in(t._Z21qMetaTypeDeleteHelperIN10QtMobility8QContactEEvPT_)
    t._Z24qMetaTypeConstructHelperI5QListIN10QtMobility8QContactEEEPvPKT_ 0x0000dba8   Section       76  qtcontacts_symbiansim.in(t._Z24qMetaTypeConstructHelperI5QListIN10QtMobility8QContactEEEPvPKT_)
    t._Z24qMetaTypeConstructHelperI5QListIN10QtMobility8QContactEEEPvPKT_.clean 0x0000dbf4   Section       14  qtcontacts_symbiansim.in(t._Z24qMetaTypeConstructHelperI5QListIN10QtMobility8QContactEEEPvPKT_.clean)
    t._Z24qMetaTypeConstructHelperI5QListIiEEPvPKT_ 0x0000dc04   Section       76  qtcontacts_symbiansim.in(t._Z24qMetaTypeConstructHelperI5QListIiEEPvPKT_)
    t._Z24qMetaTypeConstructHelperI5QListIiEEPvPKT_.clean 0x0000dc50   Section       14  qtcontacts_symbiansim.in(t._Z24qMetaTypeConstructHelperI5QListIiEEPvPKT_.clean)
    t._Z24qMetaTypeConstructHelperIN10QtMobility15QContactManager5ErrorEEPvPKT_ 0x0000dc5e   Section       34  qtcontacts_symbiansim.in(t._Z24qMetaTypeConstructHelperIN10QtMobility15QContactManager5ErrorEEPvPKT_)
    t._Z24qMetaTypeConstructHelperIN10QtMobility8QContactEEPvPKT_ 0x0000dc80   Section       48  qtcontacts_symbiansim.in(t._Z24qMetaTypeConstructHelperIN10QtMobility8QContactEEPvPKT_)
    t._Z24qMetaTypeConstructHelperIN10QtMobility8QContactEEPvPKT_.clean 0x0000dcb0   Section       16  qtcontacts_symbiansim.in(t._Z24qMetaTypeConstructHelperIN10QtMobility8QContactEEPvPKT_.clean)
    t._ZN10QtMobilityeqILi12EEEbRK7QStringRKNS_15QLatin1ConstantIXT_EEE 0x0000dcc0   Section       12  qtcontacts_symbiansim.in(t._ZN10QtMobilityeqILi12EEEbRK7QStringRKNS_15QLatin1ConstantIXT_EEE)
    t._ZN10QtMobilityeqILi13EEEbRK7QStringRKNS_15QLatin1ConstantIXT_EEE 0x0000dccc   Section       12  qtcontacts_symbiansim.in(t._ZN10QtMobilityeqILi13EEEbRK7QStringRKNS_15QLatin1ConstantIXT_EEE)
    t._ZN10QtMobilityeqILi3EEEbRK7QStringRKNS_15QLatin1ConstantIXT_EEE 0x0000dcd8   Section       12  qtcontacts_symbiansim.in(t._ZN10QtMobilityeqILi3EEEbRK7QStringRKNS_15QLatin1ConstantIXT_EEE)
    t._ZN10QtMobilityeqILi4EEEbRK7QStringRKNS_15QLatin1ConstantIXT_EEE 0x0000dce4   Section       12  qtcontacts_symbiansim.in(t._ZN10QtMobilityeqILi4EEEbRK7QStringRKNS_15QLatin1ConstantIXT_EEE)
    t._ZN10QtMobilityeqILi5EEEbRK7QStringRKNS_15QLatin1ConstantIXT_EEE 0x0000dcf0   Section       12  qtcontacts_symbiansim.in(t._ZN10QtMobilityeqILi5EEEbRK7QStringRKNS_15QLatin1ConstantIXT_EEE)
    t._ZN14QScopedPointerIN10QtMobility10QContactIdE21QScopedPointerDeleterIS1_EED1Ev 0x0000dcfc   Section       26  qtcontacts_symbiansim.in(t._ZN14QScopedPointerIN10QtMobility10QContactIdE21QScopedPointerDeleterIS1_EED1Ev)
    t._ZN28QExplicitlySharedDataPointerI23CntSymbianSimEngineDataED1Ev 0x0000dd16   Section       36  qtcontacts_symbiansim.in(t._ZN28QExplicitlySharedDataPointerI23CntSymbianSimEngineDataED1Ev)
    t._ZN4QMapI7QStringN10QtMobility24QContactDetailDefinitionEE11node_createEP8QMapDataPPNS4_4NodeERKS0_RKS2_ 0x0000dd3a   Section      106  qtcontacts_symbiansim.in(t._ZN4QMapI7QStringN10QtMobility24QContactDetailDefinitionEE11node_createEP8QMapDataPPNS4_4NodeERKS0_RKS2_)
    t._ZN4QMapI7QStringN10QtMobility24QContactDetailDefinitionEE11node_createEP8QMapDataPPNS4_4NodeERKS0_RKS2_.clean 0x0000dda4   Section       38  qtcontacts_symbiansim.in(t._ZN4QMapI7QStringN10QtMobility24QContactDetailDefinitionEE11node_createEP8QMapDataPPNS4_4NodeERKS0_RKS2_.clean)
    t._ZN4QMapI7QStringN10QtMobility24QContactDetailDefinitionEE13detach_helperEv 0x0000ddca   Section      114  qtcontacts_symbiansim.in(t._ZN4QMapI7QStringN10QtMobility24QContactDetailDefinitionEE13detach_helperEv)
    t._ZN4QMapI7QStringN10QtMobility24QContactDetailDefinitionEE13detach_helperEv.clean 0x0000de3c   Section        8  qtcontacts_symbiansim.in(t._ZN4QMapI7QStringN10QtMobility24QContactDetailDefinitionEE13detach_helperEv.clean)
    t._ZN4QMapI7QStringN10QtMobility24QContactDetailDefinitionEE6detachEv 0x0000de44   Section       26  qtcontacts_symbiansim.in(t._ZN4QMapI7QStringN10QtMobility24QContactDetailDefinitionEE6detachEv)
    t._ZN4QMapI7QStringN10QtMobility24QContactDetailDefinitionEE6insertERKS0_RKS2_ 0x0000de5e   Section      128  qtcontacts_symbiansim.in(t._ZN4QMapI7QStringN10QtMobility24QContactDetailDefinitionEE6insertERKS0_RKS2_)
    t._ZN4QMapI7QStringN10QtMobility24QContactDetailDefinitionEE8freeDataEP8QMapData 0x0000dede   Section       42  qtcontacts_symbiansim.in(t._ZN4QMapI7QStringN10QtMobility24QContactDetailDefinitionEE8freeDataEP8QMapData)
    t._ZN4QMapI7QStringN10QtMobility24QContactDetailDefinitionEEC1Ev 0x0000df08   Section       24  qtcontacts_symbiansim.in(t._ZN4QMapI7QStringN10QtMobility24QContactDetailDefinitionEEC1Ev)
    t._ZN4QMapI7QStringN10QtMobility24QContactDetailDefinitionEED1Ev 0x0000df20   Section       32  qtcontacts_symbiansim.in(t._ZN4QMapI7QStringN10QtMobility24QContactDetailDefinitionEED1Ev)
    t._ZN4QMapI7QStringN10QtMobility29QContactDetailFieldDefinitionEE11node_createEP8QMapDataPPNS4_4NodeERKS0_RKS2_ 0x0000df40   Section      106  qtcontacts_symbiansim.in(t._ZN4QMapI7QStringN10QtMobility29QContactDetailFieldDefinitionEE11node_createEP8QMapDataPPNS4_4NodeERKS0_RKS2_)
    t._ZN4QMapI7QStringN10QtMobility29QContactDetailFieldDefinitionEE11node_createEP8QMapDataPPNS4_4NodeERKS0_RKS2_.clean 0x0000dfaa   Section       38  qtcontacts_symbiansim.in(t._ZN4QMapI7QStringN10QtMobility29QContactDetailFieldDefinitionEE11node_createEP8QMapDataPPNS4_4NodeERKS0_RKS2_.clean)
    t._ZN4QMapI7QStringN10QtMobility29QContactDetailFieldDefinitionEE13detach_helperEv 0x0000dfd0   Section      114  qtcontacts_symbiansim.in(t._ZN4QMapI7QStringN10QtMobility29QContactDetailFieldDefinitionEE13detach_helperEv)
    t._ZN4QMapI7QStringN10QtMobility29QContactDetailFieldDefinitionEE13detach_helperEv.clean 0x0000e042   Section        8  qtcontacts_symbiansim.in(t._ZN4QMapI7QStringN10QtMobility29QContactDetailFieldDefinitionEE13detach_helperEv.clean)
    t._ZN4QMapI7QStringN10QtMobility29QContactDetailFieldDefinitionEE5clearEv 0x0000e04a   Section       68  qtcontacts_symbiansim.in(t._ZN4QMapI7QStringN10QtMobility29QContactDetailFieldDefinitionEE5clearEv)
    t._ZN4QMapI7QStringN10QtMobility29QContactDetailFieldDefinitionEE5clearEv.clean 0x0000e08e   Section       10  qtcontacts_symbiansim.in(t._ZN4QMapI7QStringN10QtMobility29QContactDetailFieldDefinitionEE5clearEv.clean)
    t._ZN4QMapI7QStringN10QtMobility29QContactDetailFieldDefinitionEE6insertERKS0_RKS2_ 0x0000e098   Section      140  qtcontacts_symbiansim.in(t._ZN4QMapI7QStringN10QtMobility29QContactDetailFieldDefinitionEE6insertERKS0_RKS2_)
    t._ZN4QMapI7QStringN10QtMobility29QContactDetailFieldDefinitionEE8freeDataEP8QMapData 0x0000e124   Section       42  qtcontacts_symbiansim.in(t._ZN4QMapI7QStringN10QtMobility29QContactDetailFieldDefinitionEE8freeDataEP8QMapData)
    t._ZN4QMapI7QStringN10QtMobility29QContactDetailFieldDefinitionEEC1Ev 0x0000e150   Section       24  qtcontacts_symbiansim.in(t._ZN4QMapI7QStringN10QtMobility29QContactDetailFieldDefinitionEEC1Ev)
    t._ZN4QMapI7QStringN10QtMobility29QContactDetailFieldDefinitionEED1Ev 0x0000e168   Section       32  qtcontacts_symbiansim.in(t._ZN4QMapI7QStringN10QtMobility29QContactDetailFieldDefinitionEED1Ev)
    t._ZN4QMapIPN10QtMobility23QContactAbstractRequestEP21CntAbstractSimRequestE11node_createEP8QMapDataPPNS6_4NodeERKS2_RKS4_ 0x0000e188   Section       60  qtcontacts_symbiansim.in(t._ZN4QMapIPN10QtMobility23QContactAbstractRequestEP21CntAbstractSimRequestE11node_createEP8QMapDataPPNS6_4NodeERKS2_RKS4_)
    t._ZN4QMapIPN10QtMobility23QContactAbstractRequestEP21CntAbstractSimRequestE13detach_helperEv 0x0000e1c4   Section      114  qtcontacts_symbiansim.in(t._ZN4QMapIPN10QtMobility23QContactAbstractRequestEP21CntAbstractSimRequestE13detach_helperEv)
    t._ZN4QMapIPN10QtMobility23QContactAbstractRequestEP21CntAbstractSimRequestE13detach_helperEv.clean 0x0000e236   Section        8  qtcontacts_symbiansim.in(t._ZN4QMapIPN10QtMobility23QContactAbstractRequestEP21CntAbstractSimRequestE13detach_helperEv.clean)
    t._ZN4QMapIPN10QtMobility23QContactAbstractRequestEP21CntAbstractSimRequestE4takeERKS2_ 0x0000e23e   Section      114  qtcontacts_symbiansim.in(t._ZN4QMapIPN10QtMobility23QContactAbstractRequestEP21CntAbstractSimRequestE4takeERKS2_)
    t._ZN4QMapIPN10QtMobility23QContactAbstractRequestEP21CntAbstractSimRequestE6detachEv 0x0000e2b0   Section       26  qtcontacts_symbiansim.in(t._ZN4QMapIPN10QtMobility23QContactAbstractRequestEP21CntAbstractSimRequestE6detachEv)
    t._ZN4QMapIPN10QtMobility23QContactAbstractRequestEP21CntAbstractSimRequestE6removeERKS2_ 0x0000e2ca   Section      150  qtcontacts_symbiansim.in(t._ZN4QMapIPN10QtMobility23QContactAbstractRequestEP21CntAbstractSimRequestE6removeERKS2_)
    t._ZN4QMapIPN10QtMobility23QContactAbstractRequestEP21CntAbstractSimRequestE8freeDataEP8QMapData 0x0000e360   Section       12  qtcontacts_symbiansim.in(t._ZN4QMapIPN10QtMobility23QContactAbstractRequestEP21CntAbstractSimRequestE8freeDataEP8QMapData)
    t._ZN4QMapIPN10QtMobility23QContactAbstractRequestEP21CntAbstractSimRequestED1Ev 0x0000e36c   Section       32  qtcontacts_symbiansim.in(t._ZN4QMapIPN10QtMobility23QContactAbstractRequestEP21CntAbstractSimRequestED1Ev)
    t._ZN4QMapIiN10QtMobility15QContactManager5ErrorEE11node_createEP8QMapDataPPNS4_4NodeERKiRKS2_ 0x0000e38c   Section       60  qtcontacts_symbiansim.in(t._ZN4QMapIiN10QtMobility15QContactManager5ErrorEE11node_createEP8QMapDataPPNS4_4NodeERKiRKS2_)
    t._ZN4QMapIiN10QtMobility15QContactManager5ErrorEE13detach_helperEv 0x0000e3c8   Section      114  qtcontacts_symbiansim.in(t._ZN4QMapIiN10QtMobility15QContactManager5ErrorEE13detach_helperEv)
    t._ZN4QMapIiN10QtMobility15QContactManager5ErrorEE13detach_helperEv.clean 0x0000e43a   Section        8  qtcontacts_symbiansim.in(t._ZN4QMapIiN10QtMobility15QContactManager5ErrorEE13detach_helperEv.clean)
    t._ZN4QMapIiN10QtMobility15QContactManager5ErrorEE6detachEv 0x0000e442   Section       16  qtcontacts_symbiansim.in(t._ZN4QMapIiN10QtMobility15QContactManager5ErrorEE6detachEv)
    t._ZN4QMapIiN10QtMobility15QContactManager5ErrorEE6insertERKiRKS2_ 0x0000e452   Section      130  qtcontacts_symbiansim.in(t._ZN4QMapIiN10QtMobility15QContactManager5ErrorEE6insertERKiRKS2_)
    t._ZN4QMapIiN10QtMobility15QContactManager5ErrorEE8freeDataEP8QMapData 0x0000e4d4   Section       22  qtcontacts_symbiansim.in(t._ZN4QMapIiN10QtMobility15QContactManager5ErrorEE8freeDataEP8QMapData)
    t._ZN4QMapIiN10QtMobility15QContactManager5ErrorEEC1Ev 0x0000e4ec   Section       24  qtcontacts_symbiansim.in(t._ZN4QMapIiN10QtMobility15QContactManager5ErrorEEC1Ev)
    t._ZN4QMapIiN10QtMobility15QContactManager5ErrorEED1Ev 0x0000e504   Section       32  qtcontacts_symbiansim.in(t._ZN4QMapIiN10QtMobility15QContactManager5ErrorEED1Ev)
    t._ZN4QMapIiN10QtMobility15QContactManager5ErrorEEaSERKS3_ 0x0000e524   Section       58  qtcontacts_symbiansim.in(t._ZN4QMapIiN10QtMobility15QContactManager5ErrorEEaSERKS3_)
    t._ZN5QListI7QStringE13detach_helperEv   0x0000e55e   Section       88  qtcontacts_symbiansim.in(t._ZN5QListI7QStringE13detach_helperEv)
    t._ZN5QListI7QStringE13detach_helperEv.clean 0x0000e5b6   Section        8  qtcontacts_symbiansim.in(t._ZN5QListI7QStringE13detach_helperEv.clean)
    t._ZN5QListI7QStringE14node_constructEPNS1_4NodeERKS0_ 0x0000e5be   Section       26  qtcontacts_symbiansim.in(t._ZN5QListI7QStringE14node_constructEPNS1_4NodeERKS0_)
    t._ZN5QListI7QStringE14node_constructEPNS1_4NodeERKS0_.clean 0x0000e5d8   Section       12  qtcontacts_symbiansim.in(t._ZN5QListI7QStringE14node_constructEPNS1_4NodeERKS0_.clean)
    t._ZN5QListI7QStringE18detach_helper_growEii 0x0000e5e4   Section      186  qtcontacts_symbiansim.in(t._ZN5QListI7QStringE18detach_helper_growEii)
    t._ZN5QListI7QStringE18detach_helper_growEii.clean 0x0000e69e   Section        8  qtcontacts_symbiansim.in(t._ZN5QListI7QStringE18detach_helper_growEii.clean)
    t._ZN5QListI7QStringE4freeEPN9QListData4DataE 0x0000e6a6   Section       54  qtcontacts_symbiansim.in(t._ZN5QListI7QStringE4freeEPN9QListData4DataE)
    t._ZN5QListI7QStringE6appendERKS0_       0x0000e6dc   Section      100  qtcontacts_symbiansim.in(t._ZN5QListI7QStringE6appendERKS0_)
    t._ZN5QListI7QStringE6appendERKS0_.clean 0x0000e740   Section        8  qtcontacts_symbiansim.in(t._ZN5QListI7QStringE6appendERKS0_.clean)
    t._ZN5QListI7QStringE9node_copyEPNS1_4NodeES3_S3_ 0x0000e748   Section       70  qtcontacts_symbiansim.in(t._ZN5QListI7QStringE9node_copyEPNS1_4NodeES3_S3_)
    t._ZN5QListI7QStringE9node_copyEPNS1_4NodeES3_S3_.clean 0x0000e78e   Section       22  qtcontacts_symbiansim.in(t._ZN5QListI7QStringE9node_copyEPNS1_4NodeES3_S3_.clean)
    t._ZN5QListI7QStringED1Ev                0x0000e7a4   Section       30  qtcontacts_symbiansim.in(t._ZN5QListI7QStringED1Ev)
    t._ZN5QListI8QVariantE13detach_helperEv  0x0000e7c2   Section       88  qtcontacts_symbiansim.in(t._ZN5QListI8QVariantE13detach_helperEv)
    t._ZN5QListI8QVariantE13detach_helperEv.clean 0x0000e81a   Section        8  qtcontacts_symbiansim.in(t._ZN5QListI8QVariantE13detach_helperEv.clean)
    t._ZN5QListI8QVariantE13node_destructEPNS1_4NodeES3_ 0x0000e822   Section       30  qtcontacts_symbiansim.in(t._ZN5QListI8QVariantE13node_destructEPNS1_4NodeES3_)
    t._ZN5QListI8QVariantE14node_constructEPNS1_4NodeERKS0_ 0x0000e840   Section       32  qtcontacts_symbiansim.in(t._ZN5QListI8QVariantE14node_constructEPNS1_4NodeERKS0_)
    t._ZN5QListI8QVariantE14node_constructEPNS1_4NodeERKS0_.clean 0x0000e860   Section       10  qtcontacts_symbiansim.in(t._ZN5QListI8QVariantE14node_constructEPNS1_4NodeERKS0_.clean)
    t._ZN5QListI8QVariantE18detach_helper_growEii 0x0000e86a   Section      180  qtcontacts_symbiansim.in(t._ZN5QListI8QVariantE18detach_helper_growEii)
    t._ZN5QListI8QVariantE18detach_helper_growEii.clean 0x0000e91e   Section        8  qtcontacts_symbiansim.in(t._ZN5QListI8QVariantE18detach_helper_growEii.clean)
    t._ZN5QListI8QVariantE4freeEPN9QListData4DataE 0x0000e926   Section       44  qtcontacts_symbiansim.in(t._ZN5QListI8QVariantE4freeEPN9QListData4DataE)
    t._ZN5QListI8QVariantE5clearEv           0x0000e952   Section       64  qtcontacts_symbiansim.in(t._ZN5QListI8QVariantE5clearEv)
    t._ZN5QListI8QVariantE5clearEv.clean     0x0000e992   Section       10  qtcontacts_symbiansim.in(t._ZN5QListI8QVariantE5clearEv.clean)
    t._ZN5QListI8QVariantE6appendERKS0_      0x0000e99c   Section       96  qtcontacts_symbiansim.in(t._ZN5QListI8QVariantE6appendERKS0_)
    t._ZN5QListI8QVariantE6appendERKS0_.clean 0x0000e9fc   Section        8  qtcontacts_symbiansim.in(t._ZN5QListI8QVariantE6appendERKS0_.clean)
    t._ZN5QListI8QVariantE9node_copyEPNS1_4NodeES3_S3_ 0x0000ea04   Section       80  qtcontacts_symbiansim.in(t._ZN5QListI8QVariantE9node_copyEPNS1_4NodeES3_S3_)
    t._ZN5QListI8QVariantE9node_copyEPNS1_4NodeES3_S3_.clean 0x0000ea54   Section       18  qtcontacts_symbiansim.in(t._ZN5QListI8QVariantE9node_copyEPNS1_4NodeES3_S3_.clean)
    t._ZN5QListI8QVariantEC1ERKS1_           0x0000ea66   Section       30  qtcontacts_symbiansim.in(t._ZN5QListI8QVariantEC1ERKS1_)
    t._ZN5QListI8QVariantEC1Ev               0x0000ea84   Section       20  qtcontacts_symbiansim.in(t._ZN5QListI8QVariantEC1Ev)
    t._ZN5QListI8QVariantED1Ev               0x0000ea98   Section       30  qtcontacts_symbiansim.in(t._ZN5QListI8QVariantED1Ev)
    t._ZN5QListIN10QtMobility14QContactDetailEE13detach_helperEi 0x0000eab6   Section      142  qtcontacts_symbiansim.in(t._ZN5QListIN10QtMobility14QContactDetailEE13detach_helperEi)
    t._ZN5QListIN10QtMobility14QContactDetailEE13detach_helperEi.clean 0x0000eb44   Section       20  qtcontacts_symbiansim.in(t._ZN5QListIN10QtMobility14QContactDetailEE13detach_helperEi.clean)
    t._ZN5QListIN10QtMobility14QContactDetailEE4freeEPN9QListData4DataE 0x0000eb58   Section       48  qtcontacts_symbiansim.in(t._ZN5QListIN10QtMobility14QContactDetailEE4freeEPN9QListData4DataE)
    t._ZN5QListIN10QtMobility14QContactDetailEED1Ev 0x0000eb88   Section       30  qtcontacts_symbiansim.in(t._ZN5QListIN10QtMobility14QContactDetailEED1Ev)
    t._ZN5QListIN10QtMobility17QContactSortOrderEED1Ev 0x0000eba6   Section       66  qtcontacts_symbiansim.in(t._ZN5QListIN10QtMobility17QContactSortOrderEED1Ev)
    t._ZN5QListIN10QtMobility19QContactPhoneNumberEE13detach_helperEv 0x0000ebe8   Section       88  qtcontacts_symbiansim.in(t._ZN5QListIN10QtMobility19QContactPhoneNumberEE13detach_helperEv)
    t._ZN5QListIN10QtMobility19QContactPhoneNumberEE13detach_helperEv.clean 0x0000ec40   Section        8  qtcontacts_symbiansim.in(t._ZN5QListIN10QtMobility19QContactPhoneNumberEE13detach_helperEv.clean)
    t._ZN5QListIN10QtMobility19QContactPhoneNumberEE13node_destructEPNS2_4NodeES4_ 0x0000ec48   Section       30  qtcontacts_symbiansim.in(t._ZN5QListIN10QtMobility19QContactPhoneNumberEE13node_destructEPNS2_4NodeES4_)
    t._ZN5QListIN10QtMobility19QContactPhoneNumberEE14node_constructEPNS2_4NodeERKS1_ 0x0000ec66   Section       32  qtcontacts_symbiansim.in(t._ZN5QListIN10QtMobility19QContactPhoneNumberEE14node_constructEPNS2_4NodeERKS1_)
    t._ZN5QListIN10QtMobility19QContactPhoneNumberEE14node_constructEPNS2_4NodeERKS1_.clean 0x0000ec86   Section       10  qtcontacts_symbiansim.in(t._ZN5QListIN10QtMobility19QContactPhoneNumberEE14node_constructEPNS2_4NodeERKS1_.clean)
    t._ZN5QListIN10QtMobility19QContactPhoneNumberEE18detach_helper_growEii 0x0000ec90   Section      180  qtcontacts_symbiansim.in(t._ZN5QListIN10QtMobility19QContactPhoneNumberEE18detach_helper_growEii)
    t._ZN5QListIN10QtMobility19QContactPhoneNumberEE18detach_helper_growEii.clean 0x0000ed44   Section        8  qtcontacts_symbiansim.in(t._ZN5QListIN10QtMobility19QContactPhoneNumberEE18detach_helper_growEii.clean)
    t._ZN5QListIN10QtMobility19QContactPhoneNumberEE4freeEPN9QListData4DataE 0x0000ed4c   Section       44  qtcontacts_symbiansim.in(t._ZN5QListIN10QtMobility19QContactPhoneNumberEE4freeEPN9QListData4DataE)
    t._ZN5QListIN10QtMobility19QContactPhoneNumberEE6appendERKS1_ 0x0000ed78   Section       96  qtcontacts_symbiansim.in(t._ZN5QListIN10QtMobility19QContactPhoneNumberEE6appendERKS1_)
    t._ZN5QListIN10QtMobility19QContactPhoneNumberEE6appendERKS1_.clean 0x0000edd8   Section        8  qtcontacts_symbiansim.in(t._ZN5QListIN10QtMobility19QContactPhoneNumberEE6appendERKS1_.clean)
    t._ZN5QListIN10QtMobility19QContactPhoneNumberEE9node_copyEPNS2_4NodeES4_S4_ 0x0000ede0   Section       80  qtcontacts_symbiansim.in(t._ZN5QListIN10QtMobility19QContactPhoneNumberEE9node_copyEPNS2_4NodeES4_S4_)
    t._ZN5QListIN10QtMobility19QContactPhoneNumberEE9node_copyEPNS2_4NodeES4_S4_.clean 0x0000ee30   Section       18  qtcontacts_symbiansim.in(t._ZN5QListIN10QtMobility19QContactPhoneNumberEE9node_copyEPNS2_4NodeES4_S4_.clean)
    t._ZN5QListIN10QtMobility19QContactPhoneNumberEED1Ev 0x0000ee42   Section       30  qtcontacts_symbiansim.in(t._ZN5QListIN10QtMobility19QContactPhoneNumberEED1Ev)
    t._ZN5QListIN10QtMobility8QContactEE13detach_helperEi 0x0000ee60   Section      142  qtcontacts_symbiansim.in(t._ZN5QListIN10QtMobility8QContactEE13detach_helperEi)
    t._ZN5QListIN10QtMobility8QContactEE13detach_helperEi.clean 0x0000eeee   Section       20  qtcontacts_symbiansim.in(t._ZN5QListIN10QtMobility8QContactEE13detach_helperEi.clean)
    t._ZN5QListIN10QtMobility8QContactEE13detach_helperEv 0x0000ef02   Section       12  qtcontacts_symbiansim.in(t._ZN5QListIN10QtMobility8QContactEE13detach_helperEv)
    t._ZN5QListIN10QtMobility8QContactEE14node_constructEPNS2_4NodeERKS1_ 0x0000ef0e   Section       26  qtcontacts_symbiansim.in(t._ZN5QListIN10QtMobility8QContactEE14node_constructEPNS2_4NodeERKS1_)
    t._ZN5QListIN10QtMobility8QContactEE14node_constructEPNS2_4NodeERKS1_.clean 0x0000ef28   Section       12  qtcontacts_symbiansim.in(t._ZN5QListIN10QtMobility8QContactEE14node_constructEPNS2_4NodeERKS1_.clean)
    t._ZN5QListIN10QtMobility8QContactEE18detach_helper_growEii 0x0000ef34   Section      186  qtcontacts_symbiansim.in(t._ZN5QListIN10QtMobility8QContactEE18detach_helper_growEii)
    t._ZN5QListIN10QtMobility8QContactEE18detach_helper_growEii.clean 0x0000efee   Section        8  qtcontacts_symbiansim.in(t._ZN5QListIN10QtMobility8QContactEE18detach_helper_growEii.clean)
    t._ZN5QListIN10QtMobility8QContactEE4freeEPN9QListData4DataE 0x0000eff6   Section       48  qtcontacts_symbiansim.in(t._ZN5QListIN10QtMobility8QContactEE4freeEPN9QListData4DataE)
    t._ZN5QListIN10QtMobility8QContactEE6appendERKS1_ 0x0000f028   Section      100  qtcontacts_symbiansim.in(t._ZN5QListIN10QtMobility8QContactEE6appendERKS1_)
    t._ZN5QListIN10QtMobility8QContactEE6appendERKS1_.clean 0x0000f08c   Section        8  qtcontacts_symbiansim.in(t._ZN5QListIN10QtMobility8QContactEE6appendERKS1_.clean)
    t._ZN5QListIN10QtMobility8QContactEE6detachEv 0x0000f094   Section       24  qtcontacts_symbiansim.in(t._ZN5QListIN10QtMobility8QContactEE6detachEv)
    t._ZN5QListIN10QtMobility8QContactEE9node_copyEPNS2_4NodeES4_S4_ 0x0000f0ac   Section       70  qtcontacts_symbiansim.in(t._ZN5QListIN10QtMobility8QContactEE9node_copyEPNS2_4NodeES4_S4_)
    t._ZN5QListIN10QtMobility8QContactEE9node_copyEPNS2_4NodeES4_S4_.clean 0x0000f0f2   Section       22  qtcontacts_symbiansim.in(t._ZN5QListIN10QtMobility8QContactEE9node_copyEPNS2_4NodeES4_S4_.clean)
    t._ZN5QListIN10QtMobility8QContactEEC1ERKS2_ 0x0000f108   Section       30  qtcontacts_symbiansim.in(t._ZN5QListIN10QtMobility8QContactEEC1ERKS2_)
    t._ZN5QListIN10QtMobility8QContactEEC1Ev 0x0000f128   Section       20  qtcontacts_symbiansim.in(t._ZN5QListIN10QtMobility8QContactEEC1Ev)
    t._ZN5QListIN10QtMobility8QContactEED1Ev 0x0000f13c   Section       30  qtcontacts_symbiansim.in(t._ZN5QListIN10QtMobility8QContactEED1Ev)
    t._ZN5QListIPN10QtMobility23QContactAbstractRequestEE13detach_helperEi 0x0000f15a   Section       86  qtcontacts_symbiansim.in(t._ZN5QListIPN10QtMobility23QContactAbstractRequestEE13detach_helperEi)
    t._ZN5QListIPN10QtMobility23QContactAbstractRequestEE13detach_helperEi.clean 0x0000f1b0   Section        8  qtcontacts_symbiansim.in(t._ZN5QListIPN10QtMobility23QContactAbstractRequestEE13detach_helperEi.clean)
    t._ZN5QListIPN10QtMobility23QContactAbstractRequestEE18detach_helper_growEii 0x0000f1b8   Section      164  qtcontacts_symbiansim.in(t._ZN5QListIPN10QtMobility23QContactAbstractRequestEE18detach_helper_growEii)
    t._ZN5QListIPN10QtMobility23QContactAbstractRequestEE18detach_helper_growEii.clean 0x0000f25c   Section        8  qtcontacts_symbiansim.in(t._ZN5QListIPN10QtMobility23QContactAbstractRequestEE18detach_helper_growEii.clean)
    t._ZN5QListIPN10QtMobility23QContactAbstractRequestEE4freeEPN9QListData4DataE 0x0000f264   Section       24  qtcontacts_symbiansim.in(t._ZN5QListIPN10QtMobility23QContactAbstractRequestEE4freeEPN9QListData4DataE)
    t._ZN5QListIPN10QtMobility23QContactAbstractRequestEE9node_copyEPNS3_4NodeES5_S5_ 0x0000f27c   Section       28  qtcontacts_symbiansim.in(t._ZN5QListIPN10QtMobility23QContactAbstractRequestEE9node_copyEPNS3_4NodeES5_S5_)
    t._ZN5QListIPN10QtMobility23QContactAbstractRequestEED1Ev 0x0000f298   Section       30  qtcontacts_symbiansim.in(t._ZN5QListIPN10QtMobility23QContactAbstractRequestEED1Ev)
    t._ZN5QListIiE13detach_helperEi          0x0000f2b6   Section       96  qtcontacts_symbiansim.in(t._ZN5QListIiE13detach_helperEi)
    t._ZN5QListIiE13detach_helperEi.clean    0x0000f316   Section        8  qtcontacts_symbiansim.in(t._ZN5QListIiE13detach_helperEi.clean)
    t._ZN5QListIiE13detach_helperEv          0x0000f31e   Section       88  qtcontacts_symbiansim.in(t._ZN5QListIiE13detach_helperEv)
    t._ZN5QListIiE13detach_helperEv.clean    0x0000f376   Section        8  qtcontacts_symbiansim.in(t._ZN5QListIiE13detach_helperEv.clean)
    t._ZN5QListIiE18detach_helper_growEii    0x0000f37e   Section      164  qtcontacts_symbiansim.in(t._ZN5QListIiE18detach_helper_growEii)
    t._ZN5QListIiE18detach_helper_growEii.clean 0x0000f422   Section        8  qtcontacts_symbiansim.in(t._ZN5QListIiE18detach_helper_growEii.clean)
    t._ZN5QListIiE4freeEPN9QListData4DataE   0x0000f42a   Section       16  qtcontacts_symbiansim.in(t._ZN5QListIiE4freeEPN9QListData4DataE)
    t._ZN5QListIiE9node_copyEPNS0_4NodeES2_S2_ 0x0000f43a   Section       28  qtcontacts_symbiansim.in(t._ZN5QListIiE9node_copyEPNS0_4NodeES2_S2_)
    t._ZN5QListIiEC1Ev                       0x0000f458   Section       20  qtcontacts_symbiansim.in(t._ZN5QListIiEC1Ev)
    t._ZN5QListIiED1Ev                       0x0000f46c   Section       30  qtcontacts_symbiansim.in(t._ZN5QListIiED1Ev)
    t._ZN5QListIiEaSERKS0_                   0x0000f48a   Section       56  qtcontacts_symbiansim.in(t._ZN5QListIiEaSERKS0_)
    t._ZN5QListIjE13detach_helperEi          0x0000f4c2   Section       98  qtcontacts_symbiansim.in(t._ZN5QListIjE13detach_helperEi)
    t._ZN5QListIjE13detach_helperEi.clean    0x0000f524   Section        8  qtcontacts_symbiansim.in(t._ZN5QListIjE13detach_helperEi.clean)
    t._ZN5QListIjE18detach_helper_growEii    0x0000f52c   Section      164  qtcontacts_symbiansim.in(t._ZN5QListIjE18detach_helper_growEii)
    t._ZN5QListIjE18detach_helper_growEii.clean 0x0000f5d0   Section        8  qtcontacts_symbiansim.in(t._ZN5QListIjE18detach_helper_growEii.clean)
    t._ZN5QListIjE4freeEPN9QListData4DataE   0x0000f5d8   Section       16  qtcontacts_symbiansim.in(t._ZN5QListIjE4freeEPN9QListData4DataE)
    t._ZN5QListIjE9node_copyEPNS0_4NodeES2_S2_ 0x0000f5e8   Section       28  qtcontacts_symbiansim.in(t._ZN5QListIjE9node_copyEPNS0_4NodeES2_S2_)
    t._ZN5QListIjEC1Ev                       0x0000f604   Section       20  qtcontacts_symbiansim.in(t._ZN5QListIjEC1Ev)
    t._ZN5QListIjED1Ev                       0x0000f618   Section       30  qtcontacts_symbiansim.in(t._ZN5QListIjED1Ev)
    t._ZN8QPointerI7QObjectED1Ev             0x0000f636   Section       12  qtcontacts_symbiansim.in(t._ZN8QPointerI7QObjectED1Ev)
    t._ZNK10QtMobility8QContact7detailsINS_19QContactPhoneNumberEEE5QListIT_Ev 0x0000f644   Section       92  qtcontacts_symbiansim.in(t._ZNK10QtMobility8QContact7detailsINS_19QContactPhoneNumberEEE5QListIT_Ev)
    t._ZNK10QtMobility8QContact7detailsINS_19QContactPhoneNumberEEE5QListIT_Ev.clean 0x0000f6a0   Section       22  qtcontacts_symbiansim.in(t._ZNK10QtMobility8QContact7detailsINS_19QContactPhoneNumberEEE5QListIT_Ev.clean)
    t._ZNK4QMapI7QStringN10QtMobility24QContactDetailDefinitionEE8findNodeERKS0_ 0x0000f6b6   Section       82  qtcontacts_symbiansim.in(t._ZNK4QMapI7QStringN10QtMobility24QContactDetailDefinitionEE8findNodeERKS0_)
    t._ZNK4QMapIPN10QtMobility23QContactAbstractRequestEP21CntAbstractSimRequestE4keysEv 0x0000f708   Section      140  qtcontacts_symbiansim.in(t._ZNK4QMapIPN10QtMobility23QContactAbstractRequestEP21CntAbstractSimRequestE4keysEv)
    t._ZNK4QMapIPN10QtMobility23QContactAbstractRequestEP21CntAbstractSimRequestE4keysEv.clean 0x0000f794   Section       16  qtcontacts_symbiansim.in(t._ZNK4QMapIPN10QtMobility23QContactAbstractRequestEP21CntAbstractSimRequestE4keysEv.clean)
    t._ZNK4QMapIPN10QtMobility23QContactAbstractRequestEP21CntAbstractSimRequestE5valueERKS2_ 0x0000f7a4   Section       34  qtcontacts_symbiansim.in(t._ZNK4QMapIPN10QtMobility23QContactAbstractRequestEP21CntAbstractSimRequestE5valueERKS2_)
    t._ZNK4QMapIPN10QtMobility23QContactAbstractRequestEP21CntAbstractSimRequestE8containsERKS2_ 0x0000f7c6   Section       22  qtcontacts_symbiansim.in(t._ZNK4QMapIPN10QtMobility23QContactAbstractRequestEP21CntAbstractSimRequestE8containsERKS2_)
    t._ZNK4QMapIPN10QtMobility23QContactAbstractRequestEP21CntAbstractSimRequestE8findNodeERKS2_ 0x0000f7dc   Section       82  qtcontacts_symbiansim.in(t._ZNK4QMapIPN10QtMobility23QContactAbstractRequestEP21CntAbstractSimRequestE8findNodeERKS2_)
    t._ZNK5QListIN10QtMobility8QContactEE2atEi 0x0000f82e   Section       16  qtcontacts_symbiansim.in(t._ZNK5QListIN10QtMobility8QContactEE2atEi)
    .extab._ZN20CntSymbianSimFactoryD1Ev     0x0000f840   Data           0  qtcontacts_symbiansim.in(.ARM.extab)
    .extab._ZN11CntSimStore11qt_metacallEN11QMetaObject4CallEiPPv 0x0000f850   Data           0  qtcontacts_symbiansim.in(.ARM.extab)
    .extab._ZN5QListIN10QtMobility8QContactEE13detach_helperEi 0x0000f870   Data           0  qtcontacts_symbiansim.in(.ARM.extab)
    .extab._ZN25CntSimContactFetchRequest11qt_metacallEN11QMetaObject4CallEiPPv 0x0000f8b4   Data           0  qtcontacts_symbiansim.in(.ARM.extab)
    .extab._ZN32CntSimContactLocalIdFetchRequest11qt_metacallEN11QMetaObject4CallEiPPv 0x0000f8c4   Data           0  qtcontacts_symbiansim.in(.ARM.extab)
    .extab._ZN26CntSimContactRemoveRequest11qt_metacallEN11QMetaObject4CallEiPPv 0x0000f8d4   Data           0  qtcontacts_symbiansim.in(.ARM.extab)
    .extab._ZN5QListIiE13detach_helperEi     0x0000f8e4   Data           0  qtcontacts_symbiansim.in(.ARM.extab)
    .extab._ZN24CntSimContactSaveRequest11qt_metacallEN11QMetaObject4CallEiPPv 0x0000f900   Data           0  qtcontacts_symbiansim.in(.ARM.extab)
    .extab.qt_plugin_instance                0x0000f910   Data           0  qtcontacts_symbiansim.in(.ARM.extab)
    .extab._ZN23CntSymbianSimEngineDataD1Ev  0x0000f928   Data           0  qtcontacts_symbiansim.in(.ARM.extab)
    .extab._ZN19CntSymbianSimEngineC1ERK4QMapI7QStringS1_EPN10QtMobility15QContactManager5ErrorE 0x0000f938   Data           0  qtcontacts_symbiansim.in(.ARM.extab)
    .extab._ZN19CntSymbianSimEngineC1ERKS_   0x0000f9a8   Data           0  qtcontacts_symbiansim.in(.ARM.extab)
    .extab._ZN19CntSymbianSimEngineD1Ev      0x0000f9b8   Data           0  qtcontacts_symbiansim.in(.ARM.extab)
    .extab._ZN19CntSymbianSimEngine22waitForRequestFinishedEPN10QtMobility23QContactAbstractRequestEi 0x0000f9c8   Data           0  qtcontacts_symbiansim.in(.ARM.extab)
    .extab._ZN19CntSymbianSimEngine12startRequestEPN10QtMobility23QContactAbstractRequestE 0x0000f9d8   Data           0  qtcontacts_symbiansim.in(.ARM.extab)
    .extab._ZNK19CntSymbianSimEngine14executeRequestEPN10QtMobility23QContactAbstractRequestEPNS0_15QContactManager5ErrorE 0x0000fa20   Data           0  qtcontacts_symbiansim.in(.ARM.extab)
    .extab._ZNK19CntSymbianSimEngine10contactIdsERKN10QtMobility14QContactFilterERK5QListINS0_17QContactSortOrderEEPNS0_15QContactManager5ErrorE 0x0000fa30   Data           0  qtcontacts_symbiansim.in(.ARM.extab)
    .extab._ZNK19CntSymbianSimEngine8contactsERKN10QtMobility14QContactFilterERK5QListINS0_17QContactSortOrderEERKNS0_17QContactFetchHintEPNS0_15QContactManager5ErrorE 0x0000fa40   Data           0  qtcontacts_symbiansim.in(.ARM.extab)
    .extab._ZNK19CntSymbianSimEngine7contactERKjRKN10QtMobility17QContactFetchHintEPNS2_15QContactManager5ErrorE 0x0000fa50   Data           0  qtcontacts_symbiansim.in(.ARM.extab)
    .extab._ZN19CntSymbianSimEngine12saveContactsEP5QListIN10QtMobility8QContactEEP4QMapIiNS1_15QContactManager5ErrorEEPS7_ 0x0000facc   Data           0  qtcontacts_symbiansim.in(.ARM.extab)
    .extab._ZN19CntSymbianSimEngine14removeContactsERK5QListIjEP4QMapIiN10QtMobility15QContactManager5ErrorEEPS7_ 0x0000fafc   Data           0  qtcontacts_symbiansim.in(.ARM.extab)
    .extab._ZNK19CntSymbianSimEngine23synthesizedDisplayLabelERKN10QtMobility8QContactEPNS0_15QContactManager5ErrorE 0x0000fb1c   Data           0  qtcontacts_symbiansim.in(.ARM.extab)
    .extab._ZNK19CntSymbianSimEngine17detailDefinitionsERK7QStringPN10QtMobility15QContactManager5ErrorE 0x0000fb3c   Data           0  qtcontacts_symbiansim.in(.ARM.extab)
    .extab._ZNK19CntSymbianSimEngine17isFilterSupportedERKN10QtMobility14QContactFilterE 0x0000fda4   Data           0  qtcontacts_symbiansim.in(.ARM.extab)
    .extab._ZNK19CntSymbianSimEngine21supportedContactTypesEv 0x0000fdd4   Data           0  qtcontacts_symbiansim.in(.ARM.extab)
    .extab._ZNK19CntSymbianSimEngine18updateDisplayLabelERN10QtMobility8QContactE 0x0000fdf4   Data           0  qtcontacts_symbiansim.in(.ARM.extab)
    .extab._ZN19CntSymbianSimEngine6filterERKN10QtMobility14QContactFilterERKNS0_8QContactE 0x0000fe04   Data           0  qtcontacts_symbiansim.in(.ARM.extab)
    .extab._ZN20CntSymbianSimFactory6engineERK4QMapI7QStringS1_EPN10QtMobility15QContactManager5ErrorE 0x0000ff3c   Data           0  qtcontacts_symbiansim.in(.ARM.extab)
    .extab._ZN5QListIPN10QtMobility23QContactAbstractRequestEE13detach_helperEi 0x0000ff4c   Data           0  qtcontacts_symbiansim.in(.ARM.extab)
    .extab._ZN5QListIN10QtMobility19QContactPhoneNumberEE9node_copyEPNS2_4NodeES4_S4_ 0x0000ff68   Data           0  qtcontacts_symbiansim.in(.ARM.extab)
    .extab._ZN5QListI8QVariantE9node_copyEPNS1_4NodeES3_S3_ 0x0000ff8c   Data           0  qtcontacts_symbiansim.in(.ARM.extab)
    .extab._ZN5QListI8QVariantE13detach_helperEv 0x0000ffb0   Data           0  qtcontacts_symbiansim.in(.ARM.extab)
    .extab._ZN5QListI8QVariantE5clearEv      0x0000ffcc   Data           0  qtcontacts_symbiansim.in(.ARM.extab)
    .extab._ZN5QListI8QVariantE14node_constructEPNS1_4NodeERKS0_ 0x0000ffdc   Data           0  qtcontacts_symbiansim.in(.ARM.extab)
    .extab._ZN5QListI8QVariantE18detach_helper_growEii 0x0000ffec   Data           0  qtcontacts_symbiansim.in(.ARM.extab)
    .extab._ZN5QListI7QStringE9node_copyEPNS1_4NodeES3_S3_ 0x0001001c   Data           0  qtcontacts_symbiansim.in(.ARM.extab)
    .extab._ZN5QListI7QStringE18detach_helper_growEii 0x00010040   Data           0  qtcontacts_symbiansim.in(.ARM.extab)
    .extab._ZN5QListIPN10QtMobility23QContactAbstractRequestEE18detach_helper_growEii 0x00010070   Data           0  qtcontacts_symbiansim.in(.ARM.extab)
    .extab._ZNK4QMapIPN10QtMobility23QContactAbstractRequestEP21CntAbstractSimRequestE4keysEv 0x000100a0   Data           0  qtcontacts_symbiansim.in(.ARM.extab)
    .extab._ZN5QListIjE18detach_helper_growEii 0x000100cc   Data           0  qtcontacts_symbiansim.in(.ARM.extab)
    .extab._ZN4QMapI7QStringN10QtMobility24QContactDetailDefinitionEE11node_createEP8QMapDataPPNS4_4NodeERKS0_RKS2_ 0x000100fc   Data           0  qtcontacts_symbiansim.in(.ARM.extab)
    .extab._ZN4QMapI7QStringN10QtMobility29QContactDetailFieldDefinitionEE11node_createEP8QMapDataPPNS4_4NodeERKS0_RKS2_ 0x00010148   Data           0  qtcontacts_symbiansim.in(.ARM.extab)
    .extab._ZN4QMapI7QStringN10QtMobility29QContactDetailFieldDefinitionEE13detach_helperEv 0x00010194   Data           0  qtcontacts_symbiansim.in(.ARM.extab)
    .extab._ZN4QMapI7QStringN10QtMobility29QContactDetailFieldDefinitionEE5clearEv 0x000101b0   Data           0  qtcontacts_symbiansim.in(.ARM.extab)
    .extab._ZN5QListIN10QtMobility19QContactPhoneNumberEE14node_constructEPNS2_4NodeERKS1_ 0x000101c0   Data           0  qtcontacts_symbiansim.in(.ARM.extab)
    .extab._ZN5QListIN10QtMobility19QContactPhoneNumberEE18detach_helper_growEii 0x000101d0   Data           0  qtcontacts_symbiansim.in(.ARM.extab)
    .extab._ZN5QListIN10QtMobility19QContactPhoneNumberEE13detach_helperEv 0x00010200   Data           0  qtcontacts_symbiansim.in(.ARM.extab)
    .extab._ZN7TPtrC163SetERK7TDesC16        0x0001021c   Data           0  qtcontacts_symbiansim.in(.ARM.extab)
    .extab._ZN5QListI8QVariantE6appendERKS0_ 0x0001022c   Data           0  qtcontacts_symbiansim.in(.ARM.extab)
    .extab._ZN5QListI7QStringE13detach_helperEv 0x0001025c   Data           0  qtcontacts_symbiansim.in(.ARM.extab)
    .extab._ZN5QListI7QStringE6appendERKS0_  0x00010278   Data           0  qtcontacts_symbiansim.in(.ARM.extab)
    .extab._ZNK10QtMobility8QContact7detailsINS_19QContactPhoneNumberEEE5QListIT_Ev 0x000102a8   Data           0  qtcontacts_symbiansim.in(.ARM.extab)
    .extab._ZN5QListI7QStringE14node_constructEPNS1_4NodeERKS0_ 0x000102d0   Data           0  qtcontacts_symbiansim.in(.ARM.extab)
    .extab._ZN4QMapIPN10QtMobility23QContactAbstractRequestEP21CntAbstractSimRequestE13detach_helperEv 0x000102e0   Data           0  qtcontacts_symbiansim.in(.ARM.extab)
    .extab._ZN4QMapI7QStringN10QtMobility24QContactDetailDefinitionEE13detach_helperEv 0x000102fc   Data           0  qtcontacts_symbiansim.in(.ARM.extab)
    .extab._ZN5QListIN10QtMobility19QContactPhoneNumberEE6appendERKS1_ 0x00010318   Data           0  qtcontacts_symbiansim.in(.ARM.extab)
    .extab._ZN11CntSimStoreC1EP19CntSymbianSimEngine7QStringPN10QtMobility15QContactManager5ErrorE 0x00010348   Data           0  qtcontacts_symbiansim.in(.ARM.extab)
    .extab._ZN11CntSimStoreD1Ev              0x00010380   Data           0  qtcontacts_symbiansim.in(.ARM.extab)
    .extab._Z24qMetaTypeConstructHelperIN10QtMobility8QContactEEPvPKT_ 0x00010390   Data           0  qtcontacts_symbiansim.in(.ARM.extab)
    .extab._Z24qMetaTypeConstructHelperI5QListIN10QtMobility8QContactEEEPvPKT_ 0x000103a8   Data           0  qtcontacts_symbiansim.in(.ARM.extab)
    .extab._Z24qMetaTypeConstructHelperI5QListIiEEPvPKT_ 0x000103c0   Data           0  qtcontacts_symbiansim.in(.ARM.extab)
    .extab._ZN20CStoreInfoDispatcherD1Ev     0x000103d8   Data           0  qtcontacts_symbiansim.in(.ARM.extab)
    .extab._ZNK18CntSimStorePrivate17encodeSimContactLEPN10QtMobility8QContactER5TDes8 0x000103e8   Data           0  qtcontacts_symbiansim.in(.ARM.extab)
    .extab._ZN18CntSimStorePrivate6writeLEPN10QtMobility8QContactE 0x00010518   Data           0  qtcontacts_symbiansim.in(.ARM.extab)
    .extab._ZN18CntSimStorePrivate16updateStoreInfoLEv 0x00010540   Data           0  qtcontacts_symbiansim.in(.ARM.extab)
    .extab._ZN18CntSimStorePrivate17convertStoreNameLER6TDes16 0x00010668   Data           0  qtcontacts_symbiansim.in(.ARM.extab)
    .extab._ZN18CntSimStorePrivateC1ER19CntSymbianSimEngineR11CntSimStoreRK7QString 0x00010678   Data           0  qtcontacts_symbiansim.in(.ARM.extab)
    .extab._ZN18CntSimStorePrivateD1Ev       0x000106b0   Data           0  qtcontacts_symbiansim.in(.ARM.extab)
    .extab._ZN18CntSimStorePrivate4readEiiPN10QtMobility15QContactManager5ErrorE 0x000106d8   Data           0  qtcontacts_symbiansim.in(.ARM.extab)
    .extab._ZN18CntSimStorePrivate5writeERKN10QtMobility8QContactEPNS0_15QContactManager5ErrorE 0x00010768   Data           0  qtcontacts_symbiansim.in(.ARM.extab)
    .extab._ZNK18CntSimStorePrivate20decodeReservedSlotsLER5TDes8 0x000107b0   Data           0  qtcontacts_symbiansim.in(.ARM.extab)
    .extab._ZNK18CntSimStorePrivate18decodeSimContactsLER5TDes8 0x000107dc   Data           0  qtcontacts_symbiansim.in(.ARM.extab)
    .extab._ZN18CntSimStorePrivate4RunLEv    0x000108fc   Data           0  qtcontacts_symbiansim.in(.ARM.extab)
    .extab._ZN18CntSimStorePrivate8RunErrorEi 0x000109ec   Data           0  qtcontacts_symbiansim.in(.ARM.extab)
    .extab._ZN10QtMobility20QContactEmailAddress15setEmailAddressERK7QString 0x00010a0c   Data           0  qtcontacts_symbiansim.in(.ARM.extab)
    .extab._ZN10QtMobility19QContactPhoneNumber9setNumberERK7QString 0x00010a1c   Data           0  qtcontacts_symbiansim.in(.ARM.extab)
    .extab._ZN10QtMobility16QContactNickname11setNicknameERK7QString 0x00010a2c   Data           0  qtcontacts_symbiansim.in(.ARM.extab)
    .extab._ZN5QListIN10QtMobility8QContactEE9node_copyEPNS2_4NodeES4_S4_ 0x00010a3c   Data           0  qtcontacts_symbiansim.in(.ARM.extab)
    .extab._ZN5QListIN10QtMobility8QContactEE18detach_helper_growEii 0x00010a60   Data           0  qtcontacts_symbiansim.in(.ARM.extab)
    .extab._ZN5QListIN10QtMobility8QContactEE6appendERKS1_ 0x00010a90   Data           0  qtcontacts_symbiansim.in(.ARM.extab)
    .extab._ZN10QtMobility12QContactName14setCustomLabelERK7QString 0x00010ac0   Data           0  qtcontacts_symbiansim.in(.ARM.extab)
    .extab._ZN5QListIiE18detach_helper_growEii 0x00010ad0   Data           0  qtcontacts_symbiansim.in(.ARM.extab)
    .extab._ZN10QtMobility18QContactSyncTarget13setSyncTargetERK7QString 0x00010b00   Data           0  qtcontacts_symbiansim.in(.ARM.extab)
    .extab._ZN5QListIN10QtMobility14QContactDetailEE13detach_helperEi 0x00010b10   Data           0  qtcontacts_symbiansim.in(.ARM.extab)
    .extab._ZN5QListIN10QtMobility8QContactEE14node_constructEPNS2_4NodeERKS1_ 0x00010b54   Data           0  qtcontacts_symbiansim.in(.ARM.extab)
    .extab._ZN5QListIiE13detach_helperEv     0x00010b64   Data           0  qtcontacts_symbiansim.in(.ARM.extab)
    .extab._ZN24CntSimStoreEventListenerC1ER19CntSymbianSimEngineR17RMobilePhoneStore 0x00010b80   Data           0  qtcontacts_symbiansim.in(.ARM.extab)
    .extab._ZN24CntSimStoreEventListenerD1Ev 0x00010b90   Data           0  qtcontacts_symbiansim.in(.ARM.extab)
    .extab._ZN24CntSimStoreEventListener4RunLEv 0x00010ba0   Data           0  qtcontacts_symbiansim.in(.ARM.extab)
    .extab._Z8qWarningv                      0x00010bc0   Data           0  qtcontacts_symbiansim.in(.ARM.extab)
    .extab._ZN6QDebugD1Ev                    0x00010bd8   Data           0  qtcontacts_symbiansim.in(.ARM.extab)
    .extab._ZN21CntAbstractSimRequest15singleShotTimerEiP7QObjectPKc 0x00010bfc   Data           0  qtcontacts_symbiansim.in(.ARM.extab)
    .extab._ZN25CntSimContactFetchRequestC1EP19CntSymbianSimEnginePN10QtMobility20QContactFetchRequestE 0x00010c0c   Data           0  qtcontacts_symbiansim.in(.ARM.extab)
    .extab._ZN25CntSimContactFetchRequestD1Ev 0x00010c1c   Data           0  qtcontacts_symbiansim.in(.ARM.extab)
    .extab._ZN25CntSimContactFetchRequest3runEv 0x00010c2c   Data           0  qtcontacts_symbiansim.in(.ARM.extab)
    .extab._ZN25CntSimContactFetchRequest12readCompleteE5QListIN10QtMobility8QContactEENS1_15QContactManager5ErrorE 0x00010c8c   Data           0  qtcontacts_symbiansim.in(.ARM.extab)
    .extab._ZN32CntSimContactLocalIdFetchRequestC1EP19CntSymbianSimEnginePN10QtMobility27QContactLocalIdFetchRequestE 0x00010cbc   Data           0  qtcontacts_symbiansim.in(.ARM.extab)
    .extab._ZN32CntSimContactLocalIdFetchRequestD1Ev 0x00010ccc   Data           0  qtcontacts_symbiansim.in(.ARM.extab)
    .extab._ZN32CntSimContactLocalIdFetchRequest3runEv 0x00010cdc   Data           0  qtcontacts_symbiansim.in(.ARM.extab)
    .extab._ZN32CntSimContactLocalIdFetchRequest12readCompleteE5QListIN10QtMobility8QContactEENS1_15QContactManager5ErrorE 0x00010cec   Data           0  qtcontacts_symbiansim.in(.ARM.extab)
    .extab._ZN26CntSimContactRemoveRequestC1EP19CntSymbianSimEnginePN10QtMobility21QContactRemoveRequestE 0x00010d48   Data           0  qtcontacts_symbiansim.in(.ARM.extab)
    .extab._ZN26CntSimContactRemoveRequestD1Ev 0x00010d70   Data           0  qtcontacts_symbiansim.in(.ARM.extab)
    .extab._ZN26CntSimContactRemoveRequest3runEv 0x00010d98   Data           0  qtcontacts_symbiansim.in(.ARM.extab)
    .extab._ZN4QMapIiN10QtMobility15QContactManager5ErrorEE13detach_helperEv 0x00010db8   Data           0  qtcontacts_symbiansim.in(.ARM.extab)
    .extab._ZN5QListIjE13detach_helperEi     0x00010dd4   Data           0  qtcontacts_symbiansim.in(.ARM.extab)
    .extab._ZN24CntSimContactSaveRequestC1EP19CntSymbianSimEnginePN10QtMobility19QContactSaveRequestE 0x00010df0   Data           0  qtcontacts_symbiansim.in(.ARM.extab)
    .extab._ZN24CntSimContactSaveRequestD1Ev 0x00010e10   Data           0  qtcontacts_symbiansim.in(.ARM.extab)
    .extab._ZN24CntSimContactSaveRequest9writeNextEv 0x00010e30   Data           0  qtcontacts_symbiansim.in(.ARM.extab)
    .extab._ZN24CntSimContactSaveRequest3runEv 0x00010e48   Data           0  qtcontacts_symbiansim.in(.ARM.extab)
    .extab._ZN34CntSimDetailDefinitionFetchRequestD1Ev 0x00010e60   Data           0  qtcontacts_symbiansim.in(.ARM.extab)
    .extab._ZN34CntSimDetailDefinitionFetchRequest3runEv 0x00010e70   Data           0  qtcontacts_symbiansim.in(.ARM.extab)
    .constdata$1                             0x00010ee8   Data           0  qtcontacts_symbiansim.in(.constdata)
    qt_meta_stringdata_CntSymbianSimEngine   0x00010ee8   Data          21  qtcontacts_symbiansim.in(.constdata)
    .constdata                               0x00010ee8   Section       76  qtcontacts_symbiansim.in(.constdata)
    qt_meta_stringdata_CntSymbianSimFactory  0x00010efd   Data          22  qtcontacts_symbiansim.in(.constdata)
    .constdata$13                            0x00010f34   Data           0  qtcontacts_symbiansim.in(.constdata)
    qt_meta_data_CntSymbianSimEngine         0x00010f34   Data          60  qtcontacts_symbiansim.in(.constdata)
    .constdata                               0x00010f34   Section       60  qtcontacts_symbiansim.in(.constdata)
    .constdata$19                            0x00010f70   Data           0  qtcontacts_symbiansim.in(.constdata)
    qt_meta_data_CntSymbianSimFactory        0x00010f70   Data          60  qtcontacts_symbiansim.in(.constdata)
    .constdata                               0x00010f70   Section       60  qtcontacts_symbiansim.in(.constdata)
    .constdata$1                             0x00010fac   Data           0  qtcontacts_symbiansim.in(.constdata)
    qt_meta_stringdata_CntSimStore           0x00010fac   Data         254  qtcontacts_symbiansim.in(.constdata)
    .constdata                               0x00010fac   Section      272  qtcontacts_symbiansim.in(.constdata)
    .constdata$10                            0x000110bc   Data           0  qtcontacts_symbiansim.in(.constdata)
    qt_meta_data_CntSimStore                 0x000110bc   Data         140  qtcontacts_symbiansim.in(.constdata)
    .constdata                               0x000110bc   Section      140  qtcontacts_symbiansim.in(.constdata)
    .constdata$1                             0x00011148   Data           0  qtcontacts_symbiansim.in(.constdata)
    qt_meta_stringdata_CntAbstractSimRequest 0x00011148   Data          44  qtcontacts_symbiansim.in(.constdata)
    .constdata                               0x00011148   Section       60  qtcontacts_symbiansim.in(.constdata)
    .constdata$10                            0x00011184   Data           0  qtcontacts_symbiansim.in(.constdata)
    qt_meta_data_CntAbstractSimRequest       0x00011184   Data         100  qtcontacts_symbiansim.in(.constdata)
    .constdata                               0x00011184   Section      100  qtcontacts_symbiansim.in(.constdata)
    .constdata$1                             0x000111e8   Data           0  qtcontacts_symbiansim.in(.constdata)
    qt_meta_stringdata_CntSimContactFetchRequest 0x000111e8   Data         102  qtcontacts_symbiansim.in(.constdata)
    .constdata                               0x000111e8   Section      120  qtcontacts_symbiansim.in(.constdata)
    .constdata$10                            0x00011260   Data           0  qtcontacts_symbiansim.in(.constdata)
    qt_meta_data_CntSimContactFetchRequest   0x00011260   Data         100  qtcontacts_symbiansim.in(.constdata)
    .constdata                               0x00011260   Section      100  qtcontacts_symbiansim.in(.constdata)
    .constdata$1                             0x000112c4   Data           0  qtcontacts_symbiansim.in(.constdata)
    qt_meta_stringdata_CntSimContactLocalIdFetchRequest 0x000112c4   Data         109  qtcontacts_symbiansim.in(.constdata)
    .constdata                               0x000112c4   Section      128  qtcontacts_symbiansim.in(.constdata)
    .constdata$10                            0x00011344   Data           0  qtcontacts_symbiansim.in(.constdata)
    qt_meta_data_CntSimContactLocalIdFetchRequest 0x00011344   Data         100  qtcontacts_symbiansim.in(.constdata)
    .constdata                               0x00011344   Section      100  qtcontacts_symbiansim.in(.constdata)
    .constdata$1                             0x000113a8   Data           0  qtcontacts_symbiansim.in(.constdata)
    qt_meta_stringdata_CntSimContactRemoveRequest 0x000113a8   Data         192  qtcontacts_symbiansim.in(.constdata)
    .constdata                               0x000113a8   Section      208  qtcontacts_symbiansim.in(.constdata)
    .constdata$10                            0x00011478   Data           0  qtcontacts_symbiansim.in(.constdata)
    qt_meta_data_CntSimContactRemoveRequest  0x00011478   Data         160  qtcontacts_symbiansim.in(.constdata)
    .constdata                               0x00011478   Section      160  qtcontacts_symbiansim.in(.constdata)
    .constdata$1                             0x00011518   Data           0  qtcontacts_symbiansim.in(.constdata)
    qt_meta_stringdata_CntSimContactSaveRequest 0x00011518   Data         106  qtcontacts_symbiansim.in(.constdata)
    .constdata                               0x00011518   Section      124  qtcontacts_symbiansim.in(.constdata)
    .constdata$10                            0x00011594   Data           0  qtcontacts_symbiansim.in(.constdata)
    qt_meta_data_CntSimContactSaveRequest    0x00011594   Data         120  qtcontacts_symbiansim.in(.constdata)
    .constdata                               0x00011594   Section      120  qtcontacts_symbiansim.in(.constdata)
    .constdata$1                             0x0001160c   Data           0  qtcontacts_symbiansim.in(.constdata)
    qt_meta_stringdata_CntSimDetailDefinitionFetchRequest 0x0001160c   Data          43  qtcontacts_symbiansim.in(.constdata)
    .constdata                               0x0001160c   Section       60  qtcontacts_symbiansim.in(.constdata)
    .constdata$10                            0x00011648   Data           0  qtcontacts_symbiansim.in(.constdata)
    qt_meta_data_CntSimDetailDefinitionFetchRequest 0x00011648   Data          80  qtcontacts_symbiansim.in(.constdata)
    .constdata                               0x00011648   Section       80  qtcontacts_symbiansim.in(.constdata)
    .constdata$1                             0x00011698   Data           0  qtcontacts_symbiansim.in(.constdata)
    KSimSyncTarget                           0x00011698   Data           4  qtcontacts_symbiansim.in(.constdata)
    .constdata                               0x00011698   Section      148  qtcontacts_symbiansim.in(.constdata)
    KParameterValueSimStoreNameSdn           0x0001169c   Data           4  qtcontacts_symbiansim.in(.constdata)
    KCRUidTelConfiguration                   0x000116a0   Data           4  qtcontacts_symbiansim.in(.constdata)
    KParameterKeySimStoreName                0x000116a4   Data           6  qtcontacts_symbiansim.in(.constdata)
    qt_plugin_verification_data              0x000116aa   Data          91  qtcontacts_symbiansim.in(.constdata)
    KOneZeroPattern@_ZN32CntSymbianSimPhoneNumberMatching24formatAndCheckNumberTypeER6TDes16_0 0x00011708   Data          12  qtcontacts_symbiansim.in(.constdata)
    KTwoZerosPattern@_ZN32CntSymbianSimPhoneNumberMatching24formatAndCheckNumberTypeER6TDes16_1 0x00011714   Data          12  qtcontacts_symbiansim.in(.constdata)
    KPlusPattern@_ZN32CntSymbianSimPhoneNumberMatching24formatAndCheckNumberTypeER6TDes16_2 0x00011720   Data          12  qtcontacts_symbiansim.in(.constdata)
    .constdata$1                             0x0001172c   Data           0  qtcontacts_symbiansim.in(.constdata)
    KParameterValueSimStoreNameOn            0x0001172c   Data           3  qtcontacts_symbiansim.in(.constdata)
    .constdata                               0x0001172c   Section      284  qtcontacts_symbiansim.in(.constdata)
    KSimSyncTarget                           0x0001172f   Data           4  qtcontacts_symbiansim.in(.constdata)
    KParameterValueSimStoreNameAdn           0x00011733   Data           4  qtcontacts_symbiansim.in(.constdata)
    KParameterValueSimStoreNameSdn           0x00011737   Data           4  qtcontacts_symbiansim.in(.constdata)
    KParameterValueSimStoreNameFdn           0x0001173b   Data           4  qtcontacts_symbiansim.in(.constdata)
    KETelIccAdnPhoneBook                     0x00011740   Data          12  qtcontacts_symbiansim.in(.constdata)
    KETelIccFdnPhoneBook                     0x0001174c   Data          12  qtcontacts_symbiansim.in(.constdata)
    KETelIccSdnPhoneBook                     0x00011758   Data          12  qtcontacts_symbiansim.in(.constdata)
    KETelOwnNumberStore                      0x00011764   Data          12  qtcontacts_symbiansim.in(.constdata)
    KMmTsyModuleName                         0x00011770   Data          24  qtcontacts_symbiansim.in(.constdata)
    .constdata__ZTI11CntSimStore             0x00011848   Section       12  qtcontacts_symbiansim.in(.constdata__ZTI11CntSimStore)
    .constdata__ZTI16CDispatcherTimer        0x00011854   Section       12  qtcontacts_symbiansim.in(.constdata__ZTI16CDispatcherTimer)
    .constdata__ZTI18CntSimStorePrivate      0x00011860   Section       12  qtcontacts_symbiansim.in(.constdata__ZTI18CntSimStorePrivate)
    .constdata__ZTI18MDispatcherTimeOut      0x0001186c   Section        8  qtcontacts_symbiansim.in(.constdata__ZTI18MDispatcherTimeOut)
    .constdata__ZTI19CntSymbianSimEngine     0x00011874   Section       12  qtcontacts_symbiansim.in(.constdata__ZTI19CntSymbianSimEngine)
    .constdata__ZTI20CStoreInfoDispatcher    0x00011880   Section       32  qtcontacts_symbiansim.in(.constdata__ZTI20CStoreInfoDispatcher)
    .constdata__ZTI20CntSymbianSimFactory    0x000118a0   Section       32  qtcontacts_symbiansim.in(.constdata__ZTI20CntSymbianSimFactory)
    .constdata__ZTI21CntAbstractSimRequest   0x000118c0   Section       12  qtcontacts_symbiansim.in(.constdata__ZTI21CntAbstractSimRequest)
    .constdata__ZTI24CntSimContactSaveRequest 0x000118cc   Section       12  qtcontacts_symbiansim.in(.constdata__ZTI24CntSimContactSaveRequest)
    .constdata__ZTI24CntSimStoreEventListener 0x000118d8   Section       12  qtcontacts_symbiansim.in(.constdata__ZTI24CntSimStoreEventListener)
    .constdata__ZTI25CntSimContactFetchRequest 0x000118e4   Section       12  qtcontacts_symbiansim.in(.constdata__ZTI25CntSimContactFetchRequest)
    .constdata__ZTI26CntSimContactRemoveRequest 0x000118f0   Section       12  qtcontacts_symbiansim.in(.constdata__ZTI26CntSimContactRemoveRequest)
    .constdata__ZTI32CntSimContactLocalIdFetchRequest 0x000118fc   Section       12  qtcontacts_symbiansim.in(.constdata__ZTI32CntSimContactLocalIdFetchRequest)
    .constdata__ZTI34CntSimDetailDefinitionFetchRequest 0x00011908   Section       12  qtcontacts_symbiansim.in(.constdata__ZTI34CntSimDetailDefinitionFetchRequest)
    .constdata__ZTISt9bad_alloc              0x00011914   Section       12  qtcontacts_symbiansim.in(.constdata__ZTISt9bad_alloc)
    .constdata__ZTS11CntSimStore             0x00011920   Section       14  qtcontacts_symbiansim.in(.constdata__ZTS11CntSimStore)
    .constdata__ZTS16CDispatcherTimer        0x0001192e   Section       19  qtcontacts_symbiansim.in(.constdata__ZTS16CDispatcherTimer)
    .constdata__ZTS18CntSimStorePrivate      0x00011941   Section       21  qtcontacts_symbiansim.in(.constdata__ZTS18CntSimStorePrivate)
    .constdata__ZTS18MDispatcherTimeOut      0x00011956   Section       21  qtcontacts_symbiansim.in(.constdata__ZTS18MDispatcherTimeOut)
    .constdata__ZTS19CntSymbianSimEngine     0x0001196b   Section       22  qtcontacts_symbiansim.in(.constdata__ZTS19CntSymbianSimEngine)
    .constdata__ZTS20CStoreInfoDispatcher    0x00011981   Section       23  qtcontacts_symbiansim.in(.constdata__ZTS20CStoreInfoDispatcher)
    .constdata__ZTS20CntSymbianSimFactory    0x00011998   Section       23  qtcontacts_symbiansim.in(.constdata__ZTS20CntSymbianSimFactory)
    .constdata__ZTS21CntAbstractSimRequest   0x000119af   Section       24  qtcontacts_symbiansim.in(.constdata__ZTS21CntAbstractSimRequest)
    .constdata__ZTS24CntSimContactSaveRequest 0x000119c7   Section       27  qtcontacts_symbiansim.in(.constdata__ZTS24CntSimContactSaveRequest)
    .constdata__ZTS24CntSimStoreEventListener 0x000119e2   Section       27  qtcontacts_symbiansim.in(.constdata__ZTS24CntSimStoreEventListener)
    .constdata__ZTS25CntSimContactFetchRequest 0x000119fd   Section       28  qtcontacts_symbiansim.in(.constdata__ZTS25CntSimContactFetchRequest)
    .constdata__ZTS26CntSimContactRemoveRequest 0x00011a19   Section       29  qtcontacts_symbiansim.in(.constdata__ZTS26CntSimContactRemoveRequest)
    .constdata__ZTS32CntSimContactLocalIdFetchRequest 0x00011a36   Section       35  qtcontacts_symbiansim.in(.constdata__ZTS32CntSimContactLocalIdFetchRequest)
    .constdata__ZTS34CntSimDetailDefinitionFetchRequest 0x00011a59   Section       37  qtcontacts_symbiansim.in(.constdata__ZTS34CntSimDetailDefinitionFetchRequest)
    .constdata__ZTSSt9bad_alloc              0x00011a7e   Section       13  qtcontacts_symbiansim.in(.constdata__ZTSSt9bad_alloc)
    .constdata__ZTV11CntSimStore             0x00011a8c   Section       56  qtcontacts_symbiansim.in(.constdata__ZTV11CntSimStore)
    .constdata__ZTV16CDispatcherTimer        0x00011ac4   Section       32  qtcontacts_symbiansim.in(.constdata__ZTV16CDispatcherTimer)
    .constdata__ZTV18CntSimStorePrivate      0x00011ae4   Section       32  qtcontacts_symbiansim.in(.constdata__ZTV18CntSimStorePrivate)
    .constdata__ZTV19CntSymbianSimEngine     0x00011b04   Section      192  qtcontacts_symbiansim.in(.constdata__ZTV19CntSymbianSimEngine)
    .constdata__ZTV20CStoreInfoDispatcher    0x00011bc4   Section       48  qtcontacts_symbiansim.in(.constdata__ZTV20CStoreInfoDispatcher)
    .constdata__ZTV20CntSymbianSimFactory    0x00011bf4   Section       92  qtcontacts_symbiansim.in(.constdata__ZTV20CntSymbianSimFactory)
    .constdata__ZTV21CntAbstractSimRequest   0x00011c50   Section       64  qtcontacts_symbiansim.in(.constdata__ZTV21CntAbstractSimRequest)
    .constdata__ZTV24CntSimContactSaveRequest 0x00011c90   Section       64  qtcontacts_symbiansim.in(.constdata__ZTV24CntSimContactSaveRequest)
    .constdata__ZTV24CntSimStoreEventListener 0x00011cd0   Section       32  qtcontacts_symbiansim.in(.constdata__ZTV24CntSimStoreEventListener)
    .constdata__ZTV25CntSimContactFetchRequest 0x00011cf0   Section       64  qtcontacts_symbiansim.in(.constdata__ZTV25CntSimContactFetchRequest)
    .constdata__ZTV26CntSimContactRemoveRequest 0x00011d30   Section       64  qtcontacts_symbiansim.in(.constdata__ZTV26CntSimContactRemoveRequest)
    .constdata__ZTV32CntSimContactLocalIdFetchRequest 0x00011d70   Section       64  qtcontacts_symbiansim.in(.constdata__ZTV32CntSimContactLocalIdFetchRequest)
    .constdata__ZTV34CntSimDetailDefinitionFetchRequest 0x00011db0   Section       64  qtcontacts_symbiansim.in(.constdata__ZTV34CntSimDetailDefinitionFetchRequest)
    .ARM.exidx                               0x00011df0   Section        8  ucppinit_aeabi.o(.ARM.exidx)
    .data$0                                  0x00400000   Data           0  qtcontacts_symbiansim.in(.data)
    _ZGV_instance@qt_plugin_instance_0       0x00400000   Data           4  qtcontacts_symbiansim.in(.data)
    .data                                    0x00400000   Section        8  qtcontacts_symbiansim.in(.data)
    _instance@qt_plugin_instance_1           0x00400004   Data           4  qtcontacts_symbiansim.in(.data)
    .data$0                                  0x00400008   Data           0  ucppfini.o(.data)
    .data                                    0x00400008   Section        4  ucppfini.o(.data)
    .bss$5                                   0x0040000c   Data           0  ucppfini.o(.bss)
    dtor_rec                                 0x0040000c   Data        2048  ucppfini.o(.bss)
    .bss                                     0x0040000c   Section     2048  ucppfini.o(.bss)

    Global Symbols

    Symbol Name                              Value     Ov Type        Size  Object(Section)

    BuildAttributes$$THUMB_ISAv2$ARM_ISAv5$M$PE$A:L22$X:L11$S22$IEEE1$IW$USESV6$~STKCKD$USESV7$~SHL$OSPACE$IEEEJ$EBA8$UX$REQ8$PRES8$EABIv2 0x00000000   Number         0  anon$$obj.o ABSOLUTE
    #<DLL>QtContacts{00010103}[2002ac7a].dll#<\DLL>1  - Undefined Reference
    #<DLL>QtContacts{00010103}[2002ac7a].dll#<\DLL>101  - Undefined Reference
    #<DLL>QtContacts{00010103}[2002ac7a].dll#<\DLL>10b  - Undefined Reference
    #<DLL>QtContacts{00010103}[2002ac7a].dll#<\DLL>10e  - Undefined Reference
    #<DLL>QtContacts{00010103}[2002ac7a].dll#<\DLL>111  - Undefined Reference
    #<DLL>QtContacts{00010103}[2002ac7a].dll#<\DLL>112  - Undefined Reference
    #<DLL>QtContacts{00010103}[2002ac7a].dll#<\DLL>130  - Undefined Reference
    #<DLL>QtContacts{00010103}[2002ac7a].dll#<\DLL>131  - Undefined Reference
    #<DLL>QtContacts{00010103}[2002ac7a].dll#<\DLL>132  - Undefined Reference
    #<DLL>QtContacts{00010103}[2002ac7a].dll#<\DLL>135  - Undefined Reference
    #<DLL>QtContacts{00010103}[2002ac7a].dll#<\DLL>137  - Undefined Reference
    #<DLL>QtContacts{00010103}[2002ac7a].dll#<\DLL>138  - Undefined Reference
    #<DLL>QtContacts{00010103}[2002ac7a].dll#<\DLL>139  - Undefined Reference
    #<DLL>QtContacts{00010103}[2002ac7a].dll#<\DLL>13f  - Undefined Reference
    #<DLL>QtContacts{00010103}[2002ac7a].dll#<\DLL>146  - Undefined Reference
    #<DLL>QtContacts{00010103}[2002ac7a].dll#<\DLL>147  - Undefined Reference
    #<DLL>QtContacts{00010103}[2002ac7a].dll#<\DLL>149  - Undefined Reference
    #<DLL>QtContacts{00010103}[2002ac7a].dll#<\DLL>14c  - Undefined Reference
    #<DLL>QtContacts{00010103}[2002ac7a].dll#<\DLL>14d  - Undefined Reference
    #<DLL>QtContacts{00010103}[2002ac7a].dll#<\DLL>150  - Undefined Reference
    #<DLL>QtContacts{00010103}[2002ac7a].dll#<\DLL>152  - Undefined Reference
    #<DLL>QtContacts{00010103}[2002ac7a].dll#<\DLL>154  - Undefined Reference
    #<DLL>QtContacts{00010103}[2002ac7a].dll#<\DLL>155  - Undefined Reference
    #<DLL>QtContacts{00010103}[2002ac7a].dll#<\DLL>158  - Undefined Reference
    #<DLL>QtContacts{00010103}[2002ac7a].dll#<\DLL>159  - Undefined Reference
    #<DLL>QtContacts{00010103}[2002ac7a].dll#<\DLL>15a  - Undefined Reference
    #<DLL>QtContacts{00010103}[2002ac7a].dll#<\DLL>15b  - Undefined Reference
    #<DLL>QtContacts{00010103}[2002ac7a].dll#<\DLL>15d  - Undefined Reference
    #<DLL>QtContacts{00010103}[2002ac7a].dll#<\DLL>162  - Undefined Reference
    #<DLL>QtContacts{00010103}[2002ac7a].dll#<\DLL>163  - Undefined Reference
    #<DLL>QtContacts{00010103}[2002ac7a].dll#<\DLL>170  - Undefined Reference
    #<DLL>QtContacts{00010103}[2002ac7a].dll#<\DLL>173  - Undefined Reference
    #<DLL>QtContacts{00010103}[2002ac7a].dll#<\DLL>193  - Undefined Reference
    #<DLL>QtContacts{00010103}[2002ac7a].dll#<\DLL>194  - Undefined Reference
    #<DLL>QtContacts{00010103}[2002ac7a].dll#<\DLL>195  - Undefined Reference
    #<DLL>QtContacts{00010103}[2002ac7a].dll#<\DLL>196  - Undefined Reference
    #<DLL>QtContacts{00010103}[2002ac7a].dll#<\DLL>197  - Undefined Reference
    #<DLL>QtContacts{00010103}[2002ac7a].dll#<\DLL>19a  - Undefined Reference
    #<DLL>QtContacts{00010103}[2002ac7a].dll#<\DLL>19c  - Undefined Reference
    #<DLL>QtContacts{00010103}[2002ac7a].dll#<\DLL>1b4  - Undefined Reference
    #<DLL>QtContacts{00010103}[2002ac7a].dll#<\DLL>1b9  - Undefined Reference
    #<DLL>QtContacts{00010103}[2002ac7a].dll#<\DLL>1ba  - Undefined Reference
    #<DLL>QtContacts{00010103}[2002ac7a].dll#<\DLL>1be  - Undefined Reference
    #<DLL>QtContacts{00010103}[2002ac7a].dll#<\DLL>1bf  - Undefined Reference
    #<DLL>QtContacts{00010103}[2002ac7a].dll#<\DLL>1c0  - Undefined Reference
    #<DLL>QtContacts{00010103}[2002ac7a].dll#<\DLL>1c1  - Undefined Reference
    #<DLL>QtContacts{00010103}[2002ac7a].dll#<\DLL>1c2  - Undefined Reference
    #<DLL>QtContacts{00010103}[2002ac7a].dll#<\DLL>1c5  - Undefined Reference
    #<DLL>QtContacts{00010103}[2002ac7a].dll#<\DLL>1c7  - Undefined Reference
    #<DLL>QtContacts{00010103}[2002ac7a].dll#<\DLL>2  - Undefined Reference
    #<DLL>QtContacts{00010103}[2002ac7a].dll#<\DLL>200  - Undefined Reference
    #<DLL>QtContacts{00010103}[2002ac7a].dll#<\DLL>201  - Undefined Reference
    #<DLL>QtContacts{00010103}[2002ac7a].dll#<\DLL>203  - Undefined Reference
    #<DLL>QtContacts{00010103}[2002ac7a].dll#<\DLL>204  - Undefined Reference
    #<DLL>QtContacts{00010103}[2002ac7a].dll#<\DLL>206  - Undefined Reference
    #<DLL>QtContacts{00010103}[2002ac7a].dll#<\DLL>207  - Undefined Reference
    #<DLL>QtContacts{00010103}[2002ac7a].dll#<\DLL>20a  - Undefined Reference
    #<DLL>QtContacts{00010103}[2002ac7a].dll#<\DLL>20c  - Undefined Reference
    #<DLL>QtContacts{00010103}[2002ac7a].dll#<\DLL>213  - Undefined Reference
    #<DLL>QtContacts{00010103}[2002ac7a].dll#<\DLL>21b  - Undefined Reference
    #<DLL>QtContacts{00010103}[2002ac7a].dll#<\DLL>21e  - Undefined Reference
    #<DLL>QtContacts{00010103}[2002ac7a].dll#<\DLL>220  - Undefined Reference
    #<DLL>QtContacts{00010103}[2002ac7a].dll#<\DLL>224  - Undefined Reference
    #<DLL>QtContacts{00010103}[2002ac7a].dll#<\DLL>24e  - Undefined Reference
    #<DLL>QtContacts{00010103}[2002ac7a].dll#<\DLL>24f  - Undefined Reference
    #<DLL>QtContacts{00010103}[2002ac7a].dll#<\DLL>251  - Undefined Reference
    #<DLL>QtContacts{00010103}[2002ac7a].dll#<\DLL>252  - Undefined Reference
    #<DLL>QtContacts{00010103}[2002ac7a].dll#<\DLL>253  - Undefined Reference
    #<DLL>QtContacts{00010103}[2002ac7a].dll#<\DLL>254  - Undefined Reference
    #<DLL>QtContacts{00010103}[2002ac7a].dll#<\DLL>256  - Undefined Reference
    #<DLL>QtContacts{00010103}[2002ac7a].dll#<\DLL>257  - Undefined Reference
    #<DLL>QtContacts{00010103}[2002ac7a].dll#<\DLL>258  - Undefined Reference
    #<DLL>QtContacts{00010103}[2002ac7a].dll#<\DLL>25e  - Undefined Reference
    #<DLL>QtContacts{00010103}[2002ac7a].dll#<\DLL>261  - Undefined Reference
    #<DLL>QtContacts{00010103}[2002ac7a].dll#<\DLL>264  - Undefined Reference
    #<DLL>QtContacts{00010103}[2002ac7a].dll#<\DLL>265  - Undefined Reference
    #<DLL>QtContacts{00010103}[2002ac7a].dll#<\DLL>266  - Undefined Reference
    #<DLL>QtContacts{00010103}[2002ac7a].dll#<\DLL>267  - Undefined Reference
    #<DLL>QtContacts{00010103}[2002ac7a].dll#<\DLL>268  - Undefined Reference
    #<DLL>QtContacts{00010103}[2002ac7a].dll#<\DLL>26b  - Undefined Reference
    #<DLL>QtContacts{00010103}[2002ac7a].dll#<\DLL>26c  - Undefined Reference
    #<DLL>QtContacts{00010103}[2002ac7a].dll#<\DLL>26d  - Undefined Reference
    #<DLL>QtContacts{00010103}[2002ac7a].dll#<\DLL>270  - Undefined Reference
    #<DLL>QtContacts{00010103}[2002ac7a].dll#<\DLL>273  - Undefined Reference
    #<DLL>QtContacts{00010103}[2002ac7a].dll#<\DLL>275  - Undefined Reference
    #<DLL>QtContacts{00010103}[2002ac7a].dll#<\DLL>27a  - Undefined Reference
    #<DLL>QtContacts{00010103}[2002ac7a].dll#<\DLL>27b  - Undefined Reference
    #<DLL>QtContacts{00010103}[2002ac7a].dll#<\DLL>27c  - Undefined Reference
    #<DLL>QtContacts{00010103}[2002ac7a].dll#<\DLL>27e  - Undefined Reference
    #<DLL>QtContacts{00010103}[2002ac7a].dll#<\DLL>281  - Undefined Reference
    #<DLL>QtContacts{00010103}[2002ac7a].dll#<\DLL>291  - Undefined Reference
    #<DLL>QtContacts{00010103}[2002ac7a].dll#<\DLL>292  - Undefined Reference
    #<DLL>QtContacts{00010103}[2002ac7a].dll#<\DLL>293  - Undefined Reference
    #<DLL>QtContacts{00010103}[2002ac7a].dll#<\DLL>294  - Undefined Reference
    #<DLL>QtContacts{00010103}[2002ac7a].dll#<\DLL>2a9  - Undefined Reference
    #<DLL>QtContacts{00010103}[2002ac7a].dll#<\DLL>2ab  - Undefined Reference
    #<DLL>QtContacts{00010103}[2002ac7a].dll#<\DLL>2b4  - Undefined Reference
    #<DLL>QtContacts{00010103}[2002ac7a].dll#<\DLL>2b6  - Undefined Reference
    #<DLL>QtContacts{00010103}[2002ac7a].dll#<\DLL>2b8  - Undefined Reference
    #<DLL>QtContacts{00010103}[2002ac7a].dll#<\DLL>2ba  - Undefined Reference
    #<DLL>QtContacts{00010103}[2002ac7a].dll#<\DLL>2bd  - Undefined Reference
    #<DLL>QtContacts{00010103}[2002ac7a].dll#<\DLL>2fc  - Undefined Reference
    #<DLL>QtContacts{00010103}[2002ac7a].dll#<\DLL>30  - Undefined Reference
    #<DLL>QtContacts{00010103}[2002ac7a].dll#<\DLL>310  - Undefined Reference
    #<DLL>QtContacts{00010103}[2002ac7a].dll#<\DLL>31f  - Undefined Reference
    #<DLL>QtContacts{00010103}[2002ac7a].dll#<\DLL>32  - Undefined Reference
    #<DLL>QtContacts{00010103}[2002ac7a].dll#<\DLL>34  - Undefined Reference
    #<DLL>QtContacts{00010103}[2002ac7a].dll#<\DLL>341  - Undefined Reference
    #<DLL>QtContacts{00010103}[2002ac7a].dll#<\DLL>35  - Undefined Reference
    #<DLL>QtContacts{00010103}[2002ac7a].dll#<\DLL>3e  - Undefined Reference
    #<DLL>QtContacts{00010103}[2002ac7a].dll#<\DLL>4  - Undefined Reference
    #<DLL>QtContacts{00010103}[2002ac7a].dll#<\DLL>4a  - Undefined Reference
    #<DLL>QtContacts{00010103}[2002ac7a].dll#<\DLL>4c  - Undefined Reference
    #<DLL>QtContacts{00010103}[2002ac7a].dll#<\DLL>7  - Undefined Reference
    #<DLL>QtContacts{00010103}[2002ac7a].dll#<\DLL>93  - Undefined Reference
    #<DLL>QtContacts{00010103}[2002ac7a].dll#<\DLL>94  - Undefined Reference
    #<DLL>QtContacts{00010103}[2002ac7a].dll#<\DLL>96  - Undefined Reference
    #<DLL>QtContacts{00010103}[2002ac7a].dll#<\DLL>9a  - Undefined Reference
    #<DLL>QtContacts{00010103}[2002ac7a].dll#<\DLL>9b  - Undefined Reference
    #<DLL>QtContacts{00010103}[2002ac7a].dll#<\DLL>a7  - Undefined Reference
    #<DLL>QtContacts{00010103}[2002ac7a].dll#<\DLL>aa  - Undefined Reference
    #<DLL>QtContacts{00010103}[2002ac7a].dll#<\DLL>bf  - Undefined Reference
    #<DLL>QtContacts{00010103}[2002ac7a].dll#<\DLL>f0  - Undefined Reference
    #<DLL>QtContacts{00010103}[2002ac7a].dll#<\DLL>f3  - Undefined Reference
    #<DLL>QtCore{00040703}[2001b2dc].dll#<\DLL>112  - Undefined Reference
    #<DLL>QtCore{00040703}[2001b2dc].dll#<\DLL>113  - Undefined Reference
    #<DLL>QtCore{00040703}[2001b2dc].dll#<\DLL>11a  - Undefined Reference
    #<DLL>QtCore{00040703}[2001b2dc].dll#<\DLL>138  - Undefined Reference
    #<DLL>QtCore{00040703}[2001b2dc].dll#<\DLL>144  - Undefined Reference
    #<DLL>QtCore{00040703}[2001b2dc].dll#<\DLL>14b  - Undefined Reference
    #<DLL>QtCore{00040703}[2001b2dc].dll#<\DLL>14c  - Undefined Reference
    #<DLL>QtCore{00040703}[2001b2dc].dll#<\DLL>14f  - Undefined Reference
    #<DLL>QtCore{00040703}[2001b2dc].dll#<\DLL>20  - Undefined Reference
    #<DLL>QtCore{00040703}[2001b2dc].dll#<\DLL>46  - Undefined Reference
    #<DLL>QtCore{00040703}[2001b2dc].dll#<\DLL>618  - Undefined Reference
    #<DLL>QtCore{00040703}[2001b2dc].dll#<\DLL>68  - Undefined Reference
    #<DLL>QtCore{00040703}[2001b2dc].dll#<\DLL>6aa  - Undefined Reference
    #<DLL>QtCore{00040703}[2001b2dc].dll#<\DLL>6b2  - Undefined Reference
    #<DLL>QtCore{00040703}[2001b2dc].dll#<\DLL>6b5  - Undefined Reference
    #<DLL>QtCore{00040703}[2001b2dc].dll#<\DLL>6e0  - Undefined Reference
    #<DLL>QtCore{00040703}[2001b2dc].dll#<\DLL>6e1  - Undefined Reference
    #<DLL>QtCore{00040703}[2001b2dc].dll#<\DLL>6e3  - Undefined Reference
    #<DLL>QtCore{00040703}[2001b2dc].dll#<\DLL>6e4  - Undefined Reference
    #<DLL>QtCore{00040703}[2001b2dc].dll#<\DLL>6e5  - Undefined Reference
    #<DLL>QtCore{00040703}[2001b2dc].dll#<\DLL>6e6  - Undefined Reference
    #<DLL>QtCore{00040703}[2001b2dc].dll#<\DLL>6e7  - Undefined Reference
    #<DLL>QtCore{00040703}[2001b2dc].dll#<\DLL>6e8  - Undefined Reference
    #<DLL>QtCore{00040703}[2001b2dc].dll#<\DLL>6ed  - Undefined Reference
    #<DLL>QtCore{00040703}[2001b2dc].dll#<\DLL>6f1  - Undefined Reference
    #<DLL>QtCore{00040703}[2001b2dc].dll#<\DLL>6f8  - Undefined Reference
    #<DLL>QtCore{00040703}[2001b2dc].dll#<\DLL>6f9  - Undefined Reference
    #<DLL>QtCore{00040703}[2001b2dc].dll#<\DLL>6fd  - Undefined Reference
    #<DLL>QtCore{00040703}[2001b2dc].dll#<\DLL>702  - Undefined Reference
    #<DLL>QtCore{00040703}[2001b2dc].dll#<\DLL>716  - Undefined Reference
    #<DLL>QtCore{00040703}[2001b2dc].dll#<\DLL>721  - Undefined Reference
    #<DLL>QtCore{00040703}[2001b2dc].dll#<\DLL>722  - Undefined Reference
    #<DLL>QtCore{00040703}[2001b2dc].dll#<\DLL>726  - Undefined Reference
    #<DLL>QtCore{00040703}[2001b2dc].dll#<\DLL>72f  - Undefined Reference
    #<DLL>QtCore{00040703}[2001b2dc].dll#<\DLL>752  - Undefined Reference
    #<DLL>QtCore{00040703}[2001b2dc].dll#<\DLL>753  - Undefined Reference
    #<DLL>QtCore{00040703}[2001b2dc].dll#<\DLL>75d  - Undefined Reference
    #<DLL>QtCore{00040703}[2001b2dc].dll#<\DLL>79b  - Undefined Reference
    #<DLL>QtCore{00040703}[2001b2dc].dll#<\DLL>79d  - Undefined Reference
    #<DLL>QtCore{00040703}[2001b2dc].dll#<\DLL>7f2  - Undefined Reference
    #<DLL>QtCore{00040703}[2001b2dc].dll#<\DLL>7f5  - Undefined Reference
    #<DLL>QtCore{00040703}[2001b2dc].dll#<\DLL>822  - Undefined Reference
    #<DLL>QtCore{00040703}[2001b2dc].dll#<\DLL>88c  - Undefined Reference
    #<DLL>QtCore{00040703}[2001b2dc].dll#<\DLL>895  - Undefined Reference
    #<DLL>QtCore{00040703}[2001b2dc].dll#<\DLL>897  - Undefined Reference
    #<DLL>QtCore{00040703}[2001b2dc].dll#<\DLL>911  - Undefined Reference
    #<DLL>QtCore{00040703}[2001b2dc].dll#<\DLL>96  - Undefined Reference
    #<DLL>QtCore{00040703}[2001b2dc].dll#<\DLL>af  - Undefined Reference
    #<DLL>QtCore{00040703}[2001b2dc].dll#<\DLL>b3  - Undefined Reference
    #<DLL>QtCore{00040703}[2001b2dc].dll#<\DLL>b33  - Undefined Reference
    #<DLL>QtCore{00040703}[2001b2dc].dll#<\DLL>be0  - Undefined Reference
    #<DLL>QtCore{00040703}[2001b2dc].dll#<\DLL>bf3  - Undefined Reference
    #<DLL>QtCore{00040703}[2001b2dc].dll#<\DLL>bf8  - Undefined Reference
    #<DLL>QtCore{00040703}[2001b2dc].dll#<\DLL>c19  - Undefined Reference
    #<DLL>QtCore{00040703}[2001b2dc].dll#<\DLL>c1a  - Undefined Reference
    #<DLL>QtCore{00040703}[2001b2dc].dll#<\DLL>c1d  - Undefined Reference
    #<DLL>QtCore{00040703}[2001b2dc].dll#<\DLL>c5b  - Undefined Reference
    #<DLL>QtCore{00040703}[2001b2dc].dll#<\DLL>e17  - Undefined Reference
    #<DLL>QtCore{00040703}[2001b2dc].dll#<\DLL>e18  - Undefined Reference
    #<DLL>QtCore{00040703}[2001b2dc].dll#<\DLL>e69  - Undefined Reference
    #<DLL>QtCore{00040703}[2001b2dc].dll#<\DLL>e6b  - Undefined Reference
    #<DLL>centralrepository{000a0000}[101fbc70].dll#<\DLL>9  - Undefined Reference
    #<DLL>centralrepository{000a0000}[101fbc70].dll#<\DLL>e  - Undefined Reference
    #<DLL>drtaeabi{000a0000}.dll#<\DLL>93     - Undefined Reference
    #<DLL>drtaeabi{000a0000}.dll#<\DLL>9e     - Undefined Reference
    #<DLL>drtaeabi{000a0000}.dll#<\DLL>b4     - Undefined Reference
    #<DLL>drtaeabi{000a0000}.dll#<\DLL>b7     - Undefined Reference
    #<DLL>drtaeabi{000a0000}.dll#<\DLL>b8     - Undefined Reference
    #<DLL>drtaeabi{000a0000}.dll#<\DLL>ba     - Undefined Reference
    #<DLL>drtaeabi{000a0000}.dll#<\DLL>bb     - Undefined Reference
    #<DLL>drtaeabi{000a0000}.dll#<\DLL>bc     - Undefined Reference
    #<DLL>drtaeabi{000a0000}.dll#<\DLL>bd     - Undefined Reference
    #<DLL>drtaeabi{000a0000}.dll#<\DLL>be     - Undefined Reference
    #<DLL>drtrvct2_2{000a0000}.dll#<\DLL>1c   - Undefined Reference
    #<DLL>etelmm{000a0000}[100064dd].dll#<\DLL>104  - Undefined Reference
    #<DLL>etelmm{000a0000}[100064dd].dll#<\DLL>106  - Undefined Reference
    #<DLL>etelmm{000a0000}[100064dd].dll#<\DLL>107  - Undefined Reference
    #<DLL>etelmm{000a0000}[100064dd].dll#<\DLL>246  - Undefined Reference
    #<DLL>etelmm{000a0000}[100064dd].dll#<\DLL>247  - Undefined Reference
    #<DLL>etelmm{000a0000}[100064dd].dll#<\DLL>249  - Undefined Reference
    #<DLL>etelmm{000a0000}[100064dd].dll#<\DLL>24a  - Undefined Reference
    #<DLL>etelmm{000a0000}[100064dd].dll#<\DLL>270  - Undefined Reference
    #<DLL>etelmm{000a0000}[100064dd].dll#<\DLL>271  - Undefined Reference
    #<DLL>etelmm{000a0000}[100064dd].dll#<\DLL>315  - Undefined Reference
    #<DLL>etelmm{000a0000}[100064dd].dll#<\DLL>7c  - Undefined Reference
    #<DLL>etelmm{000a0000}[100064dd].dll#<\DLL>86  - Undefined Reference
    #<DLL>etelmm{000a0000}[100064dd].dll#<\DLL>88  - Undefined Reference
    #<DLL>etelmm{000a0000}[100064dd].dll#<\DLL>8a  - Undefined Reference
    #<DLL>etelmm{000a0000}[100064dd].dll#<\DLL>8b  - Undefined Reference
    #<DLL>etelmm{000a0000}[100064dd].dll#<\DLL>8c  - Undefined Reference
    #<DLL>etelmm{000a0000}[100064dd].dll#<\DLL>a1  - Undefined Reference
    #<DLL>etelmm{000a0000}[100064dd].dll#<\DLL>a2  - Undefined Reference
    #<DLL>etelmm{000a0000}[100064dd].dll#<\DLL>a4  - Undefined Reference
    #<DLL>etelmm{000a0000}[100064dd].dll#<\DLL>a8  - Undefined Reference
    #<DLL>etelmm{000a0000}[100064dd].dll#<\DLL>aa  - Undefined Reference
    #<DLL>etelmm{000a0000}[100064dd].dll#<\DLL>ab  - Undefined Reference
    #<DLL>etelmm{000a0000}[100064dd].dll#<\DLL>ad  - Undefined Reference
    #<DLL>etelmm{000a0000}[100064dd].dll#<\DLL>ae  - Undefined Reference
    #<DLL>etelmm{000a0000}[100064dd].dll#<\DLL>b0  - Undefined Reference
    #<DLL>etelmm{000a0000}[100064dd].dll#<\DLL>b1  - Undefined Reference
    #<DLL>etelmm{000a0000}[100064dd].dll#<\DLL>b2  - Undefined Reference
    #<DLL>etelmm{000a0000}[100064dd].dll#<\DLL>b3  - Undefined Reference
    #<DLL>etel{000a0000}[10003d46].dll#<\DLL>1d  - Undefined Reference
    #<DLL>etel{000a0000}[10003d46].dll#<\DLL>1e  - Undefined Reference
    #<DLL>etel{000a0000}[10003d46].dll#<\DLL>71  - Undefined Reference
    #<DLL>etel{000a0000}[10003d46].dll#<\DLL>72  - Undefined Reference
    #<DLL>etel{000a0000}[10003d46].dll#<\DLL>a6  - Undefined Reference
    #<DLL>etel{000a0000}[10003d46].dll#<\DLL>a8  - Undefined Reference
    #<DLL>etel{000a0000}[10003d46].dll#<\DLL>b7  - Undefined Reference
    #<DLL>euser{000a0000}[100039e5].dll#<\DLL>1a8  - Undefined Reference
    #<DLL>euser{000a0000}[100039e5].dll#<\DLL>1f9  - Undefined Reference
    #<DLL>euser{000a0000}[100039e5].dll#<\DLL>1fb  - Undefined Reference
    #<DLL>euser{000a0000}[100039e5].dll#<\DLL>1fc  - Undefined Reference
    #<DLL>euser{000a0000}[100039e5].dll#<\DLL>251  - Undefined Reference
    #<DLL>euser{000a0000}[100039e5].dll#<\DLL>25c  - Undefined Reference
    #<DLL>euser{000a0000}[100039e5].dll#<\DLL>289  - Undefined Reference
    #<DLL>euser{000a0000}[100039e5].dll#<\DLL>28e  - Undefined Reference
    #<DLL>euser{000a0000}[100039e5].dll#<\DLL>29d  - Undefined Reference
    #<DLL>euser{000a0000}[100039e5].dll#<\DLL>29e  - Undefined Reference
    #<DLL>euser{000a0000}[100039e5].dll#<\DLL>29f  - Undefined Reference
    #<DLL>euser{000a0000}[100039e5].dll#<\DLL>2f0  - Undefined Reference
    #<DLL>euser{000a0000}[100039e5].dll#<\DLL>330  - Undefined Reference
    #<DLL>euser{000a0000}[100039e5].dll#<\DLL>371  - Undefined Reference
    #<DLL>euser{000a0000}[100039e5].dll#<\DLL>375  - Undefined Reference
    #<DLL>euser{000a0000}[100039e5].dll#<\DLL>376  - Undefined Reference
    #<DLL>euser{000a0000}[100039e5].dll#<\DLL>377  - Undefined Reference
    #<DLL>euser{000a0000}[100039e5].dll#<\DLL>37a  - Undefined Reference
    #<DLL>euser{000a0000}[100039e5].dll#<\DLL>3b9  - Undefined Reference
    #<DLL>euser{000a0000}[100039e5].dll#<\DLL>3cc  - Undefined Reference
    #<DLL>euser{000a0000}[100039e5].dll#<\DLL>440  - Undefined Reference
    #<DLL>euser{000a0000}[100039e5].dll#<\DLL>441  - Undefined Reference
    #<DLL>euser{000a0000}[100039e5].dll#<\DLL>442  - Undefined Reference
    #<DLL>euser{000a0000}[100039e5].dll#<\DLL>443  - Undefined Reference
    #<DLL>euser{000a0000}[100039e5].dll#<\DLL>446  - Undefined Reference
    #<DLL>euser{000a0000}[100039e5].dll#<\DLL>491  - Undefined Reference
    #<DLL>euser{000a0000}[100039e5].dll#<\DLL>493  - Undefined Reference
    #<DLL>euser{000a0000}[100039e5].dll#<\DLL>494  - Undefined Reference
    #<DLL>euser{000a0000}[100039e5].dll#<\DLL>51  - Undefined Reference
    #<DLL>euser{000a0000}[100039e5].dll#<\DLL>656  - Undefined Reference
    #<DLL>euser{000a0000}[100039e5].dll#<\DLL>70e  - Undefined Reference
    #<DLL>euser{000a0000}[100039e5].dll#<\DLL>70f  - Undefined Reference
    #<DLL>euser{000a0000}[100039e5].dll#<\DLL>718  - Undefined Reference
    #<DLL>euser{000a0000}[100039e5].dll#<\DLL>71e  - Undefined Reference
    #<DLL>euser{000a0000}[100039e5].dll#<\DLL>78  - Undefined Reference
    #<DLL>euser{000a0000}[100039e5].dll#<\DLL>7e9  - Undefined Reference
    #<DLL>euser{000a0000}[100039e5].dll#<\DLL>7ee  - Undefined Reference
    #<DLL>euser{000a0000}[100039e5].dll#<\DLL>7f3  - Undefined Reference
    #<DLL>euser{000a0000}[100039e5].dll#<\DLL>7fd  - Undefined Reference
    #<DLL>euser{000a0000}[100039e5].dll#<\DLL>805  - Undefined Reference
    #<DLL>euser{000a0000}[100039e5].dll#<\DLL>80c  - Undefined Reference
    #<DLL>euser{000a0000}[100039e5].dll#<\DLL>80d  - Undefined Reference
    #<DLL>euser{000a0000}[100039e5].dll#<\DLL>822  - Undefined Reference
    #<DLL>euser{000a0000}[100039e5].dll#<\DLL>83b  - Undefined Reference
    #<DLL>euser{000a0000}[100039e5].dll#<\DLL>850  - Undefined Reference
    #<DLL>euser{000a0000}[100039e5].dll#<\DLL>ca  - Undefined Reference
    #<DLL>euser{000a0000}[100039e5].dll#<\DLL>cb  - Undefined Reference
    #<DLL>euser{000a0000}[100039e5].dll#<\DLL>cd  - Undefined Reference
    #<DLL>euser{000a0000}[100039e5].dll#<\DLL>d0  - Undefined Reference
    #<DLL>libc{00010000}[10207369].dll#<\DLL>15e  - Undefined Reference
    #<DLL>libstdcpp{00010000}[10282872].dll#<\DLL>3dc  - Undefined Reference
    #<DLL>libstdcpp{00010000}[10282872].dll#<\DLL>3e0  - Undefined Reference
    SHT$$INIT_ARRAY$$Base                     - Undefined Weak Reference
    SHT$$INIT_ARRAY$$Limit                    - Undefined Weak Reference
    QtMobility::QContactName::DefinitionName  - Undefined Reference
    QtMobility::QContactName::FieldCustomLabel  - Undefined Reference
    QtMobility::QContactType::TypeContact     - Undefined Reference
    QtMobility::QContactType::DefinitionName  - Undefined Reference
    QtMobility::QContactType::FieldType       - Undefined Reference
    QtMobility::QContactNickname::FieldNickname  - Undefined Reference
    QtMobility::QContactNickname::DefinitionName  - Undefined Reference
    QtMobility::QContactSyncTarget::DefinitionName  - Undefined Reference
    QtMobility::QContactSyncTarget::FieldSyncTarget  - Undefined Reference
    QtMobility::QContactPhoneNumber::FieldNumber  - Undefined Reference
    QtMobility::QContactPhoneNumber::DefinitionName  - Undefined Reference
    QtMobility::QContactDisplayLabel::FieldLabel  - Undefined Reference
    QtMobility::QContactDisplayLabel::DefinitionName  - Undefined Reference
    QtMobility::QContactEmailAddress::DefinitionName  - Undefined Reference
    QtMobility::QContactEmailAddress::FieldEmailAddress  - Undefined Reference
    QtMobility::QContactManagerEngine::staticMetaObject  - Undefined Reference
    QObject::staticMetaObject                 - Undefined Reference
    QString::shared_null                      - Undefined Reference
    QMapData::shared_null                     - Undefined Reference
    QListData::shared_null                    - Undefined Reference
    typeinfo for XLeaveException              - Undefined Reference
    typeinfo for CTimer                       - Undefined Reference
    typeinfo for CActive                      - Undefined Reference
    typeinfo for QObject                      - Undefined Reference
    typeinfo for QtMobility::QContactManagerEngine  - Undefined Reference
    typeinfo for QtMobility::QContactManagerEngineFactory  - Undefined Reference
    typeinfo for std::exception               - Undefined Reference
    vtable for QtMobility::QContactManagerEngine  - Undefined Reference
    vtable for __cxxabiv1::__class_type_info  - Undefined Reference
    vtable for __cxxabiv1::__si_class_type_info  - Undefined Reference
    vtable for __cxxabiv1::__vmi_class_type_info  - Undefined Reference
    _fp_init                                  - Undefined Weak Reference
    Image$$ER_RO$$Base                       0x00008000   Number         0  anon$$obj.o(linker$$defined$$symbols)
    _E32Dll                                  0x00008000   ARM Code      40  uc_dll_.o(.emb_text)
    Symbian$$CPP$$Exception$$Descriptor      0x00008014   Data           0  uc_dll_.o(.emb_text)
    __cpp_initialize__aeabi_                 0x00008028   ARM Code      72  ucppinit_aeabi.o(.emb_text)
    CntSymbianSimEngine::getStaticMetaObject() 0x00008071   Thumb Code     4  qtcontacts_symbiansim.in(.text)
    std::nothrow                             0x00008071   Thumb Code     0  ucppinit_aeabi.o(.emb_text)
    CntSymbianSimEngine::metaObject() const  0x00008075   Thumb Code    12  qtcontacts_symbiansim.in(.text)
    CntSymbianSimEngine::qt_metacast(const char*) 0x00008081   Thumb Code    40  qtcontacts_symbiansim.in(.text)
    CntSymbianSimEngine::qt_metacall(QMetaObject::Call, int, void**) 0x000080a9   Thumb Code     8  qtcontacts_symbiansim.in(.text)
    CntSymbianSimFactory::getStaticMetaObject() 0x000080b1   Thumb Code     6  qtcontacts_symbiansim.in(.text)
    CntSymbianSimFactory::metaObject() const 0x000080b7   Thumb Code    14  qtcontacts_symbiansim.in(.text)
    CntSymbianSimFactory::qt_metacast(const char*) 0x000080c5   Thumb Code    72  qtcontacts_symbiansim.in(.text)
    CntSymbianSimFactory::qt_metacall(QMetaObject::Call, int, void**) 0x0000810d   Thumb Code     8  qtcontacts_symbiansim.in(.text)
    CntSimStore::getStaticMetaObject()       0x0000816d   Thumb Code     4  qtcontacts_symbiansim.in(.text)
    CntSimStore::metaObject() const          0x00008171   Thumb Code    12  qtcontacts_symbiansim.in(.text)
    CntSimStore::qt_metacast(const char*)    0x0000817d   Thumb Code    38  qtcontacts_symbiansim.in(.text)
    CntSimStore::getReservedSlotsComplete(QList<int>, QtMobility::QContactManager::Error) 0x000081a3   Thumb Code    36  qtcontacts_symbiansim.in(.text)
    CntSimStore::removeComplete(QtMobility::QContactManager::Error) 0x000081c7   Thumb Code    30  qtcontacts_symbiansim.in(.text)
    CntSimStore::writeComplete(QtMobility::QContact, QtMobility::QContactManager::Error) 0x000081e5   Thumb Code    34  qtcontacts_symbiansim.in(.text)
    CntSimStore::readComplete(QList<QtMobility::QContact>, QtMobility::QContactManager::Error) 0x00008207   Thumb Code    32  qtcontacts_symbiansim.in(.text)
    CntSimStore::qt_metacall(QMetaObject::Call, int, void**) 0x00008227   Thumb Code   204  qtcontacts_symbiansim.in(.text)
    CntAbstractSimRequest::getStaticMetaObject() 0x000082fd   Thumb Code     4  qtcontacts_symbiansim.in(.text)
    CntAbstractSimRequest::metaObject() const 0x00008301   Thumb Code    12  qtcontacts_symbiansim.in(.text)
    CntAbstractSimRequest::qt_metacast(const char*) 0x0000830d   Thumb Code    40  qtcontacts_symbiansim.in(.text)
    CntAbstractSimRequest::qt_metacall(QMetaObject::Call, int, void**) 0x00008335   Thumb Code    60  qtcontacts_symbiansim.in(.text)
    CntSimContactFetchRequest::getStaticMetaObject() 0x00008375   Thumb Code     4  qtcontacts_symbiansim.in(.text)
    CntSimContactFetchRequest::metaObject() const 0x00008379   Thumb Code    12  qtcontacts_symbiansim.in(.text)
    CntSimContactFetchRequest::qt_metacast(const char*) 0x00008385   Thumb Code    40  qtcontacts_symbiansim.in(.text)
    CntSimContactFetchRequest::qt_metacall(QMetaObject::Call, int, void**) 0x000083ad   Thumb Code   104  qtcontacts_symbiansim.in(.text)
    CntSimContactLocalIdFetchRequest::getStaticMetaObject() 0x00008419   Thumb Code     4  qtcontacts_symbiansim.in(.text)
    CntSimContactLocalIdFetchRequest::metaObject() const 0x0000841d   Thumb Code    12  qtcontacts_symbiansim.in(.text)
    CntSimContactLocalIdFetchRequest::qt_metacast(const char*) 0x00008429   Thumb Code    40  qtcontacts_symbiansim.in(.text)
    CntSimContactLocalIdFetchRequest::qt_metacall(QMetaObject::Call, int, void**) 0x00008451   Thumb Code   104  qtcontacts_symbiansim.in(.text)
    CntSimContactRemoveRequest::getStaticMetaObject() 0x000084bd   Thumb Code     4  qtcontacts_symbiansim.in(.text)
    CntSimContactRemoveRequest::metaObject() const 0x000084c1   Thumb Code    12  qtcontacts_symbiansim.in(.text)
    CntSimContactRemoveRequest::qt_metacast(const char*) 0x000084cd   Thumb Code    40  qtcontacts_symbiansim.in(.text)
    CntSimContactRemoveRequest::qt_metacall(QMetaObject::Call, int, void**) 0x000084f5   Thumb Code   138  qtcontacts_symbiansim.in(.text)
    CntSimContactSaveRequest::getStaticMetaObject() 0x00008585   Thumb Code     4  qtcontacts_symbiansim.in(.text)
    CntSimContactSaveRequest::metaObject() const 0x00008589   Thumb Code    12  qtcontacts_symbiansim.in(.text)
    CntSimContactSaveRequest::qt_metacast(const char*) 0x00008595   Thumb Code    40  qtcontacts_symbiansim.in(.text)
    CntSimContactSaveRequest::qt_metacall(QMetaObject::Call, int, void**) 0x000085bd   Thumb Code    82  qtcontacts_symbiansim.in(.text)
    CntSimDetailDefinitionFetchRequest::getStaticMetaObject() 0x00008615   Thumb Code     4  qtcontacts_symbiansim.in(.text)
    CntSimDetailDefinitionFetchRequest::metaObject() const 0x00008619   Thumb Code    12  qtcontacts_symbiansim.in(.text)
    CntSimDetailDefinitionFetchRequest::qt_metacast(const char*) 0x00008625   Thumb Code    40  qtcontacts_symbiansim.in(.text)
    CntSimDetailDefinitionFetchRequest::qt_metacall(QMetaObject::Call, int, void**) 0x0000864d   Thumb Code    36  qtcontacts_symbiansim.in(.text)
    qt_plugin_query_verification_data        0x00008675   Thumb Code     4  qtcontacts_symbiansim.in(.text)
    qt_plugin_instance                       0x00008679   Thumb Code   110  qtcontacts_symbiansim.in(.text)
    CntSymbianSimPhoneNumberMatching::checkBestMatchingRules(const TDesC16&, CntSymbianSimPhoneNumberMatching::TNumberType, const TDesC16&, CntSymbianSimPhoneNumberMatching::TNumberType) 0x000086e7   Thumb Code   540  qtcontacts_symbiansim.in(.text)
    CntSymbianSimPhoneNumberMatching::formatAndCheckNumberType(TDes16&) 0x00008903   Thumb Code   270  qtcontacts_symbiansim.in(.text)
    CntSymbianSimPhoneNumberMatching::validateBestMatchingRulesL(const TDesC16&, const TDesC16&) 0x00008a11   Thumb Code   150  qtcontacts_symbiansim.in(.text)
    CntSymbianSimPhoneNumberMatching::isBestMatchL(const QString&, const QString&) 0x00008aa7   Thumb Code    52  qtcontacts_symbiansim.in(.text)
    CntSymbianSimEngineData::CntSymbianSimEngineData() 0x00008adb   Thumb Code    26  qtcontacts_symbiansim.in(.text)
    CntSymbianSimEngineData::CntSymbianSimEngineData__sub_object() 0x00008adb   Thumb Code     0  qtcontacts_symbiansim.in(.text)
    CntSymbianSimEngineData::~CntSymbianSimEngineData() 0x00008af5   Thumb Code    82  qtcontacts_symbiansim.in(.text)
    CntSymbianSimEngineData::~CntSymbianSimEngineData__sub_object() 0x00008af5   Thumb Code     0  qtcontacts_symbiansim.in(.text)
    CntSymbianSimEngine::getMatchLengthL(int&) 0x00008b47   Thumb Code    38  qtcontacts_symbiansim.in(.text)
    CntSymbianSimEngine::CntSymbianSimEngine(const QMap<QString, QString>&, QtMobility::QContactManager::Error*) 0x00008b6d   Thumb Code   464  qtcontacts_symbiansim.in(.text)
    CntSymbianSimEngine::CntSymbianSimEngine__sub_object(const QMap<QString, QString>&, QtMobility::QContactManager::Error*) 0x00008b6d   Thumb Code     0  qtcontacts_symbiansim.in(.text)
    CntSymbianSimEngine::CntSymbianSimEngine(const CntSymbianSimEngine&) 0x00008d3d   Thumb Code    36  qtcontacts_symbiansim.in(.text)
    CntSymbianSimEngine::CntSymbianSimEngine__sub_object(const CntSymbianSimEngine&) 0x00008d3d   Thumb Code     0  qtcontacts_symbiansim.in(.text)
    CntSymbianSimEngine::~CntSymbianSimEngine() 0x00008d61   Thumb Code    24  qtcontacts_symbiansim.in(.text)
    CntSymbianSimEngine::~CntSymbianSimEngine__sub_object() 0x00008d61   Thumb Code     0  qtcontacts_symbiansim.in(.text)
    CntSymbianSimEngine::~CntSymbianSimEngine__deallocating() 0x00008d79   Thumb Code    16  qtcontacts_symbiansim.in(.text)
    CntSymbianSimEngine::managerName() const 0x00008d89   Thumb Code    10  qtcontacts_symbiansim.in(.text)
    CntSymbianSimEngine::requestDestroyed(QtMobility::QContactAbstractRequest*) 0x00008d93   Thumb Code    40  qtcontacts_symbiansim.in(.text)
    CntSymbianSimEngine::waitForRequestFinished(QtMobility::QContactAbstractRequest*, int) 0x00008dbb   Thumb Code   136  qtcontacts_symbiansim.in(.text)
    CntSymbianSimEngine::startRequest(QtMobility::QContactAbstractRequest*) 0x00008e43   Thumb Code   548  qtcontacts_symbiansim.in(.text)
    CntSymbianSimEngine::executeRequest(QtMobility::QContactAbstractRequest*, QtMobility::QContactManager::Error*) const 0x00009067   Thumb Code   100  qtcontacts_symbiansim.in(.text)
    CntSymbianSimEngine::contactIds(const QtMobility::QContactFilter&, const QList<QtMobility::QContactSortOrder>&, QtMobility::QContactManager::Error*) const 0x000090cb   Thumb Code    64  qtcontacts_symbiansim.in(.text)
    CntSymbianSimEngine::contacts(const QtMobility::QContactFilter&, const QList<QtMobility::QContactSortOrder>&, const QtMobility::QContactFetchHint&, QtMobility::QContactManager::Error*) const 0x0000910b   Thumb Code    70  qtcontacts_symbiansim.in(.text)
    CntSymbianSimEngine::contact(const unsigned&, const QtMobility::QContactFetchHint&, QtMobility::QContactManager::Error*) const 0x00009151   Thumb Code   230  qtcontacts_symbiansim.in(.text)
    CntSymbianSimEngine::saveContacts(QList<QtMobility::QContact>*, QMap<int, QtMobility::QContactManager::Error>*, QtMobility::QContactManager::Error*) 0x00009237   Thumb Code   160  qtcontacts_symbiansim.in(.text)
    CntSymbianSimEngine::removeContacts(const QList<unsigned>&, QMap<int, QtMobility::QContactManager::Error>*, QtMobility::QContactManager::Error*) 0x000092d7   Thumb Code    84  qtcontacts_symbiansim.in(.text)
    CntSymbianSimEngine::synthesizedDisplayLabel(const QtMobility::QContact&, QtMobility::QContactManager::Error*) const 0x0000932b   Thumb Code   102  qtcontacts_symbiansim.in(.text)
    CntSymbianSimEngine::detailDefinitions(const QString&, QtMobility::QContactManager::Error*) const 0x00009391   Thumb Code  1220  qtcontacts_symbiansim.in(.text)
    CntSymbianSimEngine::cancelRequest(QtMobility::QContactAbstractRequest*) 0x00009855   Thumb Code    40  qtcontacts_symbiansim.in(.text)
    CntSymbianSimEngine::hasFeature(QtMobility::QContactManager::ManagerFeature, const QString&) const 0x0000987d   Thumb Code     4  qtcontacts_symbiansim.in(.text)
    CntSymbianSimEngine::isFilterSupported(const QtMobility::QContactFilter&) const 0x00009881   Thumb Code   130  qtcontacts_symbiansim.in(.text)
    CntSymbianSimEngine::supportedContactTypes() const 0x00009903   Thumb Code   118  qtcontacts_symbiansim.in(.text)
    CntSymbianSimEngine::updateDisplayLabel(QtMobility::QContact&) const 0x00009979   Thumb Code    44  qtcontacts_symbiansim.in(.text)
    CntSymbianSimEngine::setReadOnlyAccessConstraint(QtMobility::QContactDetail*) const 0x000099a5   Thumb Code    16  qtcontacts_symbiansim.in(.text)
    CntSymbianSimEngine::filter(const QtMobility::QContactFilter&, const QtMobility::QContact&) 0x000099b5   Thumb Code   524  qtcontacts_symbiansim.in(.text)
    CntSymbianSimFactory::engine(const QMap<QString, QString>&, QtMobility::QContactManager::Error*) 0x00009bc1   Thumb Code    50  qtcontacts_symbiansim.in(.text)
    thunk{-8} to CntSymbianSimFactory::engine(const QMap<QString, QString>&, QtMobility::QContactManager::Error*) 0x00009bf3   Thumb Code     4  qtcontacts_symbiansim.in(.text)
    CntSymbianSimFactory::managerName() const 0x00009bf7   Thumb Code    10  qtcontacts_symbiansim.in(.text)
    thunk{-8} to CntSymbianSimFactory::managerName() const 0x00009c01   Thumb Code     4  qtcontacts_symbiansim.in(.text)
    CntSymbianSimTransformError::transformError(int, QtMobility::QContactManager::Error*) 0x00009c11   Thumb Code   114  qtcontacts_symbiansim.in(.text)
    CntSimStore::CntSimStore(CntSymbianSimEngine*, QString, QtMobility::QContactManager::Error*) 0x00009c89   Thumb Code   132  qtcontacts_symbiansim.in(.text)
    CntSimStore::CntSimStore__sub_object(CntSymbianSimEngine*, QString, QtMobility::QContactManager::Error*) 0x00009c89   Thumb Code     0  qtcontacts_symbiansim.in(.text)
    CntSimStore::~CntSimStore()              0x00009d0d   Thumb Code    28  qtcontacts_symbiansim.in(.text)
    CntSimStore::~CntSimStore__sub_object()  0x00009d0d   Thumb Code     0  qtcontacts_symbiansim.in(.text)
    CntSimStore::~CntSimStore__deallocating() 0x00009d29   Thumb Code    16  qtcontacts_symbiansim.in(.text)
    CntSimStore::storeInfo()                 0x00009d39   Thumb Code    52  qtcontacts_symbiansim.in(.text)
    CntSimStore::read(int, int, QtMobility::QContactManager::Error*) 0x00009d6d   Thumb Code    10  qtcontacts_symbiansim.in(.text)
    CntSimStore::write(const QtMobility::QContact&, QtMobility::QContactManager::Error*) 0x00009d77   Thumb Code    10  qtcontacts_symbiansim.in(.text)
    CntSimStore::remove(int, QtMobility::QContactManager::Error*) 0x00009d81   Thumb Code    10  qtcontacts_symbiansim.in(.text)
    CntSimStore::getReservedSlots(QtMobility::QContactManager::Error*) 0x00009d8b   Thumb Code    10  qtcontacts_symbiansim.in(.text)
    CntSimStore::cancel()                    0x00009d95   Thumb Code    10  qtcontacts_symbiansim.in(.text)
    CntSimStore::isBusy()                    0x00009d9f   Thumb Code    18  qtcontacts_symbiansim.in(.text)
    CntSimStore::lastAsyncError()            0x00009db1   Thumb Code     8  qtcontacts_symbiansim.in(.text)
    CDispatcherTimer::ConstructL()           0x00009e1d   Thumb Code    16  qtcontacts_symbiansim.in(.text)
    CDispatcherTimer::CDispatcherTimer(MDispatcherTimeOut&) 0x00009e2d   Thumb Code    18  qtcontacts_symbiansim.in(.text)
    CDispatcherTimer::CDispatcherTimer__sub_object(MDispatcherTimeOut&) 0x00009e2d   Thumb Code     0  qtcontacts_symbiansim.in(.text)
    CDispatcherTimer::NewL(MDispatcherTimeOut&) 0x00009e3f   Thumb Code    36  qtcontacts_symbiansim.in(.text)
    CDispatcherTimer::~CDispatcherTimer()    0x00009e63   Thumb Code     8  qtcontacts_symbiansim.in(.text)
    CDispatcherTimer::~CDispatcherTimer__sub_object() 0x00009e63   Thumb Code     0  qtcontacts_symbiansim.in(.text)
    CDispatcherTimer::~CDispatcherTimer__deallocating() 0x00009e6b   Thumb Code    16  qtcontacts_symbiansim.in(.text)
    CDispatcherTimer::RunL()                 0x00009e7b   Thumb Code     8  qtcontacts_symbiansim.in(.text)
    CDispatcherTimer::RunError(int)          0x00009e83   Thumb Code     4  qtcontacts_symbiansim.in(.text)
    CStoreInfoDispatcher::ConstructL()       0x00009e87   Thumb Code    32  qtcontacts_symbiansim.in(.text)
    CStoreInfoDispatcher::CStoreInfoDispatcher(RMobilePhoneBookStore&, RMobileONStore&) 0x00009ea7   Thumb Code    30  qtcontacts_symbiansim.in(.text)
    CStoreInfoDispatcher::CStoreInfoDispatcher__sub_object(RMobilePhoneBookStore&, RMobileONStore&) 0x00009ea7   Thumb Code     0  qtcontacts_symbiansim.in(.text)
    CStoreInfoDispatcher::NewL(RMobilePhoneBookStore&, RMobileONStore&) 0x00009ec5   Thumb Code    40  qtcontacts_symbiansim.in(.text)
    CStoreInfoDispatcher::~CStoreInfoDispatcher() 0x00009eed   Thumb Code    50  qtcontacts_symbiansim.in(.text)
    CStoreInfoDispatcher::~CStoreInfoDispatcher__sub_object() 0x00009eed   Thumb Code     0  qtcontacts_symbiansim.in(.text)
    CStoreInfoDispatcher::~CStoreInfoDispatcher__deallocating() 0x00009f1f   Thumb Code    16  qtcontacts_symbiansim.in(.text)
    CStoreInfoDispatcher::DispatchL(TPckg<RMobilePhoneBookStore::TMobilePhoneBookInfoV1>&) 0x00009f2f   Thumb Code    48  qtcontacts_symbiansim.in(.text)
    CStoreInfoDispatcher::DispatchL(TPckg<RMobilePhoneBookStore::TMobilePhoneBookInfoV5>&) 0x00009f5f   Thumb Code    48  qtcontacts_symbiansim.in(.text)
    CStoreInfoDispatcher::DispatchL(TPckg<RMobileONStore::TMobileONStoreInfoV1>&) 0x00009f8f   Thumb Code    48  qtcontacts_symbiansim.in(.text)
    CStoreInfoDispatcher::TimerExpired()     0x00009fbf   Thumb Code     8  qtcontacts_symbiansim.in(.text)
    thunk{-28} to CStoreInfoDispatcher::TimerExpired() 0x00009fc7   Thumb Code    10  qtcontacts_symbiansim.in(.text)
    CStoreInfoDispatcher::StopWait()         0x00009fd1   Thumb Code    20  qtcontacts_symbiansim.in(.text)
    CStoreInfoDispatcher::DoCancel()         0x00009fe5   Thumb Code    46  qtcontacts_symbiansim.in(.text)
    CStoreInfoDispatcher::RunL()             0x0000a013   Thumb Code    22  qtcontacts_symbiansim.in(.text)
    CStoreInfoDispatcher::RunError(int)      0x0000a029   Thumb Code     4  qtcontacts_symbiansim.in(.text)
    CntSimStorePrivate::removeL(int)         0x0000a02d   Thumb Code    68  qtcontacts_symbiansim.in(.text)
    CntSimStorePrivate::putTagAndValueL(CPhoneBookBuffer*, unsigned char, QString) const 0x0000a071   Thumb Code    36  qtcontacts_symbiansim.in(.text)
    CntSimStorePrivate::encodeSimContactL(QtMobility::QContact*, TDes8&) const 0x0000a095   Thumb Code   886  qtcontacts_symbiansim.in(.text)
    CntSimStorePrivate::writeL(QtMobility::QContact*) 0x0000a40b   Thumb Code   222  qtcontacts_symbiansim.in(.text)
    CntSimStorePrivate::updateStoreInfoL()   0x0000a4e9   Thumb Code   698  qtcontacts_symbiansim.in(.text)
    CntSimStorePrivate::convertStoreNameL(TDes16&) 0x0000a7a3   Thumb Code   164  qtcontacts_symbiansim.in(.text)
    CntSimStorePrivate::ConstructL()         0x0000a847   Thumb Code   210  qtcontacts_symbiansim.in(.text)
    CntSimStorePrivate::CntSimStorePrivate(CntSymbianSimEngine&, CntSimStore&, const QString&) 0x0000a919   Thumb Code   240  qtcontacts_symbiansim.in(.text)
    CntSimStorePrivate::CntSimStorePrivate__sub_object(CntSymbianSimEngine&, CntSimStore&, const QString&) 0x0000a919   Thumb Code     0  qtcontacts_symbiansim.in(.text)
    CntSimStorePrivate::NewL(CntSymbianSimEngine&, CntSimStore&, const QString&) 0x0000aa09   Thumb Code    44  qtcontacts_symbiansim.in(.text)
    CntSimStorePrivate::~CntSimStorePrivate() 0x0000aa35   Thumb Code   116  qtcontacts_symbiansim.in(.text)
    CntSimStorePrivate::~CntSimStorePrivate__sub_object() 0x0000aa35   Thumb Code     0  qtcontacts_symbiansim.in(.text)
    CntSimStorePrivate::~CntSimStorePrivate__deallocating() 0x0000aaa9   Thumb Code    16  qtcontacts_symbiansim.in(.text)
    CntSimStorePrivate::read(int, int, QtMobility::QContactManager::Error*) 0x0000aab9   Thumb Code   434  qtcontacts_symbiansim.in(.text)
    CntSimStorePrivate::write(const QtMobility::QContact&, QtMobility::QContactManager::Error*) 0x0000ac6b   Thumb Code   264  qtcontacts_symbiansim.in(.text)
    CntSimStorePrivate::remove(int, QtMobility::QContactManager::Error*) 0x0000ad73   Thumb Code    64  qtcontacts_symbiansim.in(.text)
    CntSimStorePrivate::getReservedSlots(QtMobility::QContactManager::Error*) 0x0000adb3   Thumb Code    88  qtcontacts_symbiansim.in(.text)
    CntSimStorePrivate::decodeReservedSlotsL(TDes8&) const 0x0000ae0b   Thumb Code   144  qtcontacts_symbiansim.in(.text)
    CntSimStorePrivate::decodeSimContactsL(TDes8&) const 0x0000ae9b   Thumb Code   926  qtcontacts_symbiansim.in(.text)
    CntSimStorePrivate::RunL()               0x0000b239   Thumb Code   556  qtcontacts_symbiansim.in(.text)
    CntSimStorePrivate::DoCancel()           0x0000b465   Thumb Code    74  qtcontacts_symbiansim.in(.text)
    CntSimStorePrivate::RunError(int)        0x0000b4af   Thumb Code   124  qtcontacts_symbiansim.in(.text)
    CntSimStoreEventListener::CntSimStoreEventListener(CntSymbianSimEngine&, RMobilePhoneStore&) 0x0000b541   Thumb Code    32  qtcontacts_symbiansim.in(.text)
    CntSimStoreEventListener::CntSimStoreEventListener__sub_object(CntSymbianSimEngine&, RMobilePhoneStore&) 0x0000b541   Thumb Code     0  qtcontacts_symbiansim.in(.text)
    CntSimStoreEventListener::~CntSimStoreEventListener() 0x0000b561   Thumb Code    22  qtcontacts_symbiansim.in(.text)
    CntSimStoreEventListener::~CntSimStoreEventListener__sub_object() 0x0000b561   Thumb Code     0  qtcontacts_symbiansim.in(.text)
    CntSimStoreEventListener::~CntSimStoreEventListener__deallocating() 0x0000b577   Thumb Code    16  qtcontacts_symbiansim.in(.text)
    CntSimStoreEventListener::start()        0x0000b587   Thumb Code    34  qtcontacts_symbiansim.in(.text)
    CntSimStoreEventListener::DoCancel()     0x0000b5a9   Thumb Code    20  qtcontacts_symbiansim.in(.text)
    CntSimStoreEventListener::RunL()         0x0000b5bd   Thumb Code   176  qtcontacts_symbiansim.in(.text)
    CntAbstractSimRequest::CntAbstractSimRequest__sub_object(CntSymbianSimEngine*, QtMobility::QContactAbstractRequest*) 0x0000b695   Thumb Code    22  qtcontacts_symbiansim.in(.text)
    CntAbstractSimRequest::singleShotTimer(int, QObject*, const char*) 0x0000b6ab   Thumb Code    86  qtcontacts_symbiansim.in(.text)
    CntAbstractSimRequest::start()           0x0000b701   Thumb Code    46  qtcontacts_symbiansim.in(.text)
    CntAbstractSimRequest::engine()          0x0000b72f   Thumb Code     6  qtcontacts_symbiansim.in(.text)
    CntAbstractSimRequest::simStore()        0x0000b735   Thumb Code    10  qtcontacts_symbiansim.in(.text)
    CntAbstractSimRequest::cancelTimer()     0x0000b73f   Thumb Code    22  qtcontacts_symbiansim.in(.text)
    CntAbstractSimRequest::cancel()          0x0000b755   Thumb Code    46  qtcontacts_symbiansim.in(.text)
    CntAbstractSimRequest::waitAndRetry()    0x0000b783   Thumb Code    36  qtcontacts_symbiansim.in(.text)
    CntSimContactFetchRequest::CntSimContactFetchRequest(CntSymbianSimEngine*, QtMobility::QContactFetchRequest*) 0x0000b7c1   Thumb Code    36  qtcontacts_symbiansim.in(.text)
    CntSimContactFetchRequest::CntSimContactFetchRequest__sub_object(CntSymbianSimEngine*, QtMobility::QContactFetchRequest*) 0x0000b7c1   Thumb Code     0  qtcontacts_symbiansim.in(.text)
    CntSimContactFetchRequest::~CntSimContactFetchRequest() 0x0000b7e5   Thumb Code    22  qtcontacts_symbiansim.in(.text)
    CntSimContactFetchRequest::~CntSimContactFetchRequest__sub_object() 0x0000b7e5   Thumb Code     0  qtcontacts_symbiansim.in(.text)
    CntSimContactFetchRequest::~CntSimContactFetchRequest__deallocating() 0x0000b7fb   Thumb Code    16  qtcontacts_symbiansim.in(.text)
    CntSimContactFetchRequest::run()         0x0000b80b   Thumb Code   248  qtcontacts_symbiansim.in(.text)
    CntSimContactFetchRequest::readComplete(QList<QtMobility::QContact>, QtMobility::QContactManager::Error) 0x0000b903   Thumb Code   218  qtcontacts_symbiansim.in(.text)
    CntSimContactLocalIdFetchRequest::CntSimContactLocalIdFetchRequest(CntSymbianSimEngine*, QtMobility::QContactLocalIdFetchRequest*) 0x0000ba51   Thumb Code    36  qtcontacts_symbiansim.in(.text)
    CntSimContactLocalIdFetchRequest::CntSimContactLocalIdFetchRequest__sub_object(CntSymbianSimEngine*, QtMobility::QContactLocalIdFetchRequest*) 0x0000ba51   Thumb Code     0  qtcontacts_symbiansim.in(.text)
    CntSimContactLocalIdFetchRequest::~CntSimContactLocalIdFetchRequest() 0x0000ba75   Thumb Code    22  qtcontacts_symbiansim.in(.text)
    CntSimContactLocalIdFetchRequest::~CntSimContactLocalIdFetchRequest__sub_object() 0x0000ba75   Thumb Code     0  qtcontacts_symbiansim.in(.text)
    CntSimContactLocalIdFetchRequest::~CntSimContactLocalIdFetchRequest__deallocating() 0x0000ba8b   Thumb Code    16  qtcontacts_symbiansim.in(.text)
    CntSimContactLocalIdFetchRequest::run()  0x0000ba9b   Thumb Code   104  qtcontacts_symbiansim.in(.text)
    CntSimContactLocalIdFetchRequest::readComplete(QList<QtMobility::QContact>, QtMobility::QContactManager::Error) 0x0000bb03   Thumb Code   312  qtcontacts_symbiansim.in(.text)
    CntSimContactRemoveRequest::CntSimContactRemoveRequest(CntSymbianSimEngine*, QtMobility::QContactRemoveRequest*) 0x0000bcb9   Thumb Code    96  qtcontacts_symbiansim.in(.text)
    CntSimContactRemoveRequest::CntSimContactRemoveRequest__sub_object(CntSymbianSimEngine*, QtMobility::QContactRemoveRequest*) 0x0000bcb9   Thumb Code     0  qtcontacts_symbiansim.in(.text)
    CntSimContactRemoveRequest::~CntSimContactRemoveRequest() 0x0000bd19   Thumb Code    56  qtcontacts_symbiansim.in(.text)
    CntSimContactRemoveRequest::~CntSimContactRemoveRequest__sub_object() 0x0000bd19   Thumb Code     0  qtcontacts_symbiansim.in(.text)
    CntSimContactRemoveRequest::~CntSimContactRemoveRequest__deallocating() 0x0000bd51   Thumb Code    16  qtcontacts_symbiansim.in(.text)
    CntSimContactRemoveRequest::getReservedSlots() 0x0000bd61   Thumb Code    52  qtcontacts_symbiansim.in(.text)
    CntSimContactRemoveRequest::run()        0x0000bd95   Thumb Code   184  qtcontacts_symbiansim.in(.text)
    CntSimContactRemoveRequest::removeComplete(QtMobility::QContactManager::Error) 0x0000be4d   Thumb Code    52  qtcontacts_symbiansim.in(.text)
    CntSimContactRemoveRequest::removeNext() 0x0000be81   Thumb Code   256  qtcontacts_symbiansim.in(.text)
    CntSimContactRemoveRequest::getReservedSlotsComplete(QList<int>, QtMobility::QContactManager::Error) 0x0000bf81   Thumb Code    68  qtcontacts_symbiansim.in(.text)
    CntSimContactSaveRequest::CntSimContactSaveRequest(CntSymbianSimEngine*, QtMobility::QContactSaveRequest*) 0x0000c0ad   Thumb Code    60  qtcontacts_symbiansim.in(.text)
    CntSimContactSaveRequest::CntSimContactSaveRequest__sub_object(CntSymbianSimEngine*, QtMobility::QContactSaveRequest*) 0x0000c0ad   Thumb Code     0  qtcontacts_symbiansim.in(.text)
    CntSimContactSaveRequest::~CntSimContactSaveRequest() 0x0000c0e9   Thumb Code    44  qtcontacts_symbiansim.in(.text)
    CntSimContactSaveRequest::~CntSimContactSaveRequest__sub_object() 0x0000c0e9   Thumb Code     0  qtcontacts_symbiansim.in(.text)
    CntSimContactSaveRequest::~CntSimContactSaveRequest__deallocating() 0x0000c115   Thumb Code    16  qtcontacts_symbiansim.in(.text)
    CntSimContactSaveRequest::writeNext()    0x0000c125   Thumb Code   250  qtcontacts_symbiansim.in(.text)
    CntSimContactSaveRequest::run()          0x0000c21f   Thumb Code   158  qtcontacts_symbiansim.in(.text)
    CntSimContactSaveRequest::writeComplete(QtMobility::QContact, QtMobility::QContactManager::Error) 0x0000c2bd   Thumb Code   104  qtcontacts_symbiansim.in(.text)
    CntSimDetailDefinitionFetchRequest::CntSimDetailDefinitionFetchRequest(CntSymbianSimEngine*, QtMobility::QContactDetailDefinitionFetchRequest*) 0x0000c3a1   Thumb Code    12  qtcontacts_symbiansim.in(.text)
    CntSimDetailDefinitionFetchRequest::CntSimDetailDefinitionFetchRequest__sub_object(CntSymbianSimEngine*, QtMobility::QContactDetailDefinitionFetchRequest*) 0x0000c3a1   Thumb Code     0  qtcontacts_symbiansim.in(.text)
    CntSimDetailDefinitionFetchRequest::~CntSimDetailDefinitionFetchRequest() 0x0000c3ad   Thumb Code    22  qtcontacts_symbiansim.in(.text)
    CntSimDetailDefinitionFetchRequest::~CntSimDetailDefinitionFetchRequest__sub_object() 0x0000c3ad   Thumb Code     0  qtcontacts_symbiansim.in(.text)
    CntSimDetailDefinitionFetchRequest::~CntSimDetailDefinitionFetchRequest__deallocating() 0x0000c3c3   Thumb Code    16  qtcontacts_symbiansim.in(.text)
    CntSimDetailDefinitionFetchRequest::run() 0x0000c3d3   Thumb Code   434  qtcontacts_symbiansim.in(.text)
    _E32Dll_Body                             0x0000c58d   Thumb Code    34  uc_dll.o(.text)
    CppBSSInitializationError                0x0000c5b4   ARM Code       4  ucppfini.o(.text)
    __aeabi_atexit                           0x0000c5b8   ARM Code      28  ucppfini.o(.text)
    __cxa_atexit                             0x0000c5d4   ARM Code      48  ucppfini.o(.text)
    __cxa_finalize                           0x0000c604   ARM Code      48  ucppfini.o(.text)
    run_static_dtors                         0x0000c634   ARM Code       8  ucppfini.o(.text)
    __DLL_Export_Table__                     0x0000cd74   ARM Code       0  qtcontacts_symbiansim{000a0000}.exp(ExportTable)
    DLL##ExportTableSize                     0x0000cd78   Data           0  qtcontacts_symbiansim{000a0000}.exp(ExportTable)
    DLL##ExportTable                         0x0000cd7c   Data           0  qtcontacts_symbiansim{000a0000}.exp(ExportTable)
    RPhone::Open(RTelServer&, const TDesC16&) 0x0000cd84   ARM Code       0  etel{000a0000}-113.o(StubCode)
    RPhone::Close()                          0x0000cd8c   ARM Code       0  etel{000a0000}-114.o(StubCode)
    RTelServer::GetPhoneInfo(int, RTelServer::TPhoneInfo&) const 0x0000cd94   ARM Code       0  etel{000a0000}-166.o(StubCode)
    RTelServer::LoadPhoneModule(const TDesC16&) const 0x0000cd9c   ARM Code       0  etel{000a0000}-168.o(StubCode)
    RTelSubSessionBase::CancelAsyncRequest(int) const 0x0000cda4   ARM Code       0  etel{000a0000}-183.o(StubCode)
    RTelServer::Connect(int)                 0x0000cdac   ARM Code       0  etel{000a0000}-29.o(StubCode)
    RTelServer::RTelServer()                 0x0000cdb4   ARM Code       0  etel{000a0000}-30.o(StubCode)
    RMobilePhone::RMobilePhone()             0x0000cdbc   ARM Code       0  etelmm{000a0000}-124.o(StubCode)
    RMobileONStore::TMobileONEntryV1::TMobileONEntryV1() 0x0000cdc4   ARM Code       0  etelmm{000a0000}-134.o(StubCode)
    RMobileONStore::TMobileONStoreInfoV1::TMobileONStoreInfoV1() 0x0000cdcc   ARM Code       0  etelmm{000a0000}-136.o(StubCode)
    RMobileONStore::Open(RMobilePhone&)      0x0000cdd4   ARM Code       0  etelmm{000a0000}-138.o(StubCode)
    RMobileONStore::Close()                  0x0000cddc   ARM Code       0  etelmm{000a0000}-139.o(StubCode)
    RMobileONStore::RMobileONStore()         0x0000cde4   ARM Code       0  etelmm{000a0000}-140.o(StubCode)
    CPhoneBookBuffer::GetTagAndType(unsigned char&, CPhoneBookBuffer::TPhBkTagType&) 0x0000cdec   ARM Code       0  etelmm{000a0000}-161.o(StubCode)
    CPhoneBookBuffer::AddNewEntryTag()       0x0000cdf4   ARM Code       0  etelmm{000a0000}-162.o(StubCode)
    CPhoneBookBuffer::PutTagAndValue(unsigned char, const TDesC16&) 0x0000cdfc   ARM Code       0  etelmm{000a0000}-164.o(StubCode)
    CPhoneBookBuffer::AddNewNumberTag()      0x0000ce04   ARM Code       0  etelmm{000a0000}-168.o(StubCode)
    CPhoneBookBuffer::RemainingReadLength()  0x0000ce0c   ARM Code       0  etelmm{000a0000}-170.o(StubCode)
    CPhoneBookBuffer::Set(TDes8*)            0x0000ce14   ARM Code       0  etelmm{000a0000}-171.o(StubCode)
    CPhoneBookBuffer::GetValue(TPtrC16&)     0x0000ce1c   ARM Code       0  etelmm{000a0000}-173.o(StubCode)
    CPhoneBookBuffer::GetValue(unsigned char&) 0x0000ce24   ARM Code       0  etelmm{000a0000}-174.o(StubCode)
    CPhoneBookBuffer::GetValue(unsigned short&) 0x0000ce2c   ARM Code       0  etelmm{000a0000}-176.o(StubCode)
    CPhoneBookBuffer::SkipValue(CPhoneBookBuffer::TPhBkTagType) 0x0000ce34   ARM Code       0  etelmm{000a0000}-177.o(StubCode)
    CPhoneBookBuffer::StartRead()            0x0000ce3c   ARM Code       0  etelmm{000a0000}-178.o(StubCode)
    CPhoneBookBuffer::CPhoneBookBuffer()     0x0000ce44   ARM Code       0  etelmm{000a0000}-179.o(StubCode)
    RMobilePhoneBookStore::Open(RMobilePhone&, const TDesC16&) 0x0000ce4c   ARM Code       0  etelmm{000a0000}-260.o(StubCode)
    RMobilePhoneBookStore::Close()           0x0000ce54   ARM Code       0  etelmm{000a0000}-262.o(StubCode)
    RMobilePhoneBookStore::RMobilePhoneBookStore() 0x0000ce5c   ARM Code       0  etelmm{000a0000}-263.o(StubCode)
    RMobilePhoneStore::NotifyStoreEvent(TRequestStatus&, unsigned long&, int&) const 0x0000ce64   ARM Code       0  etelmm{000a0000}-582.o(StubCode)
    RMobilePhoneStore::Read(TRequestStatus&, TDes8&) const 0x0000ce6c   ARM Code       0  etelmm{000a0000}-583.o(StubCode)
    RMobilePhoneStore::Delete(TRequestStatus&, int) const 0x0000ce74   ARM Code       0  etelmm{000a0000}-585.o(StubCode)
    RMobilePhoneStore::GetInfo(TRequestStatus&, TDes8&) const 0x0000ce7c   ARM Code       0  etelmm{000a0000}-586.o(StubCode)
    RMobilePhoneBookStore::Read(TRequestStatus&, int, int, TDes8&) const 0x0000ce84   ARM Code       0  etelmm{000a0000}-624.o(StubCode)
    RMobilePhoneBookStore::Write(TRequestStatus&, const TDesC8&, int&) const 0x0000ce8c   ARM Code       0  etelmm{000a0000}-625.o(StubCode)
    RMobilePhoneBookStore::TMobilePhoneBookInfoV5::TMobilePhoneBookInfoV5() 0x0000ce94   ARM Code       0  etelmm{000a0000}-789.o(StubCode)
    CRepository::NewL(TUid)                  0x0000ce9c   ARM Code       0  centralrepository{000a0000}-14.o(StubCode)
    CRepository::Get(unsigned long, int&)    0x0000cea4   ARM Code       0  centralrepository{000a0000}-9.o(StubCode)
    QtMobility::QContactId::setLocalId(const unsigned&) 0x0000ceac   ARM Code       0  QtContacts{00010103}-1.o(StubCode)
    QtMobility::QContactChangeSet::emitSignals(QtMobility::QContactManagerEngine*) 0x0000ceb4   ARM Code       0  QtContacts{00010103}-147.o(StubCode)
    QtMobility::QContactChangeSet::setDataChanged(bool) 0x0000cebc   ARM Code       0  QtContacts{00010103}-148.o(StubCode)
    QtMobility::QContactChangeSet::insertAddedContact(unsigned) 0x0000cec4   ARM Code       0  QtContacts{00010103}-150.o(StubCode)
    QtMobility::QContactChangeSet::insertChangedContact(unsigned) 0x0000cecc   ARM Code       0  QtContacts{00010103}-154.o(StubCode)
    QtMobility::QContactChangeSet::insertRemovedContact(unsigned) 0x0000ced4   ARM Code       0  QtContacts{00010103}-155.o(StubCode)
    QtMobility::QContactChangeSet::QContactChangeSet() 0x0000cedc   ARM Code       0  QtContacts{00010103}-167.o(StubCode)
    QtMobility::QContactChangeSet::~QContactChangeSet() 0x0000cee4   ARM Code       0  QtContacts{00010103}-170.o(StubCode)
    QtMobility::QContactSortOrder::~QContactSortOrder() 0x0000ceec   ARM Code       0  QtContacts{00010103}-191.o(StubCode)
    QtMobility::QContactId::setManagerUri(const QString&) 0x0000cef4   ARM Code       0  QtContacts{00010103}-2.o(StubCode)
    QtMobility::QContactSaveRequest::setContacts(const QList<QtMobility::QContact>&) 0x0000cefc   ARM Code       0  QtContacts{00010103}-240.o(StubCode)
    QtMobility::QContactSaveRequest::QContactSaveRequest(QObject*) 0x0000cf04   ARM Code       0  QtContacts{00010103}-243.o(StubCode)
    QtMobility::QContactDetailFilter::QContactDetailFilter(const QtMobility::QContactFilter&) 0x0000cf0c   ARM Code       0  QtContacts{00010103}-257.o(StubCode)
    QtMobility::QContactFetchRequest::setSorting(const QList<QtMobility::QContactSortOrder>&) 0x0000cf14   ARM Code       0  QtContacts{00010103}-267.o(StubCode)
    QtMobility::QContactFetchRequest::setFetchHint(const QtMobility::QContactFetchHint&) 0x0000cf1c   ARM Code       0  QtContacts{00010103}-270.o(StubCode)
    QtMobility::QContactFetchRequest::setFilter(const QtMobility::QContactFilter&) 0x0000cf24   ARM Code       0  QtContacts{00010103}-273.o(StubCode)
    QtMobility::QContactFetchRequest::QContactFetchRequest(QObject*) 0x0000cf2c   ARM Code       0  QtContacts{00010103}-274.o(StubCode)
    QtMobility::QContactLocalIdFilter::setIds(const QList<unsigned>&) 0x0000cf34   ARM Code       0  QtContacts{00010103}-304.o(StubCode)
    QtMobility::QContactLocalIdFilter::QContactLocalIdFilter(const QtMobility::QContactFilter&) 0x0000cf3c   ARM Code       0  QtContacts{00010103}-305.o(StubCode)
    QtMobility::QContactLocalIdFilter::QContactLocalIdFilter() 0x0000cf44   ARM Code       0  QtContacts{00010103}-306.o(StubCode)
    QtMobility::QContactManagerEngine::testFilter(const QtMobility::QContactFilter&, const QtMobility::QContact&) 0x0000cf4c   ARM Code       0  QtContacts{00010103}-309.o(StubCode)
    QtMobility::QContactManagerEngine::qt_metacall(QMetaObject::Call, int, void**) 0x0000cf54   ARM Code       0  QtContacts{00010103}-311.o(StubCode)
    QtMobility::QContactManagerEngine::qt_metacast(const char*) 0x0000cf5c   ARM Code       0  QtContacts{00010103}-312.o(StubCode)
    QtMobility::QContactManagerEngine::saveContact(QtMobility::QContact*, QtMobility::QContactManager::Error*) 0x0000cf64   ARM Code       0  QtContacts{00010103}-313.o(StubCode)
    QtMobility::QContactManagerEngine::removeContact(const unsigned&, QtMobility::QContactManager::Error*) 0x0000cf6c   ARM Code       0  QtContacts{00010103}-319.o(StubCode)
    QtMobility::QContactManagerEngine::saveRelationship(QtMobility::QContactRelationship*, QtMobility::QContactManager::Error*) 0x0000cf74   ARM Code       0  QtContacts{00010103}-326.o(StubCode)
    QtMobility::QContactManagerEngine::setSelfContactId(const unsigned&, QtMobility::QContactManager::Error*) 0x0000cf7c   ARM Code       0  QtContacts{00010103}-327.o(StubCode)
    QtMobility::QContactManagerEngine::saveRelationships(QList<QtMobility::QContactRelationship>*, QMap<int, QtMobility::QContactManager::Error>*, QtMobility::QContactManager::Error*) 0x0000cf84   ARM Code       0  QtContacts{00010103}-329.o(StubCode)
    QtMobility::QContactManagerEngine::removeRelationship(const QtMobility::QContactRelationship&, QtMobility::QContactManager::Error*) 0x0000cf8c   ARM Code       0  QtContacts{00010103}-332.o(StubCode)
    QtMobility::QContactManagerEngine::updateRequestState(QtMobility::QContactAbstractRequest*, QtMobility::QContactAbstractRequest::State) 0x0000cf94   ARM Code       0  QtContacts{00010103}-333.o(StubCode)
    QtMobility::QContactManagerEngine::removeRelationships(const QList<QtMobility::QContactRelationship>&, QMap<int, QtMobility::QContactManager::Error>*, QtMobility::QContactManager::Error*) 0x0000cf9c   ARM Code       0  QtContacts{00010103}-336.o(StubCode)
    QtMobility::QContactManagerEngine::saveDetailDefinition(const QtMobility::QContactDetailDefinition&, const QString&, QtMobility::QContactManager::Error*) 0x0000cfa4   ARM Code       0  QtContacts{00010103}-338.o(StubCode)
    QtMobility::QContactManagerEngine::removeDetailDefinition(const QString&, const QString&, QtMobility::QContactManager::Error*) 0x0000cfac   ARM Code       0  QtContacts{00010103}-340.o(StubCode)
    QtMobility::QContactManagerEngine::setContactDisplayLabel(QtMobility::QContact*, const QString&) 0x0000cfb4   ARM Code       0  QtContacts{00010103}-341.o(StubCode)
    QtMobility::QContactManagerEngine::updateContactSaveRequest(QtMobility::QContactSaveRequest*, const QList<QtMobility::QContact>&, QtMobility::QContactManager::Error, const QMap<int, QtMobility::QContactManager::Error>&, QtMobility::QContactAbstractRequest::State) 0x0000cfbc   ARM Code       0  QtContacts{00010103}-344.o(StubCode)
    QtMobility::QContactManagerEngine::updateContactFetchRequest(QtMobility::QContactFetchRequest*, const QList<QtMobility::QContact>&, QtMobility::QContactManager::Error, QtMobility::QContactAbstractRequest::State) 0x0000cfc4   ARM Code       0  QtContacts{00010103}-345.o(StubCode)
    QtMobility::QContactManagerEngine::setDetailAccessConstraints(QtMobility::QContactDetail*, QFlags<QtMobility::QContactDetail::AccessConstraint>) 0x0000cfcc   ARM Code       0  QtContacts{00010103}-346.o(StubCode)
    QtMobility::QContactManagerEngine::updateContactRemoveRequest(QtMobility::QContactRemoveRequest*, QtMobility::QContactManager::Error, const QMap<int, QtMobility::QContactManager::Error>&, QtMobility::QContactAbstractRequest::State) 0x0000cfd4   ARM Code       0  QtContacts{00010103}-347.o(StubCode)
    QtMobility::QContactManagerEngine::updateDefinitionFetchRequest(QtMobility::QContactDetailDefinitionFetchRequest*, const QMap<QString, QtMobility::QContactDetailDefinition>&, QtMobility::QContactManager::Error, QMap<int, QtMobility::QContactManager::Error>&, QtMobility::QContactAbstractRequest::State) 0x0000cfdc   ARM Code       0  QtContacts{00010103}-349.o(StubCode)
    QtMobility::QContactManagerEngine::updateContactLocalIdFetchRequest(QtMobility::QContactLocalIdFetchRequest*, const QList<unsigned>&, QtMobility::QContactManager::Error, QtMobility::QContactAbstractRequest::State) 0x0000cfe4   ARM Code       0  QtContacts{00010103}-354.o(StubCode)
    QtMobility::QContactManagerEngine::addSorted(QList<QtMobility::QContact>*, const QtMobility::QContact&, QList<QtMobility::QContactSortOrder>&) 0x0000cfec   ARM Code       0  QtContacts{00010103}-355.o(StubCode)
    QtMobility::QContactRemoveRequest::setContactIds(const QList<unsigned>&) 0x0000cff4   ARM Code       0  QtContacts{00010103}-368.o(StubCode)
    QtMobility::QContactRemoveRequest::QContactRemoveRequest(QObject*) 0x0000cffc   ARM Code       0  QtContacts{00010103}-371.o(StubCode)
    QtMobility::QContactId::QContactId()     0x0000d004   ARM Code       0  QtContacts{00010103}-4.o(StubCode)
    QtMobility::QContactDetailDefinition::setName(const QString&) 0x0000d00c   ARM Code       0  QtContacts{00010103}-403.o(StubCode)
    QtMobility::QContactDetailDefinition::setFields(const QMap<QString, QtMobility::QContactDetailFieldDefinition>&) 0x0000d014   ARM Code       0  QtContacts{00010103}-404.o(StubCode)
    QtMobility::QContactDetailDefinition::setUnique(bool) 0x0000d01c   ARM Code       0  QtContacts{00010103}-405.o(StubCode)
    QtMobility::QContactDetailDefinition::QContactDetailDefinition(const QtMobility::QContactDetailDefinition&) 0x0000d024   ARM Code       0  QtContacts{00010103}-406.o(StubCode)
    QtMobility::QContactDetailDefinition::QContactDetailDefinition() 0x0000d02c   ARM Code       0  QtContacts{00010103}-407.o(StubCode)
    QtMobility::QContactDetailDefinition::~QContactDetailDefinition() 0x0000d034   ARM Code       0  QtContacts{00010103}-410.o(StubCode)
    QtMobility::QContactDetailDefinition::operator =(const QtMobility::QContactDetailDefinition&) 0x0000d03c   ARM Code       0  QtContacts{00010103}-412.o(StubCode)
    QtMobility::QContactLocalIdFetchRequest::setSorting(const QList<QtMobility::QContactSortOrder>&) 0x0000d044   ARM Code       0  QtContacts{00010103}-436.o(StubCode)
    QtMobility::QContactLocalIdFetchRequest::setFilter(const QtMobility::QContactFilter&) 0x0000d04c   ARM Code       0  QtContacts{00010103}-441.o(StubCode)
    QtMobility::QContactLocalIdFetchRequest::QContactLocalIdFetchRequest(QObject*) 0x0000d054   ARM Code       0  QtContacts{00010103}-442.o(StubCode)
    QtMobility::QContactManagerEngineFactory::~QContactManagerEngineFactory__sub_object() 0x0000d05c   ARM Code       0  QtContacts{00010103}-446.o(StubCode)
    QtMobility::QContactDetailFieldDefinition::setDataType(QVariant::Type) 0x0000d064   ARM Code       0  QtContacts{00010103}-447.o(StubCode)
    QtMobility::QContactDetailFieldDefinition::setAllowableValues(QList<QVariant>) 0x0000d06c   ARM Code       0  QtContacts{00010103}-448.o(StubCode)
    QtMobility::QContactDetailFieldDefinition::QContactDetailFieldDefinition(const QtMobility::QContactDetailFieldDefinition&) 0x0000d074   ARM Code       0  QtContacts{00010103}-449.o(StubCode)
    QtMobility::QContactDetailFieldDefinition::QContactDetailFieldDefinition() 0x0000d07c   ARM Code       0  QtContacts{00010103}-450.o(StubCode)
    QtMobility::QContactDetailFieldDefinition::~QContactDetailFieldDefinition() 0x0000d084   ARM Code       0  QtContacts{00010103}-453.o(StubCode)
    QtMobility::QContactDetailFieldDefinition::operator =(const QtMobility::QContactDetailFieldDefinition&) 0x0000d08c   ARM Code       0  QtContacts{00010103}-455.o(StubCode)
    QtMobility::QContactDetail::setValue(const char*, const QVariant&) 0x0000d094   ARM Code       0  QtContacts{00010103}-48.o(StubCode)
    QtMobility::QContactDetail::QContactDetail(const char*) 0x0000d09c   ARM Code       0  QtContacts{00010103}-50.o(StubCode)
    QtMobility::QContact::saveDetail(QtMobility::QContactDetail*) 0x0000d0a4   ARM Code       0  QtContacts{00010103}-512.o(StubCode)
    QtMobility::QContact::clearDetails()     0x0000d0ac   ARM Code       0  QtContacts{00010103}-513.o(StubCode)
    QtMobility::QContact::setId(const QtMobility::QContactId&) 0x0000d0b4   ARM Code       0  QtContacts{00010103}-515.o(StubCode)
    QtMobility::QContact::setType(const QString&) 0x0000d0bc   ARM Code       0  QtContacts{00010103}-516.o(StubCode)
    QtMobility::QContact::QContact(const QtMobility::QContact&) 0x0000d0c4   ARM Code       0  QtContacts{00010103}-518.o(StubCode)
    QtMobility::QContact::QContact()         0x0000d0cc   ARM Code       0  QtContacts{00010103}-519.o(StubCode)
    QtMobility::QContactDetail::QContactDetail(const QtMobility::QContactDetail&) 0x0000d0d4   ARM Code       0  QtContacts{00010103}-52.o(StubCode)
    QtMobility::QContact::~QContact()        0x0000d0dc   ARM Code       0  QtContacts{00010103}-522.o(StubCode)
    QtMobility::QContact::operator =(const QtMobility::QContact&) 0x0000d0e4   ARM Code       0  QtContacts{00010103}-524.o(StubCode)
    QtMobility::QContactDetail::QContactDetail(const QtMobility::QContactDetail&, const char*) 0x0000d0ec   ARM Code       0  QtContacts{00010103}-53.o(StubCode)
    QtMobility::QContactId::managerUri() const 0x0000d0f4   ARM Code       0  QtContacts{00010103}-531.o(StubCode)
    QtMobility::QContactDetail::definitionName() const 0x0000d0fc   ARM Code       0  QtContacts{00010103}-539.o(StubCode)
    QtMobility::QContactDetail::value(const char*) const 0x0000d104   ARM Code       0  QtContacts{00010103}-542.o(StubCode)
    QtMobility::QContactDetail::isEmpty() const 0x0000d10c   ARM Code       0  QtContacts{00010103}-544.o(StubCode)
    QtMobility::QContactFilter::type() const 0x0000d114   ARM Code       0  QtContacts{00010103}-548.o(StubCode)
    QtMobility::QContactSaveRequest::contacts() const 0x0000d11c   ARM Code       0  QtContacts{00010103}-590.o(StubCode)
    QtMobility::QContactSaveRequest::errorMap() const 0x0000d124   ARM Code       0  QtContacts{00010103}-591.o(StubCode)
    QtMobility::QContactDetailFilter::matchFlags() const 0x0000d12c   ARM Code       0  QtContacts{00010103}-593.o(StubCode)
    QtMobility::QContactDetailFilter::detailFieldName() const 0x0000d134   ARM Code       0  QtContacts{00010103}-594.o(StubCode)
    QtMobility::QContactDetailFilter::detailDefinitionName() const 0x0000d13c   ARM Code       0  QtContacts{00010103}-595.o(StubCode)
    QtMobility::QContactDetailFilter::value() const 0x0000d144   ARM Code       0  QtContacts{00010103}-596.o(StubCode)
    QtMobility::QContactFetchRequest::filter() const 0x0000d14c   ARM Code       0  QtContacts{00010103}-598.o(StubCode)
    QtMobility::QContactFetchRequest::sorting() const 0x0000d154   ARM Code       0  QtContacts{00010103}-599.o(StubCode)
    QtMobility::QContactFetchRequest::contacts() const 0x0000d15c   ARM Code       0  QtContacts{00010103}-600.o(StubCode)
    QtMobility::QContactLocalIdFilter::ids() const 0x0000d164   ARM Code       0  QtContacts{00010103}-606.o(StubCode)
    QtMobility::QContactManagerEngine::managerUri() const 0x0000d16c   ARM Code       0  QtContacts{00010103}-609.o(StubCode)
    QtMobility::QContactManagerEngine::relationships(const QString&, const QtMobility::QContactId&, QtMobility::QContactRelationship::Role, QtMobility::QContactManager::Error*) const 0x0000d174   ARM Code       0  QtContacts{00010103}-612.o(StubCode)
    QtMobility::QContactManagerEngine::selfContactId(QtMobility::QContactManager::Error*) const 0x0000d17c   ARM Code       0  QtContacts{00010103}-613.o(StubCode)
    QtMobility::QContactManagerEngine::validateContact(const QtMobility::QContact&, QtMobility::QContactManager::Error*) const 0x0000d184   ARM Code       0  QtContacts{00010103}-614.o(StubCode)
    QtMobility::QContactManagerEngine::detailDefinition(const QString&, const QString&, QtMobility::QContactManager::Error*) const 0x0000d18c   ARM Code       0  QtContacts{00010103}-615.o(StubCode)
    QtMobility::QContactManagerEngine::compatibleContact(const QtMobility::QContact&, QtMobility::QContactManager::Error*) const 0x0000d194   ARM Code       0  QtContacts{00010103}-616.o(StubCode)
    QtMobility::QContactManagerEngine::managerParameters() const 0x0000d19c   ARM Code       0  QtContacts{00010103}-619.o(StubCode)
    QtMobility::QContactDetail::~QContactDetail() 0x0000d1a4   ARM Code       0  QtContacts{00010103}-62.o(StubCode)
    QtMobility::QContactManagerEngine::supportedDataTypes() const 0x0000d1ac   ARM Code       0  QtContacts{00010103}-620.o(StubCode)
    QtMobility::QContactManagerEngine::validateDefinition(const QtMobility::QContactDetailDefinition&, QtMobility::QContactManager::Error*) const 0x0000d1b4   ARM Code       0  QtContacts{00010103}-621.o(StubCode)
    QtMobility::QContactManagerEngine::isRelationshipTypeSupported(const QString&, const QString&) const 0x0000d1bc   ARM Code       0  QtContacts{00010103}-624.o(StubCode)
    QtMobility::QContactRemoveRequest::contactIds() const 0x0000d1c4   ARM Code       0  QtContacts{00010103}-627.o(StubCode)
    QtMobility::QContactRemoveRequest::errorMap() const 0x0000d1cc   ARM Code       0  QtContacts{00010103}-629.o(StubCode)
    QtMobility::QContactAbstractRequest::type() const 0x0000d1d4   ARM Code       0  QtContacts{00010103}-634.o(StubCode)
    QtMobility::QContactAbstractRequest::error() const 0x0000d1dc   ARM Code       0  QtContacts{00010103}-635.o(StubCode)
    QtMobility::QContactAbstractRequest::state() const 0x0000d1e4   ARM Code       0  QtContacts{00010103}-636.o(StubCode)
    QtMobility::QContactAbstractRequest::isActive() const 0x0000d1ec   ARM Code       0  QtContacts{00010103}-638.o(StubCode)
    QtMobility::QContactDetailDefinition::name() const 0x0000d1f4   ARM Code       0  QtContacts{00010103}-641.o(StubCode)
    QtMobility::QContactLocalIdFetchRequest::ids() const 0x0000d1fc   ARM Code       0  QtContacts{00010103}-657.o(StubCode)
    QtMobility::QContactLocalIdFetchRequest::filter() const 0x0000d204   ARM Code       0  QtContacts{00010103}-658.o(StubCode)
    QtMobility::QContactLocalIdFetchRequest::sorting() const 0x0000d20c   ARM Code       0  QtContacts{00010103}-659.o(StubCode)
    QtMobility::QContactManagerEngineFactory::supportedImplementationVersions() const 0x0000d214   ARM Code       0  QtContacts{00010103}-660.o(StubCode)
    QtMobility::QContactDetailDefinitionFetchRequest::contactType() const 0x0000d21c   ARM Code       0  QtContacts{00010103}-681.o(StubCode)
    QtMobility::QContactDetailDefinitionFetchRequest::definitionNames() const 0x0000d224   ARM Code       0  QtContacts{00010103}-683.o(StubCode)
    QtMobility::QContact::id() const         0x0000d22c   ARM Code       0  QtContacts{00010103}-692.o(StubCode)
    QtMobility::QContact::detail(const char*) const 0x0000d234   ARM Code       0  QtContacts{00010103}-694.o(StubCode)
    QtMobility::QContact::details(const char*) const 0x0000d23c   ARM Code       0  QtContacts{00010103}-696.o(StubCode)
    QtMobility::QContact::details(const QString&) const 0x0000d244   ARM Code       0  QtContacts{00010103}-698.o(StubCode)
    QtMobility::QContactId::~QContactId()    0x0000d24c   ARM Code       0  QtContacts{00010103}-7.o(StubCode)
    QtMobility::QContact::localId() const    0x0000d254   ARM Code       0  QtContacts{00010103}-701.o(StubCode)
    QtMobility::QContactFilter::~QContactFilter() 0x0000d25c   ARM Code       0  QtContacts{00010103}-74.o(StubCode)
    QtMobility::QContactFilter::operator =(const QtMobility::QContactFilter&) 0x0000d264   ARM Code       0  QtContacts{00010103}-76.o(StubCode)
    QtMobility::QContactSaveRequest::~QContactSaveRequest() 0x0000d26c   ARM Code       0  QtContacts{00010103}-764.o(StubCode)
    QtMobility::QContactFetchRequest::~QContactFetchRequest() 0x0000d274   ARM Code       0  QtContacts{00010103}-784.o(StubCode)
    QtMobility::QContactRemoveRequest::~QContactRemoveRequest() 0x0000d27c   ARM Code       0  QtContacts{00010103}-799.o(StubCode)
    QtMobility::QContactLocalIdFetchRequest::~QContactLocalIdFetchRequest() 0x0000d284   ARM Code       0  QtContacts{00010103}-833.o(StubCode)
    operator delete (void*)                  0x0000d28c   ARM Code       0  libstdcpp{00010000}-988.o(StubCode)
    operator new(unsigned)                   0x0000d294   ARM Code       0  libstdcpp{00010000}-992.o(StubCode)
    qWarning(const char*, ...)               0x0000d29c   ARM Code       0  QtCore{00040703}-104.o(StubCode)
    QByteArray::realloc(int)                 0x0000d2a4   ARM Code       0  QtCore{00040703}-150.o(StubCode)
    QChar::QChar(char)                       0x0000d2ac   ARM Code       0  QtCore{00040703}-1560.o(StubCode)
    QTimer::singleShot(int, QObject*, const char*) 0x0000d2b4   ARM Code       0  QtCore{00040703}-1706.o(StubCode)
    QTimer::start(int)                       0x0000d2bc   ARM Code       0  QtCore{00040703}-1714.o(StubCode)
    QTimer::QTimer(QObject*)                 0x0000d2c4   ARM Code       0  QtCore{00040703}-1717.o(StubCode)
    QEventLoop::exec(QFlags<QEventLoop::ProcessEventsFlag>) 0x0000d2cc   ARM Code       0  QtCore{00040703}-175.o(StubCode)
    QObject::childEvent(QChildEvent*)        0x0000d2d4   ARM Code       0  QtCore{00040703}-1760.o(StubCode)
    QObject::disconnect(const QObject*, const char*, const QObject*, const char*) 0x0000d2dc   ARM Code       0  QtCore{00040703}-1761.o(StubCode)
    QObject::timerEvent(QTimerEvent*)        0x0000d2e4   ARM Code       0  QtCore{00040703}-1763.o(StubCode)
    QObject::customEvent(QEvent*)            0x0000d2ec   ARM Code       0  QtCore{00040703}-1764.o(StubCode)
    QObject::deleteLater()                   0x0000d2f4   ARM Code       0  QtCore{00040703}-1765.o(StubCode)
    QObject::eventFilter(QObject*, QEvent*)  0x0000d2fc   ARM Code       0  QtCore{00040703}-1766.o(StubCode)
    QObject::qt_metacall(QMetaObject::Call, int, void**) 0x0000d304   ARM Code       0  QtCore{00040703}-1767.o(StubCode)
    QObject::qt_metacast(const char*)        0x0000d30c   ARM Code       0  QtCore{00040703}-1768.o(StubCode)
    QObject::connectNotify(const char*)      0x0000d314   ARM Code       0  QtCore{00040703}-1773.o(StubCode)
    QObject::disconnectNotify(const char*)   0x0000d31c   ARM Code       0  QtCore{00040703}-1777.o(StubCode)
    QObject::event(QEvent*)                  0x0000d324   ARM Code       0  QtCore{00040703}-1784.o(StubCode)
    QObject::connect(const QObject*, const char*, const QObject*, const char*, Qt::ConnectionType) 0x0000d32c   ARM Code       0  QtCore{00040703}-1785.o(StubCode)
    QObject::QObject(QObject*)               0x0000d334   ARM Code       0  QtCore{00040703}-1789.o(StubCode)
    QEventLoop::QEventLoop(QObject*)         0x0000d33c   ARM Code       0  QtCore{00040703}-179.o(StubCode)
    QObject::~QObject()                      0x0000d344   ARM Code       0  QtCore{00040703}-1794.o(StubCode)
    QString::fromLatin1(const char*, int)    0x0000d34c   ARM Code       0  QtCore{00040703}-1814.o(StubCode)
    QString::fromAscii_helper(const char*, int) 0x0000d354   ARM Code       0  QtCore{00040703}-1825.o(StubCode)
    QString::fromLatin1_helper(const char*, int) 0x0000d35c   ARM Code       0  QtCore{00040703}-1826.o(StubCode)
    QString::free(QString::Data*)            0x0000d364   ARM Code       0  QtCore{00040703}-1830.o(StubCode)
    QString::insert(int, const QChar*, int)  0x0000d36c   ARM Code       0  QtCore{00040703}-1839.o(StubCode)
    QString::fromAscii(const char*, int)     0x0000d374   ARM Code       0  QtCore{00040703}-1874.o(StubCode)
    QString::fromUtf16(const unsigned short*, int) 0x0000d37c   ARM Code       0  QtCore{00040703}-1875.o(StubCode)
    QString::operator =(const QString&)      0x0000d384   ARM Code       0  QtCore{00040703}-1885.o(StubCode)
    QMapData::node_delete(QMapData::Node**, int, QMapData::Node*) 0x0000d38c   ARM Code       0  QtCore{00040703}-1947.o(StubCode)
    QMapData::continueFreeData(int)          0x0000d394   ARM Code       0  QtCore{00040703}-1949.o(StubCode)
    QVariant::QVariant(const QString&)       0x0000d39c   ARM Code       0  QtCore{00040703}-2034.o(StubCode)
    QVariant::QVariant(const QVariant&)      0x0000d3a4   ARM Code       0  QtCore{00040703}-2037.o(StubCode)
    QVariant::~QVariant()                    0x0000d3ac   ARM Code       0  QtCore{00040703}-2082.o(StubCode)
    QListData::append()                      0x0000d3b4   ARM Code       0  QtCore{00040703}-2188.o(StubCode)
    QListData::realloc(int)                  0x0000d3bc   ARM Code       0  QtCore{00040703}-2197.o(StubCode)
    QMetaType::registerType(const char*, void(*)(void*), void*(*)(const void*)) 0x0000d3c4   ARM Code       0  QtCore{00040703}-2199.o(StubCode)
    QtPrivate::QStringList_contains(const QStringList*, const QString&, Qt::CaseSensitivity) 0x0000d3cc   ARM Code       0  QtCore{00040703}-2321.o(StubCode)
    QMetaObject::changeGuard(QObject**, QObject*) 0x0000d3d4   ARM Code       0  QtCore{00040703}-274.o(StubCode)
    QMetaObject::removeGuard(QObject**)      0x0000d3dc   ARM Code       0  QtCore{00040703}-275.o(StubCode)
    QMetaObject::activate(QObject*, const QMetaObject*, int, void**) 0x0000d3e4   ARM Code       0  QtCore{00040703}-282.o(StubCode)
    QChar::isDigit() const                   0x0000d3ec   ARM Code       0  QtCore{00040703}-2867.o(StubCode)
    QString::toLocal8Bit() const             0x0000d3f4   ARM Code       0  QtCore{00040703}-3040.o(StubCode)
    QString::right(int) const                0x0000d3fc   ARM Code       0  QtCore{00040703}-3059.o(StubCode)
    QString::utf16() const                   0x0000d404   ARM Code       0  QtCore{00040703}-3064.o(StubCode)
    QString::operator ==(const QLatin1String&) const 0x0000d40c   ARM Code       0  QtCore{00040703}-3097.o(StubCode)
    QString::operator ==(const QString&) const 0x0000d414   ARM Code       0  QtCore{00040703}-3098.o(StubCode)
    QString::operator <(const QString&) const 0x0000d41c   ARM Code       0  QtCore{00040703}-3101.o(StubCode)
    QTextStream::QTextStream(QString*, QFlags<QIODevice::OpenModeFlag>) 0x0000d424   ARM Code       0  QtCore{00040703}-312.o(StubCode)
    QVariant::toString() const               0x0000d42c   ARM Code       0  QtCore{00040703}-3163.o(StubCode)
    qt_message_output(QtMsgType, const char*) 0x0000d434   ARM Code       0  QtCore{00040703}-32.o(StubCode)
    QTextStream::~QTextStream()              0x0000d43c   ARM Code       0  QtCore{00040703}-324.o(StubCode)
    QTextStream::operator <<(const QString&) 0x0000d444   ARM Code       0  QtCore{00040703}-331.o(StubCode)
    QTextStream::operator <<(char)           0x0000d44c   ARM Code       0  QtCore{00040703}-332.o(StubCode)
    QTextStream::operator <<(int)            0x0000d454   ARM Code       0  QtCore{00040703}-335.o(StubCode)
    QMapData::createData(int)                0x0000d45c   ARM Code       0  QtCore{00040703}-3607.o(StubCode)
    QMapData::node_create(QMapData::Node**, int, int) 0x0000d464   ARM Code       0  QtCore{00040703}-3608.o(StubCode)
    QListData::detach_grow(int*, int)        0x0000d46c   ARM Code       0  QtCore{00040703}-3689.o(StubCode)
    QListData::detach(int)                   0x0000d474   ARM Code       0  QtCore{00040703}-3691.o(StubCode)
    qFree(void*)                             0x0000d47c   ARM Code       0  QtCore{00040703}-70.o(StubCode)
    strcmp                                   0x0000d484   ARM Code       0  libc{00010000}-350.o(StubCode)
    CActive::Cancel()                        0x0000d48c   ARM Code       0  euser{000a0000}-1088.o(StubCode)
    CActive::RunError(int)                   0x0000d494   ARM Code       0  euser{000a0000}-1089.o(StubCode)
    CActive::SetActive()                     0x0000d49c   ARM Code       0  euser{000a0000}-1090.o(StubCode)
    CActive::CActive__sub_object(int)        0x0000d4a4   ARM Code       0  euser{000a0000}-1091.o(StubCode)
    CActive::~CActive__sub_object()          0x0000d4ac   ARM Code       0  euser{000a0000}-1094.o(StubCode)
    TPtrC16::TPtrC16(const unsigned short*)  0x0000d4b4   ARM Code       0  euser{000a0000}-1169.o(StubCode)
    TPtrC16::TPtrC16(const TDesC16&)         0x0000d4bc   ARM Code       0  euser{000a0000}-1171.o(StubCode)
    TPtrC16::TPtrC16()                       0x0000d4c4   ARM Code       0  euser{000a0000}-1172.o(StubCode)
    RHandleBase::Close()                     0x0000d4cc   ARM Code       0  euser{000a0000}-120.o(StubCode)
    TChar::IsDigit() const                   0x0000d4d4   ARM Code       0  euser{000a0000}-1622.o(StubCode)
    TDesC16::AtC(int) const                  0x0000d4dc   ARM Code       0  euser{000a0000}-1806.o(StubCode)
    TDesC16::Ptr() const                     0x0000d4e4   ARM Code       0  euser{000a0000}-1807.o(StubCode)
    TDesC16::Match(const TDesC16&) const     0x0000d4ec   ARM Code       0  euser{000a0000}-1816.o(StubCode)
    TDesC16::Compare(const TDesC16&) const   0x0000d4f4   ARM Code       0  euser{000a0000}-1822.o(StubCode)
    CleanupStack::PopAndDestroy(int)         0x0000d4fc   ARM Code       0  euser{000a0000}-202.o(StubCode)
    RBuf8::ReAlloc(int)                      0x0000d504   ARM Code       0  euser{000a0000}-2025.o(StubCode)
    CleanupStack::PopAndDestroy()            0x0000d50c   ARM Code       0  euser{000a0000}-203.o(StubCode)
    RBuf8::RBuf8()                           0x0000d514   ARM Code       0  euser{000a0000}-2030.o(StubCode)
    RBuf16::CleanupClosePushL()              0x0000d51c   ARM Code       0  euser{000a0000}-2035.o(StubCode)
    RBuf16::CreateL(const TDesC16&)          0x0000d524   ARM Code       0  euser{000a0000}-2045.o(StubCode)
    CleanupStack::Pop()                      0x0000d52c   ARM Code       0  euser{000a0000}-205.o(StubCode)
    RBuf16::RBuf16()                         0x0000d534   ARM Code       0  euser{000a0000}-2053.o(StubCode)
    User::MarkCleanupStack()                 0x0000d53c   ARM Code       0  euser{000a0000}-2060.o(StubCode)
    User::UnMarkCleanupStack(TTrapHandler*)  0x0000d544   ARM Code       0  euser{000a0000}-2061.o(StubCode)
    CleanupStack::PushL(CBase*)              0x0000d54c   ARM Code       0  euser{000a0000}-208.o(StubCode)
    XLeaveException::GetReason() const       0x0000d554   ARM Code       0  euser{000a0000}-2082.o(StubCode)
    TDesC16::Right(int) const                0x0000d55c   ARM Code       0  euser{000a0000}-2107.o(StubCode)
    CActive::Extension_(unsigned, void*&, void*) 0x0000d564   ARM Code       0  euser{000a0000}-2128.o(StubCode)
    CActiveScheduler::Add(CActive*)          0x0000d56c   ARM Code       0  euser{000a0000}-424.o(StubCode)
    CActiveSchedulerWait::Start()            0x0000d574   ARM Code       0  euser{000a0000}-505.o(StubCode)
    CActiveSchedulerWait::AsyncStop()        0x0000d57c   ARM Code       0  euser{000a0000}-507.o(StubCode)
    CActiveSchedulerWait::CActiveSchedulerWait() 0x0000d584   ARM Code       0  euser{000a0000}-508.o(StubCode)
    User::LeaveIfError(int)                  0x0000d58c   ARM Code       0  euser{000a0000}-593.o(StubCode)
    User::WaitForRequest(TRequestStatus&)    0x0000d594   ARM Code       0  euser{000a0000}-604.o(StubCode)
    User::Leave(int)                         0x0000d59c   ARM Code       0  euser{000a0000}-649.o(StubCode)
    User::AllocZL(int)                       0x0000d5a4   ARM Code       0  euser{000a0000}-654.o(StubCode)
    User::Invariant()                        0x0000d5ac   ARM Code       0  euser{000a0000}-669.o(StubCode)
    User::LockedDec(int&)                    0x0000d5b4   ARM Code       0  euser{000a0000}-670.o(StubCode)
    User::LockedInc(int&)                    0x0000d5bc   ARM Code       0  euser{000a0000}-671.o(StubCode)
    TDes8::Zero()                            0x0000d5c4   ARM Code       0  euser{000a0000}-752.o(StubCode)
    TBufBase16::TBufBase16(int)              0x0000d5cc   ARM Code       0  euser{000a0000}-81.o(StubCode)
    TPtr8::TPtr8(unsigned char*, int, int)   0x0000d5d4   ARM Code       0  euser{000a0000}-816.o(StubCode)
    CTimer::ConstructL()                     0x0000d5dc   ARM Code       0  euser{000a0000}-881.o(StubCode)
    CTimer::After(TTimeIntervalMicroSeconds32) 0x0000d5e4   ARM Code       0  euser{000a0000}-885.o(StubCode)
    CTimer::DoCancel()                       0x0000d5ec   ARM Code       0  euser{000a0000}-886.o(StubCode)
    CTimer::CTimer__sub_object(int)          0x0000d5f4   ARM Code       0  euser{000a0000}-887.o(StubCode)
    CTimer::~CTimer__sub_object()            0x0000d5fc   ARM Code       0  euser{000a0000}-890.o(StubCode)
    TDes16::Copy(const TDesC16&)             0x0000d604   ARM Code       0  euser{000a0000}-953.o(StubCode)
    TDes16::Delete(int, int)                 0x0000d60c   ARM Code       0  euser{000a0000}-972.o(StubCode)
    __aeabi_memcpy4                          0x0000d614   ARM Code       0  drtaeabi{000a0000}-147.o(StubCode)
    __aeabi_unwind_cpp_pr0                   0x0000d61c   ARM Code       0  drtaeabi{000a0000}-158.o(StubCode)
    __cxa_begin_catch                        0x0000d624   ARM Code       0  drtaeabi{000a0000}-180.o(StubCode)
    __cxa_end_catch                          0x0000d62c   ARM Code       0  drtaeabi{000a0000}-183.o(StubCode)
    __cxa_end_cleanup                        0x0000d634   ARM Code       0  drtaeabi{000a0000}-184.o(StubCode)
    __cxa_guard_abort                        0x0000d63c   ARM Code       0  drtaeabi{000a0000}-186.o(StubCode)
    __cxa_guard_acquire                      0x0000d644   ARM Code       0  drtaeabi{000a0000}-187.o(StubCode)
    __cxa_guard_release                      0x0000d64c   ARM Code       0  drtaeabi{000a0000}-188.o(StubCode)
    __cxa_pure_virtual                       0x0000d654   ARM Code       0  drtaeabi{000a0000}-189.o(StubCode)
    __cxa_rethrow                            0x0000d65c   ARM Code       0  drtaeabi{000a0000}-190.o(StubCode)
    __ARM_switch8                            0x0000d664   ARM Code       0  drtrvct2_2{000a0000}-28.o(StubCode)
    qWarning()                               0x0000d66d   Thumb Code    66  qtcontacts_symbiansim.in(i._Z8qWarningv)
    QByteArray::~QByteArray()                0x0000d6c7   Thumb Code    24  qtcontacts_symbiansim.in(i._ZN10QByteArrayD1Ev)
    QByteArray::~QByteArray__sub_object()    0x0000d6c7   Thumb Code     0  qtcontacts_symbiansim.in(i._ZN10QByteArrayD1Ev)
    QtMobility::QContactName::setCustomLabel(const QString&) 0x0000d6e1   Thumb Code    28  qtcontacts_symbiansim.in(i._ZN10QtMobility12QContactName14setCustomLabelERK7QString)
    QtMobility::QContactName::QContactName() 0x0000d70d   Thumb Code    10  qtcontacts_symbiansim.in(i._ZN10QtMobility12QContactNameC1Ev)
    QtMobility::QContactName::QContactName__sub_object() 0x0000d70d   Thumb Code     0  qtcontacts_symbiansim.in(i._ZN10QtMobility12QContactNameC1Ev)
    QtMobility::QContactName::~QContactName() 0x0000d71d   Thumb Code     8  qtcontacts_symbiansim.in(i._ZN10QtMobility12QContactNameD1Ev)
    QtMobility::QContactName::~QContactName__sub_object() 0x0000d71d   Thumb Code     0  qtcontacts_symbiansim.in(i._ZN10QtMobility12QContactNameD1Ev)
    QtMobility::QContactType::QContactType(const QtMobility::QContactDetail&) 0x0000d725   Thumb Code    10  qtcontacts_symbiansim.in(i._ZN10QtMobility12QContactTypeC1ERKNS_14QContactDetailE)
    QtMobility::QContactType::QContactType__sub_object(const QtMobility::QContactDetail&) 0x0000d725   Thumb Code     0  qtcontacts_symbiansim.in(i._ZN10QtMobility12QContactTypeC1ERKNS_14QContactDetailE)
    QtMobility::QContactType::~QContactType() 0x0000d735   Thumb Code     8  qtcontacts_symbiansim.in(i._ZN10QtMobility12QContactTypeD1Ev)
    QtMobility::QContactType::~QContactType__sub_object() 0x0000d735   Thumb Code     0  qtcontacts_symbiansim.in(i._ZN10QtMobility12QContactTypeD1Ev)
    QtMobility::QContactNickname::setNickname(const QString&) 0x0000d73d   Thumb Code    28  qtcontacts_symbiansim.in(i._ZN10QtMobility16QContactNickname11setNicknameERK7QString)
    QtMobility::QContactNickname::QContactNickname() 0x0000d769   Thumb Code    10  qtcontacts_symbiansim.in(i._ZN10QtMobility16QContactNicknameC1Ev)
    QtMobility::QContactNickname::QContactNickname__sub_object() 0x0000d769   Thumb Code     0  qtcontacts_symbiansim.in(i._ZN10QtMobility16QContactNicknameC1Ev)
    QtMobility::QContactNickname::~QContactNickname() 0x0000d779   Thumb Code     8  qtcontacts_symbiansim.in(i._ZN10QtMobility16QContactNicknameD1Ev)
    QtMobility::QContactNickname::~QContactNickname__sub_object() 0x0000d779   Thumb Code     0  qtcontacts_symbiansim.in(i._ZN10QtMobility16QContactNicknameD1Ev)
    QtMobility::QContactSyncTarget::setSyncTarget(const QString&) 0x0000d781   Thumb Code    28  qtcontacts_symbiansim.in(i._ZN10QtMobility18QContactSyncTarget13setSyncTargetERK7QString)
    QtMobility::QContactSyncTarget::~QContactSyncTarget() 0x0000d7ab   Thumb Code     8  qtcontacts_symbiansim.in(i._ZN10QtMobility18QContactSyncTargetD1Ev)
    QtMobility::QContactSyncTarget::~QContactSyncTarget__sub_object() 0x0000d7ab   Thumb Code     0  qtcontacts_symbiansim.in(i._ZN10QtMobility18QContactSyncTargetD1Ev)
    QtMobility::QContactPhoneNumber::setNumber(const QString&) 0x0000d7b5   Thumb Code    28  qtcontacts_symbiansim.in(i._ZN10QtMobility19QContactPhoneNumber9setNumberERK7QString)
    QtMobility::QContactPhoneNumber::QContactPhoneNumber(const QtMobility::QContactDetail&) 0x0000d7e1   Thumb Code    10  qtcontacts_symbiansim.in(i._ZN10QtMobility19QContactPhoneNumberC1ERKNS_14QContactDetailE)
    QtMobility::QContactPhoneNumber::QContactPhoneNumber__sub_object(const QtMobility::QContactDetail&) 0x0000d7e1   Thumb Code     0  qtcontacts_symbiansim.in(i._ZN10QtMobility19QContactPhoneNumberC1ERKNS_14QContactDetailE)
    QtMobility::QContactPhoneNumber::QContactPhoneNumber(const QtMobility::QContactPhoneNumber&) 0x0000d7f1   Thumb Code     8  qtcontacts_symbiansim.in(i._ZN10QtMobility19QContactPhoneNumberC1ERKS0_)
    QtMobility::QContactPhoneNumber::QContactPhoneNumber__sub_object(const QtMobility::QContactPhoneNumber&) 0x0000d7f1   Thumb Code     0  qtcontacts_symbiansim.in(i._ZN10QtMobility19QContactPhoneNumberC1ERKS0_)
    QtMobility::QContactPhoneNumber::QContactPhoneNumber() 0x0000d7f9   Thumb Code    10  qtcontacts_symbiansim.in(i._ZN10QtMobility19QContactPhoneNumberC1Ev)
    QtMobility::QContactPhoneNumber::QContactPhoneNumber__sub_object() 0x0000d7f9   Thumb Code     0  qtcontacts_symbiansim.in(i._ZN10QtMobility19QContactPhoneNumberC1Ev)
    QtMobility::QContactPhoneNumber::~QContactPhoneNumber() 0x0000d809   Thumb Code     8  qtcontacts_symbiansim.in(i._ZN10QtMobility19QContactPhoneNumberD1Ev)
    QtMobility::QContactPhoneNumber::~QContactPhoneNumber__sub_object() 0x0000d809   Thumb Code     0  qtcontacts_symbiansim.in(i._ZN10QtMobility19QContactPhoneNumberD1Ev)
    QtMobility::QContactDetailFilter::~QContactDetailFilter() 0x0000d811   Thumb Code     8  qtcontacts_symbiansim.in(i._ZN10QtMobility20QContactDetailFilterD1Ev)
    QtMobility::QContactDetailFilter::~QContactDetailFilter__sub_object() 0x0000d811   Thumb Code     0  qtcontacts_symbiansim.in(i._ZN10QtMobility20QContactDetailFilterD1Ev)
    QtMobility::QContactEmailAddress::setEmailAddress(const QString&) 0x0000d819   Thumb Code    28  qtcontacts_symbiansim.in(i._ZN10QtMobility20QContactEmailAddress15setEmailAddressERK7QString)
    QtMobility::QContactEmailAddress::QContactEmailAddress() 0x0000d845   Thumb Code    10  qtcontacts_symbiansim.in(i._ZN10QtMobility20QContactEmailAddressC1Ev)
    QtMobility::QContactEmailAddress::QContactEmailAddress__sub_object() 0x0000d845   Thumb Code     0  qtcontacts_symbiansim.in(i._ZN10QtMobility20QContactEmailAddressC1Ev)
    QtMobility::QContactEmailAddress::~QContactEmailAddress() 0x0000d855   Thumb Code     8  qtcontacts_symbiansim.in(i._ZN10QtMobility20QContactEmailAddressD1Ev)
    QtMobility::QContactEmailAddress::~QContactEmailAddress__sub_object() 0x0000d855   Thumb Code     0  qtcontacts_symbiansim.in(i._ZN10QtMobility20QContactEmailAddressD1Ev)
    QtMobility::QContactLocalIdFilter::~QContactLocalIdFilter() 0x0000d85d   Thumb Code     8  qtcontacts_symbiansim.in(i._ZN10QtMobility21QContactLocalIdFilterD1Ev)
    QtMobility::QContactLocalIdFilter::~QContactLocalIdFilter__sub_object() 0x0000d85d   Thumb Code     0  qtcontacts_symbiansim.in(i._ZN10QtMobility21QContactLocalIdFilterD1Ev)
    QtMobility::QContactManagerEngine::QContactManagerEngine__sub_object() 0x0000d865   Thumb Code    14  qtcontacts_symbiansim.in(i._ZN10QtMobility21QContactManagerEngineC2Ev)
    QtMobility::QContactManagerEngine::~QContactManagerEngine() 0x0000d879   Thumb Code     0  qtcontacts_symbiansim.in(i._ZN10QtMobility21QContactManagerEngineD2Ev)
    QtMobility::QContactManagerEngine::~QContactManagerEngine__sub_object() 0x0000d879   Thumb Code     8  qtcontacts_symbiansim.in(i._ZN10QtMobility21QContactManagerEngineD2Ev)
    QStringList::~QStringList()              0x0000d881   Thumb Code     8  qtcontacts_symbiansim.in(i._ZN11QStringListD1Ev)
    QStringList::~QStringList__sub_object()  0x0000d881   Thumb Code     0  qtcontacts_symbiansim.in(i._ZN11QStringListD1Ev)
    SimStoreInfo::~SimStoreInfo()            0x0000d889   Thumb Code     8  qtcontacts_symbiansim.in(i._ZN12SimStoreInfoD1Ev)
    SimStoreInfo::~SimStoreInfo__sub_object() 0x0000d889   Thumb Code     0  qtcontacts_symbiansim.in(i._ZN12SimStoreInfoD1Ev)
    QBasicAtomicInt::ref()                   0x0000d891   Thumb Code    18  qtcontacts_symbiansim.in(i._ZN15QBasicAtomicInt3refEv)
    QBasicAtomicInt::deref()                 0x0000d8a3   Thumb Code    18  qtcontacts_symbiansim.in(i._ZN15QBasicAtomicInt5derefEv)
    QForeachContainer<QList<QtMobility::QContactDetail>>::~QForeachContainer() 0x0000d8b5   Thumb Code     8  qtcontacts_symbiansim.in(i._ZN17QForeachContainerI5QListIN10QtMobility14QContactDetailEEED1Ev)
    QForeachContainer<QList<QtMobility::QContactDetail>>::~QForeachContainer__sub_object() 0x0000d8b5   Thumb Code     0  qtcontacts_symbiansim.in(i._ZN17QForeachContainerI5QListIN10QtMobility14QContactDetailEEED1Ev)
    QForeachContainer<QList<QtMobility::QContactPhoneNumber>>::~QForeachContainer() 0x0000d8bd   Thumb Code     8  qtcontacts_symbiansim.in(i._ZN17QForeachContainerI5QListIN10QtMobility19QContactPhoneNumberEEED1Ev)
    QForeachContainer<QList<QtMobility::QContactPhoneNumber>>::~QForeachContainer__sub_object() 0x0000d8bd   Thumb Code     0  qtcontacts_symbiansim.in(i._ZN17QForeachContainerI5QListIN10QtMobility19QContactPhoneNumberEEED1Ev)
    QForeachContainer<QList<QtMobility::QContactAbstractRequest*>>::~QForeachContainer() 0x0000d8c5   Thumb Code     8  qtcontacts_symbiansim.in(i._ZN17QForeachContainerI5QListIPN10QtMobility23QContactAbstractRequestEEED1Ev)
    QForeachContainer<QList<QtMobility::QContactAbstractRequest*>>::~QForeachContainer__sub_object() 0x0000d8c5   Thumb Code     0  qtcontacts_symbiansim.in(i._ZN17QForeachContainerI5QListIPN10QtMobility23QContactAbstractRequestEEED1Ev)
    QForeachContainer<QString>::~QForeachContainer() 0x0000d8cd   Thumb Code     8  qtcontacts_symbiansim.in(i._ZN17QForeachContainerI7QStringED1Ev)
    QForeachContainer<QString>::~QForeachContainer__sub_object() 0x0000d8cd   Thumb Code     0  qtcontacts_symbiansim.in(i._ZN17QForeachContainerI7QStringED1Ev)
    CntSymbianSimFactory::~CntSymbianSimFactory__deallocating() 0x0000d8d5   Thumb Code    16  qtcontacts_symbiansim.in(i._ZN20CntSymbianSimFactoryD0Ev)
    CntSymbianSimFactory::~CntSymbianSimFactory() 0x0000d8e5   Thumb Code    18  qtcontacts_symbiansim.in(i._ZN20CntSymbianSimFactoryD1Ev)
    CntSymbianSimFactory::~CntSymbianSimFactory__sub_object() 0x0000d8e5   Thumb Code     0  qtcontacts_symbiansim.in(i._ZN20CntSymbianSimFactoryD1Ev)
    CntAbstractSimRequest::~CntAbstractSimRequest__deallocating() 0x0000d901   Thumb Code    16  qtcontacts_symbiansim.in(i._ZN21CntAbstractSimRequestD0Ev)
    CntAbstractSimRequest::~CntAbstractSimRequest() 0x0000d911   Thumb Code     0  qtcontacts_symbiansim.in(i._ZN21CntAbstractSimRequestD2Ev)
    CntAbstractSimRequest::~CntAbstractSimRequest__sub_object() 0x0000d911   Thumb Code     8  qtcontacts_symbiansim.in(i._ZN21CntAbstractSimRequestD2Ev)
    QDebug::maybeSpace()                     0x0000d919   Thumb Code    22  qtcontacts_symbiansim.in(i._ZN6QDebug10maybeSpaceEv)
    QDebug::~QDebug()                        0x0000d92f   Thumb Code   126  qtcontacts_symbiansim.in(i._ZN6QDebugD1Ev)
    QDebug::~QDebug__sub_object()            0x0000d92f   Thumb Code     0  qtcontacts_symbiansim.in(i._ZN6QDebugD1Ev)
    TDes16::operator [](int)                 0x0000d9c1   Thumb Code     8  qtcontacts_symbiansim.in(i._ZN6TDes16ixEi)
    QString::QString(const char*)            0x0000d9c9   Thumb Code    20  qtcontacts_symbiansim.in(i._ZN7QStringC1EPKc)
    QString::QString__sub_object(const char*) 0x0000d9c9   Thumb Code     0  qtcontacts_symbiansim.in(i._ZN7QStringC1EPKc)
    QString::QString(const QLatin1String&)   0x0000d9dd   Thumb Code    20  qtcontacts_symbiansim.in(i._ZN7QStringC1ERK13QLatin1String)
    QString::QString__sub_object(const QLatin1String&) 0x0000d9dd   Thumb Code     0  qtcontacts_symbiansim.in(i._ZN7QStringC1ERK13QLatin1String)
    QString::QString(const QString&)         0x0000d9f1   Thumb Code    16  qtcontacts_symbiansim.in(i._ZN7QStringC1ERKS_)
    QString::QString__sub_object(const QString&) 0x0000d9f1   Thumb Code     0  qtcontacts_symbiansim.in(i._ZN7QStringC1ERKS_)
    QString::QString()                       0x0000da01   Thumb Code    16  qtcontacts_symbiansim.in(i._ZN7QStringC1Ev)
    QString::QString__sub_object()           0x0000da01   Thumb Code     0  qtcontacts_symbiansim.in(i._ZN7QStringC1Ev)
    QString::~QString()                      0x0000da15   Thumb Code    24  qtcontacts_symbiansim.in(i._ZN7QStringD1Ev)
    QString::~QString__sub_object()          0x0000da15   Thumb Code     0  qtcontacts_symbiansim.in(i._ZN7QStringD1Ev)
    TPtrC16::Set(const TDesC16&)             0x0000da2d   Thumb Code    28  qtcontacts_symbiansim.in(i._ZN7TPtrC163SetERK7TDesC16)
    TPtrC16::Set(const TPtrC16&)             0x0000da55   Thumb Code    26  qtcontacts_symbiansim.in(i._ZN7TPtrC163SetERKS_)
    QtMobility::QContactName::customLabel() const 0x0000da71   Thumb Code    10  qtcontacts_symbiansim.in(i._ZNK10QtMobility12QContactName11customLabelEv)
    QtMobility::QContactPhoneNumber::number() const 0x0000da81   Thumb Code    10  qtcontacts_symbiansim.in(i._ZNK10QtMobility19QContactPhoneNumber6numberEv)
    QBasicAtomicInt::operator ==(int) const  0x0000da91   Thumb Code    14  qtcontacts_symbiansim.in(i._ZNK15QBasicAtomicInteqEi)
    QBasicAtomicInt::operator !=(int) const  0x0000da9f   Thumb Code    14  qtcontacts_symbiansim.in(i._ZNK15QBasicAtomicIntneEi)
    CntSymbianSimEngine::managerVersion() const 0x0000daad   Thumb Code     4  qtcontacts_symbiansim.in(i._ZNK19CntSymbianSimEngine14managerVersionEv)
    CntSymbianSimEngine::supportedDataTypes() const 0x0000dab1   Thumb Code     8  qtcontacts_symbiansim.in(i._ZNK19CntSymbianSimEngine18supportedDataTypesEv)
    QString::isEmpty() const                 0x0000dab9   Thumb Code    16  qtcontacts_symbiansim.in(i._ZNK7QString7isEmptyEv)
    QListData::at(int) const                 0x0000dac9   Thumb Code    16  qtcontacts_symbiansim.in(i._ZNK9QListData2atEi)
    QListData::end() const                   0x0000dad9   Thumb Code    12  qtcontacts_symbiansim.in(i._ZNK9QListData3endEv)
    QListData::begin() const                 0x0000dae5   Thumb Code    12  qtcontacts_symbiansim.in(i._ZNK9QListData5beginEv)
    thunk{-8} to CntSymbianSimFactory::~CntSymbianSimFactory__deallocating() 0x0000daf1   Thumb Code    10  qtcontacts_symbiansim.in(i._ZThn8_N20CntSymbianSimFactoryD0Ev)
    thunk{-8} to CntSymbianSimFactory::~CntSymbianSimFactory() 0x0000dafb   Thumb Code    10  qtcontacts_symbiansim.in(i._ZThn8_N20CntSymbianSimFactoryD1Ev)
    operator delete (void*, void*)           0x0000db05   Thumb Code     2  qtcontacts_symbiansim.in(i._ZdlPvS_)
    operator !=(QChar, QChar)                0x0000db07   Thumb Code    20  qtcontacts_symbiansim.in(i._Zne5QCharS_)
    operator new(unsigned, void*)            0x0000db1b   Thumb Code     4  qtcontacts_symbiansim.in(i._ZnwjPv)
    qMapLessThanKey<QString>(const T1&, const T1&) 0x0000db1f   Thumb Code     8  qtcontacts_symbiansim.in(t._Z15qMapLessThanKeyI7QStringEbRKT_S3_)
    qMapLessThanKey<QtMobility::QContactAbstractRequest*>(const T1&, const T1&) 0x0000db27   Thumb Code    16  qtcontacts_symbiansim.in(t._Z15qMapLessThanKeyIPN10QtMobility23QContactAbstractRequestEEbRKT_S5_)
    qMapLessThanKey<int>(const T1&, const T1&) 0x0000db37   Thumb Code    16  qtcontacts_symbiansim.in(t._Z15qMapLessThanKeyIiEbRKT_S2_)
    qMetaTypeDeleteHelper<QList<QtMobility::QContact>>(T1*) 0x0000db47   Thumb Code    36  qtcontacts_symbiansim.in(t._Z21qMetaTypeDeleteHelperI5QListIN10QtMobility8QContactEEEvPT_)
    qMetaTypeDeleteHelper<QList<int>>(T1*)   0x0000db6b   Thumb Code    36  qtcontacts_symbiansim.in(t._Z21qMetaTypeDeleteHelperI5QListIiEEvPT_)
    qMetaTypeDeleteHelper<QtMobility::QContactManager::Error>(T1*) 0x0000db8f   Thumb Code     8  qtcontacts_symbiansim.in(t._Z21qMetaTypeDeleteHelperIN10QtMobility15QContactManager5ErrorEEvPT_)
    qMetaTypeDeleteHelper<QtMobility::QContact>(T1*) 0x0000db97   Thumb Code    16  qtcontacts_symbiansim.in(t._Z21qMetaTypeDeleteHelperIN10QtMobility8QContactEEvPT_)
    qMetaTypeConstructHelper<QList<QtMobility::QContact>>(const T1*) 0x0000dba9   Thumb Code    70  qtcontacts_symbiansim.in(t._Z24qMetaTypeConstructHelperI5QListIN10QtMobility8QContactEEEPvPKT_)
    qMetaTypeConstructHelper<QList<int>>(const T1*) 0x0000dc05   Thumb Code    70  qtcontacts_symbiansim.in(t._Z24qMetaTypeConstructHelperI5QListIiEEPvPKT_)
    qMetaTypeConstructHelper<QtMobility::QContactManager::Error>(const T1*) 0x0000dc5f   Thumb Code    34  qtcontacts_symbiansim.in(t._Z24qMetaTypeConstructHelperIN10QtMobility15QContactManager5ErrorEEPvPKT_)
    qMetaTypeConstructHelper<QtMobility::QContact>(const T1*) 0x0000dc81   Thumb Code    48  qtcontacts_symbiansim.in(t._Z24qMetaTypeConstructHelperIN10QtMobility8QContactEEPvPKT_)
    QtMobility::operator ==<(int)12>(const QString&, const QtMobility::QLatin1Constant<T1>&) 0x0000dcc1   Thumb Code    12  qtcontacts_symbiansim.in(t._ZN10QtMobilityeqILi12EEEbRK7QStringRKNS_15QLatin1ConstantIXT_EEE)
    QtMobility::operator ==<(int)13>(const QString&, const QtMobility::QLatin1Constant<T1>&) 0x0000dccd   Thumb Code    12  qtcontacts_symbiansim.in(t._ZN10QtMobilityeqILi13EEEbRK7QStringRKNS_15QLatin1ConstantIXT_EEE)
    QtMobility::operator ==<(int)3>(const QString&, const QtMobility::QLatin1Constant<T1>&) 0x0000dcd9   Thumb Code    12  qtcontacts_symbiansim.in(t._ZN10QtMobilityeqILi3EEEbRK7QStringRKNS_15QLatin1ConstantIXT_EEE)
    QtMobility::operator ==<(int)4>(const QString&, const QtMobility::QLatin1Constant<T1>&) 0x0000dce5   Thumb Code    12  qtcontacts_symbiansim.in(t._ZN10QtMobilityeqILi4EEEbRK7QStringRKNS_15QLatin1ConstantIXT_EEE)
    QtMobility::operator ==<(int)5>(const QString&, const QtMobility::QLatin1Constant<T1>&) 0x0000dcf1   Thumb Code    12  qtcontacts_symbiansim.in(t._ZN10QtMobilityeqILi5EEEbRK7QStringRKNS_15QLatin1ConstantIXT_EEE)
    QScopedPointer<QtMobility::QContactId, QScopedPointerDeleter<QtMobility::QContactId>>::~QScopedPointer() 0x0000dcfd   Thumb Code    26  qtcontacts_symbiansim.in(t._ZN14QScopedPointerIN10QtMobility10QContactIdE21QScopedPointerDeleterIS1_EED1Ev)
    QScopedPointer<QtMobility::QContactId, QScopedPointerDeleter<QtMobility::QContactId>>::~QScopedPointer__sub_object() 0x0000dcfd   Thumb Code     0  qtcontacts_symbiansim.in(t._ZN14QScopedPointerIN10QtMobility10QContactIdE21QScopedPointerDeleterIS1_EED1Ev)
    QExplicitlySharedDataPointer<CntSymbianSimEngineData>::~QExplicitlySharedDataPointer() 0x0000dd17   Thumb Code    36  qtcontacts_symbiansim.in(t._ZN28QExplicitlySharedDataPointerI23CntSymbianSimEngineDataED1Ev)
    QExplicitlySharedDataPointer<CntSymbianSimEngineData>::~QExplicitlySharedDataPointer__sub_object() 0x0000dd17   Thumb Code     0  qtcontacts_symbiansim.in(t._ZN28QExplicitlySharedDataPointerI23CntSymbianSimEngineDataED1Ev)
    QMap<QString, QtMobility::QContactDetailDefinition>::node_create(QMapData*, QMapData::Node**, const QString&, const QtMobility::QContactDetailDefinition&) 0x0000dd3b   Thumb Code   106  qtcontacts_symbiansim.in(t._ZN4QMapI7QStringN10QtMobility24QContactDetailDefinitionEE11node_createEP8QMapDataPPNS4_4NodeERKS0_RKS2_)
    QMap<QString, QtMobility::QContactDetailDefinition>::detach_helper() 0x0000ddcb   Thumb Code   114  qtcontacts_symbiansim.in(t._ZN4QMapI7QStringN10QtMobility24QContactDetailDefinitionEE13detach_helperEv)
    QMap<QString, QtMobility::QContactDetailDefinition>::detach() 0x0000de45   Thumb Code    26  qtcontacts_symbiansim.in(t._ZN4QMapI7QStringN10QtMobility24QContactDetailDefinitionEE6detachEv)
    QMap<QString, QtMobility::QContactDetailDefinition>::insert(const QString&, const QtMobility::QContactDetailDefinition&) 0x0000de5f   Thumb Code   128  qtcontacts_symbiansim.in(t._ZN4QMapI7QStringN10QtMobility24QContactDetailDefinitionEE6insertERKS0_RKS2_)
    QMap<QString, QtMobility::QContactDetailDefinition>::freeData(QMapData*) 0x0000dedf   Thumb Code    42  qtcontacts_symbiansim.in(t._ZN4QMapI7QStringN10QtMobility24QContactDetailDefinitionEE8freeDataEP8QMapData)
    QMap<QString, QtMobility::QContactDetailDefinition>::QMap() 0x0000df09   Thumb Code    18  qtcontacts_symbiansim.in(t._ZN4QMapI7QStringN10QtMobility24QContactDetailDefinitionEEC1Ev)
    QMap<QString, QtMobility::QContactDetailDefinition>::QMap__sub_object() 0x0000df09   Thumb Code     0  qtcontacts_symbiansim.in(t._ZN4QMapI7QStringN10QtMobility24QContactDetailDefinitionEEC1Ev)
    QMap<QString, QtMobility::QContactDetailDefinition>::~QMap() 0x0000df21   Thumb Code    32  qtcontacts_symbiansim.in(t._ZN4QMapI7QStringN10QtMobility24QContactDetailDefinitionEED1Ev)
    QMap<QString, QtMobility::QContactDetailDefinition>::~QMap__sub_object() 0x0000df21   Thumb Code     0  qtcontacts_symbiansim.in(t._ZN4QMapI7QStringN10QtMobility24QContactDetailDefinitionEED1Ev)
    QMap<QString, QtMobility::QContactDetailFieldDefinition>::node_create(QMapData*, QMapData::Node**, const QString&, const QtMobility::QContactDetailFieldDefinition&) 0x0000df41   Thumb Code   106  qtcontacts_symbiansim.in(t._ZN4QMapI7QStringN10QtMobility29QContactDetailFieldDefinitionEE11node_createEP8QMapDataPPNS4_4NodeERKS0_RKS2_)
    QMap<QString, QtMobility::QContactDetailFieldDefinition>::detach_helper() 0x0000dfd1   Thumb Code   114  qtcontacts_symbiansim.in(t._ZN4QMapI7QStringN10QtMobility29QContactDetailFieldDefinitionEE13detach_helperEv)
    QMap<QString, QtMobility::QContactDetailFieldDefinition>::clear() 0x0000e04b   Thumb Code    68  qtcontacts_symbiansim.in(t._ZN4QMapI7QStringN10QtMobility29QContactDetailFieldDefinitionEE5clearEv)
    QMap<QString, QtMobility::QContactDetailFieldDefinition>::insert(const QString&, const QtMobility::QContactDetailFieldDefinition&) 0x0000e099   Thumb Code   140  qtcontacts_symbiansim.in(t._ZN4QMapI7QStringN10QtMobility29QContactDetailFieldDefinitionEE6insertERKS0_RKS2_)
    QMap<QString, QtMobility::QContactDetailFieldDefinition>::freeData(QMapData*) 0x0000e125   Thumb Code    42  qtcontacts_symbiansim.in(t._ZN4QMapI7QStringN10QtMobility29QContactDetailFieldDefinitionEE8freeDataEP8QMapData)
    QMap<QString, QtMobility::QContactDetailFieldDefinition>::QMap() 0x0000e151   Thumb Code    18  qtcontacts_symbiansim.in(t._ZN4QMapI7QStringN10QtMobility29QContactDetailFieldDefinitionEEC1Ev)
    QMap<QString, QtMobility::QContactDetailFieldDefinition>::QMap__sub_object() 0x0000e151   Thumb Code     0  qtcontacts_symbiansim.in(t._ZN4QMapI7QStringN10QtMobility29QContactDetailFieldDefinitionEEC1Ev)
    QMap<QString, QtMobility::QContactDetailFieldDefinition>::~QMap() 0x0000e169   Thumb Code    32  qtcontacts_symbiansim.in(t._ZN4QMapI7QStringN10QtMobility29QContactDetailFieldDefinitionEED1Ev)
    QMap<QString, QtMobility::QContactDetailFieldDefinition>::~QMap__sub_object() 0x0000e169   Thumb Code     0  qtcontacts_symbiansim.in(t._ZN4QMapI7QStringN10QtMobility29QContactDetailFieldDefinitionEED1Ev)
    QMap<QtMobility::QContactAbstractRequest*, CntAbstractSimRequest*>::node_create(QMapData*, QMapData::Node**, QtMobility::QContactAbstractRequest*const &, CntAbstractSimRequest*const &) 0x0000e189   Thumb Code    60  qtcontacts_symbiansim.in(t._ZN4QMapIPN10QtMobility23QContactAbstractRequestEP21CntAbstractSimRequestE11node_createEP8QMapDataPPNS6_4NodeERKS2_RKS4_)
    QMap<QtMobility::QContactAbstractRequest*, CntAbstractSimRequest*>::detach_helper() 0x0000e1c5   Thumb Code   114  qtcontacts_symbiansim.in(t._ZN4QMapIPN10QtMobility23QContactAbstractRequestEP21CntAbstractSimRequestE13detach_helperEv)
    QMap<QtMobility::QContactAbstractRequest*, CntAbstractSimRequest*>::take(QtMobility::QContactAbstractRequest*const &) 0x0000e23f   Thumb Code   114  qtcontacts_symbiansim.in(t._ZN4QMapIPN10QtMobility23QContactAbstractRequestEP21CntAbstractSimRequestE4takeERKS2_)
    QMap<QtMobility::QContactAbstractRequest*, CntAbstractSimRequest*>::detach() 0x0000e2b1   Thumb Code    26  qtcontacts_symbiansim.in(t._ZN4QMapIPN10QtMobility23QContactAbstractRequestEP21CntAbstractSimRequestE6detachEv)
    QMap<QtMobility::QContactAbstractRequest*, CntAbstractSimRequest*>::remove(QtMobility::QContactAbstractRequest*const &) 0x0000e2cb   Thumb Code   150  qtcontacts_symbiansim.in(t._ZN4QMapIPN10QtMobility23QContactAbstractRequestEP21CntAbstractSimRequestE6removeERKS2_)
    QMap<QtMobility::QContactAbstractRequest*, CntAbstractSimRequest*>::freeData(QMapData*) 0x0000e361   Thumb Code    12  qtcontacts_symbiansim.in(t._ZN4QMapIPN10QtMobility23QContactAbstractRequestEP21CntAbstractSimRequestE8freeDataEP8QMapData)
    QMap<QtMobility::QContactAbstractRequest*, CntAbstractSimRequest*>::~QMap() 0x0000e36d   Thumb Code    32  qtcontacts_symbiansim.in(t._ZN4QMapIPN10QtMobility23QContactAbstractRequestEP21CntAbstractSimRequestED1Ev)
    QMap<QtMobility::QContactAbstractRequest*, CntAbstractSimRequest*>::~QMap__sub_object() 0x0000e36d   Thumb Code     0  qtcontacts_symbiansim.in(t._ZN4QMapIPN10QtMobility23QContactAbstractRequestEP21CntAbstractSimRequestED1Ev)
    QMap<int, QtMobility::QContactManager::Error>::node_create(QMapData*, QMapData::Node**, const int&, const QtMobility::QContactManager::Error&) 0x0000e38d   Thumb Code    60  qtcontacts_symbiansim.in(t._ZN4QMapIiN10QtMobility15QContactManager5ErrorEE11node_createEP8QMapDataPPNS4_4NodeERKiRKS2_)
    QMap<int, QtMobility::QContactManager::Error>::detach_helper() 0x0000e3c9   Thumb Code   114  qtcontacts_symbiansim.in(t._ZN4QMapIiN10QtMobility15QContactManager5ErrorEE13detach_helperEv)
    QMap<int, QtMobility::QContactManager::Error>::detach() 0x0000e443   Thumb Code    16  qtcontacts_symbiansim.in(t._ZN4QMapIiN10QtMobility15QContactManager5ErrorEE6detachEv)
    QMap<int, QtMobility::QContactManager::Error>::insert(const int&, const QtMobility::QContactManager::Error&) 0x0000e453   Thumb Code   130  qtcontacts_symbiansim.in(t._ZN4QMapIiN10QtMobility15QContactManager5ErrorEE6insertERKiRKS2_)
    QMap<int, QtMobility::QContactManager::Error>::freeData(QMapData*) 0x0000e4d5   Thumb Code    22  qtcontacts_symbiansim.in(t._ZN4QMapIiN10QtMobility15QContactManager5ErrorEE8freeDataEP8QMapData)
    QMap<int, QtMobility::QContactManager::Error>::QMap() 0x0000e4ed   Thumb Code    18  qtcontacts_symbiansim.in(t._ZN4QMapIiN10QtMobility15QContactManager5ErrorEEC1Ev)
    QMap<int, QtMobility::QContactManager::Error>::QMap__sub_object() 0x0000e4ed   Thumb Code     0  qtcontacts_symbiansim.in(t._ZN4QMapIiN10QtMobility15QContactManager5ErrorEEC1Ev)
    QMap<int, QtMobility::QContactManager::Error>::~QMap() 0x0000e505   Thumb Code    32  qtcontacts_symbiansim.in(t._ZN4QMapIiN10QtMobility15QContactManager5ErrorEED1Ev)
    QMap<int, QtMobility::QContactManager::Error>::~QMap__sub_object() 0x0000e505   Thumb Code     0  qtcontacts_symbiansim.in(t._ZN4QMapIiN10QtMobility15QContactManager5ErrorEED1Ev)
    QMap<int, QtMobility::QContactManager::Error>::operator =(const QMap<int, QtMobility::QContactManager::Error>&) 0x0000e525   Thumb Code    58  qtcontacts_symbiansim.in(t._ZN4QMapIiN10QtMobility15QContactManager5ErrorEEaSERKS3_)
    QList<QString>::detach_helper()          0x0000e55f   Thumb Code    88  qtcontacts_symbiansim.in(t._ZN5QListI7QStringE13detach_helperEv)
    QList<QString>::node_construct(QList<QString>::Node*, const QString&) 0x0000e5bf   Thumb Code    26  qtcontacts_symbiansim.in(t._ZN5QListI7QStringE14node_constructEPNS1_4NodeERKS0_)
    QList<QString>::detach_helper_grow(int, int) 0x0000e5e5   Thumb Code   186  qtcontacts_symbiansim.in(t._ZN5QListI7QStringE18detach_helper_growEii)
    QList<QString>::free(QListData::Data*)   0x0000e6a7   Thumb Code    54  qtcontacts_symbiansim.in(t._ZN5QListI7QStringE4freeEPN9QListData4DataE)
    QList<QString>::append(const QString&)   0x0000e6dd   Thumb Code    94  qtcontacts_symbiansim.in(t._ZN5QListI7QStringE6appendERKS0_)
    QList<QString>::node_copy(QList<QString>::Node*, QList<QString>::Node*, QList<QString>::Node*) 0x0000e749   Thumb Code    70  qtcontacts_symbiansim.in(t._ZN5QListI7QStringE9node_copyEPNS1_4NodeES3_S3_)
    QList<QString>::~QList()                 0x0000e7a5   Thumb Code    30  qtcontacts_symbiansim.in(t._ZN5QListI7QStringED1Ev)
    QList<QString>::~QList__sub_object()     0x0000e7a5   Thumb Code     0  qtcontacts_symbiansim.in(t._ZN5QListI7QStringED1Ev)
    QList<QVariant>::detach_helper()         0x0000e7c3   Thumb Code    88  qtcontacts_symbiansim.in(t._ZN5QListI8QVariantE13detach_helperEv)
    QList<QVariant>::node_destruct(QList<QVariant>::Node*, QList<QVariant>::Node*) 0x0000e823   Thumb Code    30  qtcontacts_symbiansim.in(t._ZN5QListI8QVariantE13node_destructEPNS1_4NodeES3_)
    QList<QVariant>::node_construct(QList<QVariant>::Node*, const QVariant&) 0x0000e841   Thumb Code    32  qtcontacts_symbiansim.in(t._ZN5QListI8QVariantE14node_constructEPNS1_4NodeERKS0_)
    QList<QVariant>::detach_helper_grow(int, int) 0x0000e86b   Thumb Code   180  qtcontacts_symbiansim.in(t._ZN5QListI8QVariantE18detach_helper_growEii)
    QList<QVariant>::free(QListData::Data*)  0x0000e927   Thumb Code    44  qtcontacts_symbiansim.in(t._ZN5QListI8QVariantE4freeEPN9QListData4DataE)
    QList<QVariant>::clear()                 0x0000e953   Thumb Code    64  qtcontacts_symbiansim.in(t._ZN5QListI8QVariantE5clearEv)
    QList<QVariant>::append(const QVariant&) 0x0000e99d   Thumb Code    90  qtcontacts_symbiansim.in(t._ZN5QListI8QVariantE6appendERKS0_)
    QList<QVariant>::node_copy(QList<QVariant>::Node*, QList<QVariant>::Node*, QList<QVariant>::Node*) 0x0000ea05   Thumb Code    80  qtcontacts_symbiansim.in(t._ZN5QListI8QVariantE9node_copyEPNS1_4NodeES3_S3_)
    QList<QVariant>::QList(const QList<QVariant>&) 0x0000ea67   Thumb Code    30  qtcontacts_symbiansim.in(t._ZN5QListI8QVariantEC1ERKS1_)
    QList<QVariant>::QList__sub_object(const QList<QVariant>&) 0x0000ea67   Thumb Code     0  qtcontacts_symbiansim.in(t._ZN5QListI8QVariantEC1ERKS1_)
    QList<QVariant>::QList()                 0x0000ea85   Thumb Code    16  qtcontacts_symbiansim.in(t._ZN5QListI8QVariantEC1Ev)
    QList<QVariant>::QList__sub_object()     0x0000ea85   Thumb Code     0  qtcontacts_symbiansim.in(t._ZN5QListI8QVariantEC1Ev)
    QList<QVariant>::~QList()                0x0000ea99   Thumb Code    30  qtcontacts_symbiansim.in(t._ZN5QListI8QVariantED1Ev)
    QList<QVariant>::~QList__sub_object()    0x0000ea99   Thumb Code     0  qtcontacts_symbiansim.in(t._ZN5QListI8QVariantED1Ev)
    QList<QtMobility::QContactDetail>::detach_helper(int) 0x0000eab7   Thumb Code   142  qtcontacts_symbiansim.in(t._ZN5QListIN10QtMobility14QContactDetailEE13detach_helperEi)
    QList<QtMobility::QContactDetail>::free(QListData::Data*) 0x0000eb59   Thumb Code    48  qtcontacts_symbiansim.in(t._ZN5QListIN10QtMobility14QContactDetailEE4freeEPN9QListData4DataE)
    QList<QtMobility::QContactDetail>::~QList() 0x0000eb89   Thumb Code    30  qtcontacts_symbiansim.in(t._ZN5QListIN10QtMobility14QContactDetailEED1Ev)
    QList<QtMobility::QContactDetail>::~QList__sub_object() 0x0000eb89   Thumb Code     0  qtcontacts_symbiansim.in(t._ZN5QListIN10QtMobility14QContactDetailEED1Ev)
    QList<QtMobility::QContactSortOrder>::~QList() 0x0000eba7   Thumb Code    66  qtcontacts_symbiansim.in(t._ZN5QListIN10QtMobility17QContactSortOrderEED1Ev)
    QList<QtMobility::QContactSortOrder>::~QList__sub_object() 0x0000eba7   Thumb Code     0  qtcontacts_symbiansim.in(t._ZN5QListIN10QtMobility17QContactSortOrderEED1Ev)
    QList<QtMobility::QContactPhoneNumber>::detach_helper() 0x0000ebe9   Thumb Code    88  qtcontacts_symbiansim.in(t._ZN5QListIN10QtMobility19QContactPhoneNumberEE13detach_helperEv)
    QList<QtMobility::QContactPhoneNumber>::node_destruct(QList<QtMobility::QContactPhoneNumber>::Node*, QList<QtMobility::QContactPhoneNumber>::Node*) 0x0000ec49   Thumb Code    30  qtcontacts_symbiansim.in(t._ZN5QListIN10QtMobility19QContactPhoneNumberEE13node_destructEPNS2_4NodeES4_)
    QList<QtMobility::QContactPhoneNumber>::node_construct(QList<QtMobility::QContactPhoneNumber>::Node*, const QtMobility::QContactPhoneNumber&) 0x0000ec67   Thumb Code    32  qtcontacts_symbiansim.in(t._ZN5QListIN10QtMobility19QContactPhoneNumberEE14node_constructEPNS2_4NodeERKS1_)
    QList<QtMobility::QContactPhoneNumber>::detach_helper_grow(int, int) 0x0000ec91   Thumb Code   180  qtcontacts_symbiansim.in(t._ZN5QListIN10QtMobility19QContactPhoneNumberEE18detach_helper_growEii)
    QList<QtMobility::QContactPhoneNumber>::free(QListData::Data*) 0x0000ed4d   Thumb Code    44  qtcontacts_symbiansim.in(t._ZN5QListIN10QtMobility19QContactPhoneNumberEE4freeEPN9QListData4DataE)
    QList<QtMobility::QContactPhoneNumber>::append(const QtMobility::QContactPhoneNumber&) 0x0000ed79   Thumb Code    90  qtcontacts_symbiansim.in(t._ZN5QListIN10QtMobility19QContactPhoneNumberEE6appendERKS1_)
    QList<QtMobility::QContactPhoneNumber>::node_copy(QList<QtMobility::QContactPhoneNumber>::Node*, QList<QtMobility::QContactPhoneNumber>::Node*, QList<QtMobility::QContactPhoneNumber>::Node*) 0x0000ede1   Thumb Code    80  qtcontacts_symbiansim.in(t._ZN5QListIN10QtMobility19QContactPhoneNumberEE9node_copyEPNS2_4NodeES4_S4_)
    QList<QtMobility::QContactPhoneNumber>::~QList() 0x0000ee43   Thumb Code    30  qtcontacts_symbiansim.in(t._ZN5QListIN10QtMobility19QContactPhoneNumberEED1Ev)
    QList<QtMobility::QContactPhoneNumber>::~QList__sub_object() 0x0000ee43   Thumb Code     0  qtcontacts_symbiansim.in(t._ZN5QListIN10QtMobility19QContactPhoneNumberEED1Ev)
    QList<QtMobility::QContact>::detach_helper(int) 0x0000ee61   Thumb Code   142  qtcontacts_symbiansim.in(t._ZN5QListIN10QtMobility8QContactEE13detach_helperEi)
    QList<QtMobility::QContact>::detach_helper() 0x0000ef03   Thumb Code    12  qtcontacts_symbiansim.in(t._ZN5QListIN10QtMobility8QContactEE13detach_helperEv)
    QList<QtMobility::QContact>::node_construct(QList<QtMobility::QContact>::Node*, const QtMobility::QContact&) 0x0000ef0f   Thumb Code    26  qtcontacts_symbiansim.in(t._ZN5QListIN10QtMobility8QContactEE14node_constructEPNS2_4NodeERKS1_)
    QList<QtMobility::QContact>::detach_helper_grow(int, int) 0x0000ef35   Thumb Code   186  qtcontacts_symbiansim.in(t._ZN5QListIN10QtMobility8QContactEE18detach_helper_growEii)
    QList<QtMobility::QContact>::free(QListData::Data*) 0x0000eff7   Thumb Code    48  qtcontacts_symbiansim.in(t._ZN5QListIN10QtMobility8QContactEE4freeEPN9QListData4DataE)
    QList<QtMobility::QContact>::append(const QtMobility::QContact&) 0x0000f029   Thumb Code    94  qtcontacts_symbiansim.in(t._ZN5QListIN10QtMobility8QContactEE6appendERKS1_)
    QList<QtMobility::QContact>::detach()    0x0000f095   Thumb Code    24  qtcontacts_symbiansim.in(t._ZN5QListIN10QtMobility8QContactEE6detachEv)
    QList<QtMobility::QContact>::node_copy(QList<QtMobility::QContact>::Node*, QList<QtMobility::QContact>::Node*, QList<QtMobility::QContact>::Node*) 0x0000f0ad   Thumb Code    70  qtcontacts_symbiansim.in(t._ZN5QListIN10QtMobility8QContactEE9node_copyEPNS2_4NodeES4_S4_)
    QList<QtMobility::QContact>::QList(const QList<QtMobility::QContact>&) 0x0000f109   Thumb Code    30  qtcontacts_symbiansim.in(t._ZN5QListIN10QtMobility8QContactEEC1ERKS2_)
    QList<QtMobility::QContact>::QList__sub_object(const QList<QtMobility::QContact>&) 0x0000f109   Thumb Code     0  qtcontacts_symbiansim.in(t._ZN5QListIN10QtMobility8QContactEEC1ERKS2_)
    QList<QtMobility::QContact>::QList()     0x0000f129   Thumb Code    16  qtcontacts_symbiansim.in(t._ZN5QListIN10QtMobility8QContactEEC1Ev)
    QList<QtMobility::QContact>::QList__sub_object() 0x0000f129   Thumb Code     0  qtcontacts_symbiansim.in(t._ZN5QListIN10QtMobility8QContactEEC1Ev)
    QList<QtMobility::QContact>::~QList()    0x0000f13d   Thumb Code    30  qtcontacts_symbiansim.in(t._ZN5QListIN10QtMobility8QContactEED1Ev)
    QList<QtMobility::QContact>::~QList__sub_object() 0x0000f13d   Thumb Code     0  qtcontacts_symbiansim.in(t._ZN5QListIN10QtMobility8QContactEED1Ev)
    QList<QtMobility::QContactAbstractRequest*>::detach_helper(int) 0x0000f15b   Thumb Code    86  qtcontacts_symbiansim.in(t._ZN5QListIPN10QtMobility23QContactAbstractRequestEE13detach_helperEi)
    QList<QtMobility::QContactAbstractRequest*>::detach_helper_grow(int, int) 0x0000f1b9   Thumb Code   164  qtcontacts_symbiansim.in(t._ZN5QListIPN10QtMobility23QContactAbstractRequestEE18detach_helper_growEii)
    QList<QtMobility::QContactAbstractRequest*>::free(QListData::Data*) 0x0000f265   Thumb Code    24  qtcontacts_symbiansim.in(t._ZN5QListIPN10QtMobility23QContactAbstractRequestEE4freeEPN9QListData4DataE)
    QList<QtMobility::QContactAbstractRequest*>::node_copy(QList<QtMobility::QContactAbstractRequest*>::Node*, QList<QtMobility::QContactAbstractRequest*>::Node*, QList<QtMobility::QContactAbstractRequest*>::Node*) 0x0000f27d   Thumb Code    28  qtcontacts_symbiansim.in(t._ZN5QListIPN10QtMobility23QContactAbstractRequestEE9node_copyEPNS3_4NodeES5_S5_)
    QList<QtMobility::QContactAbstractRequest*>::~QList() 0x0000f299   Thumb Code    30  qtcontacts_symbiansim.in(t._ZN5QListIPN10QtMobility23QContactAbstractRequestEED1Ev)
    QList<QtMobility::QContactAbstractRequest*>::~QList__sub_object() 0x0000f299   Thumb Code     0  qtcontacts_symbiansim.in(t._ZN5QListIPN10QtMobility23QContactAbstractRequestEED1Ev)
    QList<int>::detach_helper(int)           0x0000f2b7   Thumb Code    96  qtcontacts_symbiansim.in(t._ZN5QListIiE13detach_helperEi)
    QList<int>::detach_helper()              0x0000f31f   Thumb Code    88  qtcontacts_symbiansim.in(t._ZN5QListIiE13detach_helperEv)
    QList<int>::detach_helper_grow(int, int) 0x0000f37f   Thumb Code   164  qtcontacts_symbiansim.in(t._ZN5QListIiE18detach_helper_growEii)
    QList<int>::free(QListData::Data*)       0x0000f42b   Thumb Code    16  qtcontacts_symbiansim.in(t._ZN5QListIiE4freeEPN9QListData4DataE)
    QList<int>::node_copy(QList<int>::Node*, QList<int>::Node*, QList<int>::Node*) 0x0000f43b   Thumb Code    28  qtcontacts_symbiansim.in(t._ZN5QListIiE9node_copyEPNS0_4NodeES2_S2_)
    QList<int>::QList()                      0x0000f459   Thumb Code    16  qtcontacts_symbiansim.in(t._ZN5QListIiEC1Ev)
    QList<int>::QList__sub_object()          0x0000f459   Thumb Code     0  qtcontacts_symbiansim.in(t._ZN5QListIiEC1Ev)
    QList<int>::~QList()                     0x0000f46d   Thumb Code    30  qtcontacts_symbiansim.in(t._ZN5QListIiED1Ev)
    QList<int>::~QList__sub_object()         0x0000f46d   Thumb Code     0  qtcontacts_symbiansim.in(t._ZN5QListIiED1Ev)
    QList<int>::operator =(const QList<int>&) 0x0000f48b   Thumb Code    56  qtcontacts_symbiansim.in(t._ZN5QListIiEaSERKS0_)
    QList<unsigned>::detach_helper(int)      0x0000f4c3   Thumb Code    98  qtcontacts_symbiansim.in(t._ZN5QListIjE13detach_helperEi)
    QList<unsigned>::detach_helper_grow(int, int) 0x0000f52d   Thumb Code   164  qtcontacts_symbiansim.in(t._ZN5QListIjE18detach_helper_growEii)
    QList<unsigned>::free(QListData::Data*)  0x0000f5d9   Thumb Code    16  qtcontacts_symbiansim.in(t._ZN5QListIjE4freeEPN9QListData4DataE)
    QList<unsigned>::node_copy(QList<unsigned>::Node*, QList<unsigned>::Node*, QList<unsigned>::Node*) 0x0000f5e9   Thumb Code    28  qtcontacts_symbiansim.in(t._ZN5QListIjE9node_copyEPNS0_4NodeES2_S2_)
    QList<unsigned>::QList()                 0x0000f605   Thumb Code    16  qtcontacts_symbiansim.in(t._ZN5QListIjEC1Ev)
    QList<unsigned>::QList__sub_object()     0x0000f605   Thumb Code     0  qtcontacts_symbiansim.in(t._ZN5QListIjEC1Ev)
    QList<unsigned>::~QList()                0x0000f619   Thumb Code    30  qtcontacts_symbiansim.in(t._ZN5QListIjED1Ev)
    QList<unsigned>::~QList__sub_object()    0x0000f619   Thumb Code     0  qtcontacts_symbiansim.in(t._ZN5QListIjED1Ev)
    QPointer<QObject>::~QPointer()           0x0000f637   Thumb Code    12  qtcontacts_symbiansim.in(t._ZN8QPointerI7QObjectED1Ev)
    QPointer<QObject>::~QPointer__sub_object() 0x0000f637   Thumb Code     0  qtcontacts_symbiansim.in(t._ZN8QPointerI7QObjectED1Ev)
    QtMobility::QContact::details<QtMobility::QContactPhoneNumber>() const 0x0000f645   Thumb Code    82  qtcontacts_symbiansim.in(t._ZNK10QtMobility8QContact7detailsINS_19QContactPhoneNumberEEE5QListIT_Ev)
    QMap<QString, QtMobility::QContactDetailDefinition>::findNode(const QString&) const 0x0000f6b7   Thumb Code    82  qtcontacts_symbiansim.in(t._ZNK4QMapI7QStringN10QtMobility24QContactDetailDefinitionEE8findNodeERKS0_)
    QMap<QtMobility::QContactAbstractRequest*, CntAbstractSimRequest*>::keys() const 0x0000f709   Thumb Code   130  qtcontacts_symbiansim.in(t._ZNK4QMapIPN10QtMobility23QContactAbstractRequestEP21CntAbstractSimRequestE4keysEv)
    QMap<QtMobility::QContactAbstractRequest*, CntAbstractSimRequest*>::value(QtMobility::QContactAbstractRequest*const &) const 0x0000f7a5   Thumb Code    34  qtcontacts_symbiansim.in(t._ZNK4QMapIPN10QtMobility23QContactAbstractRequestEP21CntAbstractSimRequestE5valueERKS2_)
    QMap<QtMobility::QContactAbstractRequest*, CntAbstractSimRequest*>::contains(QtMobility::QContactAbstractRequest*const &) const 0x0000f7c7   Thumb Code    22  qtcontacts_symbiansim.in(t._ZNK4QMapIPN10QtMobility23QContactAbstractRequestEP21CntAbstractSimRequestE8containsERKS2_)
    QMap<QtMobility::QContactAbstractRequest*, CntAbstractSimRequest*>::findNode(QtMobility::QContactAbstractRequest*const &) const 0x0000f7dd   Thumb Code    82  qtcontacts_symbiansim.in(t._ZNK4QMapIPN10QtMobility23QContactAbstractRequestEP21CntAbstractSimRequestE8findNodeERKS2_)
    QList<QtMobility::QContact>::at(int) const 0x0000f82f   Thumb Code    16  qtcontacts_symbiansim.in(t._ZNK5QListIN10QtMobility8QContactEE2atEi)
    CntSymbianSimEngine::staticMetaObject    0x00010f14   Data          16  qtcontacts_symbiansim.in(.constdata)
    CntSymbianSimFactory::staticMetaObject   0x00010f24   Data          16  qtcontacts_symbiansim.in(.constdata)
    CntSimStore::staticMetaObject            0x000110ac   Data          16  qtcontacts_symbiansim.in(.constdata)
    CntAbstractSimRequest::staticMetaObject  0x00011174   Data          16  qtcontacts_symbiansim.in(.constdata)
    CntSimContactFetchRequest::staticMetaObject 0x00011250   Data          16  qtcontacts_symbiansim.in(.constdata)
    CntSimContactLocalIdFetchRequest::staticMetaObject 0x00011334   Data          16  qtcontacts_symbiansim.in(.constdata)
    CntSimContactRemoveRequest::staticMetaObject 0x00011468   Data          16  qtcontacts_symbiansim.in(.constdata)
    CntSimContactSaveRequest::staticMetaObject 0x00011584   Data          16  qtcontacts_symbiansim.in(.constdata)
    CntSimDetailDefinitionFetchRequest::staticMetaObject 0x00011638   Data          16  qtcontacts_symbiansim.in(.constdata)
    typeinfo for CntSimStore                 0x00011848   Data          12  qtcontacts_symbiansim.in(.constdata__ZTI11CntSimStore)
    typeinfo for CDispatcherTimer            0x00011854   Data          12  qtcontacts_symbiansim.in(.constdata__ZTI16CDispatcherTimer)
    typeinfo for CntSimStorePrivate          0x00011860   Data          12  qtcontacts_symbiansim.in(.constdata__ZTI18CntSimStorePrivate)
    typeinfo for MDispatcherTimeOut          0x0001186c   Data           8  qtcontacts_symbiansim.in(.constdata__ZTI18MDispatcherTimeOut)
    typeinfo for CntSymbianSimEngine         0x00011874   Data          12  qtcontacts_symbiansim.in(.constdata__ZTI19CntSymbianSimEngine)
    typeinfo for CStoreInfoDispatcher        0x00011880   Data          32  qtcontacts_symbiansim.in(.constdata__ZTI20CStoreInfoDispatcher)
    typeinfo for CntSymbianSimFactory        0x000118a0   Data          32  qtcontacts_symbiansim.in(.constdata__ZTI20CntSymbianSimFactory)
    typeinfo for CntAbstractSimRequest       0x000118c0   Data          12  qtcontacts_symbiansim.in(.constdata__ZTI21CntAbstractSimRequest)
    typeinfo for CntSimContactSaveRequest    0x000118cc   Data          12  qtcontacts_symbiansim.in(.constdata__ZTI24CntSimContactSaveRequest)
    typeinfo for CntSimStoreEventListener    0x000118d8   Data          12  qtcontacts_symbiansim.in(.constdata__ZTI24CntSimStoreEventListener)
    typeinfo for CntSimContactFetchRequest   0x000118e4   Data          12  qtcontacts_symbiansim.in(.constdata__ZTI25CntSimContactFetchRequest)
    typeinfo for CntSimContactRemoveRequest  0x000118f0   Data          12  qtcontacts_symbiansim.in(.constdata__ZTI26CntSimContactRemoveRequest)
    typeinfo for CntSimContactLocalIdFetchRequest 0x000118fc   Data          12  qtcontacts_symbiansim.in(.constdata__ZTI32CntSimContactLocalIdFetchRequest)
    typeinfo for CntSimDetailDefinitionFetchRequest 0x00011908   Data          12  qtcontacts_symbiansim.in(.constdata__ZTI34CntSimDetailDefinitionFetchRequest)
    typeinfo for std::bad_alloc              0x00011914   Data          12  qtcontacts_symbiansim.in(.constdata__ZTISt9bad_alloc)
    typeinfo name for CntSimStore            0x00011920   Data          14  qtcontacts_symbiansim.in(.constdata__ZTS11CntSimStore)
    typeinfo name for CDispatcherTimer       0x0001192e   Data          19  qtcontacts_symbiansim.in(.constdata__ZTS16CDispatcherTimer)
    typeinfo name for CntSimStorePrivate     0x00011941   Data          21  qtcontacts_symbiansim.in(.constdata__ZTS18CntSimStorePrivate)
    typeinfo name for MDispatcherTimeOut     0x00011956   Data          21  qtcontacts_symbiansim.in(.constdata__ZTS18MDispatcherTimeOut)
    typeinfo name for CntSymbianSimEngine    0x0001196b   Data          22  qtcontacts_symbiansim.in(.constdata__ZTS19CntSymbianSimEngine)
    typeinfo name for CStoreInfoDispatcher   0x00011981   Data          23  qtcontacts_symbiansim.in(.constdata__ZTS20CStoreInfoDispatcher)
    typeinfo name for CntSymbianSimFactory   0x00011998   Data          23  qtcontacts_symbiansim.in(.constdata__ZTS20CntSymbianSimFactory)
    typeinfo name for CntAbstractSimRequest  0x000119af   Data          24  qtcontacts_symbiansim.in(.constdata__ZTS21CntAbstractSimRequest)
    typeinfo name for CntSimContactSaveRequest 0x000119c7   Data          27  qtcontacts_symbiansim.in(.constdata__ZTS24CntSimContactSaveRequest)
    typeinfo name for CntSimStoreEventListener 0x000119e2   Data          27  qtcontacts_symbiansim.in(.constdata__ZTS24CntSimStoreEventListener)
    typeinfo name for CntSimContactFetchRequest 0x000119fd   Data          28  qtcontacts_symbiansim.in(.constdata__ZTS25CntSimContactFetchRequest)
    typeinfo name for CntSimContactRemoveRequest 0x00011a19   Data          29  qtcontacts_symbiansim.in(.constdata__ZTS26CntSimContactRemoveRequest)
    typeinfo name for CntSimContactLocalIdFetchRequest 0x00011a36   Data          35  qtcontacts_symbiansim.in(.constdata__ZTS32CntSimContactLocalIdFetchRequest)
    typeinfo name for CntSimDetailDefinitionFetchRequest 0x00011a59   Data          37  qtcontacts_symbiansim.in(.constdata__ZTS34CntSimDetailDefinitionFetchRequest)
    typeinfo name for std::bad_alloc         0x00011a7e   Data          13  qtcontacts_symbiansim.in(.constdata__ZTSSt9bad_alloc)
    vtable for CntSimStore                   0x00011a8c   Data          56  qtcontacts_symbiansim.in(.constdata__ZTV11CntSimStore)
    vtable for CDispatcherTimer              0x00011ac4   Data          32  qtcontacts_symbiansim.in(.constdata__ZTV16CDispatcherTimer)
    vtable for CntSimStorePrivate            0x00011ae4   Data          32  qtcontacts_symbiansim.in(.constdata__ZTV18CntSimStorePrivate)
    vtable for CntSymbianSimEngine           0x00011b04   Data         192  qtcontacts_symbiansim.in(.constdata__ZTV19CntSymbianSimEngine)
    vtable for CStoreInfoDispatcher          0x00011bc4   Data          48  qtcontacts_symbiansim.in(.constdata__ZTV20CStoreInfoDispatcher)
    vtable for CntSymbianSimFactory          0x00011bf4   Data          92  qtcontacts_symbiansim.in(.constdata__ZTV20CntSymbianSimFactory)
    vtable for CntAbstractSimRequest         0x00011c50   Data          64  qtcontacts_symbiansim.in(.constdata__ZTV21CntAbstractSimRequest)
    vtable for CntSimContactSaveRequest      0x00011c90   Data          64  qtcontacts_symbiansim.in(.constdata__ZTV24CntSimContactSaveRequest)
    vtable for CntSimStoreEventListener      0x00011cd0   Data          32  qtcontacts_symbiansim.in(.constdata__ZTV24CntSimStoreEventListener)
    vtable for CntSimContactFetchRequest     0x00011cf0   Data          64  qtcontacts_symbiansim.in(.constdata__ZTV25CntSimContactFetchRequest)
    vtable for CntSimContactRemoveRequest    0x00011d30   Data          64  qtcontacts_symbiansim.in(.constdata__ZTV26CntSimContactRemoveRequest)
    vtable for CntSimContactLocalIdFetchRequest 0x00011d70   Data          64  qtcontacts_symbiansim.in(.constdata__ZTV32CntSimContactLocalIdFetchRequest)
    vtable for CntSimDetailDefinitionFetchRequest 0x00011db0   Data          64  qtcontacts_symbiansim.in(.constdata__ZTV34CntSimDetailDefinitionFetchRequest)
    .ARM.exidx$$Base                         0x00011df0   Number         0  ucppinit_aeabi.o(.ARM.exidx)
    .ARM.exidx$$Limit                        0x000126f0   Number         0  qtcontacts_symbiansim.in(.ARM.exidx)
    Image$$ER_RO$$Limit                      0x000126f0   Number         0  anon$$obj.o(linker$$defined$$symbols)
    __dso_handle                             0x00400008   Data           4  ucppfini.o(.data)

