ARM Linker, RVCT2.2 [Build 686]

================================================================================

Image Symbol Table

    Local Symbols

    Symbol Name                              Value     Ov Type        Size  Object(Section)

    [Anonymous Symbol]                       0x00000000   Number         0  QtCore{00040703}-3460.o ABSOLUTE
    [Anonymous Symbol]                       0x00000000   Number         0  QtCore{00040703}-1016.o ABSOLUTE
    [Anonymous Symbol]                       0x00000000   Number         0  QtCore{00040703}-2682.o ABSOLUTE
    [Anonymous Symbol]                       0x00000000   Number         0  QtCore{00040703}-3483.o ABSOLUTE
    [Anonymous Symbol]                       0x00000000   Number         0  QtCore{00040703}-1017.o ABSOLUTE
    [Anonymous Symbol]                       0x00000000   Number         0  QtCore{00040703}-2684.o ABSOLUTE
    [Anonymous Symbol]                       0x00000000   Number         0  QtCore{00040703}-3583.o ABSOLUTE
    [Anonymous Symbol]                       0x00000000   Number         0  QtCore{00040703}-1019.o ABSOLUTE
    [Anonymous Symbol]                       0x00000000   Number         0  QtCore{00040703}-2685.o ABSOLUTE
    [Anonymous Symbol]                       0x00000000   Number         0  QtCore{00040703}-3584.o ABSOLUTE
    [Anonymous Symbol]                       0x00000000   Number         0  QtCore{00040703}-1020.o ABSOLUTE
    [Anonymous Symbol]                       0x00000000   Number         0  QtCore{00040703}-2686.o ABSOLUTE
    [Anonymous Symbol]                       0x00000000   Number         0  QtCore{00040703}-3585.o ABSOLUTE
    [Anonymous Symbol]                       0x00000000   Number         0  QtCore{00040703}-1021.o ABSOLUTE
    [Anonymous Symbol]                       0x00000000   Number         0  QtCore{00040703}-282.o ABSOLUTE
    [Anonymous Symbol]                       0x00000000   Number         0  QtCore{00040703}-3607.o ABSOLUTE
    [Anonymous Symbol]                       0x00000000   Number         0  QtCore{00040703}-1034.o ABSOLUTE
    [Anonymous Symbol]                       0x00000000   Number         0  QtCore{00040703}-2842.o ABSOLUTE
    [Anonymous Symbol]                       0x00000000   Number         0  QtCore{00040703}-3608.o ABSOLUTE
    [Anonymous Symbol]                       0x00000000   Number         0  QtCore{00040703}-1036.o ABSOLUTE
    [Anonymous Symbol]                       0x00000000   Number         0  QtCore{00040703}-2853.o ABSOLUTE
    [Anonymous Symbol]                       0x00000000   Number         0  QtCore{00040703}-3609.o ABSOLUTE
    [Anonymous Symbol]                       0x00000000   Number         0  QtCore{00040703}-1037.o ABSOLUTE
    [Anonymous Symbol]                       0x00000000   Number         0  QtCore{00040703}-2855.o ABSOLUTE
    [Anonymous Symbol]                       0x00000000   Number         0  QtCore{00040703}-3610.o ABSOLUTE
    [Anonymous Symbol]                       0x00000000   Number         0  QtCore{00040703}-1039.o ABSOLUTE
    [Anonymous Symbol]                       0x00000000   Number         0  QtCore{00040703}-2883.o ABSOLUTE
    [Anonymous Symbol]                       0x00000000   Number         0  QtCore{00040703}-3689.o ABSOLUTE
    [Anonymous Symbol]                       0x00000000   Number         0  QtCore{00040703}-1041.o ABSOLUTE
    [Anonymous Symbol]                       0x00000000   Number         0  QtCore{00040703}-2884.o ABSOLUTE
    [Anonymous Symbol]                       0x00000000   Number         0  QtCore{00040703}-3691.o ABSOLUTE
    [Anonymous Symbol]                       0x00000000   Number         0  QtCore{00040703}-1045.o ABSOLUTE
    [Anonymous Symbol]                       0x00000000   Number         0  QtCore{00040703}-2885.o ABSOLUTE
    [Anonymous Symbol]                       0x00000000   Number         0  QtCore{00040703}-392.o ABSOLUTE
    [Anonymous Symbol]                       0x00000000   Number         0  QtCore{00040703}-109.o ABSOLUTE
    [Anonymous Symbol]                       0x00000000   Number         0  QtCore{00040703}-2913.o ABSOLUTE
    [Anonymous Symbol]                       0x00000000   Number         0  QtCore{00040703}-70.o ABSOLUTE
    [Anonymous Symbol]                       0x00000000   Number         0  QtCore{00040703}-1453.o ABSOLUTE
    [Anonymous Symbol]                       0x00000000   Number         0  QtCore{00040703}-2914.o ABSOLUTE
    [Anonymous Symbol]                       0x00000000   Number         0  QtCore{00040703}-741.o ABSOLUTE
    [Anonymous Symbol]                       0x00000000   Number         0  QtCore{00040703}-1492.o ABSOLUTE
    [Anonymous Symbol]                       0x00000000   Number         0  QtCore{00040703}-2915.o ABSOLUTE
    [Anonymous Symbol]                       0x00000000   Number         0  QtCore{00040703}-757.o ABSOLUTE
    [Anonymous Symbol]                       0x00000000   Number         0  QtCore{00040703}-150.o ABSOLUTE
    [Anonymous Symbol]                       0x00000000   Number         0  QtCore{00040703}-2916.o ABSOLUTE
    [Anonymous Symbol]                       0x00000000   Number         0  QtCore{00040703}-91.o ABSOLUTE
    [Anonymous Symbol]                       0x00000000   Number         0  QtCore{00040703}-1523.o ABSOLUTE
    [Anonymous Symbol]                       0x00000000   Number         0  QtCore{00040703}-3032.o ABSOLUTE
    [Anonymous Symbol]                       0x00000000   Number         0  QtCore{00040703}-988.o ABSOLUTE
    [Anonymous Symbol]                       0x00000000   Number         0  QtCore{00040703}-1525.o ABSOLUTE
    [Anonymous Symbol]                       0x00000000   Number         0  QtCore{00040703}-3040.o ABSOLUTE
    [Anonymous Symbol]                       0x00000000   Number         0  QtCore{00040703}-990.o ABSOLUTE
    [Anonymous Symbol]                       0x00000000   Number         0  QtCore{00040703}-1526.o ABSOLUTE
    [Anonymous Symbol]                       0x00000000   Number         0  QtCore{00040703}-3049.o ABSOLUTE
    [Anonymous Symbol]                       0x00000000   Number         0  QtCore{00040703}-991.o ABSOLUTE
    [Anonymous Symbol]                       0x00000000   Number         0  QtCore{00040703}-1531.o ABSOLUTE
    [Anonymous Symbol]                       0x00000000   Number         0  QtCore{00040703}-3054.o ABSOLUTE
    [Anonymous Symbol]                       0x00000000   Number         0  QtCore{00040703}-992.o ABSOLUTE
    [Anonymous Symbol]                       0x00000000   Number         0  QtCore{00040703}-1534.o ABSOLUTE
    [Anonymous Symbol]                       0x00000000   Number         0  QtCore{00040703}-3064.o ABSOLUTE
    [Anonymous Symbol]                       0x00000000   Number         0  QtCore{00040703}-993.o ABSOLUTE
    [Anonymous Symbol]                       0x00000000   Number         0  QtCore{00040703}-1582.o ABSOLUTE
    [Anonymous Symbol]                       0x00000000   Number         0  QtCore{00040703}-3073.o ABSOLUTE
    [Anonymous Symbol]                       0x00000000   Number         0  QtCore{00040703}-994.o ABSOLUTE
    [Anonymous Symbol]                       0x00000000   Number         0  QtCore{00040703}-1643.o ABSOLUTE
    [Anonymous Symbol]                       0x00000000   Number         0  QtCore{00040703}-3097.o ABSOLUTE
    [Anonymous Symbol]                       0x00000000   Number         0  QtCore{00040703}-996.o ABSOLUTE
    [Anonymous Symbol]                       0x00000000   Number         0  QtCore{00040703}-1706.o ABSOLUTE
    [Anonymous Symbol]                       0x00000000   Number         0  QtCore{00040703}-3098.o ABSOLUTE
    [Anonymous Symbol]                       0x00000000   Number         0  QtCore{00040703}-998.o ABSOLUTE
    [Anonymous Symbol]                       0x00000000   Number         0  QtCore{00040703}-175.o ABSOLUTE
    [Anonymous Symbol]                       0x00000000   Number         0  QtCore{00040703}-3131.o ABSOLUTE
    [Anonymous Symbol]                       0x00000000   Number         0  libc{00010000}-350.o ABSOLUTE
    [Anonymous Symbol]                       0x00000000   Number         0  QtCore{00040703}-176.o ABSOLUTE
    [Anonymous Symbol]                       0x00000000   Number         0  QtCore{00040703}-3134.o ABSOLUTE
    [Anonymous Symbol]                       0x00000000   Number         0  dfpaeabi{000a0000}-24.o ABSOLUTE
    [Anonymous Symbol]                       0x00000000   Number         0  QtCore{00040703}-1760.o ABSOLUTE
    [Anonymous Symbol]                       0x00000000   Number         0  QtCore{00040703}-3136.o ABSOLUTE
    [Anonymous Symbol]                       0x00000000   Number         0  dfpaeabi{000a0000}-7.o ABSOLUTE
    [Anonymous Symbol]                       0x00000000   Number         0  QtCore{00040703}-1763.o ABSOLUTE
    [Anonymous Symbol]                       0x00000000   Number         0  QtCore{00040703}-3138.o ABSOLUTE
    [Anonymous Symbol]                       0x00000000   Number         0  drtaeabi{000a0000}-135.o ABSOLUTE
    [Anonymous Symbol]                       0x00000000   Number         0  QtCore{00040703}-1764.o ABSOLUTE
    [Anonymous Symbol]                       0x00000000   Number         0  QtCore{00040703}-3142.o ABSOLUTE
    [Anonymous Symbol]                       0x00000000   Number         0  drtaeabi{000a0000}-147.o ABSOLUTE
    [Anonymous Symbol]                       0x00000000   Number         0  QtCore{00040703}-1766.o ABSOLUTE
    [Anonymous Symbol]                       0x00000000   Number         0  QtCore{00040703}-3153.o ABSOLUTE
    [Anonymous Symbol]                       0x00000000   Number         0  drtaeabi{000a0000}-150.o ABSOLUTE
    [Anonymous Symbol]                       0x00000000   Number         0  QtCore{00040703}-1767.o ABSOLUTE
    [Anonymous Symbol]                       0x00000000   Number         0  QtCore{00040703}-3159.o ABSOLUTE
    [Anonymous Symbol]                       0x00000000   Number         0  drtaeabi{000a0000}-155.o ABSOLUTE
    [Anonymous Symbol]                       0x00000000   Number         0  QtCore{00040703}-1768.o ABSOLUTE
    [Anonymous Symbol]                       0x00000000   Number         0  QtCore{00040703}-3163.o ABSOLUTE
    [Anonymous Symbol]                       0x00000000   Number         0  drtaeabi{000a0000}-158.o ABSOLUTE
    [Anonymous Symbol]                       0x00000000   Number         0  QtCore{00040703}-177.o ABSOLUTE
    [Anonymous Symbol]                       0x00000000   Number         0  QtCore{00040703}-3170.o ABSOLUTE
    [Anonymous Symbol]                       0x00000000   Number         0  drtaeabi{000a0000}-180.o ABSOLUTE
    [Anonymous Symbol]                       0x00000000   Number         0  QtCore{00040703}-1773.o ABSOLUTE
    [Anonymous Symbol]                       0x00000000   Number         0  mdeclient{000a0000}-10.o ABSOLUTE
    [Anonymous Symbol]                       0x00000000   Number         0  drtaeabi{000a0000}-183.o ABSOLUTE
    [Anonymous Symbol]                       0x00000000   Number         0  QtCore{00040703}-1777.o ABSOLUTE
    [Anonymous Symbol]                       0x00000000   Number         0  mdeclient{000a0000}-107.o ABSOLUTE
    [Anonymous Symbol]                       0x00000000   Number         0  drtaeabi{000a0000}-184.o ABSOLUTE
    [Anonymous Symbol]                       0x00000000   Number         0  QtCore{00040703}-1784.o ABSOLUTE
    [Anonymous Symbol]                       0x00000000   Number         0  mdeclient{000a0000}-11.o ABSOLUTE
    [Anonymous Symbol]                       0x00000000   Number         0  drtaeabi{000a0000}-189.o ABSOLUTE
    [Anonymous Symbol]                       0x00000000   Number         0  QtCore{00040703}-1785.o ABSOLUTE
    [Anonymous Symbol]                       0x00000000   Number         0  mdeclient{000a0000}-113.o ABSOLUTE
    [Anonymous Symbol]                       0x00000000   Number         0  drtaeabi{000a0000}-190.o ABSOLUTE
    [Anonymous Symbol]                       0x00000000   Number         0  QtCore{00040703}-1789.o ABSOLUTE
    [Anonymous Symbol]                       0x00000000   Number         0  mdeclient{000a0000}-114.o ABSOLUTE
    [Anonymous Symbol]                       0x00000000   Number         0  drtrvct2_2{000a0000}-28.o ABSOLUTE
    [Anonymous Symbol]                       0x00000000   Number         0  QtCore{00040703}-179.o ABSOLUTE
    [Anonymous Symbol]                       0x00000000   Number         0  mdeclient{000a0000}-116.o ABSOLUTE
    [Anonymous Symbol]                       0x00000000   Number         0  QtCore{00040703}-2678.o ABSOLUTE
    [Anonymous Symbol]                       0x00000000   Number         0  QtCore{00040703}-1794.o ABSOLUTE
    [Anonymous Symbol]                       0x00000000   Number         0  mdeclient{000a0000}-118.o ABSOLUTE
    [Anonymous Symbol]                       0x00000000   Number         0  QtCore{00040703}-2679.o ABSOLUTE
    [Anonymous Symbol]                       0x00000000   Number         0  QtCore{00040703}-1814.o ABSOLUTE
    [Anonymous Symbol]                       0x00000000   Number         0  mdeclient{000a0000}-119.o ABSOLUTE
    [Anonymous Symbol]                       0x00000000   Number         0  QtCore{00040703}-2680.o ABSOLUTE
    [Anonymous Symbol]                       0x00000000   Number         0  QtCore{00040703}-182.o ABSOLUTE
    [Anonymous Symbol]                       0x00000000   Number         0  mdeclient{000a0000}-120.o ABSOLUTE
    [Anonymous Symbol]                       0x00000000   Number         0  QtCore{00040703}-2040.o ABSOLUTE
    [Anonymous Symbol]                       0x00000000   Number         0  QtCore{00040703}-1825.o ABSOLUTE
    [Anonymous Symbol]                       0x00000000   Number         0  mdeclient{000a0000}-128.o ABSOLUTE
    [Anonymous Symbol]                       0x00000000   Number         0  QtCore{00040703}-2042.o ABSOLUTE
    [Anonymous Symbol]                       0x00000000   Number         0  QtCore{00040703}-1830.o ABSOLUTE
    [Anonymous Symbol]                       0x00000000   Number         0  mdeclient{000a0000}-129.o ABSOLUTE
    [Anonymous Symbol]                       0x00000000   Number         0  QtCore{00040703}-2043.o ABSOLUTE
    [Anonymous Symbol]                       0x00000000   Number         0  QtCore{00040703}-1831.o ABSOLUTE
    [Anonymous Symbol]                       0x00000000   Number         0  mdeclient{000a0000}-133.o ABSOLUTE
    [Anonymous Symbol]                       0x00000000   Number         0  QtCore{00040703}-2082.o ABSOLUTE
    [Anonymous Symbol]                       0x00000000   Number         0  QtCore{00040703}-1836.o ABSOLUTE
    [Anonymous Symbol]                       0x00000000   Number         0  mdeclient{000a0000}-148.o ABSOLUTE
    [Anonymous Symbol]                       0x00000000   Number         0  QtCore{00040703}-2084.o ABSOLUTE
    [Anonymous Symbol]                       0x00000000   Number         0  QtCore{00040703}-1855.o ABSOLUTE
    [Anonymous Symbol]                       0x00000000   Number         0  mdeclient{000a0000}-152.o ABSOLUTE
    [Anonymous Symbol]                       0x00000000   Number         0  QtCore{00040703}-2103.o ABSOLUTE
    [Anonymous Symbol]                       0x00000000   Number         0  QtCore{00040703}-1874.o ABSOLUTE
    [Anonymous Symbol]                       0x00000000   Number         0  mdeclient{000a0000}-16.o ABSOLUTE
    [Anonymous Symbol]                       0x00000000   Number         0  QtCore{00040703}-2104.o ABSOLUTE
    [Anonymous Symbol]                       0x00000000   Number         0  QtCore{00040703}-1875.o ABSOLUTE
    [Anonymous Symbol]                       0x00000000   Number         0  mdeclient{000a0000}-161.o ABSOLUTE
    [Anonymous Symbol]                       0x00000000   Number         0  QtCore{00040703}-2110.o ABSOLUTE
    [Anonymous Symbol]                       0x00000000   Number         0  QtCore{00040703}-1885.o ABSOLUTE
    [Anonymous Symbol]                       0x00000000   Number         0  mdeclient{000a0000}-18.o ABSOLUTE
    [Anonymous Symbol]                       0x00000000   Number         0  QtCore{00040703}-2122.o ABSOLUTE
    [Anonymous Symbol]                       0x00000000   Number         0  QtCore{00040703}-1947.o ABSOLUTE
    [Anonymous Symbol]                       0x00000000   Number         0  mdeclient{000a0000}-183.o ABSOLUTE
    [Anonymous Symbol]                       0x00000000   Number         0  QtCore{00040703}-2130.o ABSOLUTE
    [Anonymous Symbol]                       0x00000000   Number         0  QtCore{00040703}-1949.o ABSOLUTE
    [Anonymous Symbol]                       0x00000000   Number         0  mdeclient{000a0000}-19.o ABSOLUTE
    [Anonymous Symbol]                       0x00000000   Number         0  QtCore{00040703}-2134.o ABSOLUTE
    [Anonymous Symbol]                       0x00000000   Number         0  QtCore{00040703}-2005.o ABSOLUTE
    [Anonymous Symbol]                       0x00000000   Number         0  mdeclient{000a0000}-190.o ABSOLUTE
    [Anonymous Symbol]                       0x00000000   Number         0  QtCore{00040703}-2141.o ABSOLUTE
    [Anonymous Symbol]                       0x00000000   Number         0  QtCore{00040703}-2034.o ABSOLUTE
    [Anonymous Symbol]                       0x00000000   Number         0  mdeclient{000a0000}-22.o ABSOLUTE
    [Anonymous Symbol]                       0x00000000   Number         0  QtCore{00040703}-2143.o ABSOLUTE
    [Anonymous Symbol]                       0x00000000   Number         0  QtCore{00040703}-2037.o ABSOLUTE
    [Anonymous Symbol]                       0x00000000   Number         0  mdeclient{000a0000}-224.o ABSOLUTE
    [Anonymous Symbol]                       0x00000000   Number         0  QtCore{00040703}-2188.o ABSOLUTE
    [Anonymous Symbol]                       0x00000000   Number         0  mdeclient{000a0000}-68.o ABSOLUTE
    [Anonymous Symbol]                       0x00000000   Number         0  mdeclient{000a0000}-227.o ABSOLUTE
    [Anonymous Symbol]                       0x00000000   Number         0  QtCore{00040703}-2190.o ABSOLUTE
    [Anonymous Symbol]                       0x00000000   Number         0  mdeclient{000a0000}-69.o ABSOLUTE
    [Anonymous Symbol]                       0x00000000   Number         0  mdeclient{000a0000}-231.o ABSOLUTE
    [Anonymous Symbol]                       0x00000000   Number         0  QtCore{00040703}-2191.o ABSOLUTE
    [Anonymous Symbol]                       0x00000000   Number         0  mdeclient{000a0000}-72.o ABSOLUTE
    [Anonymous Symbol]                       0x00000000   Number         0  mdeclient{000a0000}-233.o ABSOLUTE
    [Anonymous Symbol]                       0x00000000   Number         0  QtCore{00040703}-2193.o ABSOLUTE
    [Anonymous Symbol]                       0x00000000   Number         0  mdeclient{000a0000}-73.o ABSOLUTE
    [Anonymous Symbol]                       0x00000000   Number         0  mdeclient{000a0000}-30.o ABSOLUTE
    [Anonymous Symbol]                       0x00000000   Number         0  QtCore{00040703}-2196.o ABSOLUTE
    [Anonymous Symbol]                       0x00000000   Number         0  mdeclient{000a0000}-74.o ABSOLUTE
    [Anonymous Symbol]                       0x00000000   Number         0  mdeclient{000a0000}-32.o ABSOLUTE
    [Anonymous Symbol]                       0x00000000   Number         0  QtCore{00040703}-2197.o ABSOLUTE
    [Anonymous Symbol]                       0x00000000   Number         0  mdeclient{000a0000}-76.o ABSOLUTE
    [Anonymous Symbol]                       0x00000000   Number         0  mdeclient{000a0000}-40.o ABSOLUTE
    [Anonymous Symbol]                       0x00000000   Number         0  QtCore{00040703}-2324.o ABSOLUTE
    [Anonymous Symbol]                       0x00000000   Number         0  mdeclient{000a0000}-77.o ABSOLUTE
    [Anonymous Symbol]                       0x00000000   Number         0  mdeclient{000a0000}-43.o ABSOLUTE
    [Anonymous Symbol]                       0x00000000   Number         0  QtCore{00040703}-2416.o ABSOLUTE
    [Anonymous Symbol]                       0x00000000   Number         0  mdeclient{000a0000}-80.o ABSOLUTE
    [Anonymous Symbol]                       0x00000000   Number         0  mdeclient{000a0000}-50.o ABSOLUTE
    [Anonymous Symbol]                       0x00000000   Number         0  QtCore{00040703}-2418.o ABSOLUTE
    [Anonymous Symbol]                       0x00000000   Number         0  mdeclient{000a0000}-83.o ABSOLUTE
    [Anonymous Symbol]                       0x00000000   Number         0  mdeclient{000a0000}-51.o ABSOLUTE
    [Anonymous Symbol]                       0x00000000   Number         0  QtCore{00040703}-2674.o ABSOLUTE
    [Anonymous Symbol]                       0x00000000   Number         0  euser{000a0000}-1169.o ABSOLUTE
    [Anonymous Symbol]                       0x00000000   Number         0  mdeclient{000a0000}-54.o ABSOLUTE
    [Anonymous Symbol]                       0x00000000   Number         0  QtCore{00040703}-2675.o ABSOLUTE
    [Anonymous Symbol]                       0x00000000   Number         0  euser{000a0000}-1170.o ABSOLUTE
    [Anonymous Symbol]                       0x00000000   Number         0  mdeclient{000a0000}-58.o ABSOLUTE
    [Anonymous Symbol]                       0x00000000   Number         0  QtCore{00040703}-1007.o ABSOLUTE
    [Anonymous Symbol]                       0x00000000   Number         0  euser{000a0000}-1172.o ABSOLUTE
    [Anonymous Symbol]                       0x00000000   Number         0  mdeclient{000a0000}-65.o ABSOLUTE
    [Anonymous Symbol]                       0x00000000   Number         0  QtCore{00040703}-1011.o ABSOLUTE
    [Anonymous Symbol]                       0x00000000   Number         0  euser{000a0000}-1476.o ABSOLUTE
    [Anonymous Symbol]                       0x00000000   Number         0  mdeclient{000a0000}-66.o ABSOLUTE
    [Anonymous Symbol]                       0x00000000   Number         0  QtCore{00040703}-1012.o ABSOLUTE
    [Anonymous Symbol]                       0x00000000   Number         0  euser{000a0000}-1507.o ABSOLUTE
    [Anonymous Symbol]                       0x00000000   Number         0  euser{000a0000}-669.o ABSOLUTE
    [Anonymous Symbol]                       0x00000000   Number         0  euser{000a0000}-208.o ABSOLUTE
    [Anonymous Symbol]                       0x00000000   Number         0  euser{000a0000}-1508.o ABSOLUTE
    [Anonymous Symbol]                       0x00000000   Number         0  euser{000a0000}-670.o ABSOLUTE
    [Anonymous Symbol]                       0x00000000   Number         0  euser{000a0000}-2082.o ABSOLUTE
    [Anonymous Symbol]                       0x00000000   Number         0  euser{000a0000}-1510.o ABSOLUTE
    [Anonymous Symbol]                       0x00000000   Number         0  euser{000a0000}-671.o ABSOLUTE
    [Anonymous Symbol]                       0x00000000   Number         0  euser{000a0000}-209.o ABSOLUTE
    [Anonymous Symbol]                       0x00000000   Number         0  euser{000a0000}-1590.o ABSOLUTE
    [Anonymous Symbol]                       0x00000000   Number         0  euser{000a0000}-80.o ABSOLUTE
    [Anonymous Symbol]                       0x00000000   Number         0  euser{000a0000}-2104.o ABSOLUTE
    [Anonymous Symbol]                       0x00000000   Number         0  euser{000a0000}-1593.o ABSOLUTE
    [Anonymous Symbol]                       0x00000000   Number         0  euser{000a0000}-861.o ABSOLUTE
    [Anonymous Symbol]                       0x00000000   Number         0  euser{000a0000}-2106.o ABSOLUTE
    [Anonymous Symbol]                       0x00000000   Number         0  euser{000a0000}-1679.o ABSOLUTE
    [Anonymous Symbol]                       0x00000000   Number         0  libstdcpp{00010000}-988.o ABSOLUTE
    [Anonymous Symbol]                       0x00000000   Number         0  QtCore{00040703}-3171.o ABSOLUTE
    [Anonymous Symbol]                       0x00000000   Number         0  euser{000a0000}-1804.o ABSOLUTE
    [Anonymous Symbol]                       0x00000000   Number         0  libstdcpp{00010000}-992.o ABSOLUTE
    [Anonymous Symbol]                       0x00000000   Number         0  QtCore{00040703}-32.o ABSOLUTE
    [Anonymous Symbol]                       0x00000000   Number         0  euser{000a0000}-1807.o ABSOLUTE
    [Anonymous Symbol]                       0x00000000   Number         0  QtCore{00040703}-1001.o ABSOLUTE
    [Anonymous Symbol]                       0x00000000   Number         0  QtCore{00040703}-3200.o ABSOLUTE
    [Anonymous Symbol]                       0x00000000   Number         0  euser{000a0000}-1810.o ABSOLUTE
    [Anonymous Symbol]                       0x00000000   Number         0  QtCore{00040703}-1002.o ABSOLUTE
    [Anonymous Symbol]                       0x00000000   Number         0  QtCore{00040703}-3218.o ABSOLUTE
    [Anonymous Symbol]                       0x00000000   Number         0  euser{000a0000}-1822.o ABSOLUTE
    [Anonymous Symbol]                       0x00000000   Number         0  QtCore{00040703}-1003.o ABSOLUTE
    [Anonymous Symbol]                       0x00000000   Number         0  QtCore{00040703}-324.o ABSOLUTE
    [Anonymous Symbol]                       0x00000000   Number         0  euser{000a0000}-203.o ABSOLUTE
    [Anonymous Symbol]                       0x00000000   Number         0  QtCore{00040703}-1005.o ABSOLUTE
    [Anonymous Symbol]                       0x00000000   Number         0  QtCore{00040703}-331.o ABSOLUTE
    [Anonymous Symbol]                       0x00000000   Number         0  euser{000a0000}-205.o ABSOLUTE
    [Anonymous Symbol]                       0x00000000   Number         0  euser{000a0000}-471.o ABSOLUTE
    [Anonymous Symbol]                       0x00000000   Number         0  QtCore{00040703}-332.o ABSOLUTE
    [Anonymous Symbol]                       0x00000000   Number         0  euser{000a0000}-2060.o ABSOLUTE
    [Anonymous Symbol]                       0x00000000   Number         0  euser{000a0000}-472.o ABSOLUTE
    [Anonymous Symbol]                       0x00000000   Number         0  QtCore{00040703}-335.o ABSOLUTE
    [Anonymous Symbol]                       0x00000000   Number         0  euser{000a0000}-2061.o ABSOLUTE
    [Anonymous Symbol]                       0x00000000   Number         0  euser{000a0000}-474.o ABSOLUTE
    [Anonymous Symbol]                       0x00000000   Number         0  euser{000a0000}-55.o ABSOLUTE
    [Anonymous Symbol]                       0x00000000   Number         0  euser{000a0000}-481.o ABSOLUTE
    [Anonymous Symbol]                       0x00000000   Number         0  euser{000a0000}-48.o ABSOLUTE
    [Anonymous Symbol]                       0x00000000   Number         0  euser{000a0000}-470.o ABSOLUTE
    [Anonymous Symbol]                       0x00000000   Number         0  euser{000a0000}-649.o ABSOLUTE
    ..\..\..\..\EPOC32\BUILD\s60\osext\mobileruntime\group\LIBSTDCPP\ARMV5\VtblExports.s 0x00000000   Number         0  VtblExports.o ABSOLUTE
    \EPOC32\BUILD\ppd_sw\ui_sw\MDS\group\MDECLIENT\ARMV5\VtblExports.s 0x00000000   Number         0  VtblExports.o ABSOLUTE
    \EPOC32\BUILD\s60\mw\classicui\group\CHARCONV\ARMV5\VtblExports.s 0x00000000   Number         0  VtblExports.o ABSOLUTE
    \EPOC32\BUILD\src\cedar\generic\base\e32\compsupp\DRTAEABI\ARMV5\VtblExports.s 0x00000000   Number         0  VtblExports.o ABSOLUTE
    \EPOC32\BUILD\src\cedar\generic\base\e32\euser\EDLL\ARMV5\urel\uc_dll_.cpp 0x00000000   Number         0  uc_dll_.o ABSOLUTE
    \EPOC32\BUILD\src\cedar\generic\base\e32\euser\EUSER\ARMV5\VtblExports.s 0x00000000   Number         0  VtblExports.o ABSOLUTE
    \EPOC32\BUILD\wk29\stdlibs\group\LIBC\ARMV5\VtblExports.s 0x00000000   Number         0  VtblExports.o ABSOLUTE
    \EPOC32\BUILD\wk29\stdlibs\group\LIBDL\ARMV5\VtblExports.s 0x00000000   Number         0  VtblExports.o ABSOLUTE
    \EPOC32\BUILD\wk29\stdlibs\group\LIBM\ARMV5\VtblExports.s 0x00000000   Number         0  VtblExports.o ABSOLUTE
    \EPOC32\BUILD\wk29\stdlibs\group\LIBPTHREAD\ARMV5\VtblExports.s 0x00000000   Number         0  VtblExports.o ABSOLUTE
    \\EPOC32\\BUILD\\src\\cedar\\generic\\base\\e32\\euser\\EDLL\\ARMV5\\urel\\uc_dll_.cpp 0x00000000   Number         0  uc_dll_.o ABSOLUTE
    \\src\\cedar\\generic\\base\\e32\\compsupp\\RVCT2_2\\ucppinit_aeabi.cpp 0x00000000   Number         0  ucppinit_aeabi.o ABSOLUTE
    \dev\symb\SDKs\32\EPOC32\BUILD\iwmake\buildS60____PADDING________\src\QTCORE_DLL\ARMV6\VtblExports.s 0x00000000   Number         0  VtblExports.o ABSOLUTE
    \dev\symb\SDKs\32\EPOC32\BUILD\iwmake\buildS60____PADDING________\src\QTGUI_DLL\ARMV6\VtblExports.s 0x00000000   Number         0  VtblExports.o ABSOLUTE
    \s60\5.0\EPOC32\BUILD\scripts\5.0\qtmobility\QTGALLERY_DLL\ARMV5\urel\QtGallery{00010103}.s 0x00000000   Number         0  QtGallery{00010103}.exp ABSOLUTE
    \scripts\5.0\qtmobility\src\gallery\qabstractgallery.cpp 0x00000000   Number         0  QtGallery.in ABSOLUTE
    \scripts\5.0\qtmobility\src\gallery\qdocumentgallery.cpp 0x00000000   Number         0  QtGallery.in ABSOLUTE
    \scripts\5.0\qtmobility\src\gallery\qgalleryabstractrequest.cpp 0x00000000   Number         0  QtGallery.in ABSOLUTE
    \scripts\5.0\qtmobility\src\gallery\qgalleryabstractresponse.cpp 0x00000000   Number         0  QtGallery.in ABSOLUTE
    \scripts\5.0\qtmobility\src\gallery\qgalleryfilter.cpp 0x00000000   Number         0  QtGallery.in ABSOLUTE
    \scripts\5.0\qtmobility\src\gallery\qgalleryitemrequest.cpp 0x00000000   Number         0  QtGallery.in ABSOLUTE
    \scripts\5.0\qtmobility\src\gallery\qgalleryquerymodel.cpp 0x00000000   Number         0  QtGallery.in ABSOLUTE
    \scripts\5.0\qtmobility\src\gallery\qgalleryqueryrequest.cpp 0x00000000   Number         0  QtGallery.in ABSOLUTE
    \scripts\5.0\qtmobility\src\gallery\qgalleryresource.cpp 0x00000000   Number         0  QtGallery.in ABSOLUTE
    \scripts\5.0\qtmobility\src\gallery\qgalleryresultset.cpp 0x00000000   Number         0  QtGallery.in ABSOLUTE
    \scripts\5.0\qtmobility\src\gallery\qgallerytyperequest.cpp 0x00000000   Number         0  QtGallery.in ABSOLUTE
    \scripts\5.0\qtmobility\src\gallery\symbian\qdocumentgallery_symbian.cpp 0x00000000   Number         0  QtGallery.in ABSOLUTE
    \scripts\5.0\qtmobility\src\gallery\symbian\qgallerymdsutility.cpp 0x00000000   Number         0  QtGallery.in ABSOLUTE
    \scripts\5.0\qtmobility\src\gallery\symbian\qmdegallerycategoryresultset.cpp 0x00000000   Number         0  QtGallery.in ABSOLUTE
    \scripts\5.0\qtmobility\src\gallery\symbian\qmdegalleryitemresultset.cpp 0x00000000   Number         0  QtGallery.in ABSOLUTE
    \scripts\5.0\qtmobility\src\gallery\symbian\qmdegalleryqueryresultset.cpp 0x00000000   Number         0  QtGallery.in ABSOLUTE
    \scripts\5.0\qtmobility\src\gallery\symbian\qmdegalleryresultset.cpp 0x00000000   Number         0  QtGallery.in ABSOLUTE
    \scripts\5.0\qtmobility\src\gallery\symbian\qmdegallerytyperesultset.cpp 0x00000000   Number         0  QtGallery.in ABSOLUTE
    \scripts\5.0\qtmobility\src\gallery\symbian\qmdesession.cpp 0x00000000   Number         0  QtGallery.in ABSOLUTE
    \src\cedar\generic\base\e32\compsupp\RVCT2_2\ucppinit_aeabi.cpp 0x00000000   Number         0  ucppinit_aeabi.o ABSOLUTE
    \src\cedar\generic\base\e32\euser\epoc\arm\uc_dll.cpp 0x00000000   Number         0  uc_dll.o ABSOLUTE
    .emb_text                                0x00008000   Section       40  uc_dll_.o(.emb_text)
    .emb_text                                0x00008028   Section       72  ucppinit_aeabi.o(.emb_text)
    skip                                     0x0000803c   ARM Code       0  ucppinit_aeabi.o(.emb_text)
    loop                                     0x0000804c   ARM Code       0  ucppinit_aeabi.o(.emb_text)
    fpinit                                   0x00008064   Data           0  ucppinit_aeabi.o(.emb_text)
    base                                     0x00008068   Data           0  ucppinit_aeabi.o(.emb_text)
    limit                                    0x0000806c   Data           0  ucppinit_aeabi.o(.emb_text)
    .text                                    0x00008070   Section      148  QtGallery.in(.text)
    .text                                    0x00008104   Section     2524  QtGallery.in(.text)
    .text                                    0x00008ae0   Section      728  QtGallery.in(.text)
    .text                                    0x00008db8   Section     2714  QtGallery.in(.text)
    .text                                    0x00009854   Section     1820  QtGallery.in(.text)
    .text                                    0x00009f70   Section     4704  QtGallery.in(.text)
    .text                                    0x0000b1d0   Section     1704  QtGallery.in(.text)
    .text                                    0x0000b878   Section      264  QtGallery.in(.text)
    .text                                    0x0000b980   Section      692  QtGallery.in(.text)
    .text                                    0x0000bc34   Section     1620  QtGallery.in(.text)
    .text                                    0x0000c288   Section     1140  QtGallery.in(.text)
    .text                                    0x0000c6fc   Section    17468  QtGallery.in(.text)
    .text                                    0x00010b38   Section     1024  QtGallery.in(.text)
    .text                                    0x00010f38   Section     1080  QtGallery.in(.text)
    .text                                    0x00011370   Section     2248  QtGallery.in(.text)
    .text                                    0x00011c38   Section     4076  QtGallery.in(.text)
    QtMobility::<unnamed>::qt_getPropertyDef(CMdENamespaceDef&, const TDesC16&, const TDesC16&) 0x00011c8b   Thumb Code   138  QtGallery.in(.text)
    QtMobility::<unnamed>::qt_addPropertyFilter(CMdEObjectQuery*, const CMdEPropertyDef&) 0x00011dd1   Thumb Code    66  QtGallery.in(.text)
    QtMobility::<unnamed>::qt_getPropertyDef(CMdEObjectDef&, const TDesC16&) 0x00011e13   Thumb Code    70  QtGallery.in(.text)
    QtMobility::<unnamed>::qt_getObjectDef(CMdENamespaceDef&, const TDesC16&) 0x00011e59   Thumb Code    70  QtGallery.in(.text)
    QtMobility::<unnamed>::qt_contains<QString>(const T1&, const QtMobility::<unnamed>::QMdeGalleryCategoryType&) 0x00011fab   Thumb Code    82  QtGallery.in(.text)
    QtMobility::<unnamed>::qt_contains<QStringRef>(const T1&, const QtMobility::<unnamed>::QMdeGalleryCategoryType&) 0x00011ffd   Thumb Code    54  QtGallery.in(.text)
    QtMobility::<unnamed>::qt_setSortOrder(CMdEObjectQuery*, const QStringList&, const QtMobility::<unnamed>::QMdeGalleryCategoryType&, CMdENamespaceDef&) 0x00012033   Thumb Code   236  QtGallery.in(.text)
    QtMobility::<unnamed>::qt_appendCondition(CMdELogicCondition*, const QtMobility::QGalleryMetaDataFilter&, const QtMobility::<unnamed>::QMdeGalleryCategoryType&, const CMdEPropertyDef&) 0x0001211f   Thumb Code   366  QtGallery.in(.text)
    QtMobility::<unnamed>::qt_appendConditions(CMdELogicCondition*, const QList<QtMobility::QGalleryFilter>&, const QtMobility::<unnamed>::QMdeGalleryCategoryType&, const CMdEPropertyDef&) 0x0001228d   Thumb Code   344  QtGallery.in(.text)
    QtMobility::<unnamed>::qt_appendFilterCondition(CMdELogicCondition*, const QtMobility::QGalleryFilter&, const QtMobility::<unnamed>::QMdeGalleryCategoryType&, const CMdEPropertyDef&) 0x000123e5   Thumb Code   224  QtGallery.in(.text)
    __sti___32_qmdegallerycategoryresultset_cpp 0x00012a65   Thumb Code    48  QtGallery.in(.text)
    QtMobility::<unnamed>::qt_appendScopeCondition(CMdELogicCondition*, unsigned, CMdENamespaceDef&) 0x00012a95   Thumb Code   148  QtGallery.in(.text)
    QtMobility::<unnamed>::qt_appendScopeCondition(CMdELogicCondition*, const QtMobility::<unnamed>::QMdeGalleryCategoryType&, const QString&, CMdENamespaceDef&) 0x00012b29   Thumb Code   106  QtGallery.in(.text)
    QtMobility::<unnamed>::qt_indexOf<QString, (int)4>(const T1&, const QtMobility::<unnamed>::QMdeGalleryCategoryType(&)[T2]) 0x00012b93   Thumb Code    46  QtGallery.in(.text)
    QtMobility::<unnamed>::qt_filterMdeCategoryPropertyNames(const QString&, const QStringList&) 0x00012bc1   Thumb Code    88  QtGallery.in(.text)
    .text                                    0x00012c24   Section      852  QtGallery.in(.text)
    .text                                    0x00012f78   Section     1146  QtGallery.in(.text)
    .text                                    0x000133f4   Section       40  uc_dll.o(.text)
    .text.clean                              0x0001341c   Section       18  QtGallery.in(.text.clean)
    .text.clean                              0x0001342e   Section      170  QtGallery.in(.text.clean)
    .text.clean                              0x000134d8   Section       56  QtGallery.in(.text.clean)
    .text.clean                              0x00013510   Section      532  QtGallery.in(.text.clean)
    .text.clean                              0x00013724   Section       88  QtGallery.in(.text.clean)
    .text.clean                              0x0001377c   Section      284  QtGallery.in(.text.clean)
    .text.clean                              0x00013898   Section       78  QtGallery.in(.text.clean)
    .text.clean                              0x000138e6   Section       50  QtGallery.in(.text.clean)
    .text.clean                              0x00013918   Section       36  QtGallery.in(.text.clean)
    .text.clean                              0x0001393c   Section       64  QtGallery.in(.text.clean)
    .text.clean                              0x0001397c   Section      146  QtGallery.in(.text.clean)
    .text.clean                              0x00013a0e   Section      762  QtGallery.in(.text.clean)
    .text.clean                              0x00013d08   Section      128  QtGallery.in(.text.clean)
    .text.clean                              0x00013d88   Section      114  QtGallery.in(.text.clean)
    .text.clean                              0x00013dfa   Section      158  QtGallery.in(.text.clean)
    .text.clean                              0x00013e98   Section      514  QtGallery.in(.text.clean)
    .text.clean                              0x0001409a   Section       72  QtGallery.in(.text.clean)
    .text.clean                              0x000140e2   Section      234  QtGallery.in(.text.clean)
    ExportTable                              0x000141cc   Section     2048  QtGallery{00010103}.exp(ExportTable)
    StubCode                                 0x000149cc   Section        8  mdeclient{000a0000}-10.o(StubCode)
    theImportedSymbol                        0x000149d0   Data           0  mdeclient{000a0000}-10.o(StubCode)
    StubCode                                 0x000149d4   Section        8  mdeclient{000a0000}-107.o(StubCode)
    theImportedSymbol                        0x000149d8   Data           0  mdeclient{000a0000}-107.o(StubCode)
    StubCode                                 0x000149dc   Section        8  mdeclient{000a0000}-11.o(StubCode)
    theImportedSymbol                        0x000149e0   Data           0  mdeclient{000a0000}-11.o(StubCode)
    StubCode                                 0x000149e4   Section        8  mdeclient{000a0000}-113.o(StubCode)
    theImportedSymbol                        0x000149e8   Data           0  mdeclient{000a0000}-113.o(StubCode)
    StubCode                                 0x000149ec   Section        8  mdeclient{000a0000}-114.o(StubCode)
    theImportedSymbol                        0x000149f0   Data           0  mdeclient{000a0000}-114.o(StubCode)
    StubCode                                 0x000149f4   Section        8  mdeclient{000a0000}-116.o(StubCode)
    theImportedSymbol                        0x000149f8   Data           0  mdeclient{000a0000}-116.o(StubCode)
    StubCode                                 0x000149fc   Section        8  mdeclient{000a0000}-118.o(StubCode)
    theImportedSymbol                        0x00014a00   Data           0  mdeclient{000a0000}-118.o(StubCode)
    StubCode                                 0x00014a04   Section        8  mdeclient{000a0000}-119.o(StubCode)
    theImportedSymbol                        0x00014a08   Data           0  mdeclient{000a0000}-119.o(StubCode)
    StubCode                                 0x00014a0c   Section        8  mdeclient{000a0000}-120.o(StubCode)
    theImportedSymbol                        0x00014a10   Data           0  mdeclient{000a0000}-120.o(StubCode)
    StubCode                                 0x00014a14   Section        8  mdeclient{000a0000}-128.o(StubCode)
    theImportedSymbol                        0x00014a18   Data           0  mdeclient{000a0000}-128.o(StubCode)
    StubCode                                 0x00014a1c   Section        8  mdeclient{000a0000}-129.o(StubCode)
    theImportedSymbol                        0x00014a20   Data           0  mdeclient{000a0000}-129.o(StubCode)
    StubCode                                 0x00014a24   Section        8  mdeclient{000a0000}-133.o(StubCode)
    theImportedSymbol                        0x00014a28   Data           0  mdeclient{000a0000}-133.o(StubCode)
    StubCode                                 0x00014a2c   Section        8  mdeclient{000a0000}-148.o(StubCode)
    theImportedSymbol                        0x00014a30   Data           0  mdeclient{000a0000}-148.o(StubCode)
    StubCode                                 0x00014a34   Section        8  mdeclient{000a0000}-152.o(StubCode)
    theImportedSymbol                        0x00014a38   Data           0  mdeclient{000a0000}-152.o(StubCode)
    StubCode                                 0x00014a3c   Section        8  mdeclient{000a0000}-16.o(StubCode)
    theImportedSymbol                        0x00014a40   Data           0  mdeclient{000a0000}-16.o(StubCode)
    StubCode                                 0x00014a44   Section        8  mdeclient{000a0000}-161.o(StubCode)
    theImportedSymbol                        0x00014a48   Data           0  mdeclient{000a0000}-161.o(StubCode)
    StubCode                                 0x00014a4c   Section        8  mdeclient{000a0000}-18.o(StubCode)
    theImportedSymbol                        0x00014a50   Data           0  mdeclient{000a0000}-18.o(StubCode)
    StubCode                                 0x00014a54   Section        8  mdeclient{000a0000}-183.o(StubCode)
    theImportedSymbol                        0x00014a58   Data           0  mdeclient{000a0000}-183.o(StubCode)
    StubCode                                 0x00014a5c   Section        8  mdeclient{000a0000}-19.o(StubCode)
    theImportedSymbol                        0x00014a60   Data           0  mdeclient{000a0000}-19.o(StubCode)
    StubCode                                 0x00014a64   Section        8  mdeclient{000a0000}-190.o(StubCode)
    theImportedSymbol                        0x00014a68   Data           0  mdeclient{000a0000}-190.o(StubCode)
    StubCode                                 0x00014a6c   Section        8  mdeclient{000a0000}-22.o(StubCode)
    theImportedSymbol                        0x00014a70   Data           0  mdeclient{000a0000}-22.o(StubCode)
    StubCode                                 0x00014a74   Section        8  mdeclient{000a0000}-224.o(StubCode)
    theImportedSymbol                        0x00014a78   Data           0  mdeclient{000a0000}-224.o(StubCode)
    StubCode                                 0x00014a7c   Section        8  mdeclient{000a0000}-227.o(StubCode)
    theImportedSymbol                        0x00014a80   Data           0  mdeclient{000a0000}-227.o(StubCode)
    StubCode                                 0x00014a84   Section        8  mdeclient{000a0000}-231.o(StubCode)
    theImportedSymbol                        0x00014a88   Data           0  mdeclient{000a0000}-231.o(StubCode)
    StubCode                                 0x00014a8c   Section        8  mdeclient{000a0000}-233.o(StubCode)
    theImportedSymbol                        0x00014a90   Data           0  mdeclient{000a0000}-233.o(StubCode)
    StubCode                                 0x00014a94   Section        8  mdeclient{000a0000}-30.o(StubCode)
    theImportedSymbol                        0x00014a98   Data           0  mdeclient{000a0000}-30.o(StubCode)
    StubCode                                 0x00014a9c   Section        8  mdeclient{000a0000}-32.o(StubCode)
    theImportedSymbol                        0x00014aa0   Data           0  mdeclient{000a0000}-32.o(StubCode)
    StubCode                                 0x00014aa4   Section        8  mdeclient{000a0000}-40.o(StubCode)
    theImportedSymbol                        0x00014aa8   Data           0  mdeclient{000a0000}-40.o(StubCode)
    StubCode                                 0x00014aac   Section        8  mdeclient{000a0000}-43.o(StubCode)
    theImportedSymbol                        0x00014ab0   Data           0  mdeclient{000a0000}-43.o(StubCode)
    StubCode                                 0x00014ab4   Section        8  mdeclient{000a0000}-50.o(StubCode)
    theImportedSymbol                        0x00014ab8   Data           0  mdeclient{000a0000}-50.o(StubCode)
    StubCode                                 0x00014abc   Section        8  mdeclient{000a0000}-51.o(StubCode)
    theImportedSymbol                        0x00014ac0   Data           0  mdeclient{000a0000}-51.o(StubCode)
    StubCode                                 0x00014ac4   Section        8  mdeclient{000a0000}-54.o(StubCode)
    theImportedSymbol                        0x00014ac8   Data           0  mdeclient{000a0000}-54.o(StubCode)
    StubCode                                 0x00014acc   Section        8  mdeclient{000a0000}-58.o(StubCode)
    theImportedSymbol                        0x00014ad0   Data           0  mdeclient{000a0000}-58.o(StubCode)
    StubCode                                 0x00014ad4   Section        8  mdeclient{000a0000}-65.o(StubCode)
    theImportedSymbol                        0x00014ad8   Data           0  mdeclient{000a0000}-65.o(StubCode)
    StubCode                                 0x00014adc   Section        8  mdeclient{000a0000}-66.o(StubCode)
    theImportedSymbol                        0x00014ae0   Data           0  mdeclient{000a0000}-66.o(StubCode)
    StubCode                                 0x00014ae4   Section        8  mdeclient{000a0000}-68.o(StubCode)
    theImportedSymbol                        0x00014ae8   Data           0  mdeclient{000a0000}-68.o(StubCode)
    StubCode                                 0x00014aec   Section        8  mdeclient{000a0000}-69.o(StubCode)
    theImportedSymbol                        0x00014af0   Data           0  mdeclient{000a0000}-69.o(StubCode)
    StubCode                                 0x00014af4   Section        8  mdeclient{000a0000}-72.o(StubCode)
    theImportedSymbol                        0x00014af8   Data           0  mdeclient{000a0000}-72.o(StubCode)
    StubCode                                 0x00014afc   Section        8  mdeclient{000a0000}-73.o(StubCode)
    theImportedSymbol                        0x00014b00   Data           0  mdeclient{000a0000}-73.o(StubCode)
    StubCode                                 0x00014b04   Section        8  mdeclient{000a0000}-74.o(StubCode)
    theImportedSymbol                        0x00014b08   Data           0  mdeclient{000a0000}-74.o(StubCode)
    StubCode                                 0x00014b0c   Section        8  mdeclient{000a0000}-76.o(StubCode)
    theImportedSymbol                        0x00014b10   Data           0  mdeclient{000a0000}-76.o(StubCode)
    StubCode                                 0x00014b14   Section        8  mdeclient{000a0000}-77.o(StubCode)
    theImportedSymbol                        0x00014b18   Data           0  mdeclient{000a0000}-77.o(StubCode)
    StubCode                                 0x00014b1c   Section        8  mdeclient{000a0000}-80.o(StubCode)
    theImportedSymbol                        0x00014b20   Data           0  mdeclient{000a0000}-80.o(StubCode)
    StubCode                                 0x00014b24   Section        8  mdeclient{000a0000}-83.o(StubCode)
    theImportedSymbol                        0x00014b28   Data           0  mdeclient{000a0000}-83.o(StubCode)
    StubCode                                 0x00014b2c   Section        8  euser{000a0000}-1169.o(StubCode)
    theImportedSymbol                        0x00014b30   Data           0  euser{000a0000}-1169.o(StubCode)
    StubCode                                 0x00014b34   Section        8  euser{000a0000}-1170.o(StubCode)
    theImportedSymbol                        0x00014b38   Data           0  euser{000a0000}-1170.o(StubCode)
    StubCode                                 0x00014b3c   Section        8  euser{000a0000}-1172.o(StubCode)
    theImportedSymbol                        0x00014b40   Data           0  euser{000a0000}-1172.o(StubCode)
    StubCode                                 0x00014b44   Section        8  euser{000a0000}-1476.o(StubCode)
    theImportedSymbol                        0x00014b48   Data           0  euser{000a0000}-1476.o(StubCode)
    StubCode                                 0x00014b4c   Section        8  euser{000a0000}-1507.o(StubCode)
    theImportedSymbol                        0x00014b50   Data           0  euser{000a0000}-1507.o(StubCode)
    StubCode                                 0x00014b54   Section        8  euser{000a0000}-1508.o(StubCode)
    theImportedSymbol                        0x00014b58   Data           0  euser{000a0000}-1508.o(StubCode)
    StubCode                                 0x00014b5c   Section        8  euser{000a0000}-1510.o(StubCode)
    theImportedSymbol                        0x00014b60   Data           0  euser{000a0000}-1510.o(StubCode)
    StubCode                                 0x00014b64   Section        8  euser{000a0000}-1590.o(StubCode)
    theImportedSymbol                        0x00014b68   Data           0  euser{000a0000}-1590.o(StubCode)
    StubCode                                 0x00014b6c   Section        8  euser{000a0000}-1593.o(StubCode)
    theImportedSymbol                        0x00014b70   Data           0  euser{000a0000}-1593.o(StubCode)
    StubCode                                 0x00014b74   Section        8  euser{000a0000}-1679.o(StubCode)
    theImportedSymbol                        0x00014b78   Data           0  euser{000a0000}-1679.o(StubCode)
    StubCode                                 0x00014b7c   Section        8  euser{000a0000}-1804.o(StubCode)
    theImportedSymbol                        0x00014b80   Data           0  euser{000a0000}-1804.o(StubCode)
    StubCode                                 0x00014b84   Section        8  euser{000a0000}-1807.o(StubCode)
    theImportedSymbol                        0x00014b88   Data           0  euser{000a0000}-1807.o(StubCode)
    StubCode                                 0x00014b8c   Section        8  euser{000a0000}-1810.o(StubCode)
    theImportedSymbol                        0x00014b90   Data           0  euser{000a0000}-1810.o(StubCode)
    StubCode                                 0x00014b94   Section        8  euser{000a0000}-1822.o(StubCode)
    theImportedSymbol                        0x00014b98   Data           0  euser{000a0000}-1822.o(StubCode)
    StubCode                                 0x00014b9c   Section        8  euser{000a0000}-203.o(StubCode)
    theImportedSymbol                        0x00014ba0   Data           0  euser{000a0000}-203.o(StubCode)
    StubCode                                 0x00014ba4   Section        8  euser{000a0000}-205.o(StubCode)
    theImportedSymbol                        0x00014ba8   Data           0  euser{000a0000}-205.o(StubCode)
    StubCode                                 0x00014bac   Section        8  euser{000a0000}-2060.o(StubCode)
    theImportedSymbol                        0x00014bb0   Data           0  euser{000a0000}-2060.o(StubCode)
    StubCode                                 0x00014bb4   Section        8  euser{000a0000}-2061.o(StubCode)
    theImportedSymbol                        0x00014bb8   Data           0  euser{000a0000}-2061.o(StubCode)
    StubCode                                 0x00014bbc   Section        8  euser{000a0000}-208.o(StubCode)
    theImportedSymbol                        0x00014bc0   Data           0  euser{000a0000}-208.o(StubCode)
    StubCode                                 0x00014bc4   Section        8  euser{000a0000}-2082.o(StubCode)
    theImportedSymbol                        0x00014bc8   Data           0  euser{000a0000}-2082.o(StubCode)
    StubCode                                 0x00014bcc   Section        8  euser{000a0000}-209.o(StubCode)
    theImportedSymbol                        0x00014bd0   Data           0  euser{000a0000}-209.o(StubCode)
    StubCode                                 0x00014bd4   Section        8  euser{000a0000}-2104.o(StubCode)
    theImportedSymbol                        0x00014bd8   Data           0  euser{000a0000}-2104.o(StubCode)
    StubCode                                 0x00014bdc   Section        8  euser{000a0000}-2106.o(StubCode)
    theImportedSymbol                        0x00014be0   Data           0  euser{000a0000}-2106.o(StubCode)
    StubCode                                 0x00014be4   Section        8  euser{000a0000}-470.o(StubCode)
    theImportedSymbol                        0x00014be8   Data           0  euser{000a0000}-470.o(StubCode)
    StubCode                                 0x00014bec   Section        8  euser{000a0000}-471.o(StubCode)
    theImportedSymbol                        0x00014bf0   Data           0  euser{000a0000}-471.o(StubCode)
    StubCode                                 0x00014bf4   Section        8  euser{000a0000}-472.o(StubCode)
    theImportedSymbol                        0x00014bf8   Data           0  euser{000a0000}-472.o(StubCode)
    StubCode                                 0x00014bfc   Section        8  euser{000a0000}-474.o(StubCode)
    theImportedSymbol                        0x00014c00   Data           0  euser{000a0000}-474.o(StubCode)
    StubCode                                 0x00014c04   Section        8  euser{000a0000}-48.o(StubCode)
    theImportedSymbol                        0x00014c08   Data           0  euser{000a0000}-48.o(StubCode)
    StubCode                                 0x00014c0c   Section        8  euser{000a0000}-481.o(StubCode)
    theImportedSymbol                        0x00014c10   Data           0  euser{000a0000}-481.o(StubCode)
    StubCode                                 0x00014c14   Section        8  euser{000a0000}-55.o(StubCode)
    theImportedSymbol                        0x00014c18   Data           0  euser{000a0000}-55.o(StubCode)
    StubCode                                 0x00014c1c   Section        8  euser{000a0000}-649.o(StubCode)
    theImportedSymbol                        0x00014c20   Data           0  euser{000a0000}-649.o(StubCode)
    StubCode                                 0x00014c24   Section        8  euser{000a0000}-669.o(StubCode)
    theImportedSymbol                        0x00014c28   Data           0  euser{000a0000}-669.o(StubCode)
    StubCode                                 0x00014c2c   Section        8  euser{000a0000}-670.o(StubCode)
    theImportedSymbol                        0x00014c30   Data           0  euser{000a0000}-670.o(StubCode)
    StubCode                                 0x00014c34   Section        8  euser{000a0000}-671.o(StubCode)
    theImportedSymbol                        0x00014c38   Data           0  euser{000a0000}-671.o(StubCode)
    StubCode                                 0x00014c3c   Section        8  euser{000a0000}-80.o(StubCode)
    theImportedSymbol                        0x00014c40   Data           0  euser{000a0000}-80.o(StubCode)
    StubCode                                 0x00014c44   Section        8  euser{000a0000}-861.o(StubCode)
    theImportedSymbol                        0x00014c48   Data           0  euser{000a0000}-861.o(StubCode)
    StubCode                                 0x00014c4c   Section        8  libstdcpp{00010000}-988.o(StubCode)
    theImportedSymbol                        0x00014c50   Data           0  libstdcpp{00010000}-988.o(StubCode)
    StubCode                                 0x00014c54   Section        8  libstdcpp{00010000}-992.o(StubCode)
    theImportedSymbol                        0x00014c58   Data           0  libstdcpp{00010000}-992.o(StubCode)
    StubCode                                 0x00014c5c   Section        8  QtCore{00040703}-1001.o(StubCode)
    theImportedSymbol                        0x00014c60   Data           0  QtCore{00040703}-1001.o(StubCode)
    StubCode                                 0x00014c64   Section        8  QtCore{00040703}-1002.o(StubCode)
    theImportedSymbol                        0x00014c68   Data           0  QtCore{00040703}-1002.o(StubCode)
    StubCode                                 0x00014c6c   Section        8  QtCore{00040703}-1003.o(StubCode)
    theImportedSymbol                        0x00014c70   Data           0  QtCore{00040703}-1003.o(StubCode)
    StubCode                                 0x00014c74   Section        8  QtCore{00040703}-1005.o(StubCode)
    theImportedSymbol                        0x00014c78   Data           0  QtCore{00040703}-1005.o(StubCode)
    StubCode                                 0x00014c7c   Section        8  QtCore{00040703}-1007.o(StubCode)
    theImportedSymbol                        0x00014c80   Data           0  QtCore{00040703}-1007.o(StubCode)
    StubCode                                 0x00014c84   Section        8  QtCore{00040703}-1011.o(StubCode)
    theImportedSymbol                        0x00014c88   Data           0  QtCore{00040703}-1011.o(StubCode)
    StubCode                                 0x00014c8c   Section        8  QtCore{00040703}-1012.o(StubCode)
    theImportedSymbol                        0x00014c90   Data           0  QtCore{00040703}-1012.o(StubCode)
    StubCode                                 0x00014c94   Section        8  QtCore{00040703}-1016.o(StubCode)
    theImportedSymbol                        0x00014c98   Data           0  QtCore{00040703}-1016.o(StubCode)
    StubCode                                 0x00014c9c   Section        8  QtCore{00040703}-1017.o(StubCode)
    theImportedSymbol                        0x00014ca0   Data           0  QtCore{00040703}-1017.o(StubCode)
    StubCode                                 0x00014ca4   Section        8  QtCore{00040703}-1019.o(StubCode)
    theImportedSymbol                        0x00014ca8   Data           0  QtCore{00040703}-1019.o(StubCode)
    StubCode                                 0x00014cac   Section        8  QtCore{00040703}-1020.o(StubCode)
    theImportedSymbol                        0x00014cb0   Data           0  QtCore{00040703}-1020.o(StubCode)
    StubCode                                 0x00014cb4   Section        8  QtCore{00040703}-1021.o(StubCode)
    theImportedSymbol                        0x00014cb8   Data           0  QtCore{00040703}-1021.o(StubCode)
    StubCode                                 0x00014cbc   Section        8  QtCore{00040703}-1034.o(StubCode)
    theImportedSymbol                        0x00014cc0   Data           0  QtCore{00040703}-1034.o(StubCode)
    StubCode                                 0x00014cc4   Section        8  QtCore{00040703}-1036.o(StubCode)
    theImportedSymbol                        0x00014cc8   Data           0  QtCore{00040703}-1036.o(StubCode)
    StubCode                                 0x00014ccc   Section        8  QtCore{00040703}-1037.o(StubCode)
    theImportedSymbol                        0x00014cd0   Data           0  QtCore{00040703}-1037.o(StubCode)
    StubCode                                 0x00014cd4   Section        8  QtCore{00040703}-1039.o(StubCode)
    theImportedSymbol                        0x00014cd8   Data           0  QtCore{00040703}-1039.o(StubCode)
    StubCode                                 0x00014cdc   Section        8  QtCore{00040703}-1041.o(StubCode)
    theImportedSymbol                        0x00014ce0   Data           0  QtCore{00040703}-1041.o(StubCode)
    StubCode                                 0x00014ce4   Section        8  QtCore{00040703}-1045.o(StubCode)
    theImportedSymbol                        0x00014ce8   Data           0  QtCore{00040703}-1045.o(StubCode)
    StubCode                                 0x00014cec   Section        8  QtCore{00040703}-109.o(StubCode)
    theImportedSymbol                        0x00014cf0   Data           0  QtCore{00040703}-109.o(StubCode)
    StubCode                                 0x00014cf4   Section        8  QtCore{00040703}-1453.o(StubCode)
    theImportedSymbol                        0x00014cf8   Data           0  QtCore{00040703}-1453.o(StubCode)
    StubCode                                 0x00014cfc   Section        8  QtCore{00040703}-1492.o(StubCode)
    theImportedSymbol                        0x00014d00   Data           0  QtCore{00040703}-1492.o(StubCode)
    StubCode                                 0x00014d04   Section        8  QtCore{00040703}-150.o(StubCode)
    theImportedSymbol                        0x00014d08   Data           0  QtCore{00040703}-150.o(StubCode)
    StubCode                                 0x00014d0c   Section        8  QtCore{00040703}-1523.o(StubCode)
    theImportedSymbol                        0x00014d10   Data           0  QtCore{00040703}-1523.o(StubCode)
    StubCode                                 0x00014d14   Section        8  QtCore{00040703}-1525.o(StubCode)
    theImportedSymbol                        0x00014d18   Data           0  QtCore{00040703}-1525.o(StubCode)
    StubCode                                 0x00014d1c   Section        8  QtCore{00040703}-1526.o(StubCode)
    theImportedSymbol                        0x00014d20   Data           0  QtCore{00040703}-1526.o(StubCode)
    StubCode                                 0x00014d24   Section        8  QtCore{00040703}-1531.o(StubCode)
    theImportedSymbol                        0x00014d28   Data           0  QtCore{00040703}-1531.o(StubCode)
    StubCode                                 0x00014d2c   Section        8  QtCore{00040703}-1534.o(StubCode)
    theImportedSymbol                        0x00014d30   Data           0  QtCore{00040703}-1534.o(StubCode)
    StubCode                                 0x00014d34   Section        8  QtCore{00040703}-1582.o(StubCode)
    theImportedSymbol                        0x00014d38   Data           0  QtCore{00040703}-1582.o(StubCode)
    StubCode                                 0x00014d3c   Section        8  QtCore{00040703}-1643.o(StubCode)
    theImportedSymbol                        0x00014d40   Data           0  QtCore{00040703}-1643.o(StubCode)
    StubCode                                 0x00014d44   Section        8  QtCore{00040703}-1706.o(StubCode)
    theImportedSymbol                        0x00014d48   Data           0  QtCore{00040703}-1706.o(StubCode)
    StubCode                                 0x00014d4c   Section        8  QtCore{00040703}-175.o(StubCode)
    theImportedSymbol                        0x00014d50   Data           0  QtCore{00040703}-175.o(StubCode)
    StubCode                                 0x00014d54   Section        8  QtCore{00040703}-176.o(StubCode)
    theImportedSymbol                        0x00014d58   Data           0  QtCore{00040703}-176.o(StubCode)
    StubCode                                 0x00014d5c   Section        8  QtCore{00040703}-1760.o(StubCode)
    theImportedSymbol                        0x00014d60   Data           0  QtCore{00040703}-1760.o(StubCode)
    StubCode                                 0x00014d64   Section        8  QtCore{00040703}-1763.o(StubCode)
    theImportedSymbol                        0x00014d68   Data           0  QtCore{00040703}-1763.o(StubCode)
    StubCode                                 0x00014d6c   Section        8  QtCore{00040703}-1764.o(StubCode)
    theImportedSymbol                        0x00014d70   Data           0  QtCore{00040703}-1764.o(StubCode)
    StubCode                                 0x00014d74   Section        8  QtCore{00040703}-1766.o(StubCode)
    theImportedSymbol                        0x00014d78   Data           0  QtCore{00040703}-1766.o(StubCode)
    StubCode                                 0x00014d7c   Section        8  QtCore{00040703}-1767.o(StubCode)
    theImportedSymbol                        0x00014d80   Data           0  QtCore{00040703}-1767.o(StubCode)
    StubCode                                 0x00014d84   Section        8  QtCore{00040703}-1768.o(StubCode)
    theImportedSymbol                        0x00014d88   Data           0  QtCore{00040703}-1768.o(StubCode)
    StubCode                                 0x00014d8c   Section        8  QtCore{00040703}-177.o(StubCode)
    theImportedSymbol                        0x00014d90   Data           0  QtCore{00040703}-177.o(StubCode)
    StubCode                                 0x00014d94   Section        8  QtCore{00040703}-1773.o(StubCode)
    theImportedSymbol                        0x00014d98   Data           0  QtCore{00040703}-1773.o(StubCode)
    StubCode                                 0x00014d9c   Section        8  QtCore{00040703}-1777.o(StubCode)
    theImportedSymbol                        0x00014da0   Data           0  QtCore{00040703}-1777.o(StubCode)
    StubCode                                 0x00014da4   Section        8  QtCore{00040703}-1784.o(StubCode)
    theImportedSymbol                        0x00014da8   Data           0  QtCore{00040703}-1784.o(StubCode)
    StubCode                                 0x00014dac   Section        8  QtCore{00040703}-1785.o(StubCode)
    theImportedSymbol                        0x00014db0   Data           0  QtCore{00040703}-1785.o(StubCode)
    StubCode                                 0x00014db4   Section        8  QtCore{00040703}-1789.o(StubCode)
    theImportedSymbol                        0x00014db8   Data           0  QtCore{00040703}-1789.o(StubCode)
    StubCode                                 0x00014dbc   Section        8  QtCore{00040703}-179.o(StubCode)
    theImportedSymbol                        0x00014dc0   Data           0  QtCore{00040703}-179.o(StubCode)
    StubCode                                 0x00014dc4   Section        8  QtCore{00040703}-1794.o(StubCode)
    theImportedSymbol                        0x00014dc8   Data           0  QtCore{00040703}-1794.o(StubCode)
    StubCode                                 0x00014dcc   Section        8  QtCore{00040703}-1814.o(StubCode)
    theImportedSymbol                        0x00014dd0   Data           0  QtCore{00040703}-1814.o(StubCode)
    StubCode                                 0x00014dd4   Section        8  QtCore{00040703}-182.o(StubCode)
    theImportedSymbol                        0x00014dd8   Data           0  QtCore{00040703}-182.o(StubCode)
    StubCode                                 0x00014ddc   Section        8  QtCore{00040703}-1825.o(StubCode)
    theImportedSymbol                        0x00014de0   Data           0  QtCore{00040703}-1825.o(StubCode)
    StubCode                                 0x00014de4   Section        8  QtCore{00040703}-1830.o(StubCode)
    theImportedSymbol                        0x00014de8   Data           0  QtCore{00040703}-1830.o(StubCode)
    StubCode                                 0x00014dec   Section        8  QtCore{00040703}-1831.o(StubCode)
    theImportedSymbol                        0x00014df0   Data           0  QtCore{00040703}-1831.o(StubCode)
    StubCode                                 0x00014df4   Section        8  QtCore{00040703}-1836.o(StubCode)
    theImportedSymbol                        0x00014df8   Data           0  QtCore{00040703}-1836.o(StubCode)
    StubCode                                 0x00014dfc   Section        8  QtCore{00040703}-1855.o(StubCode)
    theImportedSymbol                        0x00014e00   Data           0  QtCore{00040703}-1855.o(StubCode)
    StubCode                                 0x00014e04   Section        8  QtCore{00040703}-1874.o(StubCode)
    theImportedSymbol                        0x00014e08   Data           0  QtCore{00040703}-1874.o(StubCode)
    StubCode                                 0x00014e0c   Section        8  QtCore{00040703}-1875.o(StubCode)
    theImportedSymbol                        0x00014e10   Data           0  QtCore{00040703}-1875.o(StubCode)
    StubCode                                 0x00014e14   Section        8  QtCore{00040703}-1885.o(StubCode)
    theImportedSymbol                        0x00014e18   Data           0  QtCore{00040703}-1885.o(StubCode)
    StubCode                                 0x00014e1c   Section        8  QtCore{00040703}-1947.o(StubCode)
    theImportedSymbol                        0x00014e20   Data           0  QtCore{00040703}-1947.o(StubCode)
    StubCode                                 0x00014e24   Section        8  QtCore{00040703}-1949.o(StubCode)
    theImportedSymbol                        0x00014e28   Data           0  QtCore{00040703}-1949.o(StubCode)
    StubCode                                 0x00014e2c   Section        8  QtCore{00040703}-2005.o(StubCode)
    theImportedSymbol                        0x00014e30   Data           0  QtCore{00040703}-2005.o(StubCode)
    StubCode                                 0x00014e34   Section        8  QtCore{00040703}-2034.o(StubCode)
    theImportedSymbol                        0x00014e38   Data           0  QtCore{00040703}-2034.o(StubCode)
    StubCode                                 0x00014e3c   Section        8  QtCore{00040703}-2037.o(StubCode)
    theImportedSymbol                        0x00014e40   Data           0  QtCore{00040703}-2037.o(StubCode)
    StubCode                                 0x00014e44   Section        8  QtCore{00040703}-2040.o(StubCode)
    theImportedSymbol                        0x00014e48   Data           0  QtCore{00040703}-2040.o(StubCode)
    StubCode                                 0x00014e4c   Section        8  QtCore{00040703}-2042.o(StubCode)
    theImportedSymbol                        0x00014e50   Data           0  QtCore{00040703}-2042.o(StubCode)
    StubCode                                 0x00014e54   Section        8  QtCore{00040703}-2043.o(StubCode)
    theImportedSymbol                        0x00014e58   Data           0  QtCore{00040703}-2043.o(StubCode)
    StubCode                                 0x00014e5c   Section        8  QtCore{00040703}-2082.o(StubCode)
    theImportedSymbol                        0x00014e60   Data           0  QtCore{00040703}-2082.o(StubCode)
    StubCode                                 0x00014e64   Section        8  QtCore{00040703}-2084.o(StubCode)
    theImportedSymbol                        0x00014e68   Data           0  QtCore{00040703}-2084.o(StubCode)
    StubCode                                 0x00014e6c   Section        8  QtCore{00040703}-2103.o(StubCode)
    theImportedSymbol                        0x00014e70   Data           0  QtCore{00040703}-2103.o(StubCode)
    StubCode                                 0x00014e74   Section        8  QtCore{00040703}-2104.o(StubCode)
    theImportedSymbol                        0x00014e78   Data           0  QtCore{00040703}-2104.o(StubCode)
    StubCode                                 0x00014e7c   Section        8  QtCore{00040703}-2110.o(StubCode)
    theImportedSymbol                        0x00014e80   Data           0  QtCore{00040703}-2110.o(StubCode)
    StubCode                                 0x00014e84   Section        8  QtCore{00040703}-2122.o(StubCode)
    theImportedSymbol                        0x00014e88   Data           0  QtCore{00040703}-2122.o(StubCode)
    StubCode                                 0x00014e8c   Section        8  QtCore{00040703}-2130.o(StubCode)
    theImportedSymbol                        0x00014e90   Data           0  QtCore{00040703}-2130.o(StubCode)
    StubCode                                 0x00014e94   Section        8  QtCore{00040703}-2134.o(StubCode)
    theImportedSymbol                        0x00014e98   Data           0  QtCore{00040703}-2134.o(StubCode)
    StubCode                                 0x00014e9c   Section        8  QtCore{00040703}-2141.o(StubCode)
    theImportedSymbol                        0x00014ea0   Data           0  QtCore{00040703}-2141.o(StubCode)
    StubCode                                 0x00014ea4   Section        8  QtCore{00040703}-2143.o(StubCode)
    theImportedSymbol                        0x00014ea8   Data           0  QtCore{00040703}-2143.o(StubCode)
    StubCode                                 0x00014eac   Section        8  QtCore{00040703}-2188.o(StubCode)
    theImportedSymbol                        0x00014eb0   Data           0  QtCore{00040703}-2188.o(StubCode)
    StubCode                                 0x00014eb4   Section        8  QtCore{00040703}-2190.o(StubCode)
    theImportedSymbol                        0x00014eb8   Data           0  QtCore{00040703}-2190.o(StubCode)
    StubCode                                 0x00014ebc   Section        8  QtCore{00040703}-2191.o(StubCode)
    theImportedSymbol                        0x00014ec0   Data           0  QtCore{00040703}-2191.o(StubCode)
    StubCode                                 0x00014ec4   Section        8  QtCore{00040703}-2193.o(StubCode)
    theImportedSymbol                        0x00014ec8   Data           0  QtCore{00040703}-2193.o(StubCode)
    StubCode                                 0x00014ecc   Section        8  QtCore{00040703}-2196.o(StubCode)
    theImportedSymbol                        0x00014ed0   Data           0  QtCore{00040703}-2196.o(StubCode)
    StubCode                                 0x00014ed4   Section        8  QtCore{00040703}-2197.o(StubCode)
    theImportedSymbol                        0x00014ed8   Data           0  QtCore{00040703}-2197.o(StubCode)
    StubCode                                 0x00014edc   Section        8  QtCore{00040703}-2324.o(StubCode)
    theImportedSymbol                        0x00014ee0   Data           0  QtCore{00040703}-2324.o(StubCode)
    StubCode                                 0x00014ee4   Section        8  QtCore{00040703}-2416.o(StubCode)
    theImportedSymbol                        0x00014ee8   Data           0  QtCore{00040703}-2416.o(StubCode)
    StubCode                                 0x00014eec   Section        8  QtCore{00040703}-2418.o(StubCode)
    theImportedSymbol                        0x00014ef0   Data           0  QtCore{00040703}-2418.o(StubCode)
    StubCode                                 0x00014ef4   Section        8  QtCore{00040703}-2674.o(StubCode)
    theImportedSymbol                        0x00014ef8   Data           0  QtCore{00040703}-2674.o(StubCode)
    StubCode                                 0x00014efc   Section        8  QtCore{00040703}-2675.o(StubCode)
    theImportedSymbol                        0x00014f00   Data           0  QtCore{00040703}-2675.o(StubCode)
    StubCode                                 0x00014f04   Section        8  QtCore{00040703}-2678.o(StubCode)
    theImportedSymbol                        0x00014f08   Data           0  QtCore{00040703}-2678.o(StubCode)
    StubCode                                 0x00014f0c   Section        8  QtCore{00040703}-2679.o(StubCode)
    theImportedSymbol                        0x00014f10   Data           0  QtCore{00040703}-2679.o(StubCode)
    StubCode                                 0x00014f14   Section        8  QtCore{00040703}-2680.o(StubCode)
    theImportedSymbol                        0x00014f18   Data           0  QtCore{00040703}-2680.o(StubCode)
    StubCode                                 0x00014f1c   Section        8  QtCore{00040703}-2682.o(StubCode)
    theImportedSymbol                        0x00014f20   Data           0  QtCore{00040703}-2682.o(StubCode)
    StubCode                                 0x00014f24   Section        8  QtCore{00040703}-2684.o(StubCode)
    theImportedSymbol                        0x00014f28   Data           0  QtCore{00040703}-2684.o(StubCode)
    StubCode                                 0x00014f2c   Section        8  QtCore{00040703}-2685.o(StubCode)
    theImportedSymbol                        0x00014f30   Data           0  QtCore{00040703}-2685.o(StubCode)
    StubCode                                 0x00014f34   Section        8  QtCore{00040703}-2686.o(StubCode)
    theImportedSymbol                        0x00014f38   Data           0  QtCore{00040703}-2686.o(StubCode)
    StubCode                                 0x00014f3c   Section        8  QtCore{00040703}-282.o(StubCode)
    theImportedSymbol                        0x00014f40   Data           0  QtCore{00040703}-282.o(StubCode)
    StubCode                                 0x00014f44   Section        8  QtCore{00040703}-2842.o(StubCode)
    theImportedSymbol                        0x00014f48   Data           0  QtCore{00040703}-2842.o(StubCode)
    StubCode                                 0x00014f4c   Section        8  QtCore{00040703}-2853.o(StubCode)
    theImportedSymbol                        0x00014f50   Data           0  QtCore{00040703}-2853.o(StubCode)
    StubCode                                 0x00014f54   Section        8  QtCore{00040703}-2855.o(StubCode)
    theImportedSymbol                        0x00014f58   Data           0  QtCore{00040703}-2855.o(StubCode)
    StubCode                                 0x00014f5c   Section        8  QtCore{00040703}-2883.o(StubCode)
    theImportedSymbol                        0x00014f60   Data           0  QtCore{00040703}-2883.o(StubCode)
    StubCode                                 0x00014f64   Section        8  QtCore{00040703}-2884.o(StubCode)
    theImportedSymbol                        0x00014f68   Data           0  QtCore{00040703}-2884.o(StubCode)
    StubCode                                 0x00014f6c   Section        8  QtCore{00040703}-2885.o(StubCode)
    theImportedSymbol                        0x00014f70   Data           0  QtCore{00040703}-2885.o(StubCode)
    StubCode                                 0x00014f74   Section        8  QtCore{00040703}-2913.o(StubCode)
    theImportedSymbol                        0x00014f78   Data           0  QtCore{00040703}-2913.o(StubCode)
    StubCode                                 0x00014f7c   Section        8  QtCore{00040703}-2914.o(StubCode)
    theImportedSymbol                        0x00014f80   Data           0  QtCore{00040703}-2914.o(StubCode)
    StubCode                                 0x00014f84   Section        8  QtCore{00040703}-2915.o(StubCode)
    theImportedSymbol                        0x00014f88   Data           0  QtCore{00040703}-2915.o(StubCode)
    StubCode                                 0x00014f8c   Section        8  QtCore{00040703}-2916.o(StubCode)
    theImportedSymbol                        0x00014f90   Data           0  QtCore{00040703}-2916.o(StubCode)
    StubCode                                 0x00014f94   Section        8  QtCore{00040703}-3032.o(StubCode)
    theImportedSymbol                        0x00014f98   Data           0  QtCore{00040703}-3032.o(StubCode)
    StubCode                                 0x00014f9c   Section        8  QtCore{00040703}-3040.o(StubCode)
    theImportedSymbol                        0x00014fa0   Data           0  QtCore{00040703}-3040.o(StubCode)
    StubCode                                 0x00014fa4   Section        8  QtCore{00040703}-3049.o(StubCode)
    theImportedSymbol                        0x00014fa8   Data           0  QtCore{00040703}-3049.o(StubCode)
    StubCode                                 0x00014fac   Section        8  QtCore{00040703}-3054.o(StubCode)
    theImportedSymbol                        0x00014fb0   Data           0  QtCore{00040703}-3054.o(StubCode)
    StubCode                                 0x00014fb4   Section        8  QtCore{00040703}-3064.o(StubCode)
    theImportedSymbol                        0x00014fb8   Data           0  QtCore{00040703}-3064.o(StubCode)
    StubCode                                 0x00014fbc   Section        8  QtCore{00040703}-3073.o(StubCode)
    theImportedSymbol                        0x00014fc0   Data           0  QtCore{00040703}-3073.o(StubCode)
    StubCode                                 0x00014fc4   Section        8  QtCore{00040703}-3097.o(StubCode)
    theImportedSymbol                        0x00014fc8   Data           0  QtCore{00040703}-3097.o(StubCode)
    StubCode                                 0x00014fcc   Section        8  QtCore{00040703}-3098.o(StubCode)
    theImportedSymbol                        0x00014fd0   Data           0  QtCore{00040703}-3098.o(StubCode)
    StubCode                                 0x00014fd4   Section        8  QtCore{00040703}-3131.o(StubCode)
    theImportedSymbol                        0x00014fd8   Data           0  QtCore{00040703}-3131.o(StubCode)
    StubCode                                 0x00014fdc   Section        8  QtCore{00040703}-3134.o(StubCode)
    theImportedSymbol                        0x00014fe0   Data           0  QtCore{00040703}-3134.o(StubCode)
    StubCode                                 0x00014fe4   Section        8  QtCore{00040703}-3136.o(StubCode)
    theImportedSymbol                        0x00014fe8   Data           0  QtCore{00040703}-3136.o(StubCode)
    StubCode                                 0x00014fec   Section        8  QtCore{00040703}-3138.o(StubCode)
    theImportedSymbol                        0x00014ff0   Data           0  QtCore{00040703}-3138.o(StubCode)
    StubCode                                 0x00014ff4   Section        8  QtCore{00040703}-3142.o(StubCode)
    theImportedSymbol                        0x00014ff8   Data           0  QtCore{00040703}-3142.o(StubCode)
    StubCode                                 0x00014ffc   Section        8  QtCore{00040703}-3153.o(StubCode)
    theImportedSymbol                        0x00015000   Data           0  QtCore{00040703}-3153.o(StubCode)
    StubCode                                 0x00015004   Section        8  QtCore{00040703}-3159.o(StubCode)
    theImportedSymbol                        0x00015008   Data           0  QtCore{00040703}-3159.o(StubCode)
    StubCode                                 0x0001500c   Section        8  QtCore{00040703}-3163.o(StubCode)
    theImportedSymbol                        0x00015010   Data           0  QtCore{00040703}-3163.o(StubCode)
    StubCode                                 0x00015014   Section        8  QtCore{00040703}-3170.o(StubCode)
    theImportedSymbol                        0x00015018   Data           0  QtCore{00040703}-3170.o(StubCode)
    StubCode                                 0x0001501c   Section        8  QtCore{00040703}-3171.o(StubCode)
    theImportedSymbol                        0x00015020   Data           0  QtCore{00040703}-3171.o(StubCode)
    StubCode                                 0x00015024   Section        8  QtCore{00040703}-32.o(StubCode)
    theImportedSymbol                        0x00015028   Data           0  QtCore{00040703}-32.o(StubCode)
    StubCode                                 0x0001502c   Section        8  QtCore{00040703}-3200.o(StubCode)
    theImportedSymbol                        0x00015030   Data           0  QtCore{00040703}-3200.o(StubCode)
    StubCode                                 0x00015034   Section        8  QtCore{00040703}-3218.o(StubCode)
    theImportedSymbol                        0x00015038   Data           0  QtCore{00040703}-3218.o(StubCode)
    StubCode                                 0x0001503c   Section        8  QtCore{00040703}-324.o(StubCode)
    theImportedSymbol                        0x00015040   Data           0  QtCore{00040703}-324.o(StubCode)
    StubCode                                 0x00015044   Section        8  QtCore{00040703}-331.o(StubCode)
    theImportedSymbol                        0x00015048   Data           0  QtCore{00040703}-331.o(StubCode)
    StubCode                                 0x0001504c   Section        8  QtCore{00040703}-332.o(StubCode)
    theImportedSymbol                        0x00015050   Data           0  QtCore{00040703}-332.o(StubCode)
    StubCode                                 0x00015054   Section        8  QtCore{00040703}-335.o(StubCode)
    theImportedSymbol                        0x00015058   Data           0  QtCore{00040703}-335.o(StubCode)
    StubCode                                 0x0001505c   Section        8  QtCore{00040703}-3460.o(StubCode)
    theImportedSymbol                        0x00015060   Data           0  QtCore{00040703}-3460.o(StubCode)
    StubCode                                 0x00015064   Section        8  QtCore{00040703}-3483.o(StubCode)
    theImportedSymbol                        0x00015068   Data           0  QtCore{00040703}-3483.o(StubCode)
    StubCode                                 0x0001506c   Section        8  QtCore{00040703}-3583.o(StubCode)
    theImportedSymbol                        0x00015070   Data           0  QtCore{00040703}-3583.o(StubCode)
    StubCode                                 0x00015074   Section        8  QtCore{00040703}-3584.o(StubCode)
    theImportedSymbol                        0x00015078   Data           0  QtCore{00040703}-3584.o(StubCode)
    StubCode                                 0x0001507c   Section        8  QtCore{00040703}-3585.o(StubCode)
    theImportedSymbol                        0x00015080   Data           0  QtCore{00040703}-3585.o(StubCode)
    StubCode                                 0x00015084   Section        8  QtCore{00040703}-3607.o(StubCode)
    theImportedSymbol                        0x00015088   Data           0  QtCore{00040703}-3607.o(StubCode)
    StubCode                                 0x0001508c   Section        8  QtCore{00040703}-3608.o(StubCode)
    theImportedSymbol                        0x00015090   Data           0  QtCore{00040703}-3608.o(StubCode)
    StubCode                                 0x00015094   Section        8  QtCore{00040703}-3609.o(StubCode)
    theImportedSymbol                        0x00015098   Data           0  QtCore{00040703}-3609.o(StubCode)
    StubCode                                 0x0001509c   Section        8  QtCore{00040703}-3610.o(StubCode)
    theImportedSymbol                        0x000150a0   Data           0  QtCore{00040703}-3610.o(StubCode)
    StubCode                                 0x000150a4   Section        8  QtCore{00040703}-3689.o(StubCode)
    theImportedSymbol                        0x000150a8   Data           0  QtCore{00040703}-3689.o(StubCode)
    StubCode                                 0x000150ac   Section        8  QtCore{00040703}-3691.o(StubCode)
    theImportedSymbol                        0x000150b0   Data           0  QtCore{00040703}-3691.o(StubCode)
    StubCode                                 0x000150b4   Section        8  QtCore{00040703}-392.o(StubCode)
    theImportedSymbol                        0x000150b8   Data           0  QtCore{00040703}-392.o(StubCode)
    StubCode                                 0x000150bc   Section        8  QtCore{00040703}-70.o(StubCode)
    theImportedSymbol                        0x000150c0   Data           0  QtCore{00040703}-70.o(StubCode)
    StubCode                                 0x000150c4   Section        8  QtCore{00040703}-741.o(StubCode)
    theImportedSymbol                        0x000150c8   Data           0  QtCore{00040703}-741.o(StubCode)
    StubCode                                 0x000150cc   Section        8  QtCore{00040703}-757.o(StubCode)
    theImportedSymbol                        0x000150d0   Data           0  QtCore{00040703}-757.o(StubCode)
    StubCode                                 0x000150d4   Section        8  QtCore{00040703}-91.o(StubCode)
    theImportedSymbol                        0x000150d8   Data           0  QtCore{00040703}-91.o(StubCode)
    StubCode                                 0x000150dc   Section        8  QtCore{00040703}-988.o(StubCode)
    theImportedSymbol                        0x000150e0   Data           0  QtCore{00040703}-988.o(StubCode)
    StubCode                                 0x000150e4   Section        8  QtCore{00040703}-990.o(StubCode)
    theImportedSymbol                        0x000150e8   Data           0  QtCore{00040703}-990.o(StubCode)
    StubCode                                 0x000150ec   Section        8  QtCore{00040703}-991.o(StubCode)
    theImportedSymbol                        0x000150f0   Data           0  QtCore{00040703}-991.o(StubCode)
    StubCode                                 0x000150f4   Section        8  QtCore{00040703}-992.o(StubCode)
    theImportedSymbol                        0x000150f8   Data           0  QtCore{00040703}-992.o(StubCode)
    StubCode                                 0x000150fc   Section        8  QtCore{00040703}-993.o(StubCode)
    theImportedSymbol                        0x00015100   Data           0  QtCore{00040703}-993.o(StubCode)
    StubCode                                 0x00015104   Section        8  QtCore{00040703}-994.o(StubCode)
    theImportedSymbol                        0x00015108   Data           0  QtCore{00040703}-994.o(StubCode)
    StubCode                                 0x0001510c   Section        8  QtCore{00040703}-996.o(StubCode)
    theImportedSymbol                        0x00015110   Data           0  QtCore{00040703}-996.o(StubCode)
    StubCode                                 0x00015114   Section        8  QtCore{00040703}-998.o(StubCode)
    theImportedSymbol                        0x00015118   Data           0  QtCore{00040703}-998.o(StubCode)
    StubCode                                 0x0001511c   Section        8  libc{00010000}-350.o(StubCode)
    theImportedSymbol                        0x00015120   Data           0  libc{00010000}-350.o(StubCode)
    StubCode                                 0x00015124   Section        8  dfpaeabi{000a0000}-24.o(StubCode)
    theImportedSymbol                        0x00015128   Data           0  dfpaeabi{000a0000}-24.o(StubCode)
    StubCode                                 0x0001512c   Section        8  dfpaeabi{000a0000}-7.o(StubCode)
    theImportedSymbol                        0x00015130   Data           0  dfpaeabi{000a0000}-7.o(StubCode)
    StubCode                                 0x00015134   Section        8  drtaeabi{000a0000}-135.o(StubCode)
    theImportedSymbol                        0x00015138   Data           0  drtaeabi{000a0000}-135.o(StubCode)
    StubCode                                 0x0001513c   Section        8  drtaeabi{000a0000}-147.o(StubCode)
    theImportedSymbol                        0x00015140   Data           0  drtaeabi{000a0000}-147.o(StubCode)
    StubCode                                 0x00015144   Section        8  drtaeabi{000a0000}-150.o(StubCode)
    theImportedSymbol                        0x00015148   Data           0  drtaeabi{000a0000}-150.o(StubCode)
    StubCode                                 0x0001514c   Section        8  drtaeabi{000a0000}-155.o(StubCode)
    theImportedSymbol                        0x00015150   Data           0  drtaeabi{000a0000}-155.o(StubCode)
    StubCode                                 0x00015154   Section        8  drtaeabi{000a0000}-158.o(StubCode)
    theImportedSymbol                        0x00015158   Data           0  drtaeabi{000a0000}-158.o(StubCode)
    StubCode                                 0x0001515c   Section        8  drtaeabi{000a0000}-180.o(StubCode)
    theImportedSymbol                        0x00015160   Data           0  drtaeabi{000a0000}-180.o(StubCode)
    StubCode                                 0x00015164   Section        8  drtaeabi{000a0000}-183.o(StubCode)
    theImportedSymbol                        0x00015168   Data           0  drtaeabi{000a0000}-183.o(StubCode)
    StubCode                                 0x0001516c   Section        8  drtaeabi{000a0000}-184.o(StubCode)
    theImportedSymbol                        0x00015170   Data           0  drtaeabi{000a0000}-184.o(StubCode)
    StubCode                                 0x00015174   Section        8  drtaeabi{000a0000}-189.o(StubCode)
    theImportedSymbol                        0x00015178   Data           0  drtaeabi{000a0000}-189.o(StubCode)
    StubCode                                 0x0001517c   Section        8  drtaeabi{000a0000}-190.o(StubCode)
    theImportedSymbol                        0x00015180   Data           0  drtaeabi{000a0000}-190.o(StubCode)
    StubCode                                 0x00015184   Section        8  drtrvct2_2{000a0000}-28.o(StubCode)
    theImportedSymbol                        0x00015188   Data           0  drtrvct2_2{000a0000}-28.o(StubCode)
    i._ZN10QByteArrayD1Ev                    0x0001518c   Section       24  QtGallery.in(i._ZN10QByteArrayD1Ev)
    i._ZN10QStringRefD1Ev                    0x000151a4   Section        2  QtGallery.in(i._ZN10QStringRefD1Ev)
    i._ZN10QtMobility21QGalleryFilterPrivateC2ENS_14QGalleryFilter4TypeE 0x000151a8   Section       16  QtGallery.in(i._ZN10QtMobility21QGalleryFilterPrivateC2ENS_14QGalleryFilter4TypeE)
    i._ZN10QtMobility21QGalleryFilterPrivateC2ERKS0_ 0x000151b8   Section       24  QtGallery.in(i._ZN10QtMobility21QGalleryFilterPrivateC2ERKS0_)
    i._ZN10QtMobility21QGalleryFilterPrivateD0Ev 0x000151d0   Section       12  QtGallery.in(i._ZN10QtMobility21QGalleryFilterPrivateD0Ev)
    i._ZN10QtMobility21QGalleryFilterPrivateD2Ev 0x000151dc   Section        2  QtGallery.in(i._ZN10QtMobility21QGalleryFilterPrivateD2Ev)
    i._ZN10QtMobility21QGalleryNullResultSet11setMetaDataEiRK8QVariant 0x000151de   Section        4  QtGallery.in(i._ZN10QtMobility21QGalleryNullResultSet11setMetaDataEiRK8QVariant)
    i._ZN10QtMobility21QGalleryNullResultSet5fetchEi 0x000151e2   Section        4  QtGallery.in(i._ZN10QtMobility21QGalleryNullResultSet5fetchEi)
    i._ZN10QtMobility21QGalleryNullResultSetD0Ev 0x000151e6   Section       16  QtGallery.in(i._ZN10QtMobility21QGalleryNullResultSetD0Ev)
    i._ZN10QtMobility21QGalleryNullResultSetD1Ev 0x000151f6   Section        8  QtGallery.in(i._ZN10QtMobility21QGalleryNullResultSetD1Ev)
    i._ZN10QtMobility23QDocumentGalleryPrivateD0Ev 0x000151fe   Section       12  QtGallery.in(i._ZN10QtMobility23QDocumentGalleryPrivateD0Ev)
    i._ZN10QtMobility23QDocumentGalleryPrivateD1Ev 0x0001520a   Section        2  QtGallery.in(i._ZN10QtMobility23QDocumentGalleryPrivateD1Ev)
    i._ZN10QtMobility23QGalleryAbstractRequest2trEPKcS2_ 0x0001520c   Section       20  QtGallery.in(i._ZN10QtMobility23QGalleryAbstractRequest2trEPKcS2_)
    i._ZN10QtMobility24QGalleryResultSetPrivateD0Ev 0x00015220   Section       16  QtGallery.in(i._ZN10QtMobility24QGalleryResultSetPrivateD0Ev)
    i._ZN10QtMobility24QGalleryResultSetPrivateD1Ev 0x00015230   Section        8  QtGallery.in(i._ZN10QtMobility24QGalleryResultSetPrivateD1Ev)
    i._ZN10QtMobility25QGalleryQueryModelPrivate9setObjectEPNS_18QGalleryQueryModelE 0x00015238   Section      628  QtGallery.in(i._ZN10QtMobility25QGalleryQueryModelPrivate9setObjectEPNS_18QGalleryQueryModelE)
    i._ZN10QtMobility25QGalleryQueryModelPrivateC1EPNS_16QAbstractGalleryE 0x000154ac   Section      100  QtGallery.in(i._ZN10QtMobility25QGalleryQueryModelPrivateC1EPNS_16QAbstractGalleryE)
    i._ZN10QtMobility25QGalleryQueryModelPrivateC1EPNS_16QAbstractGalleryE.clean 0x00015510   Section       60  QtGallery.in(i._ZN10QtMobility25QGalleryQueryModelPrivateC1EPNS_16QAbstractGalleryE.clean)
    i._ZN10QtMobility26QGalleryItemRequestPrivateC1EPNS_16QAbstractGalleryE 0x0001554c   Section      148  QtGallery.in(i._ZN10QtMobility26QGalleryItemRequestPrivateC1EPNS_16QAbstractGalleryE)
    i._ZN10QtMobility26QGalleryItemRequestPrivateC1EPNS_16QAbstractGalleryE.clean 0x000155e0   Section       62  QtGallery.in(i._ZN10QtMobility26QGalleryItemRequestPrivateC1EPNS_16QAbstractGalleryE.clean)
    i._ZN10QtMobility26QGalleryItemRequestPrivateD0Ev 0x0001561e   Section       16  QtGallery.in(i._ZN10QtMobility26QGalleryItemRequestPrivateD0Ev)
    i._ZN10QtMobility26QGalleryItemRequestPrivateD1Ev 0x00015630   Section       64  QtGallery.in(i._ZN10QtMobility26QGalleryItemRequestPrivateD1Ev)
    i._ZN10QtMobility26QGalleryItemRequestPrivateD1Ev.clean 0x00015670   Section       46  QtGallery.in(i._ZN10QtMobility26QGalleryItemRequestPrivateD1Ev.clean)
    i._ZN10QtMobility26QGalleryTypeRequestPrivateC1EPNS_16QAbstractGalleryE 0x000156a0   Section      148  QtGallery.in(i._ZN10QtMobility26QGalleryTypeRequestPrivateC1EPNS_16QAbstractGalleryE)
    i._ZN10QtMobility26QGalleryTypeRequestPrivateC1EPNS_16QAbstractGalleryE.clean 0x00015734   Section       62  QtGallery.in(i._ZN10QtMobility26QGalleryTypeRequestPrivateC1EPNS_16QAbstractGalleryE.clean)
    i._ZN10QtMobility26QGalleryTypeRequestPrivateD0Ev 0x00015772   Section       16  QtGallery.in(i._ZN10QtMobility26QGalleryTypeRequestPrivateD0Ev)
    i._ZN10QtMobility26QGalleryTypeRequestPrivateD1Ev 0x00015784   Section       64  QtGallery.in(i._ZN10QtMobility26QGalleryTypeRequestPrivateD1Ev)
    i._ZN10QtMobility26QGalleryTypeRequestPrivateD1Ev.clean 0x000157c4   Section       46  QtGallery.in(i._ZN10QtMobility26QGalleryTypeRequestPrivateD1Ev.clean)
    i._ZN10QtMobility26QGalleryUnionFilterPrivateC1ENS_14QGalleryFilter4TypeE 0x000157f4   Section       28  QtGallery.in(i._ZN10QtMobility26QGalleryUnionFilterPrivateC1ENS_14QGalleryFilter4TypeE)
    i._ZN10QtMobility26QGalleryUnionFilterPrivateC1ENS_14QGalleryFilter4TypeE.clean 0x00015810   Section       10  QtGallery.in(i._ZN10QtMobility26QGalleryUnionFilterPrivateC1ENS_14QGalleryFilter4TypeE.clean)
    i._ZN10QtMobility26QGalleryUnionFilterPrivateD0Ev 0x0001581a   Section       16  QtGallery.in(i._ZN10QtMobility26QGalleryUnionFilterPrivateD0Ev)
    i._ZN10QtMobility26QGalleryUnionFilterPrivateD1Ev 0x0001582c   Section       24  QtGallery.in(i._ZN10QtMobility26QGalleryUnionFilterPrivateD1Ev)
    i._ZN10QtMobility26QGalleryUnionFilterPrivateD1Ev.clean 0x00015844   Section       10  QtGallery.in(i._ZN10QtMobility26QGalleryUnionFilterPrivateD1Ev.clean)
    i._ZN10QtMobility27QGalleryQueryRequestPrivateC1EPNS_16QAbstractGalleryE 0x00015850   Section      176  QtGallery.in(i._ZN10QtMobility27QGalleryQueryRequestPrivateC1EPNS_16QAbstractGalleryE)
    i._ZN10QtMobility27QGalleryQueryRequestPrivateC1EPNS_16QAbstractGalleryE.clean 0x00015900   Section       86  QtGallery.in(i._ZN10QtMobility27QGalleryQueryRequestPrivateC1EPNS_16QAbstractGalleryE.clean)
    i._ZN10QtMobility27QGalleryQueryRequestPrivateD0Ev 0x00015956   Section       16  QtGallery.in(i._ZN10QtMobility27QGalleryQueryRequestPrivateD0Ev)
    i._ZN10QtMobility27QGalleryQueryRequestPrivateD1Ev 0x00015968   Section       88  QtGallery.in(i._ZN10QtMobility27QGalleryQueryRequestPrivateD1Ev)
    i._ZN10QtMobility27QGalleryQueryRequestPrivateD1Ev.clean 0x000159c0   Section       70  QtGallery.in(i._ZN10QtMobility27QGalleryQueryRequestPrivateD1Ev.clean)
    i._ZN10QtMobility28QGalleryInvalidFilterPrivateD0Ev 0x00015a06   Section       12  QtGallery.in(i._ZN10QtMobility28QGalleryInvalidFilterPrivateD0Ev)
    i._ZN10QtMobility28QGalleryInvalidFilterPrivateD1Ev 0x00015a12   Section        2  QtGallery.in(i._ZN10QtMobility28QGalleryInvalidFilterPrivateD1Ev)
    i._ZN10QtMobility29QGalleryMetaDataFilterPrivateC1ENS_14QGalleryFilter4TypeE 0x00015a14   Section       64  QtGallery.in(i._ZN10QtMobility29QGalleryMetaDataFilterPrivateC1ENS_14QGalleryFilter4TypeE)
    i._ZN10QtMobility29QGalleryMetaDataFilterPrivateC1ENS_14QGalleryFilter4TypeE.clean 0x00015a54   Section       10  QtGallery.in(i._ZN10QtMobility29QGalleryMetaDataFilterPrivateC1ENS_14QGalleryFilter4TypeE.clean)
    i._ZN10QtMobility29QGalleryMetaDataFilterPrivateD0Ev 0x00015a5e   Section       16  QtGallery.in(i._ZN10QtMobility29QGalleryMetaDataFilterPrivateD0Ev)
    i._ZN10QtMobility29QGalleryMetaDataFilterPrivateD1Ev 0x00015a70   Section       36  QtGallery.in(i._ZN10QtMobility29QGalleryMetaDataFilterPrivateD1Ev)
    i._ZN10QtMobility29QGalleryMetaDataFilterPrivateD1Ev.clean 0x00015a94   Section       22  QtGallery.in(i._ZN10QtMobility29QGalleryMetaDataFilterPrivateD1Ev.clean)
    i._ZN10QtMobility30QGalleryAbstractRequestPrivateC1EPNS_16QAbstractGalleryENS_23QGalleryAbstractRequest11RequestTypeE 0x00015aac   Section       52  QtGallery.in(i._ZN10QtMobility30QGalleryAbstractRequestPrivateC1EPNS_16QAbstractGalleryENS_23QGalleryAbstractRequest11RequestTypeE)
    i._ZN10QtMobility30QGalleryAbstractRequestPrivateC1EPNS_16QAbstractGalleryENS_23QGalleryAbstractRequest11RequestTypeE.clean 0x00015ae0   Section       20  QtGallery.in(i._ZN10QtMobility30QGalleryAbstractRequestPrivateC1EPNS_16QAbstractGalleryENS_23QGalleryAbstractRequest11RequestTypeE.clean)
    i._ZN10QtMobility30QGalleryAbstractRequestPrivateD0Ev 0x00015af4   Section       16  QtGallery.in(i._ZN10QtMobility30QGalleryAbstractRequestPrivateD0Ev)
    i._ZN10QtMobility30QGalleryAbstractRequestPrivateD1Ev 0x00015b04   Section       44  QtGallery.in(i._ZN10QtMobility30QGalleryAbstractRequestPrivateD1Ev)
    i._ZN10QtMobility30QGalleryAbstractRequestPrivateD1Ev.clean 0x00015b30   Section       24  QtGallery.in(i._ZN10QtMobility30QGalleryAbstractRequestPrivateD1Ev.clean)
    i._ZN10QtMobility31QGalleryAbstractResponsePrivateC1Ev 0x00015b48   Section       44  QtGallery.in(i._ZN10QtMobility31QGalleryAbstractResponsePrivateC1Ev)
    i._ZN10QtMobility31QGalleryAbstractResponsePrivateD0Ev 0x00015b74   Section       16  QtGallery.in(i._ZN10QtMobility31QGalleryAbstractResponsePrivateD0Ev)
    i._ZN10QtMobility31QGalleryAbstractResponsePrivateD1Ev 0x00015b84   Section       20  QtGallery.in(i._ZN10QtMobility31QGalleryAbstractResponsePrivateD1Ev)
    i._ZN10QtMobility33QGalleryIntersectionFilterPrivateC1ENS_14QGalleryFilter4TypeE 0x00015b98   Section       28  QtGallery.in(i._ZN10QtMobility33QGalleryIntersectionFilterPrivateC1ENS_14QGalleryFilter4TypeE)
    i._ZN10QtMobility33QGalleryIntersectionFilterPrivateC1ENS_14QGalleryFilter4TypeE.clean 0x00015bb4   Section       10  QtGallery.in(i._ZN10QtMobility33QGalleryIntersectionFilterPrivateC1ENS_14QGalleryFilter4TypeE.clean)
    i._ZN10QtMobility33QGalleryIntersectionFilterPrivateD0Ev 0x00015bbe   Section       16  QtGallery.in(i._ZN10QtMobility33QGalleryIntersectionFilterPrivateD0Ev)
    i._ZN10QtMobility33QGalleryIntersectionFilterPrivateD1Ev 0x00015bd0   Section       24  QtGallery.in(i._ZN10QtMobility33QGalleryIntersectionFilterPrivateD1Ev)
    i._ZN10QtMobility33QGalleryIntersectionFilterPrivateD1Ev.clean 0x00015be8   Section       10  QtGallery.in(i._ZN10QtMobility33QGalleryIntersectionFilterPrivateD1Ev.clean)
    i._ZN11QModelIndexC1Ev                   0x00015bf2   Section       16  QtGallery.in(i._ZN11QModelIndexC1Ev)
    i._ZN11QModelIndexD1Ev                   0x00015c02   Section        8  QtGallery.in(i._ZN11QModelIndexD1Ev)
    i._ZN11QStringListC1ERKS_                0x00015c0a   Section       30  QtGallery.in(i._ZN11QStringListC1ERKS_)
    i._ZN11QStringListC1Ev                   0x00015c28   Section       20  QtGallery.in(i._ZN11QStringListC1Ev)
    i._ZN11QStringListD1Ev                   0x00015c3c   Section        8  QtGallery.in(i._ZN11QStringListD1Ev)
    i._ZN11QStringListaSERKS_                0x00015c44   Section       54  QtGallery.in(i._ZN11QStringListaSERKS_)
    i._ZN15QBasicAtomicInt3refEv             0x00015c7a   Section       18  QtGallery.in(i._ZN15QBasicAtomicInt3refEv)
    i._ZN15QBasicAtomicInt5derefEv           0x00015c8c   Section       18  QtGallery.in(i._ZN15QBasicAtomicInt5derefEv)
    i._ZN6QDebug10maybeSpaceEv               0x00015c9e   Section       22  QtGallery.in(i._ZN6QDebug10maybeSpaceEv)
    i._ZN6QDebugC1ERKS_                      0x00015cb4   Section       12  QtGallery.in(i._ZN6QDebugC1ERKS_)
    i._ZN6QDebugD1Ev                         0x00015cc0   Section      132  QtGallery.in(i._ZN6QDebugD1Ev)
    i._ZN6QDebugD1Ev.clean                   0x00015d44   Section       20  QtGallery.in(i._ZN6QDebugD1Ev.clean)
    i._ZN6QDebuglsEPKc                       0x00015d58   Section       36  QtGallery.in(i._ZN6QDebuglsEPKc)
    i._ZN6QDebuglsEPKc.clean                 0x00015d7c   Section       10  QtGallery.in(i._ZN6QDebuglsEPKc.clean)
    i._ZN7QStringC1ERKS_                     0x00015d86   Section       16  QtGallery.in(i._ZN7QStringC1ERKS_)
    i._ZN7QStringC1Ev                        0x00015d98   Section       20  QtGallery.in(i._ZN7QStringC1Ev)
    i._ZN7QStringD1Ev                        0x00015dac   Section       24  QtGallery.in(i._ZN7QStringD1Ev)
    i._ZN7TPtrC163SetERKS_                   0x00015dc4   Section       26  QtGallery.in(i._ZN7TPtrC163SetERKS_)
    i._ZN8QVariantC1Ev                       0x00015dde   Section       24  QtGallery.in(i._ZN8QVariantC1Ev)
    i._ZN9QHashData8willGrowEv               0x00015df6   Section       28  QtGallery.in(i._ZN9QHashData8willGrowEv)
    i._ZNK10QtMobility12QGalleryType4nameEv  0x00015e12   Section       10  QtGallery.in(i._ZNK10QtMobility12QGalleryType4nameEv)
    i._ZNK10QtMobility16QGalleryProperty4nameEv 0x00015e1c   Section       10  QtGallery.in(i._ZNK10QtMobility16QGalleryProperty4nameEv)
    i._ZNK10QtMobility21QGalleryNullResultSet11propertyKeyERK7QString 0x00015e26   Section        6  QtGallery.in(i._ZNK10QtMobility21QGalleryNullResultSet11propertyKeyERK7QString)
    i._ZNK10QtMobility21QGalleryNullResultSet12currentIndexEv 0x00015e2c   Section        6  QtGallery.in(i._ZNK10QtMobility21QGalleryNullResultSet12currentIndexEv)
    i._ZNK10QtMobility21QGalleryNullResultSet12propertyTypeEi 0x00015e32   Section        4  QtGallery.in(i._ZNK10QtMobility21QGalleryNullResultSet12propertyTypeEi)
    i._ZNK10QtMobility21QGalleryNullResultSet18propertyAttributesEi 0x00015e36   Section        6  QtGallery.in(i._ZNK10QtMobility21QGalleryNullResultSet18propertyAttributesEi)
    i._ZNK10QtMobility21QGalleryNullResultSet6itemIdEv 0x00015e3c   Section        8  QtGallery.in(i._ZNK10QtMobility21QGalleryNullResultSet6itemIdEv)
    i._ZNK10QtMobility21QGalleryNullResultSet7itemUrlEv 0x00015e44   Section        8  QtGallery.in(i._ZNK10QtMobility21QGalleryNullResultSet7itemUrlEv)
    i._ZNK10QtMobility21QGalleryNullResultSet8itemTypeEv 0x00015e4c   Section        8  QtGallery.in(i._ZNK10QtMobility21QGalleryNullResultSet8itemTypeEv)
    i._ZNK10QtMobility21QGalleryNullResultSet8metaDataEi 0x00015e54   Section        8  QtGallery.in(i._ZNK10QtMobility21QGalleryNullResultSet8metaDataEi)
    i._ZNK10QtMobility21QGalleryNullResultSet9itemCountEv 0x00015e5c   Section        4  QtGallery.in(i._ZNK10QtMobility21QGalleryNullResultSet9itemCountEv)
    i._ZNK10QtMobility21QGalleryNullResultSet9resourcesEv 0x00015e60   Section       20  QtGallery.in(i._ZNK10QtMobility21QGalleryNullResultSet9resourcesEv)
    i._ZNK10QtMobility26QGalleryUnionFilterPrivate10printDebugER6QDebug 0x00015e74   Section      192  QtGallery.in(i._ZNK10QtMobility26QGalleryUnionFilterPrivate10printDebugER6QDebug)
    i._ZNK10QtMobility26QGalleryUnionFilterPrivate10printDebugER6QDebug.clean 0x00015f34   Section       16  QtGallery.in(i._ZNK10QtMobility26QGalleryUnionFilterPrivate10printDebugER6QDebug.clean)
    i._ZNK10QtMobility26QGalleryUnionFilterPrivate7isEqualERKNS_21QGalleryFilterPrivateE 0x00015f44   Section       36  QtGallery.in(i._ZNK10QtMobility26QGalleryUnionFilterPrivate7isEqualERKNS_21QGalleryFilterPrivateE)
    i._ZNK10QtMobility28QGalleryInvalidFilterPrivate10printDebugER6QDebug 0x00015f68   Section       32  QtGallery.in(i._ZNK10QtMobility28QGalleryInvalidFilterPrivate10printDebugER6QDebug)
    i._ZNK10QtMobility28QGalleryInvalidFilterPrivate7isEqualERKNS_21QGalleryFilterPrivateE 0x00015f88   Section       16  QtGallery.in(i._ZNK10QtMobility28QGalleryInvalidFilterPrivate7isEqualERKNS_21QGalleryFilterPrivateE)
    i._ZNK10QtMobility29QGalleryMetaDataFilterPrivate10printDebugER6QDebug 0x00015f98   Section      252  QtGallery.in(i._ZNK10QtMobility29QGalleryMetaDataFilterPrivate10printDebugER6QDebug)
    i._ZNK10QtMobility29QGalleryMetaDataFilterPrivate10printDebugER6QDebug.clean 0x00016094   Section       10  QtGallery.in(i._ZNK10QtMobility29QGalleryMetaDataFilterPrivate10printDebugER6QDebug.clean)
    i._ZNK10QtMobility29QGalleryMetaDataFilterPrivate7isEqualERKNS_21QGalleryFilterPrivateE 0x0001609e   Section       70  QtGallery.in(i._ZNK10QtMobility29QGalleryMetaDataFilterPrivate7isEqualERKNS_21QGalleryFilterPrivateE)
    i._ZNK10QtMobility33QGalleryIntersectionFilterPrivate10printDebugER6QDebug 0x000160e4   Section      196  QtGallery.in(i._ZNK10QtMobility33QGalleryIntersectionFilterPrivate10printDebugER6QDebug)
    i._ZNK10QtMobility33QGalleryIntersectionFilterPrivate10printDebugER6QDebug.clean 0x000161a8   Section       16  QtGallery.in(i._ZNK10QtMobility33QGalleryIntersectionFilterPrivate10printDebugER6QDebug.clean)
    i._ZNK10QtMobility33QGalleryIntersectionFilterPrivate7isEqualERKNS_21QGalleryFilterPrivateE 0x000161b8   Section       36  QtGallery.in(i._ZNK10QtMobility33QGalleryIntersectionFilterPrivate7isEqualERKNS_21QGalleryFilterPrivateE)
    i._ZNK11QModelIndex7isValidEv            0x000161dc   Section       26  QtGallery.in(i._ZNK11QModelIndex7isValidEv)
    i._ZNK15QBasicAtomicInteqEi              0x000161f6   Section       14  QtGallery.in(i._ZNK15QBasicAtomicInteqEi)
    i._ZNK15QBasicAtomicIntneEi              0x00016204   Section       14  QtGallery.in(i._ZNK15QBasicAtomicIntneEi)
    i._ZNK18QAbstractItemModel11createIndexEiiPv 0x00016212   Section       10  QtGallery.in(i._ZNK18QAbstractItemModel11createIndexEiiPv)
    i._ZNK7QString6isNullEv                  0x0001621c   Section       20  QtGallery.in(i._ZNK7QString6isNullEv)
    i._ZNK7QString7isEmptyEv                 0x00016230   Section       16  QtGallery.in(i._ZNK7QString7isEmptyEv)
    i._ZNK7TDesC16eqERKS_                    0x00016240   Section       18  QtGallery.in(i._ZNK7TDesC16eqERKS_)
    i._ZNK7TDesC16neERKS_                    0x00016252   Section       18  QtGallery.in(i._ZNK7TDesC16neERKS_)
    i._ZNK8QVariant10isDetachedEv            0x00016264   Section       30  QtGallery.in(i._ZNK8QVariant10isDetachedEv)
    i._ZNK9QListData2atEi                    0x00016282   Section       16  QtGallery.in(i._ZNK9QListData2atEi)
    i._ZNK9QListData3endEv                   0x00016292   Section       12  QtGallery.in(i._ZNK9QListData3endEv)
    i._ZNK9QListData4sizeEv                  0x0001629e   Section       10  QtGallery.in(i._ZNK9QListData4sizeEv)
    i._ZNK9QListData5beginEv                 0x000162a8   Section       12  QtGallery.in(i._ZNK9QListData5beginEv)
    i._ZdlPvS_                               0x000162b4   Section        2  QtGallery.in(i._ZdlPvS_)
    i._ZnwjPv                                0x000162b6   Section        4  QtGallery.in(i._ZnwjPv)
    i._ZplRK7QString5QChar                   0x000162ba   Section      104  QtGallery.in(i._ZplRK7QString5QChar)
    i._ZplRK7QString5QChar.clean             0x00016322   Section       10  QtGallery.in(i._ZplRK7QString5QChar.clean)
    t._Z15qMapLessThanKeyIiEbRKT_S2_         0x0001632c   Section       16  QtGallery.in(t._Z15qMapLessThanKeyIiEbRKT_S2_)
    t._Z16qVariantSetValueI4QUrlEvR8QVariantRKT_ 0x0001633c   Section      104  QtGallery.in(t._Z16qVariantSetValueI4QUrlEvR8QVariantRKT_)
    t._Z16qVariantSetValueI4QUrlEvR8QVariantRKT_.clean 0x000163a4   Section       20  QtGallery.in(t._Z16qVariantSetValueI4QUrlEvR8QVariantRKT_.clean)
    t._Z16qVariantSetValueI7QStringEvR8QVariantRKT_ 0x000163b8   Section      104  QtGallery.in(t._Z16qVariantSetValueI7QStringEvR8QVariantRKT_)
    t._Z16qVariantSetValueI7QStringEvR8QVariantRKT_.clean 0x00016420   Section       20  QtGallery.in(t._Z16qVariantSetValueI7QStringEvR8QVariantRKT_.clean)
    t._Z16qVariantSetValueI9QDateTimeEvR8QVariantRKT_ 0x00016434   Section      104  QtGallery.in(t._Z16qVariantSetValueI9QDateTimeEvR8QVariantRKT_)
    t._Z16qVariantSetValueI9QDateTimeEvR8QVariantRKT_.clean 0x0001649c   Section       20  QtGallery.in(t._Z16qVariantSetValueI9QDateTimeEvR8QVariantRKT_.clean)
    t._Z4qMinIiERKT_S2_S2_                   0x000164b0   Section       12  QtGallery.in(t._Z4qMinIiERKT_S2_S2_)
    t._ZN12QWeakPointerIN10QtMobility16QAbstractGalleryEEC1IS1_EEPT_ 0x000164bc   Section       26  QtGallery.in(t._ZN12QWeakPointerIN10QtMobility16QAbstractGalleryEEC1IS1_EEPT_)
    t._ZN12QWeakPointerIN10QtMobility16QAbstractGalleryEED1Ev 0x000164d6   Section       36  QtGallery.in(t._ZN12QWeakPointerIN10QtMobility16QAbstractGalleryEED1Ev)
    t._ZN13RPointerArrayI10CMdEObjectE15ResetAndDestroyEv 0x000164fa   Section       48  QtGallery.in(t._ZN13RPointerArrayI10CMdEObjectE15ResetAndDestroyEv)
    t._ZN13RPointerArrayI10CMdEObjectEixEi   0x0001652a   Section        8  QtGallery.in(t._ZN13RPointerArrayI10CMdEObjectEixEi)
    t._ZN14QScopedPointerI15CMdEObjectQuery21QScopedPointerDeleterIS0_EE5resetEPS0_ 0x00016532   Section       24  QtGallery.in(t._ZN14QScopedPointerI15CMdEObjectQuery21QScopedPointerDeleterIS0_EE5resetEPS0_)
    t._ZN14QScopedPointerI15CMdEObjectQuery21QScopedPointerDeleterIS0_EED1Ev 0x0001654a   Section       24  QtGallery.in(t._ZN14QScopedPointerI15CMdEObjectQuery21QScopedPointerDeleterIS0_EED1Ev)
    t._ZN14QScopedPointerIN10QtMobility23QAbstractGalleryPrivateE21QScopedPointerDeleterIS1_EED1Ev 0x00016562   Section       24  QtGallery.in(t._ZN14QScopedPointerIN10QtMobility23QAbstractGalleryPrivateE21QScopedPointerDeleterIS1_EED1Ev)
    t._ZN14QScopedPointerIN10QtMobility24QGalleryAbstractResponseE21QScopedPointerDeleterIS1_EE5resetEPS1_ 0x0001657a   Section       24  QtGallery.in(t._ZN14QScopedPointerIN10QtMobility24QGalleryAbstractResponseE21QScopedPointerDeleterIS1_EE5resetEPS1_)
    t._ZN14QScopedPointerIN10QtMobility24QGalleryAbstractResponseE21QScopedPointerDeleterIS1_EED1Ev 0x00016592   Section       24  QtGallery.in(t._ZN14QScopedPointerIN10QtMobility24QGalleryAbstractResponseE21QScopedPointerDeleterIS1_EED1Ev)
    t._ZN14QScopedPointerIN10QtMobility25QGalleryQueryModelPrivateE21QScopedPointerDeleterIS1_EED1Ev 0x000165aa   Section       86  QtGallery.in(t._ZN14QScopedPointerIN10QtMobility25QGalleryQueryModelPrivateE21QScopedPointerDeleterIS1_EED1Ev)
    t._ZN14QScopedPointerIN10QtMobility25QGalleryQueryModelPrivateE21QScopedPointerDeleterIS1_EED1Ev.clean 0x00016600   Section       60  QtGallery.in(t._ZN14QScopedPointerIN10QtMobility25QGalleryQueryModelPrivateE21QScopedPointerDeleterIS1_EED1Ev.clean)
    t._ZN14QScopedPointerIN10QtMobility30QGalleryAbstractRequestPrivateE21QScopedPointerDeleterIS1_EED1Ev 0x0001663c   Section       24  QtGallery.in(t._ZN14QScopedPointerIN10QtMobility30QGalleryAbstractRequestPrivateE21QScopedPointerDeleterIS1_EED1Ev)
    t._ZN14QScopedPointerIN10QtMobility31QGalleryAbstractResponsePrivateE21QScopedPointerDeleterIS1_EED1Ev 0x00016654   Section       24  QtGallery.in(t._ZN14QScopedPointerIN10QtMobility31QGalleryAbstractResponsePrivateE21QScopedPointerDeleterIS1_EED1Ev)
    t._ZN18QSharedDataPointerIN10QtMobility21QGalleryFilterPrivateEEC1EPS1_ 0x0001666c   Section       20  QtGallery.in(t._ZN18QSharedDataPointerIN10QtMobility21QGalleryFilterPrivateEEC1EPS1_)
    t._ZN18QSharedDataPointerIN10QtMobility21QGalleryFilterPrivateEED1Ev 0x00016680   Section       36  QtGallery.in(t._ZN18QSharedDataPointerIN10QtMobility21QGalleryFilterPrivateEED1Ev)
    t._ZN18QSharedDataPointerIN10QtMobility26QGalleryUnionFilterPrivateEE13detach_helperEv 0x000166a4   Section       88  QtGallery.in(t._ZN18QSharedDataPointerIN10QtMobility26QGalleryUnionFilterPrivateEE13detach_helperEv)
    t._ZN18QSharedDataPointerIN10QtMobility26QGalleryUnionFilterPrivateEE13detach_helperEv.clean 0x000166fc   Section       18  QtGallery.in(t._ZN18QSharedDataPointerIN10QtMobility26QGalleryUnionFilterPrivateEE13detach_helperEv.clean)
    t._ZN18QSharedDataPointerIN10QtMobility26QGalleryUnionFilterPrivateEEC1EPS1_ 0x0001670e   Section       20  QtGallery.in(t._ZN18QSharedDataPointerIN10QtMobility26QGalleryUnionFilterPrivateEEC1EPS1_)
    t._ZN18QSharedDataPointerIN10QtMobility26QGalleryUnionFilterPrivateEED1Ev 0x00016722   Section       36  QtGallery.in(t._ZN18QSharedDataPointerIN10QtMobility26QGalleryUnionFilterPrivateEED1Ev)
    t._ZN18QSharedDataPointerIN10QtMobility26QGalleryUnionFilterPrivateEEptEv 0x00016746   Section       32  QtGallery.in(t._ZN18QSharedDataPointerIN10QtMobility26QGalleryUnionFilterPrivateEEptEv)
    t._ZN18QSharedDataPointerIN10QtMobility29QGalleryMetaDataFilterPrivateEE13detach_helperEv 0x00016768   Section      112  QtGallery.in(t._ZN18QSharedDataPointerIN10QtMobility29QGalleryMetaDataFilterPrivateEE13detach_helperEv)
    t._ZN18QSharedDataPointerIN10QtMobility29QGalleryMetaDataFilterPrivateEE13detach_helperEv.clean 0x000167d8   Section       30  QtGallery.in(t._ZN18QSharedDataPointerIN10QtMobility29QGalleryMetaDataFilterPrivateEE13detach_helperEv.clean)
    t._ZN18QSharedDataPointerIN10QtMobility29QGalleryMetaDataFilterPrivateEEC1EPS1_ 0x000167f6   Section       20  QtGallery.in(t._ZN18QSharedDataPointerIN10QtMobility29QGalleryMetaDataFilterPrivateEEC1EPS1_)
    t._ZN18QSharedDataPointerIN10QtMobility29QGalleryMetaDataFilterPrivateEED1Ev 0x0001680a   Section       36  QtGallery.in(t._ZN18QSharedDataPointerIN10QtMobility29QGalleryMetaDataFilterPrivateEED1Ev)
    t._ZN18QSharedDataPointerIN10QtMobility29QGalleryMetaDataFilterPrivateEEptEv 0x0001682e   Section       32  QtGallery.in(t._ZN18QSharedDataPointerIN10QtMobility29QGalleryMetaDataFilterPrivateEEptEv)
    t._ZN18QSharedDataPointerIN10QtMobility33QGalleryIntersectionFilterPrivateEE13detach_helperEv 0x00016850   Section       88  QtGallery.in(t._ZN18QSharedDataPointerIN10QtMobility33QGalleryIntersectionFilterPrivateEE13detach_helperEv)
    t._ZN18QSharedDataPointerIN10QtMobility33QGalleryIntersectionFilterPrivateEE13detach_helperEv.clean 0x000168a8   Section       18  QtGallery.in(t._ZN18QSharedDataPointerIN10QtMobility33QGalleryIntersectionFilterPrivateEE13detach_helperEv.clean)
    t._ZN18QSharedDataPointerIN10QtMobility33QGalleryIntersectionFilterPrivateEEC1EPS1_ 0x000168ba   Section       20  QtGallery.in(t._ZN18QSharedDataPointerIN10QtMobility33QGalleryIntersectionFilterPrivateEEC1EPS1_)
    t._ZN18QSharedDataPointerIN10QtMobility33QGalleryIntersectionFilterPrivateEED1Ev 0x000168ce   Section       36  QtGallery.in(t._ZN18QSharedDataPointerIN10QtMobility33QGalleryIntersectionFilterPrivateEED1Ev)
    t._ZN18QSharedDataPointerIN10QtMobility33QGalleryIntersectionFilterPrivateEEptEv 0x000168f2   Section       32  QtGallery.in(t._ZN18QSharedDataPointerIN10QtMobility33QGalleryIntersectionFilterPrivateEEptEv)
    t._ZN4QMapIi8QVariantE11node_createEP8QMapDataPPNS2_4NodeERKiRKS0_ 0x00016912   Section      100  QtGallery.in(t._ZN4QMapIi8QVariantE11node_createEP8QMapDataPPNS2_4NodeERKiRKS0_)
    t._ZN4QMapIi8QVariantE11node_createEP8QMapDataPPNS2_4NodeERKiRKS0_.clean 0x00016976   Section       28  QtGallery.in(t._ZN4QMapIi8QVariantE11node_createEP8QMapDataPPNS2_4NodeERKiRKS0_.clean)
    t._ZN4QMapIi8QVariantE13detach_helperEv  0x00016992   Section      116  QtGallery.in(t._ZN4QMapIi8QVariantE13detach_helperEv)
    t._ZN4QMapIi8QVariantE13detach_helperEv.clean 0x00016a06   Section        8  QtGallery.in(t._ZN4QMapIi8QVariantE13detach_helperEv.clean)
    t._ZN4QMapIi8QVariantE6detachEv          0x00016a0e   Section       26  QtGallery.in(t._ZN4QMapIi8QVariantE6detachEv)
    t._ZN4QMapIi8QVariantE6insertERKiRKS0_   0x00016a28   Section      130  QtGallery.in(t._ZN4QMapIi8QVariantE6insertERKiRKS0_)
    t._ZN4QMapIi8QVariantE8freeDataEP8QMapData 0x00016aaa   Section       32  QtGallery.in(t._ZN4QMapIi8QVariantE8freeDataEP8QMapData)
    t._ZN4QMapIi8QVariantEC1ERKS1_           0x00016aca   Section       38  QtGallery.in(t._ZN4QMapIi8QVariantEC1ERKS1_)
    t._ZN4QMapIi8QVariantEC1Ev               0x00016af0   Section       24  QtGallery.in(t._ZN4QMapIi8QVariantEC1Ev)
    t._ZN4QMapIi8QVariantED1Ev               0x00016b08   Section       32  QtGallery.in(t._ZN4QMapIi8QVariantED1Ev)
    t._ZN4TBufILi256EEC1ERK7TDesC16          0x00016b28   Section       12  QtGallery.in(t._ZN4TBufILi256EEC1ERK7TDesC16)
    t._ZN5QHashIi7QStringE11deleteNode2EPN9QHashData4NodeE 0x00016b34   Section       10  QtGallery.in(t._ZN5QHashIi7QStringE11deleteNode2EPN9QHashData4NodeE)
    t._ZN5QHashIi7QStringE13detach_helperEv  0x00016b40   Section       56  QtGallery.in(t._ZN5QHashIi7QStringE13detach_helperEv)
    t._ZN5QHashIi7QStringE13duplicateNodeEPN9QHashData4NodeEPv 0x00016b78   Section       30  QtGallery.in(t._ZN5QHashIi7QStringE13duplicateNodeEPN9QHashData4NodeEPv)
    t._ZN5QHashIi7QStringE13duplicateNodeEPN9QHashData4NodeEPv.clean 0x00016b96   Section       12  QtGallery.in(t._ZN5QHashIi7QStringE13duplicateNodeEPN9QHashData4NodeEPv.clean)
    t._ZN5QHashIi7QStringE6detachEv          0x00016ba2   Section       26  QtGallery.in(t._ZN5QHashIi7QStringE6detachEv)
    t._ZN5QHashIi7QStringE6insertERKiRKS0_   0x00016bbc   Section      124  QtGallery.in(t._ZN5QHashIi7QStringE6insertERKiRKS0_)
    t._ZN5QHashIi7QStringE6insertERKiRKS0_.clean 0x00016c38   Section       12  QtGallery.in(t._ZN5QHashIi7QStringE6insertERKiRKS0_.clean)
    t._ZN5QHashIi7QStringE8freeDataEP9QHashData 0x00016c44   Section       16  QtGallery.in(t._ZN5QHashIi7QStringE8freeDataEP9QHashData)
    t._ZN5QHashIi7QStringEC1ERKS1_           0x00016c54   Section       32  QtGallery.in(t._ZN5QHashIi7QStringEC1ERKS1_)
    t._ZN5QHashIi7QStringEC1Ev               0x00016c74   Section       24  QtGallery.in(t._ZN5QHashIi7QStringEC1Ev)
    t._ZN5QHashIi7QStringED1Ev               0x00016c8c   Section       28  QtGallery.in(t._ZN5QHashIi7QStringED1Ev)
    t._ZN5QHashIi7QStringEaSERKS1_           0x00016ca8   Section       58  QtGallery.in(t._ZN5QHashIi7QStringEaSERKS1_)
    t._ZN5QHashIi8QVariantE11deleteNode2EPN9QHashData4NodeE 0x00016ce2   Section       10  QtGallery.in(t._ZN5QHashIi8QVariantE11deleteNode2EPN9QHashData4NodeE)
    t._ZN5QHashIi8QVariantE13detach_helperEv 0x00016cec   Section       56  QtGallery.in(t._ZN5QHashIi8QVariantE13detach_helperEv)
    t._ZN5QHashIi8QVariantE13duplicateNodeEPN9QHashData4NodeEPv 0x00016d24   Section       30  QtGallery.in(t._ZN5QHashIi8QVariantE13duplicateNodeEPN9QHashData4NodeEPv)
    t._ZN5QHashIi8QVariantE13duplicateNodeEPN9QHashData4NodeEPv.clean 0x00016d42   Section       12  QtGallery.in(t._ZN5QHashIi8QVariantE13duplicateNodeEPN9QHashData4NodeEPv.clean)
    t._ZN5QHashIi8QVariantE6detachEv         0x00016d4e   Section       26  QtGallery.in(t._ZN5QHashIi8QVariantE6detachEv)
    t._ZN5QHashIi8QVariantE6insertERKiRKS0_  0x00016d68   Section      124  QtGallery.in(t._ZN5QHashIi8QVariantE6insertERKiRKS0_)
    t._ZN5QHashIi8QVariantE6insertERKiRKS0_.clean 0x00016de4   Section       12  QtGallery.in(t._ZN5QHashIi8QVariantE6insertERKiRKS0_.clean)
    t._ZN5QHashIi8QVariantE8freeDataEP9QHashData 0x00016df0   Section       16  QtGallery.in(t._ZN5QHashIi8QVariantE8freeDataEP9QHashData)
    t._ZN5QHashIi8QVariantEC1ERKS1_          0x00016e00   Section       32  QtGallery.in(t._ZN5QHashIi8QVariantEC1ERKS1_)
    t._ZN5QHashIi8QVariantEC1Ev              0x00016e20   Section       24  QtGallery.in(t._ZN5QHashIi8QVariantEC1Ev)
    t._ZN5QHashIi8QVariantED1Ev              0x00016e38   Section       28  QtGallery.in(t._ZN5QHashIi8QVariantED1Ev)
    t._ZN5QHashIi8QVariantEaSERKS1_          0x00016e54   Section       58  QtGallery.in(t._ZN5QHashIi8QVariantEaSERKS1_)
    t._ZN5QListI7QStringE13detach_helperEi   0x00016e8e   Section       86  QtGallery.in(t._ZN5QListI7QStringE13detach_helperEi)
    t._ZN5QListI7QStringE13detach_helperEi.clean 0x00016ee4   Section        8  QtGallery.in(t._ZN5QListI7QStringE13detach_helperEi.clean)
    t._ZN5QListI7QStringE13detach_helperEv   0x00016eec   Section       12  QtGallery.in(t._ZN5QListI7QStringE13detach_helperEv)
    t._ZN5QListI7QStringE14node_constructEPNS1_4NodeERKS0_ 0x00016ef8   Section       26  QtGallery.in(t._ZN5QListI7QStringE14node_constructEPNS1_4NodeERKS0_)
    t._ZN5QListI7QStringE14node_constructEPNS1_4NodeERKS0_.clean 0x00016f12   Section       12  QtGallery.in(t._ZN5QListI7QStringE14node_constructEPNS1_4NodeERKS0_.clean)
    t._ZN5QListI7QStringE18detach_helper_growEii 0x00016f1e   Section      186  QtGallery.in(t._ZN5QListI7QStringE18detach_helper_growEii)
    t._ZN5QListI7QStringE18detach_helper_growEii.clean 0x00016fd8   Section        8  QtGallery.in(t._ZN5QListI7QStringE18detach_helper_growEii.clean)
    t._ZN5QListI7QStringE4freeEPN9QListData4DataE 0x00016fe0   Section       48  QtGallery.in(t._ZN5QListI7QStringE4freeEPN9QListData4DataE)
    t._ZN5QListI7QStringE6appendERKS0_       0x00017010   Section      100  QtGallery.in(t._ZN5QListI7QStringE6appendERKS0_)
    t._ZN5QListI7QStringE6appendERKS0_.clean 0x00017074   Section        8  QtGallery.in(t._ZN5QListI7QStringE6appendERKS0_.clean)
    t._ZN5QListI7QStringE9node_copyEPNS1_4NodeES3_S3_ 0x0001707c   Section       70  QtGallery.in(t._ZN5QListI7QStringE9node_copyEPNS1_4NodeES3_S3_)
    t._ZN5QListI7QStringE9node_copyEPNS1_4NodeES3_S3_.clean 0x000170c2   Section       22  QtGallery.in(t._ZN5QListI7QStringE9node_copyEPNS1_4NodeES3_S3_.clean)
    t._ZN5QListI7QStringEC1Ev                0x000170d8   Section       20  QtGallery.in(t._ZN5QListI7QStringEC1Ev)
    t._ZN5QListI7QStringED1Ev                0x000170ec   Section       30  QtGallery.in(t._ZN5QListI7QStringED1Ev)
    t._ZN5QListI7QStringEaSERKS1_            0x0001710a   Section       56  QtGallery.in(t._ZN5QListI7QStringEaSERKS1_)
    t._ZN5QListI7QStringEpLERKS1_            0x00017144   Section      136  QtGallery.in(t._ZN5QListI7QStringEpLERKS1_)
    t._ZN5QListI7QStringEpLERKS1_.clean      0x000171cc   Section        8  QtGallery.in(t._ZN5QListI7QStringEpLERKS1_.clean)
    t._ZN5QListIN10QtMobility14QGalleryFilterEE13detach_helperEi 0x000171d4   Section       86  QtGallery.in(t._ZN5QListIN10QtMobility14QGalleryFilterEE13detach_helperEi)
    t._ZN5QListIN10QtMobility14QGalleryFilterEE13detach_helperEi.clean 0x0001722a   Section        8  QtGallery.in(t._ZN5QListIN10QtMobility14QGalleryFilterEE13detach_helperEi.clean)
    t._ZN5QListIN10QtMobility14QGalleryFilterEE13detach_helperEv 0x00017232   Section       12  QtGallery.in(t._ZN5QListIN10QtMobility14QGalleryFilterEE13detach_helperEv)
    t._ZN5QListIN10QtMobility14QGalleryFilterEE13node_destructEPNS2_4NodeE 0x0001723e   Section       18  QtGallery.in(t._ZN5QListIN10QtMobility14QGalleryFilterEE13node_destructEPNS2_4NodeE)
    t._ZN5QListIN10QtMobility14QGalleryFilterEE13node_destructEPNS2_4NodeES4_ 0x00017250   Section       30  QtGallery.in(t._ZN5QListIN10QtMobility14QGalleryFilterEE13node_destructEPNS2_4NodeES4_)
    t._ZN5QListIN10QtMobility14QGalleryFilterEE14node_constructEPNS2_4NodeERKS1_ 0x0001726e   Section       32  QtGallery.in(t._ZN5QListIN10QtMobility14QGalleryFilterEE14node_constructEPNS2_4NodeERKS1_)
    t._ZN5QListIN10QtMobility14QGalleryFilterEE14node_constructEPNS2_4NodeERKS1_.clean 0x0001728e   Section       10  QtGallery.in(t._ZN5QListIN10QtMobility14QGalleryFilterEE14node_constructEPNS2_4NodeERKS1_.clean)
    t._ZN5QListIN10QtMobility14QGalleryFilterEE18detach_helper_growEii 0x00017298   Section      180  QtGallery.in(t._ZN5QListIN10QtMobility14QGalleryFilterEE18detach_helper_growEii)
    t._ZN5QListIN10QtMobility14QGalleryFilterEE18detach_helper_growEii.clean 0x0001734c   Section        8  QtGallery.in(t._ZN5QListIN10QtMobility14QGalleryFilterEE18detach_helper_growEii.clean)
    t._ZN5QListIN10QtMobility14QGalleryFilterEE4freeEPN9QListData4DataE 0x00017354   Section       38  QtGallery.in(t._ZN5QListIN10QtMobility14QGalleryFilterEE4freeEPN9QListData4DataE)
    t._ZN5QListIN10QtMobility14QGalleryFilterEE5clearEv 0x0001737a   Section       26  QtGallery.in(t._ZN5QListIN10QtMobility14QGalleryFilterEE5clearEv)
    t._ZN5QListIN10QtMobility14QGalleryFilterEE5clearEv.clean 0x00017394   Section       10  QtGallery.in(t._ZN5QListIN10QtMobility14QGalleryFilterEE5clearEv.clean)
    t._ZN5QListIN10QtMobility14QGalleryFilterEE6appendERKS1_ 0x000173a0   Section       96  QtGallery.in(t._ZN5QListIN10QtMobility14QGalleryFilterEE6appendERKS1_)
    t._ZN5QListIN10QtMobility14QGalleryFilterEE6appendERKS1_.clean 0x00017400   Section        8  QtGallery.in(t._ZN5QListIN10QtMobility14QGalleryFilterEE6appendERKS1_.clean)
    t._ZN5QListIN10QtMobility14QGalleryFilterEE6detachEv 0x00017408   Section       24  QtGallery.in(t._ZN5QListIN10QtMobility14QGalleryFilterEE6detachEv)
    t._ZN5QListIN10QtMobility14QGalleryFilterEE6insertEiRKS1_ 0x00017420   Section       94  QtGallery.in(t._ZN5QListIN10QtMobility14QGalleryFilterEE6insertEiRKS1_)
    t._ZN5QListIN10QtMobility14QGalleryFilterEE6insertEiRKS1_.clean 0x0001747e   Section        8  QtGallery.in(t._ZN5QListIN10QtMobility14QGalleryFilterEE6insertEiRKS1_.clean)
    t._ZN5QListIN10QtMobility14QGalleryFilterEE7prependERKS1_ 0x00017486   Section       90  QtGallery.in(t._ZN5QListIN10QtMobility14QGalleryFilterEE7prependERKS1_)
    t._ZN5QListIN10QtMobility14QGalleryFilterEE7prependERKS1_.clean 0x000174e0   Section        8  QtGallery.in(t._ZN5QListIN10QtMobility14QGalleryFilterEE7prependERKS1_.clean)
    t._ZN5QListIN10QtMobility14QGalleryFilterEE7replaceEiRKS1_ 0x000174e8   Section       30  QtGallery.in(t._ZN5QListIN10QtMobility14QGalleryFilterEE7replaceEiRKS1_)
    t._ZN5QListIN10QtMobility14QGalleryFilterEE8removeAtEi 0x00017506   Section       50  QtGallery.in(t._ZN5QListIN10QtMobility14QGalleryFilterEE8removeAtEi)
    t._ZN5QListIN10QtMobility14QGalleryFilterEE9node_copyEPNS2_4NodeES4_S4_ 0x00017538   Section       80  QtGallery.in(t._ZN5QListIN10QtMobility14QGalleryFilterEE9node_copyEPNS2_4NodeES4_S4_)
    t._ZN5QListIN10QtMobility14QGalleryFilterEE9node_copyEPNS2_4NodeES4_S4_.clean 0x00017588   Section       18  QtGallery.in(t._ZN5QListIN10QtMobility14QGalleryFilterEE9node_copyEPNS2_4NodeES4_S4_.clean)
    t._ZN5QListIN10QtMobility14QGalleryFilterEEC1ERKS2_ 0x0001759a   Section       30  QtGallery.in(t._ZN5QListIN10QtMobility14QGalleryFilterEEC1ERKS2_)
    t._ZN5QListIN10QtMobility14QGalleryFilterEEC1Ev 0x000175b8   Section       20  QtGallery.in(t._ZN5QListIN10QtMobility14QGalleryFilterEEC1Ev)
    t._ZN5QListIN10QtMobility14QGalleryFilterEED1Ev 0x000175cc   Section       30  QtGallery.in(t._ZN5QListIN10QtMobility14QGalleryFilterEED1Ev)
    t._ZN5QListIN10QtMobility14QGalleryFilterEEaSERKS2_ 0x000175ea   Section       54  QtGallery.in(t._ZN5QListIN10QtMobility14QGalleryFilterEEaSERKS2_)
    t._ZN5QListIN10QtMobility14QGalleryFilterEEixEi 0x00017620   Section       40  QtGallery.in(t._ZN5QListIN10QtMobility14QGalleryFilterEEixEi)
    t._ZN5QListIN10QtMobility14QGalleryFilterEEpLERKS2_ 0x00017648   Section      136  QtGallery.in(t._ZN5QListIN10QtMobility14QGalleryFilterEEpLERKS2_)
    t._ZN5QListIN10QtMobility14QGalleryFilterEEpLERKS2_.clean 0x000176d0   Section        8  QtGallery.in(t._ZN5QListIN10QtMobility14QGalleryFilterEEpLERKS2_.clean)
    t._ZN5QListIN10QtMobility16QGalleryResourceEE13detach_helperEi 0x000176d8   Section      152  QtGallery.in(t._ZN5QListIN10QtMobility16QGalleryResourceEE13detach_helperEi)
    t._ZN5QListIN10QtMobility16QGalleryResourceEE13detach_helperEi.clean 0x00017770   Section       18  QtGallery.in(t._ZN5QListIN10QtMobility16QGalleryResourceEE13detach_helperEi.clean)
    t._ZN5QListIN10QtMobility16QGalleryResourceEE13node_destructEPNS2_4NodeES4_ 0x00017782   Section       30  QtGallery.in(t._ZN5QListIN10QtMobility16QGalleryResourceEE13node_destructEPNS2_4NodeES4_)
    t._ZN5QListIN10QtMobility16QGalleryResourceEE14node_constructEPNS2_4NodeERKS1_ 0x000177a0   Section       32  QtGallery.in(t._ZN5QListIN10QtMobility16QGalleryResourceEE14node_constructEPNS2_4NodeERKS1_)
    t._ZN5QListIN10QtMobility16QGalleryResourceEE14node_constructEPNS2_4NodeERKS1_.clean 0x000177c0   Section       10  QtGallery.in(t._ZN5QListIN10QtMobility16QGalleryResourceEE14node_constructEPNS2_4NodeERKS1_.clean)
    t._ZN5QListIN10QtMobility16QGalleryResourceEE18detach_helper_growEii 0x000177ca   Section      180  QtGallery.in(t._ZN5QListIN10QtMobility16QGalleryResourceEE18detach_helper_growEii)
    t._ZN5QListIN10QtMobility16QGalleryResourceEE18detach_helper_growEii.clean 0x0001787e   Section        8  QtGallery.in(t._ZN5QListIN10QtMobility16QGalleryResourceEE18detach_helper_growEii.clean)
    t._ZN5QListIN10QtMobility16QGalleryResourceEE4freeEPN9QListData4DataE 0x00017886   Section       38  QtGallery.in(t._ZN5QListIN10QtMobility16QGalleryResourceEE4freeEPN9QListData4DataE)
    t._ZN5QListIN10QtMobility16QGalleryResourceEE6appendERKS1_ 0x000178ac   Section       92  QtGallery.in(t._ZN5QListIN10QtMobility16QGalleryResourceEE6appendERKS1_)
    t._ZN5QListIN10QtMobility16QGalleryResourceEE6appendERKS1_.clean 0x00017908   Section        8  QtGallery.in(t._ZN5QListIN10QtMobility16QGalleryResourceEE6appendERKS1_.clean)
    t._ZN5QListIN10QtMobility16QGalleryResourceEE9node_copyEPNS2_4NodeES4_S4_ 0x00017910   Section       80  QtGallery.in(t._ZN5QListIN10QtMobility16QGalleryResourceEE9node_copyEPNS2_4NodeES4_S4_)
    t._ZN5QListIN10QtMobility16QGalleryResourceEE9node_copyEPNS2_4NodeES4_S4_.clean 0x00017960   Section       18  QtGallery.in(t._ZN5QListIN10QtMobility16QGalleryResourceEE9node_copyEPNS2_4NodeES4_S4_.clean)
    t._ZN5QListIN10QtMobility16QGalleryResourceEED1Ev 0x00017972   Section       30  QtGallery.in(t._ZN5QListIN10QtMobility16QGalleryResourceEED1Ev)
    t._ZN5QListIiE13detach_helperEv          0x00017990   Section       88  QtGallery.in(t._ZN5QListIiE13detach_helperEv)
    t._ZN5QListIiE13detach_helperEv.clean    0x000179e8   Section        8  QtGallery.in(t._ZN5QListIiE13detach_helperEv.clean)
    t._ZN5QListIiE18detach_helper_growEii    0x000179f0   Section      164  QtGallery.in(t._ZN5QListIiE18detach_helper_growEii)
    t._ZN5QListIiE18detach_helper_growEii.clean 0x00017a94   Section        8  QtGallery.in(t._ZN5QListIiE18detach_helper_growEii.clean)
    t._ZN5QListIiE4freeEPN9QListData4DataE   0x00017a9c   Section       16  QtGallery.in(t._ZN5QListIiE4freeEPN9QListData4DataE)
    t._ZN5QListIiE9node_copyEPNS0_4NodeES2_S2_ 0x00017aac   Section       28  QtGallery.in(t._ZN5QListIiE9node_copyEPNS0_4NodeES2_S2_)
    t._ZN5QListIiEC1Ev                       0x00017ac8   Section       20  QtGallery.in(t._ZN5QListIiEC1Ev)
    t._ZN5QListIiED1Ev                       0x00017adc   Section       30  QtGallery.in(t._ZN5QListIiED1Ev)
    t._ZN6RArrayImEC1Ev                      0x00017afa   Section       10  QtGallery.in(t._ZN6RArrayImEC1Ev)
    t._ZN7QVectorI5QHashIi7QStringEE4freeEP16QVectorTypedDataIS2_E 0x00017b04   Section       40  QtGallery.in(t._ZN7QVectorI5QHashIi7QStringEE4freeEP16QVectorTypedDataIS2_E)
    t._ZN7QVectorI5QHashIi7QStringEE5eraseEPS2_S4_ 0x00017b2c   Section      122  QtGallery.in(t._ZN7QVectorI5QHashIi7QStringEE5eraseEPS2_S4_)
    t._ZN7QVectorI5QHashIi7QStringEE6appendERKS2_ 0x00017ba6   Section      140  QtGallery.in(t._ZN7QVectorI5QHashIi7QStringEE6appendERKS2_)
    t._ZN7QVectorI5QHashIi7QStringEE6appendERKS2_.clean 0x00017c32   Section       28  QtGallery.in(t._ZN7QVectorI5QHashIi7QStringEE6appendERKS2_.clean)
    t._ZN7QVectorI5QHashIi7QStringEE6detachEv 0x00017c4e   Section       30  QtGallery.in(t._ZN7QVectorI5QHashIi7QStringEE6detachEv)
    t._ZN7QVectorI5QHashIi7QStringEE6insertEPS2_iRKS2_ 0x00017c6c   Section      228  QtGallery.in(t._ZN7QVectorI5QHashIi7QStringEE6insertEPS2_iRKS2_)
    t._ZN7QVectorI5QHashIi7QStringEE6insertEPS2_iRKS2_.clean 0x00017d50   Section       18  QtGallery.in(t._ZN7QVectorI5QHashIi7QStringEE6insertEPS2_iRKS2_.clean)
    t._ZN7QVectorI5QHashIi7QStringEE7reallocEii 0x00017d62   Section      306  QtGallery.in(t._ZN7QVectorI5QHashIi7QStringEE7reallocEii)
    t._ZN7QVectorI5QHashIi7QStringEE7reallocEii.clean 0x00017e94   Section       30  QtGallery.in(t._ZN7QVectorI5QHashIi7QStringEE7reallocEii.clean)
    t._ZN7QVectorI5QHashIi7QStringEED1Ev     0x00017eb2   Section       30  QtGallery.in(t._ZN7QVectorI5QHashIi7QStringEED1Ev)
    t._ZN7QVectorI5QHashIi8QVariantEE4freeEP16QVectorTypedDataIS2_E 0x00017ed0   Section       40  QtGallery.in(t._ZN7QVectorI5QHashIi8QVariantEE4freeEP16QVectorTypedDataIS2_E)
    t._ZN7QVectorI5QHashIi8QVariantEE5eraseEPS2_S4_ 0x00017ef8   Section      122  QtGallery.in(t._ZN7QVectorI5QHashIi8QVariantEE5eraseEPS2_S4_)
    t._ZN7QVectorI5QHashIi8QVariantEE6appendERKS2_ 0x00017f72   Section      140  QtGallery.in(t._ZN7QVectorI5QHashIi8QVariantEE6appendERKS2_)
    t._ZN7QVectorI5QHashIi8QVariantEE6appendERKS2_.clean 0x00017ffe   Section       28  QtGallery.in(t._ZN7QVectorI5QHashIi8QVariantEE6appendERKS2_.clean)
    t._ZN7QVectorI5QHashIi8QVariantEE6detachEv 0x0001801a   Section       30  QtGallery.in(t._ZN7QVectorI5QHashIi8QVariantEE6detachEv)
    t._ZN7QVectorI5QHashIi8QVariantEE6insertEPS2_iRKS2_ 0x00018038   Section      228  QtGallery.in(t._ZN7QVectorI5QHashIi8QVariantEE6insertEPS2_iRKS2_)
    t._ZN7QVectorI5QHashIi8QVariantEE6insertEPS2_iRKS2_.clean 0x0001811c   Section       18  QtGallery.in(t._ZN7QVectorI5QHashIi8QVariantEE6insertEPS2_iRKS2_.clean)
    t._ZN7QVectorI5QHashIi8QVariantEE7reallocEii 0x0001812e   Section      306  QtGallery.in(t._ZN7QVectorI5QHashIi8QVariantEE7reallocEii)
    t._ZN7QVectorI5QHashIi8QVariantEE7reallocEii.clean 0x00018260   Section       30  QtGallery.in(t._ZN7QVectorI5QHashIi8QVariantEE7reallocEii.clean)
    t._ZN7QVectorI5QHashIi8QVariantEED1Ev    0x0001827e   Section       30  QtGallery.in(t._ZN7QVectorI5QHashIi8QVariantEED1Ev)
    t._ZN7QVectorI6QFlagsIN2Qt8ItemFlagEEE4freeEP16QVectorTypedDataIS3_E 0x0001829c   Section       30  QtGallery.in(t._ZN7QVectorI6QFlagsIN2Qt8ItemFlagEEE4freeEP16QVectorTypedDataIS3_E)
    t._ZN7QVectorI6QFlagsIN2Qt8ItemFlagEEE5eraseEPS3_S5_ 0x000182ba   Section      104  QtGallery.in(t._ZN7QVectorI6QFlagsIN2Qt8ItemFlagEEE5eraseEPS3_S5_)
    t._ZN7QVectorI6QFlagsIN2Qt8ItemFlagEEE6appendERKS3_ 0x00018322   Section      114  QtGallery.in(t._ZN7QVectorI6QFlagsIN2Qt8ItemFlagEEE6appendERKS3_)
    t._ZN7QVectorI6QFlagsIN2Qt8ItemFlagEEE6detachEv 0x00018394   Section       30  QtGallery.in(t._ZN7QVectorI6QFlagsIN2Qt8ItemFlagEEE6detachEv)
    t._ZN7QVectorI6QFlagsIN2Qt8ItemFlagEEE6insertEPS3_iRKS3_ 0x000183b2   Section      192  QtGallery.in(t._ZN7QVectorI6QFlagsIN2Qt8ItemFlagEEE6insertEPS3_iRKS3_)
    t._ZN7QVectorI6QFlagsIN2Qt8ItemFlagEEE7reallocEii 0x00018472   Section      274  QtGallery.in(t._ZN7QVectorI6QFlagsIN2Qt8ItemFlagEEE7reallocEii)
    t._ZN7QVectorI6QFlagsIN2Qt8ItemFlagEEE7reallocEii.clean 0x00018584   Section       14  QtGallery.in(t._ZN7QVectorI6QFlagsIN2Qt8ItemFlagEEE7reallocEii.clean)
    t._ZN7QVectorI6QFlagsIN2Qt8ItemFlagEEED1Ev 0x00018592   Section       30  QtGallery.in(t._ZN7QVectorI6QFlagsIN2Qt8ItemFlagEEED1Ev)
    t._ZN7QVectorI6QFlagsIN2Qt8ItemFlagEEEixEi 0x000185b0   Section       20  QtGallery.in(t._ZN7QVectorI6QFlagsIN2Qt8ItemFlagEEEixEi)
    t._ZN7QVectorIiE13detach_helperEv        0x000185c4   Section       14  QtGallery.in(t._ZN7QVectorIiE13detach_helperEv)
    t._ZN7QVectorIiE4freeEP16QVectorTypedDataIiE 0x000185d2   Section       12  QtGallery.in(t._ZN7QVectorIiE4freeEP16QVectorTypedDataIiE)
    t._ZN7QVectorIiE5beginEv                 0x000185de   Section       14  QtGallery.in(t._ZN7QVectorIiE5beginEv)
    t._ZN7QVectorIiE5eraseEPiS1_             0x000185ec   Section       64  QtGallery.in(t._ZN7QVectorIiE5eraseEPiS1_)
    t._ZN7QVectorIiE6appendERKi              0x0001862c   Section       90  QtGallery.in(t._ZN7QVectorIiE6appendERKi)
    t._ZN7QVectorIiE6detachEv                0x00018686   Section       24  QtGallery.in(t._ZN7QVectorIiE6detachEv)
    t._ZN7QVectorIiE6insertEPiiRKi           0x0001869e   Section      148  QtGallery.in(t._ZN7QVectorIiE6insertEPiiRKi)
    t._ZN7QVectorIiE6insertEiRKi             0x00018732   Section       28  QtGallery.in(t._ZN7QVectorIiE6insertEiRKi)
    t._ZN7QVectorIiE7reallocEii              0x0001874e   Section      246  QtGallery.in(t._ZN7QVectorIiE7reallocEii)
    t._ZN7QVectorIiE7reallocEii.clean        0x00018844   Section        8  QtGallery.in(t._ZN7QVectorIiE7reallocEii.clean)
    t._ZN7QVectorIiEC1Ev                     0x0001884c   Section       20  QtGallery.in(t._ZN7QVectorIiEC1Ev)
    t._ZN7QVectorIiED1Ev                     0x00018860   Section       30  QtGallery.in(t._ZN7QVectorIiED1Ev)
    t._ZN7QVectorIiEixEi                     0x0001887e   Section       20  QtGallery.in(t._ZN7QVectorIiEixEi)
    t._ZN8QVariant8setValueIdEEvRKT_         0x00018892   Section       96  QtGallery.in(t._ZN8QVariant8setValueIdEEvRKT_)
    t._ZN8QVariant8setValueIdEEvRKT_.clean   0x000188f2   Section       10  QtGallery.in(t._ZN8QVariant8setValueIdEEvRKT_.clean)
    t._ZN8QVariant8setValueIjEEvRKT_         0x000188fc   Section       96  QtGallery.in(t._ZN8QVariant8setValueIjEEvRKT_)
    t._ZN8QVariant8setValueIjEEvRKT_.clean   0x0001895c   Section       10  QtGallery.in(t._ZN8QVariant8setValueIjEEvRKT_.clean)
    t._ZN8QVariant8setValueImEEvRKT_         0x00018966   Section       92  QtGallery.in(t._ZN8QVariant8setValueImEEvRKT_)
    t._ZN8QVariant8setValueImEEvRKT_.clean   0x000189c2   Section       10  QtGallery.in(t._ZN8QVariant8setValueImEEvRKT_.clean)
    t._ZN9QHashNodeIi7QStringEC1EiRKS0_      0x000189cc   Section       14  QtGallery.in(t._ZN9QHashNodeIi7QStringEC1EiRKS0_)
    t._ZN9QHashNodeIi8QVariantEC1EiRKS0_     0x000189da   Section       14  QtGallery.in(t._ZN9QHashNodeIi8QVariantEC1EiRKS0_)
    t._ZN9TMdERangeI5TTimeEC1ERKS0_S3_13TMdERangeType 0x000189e8   Section       18  QtGallery.in(t._ZN9TMdERangeI5TTimeEC1ERKS0_S3_13TMdERangeType)
    t._ZN9TMdERangeIdEC1ERKdS2_13TMdERangeType 0x000189fa   Section       16  QtGallery.in(t._ZN9TMdERangeIdEC1ERKdS2_13TMdERangeType)
    t._ZN9TMdERangeIxEC1ERKxS2_13TMdERangeType 0x00018a0a   Section       16  QtGallery.in(t._ZN9TMdERangeIxEC1ERKxS2_13TMdERangeType)
    t._ZNK12QWeakPointerIN10QtMobility16QAbstractGalleryEE4dataEv 0x00018a1a   Section       30  QtGallery.in(t._ZNK12QWeakPointerIN10QtMobility16QAbstractGalleryEE4dataEv)
    t._ZNK12QWeakPointerIN10QtMobility16QAbstractGalleryEE6isNullEv 0x00018a38   Section       36  QtGallery.in(t._ZNK12QWeakPointerIN10QtMobility16QAbstractGalleryEE6isNullEv)
    t._ZNK13RPointerArrayI10CMdEObjectEixEi  0x00018a5c   Section        8  QtGallery.in(t._ZNK13RPointerArrayI10CMdEObjectEixEi)
    t._ZNK14QScopedPointerI15CMdEObjectQuery21QScopedPointerDeleterIS0_EEcvMS3_PS0_Ev 0x00018a64   Section       14  QtGallery.in(t._ZNK14QScopedPointerI15CMdEObjectQuery21QScopedPointerDeleterIS0_EEcvMS3_PS0_Ev)
    t._ZNK14QScopedPointerIN10QtMobility24QGalleryAbstractResponseE21QScopedPointerDeleterIS1_EEcvMS4_PS1_Ev 0x00018a72   Section       14  QtGallery.in(t._ZNK14QScopedPointerIN10QtMobility24QGalleryAbstractResponseE21QScopedPointerDeleterIS1_EEcvMS4_PS1_Ev)
    t._ZNK4QMapIi8QVariantE5valueERKi        0x00018a80   Section      128  QtGallery.in(t._ZNK4QMapIi8QVariantE5valueERKi)
    t._ZNK4QMapIi8QVariantEeqERKS1_          0x00018b00   Section      112  QtGallery.in(t._ZNK4QMapIi8QVariantEeqERKS1_)
    t._ZNK5QHashIi7QStringE5beginEv          0x00018b70   Section       28  QtGallery.in(t._ZNK5QHashIi7QStringE5beginEv)
    t._ZNK5QHashIi7QStringE6valuesEv         0x00018b8c   Section       90  QtGallery.in(t._ZNK5QHashIi7QStringE6valuesEv)
    t._ZNK5QHashIi7QStringE6valuesEv.clean   0x00018be6   Section       10  QtGallery.in(t._ZNK5QHashIi7QStringE6valuesEv.clean)
    t._ZNK5QHashIi7QStringE8containsERKi     0x00018bf0   Section       26  QtGallery.in(t._ZNK5QHashIi7QStringE8containsERKi)
    t._ZNK5QHashIi7QStringE8findNodeERKiPj   0x00018c0a   Section       50  QtGallery.in(t._ZNK5QHashIi7QStringE8findNodeERKiPj)
    t._ZNK5QHashIi8QVariantE8findNodeERKiPj  0x00018c3c   Section       50  QtGallery.in(t._ZNK5QHashIi8QVariantE8findNodeERKiPj)
    t._ZNK5QListI7QStringE5countEv           0x00018c6e   Section       10  QtGallery.in(t._ZNK5QListI7QStringE5countEv)
    t._ZNK5QListI7QStringE7indexOfERKS0_i    0x00018c78   Section      110  QtGallery.in(t._ZNK5QListI7QStringE7indexOfERKS0_i)
    t._ZNK5QListI7QStringE7isEmptyEv         0x00018ce6   Section       18  QtGallery.in(t._ZNK5QListI7QStringE7isEmptyEv)
    t._ZNK5QListI7QStringEneERKS1_           0x00018cf8   Section       88  QtGallery.in(t._ZNK5QListI7QStringEneERKS1_)
    t._ZNK5QListIN10QtMobility14QGalleryFilterEE14const_iteratorneERKS3_ 0x00018d50   Section       16  QtGallery.in(t._ZNK5QListIN10QtMobility14QGalleryFilterEE14const_iteratorneERKS3_)
    t._ZNK5QListIN10QtMobility14QGalleryFilterEE3endEv 0x00018d60   Section       14  QtGallery.in(t._ZNK5QListIN10QtMobility14QGalleryFilterEE3endEv)
    t._ZNK5QListIN10QtMobility14QGalleryFilterEE3midEii 0x00018d6e   Section      172  QtGallery.in(t._ZNK5QListIN10QtMobility14QGalleryFilterEE3midEii)
    t._ZNK5QListIN10QtMobility14QGalleryFilterEE3midEii.clean 0x00018e1a   Section       14  QtGallery.in(t._ZNK5QListIN10QtMobility14QGalleryFilterEE3midEii.clean)
    t._ZNK5QListIN10QtMobility14QGalleryFilterEE4sizeEv 0x00018e28   Section        8  QtGallery.in(t._ZNK5QListIN10QtMobility14QGalleryFilterEE4sizeEv)
    t._ZNK5QListIN10QtMobility14QGalleryFilterEE7isEmptyEv 0x00018e30   Section       18  QtGallery.in(t._ZNK5QListIN10QtMobility14QGalleryFilterEE7isEmptyEv)
    t._ZNK5QListIN10QtMobility14QGalleryFilterEEeqERKS2_ 0x00018e42   Section       84  QtGallery.in(t._ZNK5QListIN10QtMobility14QGalleryFilterEEeqERKS2_)
    t._ZNK5QListIN10QtMobility14QGalleryFilterEEplERKS2_ 0x00018e96   Section       18  QtGallery.in(t._ZNK5QListIN10QtMobility14QGalleryFilterEEplERKS2_)
    t._ZNK5QListIN10QtMobility14QGalleryFilterEEplERKS2_.clean 0x00018ea8   Section       10  QtGallery.in(t._ZNK5QListIN10QtMobility14QGalleryFilterEEplERKS2_.clean)
    t._ZNK5QListIiE8containsERKi             0x00018eb2   Section       48  QtGallery.in(t._ZNK5QListIiE8containsERKi)
    t._ZNK6QFlagsIN10QtMobility16QGalleryProperty9AttributeEEorES2_ 0x00018ee2   Section       12  QtGallery.in(t._ZNK6QFlagsIN10QtMobility16QGalleryProperty9AttributeEEorES2_)
    t._ZNK6RArrayImE4FindERKm                0x00018eee   Section        8  QtGallery.in(t._ZNK6RArrayImE4FindERKm)
    t._ZNK7QVectorIiE2atEi                   0x00018ef6   Section       10  QtGallery.in(t._ZNK7QVectorIiE2atEi)
    .extab._ZN10QtMobility16QAbstractGalleryD2Ev 0x00018f00   Data           0  QtGallery.in(.ARM.extab)
    .extab._ZN10QtMobility23QGalleryAbstractRequest10setGalleryEPNS_16QAbstractGalleryE 0x00018f10   Data           0  QtGallery.in(.ARM.extab)
    .extab._ZN10QtMobility30QGalleryAbstractRequestPrivate11_q_finishedEv 0x00018f20   Data           0  QtGallery.in(.ARM.extab)
    .extab._ZN10QtMobility23QGalleryAbstractRequest5clearEv 0x00018f30   Data           0  QtGallery.in(.ARM.extab)
    .extab._ZN10QtMobility23QGalleryAbstractRequest7executeEv 0x00018f48   Data           0  QtGallery.in(.ARM.extab)
    .extab._ZN10QtMobility23QGalleryAbstractRequest11qt_metacallEN11QMetaObject4CallEiPPv 0x00018ff0   Data           0  QtGallery.in(.ARM.extab)
    .extab._ZN10QtMobility23QGalleryAbstractRequestC2ENS0_11RequestTypeEP7QObject 0x00019000   Data           0  QtGallery.in(.ARM.extab)
    .extab._ZN10QtMobility23QGalleryAbstractRequestC2EPNS_16QAbstractGalleryENS0_11RequestTypeEP7QObject 0x00019010   Data           0  QtGallery.in(.ARM.extab)
    .extab._ZN10QtMobility23QGalleryAbstractRequestD2Ev 0x00019020   Data           0  QtGallery.in(.ARM.extab)
    .extab._ZN10QtMobility30QGalleryAbstractRequestPrivateC1EPNS_16QAbstractGalleryENS_23QGalleryAbstractRequest11RequestTypeE 0x00019030   Data           0  QtGallery.in(.ARM.extab)
    .extab._ZN10QtMobility30QGalleryAbstractRequestPrivateD1Ev 0x00019040   Data           0  QtGallery.in(.ARM.extab)
    .extab._ZN10QtMobility24QGalleryAbstractResponseC1EiRK7QStringP7QObject 0x00019058   Data           0  QtGallery.in(.ARM.extab)
    .extab._ZN10QtMobility24QGalleryAbstractResponseD1Ev 0x00019070   Data           0  QtGallery.in(.ARM.extab)
    .extab._ZN10QtMobility24QGalleryAbstractResponse15waitForFinishedEi 0x00019080   Data           0  QtGallery.in(.ARM.extab)
    .extab._ZN10QtMobility24QGalleryAbstractResponseC1EP7QObject 0x00019090   Data           0  QtGallery.in(.ARM.extab)
    .extab._ZN10QtMobility14QGalleryFilterC1Ev 0x000190a0   Data           0  QtGallery.in(.ARM.extab)
    .extab._ZNK10QtMobility14QGalleryFilter20toIntersectionFilterEv 0x000190b0   Data           0  QtGallery.in(.ARM.extab)
    .extab._ZNK10QtMobility14QGalleryFilter13toUnionFilterEv 0x000190d8   Data           0  QtGallery.in(.ARM.extab)
    .extab._ZNK10QtMobility14QGalleryFilter16toMetaDataFilterEv 0x00019100   Data           0  QtGallery.in(.ARM.extab)
    .extab._ZN10QtMobility26QGalleryIntersectionFilterC1Ev 0x00019128   Data           0  QtGallery.in(.ARM.extab)
    .extab._ZN10QtMobility26QGalleryIntersectionFilterC1ERKNS_22QGalleryMetaDataFilterE 0x00019138   Data           0  QtGallery.in(.ARM.extab)
    .extab._ZN10QtMobility26QGalleryIntersectionFilterC1ERKNS_19QGalleryUnionFilterE 0x00019150   Data           0  QtGallery.in(.ARM.extab)
    .extab._ZN10QtMobility26QGalleryIntersectionFilter6appendERKNS_22QGalleryMetaDataFilterE 0x00019168   Data           0  QtGallery.in(.ARM.extab)
    .extab._ZN10QtMobility26QGalleryIntersectionFilter6appendERKNS_19QGalleryUnionFilterE 0x00019178   Data           0  QtGallery.in(.ARM.extab)
    .extab._ZN10QtMobility26QGalleryIntersectionFilter7prependERKNS_22QGalleryMetaDataFilterE 0x00019188   Data           0  QtGallery.in(.ARM.extab)
    .extab._ZN10QtMobility26QGalleryIntersectionFilter7prependERKNS_19QGalleryUnionFilterE 0x00019198   Data           0  QtGallery.in(.ARM.extab)
    .extab._ZN10QtMobility26QGalleryIntersectionFilter7prependERKS0_ 0x000191a8   Data           0  QtGallery.in(.ARM.extab)
    .extab._ZN10QtMobility26QGalleryIntersectionFilter6insertEiRKNS_22QGalleryMetaDataFilterE 0x000191b8   Data           0  QtGallery.in(.ARM.extab)
    .extab._ZN10QtMobility26QGalleryIntersectionFilter6insertEiRKNS_19QGalleryUnionFilterE 0x000191c8   Data           0  QtGallery.in(.ARM.extab)
    .extab._ZN10QtMobility26QGalleryIntersectionFilter6insertEiRKS0_ 0x000191d8   Data           0  QtGallery.in(.ARM.extab)
    .extab._ZN10QtMobility26QGalleryIntersectionFilter7replaceEiRKNS_22QGalleryMetaDataFilterE 0x00019218   Data           0  QtGallery.in(.ARM.extab)
    .extab._ZN10QtMobility26QGalleryIntersectionFilter7replaceEiRKNS_19QGalleryUnionFilterE 0x00019228   Data           0  QtGallery.in(.ARM.extab)
    .extab._ZN10QtMobility19QGalleryUnionFilterC1Ev 0x00019238   Data           0  QtGallery.in(.ARM.extab)
    .extab._ZN10QtMobility19QGalleryUnionFilterC1ERKNS_22QGalleryMetaDataFilterE 0x00019248   Data           0  QtGallery.in(.ARM.extab)
    .extab._ZN10QtMobility19QGalleryUnionFilterC1ERKNS_26QGalleryIntersectionFilterE 0x00019260   Data           0  QtGallery.in(.ARM.extab)
    .extab._ZN10QtMobility19QGalleryUnionFilter6appendERKNS_22QGalleryMetaDataFilterE 0x00019278   Data           0  QtGallery.in(.ARM.extab)
    .extab._ZN10QtMobility19QGalleryUnionFilter6appendERKNS_26QGalleryIntersectionFilterE 0x00019288   Data           0  QtGallery.in(.ARM.extab)
    .extab._ZN10QtMobility19QGalleryUnionFilter7prependERKNS_22QGalleryMetaDataFilterE 0x00019298   Data           0  QtGallery.in(.ARM.extab)
    .extab._ZN10QtMobility19QGalleryUnionFilter7prependERKNS_26QGalleryIntersectionFilterE 0x000192a8   Data           0  QtGallery.in(.ARM.extab)
    .extab._ZN10QtMobility19QGalleryUnionFilter7prependERKS0_ 0x000192b8   Data           0  QtGallery.in(.ARM.extab)
    .extab._ZN10QtMobility19QGalleryUnionFilter6insertEiRKNS_22QGalleryMetaDataFilterE 0x000192c8   Data           0  QtGallery.in(.ARM.extab)
    .extab._ZN10QtMobility19QGalleryUnionFilter6insertEiRKNS_26QGalleryIntersectionFilterE 0x000192d8   Data           0  QtGallery.in(.ARM.extab)
    .extab._ZN10QtMobility19QGalleryUnionFilter6insertEiRKS0_ 0x000192e8   Data           0  QtGallery.in(.ARM.extab)
    .extab._ZN10QtMobility19QGalleryUnionFilter7replaceEiRKNS_22QGalleryMetaDataFilterE 0x00019328   Data           0  QtGallery.in(.ARM.extab)
    .extab._ZN10QtMobility19QGalleryUnionFilter7replaceEiRKNS_26QGalleryIntersectionFilterE 0x00019338   Data           0  QtGallery.in(.ARM.extab)
    .extab._ZN10QtMobility22QGalleryMetaDataFilterC1Ev 0x00019348   Data           0  QtGallery.in(.ARM.extab)
    .extab._ZN10QtMobility22QGalleryMetaDataFilterC1ERK7QStringRK8QVariantNS_14QGalleryFilter10ComparatorE 0x00019358   Data           0  QtGallery.in(.ARM.extab)
    .extab._ZNK10QtMobility22QGalleryMetaDataFilterntEv 0x00019368   Data           0  QtGallery.in(.ARM.extab)
    .extab._ZN10QtMobilityaaERKNS_26QGalleryIntersectionFilterES2_ 0x00019378   Data           0  QtGallery.in(.ARM.extab)
    .extab._ZN10QtMobilityooERKNS_19QGalleryUnionFilterES2_ 0x00019388   Data           0  QtGallery.in(.ARM.extab)
    .extab._ZN6QDebugD1Ev                    0x00019398   Data           0  QtGallery.in(.ARM.extab)
    .extab._ZN6QDebuglsEPKc                  0x000193bc   Data           0  QtGallery.in(.ARM.extab)
    .extab._ZN10QtMobility33QGalleryIntersectionFilterPrivateC1ENS_14QGalleryFilter4TypeE 0x000193cc   Data           0  QtGallery.in(.ARM.extab)
    .extab._ZN10QtMobility26QGalleryUnionFilterPrivateC1ENS_14QGalleryFilter4TypeE 0x000193dc   Data           0  QtGallery.in(.ARM.extab)
    .extab._ZN10QtMobility29QGalleryMetaDataFilterPrivateC1ENS_14QGalleryFilter4TypeE 0x000193ec   Data           0  QtGallery.in(.ARM.extab)
    .extab._ZN5QListIN10QtMobility14QGalleryFilterEE9node_copyEPNS2_4NodeES4_S4_ 0x000193fc   Data           0  QtGallery.in(.ARM.extab)
    .extab._ZN5QListIN10QtMobility14QGalleryFilterEE13detach_helperEi 0x00019420   Data           0  QtGallery.in(.ARM.extab)
    .extab._ZN5QListIN10QtMobility14QGalleryFilterEE14node_constructEPNS2_4NodeERKS1_ 0x0001943c   Data           0  QtGallery.in(.ARM.extab)
    .extab._ZN5QListIN10QtMobility14QGalleryFilterEE18detach_helper_growEii 0x0001944c   Data           0  QtGallery.in(.ARM.extab)
    .extab._ZN5QListIN10QtMobility14QGalleryFilterEE6appendERKS1_ 0x0001947c   Data           0  QtGallery.in(.ARM.extab)
    .extab._ZN5QListIN10QtMobility14QGalleryFilterEEpLERKS2_ 0x000194ac   Data           0  QtGallery.in(.ARM.extab)
    .extab._ZN5QListIN10QtMobility14QGalleryFilterEE7prependERKS1_ 0x000194c8   Data           0  QtGallery.in(.ARM.extab)
    .extab._ZN5QListIN10QtMobility14QGalleryFilterEE6insertEiRKS1_ 0x000194f8   Data           0  QtGallery.in(.ARM.extab)
    .extab._ZNK5QListIN10QtMobility14QGalleryFilterEE3midEii 0x00019528   Data           0  QtGallery.in(.ARM.extab)
    .extab._ZN5QListIN10QtMobility14QGalleryFilterEE5clearEv 0x00019554   Data           0  QtGallery.in(.ARM.extab)
    .extab._ZN10QtMobility29QGalleryMetaDataFilterPrivateD1Ev 0x00019564   Data           0  QtGallery.in(.ARM.extab)
    .extab._ZNK5QListIN10QtMobility14QGalleryFilterEEplERKS2_ 0x0001957c   Data           0  QtGallery.in(.ARM.extab)
    .extab._ZN18QSharedDataPointerIN10QtMobility33QGalleryIntersectionFilterPrivateEE13detach_helperEv 0x0001958c   Data           0  QtGallery.in(.ARM.extab)
    .extab._ZN18QSharedDataPointerIN10QtMobility26QGalleryUnionFilterPrivateEE13detach_helperEv 0x000195a4   Data           0  QtGallery.in(.ARM.extab)
    .extab._ZN18QSharedDataPointerIN10QtMobility29QGalleryMetaDataFilterPrivateEE13detach_helperEv 0x000195bc   Data           0  QtGallery.in(.ARM.extab)
    .extab._ZNK10QtMobility33QGalleryIntersectionFilterPrivate10printDebugER6QDebug 0x000195dc   Data           0  QtGallery.in(.ARM.extab)
    .extab._ZN10QtMobility33QGalleryIntersectionFilterPrivateD1Ev 0x000195f4   Data           0  QtGallery.in(.ARM.extab)
    .extab._ZNK10QtMobility26QGalleryUnionFilterPrivate10printDebugER6QDebug 0x00019604   Data           0  QtGallery.in(.ARM.extab)
    .extab._ZN10QtMobility26QGalleryUnionFilterPrivateD1Ev 0x0001961c   Data           0  QtGallery.in(.ARM.extab)
    .extab._ZNK10QtMobility29QGalleryMetaDataFilterPrivate10printDebugER6QDebug 0x0001962c   Data           0  QtGallery.in(.ARM.extab)
    .extab._ZN10QtMobility19QGalleryItemRequest11qt_metacallEN11QMetaObject4CallEiPPv 0x0001963c   Data           0  QtGallery.in(.ARM.extab)
    .extab._ZN10QtMobility19QGalleryItemRequestC1EP7QObject 0x0001966c   Data           0  QtGallery.in(.ARM.extab)
    .extab._ZN10QtMobility19QGalleryItemRequestC1EPNS_16QAbstractGalleryEP7QObject 0x0001967c   Data           0  QtGallery.in(.ARM.extab)
    .extab._ZN10QtMobility19QGalleryItemRequest11setResponseEPNS_24QGalleryAbstractResponseE 0x0001968c   Data           0  QtGallery.in(.ARM.extab)
    .extab._ZN5QListIN10QtMobility16QGalleryResourceEE13detach_helperEi 0x000196b0   Data           0  QtGallery.in(.ARM.extab)
    .extab._ZN10QtMobility26QGalleryItemRequestPrivateC1EPNS_16QAbstractGalleryE 0x000196f4   Data           0  QtGallery.in(.ARM.extab)
    .extab._ZN5QListIiE18detach_helper_growEii 0x00019724   Data           0  QtGallery.in(.ARM.extab)
    .extab._ZN10QtMobility26QGalleryItemRequestPrivateD1Ev 0x00019754   Data           0  QtGallery.in(.ARM.extab)
    .extab._ZN5QListIiE13detach_helperEv     0x0001977c   Data           0  QtGallery.in(.ARM.extab)
    .extab._ZN10QtMobility25QGalleryQueryModelPrivate18_q_metaDataChangedEiiRK5QListIiE 0x00019798   Data           0  QtGallery.in(.ARM.extab)
    .extab._ZN10QtMobility25QGalleryQueryModelPrivate13_q_itemsMovedEiii 0x000197a8   Data           0  QtGallery.in(.ARM.extab)
    .extab._ZN10QtMobility25QGalleryQueryModelPrivate15_q_itemsRemovedEii 0x000197c0   Data           0  QtGallery.in(.ARM.extab)
    .extab._ZN10QtMobility25QGalleryQueryModelPrivate16_q_itemsInsertedEii 0x000197d0   Data           0  QtGallery.in(.ARM.extab)
    .extab._ZN10QtMobility25QGalleryQueryModelPrivate19_q_resultSetChangedEPNS_17QGalleryResultSetE 0x000197e0   Data           0  QtGallery.in(.ARM.extab)
    .extab._ZN10QtMobility18QGalleryQueryModel11qt_metacallEN11QMetaObject4CallEiPPv 0x000197f8   Data           0  QtGallery.in(.ARM.extab)
    .extab._ZN10QtMobility18QGalleryQueryModelC1EP7QObject 0x00019828   Data           0  QtGallery.in(.ARM.extab)
    .extab._ZN10QtMobility18QGalleryQueryModelC1EPNS_16QAbstractGalleryEP7QObject 0x00019840   Data           0  QtGallery.in(.ARM.extab)
    .extab._ZN10QtMobility18QGalleryQueryModelD1Ev 0x00019858   Data           0  QtGallery.in(.ARM.extab)
    .extab._ZN10QtMobility18QGalleryQueryModel17setRolePropertiesEiRK5QHashIi7QStringE 0x00019868   Data           0  QtGallery.in(.ARM.extab)
    .extab._ZN10QtMobility18QGalleryQueryModel9addColumnERK5QHashIi7QStringE 0x00019878   Data           0  QtGallery.in(.ARM.extab)
    .extab._ZN10QtMobility18QGalleryQueryModel9addColumnERK7QStringi 0x00019890   Data           0  QtGallery.in(.ARM.extab)
    .extab._ZN10QtMobility18QGalleryQueryModel12insertColumnEiRK5QHashIi7QStringE 0x000198a0   Data           0  QtGallery.in(.ARM.extab)
    .extab._ZN10QtMobility18QGalleryQueryModel12insertColumnEiRK7QStringi 0x000198b8   Data           0  QtGallery.in(.ARM.extab)
    .extab._ZN10QtMobility18QGalleryQueryModel12removeColumnEi 0x000198c8   Data           0  QtGallery.in(.ARM.extab)
    .extab._ZN10QtMobility25QGalleryQueryModelPrivate11updateRolesEv 0x000198d8   Data           0  QtGallery.in(.ARM.extab)
    .extab._ZN10QtMobility18QGalleryQueryModel7executeEv 0x000198e8   Data           0  QtGallery.in(.ARM.extab)
    .extab._ZNK10QtMobility18QGalleryQueryModel5indexEiiRK11QModelIndex 0x00019908   Data           0  QtGallery.in(.ARM.extab)
    .extab._ZNK10QtMobility18QGalleryQueryModel10headerDataEiN2Qt11OrientationEi 0x00019918   Data           0  QtGallery.in(.ARM.extab)
    .extab._ZN5QListI7QStringE9node_copyEPNS1_4NodeES3_S3_ 0x00019948   Data           0  QtGallery.in(.ARM.extab)
    .extab._ZN5QListI7QStringE13detach_helperEi 0x0001996c   Data           0  QtGallery.in(.ARM.extab)
    .extab._ZN5QListI7QStringE18detach_helper_growEii 0x00019988   Data           0  QtGallery.in(.ARM.extab)
    .extab._ZN5QHashIi7QStringE6insertERKiRKS0_ 0x000199b8   Data           0  QtGallery.in(.ARM.extab)
    .extab._ZN14QScopedPointerIN10QtMobility25QGalleryQueryModelPrivateE21QScopedPointerDeleterIS1_EED1Ev 0x000199c8   Data           0  QtGallery.in(.ARM.extab)
    .extab._ZN10QtMobility25QGalleryQueryModelPrivateC1EPNS_16QAbstractGalleryE 0x000199f8   Data           0  QtGallery.in(.ARM.extab)
    .extab._ZN7QVectorIiE7reallocEii         0x00019a28   Data           0  QtGallery.in(.ARM.extab)
    .extab._ZN7QVectorI6QFlagsIN2Qt8ItemFlagEEE7reallocEii 0x00019a44   Data           0  QtGallery.in(.ARM.extab)
    .extab._ZN7QVectorI5QHashIi7QStringEE7reallocEii 0x00019a60   Data           0  QtGallery.in(.ARM.extab)
    .extab._ZN7QVectorI5QHashIi8QVariantEE7reallocEii 0x00019a8c   Data           0  QtGallery.in(.ARM.extab)
    .extab._ZN7QVectorI5QHashIi8QVariantEE6appendERKS2_ 0x00019ab8   Data           0  QtGallery.in(.ARM.extab)
    .extab._ZN7QVectorI5QHashIi7QStringEE6appendERKS2_ 0x00019ad8   Data           0  QtGallery.in(.ARM.extab)
    .extab._ZN7QVectorI5QHashIi8QVariantEE6insertEPS2_iRKS2_ 0x00019af8   Data           0  QtGallery.in(.ARM.extab)
    .extab._ZN7QVectorI5QHashIi7QStringEE6insertEPS2_iRKS2_ 0x00019b18   Data           0  QtGallery.in(.ARM.extab)
    .extab._ZN5QHashIi7QStringE13duplicateNodeEPN9QHashData4NodeEPv 0x00019b38   Data           0  QtGallery.in(.ARM.extab)
    .extab._ZN5QHashIi8QVariantE13duplicateNodeEPN9QHashData4NodeEPv 0x00019b48   Data           0  QtGallery.in(.ARM.extab)
    .extab._ZN5QListI7QStringEpLERKS1_       0x00019b58   Data           0  QtGallery.in(.ARM.extab)
    .extab._ZNK5QHashIi7QStringE6valuesEv    0x00019b74   Data           0  QtGallery.in(.ARM.extab)
    .extab._ZN5QHashIi8QVariantE6insertERKiRKS0_ 0x00019b84   Data           0  QtGallery.in(.ARM.extab)
    .extab._ZN5QListI7QStringE6appendERKS0_  0x00019b94   Data           0  QtGallery.in(.ARM.extab)
    .extab._ZN5QListI7QStringE14node_constructEPNS1_4NodeERKS0_ 0x00019bc4   Data           0  QtGallery.in(.ARM.extab)
    .extab._ZN10QtMobility20QGalleryQueryRequest11qt_metacallEN11QMetaObject4CallEiPPv 0x00019bd4   Data           0  QtGallery.in(.ARM.extab)
    .extab._ZN10QtMobility20QGalleryQueryRequestC1EP7QObject 0x00019c24   Data           0  QtGallery.in(.ARM.extab)
    .extab._ZN10QtMobility20QGalleryQueryRequestC1EPNS_16QAbstractGalleryEP7QObject 0x00019c34   Data           0  QtGallery.in(.ARM.extab)
    .extab._ZN10QtMobility27QGalleryQueryRequestPrivateC1EPNS_16QAbstractGalleryE 0x00019c44   Data           0  QtGallery.in(.ARM.extab)
    .extab._ZN10QtMobility27QGalleryQueryRequestPrivateD1Ev 0x00019c84   Data           0  QtGallery.in(.ARM.extab)
    .extab._ZN10QtMobility16QGalleryResourceC1Ev 0x00019cbc   Data           0  QtGallery.in(.ARM.extab)
    .extab._ZN10QtMobility16QGalleryResourceC1ERK4QUrl 0x00019ccc   Data           0  QtGallery.in(.ARM.extab)
    .extab._ZN10QtMobility16QGalleryResourceC1ERK4QUrl4QMapIi8QVariantE 0x00019cdc   Data           0  QtGallery.in(.ARM.extab)
    .extab._ZN10QtMobility16QGalleryResourceC1ERKS0_ 0x00019cec   Data           0  QtGallery.in(.ARM.extab)
    .extab._ZN10QtMobility16QGalleryResourceD1Ev 0x00019cfc   Data           0  QtGallery.in(.ARM.extab)
    .extab._ZN4QMapIi8QVariantE13detach_helperEv 0x00019d0c   Data           0  QtGallery.in(.ARM.extab)
    .extab._ZN4QMapIi8QVariantE11node_createEP8QMapDataPPNS2_4NodeERKiRKS0_ 0x00019d28   Data           0  QtGallery.in(.ARM.extab)
    .extab._ZN10QtMobility17QGalleryResultSetC2EP7QObject 0x00019d60   Data           0  QtGallery.in(.ARM.extab)
    .extab._ZNK10QtMobility17QGalleryResultSet9resourcesEv 0x00019d70   Data           0  QtGallery.in(.ARM.extab)
    .extab._ZN5QListIN10QtMobility16QGalleryResourceEE14node_constructEPNS2_4NodeERKS1_ 0x00019da0   Data           0  QtGallery.in(.ARM.extab)
    .extab._ZN5QListIN10QtMobility16QGalleryResourceEE9node_copyEPNS2_4NodeES4_S4_ 0x00019db0   Data           0  QtGallery.in(.ARM.extab)
    .extab._ZN5QListIN10QtMobility16QGalleryResourceEE6appendERKS1_ 0x00019dd4   Data           0  QtGallery.in(.ARM.extab)
    .extab._ZN10QtMobility19QGalleryTypeRequest11qt_metacallEN11QMetaObject4CallEiPPv 0x00019e04   Data           0  QtGallery.in(.ARM.extab)
    .extab._ZN10QtMobility19QGalleryTypeRequestC1EP7QObject 0x00019e1c   Data           0  QtGallery.in(.ARM.extab)
    .extab._ZN10QtMobility19QGalleryTypeRequestC1EPNS_16QAbstractGalleryEP7QObject 0x00019e2c   Data           0  QtGallery.in(.ARM.extab)
    .extab._ZN10QtMobility19QGalleryTypeRequest11setResponseEPNS_24QGalleryAbstractResponseE 0x00019e3c   Data           0  QtGallery.in(.ARM.extab)
    .extab._ZN10QtMobility26QGalleryTypeRequestPrivateC1EPNS_16QAbstractGalleryE 0x00019e60   Data           0  QtGallery.in(.ARM.extab)
    .extab._ZN10QtMobility26QGalleryTypeRequestPrivateD1Ev 0x00019e90   Data           0  QtGallery.in(.ARM.extab)
    .extab._ZN10QtMobility20QMDEGalleryResultSetC2EP7QObject 0x00019eb8   Data           0  QtGallery.in(.ARM.extab)
    .extab._ZN10QtMobility20QMDEGalleryResultSetD2Ev 0x00019ed0   Data           0  QtGallery.in(.ARM.extab)
    .extab._ZNK10QtMobility20QMDEGalleryResultSet7itemUrlEv 0x00019ee0   Data           0  QtGallery.in(.ARM.extab)
    .extab._ZNK10QtMobility20QMDEGalleryResultSet8itemTypeEv 0x00019ef8   Data           0  QtGallery.in(.ARM.extab)
    .extab._ZNK10QtMobility20QMDEGalleryResultSet9resourcesEv 0x00019f08   Data           0  QtGallery.in(.ARM.extab)
    .extab._ZNK10QtMobility20QMDEGalleryResultSet8metaDataEi 0x00019f98   Data           0  QtGallery.in(.ARM.extab)
    .extab._ZN10QtMobility20QMDEGalleryResultSet11setMetaDataEiRK8QVariant 0x00019fd0   Data           0  QtGallery.in(.ARM.extab)
    .extab._ZN5QListIN10QtMobility16QGalleryResourceEE18detach_helper_growEii 0x0001a018   Data           0  QtGallery.in(.ARM.extab)
    .extab._ZN10QtMobility26QDocumentGalleryMDSUtility27ObjDefFromItemTypeForMDS20LER16CMdENamespaceDef7QString 0x0001a048   Data           0  QtGallery.in(.ARM.extab)
    .extab._ZN10QtMobility26QDocumentGalleryMDSUtility19ObjDefFromItemTypeLER16CMdENamespaceDef7QString 0x0001a070   Data           0  QtGallery.in(.ARM.extab)
    .extab._ZN10QtMobility26QDocumentGalleryMDSUtility24GetDataFieldsForItemTypeER11QStringList7QString 0x0001a080   Data           0  QtGallery.in(.ARM.extab)
    .extab._ZN10QtMobility26QDocumentGalleryMDSUtility25GetMetaDataFieldForMDS20LEP10CMdEObjectR8QVarianti 0x0001a380   Data           0  QtGallery.in(.ARM.extab)
    .extab._ZN10QtMobility26QDocumentGalleryMDSUtility19isItemTypeSupportedERK7QString 0x0001a478   Data           0  QtGallery.in(.ARM.extab)
    .extab._ZN10QtMobility26QDocumentGalleryMDSUtility14GetPropertyKeyERK7QString 0x0001a4b0   Data           0  QtGallery.in(.ARM.extab)
    .extab._ZN10QtMobility26QDocumentGalleryMDSUtility26GetMDSPropertyDefForMDS20LERK7QStringR16CMdENamespaceDef 0x0001a608   Data           0  QtGallery.in(.ARM.extab)
    .extab._ZN10QtMobility26QDocumentGalleryMDSUtility29InsertReal32PropertyConditionER18CMdELogicConditionP15CMdEPropertyDefR8QVariantRNS_22QGalleryMetaDataFilterE 0x0001a740   Data           0  QtGallery.in(.ARM.extab)
    .extab._ZN10QtMobility26QDocumentGalleryMDSUtility27InsertUIntPropertyConditionER18CMdELogicConditionP15CMdEPropertyDefR8QVariantRNS_22QGalleryMetaDataFilterE 0x0001a7e8   Data           0  QtGallery.in(.ARM.extab)
    .extab._ZN10QtMobility26QDocumentGalleryMDSUtility29InsertStringPropertyConditionER18CMdELogicConditionP15CMdEPropertyDefR8QVariantRNS_22QGalleryMetaDataFilterE 0x0001a890   Data           0  QtGallery.in(.ARM.extab)
    .extab._ZN10QtMobility26QDocumentGalleryMDSUtility28InsertTTImePropertyConditionER18CMdELogicConditionP15CMdEPropertyDefR8QVariantRNS_22QGalleryMetaDataFilterE 0x0001a920   Data           0  QtGallery.in(.ARM.extab)
    .extab._ZN10QtMobility26QDocumentGalleryMDSUtility29InsertUInt32PropertyConditionER18CMdELogicConditionP15CMdEPropertyDefR8QVariantRNS_22QGalleryMetaDataFilterE 0x0001a9d0   Data           0  QtGallery.in(.ARM.extab)
    .extab._ZN10QtMobility26QDocumentGalleryMDSUtility26InsertUriPropertyConditionER18CMdELogicConditionR8QVariantRNS_22QGalleryMetaDataFilterE 0x0001aa78   Data           0  QtGallery.in(.ARM.extab)
    .extab._ZN10QtMobility26QDocumentGalleryMDSUtility17AddMetadataFilterER18CMdELogicConditionRNS_14QGalleryFilterER16CMdENamespaceDef 0x0001aad8   Data           0  QtGallery.in(.ARM.extab)
    .extab._ZN10QtMobility26QDocumentGalleryMDSUtility21AddIntersectionFilterER18CMdELogicConditionRNS_14QGalleryFilterER16CMdENamespaceDef 0x0001ab68   Data           0  QtGallery.in(.ARM.extab)
    .extab._ZN10QtMobility26QDocumentGalleryMDSUtility9AddFilterER18CMdELogicConditionRNS_14QGalleryFilterER16CMdENamespaceDef 0x0001ab90   Data           0  QtGallery.in(.ARM.extab)
    .extab._ZN10QtMobility26QDocumentGalleryMDSUtility14AddUnionFilterER18CMdELogicConditionRNS_14QGalleryFilterER16CMdENamespaceDef 0x0001abd8   Data           0  QtGallery.in(.ARM.extab)
    .extab._ZN10QtMobility26QDocumentGalleryMDSUtility20SetupQueryConditionsEP15CMdEObjectQueryPNS_20QGalleryQueryRequestER16CMdENamespaceDef 0x0001ac00   Data           0  QtGallery.in(.ARM.extab)
    .extab._ZN10QtMobility26QDocumentGalleryMDSUtility20setMdeStringPropertyEP10CMdEObjectRK8QVariantP15CMdEPropertyDef 0x0001acf0   Data           0  QtGallery.in(.ARM.extab)
    .extab._ZN10QtMobility26QDocumentGalleryMDSUtility25SetMetaDataFieldForMDS20LEP10CMdEObjectRK8QVarianti 0x0001ad20   Data           0  QtGallery.in(.ARM.extab)
    .extab._ZN8QVariant8setValueImEEvRKT_    0x0001b288   Data           0  QtGallery.in(.ARM.extab)
    .extab._ZN8QVariant8setValueIjEEvRKT_    0x0001b2a8   Data           0  QtGallery.in(.ARM.extab)
    .extab._ZN8QVariant8setValueIdEEvRKT_    0x0001b2c8   Data           0  QtGallery.in(.ARM.extab)
    .extab._Z16qVariantSetValueI4QUrlEvR8QVariantRKT_ 0x0001b2e8   Data           0  QtGallery.in(.ARM.extab)
    .extab._Z16qVariantSetValueI7QStringEvR8QVariantRKT_ 0x0001b310   Data           0  QtGallery.in(.ARM.extab)
    .extab._Z16qVariantSetValueI9QDateTimeEvR8QVariantRKT_ 0x0001b338   Data           0  QtGallery.in(.ARM.extab)
    .extab._ZN10QtMobility24QMDEGalleryTypeResultSetC1EPNS_11QMdeSessionEPNS_19QGalleryTypeRequestE 0x0001b360   Data           0  QtGallery.in(.ARM.extab)
    .extab._ZN10QtMobility24QMDEGalleryTypeResultSetD1Ev 0x0001b440   Data           0  QtGallery.in(.ARM.extab)
    .extab._ZNK10QtMobility24QMDEGalleryTypeResultSet8metaDataEi 0x0001b460   Data           0  QtGallery.in(.ARM.extab)
    .extab._ZN10QtMobility24QMDEGalleryTypeResultSet20HandleQueryCompletedER9CMdEQueryi 0x0001b480   Data           0  QtGallery.in(.ARM.extab)
    .extab._ZN10QtMobility24QMDEGalleryItemResultSet11createQueryEv 0x0001b490   Data           0  QtGallery.in(.ARM.extab)
    .extab._ZN10QtMobility24QMDEGalleryItemResultSetC1EPNS_11QMdeSessionEP7QObject 0x0001b4e8   Data           0  QtGallery.in(.ARM.extab)
    .extab._ZN10QtMobility24QMDEGalleryItemResultSetD1Ev 0x0001b4f8   Data           0  QtGallery.in(.ARM.extab)
    .extab._ZN10QtMobility24QMDEGalleryItemResultSet27doHandleObjectNotificationLER11CMdESessionNS0_35QMdeSessionObserverNotificationTypeERK6RArrayImE 0x0001b508   Data           0  QtGallery.in(.ARM.extab)
    .extab._ZN10QtMobility24QMDEGalleryItemResultSet20HandleObjectModifiedER11CMdESessionRK6RArrayImE 0x0001b584   Data           0  QtGallery.in(.ARM.extab)
    .extab._ZN10QtMobility24QMDEGalleryItemResultSet19HandleObjectRemovedER11CMdESessionRK6RArrayImE 0x0001b5b4   Data           0  QtGallery.in(.ARM.extab)
    .extab._ZN10QtMobility25QMDEGalleryQueryResultSet11createQueryEv 0x0001b5e4   Data           0  QtGallery.in(.ARM.extab)
    .extab._ZN10QtMobility25QMDEGalleryQueryResultSetC1EPNS_11QMdeSessionEP7QObject 0x0001b654   Data           0  QtGallery.in(.ARM.extab)
    .extab._ZN10QtMobility25QMDEGalleryQueryResultSetD1Ev 0x0001b66c   Data           0  QtGallery.in(.ARM.extab)
    .extab._ZN10QtMobility25QMDEGalleryQueryResultSet20HandleQueryCompletedER9CMdEQueryi 0x0001b684   Data           0  QtGallery.in(.ARM.extab)
    .extab._ZN10QtMobility25QMDEGalleryQueryResultSet27doHandleObjectNotificationLER11CMdESessionNS0_40QMdeSessionObserverQueryNotificationTypeERK6RArrayImE 0x0001b6b4   Data           0  QtGallery.in(.ARM.extab)
    .extab._ZN10QtMobility25QMDEGalleryQueryResultSet17HandleObjectAddedER11CMdESessionRK6RArrayImE 0x0001b730   Data           0  QtGallery.in(.ARM.extab)
    .extab._ZN10QtMobility25QMDEGalleryQueryResultSet20HandleObjectModifiedER11CMdESessionRK6RArrayImE 0x0001b760   Data           0  QtGallery.in(.ARM.extab)
    .extab._ZN10QtMobility25QMDEGalleryQueryResultSet19HandleObjectRemovedER11CMdESessionRK6RArrayImE 0x0001b790   Data           0  QtGallery.in(.ARM.extab)
    .extab._ZN10QtMobility56_GLOBAL__N__32_qmdegallerycategoryresultset_cpp_b8a7949f17qt_getPropertyDefER16CMdENamespaceDefRK7TDesC16S5_ 0x0001b7c0   Data           0  QtGallery.in(.ARM.extab)
    .extab._ZN10QtMobility28QMDEGalleryCategoryResultSet20appendScopeConditionEP18CMdELogicConditionRK8QVariantR16CMdENamespaceDef 0x0001b808   Data           0  QtGallery.in(.ARM.extab)
    .extab._ZN10QtMobility56_GLOBAL__N__32_qmdegallerycategoryresultset_cpp_b8a7949f20qt_addPropertyFilterEP15CMdEObjectQueryRK15CMdEPropertyDef 0x0001b830   Data           0  QtGallery.in(.ARM.extab)
    .extab._ZN10QtMobility56_GLOBAL__N__32_qmdegallerycategoryresultset_cpp_b8a7949f17qt_getPropertyDefER13CMdEObjectDefRK7TDesC16 0x0001b858   Data           0  QtGallery.in(.ARM.extab)
    .extab._ZN10QtMobility56_GLOBAL__N__32_qmdegallerycategoryresultset_cpp_b8a7949f15qt_getObjectDefER16CMdENamespaceDefRK7TDesC16 0x0001b880   Data           0  QtGallery.in(.ARM.extab)
    .extab._ZN10QtMobility28QMDEGalleryCategoryResultSet15createTypeQueryEP14QScopedPointerI15CMdEObjectQuery21QScopedPointerDeleterIS2_EEPNS_11QMdeSessionERK7QStringP17MMdEQueryObserver 0x0001b8a8   Data           0  QtGallery.in(.ARM.extab)
    .extab._ZN10QtMobility28QMDEGalleryCategoryResultSet10itemIdTypeERK7QString 0x0001b8d0   Data           0  QtGallery.in(.ARM.extab)
    .extab._ZN10QtMobility56_GLOBAL__N__32_qmdegallerycategoryresultset_cpp_b8a7949f15qt_setSortOrderEP15CMdEObjectQueryRK11QStringListRKNS0_23QMdeGalleryCategoryTypeER16CMdENamespaceDef 0x0001b8f0   Data           0  QtGallery.in(.ARM.extab)
    .extab._ZN10QtMobility56_GLOBAL__N__32_qmdegallerycategoryresultset_cpp_b8a7949f18qt_appendConditionEP18CMdELogicConditionRKNS_22QGalleryMetaDataFilterERKNS0_23QMdeGalleryCategoryTypeERK15CMdEPropertyDef 0x0001b928   Data           0  QtGallery.in(.ARM.extab)
    .extab._ZN10QtMobility56_GLOBAL__N__32_qmdegallerycategoryresultset_cpp_b8a7949f19qt_appendConditionsEP18CMdELogicConditionRK5QListINS_14QGalleryFilterEERKNS0_23QMdeGalleryCategoryTypeERK15CMdEPropertyDef 0x0001b9d8   Data           0  QtGallery.in(.ARM.extab)
    .extab._ZN10QtMobility56_GLOBAL__N__32_qmdegallerycategoryresultset_cpp_b8a7949f24qt_appendFilterConditionEP18CMdELogicConditionRKNS_14QGalleryFilterERKNS0_23QMdeGalleryCategoryTypeERK15CMdEPropertyDef 0x0001ba58   Data           0  QtGallery.in(.ARM.extab)
    .extab._ZN10QtMobility28QMDEGalleryCategoryResultSetC1EPNS_11QMdeSessionERK7QStringRK11QStringListS8_RK8QVariantRKNS_14QGalleryFilterEiiP7QObject 0x0001bab8   Data           0  QtGallery.in(.ARM.extab)
    .extab._ZN10QtMobility28QMDEGalleryCategoryResultSetD1Ev 0x0001bbf8   Data           0  QtGallery.in(.ARM.extab)
    .extab._ZNK10QtMobility28QMDEGalleryCategoryResultSet6itemIdEv 0x0001bc38   Data           0  QtGallery.in(.ARM.extab)
    .extab._ZNK10QtMobility28QMDEGalleryCategoryResultSet8itemTypeEv 0x0001bc70   Data           0  QtGallery.in(.ARM.extab)
    .extab._ZNK10QtMobility28QMDEGalleryCategoryResultSet8metaDataEi 0x0001bc80   Data           0  QtGallery.in(.ARM.extab)
    .extab._ZN10QtMobility28QMDEGalleryCategoryResultSet20HandleQueryCompletedER9CMdEQueryi 0x0001bc90   Data           0  QtGallery.in(.ARM.extab)
    .extab._ZN10QtMobility56_GLOBAL__N__32_qmdegallerycategoryresultset_cpp_b8a7949f23qt_appendScopeConditionEP18CMdELogicConditionjR16CMdENamespaceDef 0x0001bca0   Data           0  QtGallery.in(.ARM.extab)
    .extab._ZN10QtMobility56_GLOBAL__N__32_qmdegallerycategoryresultset_cpp_b8a7949f23qt_appendScopeConditionEP18CMdELogicConditionRKNS0_23QMdeGalleryCategoryTypeERK7QStringR16CMdENamespaceDef 0x0001bce8   Data           0  QtGallery.in(.ARM.extab)
    .extab._ZN10QtMobility56_GLOBAL__N__32_qmdegallerycategoryresultset_cpp_b8a7949f33qt_filterMdeCategoryPropertyNamesERK7QStringRK11QStringList 0x0001bd10   Data           0  QtGallery.in(.ARM.extab)
    .extab._ZplRK7QString5QChar              0x0001bd20   Data           0  QtGallery.in(.ARM.extab)
    .extab._ZN10QtMobility11QMdeSessionC1EP7QObject 0x0001bd30   Data           0  QtGallery.in(.ARM.extab)
    .extab._ZN10QtMobility11QMdeSessionD1Ev  0x0001bd70   Data           0  QtGallery.in(.ARM.extab)
    .extab._ZN10QtMobility11QMdeSession15NewObjectQueryLEP17MMdEQueryObserverPNS_20QGalleryQueryRequestERi 0x0001bd88   Data           0  QtGallery.in(.ARM.extab)
    .extab._ZN10QtMobility11QMdeSession14NewObjectQueryER16CMdENamespaceDefR13CMdEObjectDefP17MMdEQueryObserver 0x0001bd98   Data           0  QtGallery.in(.ARM.extab)
    .extab._ZN10QtMobility11QMdeSession12RemoveObjectEj 0x0001bdc0   Data           0  QtGallery.in(.ARM.extab)
    .extab._ZN10QtMobility16QDocumentGalleryC1EP7QObject 0x0001bde8   Data           0  QtGallery.in(.ARM.extab)
    .extab._ZNK10QtMobility16QDocumentGallery21itemTypePropertyNamesERK7QString 0x0001be00   Data           0  QtGallery.in(.ARM.extab)
    .extab._ZNK10QtMobility16QDocumentGallery18propertyAttributesERK7QStringS3_ 0x0001be20   Data           0  QtGallery.in(.ARM.extab)
    .extab._ZN10QtMobility23QDocumentGalleryPrivate19createQueryResponseEPNS_20QGalleryQueryRequestE 0x0001be58   Data           0  QtGallery.in(.ARM.extab)
    .extab._ZN10QtMobility23QDocumentGalleryPrivate18createTypeResponseEPNS_19QGalleryTypeRequestE 0x0001bec8   Data           0  QtGallery.in(.ARM.extab)
    .extab._ZN10QtMobility23QDocumentGalleryPrivate18createItemResponseEPNS_19QGalleryItemRequestE 0x0001bed8   Data           0  QtGallery.in(.ARM.extab)
    .constdata$1                             0x0001bf50   Data           0  QtGallery.in(.constdata)
    .constdata                               0x0001bf50   Section       34  QtGallery.in(.constdata)
    QtMobility::qt_meta_stringdata_QAbstractGallery 0x0001bf60   Data          18  QtGallery.in(.constdata)
    .constdata$28                            0x0001bf74   Data           0  QtGallery.in(.constdata)
    QtMobility::qt_meta_data_QAbstractGallery 0x0001bf74   Data          60  QtGallery.in(.constdata)
    .constdata                               0x0001bf74   Section       60  QtGallery.in(.constdata)
    .constdata$25                            0x0001bfb0   Data           0  QtGallery.in(.constdata)
    .constdata                               0x0001bfb0   Section        8  QtGallery.in(.constdata)
    .constdata$31                            0x0001bfb8   Data           0  QtGallery.in(.constdata)
    .constdata                               0x0001bfb8   Section        8  QtGallery.in(.constdata)
    .constdata$37                            0x0001bfc0   Data           0  QtGallery.in(.constdata)
    .constdata                               0x0001bfc0   Section        8  QtGallery.in(.constdata)
    .constdata$43                            0x0001bfc8   Data           0  QtGallery.in(.constdata)
    .constdata                               0x0001bfc8   Section        8  QtGallery.in(.constdata)
    .constdata$49                            0x0001bfd0   Data           0  QtGallery.in(.constdata)
    .constdata                               0x0001bfd0   Section        8  QtGallery.in(.constdata)
    .constdata$55                            0x0001bfd8   Data           0  QtGallery.in(.constdata)
    .constdata                               0x0001bfd8   Section        8  QtGallery.in(.constdata)
    .constdata$61                            0x0001bfe0   Data           0  QtGallery.in(.constdata)
    .constdata                               0x0001bfe0   Section        8  QtGallery.in(.constdata)
    .constdata$67                            0x0001bfe8   Data           0  QtGallery.in(.constdata)
    .constdata                               0x0001bfe8   Section        8  QtGallery.in(.constdata)
    .constdata$73                            0x0001bff0   Data           0  QtGallery.in(.constdata)
    .constdata                               0x0001bff0   Section        8  QtGallery.in(.constdata)
    .constdata$79                            0x0001bff8   Data           0  QtGallery.in(.constdata)
    .constdata                               0x0001bff8   Section        8  QtGallery.in(.constdata)
    .constdata$85                            0x0001c000   Data           0  QtGallery.in(.constdata)
    .constdata                               0x0001c000   Section        8  QtGallery.in(.constdata)
    .constdata$91                            0x0001c008   Data           0  QtGallery.in(.constdata)
    .constdata                               0x0001c008   Section        8  QtGallery.in(.constdata)
    .constdata$97                            0x0001c010   Data           0  QtGallery.in(.constdata)
    .constdata                               0x0001c010   Section        8  QtGallery.in(.constdata)
    .constdata$103                           0x0001c018   Data           0  QtGallery.in(.constdata)
    .constdata                               0x0001c018   Section        8  QtGallery.in(.constdata)
    .constdata$109                           0x0001c020   Data           0  QtGallery.in(.constdata)
    .constdata                               0x0001c020   Section        8  QtGallery.in(.constdata)
    .constdata$115                           0x0001c028   Data           0  QtGallery.in(.constdata)
    .constdata                               0x0001c028   Section        8  QtGallery.in(.constdata)
    .constdata$121                           0x0001c030   Data           0  QtGallery.in(.constdata)
    .constdata                               0x0001c030   Section        8  QtGallery.in(.constdata)
    .constdata$127                           0x0001c038   Data           0  QtGallery.in(.constdata)
    .constdata                               0x0001c038   Section        8  QtGallery.in(.constdata)
    .constdata$133                           0x0001c040   Data           0  QtGallery.in(.constdata)
    .constdata                               0x0001c040   Section        8  QtGallery.in(.constdata)
    .constdata$139                           0x0001c048   Data           0  QtGallery.in(.constdata)
    .constdata                               0x0001c048   Section        8  QtGallery.in(.constdata)
    .constdata$145                           0x0001c050   Data           0  QtGallery.in(.constdata)
    .constdata                               0x0001c050   Section        8  QtGallery.in(.constdata)
    .constdata$151                           0x0001c058   Data           0  QtGallery.in(.constdata)
    .constdata                               0x0001c058   Section        8  QtGallery.in(.constdata)
    .constdata$157                           0x0001c060   Data           0  QtGallery.in(.constdata)
    .constdata                               0x0001c060   Section        8  QtGallery.in(.constdata)
    .constdata$163                           0x0001c068   Data           0  QtGallery.in(.constdata)
    .constdata                               0x0001c068   Section        8  QtGallery.in(.constdata)
    .constdata$169                           0x0001c070   Data           0  QtGallery.in(.constdata)
    .constdata                               0x0001c070   Section        8  QtGallery.in(.constdata)
    .constdata$175                           0x0001c078   Data           0  QtGallery.in(.constdata)
    .constdata                               0x0001c078   Section        8  QtGallery.in(.constdata)
    .constdata$181                           0x0001c080   Data           0  QtGallery.in(.constdata)
    .constdata                               0x0001c080   Section        8  QtGallery.in(.constdata)
    .constdata$187                           0x0001c088   Data           0  QtGallery.in(.constdata)
    .constdata                               0x0001c088   Section        8  QtGallery.in(.constdata)
    .constdata$193                           0x0001c090   Data           0  QtGallery.in(.constdata)
    .constdata                               0x0001c090   Section        8  QtGallery.in(.constdata)
    .constdata$199                           0x0001c098   Data           0  QtGallery.in(.constdata)
    .constdata                               0x0001c098   Section        8  QtGallery.in(.constdata)
    .constdata$205                           0x0001c0a0   Data           0  QtGallery.in(.constdata)
    .constdata                               0x0001c0a0   Section        8  QtGallery.in(.constdata)
    .constdata$211                           0x0001c0a8   Data           0  QtGallery.in(.constdata)
    .constdata                               0x0001c0a8   Section        8  QtGallery.in(.constdata)
    .constdata$217                           0x0001c0b0   Data           0  QtGallery.in(.constdata)
    .constdata                               0x0001c0b0   Section        8  QtGallery.in(.constdata)
    .constdata$223                           0x0001c0b8   Data           0  QtGallery.in(.constdata)
    .constdata                               0x0001c0b8   Section        8  QtGallery.in(.constdata)
    .constdata$229                           0x0001c0c0   Data           0  QtGallery.in(.constdata)
    .constdata                               0x0001c0c0   Section        8  QtGallery.in(.constdata)
    .constdata$235                           0x0001c0c8   Data           0  QtGallery.in(.constdata)
    .constdata                               0x0001c0c8   Section        8  QtGallery.in(.constdata)
    .constdata$241                           0x0001c0d0   Data           0  QtGallery.in(.constdata)
    .constdata                               0x0001c0d0   Section        8  QtGallery.in(.constdata)
    .constdata$247                           0x0001c0d8   Data           0  QtGallery.in(.constdata)
    .constdata                               0x0001c0d8   Section        8  QtGallery.in(.constdata)
    .constdata$253                           0x0001c0e0   Data           0  QtGallery.in(.constdata)
    .constdata                               0x0001c0e0   Section        8  QtGallery.in(.constdata)
    .constdata$259                           0x0001c0e8   Data           0  QtGallery.in(.constdata)
    .constdata                               0x0001c0e8   Section        8  QtGallery.in(.constdata)
    .constdata$265                           0x0001c0f0   Data           0  QtGallery.in(.constdata)
    .constdata                               0x0001c0f0   Section        8  QtGallery.in(.constdata)
    .constdata$271                           0x0001c0f8   Data           0  QtGallery.in(.constdata)
    .constdata                               0x0001c0f8   Section        8  QtGallery.in(.constdata)
    .constdata$277                           0x0001c100   Data           0  QtGallery.in(.constdata)
    .constdata                               0x0001c100   Section        8  QtGallery.in(.constdata)
    .constdata$283                           0x0001c108   Data           0  QtGallery.in(.constdata)
    .constdata                               0x0001c108   Section        8  QtGallery.in(.constdata)
    .constdata$289                           0x0001c110   Data           0  QtGallery.in(.constdata)
    .constdata                               0x0001c110   Section        8  QtGallery.in(.constdata)
    .constdata$295                           0x0001c118   Data           0  QtGallery.in(.constdata)
    .constdata                               0x0001c118   Section        8  QtGallery.in(.constdata)
    .constdata$301                           0x0001c120   Data           0  QtGallery.in(.constdata)
    .constdata                               0x0001c120   Section        8  QtGallery.in(.constdata)
    .constdata$307                           0x0001c128   Data           0  QtGallery.in(.constdata)
    .constdata                               0x0001c128   Section        8  QtGallery.in(.constdata)
    .constdata$313                           0x0001c130   Data           0  QtGallery.in(.constdata)
    .constdata                               0x0001c130   Section        8  QtGallery.in(.constdata)
    .constdata$319                           0x0001c138   Data           0  QtGallery.in(.constdata)
    .constdata                               0x0001c138   Section        8  QtGallery.in(.constdata)
    .constdata$325                           0x0001c140   Data           0  QtGallery.in(.constdata)
    .constdata                               0x0001c140   Section        8  QtGallery.in(.constdata)
    .constdata$331                           0x0001c148   Data           0  QtGallery.in(.constdata)
    .constdata                               0x0001c148   Section        8  QtGallery.in(.constdata)
    .constdata$337                           0x0001c150   Data           0  QtGallery.in(.constdata)
    .constdata                               0x0001c150   Section        8  QtGallery.in(.constdata)
    .constdata$343                           0x0001c158   Data           0  QtGallery.in(.constdata)
    .constdata                               0x0001c158   Section        8  QtGallery.in(.constdata)
    .constdata$349                           0x0001c160   Data           0  QtGallery.in(.constdata)
    .constdata                               0x0001c160   Section        8  QtGallery.in(.constdata)
    .constdata$355                           0x0001c168   Data           0  QtGallery.in(.constdata)
    .constdata                               0x0001c168   Section        8  QtGallery.in(.constdata)
    .constdata$361                           0x0001c170   Data           0  QtGallery.in(.constdata)
    .constdata                               0x0001c170   Section        8  QtGallery.in(.constdata)
    .constdata$367                           0x0001c178   Data           0  QtGallery.in(.constdata)
    .constdata                               0x0001c178   Section        8  QtGallery.in(.constdata)
    .constdata$373                           0x0001c180   Data           0  QtGallery.in(.constdata)
    .constdata                               0x0001c180   Section        8  QtGallery.in(.constdata)
    .constdata$379                           0x0001c188   Data           0  QtGallery.in(.constdata)
    .constdata                               0x0001c188   Section        8  QtGallery.in(.constdata)
    .constdata$385                           0x0001c190   Data           0  QtGallery.in(.constdata)
    .constdata                               0x0001c190   Section        8  QtGallery.in(.constdata)
    .constdata$391                           0x0001c198   Data           0  QtGallery.in(.constdata)
    .constdata                               0x0001c198   Section        8  QtGallery.in(.constdata)
    .constdata$397                           0x0001c1a0   Data           0  QtGallery.in(.constdata)
    .constdata                               0x0001c1a0   Section        8  QtGallery.in(.constdata)
    .constdata$403                           0x0001c1a8   Data           0  QtGallery.in(.constdata)
    .constdata                               0x0001c1a8   Section        8  QtGallery.in(.constdata)
    .constdata$409                           0x0001c1b0   Data           0  QtGallery.in(.constdata)
    .constdata                               0x0001c1b0   Section        8  QtGallery.in(.constdata)
    .constdata$415                           0x0001c1b8   Data           0  QtGallery.in(.constdata)
    .constdata                               0x0001c1b8   Section        8  QtGallery.in(.constdata)
    .constdata$421                           0x0001c1c0   Data           0  QtGallery.in(.constdata)
    .constdata                               0x0001c1c0   Section        8  QtGallery.in(.constdata)
    .constdata$427                           0x0001c1c8   Data           0  QtGallery.in(.constdata)
    .constdata                               0x0001c1c8   Section        8  QtGallery.in(.constdata)
    .constdata$433                           0x0001c1d0   Data           0  QtGallery.in(.constdata)
    .constdata                               0x0001c1d0   Section        8  QtGallery.in(.constdata)
    .constdata$439                           0x0001c1d8   Data           0  QtGallery.in(.constdata)
    .constdata                               0x0001c1d8   Section        8  QtGallery.in(.constdata)
    .constdata$445                           0x0001c1e0   Data           0  QtGallery.in(.constdata)
    .constdata                               0x0001c1e0   Section        8  QtGallery.in(.constdata)
    .constdata$1                             0x0001c1e8   Data           0  QtGallery.in(.constdata)
    .constdata                               0x0001c1e8   Section      555  QtGallery.in(.constdata)
    QtMobility::qt_meta_stringdata_QGalleryAbstractRequest 0x0001c1f8   Data         539  QtGallery.in(.constdata)
    .constdata$28                            0x0001c414   Data           0  QtGallery.in(.constdata)
    QtMobility::qt_meta_data_QGalleryAbstractRequest 0x0001c414   Data         584  QtGallery.in(.constdata)
    .constdata                               0x0001c414   Section      584  QtGallery.in(.constdata)
    .constdata$1                             0x0001c65c   Data           0  QtGallery.in(.constdata)
    .constdata                               0x0001c65c   Section      116  QtGallery.in(.constdata)
    QtMobility::qt_meta_stringdata_QGalleryAbstractResponse 0x0001c66c   Data         100  QtGallery.in(.constdata)
    .constdata$28                            0x0001c6d0   Data           0  QtGallery.in(.constdata)
    QtMobility::qt_meta_data_QGalleryAbstractResponse 0x0001c6d0   Data         140  QtGallery.in(.constdata)
    .constdata                               0x0001c6d0   Section      140  QtGallery.in(.constdata)
    .constdata$1                             0x0001c75c   Data           0  QtGallery.in(.constdata)
    .constdata                               0x0001c75c   Section      465  QtGallery.in(.constdata)
    QtMobility::qt_meta_stringdata_QGalleryItemRequest 0x0001c76c   Data         449  QtGallery.in(.constdata)
    .constdata$28                            0x0001c930   Data           0  QtGallery.in(.constdata)
    QtMobility::qt_meta_data_QGalleryItemRequest 0x0001c930   Data         392  QtGallery.in(.constdata)
    .constdata                               0x0001c930   Section      392  QtGallery.in(.constdata)
    .constdata$1                             0x0001cab8   Data           0  QtGallery.in(.constdata)
    .constdata                               0x0001cab8   Section      715  QtGallery.in(.constdata)
    QtMobility::qt_meta_stringdata_QGalleryQueryModel 0x0001cac8   Data         699  QtGallery.in(.constdata)
    .constdata$28                            0x0001cd84   Data           0  QtGallery.in(.constdata)
    QtMobility::qt_meta_data_QGalleryQueryModel 0x0001cd84   Data         632  QtGallery.in(.constdata)
    .constdata                               0x0001cd84   Section      632  QtGallery.in(.constdata)
    .constdata$34                            0x0001cffc   Data           0  QtGallery.in(.constdata)
    QtMobility::qt_meta_extradata_QGalleryQueryModel 0x0001cffc   Data          12  QtGallery.in(.constdata)
    .constdata                               0x0001cffc   Section       12  QtGallery.in(.constdata)
    .constdata$40                            0x0001d008   Data           0  QtGallery.in(.constdata)
    QtMobility::qt_meta_extradata2_QGalleryQueryModel 0x0001d008   Data           8  QtGallery.in(.constdata)
    .constdata                               0x0001d008   Section        8  QtGallery.in(.constdata)
    .constdata$1                             0x0001d010   Data           0  QtGallery.in(.constdata)
    .constdata                               0x0001d010   Section      564  QtGallery.in(.constdata)
    QtMobility::qt_meta_stringdata_QGalleryQueryRequest 0x0001d020   Data         548  QtGallery.in(.constdata)
    .constdata$28                            0x0001d244   Data           0  QtGallery.in(.constdata)
    QtMobility::qt_meta_data_QGalleryQueryRequest 0x0001d244   Data         552  QtGallery.in(.constdata)
    .constdata                               0x0001d244   Section      552  QtGallery.in(.constdata)
    .constdata$1                             0x0001d46c   Data           0  QtGallery.in(.constdata)
    .constdata                               0x0001d46c   Section      236  QtGallery.in(.constdata)
    QtMobility::qt_meta_stringdata_QGalleryResultSet 0x0001d47c   Data         220  QtGallery.in(.constdata)
    .constdata$28                            0x0001d558   Data           0  QtGallery.in(.constdata)
    QtMobility::qt_meta_data_QGalleryResultSet 0x0001d558   Data         180  QtGallery.in(.constdata)
    .constdata                               0x0001d558   Section      180  QtGallery.in(.constdata)
    .constdata$1                             0x0001d60c   Data           0  QtGallery.in(.constdata)
    .constdata                               0x0001d60c   Section      404  QtGallery.in(.constdata)
    QtMobility::qt_meta_stringdata_QGalleryTypeRequest 0x0001d61c   Data         388  QtGallery.in(.constdata)
    .constdata$28                            0x0001d7a0   Data           0  QtGallery.in(.constdata)
    QtMobility::qt_meta_data_QGalleryTypeRequest 0x0001d7a0   Data         344  QtGallery.in(.constdata)
    .constdata                               0x0001d7a0   Section      344  QtGallery.in(.constdata)
    .constdata$1                             0x0001d8f8   Data           0  QtGallery.in(.constdata)
    .constdata                               0x0001d8f8   Section       38  QtGallery.in(.constdata)
    QtMobility::qt_meta_stringdata_QMDEGalleryResultSet 0x0001d908   Data          22  QtGallery.in(.constdata)
    .constdata$28                            0x0001d920   Data           0  QtGallery.in(.constdata)
    QtMobility::qt_meta_data_QMDEGalleryResultSet 0x0001d920   Data          60  QtGallery.in(.constdata)
    .constdata                               0x0001d920   Section       60  QtGallery.in(.constdata)
    .constdata$1                             0x0001d95c   Data           0  QtGallery.in(.constdata)
    MdeConstants::Object::KBaseObject        0x0001d95c   Data          20  QtGallery.in(.constdata)
    .constdata                               0x0001d95c   Section      996  QtGallery.in(.constdata)
    MdeConstants::Object::KSizeProperty      0x0001d970   Data          16  QtGallery.in(.constdata)
    MdeConstants::Object::KLastModifiedDateProperty 0x0001d980   Data          40  QtGallery.in(.constdata)
    MdeConstants::Object::KItemTypeProperty  0x0001d9a8   Data          24  QtGallery.in(.constdata)
    MdeConstants::Object::KTitleProperty     0x0001d9c0   Data          16  QtGallery.in(.constdata)
    MdeConstants::Album::KAlbumObject        0x0001d9d0   Data          16  QtGallery.in(.constdata)
    MdeConstants::MediaObject::KMediaObject  0x0001d9e0   Data          28  QtGallery.in(.constdata)
    MdeConstants::MediaObject::KRatingProperty 0x0001d9fc   Data          20  QtGallery.in(.constdata)
    MdeConstants::MediaObject::KBitrateProperty 0x0001da10   Data          20  QtGallery.in(.constdata)
    MdeConstants::MediaObject::KWidthProperty 0x0001da24   Data          16  QtGallery.in(.constdata)
    MdeConstants::MediaObject::KHeightProperty 0x0001da34   Data          20  QtGallery.in(.constdata)
    MdeConstants::MediaObject::KAccessCountProperty 0x0001da48   Data          28  QtGallery.in(.constdata)
    MdeConstants::MediaObject::KDurationProperty 0x0001da64   Data          24  QtGallery.in(.constdata)
    MdeConstants::MediaObject::KArtistProperty 0x0001da7c   Data          20  QtGallery.in(.constdata)
    MdeConstants::MediaObject::KAuthorProperty 0x0001da90   Data          20  QtGallery.in(.constdata)
    MdeConstants::MediaObject::KCopyrightProperty 0x0001daa4   Data          24  QtGallery.in(.constdata)
    MdeConstants::MediaObject::KDescriptionProperty 0x0001dabc   Data          28  QtGallery.in(.constdata)
    MdeConstants::MediaObject::KCommentProperty 0x0001dad8   Data          20  QtGallery.in(.constdata)
    MdeConstants::MediaObject::KGenreProperty 0x0001daec   Data          16  QtGallery.in(.constdata)
    MdeConstants::Video::KVideoObject        0x0001dafc   Data          16  QtGallery.in(.constdata)
    MdeConstants::Video::KAudioFourCCProperty 0x0001db0c   Data          28  QtGallery.in(.constdata)
    MdeConstants::Video::KLastPlayPositionProperty 0x0001db28   Data          40  QtGallery.in(.constdata)
    MdeConstants::Video::KFramerateProperty  0x0001db50   Data          24  QtGallery.in(.constdata)
    MdeConstants::Image::KImageObject        0x0001db68   Data          16  QtGallery.in(.constdata)
    MdeConstants::Image::KExposureProgramProperty 0x0001db78   Data          36  QtGallery.in(.constdata)
    MdeConstants::Image::KFocalLengthIn35mmFilmProperty 0x0001db9c   Data          48  QtGallery.in(.constdata)
    MdeConstants::Image::KMeteringModeProperty 0x0001dbcc   Data          32  QtGallery.in(.constdata)
    MdeConstants::Image::KWhiteBalanceProperty 0x0001dbec   Data          32  QtGallery.in(.constdata)
    MdeConstants::Image::KFlashProperty      0x0001dc0c   Data          16  QtGallery.in(.constdata)
    MdeConstants::Image::KOrientationProperty 0x0001dc1c   Data          28  QtGallery.in(.constdata)
    MdeConstants::Image::KExposureTimeProperty 0x0001dc38   Data          32  QtGallery.in(.constdata)
    MdeConstants::Image::KFNumberProperty    0x0001dc58   Data          20  QtGallery.in(.constdata)
    MdeConstants::Image::KDateTimeOriginalProperty 0x0001dc6c   Data          40  QtGallery.in(.constdata)
    MdeConstants::Image::KModelProperty      0x0001dc94   Data          16  QtGallery.in(.constdata)
    MdeConstants::Image::KMakeProperty       0x0001dca4   Data          16  QtGallery.in(.constdata)
    MdeConstants::Audio::KAudioObject        0x0001dcb4   Data          16  QtGallery.in(.constdata)
    MdeConstants::Audio::KTrackProperty      0x0001dcc4   Data          16  QtGallery.in(.constdata)
    MdeConstants::Audio::KSamplingFrequencyProperty 0x0001dcd4   Data          40  QtGallery.in(.constdata)
    MdeConstants::Audio::KAlbumProperty      0x0001dcfc   Data          16  QtGallery.in(.constdata)
    MdeConstants::Audio::KComposerProperty   0x0001dd0c   Data          24  QtGallery.in(.constdata)
    MdeConstants::Audio::KAlbumArtistProperty 0x0001dd24   Data          28  QtGallery.in(.constdata)
    .constdata$1                             0x0001dd40   Data           0  QtGallery.in(.constdata)
    .constdata                               0x0001dd40   Section       42  QtGallery.in(.constdata)
    QtMobility::qt_meta_stringdata_QMDEGalleryTypeResultSet 0x0001dd50   Data          26  QtGallery.in(.constdata)
    .constdata$28                            0x0001dd6c   Data           0  QtGallery.in(.constdata)
    QtMobility::qt_meta_data_QMDEGalleryTypeResultSet 0x0001dd6c   Data          60  QtGallery.in(.constdata)
    .constdata                               0x0001dd6c   Section       60  QtGallery.in(.constdata)
    .constdata$1                             0x0001dda8   Data           0  QtGallery.in(.constdata)
    .constdata                               0x0001dda8   Section       42  QtGallery.in(.constdata)
    QtMobility::qt_meta_stringdata_QMDEGalleryItemResultSet 0x0001ddb8   Data          26  QtGallery.in(.constdata)
    .constdata$28                            0x0001ddd4   Data           0  QtGallery.in(.constdata)
    QtMobility::qt_meta_data_QMDEGalleryItemResultSet 0x0001ddd4   Data          60  QtGallery.in(.constdata)
    .constdata                               0x0001ddd4   Section       60  QtGallery.in(.constdata)
    .constdata$1                             0x0001de10   Data           0  QtGallery.in(.constdata)
    .constdata                               0x0001de10   Section       43  QtGallery.in(.constdata)
    QtMobility::qt_meta_stringdata_QMDEGalleryQueryResultSet 0x0001de20   Data          27  QtGallery.in(.constdata)
    .constdata$28                            0x0001de3c   Data           0  QtGallery.in(.constdata)
    QtMobility::qt_meta_data_QMDEGalleryQueryResultSet 0x0001de3c   Data          60  QtGallery.in(.constdata)
    .constdata                               0x0001de3c   Section       60  QtGallery.in(.constdata)
    .constdata$1                             0x0001de78   Data           0  QtGallery.in(.constdata)
    .constdata                               0x0001de78   Section      168  QtGallery.in(.constdata)
    QtMobility::qt_meta_stringdata_QMDEGalleryCategoryResultSet 0x0001de88   Data          30  QtGallery.in(.constdata)
    MdeConstants::MediaObject::KArtistProperty 0x0001dea8   Data          20  QtGallery.in(.constdata)
    MdeConstants::MediaObject::KGenreProperty 0x0001debc   Data          16  QtGallery.in(.constdata)
    MdeConstants::Audio::KAudioObject        0x0001decc   Data          16  QtGallery.in(.constdata)
    MdeConstants::Audio::KAlbumProperty      0x0001dedc   Data          16  QtGallery.in(.constdata)
    MdeConstants::Audio::KAlbumArtistProperty 0x0001deec   Data          28  QtGallery.in(.constdata)
    MdeConstants::Relations::KContains       0x0001df08   Data          24  QtGallery.in(.constdata)
    .constdata$28                            0x0001df20   Data           0  QtGallery.in(.constdata)
    QtMobility::qt_meta_data_QMDEGalleryCategoryResultSet 0x0001df20   Data          60  QtGallery.in(.constdata)
    .constdata                               0x0001df20   Section       60  QtGallery.in(.constdata)
    .constdata$1                             0x0001df5c   Data           0  QtGallery.in(.constdata)
    .constdata                               0x0001df5c   Section       29  QtGallery.in(.constdata)
    QtMobility::qt_meta_stringdata_QMdeSession 0x0001df6c   Data          13  QtGallery.in(.constdata)
    .constdata$28                            0x0001df7c   Data           0  QtGallery.in(.constdata)
    QtMobility::qt_meta_data_QMdeSession     0x0001df7c   Data          60  QtGallery.in(.constdata)
    .constdata                               0x0001df7c   Section       60  QtGallery.in(.constdata)
    .constdata$1                             0x0001dfb8   Data           0  QtGallery.in(.constdata)
    .constdata                               0x0001dfb8   Section       34  QtGallery.in(.constdata)
    QtMobility::qt_meta_stringdata_QDocumentGallery 0x0001dfc8   Data          18  QtGallery.in(.constdata)
    .constdata$28                            0x0001dfdc   Data           0  QtGallery.in(.constdata)
    QtMobility::qt_meta_data_QDocumentGallery 0x0001dfdc   Data          60  QtGallery.in(.constdata)
    .constdata                               0x0001dfdc   Section       60  QtGallery.in(.constdata)
    .constdata__ZTI11QSharedData             0x0001e018   Section        8  QtGallery.in(.constdata__ZTI11QSharedData)
    .constdata__ZTI17MMdEQueryObserver       0x0001e020   Section        8  QtGallery.in(.constdata__ZTI17MMdEQueryObserver)
    .constdata__ZTI18MMdEObjectObserver      0x0001e028   Section        8  QtGallery.in(.constdata__ZTI18MMdEObjectObserver)
    .constdata__ZTI19MMdESessionObserver     0x0001e030   Section        8  QtGallery.in(.constdata__ZTI19MMdESessionObserver)
    .constdata__ZTIN10QtMobility11QMdeSessionE 0x0001e038   Section       32  QtGallery.in(.constdata__ZTIN10QtMobility11QMdeSessionE)
    .constdata__ZTIN10QtMobility16QAbstractGalleryE 0x0001e058   Section       12  QtGallery.in(.constdata__ZTIN10QtMobility16QAbstractGalleryE)
    .constdata__ZTIN10QtMobility16QDocumentGalleryE 0x0001e064   Section       12  QtGallery.in(.constdata__ZTIN10QtMobility16QDocumentGalleryE)
    .constdata__ZTIN10QtMobility17QGalleryResultSetE 0x0001e070   Section       12  QtGallery.in(.constdata__ZTIN10QtMobility17QGalleryResultSetE)
    .constdata__ZTIN10QtMobility18QGalleryQueryModelE 0x0001e07c   Section       12  QtGallery.in(.constdata__ZTIN10QtMobility18QGalleryQueryModelE)
    .constdata__ZTIN10QtMobility19QGalleryItemRequestE 0x0001e088   Section       12  QtGallery.in(.constdata__ZTIN10QtMobility19QGalleryItemRequestE)
    .constdata__ZTIN10QtMobility19QGalleryTypeRequestE 0x0001e094   Section       12  QtGallery.in(.constdata__ZTIN10QtMobility19QGalleryTypeRequestE)
    .constdata__ZTIN10QtMobility20QGalleryQueryRequestE 0x0001e0a0   Section       12  QtGallery.in(.constdata__ZTIN10QtMobility20QGalleryQueryRequestE)
    .constdata__ZTIN10QtMobility20QMDEGalleryResultSetE 0x0001e0ac   Section       12  QtGallery.in(.constdata__ZTIN10QtMobility20QMDEGalleryResultSetE)
    .constdata__ZTIN10QtMobility21QGalleryFilterPrivateE 0x0001e0b8   Section       24  QtGallery.in(.constdata__ZTIN10QtMobility21QGalleryFilterPrivateE)
    .constdata__ZTIN10QtMobility21QGalleryNullResultSetE 0x0001e0d0   Section       12  QtGallery.in(.constdata__ZTIN10QtMobility21QGalleryNullResultSetE)
    .constdata__ZTIN10QtMobility23QAbstractGalleryPrivateE 0x0001e0dc   Section        8  QtGallery.in(.constdata__ZTIN10QtMobility23QAbstractGalleryPrivateE)
    .constdata__ZTIN10QtMobility23QDocumentGalleryPrivateE 0x0001e0e4   Section       12  QtGallery.in(.constdata__ZTIN10QtMobility23QDocumentGalleryPrivateE)
    .constdata__ZTIN10QtMobility23QGalleryAbstractRequestE 0x0001e0f0   Section       12  QtGallery.in(.constdata__ZTIN10QtMobility23QGalleryAbstractRequestE)
    .constdata__ZTIN10QtMobility24QGalleryAbstractResponseE 0x0001e0fc   Section       12  QtGallery.in(.constdata__ZTIN10QtMobility24QGalleryAbstractResponseE)
    .constdata__ZTIN10QtMobility24QGalleryResultSetPrivateE 0x0001e108   Section       12  QtGallery.in(.constdata__ZTIN10QtMobility24QGalleryResultSetPrivateE)
    .constdata__ZTIN10QtMobility24QMDEGalleryItemResultSetE 0x0001e114   Section       32  QtGallery.in(.constdata__ZTIN10QtMobility24QMDEGalleryItemResultSetE)
    .constdata__ZTIN10QtMobility24QMDEGalleryTypeResultSetE 0x0001e134   Section       32  QtGallery.in(.constdata__ZTIN10QtMobility24QMDEGalleryTypeResultSetE)
    .constdata__ZTIN10QtMobility25QMDEGalleryQueryResultSetE 0x0001e154   Section       40  QtGallery.in(.constdata__ZTIN10QtMobility25QMDEGalleryQueryResultSetE)
    .constdata__ZTIN10QtMobility26QGalleryItemRequestPrivateE 0x0001e17c   Section       12  QtGallery.in(.constdata__ZTIN10QtMobility26QGalleryItemRequestPrivateE)
    .constdata__ZTIN10QtMobility26QGalleryTypeRequestPrivateE 0x0001e188   Section       12  QtGallery.in(.constdata__ZTIN10QtMobility26QGalleryTypeRequestPrivateE)
    .constdata__ZTIN10QtMobility26QGalleryUnionFilterPrivateE 0x0001e194   Section       12  QtGallery.in(.constdata__ZTIN10QtMobility26QGalleryUnionFilterPrivateE)
    .constdata__ZTIN10QtMobility27QGalleryQueryRequestPrivateE 0x0001e1a0   Section       12  QtGallery.in(.constdata__ZTIN10QtMobility27QGalleryQueryRequestPrivateE)
    .constdata__ZTIN10QtMobility28QGalleryInvalidFilterPrivateE 0x0001e1ac   Section       12  QtGallery.in(.constdata__ZTIN10QtMobility28QGalleryInvalidFilterPrivateE)
    .constdata__ZTIN10QtMobility28QMDEGalleryCategoryResultSetE 0x0001e1b8   Section       32  QtGallery.in(.constdata__ZTIN10QtMobility28QMDEGalleryCategoryResultSetE)
    .constdata__ZTIN10QtMobility29QGalleryMetaDataFilterPrivateE 0x0001e1d8   Section       12  QtGallery.in(.constdata__ZTIN10QtMobility29QGalleryMetaDataFilterPrivateE)
    .constdata__ZTIN10QtMobility30QGalleryAbstractRequestPrivateE 0x0001e1e4   Section        8  QtGallery.in(.constdata__ZTIN10QtMobility30QGalleryAbstractRequestPrivateE)
    .constdata__ZTIN10QtMobility31QGalleryAbstractResponsePrivateE 0x0001e1ec   Section        8  QtGallery.in(.constdata__ZTIN10QtMobility31QGalleryAbstractResponsePrivateE)
    .constdata__ZTIN10QtMobility33QGalleryIntersectionFilterPrivateE 0x0001e1f4   Section       12  QtGallery.in(.constdata__ZTIN10QtMobility33QGalleryIntersectionFilterPrivateE)
    .constdata__ZTISt9bad_alloc              0x0001e200   Section       12  QtGallery.in(.constdata__ZTISt9bad_alloc)
    .constdata__ZTS11QSharedData             0x0001e20c   Section       14  QtGallery.in(.constdata__ZTS11QSharedData)
    .constdata__ZTS17MMdEQueryObserver       0x0001e21a   Section       20  QtGallery.in(.constdata__ZTS17MMdEQueryObserver)
    .constdata__ZTS18MMdEObjectObserver      0x0001e22e   Section       21  QtGallery.in(.constdata__ZTS18MMdEObjectObserver)
    .constdata__ZTS19MMdESessionObserver     0x0001e243   Section       22  QtGallery.in(.constdata__ZTS19MMdESessionObserver)
    .constdata__ZTSN10QtMobility11QMdeSessionE 0x0001e259   Section       28  QtGallery.in(.constdata__ZTSN10QtMobility11QMdeSessionE)
    .constdata__ZTSN10QtMobility16QAbstractGalleryE 0x0001e275   Section       33  QtGallery.in(.constdata__ZTSN10QtMobility16QAbstractGalleryE)
    .constdata__ZTSN10QtMobility16QDocumentGalleryE 0x0001e296   Section       33  QtGallery.in(.constdata__ZTSN10QtMobility16QDocumentGalleryE)
    .constdata__ZTSN10QtMobility17QGalleryResultSetE 0x0001e2b7   Section       34  QtGallery.in(.constdata__ZTSN10QtMobility17QGalleryResultSetE)
    .constdata__ZTSN10QtMobility18QGalleryQueryModelE 0x0001e2d9   Section       35  QtGallery.in(.constdata__ZTSN10QtMobility18QGalleryQueryModelE)
    .constdata__ZTSN10QtMobility19QGalleryItemRequestE 0x0001e2fc   Section       36  QtGallery.in(.constdata__ZTSN10QtMobility19QGalleryItemRequestE)
    .constdata__ZTSN10QtMobility19QGalleryTypeRequestE 0x0001e320   Section       36  QtGallery.in(.constdata__ZTSN10QtMobility19QGalleryTypeRequestE)
    .constdata__ZTSN10QtMobility20QGalleryQueryRequestE 0x0001e344   Section       37  QtGallery.in(.constdata__ZTSN10QtMobility20QGalleryQueryRequestE)
    .constdata__ZTSN10QtMobility20QMDEGalleryResultSetE 0x0001e369   Section       37  QtGallery.in(.constdata__ZTSN10QtMobility20QMDEGalleryResultSetE)
    .constdata__ZTSN10QtMobility21QGalleryFilterPrivateE 0x0001e38e   Section       38  QtGallery.in(.constdata__ZTSN10QtMobility21QGalleryFilterPrivateE)
    .constdata__ZTSN10QtMobility21QGalleryNullResultSetE 0x0001e3b4   Section       38  QtGallery.in(.constdata__ZTSN10QtMobility21QGalleryNullResultSetE)
    .constdata__ZTSN10QtMobility23QAbstractGalleryPrivateE 0x0001e3da   Section       40  QtGallery.in(.constdata__ZTSN10QtMobility23QAbstractGalleryPrivateE)
    .constdata__ZTSN10QtMobility23QDocumentGalleryPrivateE 0x0001e402   Section       40  QtGallery.in(.constdata__ZTSN10QtMobility23QDocumentGalleryPrivateE)
    .constdata__ZTSN10QtMobility23QGalleryAbstractRequestE 0x0001e42a   Section       40  QtGallery.in(.constdata__ZTSN10QtMobility23QGalleryAbstractRequestE)
    .constdata__ZTSN10QtMobility24QGalleryAbstractResponseE 0x0001e452   Section       41  QtGallery.in(.constdata__ZTSN10QtMobility24QGalleryAbstractResponseE)
    .constdata__ZTSN10QtMobility24QGalleryResultSetPrivateE 0x0001e47b   Section       41  QtGallery.in(.constdata__ZTSN10QtMobility24QGalleryResultSetPrivateE)
    .constdata__ZTSN10QtMobility24QMDEGalleryItemResultSetE 0x0001e4a4   Section       41  QtGallery.in(.constdata__ZTSN10QtMobility24QMDEGalleryItemResultSetE)
    .constdata__ZTSN10QtMobility24QMDEGalleryTypeResultSetE 0x0001e4cd   Section       41  QtGallery.in(.constdata__ZTSN10QtMobility24QMDEGalleryTypeResultSetE)
    .constdata__ZTSN10QtMobility25QMDEGalleryQueryResultSetE 0x0001e4f6   Section       42  QtGallery.in(.constdata__ZTSN10QtMobility25QMDEGalleryQueryResultSetE)
    .constdata__ZTSN10QtMobility26QGalleryItemRequestPrivateE 0x0001e520   Section       43  QtGallery.in(.constdata__ZTSN10QtMobility26QGalleryItemRequestPrivateE)
    .constdata__ZTSN10QtMobility26QGalleryTypeRequestPrivateE 0x0001e54b   Section       43  QtGallery.in(.constdata__ZTSN10QtMobility26QGalleryTypeRequestPrivateE)
    .constdata__ZTSN10QtMobility26QGalleryUnionFilterPrivateE 0x0001e576   Section       43  QtGallery.in(.constdata__ZTSN10QtMobility26QGalleryUnionFilterPrivateE)
    .constdata__ZTSN10QtMobility27QGalleryQueryRequestPrivateE 0x0001e5a1   Section       44  QtGallery.in(.constdata__ZTSN10QtMobility27QGalleryQueryRequestPrivateE)
    .constdata__ZTSN10QtMobility28QGalleryInvalidFilterPrivateE 0x0001e5cd   Section       45  QtGallery.in(.constdata__ZTSN10QtMobility28QGalleryInvalidFilterPrivateE)
    .constdata__ZTSN10QtMobility28QMDEGalleryCategoryResultSetE 0x0001e5fa   Section       45  QtGallery.in(.constdata__ZTSN10QtMobility28QMDEGalleryCategoryResultSetE)
    .constdata__ZTSN10QtMobility29QGalleryMetaDataFilterPrivateE 0x0001e627   Section       46  QtGallery.in(.constdata__ZTSN10QtMobility29QGalleryMetaDataFilterPrivateE)
    .constdata__ZTSN10QtMobility30QGalleryAbstractRequestPrivateE 0x0001e655   Section       47  QtGallery.in(.constdata__ZTSN10QtMobility30QGalleryAbstractRequestPrivateE)
    .constdata__ZTSN10QtMobility31QGalleryAbstractResponsePrivateE 0x0001e684   Section       48  QtGallery.in(.constdata__ZTSN10QtMobility31QGalleryAbstractResponsePrivateE)
    .constdata__ZTSN10QtMobility33QGalleryIntersectionFilterPrivateE 0x0001e6b4   Section       50  QtGallery.in(.constdata__ZTSN10QtMobility33QGalleryIntersectionFilterPrivateE)
    .constdata__ZTSSt9bad_alloc              0x0001e6e6   Section       13  QtGallery.in(.constdata__ZTSSt9bad_alloc)
    .constdata__ZTVN10QtMobility11QMdeSessionE 0x0001e6f4   Section       80  QtGallery.in(.constdata__ZTVN10QtMobility11QMdeSessionE)
    .constdata__ZTVN10QtMobility16QAbstractGalleryE 0x0001e744   Section       64  QtGallery.in(.constdata__ZTVN10QtMobility16QAbstractGalleryE)
    .constdata__ZTVN10QtMobility16QDocumentGalleryE 0x0001e784   Section       64  QtGallery.in(.constdata__ZTVN10QtMobility16QDocumentGalleryE)
    .constdata__ZTVN10QtMobility17QGalleryResultSetE 0x0001e7c4   Section      132  QtGallery.in(.constdata__ZTVN10QtMobility17QGalleryResultSetE)
    .constdata__ZTVN10QtMobility18QGalleryQueryModelE 0x0001e848   Section      168  QtGallery.in(.constdata__ZTVN10QtMobility18QGalleryQueryModelE)
    .constdata__ZTVN10QtMobility19QGalleryItemRequestE 0x0001e8f0   Section       60  QtGallery.in(.constdata__ZTVN10QtMobility19QGalleryItemRequestE)
    .constdata__ZTVN10QtMobility19QGalleryTypeRequestE 0x0001e92c   Section       60  QtGallery.in(.constdata__ZTVN10QtMobility19QGalleryTypeRequestE)
    .constdata__ZTVN10QtMobility20QGalleryQueryRequestE 0x0001e968   Section       60  QtGallery.in(.constdata__ZTVN10QtMobility20QGalleryQueryRequestE)
    .constdata__ZTVN10QtMobility20QMDEGalleryResultSetE 0x0001e9a4   Section      140  QtGallery.in(.constdata__ZTVN10QtMobility20QMDEGalleryResultSetE)
    .constdata__ZTVN10QtMobility21QGalleryFilterPrivateE 0x0001ea30   Section       24  QtGallery.in(.constdata__ZTVN10QtMobility21QGalleryFilterPrivateE)
    .constdata__ZTVN10QtMobility21QGalleryNullResultSetE 0x0001ea48   Section      132  QtGallery.in(.constdata__ZTVN10QtMobility21QGalleryNullResultSetE)
    .constdata__ZTVN10QtMobility23QDocumentGalleryPrivateE 0x0001eacc   Section       16  QtGallery.in(.constdata__ZTVN10QtMobility23QDocumentGalleryPrivateE)
    .constdata__ZTVN10QtMobility23QGalleryAbstractRequestE 0x0001eadc   Section       60  QtGallery.in(.constdata__ZTVN10QtMobility23QGalleryAbstractRequestE)
    .constdata__ZTVN10QtMobility24QGalleryAbstractResponseE 0x0001eb18   Section       64  QtGallery.in(.constdata__ZTVN10QtMobility24QGalleryAbstractResponseE)
    .constdata__ZTVN10QtMobility24QGalleryResultSetPrivateE 0x0001eb58   Section       16  QtGallery.in(.constdata__ZTVN10QtMobility24QGalleryResultSetPrivateE)
    .constdata__ZTVN10QtMobility24QMDEGalleryItemResultSetE 0x0001eb68   Section      172  QtGallery.in(.constdata__ZTVN10QtMobility24QMDEGalleryItemResultSetE)
    .constdata__ZTVN10QtMobility24QMDEGalleryTypeResultSetE 0x0001ec14   Section      156  QtGallery.in(.constdata__ZTVN10QtMobility24QMDEGalleryTypeResultSetE)
    .constdata__ZTVN10QtMobility25QMDEGalleryQueryResultSetE 0x0001ecb0   Section      196  QtGallery.in(.constdata__ZTVN10QtMobility25QMDEGalleryQueryResultSetE)
    .constdata__ZTVN10QtMobility26QGalleryItemRequestPrivateE 0x0001ed74   Section       16  QtGallery.in(.constdata__ZTVN10QtMobility26QGalleryItemRequestPrivateE)
    .constdata__ZTVN10QtMobility26QGalleryTypeRequestPrivateE 0x0001ed84   Section       16  QtGallery.in(.constdata__ZTVN10QtMobility26QGalleryTypeRequestPrivateE)
    .constdata__ZTVN10QtMobility26QGalleryUnionFilterPrivateE 0x0001ed94   Section       24  QtGallery.in(.constdata__ZTVN10QtMobility26QGalleryUnionFilterPrivateE)
    .constdata__ZTVN10QtMobility27QGalleryQueryRequestPrivateE 0x0001edac   Section       16  QtGallery.in(.constdata__ZTVN10QtMobility27QGalleryQueryRequestPrivateE)
    .constdata__ZTVN10QtMobility28QGalleryInvalidFilterPrivateE 0x0001edbc   Section       24  QtGallery.in(.constdata__ZTVN10QtMobility28QGalleryInvalidFilterPrivateE)
    .constdata__ZTVN10QtMobility28QMDEGalleryCategoryResultSetE 0x0001edd4   Section      156  QtGallery.in(.constdata__ZTVN10QtMobility28QMDEGalleryCategoryResultSetE)
    .constdata__ZTVN10QtMobility29QGalleryMetaDataFilterPrivateE 0x0001ee70   Section       24  QtGallery.in(.constdata__ZTVN10QtMobility29QGalleryMetaDataFilterPrivateE)
    .constdata__ZTVN10QtMobility30QGalleryAbstractRequestPrivateE 0x0001ee88   Section       16  QtGallery.in(.constdata__ZTVN10QtMobility30QGalleryAbstractRequestPrivateE)
    .constdata__ZTVN10QtMobility31QGalleryAbstractResponsePrivateE 0x0001ee98   Section       16  QtGallery.in(.constdata__ZTVN10QtMobility31QGalleryAbstractResponsePrivateE)
    .constdata__ZTVN10QtMobility33QGalleryIntersectionFilterPrivateE 0x0001eea8   Section       24  QtGallery.in(.constdata__ZTVN10QtMobility33QGalleryIntersectionFilterPrivateE)
    .conststring$27                          0x0001eec0   Data           0  QtGallery.in(.conststring)
    .conststring                             0x0001eec0   Section        5  QtGallery.in(.conststring)
    .conststring$33                          0x0001eec5   Data           0  QtGallery.in(.conststring)
    .conststring                             0x0001eec5   Section        7  QtGallery.in(.conststring)
    .conststring$39                          0x0001eecc   Data           0  QtGallery.in(.conststring)
    .conststring                             0x0001eecc   Section        9  QtGallery.in(.conststring)
    .conststring$45                          0x0001eed5   Data           0  QtGallery.in(.conststring)
    .conststring                             0x0001eed5   Section        5  QtGallery.in(.conststring)
    .conststring$51                          0x0001eeda   Data           0  QtGallery.in(.conststring)
    .conststring                             0x0001eeda   Section        6  QtGallery.in(.conststring)
    .conststring$57                          0x0001eee0   Data           0  QtGallery.in(.conststring)
    .conststring                             0x0001eee0   Section        6  QtGallery.in(.conststring)
    .conststring$63                          0x0001eee6   Data           0  QtGallery.in(.conststring)
    .conststring                             0x0001eee6   Section        6  QtGallery.in(.conststring)
    .conststring$69                          0x0001eeec   Data           0  QtGallery.in(.conststring)
    .conststring                             0x0001eeec   Section        9  QtGallery.in(.conststring)
    .conststring$81                          0x0001eef5   Data           0  QtGallery.in(.conststring)
    .conststring                             0x0001eef5   Section       12  QtGallery.in(.conststring)
    .conststring$93                          0x0001ef01   Data           0  QtGallery.in(.conststring)
    .conststring                             0x0001ef01   Section       11  QtGallery.in(.conststring)
    .conststring$99                          0x0001ef0c   Data           0  QtGallery.in(.conststring)
    .conststring                             0x0001ef0c   Section       11  QtGallery.in(.conststring)
    .conststring$105                         0x0001ef17   Data           0  QtGallery.in(.conststring)
    .conststring                             0x0001ef17   Section        4  QtGallery.in(.conststring)
    .conststring$111                         0x0001ef1b   Data           0  QtGallery.in(.conststring)
    .conststring                             0x0001ef1b   Section        7  QtGallery.in(.conststring)
    .conststring$117                         0x0001ef22   Data           0  QtGallery.in(.conststring)
    .conststring                             0x0001ef22   Section       10  QtGallery.in(.conststring)
    .conststring$123                         0x0001ef2c   Data           0  QtGallery.in(.conststring)
    .conststring                             0x0001ef2c   Section       12  QtGallery.in(.conststring)
    .conststring$129                         0x0001ef38   Data           0  QtGallery.in(.conststring)
    .conststring                             0x0001ef38   Section        9  QtGallery.in(.conststring)
    .conststring$135                         0x0001ef41   Data           0  QtGallery.in(.conststring)
    .conststring                             0x0001ef41   Section        7  QtGallery.in(.conststring)
    .conststring$141                         0x0001ef48   Data           0  QtGallery.in(.conststring)
    .conststring                             0x0001ef48   Section        6  QtGallery.in(.conststring)
    .conststring$147                         0x0001ef4e   Data           0  QtGallery.in(.conststring)
    .conststring                             0x0001ef4e   Section        8  QtGallery.in(.conststring)
    .conststring$153                         0x0001ef56   Data           0  QtGallery.in(.conststring)
    .conststring                             0x0001ef56   Section        9  QtGallery.in(.conststring)
    .conststring$159                         0x0001ef5f   Data           0  QtGallery.in(.conststring)
    .conststring                             0x0001ef5f   Section        9  QtGallery.in(.conststring)
    .conststring$165                         0x0001ef68   Data           0  QtGallery.in(.conststring)
    .conststring                             0x0001ef68   Section        5  QtGallery.in(.conststring)
    .conststring$171                         0x0001ef6d   Data           0  QtGallery.in(.conststring)
    .conststring                             0x0001ef6d   Section        9  QtGallery.in(.conststring)
    .conststring$177                         0x0001ef76   Data           0  QtGallery.in(.conststring)
    .conststring                             0x0001ef76   Section        9  QtGallery.in(.conststring)
    .conststring$183                         0x0001ef7f   Data           0  QtGallery.in(.conststring)
    .conststring                             0x0001ef7f   Section       14  QtGallery.in(.conststring)
    .conststring$189                         0x0001ef8d   Data           0  QtGallery.in(.conststring)
    .conststring                             0x0001ef8d   Section        9  QtGallery.in(.conststring)
    .conststring$195                         0x0001ef96   Data           0  QtGallery.in(.conststring)
    .conststring                             0x0001ef96   Section        9  QtGallery.in(.conststring)
    .conststring$201                         0x0001ef9f   Data           0  QtGallery.in(.conststring)
    .conststring                             0x0001ef9f   Section       13  QtGallery.in(.conststring)
    .conststring$207                         0x0001efac   Data           0  QtGallery.in(.conststring)
    .conststring                             0x0001efac   Section       13  QtGallery.in(.conststring)
    .conststring$213                         0x0001efb9   Data           0  QtGallery.in(.conststring)
    .conststring                             0x0001efb9   Section       10  QtGallery.in(.conststring)
    .conststring$219                         0x0001efc3   Data           0  QtGallery.in(.conststring)
    .conststring                             0x0001efc3   Section       10  QtGallery.in(.conststring)
    .conststring$225                         0x0001efcd   Data           0  QtGallery.in(.conststring)
    .conststring                             0x0001efcd   Section        8  QtGallery.in(.conststring)
    .conststring$231                         0x0001efd5   Data           0  QtGallery.in(.conststring)
    .conststring                             0x0001efd5   Section        9  QtGallery.in(.conststring)
    .conststring$237                         0x0001efde   Data           0  QtGallery.in(.conststring)
    .conststring                             0x0001efde   Section        9  QtGallery.in(.conststring)
    .conststring$243                         0x0001efe7   Data           0  QtGallery.in(.conststring)
    .conststring                             0x0001efe7   Section       11  QtGallery.in(.conststring)
    .conststring$249                         0x0001eff2   Data           0  QtGallery.in(.conststring)
    .conststring                             0x0001eff2   Section       10  QtGallery.in(.conststring)
    .conststring$255                         0x0001effc   Data           0  QtGallery.in(.conststring)
    .conststring                             0x0001effc   Section       10  QtGallery.in(.conststring)
    .conststring$261                         0x0001f006   Data           0  QtGallery.in(.conststring)
    .conststring                             0x0001f006   Section       11  QtGallery.in(.conststring)
    .conststring$267                         0x0001f011   Data           0  QtGallery.in(.conststring)
    .conststring                             0x0001f011   Section       13  QtGallery.in(.conststring)
    .conststring$273                         0x0001f01e   Data           0  QtGallery.in(.conststring)
    .conststring                             0x0001f01e   Section       11  QtGallery.in(.conststring)
    .conststring$279                         0x0001f029   Data           0  QtGallery.in(.conststring)
    .conststring                             0x0001f029   Section       13  QtGallery.in(.conststring)
    .conststring$285                         0x0001f036   Data           0  QtGallery.in(.conststring)
    .conststring                             0x0001f036   Section        7  QtGallery.in(.conststring)
    .conststring$291                         0x0001f03d   Data           0  QtGallery.in(.conststring)
    .conststring                             0x0001f03d   Section       12  QtGallery.in(.conststring)
    .conststring$297                         0x0001f049   Data           0  QtGallery.in(.conststring)
    .conststring                             0x0001f049   Section       11  QtGallery.in(.conststring)
    .conststring$303                         0x0001f054   Data           0  QtGallery.in(.conststring)
    .conststring                             0x0001f054   Section        9  QtGallery.in(.conststring)
    .conststring$309                         0x0001f05d   Data           0  QtGallery.in(.conststring)
    .conststring                             0x0001f05d   Section        6  QtGallery.in(.conststring)
    .conststring$315                         0x0001f063   Data           0  QtGallery.in(.conststring)
    .conststring                             0x0001f063   Section        7  QtGallery.in(.conststring)
    .conststring$321                         0x0001f06a   Data           0  QtGallery.in(.conststring)
    .conststring                             0x0001f06a   Section       11  QtGallery.in(.conststring)
    .conststring$327                         0x0001f075   Data           0  QtGallery.in(.conststring)
    .conststring                             0x0001f075   Section       12  QtGallery.in(.conststring)
    .conststring$333                         0x0001f081   Data           0  QtGallery.in(.conststring)
    .conststring                             0x0001f081   Section       11  QtGallery.in(.conststring)
    .conststring$339                         0x0001f08c   Data           0  QtGallery.in(.conststring)
    .conststring                             0x0001f08c   Section        6  QtGallery.in(.conststring)
    .conststring$345                         0x0001f092   Data           0  QtGallery.in(.conststring)
    .conststring                             0x0001f092   Section        7  QtGallery.in(.conststring)
    .conststring$351                         0x0001f099   Data           0  QtGallery.in(.conststring)
    .conststring                             0x0001f099   Section       12  QtGallery.in(.conststring)
    .conststring$357                         0x0001f0a5   Data           0  QtGallery.in(.conststring)
    .conststring                             0x0001f0a5   Section       10  QtGallery.in(.conststring)
    .conststring$363                         0x0001f0af   Data           0  QtGallery.in(.conststring)
    .conststring                             0x0001f0af   Section       19  QtGallery.in(.conststring)
    .conststring$369                         0x0001f0c2   Data           0  QtGallery.in(.conststring)
    .conststring                             0x0001f0c2   Section       12  QtGallery.in(.conststring)
    .conststring$375                         0x0001f0ce   Data           0  QtGallery.in(.conststring)
    .conststring                             0x0001f0ce   Section       16  QtGallery.in(.conststring)
    .conststring$381                         0x0001f0de   Data           0  QtGallery.in(.conststring)
    .conststring                             0x0001f0de   Section       13  QtGallery.in(.conststring)
    .conststring$387                         0x0001f0eb   Data           0  QtGallery.in(.conststring)
    .conststring                             0x0001f0eb   Section        8  QtGallery.in(.conststring)
    .conststring$393                         0x0001f0f3   Data           0  QtGallery.in(.conststring)
    .conststring                             0x0001f0f3   Section       13  QtGallery.in(.conststring)
    .conststring$399                         0x0001f100   Data           0  QtGallery.in(.conststring)
    .conststring                             0x0001f100   Section       12  QtGallery.in(.conststring)
    .conststring$405                         0x0001f10c   Data           0  QtGallery.in(.conststring)
    .conststring                             0x0001f10c   Section       13  QtGallery.in(.conststring)
    .conststring$411                         0x0001f119   Data           0  QtGallery.in(.conststring)
    .conststring                             0x0001f119   Section       13  QtGallery.in(.conststring)
    .conststring$417                         0x0001f126   Data           0  QtGallery.in(.conststring)
    .conststring                             0x0001f126   Section       10  QtGallery.in(.conststring)
    .conststring$423                         0x0001f130   Data           0  QtGallery.in(.conststring)
    .conststring                             0x0001f130   Section       11  QtGallery.in(.conststring)
    .conststring$429                         0x0001f13b   Data           0  QtGallery.in(.conststring)
    .conststring                             0x0001f13b   Section       13  QtGallery.in(.conststring)
    .conststring$435                         0x0001f148   Data           0  QtGallery.in(.conststring)
    .conststring                             0x0001f148   Section       15  QtGallery.in(.conststring)
    .conststring$441                         0x0001f157   Data           0  QtGallery.in(.conststring)
    .conststring                             0x0001f157   Section        9  QtGallery.in(.conststring)
    .conststring$447                         0x0001f160   Data           0  QtGallery.in(.conststring)
    .conststring                             0x0001f160   Section        6  QtGallery.in(.conststring)
    .init_array                              0x0001f168   Section        4  QtGallery.in(.init_array)
    .ARM.exidx                               0x0001f16c   Section        8  ucppinit_aeabi.o(.ARM.exidx)
    .data$0                                  0x00400000   Data           0  QtGallery.in(.data)
    QtMobility::<unnamed>::qt_mdeArtistProperties 0x00400000   Data           8  QtGallery.in(.data)
    .data                                    0x00400000   Section      116  QtGallery.in(.data)
    QtMobility::<unnamed>::qt_mdeAlbumProperties 0x00400008   Data           8  QtGallery.in(.data)
    QtMobility::<unnamed>::qt_mdeGenreProperties 0x00400010   Data           8  QtGallery.in(.data)
    QtMobility::<unnamed>::qt_mdeAlbumArtistProperties 0x00400018   Data          12  QtGallery.in(.data)
    QtMobility::<unnamed>::qt_mdeGalleryCategoryTypes 0x00400024   Data          80  QtGallery.in(.data)

    Global Symbols

    Symbol Name                              Value     Ov Type        Size  Object(Section)

    BuildAttributes$$THUMB_ISAv2$ARM_ISAv5$M$PE$A:L22$X:L11$S22$IEEE1$IW$USESV6$~STKCKD$USESV7$~SHL$OSPACE$IEEEJ$EBA8$UX$REQ8$PRES8$EABIv2 0x00000000   Number         0  anon$$obj.o ABSOLUTE
    #<DLL>QtCore{00040703}[2001b2dc].dll#<\DLL>11a  - Undefined Reference
    #<DLL>QtCore{00040703}[2001b2dc].dll#<\DLL>144  - Undefined Reference
    #<DLL>QtCore{00040703}[2001b2dc].dll#<\DLL>14b  - Undefined Reference
    #<DLL>QtCore{00040703}[2001b2dc].dll#<\DLL>14c  - Undefined Reference
    #<DLL>QtCore{00040703}[2001b2dc].dll#<\DLL>14f  - Undefined Reference
    #<DLL>QtCore{00040703}[2001b2dc].dll#<\DLL>188  - Undefined Reference
    #<DLL>QtCore{00040703}[2001b2dc].dll#<\DLL>20  - Undefined Reference
    #<DLL>QtCore{00040703}[2001b2dc].dll#<\DLL>2e5  - Undefined Reference
    #<DLL>QtCore{00040703}[2001b2dc].dll#<\DLL>2f5  - Undefined Reference
    #<DLL>QtCore{00040703}[2001b2dc].dll#<\DLL>3dc  - Undefined Reference
    #<DLL>QtCore{00040703}[2001b2dc].dll#<\DLL>3de  - Undefined Reference
    #<DLL>QtCore{00040703}[2001b2dc].dll#<\DLL>3df  - Undefined Reference
    #<DLL>QtCore{00040703}[2001b2dc].dll#<\DLL>3e0  - Undefined Reference
    #<DLL>QtCore{00040703}[2001b2dc].dll#<\DLL>3e1  - Undefined Reference
    #<DLL>QtCore{00040703}[2001b2dc].dll#<\DLL>3e2  - Undefined Reference
    #<DLL>QtCore{00040703}[2001b2dc].dll#<\DLL>3e4  - Undefined Reference
    #<DLL>QtCore{00040703}[2001b2dc].dll#<\DLL>3e6  - Undefined Reference
    #<DLL>QtCore{00040703}[2001b2dc].dll#<\DLL>3e9  - Undefined Reference
    #<DLL>QtCore{00040703}[2001b2dc].dll#<\DLL>3ea  - Undefined Reference
    #<DLL>QtCore{00040703}[2001b2dc].dll#<\DLL>3eb  - Undefined Reference
    #<DLL>QtCore{00040703}[2001b2dc].dll#<\DLL>3ed  - Undefined Reference
    #<DLL>QtCore{00040703}[2001b2dc].dll#<\DLL>3ef  - Undefined Reference
    #<DLL>QtCore{00040703}[2001b2dc].dll#<\DLL>3f3  - Undefined Reference
    #<DLL>QtCore{00040703}[2001b2dc].dll#<\DLL>3f4  - Undefined Reference
    #<DLL>QtCore{00040703}[2001b2dc].dll#<\DLL>3f8  - Undefined Reference
    #<DLL>QtCore{00040703}[2001b2dc].dll#<\DLL>3f9  - Undefined Reference
    #<DLL>QtCore{00040703}[2001b2dc].dll#<\DLL>3fb  - Undefined Reference
    #<DLL>QtCore{00040703}[2001b2dc].dll#<\DLL>3fc  - Undefined Reference
    #<DLL>QtCore{00040703}[2001b2dc].dll#<\DLL>3fd  - Undefined Reference
    #<DLL>QtCore{00040703}[2001b2dc].dll#<\DLL>40a  - Undefined Reference
    #<DLL>QtCore{00040703}[2001b2dc].dll#<\DLL>40c  - Undefined Reference
    #<DLL>QtCore{00040703}[2001b2dc].dll#<\DLL>40d  - Undefined Reference
    #<DLL>QtCore{00040703}[2001b2dc].dll#<\DLL>40f  - Undefined Reference
    #<DLL>QtCore{00040703}[2001b2dc].dll#<\DLL>411  - Undefined Reference
    #<DLL>QtCore{00040703}[2001b2dc].dll#<\DLL>415  - Undefined Reference
    #<DLL>QtCore{00040703}[2001b2dc].dll#<\DLL>46  - Undefined Reference
    #<DLL>QtCore{00040703}[2001b2dc].dll#<\DLL>5ad  - Undefined Reference
    #<DLL>QtCore{00040703}[2001b2dc].dll#<\DLL>5b  - Undefined Reference
    #<DLL>QtCore{00040703}[2001b2dc].dll#<\DLL>5d4  - Undefined Reference
    #<DLL>QtCore{00040703}[2001b2dc].dll#<\DLL>5f3  - Undefined Reference
    #<DLL>QtCore{00040703}[2001b2dc].dll#<\DLL>5f5  - Undefined Reference
    #<DLL>QtCore{00040703}[2001b2dc].dll#<\DLL>5f6  - Undefined Reference
    #<DLL>QtCore{00040703}[2001b2dc].dll#<\DLL>5fb  - Undefined Reference
    #<DLL>QtCore{00040703}[2001b2dc].dll#<\DLL>5fe  - Undefined Reference
    #<DLL>QtCore{00040703}[2001b2dc].dll#<\DLL>62e  - Undefined Reference
    #<DLL>QtCore{00040703}[2001b2dc].dll#<\DLL>66b  - Undefined Reference
    #<DLL>QtCore{00040703}[2001b2dc].dll#<\DLL>6aa  - Undefined Reference
    #<DLL>QtCore{00040703}[2001b2dc].dll#<\DLL>6d  - Undefined Reference
    #<DLL>QtCore{00040703}[2001b2dc].dll#<\DLL>6e0  - Undefined Reference
    #<DLL>QtCore{00040703}[2001b2dc].dll#<\DLL>6e3  - Undefined Reference
    #<DLL>QtCore{00040703}[2001b2dc].dll#<\DLL>6e4  - Undefined Reference
    #<DLL>QtCore{00040703}[2001b2dc].dll#<\DLL>6e6  - Undefined Reference
    #<DLL>QtCore{00040703}[2001b2dc].dll#<\DLL>6e7  - Undefined Reference
    #<DLL>QtCore{00040703}[2001b2dc].dll#<\DLL>6e8  - Undefined Reference
    #<DLL>QtCore{00040703}[2001b2dc].dll#<\DLL>6ed  - Undefined Reference
    #<DLL>QtCore{00040703}[2001b2dc].dll#<\DLL>6f1  - Undefined Reference
    #<DLL>QtCore{00040703}[2001b2dc].dll#<\DLL>6f8  - Undefined Reference
    #<DLL>QtCore{00040703}[2001b2dc].dll#<\DLL>6f9  - Undefined Reference
    #<DLL>QtCore{00040703}[2001b2dc].dll#<\DLL>6fd  - Undefined Reference
    #<DLL>QtCore{00040703}[2001b2dc].dll#<\DLL>702  - Undefined Reference
    #<DLL>QtCore{00040703}[2001b2dc].dll#<\DLL>716  - Undefined Reference
    #<DLL>QtCore{00040703}[2001b2dc].dll#<\DLL>721  - Undefined Reference
    #<DLL>QtCore{00040703}[2001b2dc].dll#<\DLL>726  - Undefined Reference
    #<DLL>QtCore{00040703}[2001b2dc].dll#<\DLL>727  - Undefined Reference
    #<DLL>QtCore{00040703}[2001b2dc].dll#<\DLL>72c  - Undefined Reference
    #<DLL>QtCore{00040703}[2001b2dc].dll#<\DLL>73f  - Undefined Reference
    #<DLL>QtCore{00040703}[2001b2dc].dll#<\DLL>752  - Undefined Reference
    #<DLL>QtCore{00040703}[2001b2dc].dll#<\DLL>753  - Undefined Reference
    #<DLL>QtCore{00040703}[2001b2dc].dll#<\DLL>75d  - Undefined Reference
    #<DLL>QtCore{00040703}[2001b2dc].dll#<\DLL>79b  - Undefined Reference
    #<DLL>QtCore{00040703}[2001b2dc].dll#<\DLL>79d  - Undefined Reference
    #<DLL>QtCore{00040703}[2001b2dc].dll#<\DLL>7d5  - Undefined Reference
    #<DLL>QtCore{00040703}[2001b2dc].dll#<\DLL>7f2  - Undefined Reference
    #<DLL>QtCore{00040703}[2001b2dc].dll#<\DLL>7f5  - Undefined Reference
    #<DLL>QtCore{00040703}[2001b2dc].dll#<\DLL>7f8  - Undefined Reference
    #<DLL>QtCore{00040703}[2001b2dc].dll#<\DLL>7fa  - Undefined Reference
    #<DLL>QtCore{00040703}[2001b2dc].dll#<\DLL>7fb  - Undefined Reference
    #<DLL>QtCore{00040703}[2001b2dc].dll#<\DLL>822  - Undefined Reference
    #<DLL>QtCore{00040703}[2001b2dc].dll#<\DLL>824  - Undefined Reference
    #<DLL>QtCore{00040703}[2001b2dc].dll#<\DLL>837  - Undefined Reference
    #<DLL>QtCore{00040703}[2001b2dc].dll#<\DLL>838  - Undefined Reference
    #<DLL>QtCore{00040703}[2001b2dc].dll#<\DLL>83e  - Undefined Reference
    #<DLL>QtCore{00040703}[2001b2dc].dll#<\DLL>84a  - Undefined Reference
    #<DLL>QtCore{00040703}[2001b2dc].dll#<\DLL>852  - Undefined Reference
    #<DLL>QtCore{00040703}[2001b2dc].dll#<\DLL>856  - Undefined Reference
    #<DLL>QtCore{00040703}[2001b2dc].dll#<\DLL>85d  - Undefined Reference
    #<DLL>QtCore{00040703}[2001b2dc].dll#<\DLL>85f  - Undefined Reference
    #<DLL>QtCore{00040703}[2001b2dc].dll#<\DLL>88c  - Undefined Reference
    #<DLL>QtCore{00040703}[2001b2dc].dll#<\DLL>88e  - Undefined Reference
    #<DLL>QtCore{00040703}[2001b2dc].dll#<\DLL>88f  - Undefined Reference
    #<DLL>QtCore{00040703}[2001b2dc].dll#<\DLL>891  - Undefined Reference
    #<DLL>QtCore{00040703}[2001b2dc].dll#<\DLL>894  - Undefined Reference
    #<DLL>QtCore{00040703}[2001b2dc].dll#<\DLL>895  - Undefined Reference
    #<DLL>QtCore{00040703}[2001b2dc].dll#<\DLL>914  - Undefined Reference
    #<DLL>QtCore{00040703}[2001b2dc].dll#<\DLL>96  - Undefined Reference
    #<DLL>QtCore{00040703}[2001b2dc].dll#<\DLL>970  - Undefined Reference
    #<DLL>QtCore{00040703}[2001b2dc].dll#<\DLL>972  - Undefined Reference
    #<DLL>QtCore{00040703}[2001b2dc].dll#<\DLL>a72  - Undefined Reference
    #<DLL>QtCore{00040703}[2001b2dc].dll#<\DLL>a73  - Undefined Reference
    #<DLL>QtCore{00040703}[2001b2dc].dll#<\DLL>a76  - Undefined Reference
    #<DLL>QtCore{00040703}[2001b2dc].dll#<\DLL>a77  - Undefined Reference
    #<DLL>QtCore{00040703}[2001b2dc].dll#<\DLL>a78  - Undefined Reference
    #<DLL>QtCore{00040703}[2001b2dc].dll#<\DLL>a7a  - Undefined Reference
    #<DLL>QtCore{00040703}[2001b2dc].dll#<\DLL>a7c  - Undefined Reference
    #<DLL>QtCore{00040703}[2001b2dc].dll#<\DLL>a7d  - Undefined Reference
    #<DLL>QtCore{00040703}[2001b2dc].dll#<\DLL>a7e  - Undefined Reference
    #<DLL>QtCore{00040703}[2001b2dc].dll#<\DLL>af  - Undefined Reference
    #<DLL>QtCore{00040703}[2001b2dc].dll#<\DLL>b0  - Undefined Reference
    #<DLL>QtCore{00040703}[2001b2dc].dll#<\DLL>b1  - Undefined Reference
    #<DLL>QtCore{00040703}[2001b2dc].dll#<\DLL>b1a  - Undefined Reference
    #<DLL>QtCore{00040703}[2001b2dc].dll#<\DLL>b25  - Undefined Reference
    #<DLL>QtCore{00040703}[2001b2dc].dll#<\DLL>b27  - Undefined Reference
    #<DLL>QtCore{00040703}[2001b2dc].dll#<\DLL>b3  - Undefined Reference
    #<DLL>QtCore{00040703}[2001b2dc].dll#<\DLL>b43  - Undefined Reference
    #<DLL>QtCore{00040703}[2001b2dc].dll#<\DLL>b44  - Undefined Reference
    #<DLL>QtCore{00040703}[2001b2dc].dll#<\DLL>b45  - Undefined Reference
    #<DLL>QtCore{00040703}[2001b2dc].dll#<\DLL>b6  - Undefined Reference
    #<DLL>QtCore{00040703}[2001b2dc].dll#<\DLL>b61  - Undefined Reference
    #<DLL>QtCore{00040703}[2001b2dc].dll#<\DLL>b62  - Undefined Reference
    #<DLL>QtCore{00040703}[2001b2dc].dll#<\DLL>b63  - Undefined Reference
    #<DLL>QtCore{00040703}[2001b2dc].dll#<\DLL>b64  - Undefined Reference
    #<DLL>QtCore{00040703}[2001b2dc].dll#<\DLL>bd8  - Undefined Reference
    #<DLL>QtCore{00040703}[2001b2dc].dll#<\DLL>be0  - Undefined Reference
    #<DLL>QtCore{00040703}[2001b2dc].dll#<\DLL>be9  - Undefined Reference
    #<DLL>QtCore{00040703}[2001b2dc].dll#<\DLL>bee  - Undefined Reference
    #<DLL>QtCore{00040703}[2001b2dc].dll#<\DLL>bf8  - Undefined Reference
    #<DLL>QtCore{00040703}[2001b2dc].dll#<\DLL>c01  - Undefined Reference
    #<DLL>QtCore{00040703}[2001b2dc].dll#<\DLL>c19  - Undefined Reference
    #<DLL>QtCore{00040703}[2001b2dc].dll#<\DLL>c1a  - Undefined Reference
    #<DLL>QtCore{00040703}[2001b2dc].dll#<\DLL>c3b  - Undefined Reference
    #<DLL>QtCore{00040703}[2001b2dc].dll#<\DLL>c3e  - Undefined Reference
    #<DLL>QtCore{00040703}[2001b2dc].dll#<\DLL>c40  - Undefined Reference
    #<DLL>QtCore{00040703}[2001b2dc].dll#<\DLL>c42  - Undefined Reference
    #<DLL>QtCore{00040703}[2001b2dc].dll#<\DLL>c46  - Undefined Reference
    #<DLL>QtCore{00040703}[2001b2dc].dll#<\DLL>c51  - Undefined Reference
    #<DLL>QtCore{00040703}[2001b2dc].dll#<\DLL>c57  - Undefined Reference
    #<DLL>QtCore{00040703}[2001b2dc].dll#<\DLL>c5b  - Undefined Reference
    #<DLL>QtCore{00040703}[2001b2dc].dll#<\DLL>c62  - Undefined Reference
    #<DLL>QtCore{00040703}[2001b2dc].dll#<\DLL>c63  - Undefined Reference
    #<DLL>QtCore{00040703}[2001b2dc].dll#<\DLL>c80  - Undefined Reference
    #<DLL>QtCore{00040703}[2001b2dc].dll#<\DLL>c92  - Undefined Reference
    #<DLL>QtCore{00040703}[2001b2dc].dll#<\DLL>d84  - Undefined Reference
    #<DLL>QtCore{00040703}[2001b2dc].dll#<\DLL>d9b  - Undefined Reference
    #<DLL>QtCore{00040703}[2001b2dc].dll#<\DLL>dff  - Undefined Reference
    #<DLL>QtCore{00040703}[2001b2dc].dll#<\DLL>e00  - Undefined Reference
    #<DLL>QtCore{00040703}[2001b2dc].dll#<\DLL>e01  - Undefined Reference
    #<DLL>QtCore{00040703}[2001b2dc].dll#<\DLL>e17  - Undefined Reference
    #<DLL>QtCore{00040703}[2001b2dc].dll#<\DLL>e18  - Undefined Reference
    #<DLL>QtCore{00040703}[2001b2dc].dll#<\DLL>e19  - Undefined Reference
    #<DLL>QtCore{00040703}[2001b2dc].dll#<\DLL>e1a  - Undefined Reference
    #<DLL>QtCore{00040703}[2001b2dc].dll#<\DLL>e69  - Undefined Reference
    #<DLL>QtCore{00040703}[2001b2dc].dll#<\DLL>e6b  - Undefined Reference
    #<DLL>dfpaeabi{000a0000}.dll#<\DLL>18     - Undefined Reference
    #<DLL>dfpaeabi{000a0000}.dll#<\DLL>7      - Undefined Reference
    #<DLL>drtaeabi{000a0000}.dll#<\DLL>87     - Undefined Reference
    #<DLL>drtaeabi{000a0000}.dll#<\DLL>93     - Undefined Reference
    #<DLL>drtaeabi{000a0000}.dll#<\DLL>96     - Undefined Reference
    #<DLL>drtaeabi{000a0000}.dll#<\DLL>9b     - Undefined Reference
    #<DLL>drtaeabi{000a0000}.dll#<\DLL>9e     - Undefined Reference
    #<DLL>drtaeabi{000a0000}.dll#<\DLL>b4     - Undefined Reference
    #<DLL>drtaeabi{000a0000}.dll#<\DLL>b7     - Undefined Reference
    #<DLL>drtaeabi{000a0000}.dll#<\DLL>b8     - Undefined Reference
    #<DLL>drtaeabi{000a0000}.dll#<\DLL>bd     - Undefined Reference
    #<DLL>drtaeabi{000a0000}.dll#<\DLL>be     - Undefined Reference
    #<DLL>drtrvct2_2{000a0000}.dll#<\DLL>1c   - Undefined Reference
    #<DLL>euser{000a0000}[100039e5].dll#<\DLL>1d6  - Undefined Reference
    #<DLL>euser{000a0000}[100039e5].dll#<\DLL>1d7  - Undefined Reference
    #<DLL>euser{000a0000}[100039e5].dll#<\DLL>1d8  - Undefined Reference
    #<DLL>euser{000a0000}[100039e5].dll#<\DLL>1da  - Undefined Reference
    #<DLL>euser{000a0000}[100039e5].dll#<\DLL>1e1  - Undefined Reference
    #<DLL>euser{000a0000}[100039e5].dll#<\DLL>289  - Undefined Reference
    #<DLL>euser{000a0000}[100039e5].dll#<\DLL>29d  - Undefined Reference
    #<DLL>euser{000a0000}[100039e5].dll#<\DLL>29e  - Undefined Reference
    #<DLL>euser{000a0000}[100039e5].dll#<\DLL>29f  - Undefined Reference
    #<DLL>euser{000a0000}[100039e5].dll#<\DLL>30  - Undefined Reference
    #<DLL>euser{000a0000}[100039e5].dll#<\DLL>35d  - Undefined Reference
    #<DLL>euser{000a0000}[100039e5].dll#<\DLL>37  - Undefined Reference
    #<DLL>euser{000a0000}[100039e5].dll#<\DLL>491  - Undefined Reference
    #<DLL>euser{000a0000}[100039e5].dll#<\DLL>492  - Undefined Reference
    #<DLL>euser{000a0000}[100039e5].dll#<\DLL>494  - Undefined Reference
    #<DLL>euser{000a0000}[100039e5].dll#<\DLL>50  - Undefined Reference
    #<DLL>euser{000a0000}[100039e5].dll#<\DLL>5c4  - Undefined Reference
    #<DLL>euser{000a0000}[100039e5].dll#<\DLL>5e3  - Undefined Reference
    #<DLL>euser{000a0000}[100039e5].dll#<\DLL>5e4  - Undefined Reference
    #<DLL>euser{000a0000}[100039e5].dll#<\DLL>5e6  - Undefined Reference
    #<DLL>euser{000a0000}[100039e5].dll#<\DLL>636  - Undefined Reference
    #<DLL>euser{000a0000}[100039e5].dll#<\DLL>639  - Undefined Reference
    #<DLL>euser{000a0000}[100039e5].dll#<\DLL>68f  - Undefined Reference
    #<DLL>euser{000a0000}[100039e5].dll#<\DLL>70c  - Undefined Reference
    #<DLL>euser{000a0000}[100039e5].dll#<\DLL>70f  - Undefined Reference
    #<DLL>euser{000a0000}[100039e5].dll#<\DLL>712  - Undefined Reference
    #<DLL>euser{000a0000}[100039e5].dll#<\DLL>71e  - Undefined Reference
    #<DLL>euser{000a0000}[100039e5].dll#<\DLL>80c  - Undefined Reference
    #<DLL>euser{000a0000}[100039e5].dll#<\DLL>80d  - Undefined Reference
    #<DLL>euser{000a0000}[100039e5].dll#<\DLL>822  - Undefined Reference
    #<DLL>euser{000a0000}[100039e5].dll#<\DLL>838  - Undefined Reference
    #<DLL>euser{000a0000}[100039e5].dll#<\DLL>83a  - Undefined Reference
    #<DLL>euser{000a0000}[100039e5].dll#<\DLL>cb  - Undefined Reference
    #<DLL>euser{000a0000}[100039e5].dll#<\DLL>cd  - Undefined Reference
    #<DLL>euser{000a0000}[100039e5].dll#<\DLL>d0  - Undefined Reference
    #<DLL>euser{000a0000}[100039e5].dll#<\DLL>d1  - Undefined Reference
    #<DLL>libc{00010000}[10207369].dll#<\DLL>15e  - Undefined Reference
    #<DLL>libstdcpp{00010000}[10282872].dll#<\DLL>3dc  - Undefined Reference
    #<DLL>libstdcpp{00010000}[10282872].dll#<\DLL>3e0  - Undefined Reference
    #<DLL>mdeclient{000a0000}[200009f1].dll#<\DLL>10  - Undefined Reference
    #<DLL>mdeclient{000a0000}[200009f1].dll#<\DLL>12  - Undefined Reference
    #<DLL>mdeclient{000a0000}[200009f1].dll#<\DLL>13  - Undefined Reference
    #<DLL>mdeclient{000a0000}[200009f1].dll#<\DLL>16  - Undefined Reference
    #<DLL>mdeclient{000a0000}[200009f1].dll#<\DLL>1e  - Undefined Reference
    #<DLL>mdeclient{000a0000}[200009f1].dll#<\DLL>20  - Undefined Reference
    #<DLL>mdeclient{000a0000}[200009f1].dll#<\DLL>28  - Undefined Reference
    #<DLL>mdeclient{000a0000}[200009f1].dll#<\DLL>2b  - Undefined Reference
    #<DLL>mdeclient{000a0000}[200009f1].dll#<\DLL>32  - Undefined Reference
    #<DLL>mdeclient{000a0000}[200009f1].dll#<\DLL>33  - Undefined Reference
    #<DLL>mdeclient{000a0000}[200009f1].dll#<\DLL>36  - Undefined Reference
    #<DLL>mdeclient{000a0000}[200009f1].dll#<\DLL>3a  - Undefined Reference
    #<DLL>mdeclient{000a0000}[200009f1].dll#<\DLL>41  - Undefined Reference
    #<DLL>mdeclient{000a0000}[200009f1].dll#<\DLL>42  - Undefined Reference
    #<DLL>mdeclient{000a0000}[200009f1].dll#<\DLL>44  - Undefined Reference
    #<DLL>mdeclient{000a0000}[200009f1].dll#<\DLL>45  - Undefined Reference
    #<DLL>mdeclient{000a0000}[200009f1].dll#<\DLL>48  - Undefined Reference
    #<DLL>mdeclient{000a0000}[200009f1].dll#<\DLL>49  - Undefined Reference
    #<DLL>mdeclient{000a0000}[200009f1].dll#<\DLL>4a  - Undefined Reference
    #<DLL>mdeclient{000a0000}[200009f1].dll#<\DLL>4c  - Undefined Reference
    #<DLL>mdeclient{000a0000}[200009f1].dll#<\DLL>4d  - Undefined Reference
    #<DLL>mdeclient{000a0000}[200009f1].dll#<\DLL>50  - Undefined Reference
    #<DLL>mdeclient{000a0000}[200009f1].dll#<\DLL>53  - Undefined Reference
    #<DLL>mdeclient{000a0000}[200009f1].dll#<\DLL>6b  - Undefined Reference
    #<DLL>mdeclient{000a0000}[200009f1].dll#<\DLL>71  - Undefined Reference
    #<DLL>mdeclient{000a0000}[200009f1].dll#<\DLL>72  - Undefined Reference
    #<DLL>mdeclient{000a0000}[200009f1].dll#<\DLL>74  - Undefined Reference
    #<DLL>mdeclient{000a0000}[200009f1].dll#<\DLL>76  - Undefined Reference
    #<DLL>mdeclient{000a0000}[200009f1].dll#<\DLL>77  - Undefined Reference
    #<DLL>mdeclient{000a0000}[200009f1].dll#<\DLL>78  - Undefined Reference
    #<DLL>mdeclient{000a0000}[200009f1].dll#<\DLL>80  - Undefined Reference
    #<DLL>mdeclient{000a0000}[200009f1].dll#<\DLL>81  - Undefined Reference
    #<DLL>mdeclient{000a0000}[200009f1].dll#<\DLL>85  - Undefined Reference
    #<DLL>mdeclient{000a0000}[200009f1].dll#<\DLL>94  - Undefined Reference
    #<DLL>mdeclient{000a0000}[200009f1].dll#<\DLL>98  - Undefined Reference
    #<DLL>mdeclient{000a0000}[200009f1].dll#<\DLL>a  - Undefined Reference
    #<DLL>mdeclient{000a0000}[200009f1].dll#<\DLL>a1  - Undefined Reference
    #<DLL>mdeclient{000a0000}[200009f1].dll#<\DLL>b  - Undefined Reference
    #<DLL>mdeclient{000a0000}[200009f1].dll#<\DLL>b7  - Undefined Reference
    #<DLL>mdeclient{000a0000}[200009f1].dll#<\DLL>be  - Undefined Reference
    #<DLL>mdeclient{000a0000}[200009f1].dll#<\DLL>e0  - Undefined Reference
    #<DLL>mdeclient{000a0000}[200009f1].dll#<\DLL>e3  - Undefined Reference
    #<DLL>mdeclient{000a0000}[200009f1].dll#<\DLL>e7  - Undefined Reference
    #<DLL>mdeclient{000a0000}[200009f1].dll#<\DLL>e9  - Undefined Reference
    QVectorData::shared_null                  - Undefined Reference
    QAbstractItemModel::staticMetaObject      - Undefined Reference
    QObject::staticMetaObject                 - Undefined Reference
    QString::shared_null                      - Undefined Reference
    QMapData::shared_null                     - Undefined Reference
    QHashData::shared_null                    - Undefined Reference
    QListData::shared_null                    - Undefined Reference
    typeinfo for XLeaveException              - Undefined Reference
    typeinfo for QAbstractItemModel           - Undefined Reference
    typeinfo for QObject                      - Undefined Reference
    typeinfo for std::exception               - Undefined Reference
    vtable for __cxxabiv1::__class_type_info  - Undefined Reference
    vtable for __cxxabiv1::__si_class_type_info  - Undefined Reference
    vtable for __cxxabiv1::__vmi_class_type_info  - Undefined Reference
    _fp_init                                  - Undefined Weak Reference
    run_static_dtors                          - Undefined Weak Reference
    Image$$ER_RO$$Base                       0x00008000   Number         0  anon$$obj.o(linker$$defined$$symbols)
    _E32Dll                                  0x00008000   ARM Code      40  uc_dll_.o(.emb_text)
    Symbian$$CPP$$Exception$$Descriptor      0x00008014   Data           0  uc_dll_.o(.emb_text)
    __cpp_initialize__aeabi_                 0x00008028   ARM Code      72  ucppinit_aeabi.o(.emb_text)
    QtMobility::QAbstractGallery::getStaticMetaObject() 0x00008071   Thumb Code     4  QtGallery.in(.text)
    std::nothrow                             0x00008071   Thumb Code     0  ucppinit_aeabi.o(.emb_text)
    QtMobility::QAbstractGallery::metaObject() const 0x00008075   Thumb Code    12  QtGallery.in(.text)
    QtMobility::QAbstractGallery::qt_metacast(const char*) 0x00008081   Thumb Code    40  QtGallery.in(.text)
    QtMobility::QAbstractGallery::qt_metacall(QMetaObject::Call, int, void**) 0x000080a9   Thumb Code     8  QtGallery.in(.text)
    QtMobility::QAbstractGallery::QAbstractGallery__sub_object(QObject*) 0x000080b1   Thumb Code    16  QtGallery.in(.text)
    QtMobility::QAbstractGallery::~QAbstractGallery() 0x000080c1   Thumb Code     0  QtGallery.in(.text)
    QtMobility::QAbstractGallery::~QAbstractGallery__sub_object() 0x000080c1   Thumb Code    24  QtGallery.in(.text)
    QtMobility::QAbstractGallery::~QAbstractGallery__deallocating() 0x000080d9   Thumb Code    16  QtGallery.in(.text)
    QtMobility::QAbstractGallery::QAbstractGallery__sub_object(QtMobility::QAbstractGalleryPrivate&, QObject*) 0x000080e9   Thumb Code    20  QtGallery.in(.text)
    QtMobility::QGalleryAbstractRequest::getStaticMetaObject() 0x00008105   Thumb Code     4  QtGallery.in(.text)
    QtMobility::QGalleryAbstractRequest::metaObject() const 0x00008109   Thumb Code    12  QtGallery.in(.text)
    QtMobility::QGalleryAbstractRequest::qt_metacast(const char*) 0x00008115   Thumb Code    40  QtGallery.in(.text)
    QtMobility::QGalleryAbstractRequest::supportedChanged() 0x0000813d   Thumb Code    14  QtGallery.in(.text)
    QtMobility::QGalleryAbstractRequest::galleryChanged() 0x0000814b   Thumb Code    14  QtGallery.in(.text)
    QtMobility::QGalleryAbstractRequest::setGallery(QtMobility::QAbstractGallery*) 0x00008159   Thumb Code    98  QtGallery.in(.text)
    QtMobility::QGalleryAbstractRequest::maximumProgress() const 0x000081bb   Thumb Code     6  QtGallery.in(.text)
    QtMobility::QGalleryAbstractRequest::currentProgress() const 0x000081c1   Thumb Code     6  QtGallery.in(.text)
    QtMobility::QGalleryAbstractRequest::errorString() const 0x000081c7   Thumb Code    16  QtGallery.in(.text)
    QtMobility::QGalleryAbstractRequest::error() const 0x000081d7   Thumb Code     6  QtGallery.in(.text)
    QtMobility::QGalleryAbstractRequest::state() const 0x000081dd   Thumb Code     6  QtGallery.in(.text)
    QtMobility::QGalleryAbstractRequest::isSupported() const 0x000081e3   Thumb Code    58  QtGallery.in(.text)
    QtMobility::QGalleryAbstractRequest::gallery() const 0x0000821d   Thumb Code    12  QtGallery.in(.text)
    QtMobility::QGalleryAbstractRequest::progressChanged(int, int) 0x00008229   Thumb Code    36  QtGallery.in(.text)
    QtMobility::QGalleryAbstractRequestPrivate::_q_progressChanged(int, int) 0x0000824d   Thumb Code     8  QtGallery.in(.text)
    QtMobility::QGalleryAbstractRequest::stateChanged(QtMobility::QGalleryAbstractRequest::State) 0x00008255   Thumb Code    30  QtGallery.in(.text)
    QtMobility::QGalleryAbstractRequestPrivate::_q_resumed() 0x00008273   Thumb Code    32  QtGallery.in(.text)
    QtMobility::QGalleryAbstractRequest::canceled() 0x00008293   Thumb Code    14  QtGallery.in(.text)
    QtMobility::QGalleryAbstractRequestPrivate::_q_canceled() 0x000082a1   Thumb Code    44  QtGallery.in(.text)
    QtMobility::QGalleryAbstractRequest::finished() 0x000082cd   Thumb Code    14  QtGallery.in(.text)
    QtMobility::QGalleryAbstractRequest::errorChanged() 0x000082db   Thumb Code    14  QtGallery.in(.text)
    QtMobility::QGalleryAbstractRequest::error(int, const QString&) 0x000082e9   Thumb Code    36  QtGallery.in(.text)
    QtMobility::QGalleryAbstractRequestPrivate::_q_finished() 0x0000830d   Thumb Code   180  QtGallery.in(.text)
    QtMobility::QGalleryAbstractRequest::clear() 0x000083c1   Thumb Code   154  QtGallery.in(.text)
    QtMobility::QGalleryAbstractRequest::cancel() 0x0000845b   Thumb Code    46  QtGallery.in(.text)
    QtMobility::QGalleryAbstractRequest::execute() 0x00008489   Thumb Code   844  QtGallery.in(.text)
    QtMobility::QGalleryAbstractRequest::qt_metacall(QMetaObject::Call, int, void**) 0x000087d5   Thumb Code   332  QtGallery.in(.text)
    QtMobility::QGalleryAbstractRequest::QGalleryAbstractRequest__sub_object(QtMobility::QGalleryAbstractRequest::RequestType, QObject*) 0x00008921   Thumb Code    56  QtGallery.in(.text)
    QtMobility::QGalleryAbstractRequest::QGalleryAbstractRequest__sub_object(QtMobility::QAbstractGallery*, QtMobility::QGalleryAbstractRequest::RequestType, QObject*) 0x00008959   Thumb Code    60  QtGallery.in(.text)
    QtMobility::QGalleryAbstractRequest::~QGalleryAbstractRequest() 0x00008995   Thumb Code     0  QtGallery.in(.text)
    QtMobility::QGalleryAbstractRequest::~QGalleryAbstractRequest__sub_object() 0x00008995   Thumb Code    24  QtGallery.in(.text)
    QtMobility::QGalleryAbstractRequest::~QGalleryAbstractRequest__deallocating() 0x000089ad   Thumb Code   236  QtGallery.in(.text)
    QtMobility::QGalleryAbstractRequest::type() const 0x00008a99   Thumb Code     6  QtGallery.in(.text)
    QtMobility::QGalleryAbstractRequest::waitForFinished(int) 0x00008a9f   Thumb Code    42  QtGallery.in(.text)
    QtMobility::QGalleryAbstractRequest::QGalleryAbstractRequest__sub_object(QtMobility::QGalleryAbstractRequestPrivate&, QObject*) 0x00008ac9   Thumb Code    20  QtGallery.in(.text)
    QtMobility::QGalleryAbstractResponse::getStaticMetaObject() 0x00008ae1   Thumb Code     4  QtGallery.in(.text)
    QtMobility::QGalleryAbstractResponse::metaObject() const 0x00008ae5   Thumb Code    12  QtGallery.in(.text)
    QtMobility::QGalleryAbstractResponse::qt_metacast(const char*) 0x00008af1   Thumb Code    40  QtGallery.in(.text)
    QtMobility::QGalleryAbstractResponse::progressChanged(int, int) 0x00008b19   Thumb Code    36  QtGallery.in(.text)
    QtMobility::QGalleryAbstractResponse::canceled() 0x00008b3d   Thumb Code    14  QtGallery.in(.text)
    QtMobility::QGalleryAbstractResponse::resumed() 0x00008b4b   Thumb Code    14  QtGallery.in(.text)
    QtMobility::QGalleryAbstractResponse::finished() 0x00008b59   Thumb Code    14  QtGallery.in(.text)
    QtMobility::QGalleryAbstractResponse::qt_metacall(QMetaObject::Call, int, void**) 0x00008b67   Thumb Code    80  QtGallery.in(.text)
    QtMobility::QGalleryAbstractResponse::error(int, const QString&) 0x00008bb7   Thumb Code    52  QtGallery.in(.text)
    QtMobility::QGalleryAbstractResponse::QGalleryAbstractResponse(int, const QString&, QObject*) 0x00008beb   Thumb Code    66  QtGallery.in(.text)
    QtMobility::QGalleryAbstractResponse::QGalleryAbstractResponse__sub_object(int, const QString&, QObject*) 0x00008beb   Thumb Code     0  QtGallery.in(.text)
    QtMobility::QGalleryAbstractResponse::~QGalleryAbstractResponse() 0x00008c2d   Thumb Code    24  QtGallery.in(.text)
    QtMobility::QGalleryAbstractResponse::~QGalleryAbstractResponse__sub_object() 0x00008c2d   Thumb Code     0  QtGallery.in(.text)
    QtMobility::QGalleryAbstractResponse::~QGalleryAbstractResponse__deallocating() 0x00008c45   Thumb Code    16  QtGallery.in(.text)
    QtMobility::QGalleryAbstractResponse::error() const 0x00008c55   Thumb Code     6  QtGallery.in(.text)
    QtMobility::QGalleryAbstractResponse::errorString() const 0x00008c5b   Thumb Code    16  QtGallery.in(.text)
    QtMobility::QGalleryAbstractResponse::isActive() const 0x00008c6b   Thumb Code    14  QtGallery.in(.text)
    QtMobility::QGalleryAbstractResponse::isIdle() const 0x00008c79   Thumb Code    16  QtGallery.in(.text)
    QtMobility::QGalleryAbstractResponse::cancel() 0x00008c89   Thumb Code    40  QtGallery.in(.text)
    QtMobility::QGalleryAbstractResponse::waitForFinished(int) 0x00008cb1   Thumb Code   112  QtGallery.in(.text)
    QtMobility::QGalleryAbstractResponse::QGalleryAbstractResponse(QObject*) 0x00008d21   Thumb Code    48  QtGallery.in(.text)
    QtMobility::QGalleryAbstractResponse::QGalleryAbstractResponse__sub_object(QObject*) 0x00008d21   Thumb Code     0  QtGallery.in(.text)
    QtMobility::QGalleryAbstractResponse::QGalleryAbstractResponse(QtMobility::QGalleryAbstractResponsePrivate&, QObject*) 0x00008d51   Thumb Code    20  QtGallery.in(.text)
    QtMobility::QGalleryAbstractResponse::QGalleryAbstractResponse__sub_object(QtMobility::QGalleryAbstractResponsePrivate&, QObject*) 0x00008d51   Thumb Code     0  QtGallery.in(.text)
    QtMobility::QGalleryAbstractResponse::finish(bool) 0x00008d65   Thumb Code    50  QtGallery.in(.text)
    QtMobility::QGalleryAbstractResponse::resume() 0x00008d97   Thumb Code    16  QtGallery.in(.text)
    QtMobility::QGalleryFilter::QGalleryFilter() 0x00008db9   Thumb Code    48  QtGallery.in(.text)
    QtMobility::QGalleryFilter::QGalleryFilter__sub_object() 0x00008db9   Thumb Code     0  QtGallery.in(.text)
    QtMobility::QGalleryFilter::QGalleryFilter(const QtMobility::QGalleryFilter&) 0x00008de9   Thumb Code    22  QtGallery.in(.text)
    QtMobility::QGalleryFilter::QGalleryFilter__sub_object(const QtMobility::QGalleryFilter&) 0x00008de9   Thumb Code     0  QtGallery.in(.text)
    QtMobility::QGalleryFilter::QGalleryFilter(const QtMobility::QGalleryIntersectionFilter&) 0x00008dff   Thumb Code    10  QtGallery.in(.text)
    QtMobility::QGalleryFilter::QGalleryFilter__sub_object(const QtMobility::QGalleryIntersectionFilter&) 0x00008dff   Thumb Code     0  QtGallery.in(.text)
    QtMobility::QGalleryFilter::QGalleryFilter(const QtMobility::QGalleryUnionFilter&) 0x00008e09   Thumb Code    10  QtGallery.in(.text)
    QtMobility::QGalleryFilter::QGalleryFilter__sub_object(const QtMobility::QGalleryUnionFilter&) 0x00008e09   Thumb Code     0  QtGallery.in(.text)
    QtMobility::QGalleryFilter::QGalleryFilter(const QtMobility::QGalleryMetaDataFilter&) 0x00008e13   Thumb Code    10  QtGallery.in(.text)
    QtMobility::QGalleryFilter::QGalleryFilter__sub_object(const QtMobility::QGalleryMetaDataFilter&) 0x00008e13   Thumb Code     0  QtGallery.in(.text)
    QtMobility::QGalleryFilter::~QGalleryFilter() 0x00008e1d   Thumb Code     8  QtGallery.in(.text)
    QtMobility::QGalleryFilter::~QGalleryFilter__sub_object() 0x00008e1d   Thumb Code     0  QtGallery.in(.text)
    QtMobility::QGalleryFilter::operator =(const QtMobility::QGalleryFilter&) 0x00008e25   Thumb Code    56  QtGallery.in(.text)
    QtMobility::QGalleryFilter::type() const 0x00008e5d   Thumb Code     6  QtGallery.in(.text)
    QtMobility::QGalleryFilter::isValid() const 0x00008e63   Thumb Code    16  QtGallery.in(.text)
    QtMobility::QGalleryIntersectionFilter::~QGalleryIntersectionFilter() 0x00008e73   Thumb Code     8  QtGallery.in(.text)
    QtMobility::QGalleryIntersectionFilter::~QGalleryIntersectionFilter__sub_object() 0x00008e73   Thumb Code     0  QtGallery.in(.text)
    QtMobility::QGalleryIntersectionFilter::QGalleryIntersectionFilter(const QtMobility::QGalleryIntersectionFilter&) 0x00008e7b   Thumb Code    22  QtGallery.in(.text)
    QtMobility::QGalleryIntersectionFilter::QGalleryIntersectionFilter__sub_object(const QtMobility::QGalleryIntersectionFilter&) 0x00008e7b   Thumb Code     0  QtGallery.in(.text)
    QtMobility::QGalleryFilter::toIntersectionFilter() const 0x00008e91   Thumb Code   102  QtGallery.in(.text)
    QtMobility::QGalleryUnionFilter::~QGalleryUnionFilter() 0x00008ef7   Thumb Code     8  QtGallery.in(.text)
    QtMobility::QGalleryUnionFilter::~QGalleryUnionFilter__sub_object() 0x00008ef7   Thumb Code     0  QtGallery.in(.text)
    QtMobility::QGalleryUnionFilter::QGalleryUnionFilter(const QtMobility::QGalleryUnionFilter&) 0x00008eff   Thumb Code    22  QtGallery.in(.text)
    QtMobility::QGalleryUnionFilter::QGalleryUnionFilter__sub_object(const QtMobility::QGalleryUnionFilter&) 0x00008eff   Thumb Code     0  QtGallery.in(.text)
    QtMobility::QGalleryFilter::toUnionFilter() const 0x00008f15   Thumb Code   100  QtGallery.in(.text)
    QtMobility::QGalleryMetaDataFilter::~QGalleryMetaDataFilter() 0x00008f79   Thumb Code     8  QtGallery.in(.text)
    QtMobility::QGalleryMetaDataFilter::~QGalleryMetaDataFilter__sub_object() 0x00008f79   Thumb Code     0  QtGallery.in(.text)
    QtMobility::QGalleryMetaDataFilter::QGalleryMetaDataFilter(const QtMobility::QGalleryMetaDataFilter&) 0x00008f81   Thumb Code    22  QtGallery.in(.text)
    QtMobility::QGalleryMetaDataFilter::QGalleryMetaDataFilter__sub_object(const QtMobility::QGalleryMetaDataFilter&) 0x00008f81   Thumb Code     0  QtGallery.in(.text)
    QtMobility::QGalleryFilter::toMetaDataFilter() const 0x00008f97   Thumb Code   100  QtGallery.in(.text)
    QtMobility::QGalleryIntersectionFilter::QGalleryIntersectionFilter() 0x00008ffb   Thumb Code    44  QtGallery.in(.text)
    QtMobility::QGalleryIntersectionFilter::QGalleryIntersectionFilter__sub_object() 0x00008ffb   Thumb Code     0  QtGallery.in(.text)
    QtMobility::QGalleryIntersectionFilter::QGalleryIntersectionFilter(const QtMobility::QGalleryMetaDataFilter&) 0x00009027   Thumb Code    80  QtGallery.in(.text)
    QtMobility::QGalleryIntersectionFilter::QGalleryIntersectionFilter__sub_object(const QtMobility::QGalleryMetaDataFilter&) 0x00009027   Thumb Code     0  QtGallery.in(.text)
    QtMobility::QGalleryIntersectionFilter::QGalleryIntersectionFilter(const QtMobility::QGalleryUnionFilter&) 0x00009077   Thumb Code    80  QtGallery.in(.text)
    QtMobility::QGalleryIntersectionFilter::QGalleryIntersectionFilter__sub_object(const QtMobility::QGalleryUnionFilter&) 0x00009077   Thumb Code     0  QtGallery.in(.text)
    QtMobility::QGalleryIntersectionFilter::operator =(const QtMobility::QGalleryIntersectionFilter&) 0x000090c7   Thumb Code    56  QtGallery.in(.text)
    QtMobility::QGalleryIntersectionFilter::isValid() const 0x000090ff   Thumb Code    14  QtGallery.in(.text)
    QtMobility::QGalleryIntersectionFilter::filterCount() const 0x0000910d   Thumb Code    12  QtGallery.in(.text)
    QtMobility::QGalleryIntersectionFilter::isEmpty() const 0x00009119   Thumb Code    12  QtGallery.in(.text)
    QtMobility::QGalleryIntersectionFilter::filters() const 0x00009125   Thumb Code    12  QtGallery.in(.text)
    QtMobility::QGalleryIntersectionFilter::append(const QtMobility::QGalleryMetaDataFilter&) 0x00009131   Thumb Code    34  QtGallery.in(.text)
    QtMobility::QGalleryIntersectionFilter::append(const QtMobility::QGalleryUnionFilter&) 0x00009153   Thumb Code    38  QtGallery.in(.text)
    QtMobility::QGalleryIntersectionFilter::append(const QtMobility::QGalleryIntersectionFilter&) 0x00009179   Thumb Code    20  QtGallery.in(.text)
    QtMobility::QGalleryIntersectionFilter::prepend(const QtMobility::QGalleryMetaDataFilter&) 0x0000918d   Thumb Code    34  QtGallery.in(.text)
    QtMobility::QGalleryIntersectionFilter::prepend(const QtMobility::QGalleryUnionFilter&) 0x000091af   Thumb Code    34  QtGallery.in(.text)
    QtMobility::QGalleryIntersectionFilter::prepend(const QtMobility::QGalleryIntersectionFilter&) 0x000091d1   Thumb Code    46  QtGallery.in(.text)
    QtMobility::QGalleryIntersectionFilter::insert(int, const QtMobility::QGalleryMetaDataFilter&) 0x000091ff   Thumb Code    40  QtGallery.in(.text)
    QtMobility::QGalleryIntersectionFilter::insert(int, const QtMobility::QGalleryUnionFilter&) 0x00009227   Thumb Code    40  QtGallery.in(.text)
    QtMobility::QGalleryIntersectionFilter::insert(int, const QtMobility::QGalleryIntersectionFilter&) 0x0000924f   Thumb Code   110  QtGallery.in(.text)
    QtMobility::QGalleryIntersectionFilter::replace(int, const QtMobility::QGalleryMetaDataFilter&) 0x000092bd   Thumb Code    40  QtGallery.in(.text)
    QtMobility::QGalleryIntersectionFilter::replace(int, const QtMobility::QGalleryUnionFilter&) 0x000092e5   Thumb Code    40  QtGallery.in(.text)
    QtMobility::QGalleryIntersectionFilter::remove(int) 0x0000930d   Thumb Code    18  QtGallery.in(.text)
    QtMobility::QGalleryIntersectionFilter::clear() 0x0000931f   Thumb Code    14  QtGallery.in(.text)
    QtMobility::QGalleryIntersectionFilter::operator <<(const QtMobility::QGalleryIntersectionFilter&) 0x0000932d   Thumb Code    24  QtGallery.in(.text)
    QtMobility::QGalleryUnionFilter::QGalleryUnionFilter() 0x00009345   Thumb Code    44  QtGallery.in(.text)
    QtMobility::QGalleryUnionFilter::QGalleryUnionFilter__sub_object() 0x00009345   Thumb Code     0  QtGallery.in(.text)
    QtMobility::QGalleryUnionFilter::QGalleryUnionFilter(const QtMobility::QGalleryMetaDataFilter&) 0x00009371   Thumb Code    80  QtGallery.in(.text)
    QtMobility::QGalleryUnionFilter::QGalleryUnionFilter__sub_object(const QtMobility::QGalleryMetaDataFilter&) 0x00009371   Thumb Code     0  QtGallery.in(.text)
    QtMobility::QGalleryUnionFilter::QGalleryUnionFilter(const QtMobility::QGalleryIntersectionFilter&) 0x000093c1   Thumb Code    80  QtGallery.in(.text)
    QtMobility::QGalleryUnionFilter::QGalleryUnionFilter__sub_object(const QtMobility::QGalleryIntersectionFilter&) 0x000093c1   Thumb Code     0  QtGallery.in(.text)
    QtMobility::QGalleryUnionFilter::operator =(const QtMobility::QGalleryUnionFilter&) 0x00009411   Thumb Code    56  QtGallery.in(.text)
    QtMobility::QGalleryUnionFilter::isValid() const 0x00009449   Thumb Code    16  QtGallery.in(.text)
    QtMobility::QGalleryUnionFilter::filterCount() const 0x00009459   Thumb Code    12  QtGallery.in(.text)
    QtMobility::QGalleryUnionFilter::isEmpty() const 0x00009465   Thumb Code    12  QtGallery.in(.text)
    QtMobility::QGalleryUnionFilter::filters() const 0x00009471   Thumb Code    12  QtGallery.in(.text)
    QtMobility::QGalleryUnionFilter::append(const QtMobility::QGalleryMetaDataFilter&) 0x0000947d   Thumb Code    34  QtGallery.in(.text)
    QtMobility::QGalleryUnionFilter::append(const QtMobility::QGalleryIntersectionFilter&) 0x0000949f   Thumb Code    34  QtGallery.in(.text)
    QtMobility::QGalleryUnionFilter::append(const QtMobility::QGalleryUnionFilter&) 0x000094c1   Thumb Code    20  QtGallery.in(.text)
    QtMobility::QGalleryUnionFilter::prepend(const QtMobility::QGalleryMetaDataFilter&) 0x000094d5   Thumb Code    34  QtGallery.in(.text)
    QtMobility::QGalleryUnionFilter::prepend(const QtMobility::QGalleryIntersectionFilter&) 0x000094f7   Thumb Code    34  QtGallery.in(.text)
    QtMobility::QGalleryUnionFilter::prepend(const QtMobility::QGalleryUnionFilter&) 0x00009519   Thumb Code    46  QtGallery.in(.text)
    QtMobility::QGalleryUnionFilter::insert(int, const QtMobility::QGalleryMetaDataFilter&) 0x00009547   Thumb Code    40  QtGallery.in(.text)
    QtMobility::QGalleryUnionFilter::insert(int, const QtMobility::QGalleryIntersectionFilter&) 0x0000956f   Thumb Code    40  QtGallery.in(.text)
    QtMobility::QGalleryUnionFilter::insert(int, const QtMobility::QGalleryUnionFilter&) 0x00009597   Thumb Code   110  QtGallery.in(.text)
    QtMobility::QGalleryUnionFilter::replace(int, const QtMobility::QGalleryMetaDataFilter&) 0x00009605   Thumb Code    40  QtGallery.in(.text)
    QtMobility::QGalleryUnionFilter::replace(int, const QtMobility::QGalleryIntersectionFilter&) 0x0000962d   Thumb Code    40  QtGallery.in(.text)
    QtMobility::QGalleryUnionFilter::remove(int) 0x00009655   Thumb Code    18  QtGallery.in(.text)
    QtMobility::QGalleryUnionFilter::clear() 0x00009667   Thumb Code    14  QtGallery.in(.text)
    QtMobility::QGalleryUnionFilter::operator <<(const QtMobility::QGalleryUnionFilter&) 0x00009675   Thumb Code    24  QtGallery.in(.text)
    QtMobility::QGalleryMetaDataFilter::QGalleryMetaDataFilter() 0x0000968d   Thumb Code    44  QtGallery.in(.text)
    QtMobility::QGalleryMetaDataFilter::QGalleryMetaDataFilter__sub_object() 0x0000968d   Thumb Code     0  QtGallery.in(.text)
    QtMobility::QGalleryMetaDataFilter::QGalleryMetaDataFilter(const QString&, const QVariant&, QtMobility::QGalleryFilter::Comparator) 0x000096b9   Thumb Code    86  QtGallery.in(.text)
    QtMobility::QGalleryMetaDataFilter::QGalleryMetaDataFilter__sub_object(const QString&, const QVariant&, QtMobility::QGalleryFilter::Comparator) 0x000096b9   Thumb Code     0  QtGallery.in(.text)
    QtMobility::QGalleryMetaDataFilter::operator =(const QtMobility::QGalleryMetaDataFilter&) 0x0000970f   Thumb Code    56  QtGallery.in(.text)
    QtMobility::QGalleryMetaDataFilter::isValid() const 0x00009747   Thumb Code    16  QtGallery.in(.text)
    QtMobility::QGalleryMetaDataFilter::propertyName() const 0x00009757   Thumb Code    12  QtGallery.in(.text)
    QtMobility::QGalleryMetaDataFilter::setPropertyName(const QString&) 0x00009763   Thumb Code    18  QtGallery.in(.text)
    QtMobility::QGalleryMetaDataFilter::value() const 0x00009775   Thumb Code    12  QtGallery.in(.text)
    QtMobility::QGalleryMetaDataFilter::setValue(const QVariant&) 0x00009781   Thumb Code    18  QtGallery.in(.text)
    QtMobility::QGalleryMetaDataFilter::comparator() const 0x00009793   Thumb Code     6  QtGallery.in(.text)
    QtMobility::QGalleryMetaDataFilter::setComparator(QtMobility::QGalleryFilter::Comparator) 0x00009799   Thumb Code    12  QtGallery.in(.text)
    QtMobility::QGalleryMetaDataFilter::isNegated() const 0x000097a5   Thumb Code     6  QtGallery.in(.text)
    QtMobility::QGalleryMetaDataFilter::setNegated(bool) 0x000097ab   Thumb Code    12  QtGallery.in(.text)
    QtMobility::QGalleryMetaDataFilter::operator !() const 0x000097b7   Thumb Code    32  QtGallery.in(.text)
    QtMobility::operator ==(const QtMobility::QGalleryFilter&, const QtMobility::QGalleryFilter&) 0x000097d7   Thumb Code    28  QtGallery.in(.text)
    QtMobility::operator <<(QDebug, const QtMobility::QGalleryFilter&) 0x000097f3   Thumb Code    32  QtGallery.in(.text)
    QtMobility::operator &&(const QtMobility::QGalleryIntersectionFilter&, const QtMobility::QGalleryIntersectionFilter&) 0x00009813   Thumb Code    18  QtGallery.in(.text)
    QtMobility::operator ||(const QtMobility::QGalleryUnionFilter&, const QtMobility::QGalleryUnionFilter&) 0x00009825   Thumb Code    18  QtGallery.in(.text)
    QtMobility::operator !=(const QtMobility::QGalleryFilter&, const QtMobility::QGalleryFilter&) 0x00009837   Thumb Code    28  QtGallery.in(.text)
    QtMobility::QGalleryItemRequest::getStaticMetaObject() 0x00009855   Thumb Code     4  QtGallery.in(.text)
    QtMobility::QGalleryItemRequest::metaObject() const 0x00009859   Thumb Code    12  QtGallery.in(.text)
    QtMobility::QGalleryItemRequest::qt_metacast(const char*) 0x00009865   Thumb Code    40  QtGallery.in(.text)
    QtMobility::QGalleryItemRequest::itemIdChanged() 0x0000988d   Thumb Code    14  QtGallery.in(.text)
    QtMobility::QGalleryItemRequest::setItemId(const QVariant&) 0x0000989b   Thumb Code    38  QtGallery.in(.text)
    QtMobility::QGalleryItemRequest::autoUpdateChanged() 0x000098c1   Thumb Code    14  QtGallery.in(.text)
    QtMobility::QGalleryItemRequest::setAutoUpdate(bool) 0x000098cf   Thumb Code    16  QtGallery.in(.text)
    QtMobility::QGalleryItemRequest::propertyNamesChanged() 0x000098df   Thumb Code    14  QtGallery.in(.text)
    QtMobility::QGalleryItemRequest::setPropertyNames(const QStringList&) 0x000098ed   Thumb Code   114  QtGallery.in(.text)
    QtMobility::QGalleryItemRequest::resources() const 0x0000995f   Thumb Code    10  QtGallery.in(.text)
    QtMobility::QGalleryItemRequest::itemUrl() const 0x00009969   Thumb Code    10  QtGallery.in(.text)
    QtMobility::QGalleryItemRequest::itemType() const 0x00009973   Thumb Code    10  QtGallery.in(.text)
    QtMobility::QGalleryItemRequest::isValid() const 0x0000997d   Thumb Code    10  QtGallery.in(.text)
    QtMobility::QGalleryItemRequest::itemId() const 0x00009987   Thumb Code    12  QtGallery.in(.text)
    QtMobility::QGalleryItemRequest::autoUpdate() const 0x00009993   Thumb Code     8  QtGallery.in(.text)
    QtMobility::QGalleryItemRequest::propertyNames() const 0x0000999b   Thumb Code    32  QtGallery.in(.text)
    QtMobility::QGalleryItemRequest::metaDataChanged(const QList<int>&) 0x000099bb   Thumb Code    24  QtGallery.in(.text)
    QtMobility::QGalleryItemRequest::itemChanged() 0x000099d3   Thumb Code    14  QtGallery.in(.text)
    QtMobility::QGalleryItemRequest::resultSetChanged(QtMobility::QGalleryResultSet*) 0x000099e1   Thumb Code    30  QtGallery.in(.text)
    QtMobility::QGalleryItemRequest::qt_metacall(QMetaObject::Call, int, void**) 0x000099ff   Thumb Code   518  QtGallery.in(.text)
    QtMobility::QGalleryItemRequest::QGalleryItemRequest(QObject*) 0x00009c05   Thumb Code    52  QtGallery.in(.text)
    QtMobility::QGalleryItemRequest::QGalleryItemRequest__sub_object(QObject*) 0x00009c05   Thumb Code     0  QtGallery.in(.text)
    QtMobility::QGalleryItemRequest::QGalleryItemRequest(QtMobility::QAbstractGallery*, QObject*) 0x00009c39   Thumb Code    52  QtGallery.in(.text)
    QtMobility::QGalleryItemRequest::QGalleryItemRequest__sub_object(QtMobility::QAbstractGallery*, QObject*) 0x00009c39   Thumb Code     0  QtGallery.in(.text)
    QtMobility::QGalleryItemRequest::~QGalleryItemRequest() 0x00009c6d   Thumb Code     8  QtGallery.in(.text)
    QtMobility::QGalleryItemRequest::~QGalleryItemRequest__sub_object() 0x00009c6d   Thumb Code     0  QtGallery.in(.text)
    QtMobility::QGalleryItemRequest::~QGalleryItemRequest__deallocating() 0x00009c75   Thumb Code    16  QtGallery.in(.text)
    QtMobility::QGalleryItemRequest::resultSet() const 0x00009c85   Thumb Code     6  QtGallery.in(.text)
    QtMobility::QGalleryItemRequest::propertyKey(const QString&) const 0x00009c8b   Thumb Code    10  QtGallery.in(.text)
    QtMobility::QGalleryItemRequest::propertyAttributes(int) const 0x00009c95   Thumb Code    10  QtGallery.in(.text)
    QtMobility::QGalleryItemRequest::propertyType(int) const 0x00009c9f   Thumb Code    10  QtGallery.in(.text)
    QtMobility::QGalleryItemRequest::metaData(int) const 0x00009ca9   Thumb Code    10  QtGallery.in(.text)
    QtMobility::QGalleryItemRequest::setMetaData(int, const QVariant&) 0x00009cb3   Thumb Code    10  QtGallery.in(.text)
    QtMobility::QGalleryItemRequest::metaData(const QString&) const 0x00009cbd   Thumb Code    34  QtGallery.in(.text)
    QtMobility::QGalleryItemRequest::setMetaData(const QString&, const QVariant&) 0x00009cdf   Thumb Code    30  QtGallery.in(.text)
    QtMobility::QGalleryItemRequest::setResponse(QtMobility::QGalleryAbstractResponse*) 0x00009cfd   Thumb Code   622  QtGallery.in(.text)
    QtMobility::QGalleryQueryModel::getStaticMetaObject() 0x00009f71   Thumb Code     4  QtGallery.in(.text)
    QtMobility::QGalleryQueryModel::metaObject() const 0x00009f75   Thumb Code    12  QtGallery.in(.text)
    QtMobility::QGalleryQueryModel::qt_metacast(const char*) 0x00009f81   Thumb Code    40  QtGallery.in(.text)
    QtMobility::QGalleryQueryModel::setFilter(const QtMobility::QGalleryFilter&) 0x00009fa9   Thumb Code    12  QtGallery.in(.text)
    QtMobility::QGalleryQueryModel::setScope(QtMobility::QGalleryQueryRequest::Scope) 0x00009fb5   Thumb Code    12  QtGallery.in(.text)
    QtMobility::QGalleryQueryModel::setRootItem(const QVariant&) 0x00009fc1   Thumb Code    12  QtGallery.in(.text)
    QtMobility::QGalleryQueryModel::setRootType(const QString&) 0x00009fcd   Thumb Code    12  QtGallery.in(.text)
    QtMobility::QGalleryQueryModel::setLimit(int) 0x00009fd9   Thumb Code    12  QtGallery.in(.text)
    QtMobility::QGalleryQueryModel::setOffset(int) 0x00009fe5   Thumb Code    12  QtGallery.in(.text)
    QtMobility::QGalleryQueryModel::setAutoUpdate(bool) 0x00009ff1   Thumb Code    12  QtGallery.in(.text)
    QtMobility::QGalleryQueryModel::setSortPropertyNames(const QStringList&) 0x00009ffd   Thumb Code    12  QtGallery.in(.text)
    QtMobility::QGalleryQueryModel::setGallery(QtMobility::QAbstractGallery*) 0x0000a009   Thumb Code    12  QtGallery.in(.text)
    QtMobility::QGalleryQueryModel::state() const 0x0000a015   Thumb Code    12  QtGallery.in(.text)
    QtMobility::QGalleryQueryModel::errorString() const 0x0000a021   Thumb Code    12  QtGallery.in(.text)
    QtMobility::QGalleryQueryModel::error() const 0x0000a02d   Thumb Code    12  QtGallery.in(.text)
    QtMobility::QGalleryQueryModel::filter() const 0x0000a039   Thumb Code    12  QtGallery.in(.text)
    QtMobility::QGalleryQueryModel::scope() const 0x0000a045   Thumb Code    12  QtGallery.in(.text)
    QtMobility::QGalleryQueryModel::rootItem() const 0x0000a051   Thumb Code    12  QtGallery.in(.text)
    QtMobility::QGalleryQueryModel::rootType() const 0x0000a05d   Thumb Code    12  QtGallery.in(.text)
    QtMobility::QGalleryQueryModel::limit() const 0x0000a069   Thumb Code    12  QtGallery.in(.text)
    QtMobility::QGalleryQueryModel::offset() const 0x0000a075   Thumb Code    12  QtGallery.in(.text)
    QtMobility::QGalleryQueryModel::autoUpdate() const 0x0000a081   Thumb Code    12  QtGallery.in(.text)
    QtMobility::QGalleryQueryModel::sortPropertyNames() const 0x0000a08d   Thumb Code    12  QtGallery.in(.text)
    QtMobility::QGalleryQueryModel::gallery() const 0x0000a099   Thumb Code    12  QtGallery.in(.text)
    QtMobility::QGalleryQueryModelPrivate::_q_metaDataChanged(int, int, const QList<int>&) 0x0000a0a5   Thumb Code   226  QtGallery.in(.text)
    QtMobility::QGalleryQueryModelPrivate::_q_itemsMoved(int, int, int) 0x0000a187   Thumb Code    68  QtGallery.in(.text)
    QtMobility::QGalleryQueryModelPrivate::_q_itemsRemoved(int, int) 0x0000a1cb   Thumb Code    52  QtGallery.in(.text)
    QtMobility::QGalleryQueryModelPrivate::_q_itemsInserted(int, int) 0x0000a1ff   Thumb Code    52  QtGallery.in(.text)
    QtMobility::QGalleryQueryModelPrivate::_q_resultSetChanged(QtMobility::QGalleryResultSet*) 0x0000a233   Thumb Code   158  QtGallery.in(.text)
    QtMobility::QGalleryQueryModel::stateChanged(QtMobility::QGalleryAbstractRequest::State) 0x0000a2d1   Thumb Code    30  QtGallery.in(.text)
    QtMobility::QGalleryQueryModel::errorChanged() 0x0000a2ef   Thumb Code    14  QtGallery.in(.text)
    QtMobility::QGalleryQueryModel::error(int, const QString&) 0x0000a2fd   Thumb Code   280  QtGallery.in(.text)
    QtMobility::QGalleryQueryModel::canceled() 0x0000a415   Thumb Code    14  QtGallery.in(.text)
    QtMobility::QGalleryQueryModel::finished() 0x0000a423   Thumb Code    14  QtGallery.in(.text)
    QtMobility::QGalleryQueryModel::filterChanged() 0x0000a431   Thumb Code    14  QtGallery.in(.text)
    QtMobility::QGalleryQueryModel::scopeChanged() 0x0000a43f   Thumb Code    14  QtGallery.in(.text)
    QtMobility::QGalleryQueryModel::rootItemChanged() 0x0000a44d   Thumb Code    14  QtGallery.in(.text)
    QtMobility::QGalleryQueryModel::rootTypeChanged() 0x0000a45b   Thumb Code    14  QtGallery.in(.text)
    QtMobility::QGalleryQueryModel::limitChanged() 0x0000a469   Thumb Code    14  QtGallery.in(.text)
    QtMobility::QGalleryQueryModel::offsetChanged() 0x0000a477   Thumb Code    14  QtGallery.in(.text)
    QtMobility::QGalleryQueryModel::autoUpdateChanged() 0x0000a485   Thumb Code    14  QtGallery.in(.text)
    QtMobility::QGalleryQueryModel::sortPropertyNamesChanged() 0x0000a493   Thumb Code    14  QtGallery.in(.text)
    QtMobility::QGalleryQueryModel::galleryChanged() 0x0000a4a1   Thumb Code    14  QtGallery.in(.text)
    QtMobility::QGalleryQueryModel::qt_metacall(QMetaObject::Call, int, void**) 0x0000a4af   Thumb Code   598  QtGallery.in(.text)
    QtMobility::QGalleryQueryModel::QGalleryQueryModel(QObject*) 0x0000a705   Thumb Code    54  QtGallery.in(.text)
    QtMobility::QGalleryQueryModel::QGalleryQueryModel__sub_object(QObject*) 0x0000a705   Thumb Code     0  QtGallery.in(.text)
    QtMobility::QGalleryQueryModel::QGalleryQueryModel(QtMobility::QAbstractGallery*, QObject*) 0x0000a73b   Thumb Code    58  QtGallery.in(.text)
    QtMobility::QGalleryQueryModel::QGalleryQueryModel__sub_object(QtMobility::QAbstractGallery*, QObject*) 0x0000a73b   Thumb Code     0  QtGallery.in(.text)
    QtMobility::QGalleryQueryModel::~QGalleryQueryModel() 0x0000a775   Thumb Code    24  QtGallery.in(.text)
    QtMobility::QGalleryQueryModel::~QGalleryQueryModel__sub_object() 0x0000a775   Thumb Code     0  QtGallery.in(.text)
    QtMobility::QGalleryQueryModel::~QGalleryQueryModel__deallocating() 0x0000a78d   Thumb Code    16  QtGallery.in(.text)
    QtMobility::QGalleryQueryModel::roleProperties(int) const 0x0000a79d   Thumb Code    44  QtGallery.in(.text)
    QtMobility::QGalleryQueryModelPrivate::updateRoles(int) 0x0000a7c9   Thumb Code   344  QtGallery.in(.text)
    QtMobility::QGalleryQueryModel::setRoleProperties(int, const QHash<int, QString>&) 0x0000a921   Thumb Code    90  QtGallery.in(.text)
    QtMobility::QGalleryQueryModel::addColumn(const QHash<int, QString>&) 0x0000a97b   Thumb Code   146  QtGallery.in(.text)
    QtMobility::QGalleryQueryModel::addColumn(const QString&, int) 0x0000aa0d   Thumb Code    42  QtGallery.in(.text)
    QtMobility::QGalleryQueryModel::insertColumn(int, const QHash<int, QString>&) 0x0000aa37   Thumb Code   196  QtGallery.in(.text)
    QtMobility::QGalleryQueryModel::insertColumn(int, const QString&, int) 0x0000aafb   Thumb Code    46  QtGallery.in(.text)
    QtMobility::QGalleryQueryModel::removeColumn(int) 0x0000ab29   Thumb Code   314  QtGallery.in(.text)
    QtMobility::QGalleryQueryModelPrivate::updateRoles() 0x0000ac63   Thumb Code   334  QtGallery.in(.text)
    QtMobility::QGalleryQueryModel::execute() 0x0000adb1   Thumb Code    94  QtGallery.in(.text)
    QtMobility::QGalleryQueryModel::cancel() 0x0000ae0f   Thumb Code    12  QtGallery.in(.text)
    QtMobility::QGalleryQueryModel::clear()  0x0000ae1b   Thumb Code    12  QtGallery.in(.text)
    QtMobility::QGalleryQueryModel::index(int, int, const QModelIndex&) const 0x0000ae27   Thumb Code   118  QtGallery.in(.text)
    QtMobility::QGalleryQueryModel::parent(const QModelIndex&) const 0x0000ae9d   Thumb Code     8  QtGallery.in(.text)
    QtMobility::QGalleryQueryModel::rowCount(const QModelIndex&) const 0x0000aea5   Thumb Code    24  QtGallery.in(.text)
    QtMobility::QGalleryQueryModel::columnCount(const QModelIndex&) const 0x0000aebd   Thumb Code    24  QtGallery.in(.text)
    QtMobility::QGalleryQueryModel::data(const QModelIndex&, int) const 0x0000aed5   Thumb Code   142  QtGallery.in(.text)
    QtMobility::QGalleryQueryModel::setData(const QModelIndex&, const QVariant&, int) 0x0000af63   Thumb Code   134  QtGallery.in(.text)
    QtMobility::QGalleryQueryModel::itemId(const QModelIndex&) const 0x0000afe9   Thumb Code    68  QtGallery.in(.text)
    QtMobility::QGalleryQueryModel::itemUrl(const QModelIndex&) const 0x0000b02d   Thumb Code    68  QtGallery.in(.text)
    QtMobility::QGalleryQueryModel::itemType(const QModelIndex&) const 0x0000b071   Thumb Code    70  QtGallery.in(.text)
    QtMobility::QGalleryQueryModel::headerData(int, Qt::Orientation, int) const 0x0000b0b7   Thumb Code   162  QtGallery.in(.text)
    QtMobility::QGalleryQueryModel::setHeaderData(int, Qt::Orientation, const QVariant&, int) 0x0000b159   Thumb Code    82  QtGallery.in(.text)
    QtMobility::QGalleryQueryModel::flags(const QModelIndex&) const 0x0000b1ab   Thumb Code    34  QtGallery.in(.text)
    QtMobility::QGalleryQueryRequest::getStaticMetaObject() 0x0000b1d1   Thumb Code     4  QtGallery.in(.text)
    QtMobility::QGalleryQueryRequest::metaObject() const 0x0000b1d5   Thumb Code    12  QtGallery.in(.text)
    QtMobility::QGalleryQueryRequest::qt_metacast(const char*) 0x0000b1e1   Thumb Code    40  QtGallery.in(.text)
    QtMobility::QGalleryQueryRequest::seek(int, bool) 0x0000b209   Thumb Code    34  QtGallery.in(.text)
    QtMobility::QGalleryQueryRequest::filterChanged() 0x0000b22b   Thumb Code    14  QtGallery.in(.text)
    QtMobility::QGalleryQueryRequest::setFilter(const QtMobility::QGalleryFilter&) 0x0000b239   Thumb Code    36  QtGallery.in(.text)
    QtMobility::QGalleryQueryRequest::scopeChanged() 0x0000b25d   Thumb Code    14  QtGallery.in(.text)
    QtMobility::QGalleryQueryRequest::setScope(QtMobility::QGalleryQueryRequest::Scope) 0x0000b26b   Thumb Code    14  QtGallery.in(.text)
    QtMobility::QGalleryQueryRequest::rootItemChanged() 0x0000b279   Thumb Code    14  QtGallery.in(.text)
    QtMobility::QGalleryQueryRequest::setRootItem(const QVariant&) 0x0000b287   Thumb Code    38  QtGallery.in(.text)
    QtMobility::QGalleryQueryRequest::rootTypeChanged() 0x0000b2ad   Thumb Code    14  QtGallery.in(.text)
    QtMobility::QGalleryQueryRequest::setRootType(const QString&) 0x0000b2bb   Thumb Code    38  QtGallery.in(.text)
    QtMobility::QGalleryQueryRequest::limitChanged() 0x0000b2e1   Thumb Code    14  QtGallery.in(.text)
    QtMobility::QGalleryQueryRequest::setLimit(int) 0x0000b2ef   Thumb Code    38  QtGallery.in(.text)
    QtMobility::QGalleryQueryRequest::offsetChanged() 0x0000b315   Thumb Code    14  QtGallery.in(.text)
    QtMobility::QGalleryQueryRequest::setOffset(int) 0x0000b323   Thumb Code    38  QtGallery.in(.text)
    QtMobility::QGalleryQueryRequest::autoUpdateChanged() 0x0000b349   Thumb Code    14  QtGallery.in(.text)
    QtMobility::QGalleryQueryRequest::setAutoUpdate(bool) 0x0000b357   Thumb Code    16  QtGallery.in(.text)
    QtMobility::QGalleryQueryRequest::sortPropertyNamesChanged() 0x0000b367   Thumb Code    14  QtGallery.in(.text)
    QtMobility::QGalleryQueryRequest::setSortPropertyNames(const QStringList&) 0x0000b375   Thumb Code    36  QtGallery.in(.text)
    QtMobility::QGalleryQueryRequest::propertyNamesChanged() 0x0000b399   Thumb Code    14  QtGallery.in(.text)
    QtMobility::QGalleryQueryRequest::setPropertyNames(const QStringList&) 0x0000b3a7   Thumb Code    36  QtGallery.in(.text)
    QtMobility::QGalleryQueryRequest::currentIndex() const 0x0000b3cb   Thumb Code    10  QtGallery.in(.text)
    QtMobility::QGalleryQueryRequest::resources() const 0x0000b3d5   Thumb Code    10  QtGallery.in(.text)
    QtMobility::QGalleryQueryRequest::itemUrl() const 0x0000b3df   Thumb Code    10  QtGallery.in(.text)
    QtMobility::QGalleryQueryRequest::itemType() const 0x0000b3e9   Thumb Code    10  QtGallery.in(.text)
    QtMobility::QGalleryQueryRequest::itemId() const 0x0000b3f3   Thumb Code    10  QtGallery.in(.text)
    QtMobility::QGalleryQueryRequest::isValid() const 0x0000b3fd   Thumb Code    10  QtGallery.in(.text)
    QtMobility::QGalleryQueryRequest::filter() const 0x0000b407   Thumb Code    12  QtGallery.in(.text)
    QtMobility::QGalleryQueryRequest::scope() const 0x0000b413   Thumb Code     6  QtGallery.in(.text)
    QtMobility::QGalleryQueryRequest::rootItem() const 0x0000b419   Thumb Code    12  QtGallery.in(.text)
    QtMobility::QGalleryQueryRequest::rootType() const 0x0000b425   Thumb Code    12  QtGallery.in(.text)
    QtMobility::QGalleryQueryRequest::limit() const 0x0000b431   Thumb Code     6  QtGallery.in(.text)
    QtMobility::QGalleryQueryRequest::offset() const 0x0000b437   Thumb Code     6  QtGallery.in(.text)
    QtMobility::QGalleryQueryRequest::autoUpdate() const 0x0000b43d   Thumb Code     8  QtGallery.in(.text)
    QtMobility::QGalleryQueryRequest::sortPropertyNames() const 0x0000b445   Thumb Code    12  QtGallery.in(.text)
    QtMobility::QGalleryQueryRequest::propertyNames() const 0x0000b451   Thumb Code    12  QtGallery.in(.text)
    QtMobility::QGalleryQueryRequest::currentItemChanged() 0x0000b45d   Thumb Code    14  QtGallery.in(.text)
    QtMobility::QGalleryQueryRequest::resultSetChanged(QtMobility::QGalleryResultSet*) 0x0000b46b   Thumb Code    30  QtGallery.in(.text)
    QtMobility::QGalleryQueryRequest::qt_metacall(QMetaObject::Call, int, void**) 0x0000b489   Thumb Code   626  QtGallery.in(.text)
    QtMobility::QGalleryQueryRequest::QGalleryQueryRequest(QObject*) 0x0000b6fb   Thumb Code    52  QtGallery.in(.text)
    QtMobility::QGalleryQueryRequest::QGalleryQueryRequest__sub_object(QObject*) 0x0000b6fb   Thumb Code     0  QtGallery.in(.text)
    QtMobility::QGalleryQueryRequest::QGalleryQueryRequest(QtMobility::QAbstractGallery*, QObject*) 0x0000b72f   Thumb Code    52  QtGallery.in(.text)
    QtMobility::QGalleryQueryRequest::QGalleryQueryRequest__sub_object(QtMobility::QAbstractGallery*, QObject*) 0x0000b72f   Thumb Code     0  QtGallery.in(.text)
    QtMobility::QGalleryQueryRequest::~QGalleryQueryRequest() 0x0000b763   Thumb Code     8  QtGallery.in(.text)
    QtMobility::QGalleryQueryRequest::~QGalleryQueryRequest__sub_object() 0x0000b763   Thumb Code     0  QtGallery.in(.text)
    QtMobility::QGalleryQueryRequest::~QGalleryQueryRequest__deallocating() 0x0000b76b   Thumb Code    16  QtGallery.in(.text)
    QtMobility::QGalleryQueryRequest::resultSet() const 0x0000b77b   Thumb Code     6  QtGallery.in(.text)
    QtMobility::QGalleryQueryRequest::propertyKey(const QString&) const 0x0000b781   Thumb Code    10  QtGallery.in(.text)
    QtMobility::QGalleryQueryRequest::propertyAttributes(int) const 0x0000b78b   Thumb Code    10  QtGallery.in(.text)
    QtMobility::QGalleryQueryRequest::propertyType(int) const 0x0000b795   Thumb Code    10  QtGallery.in(.text)
    QtMobility::QGalleryQueryRequest::itemCount() const 0x0000b79f   Thumb Code    10  QtGallery.in(.text)
    QtMobility::QGalleryQueryRequest::metaData(int) const 0x0000b7a9   Thumb Code    10  QtGallery.in(.text)
    QtMobility::QGalleryQueryRequest::setMetaData(int, const QVariant&) 0x0000b7b3   Thumb Code    10  QtGallery.in(.text)
    QtMobility::QGalleryQueryRequest::metaData(const QString&) const 0x0000b7bd   Thumb Code    34  QtGallery.in(.text)
    QtMobility::QGalleryQueryRequest::setMetaData(const QString&, const QVariant&) 0x0000b7df   Thumb Code    30  QtGallery.in(.text)
    QtMobility::QGalleryQueryRequest::next() 0x0000b7fd   Thumb Code    10  QtGallery.in(.text)
    QtMobility::QGalleryQueryRequest::previous() 0x0000b807   Thumb Code    10  QtGallery.in(.text)
    QtMobility::QGalleryQueryRequest::first() 0x0000b811   Thumb Code    10  QtGallery.in(.text)
    QtMobility::QGalleryQueryRequest::last() 0x0000b81b   Thumb Code    10  QtGallery.in(.text)
    QtMobility::QGalleryQueryRequest::setResponse(QtMobility::QGalleryAbstractResponse*) 0x0000b825   Thumb Code    52  QtGallery.in(.text)
    QtMobility::QGalleryResource::QGalleryResource() 0x0000b879   Thumb Code    18  QtGallery.in(.text)
    QtMobility::QGalleryResource::QGalleryResource__sub_object() 0x0000b879   Thumb Code     0  QtGallery.in(.text)
    QtMobility::QGalleryResource::QGalleryResource(const QUrl&) 0x0000b88b   Thumb Code    18  QtGallery.in(.text)
    QtMobility::QGalleryResource::QGalleryResource__sub_object(const QUrl&) 0x0000b88b   Thumb Code     0  QtGallery.in(.text)
    QtMobility::QGalleryResource::QGalleryResource(const QUrl&, QMap<int, QVariant>) 0x0000b89d   Thumb Code    22  QtGallery.in(.text)
    QtMobility::QGalleryResource::QGalleryResource__sub_object(const QUrl&, QMap<int, QVariant>) 0x0000b89d   Thumb Code     0  QtGallery.in(.text)
    QtMobility::QGalleryResource::QGalleryResource(const QtMobility::QGalleryResource&) 0x0000b8b3   Thumb Code    22  QtGallery.in(.text)
    QtMobility::QGalleryResource::QGalleryResource__sub_object(const QtMobility::QGalleryResource&) 0x0000b8b3   Thumb Code     0  QtGallery.in(.text)
    QtMobility::QGalleryResource::~QGalleryResource() 0x0000b8c9   Thumb Code    18  QtGallery.in(.text)
    QtMobility::QGalleryResource::~QGalleryResource__sub_object() 0x0000b8c9   Thumb Code     0  QtGallery.in(.text)
    QtMobility::QGalleryResource::operator =(const QtMobility::QGalleryResource&) 0x0000b8db   Thumb Code    66  QtGallery.in(.text)
    QtMobility::QGalleryResource::operator ==(const QtMobility::QGalleryResource&) const 0x0000b91d   Thumb Code    34  QtGallery.in(.text)
    QtMobility::QGalleryResource::operator !=(const QtMobility::QGalleryResource&) const 0x0000b93f   Thumb Code    36  QtGallery.in(.text)
    QtMobility::QGalleryResource::url() const 0x0000b963   Thumb Code     8  QtGallery.in(.text)
    QtMobility::QGalleryResource::attributes() const 0x0000b96b   Thumb Code    10  QtGallery.in(.text)
    QtMobility::QGalleryResource::attribute(int) const 0x0000b975   Thumb Code    12  QtGallery.in(.text)
    QtMobility::QGalleryResultSet::getStaticMetaObject() 0x0000b981   Thumb Code     4  QtGallery.in(.text)
    QtMobility::QGalleryResultSet::metaObject() const 0x0000b985   Thumb Code    12  QtGallery.in(.text)
    QtMobility::QGalleryResultSet::qt_metacast(const char*) 0x0000b991   Thumb Code    40  QtGallery.in(.text)
    QtMobility::QGalleryResultSet::metaDataChanged(int, int, const QList<int>&) 0x0000b9b9   Thumb Code    40  QtGallery.in(.text)
    QtMobility::QGalleryResultSet::itemsMoved(int, int, int) 0x0000b9e1   Thumb Code    40  QtGallery.in(.text)
    QtMobility::QGalleryResultSet::itemsRemoved(int, int) 0x0000ba09   Thumb Code    36  QtGallery.in(.text)
    QtMobility::QGalleryResultSet::itemsInserted(int, int) 0x0000ba2d   Thumb Code    34  QtGallery.in(.text)
    QtMobility::QGalleryResultSet::currentIndexChanged(int) 0x0000ba4f   Thumb Code    30  QtGallery.in(.text)
    QtMobility::QGalleryResultSet::currentItemChanged() 0x0000ba6d   Thumb Code    14  QtGallery.in(.text)
    QtMobility::QGalleryResultSet::qt_metacall(QMetaObject::Call, int, void**) 0x0000ba7b   Thumb Code   128  QtGallery.in(.text)
    QtMobility::QGalleryResultSet::QGalleryResultSet__sub_object(QObject*) 0x0000bafb   Thumb Code    72  QtGallery.in(.text)
    QtMobility::QGalleryResultSet::~QGalleryResultSet() 0x0000bb43   Thumb Code     0  QtGallery.in(.text)
    QtMobility::QGalleryResultSet::~QGalleryResultSet__sub_object() 0x0000bb43   Thumb Code     8  QtGallery.in(.text)
    QtMobility::QGalleryResultSet::~QGalleryResultSet__deallocating() 0x0000bb4b   Thumb Code    16  QtGallery.in(.text)
    QtMobility::QGalleryResultSet::isValid() const 0x0000bb5b   Thumb Code    36  QtGallery.in(.text)
    QtMobility::QGalleryResultSet::resources() const 0x0000bb7f   Thumb Code    64  QtGallery.in(.text)
    QtMobility::QGalleryResultSet::fetchNext() 0x0000bbbf   Thumb Code    24  QtGallery.in(.text)
    QtMobility::QGalleryResultSet::fetchPrevious() 0x0000bbd7   Thumb Code    24  QtGallery.in(.text)
    QtMobility::QGalleryResultSet::fetchFirst() 0x0000bbef   Thumb Code     8  QtGallery.in(.text)
    QtMobility::QGalleryResultSet::fetchLast() 0x0000bbf7   Thumb Code    24  QtGallery.in(.text)
    QtMobility::QGalleryResultSet::QGalleryResultSet__sub_object(QtMobility::QGalleryResultSetPrivate&, QObject*) 0x0000bc0f   Thumb Code    12  QtGallery.in(.text)
    QtMobility::QGalleryTypeRequest::getStaticMetaObject() 0x0000bc35   Thumb Code     4  QtGallery.in(.text)
    QtMobility::QGalleryTypeRequest::metaObject() const 0x0000bc39   Thumb Code    12  QtGallery.in(.text)
    QtMobility::QGalleryTypeRequest::qt_metacast(const char*) 0x0000bc45   Thumb Code    40  QtGallery.in(.text)
    QtMobility::QGalleryTypeRequest::itemTypeChanged() 0x0000bc6d   Thumb Code    14  QtGallery.in(.text)
    QtMobility::QGalleryTypeRequest::setItemType(const QString&) 0x0000bc7b   Thumb Code    38  QtGallery.in(.text)
    QtMobility::QGalleryTypeRequest::autoUpdateChanged() 0x0000bca1   Thumb Code    14  QtGallery.in(.text)
    QtMobility::QGalleryTypeRequest::setAutoUpdate(bool) 0x0000bcaf   Thumb Code    16  QtGallery.in(.text)
    QtMobility::QGalleryTypeRequest::propertyNamesChanged() 0x0000bcbf   Thumb Code    14  QtGallery.in(.text)
    QtMobility::QGalleryTypeRequest::setPropertyNames(const QStringList&) 0x0000bccd   Thumb Code   114  QtGallery.in(.text)
    QtMobility::QGalleryTypeRequest::isValid() const 0x0000bd3f   Thumb Code    10  QtGallery.in(.text)
    QtMobility::QGalleryTypeRequest::itemType() const 0x0000bd49   Thumb Code    12  QtGallery.in(.text)
    QtMobility::QGalleryTypeRequest::autoUpdate() const 0x0000bd55   Thumb Code     8  QtGallery.in(.text)
    QtMobility::QGalleryTypeRequest::propertyNames() const 0x0000bd5d   Thumb Code    32  QtGallery.in(.text)
    QtMobility::QGalleryTypeRequest::metaDataChanged(const QList<int>&) 0x0000bd7d   Thumb Code    24  QtGallery.in(.text)
    QtMobility::QGalleryTypeRequest::typeChanged() 0x0000bd95   Thumb Code    14  QtGallery.in(.text)
    QtMobility::QGalleryTypeRequest::resultSetChanged(QtMobility::QGalleryResultSet*) 0x0000bda3   Thumb Code    30  QtGallery.in(.text)
    QtMobility::QGalleryTypeRequest::qt_metacall(QMetaObject::Call, int, void**) 0x0000bdc1   Thumb Code   382  QtGallery.in(.text)
    QtMobility::QGalleryTypeRequest::QGalleryTypeRequest(QObject*) 0x0000bf3f   Thumb Code    52  QtGallery.in(.text)
    QtMobility::QGalleryTypeRequest::QGalleryTypeRequest__sub_object(QObject*) 0x0000bf3f   Thumb Code     0  QtGallery.in(.text)
    QtMobility::QGalleryTypeRequest::QGalleryTypeRequest(QtMobility::QAbstractGallery*, QObject*) 0x0000bf73   Thumb Code    52  QtGallery.in(.text)
    QtMobility::QGalleryTypeRequest::QGalleryTypeRequest__sub_object(QtMobility::QAbstractGallery*, QObject*) 0x0000bf73   Thumb Code     0  QtGallery.in(.text)
    QtMobility::QGalleryTypeRequest::~QGalleryTypeRequest() 0x0000bfa7   Thumb Code     8  QtGallery.in(.text)
    QtMobility::QGalleryTypeRequest::~QGalleryTypeRequest__sub_object() 0x0000bfa7   Thumb Code     0  QtGallery.in(.text)
    QtMobility::QGalleryTypeRequest::~QGalleryTypeRequest__deallocating() 0x0000bfaf   Thumb Code    16  QtGallery.in(.text)
    QtMobility::QGalleryTypeRequest::resultSet() const 0x0000bfbf   Thumb Code     6  QtGallery.in(.text)
    QtMobility::QGalleryTypeRequest::propertyKey(const QString&) const 0x0000bfc5   Thumb Code    10  QtGallery.in(.text)
    QtMobility::QGalleryTypeRequest::propertyAttributes(int) const 0x0000bfcf   Thumb Code    18  QtGallery.in(.text)
    QtMobility::QGalleryTypeRequest::propertyType(int) const 0x0000bfe1   Thumb Code    10  QtGallery.in(.text)
    QtMobility::QGalleryTypeRequest::metaData(int) const 0x0000bfeb   Thumb Code    10  QtGallery.in(.text)
    QtMobility::QGalleryTypeRequest::metaData(const QString&) const 0x0000bff5   Thumb Code    34  QtGallery.in(.text)
    QtMobility::QGalleryTypeRequest::setResponse(QtMobility::QGalleryAbstractResponse*) 0x0000c017   Thumb Code   620  QtGallery.in(.text)
    QtMobility::QMDEGalleryResultSet::getStaticMetaObject() 0x0000c289   Thumb Code     4  QtGallery.in(.text)
    QtMobility::QMDEGalleryResultSet::metaObject() const 0x0000c28d   Thumb Code    12  QtGallery.in(.text)
    QtMobility::QMDEGalleryResultSet::qt_metacast(const char*) 0x0000c299   Thumb Code    40  QtGallery.in(.text)
    QtMobility::QMDEGalleryResultSet::qt_metacall(QMetaObject::Call, int, void**) 0x0000c2c1   Thumb Code     8  QtGallery.in(.text)
    QtMobility::QMDEGalleryResultSet::QMDEGalleryResultSet__sub_object(QObject*) 0x0000c2c9   Thumb Code    60  QtGallery.in(.text)
    QtMobility::QMDEGalleryResultSet::~QMDEGalleryResultSet() 0x0000c305   Thumb Code     0  QtGallery.in(.text)
    QtMobility::QMDEGalleryResultSet::~QMDEGalleryResultSet__sub_object() 0x0000c305   Thumb Code    24  QtGallery.in(.text)
    QtMobility::QMDEGalleryResultSet::~QMDEGalleryResultSet__deallocating() 0x0000c31d   Thumb Code    16  QtGallery.in(.text)
    QtMobility::QMDEGalleryResultSet::propertyKey(const QString&) const 0x0000c32d   Thumb Code    10  QtGallery.in(.text)
    QtMobility::QMDEGalleryResultSet::propertyAttributes(int) const 0x0000c337   Thumb Code    76  QtGallery.in(.text)
    QtMobility::QMDEGalleryResultSet::propertyType(int) const 0x0000c383   Thumb Code    10  QtGallery.in(.text)
    QtMobility::QMDEGalleryResultSet::itemCount() const 0x0000c38d   Thumb Code    10  QtGallery.in(.text)
    QtMobility::QMDEGalleryResultSet::isValid() const 0x0000c397   Thumb Code    32  QtGallery.in(.text)
    QtMobility::QMDEGalleryResultSet::itemId() const 0x0000c3b7   Thumb Code    48  QtGallery.in(.text)
    QtMobility::QMDEGalleryResultSet::itemUrl() const 0x0000c3e7   Thumb Code    80  QtGallery.in(.text)
    QtMobility::QMDEGalleryResultSet::itemType() const 0x0000c437   Thumb Code    60  QtGallery.in(.text)
    QtMobility::QMDEGalleryResultSet::resources() const 0x0000c473   Thumb Code   292  QtGallery.in(.text)
    QtMobility::QMDEGalleryResultSet::metaData(int) const 0x0000c597   Thumb Code   118  QtGallery.in(.text)
    QtMobility::QMDEGalleryResultSet::setMetaData(int, const QVariant&) 0x0000c60d   Thumb Code   172  QtGallery.in(.text)
    QtMobility::QMDEGalleryResultSet::currentIndex() const 0x0000c6b9   Thumb Code     4  QtGallery.in(.text)
    QtMobility::QMDEGalleryResultSet::fetch(int) 0x0000c6bd   Thumb Code    64  QtGallery.in(.text)
    QtMobility::QDocumentGalleryMDSUtility::QDocumentGalleryMDSUtility() 0x0000c6fd   Thumb Code     2  QtGallery.in(.text)
    QtMobility::QDocumentGalleryMDSUtility::QDocumentGalleryMDSUtility__sub_object() 0x0000c6fd   Thumb Code     0  QtGallery.in(.text)
    QtMobility::QDocumentGalleryMDSUtility::~QDocumentGalleryMDSUtility() 0x0000c6ff   Thumb Code     2  QtGallery.in(.text)
    QtMobility::QDocumentGalleryMDSUtility::~QDocumentGalleryMDSUtility__sub_object() 0x0000c6ff   Thumb Code     0  QtGallery.in(.text)
    QtMobility::QDocumentGalleryMDSUtility::ObjDefFromItemTypeForMDS20L(CMdENamespaceDef&, QString) 0x0000c701   Thumb Code   150  QtGallery.in(.text)
    QtMobility::QDocumentGalleryMDSUtility::ObjDefFromItemTypeL(CMdENamespaceDef&, QString) 0x0000c797   Thumb Code    42  QtGallery.in(.text)
    QtMobility::QDocumentGalleryMDSUtility::GetDataFieldsForItemType(QStringList&, QString) 0x0000c7c1   Thumb Code  2390  QtGallery.in(.text)
    QtMobility::QDocumentGalleryMDSUtility::s60DescToQString(const TDesC16&) 0x0000d117   Thumb Code    28  QtGallery.in(.text)
    QtMobility::QDocumentGalleryMDSUtility::symbianTTimetoQDateTime(const TTime&) 0x0000d133   Thumb Code    72  QtGallery.in(.text)
    QtMobility::QDocumentGalleryMDSUtility::GetPath(const TDesC16&, TPtrC16&) 0x0000d17b   Thumb Code    52  QtGallery.in(.text)
    QtMobility::QDocumentGalleryMDSUtility::GetName(const TDesC16&, TPtrC16&) 0x0000d1af   Thumb Code    84  QtGallery.in(.text)
    QtMobility::QDocumentGalleryMDSUtility::GetMetaDataFieldForMDS20L(CMdEObject*, QVariant&, int) 0x0000d203   Thumb Code  1996  QtGallery.in(.text)
    QtMobility::QDocumentGalleryMDSUtility::GetMetaDataFieldL(CMdEObject*, QVariant&, int) 0x0000d9cf   Thumb Code    30  QtGallery.in(.text)
    QtMobility::QDocumentGalleryMDSUtility::GetItemTypeFromMDEObject(CMdEObject*) 0x0000d9ed   Thumb Code   164  QtGallery.in(.text)
    QtMobility::QDocumentGalleryMDSUtility::isItemTypeSupported(const QString&) 0x0000da91   Thumb Code   180  QtGallery.in(.text)
    QtMobility::QDocumentGalleryMDSUtility::GetPropertyKey(const QString&) 0x0000db45   Thumb Code  1542  QtGallery.in(.text)
    QtMobility::QDocumentGalleryMDSUtility::GetPropertyType(int) 0x0000e14b   Thumb Code    80  QtGallery.in(.text)
    QtMobility::QDocumentGalleryMDSUtility::qStringToS60Desc(const QString&) 0x0000e19b   Thumb Code    22  QtGallery.in(.text)
    QtMobility::QDocumentGalleryMDSUtility::QDateTimetosymbianTTime(const QDateTime&) 0x0000e1b1   Thumb Code   142  QtGallery.in(.text)
    QtMobility::QDocumentGalleryMDSUtility::GetMDSPropertyDefForMDS20L(const QString&, CMdENamespaceDef&) 0x0000e23f   Thumb Code  1918  QtGallery.in(.text)
    QtMobility::QDocumentGalleryMDSUtility::GetMDSPropertyDefL(const QString&, CMdENamespaceDef&) 0x0000e9bd   Thumb Code     8  QtGallery.in(.text)
    QtMobility::QDocumentGalleryMDSUtility::InsertReal32PropertyCondition(CMdELogicCondition&, CMdEPropertyDef*, QVariant&, QtMobility::QGalleryMetaDataFilter&) 0x0000e9c5   Thumb Code   446  QtGallery.in(.text)
    QtMobility::QDocumentGalleryMDSUtility::InsertUIntPropertyCondition(CMdELogicCondition&, CMdEPropertyDef*, QVariant&, QtMobility::QGalleryMetaDataFilter&) 0x0000eb83   Thumb Code   410  QtGallery.in(.text)
    QtMobility::QDocumentGalleryMDSUtility::InsertStringPropertyCondition(CMdELogicCondition&, CMdEPropertyDef*, QVariant&, QtMobility::QGalleryMetaDataFilter&) 0x0000ed1d   Thumb Code   318  QtGallery.in(.text)
    QtMobility::QDocumentGalleryMDSUtility::InsertTTImePropertyCondition(CMdELogicCondition&, CMdEPropertyDef*, QVariant&, QtMobility::QGalleryMetaDataFilter&) 0x0000ee5b   Thumb Code   398  QtGallery.in(.text)
    QtMobility::QDocumentGalleryMDSUtility::InsertUInt32PropertyCondition(CMdELogicCondition&, CMdEPropertyDef*, QVariant&, QtMobility::QGalleryMetaDataFilter&) 0x0000efe9   Thumb Code   432  QtGallery.in(.text)
    QtMobility::QDocumentGalleryMDSUtility::InsertUriPropertyCondition(CMdELogicCondition&, QVariant&, QtMobility::QGalleryMetaDataFilter&) 0x0000f199   Thumb Code   212  QtGallery.in(.text)
    QtMobility::QDocumentGalleryMDSUtility::AddMetadataFilter(CMdELogicCondition&, QtMobility::QGalleryFilter&, CMdENamespaceDef&) 0x0000f26d   Thumb Code   326  QtGallery.in(.text)
    QtMobility::QDocumentGalleryMDSUtility::AddIntersectionFilter(CMdELogicCondition&, QtMobility::QGalleryFilter&, CMdENamespaceDef&) 0x0000f3b3   Thumb Code    94  QtGallery.in(.text)
    QtMobility::QDocumentGalleryMDSUtility::AddFilter(CMdELogicCondition&, QtMobility::QGalleryFilter&, CMdENamespaceDef&) 0x0000f411   Thumb Code   190  QtGallery.in(.text)
    QtMobility::QDocumentGalleryMDSUtility::AddUnionFilter(CMdELogicCondition&, QtMobility::QGalleryFilter&, CMdENamespaceDef&) 0x0000f4cf   Thumb Code    94  QtGallery.in(.text)
    QtMobility::QDocumentGalleryMDSUtility::SetupQueryConditions(CMdEObjectQuery*, QtMobility::QGalleryQueryRequest*, CMdENamespaceDef&) 0x0000f52d   Thumb Code   582  QtGallery.in(.text)
    QtMobility::QDocumentGalleryMDSUtility::setMdeStringProperty(CMdEObject*, const QVariant&, CMdEPropertyDef*) 0x0000f773   Thumb Code   144  QtGallery.in(.text)
    QtMobility::QDocumentGalleryMDSUtility::SetMetaDataFieldForMDS20L(CMdEObject*, const QVariant&, int) 0x0000f803   Thumb Code  4900  QtGallery.in(.text)
    QtMobility::QDocumentGalleryMDSUtility::SetMetaDataFieldL(CMdEObject*, const QVariant&, int) 0x00010b27   Thumb Code    14  QtGallery.in(.text)
    QtMobility::QMDEGalleryTypeResultSet::getStaticMetaObject() 0x00010b39   Thumb Code     4  QtGallery.in(.text)
    QtMobility::QMDEGalleryTypeResultSet::metaObject() const 0x00010b3d   Thumb Code    12  QtGallery.in(.text)
    QtMobility::QMDEGalleryTypeResultSet::qt_metacast(const char*) 0x00010b49   Thumb Code    58  QtGallery.in(.text)
    QtMobility::QMDEGalleryTypeResultSet::qt_metacall(QMetaObject::Call, int, void**) 0x00010b83   Thumb Code     8  QtGallery.in(.text)
    QtMobility::QMDEGalleryTypeResultSet::QMDEGalleryTypeResultSet(QtMobility::QMdeSession*, QtMobility::QGalleryTypeRequest*) 0x00010b8b   Thumb Code   428  QtGallery.in(.text)
    QtMobility::QMDEGalleryTypeResultSet::QMDEGalleryTypeResultSet__sub_object(QtMobility::QMdeSession*, QtMobility::QGalleryTypeRequest*) 0x00010b8b   Thumb Code     0  QtGallery.in(.text)
    QtMobility::QMDEGalleryTypeResultSet::~QMDEGalleryTypeResultSet() 0x00010d37   Thumb Code    68  QtGallery.in(.text)
    QtMobility::QMDEGalleryTypeResultSet::~QMDEGalleryTypeResultSet__sub_object() 0x00010d37   Thumb Code     0  QtGallery.in(.text)
    QtMobility::QMDEGalleryTypeResultSet::~QMDEGalleryTypeResultSet__deallocating() 0x00010d7b   Thumb Code    16  QtGallery.in(.text)
    QtMobility::QMDEGalleryTypeResultSet::propertyKey(const QString&) const 0x00010d8b   Thumb Code    28  QtGallery.in(.text)
    QtMobility::QMDEGalleryTypeResultSet::propertyAttributes(int) const 0x00010da7   Thumb Code    26  QtGallery.in(.text)
    QtMobility::QMDEGalleryTypeResultSet::propertyType(int) const 0x00010dc1   Thumb Code    10  QtGallery.in(.text)
    QtMobility::QMDEGalleryTypeResultSet::itemCount() const 0x00010dcb   Thumb Code     4  QtGallery.in(.text)
    QtMobility::QMDEGalleryTypeResultSet::isValid() const 0x00010dcf   Thumb Code    20  QtGallery.in(.text)
    QtMobility::QMDEGalleryTypeResultSet::itemId() const 0x00010de3   Thumb Code     8  QtGallery.in(.text)
    QtMobility::QMDEGalleryTypeResultSet::itemUrl() const 0x00010deb   Thumb Code     8  QtGallery.in(.text)
    QtMobility::QMDEGalleryTypeResultSet::itemType() const 0x00010df3   Thumb Code     8  QtGallery.in(.text)
    QtMobility::QMDEGalleryTypeResultSet::metaData(int) const 0x00010dfb   Thumb Code    80  QtGallery.in(.text)
    QtMobility::QMDEGalleryTypeResultSet::setMetaData(int, const QVariant&) 0x00010e4b   Thumb Code     4  QtGallery.in(.text)
    QtMobility::QMDEGalleryTypeResultSet::currentIndex() const 0x00010e4f   Thumb Code     4  QtGallery.in(.text)
    QtMobility::QMDEGalleryTypeResultSet::fetch(int) 0x00010e53   Thumb Code    64  QtGallery.in(.text)
    QtMobility::QMDEGalleryTypeResultSet::cancel() 0x00010e93   Thumb Code    22  QtGallery.in(.text)
    QtMobility::QMDEGalleryTypeResultSet::HandleQueryNewResults(CMdEQuery&, int, int) 0x00010ea9   Thumb Code     2  QtGallery.in(.text)
    thunk{-12} to QtMobility::QMDEGalleryTypeResultSet::HandleQueryNewResults(CMdEQuery&, int, int) 0x00010eab   Thumb Code     2  QtGallery.in(.text)
    QtMobility::QMDEGalleryTypeResultSet::HandleQueryCompleted(CMdEQuery&, int) 0x00010ead   Thumb Code   136  QtGallery.in(.text)
    thunk{-12} to QtMobility::QMDEGalleryTypeResultSet::HandleQueryCompleted(CMdEQuery&, int) 0x00010f35   Thumb Code     4  QtGallery.in(.text)
    QtMobility::QMDEGalleryItemResultSet::getStaticMetaObject() 0x00010f39   Thumb Code     4  QtGallery.in(.text)
    QtMobility::QMDEGalleryItemResultSet::metaObject() const 0x00010f3d   Thumb Code    12  QtGallery.in(.text)
    QtMobility::QMDEGalleryItemResultSet::qt_metacast(const char*) 0x00010f49   Thumb Code    58  QtGallery.in(.text)
    QtMobility::QMDEGalleryItemResultSet::qt_metacall(QMetaObject::Call, int, void**) 0x00010f83   Thumb Code     8  QtGallery.in(.text)
    QtMobility::QMDEGalleryItemResultSet::createQuery() 0x00010f8b   Thumb Code   218  QtGallery.in(.text)
    QtMobility::QMDEGalleryItemResultSet::QMDEGalleryItemResultSet(QtMobility::QMdeSession*, QObject*) 0x00011065   Thumb Code    78  QtGallery.in(.text)
    QtMobility::QMDEGalleryItemResultSet::QMDEGalleryItemResultSet__sub_object(QtMobility::QMdeSession*, QObject*) 0x00011065   Thumb Code     0  QtGallery.in(.text)
    QtMobility::QMDEGalleryItemResultSet::~QMDEGalleryItemResultSet() 0x000110b3   Thumb Code    58  QtGallery.in(.text)
    QtMobility::QMDEGalleryItemResultSet::~QMDEGalleryItemResultSet__sub_object() 0x000110b3   Thumb Code     0  QtGallery.in(.text)
    QtMobility::QMDEGalleryItemResultSet::~QMDEGalleryItemResultSet__deallocating() 0x000110ed   Thumb Code    16  QtGallery.in(.text)
    QtMobility::QMDEGalleryItemResultSet::HandleObjectAdded(CMdESession&, const RArray<unsigned long>&) 0x000110fd   Thumb Code     2  QtGallery.in(.text)
    thunk{-64} to QtMobility::QMDEGalleryItemResultSet::HandleObjectAdded(CMdESession&, const RArray<unsigned long>&) 0x000110ff   Thumb Code     2  QtGallery.in(.text)
    QtMobility::QMDEGalleryItemResultSet::doHandleObjectNotificationL(CMdESession&, QtMobility::QMDEGalleryItemResultSet::QMdeSessionObserverNotificationType, const RArray<unsigned long>&) 0x00011101   Thumb Code   368  QtGallery.in(.text)
    QtMobility::QMDEGalleryItemResultSet::HandleObjectModified(CMdESession&, const RArray<unsigned long>&) 0x00011271   Thumb Code    90  QtGallery.in(.text)
    thunk{-64} to QtMobility::QMDEGalleryItemResultSet::HandleObjectModified(CMdESession&, const RArray<unsigned long>&) 0x000112cb   Thumb Code     4  QtGallery.in(.text)
    QtMobility::QMDEGalleryItemResultSet::HandleObjectRemoved(CMdESession&, const RArray<unsigned long>&) 0x000112cf   Thumb Code   126  QtGallery.in(.text)
    thunk{-64} to QtMobility::QMDEGalleryItemResultSet::HandleObjectRemoved(CMdESession&, const RArray<unsigned long>&) 0x0001134d   Thumb Code     4  QtGallery.in(.text)
    QtMobility::QMDEGalleryItemResultSet::cleanupResultSet() 0x00011351   Thumb Code    32  QtGallery.in(.text)
    QtMobility::QMDEGalleryQueryResultSet::getStaticMetaObject() 0x00011371   Thumb Code     4  QtGallery.in(.text)
    QtMobility::QMDEGalleryQueryResultSet::metaObject() const 0x00011375   Thumb Code    12  QtGallery.in(.text)
    QtMobility::QMDEGalleryQueryResultSet::qt_metacast(const char*) 0x00011381   Thumb Code    76  QtGallery.in(.text)
    QtMobility::QMDEGalleryQueryResultSet::qt_metacall(QMetaObject::Call, int, void**) 0x000113cd   Thumb Code     8  QtGallery.in(.text)
    QtMobility::QMDEGalleryQueryResultSet::createQuery() 0x000113d5   Thumb Code   364  QtGallery.in(.text)
    QtMobility::QMDEGalleryQueryResultSet::QMDEGalleryQueryResultSet(QtMobility::QMdeSession*, QObject*) 0x00011541   Thumb Code   126  QtGallery.in(.text)
    QtMobility::QMDEGalleryQueryResultSet::QMDEGalleryQueryResultSet__sub_object(QtMobility::QMdeSession*, QObject*) 0x00011541   Thumb Code     0  QtGallery.in(.text)
    QtMobility::QMDEGalleryQueryResultSet::~QMDEGalleryQueryResultSet() 0x000115bf   Thumb Code   108  QtGallery.in(.text)
    QtMobility::QMDEGalleryQueryResultSet::~QMDEGalleryQueryResultSet__sub_object() 0x000115bf   Thumb Code     0  QtGallery.in(.text)
    QtMobility::QMDEGalleryQueryResultSet::~QMDEGalleryQueryResultSet__deallocating() 0x0001162b   Thumb Code    16  QtGallery.in(.text)
    QtMobility::QMDEGalleryQueryResultSet::HandleQueryNewResults(CMdEQuery&, int, int) 0x0001163b   Thumb Code   188  QtGallery.in(.text)
    thunk{-64} to QtMobility::QMDEGalleryQueryResultSet::HandleQueryNewResults(CMdEQuery&, int, int) 0x000116f7   Thumb Code     4  QtGallery.in(.text)
    QtMobility::QMDEGalleryQueryResultSet::handleUpdatedResults() 0x000116fb   Thumb Code   188  QtGallery.in(.text)
    QtMobility::QMDEGalleryQueryResultSet::HandleQueryCompleted(CMdEQuery&, int) 0x000117b7   Thumb Code   190  QtGallery.in(.text)
    thunk{-64} to QtMobility::QMDEGalleryQueryResultSet::HandleQueryCompleted(CMdEQuery&, int) 0x00011875   Thumb Code     4  QtGallery.in(.text)
    QtMobility::QMDEGalleryQueryResultSet::doHandleObjectNotificationL(CMdESession&, QtMobility::QMDEGalleryQueryResultSet::QMdeSessionObserverQueryNotificationType, const RArray<unsigned long>&) 0x00011879   Thumb Code   622  QtGallery.in(.text)
    QtMobility::QMDEGalleryQueryResultSet::HandleObjectAdded(CMdESession&, const RArray<unsigned long>&) 0x00011ae7   Thumb Code    90  QtGallery.in(.text)
    thunk{-68} to QtMobility::QMDEGalleryQueryResultSet::HandleObjectAdded(CMdESession&, const RArray<unsigned long>&) 0x00011b41   Thumb Code     4  QtGallery.in(.text)
    QtMobility::QMDEGalleryQueryResultSet::HandleObjectModified(CMdESession&, const RArray<unsigned long>&) 0x00011b45   Thumb Code    90  QtGallery.in(.text)
    thunk{-68} to QtMobility::QMDEGalleryQueryResultSet::HandleObjectModified(CMdESession&, const RArray<unsigned long>&) 0x00011b9f   Thumb Code     4  QtGallery.in(.text)
    QtMobility::QMDEGalleryQueryResultSet::HandleObjectRemoved(CMdESession&, const RArray<unsigned long>&) 0x00011ba3   Thumb Code    90  QtGallery.in(.text)
    thunk{-68} to QtMobility::QMDEGalleryQueryResultSet::HandleObjectRemoved(CMdESession&, const RArray<unsigned long>&) 0x00011bfd   Thumb Code     4  QtGallery.in(.text)
    QtMobility::QMDEGalleryQueryResultSet::cleanupResultSet() 0x00011c01   Thumb Code    32  QtGallery.in(.text)
    QtMobility::QMDEGalleryQueryResultSet::cancel() 0x00011c21   Thumb Code    14  QtGallery.in(.text)
    QtMobility::QMDEGalleryCategoryResultSet::getStaticMetaObject() 0x00011c39   Thumb Code     4  QtGallery.in(.text)
    QtMobility::QMDEGalleryCategoryResultSet::metaObject() const 0x00011c3d   Thumb Code    12  QtGallery.in(.text)
    QtMobility::QMDEGalleryCategoryResultSet::qt_metacast(const char*) 0x00011c49   Thumb Code    58  QtGallery.in(.text)
    QtMobility::QMDEGalleryCategoryResultSet::qt_metacall(QMetaObject::Call, int, void**) 0x00011c83   Thumb Code     8  QtGallery.in(.text)
    QtMobility::QMDEGalleryCategoryResultSet::appendScopeCondition(CMdELogicCondition*, const QVariant&, CMdENamespaceDef&) 0x00011d15   Thumb Code   188  QtGallery.in(.text)
    QtMobility::QMDEGalleryCategoryResultSet::createTypeQuery(QScopedPointer<CMdEObjectQuery, QScopedPointerDeleter<CMdEObjectQuery>>*, QtMobility::QMdeSession*, const QString&, MMdEQueryObserver*) 0x00011e9f   Thumb Code   154  QtGallery.in(.text)
    QtMobility::QMDEGalleryCategoryResultSet::isCategoryType(const QString&) 0x00011f39   Thumb Code    20  QtGallery.in(.text)
    QtMobility::QMDEGalleryCategoryResultSet::itemIdType(const QString&) 0x00011f4d   Thumb Code    94  QtGallery.in(.text)
    QtMobility::QMDEGalleryCategoryResultSet::QMDEGalleryCategoryResultSet(QtMobility::QMdeSession*, const QString&, const QStringList&, const QStringList&, const QVariant&, const QtMobility::QGalleryFilter&, int, int, QObject*) 0x000124c5   Thumb Code   636  QtGallery.in(.text)
    QtMobility::QMDEGalleryCategoryResultSet::QMDEGalleryCategoryResultSet__sub_object(QtMobility::QMdeSession*, const QString&, const QStringList&, const QStringList&, const QVariant&, const QtMobility::QGalleryFilter&, int, int, QObject*) 0x000124c5   Thumb Code     0  QtGallery.in(.text)
    QtMobility::QMDEGalleryCategoryResultSet::~QMDEGalleryCategoryResultSet() 0x00012741   Thumb Code   116  QtGallery.in(.text)
    QtMobility::QMDEGalleryCategoryResultSet::~QMDEGalleryCategoryResultSet__sub_object() 0x00012741   Thumb Code     0  QtGallery.in(.text)
    QtMobility::QMDEGalleryCategoryResultSet::~QMDEGalleryCategoryResultSet__deallocating() 0x000127b5   Thumb Code    16  QtGallery.in(.text)
    QtMobility::QMDEGalleryCategoryResultSet::propertyKey(const QString&) const 0x000127c5   Thumb Code    12  QtGallery.in(.text)
    QtMobility::QMDEGalleryCategoryResultSet::propertyAttributes(int) const 0x000127d1   Thumb Code    50  QtGallery.in(.text)
    QtMobility::QMDEGalleryCategoryResultSet::propertyType(int) const 0x00012803   Thumb Code    24  QtGallery.in(.text)
    QtMobility::QMDEGalleryCategoryResultSet::itemCount() const 0x0001281b   Thumb Code     4  QtGallery.in(.text)
    QtMobility::QMDEGalleryCategoryResultSet::isValid() const 0x0001281f   Thumb Code    22  QtGallery.in(.text)
    QtMobility::QMDEGalleryCategoryResultSet::itemId() const 0x00012835   Thumb Code   156  QtGallery.in(.text)
    QtMobility::QMDEGalleryCategoryResultSet::itemUrl() const 0x000128d1   Thumb Code     8  QtGallery.in(.text)
    QtMobility::QMDEGalleryCategoryResultSet::itemType() const 0x000128d9   Thumb Code    52  QtGallery.in(.text)
    QtMobility::QMDEGalleryCategoryResultSet::resources() const 0x0001290d   Thumb Code    14  QtGallery.in(.text)
    QtMobility::QMDEGalleryCategoryResultSet::metaData(int) const 0x0001291b   Thumb Code    96  QtGallery.in(.text)
    QtMobility::QMDEGalleryCategoryResultSet::setMetaData(int, const QVariant&) 0x0001297b   Thumb Code     4  QtGallery.in(.text)
    QtMobility::QMDEGalleryCategoryResultSet::currentIndex() const 0x0001297f   Thumb Code     4  QtGallery.in(.text)
    QtMobility::QMDEGalleryCategoryResultSet::fetch(int) 0x00012983   Thumb Code    66  QtGallery.in(.text)
    QtMobility::QMDEGalleryCategoryResultSet::cancel() 0x000129c5   Thumb Code    22  QtGallery.in(.text)
    QtMobility::QMDEGalleryCategoryResultSet::HandleQueryNewResults(CMdEQuery&, int, int) 0x000129db   Thumb Code    76  QtGallery.in(.text)
    thunk{-12} to QtMobility::QMDEGalleryCategoryResultSet::HandleQueryNewResults(CMdEQuery&, int, int) 0x00012a27   Thumb Code     4  QtGallery.in(.text)
    QtMobility::QMDEGalleryCategoryResultSet::HandleQueryCompleted(CMdEQuery&, int) 0x00012a2b   Thumb Code    54  QtGallery.in(.text)
    thunk{-12} to QtMobility::QMDEGalleryCategoryResultSet::HandleQueryCompleted(CMdEQuery&, int) 0x00012a61   Thumb Code     4  QtGallery.in(.text)
    QtMobility::QMdeSession::getStaticMetaObject() 0x00012c25   Thumb Code     4  QtGallery.in(.text)
    QtMobility::QMdeSession::metaObject() const 0x00012c29   Thumb Code    12  QtGallery.in(.text)
    QtMobility::QMdeSession::qt_metacast(const char*) 0x00012c35   Thumb Code    58  QtGallery.in(.text)
    QtMobility::QMdeSession::qt_metacall(QMetaObject::Call, int, void**) 0x00012c6f   Thumb Code     8  QtGallery.in(.text)
    QtMobility::QMdeSession::QMdeSession(QObject*) 0x00012c77   Thumb Code   112  QtGallery.in(.text)
    QtMobility::QMdeSession::QMdeSession__sub_object(QObject*) 0x00012c77   Thumb Code     0  QtGallery.in(.text)
    QtMobility::QMdeSession::~QMdeSession()  0x00012ce7   Thumb Code   100  QtGallery.in(.text)
    QtMobility::QMdeSession::~QMdeSession__sub_object() 0x00012ce7   Thumb Code     0  QtGallery.in(.text)
    QtMobility::QMdeSession::~QMdeSession__deallocating() 0x00012d4b   Thumb Code    16  QtGallery.in(.text)
    QtMobility::QMdeSession::HandleSessionOpened(CMdESession&, int) 0x00012d5b   Thumb Code    10  QtGallery.in(.text)
    thunk{-8} to QtMobility::QMdeSession::HandleSessionOpened(CMdESession&, int) 0x00012d65   Thumb Code    10  QtGallery.in(.text)
    QtMobility::QMdeSession::HandleSessionError(CMdESession&, int) 0x00012d6f   Thumb Code    10  QtGallery.in(.text)
    thunk{-8} to QtMobility::QMdeSession::HandleSessionError(CMdESession&, int) 0x00012d79   Thumb Code    10  QtGallery.in(.text)
    QtMobility::QMdeSession::GetDefaultNamespaceDefL() 0x00012d83   Thumb Code    26  QtGallery.in(.text)
    QtMobility::QMdeSession::GetFullObjectL(unsigned) 0x00012d9d   Thumb Code    20  QtGallery.in(.text)
    QtMobility::QMdeSession::CommitObjectL(CMdEObject&) 0x00012db1   Thumb Code    16  QtGallery.in(.text)
    QtMobility::QMdeSession::NewObjectQueryL(MMdEQueryObserver*, QtMobility::QGalleryQueryRequest*, int&) 0x00012dc1   Thumb Code   102  QtGallery.in(.text)
    QtMobility::QMdeSession::NewObjectQuery(CMdENamespaceDef&, CMdEObjectDef&, MMdEQueryObserver*) 0x00012e27   Thumb Code    82  QtGallery.in(.text)
    QtMobility::QMdeSession::RemoveObject(unsigned) 0x00012e79   Thumb Code    90  QtGallery.in(.text)
    QtMobility::QMdeSession::AddItemAddedObserverL(MMdEObjectObserver&, CMdELogicCondition&) 0x00012ed3   Thumb Code     2  QtGallery.in(.text)
    QtMobility::QMdeSession::AddItemChangedObserverL(MMdEObjectObserver&, RArray<unsigned long>&) 0x00012ed5   Thumb Code    52  QtGallery.in(.text)
    QtMobility::QMdeSession::RemoveObjectObserver(MMdEObjectObserver&) 0x00012f09   Thumb Code    20  QtGallery.in(.text)
    QtMobility::QMdeSession::AddTrackedResultSet(QtMobility::QMDEGalleryResultSet*) 0x00012f1d   Thumb Code    10  QtGallery.in(.text)
    QtMobility::QMdeSession::RemoveTrackedResultSet(QtMobility::QMDEGalleryResultSet*) 0x00012f27   Thumb Code    54  QtGallery.in(.text)
    QtMobility::QDocumentGallery::getStaticMetaObject() 0x00012f79   Thumb Code     4  QtGallery.in(.text)
    QtMobility::QDocumentGallery::metaObject() const 0x00012f7d   Thumb Code    12  QtGallery.in(.text)
    QtMobility::QDocumentGallery::qt_metacast(const char*) 0x00012f89   Thumb Code    40  QtGallery.in(.text)
    QtMobility::QDocumentGallery::qt_metacall(QMetaObject::Call, int, void**) 0x00012fb1   Thumb Code     8  QtGallery.in(.text)
    QtMobility::QDocumentGallery::QDocumentGallery(QObject*) 0x00012fb9   Thumb Code    74  QtGallery.in(.text)
    QtMobility::QDocumentGallery::QDocumentGallery__sub_object(QObject*) 0x00012fb9   Thumb Code     0  QtGallery.in(.text)
    QtMobility::QDocumentGallery::~QDocumentGallery() 0x00013003   Thumb Code     8  QtGallery.in(.text)
    QtMobility::QDocumentGallery::~QDocumentGallery__sub_object() 0x00013003   Thumb Code     0  QtGallery.in(.text)
    QtMobility::QDocumentGallery::~QDocumentGallery__deallocating() 0x0001300b   Thumb Code    16  QtGallery.in(.text)
    QtMobility::QDocumentGallery::isRequestSupported(QtMobility::QGalleryAbstractRequest::RequestType) const 0x0001301b   Thumb Code    20  QtGallery.in(.text)
    QtMobility::QDocumentGallery::itemTypePropertyNames(const QString&) const 0x0001302f   Thumb Code    34  QtGallery.in(.text)
    QtMobility::QDocumentGallery::propertyAttributes(const QString&, const QString&) const 0x00013051   Thumb Code   282  QtGallery.in(.text)
    QtMobility::QDocumentGalleryPrivate::createQueryResponse(QtMobility::QGalleryQueryRequest*) 0x0001316b   Thumb Code   260  QtGallery.in(.text)
    QtMobility::QDocumentGalleryPrivate::createTypeResponse(QtMobility::QGalleryTypeRequest*) 0x0001326f   Thumb Code    32  QtGallery.in(.text)
    QtMobility::QDocumentGalleryPrivate::createItemResponse(QtMobility::QGalleryItemRequest*) 0x0001328f   Thumb Code   298  QtGallery.in(.text)
    QtMobility::QDocumentGallery::createResponse(QtMobility::QGalleryAbstractRequest*) 0x000133b9   Thumb Code    58  QtGallery.in(.text)
    _E32Dll_Body                             0x000133f5   Thumb Code    34  uc_dll.o(.text)
    __DLL_Export_Table__                     0x000141cc   ARM Code       0  QtGallery{00010103}.exp(ExportTable)
    DLL##ExportTableSize                     0x000141d0   Data           0  QtGallery{00010103}.exp(ExportTable)
    DLL##ExportTable                         0x000141d4   Data           0  QtGallery{00010103}.exp(ExportTable)
    CMdEObject::AddTextPropertyL(CMdEPropertyDef&, const TDesC16&) 0x000149cc   ARM Code       0  mdeclient{000a0000}-10.o(StubCode)
    CMdERelationCondition::LeftL()           0x000149d4   ARM Code       0  mdeclient{000a0000}-107.o(StubCode)
    CMdEObject::AddTimePropertyL(CMdEPropertyDef&, TTime) 0x000149dc   ARM Code       0  mdeclient{000a0000}-11.o(StubCode)
    CMdEQuery::SetResultMode(TQueryResultMode) 0x000149e4   ARM Code       0  mdeclient{000a0000}-113.o(StubCode)
    CMdEQuery::RemoveObserver(MMdEQueryObserver&) 0x000149ec   ARM Code       0  mdeclient{000a0000}-114.o(StubCode)
    CMdEQuery::AppendOrderRuleL(const TMdEOrderRule&) 0x000149f4   ARM Code       0  mdeclient{000a0000}-116.o(StubCode)
    CMdEQuery::TakeOwnershipOfResult(int)    0x000149fc   ARM Code       0  mdeclient{000a0000}-118.o(StubCode)
    CMdEQuery::FindL(unsigned, unsigned)     0x00014a04   ARM Code       0  mdeclient{000a0000}-119.o(StubCode)
    CMdEQuery::Cancel()                      0x00014a0c   ARM Code       0  mdeclient{000a0000}-120.o(StubCode)
    CMdEObject::Def() const                  0x00014a14   ARM Code       0  mdeclient{000a0000}-128.o(StubCode)
    CMdEObject::Uri() const                  0x00014a1c   ARM Code       0  mdeclient{000a0000}-129.o(StubCode)
    CMdEObject::Property(const CMdEPropertyDef&, CMdEProperty*&, int) const 0x00014a24   ARM Code       0  mdeclient{000a0000}-133.o(StubCode)
    CMdECondition::Locked() const            0x00014a2c   ARM Code       0  mdeclient{000a0000}-148.o(StubCode)
    CMdEObjectDef::Name() const              0x00014a34   ARM Code       0  mdeclient{000a0000}-152.o(StubCode)
    CMdEObject::AddReal32PropertyL(CMdEPropertyDef&, float) 0x00014a3c   ARM Code       0  mdeclient{000a0000}-16.o(StubCode)
    CMdEPropertyDef::PropertyType() const    0x00014a44   ARM Code       0  mdeclient{000a0000}-161.o(StubCode)
    CMdEObject::AddUint16PropertyL(CMdEPropertyDef&, unsigned short) 0x00014a4c   ARM Code       0  mdeclient{000a0000}-18.o(StubCode)
    CMdEInstanceItem::Id() const             0x00014a54   ARM Code       0  mdeclient{000a0000}-183.o(StubCode)
    CMdEObject::AddUint32PropertyL(CMdEPropertyDef&, unsigned long) 0x00014a5c   ARM Code       0  mdeclient{000a0000}-19.o(StubCode)
    CMdETextProperty::Value() const          0x00014a64   ARM Code       0  mdeclient{000a0000}-190.o(StubCode)
    CMdESession::NewL(MMdESessionObserver&)  0x00014a6c   ARM Code       0  mdeclient{000a0000}-22.o(StubCode)
    CMdEQuery::Conditions() const            0x00014a74   ARM Code       0  mdeclient{000a0000}-224.o(StubCode)
    CMdEQuery::ResultMode() const            0x00014a7c   ARM Code       0  mdeclient{000a0000}-227.o(StubCode)
    CMdEQuery::ResultDistinctValue(int) const 0x00014a84   ARM Code       0  mdeclient{000a0000}-231.o(StubCode)
    CMdEQuery::Count() const                 0x00014a8c   ARM Code       0  mdeclient{000a0000}-233.o(StubCode)
    CMdECondition::SetNegate(int)            0x00014a94   ARM Code       0  mdeclient{000a0000}-30.o(StubCode)
    CMdEObjectDef::GetPropertyDefL(const TDesC16&) 0x00014a9c   ARM Code       0  mdeclient{000a0000}-32.o(StubCode)
    TMdEOrderRule::TMdEOrderRule(const CMdEPropertyDef&, int) 0x00014aa4   ARM Code       0  mdeclient{000a0000}-40.o(StubCode)
    CMdEObjectQuery::AddPropertyFilterL(const CMdEPropertyDef*) 0x00014aac   ARM Code       0  mdeclient{000a0000}-43.o(StubCode)
    CMdENamespaceDef::GetObjectDefL(const TDesC16&) 0x00014ab4   ARM Code       0  mdeclient{000a0000}-50.o(StubCode)
    CMdENamespaceDef::GetRelationDefL(const TDesC16&) 0x00014abc   ARM Code       0  mdeclient{000a0000}-51.o(StubCode)
    CMdETextProperty::SetValueL(const TDesC16&) 0x00014ac4   ARM Code       0  mdeclient{000a0000}-54.o(StubCode)
    CMdELogicCondition::SetOperator(TLogicConditionOperator) 0x00014acc   ARM Code       0  mdeclient{000a0000}-58.o(StubCode)
    CMdELogicCondition::AddLogicConditionL(TLogicConditionOperator) 0x00014ad4   ARM Code       0  mdeclient{000a0000}-65.o(StubCode)
    CMdELogicCondition::AddObjectConditionL(TObjectConditionCompareMethod, const TDesC16&) 0x00014adc   ARM Code       0  mdeclient{000a0000}-66.o(StubCode)
    CMdELogicCondition::AddObjectConditionL(const RArray<unsigned long>&) 0x00014ae4   ARM Code       0  mdeclient{000a0000}-68.o(StubCode)
    CMdELogicCondition::AddObjectConditionL(unsigned long) 0x00014aec   ARM Code       0  mdeclient{000a0000}-69.o(StubCode)
    CMdELogicCondition::AddPropertyConditionL(const CMdEPropertyDef&, TTextPropertyConditionCompareMethod, const TDesC16&) 0x00014af4   ARM Code       0  mdeclient{000a0000}-72.o(StubCode)
    CMdELogicCondition::AddPropertyConditionL(const CMdEPropertyDef&, const TMdERange<TTime>&) 0x00014afc   ARM Code       0  mdeclient{000a0000}-73.o(StubCode)
    CMdELogicCondition::AddPropertyConditionL(const CMdEPropertyDef&, const TMdERange<double>&) 0x00014b04   ARM Code       0  mdeclient{000a0000}-74.o(StubCode)
    CMdELogicCondition::AddPropertyConditionL(const CMdEPropertyDef&, const TMdERange<unsigned>&) 0x00014b0c   ARM Code       0  mdeclient{000a0000}-76.o(StubCode)
    CMdELogicCondition::AddPropertyConditionL(const CMdEPropertyDef&, const TMdERange<long long>&) 0x00014b14   ARM Code       0  mdeclient{000a0000}-77.o(StubCode)
    CMdELogicCondition::AddRelationConditionL(const CMdERelationDef&, TRelationConditionSide) 0x00014b1c   ARM Code       0  mdeclient{000a0000}-80.o(StubCode)
    CMdELogicCondition::NewL(TLogicConditionOperator) 0x00014b24   ARM Code       0  mdeclient{000a0000}-83.o(StubCode)
    TPtrC16::TPtrC16(const unsigned short*)  0x00014b2c   ARM Code       0  euser{000a0000}-1169.o(StubCode)
    TPtrC16::TPtrC16(const unsigned short*, int) 0x00014b34   ARM Code       0  euser{000a0000}-1170.o(StubCode)
    TPtrC16::TPtrC16()                       0x00014b3c   ARM Code       0  euser{000a0000}-1172.o(StubCode)
    TDateTime::Set(int, TMonth, int, int, int, int, int) 0x00014b44   ARM Code       0  euser{000a0000}-1476.o(StubCode)
    RArrayBase::At(int) const                0x00014b4c   ARM Code       0  euser{000a0000}-1507.o(StubCode)
    RArrayBase::Find(const void*) const      0x00014b54   ARM Code       0  euser{000a0000}-1508.o(StubCode)
    RArrayBase::Count() const                0x00014b5c   ARM Code       0  euser{000a0000}-1510.o(StubCode)
    RPointerArrayBase::At(int) const         0x00014b64   ARM Code       0  euser{000a0000}-1590.o(StubCode)
    RPointerArrayBase::Count() const         0x00014b6c   ARM Code       0  euser{000a0000}-1593.o(StubCode)
    TTime::DateTime() const                  0x00014b74   ARM Code       0  euser{000a0000}-1679.o(StubCode)
    TDesC16::LocateReverseF(TChar) const     0x00014b7c   ARM Code       0  euser{000a0000}-1804.o(StubCode)
    TDesC16::Ptr() const                     0x00014b84   ARM Code       0  euser{000a0000}-1807.o(StubCode)
    TDesC16::Alloc() const                   0x00014b8c   ARM Code       0  euser{000a0000}-1810.o(StubCode)
    TDesC16::Compare(const TDesC16&) const   0x00014b94   ARM Code       0  euser{000a0000}-1822.o(StubCode)
    CleanupStack::PopAndDestroy()            0x00014b9c   ARM Code       0  euser{000a0000}-203.o(StubCode)
    CleanupStack::Pop()                      0x00014ba4   ARM Code       0  euser{000a0000}-205.o(StubCode)
    User::MarkCleanupStack()                 0x00014bac   ARM Code       0  euser{000a0000}-2060.o(StubCode)
    User::UnMarkCleanupStack(TTrapHandler*)  0x00014bb4   ARM Code       0  euser{000a0000}-2061.o(StubCode)
    CleanupStack::PushL(CBase*)              0x00014bbc   ARM Code       0  euser{000a0000}-208.o(StubCode)
    XLeaveException::GetReason() const       0x00014bc4   ARM Code       0  euser{000a0000}-2082.o(StubCode)
    CleanupStack::PushL(void*)               0x00014bcc   ARM Code       0  euser{000a0000}-209.o(StubCode)
    TDesC16::Mid(int) const                  0x00014bd4   ARM Code       0  euser{000a0000}-2104.o(StubCode)
    TDesC16::Left(int) const                 0x00014bdc   ARM Code       0  euser{000a0000}-2106.o(StubCode)
    RPointerArrayBase::Close()               0x00014be4   ARM Code       0  euser{000a0000}-470.o(StubCode)
    RPointerArrayBase::Reset()               0x00014bec   ARM Code       0  euser{000a0000}-471.o(StubCode)
    RPointerArrayBase::Append(const void*)   0x00014bf4   ARM Code       0  euser{000a0000}-472.o(StubCode)
    RPointerArrayBase::Remove(int)           0x00014bfc   ARM Code       0  euser{000a0000}-474.o(StubCode)
    RArrayBase::Append(const void*)          0x00014c04   ARM Code       0  euser{000a0000}-48.o(StubCode)
    RPointerArrayBase::RPointerArrayBase()   0x00014c0c   ARM Code       0  euser{000a0000}-481.o(StubCode)
    RArrayBase::RArrayBase(int)              0x00014c14   ARM Code       0  euser{000a0000}-55.o(StubCode)
    User::Leave(int)                         0x00014c1c   ARM Code       0  euser{000a0000}-649.o(StubCode)
    User::Invariant()                        0x00014c24   ARM Code       0  euser{000a0000}-669.o(StubCode)
    User::LockedDec(int&)                    0x00014c2c   ARM Code       0  euser{000a0000}-670.o(StubCode)
    User::LockedInc(int&)                    0x00014c34   ARM Code       0  euser{000a0000}-671.o(StubCode)
    TBufBase16::TBufBase16(const TDesC16&, int) 0x00014c3c   ARM Code       0  euser{000a0000}-80.o(StubCode)
    TTime::TTime(const TDateTime&)           0x00014c44   ARM Code       0  euser{000a0000}-861.o(StubCode)
    operator delete (void*)                  0x00014c4c   ARM Code       0  libstdcpp{00010000}-988.o(StubCode)
    operator new(unsigned)                   0x00014c54   ARM Code       0  libstdcpp{00010000}-992.o(StubCode)
    QAbstractItemModel::beginMoveRows(const QModelIndex&, int, int, const QModelIndex&, int) 0x00014c5c   ARM Code       0  QtCore{00040703}-1001.o(StubCode)
    QAbstractItemModel::endInsertRows()      0x00014c64   ARM Code       0  QtCore{00040703}-1002.o(StubCode)
    QAbstractItemModel::endRemoveRows()      0x00014c6c   ARM Code       0  QtCore{00040703}-1003.o(StubCode)
    QAbstractItemModel::insertColumns(int, int, const QModelIndex&) 0x00014c74   ARM Code       0  QtCore{00040703}-1005.o(StubCode)
    QAbstractItemModel::removeColumns(int, int, const QModelIndex&) 0x00014c7c   ARM Code       0  QtCore{00040703}-1007.o(StubCode)
    QAbstractItemModel::beginInsertRows(const QModelIndex&, int, int) 0x00014c84   ARM Code       0  QtCore{00040703}-1011.o(StubCode)
    QAbstractItemModel::beginRemoveRows(const QModelIndex&, int, int) 0x00014c8c   ARM Code       0  QtCore{00040703}-1012.o(StubCode)
    QAbstractItemModel::endInsertColumns()   0x00014c94   ARM Code       0  QtCore{00040703}-1016.o(StubCode)
    QAbstractItemModel::endRemoveColumns()   0x00014c9c   ARM Code       0  QtCore{00040703}-1017.o(StubCode)
    QAbstractItemModel::headerDataChanged(Qt::Orientation, int, int) 0x00014ca4   ARM Code       0  QtCore{00040703}-1019.o(StubCode)
    QAbstractItemModel::beginInsertColumns(const QModelIndex&, int, int) 0x00014cac   ARM Code       0  QtCore{00040703}-1020.o(StubCode)
    QAbstractItemModel::beginRemoveColumns(const QModelIndex&, int, int) 0x00014cb4   ARM Code       0  QtCore{00040703}-1021.o(StubCode)
    QAbstractItemModel::sort(int, Qt::SortOrder) 0x00014cbc   ARM Code       0  QtCore{00040703}-1034.o(StubCode)
    QAbstractItemModel::revert()             0x00014cc4   ARM Code       0  QtCore{00040703}-1036.o(StubCode)
    QAbstractItemModel::submit()             0x00014ccc   ARM Code       0  QtCore{00040703}-1037.o(StubCode)
    QAbstractItemModel::fetchMore(const QModelIndex&) 0x00014cd4   ARM Code       0  QtCore{00040703}-1039.o(StubCode)
    QAbstractItemModel::QAbstractItemModel__sub_object(QObject*) 0x00014cdc   ARM Code       0  QtCore{00040703}-1041.o(StubCode)
    QAbstractItemModel::~QAbstractItemModel__sub_object() 0x00014ce4   ARM Code       0  QtCore{00040703}-1045.o(StubCode)
    qBadAlloc()                              0x00014cec   ARM Code       0  QtCore{00040703}-109.o(StubCode)
    QDir::toNativeSeparators(const QString&) 0x00014cf4   ARM Code       0  QtCore{00040703}-1453.o(StubCode)
    QUrl::fromLocalFile(const QString&)      0x00014cfc   ARM Code       0  QtCore{00040703}-1492.o(StubCode)
    QByteArray::realloc(int)                 0x00014d04   ARM Code       0  QtCore{00040703}-150.o(StubCode)
    QUrl::QUrl(const QString&)               0x00014d0c   ARM Code       0  QtCore{00040703}-1523.o(StubCode)
    QUrl::QUrl(const QUrl&)                  0x00014d14   ARM Code       0  QtCore{00040703}-1525.o(StubCode)
    QUrl::QUrl()                             0x00014d1c   ARM Code       0  QtCore{00040703}-1526.o(StubCode)
    QUrl::~QUrl()                            0x00014d24   ARM Code       0  QtCore{00040703}-1531.o(StubCode)
    QUrl::operator =(const QUrl&)            0x00014d2c   ARM Code       0  QtCore{00040703}-1534.o(StubCode)
    QDate::QDate(int, int, int)              0x00014d34   ARM Code       0  QtCore{00040703}-1582.o(StubCode)
    QTime::QTime(int, int, int, int)         0x00014d3c   ARM Code       0  QtCore{00040703}-1643.o(StubCode)
    QTimer::singleShot(int, QObject*, const char*) 0x00014d44   ARM Code       0  QtCore{00040703}-1706.o(StubCode)
    QEventLoop::exec(QFlags<QEventLoop::ProcessEventsFlag>) 0x00014d4c   ARM Code       0  QtCore{00040703}-175.o(StubCode)
    QEventLoop::exit(int)                    0x00014d54   ARM Code       0  QtCore{00040703}-176.o(StubCode)
    QObject::childEvent(QChildEvent*)        0x00014d5c   ARM Code       0  QtCore{00040703}-1760.o(StubCode)
    QObject::timerEvent(QTimerEvent*)        0x00014d64   ARM Code       0  QtCore{00040703}-1763.o(StubCode)
    QObject::customEvent(QEvent*)            0x00014d6c   ARM Code       0  QtCore{00040703}-1764.o(StubCode)
    QObject::eventFilter(QObject*, QEvent*)  0x00014d74   ARM Code       0  QtCore{00040703}-1766.o(StubCode)
    QObject::qt_metacall(QMetaObject::Call, int, void**) 0x00014d7c   ARM Code       0  QtCore{00040703}-1767.o(StubCode)
    QObject::qt_metacast(const char*)        0x00014d84   ARM Code       0  QtCore{00040703}-1768.o(StubCode)
    QEventLoop::quit()                       0x00014d8c   ARM Code       0  QtCore{00040703}-177.o(StubCode)
    QObject::connectNotify(const char*)      0x00014d94   ARM Code       0  QtCore{00040703}-1773.o(StubCode)
    QObject::disconnectNotify(const char*)   0x00014d9c   ARM Code       0  QtCore{00040703}-1777.o(StubCode)
    QObject::event(QEvent*)                  0x00014da4   ARM Code       0  QtCore{00040703}-1784.o(StubCode)
    QObject::connect(const QObject*, const char*, const QObject*, const char*, Qt::ConnectionType) 0x00014dac   ARM Code       0  QtCore{00040703}-1785.o(StubCode)
    QObject::QObject(QObject*)               0x00014db4   ARM Code       0  QtCore{00040703}-1789.o(StubCode)
    QEventLoop::QEventLoop(QObject*)         0x00014dbc   ARM Code       0  QtCore{00040703}-179.o(StubCode)
    QObject::~QObject()                      0x00014dc4   ARM Code       0  QtCore{00040703}-1794.o(StubCode)
    QString::fromLatin1(const char*, int)    0x00014dcc   ARM Code       0  QtCore{00040703}-1814.o(StubCode)
    QEventLoop::~QEventLoop()                0x00014dd4   ARM Code       0  QtCore{00040703}-182.o(StubCode)
    QString::fromAscii_helper(const char*, int) 0x00014ddc   ARM Code       0  QtCore{00040703}-1825.o(StubCode)
    QString::free(QString::Data*)            0x00014de4   ARM Code       0  QtCore{00040703}-1830.o(StubCode)
    QString::grow(int)                       0x00014dec   ARM Code       0  QtCore{00040703}-1831.o(StubCode)
    QString::append(const QString&)          0x00014df4   ARM Code       0  QtCore{00040703}-1836.o(StubCode)
    QString::realloc(int)                    0x00014dfc   ARM Code       0  QtCore{00040703}-1855.o(StubCode)
    QString::fromAscii(const char*, int)     0x00014e04   ARM Code       0  QtCore{00040703}-1874.o(StubCode)
    QString::fromUtf16(const unsigned short*, int) 0x00014e0c   ARM Code       0  QtCore{00040703}-1875.o(StubCode)
    QString::operator =(const QString&)      0x00014e14   ARM Code       0  QtCore{00040703}-1885.o(StubCode)
    QMapData::node_delete(QMapData::Node**, int, QMapData::Node*) 0x00014e1c   ARM Code       0  QtCore{00040703}-1947.o(StubCode)
    QMapData::continueFreeData(int)          0x00014e24   ARM Code       0  QtCore{00040703}-1949.o(StubCode)
    QVariant::clear()                        0x00014e2c   ARM Code       0  QtCore{00040703}-2005.o(StubCode)
    QVariant::QVariant(const QString&)       0x00014e34   ARM Code       0  QtCore{00040703}-2034.o(StubCode)
    QVariant::QVariant(const QVariant&)      0x00014e3c   ARM Code       0  QtCore{00040703}-2037.o(StubCode)
    QVariant::QVariant(int)                  0x00014e44   ARM Code       0  QtCore{00040703}-2040.o(StubCode)
    QVariant::QVariant(int, const void*, unsigned) 0x00014e4c   ARM Code       0  QtCore{00040703}-2042.o(StubCode)
    QVariant::QVariant(unsigned)             0x00014e54   ARM Code       0  QtCore{00040703}-2043.o(StubCode)
    QVariant::~QVariant()                    0x00014e5c   ARM Code       0  QtCore{00040703}-2082.o(StubCode)
    QVariant::operator =(const QVariant&)    0x00014e64   ARM Code       0  QtCore{00040703}-2084.o(StubCode)
    QDateTime::QDateTime(const QDate&, const QTime&, Qt::TimeSpec) 0x00014e6c   ARM Code       0  QtCore{00040703}-2103.o(StubCode)
    QDateTime::QDateTime(const QDateTime&)   0x00014e74   ARM Code       0  QtCore{00040703}-2104.o(StubCode)
    QDateTime::~QDateTime()                  0x00014e7c   ARM Code       0  QtCore{00040703}-2110.o(StubCode)
    QFileInfo::QFileInfo(const QString&)     0x00014e84   ARM Code       0  QtCore{00040703}-2122.o(StubCode)
    QFileInfo::~QFileInfo()                  0x00014e8c   ARM Code       0  QtCore{00040703}-2130.o(StubCode)
    QHashData::free_helper(void(*)(QHashData::Node*)) 0x00014e94   ARM Code       0  QtCore{00040703}-2134.o(StubCode)
    QHashData::rehash(int)                   0x00014e9c   ARM Code       0  QtCore{00040703}-2141.o(StubCode)
    QHashData::nextNode(QHashData::Node*)    0x00014ea4   ARM Code       0  QtCore{00040703}-2143.o(StubCode)
    QListData::append()                      0x00014eac   ARM Code       0  QtCore{00040703}-2188.o(StubCode)
    QListData::insert(int)                   0x00014eb4   ARM Code       0  QtCore{00040703}-2190.o(StubCode)
    QListData::remove(int)                   0x00014ebc   ARM Code       0  QtCore{00040703}-2191.o(StubCode)
    QListData::append2(const QListData&)     0x00014ec4   ARM Code       0  QtCore{00040703}-2193.o(StubCode)
    QListData::prepend()                     0x00014ecc   ARM Code       0  QtCore{00040703}-2196.o(StubCode)
    QListData::realloc(int)                  0x00014ed4   ARM Code       0  QtCore{00040703}-2197.o(StubCode)
    QtPrivate::QStringList_removeDuplicates(QStringList*) 0x00014edc   ARM Code       0  QtCore{00040703}-2324.o(StubCode)
    QMetaObject::tr(const char*, const char*) const 0x00014ee4   ARM Code       0  QtCore{00040703}-2416.o(StubCode)
    QMetaObject::cast(QObject*) const        0x00014eec   ARM Code       0  QtCore{00040703}-2418.o(StubCode)
    QAbstractItemModel::hasChildren(const QModelIndex&) const 0x00014ef4   ARM Code       0  QtCore{00040703}-2674.o(StubCode)
    QAbstractItemModel::canFetchMore(const QModelIndex&) const 0x00014efc   ARM Code       0  QtCore{00040703}-2675.o(StubCode)
    QAbstractItemModel::supportedDropActions() const 0x00014f04   ARM Code       0  QtCore{00040703}-2678.o(StubCode)
    QAbstractItemModel::span(const QModelIndex&) const 0x00014f0c   ARM Code       0  QtCore{00040703}-2679.o(StubCode)
    QAbstractItemModel::buddy(const QModelIndex&) const 0x00014f14   ARM Code       0  QtCore{00040703}-2680.o(StubCode)
    QAbstractItemModel::match(const QModelIndex&, int, const QVariant&, int, QFlags<Qt::MatchFlag>) const 0x00014f1c   ARM Code       0  QtCore{00040703}-2682.o(StubCode)
    QAbstractItemModel::itemData(const QModelIndex&) const 0x00014f24   ARM Code       0  QtCore{00040703}-2684.o(StubCode)
    QAbstractItemModel::mimeData(const QList<QModelIndex>&) const 0x00014f2c   ARM Code       0  QtCore{00040703}-2685.o(StubCode)
    QAbstractItemModel::mimeTypes() const    0x00014f34   ARM Code       0  QtCore{00040703}-2686.o(StubCode)
    QMetaObject::activate(QObject*, const QMetaObject*, int, void**) 0x00014f3c   ARM Code       0  QtCore{00040703}-282.o(StubCode)
    QUrl::isEmpty() const                    0x00014f44   ARM Code       0  QtCore{00040703}-2842.o(StubCode)
    QUrl::operator ==(const QUrl&) const     0x00014f4c   ARM Code       0  QtCore{00040703}-2853.o(StubCode)
    QUrl::operator !=(const QUrl&) const     0x00014f54   ARM Code       0  QtCore{00040703}-2855.o(StubCode)
    QDate::day() const                       0x00014f5c   ARM Code       0  QtCore{00040703}-2883.o(StubCode)
    QDate::year() const                      0x00014f64   ARM Code       0  QtCore{00040703}-2884.o(StubCode)
    QDate::month() const                     0x00014f6c   ARM Code       0  QtCore{00040703}-2885.o(StubCode)
    QTime::hour() const                      0x00014f74   ARM Code       0  QtCore{00040703}-2913.o(StubCode)
    QTime::msec() const                      0x00014f7c   ARM Code       0  QtCore{00040703}-2914.o(StubCode)
    QTime::minute() const                    0x00014f84   ARM Code       0  QtCore{00040703}-2915.o(StubCode)
    QTime::second() const                    0x00014f8c   ARM Code       0  QtCore{00040703}-2916.o(StubCode)
    QString::startsWith(const QChar&, Qt::CaseSensitivity) const 0x00014f94   ARM Code       0  QtCore{00040703}-3032.o(StubCode)
    QString::toLocal8Bit() const             0x00014f9c   ARM Code       0  QtCore{00040703}-3040.o(StubCode)
    QString::arg(const QString&, int, const QChar&) const 0x00014fa4   ARM Code       0  QtCore{00040703}-3049.o(StubCode)
    QString::mid(int, int) const             0x00014fac   ARM Code       0  QtCore{00040703}-3054.o(StubCode)
    QString::utf16() const                   0x00014fb4   ARM Code       0  QtCore{00040703}-3064.o(StubCode)
    QString::indexOf(QChar, int, Qt::CaseSensitivity) const 0x00014fbc   ARM Code       0  QtCore{00040703}-3073.o(StubCode)
    QString::operator ==(const QLatin1String&) const 0x00014fc4   ARM Code       0  QtCore{00040703}-3097.o(StubCode)
    QString::operator ==(const QString&) const 0x00014fcc   ARM Code       0  QtCore{00040703}-3098.o(StubCode)
    QVariant::toDateTime() const             0x00014fd4   ARM Code       0  QtCore{00040703}-3131.o(StubCode)
    QVariant::toULongLong(bool*) const       0x00014fdc   ARM Code       0  QtCore{00040703}-3134.o(StubCode)
    QVariant::cmp(const QVariant&) const     0x00014fe4   ARM Code       0  QtCore{00040703}-3136.o(StubCode)
    QVariant::type() const                   0x00014fec   ARM Code       0  QtCore{00040703}-3138.o(StubCode)
    QVariant::isNull() const                 0x00014ff4   ARM Code       0  QtCore{00040703}-3142.o(StubCode)
    QVariant::toUInt(bool*) const            0x00014ffc   ARM Code       0  QtCore{00040703}-3153.o(StubCode)
    QVariant::toDouble(bool*) const          0x00015004   ARM Code       0  QtCore{00040703}-3159.o(StubCode)
    QVariant::toString() const               0x0001500c   ARM Code       0  QtCore{00040703}-3163.o(StubCode)
    QDateTime::date() const                  0x00015014   ARM Code       0  QtCore{00040703}-3170.o(StubCode)
    QDateTime::time() const                  0x0001501c   ARM Code       0  QtCore{00040703}-3171.o(StubCode)
    qt_message_output(QtMsgType, const char*) 0x00015024   ARM Code       0  QtCore{00040703}-32.o(StubCode)
    QFileInfo::absoluteFilePath() const      0x0001502c   ARM Code       0  QtCore{00040703}-3200.o(StubCode)
    QFileInfo::fileName() const              0x00015034   ARM Code       0  QtCore{00040703}-3218.o(StubCode)
    QTextStream::~QTextStream()              0x0001503c   ARM Code       0  QtCore{00040703}-324.o(StubCode)
    QTextStream::operator <<(const QString&) 0x00015044   ARM Code       0  QtCore{00040703}-331.o(StubCode)
    QTextStream::operator <<(char)           0x0001504c   ARM Code       0  QtCore{00040703}-332.o(StubCode)
    QTextStream::operator <<(int)            0x00015054   ARM Code       0  QtCore{00040703}-335.o(StubCode)
    operator ==(const QLatin1String&, const QStringRef&) 0x0001505c   ARM Code       0  QtCore{00040703}-3460.o(StubCode)
    operator <<(QDebug, const QVariant&)     0x00015064   ARM Code       0  QtCore{00040703}-3483.o(StubCode)
    QVectorData::reallocate(QVectorData*, int, int, int) 0x0001506c   ARM Code       0  QtCore{00040703}-3583.o(StubCode)
    QVectorData::free(QVectorData*, int)     0x00015074   ARM Code       0  QtCore{00040703}-3584.o(StubCode)
    QVectorData::allocate(int, int)          0x0001507c   ARM Code       0  QtCore{00040703}-3585.o(StubCode)
    QMapData::createData(int)                0x00015084   ARM Code       0  QtCore{00040703}-3607.o(StubCode)
    QMapData::node_create(QMapData::Node**, int, int) 0x0001508c   ARM Code       0  QtCore{00040703}-3608.o(StubCode)
    QHashData::allocateNode(int)             0x00015094   ARM Code       0  QtCore{00040703}-3609.o(StubCode)
    QHashData::detach_helper2(void(*)(QHashData::Node*, void*), void(*)(QHashData::Node*), int, int) 0x0001509c   ARM Code       0  QtCore{00040703}-3610.o(StubCode)
    QListData::detach_grow(int*, int)        0x000150a4   ARM Code       0  QtCore{00040703}-3689.o(StubCode)
    QListData::detach(int)                   0x000150ac   ARM Code       0  QtCore{00040703}-3691.o(StubCode)
    QVectorData::grow(int, int, int, bool)   0x000150b4   ARM Code       0  QtCore{00040703}-392.o(StubCode)
    qFree(void*)                             0x000150bc   ARM Code       0  QtCore{00040703}-70.o(StubCode)
    QtSharedPointer::ExternalRefCountData::getAndRef(const QObject*) 0x000150c4   ARM Code       0  QtCore{00040703}-741.o(StubCode)
    QCoreApplication::processEvents(QFlags<QEventLoop::ProcessEventsFlag>, int) 0x000150cc   ARM Code       0  QtCore{00040703}-757.o(StubCode)
    qMemSet(void*, int, unsigned)            0x000150d4   ARM Code       0  QtCore{00040703}-91.o(StubCode)
    QAbstractItemModel::insertRows(int, int, const QModelIndex&) 0x000150dc   ARM Code       0  QtCore{00040703}-988.o(StubCode)
    QAbstractItemModel::removeRows(int, int, const QModelIndex&) 0x000150e4   ARM Code       0  QtCore{00040703}-990.o(StubCode)
    QAbstractItemModel::dataChanged(const QModelIndex&, const QModelIndex&) 0x000150ec   ARM Code       0  QtCore{00040703}-991.o(StubCode)
    QAbstractItemModel::endMoveRows()        0x000150f4   ARM Code       0  QtCore{00040703}-992.o(StubCode)
    QAbstractItemModel::qt_metacall(QMetaObject::Call, int, void**) 0x000150fc   ARM Code       0  QtCore{00040703}-993.o(StubCode)
    QAbstractItemModel::qt_metacast(const char*) 0x00015104   ARM Code       0  QtCore{00040703}-994.o(StubCode)
    QAbstractItemModel::setItemData(const QModelIndex&, const QMap<int, QVariant>&) 0x0001510c   ARM Code       0  QtCore{00040703}-996.o(StubCode)
    QAbstractItemModel::dropMimeData(const QMimeData*, Qt::DropAction, int, int, const QModelIndex&) 0x00015114   ARM Code       0  QtCore{00040703}-998.o(StubCode)
    strcmp                                   0x0001511c   ARM Code       0  libc{00010000}-350.o(StubCode)
    __aeabi_f2d                              0x00015124   ARM Code       0  dfpaeabi{000a0000}-24.o(StubCode)
    __aeabi_d2f                              0x0001512c   ARM Code       0  dfpaeabi{000a0000}-7.o(StubCode)
    __aeabi_idivmod                          0x00015134   ARM Code       0  drtaeabi{000a0000}-135.o(StubCode)
    __aeabi_memcpy4                          0x0001513c   ARM Code       0  drtaeabi{000a0000}-147.o(StubCode)
    __aeabi_memmove4                         0x00015144   ARM Code       0  drtaeabi{000a0000}-150.o(StubCode)
    __aeabi_uidivmod                         0x0001514c   ARM Code       0  drtaeabi{000a0000}-155.o(StubCode)
    __aeabi_unwind_cpp_pr0                   0x00015154   ARM Code       0  drtaeabi{000a0000}-158.o(StubCode)
    __cxa_begin_catch                        0x0001515c   ARM Code       0  drtaeabi{000a0000}-180.o(StubCode)
    __cxa_end_catch                          0x00015164   ARM Code       0  drtaeabi{000a0000}-183.o(StubCode)
    __cxa_end_cleanup                        0x0001516c   ARM Code       0  drtaeabi{000a0000}-184.o(StubCode)
    __cxa_pure_virtual                       0x00015174   ARM Code       0  drtaeabi{000a0000}-189.o(StubCode)
    __cxa_rethrow                            0x0001517c   ARM Code       0  drtaeabi{000a0000}-190.o(StubCode)
    __ARM_switch8                            0x00015184   ARM Code       0  drtrvct2_2{000a0000}-28.o(StubCode)
    QByteArray::~QByteArray()                0x0001518d   Thumb Code    24  QtGallery.in(i._ZN10QByteArrayD1Ev)
    QByteArray::~QByteArray__sub_object()    0x0001518d   Thumb Code     0  QtGallery.in(i._ZN10QByteArrayD1Ev)
    QStringRef::~QStringRef()                0x000151a5   Thumb Code     2  QtGallery.in(i._ZN10QStringRefD1Ev)
    QStringRef::~QStringRef__sub_object()    0x000151a5   Thumb Code     0  QtGallery.in(i._ZN10QStringRefD1Ev)
    QtMobility::QGalleryFilterPrivate::QGalleryFilterPrivate__sub_object(QtMobility::QGalleryFilter::Type) 0x000151a9   Thumb Code    12  QtGallery.in(i._ZN10QtMobility21QGalleryFilterPrivateC2ENS_14QGalleryFilter4TypeE)
    QtMobility::QGalleryFilterPrivate::QGalleryFilterPrivate__sub_object(const QtMobility::QGalleryFilterPrivate&) 0x000151b9   Thumb Code    18  QtGallery.in(i._ZN10QtMobility21QGalleryFilterPrivateC2ERKS0_)
    QtMobility::QGalleryFilterPrivate::~QGalleryFilterPrivate__deallocating() 0x000151d1   Thumb Code    12  QtGallery.in(i._ZN10QtMobility21QGalleryFilterPrivateD0Ev)
    QtMobility::QGalleryFilterPrivate::~QGalleryFilterPrivate() 0x000151dd   Thumb Code     0  QtGallery.in(i._ZN10QtMobility21QGalleryFilterPrivateD2Ev)
    QtMobility::QGalleryFilterPrivate::~QGalleryFilterPrivate__sub_object() 0x000151dd   Thumb Code     2  QtGallery.in(i._ZN10QtMobility21QGalleryFilterPrivateD2Ev)
    QtMobility::QGalleryNullResultSet::setMetaData(int, const QVariant&) 0x000151df   Thumb Code     4  QtGallery.in(i._ZN10QtMobility21QGalleryNullResultSet11setMetaDataEiRK8QVariant)
    QtMobility::QGalleryNullResultSet::fetch(int) 0x000151e3   Thumb Code     4  QtGallery.in(i._ZN10QtMobility21QGalleryNullResultSet5fetchEi)
    QtMobility::QGalleryNullResultSet::~QGalleryNullResultSet__deallocating() 0x000151e7   Thumb Code    16  QtGallery.in(i._ZN10QtMobility21QGalleryNullResultSetD0Ev)
    QtMobility::QGalleryNullResultSet::~QGalleryNullResultSet() 0x000151f7   Thumb Code     8  QtGallery.in(i._ZN10QtMobility21QGalleryNullResultSetD1Ev)
    QtMobility::QGalleryNullResultSet::~QGalleryNullResultSet__sub_object() 0x000151f7   Thumb Code     0  QtGallery.in(i._ZN10QtMobility21QGalleryNullResultSetD1Ev)
    QtMobility::QDocumentGalleryPrivate::~QDocumentGalleryPrivate__deallocating() 0x000151ff   Thumb Code    12  QtGallery.in(i._ZN10QtMobility23QDocumentGalleryPrivateD0Ev)
    QtMobility::QDocumentGalleryPrivate::~QDocumentGalleryPrivate() 0x0001520b   Thumb Code     2  QtGallery.in(i._ZN10QtMobility23QDocumentGalleryPrivateD1Ev)
    QtMobility::QDocumentGalleryPrivate::~QDocumentGalleryPrivate__sub_object() 0x0001520b   Thumb Code     0  QtGallery.in(i._ZN10QtMobility23QDocumentGalleryPrivateD1Ev)
    QtMobility::QGalleryAbstractRequest::tr(const char*, const char*) 0x0001520d   Thumb Code    14  QtGallery.in(i._ZN10QtMobility23QGalleryAbstractRequest2trEPKcS2_)
    QtMobility::QGalleryResultSetPrivate::~QGalleryResultSetPrivate__deallocating() 0x00015221   Thumb Code    16  QtGallery.in(i._ZN10QtMobility24QGalleryResultSetPrivateD0Ev)
    QtMobility::QGalleryResultSetPrivate::~QGalleryResultSetPrivate() 0x00015231   Thumb Code     8  QtGallery.in(i._ZN10QtMobility24QGalleryResultSetPrivateD1Ev)
    QtMobility::QGalleryResultSetPrivate::~QGalleryResultSetPrivate__sub_object() 0x00015231   Thumb Code     0  QtGallery.in(i._ZN10QtMobility24QGalleryResultSetPrivateD1Ev)
    QtMobility::QGalleryQueryModelPrivate::setObject(QtMobility::QGalleryQueryModel*) 0x00015239   Thumb Code   628  QtGallery.in(i._ZN10QtMobility25QGalleryQueryModelPrivate9setObjectEPNS_18QGalleryQueryModelE)
    QtMobility::QGalleryQueryModelPrivate::QGalleryQueryModelPrivate(QtMobility::QAbstractGallery*) 0x000154ad   Thumb Code    96  QtGallery.in(i._ZN10QtMobility25QGalleryQueryModelPrivateC1EPNS_16QAbstractGalleryE)
    QtMobility::QGalleryQueryModelPrivate::QGalleryQueryModelPrivate__sub_object(QtMobility::QAbstractGallery*) 0x000154ad   Thumb Code     0  QtGallery.in(i._ZN10QtMobility25QGalleryQueryModelPrivateC1EPNS_16QAbstractGalleryE)
    QtMobility::QGalleryItemRequestPrivate::QGalleryItemRequestPrivate(QtMobility::QAbstractGallery*) 0x0001554d   Thumb Code   132  QtGallery.in(i._ZN10QtMobility26QGalleryItemRequestPrivateC1EPNS_16QAbstractGalleryE)
    QtMobility::QGalleryItemRequestPrivate::QGalleryItemRequestPrivate__sub_object(QtMobility::QAbstractGallery*) 0x0001554d   Thumb Code     0  QtGallery.in(i._ZN10QtMobility26QGalleryItemRequestPrivateC1EPNS_16QAbstractGalleryE)
    QtMobility::QGalleryItemRequestPrivate::~QGalleryItemRequestPrivate__deallocating() 0x0001561f   Thumb Code    16  QtGallery.in(i._ZN10QtMobility26QGalleryItemRequestPrivateD0Ev)
    QtMobility::QGalleryItemRequestPrivate::~QGalleryItemRequestPrivate() 0x00015631   Thumb Code    60  QtGallery.in(i._ZN10QtMobility26QGalleryItemRequestPrivateD1Ev)
    QtMobility::QGalleryItemRequestPrivate::~QGalleryItemRequestPrivate__sub_object() 0x00015631   Thumb Code     0  QtGallery.in(i._ZN10QtMobility26QGalleryItemRequestPrivateD1Ev)
    QtMobility::QGalleryTypeRequestPrivate::QGalleryTypeRequestPrivate(QtMobility::QAbstractGallery*) 0x000156a1   Thumb Code   132  QtGallery.in(i._ZN10QtMobility26QGalleryTypeRequestPrivateC1EPNS_16QAbstractGalleryE)
    QtMobility::QGalleryTypeRequestPrivate::QGalleryTypeRequestPrivate__sub_object(QtMobility::QAbstractGallery*) 0x000156a1   Thumb Code     0  QtGallery.in(i._ZN10QtMobility26QGalleryTypeRequestPrivateC1EPNS_16QAbstractGalleryE)
    QtMobility::QGalleryTypeRequestPrivate::~QGalleryTypeRequestPrivate__deallocating() 0x00015773   Thumb Code    16  QtGallery.in(i._ZN10QtMobility26QGalleryTypeRequestPrivateD0Ev)
    QtMobility::QGalleryTypeRequestPrivate::~QGalleryTypeRequestPrivate() 0x00015785   Thumb Code    60  QtGallery.in(i._ZN10QtMobility26QGalleryTypeRequestPrivateD1Ev)
    QtMobility::QGalleryTypeRequestPrivate::~QGalleryTypeRequestPrivate__sub_object() 0x00015785   Thumb Code     0  QtGallery.in(i._ZN10QtMobility26QGalleryTypeRequestPrivateD1Ev)
    QtMobility::QGalleryUnionFilterPrivate::QGalleryUnionFilterPrivate(QtMobility::QGalleryFilter::Type) 0x000157f5   Thumb Code    24  QtGallery.in(i._ZN10QtMobility26QGalleryUnionFilterPrivateC1ENS_14QGalleryFilter4TypeE)
    QtMobility::QGalleryUnionFilterPrivate::QGalleryUnionFilterPrivate__sub_object(QtMobility::QGalleryFilter::Type) 0x000157f5   Thumb Code     0  QtGallery.in(i._ZN10QtMobility26QGalleryUnionFilterPrivateC1ENS_14QGalleryFilter4TypeE)
    QtMobility::QGalleryUnionFilterPrivate::~QGalleryUnionFilterPrivate__deallocating() 0x0001581b   Thumb Code    16  QtGallery.in(i._ZN10QtMobility26QGalleryUnionFilterPrivateD0Ev)
    QtMobility::QGalleryUnionFilterPrivate::~QGalleryUnionFilterPrivate() 0x0001582d   Thumb Code    20  QtGallery.in(i._ZN10QtMobility26QGalleryUnionFilterPrivateD1Ev)
    QtMobility::QGalleryUnionFilterPrivate::~QGalleryUnionFilterPrivate__sub_object() 0x0001582d   Thumb Code     0  QtGallery.in(i._ZN10QtMobility26QGalleryUnionFilterPrivateD1Ev)
    QtMobility::QGalleryQueryRequestPrivate::QGalleryQueryRequestPrivate(QtMobility::QAbstractGallery*) 0x00015851   Thumb Code   164  QtGallery.in(i._ZN10QtMobility27QGalleryQueryRequestPrivateC1EPNS_16QAbstractGalleryE)
    QtMobility::QGalleryQueryRequestPrivate::QGalleryQueryRequestPrivate__sub_object(QtMobility::QAbstractGallery*) 0x00015851   Thumb Code     0  QtGallery.in(i._ZN10QtMobility27QGalleryQueryRequestPrivateC1EPNS_16QAbstractGalleryE)
    QtMobility::QGalleryQueryRequestPrivate::~QGalleryQueryRequestPrivate__deallocating() 0x00015957   Thumb Code    16  QtGallery.in(i._ZN10QtMobility27QGalleryQueryRequestPrivateD0Ev)
    QtMobility::QGalleryQueryRequestPrivate::~QGalleryQueryRequestPrivate() 0x00015969   Thumb Code    84  QtGallery.in(i._ZN10QtMobility27QGalleryQueryRequestPrivateD1Ev)
    QtMobility::QGalleryQueryRequestPrivate::~QGalleryQueryRequestPrivate__sub_object() 0x00015969   Thumb Code     0  QtGallery.in(i._ZN10QtMobility27QGalleryQueryRequestPrivateD1Ev)
    QtMobility::QGalleryInvalidFilterPrivate::~QGalleryInvalidFilterPrivate__deallocating() 0x00015a07   Thumb Code    12  QtGallery.in(i._ZN10QtMobility28QGalleryInvalidFilterPrivateD0Ev)
    QtMobility::QGalleryInvalidFilterPrivate::~QGalleryInvalidFilterPrivate() 0x00015a13   Thumb Code     2  QtGallery.in(i._ZN10QtMobility28QGalleryInvalidFilterPrivateD1Ev)
    QtMobility::QGalleryInvalidFilterPrivate::~QGalleryInvalidFilterPrivate__sub_object() 0x00015a13   Thumb Code     0  QtGallery.in(i._ZN10QtMobility28QGalleryInvalidFilterPrivateD1Ev)
    QtMobility::QGalleryMetaDataFilterPrivate::QGalleryMetaDataFilterPrivate(QtMobility::QGalleryFilter::Type) 0x00015a15   Thumb Code    56  QtGallery.in(i._ZN10QtMobility29QGalleryMetaDataFilterPrivateC1ENS_14QGalleryFilter4TypeE)
    QtMobility::QGalleryMetaDataFilterPrivate::QGalleryMetaDataFilterPrivate__sub_object(QtMobility::QGalleryFilter::Type) 0x00015a15   Thumb Code     0  QtGallery.in(i._ZN10QtMobility29QGalleryMetaDataFilterPrivateC1ENS_14QGalleryFilter4TypeE)
    QtMobility::QGalleryMetaDataFilterPrivate::~QGalleryMetaDataFilterPrivate__deallocating() 0x00015a5f   Thumb Code    16  QtGallery.in(i._ZN10QtMobility29QGalleryMetaDataFilterPrivateD0Ev)
    QtMobility::QGalleryMetaDataFilterPrivate::~QGalleryMetaDataFilterPrivate() 0x00015a71   Thumb Code    32  QtGallery.in(i._ZN10QtMobility29QGalleryMetaDataFilterPrivateD1Ev)
    QtMobility::QGalleryMetaDataFilterPrivate::~QGalleryMetaDataFilterPrivate__sub_object() 0x00015a71   Thumb Code     0  QtGallery.in(i._ZN10QtMobility29QGalleryMetaDataFilterPrivateD1Ev)
    QtMobility::QGalleryAbstractRequestPrivate::QGalleryAbstractRequestPrivate(QtMobility::QAbstractGallery*, QtMobility::QGalleryAbstractRequest::RequestType) 0x00015aad   Thumb Code    48  QtGallery.in(i._ZN10QtMobility30QGalleryAbstractRequestPrivateC1EPNS_16QAbstractGalleryENS_23QGalleryAbstractRequest11RequestTypeE)
    QtMobility::QGalleryAbstractRequestPrivate::QGalleryAbstractRequestPrivate__sub_object(QtMobility::QAbstractGallery*, QtMobility::QGalleryAbstractRequest::RequestType) 0x00015aad   Thumb Code     0  QtGallery.in(i._ZN10QtMobility30QGalleryAbstractRequestPrivateC1EPNS_16QAbstractGalleryENS_23QGalleryAbstractRequest11RequestTypeE)
    QtMobility::QGalleryAbstractRequestPrivate::~QGalleryAbstractRequestPrivate__deallocating() 0x00015af5   Thumb Code    16  QtGallery.in(i._ZN10QtMobility30QGalleryAbstractRequestPrivateD0Ev)
    QtMobility::QGalleryAbstractRequestPrivate::~QGalleryAbstractRequestPrivate() 0x00015b05   Thumb Code    38  QtGallery.in(i._ZN10QtMobility30QGalleryAbstractRequestPrivateD1Ev)
    QtMobility::QGalleryAbstractRequestPrivate::~QGalleryAbstractRequestPrivate__sub_object() 0x00015b05   Thumb Code     0  QtGallery.in(i._ZN10QtMobility30QGalleryAbstractRequestPrivateD1Ev)
    QtMobility::QGalleryAbstractResponsePrivate::QGalleryAbstractResponsePrivate() 0x00015b49   Thumb Code    36  QtGallery.in(i._ZN10QtMobility31QGalleryAbstractResponsePrivateC1Ev)
    QtMobility::QGalleryAbstractResponsePrivate::QGalleryAbstractResponsePrivate__sub_object() 0x00015b49   Thumb Code     0  QtGallery.in(i._ZN10QtMobility31QGalleryAbstractResponsePrivateC1Ev)
    QtMobility::QGalleryAbstractResponsePrivate::~QGalleryAbstractResponsePrivate__deallocating() 0x00015b75   Thumb Code    16  QtGallery.in(i._ZN10QtMobility31QGalleryAbstractResponsePrivateD0Ev)
    QtMobility::QGalleryAbstractResponsePrivate::~QGalleryAbstractResponsePrivate() 0x00015b85   Thumb Code    16  QtGallery.in(i._ZN10QtMobility31QGalleryAbstractResponsePrivateD1Ev)
    QtMobility::QGalleryAbstractResponsePrivate::~QGalleryAbstractResponsePrivate__sub_object() 0x00015b85   Thumb Code     0  QtGallery.in(i._ZN10QtMobility31QGalleryAbstractResponsePrivateD1Ev)
    QtMobility::QGalleryIntersectionFilterPrivate::QGalleryIntersectionFilterPrivate(QtMobility::QGalleryFilter::Type) 0x00015b99   Thumb Code    24  QtGallery.in(i._ZN10QtMobility33QGalleryIntersectionFilterPrivateC1ENS_14QGalleryFilter4TypeE)
    QtMobility::QGalleryIntersectionFilterPrivate::QGalleryIntersectionFilterPrivate__sub_object(QtMobility::QGalleryFilter::Type) 0x00015b99   Thumb Code     0  QtGallery.in(i._ZN10QtMobility33QGalleryIntersectionFilterPrivateC1ENS_14QGalleryFilter4TypeE)
    QtMobility::QGalleryIntersectionFilterPrivate::~QGalleryIntersectionFilterPrivate__deallocating() 0x00015bbf   Thumb Code    16  QtGallery.in(i._ZN10QtMobility33QGalleryIntersectionFilterPrivateD0Ev)
    QtMobility::QGalleryIntersectionFilterPrivate::~QGalleryIntersectionFilterPrivate() 0x00015bd1   Thumb Code    20  QtGallery.in(i._ZN10QtMobility33QGalleryIntersectionFilterPrivateD1Ev)
    QtMobility::QGalleryIntersectionFilterPrivate::~QGalleryIntersectionFilterPrivate__sub_object() 0x00015bd1   Thumb Code     0  QtGallery.in(i._ZN10QtMobility33QGalleryIntersectionFilterPrivateD1Ev)
    QModelIndex::QModelIndex()               0x00015bf3   Thumb Code    16  QtGallery.in(i._ZN11QModelIndexC1Ev)
    QModelIndex::QModelIndex__sub_object()   0x00015bf3   Thumb Code     0  QtGallery.in(i._ZN11QModelIndexC1Ev)
    QModelIndex::~QModelIndex()              0x00015c03   Thumb Code     8  QtGallery.in(i._ZN11QModelIndexD1Ev)
    QModelIndex::~QModelIndex__sub_object()  0x00015c03   Thumb Code     0  QtGallery.in(i._ZN11QModelIndexD1Ev)
    QStringList::QStringList(const QStringList&) 0x00015c0b   Thumb Code    30  QtGallery.in(i._ZN11QStringListC1ERKS_)
    QStringList::QStringList__sub_object(const QStringList&) 0x00015c0b   Thumb Code     0  QtGallery.in(i._ZN11QStringListC1ERKS_)
    QStringList::QStringList()               0x00015c29   Thumb Code    16  QtGallery.in(i._ZN11QStringListC1Ev)
    QStringList::QStringList__sub_object()   0x00015c29   Thumb Code     0  QtGallery.in(i._ZN11QStringListC1Ev)
    QStringList::~QStringList()              0x00015c3d   Thumb Code     8  QtGallery.in(i._ZN11QStringListD1Ev)
    QStringList::~QStringList__sub_object()  0x00015c3d   Thumb Code     0  QtGallery.in(i._ZN11QStringListD1Ev)
    QStringList::operator =(const QStringList&) 0x00015c45   Thumb Code    54  QtGallery.in(i._ZN11QStringListaSERKS_)
    QBasicAtomicInt::ref()                   0x00015c7b   Thumb Code    18  QtGallery.in(i._ZN15QBasicAtomicInt3refEv)
    QBasicAtomicInt::deref()                 0x00015c8d   Thumb Code    18  QtGallery.in(i._ZN15QBasicAtomicInt5derefEv)
    QDebug::maybeSpace()                     0x00015c9f   Thumb Code    22  QtGallery.in(i._ZN6QDebug10maybeSpaceEv)
    QDebug::QDebug(const QDebug&)            0x00015cb5   Thumb Code    12  QtGallery.in(i._ZN6QDebugC1ERKS_)
    QDebug::QDebug__sub_object(const QDebug&) 0x00015cb5   Thumb Code     0  QtGallery.in(i._ZN6QDebugC1ERKS_)
    QDebug::~QDebug()                        0x00015cc1   Thumb Code   132  QtGallery.in(i._ZN6QDebugD1Ev)
    QDebug::~QDebug__sub_object()            0x00015cc1   Thumb Code     0  QtGallery.in(i._ZN6QDebugD1Ev)
    QDebug::operator <<(const char*)         0x00015d59   Thumb Code    36  QtGallery.in(i._ZN6QDebuglsEPKc)
    QString::QString(const QString&)         0x00015d87   Thumb Code    16  QtGallery.in(i._ZN7QStringC1ERKS_)
    QString::QString__sub_object(const QString&) 0x00015d87   Thumb Code     0  QtGallery.in(i._ZN7QStringC1ERKS_)
    QString::QString()                       0x00015d99   Thumb Code    16  QtGallery.in(i._ZN7QStringC1Ev)
    QString::QString__sub_object()           0x00015d99   Thumb Code     0  QtGallery.in(i._ZN7QStringC1Ev)
    QString::~QString()                      0x00015dad   Thumb Code    24  QtGallery.in(i._ZN7QStringD1Ev)
    QString::~QString__sub_object()          0x00015dad   Thumb Code     0  QtGallery.in(i._ZN7QStringD1Ev)
    TPtrC16::Set(const TPtrC16&)             0x00015dc5   Thumb Code    26  QtGallery.in(i._ZN7TPtrC163SetERKS_)
    QVariant::QVariant()                     0x00015ddf   Thumb Code    24  QtGallery.in(i._ZN8QVariantC1Ev)
    QVariant::QVariant__sub_object()         0x00015ddf   Thumb Code     0  QtGallery.in(i._ZN8QVariantC1Ev)
    QHashData::willGrow()                    0x00015df7   Thumb Code    28  QtGallery.in(i._ZN9QHashData8willGrowEv)
    QtMobility::QGalleryType::name() const   0x00015e13   Thumb Code    10  QtGallery.in(i._ZNK10QtMobility12QGalleryType4nameEv)
    QtMobility::QGalleryProperty::name() const 0x00015e1d   Thumb Code    10  QtGallery.in(i._ZNK10QtMobility16QGalleryProperty4nameEv)
    QtMobility::QGalleryNullResultSet::propertyKey(const QString&) const 0x00015e27   Thumb Code     6  QtGallery.in(i._ZNK10QtMobility21QGalleryNullResultSet11propertyKeyERK7QString)
    QtMobility::QGalleryNullResultSet::currentIndex() const 0x00015e2d   Thumb Code     6  QtGallery.in(i._ZNK10QtMobility21QGalleryNullResultSet12currentIndexEv)
    QtMobility::QGalleryNullResultSet::propertyType(int) const 0x00015e33   Thumb Code     4  QtGallery.in(i._ZNK10QtMobility21QGalleryNullResultSet12propertyTypeEi)
    QtMobility::QGalleryNullResultSet::propertyAttributes(int) const 0x00015e37   Thumb Code     6  QtGallery.in(i._ZNK10QtMobility21QGalleryNullResultSet18propertyAttributesEi)
    QtMobility::QGalleryNullResultSet::itemId() const 0x00015e3d   Thumb Code     8  QtGallery.in(i._ZNK10QtMobility21QGalleryNullResultSet6itemIdEv)
    QtMobility::QGalleryNullResultSet::itemUrl() const 0x00015e45   Thumb Code     8  QtGallery.in(i._ZNK10QtMobility21QGalleryNullResultSet7itemUrlEv)
    QtMobility::QGalleryNullResultSet::itemType() const 0x00015e4d   Thumb Code     8  QtGallery.in(i._ZNK10QtMobility21QGalleryNullResultSet8itemTypeEv)
    QtMobility::QGalleryNullResultSet::metaData(int) const 0x00015e55   Thumb Code     8  QtGallery.in(i._ZNK10QtMobility21QGalleryNullResultSet8metaDataEi)
    QtMobility::QGalleryNullResultSet::itemCount() const 0x00015e5d   Thumb Code     4  QtGallery.in(i._ZNK10QtMobility21QGalleryNullResultSet9itemCountEv)
    QtMobility::QGalleryNullResultSet::resources() const 0x00015e61   Thumb Code    14  QtGallery.in(i._ZNK10QtMobility21QGalleryNullResultSet9resourcesEv)
    QtMobility::QGalleryUnionFilterPrivate::printDebug(QDebug&) const 0x00015e75   Thumb Code   160  QtGallery.in(i._ZNK10QtMobility26QGalleryUnionFilterPrivate10printDebugER6QDebug)
    QtMobility::QGalleryUnionFilterPrivate::isEqual(const QtMobility::QGalleryFilterPrivate&) const 0x00015f45   Thumb Code    36  QtGallery.in(i._ZNK10QtMobility26QGalleryUnionFilterPrivate7isEqualERKNS_21QGalleryFilterPrivateE)
    QtMobility::QGalleryInvalidFilterPrivate::printDebug(QDebug&) const 0x00015f69   Thumb Code    12  QtGallery.in(i._ZNK10QtMobility28QGalleryInvalidFilterPrivate10printDebugER6QDebug)
    QtMobility::QGalleryInvalidFilterPrivate::isEqual(const QtMobility::QGalleryFilterPrivate&) const 0x00015f89   Thumb Code    16  QtGallery.in(i._ZNK10QtMobility28QGalleryInvalidFilterPrivate7isEqualERKNS_21QGalleryFilterPrivateE)
    QtMobility::QGalleryMetaDataFilterPrivate::printDebug(QDebug&) const 0x00015f99   Thumb Code   166  QtGallery.in(i._ZNK10QtMobility29QGalleryMetaDataFilterPrivate10printDebugER6QDebug)
    QtMobility::QGalleryMetaDataFilterPrivate::isEqual(const QtMobility::QGalleryFilterPrivate&) const 0x0001609f   Thumb Code    70  QtGallery.in(i._ZNK10QtMobility29QGalleryMetaDataFilterPrivate7isEqualERKNS_21QGalleryFilterPrivateE)
    QtMobility::QGalleryIntersectionFilterPrivate::printDebug(QDebug&) const 0x000160e5   Thumb Code   160  QtGallery.in(i._ZNK10QtMobility33QGalleryIntersectionFilterPrivate10printDebugER6QDebug)
    QtMobility::QGalleryIntersectionFilterPrivate::isEqual(const QtMobility::QGalleryFilterPrivate&) const 0x000161b9   Thumb Code    36  QtGallery.in(i._ZNK10QtMobility33QGalleryIntersectionFilterPrivate7isEqualERKNS_21QGalleryFilterPrivateE)
    QModelIndex::isValid() const             0x000161dd   Thumb Code    26  QtGallery.in(i._ZNK11QModelIndex7isValidEv)
    QBasicAtomicInt::operator ==(int) const  0x000161f7   Thumb Code    14  QtGallery.in(i._ZNK15QBasicAtomicInteqEi)
    QBasicAtomicInt::operator !=(int) const  0x00016205   Thumb Code    14  QtGallery.in(i._ZNK15QBasicAtomicIntneEi)
    QAbstractItemModel::createIndex(int, int, void*) const 0x00016213   Thumb Code    10  QtGallery.in(i._ZNK18QAbstractItemModel11createIndexEiiPv)
    QString::isNull() const                  0x0001621d   Thumb Code    16  QtGallery.in(i._ZNK7QString6isNullEv)
    QString::isEmpty() const                 0x00016231   Thumb Code    16  QtGallery.in(i._ZNK7QString7isEmptyEv)
    TDesC16::operator ==(const TDesC16&) const 0x00016241   Thumb Code    18  QtGallery.in(i._ZNK7TDesC16eqERKS_)
    TDesC16::operator !=(const TDesC16&) const 0x00016253   Thumb Code    18  QtGallery.in(i._ZNK7TDesC16neERKS_)
    QVariant::isDetached() const             0x00016265   Thumb Code    30  QtGallery.in(i._ZNK8QVariant10isDetachedEv)
    QListData::at(int) const                 0x00016283   Thumb Code    16  QtGallery.in(i._ZNK9QListData2atEi)
    QListData::end() const                   0x00016293   Thumb Code    12  QtGallery.in(i._ZNK9QListData3endEv)
    QListData::size() const                  0x0001629f   Thumb Code    10  QtGallery.in(i._ZNK9QListData4sizeEv)
    QListData::begin() const                 0x000162a9   Thumb Code    12  QtGallery.in(i._ZNK9QListData5beginEv)
    operator delete (void*, void*)           0x000162b5   Thumb Code     2  QtGallery.in(i._ZdlPvS_)
    operator new(unsigned, void*)            0x000162b7   Thumb Code     4  QtGallery.in(i._ZnwjPv)
    operator +(const QString&, QChar)        0x000162bb   Thumb Code   104  QtGallery.in(i._ZplRK7QString5QChar)
    qMapLessThanKey<int>(const T1&, const T1&) 0x0001632d   Thumb Code    16  QtGallery.in(t._Z15qMapLessThanKeyIiEbRKT_S2_)
    qVariantSetValue<QUrl>(QVariant&, const T1&) 0x0001633d   Thumb Code   104  QtGallery.in(t._Z16qVariantSetValueI4QUrlEvR8QVariantRKT_)
    qVariantSetValue<QString>(QVariant&, const T1&) 0x000163b9   Thumb Code   104  QtGallery.in(t._Z16qVariantSetValueI7QStringEvR8QVariantRKT_)
    qVariantSetValue<QDateTime>(QVariant&, const T1&) 0x00016435   Thumb Code   104  QtGallery.in(t._Z16qVariantSetValueI9QDateTimeEvR8QVariantRKT_)
    qMin<int>(const T1&, const T1&)          0x000164b1   Thumb Code    12  QtGallery.in(t._Z4qMinIiERKT_S2_S2_)
    QWeakPointer<QtMobility::QAbstractGallery>::QWeakPointer<QtMobility::QAbstractGallery>(T1*) 0x000164bd   Thumb Code    26  QtGallery.in(t._ZN12QWeakPointerIN10QtMobility16QAbstractGalleryEEC1IS1_EEPT_)
    QWeakPointer<QtMobility::QAbstractGallery>::QWeakPointer__sub_object<QtMobility::QAbstractGallery>(T1*) 0x000164bd   Thumb Code     0  QtGallery.in(t._ZN12QWeakPointerIN10QtMobility16QAbstractGalleryEEC1IS1_EEPT_)
    QWeakPointer<QtMobility::QAbstractGallery>::~QWeakPointer() 0x000164d7   Thumb Code    36  QtGallery.in(t._ZN12QWeakPointerIN10QtMobility16QAbstractGalleryEED1Ev)
    QWeakPointer<QtMobility::QAbstractGallery>::~QWeakPointer__sub_object() 0x000164d7   Thumb Code     0  QtGallery.in(t._ZN12QWeakPointerIN10QtMobility16QAbstractGalleryEED1Ev)
    RPointerArray<CMdEObject>::ResetAndDestroy() 0x000164fb   Thumb Code    48  QtGallery.in(t._ZN13RPointerArrayI10CMdEObjectE15ResetAndDestroyEv)
    RPointerArray<CMdEObject>::operator [](int) 0x0001652b   Thumb Code     8  QtGallery.in(t._ZN13RPointerArrayI10CMdEObjectEixEi)
    QScopedPointer<CMdEObjectQuery, QScopedPointerDeleter<CMdEObjectQuery>>::reset(CMdEObjectQuery*) 0x00016533   Thumb Code    24  QtGallery.in(t._ZN14QScopedPointerI15CMdEObjectQuery21QScopedPointerDeleterIS0_EE5resetEPS0_)
    QScopedPointer<CMdEObjectQuery, QScopedPointerDeleter<CMdEObjectQuery>>::~QScopedPointer() 0x0001654b   Thumb Code    24  QtGallery.in(t._ZN14QScopedPointerI15CMdEObjectQuery21QScopedPointerDeleterIS0_EED1Ev)
    QScopedPointer<CMdEObjectQuery, QScopedPointerDeleter<CMdEObjectQuery>>::~QScopedPointer__sub_object() 0x0001654b   Thumb Code     0  QtGallery.in(t._ZN14QScopedPointerI15CMdEObjectQuery21QScopedPointerDeleterIS0_EED1Ev)
    QScopedPointer<QtMobility::QAbstractGalleryPrivate, QScopedPointerDeleter<QtMobility::QAbstractGalleryPrivate>>::~QScopedPointer() 0x00016563   Thumb Code    24  QtGallery.in(t._ZN14QScopedPointerIN10QtMobility23QAbstractGalleryPrivateE21QScopedPointerDeleterIS1_EED1Ev)
    QScopedPointer<QtMobility::QAbstractGalleryPrivate, QScopedPointerDeleter<QtMobility::QAbstractGalleryPrivate>>::~QScopedPointer__sub_object() 0x00016563   Thumb Code     0  QtGallery.in(t._ZN14QScopedPointerIN10QtMobility23QAbstractGalleryPrivateE21QScopedPointerDeleterIS1_EED1Ev)
    QScopedPointer<QtMobility::QGalleryAbstractResponse, QScopedPointerDeleter<QtMobility::QGalleryAbstractResponse>>::reset(QtMobility::QGalleryAbstractResponse*) 0x0001657b   Thumb Code    24  QtGallery.in(t._ZN14QScopedPointerIN10QtMobility24QGalleryAbstractResponseE21QScopedPointerDeleterIS1_EE5resetEPS1_)
    QScopedPointer<QtMobility::QGalleryAbstractResponse, QScopedPointerDeleter<QtMobility::QGalleryAbstractResponse>>::~QScopedPointer() 0x00016593   Thumb Code    24  QtGallery.in(t._ZN14QScopedPointerIN10QtMobility24QGalleryAbstractResponseE21QScopedPointerDeleterIS1_EED1Ev)
    QScopedPointer<QtMobility::QGalleryAbstractResponse, QScopedPointerDeleter<QtMobility::QGalleryAbstractResponse>>::~QScopedPointer__sub_object() 0x00016593   Thumb Code     0  QtGallery.in(t._ZN14QScopedPointerIN10QtMobility24QGalleryAbstractResponseE21QScopedPointerDeleterIS1_EED1Ev)
    QScopedPointer<QtMobility::QGalleryQueryModelPrivate, QScopedPointerDeleter<QtMobility::QGalleryQueryModelPrivate>>::~QScopedPointer() 0x000165ab   Thumb Code    86  QtGallery.in(t._ZN14QScopedPointerIN10QtMobility25QGalleryQueryModelPrivateE21QScopedPointerDeleterIS1_EED1Ev)
    QScopedPointer<QtMobility::QGalleryQueryModelPrivate, QScopedPointerDeleter<QtMobility::QGalleryQueryModelPrivate>>::~QScopedPointer__sub_object() 0x000165ab   Thumb Code     0  QtGallery.in(t._ZN14QScopedPointerIN10QtMobility25QGalleryQueryModelPrivateE21QScopedPointerDeleterIS1_EED1Ev)
    QScopedPointer<QtMobility::QGalleryAbstractRequestPrivate, QScopedPointerDeleter<QtMobility::QGalleryAbstractRequestPrivate>>::~QScopedPointer() 0x0001663d   Thumb Code    24  QtGallery.in(t._ZN14QScopedPointerIN10QtMobility30QGalleryAbstractRequestPrivateE21QScopedPointerDeleterIS1_EED1Ev)
    QScopedPointer<QtMobility::QGalleryAbstractRequestPrivate, QScopedPointerDeleter<QtMobility::QGalleryAbstractRequestPrivate>>::~QScopedPointer__sub_object() 0x0001663d   Thumb Code     0  QtGallery.in(t._ZN14QScopedPointerIN10QtMobility30QGalleryAbstractRequestPrivateE21QScopedPointerDeleterIS1_EED1Ev)
    QScopedPointer<QtMobility::QGalleryAbstractResponsePrivate, QScopedPointerDeleter<QtMobility::QGalleryAbstractResponsePrivate>>::~QScopedPointer() 0x00016655   Thumb Code    24  QtGallery.in(t._ZN14QScopedPointerIN10QtMobility31QGalleryAbstractResponsePrivateE21QScopedPointerDeleterIS1_EED1Ev)
    QScopedPointer<QtMobility::QGalleryAbstractResponsePrivate, QScopedPointerDeleter<QtMobility::QGalleryAbstractResponsePrivate>>::~QScopedPointer__sub_object() 0x00016655   Thumb Code     0  QtGallery.in(t._ZN14QScopedPointerIN10QtMobility31QGalleryAbstractResponsePrivateE21QScopedPointerDeleterIS1_EED1Ev)
    QSharedDataPointer<QtMobility::QGalleryFilterPrivate>::QSharedDataPointer(QtMobility::QGalleryFilterPrivate*) 0x0001666d   Thumb Code    20  QtGallery.in(t._ZN18QSharedDataPointerIN10QtMobility21QGalleryFilterPrivateEEC1EPS1_)
    QSharedDataPointer<QtMobility::QGalleryFilterPrivate>::QSharedDataPointer__sub_object(QtMobility::QGalleryFilterPrivate*) 0x0001666d   Thumb Code     0  QtGallery.in(t._ZN18QSharedDataPointerIN10QtMobility21QGalleryFilterPrivateEEC1EPS1_)
    QSharedDataPointer<QtMobility::QGalleryFilterPrivate>::~QSharedDataPointer() 0x00016681   Thumb Code    36  QtGallery.in(t._ZN18QSharedDataPointerIN10QtMobility21QGalleryFilterPrivateEED1Ev)
    QSharedDataPointer<QtMobility::QGalleryFilterPrivate>::~QSharedDataPointer__sub_object() 0x00016681   Thumb Code     0  QtGallery.in(t._ZN18QSharedDataPointerIN10QtMobility21QGalleryFilterPrivateEED1Ev)
    QSharedDataPointer<QtMobility::QGalleryUnionFilterPrivate>::detach_helper() 0x000166a5   Thumb Code    84  QtGallery.in(t._ZN18QSharedDataPointerIN10QtMobility26QGalleryUnionFilterPrivateEE13detach_helperEv)
    QSharedDataPointer<QtMobility::QGalleryUnionFilterPrivate>::QSharedDataPointer(QtMobility::QGalleryUnionFilterPrivate*) 0x0001670f   Thumb Code    20  QtGallery.in(t._ZN18QSharedDataPointerIN10QtMobility26QGalleryUnionFilterPrivateEEC1EPS1_)
    QSharedDataPointer<QtMobility::QGalleryUnionFilterPrivate>::QSharedDataPointer__sub_object(QtMobility::QGalleryUnionFilterPrivate*) 0x0001670f   Thumb Code     0  QtGallery.in(t._ZN18QSharedDataPointerIN10QtMobility26QGalleryUnionFilterPrivateEEC1EPS1_)
    QSharedDataPointer<QtMobility::QGalleryUnionFilterPrivate>::~QSharedDataPointer() 0x00016723   Thumb Code    36  QtGallery.in(t._ZN18QSharedDataPointerIN10QtMobility26QGalleryUnionFilterPrivateEED1Ev)
    QSharedDataPointer<QtMobility::QGalleryUnionFilterPrivate>::~QSharedDataPointer__sub_object() 0x00016723   Thumb Code     0  QtGallery.in(t._ZN18QSharedDataPointerIN10QtMobility26QGalleryUnionFilterPrivateEED1Ev)
    QSharedDataPointer<QtMobility::QGalleryUnionFilterPrivate>::operator ->() 0x00016747   Thumb Code    32  QtGallery.in(t._ZN18QSharedDataPointerIN10QtMobility26QGalleryUnionFilterPrivateEEptEv)
    QSharedDataPointer<QtMobility::QGalleryMetaDataFilterPrivate>::detach_helper() 0x00016769   Thumb Code   108  QtGallery.in(t._ZN18QSharedDataPointerIN10QtMobility29QGalleryMetaDataFilterPrivateEE13detach_helperEv)
    QSharedDataPointer<QtMobility::QGalleryMetaDataFilterPrivate>::QSharedDataPointer(QtMobility::QGalleryMetaDataFilterPrivate*) 0x000167f7   Thumb Code    20  QtGallery.in(t._ZN18QSharedDataPointerIN10QtMobility29QGalleryMetaDataFilterPrivateEEC1EPS1_)
    QSharedDataPointer<QtMobility::QGalleryMetaDataFilterPrivate>::QSharedDataPointer__sub_object(QtMobility::QGalleryMetaDataFilterPrivate*) 0x000167f7   Thumb Code     0  QtGallery.in(t._ZN18QSharedDataPointerIN10QtMobility29QGalleryMetaDataFilterPrivateEEC1EPS1_)
    QSharedDataPointer<QtMobility::QGalleryMetaDataFilterPrivate>::~QSharedDataPointer() 0x0001680b   Thumb Code    36  QtGallery.in(t._ZN18QSharedDataPointerIN10QtMobility29QGalleryMetaDataFilterPrivateEED1Ev)
    QSharedDataPointer<QtMobility::QGalleryMetaDataFilterPrivate>::~QSharedDataPointer__sub_object() 0x0001680b   Thumb Code     0  QtGallery.in(t._ZN18QSharedDataPointerIN10QtMobility29QGalleryMetaDataFilterPrivateEED1Ev)
    QSharedDataPointer<QtMobility::QGalleryMetaDataFilterPrivate>::operator ->() 0x0001682f   Thumb Code    32  QtGallery.in(t._ZN18QSharedDataPointerIN10QtMobility29QGalleryMetaDataFilterPrivateEEptEv)
    QSharedDataPointer<QtMobility::QGalleryIntersectionFilterPrivate>::detach_helper() 0x00016851   Thumb Code    84  QtGallery.in(t._ZN18QSharedDataPointerIN10QtMobility33QGalleryIntersectionFilterPrivateEE13detach_helperEv)
    QSharedDataPointer<QtMobility::QGalleryIntersectionFilterPrivate>::QSharedDataPointer(QtMobility::QGalleryIntersectionFilterPrivate*) 0x000168bb   Thumb Code    20  QtGallery.in(t._ZN18QSharedDataPointerIN10QtMobility33QGalleryIntersectionFilterPrivateEEC1EPS1_)
    QSharedDataPointer<QtMobility::QGalleryIntersectionFilterPrivate>::QSharedDataPointer__sub_object(QtMobility::QGalleryIntersectionFilterPrivate*) 0x000168bb   Thumb Code     0  QtGallery.in(t._ZN18QSharedDataPointerIN10QtMobility33QGalleryIntersectionFilterPrivateEEC1EPS1_)
    QSharedDataPointer<QtMobility::QGalleryIntersectionFilterPrivate>::~QSharedDataPointer() 0x000168cf   Thumb Code    36  QtGallery.in(t._ZN18QSharedDataPointerIN10QtMobility33QGalleryIntersectionFilterPrivateEED1Ev)
    QSharedDataPointer<QtMobility::QGalleryIntersectionFilterPrivate>::~QSharedDataPointer__sub_object() 0x000168cf   Thumb Code     0  QtGallery.in(t._ZN18QSharedDataPointerIN10QtMobility33QGalleryIntersectionFilterPrivateEED1Ev)
    QSharedDataPointer<QtMobility::QGalleryIntersectionFilterPrivate>::operator ->() 0x000168f3   Thumb Code    32  QtGallery.in(t._ZN18QSharedDataPointerIN10QtMobility33QGalleryIntersectionFilterPrivateEEptEv)
    QMap<int, QVariant>::node_create(QMapData*, QMapData::Node**, const int&, const QVariant&) 0x00016913   Thumb Code   100  QtGallery.in(t._ZN4QMapIi8QVariantE11node_createEP8QMapDataPPNS2_4NodeERKiRKS0_)
    QMap<int, QVariant>::detach_helper()     0x00016993   Thumb Code   116  QtGallery.in(t._ZN4QMapIi8QVariantE13detach_helperEv)
    QMap<int, QVariant>::detach()            0x00016a0f   Thumb Code    26  QtGallery.in(t._ZN4QMapIi8QVariantE6detachEv)
    QMap<int, QVariant>::insert(const int&, const QVariant&) 0x00016a29   Thumb Code   130  QtGallery.in(t._ZN4QMapIi8QVariantE6insertERKiRKS0_)
    QMap<int, QVariant>::freeData(QMapData*) 0x00016aab   Thumb Code    32  QtGallery.in(t._ZN4QMapIi8QVariantE8freeDataEP8QMapData)
    QMap<int, QVariant>::QMap(const QMap<int, QVariant>&) 0x00016acb   Thumb Code    38  QtGallery.in(t._ZN4QMapIi8QVariantEC1ERKS1_)
    QMap<int, QVariant>::QMap__sub_object(const QMap<int, QVariant>&) 0x00016acb   Thumb Code     0  QtGallery.in(t._ZN4QMapIi8QVariantEC1ERKS1_)
    QMap<int, QVariant>::QMap()              0x00016af1   Thumb Code    18  QtGallery.in(t._ZN4QMapIi8QVariantEC1Ev)
    QMap<int, QVariant>::QMap__sub_object()  0x00016af1   Thumb Code     0  QtGallery.in(t._ZN4QMapIi8QVariantEC1Ev)
    QMap<int, QVariant>::~QMap()             0x00016b09   Thumb Code    32  QtGallery.in(t._ZN4QMapIi8QVariantED1Ev)
    QMap<int, QVariant>::~QMap__sub_object() 0x00016b09   Thumb Code     0  QtGallery.in(t._ZN4QMapIi8QVariantED1Ev)
    TBuf<(int)256>::TBuf(const TDesC16&)     0x00016b29   Thumb Code    12  QtGallery.in(t._ZN4TBufILi256EEC1ERK7TDesC16)
    TBuf<(int)256>::TBuf__sub_object(const TDesC16&) 0x00016b29   Thumb Code     0  QtGallery.in(t._ZN4TBufILi256EEC1ERK7TDesC16)
    QHash<int, QString>::deleteNode2(QHashData::Node*) 0x00016b35   Thumb Code    10  QtGallery.in(t._ZN5QHashIi7QStringE11deleteNode2EPN9QHashData4NodeE)
    QHash<int, QString>::detach_helper()     0x00016b41   Thumb Code    46  QtGallery.in(t._ZN5QHashIi7QStringE13detach_helperEv)
    QHash<int, QString>::duplicateNode(QHashData::Node*, void*) 0x00016b79   Thumb Code    30  QtGallery.in(t._ZN5QHashIi7QStringE13duplicateNodeEPN9QHashData4NodeEPv)
    QHash<int, QString>::detach()            0x00016ba3   Thumb Code    26  QtGallery.in(t._ZN5QHashIi7QStringE6detachEv)
    QHash<int, QString>::insert(const int&, const QString&) 0x00016bbd   Thumb Code   124  QtGallery.in(t._ZN5QHashIi7QStringE6insertERKiRKS0_)
    QHash<int, QString>::freeData(QHashData*) 0x00016c45   Thumb Code    12  QtGallery.in(t._ZN5QHashIi7QStringE8freeDataEP9QHashData)
    QHash<int, QString>::QHash(const QHash<int, QString>&) 0x00016c55   Thumb Code    32  QtGallery.in(t._ZN5QHashIi7QStringEC1ERKS1_)
    QHash<int, QString>::QHash__sub_object(const QHash<int, QString>&) 0x00016c55   Thumb Code     0  QtGallery.in(t._ZN5QHashIi7QStringEC1ERKS1_)
    QHash<int, QString>::QHash()             0x00016c75   Thumb Code    18  QtGallery.in(t._ZN5QHashIi7QStringEC1Ev)
    QHash<int, QString>::QHash__sub_object() 0x00016c75   Thumb Code     0  QtGallery.in(t._ZN5QHashIi7QStringEC1Ev)
    QHash<int, QString>::~QHash()            0x00016c8d   Thumb Code    28  QtGallery.in(t._ZN5QHashIi7QStringED1Ev)
    QHash<int, QString>::~QHash__sub_object() 0x00016c8d   Thumb Code     0  QtGallery.in(t._ZN5QHashIi7QStringED1Ev)
    QHash<int, QString>::operator =(const QHash<int, QString>&) 0x00016ca9   Thumb Code    58  QtGallery.in(t._ZN5QHashIi7QStringEaSERKS1_)
    QHash<int, QVariant>::deleteNode2(QHashData::Node*) 0x00016ce3   Thumb Code    10  QtGallery.in(t._ZN5QHashIi8QVariantE11deleteNode2EPN9QHashData4NodeE)
    QHash<int, QVariant>::detach_helper()    0x00016ced   Thumb Code    46  QtGallery.in(t._ZN5QHashIi8QVariantE13detach_helperEv)
    QHash<int, QVariant>::duplicateNode(QHashData::Node*, void*) 0x00016d25   Thumb Code    30  QtGallery.in(t._ZN5QHashIi8QVariantE13duplicateNodeEPN9QHashData4NodeEPv)
    QHash<int, QVariant>::detach()           0x00016d4f   Thumb Code    26  QtGallery.in(t._ZN5QHashIi8QVariantE6detachEv)
    QHash<int, QVariant>::insert(const int&, const QVariant&) 0x00016d69   Thumb Code   124  QtGallery.in(t._ZN5QHashIi8QVariantE6insertERKiRKS0_)
    QHash<int, QVariant>::freeData(QHashData*) 0x00016df1   Thumb Code    12  QtGallery.in(t._ZN5QHashIi8QVariantE8freeDataEP9QHashData)
    QHash<int, QVariant>::QHash(const QHash<int, QVariant>&) 0x00016e01   Thumb Code    32  QtGallery.in(t._ZN5QHashIi8QVariantEC1ERKS1_)
    QHash<int, QVariant>::QHash__sub_object(const QHash<int, QVariant>&) 0x00016e01   Thumb Code     0  QtGallery.in(t._ZN5QHashIi8QVariantEC1ERKS1_)
    QHash<int, QVariant>::QHash()            0x00016e21   Thumb Code    18  QtGallery.in(t._ZN5QHashIi8QVariantEC1Ev)
    QHash<int, QVariant>::QHash__sub_object() 0x00016e21   Thumb Code     0  QtGallery.in(t._ZN5QHashIi8QVariantEC1Ev)
    QHash<int, QVariant>::~QHash()           0x00016e39   Thumb Code    28  QtGallery.in(t._ZN5QHashIi8QVariantED1Ev)
    QHash<int, QVariant>::~QHash__sub_object() 0x00016e39   Thumb Code     0  QtGallery.in(t._ZN5QHashIi8QVariantED1Ev)
    QHash<int, QVariant>::operator =(const QHash<int, QVariant>&) 0x00016e55   Thumb Code    58  QtGallery.in(t._ZN5QHashIi8QVariantEaSERKS1_)
    QList<QString>::detach_helper(int)       0x00016e8f   Thumb Code    86  QtGallery.in(t._ZN5QListI7QStringE13detach_helperEi)
    QList<QString>::detach_helper()          0x00016eed   Thumb Code    12  QtGallery.in(t._ZN5QListI7QStringE13detach_helperEv)
    QList<QString>::node_construct(QList<QString>::Node*, const QString&) 0x00016ef9   Thumb Code    26  QtGallery.in(t._ZN5QListI7QStringE14node_constructEPNS1_4NodeERKS0_)
    QList<QString>::detach_helper_grow(int, int) 0x00016f1f   Thumb Code   186  QtGallery.in(t._ZN5QListI7QStringE18detach_helper_growEii)
    QList<QString>::free(QListData::Data*)   0x00016fe1   Thumb Code    48  QtGallery.in(t._ZN5QListI7QStringE4freeEPN9QListData4DataE)
    QList<QString>::append(const QString&)   0x00017011   Thumb Code    94  QtGallery.in(t._ZN5QListI7QStringE6appendERKS0_)
    QList<QString>::node_copy(QList<QString>::Node*, QList<QString>::Node*, QList<QString>::Node*) 0x0001707d   Thumb Code    70  QtGallery.in(t._ZN5QListI7QStringE9node_copyEPNS1_4NodeES3_S3_)
    QList<QString>::QList()                  0x000170d9   Thumb Code    16  QtGallery.in(t._ZN5QListI7QStringEC1Ev)
    QList<QString>::QList__sub_object()      0x000170d9   Thumb Code     0  QtGallery.in(t._ZN5QListI7QStringEC1Ev)
    QList<QString>::~QList()                 0x000170ed   Thumb Code    30  QtGallery.in(t._ZN5QListI7QStringED1Ev)
    QList<QString>::~QList__sub_object()     0x000170ed   Thumb Code     0  QtGallery.in(t._ZN5QListI7QStringED1Ev)
    QList<QString>::operator =(const QList<QString>&) 0x0001710b   Thumb Code    56  QtGallery.in(t._ZN5QListI7QStringEaSERKS1_)
    QList<QString>::operator +=(const QList<QString>&) 0x00017145   Thumb Code   132  QtGallery.in(t._ZN5QListI7QStringEpLERKS1_)
    QList<QtMobility::QGalleryFilter>::detach_helper(int) 0x000171d5   Thumb Code    86  QtGallery.in(t._ZN5QListIN10QtMobility14QGalleryFilterEE13detach_helperEi)
    QList<QtMobility::QGalleryFilter>::detach_helper() 0x00017233   Thumb Code    12  QtGallery.in(t._ZN5QListIN10QtMobility14QGalleryFilterEE13detach_helperEv)
    QList<QtMobility::QGalleryFilter>::node_destruct(QList<QtMobility::QGalleryFilter>::Node*) 0x0001723f   Thumb Code    18  QtGallery.in(t._ZN5QListIN10QtMobility14QGalleryFilterEE13node_destructEPNS2_4NodeE)
    QList<QtMobility::QGalleryFilter>::node_destruct(QList<QtMobility::QGalleryFilter>::Node*, QList<QtMobility::QGalleryFilter>::Node*) 0x00017251   Thumb Code    30  QtGallery.in(t._ZN5QListIN10QtMobility14QGalleryFilterEE13node_destructEPNS2_4NodeES4_)
    QList<QtMobility::QGalleryFilter>::node_construct(QList<QtMobility::QGalleryFilter>::Node*, const QtMobility::QGalleryFilter&) 0x0001726f   Thumb Code    32  QtGallery.in(t._ZN5QListIN10QtMobility14QGalleryFilterEE14node_constructEPNS2_4NodeERKS1_)
    QList<QtMobility::QGalleryFilter>::detach_helper_grow(int, int) 0x00017299   Thumb Code   180  QtGallery.in(t._ZN5QListIN10QtMobility14QGalleryFilterEE18detach_helper_growEii)
    QList<QtMobility::QGalleryFilter>::free(QListData::Data*) 0x00017355   Thumb Code    38  QtGallery.in(t._ZN5QListIN10QtMobility14QGalleryFilterEE4freeEPN9QListData4DataE)
    QList<QtMobility::QGalleryFilter>::clear() 0x0001737b   Thumb Code    26  QtGallery.in(t._ZN5QListIN10QtMobility14QGalleryFilterEE5clearEv)
    QList<QtMobility::QGalleryFilter>::append(const QtMobility::QGalleryFilter&) 0x000173a1   Thumb Code    90  QtGallery.in(t._ZN5QListIN10QtMobility14QGalleryFilterEE6appendERKS1_)
    QList<QtMobility::QGalleryFilter>::detach() 0x00017409   Thumb Code    24  QtGallery.in(t._ZN5QListIN10QtMobility14QGalleryFilterEE6detachEv)
    QList<QtMobility::QGalleryFilter>::insert(int, const QtMobility::QGalleryFilter&) 0x00017421   Thumb Code    94  QtGallery.in(t._ZN5QListIN10QtMobility14QGalleryFilterEE6insertEiRKS1_)
    QList<QtMobility::QGalleryFilter>::prepend(const QtMobility::QGalleryFilter&) 0x00017487   Thumb Code    90  QtGallery.in(t._ZN5QListIN10QtMobility14QGalleryFilterEE7prependERKS1_)
    QList<QtMobility::QGalleryFilter>::replace(int, const QtMobility::QGalleryFilter&) 0x000174e9   Thumb Code    30  QtGallery.in(t._ZN5QListIN10QtMobility14QGalleryFilterEE7replaceEiRKS1_)
    QList<QtMobility::QGalleryFilter>::removeAt(int) 0x00017507   Thumb Code    50  QtGallery.in(t._ZN5QListIN10QtMobility14QGalleryFilterEE8removeAtEi)
    QList<QtMobility::QGalleryFilter>::node_copy(QList<QtMobility::QGalleryFilter>::Node*, QList<QtMobility::QGalleryFilter>::Node*, QList<QtMobility::QGalleryFilter>::Node*) 0x00017539   Thumb Code    80  QtGallery.in(t._ZN5QListIN10QtMobility14QGalleryFilterEE9node_copyEPNS2_4NodeES4_S4_)
    QList<QtMobility::QGalleryFilter>::QList(const QList<QtMobility::QGalleryFilter>&) 0x0001759b   Thumb Code    30  QtGallery.in(t._ZN5QListIN10QtMobility14QGalleryFilterEEC1ERKS2_)
    QList<QtMobility::QGalleryFilter>::QList__sub_object(const QList<QtMobility::QGalleryFilter>&) 0x0001759b   Thumb Code     0  QtGallery.in(t._ZN5QListIN10QtMobility14QGalleryFilterEEC1ERKS2_)
    QList<QtMobility::QGalleryFilter>::QList() 0x000175b9   Thumb Code    16  QtGallery.in(t._ZN5QListIN10QtMobility14QGalleryFilterEEC1Ev)
    QList<QtMobility::QGalleryFilter>::QList__sub_object() 0x000175b9   Thumb Code     0  QtGallery.in(t._ZN5QListIN10QtMobility14QGalleryFilterEEC1Ev)
    QList<QtMobility::QGalleryFilter>::~QList() 0x000175cd   Thumb Code    30  QtGallery.in(t._ZN5QListIN10QtMobility14QGalleryFilterEED1Ev)
    QList<QtMobility::QGalleryFilter>::~QList__sub_object() 0x000175cd   Thumb Code     0  QtGallery.in(t._ZN5QListIN10QtMobility14QGalleryFilterEED1Ev)
    QList<QtMobility::QGalleryFilter>::operator =(const QList<QtMobility::QGalleryFilter>&) 0x000175eb   Thumb Code    54  QtGallery.in(t._ZN5QListIN10QtMobility14QGalleryFilterEEaSERKS2_)
    QList<QtMobility::QGalleryFilter>::operator [](int) 0x00017621   Thumb Code    40  QtGallery.in(t._ZN5QListIN10QtMobility14QGalleryFilterEEixEi)
    QList<QtMobility::QGalleryFilter>::operator +=(const QList<QtMobility::QGalleryFilter>&) 0x00017649   Thumb Code   132  QtGallery.in(t._ZN5QListIN10QtMobility14QGalleryFilterEEpLERKS2_)
    QList<QtMobility::QGalleryResource>::detach_helper(int) 0x000176d9   Thumb Code   152  QtGallery.in(t._ZN5QListIN10QtMobility16QGalleryResourceEE13detach_helperEi)
    QList<QtMobility::QGalleryResource>::node_destruct(QList<QtMobility::QGalleryResource>::Node*, QList<QtMobility::QGalleryResource>::Node*) 0x00017783   Thumb Code    30  QtGallery.in(t._ZN5QListIN10QtMobility16QGalleryResourceEE13node_destructEPNS2_4NodeES4_)
    QList<QtMobility::QGalleryResource>::node_construct(QList<QtMobility::QGalleryResource>::Node*, const QtMobility::QGalleryResource&) 0x000177a1   Thumb Code    32  QtGallery.in(t._ZN5QListIN10QtMobility16QGalleryResourceEE14node_constructEPNS2_4NodeERKS1_)
    QList<QtMobility::QGalleryResource>::detach_helper_grow(int, int) 0x000177cb   Thumb Code   180  QtGallery.in(t._ZN5QListIN10QtMobility16QGalleryResourceEE18detach_helper_growEii)
    QList<QtMobility::QGalleryResource>::free(QListData::Data*) 0x00017887   Thumb Code    38  QtGallery.in(t._ZN5QListIN10QtMobility16QGalleryResourceEE4freeEPN9QListData4DataE)
    QList<QtMobility::QGalleryResource>::append(const QtMobility::QGalleryResource&) 0x000178ad   Thumb Code    86  QtGallery.in(t._ZN5QListIN10QtMobility16QGalleryResourceEE6appendERKS1_)
    QList<QtMobility::QGalleryResource>::node_copy(QList<QtMobility::QGalleryResource>::Node*, QList<QtMobility::QGalleryResource>::Node*, QList<QtMobility::QGalleryResource>::Node*) 0x00017911   Thumb Code    80  QtGallery.in(t._ZN5QListIN10QtMobility16QGalleryResourceEE9node_copyEPNS2_4NodeES4_S4_)
    QList<QtMobility::QGalleryResource>::~QList() 0x00017973   Thumb Code    30  QtGallery.in(t._ZN5QListIN10QtMobility16QGalleryResourceEED1Ev)
    QList<QtMobility::QGalleryResource>::~QList__sub_object() 0x00017973   Thumb Code     0  QtGallery.in(t._ZN5QListIN10QtMobility16QGalleryResourceEED1Ev)
    QList<int>::detach_helper()              0x00017991   Thumb Code    88  QtGallery.in(t._ZN5QListIiE13detach_helperEv)
    QList<int>::detach_helper_grow(int, int) 0x000179f1   Thumb Code   164  QtGallery.in(t._ZN5QListIiE18detach_helper_growEii)
    QList<int>::free(QListData::Data*)       0x00017a9d   Thumb Code    16  QtGallery.in(t._ZN5QListIiE4freeEPN9QListData4DataE)
    QList<int>::node_copy(QList<int>::Node*, QList<int>::Node*, QList<int>::Node*) 0x00017aad   Thumb Code    28  QtGallery.in(t._ZN5QListIiE9node_copyEPNS0_4NodeES2_S2_)
    QList<int>::QList()                      0x00017ac9   Thumb Code    16  QtGallery.in(t._ZN5QListIiEC1Ev)
    QList<int>::QList__sub_object()          0x00017ac9   Thumb Code     0  QtGallery.in(t._ZN5QListIiEC1Ev)
    QList<int>::~QList()                     0x00017add   Thumb Code    30  QtGallery.in(t._ZN5QListIiED1Ev)
    QList<int>::~QList__sub_object()         0x00017add   Thumb Code     0  QtGallery.in(t._ZN5QListIiED1Ev)
    RArray<unsigned long>::RArray()          0x00017afb   Thumb Code    10  QtGallery.in(t._ZN6RArrayImEC1Ev)
    RArray<unsigned long>::RArray__sub_object() 0x00017afb   Thumb Code     0  QtGallery.in(t._ZN6RArrayImEC1Ev)
    QVector<QHash<int, QString>>::free(QVectorTypedData<QHash<int, QString>>*) 0x00017b05   Thumb Code    40  QtGallery.in(t._ZN7QVectorI5QHashIi7QStringEE4freeEP16QVectorTypedDataIS2_E)
    QVector<QHash<int, QString>>::erase(QHash<int, QString>*, QHash<int, QString>*) 0x00017b2d   Thumb Code   122  QtGallery.in(t._ZN7QVectorI5QHashIi7QStringEE5eraseEPS2_S4_)
    QVector<QHash<int, QString>>::append(const QHash<int, QString>&) 0x00017ba7   Thumb Code   140  QtGallery.in(t._ZN7QVectorI5QHashIi7QStringEE6appendERKS2_)
    QVector<QHash<int, QString>>::detach()   0x00017c4f   Thumb Code    30  QtGallery.in(t._ZN7QVectorI5QHashIi7QStringEE6detachEv)
    QVector<QHash<int, QString>>::insert(QHash<int, QString>*, int, const QHash<int, QString>&) 0x00017c6d   Thumb Code   228  QtGallery.in(t._ZN7QVectorI5QHashIi7QStringEE6insertEPS2_iRKS2_)
    QVector<QHash<int, QString>>::realloc(int, int) 0x00017d63   Thumb Code   306  QtGallery.in(t._ZN7QVectorI5QHashIi7QStringEE7reallocEii)
    QVector<QHash<int, QString>>::~QVector() 0x00017eb3   Thumb Code    30  QtGallery.in(t._ZN7QVectorI5QHashIi7QStringEED1Ev)
    QVector<QHash<int, QString>>::~QVector__sub_object() 0x00017eb3   Thumb Code     0  QtGallery.in(t._ZN7QVectorI5QHashIi7QStringEED1Ev)
    QVector<QHash<int, QVariant>>::free(QVectorTypedData<QHash<int, QVariant>>*) 0x00017ed1   Thumb Code    40  QtGallery.in(t._ZN7QVectorI5QHashIi8QVariantEE4freeEP16QVectorTypedDataIS2_E)
    QVector<QHash<int, QVariant>>::erase(QHash<int, QVariant>*, QHash<int, QVariant>*) 0x00017ef9   Thumb Code   122  QtGallery.in(t._ZN7QVectorI5QHashIi8QVariantEE5eraseEPS2_S4_)
    QVector<QHash<int, QVariant>>::append(const QHash<int, QVariant>&) 0x00017f73   Thumb Code   140  QtGallery.in(t._ZN7QVectorI5QHashIi8QVariantEE6appendERKS2_)
    QVector<QHash<int, QVariant>>::detach()  0x0001801b   Thumb Code    30  QtGallery.in(t._ZN7QVectorI5QHashIi8QVariantEE6detachEv)
    QVector<QHash<int, QVariant>>::insert(QHash<int, QVariant>*, int, const QHash<int, QVariant>&) 0x00018039   Thumb Code   228  QtGallery.in(t._ZN7QVectorI5QHashIi8QVariantEE6insertEPS2_iRKS2_)
    QVector<QHash<int, QVariant>>::realloc(int, int) 0x0001812f   Thumb Code   306  QtGallery.in(t._ZN7QVectorI5QHashIi8QVariantEE7reallocEii)
    QVector<QHash<int, QVariant>>::~QVector() 0x0001827f   Thumb Code    30  QtGallery.in(t._ZN7QVectorI5QHashIi8QVariantEED1Ev)
    QVector<QHash<int, QVariant>>::~QVector__sub_object() 0x0001827f   Thumb Code     0  QtGallery.in(t._ZN7QVectorI5QHashIi8QVariantEED1Ev)
    QVector<QFlags<Qt::ItemFlag>>::free(QVectorTypedData<QFlags<Qt::ItemFlag>>*) 0x0001829d   Thumb Code    30  QtGallery.in(t._ZN7QVectorI6QFlagsIN2Qt8ItemFlagEEE4freeEP16QVectorTypedDataIS3_E)
    QVector<QFlags<Qt::ItemFlag>>::erase(QFlags<Qt::ItemFlag>*, QFlags<Qt::ItemFlag>*) 0x000182bb   Thumb Code   104  QtGallery.in(t._ZN7QVectorI6QFlagsIN2Qt8ItemFlagEEE5eraseEPS3_S5_)
    QVector<QFlags<Qt::ItemFlag>>::append(const QFlags<Qt::ItemFlag>&) 0x00018323   Thumb Code   114  QtGallery.in(t._ZN7QVectorI6QFlagsIN2Qt8ItemFlagEEE6appendERKS3_)
    QVector<QFlags<Qt::ItemFlag>>::detach()  0x00018395   Thumb Code    30  QtGallery.in(t._ZN7QVectorI6QFlagsIN2Qt8ItemFlagEEE6detachEv)
    QVector<QFlags<Qt::ItemFlag>>::insert(QFlags<Qt::ItemFlag>*, int, const QFlags<Qt::ItemFlag>&) 0x000183b3   Thumb Code   192  QtGallery.in(t._ZN7QVectorI6QFlagsIN2Qt8ItemFlagEEE6insertEPS3_iRKS3_)
    QVector<QFlags<Qt::ItemFlag>>::realloc(int, int) 0x00018473   Thumb Code   274  QtGallery.in(t._ZN7QVectorI6QFlagsIN2Qt8ItemFlagEEE7reallocEii)
    QVector<QFlags<Qt::ItemFlag>>::~QVector() 0x00018593   Thumb Code    30  QtGallery.in(t._ZN7QVectorI6QFlagsIN2Qt8ItemFlagEEED1Ev)
    QVector<QFlags<Qt::ItemFlag>>::~QVector__sub_object() 0x00018593   Thumb Code     0  QtGallery.in(t._ZN7QVectorI6QFlagsIN2Qt8ItemFlagEEED1Ev)
    QVector<QFlags<Qt::ItemFlag>>::operator [](int) 0x000185b1   Thumb Code    20  QtGallery.in(t._ZN7QVectorI6QFlagsIN2Qt8ItemFlagEEEixEi)
    QVector<int>::detach_helper()            0x000185c5   Thumb Code    14  QtGallery.in(t._ZN7QVectorIiE13detach_helperEv)
    QVector<int>::free(QVectorTypedData<int>*) 0x000185d3   Thumb Code    12  QtGallery.in(t._ZN7QVectorIiE4freeEP16QVectorTypedDataIiE)
    QVector<int>::begin()                    0x000185df   Thumb Code    14  QtGallery.in(t._ZN7QVectorIiE5beginEv)
    QVector<int>::erase(int*, int*)          0x000185ed   Thumb Code    64  QtGallery.in(t._ZN7QVectorIiE5eraseEPiS1_)
    QVector<int>::append(const int&)         0x0001862d   Thumb Code    90  QtGallery.in(t._ZN7QVectorIiE6appendERKi)
    QVector<int>::detach()                   0x00018687   Thumb Code    24  QtGallery.in(t._ZN7QVectorIiE6detachEv)
    QVector<int>::insert(int*, int, const int&) 0x0001869f   Thumb Code   148  QtGallery.in(t._ZN7QVectorIiE6insertEPiiRKi)
    QVector<int>::insert(int, const int&)    0x00018733   Thumb Code    28  QtGallery.in(t._ZN7QVectorIiE6insertEiRKi)
    QVector<int>::realloc(int, int)          0x0001874f   Thumb Code   246  QtGallery.in(t._ZN7QVectorIiE7reallocEii)
    QVector<int>::QVector()                  0x0001884d   Thumb Code    16  QtGallery.in(t._ZN7QVectorIiEC1Ev)
    QVector<int>::QVector__sub_object()      0x0001884d   Thumb Code     0  QtGallery.in(t._ZN7QVectorIiEC1Ev)
    QVector<int>::~QVector()                 0x00018861   Thumb Code    30  QtGallery.in(t._ZN7QVectorIiED1Ev)
    QVector<int>::~QVector__sub_object()     0x00018861   Thumb Code     0  QtGallery.in(t._ZN7QVectorIiED1Ev)
    QVector<int>::operator [](int)           0x0001887f   Thumb Code    20  QtGallery.in(t._ZN7QVectorIiEixEi)
    QVariant::setValue<double>(const T1&)    0x00018893   Thumb Code    96  QtGallery.in(t._ZN8QVariant8setValueIdEEvRKT_)
    QVariant::setValue<unsigned>(const T1&)  0x000188fd   Thumb Code    96  QtGallery.in(t._ZN8QVariant8setValueIjEEvRKT_)
    QVariant::setValue<unsigned long>(const T1&) 0x00018967   Thumb Code    92  QtGallery.in(t._ZN8QVariant8setValueImEEvRKT_)
    QHashNode<int, QString>::QHashNode(int, const QString&) 0x000189cd   Thumb Code    14  QtGallery.in(t._ZN9QHashNodeIi7QStringEC1EiRKS0_)
    QHashNode<int, QString>::QHashNode__sub_object(int, const QString&) 0x000189cd   Thumb Code     0  QtGallery.in(t._ZN9QHashNodeIi7QStringEC1EiRKS0_)
    QHashNode<int, QVariant>::QHashNode(int, const QVariant&) 0x000189db   Thumb Code    14  QtGallery.in(t._ZN9QHashNodeIi8QVariantEC1EiRKS0_)
    QHashNode<int, QVariant>::QHashNode__sub_object(int, const QVariant&) 0x000189db   Thumb Code     0  QtGallery.in(t._ZN9QHashNodeIi8QVariantEC1EiRKS0_)
    TMdERange<TTime>::TMdERange(const TTime&, const TTime&, TMdERangeType) 0x000189e9   Thumb Code    18  QtGallery.in(t._ZN9TMdERangeI5TTimeEC1ERKS0_S3_13TMdERangeType)
    TMdERange<TTime>::TMdERange__sub_object(const TTime&, const TTime&, TMdERangeType) 0x000189e9   Thumb Code     0  QtGallery.in(t._ZN9TMdERangeI5TTimeEC1ERKS0_S3_13TMdERangeType)
    TMdERange<double>::TMdERange(const double&, const double&, TMdERangeType) 0x000189fb   Thumb Code    16  QtGallery.in(t._ZN9TMdERangeIdEC1ERKdS2_13TMdERangeType)
    TMdERange<double>::TMdERange__sub_object(const double&, const double&, TMdERangeType) 0x000189fb   Thumb Code     0  QtGallery.in(t._ZN9TMdERangeIdEC1ERKdS2_13TMdERangeType)
    TMdERange<long long>::TMdERange(const long long&, const long long&, TMdERangeType) 0x00018a0b   Thumb Code    16  QtGallery.in(t._ZN9TMdERangeIxEC1ERKxS2_13TMdERangeType)
    TMdERange<long long>::TMdERange__sub_object(const long long&, const long long&, TMdERangeType) 0x00018a0b   Thumb Code     0  QtGallery.in(t._ZN9TMdERangeIxEC1ERKxS2_13TMdERangeType)
    QWeakPointer<QtMobility::QAbstractGallery>::data() const 0x00018a1b   Thumb Code    30  QtGallery.in(t._ZNK12QWeakPointerIN10QtMobility16QAbstractGalleryEE4dataEv)
    QWeakPointer<QtMobility::QAbstractGallery>::isNull() const 0x00018a39   Thumb Code    36  QtGallery.in(t._ZNK12QWeakPointerIN10QtMobility16QAbstractGalleryEE6isNullEv)
    RPointerArray<CMdEObject>::operator [](int) const 0x00018a5d   Thumb Code     8  QtGallery.in(t._ZNK13RPointerArrayI10CMdEObjectEixEi)
    QScopedPointer<CMdEObjectQuery, QScopedPointerDeleter<CMdEObjectQuery>>::operator CMdEObjectQuery*QScopedPointer<CMdEObjectQuery, QScopedPointerDeleter<CMdEObjectQuery>>::*() const 0x00018a65   Thumb Code    14  QtGallery.in(t._ZNK14QScopedPointerI15CMdEObjectQuery21QScopedPointerDeleterIS0_EEcvMS3_PS0_Ev)
    QScopedPointer<QtMobility::QGalleryAbstractResponse, QScopedPointerDeleter<QtMobility::QGalleryAbstractResponse>>::operator QtMobility::QGalleryAbstractResponse*QScopedPointer<QtMobility::QGalleryAbstractResponse, QScopedPointerDeleter<QtMobility::QGalleryAbstractResponse>>::*() const 0x00018a73   Thumb Code    14  QtGallery.in(t._ZNK14QScopedPointerIN10QtMobility24QGalleryAbstractResponseE21QScopedPointerDeleterIS1_EEcvMS4_PS1_Ev)
    QMap<int, QVariant>::value(const int&) const 0x00018a81   Thumb Code   128  QtGallery.in(t._ZNK4QMapIi8QVariantE5valueERKi)
    QMap<int, QVariant>::operator ==(const QMap<int, QVariant>&) const 0x00018b01   Thumb Code   112  QtGallery.in(t._ZNK4QMapIi8QVariantEeqERKS1_)
    QHash<int, QString>::begin() const       0x00018b71   Thumb Code    28  QtGallery.in(t._ZNK5QHashIi7QStringE5beginEv)
    QHash<int, QString>::values() const      0x00018b8d   Thumb Code    90  QtGallery.in(t._ZNK5QHashIi7QStringE6valuesEv)
    QHash<int, QString>::contains(const int&) const 0x00018bf1   Thumb Code    26  QtGallery.in(t._ZNK5QHashIi7QStringE8containsERKi)
    QHash<int, QString>::findNode(const int&, unsigned*) const 0x00018c0b   Thumb Code    50  QtGallery.in(t._ZNK5QHashIi7QStringE8findNodeERKiPj)
    QHash<int, QVariant>::findNode(const int&, unsigned*) const 0x00018c3d   Thumb Code    50  QtGallery.in(t._ZNK5QHashIi8QVariantE8findNodeERKiPj)
    QList<QString>::count() const            0x00018c6f   Thumb Code    10  QtGallery.in(t._ZNK5QListI7QStringE5countEv)
    QList<QString>::indexOf(const QString&, int) const 0x00018c79   Thumb Code   110  QtGallery.in(t._ZNK5QListI7QStringE7indexOfERKS0_i)
    QList<QString>::isEmpty() const          0x00018ce7   Thumb Code    18  QtGallery.in(t._ZNK5QListI7QStringE7isEmptyEv)
    QList<QString>::operator !=(const QList<QString>&) const 0x00018cf9   Thumb Code    88  QtGallery.in(t._ZNK5QListI7QStringEneERKS1_)
    QList<QtMobility::QGalleryFilter>::const_iterator::operator !=(const QList<QtMobility::QGalleryFilter>::const_iterator&) const 0x00018d51   Thumb Code    16  QtGallery.in(t._ZNK5QListIN10QtMobility14QGalleryFilterEE14const_iteratorneERKS3_)
    QList<QtMobility::QGalleryFilter>::end() const 0x00018d61   Thumb Code    14  QtGallery.in(t._ZNK5QListIN10QtMobility14QGalleryFilterEE3endEv)
    QList<QtMobility::QGalleryFilter>::mid(int, int) const 0x00018d6f   Thumb Code   172  QtGallery.in(t._ZNK5QListIN10QtMobility14QGalleryFilterEE3midEii)
    QList<QtMobility::QGalleryFilter>::size() const 0x00018e29   Thumb Code     8  QtGallery.in(t._ZNK5QListIN10QtMobility14QGalleryFilterEE4sizeEv)
    QList<QtMobility::QGalleryFilter>::isEmpty() const 0x00018e31   Thumb Code    18  QtGallery.in(t._ZNK5QListIN10QtMobility14QGalleryFilterEE7isEmptyEv)
    QList<QtMobility::QGalleryFilter>::operator ==(const QList<QtMobility::QGalleryFilter>&) const 0x00018e43   Thumb Code    84  QtGallery.in(t._ZNK5QListIN10QtMobility14QGalleryFilterEEeqERKS2_)
    QList<QtMobility::QGalleryFilter>::operator +(const QList<QtMobility::QGalleryFilter>&) const 0x00018e97   Thumb Code    18  QtGallery.in(t._ZNK5QListIN10QtMobility14QGalleryFilterEEplERKS2_)
    QList<int>::contains(const int&) const   0x00018eb3   Thumb Code    48  QtGallery.in(t._ZNK5QListIiE8containsERKi)
    QFlags<QtMobility::QGalleryProperty::Attribute>::operator |(QtMobility::QGalleryProperty::Attribute) const 0x00018ee3   Thumb Code    12  QtGallery.in(t._ZNK6QFlagsIN10QtMobility16QGalleryProperty9AttributeEEorES2_)
    RArray<unsigned long>::Find(const unsigned long&) const 0x00018eef   Thumb Code     8  QtGallery.in(t._ZNK6RArrayImE4FindERKm)
    QVector<int>::at(int) const              0x00018ef7   Thumb Code    10  QtGallery.in(t._ZNK7QVectorIiE2atEi)
    QtMobility::QAbstractGallery::staticMetaObject 0x0001bf50   Data          16  QtGallery.in(.constdata)
    QtMobility::QDocumentGallery::File       0x0001bfb0   Data           8  QtGallery.in(.constdata)
    QtMobility::QDocumentGallery::Folder     0x0001bfb8   Data           8  QtGallery.in(.constdata)
    QtMobility::QDocumentGallery::Document   0x0001bfc0   Data           8  QtGallery.in(.constdata)
    QtMobility::QDocumentGallery::Text       0x0001bfc8   Data           8  QtGallery.in(.constdata)
    QtMobility::QDocumentGallery::Audio      0x0001bfd0   Data           8  QtGallery.in(.constdata)
    QtMobility::QDocumentGallery::Image      0x0001bfd8   Data           8  QtGallery.in(.constdata)
    QtMobility::QDocumentGallery::Video      0x0001bfe0   Data           8  QtGallery.in(.constdata)
    QtMobility::QDocumentGallery::Playlist   0x0001bfe8   Data           8  QtGallery.in(.constdata)
    QtMobility::QDocumentGallery::Artist     0x0001bff0   Data           8  QtGallery.in(.constdata)
    QtMobility::QDocumentGallery::AlbumArtist 0x0001bff8   Data           8  QtGallery.in(.constdata)
    QtMobility::QDocumentGallery::Album      0x0001c000   Data           8  QtGallery.in(.constdata)
    QtMobility::QDocumentGallery::AudioGenre 0x0001c008   Data           8  QtGallery.in(.constdata)
    QtMobility::QDocumentGallery::PhotoAlbum 0x0001c010   Data           8  QtGallery.in(.constdata)
    QtMobility::QDocumentGallery::url        0x0001c018   Data           8  QtGallery.in(.constdata)
    QtMobility::QDocumentGallery::author     0x0001c020   Data           8  QtGallery.in(.constdata)
    QtMobility::QDocumentGallery::copyright  0x0001c028   Data           8  QtGallery.in(.constdata)
    QtMobility::QDocumentGallery::description 0x0001c030   Data           8  QtGallery.in(.constdata)
    QtMobility::QDocumentGallery::comments   0x0001c038   Data           8  QtGallery.in(.constdata)
    QtMobility::QDocumentGallery::rating     0x0001c040   Data           8  QtGallery.in(.constdata)
    QtMobility::QDocumentGallery::title      0x0001c048   Data           8  QtGallery.in(.constdata)
    QtMobility::QDocumentGallery::subject    0x0001c050   Data           8  QtGallery.in(.constdata)
    QtMobility::QDocumentGallery::keywords   0x0001c058   Data           8  QtGallery.in(.constdata)
    QtMobility::QDocumentGallery::language   0x0001c060   Data           8  QtGallery.in(.constdata)
    QtMobility::QDocumentGallery::path       0x0001c068   Data           8  QtGallery.in(.constdata)
    QtMobility::QDocumentGallery::filePath   0x0001c070   Data           8  QtGallery.in(.constdata)
    QtMobility::QDocumentGallery::fileName   0x0001c078   Data           8  QtGallery.in(.constdata)
    QtMobility::QDocumentGallery::fileExtension 0x0001c080   Data           8  QtGallery.in(.constdata)
    QtMobility::QDocumentGallery::fileSize   0x0001c088   Data           8  QtGallery.in(.constdata)
    QtMobility::QDocumentGallery::mimeType   0x0001c090   Data           8  QtGallery.in(.constdata)
    QtMobility::QDocumentGallery::lastModified 0x0001c098   Data           8  QtGallery.in(.constdata)
    QtMobility::QDocumentGallery::lastAccessed 0x0001c0a0   Data           8  QtGallery.in(.constdata)
    QtMobility::QDocumentGallery::pageCount  0x0001c0a8   Data           8  QtGallery.in(.constdata)
    QtMobility::QDocumentGallery::wordCount  0x0001c0b0   Data           8  QtGallery.in(.constdata)
    QtMobility::QDocumentGallery::created    0x0001c0b8   Data           8  QtGallery.in(.constdata)
    QtMobility::QDocumentGallery::duration   0x0001c0c0   Data           8  QtGallery.in(.constdata)
    QtMobility::QDocumentGallery::producer   0x0001c0c8   Data           8  QtGallery.in(.constdata)
    QtMobility::QDocumentGallery::lastPlayed 0x0001c0d0   Data           8  QtGallery.in(.constdata)
    QtMobility::QDocumentGallery::playCount  0x0001c0d8   Data           8  QtGallery.in(.constdata)
    QtMobility::QDocumentGallery::performer  0x0001c0e0   Data           8  QtGallery.in(.constdata)
    QtMobility::QDocumentGallery::audioCodec 0x0001c0e8   Data           8  QtGallery.in(.constdata)
    QtMobility::QDocumentGallery::audioBitRate 0x0001c0f0   Data           8  QtGallery.in(.constdata)
    QtMobility::QDocumentGallery::sampleRate 0x0001c0f8   Data           8  QtGallery.in(.constdata)
    QtMobility::QDocumentGallery::channelCount 0x0001c100   Data           8  QtGallery.in(.constdata)
    QtMobility::QDocumentGallery::artist     0x0001c108   Data           8  QtGallery.in(.constdata)
    QtMobility::QDocumentGallery::albumArtist 0x0001c110   Data           8  QtGallery.in(.constdata)
    QtMobility::QDocumentGallery::albumTitle 0x0001c118   Data           8  QtGallery.in(.constdata)
    QtMobility::QDocumentGallery::composer   0x0001c120   Data           8  QtGallery.in(.constdata)
    QtMobility::QDocumentGallery::genre      0x0001c128   Data           8  QtGallery.in(.constdata)
    QtMobility::QDocumentGallery::lyrics     0x0001c130   Data           8  QtGallery.in(.constdata)
    QtMobility::QDocumentGallery::trackCount 0x0001c138   Data           8  QtGallery.in(.constdata)
    QtMobility::QDocumentGallery::trackNumber 0x0001c140   Data           8  QtGallery.in(.constdata)
    QtMobility::QDocumentGallery::discNumber 0x0001c148   Data           8  QtGallery.in(.constdata)
    QtMobility::QDocumentGallery::width      0x0001c150   Data           8  QtGallery.in(.constdata)
    QtMobility::QDocumentGallery::height     0x0001c158   Data           8  QtGallery.in(.constdata)
    QtMobility::QDocumentGallery::orientation 0x0001c160   Data           8  QtGallery.in(.constdata)
    QtMobility::QDocumentGallery::dateTaken  0x0001c168   Data           8  QtGallery.in(.constdata)
    QtMobility::QDocumentGallery::cameraManufacturer 0x0001c170   Data           8  QtGallery.in(.constdata)
    QtMobility::QDocumentGallery::cameraModel 0x0001c178   Data           8  QtGallery.in(.constdata)
    QtMobility::QDocumentGallery::exposureProgram 0x0001c180   Data           8  QtGallery.in(.constdata)
    QtMobility::QDocumentGallery::exposureTime 0x0001c188   Data           8  QtGallery.in(.constdata)
    QtMobility::QDocumentGallery::fNumber    0x0001c190   Data           8  QtGallery.in(.constdata)
    QtMobility::QDocumentGallery::flashEnabled 0x0001c198   Data           8  QtGallery.in(.constdata)
    QtMobility::QDocumentGallery::focalLength 0x0001c1a0   Data           8  QtGallery.in(.constdata)
    QtMobility::QDocumentGallery::meteringMode 0x0001c1a8   Data           8  QtGallery.in(.constdata)
    QtMobility::QDocumentGallery::whiteBalance 0x0001c1b0   Data           8  QtGallery.in(.constdata)
    QtMobility::QDocumentGallery::frameRate  0x0001c1b8   Data           8  QtGallery.in(.constdata)
    QtMobility::QDocumentGallery::videoCodec 0x0001c1c0   Data           8  QtGallery.in(.constdata)
    QtMobility::QDocumentGallery::videoBitRate 0x0001c1c8   Data           8  QtGallery.in(.constdata)
    QtMobility::QDocumentGallery::resumePosition 0x0001c1d0   Data           8  QtGallery.in(.constdata)
    QtMobility::QDocumentGallery::director   0x0001c1d8   Data           8  QtGallery.in(.constdata)
    QtMobility::QDocumentGallery::count      0x0001c1e0   Data           8  QtGallery.in(.constdata)
    QtMobility::QGalleryAbstractRequest::staticMetaObject 0x0001c1e8   Data          16  QtGallery.in(.constdata)
    QtMobility::QGalleryAbstractResponse::staticMetaObject 0x0001c65c   Data          16  QtGallery.in(.constdata)
    QtMobility::QGalleryItemRequest::staticMetaObject 0x0001c75c   Data          16  QtGallery.in(.constdata)
    QtMobility::QGalleryQueryModel::staticMetaObject 0x0001cab8   Data          16  QtGallery.in(.constdata)
    QtMobility::QGalleryQueryRequest::staticMetaObject 0x0001d010   Data          16  QtGallery.in(.constdata)
    QtMobility::QGalleryResultSet::staticMetaObject 0x0001d46c   Data          16  QtGallery.in(.constdata)
    QtMobility::QGalleryTypeRequest::staticMetaObject 0x0001d60c   Data          16  QtGallery.in(.constdata)
    QtMobility::QMDEGalleryResultSet::staticMetaObject 0x0001d8f8   Data          16  QtGallery.in(.constdata)
    QtMobility::QMDEGalleryTypeResultSet::staticMetaObject 0x0001dd40   Data          16  QtGallery.in(.constdata)
    QtMobility::QMDEGalleryItemResultSet::staticMetaObject 0x0001dda8   Data          16  QtGallery.in(.constdata)
    QtMobility::QMDEGalleryQueryResultSet::staticMetaObject 0x0001de10   Data          16  QtGallery.in(.constdata)
    QtMobility::QMDEGalleryCategoryResultSet::staticMetaObject 0x0001de78   Data          16  QtGallery.in(.constdata)
    QtMobility::QMdeSession::staticMetaObject 0x0001df5c   Data          16  QtGallery.in(.constdata)
    QtMobility::QDocumentGallery::staticMetaObject 0x0001dfb8   Data          16  QtGallery.in(.constdata)
    typeinfo for QSharedData                 0x0001e018   Data           8  QtGallery.in(.constdata__ZTI11QSharedData)
    typeinfo for MMdEQueryObserver           0x0001e020   Data           8  QtGallery.in(.constdata__ZTI17MMdEQueryObserver)
    typeinfo for MMdEObjectObserver          0x0001e028   Data           8  QtGallery.in(.constdata__ZTI18MMdEObjectObserver)
    typeinfo for MMdESessionObserver         0x0001e030   Data           8  QtGallery.in(.constdata__ZTI19MMdESessionObserver)
    typeinfo for QtMobility::QMdeSession     0x0001e038   Data          32  QtGallery.in(.constdata__ZTIN10QtMobility11QMdeSessionE)
    typeinfo for QtMobility::QAbstractGallery 0x0001e058   Data          12  QtGallery.in(.constdata__ZTIN10QtMobility16QAbstractGalleryE)
    typeinfo for QtMobility::QDocumentGallery 0x0001e064   Data          12  QtGallery.in(.constdata__ZTIN10QtMobility16QDocumentGalleryE)
    typeinfo for QtMobility::QGalleryResultSet 0x0001e070   Data          12  QtGallery.in(.constdata__ZTIN10QtMobility17QGalleryResultSetE)
    typeinfo for QtMobility::QGalleryQueryModel 0x0001e07c   Data          12  QtGallery.in(.constdata__ZTIN10QtMobility18QGalleryQueryModelE)
    typeinfo for QtMobility::QGalleryItemRequest 0x0001e088   Data          12  QtGallery.in(.constdata__ZTIN10QtMobility19QGalleryItemRequestE)
    typeinfo for QtMobility::QGalleryTypeRequest 0x0001e094   Data          12  QtGallery.in(.constdata__ZTIN10QtMobility19QGalleryTypeRequestE)
    typeinfo for QtMobility::QGalleryQueryRequest 0x0001e0a0   Data          12  QtGallery.in(.constdata__ZTIN10QtMobility20QGalleryQueryRequestE)
    typeinfo for QtMobility::QMDEGalleryResultSet 0x0001e0ac   Data          12  QtGallery.in(.constdata__ZTIN10QtMobility20QMDEGalleryResultSetE)
    typeinfo for QtMobility::QGalleryFilterPrivate 0x0001e0b8   Data          24  QtGallery.in(.constdata__ZTIN10QtMobility21QGalleryFilterPrivateE)
    typeinfo for QtMobility::QGalleryNullResultSet 0x0001e0d0   Data          12  QtGallery.in(.constdata__ZTIN10QtMobility21QGalleryNullResultSetE)
    typeinfo for QtMobility::QAbstractGalleryPrivate 0x0001e0dc   Data           8  QtGallery.in(.constdata__ZTIN10QtMobility23QAbstractGalleryPrivateE)
    typeinfo for QtMobility::QDocumentGalleryPrivate 0x0001e0e4   Data          12  QtGallery.in(.constdata__ZTIN10QtMobility23QDocumentGalleryPrivateE)
    typeinfo for QtMobility::QGalleryAbstractRequest 0x0001e0f0   Data          12  QtGallery.in(.constdata__ZTIN10QtMobility23QGalleryAbstractRequestE)
    typeinfo for QtMobility::QGalleryAbstractResponse 0x0001e0fc   Data          12  QtGallery.in(.constdata__ZTIN10QtMobility24QGalleryAbstractResponseE)
    typeinfo for QtMobility::QGalleryResultSetPrivate 0x0001e108   Data          12  QtGallery.in(.constdata__ZTIN10QtMobility24QGalleryResultSetPrivateE)
    typeinfo for QtMobility::QMDEGalleryItemResultSet 0x0001e114   Data          32  QtGallery.in(.constdata__ZTIN10QtMobility24QMDEGalleryItemResultSetE)
    typeinfo for QtMobility::QMDEGalleryTypeResultSet 0x0001e134   Data          32  QtGallery.in(.constdata__ZTIN10QtMobility24QMDEGalleryTypeResultSetE)
    typeinfo for QtMobility::QMDEGalleryQueryResultSet 0x0001e154   Data          40  QtGallery.in(.constdata__ZTIN10QtMobility25QMDEGalleryQueryResultSetE)
    typeinfo for QtMobility::QGalleryItemRequestPrivate 0x0001e17c   Data          12  QtGallery.in(.constdata__ZTIN10QtMobility26QGalleryItemRequestPrivateE)
    typeinfo for QtMobility::QGalleryTypeRequestPrivate 0x0001e188   Data          12  QtGallery.in(.constdata__ZTIN10QtMobility26QGalleryTypeRequestPrivateE)
    typeinfo for QtMobility::QGalleryUnionFilterPrivate 0x0001e194   Data          12  QtGallery.in(.constdata__ZTIN10QtMobility26QGalleryUnionFilterPrivateE)
    typeinfo for QtMobility::QGalleryQueryRequestPrivate 0x0001e1a0   Data          12  QtGallery.in(.constdata__ZTIN10QtMobility27QGalleryQueryRequestPrivateE)
    typeinfo for QtMobility::QGalleryInvalidFilterPrivate 0x0001e1ac   Data          12  QtGallery.in(.constdata__ZTIN10QtMobility28QGalleryInvalidFilterPrivateE)
    typeinfo for QtMobility::QMDEGalleryCategoryResultSet 0x0001e1b8   Data          32  QtGallery.in(.constdata__ZTIN10QtMobility28QMDEGalleryCategoryResultSetE)
    typeinfo for QtMobility::QGalleryMetaDataFilterPrivate 0x0001e1d8   Data          12  QtGallery.in(.constdata__ZTIN10QtMobility29QGalleryMetaDataFilterPrivateE)
    typeinfo for QtMobility::QGalleryAbstractRequestPrivate 0x0001e1e4   Data           8  QtGallery.in(.constdata__ZTIN10QtMobility30QGalleryAbstractRequestPrivateE)
    typeinfo for QtMobility::QGalleryAbstractResponsePrivate 0x0001e1ec   Data           8  QtGallery.in(.constdata__ZTIN10QtMobility31QGalleryAbstractResponsePrivateE)
    typeinfo for QtMobility::QGalleryIntersectionFilterPrivate 0x0001e1f4   Data          12  QtGallery.in(.constdata__ZTIN10QtMobility33QGalleryIntersectionFilterPrivateE)
    typeinfo for std::bad_alloc              0x0001e200   Data          12  QtGallery.in(.constdata__ZTISt9bad_alloc)
    typeinfo name for QSharedData            0x0001e20c   Data          14  QtGallery.in(.constdata__ZTS11QSharedData)
    typeinfo name for MMdEQueryObserver      0x0001e21a   Data          20  QtGallery.in(.constdata__ZTS17MMdEQueryObserver)
    typeinfo name for MMdEObjectObserver     0x0001e22e   Data          21  QtGallery.in(.constdata__ZTS18MMdEObjectObserver)
    typeinfo name for MMdESessionObserver    0x0001e243   Data          22  QtGallery.in(.constdata__ZTS19MMdESessionObserver)
    typeinfo name for QtMobility::QMdeSession 0x0001e259   Data          28  QtGallery.in(.constdata__ZTSN10QtMobility11QMdeSessionE)
    typeinfo name for QtMobility::QAbstractGallery 0x0001e275   Data          33  QtGallery.in(.constdata__ZTSN10QtMobility16QAbstractGalleryE)
    typeinfo name for QtMobility::QDocumentGallery 0x0001e296   Data          33  QtGallery.in(.constdata__ZTSN10QtMobility16QDocumentGalleryE)
    typeinfo name for QtMobility::QGalleryResultSet 0x0001e2b7   Data          34  QtGallery.in(.constdata__ZTSN10QtMobility17QGalleryResultSetE)
    typeinfo name for QtMobility::QGalleryQueryModel 0x0001e2d9   Data          35  QtGallery.in(.constdata__ZTSN10QtMobility18QGalleryQueryModelE)
    typeinfo name for QtMobility::QGalleryItemRequest 0x0001e2fc   Data          36  QtGallery.in(.constdata__ZTSN10QtMobility19QGalleryItemRequestE)
    typeinfo name for QtMobility::QGalleryTypeRequest 0x0001e320   Data          36  QtGallery.in(.constdata__ZTSN10QtMobility19QGalleryTypeRequestE)
    typeinfo name for QtMobility::QGalleryQueryRequest 0x0001e344   Data          37  QtGallery.in(.constdata__ZTSN10QtMobility20QGalleryQueryRequestE)
    typeinfo name for QtMobility::QMDEGalleryResultSet 0x0001e369   Data          37  QtGallery.in(.constdata__ZTSN10QtMobility20QMDEGalleryResultSetE)
    typeinfo name for QtMobility::QGalleryFilterPrivate 0x0001e38e   Data          38  QtGallery.in(.constdata__ZTSN10QtMobility21QGalleryFilterPrivateE)
    typeinfo name for QtMobility::QGalleryNullResultSet 0x0001e3b4   Data          38  QtGallery.in(.constdata__ZTSN10QtMobility21QGalleryNullResultSetE)
    typeinfo name for QtMobility::QAbstractGalleryPrivate 0x0001e3da   Data          40  QtGallery.in(.constdata__ZTSN10QtMobility23QAbstractGalleryPrivateE)
    typeinfo name for QtMobility::QDocumentGalleryPrivate 0x0001e402   Data          40  QtGallery.in(.constdata__ZTSN10QtMobility23QDocumentGalleryPrivateE)
    typeinfo name for QtMobility::QGalleryAbstractRequest 0x0001e42a   Data          40  QtGallery.in(.constdata__ZTSN10QtMobility23QGalleryAbstractRequestE)
    typeinfo name for QtMobility::QGalleryAbstractResponse 0x0001e452   Data          41  QtGallery.in(.constdata__ZTSN10QtMobility24QGalleryAbstractResponseE)
    typeinfo name for QtMobility::QGalleryResultSetPrivate 0x0001e47b   Data          41  QtGallery.in(.constdata__ZTSN10QtMobility24QGalleryResultSetPrivateE)
    typeinfo name for QtMobility::QMDEGalleryItemResultSet 0x0001e4a4   Data          41  QtGallery.in(.constdata__ZTSN10QtMobility24QMDEGalleryItemResultSetE)
    typeinfo name for QtMobility::QMDEGalleryTypeResultSet 0x0001e4cd   Data          41  QtGallery.in(.constdata__ZTSN10QtMobility24QMDEGalleryTypeResultSetE)
    typeinfo name for QtMobility::QMDEGalleryQueryResultSet 0x0001e4f6   Data          42  QtGallery.in(.constdata__ZTSN10QtMobility25QMDEGalleryQueryResultSetE)
    typeinfo name for QtMobility::QGalleryItemRequestPrivate 0x0001e520   Data          43  QtGallery.in(.constdata__ZTSN10QtMobility26QGalleryItemRequestPrivateE)
    typeinfo name for QtMobility::QGalleryTypeRequestPrivate 0x0001e54b   Data          43  QtGallery.in(.constdata__ZTSN10QtMobility26QGalleryTypeRequestPrivateE)
    typeinfo name for QtMobility::QGalleryUnionFilterPrivate 0x0001e576   Data          43  QtGallery.in(.constdata__ZTSN10QtMobility26QGalleryUnionFilterPrivateE)
    typeinfo name for QtMobility::QGalleryQueryRequestPrivate 0x0001e5a1   Data          44  QtGallery.in(.constdata__ZTSN10QtMobility27QGalleryQueryRequestPrivateE)
    typeinfo name for QtMobility::QGalleryInvalidFilterPrivate 0x0001e5cd   Data          45  QtGallery.in(.constdata__ZTSN10QtMobility28QGalleryInvalidFilterPrivateE)
    typeinfo name for QtMobility::QMDEGalleryCategoryResultSet 0x0001e5fa   Data          45  QtGallery.in(.constdata__ZTSN10QtMobility28QMDEGalleryCategoryResultSetE)
    typeinfo name for QtMobility::QGalleryMetaDataFilterPrivate 0x0001e627   Data          46  QtGallery.in(.constdata__ZTSN10QtMobility29QGalleryMetaDataFilterPrivateE)
    typeinfo name for QtMobility::QGalleryAbstractRequestPrivate 0x0001e655   Data          47  QtGallery.in(.constdata__ZTSN10QtMobility30QGalleryAbstractRequestPrivateE)
    typeinfo name for QtMobility::QGalleryAbstractResponsePrivate 0x0001e684   Data          48  QtGallery.in(.constdata__ZTSN10QtMobility31QGalleryAbstractResponsePrivateE)
    typeinfo name for QtMobility::QGalleryIntersectionFilterPrivate 0x0001e6b4   Data          50  QtGallery.in(.constdata__ZTSN10QtMobility33QGalleryIntersectionFilterPrivateE)
    typeinfo name for std::bad_alloc         0x0001e6e6   Data          13  QtGallery.in(.constdata__ZTSSt9bad_alloc)
    vtable for QtMobility::QMdeSession       0x0001e6f4   Data          80  QtGallery.in(.constdata__ZTVN10QtMobility11QMdeSessionE)
    vtable for QtMobility::QAbstractGallery  0x0001e744   Data          64  QtGallery.in(.constdata__ZTVN10QtMobility16QAbstractGalleryE)
    vtable for QtMobility::QDocumentGallery  0x0001e784   Data          64  QtGallery.in(.constdata__ZTVN10QtMobility16QDocumentGalleryE)
    vtable for QtMobility::QGalleryResultSet 0x0001e7c4   Data         132  QtGallery.in(.constdata__ZTVN10QtMobility17QGalleryResultSetE)
    vtable for QtMobility::QGalleryQueryModel 0x0001e848   Data         168  QtGallery.in(.constdata__ZTVN10QtMobility18QGalleryQueryModelE)
    vtable for QtMobility::QGalleryItemRequest 0x0001e8f0   Data          60  QtGallery.in(.constdata__ZTVN10QtMobility19QGalleryItemRequestE)
    vtable for QtMobility::QGalleryTypeRequest 0x0001e92c   Data          60  QtGallery.in(.constdata__ZTVN10QtMobility19QGalleryTypeRequestE)
    vtable for QtMobility::QGalleryQueryRequest 0x0001e968   Data          60  QtGallery.in(.constdata__ZTVN10QtMobility20QGalleryQueryRequestE)
    vtable for QtMobility::QMDEGalleryResultSet 0x0001e9a4   Data         140  QtGallery.in(.constdata__ZTVN10QtMobility20QMDEGalleryResultSetE)
    vtable for QtMobility::QGalleryFilterPrivate 0x0001ea30   Data          24  QtGallery.in(.constdata__ZTVN10QtMobility21QGalleryFilterPrivateE)
    vtable for QtMobility::QGalleryNullResultSet 0x0001ea48   Data         132  QtGallery.in(.constdata__ZTVN10QtMobility21QGalleryNullResultSetE)
    vtable for QtMobility::QDocumentGalleryPrivate 0x0001eacc   Data          16  QtGallery.in(.constdata__ZTVN10QtMobility23QDocumentGalleryPrivateE)
    vtable for QtMobility::QGalleryAbstractRequest 0x0001eadc   Data          60  QtGallery.in(.constdata__ZTVN10QtMobility23QGalleryAbstractRequestE)
    vtable for QtMobility::QGalleryAbstractResponse 0x0001eb18   Data          64  QtGallery.in(.constdata__ZTVN10QtMobility24QGalleryAbstractResponseE)
    vtable for QtMobility::QGalleryResultSetPrivate 0x0001eb58   Data          16  QtGallery.in(.constdata__ZTVN10QtMobility24QGalleryResultSetPrivateE)
    vtable for QtMobility::QMDEGalleryItemResultSet 0x0001eb68   Data         172  QtGallery.in(.constdata__ZTVN10QtMobility24QMDEGalleryItemResultSetE)
    vtable for QtMobility::QMDEGalleryTypeResultSet 0x0001ec14   Data         156  QtGallery.in(.constdata__ZTVN10QtMobility24QMDEGalleryTypeResultSetE)
    vtable for QtMobility::QMDEGalleryQueryResultSet 0x0001ecb0   Data         196  QtGallery.in(.constdata__ZTVN10QtMobility25QMDEGalleryQueryResultSetE)
    vtable for QtMobility::QGalleryItemRequestPrivate 0x0001ed74   Data          16  QtGallery.in(.constdata__ZTVN10QtMobility26QGalleryItemRequestPrivateE)
    vtable for QtMobility::QGalleryTypeRequestPrivate 0x0001ed84   Data          16  QtGallery.in(.constdata__ZTVN10QtMobility26QGalleryTypeRequestPrivateE)
    vtable for QtMobility::QGalleryUnionFilterPrivate 0x0001ed94   Data          24  QtGallery.in(.constdata__ZTVN10QtMobility26QGalleryUnionFilterPrivateE)
    vtable for QtMobility::QGalleryQueryRequestPrivate 0x0001edac   Data          16  QtGallery.in(.constdata__ZTVN10QtMobility27QGalleryQueryRequestPrivateE)
    vtable for QtMobility::QGalleryInvalidFilterPrivate 0x0001edbc   Data          24  QtGallery.in(.constdata__ZTVN10QtMobility28QGalleryInvalidFilterPrivateE)
    vtable for QtMobility::QMDEGalleryCategoryResultSet 0x0001edd4   Data         156  QtGallery.in(.constdata__ZTVN10QtMobility28QMDEGalleryCategoryResultSetE)
    vtable for QtMobility::QGalleryMetaDataFilterPrivate 0x0001ee70   Data          24  QtGallery.in(.constdata__ZTVN10QtMobility29QGalleryMetaDataFilterPrivateE)
    vtable for QtMobility::QGalleryAbstractRequestPrivate 0x0001ee88   Data          16  QtGallery.in(.constdata__ZTVN10QtMobility30QGalleryAbstractRequestPrivateE)
    vtable for QtMobility::QGalleryAbstractResponsePrivate 0x0001ee98   Data          16  QtGallery.in(.constdata__ZTVN10QtMobility31QGalleryAbstractResponsePrivateE)
    vtable for QtMobility::QGalleryIntersectionFilterPrivate 0x0001eea8   Data          24  QtGallery.in(.constdata__ZTVN10QtMobility33QGalleryIntersectionFilterPrivateE)
    SHT$$INIT_ARRAY$$Base                    0x0001f168   Number         0  QtGallery.in(.init_array)
    .ARM.exidx$$Base                         0x0001f16c   Number         0  ucppinit_aeabi.o(.ARM.exidx)
    SHT$$INIT_ARRAY$$Limit                   0x0001f16c   Data           0  QtGallery.in(.init_array)
    .ARM.exidx$$Limit                        0x0002039c   Number         0  QtGallery.in(.ARM.exidx)
    Image$$ER_RO$$Limit                      0x0002039c   Number         0  anon$$obj.o(linker$$defined$$symbols)

