ARM Linker, RVCT2.2 [Build 686]

================================================================================

Image Symbol Table

    Local Symbols

    Symbol Name                              Value     Ov Type        Size  Object(Section)

    [Anonymous Symbol]                       0x00000000   Number         0  euser{000a0000}-474.o ABSOLUTE
    [Anonymous Symbol]                       0x00000000   Number         0  imcm{000a0000}-658.o ABSOLUTE
    [Anonymous Symbol]                       0x00000000   Number         0  QtCore{00040703}-2334.o ABSOLUTE
    [Anonymous Symbol]                       0x00000000   Number         0  euser{000a0000}-481.o ABSOLUTE
    [Anonymous Symbol]                       0x00000000   Number         0  imcm{000a0000}-686.o ABSOLUTE
    [Anonymous Symbol]                       0x00000000   Number         0  QtCore{00040703}-2340.o ABSOLUTE
    [Anonymous Symbol]                       0x00000000   Number         0  euser{000a0000}-57.o ABSOLUTE
    [Anonymous Symbol]                       0x00000000   Number         0  imcm{000a0000}-7.o ABSOLUTE
    [Anonymous Symbol]                       0x00000000   Number         0  QtCore{00040703}-2341.o ABSOLUTE
    [Anonymous Symbol]                       0x00000000   Number         0  euser{000a0000}-593.o ABSOLUTE
    [Anonymous Symbol]                       0x00000000   Number         0  imcm{000a0000}-728.o ABSOLUTE
    [Anonymous Symbol]                       0x00000000   Number         0  QtCore{00040703}-2345.o ABSOLUTE
    [Anonymous Symbol]                       0x00000000   Number         0  euser{000a0000}-649.o ABSOLUTE
    [Anonymous Symbol]                       0x00000000   Number         0  imcm{000a0000}-74.o ABSOLUTE
    [Anonymous Symbol]                       0x00000000   Number         0  QtCore{00040703}-2352.o ABSOLUTE
    [Anonymous Symbol]                       0x00000000   Number         0  euser{000a0000}-652.o ABSOLUTE
    [Anonymous Symbol]                       0x00000000   Number         0  imcm{000a0000}-743.o ABSOLUTE
    [Anonymous Symbol]                       0x00000000   Number         0  QtCore{00040703}-2359.o ABSOLUTE
    [Anonymous Symbol]                       0x00000000   Number         0  euser{000a0000}-654.o ABSOLUTE
    [Anonymous Symbol]                       0x00000000   Number         0  imcm{000a0000}-745.o ABSOLUTE
    [Anonymous Symbol]                       0x00000000   Number         0  QtCore{00040703}-2360.o ABSOLUTE
    [Anonymous Symbol]                       0x00000000   Number         0  euser{000a0000}-669.o ABSOLUTE
    [Anonymous Symbol]                       0x00000000   Number         0  imcm{000a0000}-746.o ABSOLUTE
    [Anonymous Symbol]                       0x00000000   Number         0  QtCore{00040703}-2377.o ABSOLUTE
    [Anonymous Symbol]                       0x00000000   Number         0  euser{000a0000}-670.o ABSOLUTE
    [Anonymous Symbol]                       0x00000000   Number         0  imcm{000a0000}-761.o ABSOLUTE
    [Anonymous Symbol]                       0x00000000   Number         0  QtCore{00040703}-2380.o ABSOLUTE
    [Anonymous Symbol]                       0x00000000   Number         0  euser{000a0000}-671.o ABSOLUTE
    [Anonymous Symbol]                       0x00000000   Number         0  imcm{000a0000}-83.o ABSOLUTE
    [Anonymous Symbol]                       0x00000000   Number         0  QtCore{00040703}-282.o ABSOLUTE
    [Anonymous Symbol]                       0x00000000   Number         0  euser{000a0000}-744.o ABSOLUTE
    [Anonymous Symbol]                       0x00000000   Number         0  imcm{000a0000}-88.o ABSOLUTE
    [Anonymous Symbol]                       0x00000000   Number         0  QtCore{00040703}-2883.o ABSOLUTE
    [Anonymous Symbol]                       0x00000000   Number         0  euser{000a0000}-80.o ABSOLUTE
    [Anonymous Symbol]                       0x00000000   Number         0  imcm{000a0000}-89.o ABSOLUTE
    [Anonymous Symbol]                       0x00000000   Number         0  QtCore{00040703}-2884.o ABSOLUTE
    [Anonymous Symbol]                       0x00000000   Number         0  euser{000a0000}-81.o ABSOLUTE
    [Anonymous Symbol]                       0x00000000   Number         0  imcm{000a0000}-9.o ABSOLUTE
    [Anonymous Symbol]                       0x00000000   Number         0  QtCore{00040703}-2885.o ABSOLUTE
    [Anonymous Symbol]                       0x00000000   Number         0  euser{000a0000}-816.o ABSOLUTE
    [Anonymous Symbol]                       0x00000000   Number         0  bafl{000a0000}-40.o ABSOLUTE
    [Anonymous Symbol]                       0x00000000   Number         0  QtCore{00040703}-2900.o ABSOLUTE
    [Anonymous Symbol]                       0x00000000   Number         0  euser{000a0000}-855.o ABSOLUTE
    [Anonymous Symbol]                       0x00000000   Number         0  bafl{000a0000}-43.o ABSOLUTE
    [Anonymous Symbol]                       0x00000000   Number         0  QtCore{00040703}-2913.o ABSOLUTE
    [Anonymous Symbol]                       0x00000000   Number         0  euser{000a0000}-861.o ABSOLUTE
    [Anonymous Symbol]                       0x00000000   Number         0  mtur{000a0000}-31.o ABSOLUTE
    [Anonymous Symbol]                       0x00000000   Number         0  QtCore{00040703}-2914.o ABSOLUTE
    [Anonymous Symbol]                       0x00000000   Number         0  euser{000a0000}-891.o ABSOLUTE
    [Anonymous Symbol]                       0x00000000   Number         0  mtur{000a0000}-32.o ABSOLUTE
    [Anonymous Symbol]                       0x00000000   Number         0  QtCore{00040703}-2915.o ABSOLUTE
    [Anonymous Symbol]                       0x00000000   Number         0  euser{000a0000}-893.o ABSOLUTE
    [Anonymous Symbol]                       0x00000000   Number         0  mtur{000a0000}-58.o ABSOLUTE
    [Anonymous Symbol]                       0x00000000   Number         0  QtCore{00040703}-2916.o ABSOLUTE
    [Anonymous Symbol]                       0x00000000   Number         0  euser{000a0000}-894.o ABSOLUTE
    [Anonymous Symbol]                       0x00000000   Number         0  smcm{000a0000}-21.o ABSOLUTE
    [Anonymous Symbol]                       0x00000000   Number         0  QtCore{00040703}-3022.o ABSOLUTE
    [Anonymous Symbol]                       0x00000000   Number         0  euser{000a0000}-925.o ABSOLUTE
    [Anonymous Symbol]                       0x00000000   Number         0  smcm{000a0000}-23.o ABSOLUTE
    [Anonymous Symbol]                       0x00000000   Number         0  QtCore{00040703}-303.o ABSOLUTE
    [Anonymous Symbol]                       0x00000000   Number         0  euser{000a0000}-928.o ABSOLUTE
    [Anonymous Symbol]                       0x00000000   Number         0  smcm{000a0000}-281.o ABSOLUTE
    [Anonymous Symbol]                       0x00000000   Number         0  QtCore{00040703}-3033.o ABSOLUTE
    [Anonymous Symbol]                       0x00000000   Number         0  euser{000a0000}-929.o ABSOLUTE
    [Anonymous Symbol]                       0x00000000   Number         0  smcm{000a0000}-282.o ABSOLUTE
    [Anonymous Symbol]                       0x00000000   Number         0  QtCore{00040703}-3040.o ABSOLUTE
    [Anonymous Symbol]                       0x00000000   Number         0  euser{000a0000}-953.o ABSOLUTE
    [Anonymous Symbol]                       0x00000000   Number         0  smcm{000a0000}-283.o ABSOLUTE
    [Anonymous Symbol]                       0x00000000   Number         0  QtCore{00040703}-3054.o ABSOLUTE
    [Anonymous Symbol]                       0x00000000   Number         0  euser{000a0000}-968.o ABSOLUTE
    [Anonymous Symbol]                       0x00000000   Number         0  smcm{000a0000}-285.o ABSOLUTE
    [Anonymous Symbol]                       0x00000000   Number         0  QtCore{00040703}-3055.o ABSOLUTE
    [Anonymous Symbol]                       0x00000000   Number         0  QtCore{00040703}-1768.o ABSOLUTE
    [Anonymous Symbol]                       0x00000000   Number         0  smcm{000a0000}-31.o ABSOLUTE
    [Anonymous Symbol]                       0x00000000   Number         0  QtCore{00040703}-3059.o ABSOLUTE
    [Anonymous Symbol]                       0x00000000   Number         0  QtCore{00040703}-177.o ABSOLUTE
    [Anonymous Symbol]                       0x00000000   Number         0  smcm{000a0000}-42.o ABSOLUTE
    [Anonymous Symbol]                       0x00000000   Number         0  QtCore{00040703}-3064.o ABSOLUTE
    [Anonymous Symbol]                       0x00000000   Number         0  QtCore{00040703}-1773.o ABSOLUTE
    [Anonymous Symbol]                       0x00000000   Number         0  drtaeabi{000a0000}-135.o ABSOLUTE
    [Anonymous Symbol]                       0x00000000   Number         0  QtCore{00040703}-3066.o ABSOLUTE
    [Anonymous Symbol]                       0x00000000   Number         0  QtCore{00040703}-1777.o ABSOLUTE
    [Anonymous Symbol]                       0x00000000   Number         0  drtaeabi{000a0000}-147.o ABSOLUTE
    [Anonymous Symbol]                       0x00000000   Number         0  QtCore{00040703}-3072.o ABSOLUTE
    [Anonymous Symbol]                       0x00000000   Number         0  QtCore{00040703}-1784.o ABSOLUTE
    [Anonymous Symbol]                       0x00000000   Number         0  drtaeabi{000a0000}-155.o ABSOLUTE
    [Anonymous Symbol]                       0x00000000   Number         0  QtCore{00040703}-3077.o ABSOLUTE
    [Anonymous Symbol]                       0x00000000   Number         0  QtCore{00040703}-1785.o ABSOLUTE
    [Anonymous Symbol]                       0x00000000   Number         0  drtaeabi{000a0000}-158.o ABSOLUTE
    [Anonymous Symbol]                       0x00000000   Number         0  QtCore{00040703}-3081.o ABSOLUTE
    [Anonymous Symbol]                       0x00000000   Number         0  QtCore{00040703}-1789.o ABSOLUTE
    [Anonymous Symbol]                       0x00000000   Number         0  drtaeabi{000a0000}-159.o ABSOLUTE
    [Anonymous Symbol]                       0x00000000   Number         0  QtCore{00040703}-3087.o ABSOLUTE
    [Anonymous Symbol]                       0x00000000   Number         0  QtCore{00040703}-179.o ABSOLUTE
    [Anonymous Symbol]                       0x00000000   Number         0  drtaeabi{000a0000}-180.o ABSOLUTE
    [Anonymous Symbol]                       0x00000000   Number         0  QtCore{00040703}-3095.o ABSOLUTE
    [Anonymous Symbol]                       0x00000000   Number         0  QtCore{00040703}-1794.o ABSOLUTE
    [Anonymous Symbol]                       0x00000000   Number         0  drtaeabi{000a0000}-182.o ABSOLUTE
    [Anonymous Symbol]                       0x00000000   Number         0  QtCore{00040703}-3098.o ABSOLUTE
    [Anonymous Symbol]                       0x00000000   Number         0  QtCore{00040703}-1802.o ABSOLUTE
    [Anonymous Symbol]                       0x00000000   Number         0  drtaeabi{000a0000}-183.o ABSOLUTE
    [Anonymous Symbol]                       0x00000000   Number         0  QtCore{00040703}-3101.o ABSOLUTE
    [Anonymous Symbol]                       0x00000000   Number         0  QtCore{00040703}-1805.o ABSOLUTE
    [Anonymous Symbol]                       0x00000000   Number         0  drtaeabi{000a0000}-184.o ABSOLUTE
    [Anonymous Symbol]                       0x00000000   Number         0  QtCore{00040703}-312.o ABSOLUTE
    [Anonymous Symbol]                       0x00000000   Number         0  QtCore{00040703}-1811.o ABSOLUTE
    [Anonymous Symbol]                       0x00000000   Number         0  drtaeabi{000a0000}-186.o ABSOLUTE
    [Anonymous Symbol]                       0x00000000   Number         0  QtCore{00040703}-3131.o ABSOLUTE
    [Anonymous Symbol]                       0x00000000   Number         0  QtCore{00040703}-1814.o ABSOLUTE
    [Anonymous Symbol]                       0x00000000   Number         0  drtaeabi{000a0000}-187.o ABSOLUTE
    [Anonymous Symbol]                       0x00000000   Number         0  QtCore{00040703}-3136.o ABSOLUTE
    [Anonymous Symbol]                       0x00000000   Number         0  QtCore{00040703}-182.o ABSOLUTE
    [Anonymous Symbol]                       0x00000000   Number         0  drtaeabi{000a0000}-188.o ABSOLUTE
    [Anonymous Symbol]                       0x00000000   Number         0  QtCore{00040703}-3139.o ABSOLUTE
    [Anonymous Symbol]                       0x00000000   Number         0  QtCore{00040703}-1825.o ABSOLUTE
    [Anonymous Symbol]                       0x00000000   Number         0  drtaeabi{000a0000}-190.o ABSOLUTE
    [Anonymous Symbol]                       0x00000000   Number         0  QtCore{00040703}-3142.o ABSOLUTE
    [Anonymous Symbol]                       0x00000000   Number         0  QtCore{00040703}-1830.o ABSOLUTE
    [Anonymous Symbol]                       0x00000000   Number         0  drtrvct2_2{000a0000}-28.o ABSOLUTE
    [Anonymous Symbol]                       0x00000000   Number         0  QtCore{00040703}-3163.o ABSOLUTE
    [Anonymous Symbol]                       0x00000000   Number         0  QtCore{00040703}-1836.o ABSOLUTE
    [Anonymous Symbol]                       0x00000000   Number         0  QtCore{00040703}-150.o ABSOLUTE
    [Anonymous Symbol]                       0x00000000   Number         0  QtCore{00040703}-3170.o ABSOLUTE
    [Anonymous Symbol]                       0x00000000   Number         0  QtCore{00040703}-1839.o ABSOLUTE
    [Anonymous Symbol]                       0x00000000   Number         0  QtCore{00040703}-153.o ABSOLUTE
    [Anonymous Symbol]                       0x00000000   Number         0  QtCore{00040703}-3171.o ABSOLUTE
    [Anonymous Symbol]                       0x00000000   Number         0  QtCore{00040703}-1842.o ABSOLUTE
    [Anonymous Symbol]                       0x00000000   Number         0  QtCore{00040703}-1560.o ABSOLUTE
    [Anonymous Symbol]                       0x00000000   Number         0  QtCore{00040703}-3173.o ABSOLUTE
    [Anonymous Symbol]                       0x00000000   Number         0  QtCore{00040703}-1844.o ABSOLUTE
    [Anonymous Symbol]                       0x00000000   Number         0  QtCore{00040703}-1582.o ABSOLUTE
    [Anonymous Symbol]                       0x00000000   Number         0  QtCore{00040703}-3186.o ABSOLUTE
    [Anonymous Symbol]                       0x00000000   Number         0  QtCore{00040703}-1874.o ABSOLUTE
    [Anonymous Symbol]                       0x00000000   Number         0  QtCore{00040703}-159.o ABSOLUTE
    [Anonymous Symbol]                       0x00000000   Number         0  QtCore{00040703}-3187.o ABSOLUTE
    [Anonymous Symbol]                       0x00000000   Number         0  QtCore{00040703}-1875.o ABSOLUTE
    [Anonymous Symbol]                       0x00000000   Number         0  QtCore{00040703}-160.o ABSOLUTE
    [Anonymous Symbol]                       0x00000000   Number         0  QtCore{00040703}-32.o ABSOLUTE
    [Anonymous Symbol]                       0x00000000   Number         0  QtCore{00040703}-1885.o ABSOLUTE
    [Anonymous Symbol]                       0x00000000   Number         0  QtCore{00040703}-1603.o ABSOLUTE
    [Anonymous Symbol]                       0x00000000   Number         0  QtCore{00040703}-3212.o ABSOLUTE
    [Anonymous Symbol]                       0x00000000   Number         0  QtCore{00040703}-1947.o ABSOLUTE
    [Anonymous Symbol]                       0x00000000   Number         0  QtCore{00040703}-1607.o ABSOLUTE
    [Anonymous Symbol]                       0x00000000   Number         0  QtCore{00040703}-3218.o ABSOLUTE
    [Anonymous Symbol]                       0x00000000   Number         0  QtCore{00040703}-1949.o ABSOLUTE
    [Anonymous Symbol]                       0x00000000   Number         0  QtCore{00040703}-1610.o ABSOLUTE
    [Anonymous Symbol]                       0x00000000   Number         0  QtCore{00040703}-3219.o ABSOLUTE
    [Anonymous Symbol]                       0x00000000   Number         0  QtCore{00040703}-202.o ABSOLUTE
    [Anonymous Symbol]                       0x00000000   Number         0  QtCore{00040703}-1622.o ABSOLUTE
    [Anonymous Symbol]                       0x00000000   Number         0  QtCore{00040703}-324.o ABSOLUTE
    [Anonymous Symbol]                       0x00000000   Number         0  QtCore{00040703}-2034.o ABSOLUTE
    [Anonymous Symbol]                       0x00000000   Number         0  QtCore{00040703}-1631.o ABSOLUTE
    [Anonymous Symbol]                       0x00000000   Number         0  QtCore{00040703}-330.o ABSOLUTE
    [Anonymous Symbol]                       0x00000000   Number         0  QtCore{00040703}-2036.o ABSOLUTE
    [Anonymous Symbol]                       0x00000000   Number         0  QtCore{00040703}-1643.o ABSOLUTE
    [Anonymous Symbol]                       0x00000000   Number         0  QtCore{00040703}-331.o ABSOLUTE
    [Anonymous Symbol]                       0x00000000   Number         0  QtCore{00040703}-2040.o ABSOLUTE
    [Anonymous Symbol]                       0x00000000   Number         0  QtCore{00040703}-167.o ABSOLUTE
    [Anonymous Symbol]                       0x00000000   Number         0  QtCore{00040703}-332.o ABSOLUTE
    [Anonymous Symbol]                       0x00000000   Number         0  QtCore{00040703}-2043.o ABSOLUTE
    [Anonymous Symbol]                       0x00000000   Number         0  QtCore{00040703}-1670.o ABSOLUTE
    [Anonymous Symbol]                       0x00000000   Number         0  QtCore{00040703}-3607.o ABSOLUTE
    [Anonymous Symbol]                       0x00000000   Number         0  QtCore{00040703}-206.o ABSOLUTE
    [Anonymous Symbol]                       0x00000000   Number         0  QtCore{00040703}-1671.o ABSOLUTE
    [Anonymous Symbol]                       0x00000000   Number         0  QtCore{00040703}-3608.o ABSOLUTE
    [Anonymous Symbol]                       0x00000000   Number         0  QtCore{00040703}-2082.o ABSOLUTE
    [Anonymous Symbol]                       0x00000000   Number         0  QtCore{00040703}-1674.o ABSOLUTE
    [Anonymous Symbol]                       0x00000000   Number         0  QtCore{00040703}-3609.o ABSOLUTE
    [Anonymous Symbol]                       0x00000000   Number         0  QtCore{00040703}-2084.o ABSOLUTE
    [Anonymous Symbol]                       0x00000000   Number         0  QtCore{00040703}-1676.o ABSOLUTE
    [Anonymous Symbol]                       0x00000000   Number         0  QtCore{00040703}-3610.o ABSOLUTE
    [Anonymous Symbol]                       0x00000000   Number         0  QtCore{00040703}-2097.o ABSOLUTE
    [Anonymous Symbol]                       0x00000000   Number         0  QtCore{00040703}-168.o ABSOLUTE
    [Anonymous Symbol]                       0x00000000   Number         0  QtCore{00040703}-3689.o ABSOLUTE
    [Anonymous Symbol]                       0x00000000   Number         0  QtCore{00040703}-2103.o ABSOLUTE
    [Anonymous Symbol]                       0x00000000   Number         0  QtCore{00040703}-175.o ABSOLUTE
    [Anonymous Symbol]                       0x00000000   Number         0  QtCore{00040703}-3691.o ABSOLUTE
    [Anonymous Symbol]                       0x00000000   Number         0  QtCore{00040703}-2104.o ABSOLUTE
    [Anonymous Symbol]                       0x00000000   Number         0  QtCore{00040703}-1760.o ABSOLUTE
    [Anonymous Symbol]                       0x00000000   Number         0  QtCore{00040703}-3692.o ABSOLUTE
    [Anonymous Symbol]                       0x00000000   Number         0  QtCore{00040703}-2105.o ABSOLUTE
    [Anonymous Symbol]                       0x00000000   Number         0  QtCore{00040703}-1763.o ABSOLUTE
    [Anonymous Symbol]                       0x00000000   Number         0  QtCore{00040703}-56.o ABSOLUTE
    [Anonymous Symbol]                       0x00000000   Number         0  QtCore{00040703}-2110.o ABSOLUTE
    [Anonymous Symbol]                       0x00000000   Number         0  QtCore{00040703}-1764.o ABSOLUTE
    [Anonymous Symbol]                       0x00000000   Number         0  QtCore{00040703}-70.o ABSOLUTE
    [Anonymous Symbol]                       0x00000000   Number         0  QtCore{00040703}-2112.o ABSOLUTE
    [Anonymous Symbol]                       0x00000000   Number         0  QtCore{00040703}-1766.o ABSOLUTE
    [Anonymous Symbol]                       0x00000000   Number         0  QtCore{00040703}-73.o ABSOLUTE
    [Anonymous Symbol]                       0x00000000   Number         0  QtCore{00040703}-2122.o ABSOLUTE
    [Anonymous Symbol]                       0x00000000   Number         0  QtCore{00040703}-1767.o ABSOLUTE
    [Anonymous Symbol]                       0x00000000   Number         0  QtCore{00040703}-95.o ABSOLUTE
    [Anonymous Symbol]                       0x00000000   Number         0  QtCore{00040703}-2130.o ABSOLUTE
    [Anonymous Symbol]                       0x00000000   Number         0  euser{000a0000}-202.o ABSOLUTE
    [Anonymous Symbol]                       0x00000000   Number         0  QtCore{00040703}-96.o ABSOLUTE
    [Anonymous Symbol]                       0x00000000   Number         0  QtCore{00040703}-2134.o ABSOLUTE
    [Anonymous Symbol]                       0x00000000   Number         0  euser{000a0000}-203.o ABSOLUTE
    [Anonymous Symbol]                       0x00000000   Number         0  libc{00010000}-232.o ABSOLUTE
    [Anonymous Symbol]                       0x00000000   Number         0  QtCore{00040703}-2141.o ABSOLUTE
    [Anonymous Symbol]                       0x00000000   Number         0  euser{000a0000}-205.o ABSOLUTE
    [Anonymous Symbol]                       0x00000000   Number         0  libc{00010000}-350.o ABSOLUTE
    [Anonymous Symbol]                       0x00000000   Number         0  QtCore{00040703}-2142.o ABSOLUTE
    [Anonymous Symbol]                       0x00000000   Number         0  euser{000a0000}-2060.o ABSOLUTE
    [Anonymous Symbol]                       0x00000000   Number         0  euser{000a0000}-1032.o ABSOLUTE
    [Anonymous Symbol]                       0x00000000   Number         0  QtCore{00040703}-2143.o ABSOLUTE
    [Anonymous Symbol]                       0x00000000   Number         0  euser{000a0000}-2061.o ABSOLUTE
    [Anonymous Symbol]                       0x00000000   Number         0  euser{000a0000}-1033.o ABSOLUTE
    [Anonymous Symbol]                       0x00000000   Number         0  QtCore{00040703}-2169.o ABSOLUTE
    [Anonymous Symbol]                       0x00000000   Number         0  euser{000a0000}-207.o ABSOLUTE
    [Anonymous Symbol]                       0x00000000   Number         0  euser{000a0000}-1034.o ABSOLUTE
    [Anonymous Symbol]                       0x00000000   Number         0  QtCore{00040703}-2186.o ABSOLUTE
    [Anonymous Symbol]                       0x00000000   Number         0  euser{000a0000}-208.o ABSOLUTE
    [Anonymous Symbol]                       0x00000000   Number         0  euser{000a0000}-1088.o ABSOLUTE
    [Anonymous Symbol]                       0x00000000   Number         0  QtCore{00040703}-2188.o ABSOLUTE
    [Anonymous Symbol]                       0x00000000   Number         0  euser{000a0000}-2082.o ABSOLUTE
    [Anonymous Symbol]                       0x00000000   Number         0  euser{000a0000}-1089.o ABSOLUTE
    [Anonymous Symbol]                       0x00000000   Number         0  QtCore{00040703}-2190.o ABSOLUTE
    [Anonymous Symbol]                       0x00000000   Number         0  euser{000a0000}-209.o ABSOLUTE
    [Anonymous Symbol]                       0x00000000   Number         0  euser{000a0000}-1090.o ABSOLUTE
    [Anonymous Symbol]                       0x00000000   Number         0  QtCore{00040703}-2191.o ABSOLUTE
    [Anonymous Symbol]                       0x00000000   Number         0  euser{000a0000}-2123.o ABSOLUTE
    [Anonymous Symbol]                       0x00000000   Number         0  euser{000a0000}-1091.o ABSOLUTE
    [Anonymous Symbol]                       0x00000000   Number         0  euser{000a0000}-2128.o ABSOLUTE
    [Anonymous Symbol]                       0x00000000   Number         0  imcm{000a0000}-382.o ABSOLUTE
    [Anonymous Symbol]                       0x00000000   Number         0  euser{000a0000}-1094.o ABSOLUTE
    [Anonymous Symbol]                       0x00000000   Number         0  euser{000a0000}-247.o ABSOLUTE
    [Anonymous Symbol]                       0x00000000   Number         0  imcm{000a0000}-385.o ABSOLUTE
    [Anonymous Symbol]                       0x00000000   Number         0  euser{000a0000}-1116.o ABSOLUTE
    [Anonymous Symbol]                       0x00000000   Number         0  euser{000a0000}-250.o ABSOLUTE
    [Anonymous Symbol]                       0x00000000   Number         0  imcm{000a0000}-393.o ABSOLUTE
    [Anonymous Symbol]                       0x00000000   Number         0  euser{000a0000}-1119.o ABSOLUTE
    [Anonymous Symbol]                       0x00000000   Number         0  euser{000a0000}-424.o ABSOLUTE
    [Anonymous Symbol]                       0x00000000   Number         0  imcm{000a0000}-410.o ABSOLUTE
    [Anonymous Symbol]                       0x00000000   Number         0  euser{000a0000}-1169.o ABSOLUTE
    [Anonymous Symbol]                       0x00000000   Number         0  euser{000a0000}-46.o ABSOLUTE
    [Anonymous Symbol]                       0x00000000   Number         0  imcm{000a0000}-523.o ABSOLUTE
    [Anonymous Symbol]                       0x00000000   Number         0  euser{000a0000}-1170.o ABSOLUTE
    [Anonymous Symbol]                       0x00000000   Number         0  euser{000a0000}-471.o ABSOLUTE
    [Anonymous Symbol]                       0x00000000   Number         0  imcm{000a0000}-524.o ABSOLUTE
    [Anonymous Symbol]                       0x00000000   Number         0  euser{000a0000}-1171.o ABSOLUTE
    [Anonymous Symbol]                       0x00000000   Number         0  euser{000a0000}-472.o ABSOLUTE
    [Anonymous Symbol]                       0x00000000   Number         0  imcm{000a0000}-528.o ABSOLUTE
    [Anonymous Symbol]                       0x00000000   Number         0  euser{000a0000}-120.o ABSOLUTE
    [Anonymous Symbol]                       0x00000000   Number         0  QtCore{00040703}-2332.o ABSOLUTE
    [Anonymous Symbol]                       0x00000000   Number         0  msgs{000a0000}-365.o ABSOLUTE
    [Anonymous Symbol]                       0x00000000   Number         0  euser{000a0000}-1468.o ABSOLUTE
    [Anonymous Symbol]                       0x00000000   Number         0  etext{000a0000}-122.o ABSOLUTE
    [Anonymous Symbol]                       0x00000000   Number         0  msgs{000a0000}-369.o ABSOLUTE
    [Anonymous Symbol]                       0x00000000   Number         0  euser{000a0000}-1469.o ABSOLUTE
    [Anonymous Symbol]                       0x00000000   Number         0  etext{000a0000}-178.o ABSOLUTE
    [Anonymous Symbol]                       0x00000000   Number         0  msgs{000a0000}-370.o ABSOLUTE
    [Anonymous Symbol]                       0x00000000   Number         0  euser{000a0000}-1474.o ABSOLUTE
    [Anonymous Symbol]                       0x00000000   Number         0  efsrv{000a0000}-141.o ABSOLUTE
    [Anonymous Symbol]                       0x00000000   Number         0  msgs{000a0000}-371.o ABSOLUTE
    [Anonymous Symbol]                       0x00000000   Number         0  euser{000a0000}-1477.o ABSOLUTE
    [Anonymous Symbol]                       0x00000000   Number         0  efsrv{000a0000}-143.o ABSOLUTE
    [Anonymous Symbol]                       0x00000000   Number         0  msgs{000a0000}-376.o ABSOLUTE
    [Anonymous Symbol]                       0x00000000   Number         0  euser{000a0000}-1478.o ABSOLUTE
    [Anonymous Symbol]                       0x00000000   Number         0  efsrv{000a0000}-255.o ABSOLUTE
    [Anonymous Symbol]                       0x00000000   Number         0  msgs{000a0000}-377.o ABSOLUTE
    [Anonymous Symbol]                       0x00000000   Number         0  euser{000a0000}-1479.o ABSOLUTE
    [Anonymous Symbol]                       0x00000000   Number         0  efsrv{000a0000}-264.o ABSOLUTE
    [Anonymous Symbol]                       0x00000000   Number         0  msgs{000a0000}-378.o ABSOLUTE
    [Anonymous Symbol]                       0x00000000   Number         0  euser{000a0000}-1480.o ABSOLUTE
    [Anonymous Symbol]                       0x00000000   Number         0  efsrv{000a0000}-27.o ABSOLUTE
    [Anonymous Symbol]                       0x00000000   Number         0  msgs{000a0000}-384.o ABSOLUTE
    [Anonymous Symbol]                       0x00000000   Number         0  euser{000a0000}-1481.o ABSOLUTE
    [Anonymous Symbol]                       0x00000000   Number         0  efsrv{000a0000}-298.o ABSOLUTE
    [Anonymous Symbol]                       0x00000000   Number         0  msgs{000a0000}-386.o ABSOLUTE
    [Anonymous Symbol]                       0x00000000   Number         0  euser{000a0000}-1482.o ABSOLUTE
    [Anonymous Symbol]                       0x00000000   Number         0  efsrv{000a0000}-300.o ABSOLUTE
    [Anonymous Symbol]                       0x00000000   Number         0  msgs{000a0000}-391.o ABSOLUTE
    [Anonymous Symbol]                       0x00000000   Number         0  euser{000a0000}-1507.o ABSOLUTE
    [Anonymous Symbol]                       0x00000000   Number         0  efsrv{000a0000}-52.o ABSOLUTE
    [Anonymous Symbol]                       0x00000000   Number         0  msgs{000a0000}-402.o ABSOLUTE
    [Anonymous Symbol]                       0x00000000   Number         0  euser{000a0000}-1510.o ABSOLUTE
    [Anonymous Symbol]                       0x00000000   Number         0  efsrv{000a0000}-68.o ABSOLUTE
    [Anonymous Symbol]                       0x00000000   Number         0  msgs{000a0000}-404.o ABSOLUTE
    [Anonymous Symbol]                       0x00000000   Number         0  euser{000a0000}-1553.o ABSOLUTE
    [Anonymous Symbol]                       0x00000000   Number         0  efsrv{000a0000}-70.o ABSOLUTE
    [Anonymous Symbol]                       0x00000000   Number         0  msgs{000a0000}-405.o ABSOLUTE
    [Anonymous Symbol]                       0x00000000   Number         0  euser{000a0000}-1590.o ABSOLUTE
    [Anonymous Symbol]                       0x00000000   Number         0  efsrv{000a0000}-93.o ABSOLUTE
    [Anonymous Symbol]                       0x00000000   Number         0  msgs{000a0000}-408.o ABSOLUTE
    [Anonymous Symbol]                       0x00000000   Number         0  euser{000a0000}-1591.o ABSOLUTE
    [Anonymous Symbol]                       0x00000000   Number         0  efsrv{000a0000}-94.o ABSOLUTE
    [Anonymous Symbol]                       0x00000000   Number         0  msgs{000a0000}-467.o ABSOLUTE
    [Anonymous Symbol]                       0x00000000   Number         0  euser{000a0000}-1593.o ABSOLUTE
    [Anonymous Symbol]                       0x00000000   Number         0  efsrv{000a0000}-97.o ABSOLUTE
    [Anonymous Symbol]                       0x00000000   Number         0  msgs{000a0000}-469.o ABSOLUTE
    [Anonymous Symbol]                       0x00000000   Number         0  euser{000a0000}-1601.o ABSOLUTE
    [Anonymous Symbol]                       0x00000000   Number         0  CHARCONV{000a0000}-6.o ABSOLUTE
    [Anonymous Symbol]                       0x00000000   Number         0  msgs{000a0000}-470.o ABSOLUTE
    [Anonymous Symbol]                       0x00000000   Number         0  euser{000a0000}-1602.o ABSOLUTE
    [Anonymous Symbol]                       0x00000000   Number         0  CHARCONV{000a0000}-8.o ABSOLUTE
    [Anonymous Symbol]                       0x00000000   Number         0  msgs{000a0000}-471.o ABSOLUTE
    [Anonymous Symbol]                       0x00000000   Number         0  euser{000a0000}-1679.o ABSOLUTE
    [Anonymous Symbol]                       0x00000000   Number         0  gsmu{000a0000}-149.o ABSOLUTE
    [Anonymous Symbol]                       0x00000000   Number         0  msgs{000a0000}-473.o ABSOLUTE
    [Anonymous Symbol]                       0x00000000   Number         0  euser{000a0000}-1719.o ABSOLUTE
    [Anonymous Symbol]                       0x00000000   Number         0  gsmu{000a0000}-258.o ABSOLUTE
    [Anonymous Symbol]                       0x00000000   Number         0  msgs{000a0000}-477.o ABSOLUTE
    [Anonymous Symbol]                       0x00000000   Number         0  euser{000a0000}-1733.o ABSOLUTE
    [Anonymous Symbol]                       0x00000000   Number         0  gsmu{000a0000}-261.o ABSOLUTE
    [Anonymous Symbol]                       0x00000000   Number         0  msgs{000a0000}-630.o ABSOLUTE
    [Anonymous Symbol]                       0x00000000   Number         0  euser{000a0000}-1806.o ABSOLUTE
    [Anonymous Symbol]                       0x00000000   Number         0  gsmu{000a0000}-268.o ABSOLUTE
    [Anonymous Symbol]                       0x00000000   Number         0  msgs{000a0000}-631.o ABSOLUTE
    [Anonymous Symbol]                       0x00000000   Number         0  euser{000a0000}-1807.o ABSOLUTE
    [Anonymous Symbol]                       0x00000000   Number         0  gsmu{000a0000}-280.o ABSOLUTE
    [Anonymous Symbol]                       0x00000000   Number         0  msgs{000a0000}-640.o ABSOLUTE
    [Anonymous Symbol]                       0x00000000   Number         0  euser{000a0000}-1821.o ABSOLUTE
    [Anonymous Symbol]                       0x00000000   Number         0  imcm{000a0000}-11.o ABSOLUTE
    [Anonymous Symbol]                       0x00000000   Number         0  msgs{000a0000}-643.o ABSOLUTE
    [Anonymous Symbol]                       0x00000000   Number         0  SENDUI{000a0000}-7.o ABSOLUTE
    [Anonymous Symbol]                       0x00000000   Number         0  imcm{000a0000}-17.o ABSOLUTE
    [Anonymous Symbol]                       0x00000000   Number         0  msgs{000a0000}-660.o ABSOLUTE
    [Anonymous Symbol]                       0x00000000   Number         0  msgs{000a0000}-103.o ABSOLUTE
    [Anonymous Symbol]                       0x00000000   Number         0  imcm{000a0000}-18.o ABSOLUTE
    [Anonymous Symbol]                       0x00000000   Number         0  msgs{000a0000}-665.o ABSOLUTE
    [Anonymous Symbol]                       0x00000000   Number         0  msgs{000a0000}-168.o ABSOLUTE
    [Anonymous Symbol]                       0x00000000   Number         0  imcm{000a0000}-20.o ABSOLUTE
    [Anonymous Symbol]                       0x00000000   Number         0  smcm{000a0000}-44.o ABSOLUTE
    [Anonymous Symbol]                       0x00000000   Number         0  msgs{000a0000}-22.o ABSOLUTE
    [Anonymous Symbol]                       0x00000000   Number         0  imcm{000a0000}-228.o ABSOLUTE
    [Anonymous Symbol]                       0x00000000   Number         0  smcm{000a0000}-5.o ABSOLUTE
    [Anonymous Symbol]                       0x00000000   Number         0  msgs{000a0000}-249.o ABSOLUTE
    [Anonymous Symbol]                       0x00000000   Number         0  imcm{000a0000}-356.o ABSOLUTE
    [Anonymous Symbol]                       0x00000000   Number         0  apgrfx{000a0000}-151.o ABSOLUTE
    [Anonymous Symbol]                       0x00000000   Number         0  msgs{000a0000}-250.o ABSOLUTE
    [Anonymous Symbol]                       0x00000000   Number         0  imcm{000a0000}-370.o ABSOLUTE
    [Anonymous Symbol]                       0x00000000   Number         0  apgrfx{000a0000}-25.o ABSOLUTE
    [Anonymous Symbol]                       0x00000000   Number         0  msgs{000a0000}-254.o ABSOLUTE
    [Anonymous Symbol]                       0x00000000   Number         0  imcm{000a0000}-372.o ABSOLUTE
    [Anonymous Symbol]                       0x00000000   Number         0  apgrfx{000a0000}-28.o ABSOLUTE
    [Anonymous Symbol]                       0x00000000   Number         0  msgs{000a0000}-294.o ABSOLUTE
    [Anonymous Symbol]                       0x00000000   Number         0  imcm{000a0000}-373.o ABSOLUTE
    [Anonymous Symbol]                       0x00000000   Number         0  apgrfx{000a0000}-323.o ABSOLUTE
    [Anonymous Symbol]                       0x00000000   Number         0  msgs{000a0000}-295.o ABSOLUTE
    [Anonymous Symbol]                       0x00000000   Number         0  imcm{000a0000}-375.o ABSOLUTE
    [Anonymous Symbol]                       0x00000000   Number         0  apmime{000a0000}-61.o ABSOLUTE
    [Anonymous Symbol]                       0x00000000   Number         0  msgs{000a0000}-339.o ABSOLUTE
    [Anonymous Symbol]                       0x00000000   Number         0  euser{000a0000}-2125.o ABSOLUTE
    [Anonymous Symbol]                       0x00000000   Number         0  apmime{000a0000}-79.o ABSOLUTE
    [Anonymous Symbol]                       0x00000000   Number         0  msgs{000a0000}-34.o ABSOLUTE
    [Anonymous Symbol]                       0x00000000   Number         0  QtCore{00040703}-2193.o ABSOLUTE
    [Anonymous Symbol]                       0x00000000   Number         0  libstdcpp{00010000}-988.o ABSOLUTE
    [Anonymous Symbol]                       0x00000000   Number         0  msgs{000a0000}-343.o ABSOLUTE
    [Anonymous Symbol]                       0x00000000   Number         0  QtCore{00040703}-2196.o ABSOLUTE
    [Anonymous Symbol]                       0x00000000   Number         0  libstdcpp{00010000}-992.o ABSOLUTE
    [Anonymous Symbol]                       0x00000000   Number         0  msgs{000a0000}-354.o ABSOLUTE
    [Anonymous Symbol]                       0x00000000   Number         0  QtCore{00040703}-2197.o ABSOLUTE
    [Anonymous Symbol]                       0x00000000   Number         0  QtCore{00040703}-126.o ABSOLUTE
    [Anonymous Symbol]                       0x00000000   Number         0  msgs{000a0000}-355.o ABSOLUTE
    [Anonymous Symbol]                       0x00000000   Number         0  QtCore{00040703}-2199.o ABSOLUTE
    [Anonymous Symbol]                       0x00000000   Number         0  QtCore{00040703}-128.o ABSOLUTE
    [Anonymous Symbol]                       0x00000000   Number         0  msgs{000a0000}-358.o ABSOLUTE
    [Anonymous Symbol]                       0x00000000   Number         0  QtCore{00040703}-229.o ABSOLUTE
    [Anonymous Symbol]                       0x00000000   Number         0  QtCore{00040703}-133.o ABSOLUTE
    [Anonymous Symbol]                       0x00000000   Number         0  msgs{000a0000}-361.o ABSOLUTE
    [Anonymous Symbol]                       0x00000000   Number         0  QtCore{00040703}-2321.o ABSOLUTE
    [Anonymous Symbol]                       0x00000000   Number         0  QtCore{00040703}-140.o ABSOLUTE
    [Anonymous Symbol]                       0x00000000   Number         0  msgs{000a0000}-364.o ABSOLUTE
    [Anonymous Symbol]                       0x00000000   Number         0  msgs{000a0000}-700.o ABSOLUTE
    [Anonymous Symbol]                       0x00000000   Number         0  etext{000a0000}-117.o ABSOLUTE
    [Anonymous Symbol]                       0x00000000   Number         0  msgs{000a0000}-716.o ABSOLUTE
    [Anonymous Symbol]                       0x00000000   Number         0  msgs{000a0000}-707.o ABSOLUTE
    [Anonymous Symbol]                       0x00000000   Number         0  SENDUI{000a0000}-4.o ABSOLUTE
    [Anonymous Symbol]                       0x00000000   Number         0  msgs{000a0000}-798.o ABSOLUTE
    [Anonymous Symbol]                       0x00000000   Number         0  msgs{000a0000}-711.o ABSOLUTE
    [Anonymous Symbol]                       0x00000000   Number         0  SENDUI{000a0000}-49.o ABSOLUTE
    [Anonymous Symbol]                       0x00000000   Number         0  SENDUI{000a0000}-11.o ABSOLUTE
    [Anonymous Symbol]                       0x00000000   Number         0  msgs{000a0000}-712.o ABSOLUTE
    [Anonymous Symbol]                       0x00000000   Number         0  SENDUI{000a0000}-5.o ABSOLUTE
    [Anonymous Symbol]                       0x00000000   Number         0  SENDUI{000a0000}-2.o ABSOLUTE
    [Anonymous Symbol]                       0x00000000   Number         0  msgs{000a0000}-715.o ABSOLUTE
    [Anonymous Symbol]                       0x00000000   Number         0  SENDUI{000a0000}-50.o ABSOLUTE
    [Anonymous Symbol]                       0x00000000   Number         0  SENDUI{000a0000}-3.o ABSOLUTE
    [Anonymous Symbol]                       0x00000000   Number         0  msgs{000a0000}-832.o ABSOLUTE
    [Anonymous Symbol]                       0x00000000   Number         0  SENDUI{000a0000}-6.o ABSOLUTE
    [Anonymous Symbol]                       0x00000000   Number         0  msgs{000a0000}-828.o ABSOLUTE
    [Anonymous Symbol]                       0x00000000   Number         0  msgs{000a0000}-833.o ABSOLUTE
    [Anonymous Symbol]                       0x00000000   Number         0  msgs{000a0000}-802.o ABSOLUTE
    [Anonymous Symbol]                       0x00000000   Number         0  msgs{000a0000}-829.o ABSOLUTE
    [Anonymous Symbol]                       0x00000000   Number         0  msgs{000a0000}-799.o ABSOLUTE
    [Anonymous Symbol]                       0x00000000   Number         0  imcm{000a0000}-381.o ABSOLUTE
    [Anonymous Symbol]                       0x00000000   Number         0  msgs{000a0000}-801.o ABSOLUTE
    [Anonymous Symbol]                       0x00000000   Number         0  QtCore{00040703}-2330.o ABSOLUTE
    ..\..\..\..\EPOC32\BUILD\s60\osext\mobileruntime\group\LIBSTDCPP\ARMV5\VtblExports.s 0x00000000   Number         0  VtblExports.o ABSOLUTE
    \EPOC32\BUILD\s60\app\messaging\group\SENDUI\ARMV5\VtblExports.s 0x00000000   Number         0  VtblExports.o ABSOLUTE
    \EPOC32\BUILD\s60\mw\classicui\group\CHARCONV\ARMV5\VtblExports.s 0x00000000   Number         0  VtblExports.o ABSOLUTE
    \EPOC32\BUILD\src\cedar\generic\base\e32\compsupp\DRTAEABI\ARMV5\VtblExports.s 0x00000000   Number         0  VtblExports.o ABSOLUTE
    \EPOC32\BUILD\src\cedar\generic\base\e32\euser\EDLL\ARMV5\urel\uc_dll_.cpp 0x00000000   Number         0  uc_dll_.o ABSOLUTE
    \EPOC32\BUILD\src\cedar\generic\base\e32\euser\EUSER\ARMV5\VtblExports.s 0x00000000   Number         0  VtblExports.o ABSOLUTE
    \EPOC32\BUILD\src\cedar\generic\base\f32\group\EFSRV\ARMV5\VtblExports.s 0x00000000   Number         0  VtblExports.o ABSOLUTE
    \EPOC32\BUILD\src\common\generic\app-framework\apparc\group\APGRFX\ARMV5\VtblExports.s 0x00000000   Number         0  VtblExports.o ABSOLUTE
    \EPOC32\BUILD\src\common\generic\app-framework\cone\group\CONE\ARMV5\VtblExports.s 0x00000000   Number         0  VtblExports.o ABSOLUTE
    \EPOC32\BUILD\src\common\generic\app-framework\emime\group\APMIME\ARMV5\VtblExports.s 0x00000000   Number         0  VtblExports.o ABSOLUTE
    \EPOC32\BUILD\src\common\generic\app-framework\etext\group\ETEXT\ARMV5\VtblExports.s 0x00000000   Number         0  VtblExports.o ABSOLUTE
    \EPOC32\BUILD\src\common\generic\app-framework\uikon\group\EIKCORE\ARMV5\VtblExports.s 0x00000000   Number         0  VtblExports.o ABSOLUTE
    \EPOC32\BUILD\src\common\generic\messaging\email\group\IMCM\ARMV5\VtblExports.s 0x00000000   Number         0  VtblExports.o ABSOLUTE
    \EPOC32\BUILD\src\common\generic\messaging\framework\group\MSGS\ARMV5\VtblExports.s 0x00000000   Number         0  VtblExports.o ABSOLUTE
    \EPOC32\BUILD\src\common\generic\messaging\framework\group\MTUR\ARMV5\VtblExports.s 0x00000000   Number         0  VtblExports.o ABSOLUTE
    \EPOC32\BUILD\src\common\generic\messaging\sendas2\group\SENDAS2\ARMV5\VtblExports.s 0x00000000   Number         0  VtblExports.o ABSOLUTE
    \EPOC32\BUILD\src\common\generic\messaging\sms\multimode\Group\SMCM_LIB\ARMV5\VtblExports.s 0x00000000   Number         0  VtblExports.o ABSOLUTE
    \EPOC32\BUILD\src\common\generic\nbprotocols\smsstackv2\group\GSMU\ARMV5\VtblExports.s 0x00000000   Number         0  VtblExports.o ABSOLUTE
    \EPOC32\BUILD\src\common\generic\syslibs\bafl\group\BAFL\ARMV5\VtblExports.s 0x00000000   Number         0  VtblExports.o ABSOLUTE
    \EPOC32\BUILD\src\common\generic\syslibs\ecom\ongoing\Group\ECOM\ARMV5\VtblExports.s 0x00000000   Number         0  VtblExports.o ABSOLUTE
    \EPOC32\BUILD\wk29\stdlibs\group\LIBC\ARMV5\VtblExports.s 0x00000000   Number         0  VtblExports.o ABSOLUTE
    \EPOC32\BUILD\wk29\stdlibs\group\LIBDL\ARMV5\VtblExports.s 0x00000000   Number         0  VtblExports.o ABSOLUTE
    \EPOC32\BUILD\wk29\stdlibs\group\LIBM\ARMV5\VtblExports.s 0x00000000   Number         0  VtblExports.o ABSOLUTE
    \EPOC32\BUILD\wk29\stdlibs\group\LIBPTHREAD\ARMV5\VtblExports.s 0x00000000   Number         0  VtblExports.o ABSOLUTE
    \\EPOC32\\BUILD\\src\\cedar\\generic\\base\\e32\\euser\\EDLL\\ARMV5\\urel\\uc_dll_.cpp 0x00000000   Number         0  uc_dll_.o ABSOLUTE
    \\src\\cedar\\generic\\base\\e32\\compsupp\\RVCT2_2\\ucppinit_aeabi.cpp 0x00000000   Number         0  ucppinit_aeabi.o ABSOLUTE
    \dev\symb\SDKs\32\EPOC32\BUILD\iwmake\buildS60____PADDING________\src\QTCORE_DLL\ARMV6\VtblExports.s 0x00000000   Number         0  VtblExports.o ABSOLUTE
    \dev\symb\SDKs\32\EPOC32\BUILD\iwmake\buildS60____PADDING________\src\QTGUI_DLL\ARMV6\VtblExports.s 0x00000000   Number         0  VtblExports.o ABSOLUTE
    \s60\5.0\EPOC32\BUILD\scripts\5.0\qtmobility\QTMESSAGING_DLL\ARMV5\urel\QtMessaging{00010103}.s 0x00000000   Number         0  QtMessaging{00010103}.exp ABSOLUTE
    \scripts\5.0\qtmobility\src\messaging\addresshelper.cpp 0x00000000   Number         0  QtMessaging.in ABSOLUTE
    \scripts\5.0\qtmobility\src\messaging\maemohelpers.cpp 0x00000000   Number         0  QtMessaging.in ABSOLUTE
    \scripts\5.0\qtmobility\src\messaging\messagingutil.cpp 0x00000000   Number         0  QtMessaging.in ABSOLUTE
    \scripts\5.0\qtmobility\src\messaging\qmessage.cpp 0x00000000   Number         0  QtMessaging.in ABSOLUTE
    \scripts\5.0\qtmobility\src\messaging\qmessage_symbian.cpp 0x00000000   Number         0  QtMessaging.in ABSOLUTE
    \scripts\5.0\qtmobility\src\messaging\qmessageaccount.cpp 0x00000000   Number         0  QtMessaging.in ABSOLUTE
    \scripts\5.0\qtmobility\src\messaging\qmessageaccount_symbian.cpp 0x00000000   Number         0  QtMessaging.in ABSOLUTE
    \scripts\5.0\qtmobility\src\messaging\qmessageaccountfilter.cpp 0x00000000   Number         0  QtMessaging.in ABSOLUTE
    \scripts\5.0\qtmobility\src\messaging\qmessageaccountfilter_symbian.cpp 0x00000000   Number         0  QtMessaging.in ABSOLUTE
    \scripts\5.0\qtmobility\src\messaging\qmessageaccountid.cpp 0x00000000   Number         0  QtMessaging.in ABSOLUTE
    \scripts\5.0\qtmobility\src\messaging\qmessageaccountid_symbian.cpp 0x00000000   Number         0  QtMessaging.in ABSOLUTE
    \scripts\5.0\qtmobility\src\messaging\qmessageaccountsortorder.cpp 0x00000000   Number         0  QtMessaging.in ABSOLUTE
    \scripts\5.0\qtmobility\src\messaging\qmessageaccountsortorder_symbian.cpp 0x00000000   Number         0  QtMessaging.in ABSOLUTE
    \scripts\5.0\qtmobility\src\messaging\qmessageaddress.cpp 0x00000000   Number         0  QtMessaging.in ABSOLUTE
    \scripts\5.0\qtmobility\src\messaging\qmessagecontentcontainer.cpp 0x00000000   Number         0  QtMessaging.in ABSOLUTE
    \scripts\5.0\qtmobility\src\messaging\qmessagecontentcontainer_symbian.cpp 0x00000000   Number         0  QtMessaging.in ABSOLUTE
    \scripts\5.0\qtmobility\src\messaging\qmessagecontentcontainerid.cpp 0x00000000   Number         0  QtMessaging.in ABSOLUTE
    \scripts\5.0\qtmobility\src\messaging\qmessagecontentcontainerid_symbian.cpp 0x00000000   Number         0  QtMessaging.in ABSOLUTE
    \scripts\5.0\qtmobility\src\messaging\qmessagefilter.cpp 0x00000000   Number         0  QtMessaging.in ABSOLUTE
    \scripts\5.0\qtmobility\src\messaging\qmessagefilter_symbian.cpp 0x00000000   Number         0  QtMessaging.in ABSOLUTE
    \scripts\5.0\qtmobility\src\messaging\qmessagefolder.cpp 0x00000000   Number         0  QtMessaging.in ABSOLUTE
    \scripts\5.0\qtmobility\src\messaging\qmessagefolder_symbian.cpp 0x00000000   Number         0  QtMessaging.in ABSOLUTE
    \scripts\5.0\qtmobility\src\messaging\qmessagefolderfilter.cpp 0x00000000   Number         0  QtMessaging.in ABSOLUTE
    \scripts\5.0\qtmobility\src\messaging\qmessagefolderfilter_symbian.cpp 0x00000000   Number         0  QtMessaging.in ABSOLUTE
    \scripts\5.0\qtmobility\src\messaging\qmessagefolderid.cpp 0x00000000   Number         0  QtMessaging.in ABSOLUTE
    \scripts\5.0\qtmobility\src\messaging\qmessagefolderid_symbian.cpp 0x00000000   Number         0  QtMessaging.in ABSOLUTE
    \scripts\5.0\qtmobility\src\messaging\qmessagefoldersortorder.cpp 0x00000000   Number         0  QtMessaging.in ABSOLUTE
    \scripts\5.0\qtmobility\src\messaging\qmessagefoldersortorder_symbian.cpp 0x00000000   Number         0  QtMessaging.in ABSOLUTE
    \scripts\5.0\qtmobility\src\messaging\qmessageid.cpp 0x00000000   Number         0  QtMessaging.in ABSOLUTE
    \scripts\5.0\qtmobility\src\messaging\qmessageid_symbian.cpp 0x00000000   Number         0  QtMessaging.in ABSOLUTE
    \scripts\5.0\qtmobility\src\messaging\qmessagemanager.cpp 0x00000000   Number         0  QtMessaging.in ABSOLUTE
    \scripts\5.0\qtmobility\src\messaging\qmessageservice.cpp 0x00000000   Number         0  QtMessaging.in ABSOLUTE
    \scripts\5.0\qtmobility\src\messaging\qmessageservice_symbian.cpp 0x00000000   Number         0  QtMessaging.in ABSOLUTE
    \scripts\5.0\qtmobility\src\messaging\qmessagesortorder.cpp 0x00000000   Number         0  QtMessaging.in ABSOLUTE
    \scripts\5.0\qtmobility\src\messaging\qmessagesortorder_symbian.cpp 0x00000000   Number         0  QtMessaging.in ABSOLUTE
    \scripts\5.0\qtmobility\src\messaging\qmessagestore.cpp 0x00000000   Number         0  QtMessaging.in ABSOLUTE
    \scripts\5.0\qtmobility\src\messaging\qmessagestore_symbian.cpp 0x00000000   Number         0  QtMessaging.in ABSOLUTE
    \scripts\5.0\qtmobility\src\messaging\qmtmengine_symbian.cpp 0x00000000   Number         0  QtMessaging.in ABSOLUTE
    \src\cedar\generic\base\e32\compsupp\RVCT2_2\ucppfini.cpp 0x00000000   Number         0  ucppfini.o ABSOLUTE
    \src\cedar\generic\base\e32\compsupp\RVCT2_2\ucppinit_aeabi.cpp 0x00000000   Number         0  ucppinit_aeabi.o ABSOLUTE
    \src\cedar\generic\base\e32\euser\epoc\arm\uc_dll.cpp 0x00000000   Number         0  uc_dll.o ABSOLUTE
    .emb_text                                0x00008000   Section       40  uc_dll_.o(.emb_text)
    .emb_text                                0x00008028   Section       72  ucppinit_aeabi.o(.emb_text)
    skip                                     0x0000803c   ARM Code       0  ucppinit_aeabi.o(.emb_text)
    loop                                     0x0000804c   ARM Code       0  ucppinit_aeabi.o(.emb_text)
    fpinit                                   0x00008064   Data           0  ucppinit_aeabi.o(.emb_text)
    base                                     0x00008068   Data           0  ucppinit_aeabi.o(.emb_text)
    limit                                    0x0000806c   Data           0  ucppinit_aeabi.o(.emb_text)
    .text                                    0x00008070   Section       28  QtMessaging.in(.text)
    __sti___14_qmessageid_cpp                0x0000807d   Thumb Code    12  QtMessaging.in(.text)
    .text                                    0x0000808c   Section       12  QtMessaging.in(.text)
    .text                                    0x00008098   Section       12  QtMessaging.in(.text)
    .text                                    0x000080a4   Section       12  QtMessaging.in(.text)
    QtMobility::findDelimiters(const QString&) 0x000080b1   Thumb Code   222  QtMessaging.in(.text)
    .text                                    0x000080b0   Section      592  QtMessaging.in(.text)
    .text                                    0x00008300   Section      428  QtMessaging.in(.text)
    .text                                    0x000084ac   Section      576  QtMessaging.in(.text)
    __sti___12_qmessage_cpp                  0x0000869d   Thumb Code    24  QtMessaging.in(.text)
    .text                                    0x000086ec   Section       12  QtMessaging.in(.text)
    .text                                    0x000086f8   Section       12  QtMessaging.in(.text)
    .text                                    0x00008704   Section       12  QtMessaging.in(.text)
    .text                                    0x00008710   Section       12  QtMessaging.in(.text)
    .text                                    0x0000871c   Section       12  QtMessaging.in(.text)
    .text                                    0x00008728   Section     1084  QtMessaging.in(.text)
    __sti___19_qmessagemanager_cpp           0x00008b51   Thumb Code    16  QtMessaging.in(.text)
    .text                                    0x00008b64   Section       12  QtMessaging.in(.text)
    .text                                    0x00008b70   Section      228  QtMessaging.in(.text)
    .text                                    0x00008c54   Section      272  QtMessaging.in(.text)
    .text                                    0x00008d64   Section     2028  QtMessaging.in(.text)
    .text                                    0x00009550   Section    49168  QtMessaging.in(.text)
    |L1.1052|                                0x0000996c   Data           0  QtMessaging.in(.text)
    |L1.1060|                                0x00009974   Data           0  QtMessaging.in(.text)
    QtMobility::mtmEngine()                  0x0000a0f1   Thumb Code   116  QtMessaging.in(.text)
    |L1.10696|                               0x0000bf18   Data           0  QtMessaging.in(.text)
    |L1.10708|                               0x0000bf24   Data           0  QtMessaging.in(.text)
    |L1.15156|                               0x0000d084   Data           0  QtMessaging.in(.text)
    .text                                    0x00015560   Section      348  QtMessaging.in(.text)
    .text                                    0x000156bc   Section      242  QtMessaging.in(.text)
    .text                                    0x000157b0   Section      396  QtMessaging.in(.text)
    .text                                    0x0001593c   Section      390  QtMessaging.in(.text)
    .text                                    0x00015ac4   Section     2812  QtMessaging.in(.text)
    .text                                    0x000165c0   Section     3572  QtMessaging.in(.text)
    .text                                    0x000173b4   Section      472  QtMessaging.in(.text)
    .text                                    0x0001758c   Section      388  QtMessaging.in(.text)
    .text                                    0x00017710   Section     3144  QtMessaging.in(.text)
    .text                                    0x00018358   Section      328  QtMessaging.in(.text)
    .text                                    0x000184a0   Section     4156  QtMessaging.in(.text)
    .text                                    0x000194dc   Section      592  QtMessaging.in(.text)
    .text                                    0x0001972c   Section     6722  QtMessaging.in(.text)
    .text                                    0x0001b170   Section     1960  QtMessaging.in(.text)
    .text                                    0x0001b918   Section     2236  QtMessaging.in(.text)
    QtMobility::messageStorePrivate()        0x0001b94d   Thumb Code   114  QtMessaging.in(.text)
    |L1.976|                                 0x0001bce8   Data           0  QtMessaging.in(.text)
    |L1.1016|                                0x0001bd10   Data           0  QtMessaging.in(.text)
    |L1.1056|                                0x0001bd38   Data           0  QtMessaging.in(.text)
    |L1.1064|                                0x0001bd40   Data           0  QtMessaging.in(.text)
    |L1.1104|                                0x0001bd68   Data           0  QtMessaging.in(.text)
    .text                                    0x0001c1d4   Section     2772  QtMessaging.in(.text)
    .text                                    0x0001cca8   Section     5428  QtMessaging.in(.text)
    QtMobility::messagingHelper()            0x0001ccbf   Thumb Code   106  QtMessaging.in(.text)
    QtMobility::messageCache()               0x0001d099   Thumb Code   116  QtMessaging.in(.text)
    .text                                    0x0001e1dc   Section       40  uc_dll.o(.text)
    .text                                    0x0001e204   Section      148  ucppfini.o(.text)
    .text.clean                              0x0001e298   Section       34  QtMessaging.in(.text.clean)
    .text.clean                              0x0001e2ba   Section       58  QtMessaging.in(.text.clean)
    .text.clean                              0x0001e2f4   Section       64  QtMessaging.in(.text.clean)
    .text.clean                              0x0001e334   Section       76  QtMessaging.in(.text.clean)
    .text.clean                              0x0001e380   Section      492  QtMessaging.in(.text.clean)
    .text.clean                              0x0001e56c   Section     5042  QtMessaging.in(.text.clean)
    .text.clean                              0x0001f91e   Section       54  QtMessaging.in(.text.clean)
    .text.clean                              0x0001f954   Section       38  QtMessaging.in(.text.clean)
    .text.clean                              0x0001f97a   Section       46  QtMessaging.in(.text.clean)
    .text.clean                              0x0001f9a8   Section       40  QtMessaging.in(.text.clean)
    .text.clean                              0x0001f9d0   Section      366  QtMessaging.in(.text.clean)
    .text.clean                              0x0001fb3e   Section      860  QtMessaging.in(.text.clean)
    .text.clean                              0x0001fe9a   Section      100  QtMessaging.in(.text.clean)
    .text.clean                              0x0001fefe   Section       64  QtMessaging.in(.text.clean)
    .text.clean                              0x0001ff3e   Section      350  QtMessaging.in(.text.clean)
    .text.clean                              0x0002009c   Section       36  QtMessaging.in(.text.clean)
    .text.clean                              0x000200c0   Section      444  QtMessaging.in(.text.clean)
    .text.clean                              0x0002027c   Section       92  QtMessaging.in(.text.clean)
    .text.clean                              0x000202d8   Section      778  QtMessaging.in(.text.clean)
    .text.clean                              0x000205e2   Section      288  QtMessaging.in(.text.clean)
    .text.clean                              0x00020704   Section      204  QtMessaging.in(.text.clean)
    .text.clean                              0x000207d0   Section      220  QtMessaging.in(.text.clean)
    .text.clean                              0x000208ac   Section      568  QtMessaging.in(.text.clean)
    ExportTable                              0x00020ae4   Section     1680  QtMessaging{00010103}.exp(ExportTable)
    StubCode                                 0x00021174   Section        8  SENDUI{000a0000}-11.o(StubCode)
    theImportedSymbol                        0x00021178   Data           0  SENDUI{000a0000}-11.o(StubCode)
    StubCode                                 0x0002117c   Section        8  SENDUI{000a0000}-2.o(StubCode)
    theImportedSymbol                        0x00021180   Data           0  SENDUI{000a0000}-2.o(StubCode)
    StubCode                                 0x00021184   Section        8  SENDUI{000a0000}-3.o(StubCode)
    theImportedSymbol                        0x00021188   Data           0  SENDUI{000a0000}-3.o(StubCode)
    StubCode                                 0x0002118c   Section        8  SENDUI{000a0000}-4.o(StubCode)
    theImportedSymbol                        0x00021190   Data           0  SENDUI{000a0000}-4.o(StubCode)
    StubCode                                 0x00021194   Section        8  SENDUI{000a0000}-49.o(StubCode)
    theImportedSymbol                        0x00021198   Data           0  SENDUI{000a0000}-49.o(StubCode)
    StubCode                                 0x0002119c   Section        8  SENDUI{000a0000}-5.o(StubCode)
    theImportedSymbol                        0x000211a0   Data           0  SENDUI{000a0000}-5.o(StubCode)
    StubCode                                 0x000211a4   Section        8  SENDUI{000a0000}-50.o(StubCode)
    theImportedSymbol                        0x000211a8   Data           0  SENDUI{000a0000}-50.o(StubCode)
    StubCode                                 0x000211ac   Section        8  SENDUI{000a0000}-6.o(StubCode)
    theImportedSymbol                        0x000211b0   Data           0  SENDUI{000a0000}-6.o(StubCode)
    StubCode                                 0x000211b4   Section        8  SENDUI{000a0000}-7.o(StubCode)
    theImportedSymbol                        0x000211b8   Data           0  SENDUI{000a0000}-7.o(StubCode)
    StubCode                                 0x000211bc   Section        8  msgs{000a0000}-103.o(StubCode)
    theImportedSymbol                        0x000211c0   Data           0  msgs{000a0000}-103.o(StubCode)
    StubCode                                 0x000211c4   Section        8  msgs{000a0000}-168.o(StubCode)
    theImportedSymbol                        0x000211c8   Data           0  msgs{000a0000}-168.o(StubCode)
    StubCode                                 0x000211cc   Section        8  msgs{000a0000}-22.o(StubCode)
    theImportedSymbol                        0x000211d0   Data           0  msgs{000a0000}-22.o(StubCode)
    StubCode                                 0x000211d4   Section        8  msgs{000a0000}-249.o(StubCode)
    theImportedSymbol                        0x000211d8   Data           0  msgs{000a0000}-249.o(StubCode)
    StubCode                                 0x000211dc   Section        8  msgs{000a0000}-250.o(StubCode)
    theImportedSymbol                        0x000211e0   Data           0  msgs{000a0000}-250.o(StubCode)
    StubCode                                 0x000211e4   Section        8  msgs{000a0000}-254.o(StubCode)
    theImportedSymbol                        0x000211e8   Data           0  msgs{000a0000}-254.o(StubCode)
    StubCode                                 0x000211ec   Section        8  msgs{000a0000}-294.o(StubCode)
    theImportedSymbol                        0x000211f0   Data           0  msgs{000a0000}-294.o(StubCode)
    StubCode                                 0x000211f4   Section        8  msgs{000a0000}-295.o(StubCode)
    theImportedSymbol                        0x000211f8   Data           0  msgs{000a0000}-295.o(StubCode)
    StubCode                                 0x000211fc   Section        8  msgs{000a0000}-339.o(StubCode)
    theImportedSymbol                        0x00021200   Data           0  msgs{000a0000}-339.o(StubCode)
    StubCode                                 0x00021204   Section        8  msgs{000a0000}-34.o(StubCode)
    theImportedSymbol                        0x00021208   Data           0  msgs{000a0000}-34.o(StubCode)
    StubCode                                 0x0002120c   Section        8  msgs{000a0000}-343.o(StubCode)
    theImportedSymbol                        0x00021210   Data           0  msgs{000a0000}-343.o(StubCode)
    StubCode                                 0x00021214   Section        8  msgs{000a0000}-354.o(StubCode)
    theImportedSymbol                        0x00021218   Data           0  msgs{000a0000}-354.o(StubCode)
    StubCode                                 0x0002121c   Section        8  msgs{000a0000}-355.o(StubCode)
    theImportedSymbol                        0x00021220   Data           0  msgs{000a0000}-355.o(StubCode)
    StubCode                                 0x00021224   Section        8  msgs{000a0000}-358.o(StubCode)
    theImportedSymbol                        0x00021228   Data           0  msgs{000a0000}-358.o(StubCode)
    StubCode                                 0x0002122c   Section        8  msgs{000a0000}-361.o(StubCode)
    theImportedSymbol                        0x00021230   Data           0  msgs{000a0000}-361.o(StubCode)
    StubCode                                 0x00021234   Section        8  msgs{000a0000}-364.o(StubCode)
    theImportedSymbol                        0x00021238   Data           0  msgs{000a0000}-364.o(StubCode)
    StubCode                                 0x0002123c   Section        8  msgs{000a0000}-365.o(StubCode)
    theImportedSymbol                        0x00021240   Data           0  msgs{000a0000}-365.o(StubCode)
    StubCode                                 0x00021244   Section        8  msgs{000a0000}-369.o(StubCode)
    theImportedSymbol                        0x00021248   Data           0  msgs{000a0000}-369.o(StubCode)
    StubCode                                 0x0002124c   Section        8  msgs{000a0000}-370.o(StubCode)
    theImportedSymbol                        0x00021250   Data           0  msgs{000a0000}-370.o(StubCode)
    StubCode                                 0x00021254   Section        8  msgs{000a0000}-371.o(StubCode)
    theImportedSymbol                        0x00021258   Data           0  msgs{000a0000}-371.o(StubCode)
    StubCode                                 0x0002125c   Section        8  msgs{000a0000}-376.o(StubCode)
    theImportedSymbol                        0x00021260   Data           0  msgs{000a0000}-376.o(StubCode)
    StubCode                                 0x00021264   Section        8  msgs{000a0000}-377.o(StubCode)
    theImportedSymbol                        0x00021268   Data           0  msgs{000a0000}-377.o(StubCode)
    StubCode                                 0x0002126c   Section        8  msgs{000a0000}-378.o(StubCode)
    theImportedSymbol                        0x00021270   Data           0  msgs{000a0000}-378.o(StubCode)
    StubCode                                 0x00021274   Section        8  msgs{000a0000}-384.o(StubCode)
    theImportedSymbol                        0x00021278   Data           0  msgs{000a0000}-384.o(StubCode)
    StubCode                                 0x0002127c   Section        8  msgs{000a0000}-386.o(StubCode)
    theImportedSymbol                        0x00021280   Data           0  msgs{000a0000}-386.o(StubCode)
    StubCode                                 0x00021284   Section        8  msgs{000a0000}-391.o(StubCode)
    theImportedSymbol                        0x00021288   Data           0  msgs{000a0000}-391.o(StubCode)
    StubCode                                 0x0002128c   Section        8  msgs{000a0000}-402.o(StubCode)
    theImportedSymbol                        0x00021290   Data           0  msgs{000a0000}-402.o(StubCode)
    StubCode                                 0x00021294   Section        8  msgs{000a0000}-404.o(StubCode)
    theImportedSymbol                        0x00021298   Data           0  msgs{000a0000}-404.o(StubCode)
    StubCode                                 0x0002129c   Section        8  msgs{000a0000}-405.o(StubCode)
    theImportedSymbol                        0x000212a0   Data           0  msgs{000a0000}-405.o(StubCode)
    StubCode                                 0x000212a4   Section        8  msgs{000a0000}-408.o(StubCode)
    theImportedSymbol                        0x000212a8   Data           0  msgs{000a0000}-408.o(StubCode)
    StubCode                                 0x000212ac   Section        8  msgs{000a0000}-467.o(StubCode)
    theImportedSymbol                        0x000212b0   Data           0  msgs{000a0000}-467.o(StubCode)
    StubCode                                 0x000212b4   Section        8  msgs{000a0000}-469.o(StubCode)
    theImportedSymbol                        0x000212b8   Data           0  msgs{000a0000}-469.o(StubCode)
    StubCode                                 0x000212bc   Section        8  msgs{000a0000}-470.o(StubCode)
    theImportedSymbol                        0x000212c0   Data           0  msgs{000a0000}-470.o(StubCode)
    StubCode                                 0x000212c4   Section        8  msgs{000a0000}-471.o(StubCode)
    theImportedSymbol                        0x000212c8   Data           0  msgs{000a0000}-471.o(StubCode)
    StubCode                                 0x000212cc   Section        8  msgs{000a0000}-473.o(StubCode)
    theImportedSymbol                        0x000212d0   Data           0  msgs{000a0000}-473.o(StubCode)
    StubCode                                 0x000212d4   Section        8  msgs{000a0000}-477.o(StubCode)
    theImportedSymbol                        0x000212d8   Data           0  msgs{000a0000}-477.o(StubCode)
    StubCode                                 0x000212dc   Section        8  msgs{000a0000}-630.o(StubCode)
    theImportedSymbol                        0x000212e0   Data           0  msgs{000a0000}-630.o(StubCode)
    StubCode                                 0x000212e4   Section        8  msgs{000a0000}-631.o(StubCode)
    theImportedSymbol                        0x000212e8   Data           0  msgs{000a0000}-631.o(StubCode)
    StubCode                                 0x000212ec   Section        8  msgs{000a0000}-640.o(StubCode)
    theImportedSymbol                        0x000212f0   Data           0  msgs{000a0000}-640.o(StubCode)
    StubCode                                 0x000212f4   Section        8  msgs{000a0000}-643.o(StubCode)
    theImportedSymbol                        0x000212f8   Data           0  msgs{000a0000}-643.o(StubCode)
    StubCode                                 0x000212fc   Section        8  msgs{000a0000}-660.o(StubCode)
    theImportedSymbol                        0x00021300   Data           0  msgs{000a0000}-660.o(StubCode)
    StubCode                                 0x00021304   Section        8  msgs{000a0000}-665.o(StubCode)
    theImportedSymbol                        0x00021308   Data           0  msgs{000a0000}-665.o(StubCode)
    StubCode                                 0x0002130c   Section        8  msgs{000a0000}-700.o(StubCode)
    theImportedSymbol                        0x00021310   Data           0  msgs{000a0000}-700.o(StubCode)
    StubCode                                 0x00021314   Section        8  msgs{000a0000}-707.o(StubCode)
    theImportedSymbol                        0x00021318   Data           0  msgs{000a0000}-707.o(StubCode)
    StubCode                                 0x0002131c   Section        8  msgs{000a0000}-711.o(StubCode)
    theImportedSymbol                        0x00021320   Data           0  msgs{000a0000}-711.o(StubCode)
    StubCode                                 0x00021324   Section        8  msgs{000a0000}-712.o(StubCode)
    theImportedSymbol                        0x00021328   Data           0  msgs{000a0000}-712.o(StubCode)
    StubCode                                 0x0002132c   Section        8  msgs{000a0000}-715.o(StubCode)
    theImportedSymbol                        0x00021330   Data           0  msgs{000a0000}-715.o(StubCode)
    StubCode                                 0x00021334   Section        8  msgs{000a0000}-716.o(StubCode)
    theImportedSymbol                        0x00021338   Data           0  msgs{000a0000}-716.o(StubCode)
    StubCode                                 0x0002133c   Section        8  msgs{000a0000}-798.o(StubCode)
    theImportedSymbol                        0x00021340   Data           0  msgs{000a0000}-798.o(StubCode)
    StubCode                                 0x00021344   Section        8  msgs{000a0000}-799.o(StubCode)
    theImportedSymbol                        0x00021348   Data           0  msgs{000a0000}-799.o(StubCode)
    StubCode                                 0x0002134c   Section        8  msgs{000a0000}-801.o(StubCode)
    theImportedSymbol                        0x00021350   Data           0  msgs{000a0000}-801.o(StubCode)
    StubCode                                 0x00021354   Section        8  msgs{000a0000}-802.o(StubCode)
    theImportedSymbol                        0x00021358   Data           0  msgs{000a0000}-802.o(StubCode)
    StubCode                                 0x0002135c   Section        8  msgs{000a0000}-828.o(StubCode)
    theImportedSymbol                        0x00021360   Data           0  msgs{000a0000}-828.o(StubCode)
    StubCode                                 0x00021364   Section        8  msgs{000a0000}-829.o(StubCode)
    theImportedSymbol                        0x00021368   Data           0  msgs{000a0000}-829.o(StubCode)
    StubCode                                 0x0002136c   Section        8  msgs{000a0000}-832.o(StubCode)
    theImportedSymbol                        0x00021370   Data           0  msgs{000a0000}-832.o(StubCode)
    StubCode                                 0x00021374   Section        8  msgs{000a0000}-833.o(StubCode)
    theImportedSymbol                        0x00021378   Data           0  msgs{000a0000}-833.o(StubCode)
    StubCode                                 0x0002137c   Section        8  etext{000a0000}-117.o(StubCode)
    theImportedSymbol                        0x00021380   Data           0  etext{000a0000}-117.o(StubCode)
    StubCode                                 0x00021384   Section        8  etext{000a0000}-122.o(StubCode)
    theImportedSymbol                        0x00021388   Data           0  etext{000a0000}-122.o(StubCode)
    StubCode                                 0x0002138c   Section        8  etext{000a0000}-178.o(StubCode)
    theImportedSymbol                        0x00021390   Data           0  etext{000a0000}-178.o(StubCode)
    StubCode                                 0x00021394   Section        8  efsrv{000a0000}-141.o(StubCode)
    theImportedSymbol                        0x00021398   Data           0  efsrv{000a0000}-141.o(StubCode)
    StubCode                                 0x0002139c   Section        8  efsrv{000a0000}-143.o(StubCode)
    theImportedSymbol                        0x000213a0   Data           0  efsrv{000a0000}-143.o(StubCode)
    StubCode                                 0x000213a4   Section        8  efsrv{000a0000}-255.o(StubCode)
    theImportedSymbol                        0x000213a8   Data           0  efsrv{000a0000}-255.o(StubCode)
    StubCode                                 0x000213ac   Section        8  efsrv{000a0000}-264.o(StubCode)
    theImportedSymbol                        0x000213b0   Data           0  efsrv{000a0000}-264.o(StubCode)
    StubCode                                 0x000213b4   Section        8  efsrv{000a0000}-27.o(StubCode)
    theImportedSymbol                        0x000213b8   Data           0  efsrv{000a0000}-27.o(StubCode)
    StubCode                                 0x000213bc   Section        8  efsrv{000a0000}-298.o(StubCode)
    theImportedSymbol                        0x000213c0   Data           0  efsrv{000a0000}-298.o(StubCode)
    StubCode                                 0x000213c4   Section        8  efsrv{000a0000}-300.o(StubCode)
    theImportedSymbol                        0x000213c8   Data           0  efsrv{000a0000}-300.o(StubCode)
    StubCode                                 0x000213cc   Section        8  efsrv{000a0000}-52.o(StubCode)
    theImportedSymbol                        0x000213d0   Data           0  efsrv{000a0000}-52.o(StubCode)
    StubCode                                 0x000213d4   Section        8  efsrv{000a0000}-68.o(StubCode)
    theImportedSymbol                        0x000213d8   Data           0  efsrv{000a0000}-68.o(StubCode)
    StubCode                                 0x000213dc   Section        8  efsrv{000a0000}-70.o(StubCode)
    theImportedSymbol                        0x000213e0   Data           0  efsrv{000a0000}-70.o(StubCode)
    StubCode                                 0x000213e4   Section        8  efsrv{000a0000}-93.o(StubCode)
    theImportedSymbol                        0x000213e8   Data           0  efsrv{000a0000}-93.o(StubCode)
    StubCode                                 0x000213ec   Section        8  efsrv{000a0000}-94.o(StubCode)
    theImportedSymbol                        0x000213f0   Data           0  efsrv{000a0000}-94.o(StubCode)
    StubCode                                 0x000213f4   Section        8  efsrv{000a0000}-97.o(StubCode)
    theImportedSymbol                        0x000213f8   Data           0  efsrv{000a0000}-97.o(StubCode)
    StubCode                                 0x000213fc   Section        8  CHARCONV{000a0000}-6.o(StubCode)
    theImportedSymbol                        0x00021400   Data           0  CHARCONV{000a0000}-6.o(StubCode)
    StubCode                                 0x00021404   Section        8  CHARCONV{000a0000}-8.o(StubCode)
    theImportedSymbol                        0x00021408   Data           0  CHARCONV{000a0000}-8.o(StubCode)
    StubCode                                 0x0002140c   Section        8  gsmu{000a0000}-149.o(StubCode)
    theImportedSymbol                        0x00021410   Data           0  gsmu{000a0000}-149.o(StubCode)
    StubCode                                 0x00021414   Section        8  gsmu{000a0000}-258.o(StubCode)
    theImportedSymbol                        0x00021418   Data           0  gsmu{000a0000}-258.o(StubCode)
    StubCode                                 0x0002141c   Section        8  gsmu{000a0000}-261.o(StubCode)
    theImportedSymbol                        0x00021420   Data           0  gsmu{000a0000}-261.o(StubCode)
    StubCode                                 0x00021424   Section        8  gsmu{000a0000}-268.o(StubCode)
    theImportedSymbol                        0x00021428   Data           0  gsmu{000a0000}-268.o(StubCode)
    StubCode                                 0x0002142c   Section        8  gsmu{000a0000}-280.o(StubCode)
    theImportedSymbol                        0x00021430   Data           0  gsmu{000a0000}-280.o(StubCode)
    StubCode                                 0x00021434   Section        8  imcm{000a0000}-11.o(StubCode)
    theImportedSymbol                        0x00021438   Data           0  imcm{000a0000}-11.o(StubCode)
    StubCode                                 0x0002143c   Section        8  imcm{000a0000}-17.o(StubCode)
    theImportedSymbol                        0x00021440   Data           0  imcm{000a0000}-17.o(StubCode)
    StubCode                                 0x00021444   Section        8  imcm{000a0000}-18.o(StubCode)
    theImportedSymbol                        0x00021448   Data           0  imcm{000a0000}-18.o(StubCode)
    StubCode                                 0x0002144c   Section        8  imcm{000a0000}-20.o(StubCode)
    theImportedSymbol                        0x00021450   Data           0  imcm{000a0000}-20.o(StubCode)
    StubCode                                 0x00021454   Section        8  imcm{000a0000}-228.o(StubCode)
    theImportedSymbol                        0x00021458   Data           0  imcm{000a0000}-228.o(StubCode)
    StubCode                                 0x0002145c   Section        8  imcm{000a0000}-356.o(StubCode)
    theImportedSymbol                        0x00021460   Data           0  imcm{000a0000}-356.o(StubCode)
    StubCode                                 0x00021464   Section        8  imcm{000a0000}-370.o(StubCode)
    theImportedSymbol                        0x00021468   Data           0  imcm{000a0000}-370.o(StubCode)
    StubCode                                 0x0002146c   Section        8  imcm{000a0000}-372.o(StubCode)
    theImportedSymbol                        0x00021470   Data           0  imcm{000a0000}-372.o(StubCode)
    StubCode                                 0x00021474   Section        8  imcm{000a0000}-373.o(StubCode)
    theImportedSymbol                        0x00021478   Data           0  imcm{000a0000}-373.o(StubCode)
    StubCode                                 0x0002147c   Section        8  imcm{000a0000}-375.o(StubCode)
    theImportedSymbol                        0x00021480   Data           0  imcm{000a0000}-375.o(StubCode)
    StubCode                                 0x00021484   Section        8  imcm{000a0000}-381.o(StubCode)
    theImportedSymbol                        0x00021488   Data           0  imcm{000a0000}-381.o(StubCode)
    StubCode                                 0x0002148c   Section        8  imcm{000a0000}-382.o(StubCode)
    theImportedSymbol                        0x00021490   Data           0  imcm{000a0000}-382.o(StubCode)
    StubCode                                 0x00021494   Section        8  imcm{000a0000}-385.o(StubCode)
    theImportedSymbol                        0x00021498   Data           0  imcm{000a0000}-385.o(StubCode)
    StubCode                                 0x0002149c   Section        8  imcm{000a0000}-393.o(StubCode)
    theImportedSymbol                        0x000214a0   Data           0  imcm{000a0000}-393.o(StubCode)
    StubCode                                 0x000214a4   Section        8  imcm{000a0000}-410.o(StubCode)
    theImportedSymbol                        0x000214a8   Data           0  imcm{000a0000}-410.o(StubCode)
    StubCode                                 0x000214ac   Section        8  imcm{000a0000}-523.o(StubCode)
    theImportedSymbol                        0x000214b0   Data           0  imcm{000a0000}-523.o(StubCode)
    StubCode                                 0x000214b4   Section        8  imcm{000a0000}-524.o(StubCode)
    theImportedSymbol                        0x000214b8   Data           0  imcm{000a0000}-524.o(StubCode)
    StubCode                                 0x000214bc   Section        8  imcm{000a0000}-528.o(StubCode)
    theImportedSymbol                        0x000214c0   Data           0  imcm{000a0000}-528.o(StubCode)
    StubCode                                 0x000214c4   Section        8  imcm{000a0000}-658.o(StubCode)
    theImportedSymbol                        0x000214c8   Data           0  imcm{000a0000}-658.o(StubCode)
    StubCode                                 0x000214cc   Section        8  imcm{000a0000}-686.o(StubCode)
    theImportedSymbol                        0x000214d0   Data           0  imcm{000a0000}-686.o(StubCode)
    StubCode                                 0x000214d4   Section        8  imcm{000a0000}-7.o(StubCode)
    theImportedSymbol                        0x000214d8   Data           0  imcm{000a0000}-7.o(StubCode)
    StubCode                                 0x000214dc   Section        8  imcm{000a0000}-728.o(StubCode)
    theImportedSymbol                        0x000214e0   Data           0  imcm{000a0000}-728.o(StubCode)
    StubCode                                 0x000214e4   Section        8  imcm{000a0000}-74.o(StubCode)
    theImportedSymbol                        0x000214e8   Data           0  imcm{000a0000}-74.o(StubCode)
    StubCode                                 0x000214ec   Section        8  imcm{000a0000}-743.o(StubCode)
    theImportedSymbol                        0x000214f0   Data           0  imcm{000a0000}-743.o(StubCode)
    StubCode                                 0x000214f4   Section        8  imcm{000a0000}-745.o(StubCode)
    theImportedSymbol                        0x000214f8   Data           0  imcm{000a0000}-745.o(StubCode)
    StubCode                                 0x000214fc   Section        8  imcm{000a0000}-746.o(StubCode)
    theImportedSymbol                        0x00021500   Data           0  imcm{000a0000}-746.o(StubCode)
    StubCode                                 0x00021504   Section        8  imcm{000a0000}-761.o(StubCode)
    theImportedSymbol                        0x00021508   Data           0  imcm{000a0000}-761.o(StubCode)
    StubCode                                 0x0002150c   Section        8  imcm{000a0000}-83.o(StubCode)
    theImportedSymbol                        0x00021510   Data           0  imcm{000a0000}-83.o(StubCode)
    StubCode                                 0x00021514   Section        8  imcm{000a0000}-88.o(StubCode)
    theImportedSymbol                        0x00021518   Data           0  imcm{000a0000}-88.o(StubCode)
    StubCode                                 0x0002151c   Section        8  imcm{000a0000}-89.o(StubCode)
    theImportedSymbol                        0x00021520   Data           0  imcm{000a0000}-89.o(StubCode)
    StubCode                                 0x00021524   Section        8  imcm{000a0000}-9.o(StubCode)
    theImportedSymbol                        0x00021528   Data           0  imcm{000a0000}-9.o(StubCode)
    StubCode                                 0x0002152c   Section        8  bafl{000a0000}-40.o(StubCode)
    theImportedSymbol                        0x00021530   Data           0  bafl{000a0000}-40.o(StubCode)
    StubCode                                 0x00021534   Section        8  bafl{000a0000}-43.o(StubCode)
    theImportedSymbol                        0x00021538   Data           0  bafl{000a0000}-43.o(StubCode)
    StubCode                                 0x0002153c   Section        8  mtur{000a0000}-31.o(StubCode)
    theImportedSymbol                        0x00021540   Data           0  mtur{000a0000}-31.o(StubCode)
    StubCode                                 0x00021544   Section        8  mtur{000a0000}-32.o(StubCode)
    theImportedSymbol                        0x00021548   Data           0  mtur{000a0000}-32.o(StubCode)
    StubCode                                 0x0002154c   Section        8  mtur{000a0000}-58.o(StubCode)
    theImportedSymbol                        0x00021550   Data           0  mtur{000a0000}-58.o(StubCode)
    StubCode                                 0x00021554   Section        8  smcm{000a0000}-21.o(StubCode)
    theImportedSymbol                        0x00021558   Data           0  smcm{000a0000}-21.o(StubCode)
    StubCode                                 0x0002155c   Section        8  smcm{000a0000}-23.o(StubCode)
    theImportedSymbol                        0x00021560   Data           0  smcm{000a0000}-23.o(StubCode)
    StubCode                                 0x00021564   Section        8  smcm{000a0000}-281.o(StubCode)
    theImportedSymbol                        0x00021568   Data           0  smcm{000a0000}-281.o(StubCode)
    StubCode                                 0x0002156c   Section        8  smcm{000a0000}-282.o(StubCode)
    theImportedSymbol                        0x00021570   Data           0  smcm{000a0000}-282.o(StubCode)
    StubCode                                 0x00021574   Section        8  smcm{000a0000}-283.o(StubCode)
    theImportedSymbol                        0x00021578   Data           0  smcm{000a0000}-283.o(StubCode)
    StubCode                                 0x0002157c   Section        8  smcm{000a0000}-285.o(StubCode)
    theImportedSymbol                        0x00021580   Data           0  smcm{000a0000}-285.o(StubCode)
    StubCode                                 0x00021584   Section        8  smcm{000a0000}-31.o(StubCode)
    theImportedSymbol                        0x00021588   Data           0  smcm{000a0000}-31.o(StubCode)
    StubCode                                 0x0002158c   Section        8  smcm{000a0000}-42.o(StubCode)
    theImportedSymbol                        0x00021590   Data           0  smcm{000a0000}-42.o(StubCode)
    StubCode                                 0x00021594   Section        8  smcm{000a0000}-44.o(StubCode)
    theImportedSymbol                        0x00021598   Data           0  smcm{000a0000}-44.o(StubCode)
    StubCode                                 0x0002159c   Section        8  smcm{000a0000}-5.o(StubCode)
    theImportedSymbol                        0x000215a0   Data           0  smcm{000a0000}-5.o(StubCode)
    StubCode                                 0x000215a4   Section        8  apgrfx{000a0000}-151.o(StubCode)
    theImportedSymbol                        0x000215a8   Data           0  apgrfx{000a0000}-151.o(StubCode)
    StubCode                                 0x000215ac   Section        8  apgrfx{000a0000}-25.o(StubCode)
    theImportedSymbol                        0x000215b0   Data           0  apgrfx{000a0000}-25.o(StubCode)
    StubCode                                 0x000215b4   Section        8  apgrfx{000a0000}-28.o(StubCode)
    theImportedSymbol                        0x000215b8   Data           0  apgrfx{000a0000}-28.o(StubCode)
    StubCode                                 0x000215bc   Section        8  apgrfx{000a0000}-323.o(StubCode)
    theImportedSymbol                        0x000215c0   Data           0  apgrfx{000a0000}-323.o(StubCode)
    StubCode                                 0x000215c4   Section        8  apmime{000a0000}-61.o(StubCode)
    theImportedSymbol                        0x000215c8   Data           0  apmime{000a0000}-61.o(StubCode)
    StubCode                                 0x000215cc   Section        8  apmime{000a0000}-79.o(StubCode)
    theImportedSymbol                        0x000215d0   Data           0  apmime{000a0000}-79.o(StubCode)
    StubCode                                 0x000215d4   Section        8  libstdcpp{00010000}-988.o(StubCode)
    theImportedSymbol                        0x000215d8   Data           0  libstdcpp{00010000}-988.o(StubCode)
    StubCode                                 0x000215dc   Section        8  libstdcpp{00010000}-992.o(StubCode)
    theImportedSymbol                        0x000215e0   Data           0  libstdcpp{00010000}-992.o(StubCode)
    StubCode                                 0x000215e4   Section        8  QtCore{00040703}-126.o(StubCode)
    theImportedSymbol                        0x000215e8   Data           0  QtCore{00040703}-126.o(StubCode)
    StubCode                                 0x000215ec   Section        8  QtCore{00040703}-128.o(StubCode)
    theImportedSymbol                        0x000215f0   Data           0  QtCore{00040703}-128.o(StubCode)
    StubCode                                 0x000215f4   Section        8  QtCore{00040703}-133.o(StubCode)
    theImportedSymbol                        0x000215f8   Data           0  QtCore{00040703}-133.o(StubCode)
    StubCode                                 0x000215fc   Section        8  QtCore{00040703}-140.o(StubCode)
    theImportedSymbol                        0x00021600   Data           0  QtCore{00040703}-140.o(StubCode)
    StubCode                                 0x00021604   Section        8  QtCore{00040703}-150.o(StubCode)
    theImportedSymbol                        0x00021608   Data           0  QtCore{00040703}-150.o(StubCode)
    StubCode                                 0x0002160c   Section        8  QtCore{00040703}-153.o(StubCode)
    theImportedSymbol                        0x00021610   Data           0  QtCore{00040703}-153.o(StubCode)
    StubCode                                 0x00021614   Section        8  QtCore{00040703}-1560.o(StubCode)
    theImportedSymbol                        0x00021618   Data           0  QtCore{00040703}-1560.o(StubCode)
    StubCode                                 0x0002161c   Section        8  QtCore{00040703}-1582.o(StubCode)
    theImportedSymbol                        0x00021620   Data           0  QtCore{00040703}-1582.o(StubCode)
    StubCode                                 0x00021624   Section        8  QtCore{00040703}-159.o(StubCode)
    theImportedSymbol                        0x00021628   Data           0  QtCore{00040703}-159.o(StubCode)
    StubCode                                 0x0002162c   Section        8  QtCore{00040703}-160.o(StubCode)
    theImportedSymbol                        0x00021630   Data           0  QtCore{00040703}-160.o(StubCode)
    StubCode                                 0x00021634   Section        8  QtCore{00040703}-1603.o(StubCode)
    theImportedSymbol                        0x00021638   Data           0  QtCore{00040703}-1603.o(StubCode)
    StubCode                                 0x0002163c   Section        8  QtCore{00040703}-1607.o(StubCode)
    theImportedSymbol                        0x00021640   Data           0  QtCore{00040703}-1607.o(StubCode)
    StubCode                                 0x00021644   Section        8  QtCore{00040703}-1610.o(StubCode)
    theImportedSymbol                        0x00021648   Data           0  QtCore{00040703}-1610.o(StubCode)
    StubCode                                 0x0002164c   Section        8  QtCore{00040703}-1622.o(StubCode)
    theImportedSymbol                        0x00021650   Data           0  QtCore{00040703}-1622.o(StubCode)
    StubCode                                 0x00021654   Section        8  QtCore{00040703}-1631.o(StubCode)
    theImportedSymbol                        0x00021658   Data           0  QtCore{00040703}-1631.o(StubCode)
    StubCode                                 0x0002165c   Section        8  QtCore{00040703}-1643.o(StubCode)
    theImportedSymbol                        0x00021660   Data           0  QtCore{00040703}-1643.o(StubCode)
    StubCode                                 0x00021664   Section        8  QtCore{00040703}-167.o(StubCode)
    theImportedSymbol                        0x00021668   Data           0  QtCore{00040703}-167.o(StubCode)
    StubCode                                 0x0002166c   Section        8  QtCore{00040703}-1670.o(StubCode)
    theImportedSymbol                        0x00021670   Data           0  QtCore{00040703}-1670.o(StubCode)
    StubCode                                 0x00021674   Section        8  QtCore{00040703}-1671.o(StubCode)
    theImportedSymbol                        0x00021678   Data           0  QtCore{00040703}-1671.o(StubCode)
    StubCode                                 0x0002167c   Section        8  QtCore{00040703}-1674.o(StubCode)
    theImportedSymbol                        0x00021680   Data           0  QtCore{00040703}-1674.o(StubCode)
    StubCode                                 0x00021684   Section        8  QtCore{00040703}-1676.o(StubCode)
    theImportedSymbol                        0x00021688   Data           0  QtCore{00040703}-1676.o(StubCode)
    StubCode                                 0x0002168c   Section        8  QtCore{00040703}-168.o(StubCode)
    theImportedSymbol                        0x00021690   Data           0  QtCore{00040703}-168.o(StubCode)
    StubCode                                 0x00021694   Section        8  QtCore{00040703}-175.o(StubCode)
    theImportedSymbol                        0x00021698   Data           0  QtCore{00040703}-175.o(StubCode)
    StubCode                                 0x0002169c   Section        8  QtCore{00040703}-1760.o(StubCode)
    theImportedSymbol                        0x000216a0   Data           0  QtCore{00040703}-1760.o(StubCode)
    StubCode                                 0x000216a4   Section        8  QtCore{00040703}-1763.o(StubCode)
    theImportedSymbol                        0x000216a8   Data           0  QtCore{00040703}-1763.o(StubCode)
    StubCode                                 0x000216ac   Section        8  QtCore{00040703}-1764.o(StubCode)
    theImportedSymbol                        0x000216b0   Data           0  QtCore{00040703}-1764.o(StubCode)
    StubCode                                 0x000216b4   Section        8  QtCore{00040703}-1766.o(StubCode)
    theImportedSymbol                        0x000216b8   Data           0  QtCore{00040703}-1766.o(StubCode)
    StubCode                                 0x000216bc   Section        8  QtCore{00040703}-1767.o(StubCode)
    theImportedSymbol                        0x000216c0   Data           0  QtCore{00040703}-1767.o(StubCode)
    StubCode                                 0x000216c4   Section        8  QtCore{00040703}-1768.o(StubCode)
    theImportedSymbol                        0x000216c8   Data           0  QtCore{00040703}-1768.o(StubCode)
    StubCode                                 0x000216cc   Section        8  QtCore{00040703}-177.o(StubCode)
    theImportedSymbol                        0x000216d0   Data           0  QtCore{00040703}-177.o(StubCode)
    StubCode                                 0x000216d4   Section        8  QtCore{00040703}-1773.o(StubCode)
    theImportedSymbol                        0x000216d8   Data           0  QtCore{00040703}-1773.o(StubCode)
    StubCode                                 0x000216dc   Section        8  QtCore{00040703}-1777.o(StubCode)
    theImportedSymbol                        0x000216e0   Data           0  QtCore{00040703}-1777.o(StubCode)
    StubCode                                 0x000216e4   Section        8  QtCore{00040703}-1784.o(StubCode)
    theImportedSymbol                        0x000216e8   Data           0  QtCore{00040703}-1784.o(StubCode)
    StubCode                                 0x000216ec   Section        8  QtCore{00040703}-1785.o(StubCode)
    theImportedSymbol                        0x000216f0   Data           0  QtCore{00040703}-1785.o(StubCode)
    StubCode                                 0x000216f4   Section        8  QtCore{00040703}-1789.o(StubCode)
    theImportedSymbol                        0x000216f8   Data           0  QtCore{00040703}-1789.o(StubCode)
    StubCode                                 0x000216fc   Section        8  QtCore{00040703}-179.o(StubCode)
    theImportedSymbol                        0x00021700   Data           0  QtCore{00040703}-179.o(StubCode)
    StubCode                                 0x00021704   Section        8  QtCore{00040703}-1794.o(StubCode)
    theImportedSymbol                        0x00021708   Data           0  QtCore{00040703}-1794.o(StubCode)
    StubCode                                 0x0002170c   Section        8  QtCore{00040703}-1802.o(StubCode)
    theImportedSymbol                        0x00021710   Data           0  QtCore{00040703}-1802.o(StubCode)
    StubCode                                 0x00021714   Section        8  QtCore{00040703}-1805.o(StubCode)
    theImportedSymbol                        0x00021718   Data           0  QtCore{00040703}-1805.o(StubCode)
    StubCode                                 0x0002171c   Section        8  QtCore{00040703}-1811.o(StubCode)
    theImportedSymbol                        0x00021720   Data           0  QtCore{00040703}-1811.o(StubCode)
    StubCode                                 0x00021724   Section        8  QtCore{00040703}-1814.o(StubCode)
    theImportedSymbol                        0x00021728   Data           0  QtCore{00040703}-1814.o(StubCode)
    StubCode                                 0x0002172c   Section        8  QtCore{00040703}-182.o(StubCode)
    theImportedSymbol                        0x00021730   Data           0  QtCore{00040703}-182.o(StubCode)
    StubCode                                 0x00021734   Section        8  QtCore{00040703}-1825.o(StubCode)
    theImportedSymbol                        0x00021738   Data           0  QtCore{00040703}-1825.o(StubCode)
    StubCode                                 0x0002173c   Section        8  QtCore{00040703}-1830.o(StubCode)
    theImportedSymbol                        0x00021740   Data           0  QtCore{00040703}-1830.o(StubCode)
    StubCode                                 0x00021744   Section        8  QtCore{00040703}-1836.o(StubCode)
    theImportedSymbol                        0x00021748   Data           0  QtCore{00040703}-1836.o(StubCode)
    StubCode                                 0x0002174c   Section        8  QtCore{00040703}-1839.o(StubCode)
    theImportedSymbol                        0x00021750   Data           0  QtCore{00040703}-1839.o(StubCode)
    StubCode                                 0x00021754   Section        8  QtCore{00040703}-1842.o(StubCode)
    theImportedSymbol                        0x00021758   Data           0  QtCore{00040703}-1842.o(StubCode)
    StubCode                                 0x0002175c   Section        8  QtCore{00040703}-1844.o(StubCode)
    theImportedSymbol                        0x00021760   Data           0  QtCore{00040703}-1844.o(StubCode)
    StubCode                                 0x00021764   Section        8  QtCore{00040703}-1874.o(StubCode)
    theImportedSymbol                        0x00021768   Data           0  QtCore{00040703}-1874.o(StubCode)
    StubCode                                 0x0002176c   Section        8  QtCore{00040703}-1875.o(StubCode)
    theImportedSymbol                        0x00021770   Data           0  QtCore{00040703}-1875.o(StubCode)
    StubCode                                 0x00021774   Section        8  QtCore{00040703}-1885.o(StubCode)
    theImportedSymbol                        0x00021778   Data           0  QtCore{00040703}-1885.o(StubCode)
    StubCode                                 0x0002177c   Section        8  QtCore{00040703}-1947.o(StubCode)
    theImportedSymbol                        0x00021780   Data           0  QtCore{00040703}-1947.o(StubCode)
    StubCode                                 0x00021784   Section        8  QtCore{00040703}-1949.o(StubCode)
    theImportedSymbol                        0x00021788   Data           0  QtCore{00040703}-1949.o(StubCode)
    StubCode                                 0x0002178c   Section        8  QtCore{00040703}-202.o(StubCode)
    theImportedSymbol                        0x00021790   Data           0  QtCore{00040703}-202.o(StubCode)
    StubCode                                 0x00021794   Section        8  QtCore{00040703}-2034.o(StubCode)
    theImportedSymbol                        0x00021798   Data           0  QtCore{00040703}-2034.o(StubCode)
    StubCode                                 0x0002179c   Section        8  QtCore{00040703}-2036.o(StubCode)
    theImportedSymbol                        0x000217a0   Data           0  QtCore{00040703}-2036.o(StubCode)
    StubCode                                 0x000217a4   Section        8  QtCore{00040703}-2040.o(StubCode)
    theImportedSymbol                        0x000217a8   Data           0  QtCore{00040703}-2040.o(StubCode)
    StubCode                                 0x000217ac   Section        8  QtCore{00040703}-2043.o(StubCode)
    theImportedSymbol                        0x000217b0   Data           0  QtCore{00040703}-2043.o(StubCode)
    StubCode                                 0x000217b4   Section        8  QtCore{00040703}-206.o(StubCode)
    theImportedSymbol                        0x000217b8   Data           0  QtCore{00040703}-206.o(StubCode)
    StubCode                                 0x000217bc   Section        8  QtCore{00040703}-2082.o(StubCode)
    theImportedSymbol                        0x000217c0   Data           0  QtCore{00040703}-2082.o(StubCode)
    StubCode                                 0x000217c4   Section        8  QtCore{00040703}-2084.o(StubCode)
    theImportedSymbol                        0x000217c8   Data           0  QtCore{00040703}-2084.o(StubCode)
    StubCode                                 0x000217cc   Section        8  QtCore{00040703}-2097.o(StubCode)
    theImportedSymbol                        0x000217d0   Data           0  QtCore{00040703}-2097.o(StubCode)
    StubCode                                 0x000217d4   Section        8  QtCore{00040703}-2103.o(StubCode)
    theImportedSymbol                        0x000217d8   Data           0  QtCore{00040703}-2103.o(StubCode)
    StubCode                                 0x000217dc   Section        8  QtCore{00040703}-2104.o(StubCode)
    theImportedSymbol                        0x000217e0   Data           0  QtCore{00040703}-2104.o(StubCode)
    StubCode                                 0x000217e4   Section        8  QtCore{00040703}-2105.o(StubCode)
    theImportedSymbol                        0x000217e8   Data           0  QtCore{00040703}-2105.o(StubCode)
    StubCode                                 0x000217ec   Section        8  QtCore{00040703}-2110.o(StubCode)
    theImportedSymbol                        0x000217f0   Data           0  QtCore{00040703}-2110.o(StubCode)
    StubCode                                 0x000217f4   Section        8  QtCore{00040703}-2112.o(StubCode)
    theImportedSymbol                        0x000217f8   Data           0  QtCore{00040703}-2112.o(StubCode)
    StubCode                                 0x000217fc   Section        8  QtCore{00040703}-2122.o(StubCode)
    theImportedSymbol                        0x00021800   Data           0  QtCore{00040703}-2122.o(StubCode)
    StubCode                                 0x00021804   Section        8  QtCore{00040703}-2130.o(StubCode)
    theImportedSymbol                        0x00021808   Data           0  QtCore{00040703}-2130.o(StubCode)
    StubCode                                 0x0002180c   Section        8  QtCore{00040703}-2134.o(StubCode)
    theImportedSymbol                        0x00021810   Data           0  QtCore{00040703}-2134.o(StubCode)
    StubCode                                 0x00021814   Section        8  QtCore{00040703}-2141.o(StubCode)
    theImportedSymbol                        0x00021818   Data           0  QtCore{00040703}-2141.o(StubCode)
    StubCode                                 0x0002181c   Section        8  QtCore{00040703}-2142.o(StubCode)
    theImportedSymbol                        0x00021820   Data           0  QtCore{00040703}-2142.o(StubCode)
    StubCode                                 0x00021824   Section        8  QtCore{00040703}-2143.o(StubCode)
    theImportedSymbol                        0x00021828   Data           0  QtCore{00040703}-2143.o(StubCode)
    StubCode                                 0x0002182c   Section        8  QtCore{00040703}-2169.o(StubCode)
    theImportedSymbol                        0x00021830   Data           0  QtCore{00040703}-2169.o(StubCode)
    StubCode                                 0x00021834   Section        8  QtCore{00040703}-2186.o(StubCode)
    theImportedSymbol                        0x00021838   Data           0  QtCore{00040703}-2186.o(StubCode)
    StubCode                                 0x0002183c   Section        8  QtCore{00040703}-2188.o(StubCode)
    theImportedSymbol                        0x00021840   Data           0  QtCore{00040703}-2188.o(StubCode)
    StubCode                                 0x00021844   Section        8  QtCore{00040703}-2190.o(StubCode)
    theImportedSymbol                        0x00021848   Data           0  QtCore{00040703}-2190.o(StubCode)
    StubCode                                 0x0002184c   Section        8  QtCore{00040703}-2191.o(StubCode)
    theImportedSymbol                        0x00021850   Data           0  QtCore{00040703}-2191.o(StubCode)
    StubCode                                 0x00021854   Section        8  QtCore{00040703}-2193.o(StubCode)
    theImportedSymbol                        0x00021858   Data           0  QtCore{00040703}-2193.o(StubCode)
    StubCode                                 0x0002185c   Section        8  QtCore{00040703}-2196.o(StubCode)
    theImportedSymbol                        0x00021860   Data           0  QtCore{00040703}-2196.o(StubCode)
    StubCode                                 0x00021864   Section        8  QtCore{00040703}-2197.o(StubCode)
    theImportedSymbol                        0x00021868   Data           0  QtCore{00040703}-2197.o(StubCode)
    StubCode                                 0x0002186c   Section        8  QtCore{00040703}-2199.o(StubCode)
    theImportedSymbol                        0x00021870   Data           0  QtCore{00040703}-2199.o(StubCode)
    StubCode                                 0x00021874   Section        8  QtCore{00040703}-229.o(StubCode)
    theImportedSymbol                        0x00021878   Data           0  QtCore{00040703}-229.o(StubCode)
    StubCode                                 0x0002187c   Section        8  QtCore{00040703}-2321.o(StubCode)
    theImportedSymbol                        0x00021880   Data           0  QtCore{00040703}-2321.o(StubCode)
    StubCode                                 0x00021884   Section        8  QtCore{00040703}-2330.o(StubCode)
    theImportedSymbol                        0x00021888   Data           0  QtCore{00040703}-2330.o(StubCode)
    StubCode                                 0x0002188c   Section        8  QtCore{00040703}-2332.o(StubCode)
    theImportedSymbol                        0x00021890   Data           0  QtCore{00040703}-2332.o(StubCode)
    StubCode                                 0x00021894   Section        8  QtCore{00040703}-2334.o(StubCode)
    theImportedSymbol                        0x00021898   Data           0  QtCore{00040703}-2334.o(StubCode)
    StubCode                                 0x0002189c   Section        8  QtCore{00040703}-2340.o(StubCode)
    theImportedSymbol                        0x000218a0   Data           0  QtCore{00040703}-2340.o(StubCode)
    StubCode                                 0x000218a4   Section        8  QtCore{00040703}-2341.o(StubCode)
    theImportedSymbol                        0x000218a8   Data           0  QtCore{00040703}-2341.o(StubCode)
    StubCode                                 0x000218ac   Section        8  QtCore{00040703}-2345.o(StubCode)
    theImportedSymbol                        0x000218b0   Data           0  QtCore{00040703}-2345.o(StubCode)
    StubCode                                 0x000218b4   Section        8  QtCore{00040703}-2352.o(StubCode)
    theImportedSymbol                        0x000218b8   Data           0  QtCore{00040703}-2352.o(StubCode)
    StubCode                                 0x000218bc   Section        8  QtCore{00040703}-2359.o(StubCode)
    theImportedSymbol                        0x000218c0   Data           0  QtCore{00040703}-2359.o(StubCode)
    StubCode                                 0x000218c4   Section        8  QtCore{00040703}-2360.o(StubCode)
    theImportedSymbol                        0x000218c8   Data           0  QtCore{00040703}-2360.o(StubCode)
    StubCode                                 0x000218cc   Section        8  QtCore{00040703}-2377.o(StubCode)
    theImportedSymbol                        0x000218d0   Data           0  QtCore{00040703}-2377.o(StubCode)
    StubCode                                 0x000218d4   Section        8  QtCore{00040703}-2380.o(StubCode)
    theImportedSymbol                        0x000218d8   Data           0  QtCore{00040703}-2380.o(StubCode)
    StubCode                                 0x000218dc   Section        8  QtCore{00040703}-282.o(StubCode)
    theImportedSymbol                        0x000218e0   Data           0  QtCore{00040703}-282.o(StubCode)
    StubCode                                 0x000218e4   Section        8  QtCore{00040703}-2883.o(StubCode)
    theImportedSymbol                        0x000218e8   Data           0  QtCore{00040703}-2883.o(StubCode)
    StubCode                                 0x000218ec   Section        8  QtCore{00040703}-2884.o(StubCode)
    theImportedSymbol                        0x000218f0   Data           0  QtCore{00040703}-2884.o(StubCode)
    StubCode                                 0x000218f4   Section        8  QtCore{00040703}-2885.o(StubCode)
    theImportedSymbol                        0x000218f8   Data           0  QtCore{00040703}-2885.o(StubCode)
    StubCode                                 0x000218fc   Section        8  QtCore{00040703}-2900.o(StubCode)
    theImportedSymbol                        0x00021900   Data           0  QtCore{00040703}-2900.o(StubCode)
    StubCode                                 0x00021904   Section        8  QtCore{00040703}-2913.o(StubCode)
    theImportedSymbol                        0x00021908   Data           0  QtCore{00040703}-2913.o(StubCode)
    StubCode                                 0x0002190c   Section        8  QtCore{00040703}-2914.o(StubCode)
    theImportedSymbol                        0x00021910   Data           0  QtCore{00040703}-2914.o(StubCode)
    StubCode                                 0x00021914   Section        8  QtCore{00040703}-2915.o(StubCode)
    theImportedSymbol                        0x00021918   Data           0  QtCore{00040703}-2915.o(StubCode)
    StubCode                                 0x0002191c   Section        8  QtCore{00040703}-2916.o(StubCode)
    theImportedSymbol                        0x00021920   Data           0  QtCore{00040703}-2916.o(StubCode)
    StubCode                                 0x00021924   Section        8  QtCore{00040703}-3022.o(StubCode)
    theImportedSymbol                        0x00021928   Data           0  QtCore{00040703}-3022.o(StubCode)
    StubCode                                 0x0002192c   Section        8  QtCore{00040703}-303.o(StubCode)
    theImportedSymbol                        0x00021930   Data           0  QtCore{00040703}-303.o(StubCode)
    StubCode                                 0x00021934   Section        8  QtCore{00040703}-3033.o(StubCode)
    theImportedSymbol                        0x00021938   Data           0  QtCore{00040703}-3033.o(StubCode)
    StubCode                                 0x0002193c   Section        8  QtCore{00040703}-3040.o(StubCode)
    theImportedSymbol                        0x00021940   Data           0  QtCore{00040703}-3040.o(StubCode)
    StubCode                                 0x00021944   Section        8  QtCore{00040703}-3054.o(StubCode)
    theImportedSymbol                        0x00021948   Data           0  QtCore{00040703}-3054.o(StubCode)
    StubCode                                 0x0002194c   Section        8  QtCore{00040703}-3055.o(StubCode)
    theImportedSymbol                        0x00021950   Data           0  QtCore{00040703}-3055.o(StubCode)
    StubCode                                 0x00021954   Section        8  QtCore{00040703}-3059.o(StubCode)
    theImportedSymbol                        0x00021958   Data           0  QtCore{00040703}-3059.o(StubCode)
    StubCode                                 0x0002195c   Section        8  QtCore{00040703}-3064.o(StubCode)
    theImportedSymbol                        0x00021960   Data           0  QtCore{00040703}-3064.o(StubCode)
    StubCode                                 0x00021964   Section        8  QtCore{00040703}-3066.o(StubCode)
    theImportedSymbol                        0x00021968   Data           0  QtCore{00040703}-3066.o(StubCode)
    StubCode                                 0x0002196c   Section        8  QtCore{00040703}-3072.o(StubCode)
    theImportedSymbol                        0x00021970   Data           0  QtCore{00040703}-3072.o(StubCode)
    StubCode                                 0x00021974   Section        8  QtCore{00040703}-3077.o(StubCode)
    theImportedSymbol                        0x00021978   Data           0  QtCore{00040703}-3077.o(StubCode)
    StubCode                                 0x0002197c   Section        8  QtCore{00040703}-3081.o(StubCode)
    theImportedSymbol                        0x00021980   Data           0  QtCore{00040703}-3081.o(StubCode)
    StubCode                                 0x00021984   Section        8  QtCore{00040703}-3087.o(StubCode)
    theImportedSymbol                        0x00021988   Data           0  QtCore{00040703}-3087.o(StubCode)
    StubCode                                 0x0002198c   Section        8  QtCore{00040703}-3095.o(StubCode)
    theImportedSymbol                        0x00021990   Data           0  QtCore{00040703}-3095.o(StubCode)
    StubCode                                 0x00021994   Section        8  QtCore{00040703}-3098.o(StubCode)
    theImportedSymbol                        0x00021998   Data           0  QtCore{00040703}-3098.o(StubCode)
    StubCode                                 0x0002199c   Section        8  QtCore{00040703}-3101.o(StubCode)
    theImportedSymbol                        0x000219a0   Data           0  QtCore{00040703}-3101.o(StubCode)
    StubCode                                 0x000219a4   Section        8  QtCore{00040703}-312.o(StubCode)
    theImportedSymbol                        0x000219a8   Data           0  QtCore{00040703}-312.o(StubCode)
    StubCode                                 0x000219ac   Section        8  QtCore{00040703}-3131.o(StubCode)
    theImportedSymbol                        0x000219b0   Data           0  QtCore{00040703}-3131.o(StubCode)
    StubCode                                 0x000219b4   Section        8  QtCore{00040703}-3136.o(StubCode)
    theImportedSymbol                        0x000219b8   Data           0  QtCore{00040703}-3136.o(StubCode)
    StubCode                                 0x000219bc   Section        8  QtCore{00040703}-3139.o(StubCode)
    theImportedSymbol                        0x000219c0   Data           0  QtCore{00040703}-3139.o(StubCode)
    StubCode                                 0x000219c4   Section        8  QtCore{00040703}-3142.o(StubCode)
    theImportedSymbol                        0x000219c8   Data           0  QtCore{00040703}-3142.o(StubCode)
    StubCode                                 0x000219cc   Section        8  QtCore{00040703}-3163.o(StubCode)
    theImportedSymbol                        0x000219d0   Data           0  QtCore{00040703}-3163.o(StubCode)
    StubCode                                 0x000219d4   Section        8  QtCore{00040703}-3170.o(StubCode)
    theImportedSymbol                        0x000219d8   Data           0  QtCore{00040703}-3170.o(StubCode)
    StubCode                                 0x000219dc   Section        8  QtCore{00040703}-3171.o(StubCode)
    theImportedSymbol                        0x000219e0   Data           0  QtCore{00040703}-3171.o(StubCode)
    StubCode                                 0x000219e4   Section        8  QtCore{00040703}-3173.o(StubCode)
    theImportedSymbol                        0x000219e8   Data           0  QtCore{00040703}-3173.o(StubCode)
    StubCode                                 0x000219ec   Section        8  QtCore{00040703}-3186.o(StubCode)
    theImportedSymbol                        0x000219f0   Data           0  QtCore{00040703}-3186.o(StubCode)
    StubCode                                 0x000219f4   Section        8  QtCore{00040703}-3187.o(StubCode)
    theImportedSymbol                        0x000219f8   Data           0  QtCore{00040703}-3187.o(StubCode)
    StubCode                                 0x000219fc   Section        8  QtCore{00040703}-32.o(StubCode)
    theImportedSymbol                        0x00021a00   Data           0  QtCore{00040703}-32.o(StubCode)
    StubCode                                 0x00021a04   Section        8  QtCore{00040703}-3212.o(StubCode)
    theImportedSymbol                        0x00021a08   Data           0  QtCore{00040703}-3212.o(StubCode)
    StubCode                                 0x00021a0c   Section        8  QtCore{00040703}-3218.o(StubCode)
    theImportedSymbol                        0x00021a10   Data           0  QtCore{00040703}-3218.o(StubCode)
    StubCode                                 0x00021a14   Section        8  QtCore{00040703}-3219.o(StubCode)
    theImportedSymbol                        0x00021a18   Data           0  QtCore{00040703}-3219.o(StubCode)
    StubCode                                 0x00021a1c   Section        8  QtCore{00040703}-324.o(StubCode)
    theImportedSymbol                        0x00021a20   Data           0  QtCore{00040703}-324.o(StubCode)
    StubCode                                 0x00021a24   Section        8  QtCore{00040703}-330.o(StubCode)
    theImportedSymbol                        0x00021a28   Data           0  QtCore{00040703}-330.o(StubCode)
    StubCode                                 0x00021a2c   Section        8  QtCore{00040703}-331.o(StubCode)
    theImportedSymbol                        0x00021a30   Data           0  QtCore{00040703}-331.o(StubCode)
    StubCode                                 0x00021a34   Section        8  QtCore{00040703}-332.o(StubCode)
    theImportedSymbol                        0x00021a38   Data           0  QtCore{00040703}-332.o(StubCode)
    StubCode                                 0x00021a3c   Section        8  QtCore{00040703}-3607.o(StubCode)
    theImportedSymbol                        0x00021a40   Data           0  QtCore{00040703}-3607.o(StubCode)
    StubCode                                 0x00021a44   Section        8  QtCore{00040703}-3608.o(StubCode)
    theImportedSymbol                        0x00021a48   Data           0  QtCore{00040703}-3608.o(StubCode)
    StubCode                                 0x00021a4c   Section        8  QtCore{00040703}-3609.o(StubCode)
    theImportedSymbol                        0x00021a50   Data           0  QtCore{00040703}-3609.o(StubCode)
    StubCode                                 0x00021a54   Section        8  QtCore{00040703}-3610.o(StubCode)
    theImportedSymbol                        0x00021a58   Data           0  QtCore{00040703}-3610.o(StubCode)
    StubCode                                 0x00021a5c   Section        8  QtCore{00040703}-3689.o(StubCode)
    theImportedSymbol                        0x00021a60   Data           0  QtCore{00040703}-3689.o(StubCode)
    StubCode                                 0x00021a64   Section        8  QtCore{00040703}-3691.o(StubCode)
    theImportedSymbol                        0x00021a68   Data           0  QtCore{00040703}-3691.o(StubCode)
    StubCode                                 0x00021a6c   Section        8  QtCore{00040703}-3692.o(StubCode)
    theImportedSymbol                        0x00021a70   Data           0  QtCore{00040703}-3692.o(StubCode)
    StubCode                                 0x00021a74   Section        8  QtCore{00040703}-56.o(StubCode)
    theImportedSymbol                        0x00021a78   Data           0  QtCore{00040703}-56.o(StubCode)
    StubCode                                 0x00021a7c   Section        8  QtCore{00040703}-70.o(StubCode)
    theImportedSymbol                        0x00021a80   Data           0  QtCore{00040703}-70.o(StubCode)
    StubCode                                 0x00021a84   Section        8  QtCore{00040703}-73.o(StubCode)
    theImportedSymbol                        0x00021a88   Data           0  QtCore{00040703}-73.o(StubCode)
    StubCode                                 0x00021a8c   Section        8  QtCore{00040703}-95.o(StubCode)
    theImportedSymbol                        0x00021a90   Data           0  QtCore{00040703}-95.o(StubCode)
    StubCode                                 0x00021a94   Section        8  QtCore{00040703}-96.o(StubCode)
    theImportedSymbol                        0x00021a98   Data           0  QtCore{00040703}-96.o(StubCode)
    StubCode                                 0x00021a9c   Section        8  libc{00010000}-232.o(StubCode)
    theImportedSymbol                        0x00021aa0   Data           0  libc{00010000}-232.o(StubCode)
    StubCode                                 0x00021aa4   Section        8  libc{00010000}-350.o(StubCode)
    theImportedSymbol                        0x00021aa8   Data           0  libc{00010000}-350.o(StubCode)
    StubCode                                 0x00021aac   Section        8  euser{000a0000}-1032.o(StubCode)
    theImportedSymbol                        0x00021ab0   Data           0  euser{000a0000}-1032.o(StubCode)
    StubCode                                 0x00021ab4   Section        8  euser{000a0000}-1033.o(StubCode)
    theImportedSymbol                        0x00021ab8   Data           0  euser{000a0000}-1033.o(StubCode)
    StubCode                                 0x00021abc   Section        8  euser{000a0000}-1034.o(StubCode)
    theImportedSymbol                        0x00021ac0   Data           0  euser{000a0000}-1034.o(StubCode)
    StubCode                                 0x00021ac4   Section        8  euser{000a0000}-1088.o(StubCode)
    theImportedSymbol                        0x00021ac8   Data           0  euser{000a0000}-1088.o(StubCode)
    StubCode                                 0x00021acc   Section        8  euser{000a0000}-1089.o(StubCode)
    theImportedSymbol                        0x00021ad0   Data           0  euser{000a0000}-1089.o(StubCode)
    StubCode                                 0x00021ad4   Section        8  euser{000a0000}-1090.o(StubCode)
    theImportedSymbol                        0x00021ad8   Data           0  euser{000a0000}-1090.o(StubCode)
    StubCode                                 0x00021adc   Section        8  euser{000a0000}-1091.o(StubCode)
    theImportedSymbol                        0x00021ae0   Data           0  euser{000a0000}-1091.o(StubCode)
    StubCode                                 0x00021ae4   Section        8  euser{000a0000}-1094.o(StubCode)
    theImportedSymbol                        0x00021ae8   Data           0  euser{000a0000}-1094.o(StubCode)
    StubCode                                 0x00021aec   Section        8  euser{000a0000}-1116.o(StubCode)
    theImportedSymbol                        0x00021af0   Data           0  euser{000a0000}-1116.o(StubCode)
    StubCode                                 0x00021af4   Section        8  euser{000a0000}-1119.o(StubCode)
    theImportedSymbol                        0x00021af8   Data           0  euser{000a0000}-1119.o(StubCode)
    StubCode                                 0x00021afc   Section        8  euser{000a0000}-1169.o(StubCode)
    theImportedSymbol                        0x00021b00   Data           0  euser{000a0000}-1169.o(StubCode)
    StubCode                                 0x00021b04   Section        8  euser{000a0000}-1170.o(StubCode)
    theImportedSymbol                        0x00021b08   Data           0  euser{000a0000}-1170.o(StubCode)
    StubCode                                 0x00021b0c   Section        8  euser{000a0000}-1171.o(StubCode)
    theImportedSymbol                        0x00021b10   Data           0  euser{000a0000}-1171.o(StubCode)
    StubCode                                 0x00021b14   Section        8  euser{000a0000}-120.o(StubCode)
    theImportedSymbol                        0x00021b18   Data           0  euser{000a0000}-120.o(StubCode)
    StubCode                                 0x00021b1c   Section        8  euser{000a0000}-1468.o(StubCode)
    theImportedSymbol                        0x00021b20   Data           0  euser{000a0000}-1468.o(StubCode)
    StubCode                                 0x00021b24   Section        8  euser{000a0000}-1469.o(StubCode)
    theImportedSymbol                        0x00021b28   Data           0  euser{000a0000}-1469.o(StubCode)
    StubCode                                 0x00021b2c   Section        8  euser{000a0000}-1474.o(StubCode)
    theImportedSymbol                        0x00021b30   Data           0  euser{000a0000}-1474.o(StubCode)
    StubCode                                 0x00021b34   Section        8  euser{000a0000}-1477.o(StubCode)
    theImportedSymbol                        0x00021b38   Data           0  euser{000a0000}-1477.o(StubCode)
    StubCode                                 0x00021b3c   Section        8  euser{000a0000}-1478.o(StubCode)
    theImportedSymbol                        0x00021b40   Data           0  euser{000a0000}-1478.o(StubCode)
    StubCode                                 0x00021b44   Section        8  euser{000a0000}-1479.o(StubCode)
    theImportedSymbol                        0x00021b48   Data           0  euser{000a0000}-1479.o(StubCode)
    StubCode                                 0x00021b4c   Section        8  euser{000a0000}-1480.o(StubCode)
    theImportedSymbol                        0x00021b50   Data           0  euser{000a0000}-1480.o(StubCode)
    StubCode                                 0x00021b54   Section        8  euser{000a0000}-1481.o(StubCode)
    theImportedSymbol                        0x00021b58   Data           0  euser{000a0000}-1481.o(StubCode)
    StubCode                                 0x00021b5c   Section        8  euser{000a0000}-1482.o(StubCode)
    theImportedSymbol                        0x00021b60   Data           0  euser{000a0000}-1482.o(StubCode)
    StubCode                                 0x00021b64   Section        8  euser{000a0000}-1507.o(StubCode)
    theImportedSymbol                        0x00021b68   Data           0  euser{000a0000}-1507.o(StubCode)
    StubCode                                 0x00021b6c   Section        8  euser{000a0000}-1510.o(StubCode)
    theImportedSymbol                        0x00021b70   Data           0  euser{000a0000}-1510.o(StubCode)
    StubCode                                 0x00021b74   Section        8  euser{000a0000}-1553.o(StubCode)
    theImportedSymbol                        0x00021b78   Data           0  euser{000a0000}-1553.o(StubCode)
    StubCode                                 0x00021b7c   Section        8  euser{000a0000}-1590.o(StubCode)
    theImportedSymbol                        0x00021b80   Data           0  euser{000a0000}-1590.o(StubCode)
    StubCode                                 0x00021b84   Section        8  euser{000a0000}-1591.o(StubCode)
    theImportedSymbol                        0x00021b88   Data           0  euser{000a0000}-1591.o(StubCode)
    StubCode                                 0x00021b8c   Section        8  euser{000a0000}-1593.o(StubCode)
    theImportedSymbol                        0x00021b90   Data           0  euser{000a0000}-1593.o(StubCode)
    StubCode                                 0x00021b94   Section        8  euser{000a0000}-1601.o(StubCode)
    theImportedSymbol                        0x00021b98   Data           0  euser{000a0000}-1601.o(StubCode)
    StubCode                                 0x00021b9c   Section        8  euser{000a0000}-1602.o(StubCode)
    theImportedSymbol                        0x00021ba0   Data           0  euser{000a0000}-1602.o(StubCode)
    StubCode                                 0x00021ba4   Section        8  euser{000a0000}-1679.o(StubCode)
    theImportedSymbol                        0x00021ba8   Data           0  euser{000a0000}-1679.o(StubCode)
    StubCode                                 0x00021bac   Section        8  euser{000a0000}-1719.o(StubCode)
    theImportedSymbol                        0x00021bb0   Data           0  euser{000a0000}-1719.o(StubCode)
    StubCode                                 0x00021bb4   Section        8  euser{000a0000}-1733.o(StubCode)
    theImportedSymbol                        0x00021bb8   Data           0  euser{000a0000}-1733.o(StubCode)
    StubCode                                 0x00021bbc   Section        8  euser{000a0000}-1806.o(StubCode)
    theImportedSymbol                        0x00021bc0   Data           0  euser{000a0000}-1806.o(StubCode)
    StubCode                                 0x00021bc4   Section        8  euser{000a0000}-1807.o(StubCode)
    theImportedSymbol                        0x00021bc8   Data           0  euser{000a0000}-1807.o(StubCode)
    StubCode                                 0x00021bcc   Section        8  euser{000a0000}-1821.o(StubCode)
    theImportedSymbol                        0x00021bd0   Data           0  euser{000a0000}-1821.o(StubCode)
    StubCode                                 0x00021bd4   Section        8  euser{000a0000}-202.o(StubCode)
    theImportedSymbol                        0x00021bd8   Data           0  euser{000a0000}-202.o(StubCode)
    StubCode                                 0x00021bdc   Section        8  euser{000a0000}-203.o(StubCode)
    theImportedSymbol                        0x00021be0   Data           0  euser{000a0000}-203.o(StubCode)
    StubCode                                 0x00021be4   Section        8  euser{000a0000}-205.o(StubCode)
    theImportedSymbol                        0x00021be8   Data           0  euser{000a0000}-205.o(StubCode)
    StubCode                                 0x00021bec   Section        8  euser{000a0000}-2060.o(StubCode)
    theImportedSymbol                        0x00021bf0   Data           0  euser{000a0000}-2060.o(StubCode)
    StubCode                                 0x00021bf4   Section        8  euser{000a0000}-2061.o(StubCode)
    theImportedSymbol                        0x00021bf8   Data           0  euser{000a0000}-2061.o(StubCode)
    StubCode                                 0x00021bfc   Section        8  euser{000a0000}-207.o(StubCode)
    theImportedSymbol                        0x00021c00   Data           0  euser{000a0000}-207.o(StubCode)
    StubCode                                 0x00021c04   Section        8  euser{000a0000}-208.o(StubCode)
    theImportedSymbol                        0x00021c08   Data           0  euser{000a0000}-208.o(StubCode)
    StubCode                                 0x00021c0c   Section        8  euser{000a0000}-2082.o(StubCode)
    theImportedSymbol                        0x00021c10   Data           0  euser{000a0000}-2082.o(StubCode)
    StubCode                                 0x00021c14   Section        8  euser{000a0000}-209.o(StubCode)
    theImportedSymbol                        0x00021c18   Data           0  euser{000a0000}-209.o(StubCode)
    StubCode                                 0x00021c1c   Section        8  euser{000a0000}-2128.o(StubCode)
    theImportedSymbol                        0x00021c20   Data           0  euser{000a0000}-2128.o(StubCode)
    StubCode                                 0x00021c24   Section        8  euser{000a0000}-247.o(StubCode)
    theImportedSymbol                        0x00021c28   Data           0  euser{000a0000}-247.o(StubCode)
    StubCode                                 0x00021c2c   Section        8  euser{000a0000}-250.o(StubCode)
    theImportedSymbol                        0x00021c30   Data           0  euser{000a0000}-250.o(StubCode)
    StubCode                                 0x00021c34   Section        8  euser{000a0000}-424.o(StubCode)
    theImportedSymbol                        0x00021c38   Data           0  euser{000a0000}-424.o(StubCode)
    StubCode                                 0x00021c3c   Section        8  euser{000a0000}-46.o(StubCode)
    theImportedSymbol                        0x00021c40   Data           0  euser{000a0000}-46.o(StubCode)
    StubCode                                 0x00021c44   Section        8  euser{000a0000}-471.o(StubCode)
    theImportedSymbol                        0x00021c48   Data           0  euser{000a0000}-471.o(StubCode)
    StubCode                                 0x00021c4c   Section        8  euser{000a0000}-472.o(StubCode)
    theImportedSymbol                        0x00021c50   Data           0  euser{000a0000}-472.o(StubCode)
    StubCode                                 0x00021c54   Section        8  euser{000a0000}-474.o(StubCode)
    theImportedSymbol                        0x00021c58   Data           0  euser{000a0000}-474.o(StubCode)
    StubCode                                 0x00021c5c   Section        8  euser{000a0000}-481.o(StubCode)
    theImportedSymbol                        0x00021c60   Data           0  euser{000a0000}-481.o(StubCode)
    StubCode                                 0x00021c64   Section        8  euser{000a0000}-57.o(StubCode)
    theImportedSymbol                        0x00021c68   Data           0  euser{000a0000}-57.o(StubCode)
    StubCode                                 0x00021c6c   Section        8  euser{000a0000}-593.o(StubCode)
    theImportedSymbol                        0x00021c70   Data           0  euser{000a0000}-593.o(StubCode)
    StubCode                                 0x00021c74   Section        8  euser{000a0000}-649.o(StubCode)
    theImportedSymbol                        0x00021c78   Data           0  euser{000a0000}-649.o(StubCode)
    StubCode                                 0x00021c7c   Section        8  euser{000a0000}-652.o(StubCode)
    theImportedSymbol                        0x00021c80   Data           0  euser{000a0000}-652.o(StubCode)
    StubCode                                 0x00021c84   Section        8  euser{000a0000}-654.o(StubCode)
    theImportedSymbol                        0x00021c88   Data           0  euser{000a0000}-654.o(StubCode)
    StubCode                                 0x00021c8c   Section        8  euser{000a0000}-669.o(StubCode)
    theImportedSymbol                        0x00021c90   Data           0  euser{000a0000}-669.o(StubCode)
    StubCode                                 0x00021c94   Section        8  euser{000a0000}-670.o(StubCode)
    theImportedSymbol                        0x00021c98   Data           0  euser{000a0000}-670.o(StubCode)
    StubCode                                 0x00021c9c   Section        8  euser{000a0000}-671.o(StubCode)
    theImportedSymbol                        0x00021ca0   Data           0  euser{000a0000}-671.o(StubCode)
    StubCode                                 0x00021ca4   Section        8  euser{000a0000}-744.o(StubCode)
    theImportedSymbol                        0x00021ca8   Data           0  euser{000a0000}-744.o(StubCode)
    StubCode                                 0x00021cac   Section        8  euser{000a0000}-80.o(StubCode)
    theImportedSymbol                        0x00021cb0   Data           0  euser{000a0000}-80.o(StubCode)
    StubCode                                 0x00021cb4   Section        8  euser{000a0000}-81.o(StubCode)
    theImportedSymbol                        0x00021cb8   Data           0  euser{000a0000}-81.o(StubCode)
    StubCode                                 0x00021cbc   Section        8  euser{000a0000}-816.o(StubCode)
    theImportedSymbol                        0x00021cc0   Data           0  euser{000a0000}-816.o(StubCode)
    StubCode                                 0x00021cc4   Section        8  euser{000a0000}-855.o(StubCode)
    theImportedSymbol                        0x00021cc8   Data           0  euser{000a0000}-855.o(StubCode)
    StubCode                                 0x00021ccc   Section        8  euser{000a0000}-861.o(StubCode)
    theImportedSymbol                        0x00021cd0   Data           0  euser{000a0000}-861.o(StubCode)
    StubCode                                 0x00021cd4   Section        8  euser{000a0000}-891.o(StubCode)
    theImportedSymbol                        0x00021cd8   Data           0  euser{000a0000}-891.o(StubCode)
    StubCode                                 0x00021cdc   Section        8  euser{000a0000}-893.o(StubCode)
    theImportedSymbol                        0x00021ce0   Data           0  euser{000a0000}-893.o(StubCode)
    StubCode                                 0x00021ce4   Section        8  euser{000a0000}-894.o(StubCode)
    theImportedSymbol                        0x00021ce8   Data           0  euser{000a0000}-894.o(StubCode)
    StubCode                                 0x00021cec   Section        8  euser{000a0000}-925.o(StubCode)
    theImportedSymbol                        0x00021cf0   Data           0  euser{000a0000}-925.o(StubCode)
    StubCode                                 0x00021cf4   Section        8  euser{000a0000}-928.o(StubCode)
    theImportedSymbol                        0x00021cf8   Data           0  euser{000a0000}-928.o(StubCode)
    StubCode                                 0x00021cfc   Section        8  euser{000a0000}-929.o(StubCode)
    theImportedSymbol                        0x00021d00   Data           0  euser{000a0000}-929.o(StubCode)
    StubCode                                 0x00021d04   Section        8  euser{000a0000}-953.o(StubCode)
    theImportedSymbol                        0x00021d08   Data           0  euser{000a0000}-953.o(StubCode)
    StubCode                                 0x00021d0c   Section        8  euser{000a0000}-968.o(StubCode)
    theImportedSymbol                        0x00021d10   Data           0  euser{000a0000}-968.o(StubCode)
    StubCode                                 0x00021d14   Section        8  drtaeabi{000a0000}-135.o(StubCode)
    theImportedSymbol                        0x00021d18   Data           0  drtaeabi{000a0000}-135.o(StubCode)
    StubCode                                 0x00021d1c   Section        8  drtaeabi{000a0000}-147.o(StubCode)
    theImportedSymbol                        0x00021d20   Data           0  drtaeabi{000a0000}-147.o(StubCode)
    StubCode                                 0x00021d24   Section        8  drtaeabi{000a0000}-155.o(StubCode)
    theImportedSymbol                        0x00021d28   Data           0  drtaeabi{000a0000}-155.o(StubCode)
    StubCode                                 0x00021d2c   Section        8  drtaeabi{000a0000}-158.o(StubCode)
    theImportedSymbol                        0x00021d30   Data           0  drtaeabi{000a0000}-158.o(StubCode)
    StubCode                                 0x00021d34   Section        8  drtaeabi{000a0000}-159.o(StubCode)
    theImportedSymbol                        0x00021d38   Data           0  drtaeabi{000a0000}-159.o(StubCode)
    StubCode                                 0x00021d3c   Section        8  drtaeabi{000a0000}-180.o(StubCode)
    theImportedSymbol                        0x00021d40   Data           0  drtaeabi{000a0000}-180.o(StubCode)
    StubCode                                 0x00021d44   Section        8  drtaeabi{000a0000}-182.o(StubCode)
    theImportedSymbol                        0x00021d48   Data           0  drtaeabi{000a0000}-182.o(StubCode)
    StubCode                                 0x00021d4c   Section        8  drtaeabi{000a0000}-183.o(StubCode)
    theImportedSymbol                        0x00021d50   Data           0  drtaeabi{000a0000}-183.o(StubCode)
    StubCode                                 0x00021d54   Section        8  drtaeabi{000a0000}-184.o(StubCode)
    theImportedSymbol                        0x00021d58   Data           0  drtaeabi{000a0000}-184.o(StubCode)
    StubCode                                 0x00021d5c   Section        8  drtaeabi{000a0000}-186.o(StubCode)
    theImportedSymbol                        0x00021d60   Data           0  drtaeabi{000a0000}-186.o(StubCode)
    StubCode                                 0x00021d64   Section        8  drtaeabi{000a0000}-187.o(StubCode)
    theImportedSymbol                        0x00021d68   Data           0  drtaeabi{000a0000}-187.o(StubCode)
    StubCode                                 0x00021d6c   Section        8  drtaeabi{000a0000}-188.o(StubCode)
    theImportedSymbol                        0x00021d70   Data           0  drtaeabi{000a0000}-188.o(StubCode)
    StubCode                                 0x00021d74   Section        8  drtaeabi{000a0000}-190.o(StubCode)
    theImportedSymbol                        0x00021d78   Data           0  drtaeabi{000a0000}-190.o(StubCode)
    StubCode                                 0x00021d7c   Section        8  drtrvct2_2{000a0000}-28.o(StubCode)
    theImportedSymbol                        0x00021d80   Data           0  drtrvct2_2{000a0000}-28.o(StubCode)
    i._Z8qWarningv                           0x00021d84   Section       72  QtMessaging.in(i._Z8qWarningv)
    i._Z8qWarningv.clean                     0x00021dcc   Section       18  QtMessaging.in(i._Z8qWarningv.clean)
    i._ZN10QByteArrayC1ERKS_                 0x00021dde   Section       16  QtMessaging.in(i._ZN10QByteArrayC1ERKS_)
    i._ZN10QByteArrayC1Ev                    0x00021df0   Section       20  QtMessaging.in(i._ZN10QByteArrayC1Ev)
    i._ZN10QByteArrayD1Ev                    0x00021e04   Section       24  QtMessaging.in(i._ZN10QByteArrayD1Ev)
    i._ZN10QtMobility12MessageEventC1ERKS0_  0x00021e1c   Section       62  QtMessaging.in(i._ZN10QtMobility12MessageEventC1ERKS0_)
    i._ZN10QtMobility12MessageEventC1Ev      0x00021e5a   Section       12  QtMessaging.in(i._ZN10QtMobility12MessageEventC1Ev)
    i._ZN10QtMobility12MessageEventD1Ev      0x00021e66   Section       12  QtMessaging.in(i._ZN10QtMobility12MessageEventD1Ev)
    i._ZN10QtMobility15QMessagePrivateaSERKS0_ 0x00021e72   Section      192  QtMessaging.in(i._ZN10QtMobility15QMessagePrivateaSERKS0_)
    i._ZN10QtMobility16MessageQueryInfoC1ERKS0_ 0x00021f32   Section      108  QtMessaging.in(i._ZN10QtMobility16MessageQueryInfoC1ERKS0_)
    i._ZN10QtMobility16MessageQueryInfoC1ERKS0_.clean 0x00021f9e   Section       36  QtMessaging.in(i._ZN10QtMobility16MessageQueryInfoC1ERKS0_.clean)
    i._ZN10QtMobility16MessageQueryInfoC1Ev  0x00021fc2   Section       52  QtMessaging.in(i._ZN10QtMobility16MessageQueryInfoC1Ev)
    i._ZN10QtMobility16MessageQueryInfoC1Ev.clean 0x00021ff6   Section       36  QtMessaging.in(i._ZN10QtMobility16MessageQueryInfoC1Ev.clean)
    i._ZN10QtMobility16MessageQueryInfoD1Ev  0x0002201a   Section       44  QtMessaging.in(i._ZN10QtMobility16MessageQueryInfoD1Ev)
    i._ZN10QtMobility16MessageQueryInfoD1Ev.clean 0x00022046   Section       36  QtMessaging.in(i._ZN10QtMobility16MessageQueryInfoD1Ev.clean)
    i._ZN10QtMobility17QMessageIdPrivateC1Ev 0x0002206a   Section        8  QtMessaging.in(i._ZN10QtMobility17QMessageIdPrivateC1Ev)
    i._ZN10QtMobility21QMessageFolderPrivateC1EPNS_14QMessageFolderE 0x00022072   Section       58  QtMessaging.in(i._ZN10QtMobility21QMessageFolderPrivateC1EPNS_14QMessageFolderE)
    i._ZN10QtMobility21QMessageFolderPrivateC1EPNS_14QMessageFolderE.clean 0x000220ac   Section       46  QtMessaging.in(i._ZN10QtMobility21QMessageFolderPrivateC1EPNS_14QMessageFolderE.clean)
    i._ZN10QtMobility22QMessageAccountPrivateC1EPNS_15QMessageAccountE 0x000220dc   Section       36  QtMessaging.in(i._ZN10QtMobility22QMessageAccountPrivateC1EPNS_15QMessageAccountE)
    i._ZN10QtMobility22QMessageAccountPrivateC1EPNS_15QMessageAccountE.clean 0x00022100   Section       10  QtMessaging.in(i._ZN10QtMobility22QMessageAccountPrivateC1EPNS_15QMessageAccountE.clean)
    i._ZN10QtMobility22QMessageAddressPrivateC1EPNS_15QMessageAddressE 0x0002210a   Section       18  QtMessaging.in(i._ZN10QtMobility22QMessageAddressPrivateC1EPNS_15QMessageAddressE)
    i._ZN10QtMobility23QMessageFolderIdPrivateC1EPNS_16QMessageFolderIdE 0x0002211c   Section       12  QtMessaging.in(i._ZN10QtMobility23QMessageFolderIdPrivateC1EPNS_16QMessageFolderIdE)
    i._ZN10QtMobility23QMessageFolderIdPrivateD1Ev 0x00022128   Section       12  QtMessaging.in(i._ZN10QtMobility23QMessageFolderIdPrivateD1Ev)
    i._ZN10QtMobility24QMessageAccountIdPrivateC1EPNS_17QMessageAccountIdE 0x00022134   Section       12  QtMessaging.in(i._ZN10QtMobility24QMessageAccountIdPrivateC1EPNS_17QMessageAccountIdE)
    i._ZN10QtMobility24QMessageAccountIdPrivateD1Ev 0x00022140   Section       12  QtMessaging.in(i._ZN10QtMobility24QMessageAccountIdPrivateD1Ev)
    i._ZN10QtMobility30QMessageFolderSortOrderPrivateC1EPNS_23QMessageFolderSortOrderE 0x0002214c   Section       24  QtMessaging.in(i._ZN10QtMobility30QMessageFolderSortOrderPrivateC1EPNS_23QMessageFolderSortOrderE)
    i._ZN10QtMobility31QMessageContentContainerPrivateC1EPNS_24QMessageContentContainerE 0x00022164   Section      146  QtMessaging.in(i._ZN10QtMobility31QMessageContentContainerPrivateC1EPNS_24QMessageContentContainerE)
    i._ZN10QtMobility31QMessageContentContainerPrivateC1EPNS_24QMessageContentContainerE.clean 0x000221f6   Section      120  QtMessaging.in(i._ZN10QtMobility31QMessageContentContainerPrivateC1EPNS_24QMessageContentContainerE.clean)
    i._ZN10QtMobility31QMessageContentContainerPrivateD1Ev 0x0002226e   Section      128  QtMessaging.in(i._ZN10QtMobility31QMessageContentContainerPrivateD1Ev)
    i._ZN10QtMobility31QMessageContentContainerPrivateD1Ev.clean 0x000222ee   Section      120  QtMessaging.in(i._ZN10QtMobility31QMessageContentContainerPrivateD1Ev.clean)
    i._ZN10QtMobility33QMessageContentContainerIdPrivateC1Ev 0x00022366   Section        8  QtMessaging.in(i._ZN10QtMobility33QMessageContentContainerIdPrivateC1Ev)
    i._ZN11QStringListD1Ev                   0x0002236e   Section        8  QtMessaging.in(i._ZN11QStringListD1Ev)
    i._ZN13CMmsClientMtm19SwitchCurrentEntryLEl 0x00022376   Section        8  QtMessaging.in(i._ZN13CMmsClientMtm19SwitchCurrentEntryLEl)
    i._ZN15CMsvEntryFilter8SetOrderERK21TMsvSelectionOrdering 0x0002237e   Section       22  QtMessaging.in(i._ZN15CMsvEntryFilter8SetOrderERK21TMsvSelectionOrdering)
    i._ZN15QBasicAtomicInt3refEv             0x00022394   Section       18  QtMessaging.in(i._ZN15QBasicAtomicInt3refEv)
    i._ZN15QBasicAtomicInt5derefEv           0x000223a6   Section       18  QtMessaging.in(i._ZN15QBasicAtomicInt5derefEv)
    i._ZN17QForeachContainerI11QStringListED1Ev 0x000223b8   Section        8  QtMessaging.in(i._ZN17QForeachContainerI11QStringListED1Ev)
    i._ZN17QForeachContainerI5QHashI7QStringN10QtMobility15QMessageAccountEEED1Ev 0x000223c0   Section        8  QtMessaging.in(i._ZN17QForeachContainerI5QHashI7QStringN10QtMobility15QMessageAccountEEED1Ev)
    i._ZN17QForeachContainerI5QListI10QByteArrayEED1Ev 0x000223c8   Section        8  QtMessaging.in(i._ZN17QForeachContainerI5QListI10QByteArrayEED1Ev)
    i._ZN17QForeachContainerI5QListIN10QtMobility15QMessageAddressEEED1Ev 0x000223d0   Section        8  QtMessaging.in(i._ZN17QForeachContainerI5QListIN10QtMobility15QMessageAddressEEED1Ev)
    i._ZN17QForeachContainerI5QListIN10QtMobility17QMessageSortOrderEEED1Ev 0x000223d8   Section        8  QtMessaging.in(i._ZN17QForeachContainerI5QListIN10QtMobility17QMessageSortOrderEEED1Ev)
    i._ZN17QForeachContainerI5QListIN10QtMobility23QMessageFolderSortOrderEEED1Ev 0x000223e0   Section        8  QtMessaging.in(i._ZN17QForeachContainerI5QListIN10QtMobility23QMessageFolderSortOrderEEED1Ev)
    i._ZN17QForeachContainerI5QListIN10QtMobility24QMessageContentContainerEEED1Ev 0x000223e8   Section        8  QtMessaging.in(i._ZN17QForeachContainerI5QListIN10QtMobility24QMessageContentContainerEEED1Ev)
    i._ZN17QForeachContainerI5QListIN10QtMobility26QMessageContentContainerIdEEED1Ev 0x000223f0   Section        8  QtMessaging.in(i._ZN17QForeachContainerI5QListIN10QtMobility26QMessageContentContainerIdEEED1Ev)
    i._ZN21TMsvSelectionOrdering23SetShowInvisibleEntriesEi 0x000223f8   Section       22  QtMessaging.in(i._ZN21TMsvSelectionOrdering23SetShowInvisibleEntriesEi)
    i._ZN4QSetIiED1Ev                        0x0002240e   Section        8  QtMessaging.in(i._ZN4QSetIiED1Ev)
    i._ZN5CBasenwEj                          0x00022416   Section        8  QtMessaging.in(i._ZN5CBasenwEj)
    i._ZN5RFileC1Ev                          0x0002241e   Section        8  QtMessaging.in(i._ZN5RFileC1Ev)
    i._ZN5TPtr8C1ERKS_                       0x00022426   Section       14  QtMessaging.in(i._ZN5TPtr8C1ERKS_)
    i._ZN6QDebug10maybeSpaceEv               0x00022434   Section       22  QtMessaging.in(i._ZN6QDebug10maybeSpaceEv)
    i._ZN6QDebugD1Ev                         0x0002244a   Section      122  QtMessaging.in(i._ZN6QDebugD1Ev)
    i._ZN6QDebugD1Ev.clean                   0x000224c4   Section       20  QtMessaging.in(i._ZN6QDebugD1Ev.clean)
    i._ZN6QDebuglsEPKc                       0x000224d8   Section       46  QtMessaging.in(i._ZN6QDebuglsEPKc)
    i._ZN6QDebuglsEPKc.clean                 0x00022506   Section       10  QtMessaging.in(i._ZN6QDebuglsEPKc.clean)
    i._ZN6TPtr16C1ERKS_                      0x00022510   Section       14  QtMessaging.in(i._ZN6TPtr16C1ERKS_)
    i._ZN7QString6insertEiRKS_               0x0002251e   Section       14  QtMessaging.in(i._ZN7QString6insertEiRKS_)
    i._ZN7QStringC1EPKc                      0x0002252c   Section       20  QtMessaging.in(i._ZN7QStringC1EPKc)
    i._ZN7QStringC1ERK10QByteArray           0x00022540   Section       46  QtMessaging.in(i._ZN7QStringC1ERK10QByteArray)
    i._ZN7QStringC1ERKS_                     0x0002256e   Section       16  QtMessaging.in(i._ZN7QStringC1ERKS_)
    i._ZN7QStringC1Ev                        0x00022580   Section       20  QtMessaging.in(i._ZN7QStringC1Ev)
    i._ZN7QStringD1Ev                        0x00022594   Section       24  QtMessaging.in(i._ZN7QStringD1Ev)
    i._ZN7QStringaSEPKc                      0x000225ac   Section       34  QtMessaging.in(i._ZN7QStringaSEPKc)
    i._ZN7QStringaSEPKc.clean                0x000225ce   Section       10  QtMessaging.in(i._ZN7QStringaSEPKc.clean)
    i._ZN7TPtrC163SetERKS_                   0x000225d8   Section       26  QtMessaging.in(i._ZN7TPtrC163SetERKS_)
    i._ZN8QVariantC1Ev                       0x000225f2   Section       24  QtMessaging.in(i._ZN8QVariantC1Ev)
    i._ZN9QHashData8willGrowEv               0x0002260a   Section       28  QtMessaging.in(i._ZN9QHashData8willGrowEv)
    i._ZN9TMsvEntry10SetVisibleEi            0x00022626   Section       22  QtMessaging.in(i._ZN9TMsvEntry10SetVisibleEi)
    i._ZN9TMsvEntry16SetInPreparationEi      0x0002263c   Section       22  QtMessaging.in(i._ZN9TMsvEntry16SetInPreparationEi)
    i._ZN9TMsvEntry6SetNewEi                 0x00022652   Section       20  QtMessaging.in(i._ZN9TMsvEntry6SetNewEi)
    i._ZN9TMsvEntry9SetUnreadEi              0x00022666   Section       20  QtMessaging.in(i._ZN9TMsvEntry9SetUnreadEi)
    i._ZNK10CSmsHeader11FromAddressEv        0x0002267a   Section       44  QtMessaging.in(i._ZNK10CSmsHeader11FromAddressEv)
    i._ZNK10QByteArray7isEmptyEv             0x000226a6   Section       16  QtMessaging.in(i._ZNK10QByteArray7isEmptyEv)
    i._ZNK13CMmsClientMtm5EntryEv            0x000226b6   Section        8  QtMessaging.in(i._ZNK13CMmsClientMtm5EntryEv)
    i._ZNK15QBasicAtomicInteqEi              0x000226be   Section       14  QtMessaging.in(i._ZNK15QBasicAtomicInteqEi)
    i._ZNK15QBasicAtomicIntneEi              0x000226cc   Section       14  QtMessaging.in(i._ZNK15QBasicAtomicIntneEi)
    i._ZNK5QBoolcvPKvEv                      0x000226da   Section       14  QtMessaging.in(i._ZNK5QBoolcvPKvEv)
    i._ZNK6TDesC8eqERKS_                     0x000226e8   Section       18  QtMessaging.in(i._ZNK6TDesC8eqERKS_)
    i._ZNK7QString7isEmptyEv                 0x000226fa   Section       16  QtMessaging.in(i._ZNK7QString7isEmptyEv)
    i._ZNK7QString8containsERKS_N2Qt15CaseSensitivityE 0x0002270a   Section       24  QtMessaging.in(i._ZNK7QString8containsERKS_N2Qt15CaseSensitivityE)
    i._ZNK7QStringneERKS_                    0x00022722   Section       12  QtMessaging.in(i._ZNK7QStringneERKS_)
    i._ZNK9QDateTimegeERKS_                  0x0002272e   Section       12  QtMessaging.in(i._ZNK9QDateTimegeERKS_)
    i._ZNK9QDateTimeleERKS_                  0x0002273a   Section       18  QtMessaging.in(i._ZNK9QDateTimeleERKS_)
    i._ZNK9QDateTimeneERKS_                  0x0002274c   Section       12  QtMessaging.in(i._ZNK9QDateTimeneERKS_)
    i._ZNK9QListData2atEi                    0x00022758   Section       16  QtMessaging.in(i._ZNK9QListData2atEi)
    i._ZNK9QListData3endEv                   0x00022768   Section       12  QtMessaging.in(i._ZNK9QListData3endEv)
    i._ZNK9QListData4sizeEv                  0x00022774   Section       10  QtMessaging.in(i._ZNK9QListData4sizeEv)
    i._ZNK9QListData5beginEv                 0x0002277e   Section       12  QtMessaging.in(i._ZNK9QListData5beginEv)
    i._ZNK9QListData7isEmptyEv               0x0002278a   Section       18  QtMessaging.in(i._ZNK9QListData7isEmptyEv)
    i._ZdlPvS_                               0x0002279c   Section        2  QtMessaging.in(i._ZdlPvS_)
    i._Zeq5QCharS_                           0x0002279e   Section       20  QtMessaging.in(i._Zeq5QCharS_)
    i._ZeqRK10QByteArrayPKc                  0x000227b2   Section       28  QtMessaging.in(i._ZeqRK10QByteArrayPKc)
    i._ZnwjPv                                0x000227ce   Section        4  QtMessaging.in(i._ZnwjPv)
    i._ZplPKcRK7QString                      0x000227d2   Section       40  QtMessaging.in(i._ZplPKcRK7QString)
    i._ZplPKcRK7QString.clean                0x000227fa   Section       10  QtMessaging.in(i._ZplPKcRK7QString.clean)
    i._ZplRK7QStringPKc                      0x00022804   Section       56  QtMessaging.in(i._ZplRK7QStringPKc)
    i._ZplRK7QStringPKc.clean                0x0002283c   Section       16  QtMessaging.in(i._ZplRK7QStringPKc.clean)
    i._ZplRK7QStringS1_                      0x0002284c   Section       36  QtMessaging.in(i._ZplRK7QStringS1_)
    i._ZplRK7QStringS1_.clean                0x00022870   Section       10  QtMessaging.in(i._ZplRK7QStringS1_.clean)
    t._Z15qMapLessThanKeyI10QByteArrayEbRKT_S3_ 0x0002287a   Section       10  QtMessaging.in(t._Z15qMapLessThanKeyI10QByteArrayEbRKT_S3_)
    t._Z15qMapLessThanKeyIiEbRKT_S2_         0x00022884   Section       16  QtMessaging.in(t._Z15qMapLessThanKeyIiEbRKT_S2_)
    t._Z15qMapLessThanKeyIlEbRKT_S2_         0x00022894   Section       16  QtMessaging.in(t._Z15qMapLessThanKeyIlEbRKT_S2_)
    t._Z17CleanupClosePushLI3RFsEvRT_        0x000228a4   Section       16  QtMessaging.in(t._Z17CleanupClosePushLI3RFsEvRT_)
    t._Z17CleanupClosePushLI5RFileEvRT_      0x000228b4   Section       16  QtMessaging.in(t._Z17CleanupClosePushLI5RFileEvRT_)
    t._Z17qRegisterMetaTypeI4QSetIiEEiPKcPT_ 0x000228c4   Section       52  QtMessaging.in(t._Z17qRegisterMetaTypeI4QSetIiEEiPKcPT_)
    t._Z17qRegisterMetaTypeIN10QtMobility10QMessageIdEEiPKcPT_ 0x000228f8   Section       52  QtMessaging.in(t._Z17qRegisterMetaTypeIN10QtMobility10QMessageIdEEiPKcPT_)
    t._Z20qForeachContainerNewI5QHashI7QStringN10QtMobility15QMessageAccountEEE17QForeachContainerIT_ERKS6_ 0x0002292c   Section       52  QtMessaging.in(t._Z20qForeachContainerNewI5QHashI7QStringN10QtMobility15QMessageAccountEEE17QForeachContainerIT_ERKS6_)
    t._Z20qForeachContainerNewI5QHashI7QStringN10QtMobility15QMessageAccountEEE17QForeachContainerIT_ERKS6_.clean 0x00022960   Section       10  QtMessaging.in(t._Z20qForeachContainerNewI5QHashI7QStringN10QtMobility15QMessageAccountEEE17QForeachContainerIT_ERKS6_.clean)
    t._Z20qForeachContainerNewI5QListIN10QtMobility15QMessageAddressEEE17QForeachContainerIT_ERKS5_ 0x0002296a   Section       46  QtMessaging.in(t._Z20qForeachContainerNewI5QListIN10QtMobility15QMessageAddressEEE17QForeachContainerIT_ERKS5_)
    t._Z20qForeachContainerNewI5QListIN10QtMobility15QMessageAddressEEE17QForeachContainerIT_ERKS5_.clean 0x00022998   Section       10  QtMessaging.in(t._Z20qForeachContainerNewI5QListIN10QtMobility15QMessageAddressEEE17QForeachContainerIT_ERKS5_.clean)
    t._Z20qForeachContainerNewI5QListIN10QtMobility17QMessageSortOrderEEE17QForeachContainerIT_ERKS5_ 0x000229a2   Section       62  QtMessaging.in(t._Z20qForeachContainerNewI5QListIN10QtMobility17QMessageSortOrderEEE17QForeachContainerIT_ERKS5_)
    t._Z20qForeachContainerNewI5QListIN10QtMobility17QMessageSortOrderEEE17QForeachContainerIT_ERKS5_.clean 0x000229e0   Section       10  QtMessaging.in(t._Z20qForeachContainerNewI5QListIN10QtMobility17QMessageSortOrderEEE17QForeachContainerIT_ERKS5_.clean)
    t._Z20qForeachContainerNewI5QListIN10QtMobility24QMessageContentContainerEEE17QForeachContainerIT_ERKS5_ 0x000229ea   Section       60  QtMessaging.in(t._Z20qForeachContainerNewI5QListIN10QtMobility24QMessageContentContainerEEE17QForeachContainerIT_ERKS5_)
    t._Z20qForeachContainerNewI5QListIN10QtMobility24QMessageContentContainerEEE17QForeachContainerIT_ERKS5_.clean 0x00022a26   Section       10  QtMessaging.in(t._Z20qForeachContainerNewI5QListIN10QtMobility24QMessageContentContainerEEE17QForeachContainerIT_ERKS5_.clean)
    t._Z20qForeachContainerNewI5QListIN10QtMobility26QMessageContentContainerIdEEE17QForeachContainerIT_ERKS5_ 0x00022a30   Section       60  QtMessaging.in(t._Z20qForeachContainerNewI5QListIN10QtMobility26QMessageContentContainerIdEEE17QForeachContainerIT_ERKS5_)
    t._Z20qForeachContainerNewI5QListIN10QtMobility26QMessageContentContainerIdEEE17QForeachContainerIT_ERKS5_.clean 0x00022a6c   Section       10  QtMessaging.in(t._Z20qForeachContainerNewI5QListIN10QtMobility26QMessageContentContainerIdEEE17QForeachContainerIT_ERKS5_.clean)
    t._Z21qMetaTypeDeleteHelperI4QSetIiEEvPT_ 0x00022a76   Section       16  QtMessaging.in(t._Z21qMetaTypeDeleteHelperI4QSetIiEEvPT_)
    t._Z21qMetaTypeDeleteHelperIN10QtMobility10QMessageIdEEvPT_ 0x00022a86   Section       16  QtMessaging.in(t._Z21qMetaTypeDeleteHelperIN10QtMobility10QMessageIdEEvPT_)
    t._Z24qMetaTypeConstructHelperI4QSetIiEEPvPKT_ 0x00022a98   Section      124  QtMessaging.in(t._Z24qMetaTypeConstructHelperI4QSetIiEEPvPKT_)
    t._Z24qMetaTypeConstructHelperI4QSetIiEEPvPKT_.clean 0x00022b14   Section       16  QtMessaging.in(t._Z24qMetaTypeConstructHelperI4QSetIiEEPvPKT_.clean)
    t._Z24qMetaTypeConstructHelperIN10QtMobility10QMessageIdEEPvPKT_ 0x00022b24   Section       48  QtMessaging.in(t._Z24qMetaTypeConstructHelperIN10QtMobility10QMessageIdEEPvPKT_)
    t._Z24qMetaTypeConstructHelperIN10QtMobility10QMessageIdEEPvPKT_.clean 0x00022b54   Section       16  QtMessaging.in(t._Z24qMetaTypeConstructHelperIN10QtMobility10QMessageIdEEPvPKT_.clean)
    t._Z5qSortIN5QListIN10QtMobility14QMessageFilterEE8iteratorEPFbS2_S2_EEvT_S7_T0_ 0x00022b64   Section       30  QtMessaging.in(t._Z5qSortIN5QListIN10QtMobility14QMessageFilterEE8iteratorEPFbS2_S2_EEvT_S7_T0_)
    t._Z5qSortIN5QListIN10QtMobility20QMessageFolderFilterEE8iteratorEPFbS2_S2_EEvT_S7_T0_ 0x00022b82   Section       30  QtMessaging.in(t._Z5qSortIN5QListIN10QtMobility20QMessageFolderFilterEE8iteratorEPFbS2_S2_EEvT_S7_T0_)
    t._Z5qSortIN5QListIN10QtMobility21QMessageAccountFilterEE8iteratorEPFbS2_S2_EEvT_S7_T0_ 0x00022ba0   Section       30  QtMessaging.in(t._Z5qSortIN5QListIN10QtMobility21QMessageAccountFilterEE8iteratorEPFbS2_S2_EEvT_S7_T0_)
    t._Z5qSwapIN10QtMobility10QMessageIdEEvRT_S3_ 0x00022bbe   Section       38  QtMessaging.in(t._Z5qSwapIN10QtMobility10QMessageIdEEvRT_S3_)
    t._Z5qSwapIN10QtMobility10QMessageIdEEvRT_S3_.clean 0x00022be4   Section       10  QtMessaging.in(t._Z5qSwapIN10QtMobility10QMessageIdEEvRT_S3_.clean)
    t._Z5qSwapIN10QtMobility14QMessageFilterEEvRT_S3_ 0x00022bee   Section       38  QtMessaging.in(t._Z5qSwapIN10QtMobility14QMessageFilterEEvRT_S3_)
    t._Z5qSwapIN10QtMobility14QMessageFilterEEvRT_S3_.clean 0x00022c14   Section       10  QtMessaging.in(t._Z5qSwapIN10QtMobility14QMessageFilterEEvRT_S3_.clean)
    t._Z5qSwapIN10QtMobility16QMessageFolderIdEEvRT_S3_ 0x00022c1e   Section       38  QtMessaging.in(t._Z5qSwapIN10QtMobility16QMessageFolderIdEEvRT_S3_)
    t._Z5qSwapIN10QtMobility16QMessageFolderIdEEvRT_S3_.clean 0x00022c44   Section       10  QtMessaging.in(t._Z5qSwapIN10QtMobility16QMessageFolderIdEEvRT_S3_.clean)
    t._Z5qSwapIN10QtMobility17QMessageAccountIdEEvRT_S3_ 0x00022c4e   Section       38  QtMessaging.in(t._Z5qSwapIN10QtMobility17QMessageAccountIdEEvRT_S3_)
    t._Z5qSwapIN10QtMobility17QMessageAccountIdEEvRT_S3_.clean 0x00022c74   Section       10  QtMessaging.in(t._Z5qSwapIN10QtMobility17QMessageAccountIdEEvRT_S3_.clean)
    t._Z5qSwapIN10QtMobility20QMessageFolderFilterEEvRT_S3_ 0x00022c7e   Section       38  QtMessaging.in(t._Z5qSwapIN10QtMobility20QMessageFolderFilterEEvRT_S3_)
    t._Z5qSwapIN10QtMobility20QMessageFolderFilterEEvRT_S3_.clean 0x00022ca4   Section       10  QtMessaging.in(t._Z5qSwapIN10QtMobility20QMessageFolderFilterEEvRT_S3_.clean)
    t._Z5qSwapIN10QtMobility21QMessageAccountFilterEEvRT_S3_ 0x00022cae   Section       38  QtMessaging.in(t._Z5qSwapIN10QtMobility21QMessageAccountFilterEEvRT_S3_)
    t._Z5qSwapIN10QtMobility21QMessageAccountFilterEEvRT_S3_.clean 0x00022cd4   Section       10  QtMessaging.in(t._Z5qSwapIN10QtMobility21QMessageAccountFilterEEvRT_S3_.clean)
    t._Z5qSwapIN10QtMobility8QMessageEEvRT_S3_ 0x00022cde   Section       38  QtMessaging.in(t._Z5qSwapIN10QtMobility8QMessageEEvRT_S3_)
    t._Z5qSwapIN10QtMobility8QMessageEEvRT_S3_.clean 0x00022d04   Section       10  QtMessaging.in(t._Z5qSwapIN10QtMobility8QMessageEEvRT_S3_.clean)
    t._ZN12CleanupCloseI3RFsE5CloseEPv       0x00022d0e   Section        8  QtMessaging.in(t._ZN12CleanupCloseI3RFsE5CloseEPv)
    t._ZN12CleanupCloseI5RFileE5CloseEPv     0x00022d16   Section        8  QtMessaging.in(t._ZN12CleanupCloseI5RFileE5CloseEPv)
    t._ZN12CleanupCloseI6RArrayI11TPopAccountEE5CloseEPv 0x00022d1e   Section        8  QtMessaging.in(t._ZN12CleanupCloseI6RArrayI11TPopAccountEE5CloseEPv)
    t._ZN12CleanupCloseI6RArrayI12TImapAccountEE5CloseEPv 0x00022d26   Section        8  QtMessaging.in(t._ZN12CleanupCloseI6RArrayI12TImapAccountEE5CloseEPv)
    t._ZN12CleanupCloseI6RArrayI12TSmtpAccountEE5CloseEPv 0x00022d2e   Section        8  QtMessaging.in(t._ZN12CleanupCloseI6RArrayI12TSmtpAccountEE5CloseEPv)
    t._ZN12QMetaTypeId2I4QSetIiEE14qt_metatype_idEv 0x00022d38   Section       92  QtMessaging.in(t._ZN12QMetaTypeId2I4QSetIiEE14qt_metatype_idEv)
    t._ZN12QMetaTypeId2IN10QtMobility10QMessageIdEE14qt_metatype_idEv 0x00022d94   Section       64  QtMessaging.in(t._ZN12QMetaTypeId2IN10QtMobility10QMessageIdEE14qt_metatype_idEv)
    t._ZN13RPointerArrayI9CMsvEntryE15ResetAndDestroyEv 0x00022dd4   Section       48  QtMessaging.in(t._ZN13RPointerArrayI9CMsvEntryE15ResetAndDestroyEv)
    t._ZN13RPointerArrayI9CMsvEntryE6AppendEPKS0_ 0x00022e04   Section        8  QtMessaging.in(t._ZN13RPointerArrayI9CMsvEntryE6AppendEPKS0_)
    t._ZN13RPointerArrayI9CMsvEntryE6RemoveEi 0x00022e0c   Section        8  QtMessaging.in(t._ZN13RPointerArrayI9CMsvEntryE6RemoveEi)
    t._ZN18QAlgorithmsPrivate11qSortHelperIN5QListIN10QtMobility10QMessageIdEE8iteratorES3_PFbS3_S3_EEEvT_S8_RKT0_T1_ 0x00022e14   Section      568  QtMessaging.in(t._ZN18QAlgorithmsPrivate11qSortHelperIN5QListIN10QtMobility10QMessageIdEE8iteratorES3_PFbS3_S3_EEEvT_S8_RKT0_T1_)
    t._ZN18QAlgorithmsPrivate11qSortHelperIN5QListIN10QtMobility10QMessageIdEE8iteratorES3_PFbS3_S3_EEEvT_S8_RKT0_T1_.clean 0x0002304c   Section       56  QtMessaging.in(t._ZN18QAlgorithmsPrivate11qSortHelperIN5QListIN10QtMobility10QMessageIdEE8iteratorES3_PFbS3_S3_EEEvT_S8_RKT0_T1_.clean)
    t._ZN18QAlgorithmsPrivate11qSortHelperIN5QListIN10QtMobility14QMessageFilterEE8iteratorES3_PFbS3_S3_EEEvT_S8_RKT0_T1_ 0x00023084   Section      568  QtMessaging.in(t._ZN18QAlgorithmsPrivate11qSortHelperIN5QListIN10QtMobility14QMessageFilterEE8iteratorES3_PFbS3_S3_EEEvT_S8_RKT0_T1_)
    t._ZN18QAlgorithmsPrivate11qSortHelperIN5QListIN10QtMobility14QMessageFilterEE8iteratorES3_PFbS3_S3_EEEvT_S8_RKT0_T1_.clean 0x000232bc   Section       56  QtMessaging.in(t._ZN18QAlgorithmsPrivate11qSortHelperIN5QListIN10QtMobility14QMessageFilterEE8iteratorES3_PFbS3_S3_EEEvT_S8_RKT0_T1_.clean)
    t._ZN18QAlgorithmsPrivate11qSortHelperIN5QListIN10QtMobility16QMessageFolderIdEE8iteratorES3_PFbS3_S3_EEEvT_S8_RKT0_T1_ 0x000232f4   Section      568  QtMessaging.in(t._ZN18QAlgorithmsPrivate11qSortHelperIN5QListIN10QtMobility16QMessageFolderIdEE8iteratorES3_PFbS3_S3_EEEvT_S8_RKT0_T1_)
    t._ZN18QAlgorithmsPrivate11qSortHelperIN5QListIN10QtMobility16QMessageFolderIdEE8iteratorES3_PFbS3_S3_EEEvT_S8_RKT0_T1_.clean 0x0002352c   Section       56  QtMessaging.in(t._ZN18QAlgorithmsPrivate11qSortHelperIN5QListIN10QtMobility16QMessageFolderIdEE8iteratorES3_PFbS3_S3_EEEvT_S8_RKT0_T1_.clean)
    t._ZN18QAlgorithmsPrivate11qSortHelperIN5QListIN10QtMobility17QMessageAccountIdEE8iteratorES3_PFbS3_S3_EEEvT_S8_RKT0_T1_ 0x00023564   Section      568  QtMessaging.in(t._ZN18QAlgorithmsPrivate11qSortHelperIN5QListIN10QtMobility17QMessageAccountIdEE8iteratorES3_PFbS3_S3_EEEvT_S8_RKT0_T1_)
    t._ZN18QAlgorithmsPrivate11qSortHelperIN5QListIN10QtMobility17QMessageAccountIdEE8iteratorES3_PFbS3_S3_EEEvT_S8_RKT0_T1_.clean 0x0002379c   Section       56  QtMessaging.in(t._ZN18QAlgorithmsPrivate11qSortHelperIN5QListIN10QtMobility17QMessageAccountIdEE8iteratorES3_PFbS3_S3_EEEvT_S8_RKT0_T1_.clean)
    t._ZN18QAlgorithmsPrivate11qSortHelperIN5QListIN10QtMobility20QMessageFolderFilterEE8iteratorES3_PFbS3_S3_EEEvT_S8_RKT0_T1_ 0x000237d4   Section      568  QtMessaging.in(t._ZN18QAlgorithmsPrivate11qSortHelperIN5QListIN10QtMobility20QMessageFolderFilterEE8iteratorES3_PFbS3_S3_EEEvT_S8_RKT0_T1_)
    t._ZN18QAlgorithmsPrivate11qSortHelperIN5QListIN10QtMobility20QMessageFolderFilterEE8iteratorES3_PFbS3_S3_EEEvT_S8_RKT0_T1_.clean 0x00023a0c   Section       56  QtMessaging.in(t._ZN18QAlgorithmsPrivate11qSortHelperIN5QListIN10QtMobility20QMessageFolderFilterEE8iteratorES3_PFbS3_S3_EEEvT_S8_RKT0_T1_.clean)
    t._ZN18QAlgorithmsPrivate11qSortHelperIN5QListIN10QtMobility21QMessageAccountFilterEE8iteratorES3_PFbS3_S3_EEEvT_S8_RKT0_T1_ 0x00023a44   Section      568  QtMessaging.in(t._ZN18QAlgorithmsPrivate11qSortHelperIN5QListIN10QtMobility21QMessageAccountFilterEE8iteratorES3_PFbS3_S3_EEEvT_S8_RKT0_T1_)
    t._ZN18QAlgorithmsPrivate11qSortHelperIN5QListIN10QtMobility21QMessageAccountFilterEE8iteratorES3_PFbS3_S3_EEEvT_S8_RKT0_T1_.clean 0x00023c7c   Section       56  QtMessaging.in(t._ZN18QAlgorithmsPrivate11qSortHelperIN5QListIN10QtMobility21QMessageAccountFilterEE8iteratorES3_PFbS3_S3_EEEvT_S8_RKT0_T1_.clean)
    t._ZN18QAlgorithmsPrivate11qSortHelperIN5QListIN10QtMobility8QMessageEE8iteratorES3_PFbRKS3_S7_EEEvT_SA_RKT0_T1_ 0x00023cb4   Section      318  QtMessaging.in(t._ZN18QAlgorithmsPrivate11qSortHelperIN5QListIN10QtMobility8QMessageEE8iteratorES3_PFbRKS3_S7_EEEvT_SA_RKT0_T1_)
    t._ZN20QGlobalStaticDeleterIN10QtMobility10CMTMEngineEED1Ev 0x00023df2   Section       34  QtMessaging.in(t._ZN20QGlobalStaticDeleterIN10QtMobility10CMTMEngineEED1Ev)
    t._ZN20QGlobalStaticDeleterIN10QtMobility12MessageCacheEED1Ev 0x00023e14   Section       36  QtMessaging.in(t._ZN20QGlobalStaticDeleterIN10QtMobility12MessageCacheEED1Ev)
    t._ZN20QGlobalStaticDeleterIN10QtMobility15MessagingHelperEED1Ev 0x00023e38   Section       32  QtMessaging.in(t._ZN20QGlobalStaticDeleterIN10QtMobility15MessagingHelperEED1Ev)
    t._ZN20QGlobalStaticDeleterIN10QtMobility20QMessageStorePrivateEED1Ev 0x00023e58   Section       34  QtMessaging.in(t._ZN20QGlobalStaticDeleterIN10QtMobility20QMessageStorePrivateEED1Ev)
    t._ZN4QMapI10QByteArray7QStringE11node_createEP8QMapDataPPNS3_4NodeERKS0_RKS1_ 0x00023e7a   Section      106  QtMessaging.in(t._ZN4QMapI10QByteArray7QStringE11node_createEP8QMapDataPPNS3_4NodeERKS0_RKS1_)
    t._ZN4QMapI10QByteArray7QStringE11node_createEP8QMapDataPPNS3_4NodeERKS0_RKS1_.clean 0x00023ee4   Section       38  QtMessaging.in(t._ZN4QMapI10QByteArray7QStringE11node_createEP8QMapDataPPNS3_4NodeERKS0_RKS1_.clean)
    t._ZN4QMapI10QByteArray7QStringE13detach_helperEv 0x00023f0a   Section      114  QtMessaging.in(t._ZN4QMapI10QByteArray7QStringE13detach_helperEv)
    t._ZN4QMapI10QByteArray7QStringE13detach_helperEv.clean 0x00023f7c   Section        8  QtMessaging.in(t._ZN4QMapI10QByteArray7QStringE13detach_helperEv.clean)
    t._ZN4QMapI10QByteArray7QStringE3endEv   0x00023f84   Section       12  QtMessaging.in(t._ZN4QMapI10QByteArray7QStringE3endEv)
    t._ZN4QMapI10QByteArray7QStringE6detachEv 0x00023f90   Section       26  QtMessaging.in(t._ZN4QMapI10QByteArray7QStringE6detachEv)
    t._ZN4QMapI10QByteArray7QStringE6removeERKS0_ 0x00023faa   Section      168  QtMessaging.in(t._ZN4QMapI10QByteArray7QStringE6removeERKS0_)
    t._ZN4QMapI10QByteArray7QStringE8freeDataEP8QMapData 0x00024052   Section       42  QtMessaging.in(t._ZN4QMapI10QByteArray7QStringE8freeDataEP8QMapData)
    t._ZN4QMapI10QByteArray7QStringEC1Ev     0x0002407c   Section       24  QtMessaging.in(t._ZN4QMapI10QByteArray7QStringEC1Ev)
    t._ZN4QMapI10QByteArray7QStringED1Ev     0x00024094   Section       32  QtMessaging.in(t._ZN4QMapI10QByteArray7QStringED1Ev)
    t._ZN4QMapI10QByteArray7QStringEaSERKS2_ 0x000240b4   Section       58  QtMessaging.in(t._ZN4QMapI10QByteArray7QStringEaSERKS2_)
    t._ZN4QMapIiN10QtMobility14QMessageFilterEE11node_createEP8QMapDataPPNS3_4NodeERKiRKS1_ 0x000240ee   Section       98  QtMessaging.in(t._ZN4QMapIiN10QtMobility14QMessageFilterEE11node_createEP8QMapDataPPNS3_4NodeERKiRKS1_)
    t._ZN4QMapIiN10QtMobility14QMessageFilterEE11node_createEP8QMapDataPPNS3_4NodeERKiRKS1_.clean 0x00024150   Section       28  QtMessaging.in(t._ZN4QMapIiN10QtMobility14QMessageFilterEE11node_createEP8QMapDataPPNS3_4NodeERKiRKS1_.clean)
    t._ZN4QMapIiN10QtMobility14QMessageFilterEE13detach_helperEv 0x0002416c   Section      114  QtMessaging.in(t._ZN4QMapIiN10QtMobility14QMessageFilterEE13detach_helperEv)
    t._ZN4QMapIiN10QtMobility14QMessageFilterEE13detach_helperEv.clean 0x000241de   Section        8  QtMessaging.in(t._ZN4QMapIiN10QtMobility14QMessageFilterEE13detach_helperEv.clean)
    t._ZN4QMapIiN10QtMobility14QMessageFilterEE5beginEv 0x000241e6   Section       14  QtMessaging.in(t._ZN4QMapIiN10QtMobility14QMessageFilterEE5beginEv)
    t._ZN4QMapIiN10QtMobility14QMessageFilterEE6detachEv 0x000241f4   Section       26  QtMessaging.in(t._ZN4QMapIiN10QtMobility14QMessageFilterEE6detachEv)
    t._ZN4QMapIiN10QtMobility14QMessageFilterEE6insertERKiRKS1_ 0x0002420e   Section      130  QtMessaging.in(t._ZN4QMapIiN10QtMobility14QMessageFilterEE6insertERKiRKS1_)
    t._ZN4QMapIiN10QtMobility14QMessageFilterEE6removeERKi 0x00024290   Section      156  QtMessaging.in(t._ZN4QMapIiN10QtMobility14QMessageFilterEE6removeERKi)
    t._ZN4QMapIiN10QtMobility14QMessageFilterEE8freeDataEP8QMapData 0x0002432c   Section       32  QtMessaging.in(t._ZN4QMapIiN10QtMobility14QMessageFilterEE8freeDataEP8QMapData)
    t._ZN4QMapIiN10QtMobility14QMessageFilterEEC1ERKS2_ 0x0002434c   Section       32  QtMessaging.in(t._ZN4QMapIiN10QtMobility14QMessageFilterEEC1ERKS2_)
    t._ZN4QMapIiN10QtMobility14QMessageFilterEED1Ev 0x0002436c   Section       32  QtMessaging.in(t._ZN4QMapIiN10QtMobility14QMessageFilterEED1Ev)
    t._ZN4QMapIlN19MMsvSessionObserver16TMsvSessionEventEE11node_createEP8QMapDataPPNS3_4NodeERKlRKS1_ 0x0002438c   Section       60  QtMessaging.in(t._ZN4QMapIlN19MMsvSessionObserver16TMsvSessionEventEE11node_createEP8QMapDataPPNS3_4NodeERKlRKS1_)
    t._ZN4QMapIlN19MMsvSessionObserver16TMsvSessionEventEE13detach_helperEv 0x000243c8   Section      114  QtMessaging.in(t._ZN4QMapIlN19MMsvSessionObserver16TMsvSessionEventEE13detach_helperEv)
    t._ZN4QMapIlN19MMsvSessionObserver16TMsvSessionEventEE13detach_helperEv.clean 0x0002443a   Section        8  QtMessaging.in(t._ZN4QMapIlN19MMsvSessionObserver16TMsvSessionEventEE13detach_helperEv.clean)
    t._ZN4QMapIlN19MMsvSessionObserver16TMsvSessionEventEE4takeERKl 0x00024442   Section      114  QtMessaging.in(t._ZN4QMapIlN19MMsvSessionObserver16TMsvSessionEventEE4takeERKl)
    t._ZN4QMapIlN19MMsvSessionObserver16TMsvSessionEventEE6detachEv 0x000244b4   Section       26  QtMessaging.in(t._ZN4QMapIlN19MMsvSessionObserver16TMsvSessionEventEE6detachEv)
    t._ZN4QMapIlN19MMsvSessionObserver16TMsvSessionEventEE6removeERKl 0x000244ce   Section      150  QtMessaging.in(t._ZN4QMapIlN19MMsvSessionObserver16TMsvSessionEventEE6removeERKl)
    t._ZN4QMapIlN19MMsvSessionObserver16TMsvSessionEventEE8freeDataEP8QMapData 0x00024564   Section       22  QtMessaging.in(t._ZN4QMapIlN19MMsvSessionObserver16TMsvSessionEventEE8freeDataEP8QMapData)
    t._ZN4QMapIlN19MMsvSessionObserver16TMsvSessionEventEED1Ev 0x0002457a   Section       32  QtMessaging.in(t._ZN4QMapIlN19MMsvSessionObserver16TMsvSessionEventEED1Ev)
    t._ZN4QSetIiE5clearEv                    0x0002459a   Section       26  QtMessaging.in(t._ZN4QSetIiE5clearEv)
    t._ZN4QSetIiE5clearEv.clean              0x000245b4   Section       10  QtMessaging.in(t._ZN4QSetIiE5clearEv.clean)
    t._ZN4QSetIiE6insertERKi                 0x000245be   Section      102  QtMessaging.in(t._ZN4QSetIiE6insertERKi)
    t._ZN4QSetIiEC1Ev                        0x00024624   Section        8  QtMessaging.in(t._ZN4QSetIiEC1Ev)
    t._ZN4TBufILi256EEC1ERK7TDesC16          0x0002462c   Section       12  QtMessaging.in(t._ZN4TBufILi256EEC1ERK7TDesC16)
    t._ZN4TBufILi256EEC1Ev                   0x00024638   Section       12  QtMessaging.in(t._ZN4TBufILi256EEC1Ev)
    t._ZN5QHashI7QStringN10QtMobility15QMessageAccountEE10createNodeEjRKS0_RKS2_PP9QHashNodeIS0_S2_E 0x00024644   Section       66  QtMessaging.in(t._ZN5QHashI7QStringN10QtMobility15QMessageAccountEE10createNodeEjRKS0_RKS2_PP9QHashNodeIS0_S2_E)
    t._ZN5QHashI7QStringN10QtMobility15QMessageAccountEE10createNodeEjRKS0_RKS2_PP9QHashNodeIS0_S2_E.clean 0x00024686   Section       12  QtMessaging.in(t._ZN5QHashI7QStringN10QtMobility15QMessageAccountEE10createNodeEjRKS0_RKS2_PP9QHashNodeIS0_S2_E.clean)
    t._ZN5QHashI7QStringN10QtMobility15QMessageAccountEE11deleteNode2EPN9QHashData4NodeE 0x00024692   Section       18  QtMessaging.in(t._ZN5QHashI7QStringN10QtMobility15QMessageAccountEE11deleteNode2EPN9QHashData4NodeE)
    t._ZN5QHashI7QStringN10QtMobility15QMessageAccountEE11deleteNode2EPN9QHashData4NodeE.clean 0x000246a4   Section       12  QtMessaging.in(t._ZN5QHashI7QStringN10QtMobility15QMessageAccountEE11deleteNode2EPN9QHashData4NodeE.clean)
    t._ZN5QHashI7QStringN10QtMobility15QMessageAccountEE13duplicateNodeEPN9QHashData4NodeEPv 0x000246b0   Section       30  QtMessaging.in(t._ZN5QHashI7QStringN10QtMobility15QMessageAccountEE13duplicateNodeEPN9QHashData4NodeEPv)
    t._ZN5QHashI7QStringN10QtMobility15QMessageAccountEE13duplicateNodeEPN9QHashData4NodeEPv.clean 0x000246ce   Section       12  QtMessaging.in(t._ZN5QHashI7QStringN10QtMobility15QMessageAccountEE13duplicateNodeEPN9QHashData4NodeEPv.clean)
    t._ZN5QHashI7QStringN10QtMobility15QMessageAccountEE14const_iteratorppEv 0x000246da   Section       16  QtMessaging.in(t._ZN5QHashI7QStringN10QtMobility15QMessageAccountEE14const_iteratorppEv)
    t._ZN5QHashI7QStringN10QtMobility15QMessageAccountEE6detachEv 0x000246ec   Section       68  QtMessaging.in(t._ZN5QHashI7QStringN10QtMobility15QMessageAccountEE6detachEv)
    t._ZN5QHashI7QStringN10QtMobility15QMessageAccountEE6insertERKS0_RKS2_ 0x00024730   Section       82  QtMessaging.in(t._ZN5QHashI7QStringN10QtMobility15QMessageAccountEE6insertERKS0_RKS2_)
    t._ZN5QHashI7QStringN10QtMobility15QMessageAccountEE6removeERKS0_ 0x00024782   Section      184  QtMessaging.in(t._ZN5QHashI7QStringN10QtMobility15QMessageAccountEE6removeERKS0_)
    t._ZN5QHashI7QStringN10QtMobility15QMessageAccountEE8freeDataEP9QHashData 0x0002483c   Section       16  QtMessaging.in(t._ZN5QHashI7QStringN10QtMobility15QMessageAccountEE8freeDataEP9QHashData)
    t._ZN5QHashI7QStringN10QtMobility15QMessageAccountEED1Ev 0x0002484c   Section       28  QtMessaging.in(t._ZN5QHashI7QStringN10QtMobility15QMessageAccountEED1Ev)
    t._ZN5QHashI7QStringN6QCacheIS0_N10QtMobility8QMessageEE4NodeEE11deleteNode2EPN9QHashData4NodeE 0x00024868   Section       10  QtMessaging.in(t._ZN5QHashI7QStringN6QCacheIS0_N10QtMobility8QMessageEE4NodeEE11deleteNode2EPN9QHashData4NodeE)
    t._ZN5QHashI7QStringN6QCacheIS0_N10QtMobility8QMessageEE4NodeEE13detach_helperEv 0x00024874   Section       56  QtMessaging.in(t._ZN5QHashI7QStringN6QCacheIS0_N10QtMobility8QMessageEE4NodeEE13detach_helperEv)
    t._ZN5QHashI7QStringN6QCacheIS0_N10QtMobility8QMessageEE4NodeEE13duplicateNodeEPN9QHashData4NodeEPv 0x000248ac   Section       30  QtMessaging.in(t._ZN5QHashI7QStringN6QCacheIS0_N10QtMobility8QMessageEE4NodeEE13duplicateNodeEPN9QHashData4NodeEPv)
    t._ZN5QHashI7QStringN6QCacheIS0_N10QtMobility8QMessageEE4NodeEE13duplicateNodeEPN9QHashData4NodeEPv.clean 0x000248ca   Section       12  QtMessaging.in(t._ZN5QHashI7QStringN6QCacheIS0_N10QtMobility8QMessageEE4NodeEE13duplicateNodeEPN9QHashData4NodeEPv.clean)
    t._ZN5QHashI7QStringN6QCacheIS0_N10QtMobility8QMessageEE4NodeEE4findERKS0_ 0x000248d6   Section       24  QtMessaging.in(t._ZN5QHashI7QStringN6QCacheIS0_N10QtMobility8QMessageEE4NodeEE4findERKS0_)
    t._ZN5QHashI7QStringN6QCacheIS0_N10QtMobility8QMessageEE4NodeEE6detachEv 0x000248ee   Section       26  QtMessaging.in(t._ZN5QHashI7QStringN6QCacheIS0_N10QtMobility8QMessageEE4NodeEE6detachEv)
    t._ZN5QHashI7QStringN6QCacheIS0_N10QtMobility8QMessageEE4NodeEE6insertERKS0_RKS5_ 0x00024908   Section      134  QtMessaging.in(t._ZN5QHashI7QStringN6QCacheIS0_N10QtMobility8QMessageEE4NodeEE6insertERKS0_RKS5_)
    t._ZN5QHashI7QStringN6QCacheIS0_N10QtMobility8QMessageEE4NodeEE6insertERKS0_RKS5_.clean 0x0002498e   Section       12  QtMessaging.in(t._ZN5QHashI7QStringN6QCacheIS0_N10QtMobility8QMessageEE4NodeEE6insertERKS0_RKS5_.clean)
    t._ZN5QHashI7QStringN6QCacheIS0_N10QtMobility8QMessageEE4NodeEE6removeERKS0_ 0x0002499a   Section      186  QtMessaging.in(t._ZN5QHashI7QStringN6QCacheIS0_N10QtMobility8QMessageEE4NodeEE6removeERKS0_)
    t._ZN5QHashI7QStringN6QCacheIS0_N10QtMobility8QMessageEE4NodeEE8freeDataEP9QHashData 0x00024a54   Section       16  QtMessaging.in(t._ZN5QHashI7QStringN6QCacheIS0_N10QtMobility8QMessageEE4NodeEE8freeDataEP9QHashData)
    t._ZN5QHashI7QStringN6QCacheIS0_N10QtMobility8QMessageEE4NodeEEC1Ev 0x00024a64   Section       24  QtMessaging.in(t._ZN5QHashI7QStringN6QCacheIS0_N10QtMobility8QMessageEE4NodeEEC1Ev)
    t._ZN5QHashI7QStringN6QCacheIS0_N10QtMobility8QMessageEE4NodeEED1Ev 0x00024a7c   Section       28  QtMessaging.in(t._ZN5QHashI7QStringN6QCacheIS0_N10QtMobility8QMessageEE4NodeEED1Ev)
    t._ZN5QHashIi15QHashDummyValueE11deleteNode2EPN9QHashData4NodeE 0x00024a98   Section        2  QtMessaging.in(t._ZN5QHashIi15QHashDummyValueE11deleteNode2EPN9QHashData4NodeE)
    t._ZN5QHashIi15QHashDummyValueE13detach_helperEv 0x00024a9c   Section       56  QtMessaging.in(t._ZN5QHashIi15QHashDummyValueE13detach_helperEv)
    t._ZN5QHashIi15QHashDummyValueE13duplicateNodeEPN9QHashData4NodeEPv 0x00024ad4   Section       10  QtMessaging.in(t._ZN5QHashIi15QHashDummyValueE13duplicateNodeEPN9QHashData4NodeEPv)
    t._ZN5QHashIi15QHashDummyValueE6detachEv 0x00024ade   Section       26  QtMessaging.in(t._ZN5QHashIi15QHashDummyValueE6detachEv)
    t._ZN5QHashIi15QHashDummyValueE8freeDataEP9QHashData 0x00024af8   Section       16  QtMessaging.in(t._ZN5QHashIi15QHashDummyValueE8freeDataEP9QHashData)
    t._ZN5QHashIi15QHashDummyValueEC1Ev      0x00024b08   Section       24  QtMessaging.in(t._ZN5QHashIi15QHashDummyValueEC1Ev)
    t._ZN5QHashIi15QHashDummyValueED1Ev      0x00024b20   Section       28  QtMessaging.in(t._ZN5QHashIi15QHashDummyValueED1Ev)
    t._ZN5QHashIi15QHashDummyValueEaSERKS1_  0x00024b3c   Section       58  QtMessaging.in(t._ZN5QHashIi15QHashDummyValueEaSERKS1_)
    t._ZN5QListI10QByteArrayE13detach_helperEi 0x00024b76   Section      142  QtMessaging.in(t._ZN5QListI10QByteArrayE13detach_helperEi)
    t._ZN5QListI10QByteArrayE13detach_helperEi.clean 0x00024c04   Section       20  QtMessaging.in(t._ZN5QListI10QByteArrayE13detach_helperEi.clean)
    t._ZN5QListI10QByteArrayE13detach_helperEv 0x00024c18   Section       12  QtMessaging.in(t._ZN5QListI10QByteArrayE13detach_helperEv)
    t._ZN5QListI10QByteArrayE14node_constructEPNS1_4NodeERKS0_ 0x00024c24   Section       26  QtMessaging.in(t._ZN5QListI10QByteArrayE14node_constructEPNS1_4NodeERKS0_)
    t._ZN5QListI10QByteArrayE14node_constructEPNS1_4NodeERKS0_.clean 0x00024c3e   Section       12  QtMessaging.in(t._ZN5QListI10QByteArrayE14node_constructEPNS1_4NodeERKS0_.clean)
    t._ZN5QListI10QByteArrayE18detach_helper_growEii 0x00024c4a   Section      186  QtMessaging.in(t._ZN5QListI10QByteArrayE18detach_helper_growEii)
    t._ZN5QListI10QByteArrayE18detach_helper_growEii.clean 0x00024d04   Section        8  QtMessaging.in(t._ZN5QListI10QByteArrayE18detach_helper_growEii.clean)
    t._ZN5QListI10QByteArrayE4freeEPN9QListData4DataE 0x00024d0c   Section       48  QtMessaging.in(t._ZN5QListI10QByteArrayE4freeEPN9QListData4DataE)
    t._ZN5QListI10QByteArrayE6appendERKS0_   0x00024d3c   Section      100  QtMessaging.in(t._ZN5QListI10QByteArrayE6appendERKS0_)
    t._ZN5QListI10QByteArrayE6appendERKS0_.clean 0x00024da0   Section        8  QtMessaging.in(t._ZN5QListI10QByteArrayE6appendERKS0_.clean)
    t._ZN5QListI10QByteArrayE7reserveEi      0x00024da8   Section      116  QtMessaging.in(t._ZN5QListI10QByteArrayE7reserveEi)
    t._ZN5QListI10QByteArrayE7reserveEi.clean 0x00024e1c   Section        8  QtMessaging.in(t._ZN5QListI10QByteArrayE7reserveEi.clean)
    t._ZN5QListI10QByteArrayE9node_copyEPNS1_4NodeES3_S3_ 0x00024e24   Section       70  QtMessaging.in(t._ZN5QListI10QByteArrayE9node_copyEPNS1_4NodeES3_S3_)
    t._ZN5QListI10QByteArrayE9node_copyEPNS1_4NodeES3_S3_.clean 0x00024e6a   Section       22  QtMessaging.in(t._ZN5QListI10QByteArrayE9node_copyEPNS1_4NodeES3_S3_.clean)
    t._ZN5QListI10QByteArrayEC1ERKS1_        0x00024e80   Section       30  QtMessaging.in(t._ZN5QListI10QByteArrayEC1ERKS1_)
    t._ZN5QListI10QByteArrayED1Ev            0x00024e9e   Section       30  QtMessaging.in(t._ZN5QListI10QByteArrayED1Ev)
    t._ZN5QListI5QPairIN10QtMobility24QMessageSortOrderPrivate5FieldEN2Qt9SortOrderEEE13detach_helperEv 0x00024ebc   Section       88  QtMessaging.in(t._ZN5QListI5QPairIN10QtMobility24QMessageSortOrderPrivate5FieldEN2Qt9SortOrderEEE13detach_helperEv)
    t._ZN5QListI5QPairIN10QtMobility24QMessageSortOrderPrivate5FieldEN2Qt9SortOrderEEE13detach_helperEv.clean 0x00024f14   Section        8  QtMessaging.in(t._ZN5QListI5QPairIN10QtMobility24QMessageSortOrderPrivate5FieldEN2Qt9SortOrderEEE13detach_helperEv.clean)
    t._ZN5QListI5QPairIN10QtMobility24QMessageSortOrderPrivate5FieldEN2Qt9SortOrderEEE13node_destructEPNS7_4NodeES9_ 0x00024f1c   Section       22  QtMessaging.in(t._ZN5QListI5QPairIN10QtMobility24QMessageSortOrderPrivate5FieldEN2Qt9SortOrderEEE13node_destructEPNS7_4NodeES9_)
    t._ZN5QListI5QPairIN10QtMobility24QMessageSortOrderPrivate5FieldEN2Qt9SortOrderEEE14node_constructEPNS7_4NodeERKS6_ 0x00024f32   Section       32  QtMessaging.in(t._ZN5QListI5QPairIN10QtMobility24QMessageSortOrderPrivate5FieldEN2Qt9SortOrderEEE14node_constructEPNS7_4NodeERKS6_)
    t._ZN5QListI5QPairIN10QtMobility24QMessageSortOrderPrivate5FieldEN2Qt9SortOrderEEE18detach_helper_growEii 0x00024f52   Section      180  QtMessaging.in(t._ZN5QListI5QPairIN10QtMobility24QMessageSortOrderPrivate5FieldEN2Qt9SortOrderEEE18detach_helper_growEii)
    t._ZN5QListI5QPairIN10QtMobility24QMessageSortOrderPrivate5FieldEN2Qt9SortOrderEEE18detach_helper_growEii.clean 0x00025006   Section        8  QtMessaging.in(t._ZN5QListI5QPairIN10QtMobility24QMessageSortOrderPrivate5FieldEN2Qt9SortOrderEEE18detach_helper_growEii.clean)
    t._ZN5QListI5QPairIN10QtMobility24QMessageSortOrderPrivate5FieldEN2Qt9SortOrderEEE4freeEPN9QListData4DataE 0x0002500e   Section       38  QtMessaging.in(t._ZN5QListI5QPairIN10QtMobility24QMessageSortOrderPrivate5FieldEN2Qt9SortOrderEEE4freeEPN9QListData4DataE)
    t._ZN5QListI5QPairIN10QtMobility24QMessageSortOrderPrivate5FieldEN2Qt9SortOrderEEE6appendERKS6_ 0x00025034   Section       96  QtMessaging.in(t._ZN5QListI5QPairIN10QtMobility24QMessageSortOrderPrivate5FieldEN2Qt9SortOrderEEE6appendERKS6_)
    t._ZN5QListI5QPairIN10QtMobility24QMessageSortOrderPrivate5FieldEN2Qt9SortOrderEEE6appendERKS6_.clean 0x00025094   Section        8  QtMessaging.in(t._ZN5QListI5QPairIN10QtMobility24QMessageSortOrderPrivate5FieldEN2Qt9SortOrderEEE6appendERKS6_.clean)
    t._ZN5QListI5QPairIN10QtMobility24QMessageSortOrderPrivate5FieldEN2Qt9SortOrderEEE6detachEv 0x0002509c   Section       24  QtMessaging.in(t._ZN5QListI5QPairIN10QtMobility24QMessageSortOrderPrivate5FieldEN2Qt9SortOrderEEE6detachEv)
    t._ZN5QListI5QPairIN10QtMobility24QMessageSortOrderPrivate5FieldEN2Qt9SortOrderEEE9node_copyEPNS7_4NodeES9_S9_ 0x000250b4   Section       44  QtMessaging.in(t._ZN5QListI5QPairIN10QtMobility24QMessageSortOrderPrivate5FieldEN2Qt9SortOrderEEE9node_copyEPNS7_4NodeES9_S9_)
    t._ZN5QListI5QPairIN10QtMobility24QMessageSortOrderPrivate5FieldEN2Qt9SortOrderEEED1Ev 0x000250e0   Section       30  QtMessaging.in(t._ZN5QListI5QPairIN10QtMobility24QMessageSortOrderPrivate5FieldEN2Qt9SortOrderEEED1Ev)
    t._ZN5QListI5QPairIN10QtMobility24QMessageSortOrderPrivate5FieldEN2Qt9SortOrderEEEaSERKS7_ 0x000250fe   Section       54  QtMessaging.in(t._ZN5QListI5QPairIN10QtMobility24QMessageSortOrderPrivate5FieldEN2Qt9SortOrderEEEaSERKS7_)
    t._ZN5QListI5QPairIN10QtMobility24QMessageSortOrderPrivate5FieldEN2Qt9SortOrderEEEpLERKS7_ 0x00025134   Section      136  QtMessaging.in(t._ZN5QListI5QPairIN10QtMobility24QMessageSortOrderPrivate5FieldEN2Qt9SortOrderEEEpLERKS7_)
    t._ZN5QListI5QPairIN10QtMobility24QMessageSortOrderPrivate5FieldEN2Qt9SortOrderEEEpLERKS7_.clean 0x000251bc   Section        8  QtMessaging.in(t._ZN5QListI5QPairIN10QtMobility24QMessageSortOrderPrivate5FieldEN2Qt9SortOrderEEEpLERKS7_.clean)
    t._ZN5QListI5QPairIN10QtMobility30QMessageFolderSortOrderPrivate5FieldEN2Qt9SortOrderEEE13detach_helperEv 0x000251c4   Section       88  QtMessaging.in(t._ZN5QListI5QPairIN10QtMobility30QMessageFolderSortOrderPrivate5FieldEN2Qt9SortOrderEEE13detach_helperEv)
    t._ZN5QListI5QPairIN10QtMobility30QMessageFolderSortOrderPrivate5FieldEN2Qt9SortOrderEEE13detach_helperEv.clean 0x0002521c   Section        8  QtMessaging.in(t._ZN5QListI5QPairIN10QtMobility30QMessageFolderSortOrderPrivate5FieldEN2Qt9SortOrderEEE13detach_helperEv.clean)
    t._ZN5QListI5QPairIN10QtMobility30QMessageFolderSortOrderPrivate5FieldEN2Qt9SortOrderEEE13node_destructEPNS7_4NodeES9_ 0x00025224   Section       22  QtMessaging.in(t._ZN5QListI5QPairIN10QtMobility30QMessageFolderSortOrderPrivate5FieldEN2Qt9SortOrderEEE13node_destructEPNS7_4NodeES9_)
    t._ZN5QListI5QPairIN10QtMobility30QMessageFolderSortOrderPrivate5FieldEN2Qt9SortOrderEEE14node_constructEPNS7_4NodeERKS6_ 0x0002523a   Section       32  QtMessaging.in(t._ZN5QListI5QPairIN10QtMobility30QMessageFolderSortOrderPrivate5FieldEN2Qt9SortOrderEEE14node_constructEPNS7_4NodeERKS6_)
    t._ZN5QListI5QPairIN10QtMobility30QMessageFolderSortOrderPrivate5FieldEN2Qt9SortOrderEEE18detach_helper_growEii 0x0002525a   Section      180  QtMessaging.in(t._ZN5QListI5QPairIN10QtMobility30QMessageFolderSortOrderPrivate5FieldEN2Qt9SortOrderEEE18detach_helper_growEii)
    t._ZN5QListI5QPairIN10QtMobility30QMessageFolderSortOrderPrivate5FieldEN2Qt9SortOrderEEE18detach_helper_growEii.clean 0x0002530e   Section        8  QtMessaging.in(t._ZN5QListI5QPairIN10QtMobility30QMessageFolderSortOrderPrivate5FieldEN2Qt9SortOrderEEE18detach_helper_growEii.clean)
    t._ZN5QListI5QPairIN10QtMobility30QMessageFolderSortOrderPrivate5FieldEN2Qt9SortOrderEEE4freeEPN9QListData4DataE 0x00025316   Section       38  QtMessaging.in(t._ZN5QListI5QPairIN10QtMobility30QMessageFolderSortOrderPrivate5FieldEN2Qt9SortOrderEEE4freeEPN9QListData4DataE)
    t._ZN5QListI5QPairIN10QtMobility30QMessageFolderSortOrderPrivate5FieldEN2Qt9SortOrderEEE6appendERKS6_ 0x0002533c   Section       96  QtMessaging.in(t._ZN5QListI5QPairIN10QtMobility30QMessageFolderSortOrderPrivate5FieldEN2Qt9SortOrderEEE6appendERKS6_)
    t._ZN5QListI5QPairIN10QtMobility30QMessageFolderSortOrderPrivate5FieldEN2Qt9SortOrderEEE6appendERKS6_.clean 0x0002539c   Section        8  QtMessaging.in(t._ZN5QListI5QPairIN10QtMobility30QMessageFolderSortOrderPrivate5FieldEN2Qt9SortOrderEEE6appendERKS6_.clean)
    t._ZN5QListI5QPairIN10QtMobility30QMessageFolderSortOrderPrivate5FieldEN2Qt9SortOrderEEE6detachEv 0x000253a4   Section       24  QtMessaging.in(t._ZN5QListI5QPairIN10QtMobility30QMessageFolderSortOrderPrivate5FieldEN2Qt9SortOrderEEE6detachEv)
    t._ZN5QListI5QPairIN10QtMobility30QMessageFolderSortOrderPrivate5FieldEN2Qt9SortOrderEEE9node_copyEPNS7_4NodeES9_S9_ 0x000253bc   Section       44  QtMessaging.in(t._ZN5QListI5QPairIN10QtMobility30QMessageFolderSortOrderPrivate5FieldEN2Qt9SortOrderEEE9node_copyEPNS7_4NodeES9_S9_)
    t._ZN5QListI5QPairIN10QtMobility30QMessageFolderSortOrderPrivate5FieldEN2Qt9SortOrderEEED1Ev 0x000253e8   Section       30  QtMessaging.in(t._ZN5QListI5QPairIN10QtMobility30QMessageFolderSortOrderPrivate5FieldEN2Qt9SortOrderEEED1Ev)
    t._ZN5QListI5QPairIN10QtMobility30QMessageFolderSortOrderPrivate5FieldEN2Qt9SortOrderEEEaSERKS7_ 0x00025406   Section       54  QtMessaging.in(t._ZN5QListI5QPairIN10QtMobility30QMessageFolderSortOrderPrivate5FieldEN2Qt9SortOrderEEEaSERKS7_)
    t._ZN5QListI5QPairIN10QtMobility30QMessageFolderSortOrderPrivate5FieldEN2Qt9SortOrderEEEpLERKS7_ 0x0002543c   Section      136  QtMessaging.in(t._ZN5QListI5QPairIN10QtMobility30QMessageFolderSortOrderPrivate5FieldEN2Qt9SortOrderEEEpLERKS7_)
    t._ZN5QListI5QPairIN10QtMobility30QMessageFolderSortOrderPrivate5FieldEN2Qt9SortOrderEEEpLERKS7_.clean 0x000254c4   Section        8  QtMessaging.in(t._ZN5QListI5QPairIN10QtMobility30QMessageFolderSortOrderPrivate5FieldEN2Qt9SortOrderEEEpLERKS7_.clean)
    t._ZN5QListI7QStringE13detach_helperEi   0x000254cc   Section       86  QtMessaging.in(t._ZN5QListI7QStringE13detach_helperEi)
    t._ZN5QListI7QStringE13detach_helperEi.clean 0x00025522   Section        8  QtMessaging.in(t._ZN5QListI7QStringE13detach_helperEi.clean)
    t._ZN5QListI7QStringE13detach_helperEv   0x0002552a   Section       12  QtMessaging.in(t._ZN5QListI7QStringE13detach_helperEv)
    t._ZN5QListI7QStringE14node_constructEPNS1_4NodeERKS0_ 0x00025536   Section       26  QtMessaging.in(t._ZN5QListI7QStringE14node_constructEPNS1_4NodeERKS0_)
    t._ZN5QListI7QStringE14node_constructEPNS1_4NodeERKS0_.clean 0x00025550   Section       12  QtMessaging.in(t._ZN5QListI7QStringE14node_constructEPNS1_4NodeERKS0_.clean)
    t._ZN5QListI7QStringE18detach_helper_growEii 0x0002555c   Section      186  QtMessaging.in(t._ZN5QListI7QStringE18detach_helper_growEii)
    t._ZN5QListI7QStringE18detach_helper_growEii.clean 0x00025616   Section        8  QtMessaging.in(t._ZN5QListI7QStringE18detach_helper_growEii.clean)
    t._ZN5QListI7QStringE4freeEPN9QListData4DataE 0x0002561e   Section       54  QtMessaging.in(t._ZN5QListI7QStringE4freeEPN9QListData4DataE)
    t._ZN5QListI7QStringE6appendERKS0_       0x00025654   Section      100  QtMessaging.in(t._ZN5QListI7QStringE6appendERKS0_)
    t._ZN5QListI7QStringE6appendERKS0_.clean 0x000256b8   Section        8  QtMessaging.in(t._ZN5QListI7QStringE6appendERKS0_.clean)
    t._ZN5QListI7QStringE6detachEv           0x000256c0   Section       24  QtMessaging.in(t._ZN5QListI7QStringE6detachEv)
    t._ZN5QListI7QStringE9node_copyEPNS1_4NodeES3_S3_ 0x000256d8   Section       70  QtMessaging.in(t._ZN5QListI7QStringE9node_copyEPNS1_4NodeES3_S3_)
    t._ZN5QListI7QStringE9node_copyEPNS1_4NodeES3_S3_.clean 0x0002571e   Section       22  QtMessaging.in(t._ZN5QListI7QStringE9node_copyEPNS1_4NodeES3_S3_.clean)
    t._ZN5QListI7QStringE9removeOneERKS0_    0x00025734   Section      152  QtMessaging.in(t._ZN5QListI7QStringE9removeOneERKS0_)
    t._ZN5QListI7QStringEC1Ev                0x000257cc   Section       20  QtMessaging.in(t._ZN5QListI7QStringEC1Ev)
    t._ZN5QListI7QStringED1Ev                0x000257e0   Section       30  QtMessaging.in(t._ZN5QListI7QStringED1Ev)
    t._ZN5QListIN10QtMobility10QMessageIdEE13detach_helperEi 0x000257fe   Section      152  QtMessaging.in(t._ZN5QListIN10QtMobility10QMessageIdEE13detach_helperEi)
    t._ZN5QListIN10QtMobility10QMessageIdEE13detach_helperEi.clean 0x00025896   Section       18  QtMessaging.in(t._ZN5QListIN10QtMobility10QMessageIdEE13detach_helperEi.clean)
    t._ZN5QListIN10QtMobility10QMessageIdEE13detach_helperEv 0x000258a8   Section       12  QtMessaging.in(t._ZN5QListIN10QtMobility10QMessageIdEE13detach_helperEv)
    t._ZN5QListIN10QtMobility10QMessageIdEE13node_destructEPNS2_4NodeE 0x000258b4   Section       18  QtMessaging.in(t._ZN5QListIN10QtMobility10QMessageIdEE13node_destructEPNS2_4NodeE)
    t._ZN5QListIN10QtMobility10QMessageIdEE13node_destructEPNS2_4NodeES4_ 0x000258c6   Section       30  QtMessaging.in(t._ZN5QListIN10QtMobility10QMessageIdEE13node_destructEPNS2_4NodeES4_)
    t._ZN5QListIN10QtMobility10QMessageIdEE14node_constructEPNS2_4NodeERKS1_ 0x000258e4   Section       32  QtMessaging.in(t._ZN5QListIN10QtMobility10QMessageIdEE14node_constructEPNS2_4NodeERKS1_)
    t._ZN5QListIN10QtMobility10QMessageIdEE14node_constructEPNS2_4NodeERKS1_.clean 0x00025904   Section       10  QtMessaging.in(t._ZN5QListIN10QtMobility10QMessageIdEE14node_constructEPNS2_4NodeERKS1_.clean)
    t._ZN5QListIN10QtMobility10QMessageIdEE18detach_helper_growEii 0x0002590e   Section      180  QtMessaging.in(t._ZN5QListIN10QtMobility10QMessageIdEE18detach_helper_growEii)
    t._ZN5QListIN10QtMobility10QMessageIdEE18detach_helper_growEii.clean 0x000259c2   Section        8  QtMessaging.in(t._ZN5QListIN10QtMobility10QMessageIdEE18detach_helper_growEii.clean)
    t._ZN5QListIN10QtMobility10QMessageIdEE4freeEPN9QListData4DataE 0x000259ca   Section       38  QtMessaging.in(t._ZN5QListIN10QtMobility10QMessageIdEE4freeEPN9QListData4DataE)
    t._ZN5QListIN10QtMobility10QMessageIdEE5beginEv 0x000259f0   Section       22  QtMessaging.in(t._ZN5QListIN10QtMobility10QMessageIdEE5beginEv)
    t._ZN5QListIN10QtMobility10QMessageIdEE5clearEv 0x00025a06   Section       26  QtMessaging.in(t._ZN5QListIN10QtMobility10QMessageIdEE5clearEv)
    t._ZN5QListIN10QtMobility10QMessageIdEE5clearEv.clean 0x00025a20   Section       10  QtMessaging.in(t._ZN5QListIN10QtMobility10QMessageIdEE5clearEv.clean)
    t._ZN5QListIN10QtMobility10QMessageIdEE6appendERKS1_ 0x00025a2c   Section       96  QtMessaging.in(t._ZN5QListIN10QtMobility10QMessageIdEE6appendERKS1_)
    t._ZN5QListIN10QtMobility10QMessageIdEE6appendERKS1_.clean 0x00025a8c   Section        8  QtMessaging.in(t._ZN5QListIN10QtMobility10QMessageIdEE6appendERKS1_.clean)
    t._ZN5QListIN10QtMobility10QMessageIdEE6detachEv 0x00025a94   Section       24  QtMessaging.in(t._ZN5QListIN10QtMobility10QMessageIdEE6detachEv)
    t._ZN5QListIN10QtMobility10QMessageIdEE8removeAtEi 0x00025aac   Section       50  QtMessaging.in(t._ZN5QListIN10QtMobility10QMessageIdEE8removeAtEi)
    t._ZN5QListIN10QtMobility10QMessageIdEE9node_copyEPNS2_4NodeES4_S4_ 0x00025ade   Section       80  QtMessaging.in(t._ZN5QListIN10QtMobility10QMessageIdEE9node_copyEPNS2_4NodeES4_S4_)
    t._ZN5QListIN10QtMobility10QMessageIdEE9node_copyEPNS2_4NodeES4_S4_.clean 0x00025b2e   Section       18  QtMessaging.in(t._ZN5QListIN10QtMobility10QMessageIdEE9node_copyEPNS2_4NodeES4_S4_.clean)
    t._ZN5QListIN10QtMobility10QMessageIdEEC1ERKS2_ 0x00025b40   Section       30  QtMessaging.in(t._ZN5QListIN10QtMobility10QMessageIdEEC1ERKS2_)
    t._ZN5QListIN10QtMobility10QMessageIdEEC1Ev 0x00025b60   Section       20  QtMessaging.in(t._ZN5QListIN10QtMobility10QMessageIdEEC1Ev)
    t._ZN5QListIN10QtMobility10QMessageIdEED1Ev 0x00025b74   Section       30  QtMessaging.in(t._ZN5QListIN10QtMobility10QMessageIdEED1Ev)
    t._ZN5QListIN10QtMobility10QMessageIdEEaSERKS2_ 0x00025b92   Section       54  QtMessaging.in(t._ZN5QListIN10QtMobility10QMessageIdEEaSERKS2_)
    t._ZN5QListIN10QtMobility10QMessageIdEEixEi 0x00025bc8   Section       22  QtMessaging.in(t._ZN5QListIN10QtMobility10QMessageIdEEixEi)
    t._ZN5QListIN10QtMobility10QMessageIdEEpLERKS2_ 0x00025be0   Section      136  QtMessaging.in(t._ZN5QListIN10QtMobility10QMessageIdEEpLERKS2_)
    t._ZN5QListIN10QtMobility10QMessageIdEEpLERKS2_.clean 0x00025c68   Section        8  QtMessaging.in(t._ZN5QListIN10QtMobility10QMessageIdEEpLERKS2_.clean)
    t._ZN5QListIN10QtMobility11PendingSendEE13detach_helperEv 0x00025c70   Section       88  QtMessaging.in(t._ZN5QListIN10QtMobility11PendingSendEE13detach_helperEv)
    t._ZN5QListIN10QtMobility11PendingSendEE13detach_helperEv.clean 0x00025cc8   Section        8  QtMessaging.in(t._ZN5QListIN10QtMobility11PendingSendEE13detach_helperEv.clean)
    t._ZN5QListIN10QtMobility11PendingSendEE13node_destructEPNS2_4NodeES4_ 0x00025cd0   Section       22  QtMessaging.in(t._ZN5QListIN10QtMobility11PendingSendEE13node_destructEPNS2_4NodeES4_)
    t._ZN5QListIN10QtMobility11PendingSendEE14node_constructEPNS2_4NodeERKS1_ 0x00025ce6   Section       30  QtMessaging.in(t._ZN5QListIN10QtMobility11PendingSendEE14node_constructEPNS2_4NodeERKS1_)
    t._ZN5QListIN10QtMobility11PendingSendEE18detach_helper_growEii 0x00025d04   Section      180  QtMessaging.in(t._ZN5QListIN10QtMobility11PendingSendEE18detach_helper_growEii)
    t._ZN5QListIN10QtMobility11PendingSendEE18detach_helper_growEii.clean 0x00025db8   Section        8  QtMessaging.in(t._ZN5QListIN10QtMobility11PendingSendEE18detach_helper_growEii.clean)
    t._ZN5QListIN10QtMobility11PendingSendEE4freeEPN9QListData4DataE 0x00025dc0   Section       44  QtMessaging.in(t._ZN5QListIN10QtMobility11PendingSendEE4freeEPN9QListData4DataE)
    t._ZN5QListIN10QtMobility11PendingSendEE6appendERKS1_ 0x00025dec   Section       96  QtMessaging.in(t._ZN5QListIN10QtMobility11PendingSendEE6appendERKS1_)
    t._ZN5QListIN10QtMobility11PendingSendEE6appendERKS1_.clean 0x00025e4c   Section        8  QtMessaging.in(t._ZN5QListIN10QtMobility11PendingSendEE6appendERKS1_.clean)
    t._ZN5QListIN10QtMobility11PendingSendEE6detachEv 0x00025e54   Section       24  QtMessaging.in(t._ZN5QListIN10QtMobility11PendingSendEE6detachEv)
    t._ZN5QListIN10QtMobility11PendingSendEE8removeAtEi 0x00025e6c   Section       48  QtMessaging.in(t._ZN5QListIN10QtMobility11PendingSendEE8removeAtEi)
    t._ZN5QListIN10QtMobility11PendingSendEE9node_copyEPNS2_4NodeES4_S4_ 0x00025e9c   Section       42  QtMessaging.in(t._ZN5QListIN10QtMobility11PendingSendEE9node_copyEPNS2_4NodeES4_S4_)
    t._ZN5QListIN10QtMobility11PendingSendEED1Ev 0x00025ec6   Section       30  QtMessaging.in(t._ZN5QListIN10QtMobility11PendingSendEED1Ev)
    t._ZN5QListIN10QtMobility11PendingSendEEixEi 0x00025ee4   Section       22  QtMessaging.in(t._ZN5QListIN10QtMobility11PendingSendEEixEi)
    t._ZN5QListIN10QtMobility12MessageEventEE11removeFirstEv 0x00025efa   Section       34  QtMessaging.in(t._ZN5QListIN10QtMobility12MessageEventEE11removeFirstEv)
    t._ZN5QListIN10QtMobility12MessageEventEE13detach_helperEv 0x00025f1c   Section       88  QtMessaging.in(t._ZN5QListIN10QtMobility12MessageEventEE13detach_helperEv)
    t._ZN5QListIN10QtMobility12MessageEventEE13detach_helperEv.clean 0x00025f74   Section        8  QtMessaging.in(t._ZN5QListIN10QtMobility12MessageEventEE13detach_helperEv.clean)
    t._ZN5QListIN10QtMobility12MessageEventEE13node_destructEPNS2_4NodeE 0x00025f7c   Section       18  QtMessaging.in(t._ZN5QListIN10QtMobility12MessageEventEE13node_destructEPNS2_4NodeE)
    t._ZN5QListIN10QtMobility12MessageEventEE13node_destructEPNS2_4NodeES4_ 0x00025f8e   Section       30  QtMessaging.in(t._ZN5QListIN10QtMobility12MessageEventEE13node_destructEPNS2_4NodeES4_)
    t._ZN5QListIN10QtMobility12MessageEventEE14node_constructEPNS2_4NodeERKS1_ 0x00025fac   Section       32  QtMessaging.in(t._ZN5QListIN10QtMobility12MessageEventEE14node_constructEPNS2_4NodeERKS1_)
    t._ZN5QListIN10QtMobility12MessageEventEE14node_constructEPNS2_4NodeERKS1_.clean 0x00025fcc   Section       10  QtMessaging.in(t._ZN5QListIN10QtMobility12MessageEventEE14node_constructEPNS2_4NodeERKS1_.clean)
    t._ZN5QListIN10QtMobility12MessageEventEE18detach_helper_growEii 0x00025fd6   Section      180  QtMessaging.in(t._ZN5QListIN10QtMobility12MessageEventEE18detach_helper_growEii)
    t._ZN5QListIN10QtMobility12MessageEventEE18detach_helper_growEii.clean 0x0002608a   Section        8  QtMessaging.in(t._ZN5QListIN10QtMobility12MessageEventEE18detach_helper_growEii.clean)
    t._ZN5QListIN10QtMobility12MessageEventEE4freeEPN9QListData4DataE 0x00026092   Section       44  QtMessaging.in(t._ZN5QListIN10QtMobility12MessageEventEE4freeEPN9QListData4DataE)
    t._ZN5QListIN10QtMobility12MessageEventEE6appendERKS1_ 0x000260c0   Section       96  QtMessaging.in(t._ZN5QListIN10QtMobility12MessageEventEE6appendERKS1_)
    t._ZN5QListIN10QtMobility12MessageEventEE6appendERKS1_.clean 0x00026120   Section        8  QtMessaging.in(t._ZN5QListIN10QtMobility12MessageEventEE6appendERKS1_.clean)
    t._ZN5QListIN10QtMobility12MessageEventEE6detachEv 0x00026128   Section       24  QtMessaging.in(t._ZN5QListIN10QtMobility12MessageEventEE6detachEv)
    t._ZN5QListIN10QtMobility12MessageEventEE8removeAtEi 0x00026140   Section       50  QtMessaging.in(t._ZN5QListIN10QtMobility12MessageEventEE8removeAtEi)
    t._ZN5QListIN10QtMobility12MessageEventEE9node_copyEPNS2_4NodeES4_S4_ 0x00026172   Section       80  QtMessaging.in(t._ZN5QListIN10QtMobility12MessageEventEE9node_copyEPNS2_4NodeES4_S4_)
    t._ZN5QListIN10QtMobility12MessageEventEE9node_copyEPNS2_4NodeES4_S4_.clean 0x000261c2   Section       18  QtMessaging.in(t._ZN5QListIN10QtMobility12MessageEventEE9node_copyEPNS2_4NodeES4_S4_.clean)
    t._ZN5QListIN10QtMobility12MessageEventEEC1Ev 0x000261d4   Section       20  QtMessaging.in(t._ZN5QListIN10QtMobility12MessageEventEEC1Ev)
    t._ZN5QListIN10QtMobility12MessageEventEED1Ev 0x000261e8   Section       30  QtMessaging.in(t._ZN5QListIN10QtMobility12MessageEventEED1Ev)
    t._ZN5QListIN10QtMobility12MessageEventEEixEi 0x00026206   Section       22  QtMessaging.in(t._ZN5QListIN10QtMobility12MessageEventEEixEi)
    t._ZN5QListIN10QtMobility14QMessageFilterEE13detach_helperEv 0x0002621c   Section       88  QtMessaging.in(t._ZN5QListIN10QtMobility14QMessageFilterEE13detach_helperEv)
    t._ZN5QListIN10QtMobility14QMessageFilterEE13detach_helperEv.clean 0x00026274   Section        8  QtMessaging.in(t._ZN5QListIN10QtMobility14QMessageFilterEE13detach_helperEv.clean)
    t._ZN5QListIN10QtMobility14QMessageFilterEE13node_destructEPNS2_4NodeE 0x0002627c   Section       14  QtMessaging.in(t._ZN5QListIN10QtMobility14QMessageFilterEE13node_destructEPNS2_4NodeE)
    t._ZN5QListIN10QtMobility14QMessageFilterEE13node_destructEPNS2_4NodeES4_ 0x0002628a   Section       28  QtMessaging.in(t._ZN5QListIN10QtMobility14QMessageFilterEE13node_destructEPNS2_4NodeES4_)
    t._ZN5QListIN10QtMobility14QMessageFilterEE14node_constructEPNS2_4NodeERKS1_ 0x000262a6   Section       32  QtMessaging.in(t._ZN5QListIN10QtMobility14QMessageFilterEE14node_constructEPNS2_4NodeERKS1_)
    t._ZN5QListIN10QtMobility14QMessageFilterEE14node_constructEPNS2_4NodeERKS1_.clean 0x000262c6   Section       10  QtMessaging.in(t._ZN5QListIN10QtMobility14QMessageFilterEE14node_constructEPNS2_4NodeERKS1_.clean)
    t._ZN5QListIN10QtMobility14QMessageFilterEE18detach_helper_growEii 0x000262d0   Section      180  QtMessaging.in(t._ZN5QListIN10QtMobility14QMessageFilterEE18detach_helper_growEii)
    t._ZN5QListIN10QtMobility14QMessageFilterEE18detach_helper_growEii.clean 0x00026384   Section        8  QtMessaging.in(t._ZN5QListIN10QtMobility14QMessageFilterEE18detach_helper_growEii.clean)
    t._ZN5QListIN10QtMobility14QMessageFilterEE3endEv 0x0002638c   Section       22  QtMessaging.in(t._ZN5QListIN10QtMobility14QMessageFilterEE3endEv)
    t._ZN5QListIN10QtMobility14QMessageFilterEE4freeEPN9QListData4DataE 0x000263a2   Section       44  QtMessaging.in(t._ZN5QListIN10QtMobility14QMessageFilterEE4freeEPN9QListData4DataE)
    t._ZN5QListIN10QtMobility14QMessageFilterEE5beginEv 0x000263ce   Section       22  QtMessaging.in(t._ZN5QListIN10QtMobility14QMessageFilterEE5beginEv)
    t._ZN5QListIN10QtMobility14QMessageFilterEE6appendERKS1_ 0x000263e4   Section       96  QtMessaging.in(t._ZN5QListIN10QtMobility14QMessageFilterEE6appendERKS1_)
    t._ZN5QListIN10QtMobility14QMessageFilterEE6appendERKS1_.clean 0x00026444   Section        8  QtMessaging.in(t._ZN5QListIN10QtMobility14QMessageFilterEE6appendERKS1_.clean)
    t._ZN5QListIN10QtMobility14QMessageFilterEE6detachEv 0x0002644c   Section       24  QtMessaging.in(t._ZN5QListIN10QtMobility14QMessageFilterEE6detachEv)
    t._ZN5QListIN10QtMobility14QMessageFilterEE8removeAtEi 0x00026464   Section       50  QtMessaging.in(t._ZN5QListIN10QtMobility14QMessageFilterEE8removeAtEi)
    t._ZN5QListIN10QtMobility14QMessageFilterEE9node_copyEPNS2_4NodeES4_S4_ 0x00026496   Section       78  QtMessaging.in(t._ZN5QListIN10QtMobility14QMessageFilterEE9node_copyEPNS2_4NodeES4_S4_)
    t._ZN5QListIN10QtMobility14QMessageFilterEE9node_copyEPNS2_4NodeES4_S4_.clean 0x000264e4   Section       18  QtMessaging.in(t._ZN5QListIN10QtMobility14QMessageFilterEE9node_copyEPNS2_4NodeES4_S4_.clean)
    t._ZN5QListIN10QtMobility14QMessageFilterEEC1ERKS2_ 0x000264f6   Section       30  QtMessaging.in(t._ZN5QListIN10QtMobility14QMessageFilterEEC1ERKS2_)
    t._ZN5QListIN10QtMobility14QMessageFilterEEC1Ev 0x00026514   Section       20  QtMessaging.in(t._ZN5QListIN10QtMobility14QMessageFilterEEC1Ev)
    t._ZN5QListIN10QtMobility14QMessageFilterEED1Ev 0x00026528   Section       30  QtMessaging.in(t._ZN5QListIN10QtMobility14QMessageFilterEED1Ev)
    t._ZN5QListIN10QtMobility14QMessageFilterEEixEi 0x00026546   Section       22  QtMessaging.in(t._ZN5QListIN10QtMobility14QMessageFilterEEixEi)
    t._ZN5QListIN10QtMobility14QMessageFilterEElsERKS1_ 0x0002655c   Section       12  QtMessaging.in(t._ZN5QListIN10QtMobility14QMessageFilterEElsERKS1_)
    t._ZN5QListIN10QtMobility14QMessageFilterEEpLERKS2_ 0x00026568   Section      172  QtMessaging.in(t._ZN5QListIN10QtMobility14QMessageFilterEEpLERKS2_)
    t._ZN5QListIN10QtMobility14QMessageFilterEEpLERKS2_.clean 0x00026614   Section        8  QtMessaging.in(t._ZN5QListIN10QtMobility14QMessageFilterEEpLERKS2_.clean)
    t._ZN5QListIN10QtMobility15QMessageAddressEE13detach_helperEi 0x0002661c   Section      150  QtMessaging.in(t._ZN5QListIN10QtMobility15QMessageAddressEE13detach_helperEi)
    t._ZN5QListIN10QtMobility15QMessageAddressEE13detach_helperEi.clean 0x000266b2   Section       18  QtMessaging.in(t._ZN5QListIN10QtMobility15QMessageAddressEE13detach_helperEi.clean)
    t._ZN5QListIN10QtMobility15QMessageAddressEE13detach_helperEv 0x000266c4   Section       12  QtMessaging.in(t._ZN5QListIN10QtMobility15QMessageAddressEE13detach_helperEv)
    t._ZN5QListIN10QtMobility15QMessageAddressEE13node_destructEPNS2_4NodeES4_ 0x000266d0   Section       28  QtMessaging.in(t._ZN5QListIN10QtMobility15QMessageAddressEE13node_destructEPNS2_4NodeES4_)
    t._ZN5QListIN10QtMobility15QMessageAddressEE14node_constructEPNS2_4NodeERKS1_ 0x000266ec   Section       32  QtMessaging.in(t._ZN5QListIN10QtMobility15QMessageAddressEE14node_constructEPNS2_4NodeERKS1_)
    t._ZN5QListIN10QtMobility15QMessageAddressEE14node_constructEPNS2_4NodeERKS1_.clean 0x0002670c   Section       10  QtMessaging.in(t._ZN5QListIN10QtMobility15QMessageAddressEE14node_constructEPNS2_4NodeERKS1_.clean)
    t._ZN5QListIN10QtMobility15QMessageAddressEE18detach_helper_growEii 0x00026716   Section      180  QtMessaging.in(t._ZN5QListIN10QtMobility15QMessageAddressEE18detach_helper_growEii)
    t._ZN5QListIN10QtMobility15QMessageAddressEE18detach_helper_growEii.clean 0x000267ca   Section        8  QtMessaging.in(t._ZN5QListIN10QtMobility15QMessageAddressEE18detach_helper_growEii.clean)
    t._ZN5QListIN10QtMobility15QMessageAddressEE4freeEPN9QListData4DataE 0x000267d2   Section       38  QtMessaging.in(t._ZN5QListIN10QtMobility15QMessageAddressEE4freeEPN9QListData4DataE)
    t._ZN5QListIN10QtMobility15QMessageAddressEE6appendERKS1_ 0x000267f8   Section       96  QtMessaging.in(t._ZN5QListIN10QtMobility15QMessageAddressEE6appendERKS1_)
    t._ZN5QListIN10QtMobility15QMessageAddressEE6appendERKS1_.clean 0x00026858   Section        8  QtMessaging.in(t._ZN5QListIN10QtMobility15QMessageAddressEE6appendERKS1_.clean)
    t._ZN5QListIN10QtMobility15QMessageAddressEE9node_copyEPNS2_4NodeES4_S4_ 0x00026860   Section       78  QtMessaging.in(t._ZN5QListIN10QtMobility15QMessageAddressEE9node_copyEPNS2_4NodeES4_S4_)
    t._ZN5QListIN10QtMobility15QMessageAddressEE9node_copyEPNS2_4NodeES4_S4_.clean 0x000268ae   Section       18  QtMessaging.in(t._ZN5QListIN10QtMobility15QMessageAddressEE9node_copyEPNS2_4NodeES4_S4_.clean)
    t._ZN5QListIN10QtMobility15QMessageAddressEEC1ERKS2_ 0x000268c0   Section       30  QtMessaging.in(t._ZN5QListIN10QtMobility15QMessageAddressEEC1ERKS2_)
    t._ZN5QListIN10QtMobility15QMessageAddressEEC1Ev 0x000268e0   Section       20  QtMessaging.in(t._ZN5QListIN10QtMobility15QMessageAddressEEC1Ev)
    t._ZN5QListIN10QtMobility15QMessageAddressEED1Ev 0x000268f4   Section       30  QtMessaging.in(t._ZN5QListIN10QtMobility15QMessageAddressEED1Ev)
    t._ZN5QListIN10QtMobility15QMessageAddressEEaSERKS2_ 0x00026912   Section       54  QtMessaging.in(t._ZN5QListIN10QtMobility15QMessageAddressEEaSERKS2_)
    t._ZN5QListIN10QtMobility15QMessageAddressEEixEi 0x00026948   Section       36  QtMessaging.in(t._ZN5QListIN10QtMobility15QMessageAddressEEixEi)
    t._ZN5QListIN10QtMobility15QMessageAddressEEpLERKS2_ 0x0002696c   Section      172  QtMessaging.in(t._ZN5QListIN10QtMobility15QMessageAddressEEpLERKS2_)
    t._ZN5QListIN10QtMobility15QMessageAddressEEpLERKS2_.clean 0x00026a18   Section        8  QtMessaging.in(t._ZN5QListIN10QtMobility15QMessageAddressEEpLERKS2_.clean)
    t._ZN5QListIN10QtMobility16MessageQueryInfoEE13detach_helperEv 0x00026a20   Section       88  QtMessaging.in(t._ZN5QListIN10QtMobility16MessageQueryInfoEE13detach_helperEv)
    t._ZN5QListIN10QtMobility16MessageQueryInfoEE13detach_helperEv.clean 0x00026a78   Section        8  QtMessaging.in(t._ZN5QListIN10QtMobility16MessageQueryInfoEE13detach_helperEv.clean)
    t._ZN5QListIN10QtMobility16MessageQueryInfoEE13node_destructEPNS2_4NodeE 0x00026a80   Section       18  QtMessaging.in(t._ZN5QListIN10QtMobility16MessageQueryInfoEE13node_destructEPNS2_4NodeE)
    t._ZN5QListIN10QtMobility16MessageQueryInfoEE13node_destructEPNS2_4NodeES4_ 0x00026a92   Section       30  QtMessaging.in(t._ZN5QListIN10QtMobility16MessageQueryInfoEE13node_destructEPNS2_4NodeES4_)
    t._ZN5QListIN10QtMobility16MessageQueryInfoEE14node_constructEPNS2_4NodeERKS1_ 0x00026ab0   Section       32  QtMessaging.in(t._ZN5QListIN10QtMobility16MessageQueryInfoEE14node_constructEPNS2_4NodeERKS1_)
    t._ZN5QListIN10QtMobility16MessageQueryInfoEE14node_constructEPNS2_4NodeERKS1_.clean 0x00026ad0   Section       10  QtMessaging.in(t._ZN5QListIN10QtMobility16MessageQueryInfoEE14node_constructEPNS2_4NodeERKS1_.clean)
    t._ZN5QListIN10QtMobility16MessageQueryInfoEE18detach_helper_growEii 0x00026ada   Section      180  QtMessaging.in(t._ZN5QListIN10QtMobility16MessageQueryInfoEE18detach_helper_growEii)
    t._ZN5QListIN10QtMobility16MessageQueryInfoEE18detach_helper_growEii.clean 0x00026b8e   Section        8  QtMessaging.in(t._ZN5QListIN10QtMobility16MessageQueryInfoEE18detach_helper_growEii.clean)
    t._ZN5QListIN10QtMobility16MessageQueryInfoEE4freeEPN9QListData4DataE 0x00026b96   Section       44  QtMessaging.in(t._ZN5QListIN10QtMobility16MessageQueryInfoEE4freeEPN9QListData4DataE)
    t._ZN5QListIN10QtMobility16MessageQueryInfoEE6appendERKS1_ 0x00026bc4   Section       96  QtMessaging.in(t._ZN5QListIN10QtMobility16MessageQueryInfoEE6appendERKS1_)
    t._ZN5QListIN10QtMobility16MessageQueryInfoEE6appendERKS1_.clean 0x00026c24   Section        8  QtMessaging.in(t._ZN5QListIN10QtMobility16MessageQueryInfoEE6appendERKS1_.clean)
    t._ZN5QListIN10QtMobility16MessageQueryInfoEE6detachEv 0x00026c2c   Section       24  QtMessaging.in(t._ZN5QListIN10QtMobility16MessageQueryInfoEE6detachEv)
    t._ZN5QListIN10QtMobility16MessageQueryInfoEE8removeAtEi 0x00026c44   Section       50  QtMessaging.in(t._ZN5QListIN10QtMobility16MessageQueryInfoEE8removeAtEi)
    t._ZN5QListIN10QtMobility16MessageQueryInfoEE9node_copyEPNS2_4NodeES4_S4_ 0x00026c76   Section       80  QtMessaging.in(t._ZN5QListIN10QtMobility16MessageQueryInfoEE9node_copyEPNS2_4NodeES4_S4_)
    t._ZN5QListIN10QtMobility16MessageQueryInfoEE9node_copyEPNS2_4NodeES4_S4_.clean 0x00026cc6   Section       18  QtMessaging.in(t._ZN5QListIN10QtMobility16MessageQueryInfoEE9node_copyEPNS2_4NodeES4_S4_.clean)
    t._ZN5QListIN10QtMobility16MessageQueryInfoEED1Ev 0x00026cd8   Section       30  QtMessaging.in(t._ZN5QListIN10QtMobility16MessageQueryInfoEED1Ev)
    t._ZN5QListIN10QtMobility16MessageQueryInfoEEixEi 0x00026cf6   Section       22  QtMessaging.in(t._ZN5QListIN10QtMobility16MessageQueryInfoEEixEi)
    t._ZN5QListIN10QtMobility16QMessageFolderIdEE13detach_helperEi 0x00026d0c   Section      152  QtMessaging.in(t._ZN5QListIN10QtMobility16QMessageFolderIdEE13detach_helperEi)
    t._ZN5QListIN10QtMobility16QMessageFolderIdEE13detach_helperEi.clean 0x00026da4   Section       18  QtMessaging.in(t._ZN5QListIN10QtMobility16QMessageFolderIdEE13detach_helperEi.clean)
    t._ZN5QListIN10QtMobility16QMessageFolderIdEE13detach_helperEv 0x00026db6   Section       12  QtMessaging.in(t._ZN5QListIN10QtMobility16QMessageFolderIdEE13detach_helperEv)
    t._ZN5QListIN10QtMobility16QMessageFolderIdEE13node_destructEPNS2_4NodeE 0x00026dc2   Section       18  QtMessaging.in(t._ZN5QListIN10QtMobility16QMessageFolderIdEE13node_destructEPNS2_4NodeE)
    t._ZN5QListIN10QtMobility16QMessageFolderIdEE13node_destructEPNS2_4NodeES4_ 0x00026dd4   Section       30  QtMessaging.in(t._ZN5QListIN10QtMobility16QMessageFolderIdEE13node_destructEPNS2_4NodeES4_)
    t._ZN5QListIN10QtMobility16QMessageFolderIdEE14node_constructEPNS2_4NodeERKS1_ 0x00026df2   Section       32  QtMessaging.in(t._ZN5QListIN10QtMobility16QMessageFolderIdEE14node_constructEPNS2_4NodeERKS1_)
    t._ZN5QListIN10QtMobility16QMessageFolderIdEE14node_constructEPNS2_4NodeERKS1_.clean 0x00026e12   Section       10  QtMessaging.in(t._ZN5QListIN10QtMobility16QMessageFolderIdEE14node_constructEPNS2_4NodeERKS1_.clean)
    t._ZN5QListIN10QtMobility16QMessageFolderIdEE18detach_helper_growEii 0x00026e1c   Section      180  QtMessaging.in(t._ZN5QListIN10QtMobility16QMessageFolderIdEE18detach_helper_growEii)
    t._ZN5QListIN10QtMobility16QMessageFolderIdEE18detach_helper_growEii.clean 0x00026ed0   Section        8  QtMessaging.in(t._ZN5QListIN10QtMobility16QMessageFolderIdEE18detach_helper_growEii.clean)
    t._ZN5QListIN10QtMobility16QMessageFolderIdEE4freeEPN9QListData4DataE 0x00026ed8   Section       38  QtMessaging.in(t._ZN5QListIN10QtMobility16QMessageFolderIdEE4freeEPN9QListData4DataE)
    t._ZN5QListIN10QtMobility16QMessageFolderIdEE5beginEv 0x00026efe   Section       22  QtMessaging.in(t._ZN5QListIN10QtMobility16QMessageFolderIdEE5beginEv)
    t._ZN5QListIN10QtMobility16QMessageFolderIdEE5clearEv 0x00026f14   Section       72  QtMessaging.in(t._ZN5QListIN10QtMobility16QMessageFolderIdEE5clearEv)
    t._ZN5QListIN10QtMobility16QMessageFolderIdEE5clearEv.clean 0x00026f5c   Section       10  QtMessaging.in(t._ZN5QListIN10QtMobility16QMessageFolderIdEE5clearEv.clean)
    t._ZN5QListIN10QtMobility16QMessageFolderIdEE6appendERKS1_ 0x00026f68   Section       96  QtMessaging.in(t._ZN5QListIN10QtMobility16QMessageFolderIdEE6appendERKS1_)
    t._ZN5QListIN10QtMobility16QMessageFolderIdEE6appendERKS1_.clean 0x00026fc8   Section        8  QtMessaging.in(t._ZN5QListIN10QtMobility16QMessageFolderIdEE6appendERKS1_.clean)
    t._ZN5QListIN10QtMobility16QMessageFolderIdEE6detachEv 0x00026fd0   Section       24  QtMessaging.in(t._ZN5QListIN10QtMobility16QMessageFolderIdEE6detachEv)
    t._ZN5QListIN10QtMobility16QMessageFolderIdEE8removeAtEi 0x00026fe8   Section       50  QtMessaging.in(t._ZN5QListIN10QtMobility16QMessageFolderIdEE8removeAtEi)
    t._ZN5QListIN10QtMobility16QMessageFolderIdEE9node_copyEPNS2_4NodeES4_S4_ 0x0002701a   Section       80  QtMessaging.in(t._ZN5QListIN10QtMobility16QMessageFolderIdEE9node_copyEPNS2_4NodeES4_S4_)
    t._ZN5QListIN10QtMobility16QMessageFolderIdEE9node_copyEPNS2_4NodeES4_S4_.clean 0x0002706a   Section       18  QtMessaging.in(t._ZN5QListIN10QtMobility16QMessageFolderIdEE9node_copyEPNS2_4NodeES4_S4_.clean)
    t._ZN5QListIN10QtMobility16QMessageFolderIdEE9removeOneERKS1_ 0x0002707c   Section      120  QtMessaging.in(t._ZN5QListIN10QtMobility16QMessageFolderIdEE9removeOneERKS1_)
    t._ZN5QListIN10QtMobility16QMessageFolderIdEEC1Ev 0x000270f4   Section       20  QtMessaging.in(t._ZN5QListIN10QtMobility16QMessageFolderIdEEC1Ev)
    t._ZN5QListIN10QtMobility16QMessageFolderIdEED1Ev 0x00027108   Section       30  QtMessaging.in(t._ZN5QListIN10QtMobility16QMessageFolderIdEED1Ev)
    t._ZN5QListIN10QtMobility16QMessageFolderIdEEaSERKS2_ 0x00027126   Section       54  QtMessaging.in(t._ZN5QListIN10QtMobility16QMessageFolderIdEEaSERKS2_)
    t._ZN5QListIN10QtMobility16QMessageFolderIdEEixEi 0x0002715c   Section       22  QtMessaging.in(t._ZN5QListIN10QtMobility16QMessageFolderIdEEixEi)
    t._ZN5QListIN10QtMobility16QMessageFolderIdEEpLERKS2_ 0x00027174   Section      136  QtMessaging.in(t._ZN5QListIN10QtMobility16QMessageFolderIdEEpLERKS2_)
    t._ZN5QListIN10QtMobility16QMessageFolderIdEEpLERKS2_.clean 0x000271fc   Section        8  QtMessaging.in(t._ZN5QListIN10QtMobility16QMessageFolderIdEEpLERKS2_.clean)
    t._ZN5QListIN10QtMobility17QMessageAccountIdEE13detach_helperEi 0x00027204   Section      152  QtMessaging.in(t._ZN5QListIN10QtMobility17QMessageAccountIdEE13detach_helperEi)
    t._ZN5QListIN10QtMobility17QMessageAccountIdEE13detach_helperEi.clean 0x0002729c   Section       18  QtMessaging.in(t._ZN5QListIN10QtMobility17QMessageAccountIdEE13detach_helperEi.clean)
    t._ZN5QListIN10QtMobility17QMessageAccountIdEE13detach_helperEv 0x000272ae   Section       12  QtMessaging.in(t._ZN5QListIN10QtMobility17QMessageAccountIdEE13detach_helperEv)
    t._ZN5QListIN10QtMobility17QMessageAccountIdEE13node_destructEPNS2_4NodeE 0x000272ba   Section       18  QtMessaging.in(t._ZN5QListIN10QtMobility17QMessageAccountIdEE13node_destructEPNS2_4NodeE)
    t._ZN5QListIN10QtMobility17QMessageAccountIdEE13node_destructEPNS2_4NodeES4_ 0x000272cc   Section       30  QtMessaging.in(t._ZN5QListIN10QtMobility17QMessageAccountIdEE13node_destructEPNS2_4NodeES4_)
    t._ZN5QListIN10QtMobility17QMessageAccountIdEE14node_constructEPNS2_4NodeERKS1_ 0x000272ea   Section       32  QtMessaging.in(t._ZN5QListIN10QtMobility17QMessageAccountIdEE14node_constructEPNS2_4NodeERKS1_)
    t._ZN5QListIN10QtMobility17QMessageAccountIdEE14node_constructEPNS2_4NodeERKS1_.clean 0x0002730a   Section       10  QtMessaging.in(t._ZN5QListIN10QtMobility17QMessageAccountIdEE14node_constructEPNS2_4NodeERKS1_.clean)
    t._ZN5QListIN10QtMobility17QMessageAccountIdEE18detach_helper_growEii 0x00027314   Section      180  QtMessaging.in(t._ZN5QListIN10QtMobility17QMessageAccountIdEE18detach_helper_growEii)
    t._ZN5QListIN10QtMobility17QMessageAccountIdEE18detach_helper_growEii.clean 0x000273c8   Section        8  QtMessaging.in(t._ZN5QListIN10QtMobility17QMessageAccountIdEE18detach_helper_growEii.clean)
    t._ZN5QListIN10QtMobility17QMessageAccountIdEE4freeEPN9QListData4DataE 0x000273d0   Section       38  QtMessaging.in(t._ZN5QListIN10QtMobility17QMessageAccountIdEE4freeEPN9QListData4DataE)
    t._ZN5QListIN10QtMobility17QMessageAccountIdEE5beginEv 0x000273f6   Section       22  QtMessaging.in(t._ZN5QListIN10QtMobility17QMessageAccountIdEE5beginEv)
    t._ZN5QListIN10QtMobility17QMessageAccountIdEE5clearEv 0x0002740c   Section       72  QtMessaging.in(t._ZN5QListIN10QtMobility17QMessageAccountIdEE5clearEv)
    t._ZN5QListIN10QtMobility17QMessageAccountIdEE5clearEv.clean 0x00027454   Section       10  QtMessaging.in(t._ZN5QListIN10QtMobility17QMessageAccountIdEE5clearEv.clean)
    t._ZN5QListIN10QtMobility17QMessageAccountIdEE6appendERKS1_ 0x00027460   Section       96  QtMessaging.in(t._ZN5QListIN10QtMobility17QMessageAccountIdEE6appendERKS1_)
    t._ZN5QListIN10QtMobility17QMessageAccountIdEE6appendERKS1_.clean 0x000274c0   Section        8  QtMessaging.in(t._ZN5QListIN10QtMobility17QMessageAccountIdEE6appendERKS1_.clean)
    t._ZN5QListIN10QtMobility17QMessageAccountIdEE6detachEv 0x000274c8   Section       24  QtMessaging.in(t._ZN5QListIN10QtMobility17QMessageAccountIdEE6detachEv)
    t._ZN5QListIN10QtMobility17QMessageAccountIdEE8removeAtEi 0x000274e0   Section       50  QtMessaging.in(t._ZN5QListIN10QtMobility17QMessageAccountIdEE8removeAtEi)
    t._ZN5QListIN10QtMobility17QMessageAccountIdEE9node_copyEPNS2_4NodeES4_S4_ 0x00027512   Section       80  QtMessaging.in(t._ZN5QListIN10QtMobility17QMessageAccountIdEE9node_copyEPNS2_4NodeES4_S4_)
    t._ZN5QListIN10QtMobility17QMessageAccountIdEE9node_copyEPNS2_4NodeES4_S4_.clean 0x00027562   Section       18  QtMessaging.in(t._ZN5QListIN10QtMobility17QMessageAccountIdEE9node_copyEPNS2_4NodeES4_S4_.clean)
    t._ZN5QListIN10QtMobility17QMessageAccountIdEEC1Ev 0x00027574   Section       20  QtMessaging.in(t._ZN5QListIN10QtMobility17QMessageAccountIdEEC1Ev)
    t._ZN5QListIN10QtMobility17QMessageAccountIdEED1Ev 0x00027588   Section       30  QtMessaging.in(t._ZN5QListIN10QtMobility17QMessageAccountIdEED1Ev)
    t._ZN5QListIN10QtMobility17QMessageAccountIdEEaSERKS2_ 0x000275a6   Section       56  QtMessaging.in(t._ZN5QListIN10QtMobility17QMessageAccountIdEEaSERKS2_)
    t._ZN5QListIN10QtMobility17QMessageAccountIdEEixEi 0x000275de   Section       22  QtMessaging.in(t._ZN5QListIN10QtMobility17QMessageAccountIdEEixEi)
    t._ZN5QListIN10QtMobility17QMessageAccountIdEEpLERKS2_ 0x000275f4   Section      172  QtMessaging.in(t._ZN5QListIN10QtMobility17QMessageAccountIdEEpLERKS2_)
    t._ZN5QListIN10QtMobility17QMessageAccountIdEEpLERKS2_.clean 0x000276a0   Section        8  QtMessaging.in(t._ZN5QListIN10QtMobility17QMessageAccountIdEEpLERKS2_.clean)
    t._ZN5QListIN10QtMobility17QMessageSortOrderEE13detach_helperEi 0x000276a8   Section      150  QtMessaging.in(t._ZN5QListIN10QtMobility17QMessageSortOrderEE13detach_helperEi)
    t._ZN5QListIN10QtMobility17QMessageSortOrderEE13detach_helperEi.clean 0x0002773e   Section       18  QtMessaging.in(t._ZN5QListIN10QtMobility17QMessageSortOrderEE13detach_helperEi.clean)
    t._ZN5QListIN10QtMobility17QMessageSortOrderEE4freeEPN9QListData4DataE 0x00027750   Section       54  QtMessaging.in(t._ZN5QListIN10QtMobility17QMessageSortOrderEE4freeEPN9QListData4DataE)
    t._ZN5QListIN10QtMobility17QMessageSortOrderEED1Ev 0x00027786   Section       30  QtMessaging.in(t._ZN5QListIN10QtMobility17QMessageSortOrderEED1Ev)
    t._ZN5QListIN10QtMobility20QMessageFolderFilterEE13detach_helperEv 0x000277a4   Section       88  QtMessaging.in(t._ZN5QListIN10QtMobility20QMessageFolderFilterEE13detach_helperEv)
    t._ZN5QListIN10QtMobility20QMessageFolderFilterEE13detach_helperEv.clean 0x000277fc   Section        8  QtMessaging.in(t._ZN5QListIN10QtMobility20QMessageFolderFilterEE13detach_helperEv.clean)
    t._ZN5QListIN10QtMobility20QMessageFolderFilterEE13node_destructEPNS2_4NodeE 0x00027804   Section       14  QtMessaging.in(t._ZN5QListIN10QtMobility20QMessageFolderFilterEE13node_destructEPNS2_4NodeE)
    t._ZN5QListIN10QtMobility20QMessageFolderFilterEE13node_destructEPNS2_4NodeES4_ 0x00027812   Section       28  QtMessaging.in(t._ZN5QListIN10QtMobility20QMessageFolderFilterEE13node_destructEPNS2_4NodeES4_)
    t._ZN5QListIN10QtMobility20QMessageFolderFilterEE14node_constructEPNS2_4NodeERKS1_ 0x0002782e   Section       32  QtMessaging.in(t._ZN5QListIN10QtMobility20QMessageFolderFilterEE14node_constructEPNS2_4NodeERKS1_)
    t._ZN5QListIN10QtMobility20QMessageFolderFilterEE14node_constructEPNS2_4NodeERKS1_.clean 0x0002784e   Section       10  QtMessaging.in(t._ZN5QListIN10QtMobility20QMessageFolderFilterEE14node_constructEPNS2_4NodeERKS1_.clean)
    t._ZN5QListIN10QtMobility20QMessageFolderFilterEE18detach_helper_growEii 0x00027858   Section      180  QtMessaging.in(t._ZN5QListIN10QtMobility20QMessageFolderFilterEE18detach_helper_growEii)
    t._ZN5QListIN10QtMobility20QMessageFolderFilterEE18detach_helper_growEii.clean 0x0002790c   Section        8  QtMessaging.in(t._ZN5QListIN10QtMobility20QMessageFolderFilterEE18detach_helper_growEii.clean)
    t._ZN5QListIN10QtMobility20QMessageFolderFilterEE3endEv 0x00027914   Section       22  QtMessaging.in(t._ZN5QListIN10QtMobility20QMessageFolderFilterEE3endEv)
    t._ZN5QListIN10QtMobility20QMessageFolderFilterEE4freeEPN9QListData4DataE 0x0002792a   Section       38  QtMessaging.in(t._ZN5QListIN10QtMobility20QMessageFolderFilterEE4freeEPN9QListData4DataE)
    t._ZN5QListIN10QtMobility20QMessageFolderFilterEE5beginEv 0x00027950   Section       22  QtMessaging.in(t._ZN5QListIN10QtMobility20QMessageFolderFilterEE5beginEv)
    t._ZN5QListIN10QtMobility20QMessageFolderFilterEE6appendERKS1_ 0x00027968   Section       96  QtMessaging.in(t._ZN5QListIN10QtMobility20QMessageFolderFilterEE6appendERKS1_)
    t._ZN5QListIN10QtMobility20QMessageFolderFilterEE6appendERKS1_.clean 0x000279c8   Section        8  QtMessaging.in(t._ZN5QListIN10QtMobility20QMessageFolderFilterEE6appendERKS1_.clean)
    t._ZN5QListIN10QtMobility20QMessageFolderFilterEE6detachEv 0x000279d0   Section       24  QtMessaging.in(t._ZN5QListIN10QtMobility20QMessageFolderFilterEE6detachEv)
    t._ZN5QListIN10QtMobility20QMessageFolderFilterEE9node_copyEPNS2_4NodeES4_S4_ 0x000279e8   Section       78  QtMessaging.in(t._ZN5QListIN10QtMobility20QMessageFolderFilterEE9node_copyEPNS2_4NodeES4_S4_)
    t._ZN5QListIN10QtMobility20QMessageFolderFilterEE9node_copyEPNS2_4NodeES4_S4_.clean 0x00027a36   Section       18  QtMessaging.in(t._ZN5QListIN10QtMobility20QMessageFolderFilterEE9node_copyEPNS2_4NodeES4_S4_.clean)
    t._ZN5QListIN10QtMobility20QMessageFolderFilterEEC1ERKS2_ 0x00027a48   Section       30  QtMessaging.in(t._ZN5QListIN10QtMobility20QMessageFolderFilterEEC1ERKS2_)
    t._ZN5QListIN10QtMobility20QMessageFolderFilterEEC1Ev 0x00027a68   Section       20  QtMessaging.in(t._ZN5QListIN10QtMobility20QMessageFolderFilterEEC1Ev)
    t._ZN5QListIN10QtMobility20QMessageFolderFilterEED1Ev 0x00027a7c   Section       30  QtMessaging.in(t._ZN5QListIN10QtMobility20QMessageFolderFilterEED1Ev)
    t._ZN5QListIN10QtMobility20QMessageFolderFilterEEixEi 0x00027a9a   Section       22  QtMessaging.in(t._ZN5QListIN10QtMobility20QMessageFolderFilterEEixEi)
    t._ZN5QListIN10QtMobility20QMessageFolderFilterEElsERKS1_ 0x00027ab0   Section       12  QtMessaging.in(t._ZN5QListIN10QtMobility20QMessageFolderFilterEElsERKS1_)
    t._ZN5QListIN10QtMobility20QMessageFolderFilterEEpLERKS2_ 0x00027abc   Section      172  QtMessaging.in(t._ZN5QListIN10QtMobility20QMessageFolderFilterEEpLERKS2_)
    t._ZN5QListIN10QtMobility20QMessageFolderFilterEEpLERKS2_.clean 0x00027b68   Section        8  QtMessaging.in(t._ZN5QListIN10QtMobility20QMessageFolderFilterEEpLERKS2_.clean)
    t._ZN5QListIN10QtMobility21QMessageAccountFilterEE13detach_helperEv 0x00027b70   Section       88  QtMessaging.in(t._ZN5QListIN10QtMobility21QMessageAccountFilterEE13detach_helperEv)
    t._ZN5QListIN10QtMobility21QMessageAccountFilterEE13detach_helperEv.clean 0x00027bc8   Section        8  QtMessaging.in(t._ZN5QListIN10QtMobility21QMessageAccountFilterEE13detach_helperEv.clean)
    t._ZN5QListIN10QtMobility21QMessageAccountFilterEE13node_destructEPNS2_4NodeES4_ 0x00027bd0   Section       28  QtMessaging.in(t._ZN5QListIN10QtMobility21QMessageAccountFilterEE13node_destructEPNS2_4NodeES4_)
    t._ZN5QListIN10QtMobility21QMessageAccountFilterEE14node_constructEPNS2_4NodeERKS1_ 0x00027bec   Section       32  QtMessaging.in(t._ZN5QListIN10QtMobility21QMessageAccountFilterEE14node_constructEPNS2_4NodeERKS1_)
    t._ZN5QListIN10QtMobility21QMessageAccountFilterEE14node_constructEPNS2_4NodeERKS1_.clean 0x00027c0c   Section       10  QtMessaging.in(t._ZN5QListIN10QtMobility21QMessageAccountFilterEE14node_constructEPNS2_4NodeERKS1_.clean)
    t._ZN5QListIN10QtMobility21QMessageAccountFilterEE18detach_helper_growEii 0x00027c16   Section      180  QtMessaging.in(t._ZN5QListIN10QtMobility21QMessageAccountFilterEE18detach_helper_growEii)
    t._ZN5QListIN10QtMobility21QMessageAccountFilterEE18detach_helper_growEii.clean 0x00027cca   Section        8  QtMessaging.in(t._ZN5QListIN10QtMobility21QMessageAccountFilterEE18detach_helper_growEii.clean)
    t._ZN5QListIN10QtMobility21QMessageAccountFilterEE3endEv 0x00027cd2   Section       22  QtMessaging.in(t._ZN5QListIN10QtMobility21QMessageAccountFilterEE3endEv)
    t._ZN5QListIN10QtMobility21QMessageAccountFilterEE4freeEPN9QListData4DataE 0x00027ce8   Section       38  QtMessaging.in(t._ZN5QListIN10QtMobility21QMessageAccountFilterEE4freeEPN9QListData4DataE)
    t._ZN5QListIN10QtMobility21QMessageAccountFilterEE5beginEv 0x00027d0e   Section       22  QtMessaging.in(t._ZN5QListIN10QtMobility21QMessageAccountFilterEE5beginEv)
    t._ZN5QListIN10QtMobility21QMessageAccountFilterEE6appendERKS1_ 0x00027d24   Section       96  QtMessaging.in(t._ZN5QListIN10QtMobility21QMessageAccountFilterEE6appendERKS1_)
    t._ZN5QListIN10QtMobility21QMessageAccountFilterEE6appendERKS1_.clean 0x00027d84   Section        8  QtMessaging.in(t._ZN5QListIN10QtMobility21QMessageAccountFilterEE6appendERKS1_.clean)
    t._ZN5QListIN10QtMobility21QMessageAccountFilterEE6detachEv 0x00027d8c   Section       24  QtMessaging.in(t._ZN5QListIN10QtMobility21QMessageAccountFilterEE6detachEv)
    t._ZN5QListIN10QtMobility21QMessageAccountFilterEE9node_copyEPNS2_4NodeES4_S4_ 0x00027da4   Section       78  QtMessaging.in(t._ZN5QListIN10QtMobility21QMessageAccountFilterEE9node_copyEPNS2_4NodeES4_S4_)
    t._ZN5QListIN10QtMobility21QMessageAccountFilterEE9node_copyEPNS2_4NodeES4_S4_.clean 0x00027df2   Section       18  QtMessaging.in(t._ZN5QListIN10QtMobility21QMessageAccountFilterEE9node_copyEPNS2_4NodeES4_S4_.clean)
    t._ZN5QListIN10QtMobility21QMessageAccountFilterEEC1ERKS2_ 0x00027e04   Section       30  QtMessaging.in(t._ZN5QListIN10QtMobility21QMessageAccountFilterEEC1ERKS2_)
    t._ZN5QListIN10QtMobility21QMessageAccountFilterEEC1Ev 0x00027e24   Section       20  QtMessaging.in(t._ZN5QListIN10QtMobility21QMessageAccountFilterEEC1Ev)
    t._ZN5QListIN10QtMobility21QMessageAccountFilterEED1Ev 0x00027e38   Section       30  QtMessaging.in(t._ZN5QListIN10QtMobility21QMessageAccountFilterEED1Ev)
    t._ZN5QListIN10QtMobility21QMessageAccountFilterEEixEi 0x00027e56   Section       22  QtMessaging.in(t._ZN5QListIN10QtMobility21QMessageAccountFilterEEixEi)
    t._ZN5QListIN10QtMobility21QMessageAccountFilterEElsERKS1_ 0x00027e6c   Section       12  QtMessaging.in(t._ZN5QListIN10QtMobility21QMessageAccountFilterEElsERKS1_)
    t._ZN5QListIN10QtMobility21QMessageAccountFilterEEpLERKS2_ 0x00027e78   Section      172  QtMessaging.in(t._ZN5QListIN10QtMobility21QMessageAccountFilterEEpLERKS2_)
    t._ZN5QListIN10QtMobility21QMessageAccountFilterEEpLERKS2_.clean 0x00027f24   Section        8  QtMessaging.in(t._ZN5QListIN10QtMobility21QMessageAccountFilterEEpLERKS2_.clean)
    t._ZN5QListIN10QtMobility23QMessageFolderSortOrderEE13detach_helperEi 0x00027f2c   Section      150  QtMessaging.in(t._ZN5QListIN10QtMobility23QMessageFolderSortOrderEE13detach_helperEi)
    t._ZN5QListIN10QtMobility23QMessageFolderSortOrderEE13detach_helperEi.clean 0x00027fc2   Section       18  QtMessaging.in(t._ZN5QListIN10QtMobility23QMessageFolderSortOrderEE13detach_helperEi.clean)
    t._ZN5QListIN10QtMobility23QMessageFolderSortOrderEE4freeEPN9QListData4DataE 0x00027fd4   Section       54  QtMessaging.in(t._ZN5QListIN10QtMobility23QMessageFolderSortOrderEE4freeEPN9QListData4DataE)
    t._ZN5QListIN10QtMobility23QMessageFolderSortOrderEED1Ev 0x0002800a   Section       30  QtMessaging.in(t._ZN5QListIN10QtMobility23QMessageFolderSortOrderEED1Ev)
    t._ZN5QListIN10QtMobility24QMessageContentContainerEE13detach_helperEi 0x00028028   Section      150  QtMessaging.in(t._ZN5QListIN10QtMobility24QMessageContentContainerEE13detach_helperEi)
    t._ZN5QListIN10QtMobility24QMessageContentContainerEE13detach_helperEi.clean 0x000280be   Section       18  QtMessaging.in(t._ZN5QListIN10QtMobility24QMessageContentContainerEE13detach_helperEi.clean)
    t._ZN5QListIN10QtMobility24QMessageContentContainerEE13detach_helperEv 0x000280d0   Section       12  QtMessaging.in(t._ZN5QListIN10QtMobility24QMessageContentContainerEE13detach_helperEv)
    t._ZN5QListIN10QtMobility24QMessageContentContainerEE13node_destructEPNS2_4NodeES4_ 0x000280dc   Section       28  QtMessaging.in(t._ZN5QListIN10QtMobility24QMessageContentContainerEE13node_destructEPNS2_4NodeES4_)
    t._ZN5QListIN10QtMobility24QMessageContentContainerEE14node_constructEPNS2_4NodeERKS1_ 0x000280f8   Section       32  QtMessaging.in(t._ZN5QListIN10QtMobility24QMessageContentContainerEE14node_constructEPNS2_4NodeERKS1_)
    t._ZN5QListIN10QtMobility24QMessageContentContainerEE14node_constructEPNS2_4NodeERKS1_.clean 0x00028118   Section       10  QtMessaging.in(t._ZN5QListIN10QtMobility24QMessageContentContainerEE14node_constructEPNS2_4NodeERKS1_.clean)
    t._ZN5QListIN10QtMobility24QMessageContentContainerEE18detach_helper_growEii 0x00028122   Section      180  QtMessaging.in(t._ZN5QListIN10QtMobility24QMessageContentContainerEE18detach_helper_growEii)
    t._ZN5QListIN10QtMobility24QMessageContentContainerEE18detach_helper_growEii.clean 0x000281d6   Section        8  QtMessaging.in(t._ZN5QListIN10QtMobility24QMessageContentContainerEE18detach_helper_growEii.clean)
    t._ZN5QListIN10QtMobility24QMessageContentContainerEE4freeEPN9QListData4DataE 0x000281de   Section       44  QtMessaging.in(t._ZN5QListIN10QtMobility24QMessageContentContainerEE4freeEPN9QListData4DataE)
    t._ZN5QListIN10QtMobility24QMessageContentContainerEE5clearEv 0x0002820c   Section       72  QtMessaging.in(t._ZN5QListIN10QtMobility24QMessageContentContainerEE5clearEv)
    t._ZN5QListIN10QtMobility24QMessageContentContainerEE5clearEv.clean 0x00028254   Section       10  QtMessaging.in(t._ZN5QListIN10QtMobility24QMessageContentContainerEE5clearEv.clean)
    t._ZN5QListIN10QtMobility24QMessageContentContainerEE6appendERKS1_ 0x00028260   Section       96  QtMessaging.in(t._ZN5QListIN10QtMobility24QMessageContentContainerEE6appendERKS1_)
    t._ZN5QListIN10QtMobility24QMessageContentContainerEE6appendERKS1_.clean 0x000282c0   Section        8  QtMessaging.in(t._ZN5QListIN10QtMobility24QMessageContentContainerEE6appendERKS1_.clean)
    t._ZN5QListIN10QtMobility24QMessageContentContainerEE9node_copyEPNS2_4NodeES4_S4_ 0x000282c8   Section       78  QtMessaging.in(t._ZN5QListIN10QtMobility24QMessageContentContainerEE9node_copyEPNS2_4NodeES4_S4_)
    t._ZN5QListIN10QtMobility24QMessageContentContainerEE9node_copyEPNS2_4NodeES4_S4_.clean 0x00028316   Section       18  QtMessaging.in(t._ZN5QListIN10QtMobility24QMessageContentContainerEE9node_copyEPNS2_4NodeES4_S4_.clean)
    t._ZN5QListIN10QtMobility24QMessageContentContainerEEC1Ev 0x00028328   Section       20  QtMessaging.in(t._ZN5QListIN10QtMobility24QMessageContentContainerEEC1Ev)
    t._ZN5QListIN10QtMobility24QMessageContentContainerEED1Ev 0x0002833c   Section       30  QtMessaging.in(t._ZN5QListIN10QtMobility24QMessageContentContainerEED1Ev)
    t._ZN5QListIN10QtMobility24QMessageContentContainerEEaSERKS2_ 0x0002835a   Section       54  QtMessaging.in(t._ZN5QListIN10QtMobility24QMessageContentContainerEEaSERKS2_)
    t._ZN5QListIN10QtMobility24QMessageContentContainerEEixEi 0x00028390   Section       42  QtMessaging.in(t._ZN5QListIN10QtMobility24QMessageContentContainerEEixEi)
    t._ZN5QListIN10QtMobility26QMessageContentContainerIdEE13detach_helperEi 0x000283ba   Section      152  QtMessaging.in(t._ZN5QListIN10QtMobility26QMessageContentContainerIdEE13detach_helperEi)
    t._ZN5QListIN10QtMobility26QMessageContentContainerIdEE13detach_helperEi.clean 0x00028452   Section       18  QtMessaging.in(t._ZN5QListIN10QtMobility26QMessageContentContainerIdEE13detach_helperEi.clean)
    t._ZN5QListIN10QtMobility26QMessageContentContainerIdEE13detach_helperEv 0x00028464   Section       88  QtMessaging.in(t._ZN5QListIN10QtMobility26QMessageContentContainerIdEE13detach_helperEv)
    t._ZN5QListIN10QtMobility26QMessageContentContainerIdEE13detach_helperEv.clean 0x000284bc   Section        8  QtMessaging.in(t._ZN5QListIN10QtMobility26QMessageContentContainerIdEE13detach_helperEv.clean)
    t._ZN5QListIN10QtMobility26QMessageContentContainerIdEE13node_destructEPNS2_4NodeES4_ 0x000284c4   Section       30  QtMessaging.in(t._ZN5QListIN10QtMobility26QMessageContentContainerIdEE13node_destructEPNS2_4NodeES4_)
    t._ZN5QListIN10QtMobility26QMessageContentContainerIdEE14node_constructEPNS2_4NodeERKS1_ 0x000284e2   Section       32  QtMessaging.in(t._ZN5QListIN10QtMobility26QMessageContentContainerIdEE14node_constructEPNS2_4NodeERKS1_)
    t._ZN5QListIN10QtMobility26QMessageContentContainerIdEE14node_constructEPNS2_4NodeERKS1_.clean 0x00028502   Section       10  QtMessaging.in(t._ZN5QListIN10QtMobility26QMessageContentContainerIdEE14node_constructEPNS2_4NodeERKS1_.clean)
    t._ZN5QListIN10QtMobility26QMessageContentContainerIdEE18detach_helper_growEii 0x0002850c   Section      180  QtMessaging.in(t._ZN5QListIN10QtMobility26QMessageContentContainerIdEE18detach_helper_growEii)
    t._ZN5QListIN10QtMobility26QMessageContentContainerIdEE18detach_helper_growEii.clean 0x000285c0   Section        8  QtMessaging.in(t._ZN5QListIN10QtMobility26QMessageContentContainerIdEE18detach_helper_growEii.clean)
    t._ZN5QListIN10QtMobility26QMessageContentContainerIdEE4freeEPN9QListData4DataE 0x000285c8   Section       44  QtMessaging.in(t._ZN5QListIN10QtMobility26QMessageContentContainerIdEE4freeEPN9QListData4DataE)
    t._ZN5QListIN10QtMobility26QMessageContentContainerIdEE6appendERKS1_ 0x000285f4   Section       96  QtMessaging.in(t._ZN5QListIN10QtMobility26QMessageContentContainerIdEE6appendERKS1_)
    t._ZN5QListIN10QtMobility26QMessageContentContainerIdEE6appendERKS1_.clean 0x00028654   Section        8  QtMessaging.in(t._ZN5QListIN10QtMobility26QMessageContentContainerIdEE6appendERKS1_.clean)
    t._ZN5QListIN10QtMobility26QMessageContentContainerIdEE9node_copyEPNS2_4NodeES4_S4_ 0x0002865c   Section       80  QtMessaging.in(t._ZN5QListIN10QtMobility26QMessageContentContainerIdEE9node_copyEPNS2_4NodeES4_S4_)
    t._ZN5QListIN10QtMobility26QMessageContentContainerIdEE9node_copyEPNS2_4NodeES4_S4_.clean 0x000286ac   Section       18  QtMessaging.in(t._ZN5QListIN10QtMobility26QMessageContentContainerIdEE9node_copyEPNS2_4NodeES4_S4_.clean)
    t._ZN5QListIN10QtMobility26QMessageContentContainerIdEED1Ev 0x000286be   Section       30  QtMessaging.in(t._ZN5QListIN10QtMobility26QMessageContentContainerIdEED1Ev)
    t._ZN5QListIN10QtMobility8QMessageEE13detach_helperEv 0x000286dc   Section       88  QtMessaging.in(t._ZN5QListIN10QtMobility8QMessageEE13detach_helperEv)
    t._ZN5QListIN10QtMobility8QMessageEE13detach_helperEv.clean 0x00028734   Section        8  QtMessaging.in(t._ZN5QListIN10QtMobility8QMessageEE13detach_helperEv.clean)
    t._ZN5QListIN10QtMobility8QMessageEE13node_destructEPNS2_4NodeES4_ 0x0002873c   Section       28  QtMessaging.in(t._ZN5QListIN10QtMobility8QMessageEE13node_destructEPNS2_4NodeES4_)
    t._ZN5QListIN10QtMobility8QMessageEE14node_constructEPNS2_4NodeERKS1_ 0x00028758   Section       32  QtMessaging.in(t._ZN5QListIN10QtMobility8QMessageEE14node_constructEPNS2_4NodeERKS1_)
    t._ZN5QListIN10QtMobility8QMessageEE14node_constructEPNS2_4NodeERKS1_.clean 0x00028778   Section       10  QtMessaging.in(t._ZN5QListIN10QtMobility8QMessageEE14node_constructEPNS2_4NodeERKS1_.clean)
    t._ZN5QListIN10QtMobility8QMessageEE18detach_helper_growEii 0x00028782   Section      180  QtMessaging.in(t._ZN5QListIN10QtMobility8QMessageEE18detach_helper_growEii)
    t._ZN5QListIN10QtMobility8QMessageEE18detach_helper_growEii.clean 0x00028836   Section        8  QtMessaging.in(t._ZN5QListIN10QtMobility8QMessageEE18detach_helper_growEii.clean)
    t._ZN5QListIN10QtMobility8QMessageEE4freeEPN9QListData4DataE 0x0002883e   Section       44  QtMessaging.in(t._ZN5QListIN10QtMobility8QMessageEE4freeEPN9QListData4DataE)
    t._ZN5QListIN10QtMobility8QMessageEE6appendERKS1_ 0x0002886c   Section       96  QtMessaging.in(t._ZN5QListIN10QtMobility8QMessageEE6appendERKS1_)
    t._ZN5QListIN10QtMobility8QMessageEE6appendERKS1_.clean 0x000288cc   Section        8  QtMessaging.in(t._ZN5QListIN10QtMobility8QMessageEE6appendERKS1_.clean)
    t._ZN5QListIN10QtMobility8QMessageEE6detachEv 0x000288d4   Section       24  QtMessaging.in(t._ZN5QListIN10QtMobility8QMessageEE6detachEv)
    t._ZN5QListIN10QtMobility8QMessageEE9node_copyEPNS2_4NodeES4_S4_ 0x000288ec   Section       78  QtMessaging.in(t._ZN5QListIN10QtMobility8QMessageEE9node_copyEPNS2_4NodeES4_S4_)
    t._ZN5QListIN10QtMobility8QMessageEE9node_copyEPNS2_4NodeES4_S4_.clean 0x0002893a   Section       18  QtMessaging.in(t._ZN5QListIN10QtMobility8QMessageEE9node_copyEPNS2_4NodeES4_S4_.clean)
    t._ZN5QListIN10QtMobility8QMessageEED1Ev 0x0002894c   Section       30  QtMessaging.in(t._ZN5QListIN10QtMobility8QMessageEED1Ev)
    t._ZN5QListIP10QTextCodecE13detach_helperEv 0x0002896a   Section       88  QtMessaging.in(t._ZN5QListIP10QTextCodecE13detach_helperEv)
    t._ZN5QListIP10QTextCodecE13detach_helperEv.clean 0x000289c2   Section        8  QtMessaging.in(t._ZN5QListIP10QTextCodecE13detach_helperEv.clean)
    t._ZN5QListIP10QTextCodecE18detach_helper_growEii 0x000289ca   Section      164  QtMessaging.in(t._ZN5QListIP10QTextCodecE18detach_helper_growEii)
    t._ZN5QListIP10QTextCodecE18detach_helper_growEii.clean 0x00028a6e   Section        8  QtMessaging.in(t._ZN5QListIP10QTextCodecE18detach_helper_growEii.clean)
    t._ZN5QListIP10QTextCodecE4freeEPN9QListData4DataE 0x00028a76   Section       16  QtMessaging.in(t._ZN5QListIP10QTextCodecE4freeEPN9QListData4DataE)
    t._ZN5QListIP10QTextCodecE5beginEv       0x00028a86   Section       34  QtMessaging.in(t._ZN5QListIP10QTextCodecE5beginEv)
    t._ZN5QListIP10QTextCodecE9node_copyEPNS2_4NodeES4_S4_ 0x00028aa8   Section       28  QtMessaging.in(t._ZN5QListIP10QTextCodecE9node_copyEPNS2_4NodeES4_S4_)
    t._ZN5QListIP10QTextCodecED1Ev           0x00028ac4   Section       30  QtMessaging.in(t._ZN5QListIP10QTextCodecED1Ev)
    t._ZN5QListIS_IN10QtMobility14QMessageFilterEEE13detach_helperEv 0x00028ae2   Section       88  QtMessaging.in(t._ZN5QListIS_IN10QtMobility14QMessageFilterEEE13detach_helperEv)
    t._ZN5QListIS_IN10QtMobility14QMessageFilterEEE13detach_helperEv.clean 0x00028b3a   Section        8  QtMessaging.in(t._ZN5QListIS_IN10QtMobility14QMessageFilterEEE13detach_helperEv.clean)
    t._ZN5QListIS_IN10QtMobility14QMessageFilterEEE13node_destructEPNS3_4NodeES5_ 0x00028b42   Section       30  QtMessaging.in(t._ZN5QListIS_IN10QtMobility14QMessageFilterEEE13node_destructEPNS3_4NodeES5_)
    t._ZN5QListIS_IN10QtMobility14QMessageFilterEEE14node_constructEPNS3_4NodeERKS2_ 0x00028b60   Section       32  QtMessaging.in(t._ZN5QListIS_IN10QtMobility14QMessageFilterEEE14node_constructEPNS3_4NodeERKS2_)
    t._ZN5QListIS_IN10QtMobility14QMessageFilterEEE14node_constructEPNS3_4NodeERKS2_.clean 0x00028b80   Section       10  QtMessaging.in(t._ZN5QListIS_IN10QtMobility14QMessageFilterEEE14node_constructEPNS3_4NodeERKS2_.clean)
    t._ZN5QListIS_IN10QtMobility14QMessageFilterEEE18detach_helper_growEii 0x00028b8a   Section      180  QtMessaging.in(t._ZN5QListIS_IN10QtMobility14QMessageFilterEEE18detach_helper_growEii)
    t._ZN5QListIS_IN10QtMobility14QMessageFilterEEE18detach_helper_growEii.clean 0x00028c3e   Section        8  QtMessaging.in(t._ZN5QListIS_IN10QtMobility14QMessageFilterEEE18detach_helper_growEii.clean)
    t._ZN5QListIS_IN10QtMobility14QMessageFilterEEE4freeEPN9QListData4DataE 0x00028c46   Section       44  QtMessaging.in(t._ZN5QListIS_IN10QtMobility14QMessageFilterEEE4freeEPN9QListData4DataE)
    t._ZN5QListIS_IN10QtMobility14QMessageFilterEEE6appendERKS2_ 0x00028c74   Section       96  QtMessaging.in(t._ZN5QListIS_IN10QtMobility14QMessageFilterEEE6appendERKS2_)
    t._ZN5QListIS_IN10QtMobility14QMessageFilterEEE6appendERKS2_.clean 0x00028cd4   Section        8  QtMessaging.in(t._ZN5QListIS_IN10QtMobility14QMessageFilterEEE6appendERKS2_.clean)
    t._ZN5QListIS_IN10QtMobility14QMessageFilterEEE9node_copyEPNS3_4NodeES5_S5_ 0x00028cdc   Section       80  QtMessaging.in(t._ZN5QListIS_IN10QtMobility14QMessageFilterEEE9node_copyEPNS3_4NodeES5_S5_)
    t._ZN5QListIS_IN10QtMobility14QMessageFilterEEE9node_copyEPNS3_4NodeES5_S5_.clean 0x00028d2c   Section       18  QtMessaging.in(t._ZN5QListIS_IN10QtMobility14QMessageFilterEEE9node_copyEPNS3_4NodeES5_S5_.clean)
    t._ZN5QListIS_IN10QtMobility14QMessageFilterEEEC1Ev 0x00028d40   Section       20  QtMessaging.in(t._ZN5QListIS_IN10QtMobility14QMessageFilterEEEC1Ev)
    t._ZN5QListIS_IN10QtMobility14QMessageFilterEEED1Ev 0x00028d54   Section       30  QtMessaging.in(t._ZN5QListIS_IN10QtMobility14QMessageFilterEEED1Ev)
    t._ZN5QListIS_IN10QtMobility14QMessageFilterEEEaSERKS3_ 0x00028d72   Section       54  QtMessaging.in(t._ZN5QListIS_IN10QtMobility14QMessageFilterEEEaSERKS3_)
    t._ZN5QListIS_IN10QtMobility14QMessageFilterEEEixEi 0x00028da8   Section       36  QtMessaging.in(t._ZN5QListIS_IN10QtMobility14QMessageFilterEEEixEi)
    t._ZN5QListIS_IN10QtMobility14QMessageFilterEEEpLERKS3_ 0x00028dcc   Section      136  QtMessaging.in(t._ZN5QListIS_IN10QtMobility14QMessageFilterEEEpLERKS3_)
    t._ZN5QListIS_IN10QtMobility14QMessageFilterEEEpLERKS3_.clean 0x00028e54   Section        8  QtMessaging.in(t._ZN5QListIS_IN10QtMobility14QMessageFilterEEEpLERKS3_.clean)
    t._ZN5QListIS_IN10QtMobility20QMessageFolderFilterEEE13detach_helperEv 0x00028e5c   Section       88  QtMessaging.in(t._ZN5QListIS_IN10QtMobility20QMessageFolderFilterEEE13detach_helperEv)
    t._ZN5QListIS_IN10QtMobility20QMessageFolderFilterEEE13detach_helperEv.clean 0x00028eb4   Section        8  QtMessaging.in(t._ZN5QListIS_IN10QtMobility20QMessageFolderFilterEEE13detach_helperEv.clean)
    t._ZN5QListIS_IN10QtMobility20QMessageFolderFilterEEE13node_destructEPNS3_4NodeES5_ 0x00028ebc   Section       30  QtMessaging.in(t._ZN5QListIS_IN10QtMobility20QMessageFolderFilterEEE13node_destructEPNS3_4NodeES5_)
    t._ZN5QListIS_IN10QtMobility20QMessageFolderFilterEEE14node_constructEPNS3_4NodeERKS2_ 0x00028eda   Section       32  QtMessaging.in(t._ZN5QListIS_IN10QtMobility20QMessageFolderFilterEEE14node_constructEPNS3_4NodeERKS2_)
    t._ZN5QListIS_IN10QtMobility20QMessageFolderFilterEEE14node_constructEPNS3_4NodeERKS2_.clean 0x00028efa   Section       10  QtMessaging.in(t._ZN5QListIS_IN10QtMobility20QMessageFolderFilterEEE14node_constructEPNS3_4NodeERKS2_.clean)
    t._ZN5QListIS_IN10QtMobility20QMessageFolderFilterEEE18detach_helper_growEii 0x00028f04   Section      180  QtMessaging.in(t._ZN5QListIS_IN10QtMobility20QMessageFolderFilterEEE18detach_helper_growEii)
    t._ZN5QListIS_IN10QtMobility20QMessageFolderFilterEEE18detach_helper_growEii.clean 0x00028fb8   Section        8  QtMessaging.in(t._ZN5QListIS_IN10QtMobility20QMessageFolderFilterEEE18detach_helper_growEii.clean)
    t._ZN5QListIS_IN10QtMobility20QMessageFolderFilterEEE4freeEPN9QListData4DataE 0x00028fc0   Section       38  QtMessaging.in(t._ZN5QListIS_IN10QtMobility20QMessageFolderFilterEEE4freeEPN9QListData4DataE)
    t._ZN5QListIS_IN10QtMobility20QMessageFolderFilterEEE6appendERKS2_ 0x00028fe8   Section       96  QtMessaging.in(t._ZN5QListIS_IN10QtMobility20QMessageFolderFilterEEE6appendERKS2_)
    t._ZN5QListIS_IN10QtMobility20QMessageFolderFilterEEE6appendERKS2_.clean 0x00029048   Section        8  QtMessaging.in(t._ZN5QListIS_IN10QtMobility20QMessageFolderFilterEEE6appendERKS2_.clean)
    t._ZN5QListIS_IN10QtMobility20QMessageFolderFilterEEE9node_copyEPNS3_4NodeES5_S5_ 0x00029050   Section       80  QtMessaging.in(t._ZN5QListIS_IN10QtMobility20QMessageFolderFilterEEE9node_copyEPNS3_4NodeES5_S5_)
    t._ZN5QListIS_IN10QtMobility20QMessageFolderFilterEEE9node_copyEPNS3_4NodeES5_S5_.clean 0x000290a0   Section       18  QtMessaging.in(t._ZN5QListIS_IN10QtMobility20QMessageFolderFilterEEE9node_copyEPNS3_4NodeES5_S5_.clean)
    t._ZN5QListIS_IN10QtMobility20QMessageFolderFilterEEEC1Ev 0x000290b4   Section       20  QtMessaging.in(t._ZN5QListIS_IN10QtMobility20QMessageFolderFilterEEEC1Ev)
    t._ZN5QListIS_IN10QtMobility20QMessageFolderFilterEEED1Ev 0x000290c8   Section       30  QtMessaging.in(t._ZN5QListIS_IN10QtMobility20QMessageFolderFilterEEED1Ev)
    t._ZN5QListIS_IN10QtMobility20QMessageFolderFilterEEEaSERKS3_ 0x000290e6   Section       54  QtMessaging.in(t._ZN5QListIS_IN10QtMobility20QMessageFolderFilterEEEaSERKS3_)
    t._ZN5QListIS_IN10QtMobility20QMessageFolderFilterEEEixEi 0x0002911c   Section       36  QtMessaging.in(t._ZN5QListIS_IN10QtMobility20QMessageFolderFilterEEEixEi)
    t._ZN5QListIS_IN10QtMobility20QMessageFolderFilterEEEpLERKS3_ 0x00029140   Section      136  QtMessaging.in(t._ZN5QListIS_IN10QtMobility20QMessageFolderFilterEEEpLERKS3_)
    t._ZN5QListIS_IN10QtMobility20QMessageFolderFilterEEEpLERKS3_.clean 0x000291c8   Section        8  QtMessaging.in(t._ZN5QListIS_IN10QtMobility20QMessageFolderFilterEEEpLERKS3_.clean)
    t._ZN5QListIS_IN10QtMobility21QMessageAccountFilterEEE13detach_helperEv 0x000291d0   Section       88  QtMessaging.in(t._ZN5QListIS_IN10QtMobility21QMessageAccountFilterEEE13detach_helperEv)
    t._ZN5QListIS_IN10QtMobility21QMessageAccountFilterEEE13detach_helperEv.clean 0x00029228   Section        8  QtMessaging.in(t._ZN5QListIS_IN10QtMobility21QMessageAccountFilterEEE13detach_helperEv.clean)
    t._ZN5QListIS_IN10QtMobility21QMessageAccountFilterEEE13node_destructEPNS3_4NodeES5_ 0x00029230   Section       30  QtMessaging.in(t._ZN5QListIS_IN10QtMobility21QMessageAccountFilterEEE13node_destructEPNS3_4NodeES5_)
    t._ZN5QListIS_IN10QtMobility21QMessageAccountFilterEEE14node_constructEPNS3_4NodeERKS2_ 0x0002924e   Section       32  QtMessaging.in(t._ZN5QListIS_IN10QtMobility21QMessageAccountFilterEEE14node_constructEPNS3_4NodeERKS2_)
    t._ZN5QListIS_IN10QtMobility21QMessageAccountFilterEEE14node_constructEPNS3_4NodeERKS2_.clean 0x0002926e   Section       10  QtMessaging.in(t._ZN5QListIS_IN10QtMobility21QMessageAccountFilterEEE14node_constructEPNS3_4NodeERKS2_.clean)
    t._ZN5QListIS_IN10QtMobility21QMessageAccountFilterEEE18detach_helper_growEii 0x00029278   Section      180  QtMessaging.in(t._ZN5QListIS_IN10QtMobility21QMessageAccountFilterEEE18detach_helper_growEii)
    t._ZN5QListIS_IN10QtMobility21QMessageAccountFilterEEE18detach_helper_growEii.clean 0x0002932c   Section        8  QtMessaging.in(t._ZN5QListIS_IN10QtMobility21QMessageAccountFilterEEE18detach_helper_growEii.clean)
    t._ZN5QListIS_IN10QtMobility21QMessageAccountFilterEEE4freeEPN9QListData4DataE 0x00029334   Section       38  QtMessaging.in(t._ZN5QListIS_IN10QtMobility21QMessageAccountFilterEEE4freeEPN9QListData4DataE)
    t._ZN5QListIS_IN10QtMobility21QMessageAccountFilterEEE6appendERKS2_ 0x0002935c   Section       96  QtMessaging.in(t._ZN5QListIS_IN10QtMobility21QMessageAccountFilterEEE6appendERKS2_)
    t._ZN5QListIS_IN10QtMobility21QMessageAccountFilterEEE6appendERKS2_.clean 0x000293bc   Section        8  QtMessaging.in(t._ZN5QListIS_IN10QtMobility21QMessageAccountFilterEEE6appendERKS2_.clean)
    t._ZN5QListIS_IN10QtMobility21QMessageAccountFilterEEE9node_copyEPNS3_4NodeES5_S5_ 0x000293c4   Section       80  QtMessaging.in(t._ZN5QListIS_IN10QtMobility21QMessageAccountFilterEEE9node_copyEPNS3_4NodeES5_S5_)
    t._ZN5QListIS_IN10QtMobility21QMessageAccountFilterEEE9node_copyEPNS3_4NodeES5_S5_.clean 0x00029414   Section       18  QtMessaging.in(t._ZN5QListIS_IN10QtMobility21QMessageAccountFilterEEE9node_copyEPNS3_4NodeES5_S5_.clean)
    t._ZN5QListIS_IN10QtMobility21QMessageAccountFilterEEEC1Ev 0x00029428   Section       20  QtMessaging.in(t._ZN5QListIS_IN10QtMobility21QMessageAccountFilterEEEC1Ev)
    t._ZN5QListIS_IN10QtMobility21QMessageAccountFilterEEED1Ev 0x0002943c   Section       30  QtMessaging.in(t._ZN5QListIS_IN10QtMobility21QMessageAccountFilterEEED1Ev)
    t._ZN5QListIS_IN10QtMobility21QMessageAccountFilterEEEaSERKS3_ 0x0002945a   Section       54  QtMessaging.in(t._ZN5QListIS_IN10QtMobility21QMessageAccountFilterEEEaSERKS3_)
    t._ZN5QListIS_IN10QtMobility21QMessageAccountFilterEEEixEi 0x00029490   Section       36  QtMessaging.in(t._ZN5QListIS_IN10QtMobility21QMessageAccountFilterEEEixEi)
    t._ZN5QListIS_IN10QtMobility21QMessageAccountFilterEEEpLERKS3_ 0x000294b4   Section      136  QtMessaging.in(t._ZN5QListIS_IN10QtMobility21QMessageAccountFilterEEEpLERKS3_)
    t._ZN5QListIS_IN10QtMobility21QMessageAccountFilterEEEpLERKS3_.clean 0x0002953c   Section        8  QtMessaging.in(t._ZN5QListIS_IN10QtMobility21QMessageAccountFilterEEEpLERKS3_.clean)
    t._ZN5TPckgI26TImImap4GetPartialMailInfoEC1ERKS0_ 0x00029544   Section       12  QtMessaging.in(t._ZN5TPckgI26TImImap4GetPartialMailInfoEC1ERKS0_)
    t._ZN6QCacheI7QStringN10QtMobility8QMessageEE4trimEi 0x00029550   Section       32  QtMessaging.in(t._ZN6QCacheI7QStringN10QtMobility8QMessageEE4trimEi)
    t._ZN6QCacheI7QStringN10QtMobility8QMessageEE5clearEv 0x00029570   Section      104  QtMessaging.in(t._ZN6QCacheI7QStringN10QtMobility8QMessageEE5clearEv)
    t._ZN6QCacheI7QStringN10QtMobility8QMessageEE5clearEv.clean 0x000295d8   Section       10  QtMessaging.in(t._ZN6QCacheI7QStringN10QtMobility8QMessageEE5clearEv.clean)
    t._ZN6QCacheI7QStringN10QtMobility8QMessageEE6insertERKS0_PS2_i 0x000295e2   Section      116  QtMessaging.in(t._ZN6QCacheI7QStringN10QtMobility8QMessageEE6insertERKS0_PS2_i)
    t._ZN6QCacheI7QStringN10QtMobility8QMessageEE6removeERKS0_ 0x00029656   Section       50  QtMessaging.in(t._ZN6QCacheI7QStringN10QtMobility8QMessageEE6removeERKS0_)
    t._ZN6QCacheI7QStringN10QtMobility8QMessageEE6unlinkERNS3_4NodeE 0x00029688   Section       72  QtMessaging.in(t._ZN6QCacheI7QStringN10QtMobility8QMessageEE6unlinkERNS3_4NodeE)
    t._ZN6QCacheI7QStringN10QtMobility8QMessageEED1Ev 0x000296d0   Section       20  QtMessaging.in(t._ZN6QCacheI7QStringN10QtMobility8QMessageEED1Ev)
    t._ZN6QCacheI7QStringN10QtMobility8QMessageEED1Ev.clean 0x000296e4   Section       10  QtMessaging.in(t._ZN6QCacheI7QStringN10QtMobility8QMessageEED1Ev.clean)
    t._ZN6RArrayI11TPopAccountEixEi          0x000296ee   Section        8  QtMessaging.in(t._ZN6RArrayI11TPopAccountEixEi)
    t._ZN6RArrayI12TImapAccountEixEi         0x000296f6   Section        8  QtMessaging.in(t._ZN6RArrayI12TImapAccountEixEi)
    t._ZN6RArrayI12TSmtpAccountEixEi         0x000296fe   Section        8  QtMessaging.in(t._ZN6RArrayI12TSmtpAccountEixEi)
    t._ZN8TPckgBufIiEC1Ev                    0x00029706   Section       26  QtMessaging.in(t._ZN8TPckgBufIiEC1Ev)
    t._ZN9CArrayFixIlE2AtEi                  0x00029720   Section        8  QtMessaging.in(t._ZN9CArrayFixIlE2AtEi)
    t._ZN9CArrayFixIlE7AppendLERKl           0x00029728   Section       12  QtMessaging.in(t._ZN9CArrayFixIlE7AppendLERKl)
    t._ZN9CArrayFixIlEixEi                   0x00029734   Section        8  QtMessaging.in(t._ZN9CArrayFixIlEixEi)
    t._ZN9QHashNodeI7QStringN10QtMobility15QMessageAccountEEC1ERKS0_RKS2_ 0x0002973c   Section       28  QtMessaging.in(t._ZN9QHashNodeI7QStringN10QtMobility15QMessageAccountEEC1ERKS0_RKS2_)
    t._ZN9QHashNodeI7QStringN10QtMobility15QMessageAccountEEC1ERKS0_RKS2_.clean 0x00029758   Section       12  QtMessaging.in(t._ZN9QHashNodeI7QStringN10QtMobility15QMessageAccountEEC1ERKS0_RKS2_.clean)
    t._ZN9QHashNodeI7QStringN6QCacheIS0_N10QtMobility8QMessageEE4NodeEEC1ERKS0_RKS5_ 0x00029764   Section       34  QtMessaging.in(t._ZN9QHashNodeI7QStringN6QCacheIS0_N10QtMobility8QMessageEE4NodeEEC1ERKS0_RKS5_)
    t._ZN9QMultiMapI10QByteArray7QStringE4findERKS0_ 0x00029786   Section       84  QtMessaging.in(t._ZN9QMultiMapI10QByteArray7QStringE4findERKS0_)
    t._ZNK13RPointerArrayI9CMsvEntryE5CountEv 0x000297da   Section        8  QtMessaging.in(t._ZNK13RPointerArrayI9CMsvEntryE5CountEv)
    t._ZNK17QForeachContainerI5QHashI7QStringN10QtMobility15QMessageAccountEEE9conditionEv 0x000297e2   Section       26  QtMessaging.in(t._ZNK17QForeachContainerI5QHashI7QStringN10QtMobility15QMessageAccountEEE9conditionEv)
    t._ZNK17QForeachContainerI5QListIN10QtMobility15QMessageAddressEEE9conditionEv 0x000297fc   Section       26  QtMessaging.in(t._ZNK17QForeachContainerI5QListIN10QtMobility15QMessageAddressEEE9conditionEv)
    t._ZNK17QForeachContainerI5QListIN10QtMobility17QMessageSortOrderEEE9conditionEv 0x00029816   Section       26  QtMessaging.in(t._ZNK17QForeachContainerI5QListIN10QtMobility17QMessageSortOrderEEE9conditionEv)
    t._ZNK17QForeachContainerI5QListIN10QtMobility24QMessageContentContainerEEE9conditionEv 0x00029830   Section       26  QtMessaging.in(t._ZNK17QForeachContainerI5QListIN10QtMobility24QMessageContentContainerEEE9conditionEv)
    t._ZNK17QForeachContainerI5QListIN10QtMobility26QMessageContentContainerIdEEE9conditionEv 0x0002984a   Section       26  QtMessaging.in(t._ZNK17QForeachContainerI5QListIN10QtMobility26QMessageContentContainerIdEEE9conditionEv)
    t._ZNK4QMapI10QByteArray7QStringE14const_iteratorneERKS3_ 0x00029864   Section       16  QtMessaging.in(t._ZNK4QMapI10QByteArray7QStringE14const_iteratorneERKS3_)
    t._ZNK4QMapI10QByteArray7QStringE4keysEv 0x00029874   Section       60  QtMessaging.in(t._ZNK4QMapI10QByteArray7QStringE4keysEv)
    t._ZNK4QMapI10QByteArray7QStringE4keysEv.clean 0x000298b0   Section       10  QtMessaging.in(t._ZNK4QMapI10QByteArray7QStringE4keysEv.clean)
    t._ZNK4QMapIlN19MMsvSessionObserver16TMsvSessionEventEE8containsERKl 0x000298ba   Section       90  QtMessaging.in(t._ZNK4QMapIlN19MMsvSessionObserver16TMsvSessionEventEE8containsERKl)
    t._ZNK5QHashI7QStringN10QtMobility15QMessageAccountEE4keysEv 0x00029914   Section       88  QtMessaging.in(t._ZNK5QHashI7QStringN10QtMobility15QMessageAccountEE4keysEv)
    t._ZNK5QHashI7QStringN10QtMobility15QMessageAccountEE4keysEv.clean 0x0002996c   Section       10  QtMessaging.in(t._ZNK5QHashI7QStringN10QtMobility15QMessageAccountEE4keysEv.clean)
    t._ZNK5QHashI7QStringN10QtMobility15QMessageAccountEE5beginEv 0x00029976   Section       28  QtMessaging.in(t._ZNK5QHashI7QStringN10QtMobility15QMessageAccountEE5beginEv)
    t._ZNK5QHashI7QStringN10QtMobility15QMessageAccountEE8containsERKS0_ 0x00029992   Section       26  QtMessaging.in(t._ZNK5QHashI7QStringN10QtMobility15QMessageAccountEE8containsERKS0_)
    t._ZNK5QHashI7QStringN10QtMobility15QMessageAccountEE8findNodeERKS0_Pj 0x000299ac   Section       90  QtMessaging.in(t._ZNK5QHashI7QStringN10QtMobility15QMessageAccountEE8findNodeERKS0_Pj)
    t._ZNK5QHashI7QStringN6QCacheIS0_N10QtMobility8QMessageEE4NodeEE14const_iteratoreqERKS7_ 0x00029a06   Section       16  QtMessaging.in(t._ZNK5QHashI7QStringN6QCacheIS0_N10QtMobility8QMessageEE4NodeEE14const_iteratoreqERKS7_)
    t._ZNK5QHashI7QStringN6QCacheIS0_N10QtMobility8QMessageEE4NodeEE4keysEv 0x00029a18   Section      116  QtMessaging.in(t._ZNK5QHashI7QStringN6QCacheIS0_N10QtMobility8QMessageEE4NodeEE4keysEv)
    t._ZNK5QHashI7QStringN6QCacheIS0_N10QtMobility8QMessageEE4NodeEE4keysEv.clean 0x00029a8c   Section       10  QtMessaging.in(t._ZNK5QHashI7QStringN6QCacheIS0_N10QtMobility8QMessageEE4NodeEE4keysEv.clean)
    t._ZNK5QHashI7QStringN6QCacheIS0_N10QtMobility8QMessageEE4NodeEE8findNodeERKS0_Pj 0x00029a96   Section       90  QtMessaging.in(t._ZNK5QHashI7QStringN6QCacheIS0_N10QtMobility8QMessageEE4NodeEE8findNodeERKS0_Pj)
    t._ZNK5QHashIi15QHashDummyValueE8findNodeERKiPj 0x00029af0   Section       50  QtMessaging.in(t._ZNK5QHashIi15QHashDummyValueE8findNodeERKiPj)
    t._ZNK5QListI5QPairIN10QtMobility24QMessageSortOrderPrivate5FieldEN2Qt9SortOrderEEEeqERKS7_ 0x00029b22   Section       90  QtMessaging.in(t._ZNK5QListI5QPairIN10QtMobility24QMessageSortOrderPrivate5FieldEN2Qt9SortOrderEEEeqERKS7_)
    t._ZNK5QListI5QPairIN10QtMobility30QMessageFolderSortOrderPrivate5FieldEN2Qt9SortOrderEEE7isEmptyEv 0x00029b7c   Section       18  QtMessaging.in(t._ZNK5QListI5QPairIN10QtMobility30QMessageFolderSortOrderPrivate5FieldEN2Qt9SortOrderEEE7isEmptyEv)
    t._ZNK5QListI5QPairIN10QtMobility30QMessageFolderSortOrderPrivate5FieldEN2Qt9SortOrderEEEeqERKS7_ 0x00029b8e   Section       90  QtMessaging.in(t._ZNK5QListI5QPairIN10QtMobility30QMessageFolderSortOrderPrivate5FieldEN2Qt9SortOrderEEEeqERKS7_)
    t._ZNK5QListIN10QtMobility10QMessageIdEE5countEv 0x00029be8   Section        8  QtMessaging.in(t._ZNK5QListIN10QtMobility10QMessageIdEE5countEv)
    t._ZNK5QListIN10QtMobility10QMessageIdEE8containsERKS1_ 0x00029bf0   Section       54  QtMessaging.in(t._ZNK5QListIN10QtMobility10QMessageIdEE8containsERKS1_)
    t._ZNK5QListIN10QtMobility11PendingSendEE5countEv 0x00029c26   Section        8  QtMessaging.in(t._ZNK5QListIN10QtMobility11PendingSendEE5countEv)
    t._ZNK5QListIN10QtMobility12MessageEventEE2atEi 0x00029c2e   Section       10  QtMessaging.in(t._ZNK5QListIN10QtMobility12MessageEventEE2atEi)
    t._ZNK5QListIN10QtMobility12MessageEventEE5countEv 0x00029c38   Section        8  QtMessaging.in(t._ZNK5QListIN10QtMobility12MessageEventEE5countEv)
    t._ZNK5QListIN10QtMobility14QMessageFilterEE5countEv 0x00029c40   Section        8  QtMessaging.in(t._ZNK5QListIN10QtMobility14QMessageFilterEE5countEv)
    t._ZNK5QListIN10QtMobility14QMessageFilterEEixEi 0x00029c48   Section       10  QtMessaging.in(t._ZNK5QListIN10QtMobility14QMessageFilterEEixEi)
    t._ZNK5QListIN10QtMobility15QMessageAddressEE2atEi 0x00029c52   Section       10  QtMessaging.in(t._ZNK5QListIN10QtMobility15QMessageAddressEE2atEi)
    t._ZNK5QListIN10QtMobility15QMessageAddressEE4sizeEv 0x00029c5c   Section        8  QtMessaging.in(t._ZNK5QListIN10QtMobility15QMessageAddressEE4sizeEv)
    t._ZNK5QListIN10QtMobility15QMessageAddressEE5countEv 0x00029c64   Section        8  QtMessaging.in(t._ZNK5QListIN10QtMobility15QMessageAddressEE5countEv)
    t._ZNK5QListIN10QtMobility15QMessageAddressEEplERKS2_ 0x00029c6c   Section       18  QtMessaging.in(t._ZNK5QListIN10QtMobility15QMessageAddressEEplERKS2_)
    t._ZNK5QListIN10QtMobility15QMessageAddressEEplERKS2_.clean 0x00029c7e   Section       10  QtMessaging.in(t._ZNK5QListIN10QtMobility15QMessageAddressEEplERKS2_.clean)
    t._ZNK5QListIN10QtMobility16MessageQueryInfoEE5countEv 0x00029c88   Section        8  QtMessaging.in(t._ZNK5QListIN10QtMobility16MessageQueryInfoEE5countEv)
    t._ZNK5QListIN10QtMobility16QMessageFolderIdEE5countEv 0x00029c90   Section        8  QtMessaging.in(t._ZNK5QListIN10QtMobility16QMessageFolderIdEE5countEv)
    t._ZNK5QListIN10QtMobility16QMessageFolderIdEE8containsERKS1_ 0x00029c98   Section       54  QtMessaging.in(t._ZNK5QListIN10QtMobility16QMessageFolderIdEE8containsERKS1_)
    t._ZNK5QListIN10QtMobility17QMessageAccountIdEE5countEv 0x00029cce   Section        8  QtMessaging.in(t._ZNK5QListIN10QtMobility17QMessageAccountIdEE5countEv)
    t._ZNK5QListIN10QtMobility17QMessageAccountIdEE8containsERKS1_ 0x00029cd6   Section       54  QtMessaging.in(t._ZNK5QListIN10QtMobility17QMessageAccountIdEE8containsERKS1_)
    t._ZNK5QListIN10QtMobility20QMessageFolderFilterEE5countEv 0x00029d0c   Section        8  QtMessaging.in(t._ZNK5QListIN10QtMobility20QMessageFolderFilterEE5countEv)
    t._ZNK5QListIN10QtMobility21QMessageAccountFilterEE5countEv 0x00029d14   Section        8  QtMessaging.in(t._ZNK5QListIN10QtMobility21QMessageAccountFilterEE5countEv)
    t._ZNK5QListIN10QtMobility24QMessageContentContainerEE5countEv 0x00029d1c   Section       10  QtMessaging.in(t._ZNK5QListIN10QtMobility24QMessageContentContainerEE5countEv)
    t._ZNK5QListIP10QTextCodecE7isEmptyEv    0x00029d26   Section       18  QtMessaging.in(t._ZNK5QListIP10QTextCodecE7isEmptyEv)
    t._ZNK5QListIS_IN10QtMobility14QMessageFilterEEE5countEv 0x00029d38   Section        8  QtMessaging.in(t._ZNK5QListIS_IN10QtMobility14QMessageFilterEEE5countEv)
    t._ZNK5QListIS_IN10QtMobility14QMessageFilterEEEixEi 0x00029d40   Section       10  QtMessaging.in(t._ZNK5QListIS_IN10QtMobility14QMessageFilterEEEixEi)
    t._ZNK5QListIS_IN10QtMobility20QMessageFolderFilterEEE5countEv 0x00029d4a   Section        8  QtMessaging.in(t._ZNK5QListIS_IN10QtMobility20QMessageFolderFilterEEE5countEv)
    t._ZNK5QListIS_IN10QtMobility20QMessageFolderFilterEEEixEi 0x00029d52   Section       10  QtMessaging.in(t._ZNK5QListIS_IN10QtMobility20QMessageFolderFilterEEEixEi)
    t._ZNK5QListIS_IN10QtMobility21QMessageAccountFilterEEE5countEv 0x00029d5c   Section        8  QtMessaging.in(t._ZNK5QListIS_IN10QtMobility21QMessageAccountFilterEEE5countEv)
    t._ZNK5QListIS_IN10QtMobility21QMessageAccountFilterEEEixEi 0x00029d64   Section       10  QtMessaging.in(t._ZNK5QListIS_IN10QtMobility21QMessageAccountFilterEEEixEi)
    t._ZNK6QCacheI7QStringN10QtMobility8QMessageEE6objectERKS0_ 0x00029d6e   Section       92  QtMessaging.in(t._ZNK6QCacheI7QStringN10QtMobility8QMessageEE6objectERKS0_)
    t._ZNK6QFlagsIN10QtMobility22QMessageDataComparator9MatchFlagEEanES2_ 0x00029dca   Section       12  QtMessaging.in(t._ZNK6QFlagsIN10QtMobility22QMessageDataComparator9MatchFlagEEanES2_)
    t._ZNK6QFlagsIN10QtMobility8QMessage4TypeEEanES2_ 0x00029dd6   Section       12  QtMessaging.in(t._ZNK6QFlagsIN10QtMobility8QMessage4TypeEEanES2_)
    t._ZNK6QFlagsIN10QtMobility8QMessage6StatusEEorES2_ 0x00029de2   Section       12  QtMessaging.in(t._ZNK6QFlagsIN10QtMobility8QMessage6StatusEEorES2_)
    .extab._Z24qMetaTypeConstructHelperIN10QtMobility10QMessageIdEEPvPKT_ 0x00029df0   Data           0  QtMessaging.in(.ARM.extab)
    .extab._ZN10QtMobility13qParseMailboxER7QStringS1_S1_S1_RbS2_ 0x00029e08   Data           0  QtMessaging.in(.ARM.extab)
    .extab._ZN10QtMobility15QMessageAddressC1Ev 0x00029e68   Data           0  QtMessaging.in(.ARM.extab)
    .extab._ZN10QtMobility15QMessageAddressC1ENS0_4TypeERK7QString 0x00029e78   Data           0  QtMessaging.in(.ARM.extab)
    .extab._ZN10QtMobility15QMessageAddressC1ERKS0_ 0x00029e88   Data           0  QtMessaging.in(.ARM.extab)
    .extab._ZN10QtMobility15QMessageAddress17parseEmailAddressERK7QStringPS1_S4_S4_PbS5_ 0x00029e98   Data           0  QtMessaging.in(.ARM.extab)
    .extab._ZN10QtMobility8QMessage19preferredCharsetForERK7QString 0x00029ed8   Data           0  QtMessaging.in(.ARM.extab)
    .extab.__sti___12_qmessage_cpp           0x00029f44   Data           0  QtMessaging.in(.ARM.extab)
    .extab._ZN5QListIP10QTextCodecE18detach_helper_growEii 0x00029f54   Data           0  QtMessaging.in(.ARM.extab)
    .extab._ZN6QDebugD1Ev                    0x00029f84   Data           0  QtMessaging.in(.ARM.extab)
    .extab._ZN5QListI10QByteArrayE13detach_helperEi 0x00029fa8   Data           0  QtMessaging.in(.ARM.extab)
    .extab._ZN5QListIP10QTextCodecE13detach_helperEv 0x00029fec   Data           0  QtMessaging.in(.ARM.extab)
    .extab._ZN10QtMobility15QMessageManagerC1EP7QObject 0x0002a008   Data           0  QtMessaging.in(.ARM.extab)
    .extab._ZNK10QtMobility15QMessageManager13queryMessagesERKNS_14QMessageFilterERK5QListINS_17QMessageSortOrderEEjj 0x0002a018   Data           0  QtMessaging.in(.ARM.extab)
    .extab._ZNK10QtMobility15QMessageManager13queryMessagesERKNS_14QMessageFilterERK7QString6QFlagsINS_22QMessageDataComparator9MatchFlagEERK5QListINS_17QMessageSortOrderEEjj 0x0002a038   Data           0  QtMessaging.in(.ARM.extab)
    .extab._ZNK10QtMobility15QMessageManager12queryFoldersERKNS_20QMessageFolderFilterERK5QListINS_23QMessageFolderSortOrderEEjj 0x0002a058   Data           0  QtMessaging.in(.ARM.extab)
    .extab._ZNK10QtMobility15QMessageManager13queryAccountsERKNS_21QMessageAccountFilterERK5QListINS_24QMessageAccountSortOrderEEjj 0x0002a080   Data           0  QtMessaging.in(.ARM.extab)
    .extab._Z24qMetaTypeConstructHelperI4QSetIiEEPvPKT_ 0x0002a090   Data           0  QtMessaging.in(.ARM.extab)
    .extab._ZN5QListIN10QtMobility17QMessageSortOrderEE13detach_helperEi 0x0002a0a8   Data           0  QtMessaging.in(.ARM.extab)
    .extab._Z20qForeachContainerNewI5QListIN10QtMobility17QMessageSortOrderEEE17QForeachContainerIT_ERKS5_ 0x0002a0ec   Data           0  QtMessaging.in(.ARM.extab)
    .extab._ZN5QListIN10QtMobility23QMessageFolderSortOrderEE13detach_helperEi 0x0002a0fc   Data           0  QtMessaging.in(.ARM.extab)
    .extab._ZN10QtMobility14SymbianHelpers6idTypeERK7QString 0x0002a140   Data           0  QtMessaging.in(.ARM.extab)
    .extab._ZN10QtMobility14SymbianHelpers6idTypeERKNS_10QMessageIdE 0x0002a158   Data           0  QtMessaging.in(.ARM.extab)
    .extab._ZN10QtMobility14SymbianHelpers6idTypeERKNS_17QMessageAccountIdE 0x0002a190   Data           0  QtMessaging.in(.ARM.extab)
    .extab._ZN10QtMobility14SymbianHelpers6idTypeERKNS_16QMessageFolderIdE 0x0002a1c8   Data           0  QtMessaging.in(.ARM.extab)
    .extab._ZN10QtMobility14SymbianHelpers11addIdPrefixERK7QStringRKNS0_10EngineTypeE 0x0002a200   Data           0  QtMessaging.in(.ARM.extab)
    .extab._ZN10QtMobility14SymbianHelpers11addIdPrefixERKNS_17QMessageAccountIdERKNS0_10EngineTypeE 0x0002a218   Data           0  QtMessaging.in(.ARM.extab)
    .extab._ZN10QtMobility14SymbianHelpers11addIdPrefixERKNS_16QMessageFolderIdERKNS0_10EngineTypeE 0x0002a270   Data           0  QtMessaging.in(.ARM.extab)
    .extab._ZN10QtMobility14SymbianHelpers11addIdPrefixERKNS_10QMessageIdERKNS0_10EngineTypeE 0x0002a2c8   Data           0  QtMessaging.in(.ARM.extab)
    .extab._ZN10QtMobility14SymbianHelpers13stripIdPrefixERK7QString 0x0002a300   Data           0  QtMessaging.in(.ARM.extab)
    .extab._ZN10QtMobility14SymbianHelpers13stripIdPrefixERKNS_10QMessageIdE 0x0002a328   Data           0  QtMessaging.in(.ARM.extab)
    .extab._ZN10QtMobility14SymbianHelpers13stripIdPrefixERKNS_17QMessageAccountIdE 0x0002a3d0   Data           0  QtMessaging.in(.ARM.extab)
    .extab._ZN10QtMobility14SymbianHelpers13stripIdPrefixERKNS_16QMessageFolderIdE 0x0002a478   Data           0  QtMessaging.in(.ARM.extab)
    .extab._ZN10QtMobility13MessagingUtil8idPrefixEv 0x0002a520   Data           0  QtMessaging.in(.ARM.extab)
    .extab._ZN10QtMobility13MessagingUtil11addIdPrefixERK7QString 0x0002a538   Data           0  QtMessaging.in(.ARM.extab)
    .extab._ZN10QtMobility13MessagingUtil13stripIdPrefixERK7QString 0x0002a558   Data           0  QtMessaging.in(.ARM.extab)
    .extab._ZplRK7QStringS1_                 0x0002a578   Data           0  QtMessaging.in(.ARM.extab)
    .extab._ZplPKcRK7QString                 0x0002a588   Data           0  QtMessaging.in(.ARM.extab)
    .extab._Z8qWarningv                      0x0002a598   Data           0  QtMessaging.in(.ARM.extab)
    .extab._ZN6QDebuglsEPKc                  0x0002a5b0   Data           0  QtMessaging.in(.ARM.extab)
    .extab._ZN10QtMobility10CMTMEngine17cleanupMTMBackendEv 0x0002a5c0   Data           0  QtMessaging.in(.ARM.extab)
    .extab._ZNK10QtMobility10CMTMEngine20updateEmailAccountsLEv 0x0002a5ec   Data           0  QtMessaging.in(.ARM.extab)
    .extab._ZN10QtMobility10CMTMEngineC1Ev   0x0002a7d4   Data           0  QtMessaging.in(.ARM.extab)
    .extab._ZN10QtMobility9mtmEngineEv       0x0002a954   Data           0  QtMessaging.in(.ARM.extab)
    .extab._ZN10QtMobility10CMTMEngineD1Ev   0x0002a96c   Data           0  QtMessaging.in(.ARM.extab)
    .extab._ZNK10QtMobility10CMTMEngine31applyOffsetAndLimitToAccountIdsER5QListINS_17QMessageAccountIdEEii 0x0002a9e4   Data           0  QtMessaging.in(.ARM.extab)
    .extab._ZNK10QtMobility10CMTMEngine7accountERKNS_17QMessageAccountIdE 0x0002a9f4   Data           0  QtMessaging.in(.ARM.extab)
    .extab._ZN10QtMobility10CMTMEngine15accountLessThanENS_17QMessageAccountIdES1_ 0x0002aa4c   Data           0  QtMessaging.in(.ARM.extab)
    .extab._ZNK10QtMobility10CMTMEngine13queryAccountsERKNS_21QMessageAccountFilterERKNS_24QMessageAccountSortOrderEjj 0x0002aa6c   Data           0  QtMessaging.in(.ARM.extab)
    .extab._ZNK10QtMobility10CMTMEngine13countAccountsERKNS_21QMessageAccountFilterE 0x0002ab2c   Data           0  QtMessaging.in(.ARM.extab)
    .extab._ZNK10QtMobility10CMTMEngine14defaultAccountENS_8QMessage4TypeE 0x0002ab4c   Data           0  QtMessaging.in(.ARM.extab)
    .extab._ZNK10QtMobility10CMTMEngine33applyOffsetAndLimitToMsgFolderIdsER5QListINS_16QMessageFolderIdEEii 0x0002ab94   Data           0  QtMessaging.in(.ARM.extab)
    .extab._ZNK10QtMobility10CMTMEngine20accountIdByServiceIdEl 0x0002aba4   Data           0  QtMessaging.in(.ARM.extab)
    .extab._ZNK10QtMobility10CMTMEngine38retrieveCMsvEntryAndPushToCleanupStackEl 0x0002abec   Data           0  QtMessaging.in(.ARM.extab)
    .extab._ZNK10QtMobility10CMTMEngine34serviceEntryIdFromQMessageFolderIdERKNS_16QMessageFolderIdE 0x0002ac34   Data           0  QtMessaging.in(.ARM.extab)
    .extab._ZNK10QtMobility10CMTMEngine28folderIdFromQMessageFolderIdERKNS_16QMessageFolderIdE 0x0002ac64   Data           0  QtMessaging.in(.ARM.extab)
    .extab._ZNK10QtMobility10CMTMEngine7folderLERKNS_16QMessageFolderIdE 0x0002ac94   Data           0  QtMessaging.in(.ARM.extab)
    .extab._ZNK10QtMobility10CMTMEngine6folderERKNS_16QMessageFolderIdE 0x0002acf4   Data           0  QtMessaging.in(.ARM.extab)
    .extab._ZN10QtMobility10CMTMEngine14folderLessThanENS_16QMessageFolderIdES1_ 0x0002ad2c   Data           0  QtMessaging.in(.ARM.extab)
    .extab._ZNK10QtMobility10CMTMEngine22createQMessageFolderIdERKlS2_ 0x0002ad4c   Data           0  QtMessaging.in(.ARM.extab)
    .extab._ZNK10QtMobility10CMTMEngine25folderIdsByServiceEntryIdERKlS2_ 0x0002addc   Data           0  QtMessaging.in(.ARM.extab)
    .extab._ZNK10QtMobility10CMTMEngine20folderIdsByAccountIdERKNS_17QMessageAccountIdE 0x0002ae7c   Data           0  QtMessaging.in(.ARM.extab)
    .extab._ZNK10QtMobility10CMTMEngine10allFoldersEv 0x0002aea4   Data           0  QtMessaging.in(.ARM.extab)
    .extab._ZNK10QtMobility10CMTMEngine21filterMessageFoldersLERKNS_20QMessageFolderFilterERb 0x0002af14   Data           0  QtMessaging.in(.ARM.extab)
    .extab._ZNK10QtMobility10CMTMEngine20filterMessageFoldersERKNS_20QMessageFolderFilterERb 0x0002b114   Data           0  QtMessaging.in(.ARM.extab)
    .extab._ZNK10QtMobility10CMTMEngine35handleNestedFiltersFromFolderFilterERNS_20QMessageFolderFilterE 0x0002b154   Data           0  QtMessaging.in(.ARM.extab)
    .extab._ZNK10QtMobility10CMTMEngine12queryFoldersERKNS_20QMessageFolderFilterERKNS_23QMessageFolderSortOrderEjj 0x0002b204   Data           0  QtMessaging.in(.ARM.extab)
    .extab._ZNK10QtMobility10CMTMEngine12countFoldersERKNS_20QMessageFolderFilterE 0x0002b264   Data           0  QtMessaging.in(.ARM.extab)
    .extab._ZN10QtMobility8QMTMWaitD1Ev      0x0002b284   Data           0  QtMessaging.in(.ARM.extab)
    .extab._ZN10QtMobility10CMTMEngine17privateFolderPathEv 0x0002b29c   Data           0  QtMessaging.in(.ARM.extab)
    .extab._ZN10QtMobility8QMTMWaitC1Ei      0x0002b2a8   Data           0  QtMessaging.in(.ARM.extab)
    .extab._ZN10QtMobility10CMTMEngine11storeEmailLERNS_8QMessageE 0x0002b2c0   Data           0  QtMessaging.in(.ARM.extab)
    .extab._ZN10QtMobility10CMTMEngine10storeEmailERNS_8QMessageE 0x0002b620   Data           0  QtMessaging.in(.ARM.extab)
    .extab._ZN10QtMobility10CMTMEngine9storeMMSLERNS_8QMessageE 0x0002b648   Data           0  QtMessaging.in(.ARM.extab)
    .extab._ZN10QtMobility10CMTMEngine8storeMMSERNS_8QMessageE 0x0002b874   Data           0  QtMessaging.in(.ARM.extab)
    .extab._ZN10QtMobility10CMTMEngine9storeSMSLERNS_8QMessageE 0x0002b89c   Data           0  QtMessaging.in(.ARM.extab)
    .extab._ZN10QtMobility10CMTMEngine8storeSMSERNS_8QMessageE 0x0002b974   Data           0  QtMessaging.in(.ARM.extab)
    .extab._ZN10QtMobility10CMTMEngine10addMessageEPNS_8QMessageE 0x0002b99c   Data           0  QtMessaging.in(.ARM.extab)
    .extab._ZN10QtMobility10CMTMEngine12updateEmailLERNS_8QMessageE 0x0002b9cc   Data           0  QtMessaging.in(.ARM.extab)
    .extab._ZN10QtMobility10CMTMEngine10updateMMSLERNS_8QMessageE 0x0002bd34   Data           0  QtMessaging.in(.ARM.extab)
    .extab._ZN10QtMobility10CMTMEngine10updateSMSLERNS_8QMessageE 0x0002bf60   Data           0  QtMessaging.in(.ARM.extab)
    .extab._ZN10QtMobility10CMTMEngine13updateMessageEPNS_8QMessageE 0x0002c030   Data           0  QtMessaging.in(.ARM.extab)
    .extab._ZN10QtMobility10CMTMEngine14removeMessageLERKNS_10QMessageIdENS_15QMessageManager13RemovalOptionE 0x0002c0b8   Data           0  QtMessaging.in(.ARM.extab)
    .extab._ZN10QtMobility10CMTMEngine13removeMessageERKNS_10QMessageIdENS_15QMessageManager13RemovalOptionE 0x0002c0e8   Data           0  QtMessaging.in(.ARM.extab)
    .extab._ZN10QtMobility22CMessagesFindOperation15getAllMessagesLE21TMsvSelectionOrdering 0x0002c110   Data           0  QtMessaging.in(.ARM.extab)
    .extab._ZNK10QtMobility10CMTMEngine14accountsByTypeENS_8QMessage4TypeE 0x0002c130   Data           0  QtMessaging.in(.ARM.extab)
    .extab._ZN10QtMobility22CMessagesFindOperation22filterAndOrderMessagesERK5QListINS_14QMessageFilterEERKNS_17QMessageSortOrderE7QString6QFlagsINS_22QMessageDataComparator9MatchFlagEE 0x0002c170   Data           0  QtMessaging.in(.ARM.extab)
    .extab._ZN10QtMobility22CMessagesFindOperation22filterAndOrderMessagesERKNS_14QMessageFilterERKNS_17QMessageSortOrderE7QString6QFlagsINS_22QMessageDataComparator9MatchFlagEE 0x0002c398   Data           0  QtMessaging.in(.ARM.extab)
    .extab._ZNK10QtMobility10CMTMEngine36handleNestedFiltersFromMessageFilterERNS_14QMessageFilterE 0x0002c3b0   Data           0  QtMessaging.in(.ARM.extab)
    .extab._ZN10QtMobility22CMessagesFindOperationC1ERNS_10CMTMEngineEP11CMsvSessioni 0x0002c508   Data           0  QtMessaging.in(.ARM.extab)
    .extab._ZNK10QtMobility10CMTMEngine14queryMessagesLERNS_22QMessageServicePrivateERKNS_14QMessageFilterERKNS_17QMessageSortOrderEjj 0x0002c528   Data           0  QtMessaging.in(.ARM.extab)
    .extab._ZNK10QtMobility10CMTMEngine13queryMessagesERNS_22QMessageServicePrivateERKNS_14QMessageFilterERKNS_17QMessageSortOrderEjj 0x0002c568   Data           0  QtMessaging.in(.ARM.extab)
    .extab._ZNK10QtMobility10CMTMEngine14queryMessagesLERNS_22QMessageServicePrivateERKNS_14QMessageFilterERK7QString6QFlagsINS_22QMessageDataComparator9MatchFlagEERKNS_17QMessageSortOrderEjj 0x0002c590   Data           0  QtMessaging.in(.ARM.extab)
    .extab._ZNK10QtMobility10CMTMEngine13queryMessagesERNS_22QMessageServicePrivateERKNS_14QMessageFilterERK7QString6QFlagsINS_22QMessageDataComparator9MatchFlagEERKNS_17QMessageSortOrderEjj 0x0002c5d0   Data           0  QtMessaging.in(.ARM.extab)
    .extab._ZN10QtMobility10CMTMEngine14countMessagesLERNS_22QMessageServicePrivateERKNS_14QMessageFilterE 0x0002c5f8   Data           0  QtMessaging.in(.ARM.extab)
    .extab._ZN10QtMobility10CMTMEngine13countMessagesERNS_22QMessageServicePrivateERKNS_14QMessageFilterE 0x0002c648   Data           0  QtMessaging.in(.ARM.extab)
    .extab._ZN10QtMobility10CMTMEngine12showMessageLERKNS_10QMessageIdE 0x0002c670   Data           0  QtMessaging.in(.ARM.extab)
    .extab._ZN10QtMobility10CMTMEngine11showMessageERKNS_10QMessageIdE 0x0002c698   Data           0  QtMessaging.in(.ARM.extab)
    .extab._ZN10QtMobility10CMTMEngine13composeEmailLERKNS_8QMessageE 0x0002c6c0   Data           0  QtMessaging.in(.ARM.extab)
    .extab._ZN10QtMobility10CMTMEngine11composeMMSLERKNS_8QMessageE 0x0002c848   Data           0  QtMessaging.in(.ARM.extab)
    .extab._ZN10QtMobility10CMTMEngine11composeSMSLERKNS_8QMessageE 0x0002c950   Data           0  QtMessaging.in(.ARM.extab)
    .extab._ZN10QtMobility10CMTMEngine14composeMessageERKNS_8QMessageE 0x0002c998   Data           0  QtMessaging.in(.ARM.extab)
    .extab._ZNK10QtMobility10CMTMEngine25appendAttachmentToMessageERNS_8QMessageERNS_24QMessageContentContainerE 0x0002ca80   Data           0  QtMessaging.in(.ARM.extab)
    .extab._ZNK10QtMobility10CMTMEngine13emailMessageLER9CMsvEntrylb 0x0002cb28   Data           0  QtMessaging.in(.ARM.extab)
    .extab._ZNK10QtMobility10CMTMEngine11mmsMessageLER9CMsvEntrylb 0x0002ce28   Data           0  QtMessaging.in(.ARM.extab)
    .extab._ZNK10QtMobility10CMTMEngine11smsMessageLER9CMsvEntrylb 0x0002d068   Data           0  QtMessaging.in(.ARM.extab)
    .extab._ZNK10QtMobility10CMTMEngine8messageLERKNS_10QMessageIdEb 0x0002d178   Data           0  QtMessaging.in(.ARM.extab)
    .extab._ZNK10QtMobility10CMTMEngine7messageERKNS_10QMessageIdE 0x0002d1f8   Data           0  QtMessaging.in(.ARM.extab)
    .extab._ZN10QtMobility10CMTMEngine8sendMMSLERNS_22QMessageServicePrivateERNS_8QMessageE 0x0002d248   Data           0  QtMessaging.in(.ARM.extab)
    .extab._ZN10QtMobility10CMTMEngine7sendMMSERNS_22QMessageServicePrivateERNS_8QMessageE 0x0002d288   Data           0  QtMessaging.in(.ARM.extab)
    .extab._ZN10QtMobility10CMTMEngine10sendEmailLERNS_22QMessageServicePrivateERNS_8QMessageE 0x0002d2d8   Data           0  QtMessaging.in(.ARM.extab)
    .extab._ZN10QtMobility10CMTMEngine9sendEmailERNS_22QMessageServicePrivateERNS_8QMessageE 0x0002d378   Data           0  QtMessaging.in(.ARM.extab)
    .extab._ZN10QtMobility10CMTMEngine8sendSMSLERNS_22QMessageServicePrivateERNS_8QMessageE 0x0002d3c8   Data           0  QtMessaging.in(.ARM.extab)
    .extab._ZN10QtMobility10CMTMEngine7sendSMSERNS_22QMessageServicePrivateERNS_8QMessageE 0x0002d408   Data           0  QtMessaging.in(.ARM.extab)
    .extab._ZN10QtMobility25CAsynchronousMTMOperation26retrieveMessageAttachmentsEl 0x0002d458   Data           0  QtMessaging.in(.ARM.extab)
    .extab._ZN10QtMobility25CAsynchronousMTMOperationC1ERNS_10CMTMEngineERNS_22QMessageServicePrivateEP8CBaseMtmli 0x0002d480   Data           0  QtMessaging.in(.ARM.extab)
    .extab._ZN10QtMobility10CMTMEngine30createAsynchronousMTMOperationERNS_22QMessageServicePrivateEP8CBaseMtml 0x0002d490   Data           0  QtMessaging.in(.ARM.extab)
    .extab._ZN10QtMobility10CMTMEngine9retrieveLERNS_22QMessageServicePrivateERKNS_10QMessageIdERKNS_26QMessageContentContainerIdE 0x0002d4a0   Data           0  QtMessaging.in(.ARM.extab)
    .extab._ZN10QtMobility10CMTMEngine8retrieveERNS_22QMessageServicePrivateERKNS_10QMessageIdERKNS_26QMessageContentContainerIdE 0x0002d4c0   Data           0  QtMessaging.in(.ARM.extab)
    .extab._ZN10QtMobility25CAsynchronousMTMOperation19retrieveMessageBodyEl 0x0002d4e8   Data           0  QtMessaging.in(.ARM.extab)
    .extab._ZN10QtMobility10CMTMEngine13retrieveBodyLERNS_22QMessageServicePrivateERKNS_10QMessageIdE 0x0002d510   Data           0  QtMessaging.in(.ARM.extab)
    .extab._ZN10QtMobility10CMTMEngine12retrieveBodyERNS_22QMessageServicePrivateERKNS_10QMessageIdE 0x0002d530   Data           0  QtMessaging.in(.ARM.extab)
    .extab._ZN10QtMobility25CAsynchronousMTMOperation21retrieveMessageHeaderEl 0x0002d558   Data           0  QtMessaging.in(.ARM.extab)
    .extab._ZN10QtMobility10CMTMEngine15retrieveHeaderLERNS_22QMessageServicePrivateERKNS_10QMessageIdE 0x0002d580   Data           0  QtMessaging.in(.ARM.extab)
    .extab._ZN10QtMobility10CMTMEngine14retrieveHeaderERNS_22QMessageServicePrivateERKNS_10QMessageIdE 0x0002d5a0   Data           0  QtMessaging.in(.ARM.extab)
    .extab._ZN10QtMobility25CAsynchronousMTMOperation10doFullSyncEv 0x0002d5c8   Data           0  QtMessaging.in(.ARM.extab)
    .extab._ZN10QtMobility10CMTMEngine14exportUpdatesLERNS_22QMessageServicePrivateERKNS_17QMessageAccountIdE 0x0002d5f0   Data           0  QtMessaging.in(.ARM.extab)
    .extab._ZN10QtMobility10CMTMEngine13exportUpdatesERNS_22QMessageServicePrivateERKNS_17QMessageAccountIdE 0x0002d600   Data           0  QtMessaging.in(.ARM.extab)
    .extab._ZN10QtMobility10CMTMEngine18attachmentContentLElj 0x0002d628   Data           0  QtMessaging.in(.ARM.extab)
    .extab._ZN10QtMobility10CMTMEngine17attachmentContentElj 0x0002d658   Data           0  QtMessaging.in(.ARM.extab)
    .extab._ZN10QtMobility10CMTMEngine21attachmentTextContentEljRK10QByteArray 0x0002d698   Data           0  QtMessaging.in(.ARM.extab)
    .extab._ZN10QtMobility10CMTMEngine32tryToDeliverMessageNotificationsEv 0x0002d6c8   Data           0  QtMessaging.in(.ARM.extab)
    .extab._ZN10QtMobility10CMTMEngine12notificationEN19MMsvSessionObserver16TMsvSessionEventE4TUidllP9CMsvEntry 0x0002d7d8   Data           0  QtMessaging.in(.ARM.extab)
    .extab._ZN10QtMobility10CMTMEngine33handleMessageSendingNotificationsEN19MMsvSessionObserver16TMsvSessionEventE4TUidllj 0x0002d940   Data           0  QtMessaging.in(.ARM.extab)
    .extab._ZNK10QtMobility10CMTMEngine13orderMessagesER5QListINS_10QMessageIdEERKNS_17QMessageSortOrderE 0x0002d990   Data           0  QtMessaging.in(.ARM.extab)
    .extab._ZN10QtMobility10CMTMEngine27filterAndOrderMessagesReadyEbi5QListINS_10QMessageIdEEib 0x0002d9c0   Data           0  QtMessaging.in(.ARM.extab)
    .extab._ZN10QtMobility10CMTMEngine20switchToMTMRootEntryENS0_7MTMTypeE 0x0002d9e0   Data           0  QtMessaging.in(.ARM.extab)
    .extab._ZN10QtMobility10CMTMEngine33checkIfWaitingDiscardClearMessageEl 0x0002da08   Data           0  QtMessaging.in(.ARM.extab)
    .extab._ZN10QtMobility10CMTMEngine19HandleSessionEventLEN19MMsvSessionObserver16TMsvSessionEventEPvS3_S3_ 0x0002da50   Data           0  QtMessaging.in(.ARM.extab)
    .extab._ZThn36_N10QtMobility10CMTMEngine19HandleSessionEventLEN19MMsvSessionObserver16TMsvSessionEventEPvS3_S3_ 0x0002da78   Data           0  QtMessaging.in(.ARM.extab)
    .extab._ZN10QtMobility22CMessagesFindOperationD1Ev 0x0002daa0   Data           0  QtMessaging.in(.ARM.extab)
    .extab._ZN10QtMobility22CMessagesFindOperation4RunLEv 0x0002dac0   Data           0  QtMessaging.in(.ARM.extab)
    .extab._ZN10QtMobility25CAsynchronousMTMOperationD1Ev 0x0002db20   Data           0  QtMessaging.in(.ARM.extab)
    .extab._ZN10QtMobility25CAsynchronousMTMOperation4RunLEv 0x0002db30   Data           0  QtMessaging.in(.ARM.extab)
    .extab._Z5qSwapIN10QtMobility17QMessageAccountIdEEvRT_S3_ 0x0002db60   Data           0  QtMessaging.in(.ARM.extab)
    .extab._ZN18QAlgorithmsPrivate11qSortHelperIN5QListIN10QtMobility17QMessageAccountIdEE8iteratorES3_PFbS3_S3_EEEvT_S8_RKT0_T1_ 0x0002db70   Data           0  QtMessaging.in(.ARM.extab)
    .extab._Z5qSwapIN10QtMobility16QMessageFolderIdEEvRT_S3_ 0x0002dc08   Data           0  QtMessaging.in(.ARM.extab)
    .extab._ZN18QAlgorithmsPrivate11qSortHelperIN5QListIN10QtMobility16QMessageFolderIdEE8iteratorES3_PFbS3_S3_EEEvT_S8_RKT0_T1_ 0x0002dc18   Data           0  QtMessaging.in(.ARM.extab)
    .extab._Z5qSwapIN10QtMobility8QMessageEEvRT_S3_ 0x0002dcb0   Data           0  QtMessaging.in(.ARM.extab)
    .extab._ZN9QHashNodeI7QStringN10QtMobility15QMessageAccountEEC1ERKS0_RKS2_ 0x0002dcc0   Data           0  QtMessaging.in(.ARM.extab)
    .extab._Z20qForeachContainerNewI5QHashI7QStringN10QtMobility15QMessageAccountEEE17QForeachContainerIT_ERKS6_ 0x0002dcd0   Data           0  QtMessaging.in(.ARM.extab)
    .extab._ZN5QListIN10QtMobility26QMessageContentContainerIdEE13detach_helperEi 0x0002dce0   Data           0  QtMessaging.in(.ARM.extab)
    .extab._Z5qSwapIN10QtMobility14QMessageFilterEEvRT_S3_ 0x0002dd24   Data           0  QtMessaging.in(.ARM.extab)
    .extab._ZN18QAlgorithmsPrivate11qSortHelperIN5QListIN10QtMobility14QMessageFilterEE8iteratorES3_PFbS3_S3_EEEvT_S8_RKT0_T1_ 0x0002dd34   Data           0  QtMessaging.in(.ARM.extab)
    .extab._Z5qSwapIN10QtMobility20QMessageFolderFilterEEvRT_S3_ 0x0002ddcc   Data           0  QtMessaging.in(.ARM.extab)
    .extab._ZN18QAlgorithmsPrivate11qSortHelperIN5QListIN10QtMobility20QMessageFolderFilterEE8iteratorES3_PFbS3_S3_EEEvT_S8_RKT0_T1_ 0x0002dddc   Data           0  QtMessaging.in(.ARM.extab)
    .extab._ZN5QListI7QStringE9node_copyEPNS1_4NodeES3_S3_ 0x0002de74   Data           0  QtMessaging.in(.ARM.extab)
    .extab._ZN5QListI7QStringE13detach_helperEi 0x0002de98   Data           0  QtMessaging.in(.ARM.extab)
    .extab._ZN5QListI7QStringE18detach_helper_growEii 0x0002deb4   Data           0  QtMessaging.in(.ARM.extab)
    .extab._ZN5QListI7QStringE6appendERKS0_  0x0002dee4   Data           0  QtMessaging.in(.ARM.extab)
    .extab._ZN4QSetIiE5clearEv               0x0002df14   Data           0  QtMessaging.in(.ARM.extab)
    .extab._ZN5QListIN10QtMobility14QMessageFilterEE9node_copyEPNS2_4NodeES4_S4_ 0x0002df24   Data           0  QtMessaging.in(.ARM.extab)
    .extab._ZN5QListIN10QtMobility14QMessageFilterEE13detach_helperEv 0x0002df48   Data           0  QtMessaging.in(.ARM.extab)
    .extab._ZN5QListIN10QtMobility14QMessageFilterEE14node_constructEPNS2_4NodeERKS1_ 0x0002df64   Data           0  QtMessaging.in(.ARM.extab)
    .extab._ZN5QListIN10QtMobility14QMessageFilterEE18detach_helper_growEii 0x0002df74   Data           0  QtMessaging.in(.ARM.extab)
    .extab._ZN5QListIN10QtMobility14QMessageFilterEE6appendERKS1_ 0x0002dfa4   Data           0  QtMessaging.in(.ARM.extab)
    .extab._ZN5QListIN10QtMobility8QMessageEE9node_copyEPNS2_4NodeES4_S4_ 0x0002dfd4   Data           0  QtMessaging.in(.ARM.extab)
    .extab._ZN5QListIN10QtMobility8QMessageEE14node_constructEPNS2_4NodeERKS1_ 0x0002dff8   Data           0  QtMessaging.in(.ARM.extab)
    .extab._ZN5QListIN10QtMobility8QMessageEE18detach_helper_growEii 0x0002e008   Data           0  QtMessaging.in(.ARM.extab)
    .extab._ZN5QListIN10QtMobility20QMessageFolderFilterEE9node_copyEPNS2_4NodeES4_S4_ 0x0002e038   Data           0  QtMessaging.in(.ARM.extab)
    .extab._ZN5QListIN10QtMobility20QMessageFolderFilterEE13detach_helperEv 0x0002e05c   Data           0  QtMessaging.in(.ARM.extab)
    .extab._ZN5QListIN10QtMobility20QMessageFolderFilterEE14node_constructEPNS2_4NodeERKS1_ 0x0002e078   Data           0  QtMessaging.in(.ARM.extab)
    .extab._ZN5QListIN10QtMobility20QMessageFolderFilterEE18detach_helper_growEii 0x0002e088   Data           0  QtMessaging.in(.ARM.extab)
    .extab._ZN5QListIN10QtMobility20QMessageFolderFilterEE6appendERKS1_ 0x0002e0b8   Data           0  QtMessaging.in(.ARM.extab)
    .extab._ZN5QListIN10QtMobility10QMessageIdEE9node_copyEPNS2_4NodeES4_S4_ 0x0002e0e8   Data           0  QtMessaging.in(.ARM.extab)
    .extab._ZN5QListIN10QtMobility10QMessageIdEE5clearEv 0x0002e10c   Data           0  QtMessaging.in(.ARM.extab)
    .extab._ZN5QListIN10QtMobility10QMessageIdEE14node_constructEPNS2_4NodeERKS1_ 0x0002e11c   Data           0  QtMessaging.in(.ARM.extab)
    .extab._ZN5QListIN10QtMobility10QMessageIdEE18detach_helper_growEii 0x0002e12c   Data           0  QtMessaging.in(.ARM.extab)
    .extab._ZN5QListIN10QtMobility10QMessageIdEE6appendERKS1_ 0x0002e15c   Data           0  QtMessaging.in(.ARM.extab)
    .extab._ZN5QListIS_IN10QtMobility14QMessageFilterEEE9node_copyEPNS3_4NodeES5_S5_ 0x0002e18c   Data           0  QtMessaging.in(.ARM.extab)
    .extab._ZN5QListIS_IN10QtMobility14QMessageFilterEEE14node_constructEPNS3_4NodeERKS2_ 0x0002e1b0   Data           0  QtMessaging.in(.ARM.extab)
    .extab._ZN5QListIS_IN10QtMobility14QMessageFilterEEE18detach_helper_growEii 0x0002e1c0   Data           0  QtMessaging.in(.ARM.extab)
    .extab._ZN5QListIS_IN10QtMobility14QMessageFilterEEE6appendERKS2_ 0x0002e1f0   Data           0  QtMessaging.in(.ARM.extab)
    .extab._ZN10QtMobility16MessageQueryInfoC1Ev 0x0002e220   Data           0  QtMessaging.in(.ARM.extab)
    .extab._ZN10QtMobility16MessageQueryInfoC1ERKS0_ 0x0002e240   Data           0  QtMessaging.in(.ARM.extab)
    .extab._ZN10QtMobility16MessageQueryInfoD1Ev 0x0002e260   Data           0  QtMessaging.in(.ARM.extab)
    .extab._ZN5QHashI7QStringN10QtMobility15QMessageAccountEE6removeERKS0_ 0x0002e280   Data           0  QtMessaging.in(.ARM.extab)
    .extab._ZN5QHashI7QStringN10QtMobility15QMessageAccountEE10createNodeEjRKS0_RKS2_PP9QHashNodeIS0_S2_E 0x0002e294   Data           0  QtMessaging.in(.ARM.extab)
    .extab._ZN5QListIN10QtMobility17QMessageAccountIdEE9node_copyEPNS2_4NodeES4_S4_ 0x0002e2a4   Data           0  QtMessaging.in(.ARM.extab)
    .extab._ZN5QListIN10QtMobility17QMessageAccountIdEE14node_constructEPNS2_4NodeERKS1_ 0x0002e2c8   Data           0  QtMessaging.in(.ARM.extab)
    .extab._ZN5QListIN10QtMobility17QMessageAccountIdEE18detach_helper_growEii 0x0002e2d8   Data           0  QtMessaging.in(.ARM.extab)
    .extab._ZN5QListIN10QtMobility17QMessageAccountIdEE6appendERKS1_ 0x0002e308   Data           0  QtMessaging.in(.ARM.extab)
    .extab._ZN5QListIN10QtMobility16QMessageFolderIdEE9node_copyEPNS2_4NodeES4_S4_ 0x0002e338   Data           0  QtMessaging.in(.ARM.extab)
    .extab._ZN5QListIN10QtMobility16QMessageFolderIdEE18detach_helper_growEii 0x0002e35c   Data           0  QtMessaging.in(.ARM.extab)
    .extab._ZN5QListIN10QtMobility16QMessageFolderIdEE14node_constructEPNS2_4NodeERKS1_ 0x0002e38c   Data           0  QtMessaging.in(.ARM.extab)
    .extab._ZN5QListIN10QtMobility16QMessageFolderIdEE6appendERKS1_ 0x0002e39c   Data           0  QtMessaging.in(.ARM.extab)
    .extab._ZN5QListIS_IN10QtMobility20QMessageFolderFilterEEE9node_copyEPNS3_4NodeES5_S5_ 0x0002e3cc   Data           0  QtMessaging.in(.ARM.extab)
    .extab._ZN5QListIS_IN10QtMobility20QMessageFolderFilterEEE14node_constructEPNS3_4NodeERKS2_ 0x0002e3f0   Data           0  QtMessaging.in(.ARM.extab)
    .extab._ZN5QListIS_IN10QtMobility20QMessageFolderFilterEEE18detach_helper_growEii 0x0002e400   Data           0  QtMessaging.in(.ARM.extab)
    .extab._ZN5QListIS_IN10QtMobility20QMessageFolderFilterEEE6appendERKS2_ 0x0002e430   Data           0  QtMessaging.in(.ARM.extab)
    .extab._ZN5QListIN10QtMobility15QMessageAddressEE9node_copyEPNS2_4NodeES4_S4_ 0x0002e460   Data           0  QtMessaging.in(.ARM.extab)
    .extab._ZN5QListIN10QtMobility16MessageQueryInfoEE9node_copyEPNS2_4NodeES4_S4_ 0x0002e484   Data           0  QtMessaging.in(.ARM.extab)
    .extab._ZN5QListIN10QtMobility16MessageQueryInfoEE14node_constructEPNS2_4NodeERKS1_ 0x0002e4a8   Data           0  QtMessaging.in(.ARM.extab)
    .extab._ZN5QListIN10QtMobility16MessageQueryInfoEE18detach_helper_growEii 0x0002e4b8   Data           0  QtMessaging.in(.ARM.extab)
    .extab._ZN5QListIN10QtMobility16MessageQueryInfoEE6appendERKS1_ 0x0002e4e8   Data           0  QtMessaging.in(.ARM.extab)
    .extab._ZN5QListIN10QtMobility15QMessageAddressEE14node_constructEPNS2_4NodeERKS1_ 0x0002e518   Data           0  QtMessaging.in(.ARM.extab)
    .extab._ZN5QListIN10QtMobility15QMessageAddressEE18detach_helper_growEii 0x0002e528   Data           0  QtMessaging.in(.ARM.extab)
    .extab._ZN5QListIN10QtMobility15QMessageAddressEE6appendERKS1_ 0x0002e558   Data           0  QtMessaging.in(.ARM.extab)
    .extab._ZN5QListIN10QtMobility11PendingSendEE18detach_helper_growEii 0x0002e588   Data           0  QtMessaging.in(.ARM.extab)
    .extab._ZN5QListIN10QtMobility11PendingSendEE6appendERKS1_ 0x0002e5b8   Data           0  QtMessaging.in(.ARM.extab)
    .extab._ZN4QMapIiN10QtMobility14QMessageFilterEE11node_createEP8QMapDataPPNS3_4NodeERKiRKS1_ 0x0002e5e8   Data           0  QtMessaging.in(.ARM.extab)
    .extab._ZN5QListIN10QtMobility12MessageEventEE9node_copyEPNS2_4NodeES4_S4_ 0x0002e620   Data           0  QtMessaging.in(.ARM.extab)
    .extab._ZN5QListIN10QtMobility12MessageEventEE14node_constructEPNS2_4NodeERKS1_ 0x0002e644   Data           0  QtMessaging.in(.ARM.extab)
    .extab._ZN5QListIN10QtMobility12MessageEventEE18detach_helper_growEii 0x0002e654   Data           0  QtMessaging.in(.ARM.extab)
    .extab._ZN5QListIN10QtMobility12MessageEventEE6appendERKS1_ 0x0002e684   Data           0  QtMessaging.in(.ARM.extab)
    .extab._ZN5QHashI7QStringN10QtMobility15QMessageAccountEE11deleteNode2EPN9QHashData4NodeE 0x0002e6b4   Data           0  QtMessaging.in(.ARM.extab)
    .extab._ZN5QHashI7QStringN10QtMobility15QMessageAccountEE13duplicateNodeEPN9QHashData4NodeEPv 0x0002e6c4   Data           0  QtMessaging.in(.ARM.extab)
    .extab._ZN5QListI7QStringE14node_constructEPNS1_4NodeERKS0_ 0x0002e6d4   Data           0  QtMessaging.in(.ARM.extab)
    .extab._ZN5CBasenwEj                     0x0002e6e4   Data           0  QtMessaging.in(.ARM.extab)
    .extab._ZN5QListIN10QtMobility8QMessageEE6appendERKS1_ 0x0002e6f4   Data           0  QtMessaging.in(.ARM.extab)
    .extab._ZN5QListIN10QtMobility10QMessageIdEEpLERKS2_ 0x0002e724   Data           0  QtMessaging.in(.ARM.extab)
    .extab._ZNK5QHashI7QStringN10QtMobility15QMessageAccountEE4keysEv 0x0002e740   Data           0  QtMessaging.in(.ARM.extab)
    .extab._ZN5QListIN10QtMobility16QMessageFolderIdEEpLERKS2_ 0x0002e750   Data           0  QtMessaging.in(.ARM.extab)
    .extab._ZN5QListIN10QtMobility8QMessageEE13detach_helperEv 0x0002e76c   Data           0  QtMessaging.in(.ARM.extab)
    .extab._ZN5QListIS_IN10QtMobility14QMessageFilterEEE13detach_helperEv 0x0002e788   Data           0  QtMessaging.in(.ARM.extab)
    .extab._ZN5QListIS_IN10QtMobility20QMessageFolderFilterEEE13detach_helperEv 0x0002e7a4   Data           0  QtMessaging.in(.ARM.extab)
    .extab._ZN5QListIN10QtMobility16MessageQueryInfoEE13detach_helperEv 0x0002e7c0   Data           0  QtMessaging.in(.ARM.extab)
    .extab._ZN5QListIN10QtMobility11PendingSendEE13detach_helperEv 0x0002e7dc   Data           0  QtMessaging.in(.ARM.extab)
    .extab._ZN4QMapIiN10QtMobility14QMessageFilterEE13detach_helperEv 0x0002e7f8   Data           0  QtMessaging.in(.ARM.extab)
    .extab._ZN5QListIN10QtMobility12MessageEventEE13detach_helperEv 0x0002e814   Data           0  QtMessaging.in(.ARM.extab)
    .extab._ZN4QMapIlN19MMsvSessionObserver16TMsvSessionEventEE13detach_helperEv 0x0002e830   Data           0  QtMessaging.in(.ARM.extab)
    .extab._ZN10QtMobility10QMessageIdaSERKS0_ 0x0002e84c   Data           0  QtMessaging.in(.ARM.extab)
    .extab._ZN10QtMobility10QMessageIdC1ERK7QString 0x0002e85c   Data           0  QtMessaging.in(.ARM.extab)
    .extab._ZNK10QtMobility10QMessageIdltERKS0_ 0x0002e86c   Data           0  QtMessaging.in(.ARM.extab)
    .extab._ZNK10QtMobility10QMessageId8toStringEv 0x0002e884   Data           0  QtMessaging.in(.ARM.extab)
    .extab._ZN10QtMobility5qHashERKNS_10QMessageIdE 0x0002e894   Data           0  QtMessaging.in(.ARM.extab)
    .extab._ZN10QtMobility26QMessageContentContainerIdC1Ev 0x0002e8a4   Data           0  QtMessaging.in(.ARM.extab)
    .extab._ZN10QtMobility26QMessageContentContainerIdC1ERKS0_ 0x0002e8b4   Data           0  QtMessaging.in(.ARM.extab)
    .extab._ZN10QtMobility26QMessageContentContainerIdC1ERK7QString 0x0002e8c4   Data           0  QtMessaging.in(.ARM.extab)
    .extab._ZN10QtMobility16QMessageFolderIdaSERKS0_ 0x0002e8dc   Data           0  QtMessaging.in(.ARM.extab)
    .extab._ZN10QtMobility16QMessageFolderIdC1ERK7QString 0x0002e8ec   Data           0  QtMessaging.in(.ARM.extab)
    .extab._ZNK10QtMobility16QMessageFolderIdltERKS0_ 0x0002e8fc   Data           0  QtMessaging.in(.ARM.extab)
    .extab._ZN10QtMobility5qHashERKNS_16QMessageFolderIdE 0x0002e91c   Data           0  QtMessaging.in(.ARM.extab)
    .extab._ZN10QtMobility17QMessageAccountIdaSERKS0_ 0x0002e92c   Data           0  QtMessaging.in(.ARM.extab)
    .extab._ZN10QtMobility17QMessageAccountIdC1ERK7QString 0x0002e93c   Data           0  QtMessaging.in(.ARM.extab)
    .extab._ZNK10QtMobility17QMessageAccountIdltERKS0_ 0x0002e94c   Data           0  QtMessaging.in(.ARM.extab)
    .extab._ZN10QtMobility5qHashERKNS_17QMessageAccountIdE 0x0002e964   Data           0  QtMessaging.in(.ARM.extab)
    .extab._ZN10QtMobility24QMessageContentContainerC1ERKS0_ 0x0002e974   Data           0  QtMessaging.in(.ARM.extab)
    .extab._ZN10QtMobility24QMessageContentContainerC1Ev 0x0002e984   Data           0  QtMessaging.in(.ARM.extab)
    .extab._ZNK10QtMobility24QMessageContentContainer11textContentEv 0x0002e994   Data           0  QtMessaging.in(.ARM.extab)
    .extab._ZNK10QtMobility24QMessageContentContainer7contentEv 0x0002e9ac   Data           0  QtMessaging.in(.ARM.extab)
    .extab._ZNK10QtMobility24QMessageContentContainer16writeTextContentER11QTextStream 0x0002e9bc   Data           0  QtMessaging.in(.ARM.extab)
    .extab._ZNK10QtMobility24QMessageContentContainer12writeContentER11QDataStream 0x0002e9cc   Data           0  QtMessaging.in(.ARM.extab)
    .extab._ZNK10QtMobility24QMessageContentContainer10contentIdsEv 0x0002e9e4   Data           0  QtMessaging.in(.ARM.extab)
    .extab._ZN10QtMobility31QMessageContentContainerPrivate13bodyContentIdEv 0x0002ea04   Data           0  QtMessaging.in(.ARM.extab)
    .extab._ZN10QtMobility31QMessageContentContainerPrivate10attachmentERKNS_26QMessageContentContainerIdE 0x0002ea24   Data           0  QtMessaging.in(.ARM.extab)
    .extab._ZNK10QtMobility24QMessageContentContainer17headerFieldValuesERK10QByteArray 0x0002ea44   Data           0  QtMessaging.in(.ARM.extab)
    .extab._ZN10QtMobility31QMessageContentContainerPrivate13clearContentsEv 0x0002ea54   Data           0  QtMessaging.in(.ARM.extab)
    .extab._ZNK10QtMobility31QMessageContentContainerPrivate10attachmentERKNS_26QMessageContentContainerIdE 0x0002eaa4   Data           0  QtMessaging.in(.ARM.extab)
    .extab._ZN10QtMobility31QMessageContentContainerPrivate14setHeaderFieldERK10QByteArrayS3_ 0x0002eac4   Data           0  QtMessaging.in(.ARM.extab)
    .extab._ZN10QtMobility31QMessageContentContainerPrivate16createAttachmentERK7QString 0x0002ead4   Data           0  QtMessaging.in(.ARM.extab)
    .extab._ZN10QtMobility31QMessageContentContainerPrivate13appendContentERNS_24QMessageContentContainerE 0x0002ebec   Data           0  QtMessaging.in(.ARM.extab)
    .extab._ZN10QtMobility31QMessageContentContainerPrivate14prependContentERNS_24QMessageContentContainerE 0x0002ec1c   Data           0  QtMessaging.in(.ARM.extab)
    .extab._ZN10QtMobility31QMessageContentContainerPrivate4fromEljR10QByteArrayS2_S2_i 0x0002ec74   Data           0  QtMessaging.in(.ARM.extab)
    .extab._ZN4QMapI10QByteArray7QStringE11node_createEP8QMapDataPPNS3_4NodeERKS0_RKS1_ 0x0002ec84   Data           0  QtMessaging.in(.ARM.extab)
    .extab._ZN4QMapI10QByteArray7QStringE13detach_helperEv 0x0002ecd0   Data           0  QtMessaging.in(.ARM.extab)
    .extab._ZN10QtMobility31QMessageContentContainerPrivateC1EPNS_24QMessageContentContainerE 0x0002ecec   Data           0  QtMessaging.in(.ARM.extab)
    .extab._ZN5QListIN10QtMobility24QMessageContentContainerEE9node_copyEPNS2_4NodeES4_S4_ 0x0002ed44   Data           0  QtMessaging.in(.ARM.extab)
    .extab._Z20qForeachContainerNewI5QListIN10QtMobility24QMessageContentContainerEEE17QForeachContainerIT_ERKS5_ 0x0002ed68   Data           0  QtMessaging.in(.ARM.extab)
    .extab._ZN5QListIN10QtMobility26QMessageContentContainerIdEE14node_constructEPNS2_4NodeERKS1_ 0x0002ed78   Data           0  QtMessaging.in(.ARM.extab)
    .extab._ZN5QListIN10QtMobility26QMessageContentContainerIdEE9node_copyEPNS2_4NodeES4_S4_ 0x0002ed88   Data           0  QtMessaging.in(.ARM.extab)
    .extab._ZN5QListIN10QtMobility26QMessageContentContainerIdEE18detach_helper_growEii 0x0002edac   Data           0  QtMessaging.in(.ARM.extab)
    .extab._ZN5QListI10QByteArrayE9node_copyEPNS1_4NodeES3_S3_ 0x0002eddc   Data           0  QtMessaging.in(.ARM.extab)
    .extab._ZN5QListI10QByteArrayE18detach_helper_growEii 0x0002ee00   Data           0  QtMessaging.in(.ARM.extab)
    .extab._ZN5QListIN10QtMobility24QMessageContentContainerEE14node_constructEPNS2_4NodeERKS1_ 0x0002ee30   Data           0  QtMessaging.in(.ARM.extab)
    .extab._ZN5QListIN10QtMobility24QMessageContentContainerEE18detach_helper_growEii 0x0002ee40   Data           0  QtMessaging.in(.ARM.extab)
    .extab._ZN5QListIN10QtMobility26QMessageContentContainerIdEE6appendERKS1_ 0x0002ee70   Data           0  QtMessaging.in(.ARM.extab)
    .extab._ZN10QtMobility31QMessageContentContainerPrivateD1Ev 0x0002eea0   Data           0  QtMessaging.in(.ARM.extab)
    .extab._ZNK4QMapI10QByteArray7QStringE4keysEv 0x0002eef8   Data           0  QtMessaging.in(.ARM.extab)
    .extab._ZN5QListIN10QtMobility24QMessageContentContainerEE6appendERKS1_ 0x0002ef08   Data           0  QtMessaging.in(.ARM.extab)
    .extab._ZN5QListI10QByteArrayE7reserveEi 0x0002ef38   Data           0  QtMessaging.in(.ARM.extab)
    .extab._ZN5QListI10QByteArrayE6appendERKS0_ 0x0002ef54   Data           0  QtMessaging.in(.ARM.extab)
    .extab._ZN5QListI10QByteArrayE14node_constructEPNS1_4NodeERKS0_ 0x0002ef84   Data           0  QtMessaging.in(.ARM.extab)
    .extab._ZN10QtMobility15QMessagePrivateC1EPNS_8QMessageE 0x0002ef94   Data           0  QtMessaging.in(.ARM.extab)
    .extab._ZN10QtMobility8QMessageC1Ev      0x0002effc   Data           0  QtMessaging.in(.ARM.extab)
    .extab._ZN10QtMobility15QMessagePrivateD1Ev 0x0002f014   Data           0  QtMessaging.in(.ARM.extab)
    .extab._ZN10QtMobility8QMessageD1Ev      0x0002f07c   Data           0  QtMessaging.in(.ARM.extab)
    .extab._ZN10QtMobility8QMessageC1ERKNS_10QMessageIdE 0x0002f08c   Data           0  QtMessaging.in(.ARM.extab)
    .extab._ZN10QtMobility8QMessageC1ERKS0_  0x0002f0c4   Data           0  QtMessaging.in(.ARM.extab)
    .extab._ZNK10QtMobility8QMessage4sizeEv  0x0002f0dc   Data           0  QtMessaging.in(.ARM.extab)
    .extab._ZN10QtMobility8QMessage7setBodyERK7QStringRK10QByteArray 0x0002f0f4   Data           0  QtMessaging.in(.ARM.extab)
    .extab._ZN10QtMobility8QMessage7setBodyER11QTextStreamRK10QByteArray 0x0002f264   Data           0  QtMessaging.in(.ARM.extab)
    .extab._ZNK10QtMobility8QMessage13attachmentIdsEv 0x0002f274   Data           0  QtMessaging.in(.ARM.extab)
    .extab._ZN10QtMobility8QMessage17appendAttachmentsERK11QStringList 0x0002f2c4   Data           0  QtMessaging.in(.ARM.extab)
    .extab._ZNK10QtMobility8QMessage21createResponseMessageENS0_12ResponseTypeE 0x0002f38c   Data           0  QtMessaging.in(.ARM.extab)
    .extab._ZN5QListIN10QtMobility24QMessageContentContainerEE13detach_helperEi 0x0002f5ac   Data           0  QtMessaging.in(.ARM.extab)
    .extab._Z20qForeachContainerNewI5QListIN10QtMobility26QMessageContentContainerIdEEE17QForeachContainerIT_ERKS5_ 0x0002f5f0   Data           0  QtMessaging.in(.ARM.extab)
    .extab._Z20qForeachContainerNewI5QListIN10QtMobility15QMessageAddressEEE17QForeachContainerIT_ERKS5_ 0x0002f600   Data           0  QtMessaging.in(.ARM.extab)
    .extab._ZN5QListIN10QtMobility26QMessageContentContainerIdEE13detach_helperEv 0x0002f610   Data           0  QtMessaging.in(.ARM.extab)
    .extab._ZN5QListIN10QtMobility24QMessageContentContainerEE5clearEv 0x0002f62c   Data           0  QtMessaging.in(.ARM.extab)
    .extab._ZN10QtMobility14QMessageFolderC1Ev 0x0002f63c   Data           0  QtMessaging.in(.ARM.extab)
    .extab._ZN10QtMobility14QMessageFolderD1Ev 0x0002f64c   Data           0  QtMessaging.in(.ARM.extab)
    .extab._ZN10QtMobility14QMessageFolderC1ERKNS_16QMessageFolderIdE 0x0002f674   Data           0  QtMessaging.in(.ARM.extab)
    .extab._ZN10QtMobility14QMessageFolderC1ERKS0_ 0x0002f69c   Data           0  QtMessaging.in(.ARM.extab)
    .extab._ZN10QtMobility21QMessageFolderPrivate4fromERKNS_16QMessageFolderIdERKNS_17QMessageAccountIdES3_RK7QStringS9_ 0x0002f6ac   Data           0  QtMessaging.in(.ARM.extab)
    .extab._ZN10QtMobility21QMessageFolderPrivateC1EPNS_14QMessageFolderE 0x0002f6bc   Data           0  QtMessaging.in(.ARM.extab)
    .extab._ZN10QtMobility15QMessageAccountC1Ev 0x0002f6e4   Data           0  QtMessaging.in(.ARM.extab)
    .extab._ZN10QtMobility15QMessageAccountD1Ev 0x0002f6f4   Data           0  QtMessaging.in(.ARM.extab)
    .extab._ZN10QtMobility15QMessageAccountC1ERKNS_17QMessageAccountIdE 0x0002f704   Data           0  QtMessaging.in(.ARM.extab)
    .extab._ZN10QtMobility15QMessageAccountC1ERKS0_ 0x0002f72c   Data           0  QtMessaging.in(.ARM.extab)
    .extab._ZN10QtMobility22QMessageAccountPrivate4fromERKNS_17QMessageAccountIdERK7QStringllRK6QFlagsINS_8QMessage4TypeEE 0x0002f73c   Data           0  QtMessaging.in(.ARM.extab)
    .extab._ZN10QtMobility22QMessageAccountPrivateC1EPNS_15QMessageAccountE 0x0002f74c   Data           0  QtMessaging.in(.ARM.extab)
    .extab._ZN10QtMobility28QMessageAccountFilterPrivateD1Ev 0x0002f75c   Data           0  QtMessaging.in(.ARM.extab)
    .extab._ZN10QtMobility28QMessageAccountFilterPrivateC1EPNS_21QMessageAccountFilterE 0x0002f774   Data           0  QtMessaging.in(.ARM.extab)
    .extab._ZN10QtMobility21QMessageAccountFilterC1ERKS0_ 0x0002f78c   Data           0  QtMessaging.in(.ARM.extab)
    .extab._ZN10QtMobility21QMessageAccountFilterC1Ev 0x0002f79c   Data           0  QtMessaging.in(.ARM.extab)
    .extab._ZN10QtMobility21QMessageAccountFilteraNERKS0_ 0x0002f7bc   Data           0  QtMessaging.in(.ARM.extab)
    .extab._ZN10QtMobility21QMessageAccountFilteroRERKS0_ 0x0002f82c   Data           0  QtMessaging.in(.ARM.extab)
    .extab._ZN10QtMobility28QMessageAccountFilterPrivate26changeANDsAndORsToOppositeERNS_21QMessageAccountFilterE 0x0002f864   Data           0  QtMessaging.in(.ARM.extab)
    .extab._ZNK10QtMobility21QMessageAccountFiltercoEv 0x0002f8ac   Data           0  QtMessaging.in(.ARM.extab)
    .extab._ZNK10QtMobility21QMessageAccountFilteranERKS0_ 0x0002f8bc   Data           0  QtMessaging.in(.ARM.extab)
    .extab._ZNK10QtMobility21QMessageAccountFilterorERKS0_ 0x0002f8cc   Data           0  QtMessaging.in(.ARM.extab)
    .extab._ZN10QtMobility21QMessageAccountFilter4byIdERKNS_17QMessageAccountIdENS_22QMessageDataComparator18EqualityComparatorE 0x0002f8dc   Data           0  QtMessaging.in(.ARM.extab)
    .extab._ZN10QtMobility21QMessageAccountFilter4byIdERK5QListINS_17QMessageAccountIdEENS_22QMessageDataComparator19InclusionComparatorE 0x0002f90c   Data           0  QtMessaging.in(.ARM.extab)
    .extab._ZN10QtMobility21QMessageAccountFilter4byIdERKS0_NS_22QMessageDataComparator19InclusionComparatorE 0x0002f91c   Data           0  QtMessaging.in(.ARM.extab)
    .extab._ZN10QtMobility21QMessageAccountFilter6byNameERK7QStringNS_22QMessageDataComparator18EqualityComparatorE 0x0002f93c   Data           0  QtMessaging.in(.ARM.extab)
    .extab._ZN10QtMobility21QMessageAccountFilter6byNameERK7QStringNS_22QMessageDataComparator19InclusionComparatorE 0x0002f95c   Data           0  QtMessaging.in(.ARM.extab)
    .extab._ZN10QtMobility28QMessageAccountFilterPrivate6filterERKNS_15QMessageAccountERKS0_ 0x0002f97c   Data           0  QtMessaging.in(.ARM.extab)
    .extab._ZN5QListIN10QtMobility21QMessageAccountFilterEE9node_copyEPNS2_4NodeES4_S4_ 0x0002fa44   Data           0  QtMessaging.in(.ARM.extab)
    .extab._ZN5QListIN10QtMobility21QMessageAccountFilterEE13detach_helperEv 0x0002fa68   Data           0  QtMessaging.in(.ARM.extab)
    .extab._ZN5QListIS_IN10QtMobility21QMessageAccountFilterEEE9node_copyEPNS3_4NodeES5_S5_ 0x0002fa84   Data           0  QtMessaging.in(.ARM.extab)
    .extab._ZN5QListIS_IN10QtMobility21QMessageAccountFilterEEE13detach_helperEv 0x0002faa8   Data           0  QtMessaging.in(.ARM.extab)
    .extab._ZN5QListIN10QtMobility17QMessageAccountIdEE13detach_helperEi 0x0002fac4   Data           0  QtMessaging.in(.ARM.extab)
    .extab._Z5qSwapIN10QtMobility21QMessageAccountFilterEEvRT_S3_ 0x0002fb08   Data           0  QtMessaging.in(.ARM.extab)
    .extab._ZN18QAlgorithmsPrivate11qSortHelperIN5QListIN10QtMobility21QMessageAccountFilterEE8iteratorES3_PFbS3_S3_EEEvT_S8_RKT0_T1_ 0x0002fb18   Data           0  QtMessaging.in(.ARM.extab)
    .extab._ZN5QListIN10QtMobility21QMessageAccountFilterEE14node_constructEPNS2_4NodeERKS1_ 0x0002fbb0   Data           0  QtMessaging.in(.ARM.extab)
    .extab._ZN5QListIN10QtMobility21QMessageAccountFilterEE18detach_helper_growEii 0x0002fbc0   Data           0  QtMessaging.in(.ARM.extab)
    .extab._ZN5QListIN10QtMobility21QMessageAccountFilterEEpLERKS2_ 0x0002fbf0   Data           0  QtMessaging.in(.ARM.extab)
    .extab._ZN5QListIS_IN10QtMobility21QMessageAccountFilterEEE14node_constructEPNS3_4NodeERKS2_ 0x0002fc0c   Data           0  QtMessaging.in(.ARM.extab)
    .extab._ZN5QListIS_IN10QtMobility21QMessageAccountFilterEEE18detach_helper_growEii 0x0002fc1c   Data           0  QtMessaging.in(.ARM.extab)
    .extab._ZN5QListIS_IN10QtMobility21QMessageAccountFilterEEE6appendERKS2_ 0x0002fc4c   Data           0  QtMessaging.in(.ARM.extab)
    .extab._ZN5QListIS_IN10QtMobility21QMessageAccountFilterEEEpLERKS3_ 0x0002fc7c   Data           0  QtMessaging.in(.ARM.extab)
    .extab._ZN5QListIN10QtMobility21QMessageAccountFilterEE6appendERKS1_ 0x0002fc98   Data           0  QtMessaging.in(.ARM.extab)
    .extab._ZN10QtMobility31QMessageAccountSortOrderPrivate8lessThanERKNS_24QMessageAccountSortOrderERKNS_15QMessageAccountES6_ 0x0002fcc8   Data           0  QtMessaging.in(.ARM.extab)
    .extab._ZN10QtMobility27QMessageFolderFilterPrivateD1Ev 0x0002fd00   Data           0  QtMessaging.in(.ARM.extab)
    .extab._ZN10QtMobility27QMessageFolderFilterPrivateC1EPNS_20QMessageFolderFilterE 0x0002fd18   Data           0  QtMessaging.in(.ARM.extab)
    .extab._ZN10QtMobility20QMessageFolderFilterC1ERKS0_ 0x0002fd30   Data           0  QtMessaging.in(.ARM.extab)
    .extab._ZN10QtMobility20QMessageFolderFilteraSERKS0_ 0x0002fd40   Data           0  QtMessaging.in(.ARM.extab)
    .extab._ZN10QtMobility20QMessageFolderFilterC1Ev 0x0002fd50   Data           0  QtMessaging.in(.ARM.extab)
    .extab._ZN10QtMobility20QMessageFolderFilteraNERKS0_ 0x0002fd70   Data           0  QtMessaging.in(.ARM.extab)
    .extab._ZN10QtMobility20QMessageFolderFilteroRERKS0_ 0x0002fde0   Data           0  QtMessaging.in(.ARM.extab)
    .extab._ZN10QtMobility27QMessageFolderFilterPrivate26changeANDsAndORsToOppositeERNS_20QMessageFolderFilterE 0x0002fe18   Data           0  QtMessaging.in(.ARM.extab)
    .extab._ZNK10QtMobility20QMessageFolderFiltercoEv 0x0002fe60   Data           0  QtMessaging.in(.ARM.extab)
    .extab._ZNK10QtMobility20QMessageFolderFilteranERKS0_ 0x0002fe70   Data           0  QtMessaging.in(.ARM.extab)
    .extab._ZNK10QtMobility20QMessageFolderFilterorERKS0_ 0x0002fe80   Data           0  QtMessaging.in(.ARM.extab)
    .extab._ZN10QtMobility20QMessageFolderFilter4byIdERKNS_16QMessageFolderIdENS_22QMessageDataComparator18EqualityComparatorE 0x0002fe90   Data           0  QtMessaging.in(.ARM.extab)
    .extab._ZN10QtMobility20QMessageFolderFilter4byIdERK5QListINS_16QMessageFolderIdEENS_22QMessageDataComparator19InclusionComparatorE 0x0002fec0   Data           0  QtMessaging.in(.ARM.extab)
    .extab._ZN10QtMobility20QMessageFolderFilter4byIdERKS0_NS_22QMessageDataComparator19InclusionComparatorE 0x0002fed0   Data           0  QtMessaging.in(.ARM.extab)
    .extab._ZN10QtMobility20QMessageFolderFilter6byNameERK7QStringNS_22QMessageDataComparator18EqualityComparatorE 0x0002fef0   Data           0  QtMessaging.in(.ARM.extab)
    .extab._ZN10QtMobility20QMessageFolderFilter6byNameERK7QStringNS_22QMessageDataComparator19InclusionComparatorE 0x0002ff10   Data           0  QtMessaging.in(.ARM.extab)
    .extab._ZN10QtMobility20QMessageFolderFilter6byPathERK7QStringNS_22QMessageDataComparator18EqualityComparatorE 0x0002ff30   Data           0  QtMessaging.in(.ARM.extab)
    .extab._ZN10QtMobility20QMessageFolderFilter6byPathERK7QStringNS_22QMessageDataComparator19InclusionComparatorE 0x0002ff50   Data           0  QtMessaging.in(.ARM.extab)
    .extab._ZN10QtMobility20QMessageFolderFilter17byParentAccountIdERKNS_17QMessageAccountIdENS_22QMessageDataComparator18EqualityComparatorE 0x0002ff70   Data           0  QtMessaging.in(.ARM.extab)
    .extab._ZN10QtMobility20QMessageFolderFilter17byParentAccountIdERKNS_21QMessageAccountFilterENS_22QMessageDataComparator19InclusionComparatorE 0x0002ffa0   Data           0  QtMessaging.in(.ARM.extab)
    .extab._ZN10QtMobility27QMessageFolderFilterPrivate6filterERKNS_14QMessageFolderERKS0_ 0x0002ffb0   Data           0  QtMessaging.in(.ARM.extab)
    .extab._ZN5QListIN10QtMobility16QMessageFolderIdEE13detach_helperEi 0x000301c8   Data           0  QtMessaging.in(.ARM.extab)
    .extab._ZN5QListIN10QtMobility20QMessageFolderFilterEEpLERKS2_ 0x0003020c   Data           0  QtMessaging.in(.ARM.extab)
    .extab._ZN5QListIS_IN10QtMobility20QMessageFolderFilterEEEpLERKS3_ 0x00030228   Data           0  QtMessaging.in(.ARM.extab)
    .extab._ZN10QtMobility23QMessageFolderSortOrderC1Ev 0x00030244   Data           0  QtMessaging.in(.ARM.extab)
    .extab._ZN10QtMobility23QMessageFolderSortOrderC1ERKS0_ 0x00030254   Data           0  QtMessaging.in(.ARM.extab)
    .extab._ZNK10QtMobility23QMessageFolderSortOrderplERKS0_ 0x00030264   Data           0  QtMessaging.in(.ARM.extab)
    .extab._ZN10QtMobility23QMessageFolderSortOrder6byNameEN2Qt9SortOrderE 0x0003028c   Data           0  QtMessaging.in(.ARM.extab)
    .extab._ZN10QtMobility23QMessageFolderSortOrder6byPathEN2Qt9SortOrderE 0x0003029c   Data           0  QtMessaging.in(.ARM.extab)
    .extab._ZN10QtMobility30QMessageFolderSortOrderPrivate8lessThanERKNS_23QMessageFolderSortOrderERKNS_14QMessageFolderES6_ 0x000302ac   Data           0  QtMessaging.in(.ARM.extab)
    .extab._ZN5QListI5QPairIN10QtMobility30QMessageFolderSortOrderPrivate5FieldEN2Qt9SortOrderEEE13detach_helperEv 0x00030314   Data           0  QtMessaging.in(.ARM.extab)
    .extab._ZN5QListI5QPairIN10QtMobility30QMessageFolderSortOrderPrivate5FieldEN2Qt9SortOrderEEE18detach_helper_growEii 0x00030330   Data           0  QtMessaging.in(.ARM.extab)
    .extab._ZN5QListI5QPairIN10QtMobility30QMessageFolderSortOrderPrivate5FieldEN2Qt9SortOrderEEEpLERKS7_ 0x00030360   Data           0  QtMessaging.in(.ARM.extab)
    .extab._ZN5QListI5QPairIN10QtMobility30QMessageFolderSortOrderPrivate5FieldEN2Qt9SortOrderEEE6appendERKS6_ 0x0003037c   Data           0  QtMessaging.in(.ARM.extab)
    .extab._ZN10QtMobility21QMessageFilterPrivateD1Ev 0x000303ac   Data           0  QtMessaging.in(.ARM.extab)
    .extab._ZN10QtMobility21QMessageFilterPrivateC1EPNS_14QMessageFilterE 0x000303c4   Data           0  QtMessaging.in(.ARM.extab)
    .extab._ZN10QtMobility14QMessageFilterC1ERKS0_ 0x000303dc   Data           0  QtMessaging.in(.ARM.extab)
    .extab._ZN10QtMobility14QMessageFilteraSERKS0_ 0x000303ec   Data           0  QtMessaging.in(.ARM.extab)
    .extab._ZN10QtMobility14QMessageFilterC1Ev 0x00030404   Data           0  QtMessaging.in(.ARM.extab)
    .extab._ZN10QtMobility14QMessageFilteraNERKS0_ 0x00030424   Data           0  QtMessaging.in(.ARM.extab)
    .extab._ZN10QtMobility14QMessageFilteroRERKS0_ 0x00030494   Data           0  QtMessaging.in(.ARM.extab)
    .extab._ZN10QtMobility21QMessageFilterPrivate26changeANDsAndORsToOppositeERNS_14QMessageFilterE 0x000304cc   Data           0  QtMessaging.in(.ARM.extab)
    .extab._ZNK10QtMobility14QMessageFiltercoEv 0x00030514   Data           0  QtMessaging.in(.ARM.extab)
    .extab._ZNK10QtMobility14QMessageFilteranERKS0_ 0x00030524   Data           0  QtMessaging.in(.ARM.extab)
    .extab._ZNK10QtMobility14QMessageFilterorERKS0_ 0x00030534   Data           0  QtMessaging.in(.ARM.extab)
    .extab._ZN10QtMobility14QMessageFilter4byIdERKNS_10QMessageIdENS_22QMessageDataComparator18EqualityComparatorE 0x00030544   Data           0  QtMessaging.in(.ARM.extab)
    .extab._ZN10QtMobility14QMessageFilter4byIdERK5QListINS_10QMessageIdEENS_22QMessageDataComparator19InclusionComparatorE 0x00030574   Data           0  QtMessaging.in(.ARM.extab)
    .extab._ZN10QtMobility14QMessageFilter4byIdERKS0_NS_22QMessageDataComparator19InclusionComparatorE 0x00030584   Data           0  QtMessaging.in(.ARM.extab)
    .extab._ZN10QtMobility14QMessageFilter6byTypeENS_8QMessage4TypeENS_22QMessageDataComparator18EqualityComparatorE 0x000305a4   Data           0  QtMessaging.in(.ARM.extab)
    .extab._ZN10QtMobility14QMessageFilter6byTypeE6QFlagsINS_8QMessage4TypeEENS_22QMessageDataComparator19InclusionComparatorE 0x000305c4   Data           0  QtMessaging.in(.ARM.extab)
    .extab._ZN10QtMobility14QMessageFilter8bySenderERK7QStringNS_22QMessageDataComparator18EqualityComparatorE 0x000305e4   Data           0  QtMessaging.in(.ARM.extab)
    .extab._ZN10QtMobility14QMessageFilter8bySenderERK7QStringNS_22QMessageDataComparator19InclusionComparatorE 0x00030604   Data           0  QtMessaging.in(.ARM.extab)
    .extab._ZN10QtMobility14QMessageFilter12byRecipientsERK7QStringNS_22QMessageDataComparator19InclusionComparatorE 0x00030624   Data           0  QtMessaging.in(.ARM.extab)
    .extab._ZN10QtMobility14QMessageFilter9bySubjectERK7QStringNS_22QMessageDataComparator18EqualityComparatorE 0x00030644   Data           0  QtMessaging.in(.ARM.extab)
    .extab._ZN10QtMobility14QMessageFilter9bySubjectERK7QStringNS_22QMessageDataComparator19InclusionComparatorE 0x00030664   Data           0  QtMessaging.in(.ARM.extab)
    .extab._ZN10QtMobility14QMessageFilter11byTimeStampERK9QDateTimeNS_22QMessageDataComparator18EqualityComparatorE 0x00030684   Data           0  QtMessaging.in(.ARM.extab)
    .extab._ZN10QtMobility14QMessageFilter11byTimeStampERK9QDateTimeNS_22QMessageDataComparator18RelationComparatorE 0x000306a4   Data           0  QtMessaging.in(.ARM.extab)
    .extab._ZN10QtMobility14QMessageFilter20byReceptionTimeStampERK9QDateTimeNS_22QMessageDataComparator18EqualityComparatorE 0x000306c4   Data           0  QtMessaging.in(.ARM.extab)
    .extab._ZN10QtMobility14QMessageFilter20byReceptionTimeStampERK9QDateTimeNS_22QMessageDataComparator18RelationComparatorE 0x000306e4   Data           0  QtMessaging.in(.ARM.extab)
    .extab._ZN10QtMobility14QMessageFilter8byStatusENS_8QMessage6StatusENS_22QMessageDataComparator18EqualityComparatorE 0x00030704   Data           0  QtMessaging.in(.ARM.extab)
    .extab._ZN10QtMobility14QMessageFilter8byStatusE6QFlagsINS_8QMessage6StatusEENS_22QMessageDataComparator19InclusionComparatorE 0x00030724   Data           0  QtMessaging.in(.ARM.extab)
    .extab._ZN10QtMobility14QMessageFilter10byPriorityENS_8QMessage8PriorityENS_22QMessageDataComparator18EqualityComparatorE 0x00030744   Data           0  QtMessaging.in(.ARM.extab)
    .extab._ZN10QtMobility14QMessageFilter6bySizeEiNS_22QMessageDataComparator18EqualityComparatorE 0x00030764   Data           0  QtMessaging.in(.ARM.extab)
    .extab._ZN10QtMobility14QMessageFilter6bySizeEiNS_22QMessageDataComparator18RelationComparatorE 0x00030784   Data           0  QtMessaging.in(.ARM.extab)
    .extab._ZN10QtMobility14QMessageFilter17byParentAccountIdERKNS_17QMessageAccountIdENS_22QMessageDataComparator18EqualityComparatorE 0x000307a4   Data           0  QtMessaging.in(.ARM.extab)
    .extab._ZN10QtMobility14QMessageFilter17byParentAccountIdERKNS_21QMessageAccountFilterENS_22QMessageDataComparator19InclusionComparatorE 0x000307d4   Data           0  QtMessaging.in(.ARM.extab)
    .extab._ZN10QtMobility14QMessageFilter16byStandardFolderENS_8QMessage14StandardFolderENS_22QMessageDataComparator18EqualityComparatorE 0x000307e4   Data           0  QtMessaging.in(.ARM.extab)
    .extab._ZN10QtMobility14QMessageFilter16byParentFolderIdERKNS_16QMessageFolderIdENS_22QMessageDataComparator18EqualityComparatorE 0x00030804   Data           0  QtMessaging.in(.ARM.extab)
    .extab._ZN10QtMobility14QMessageFilter16byParentFolderIdERKNS_20QMessageFolderFilterENS_22QMessageDataComparator19InclusionComparatorE 0x00030834   Data           0  QtMessaging.in(.ARM.extab)
    .extab._ZN10QtMobility21QMessageFilterPrivate6filterERKNS_8QMessageERKS0_ 0x00030844   Data           0  QtMessaging.in(.ARM.extab)
    .extab._ZN5QListIN10QtMobility10QMessageIdEE13detach_helperEi 0x00030bf4   Data           0  QtMessaging.in(.ARM.extab)
    .extab._ZN5QListIN10QtMobility14QMessageFilterEEpLERKS2_ 0x00030c38   Data           0  QtMessaging.in(.ARM.extab)
    .extab._ZN5QListIN10QtMobility15QMessageAddressEE13detach_helperEi 0x00030c54   Data           0  QtMessaging.in(.ARM.extab)
    .extab._ZN5QListIS_IN10QtMobility14QMessageFilterEEEpLERKS3_ 0x00030c98   Data           0  QtMessaging.in(.ARM.extab)
    .extab._ZN10QtMobility17QMessageSortOrderC1Ev 0x00030cb4   Data           0  QtMessaging.in(.ARM.extab)
    .extab._ZN10QtMobility17QMessageSortOrderC1ERKS0_ 0x00030cc4   Data           0  QtMessaging.in(.ARM.extab)
    .extab._ZNK10QtMobility17QMessageSortOrderplERKS0_ 0x00030cd4   Data           0  QtMessaging.in(.ARM.extab)
    .extab._ZN10QtMobility24QMessageSortOrderPrivate4fromENS0_5FieldEN2Qt9SortOrderE 0x00030cfc   Data           0  QtMessaging.in(.ARM.extab)
    .extab._ZN10QtMobility17QMessageSortOrder6byTypeEN2Qt9SortOrderE 0x00030d0c   Data           0  QtMessaging.in(.ARM.extab)
    .extab._ZN10QtMobility17QMessageSortOrder8bySenderEN2Qt9SortOrderE 0x00030d1c   Data           0  QtMessaging.in(.ARM.extab)
    .extab._ZN10QtMobility17QMessageSortOrder12byRecipientsEN2Qt9SortOrderE 0x00030d2c   Data           0  QtMessaging.in(.ARM.extab)
    .extab._ZN10QtMobility17QMessageSortOrder9bySubjectEN2Qt9SortOrderE 0x00030d3c   Data           0  QtMessaging.in(.ARM.extab)
    .extab._ZN10QtMobility17QMessageSortOrder11byTimeStampEN2Qt9SortOrderE 0x00030d4c   Data           0  QtMessaging.in(.ARM.extab)
    .extab._ZN10QtMobility17QMessageSortOrder20byReceptionTimeStampEN2Qt9SortOrderE 0x00030d5c   Data           0  QtMessaging.in(.ARM.extab)
    .extab._ZN10QtMobility17QMessageSortOrder8byStatusENS_8QMessage6StatusEN2Qt9SortOrderE 0x00030d6c   Data           0  QtMessaging.in(.ARM.extab)
    .extab._ZN10QtMobility17QMessageSortOrder10byPriorityEN2Qt9SortOrderE 0x00030db4   Data           0  QtMessaging.in(.ARM.extab)
    .extab._ZN10QtMobility17QMessageSortOrder6bySizeEN2Qt9SortOrderE 0x00030dc4   Data           0  QtMessaging.in(.ARM.extab)
    .extab._ZN10QtMobility24QMessageSortOrderPrivate8lessThanERKNS_17QMessageSortOrderERKNS_8QMessageES6_ 0x00030dd4   Data           0  QtMessaging.in(.ARM.extab)
    .extab._ZplRK7QStringPKc                 0x00030fec   Data           0  QtMessaging.in(.ARM.extab)
    .extab._ZN5QListI5QPairIN10QtMobility24QMessageSortOrderPrivate5FieldEN2Qt9SortOrderEEE13detach_helperEv 0x0003100c   Data           0  QtMessaging.in(.ARM.extab)
    .extab._ZN5QListI5QPairIN10QtMobility24QMessageSortOrderPrivate5FieldEN2Qt9SortOrderEEE18detach_helper_growEii 0x00031028   Data           0  QtMessaging.in(.ARM.extab)
    .extab._ZN5QListI5QPairIN10QtMobility24QMessageSortOrderPrivate5FieldEN2Qt9SortOrderEEEpLERKS7_ 0x00031058   Data           0  QtMessaging.in(.ARM.extab)
    .extab._ZN5QListIN10QtMobility15QMessageAddressEEpLERKS2_ 0x00031074   Data           0  QtMessaging.in(.ARM.extab)
    .extab._ZN5QListI5QPairIN10QtMobility24QMessageSortOrderPrivate5FieldEN2Qt9SortOrderEEE6appendERKS6_ 0x00031090   Data           0  QtMessaging.in(.ARM.extab)
    .extab._ZNK5QListIN10QtMobility15QMessageAddressEEplERKS2_ 0x000310c0   Data           0  QtMessaging.in(.ARM.extab)
    .extab._ZN10QtMobility20QMessageStorePrivateC1Ev 0x000310d0   Data           0  QtMessaging.in(.ARM.extab)
    .extab._ZN10QtMobility19messageStorePrivateEv 0x000310e8   Data           0  QtMessaging.in(.ARM.extab)
    .extab._ZNK10QtMobility20QMessageStorePrivate13queryMessagesERKNS_14QMessageFilterERKNS_17QMessageSortOrderEjj 0x00031100   Data           0  QtMessaging.in(.ARM.extab)
    .extab._ZNK10QtMobility20QMessageStorePrivate13queryMessagesERKNS_14QMessageFilterERK7QString6QFlagsINS_22QMessageDataComparator9MatchFlagEERKNS_17QMessageSortOrderEjj 0x00031120   Data           0  QtMessaging.in(.ARM.extab)
    .extab._ZNK10QtMobility20QMessageStorePrivate12queryFoldersERKNS_20QMessageFolderFilterERKNS_23QMessageFolderSortOrderEjj 0x00031140   Data           0  QtMessaging.in(.ARM.extab)
    .extab._ZNK10QtMobility20QMessageStorePrivate13queryAccountsERKNS_21QMessageAccountFilterERKNS_24QMessageAccountSortOrderEjj 0x00031160   Data           0  QtMessaging.in(.ARM.extab)
    .extab._ZNK10QtMobility20QMessageStorePrivate13countMessagesERKNS_14QMessageFilterE 0x00031180   Data           0  QtMessaging.in(.ARM.extab)
    .extab._ZN10QtMobility20QMessageStorePrivate10addMessageEPNS_8QMessageE 0x00031190   Data           0  QtMessaging.in(.ARM.extab)
    .extab._ZN10QtMobility20QMessageStorePrivate13updateMessageEPNS_8QMessageE 0x000311a0   Data           0  QtMessaging.in(.ARM.extab)
    .extab._ZN10QtMobility20QMessageStorePrivate14removeMessagesERKNS_14QMessageFilterENS_15QMessageManager13RemovalOptionE 0x000311b0   Data           0  QtMessaging.in(.ARM.extab)
    .extab._ZN10QtMobility13QMessageStoreC1EP7QObject 0x000311e0   Data           0  QtMessaging.in(.ARM.extab)
    .extab._ZN10QtMobility13QMessageStore8instanceEv 0x000311f0   Data           0  QtMessaging.in(.ARM.extab)
    .extab._ZN10QtMobility20QMessageStorePrivateD1Ev 0x00031200   Data           0  QtMessaging.in(.ARM.extab)
    .extab._ZN5QListIN10QtMobility17QMessageAccountIdEEpLERKS2_ 0x00031218   Data           0  QtMessaging.in(.ARM.extab)
    .extab._ZN10QtMobility22QMessageServicePrivateC1EPNS_15QMessageServiceE 0x00031234   Data           0  QtMessaging.in(.ARM.extab)
    .extab._ZN10QtMobility15QMessageServiceC1EP7QObject 0x00031254   Data           0  QtMessaging.in(.ARM.extab)
    .extab._ZN10QtMobility15QMessageServiceD1Ev 0x0003126c   Data           0  QtMessaging.in(.ARM.extab)
    .extab._ZN10QtMobility22QMessageServicePrivate9sendEmailERNS_8QMessageE 0x0003127c   Data           0  QtMessaging.in(.ARM.extab)
    .extab._ZN10QtMobility15QMessageService4sendERNS_8QMessageE 0x0003128c   Data           0  QtMessaging.in(.ARM.extab)
    .extab._ZN10QtMobility22QMessageServicePrivate7composeERKNS_8QMessageE 0x0003135c   Data           0  QtMessaging.in(.ARM.extab)
    .extab._ZN10QtMobility22QMessageServicePrivateD1Ev 0x0003136c   Data           0  QtMessaging.in(.ARM.extab)
    .extab._ZN10QtMobility22QMessageServicePrivate13messagesFoundERK5QListINS_10QMessageIdEEbb 0x0003138c   Data           0  QtMessaging.in(.ARM.extab)
    .extab._ZN10QtMobility12MessageCacheD1Ev 0x000313ac   Data           0  QtMessaging.in(.ARM.extab)
    .extab._ZN10QtMobility15messagingHelperEv 0x000313bc   Data           0  QtMessaging.in(.ARM.extab)
    .extab._ZN10QtMobility15MessagingHelper14filterAccountsER5QListINS_17QMessageAccountIdEERKNS_21QMessageAccountFilterE 0x000313cc   Data           0  QtMessaging.in(.ARM.extab)
    .extab._ZN10QtMobility15MessagingHelper15accountLessThanENS_17QMessageAccountIdES1_ 0x000313dc   Data           0  QtMessaging.in(.ARM.extab)
    .extab._ZN10QtMobility15MessagingHelper13filterFoldersER5QListINS_16QMessageFolderIdEERKNS_20QMessageFolderFilterE 0x000313fc   Data           0  QtMessaging.in(.ARM.extab)
    .extab._ZN10QtMobility15MessagingHelper14folderLessThanENS_16QMessageFolderIdES1_ 0x0003140c   Data           0  QtMessaging.in(.ARM.extab)
    .extab._ZN10QtMobility12MessageCache13messageObjectERKNS_10QMessageIdE 0x0003142c   Data           0  QtMessaging.in(.ARM.extab)
    .extab._ZN10QtMobility12MessageCacheC1Ev 0x0003143c   Data           0  QtMessaging.in(.ARM.extab)
    .extab._ZN10QtMobility12messageCacheEv   0x00031454   Data           0  QtMessaging.in(.ARM.extab)
    .extab._ZN10QtMobility15MessagingHelper14filterMessagesER5QListINS_10QMessageIdEERKNS_14QMessageFilterE 0x0003146c   Data           0  QtMessaging.in(.ARM.extab)
    .extab._ZN10QtMobility15MessagingHelper15messageLessThanENS_10QMessageIdES1_ 0x0003147c   Data           0  QtMessaging.in(.ARM.extab)
    .extab._ZN10QtMobility15MessagingHelper35handleNestedFiltersFromFolderFilterERNS_20QMessageFolderFilterE 0x000314ac   Data           0  QtMessaging.in(.ARM.extab)
    .extab._ZN10QtMobility15MessagingHelper36handleNestedFiltersFromMessageFilterERNS_14QMessageFilterE 0x0003155c   Data           0  QtMessaging.in(.ARM.extab)
    .extab._ZN10QtMobility15MessagingHelper9preFilterERNS_14QMessageFilterENS_8QMessage4TypeE 0x000316b4   Data           0  QtMessaging.in(.ARM.extab)
    .extab._ZN10QtMobility15MessagingHelper22extractMIMEHeaderPartsERK10QByteArrayRS1_S4_S4_ 0x000316c4   Data           0  QtMessaging.in(.ARM.extab)
    .extab._ZN10QtMobility12MessageCache6insertERKNS_8QMessageE 0x0003177c   Data           0  QtMessaging.in(.ARM.extab)
    .extab._ZN10QtMobility12MessageCache6updateERKNS_8QMessageE 0x000317a4   Data           0  QtMessaging.in(.ARM.extab)
    .extab._ZN10QtMobility12MessageCache6removeERKNS_10QMessageIdE 0x000317e4   Data           0  QtMessaging.in(.ARM.extab)
    .extab._ZN10QtMobility12MessageCache8containsERKNS_10QMessageIdE 0x000317f4   Data           0  QtMessaging.in(.ARM.extab)
    .extab._ZN10QtMobility12MessageCache7messageERKNS_10QMessageIdE 0x00031804   Data           0  QtMessaging.in(.ARM.extab)
    .extab._ZN10QtMobility12MessageCache10messageIdsEv 0x00031824   Data           0  QtMessaging.in(.ARM.extab)
    .extab._ZN10QtMobility12MessageCache12insertObjectEPNS_8QMessageE 0x00031864   Data           0  QtMessaging.in(.ARM.extab)
    .extab._Z5qSwapIN10QtMobility10QMessageIdEEvRT_S3_ 0x00031884   Data           0  QtMessaging.in(.ARM.extab)
    .extab._ZN18QAlgorithmsPrivate11qSortHelperIN5QListIN10QtMobility10QMessageIdEE8iteratorES3_PFbS3_S3_EEEvT_S8_RKT0_T1_ 0x00031894   Data           0  QtMessaging.in(.ARM.extab)
    .extab._ZN7QStringaSEPKc                 0x0003192c   Data           0  QtMessaging.in(.ARM.extab)
    .extab._ZN6QCacheI7QStringN10QtMobility8QMessageEE5clearEv 0x0003193c   Data           0  QtMessaging.in(.ARM.extab)
    .extab._ZN5QListIN10QtMobility17QMessageAccountIdEE5clearEv 0x0003194c   Data           0  QtMessaging.in(.ARM.extab)
    .extab._ZN5QListIN10QtMobility16QMessageFolderIdEE5clearEv 0x0003195c   Data           0  QtMessaging.in(.ARM.extab)
    .extab._ZN5QHashI7QStringN6QCacheIS0_N10QtMobility8QMessageEE4NodeEE6removeERKS0_ 0x0003196c   Data           0  QtMessaging.in(.ARM.extab)
    .extab._ZN5QHashI7QStringN6QCacheIS0_N10QtMobility8QMessageEE4NodeEE13duplicateNodeEPN9QHashData4NodeEPv 0x00031980   Data           0  QtMessaging.in(.ARM.extab)
    .extab._ZN6QCacheI7QStringN10QtMobility8QMessageEED1Ev 0x00031990   Data           0  QtMessaging.in(.ARM.extab)
    .extab._ZN5QHashI7QStringN6QCacheIS0_N10QtMobility8QMessageEE4NodeEE6insertERKS0_RKS5_ 0x000319a0   Data           0  QtMessaging.in(.ARM.extab)
    .extab._ZNK5QHashI7QStringN6QCacheIS0_N10QtMobility8QMessageEE4NodeEE4keysEv 0x000319b0   Data           0  QtMessaging.in(.ARM.extab)
    .constdata$1                             0x000319c0   Data           0  QtMessaging.in(.constdata)
    .constdata                               0x000319c0   Section      472  QtMessaging.in(.constdata)
    QtMobility::qt_meta_stringdata_QMessageManager 0x000319d0   Data         241  QtMessaging.in(.constdata)
    .constdata$28                            0x00031b98   Data           0  QtMessaging.in(.constdata)
    QtMobility::qt_meta_data_QMessageManager 0x00031b98   Data         120  QtMessaging.in(.constdata)
    .constdata                               0x00031b98   Section      120  QtMessaging.in(.constdata)
    .constdata$1                             0x00031c10   Data           0  QtMessaging.in(.constdata)
    .constdata                               0x00031c10   Section      255  QtMessaging.in(.constdata)
    QtMobility::qt_meta_stringdata_QMessageStore 0x00031c20   Data         239  QtMessaging.in(.constdata)
    .constdata$28                            0x00031d10   Data           0  QtMessaging.in(.constdata)
    QtMobility::qt_meta_data_QMessageStore   0x00031d10   Data         120  QtMessaging.in(.constdata)
    .constdata                               0x00031d10   Section      120  QtMessaging.in(.constdata)
    .constdata$1                             0x00031d88   Data           0  QtMessaging.in(.constdata)
    .constdata                               0x00031d88   Section      189  QtMessaging.in(.constdata)
    QtMobility::qt_meta_stringdata_QMessageService 0x00031d98   Data         173  QtMessaging.in(.constdata)
    .constdata$28                            0x00031e48   Data           0  QtMessaging.in(.constdata)
    QtMobility::qt_meta_data_QMessageService 0x00031e48   Data         160  QtMessaging.in(.constdata)
    .constdata                               0x00031e48   Section      160  QtMessaging.in(.constdata)
    .constdata$1                             0x00031ee8   Data           0  QtMessaging.in(.constdata)
    KMsvGlobalInBoxIndexEntryId              0x00031ee8   Data           4  QtMessaging.in(.constdata)
    .constdata                               0x00031ee8   Section      413  QtMessaging.in(.constdata)
    KMsvGlobalOutBoxIndexEntryId             0x00031eec   Data           4  QtMessaging.in(.constdata)
    KMsvDraftEntryId                         0x00031ef0   Data           4  QtMessaging.in(.constdata)
    KMsvSentEntryId                          0x00031ef4   Data           4  QtMessaging.in(.constdata)
    KMsvDeletedEntryFolderEntryId            0x00031ef8   Data           4  QtMessaging.in(.constdata)
    KUidMsgTypeSMS                           0x00031efc   Data           4  QtMessaging.in(.constdata)
    KUidMsvFolderEntry                       0x00031f00   Data           4  QtMessaging.in(.constdata)
    KUidMsvMessageEntry                      0x00031f04   Data           4  QtMessaging.in(.constdata)
    KUidMsgTypeMultimedia                    0x00031f08   Data           4  QtMessaging.in(.constdata)
    KUidMsgTypeSMTP                          0x00031f0c   Data           4  QtMessaging.in(.constdata)
    KUidMsgTypePOP3                          0x00031f10   Data           4  QtMessaging.in(.constdata)
    KUidMsgTypeIMAP4                         0x00031f14   Data           4  QtMessaging.in(.constdata)
    KSenduiMtmSmtpUid                        0x00031f18   Data           4  QtMessaging.in(.constdata)
    KSenduiMtmSmsUid                         0x00031f1c   Data           4  QtMessaging.in(.constdata)
    KSenduiMtmMmsUid                         0x00031f20   Data           4  QtMessaging.in(.constdata)
    KSenduiMtmUniMessageUid                  0x00031f24   Data           4  QtMessaging.in(.constdata)
    KNullDesC                                0x00031f28   Data           8  QtMessaging.in(.constdata)
    KImcvMultipart                           0x00031f30   Data          16  QtMessaging.in(.constdata)
    QtMobility::KSMS0338UnicodeChars         0x00031f50   Data         256  QtMessaging.in(.constdata)
    QtMobility::KEscapedSMS0338UnicodeChars  0x00032050   Data          20  QtMessaging.in(.constdata)
    QtMobility::qt_meta_stringdata_CMTMEngine 0x00032064   Data          33  QtMessaging.in(.constdata)
    .constdata$37                            0x00032088   Data           0  QtMessaging.in(.constdata)
    QtMobility::qt_meta_data_CMTMEngine      0x00032088   Data          80  QtMessaging.in(.constdata)
    .constdata                               0x00032088   Section       80  QtMessaging.in(.constdata)
    .constdata$1                             0x000320d8   Data           0  QtMessaging.in(.constdata)
    .constdata                               0x000320d8   Section      139  QtMessaging.in(.constdata)
    QtMobility::qt_meta_stringdata_QMessageStorePrivate 0x000320e8   Data         123  QtMessaging.in(.constdata)
    .constdata$28                            0x00032164   Data           0  QtMessaging.in(.constdata)
    QtMobility::qt_meta_data_QMessageStorePrivate 0x00032164   Data         120  QtMessaging.in(.constdata)
    .constdata                               0x00032164   Section      120  QtMessaging.in(.constdata)
    .constdata$1                             0x000321dc   Data           0  QtMessaging.in(.constdata)
    .constdata                               0x000321dc   Section      137  QtMessaging.in(.constdata)
    QtMobility::qt_meta_stringdata_QMessageServicePrivate 0x000321ec   Data         121  QtMessaging.in(.constdata)
    .constdata$28                            0x00032268   Data           0  QtMessaging.in(.constdata)
    QtMobility::qt_meta_data_QMessageServicePrivate 0x00032268   Data         120  QtMessaging.in(.constdata)
    .constdata                               0x00032268   Section      120  QtMessaging.in(.constdata)
    .constdata__ZTI19MMsvSessionObserver     0x000322e0   Section        8  QtMessaging.in(.constdata__ZTI19MMsvSessionObserver)
    .constdata__ZTIN10QtMobility10CMTMEngineE 0x000322e8   Section       40  QtMessaging.in(.constdata__ZTIN10QtMobility10CMTMEngineE)
    .constdata__ZTIN10QtMobility13QMessageStoreE 0x00032310   Section       12  QtMessaging.in(.constdata__ZTIN10QtMobility13QMessageStoreE)
    .constdata__ZTIN10QtMobility14QMessageFilterE 0x0003231c   Section        8  QtMessaging.in(.constdata__ZTIN10QtMobility14QMessageFilterE)
    .constdata__ZTIN10QtMobility14QMessageFolderE 0x00032324   Section        8  QtMessaging.in(.constdata__ZTIN10QtMobility14QMessageFolderE)
    .constdata__ZTIN10QtMobility15QMessageAccountE 0x0003232c   Section        8  QtMessaging.in(.constdata__ZTIN10QtMobility15QMessageAccountE)
    .constdata__ZTIN10QtMobility15QMessageAddressE 0x00032334   Section        8  QtMessaging.in(.constdata__ZTIN10QtMobility15QMessageAddressE)
    .constdata__ZTIN10QtMobility15QMessageManagerE 0x0003233c   Section       12  QtMessaging.in(.constdata__ZTIN10QtMobility15QMessageManagerE)
    .constdata__ZTIN10QtMobility15QMessageServiceE 0x00032348   Section       12  QtMessaging.in(.constdata__ZTIN10QtMobility15QMessageServiceE)
    .constdata__ZTIN10QtMobility17QMessageSortOrderE 0x00032354   Section        8  QtMessaging.in(.constdata__ZTIN10QtMobility17QMessageSortOrderE)
    .constdata__ZTIN10QtMobility20QMessageFolderFilterE 0x0003235c   Section        8  QtMessaging.in(.constdata__ZTIN10QtMobility20QMessageFolderFilterE)
    .constdata__ZTIN10QtMobility20QMessageStorePrivateE 0x00032364   Section       12  QtMessaging.in(.constdata__ZTIN10QtMobility20QMessageStorePrivateE)
    .constdata__ZTIN10QtMobility21QMessageAccountFilterE 0x00032370   Section        8  QtMessaging.in(.constdata__ZTIN10QtMobility21QMessageAccountFilterE)
    .constdata__ZTIN10QtMobility22CMessagesFindOperationE 0x00032378   Section       12  QtMessaging.in(.constdata__ZTIN10QtMobility22CMessagesFindOperationE)
    .constdata__ZTIN10QtMobility22QMessageServicePrivateE 0x00032384   Section       12  QtMessaging.in(.constdata__ZTIN10QtMobility22QMessageServicePrivateE)
    .constdata__ZTIN10QtMobility23QMessageFolderSortOrderE 0x00032390   Section        8  QtMessaging.in(.constdata__ZTIN10QtMobility23QMessageFolderSortOrderE)
    .constdata__ZTIN10QtMobility24QMessageAccountSortOrderE 0x00032398   Section        8  QtMessaging.in(.constdata__ZTIN10QtMobility24QMessageAccountSortOrderE)
    .constdata__ZTIN10QtMobility24QMessageContentContainerE 0x000323a0   Section        8  QtMessaging.in(.constdata__ZTIN10QtMobility24QMessageContentContainerE)
    .constdata__ZTIN10QtMobility25CAsynchronousMTMOperationE 0x000323a8   Section       12  QtMessaging.in(.constdata__ZTIN10QtMobility25CAsynchronousMTMOperationE)
    .constdata__ZTIN10QtMobility8QMTMWaitE   0x000323b4   Section       12  QtMessaging.in(.constdata__ZTIN10QtMobility8QMTMWaitE)
    .constdata__ZTIN10QtMobility8QMessageE   0x000323c0   Section       12  QtMessaging.in(.constdata__ZTIN10QtMobility8QMessageE)
    .constdata__ZTISt9bad_alloc              0x000323cc   Section       12  QtMessaging.in(.constdata__ZTISt9bad_alloc)
    .constdata__ZTS19MMsvSessionObserver     0x000323d8   Section       22  QtMessaging.in(.constdata__ZTS19MMsvSessionObserver)
    .constdata__ZTSN10QtMobility10CMTMEngineE 0x000323ee   Section       27  QtMessaging.in(.constdata__ZTSN10QtMobility10CMTMEngineE)
    .constdata__ZTSN10QtMobility13QMessageStoreE 0x00032409   Section       30  QtMessaging.in(.constdata__ZTSN10QtMobility13QMessageStoreE)
    .constdata__ZTSN10QtMobility14QMessageFilterE 0x00032427   Section       31  QtMessaging.in(.constdata__ZTSN10QtMobility14QMessageFilterE)
    .constdata__ZTSN10QtMobility14QMessageFolderE 0x00032446   Section       31  QtMessaging.in(.constdata__ZTSN10QtMobility14QMessageFolderE)
    .constdata__ZTSN10QtMobility15QMessageAccountE 0x00032465   Section       32  QtMessaging.in(.constdata__ZTSN10QtMobility15QMessageAccountE)
    .constdata__ZTSN10QtMobility15QMessageAddressE 0x00032485   Section       32  QtMessaging.in(.constdata__ZTSN10QtMobility15QMessageAddressE)
    .constdata__ZTSN10QtMobility15QMessageManagerE 0x000324a5   Section       32  QtMessaging.in(.constdata__ZTSN10QtMobility15QMessageManagerE)
    .constdata__ZTSN10QtMobility15QMessageServiceE 0x000324c5   Section       32  QtMessaging.in(.constdata__ZTSN10QtMobility15QMessageServiceE)
    .constdata__ZTSN10QtMobility17QMessageSortOrderE 0x000324e5   Section       34  QtMessaging.in(.constdata__ZTSN10QtMobility17QMessageSortOrderE)
    .constdata__ZTSN10QtMobility20QMessageFolderFilterE 0x00032507   Section       37  QtMessaging.in(.constdata__ZTSN10QtMobility20QMessageFolderFilterE)
    .constdata__ZTSN10QtMobility20QMessageStorePrivateE 0x0003252c   Section       37  QtMessaging.in(.constdata__ZTSN10QtMobility20QMessageStorePrivateE)
    .constdata__ZTSN10QtMobility21QMessageAccountFilterE 0x00032551   Section       38  QtMessaging.in(.constdata__ZTSN10QtMobility21QMessageAccountFilterE)
    .constdata__ZTSN10QtMobility22CMessagesFindOperationE 0x00032577   Section       39  QtMessaging.in(.constdata__ZTSN10QtMobility22CMessagesFindOperationE)
    .constdata__ZTSN10QtMobility22QMessageServicePrivateE 0x0003259e   Section       39  QtMessaging.in(.constdata__ZTSN10QtMobility22QMessageServicePrivateE)
    .constdata__ZTSN10QtMobility23QMessageFolderSortOrderE 0x000325c5   Section       40  QtMessaging.in(.constdata__ZTSN10QtMobility23QMessageFolderSortOrderE)
    .constdata__ZTSN10QtMobility24QMessageAccountSortOrderE 0x000325ed   Section       41  QtMessaging.in(.constdata__ZTSN10QtMobility24QMessageAccountSortOrderE)
    .constdata__ZTSN10QtMobility24QMessageContentContainerE 0x00032616   Section       41  QtMessaging.in(.constdata__ZTSN10QtMobility24QMessageContentContainerE)
    .constdata__ZTSN10QtMobility25CAsynchronousMTMOperationE 0x0003263f   Section       42  QtMessaging.in(.constdata__ZTSN10QtMobility25CAsynchronousMTMOperationE)
    .constdata__ZTSN10QtMobility8QMTMWaitE   0x00032669   Section       24  QtMessaging.in(.constdata__ZTSN10QtMobility8QMTMWaitE)
    .constdata__ZTSN10QtMobility8QMessageE   0x00032681   Section       24  QtMessaging.in(.constdata__ZTSN10QtMobility8QMessageE)
    .constdata__ZTSSt9bad_alloc              0x00032699   Section       13  QtMessaging.in(.constdata__ZTSSt9bad_alloc)
    .constdata__ZTVN10QtMobility10CMTMEngineE 0x000326a8   Section      112  QtMessaging.in(.constdata__ZTVN10QtMobility10CMTMEngineE)
    .constdata__ZTVN10QtMobility13QMessageStoreE 0x00032718   Section       56  QtMessaging.in(.constdata__ZTVN10QtMobility13QMessageStoreE)
    .constdata__ZTVN10QtMobility14QMessageFilterE 0x00032750   Section       16  QtMessaging.in(.constdata__ZTVN10QtMobility14QMessageFilterE)
    .constdata__ZTVN10QtMobility14QMessageFolderE 0x00032760   Section       16  QtMessaging.in(.constdata__ZTVN10QtMobility14QMessageFolderE)
    .constdata__ZTVN10QtMobility15QMessageAccountE 0x00032770   Section       16  QtMessaging.in(.constdata__ZTVN10QtMobility15QMessageAccountE)
    .constdata__ZTVN10QtMobility15QMessageAddressE 0x00032780   Section       16  QtMessaging.in(.constdata__ZTVN10QtMobility15QMessageAddressE)
    .constdata__ZTVN10QtMobility15QMessageManagerE 0x00032790   Section       56  QtMessaging.in(.constdata__ZTVN10QtMobility15QMessageManagerE)
    .constdata__ZTVN10QtMobility15QMessageServiceE 0x000327c8   Section       56  QtMessaging.in(.constdata__ZTVN10QtMobility15QMessageServiceE)
    .constdata__ZTVN10QtMobility17QMessageSortOrderE 0x00032800   Section       16  QtMessaging.in(.constdata__ZTVN10QtMobility17QMessageSortOrderE)
    .constdata__ZTVN10QtMobility20QMessageFolderFilterE 0x00032810   Section       16  QtMessaging.in(.constdata__ZTVN10QtMobility20QMessageFolderFilterE)
    .constdata__ZTVN10QtMobility20QMessageStorePrivateE 0x00032820   Section       56  QtMessaging.in(.constdata__ZTVN10QtMobility20QMessageStorePrivateE)
    .constdata__ZTVN10QtMobility21QMessageAccountFilterE 0x00032858   Section       16  QtMessaging.in(.constdata__ZTVN10QtMobility21QMessageAccountFilterE)
    .constdata__ZTVN10QtMobility22CMessagesFindOperationE 0x00032868   Section       32  QtMessaging.in(.constdata__ZTVN10QtMobility22CMessagesFindOperationE)
    .constdata__ZTVN10QtMobility22QMessageServicePrivateE 0x00032888   Section       56  QtMessaging.in(.constdata__ZTVN10QtMobility22QMessageServicePrivateE)
    .constdata__ZTVN10QtMobility23QMessageFolderSortOrderE 0x000328c0   Section       16  QtMessaging.in(.constdata__ZTVN10QtMobility23QMessageFolderSortOrderE)
    .constdata__ZTVN10QtMobility24QMessageAccountSortOrderE 0x000328d0   Section       16  QtMessaging.in(.constdata__ZTVN10QtMobility24QMessageAccountSortOrderE)
    .constdata__ZTVN10QtMobility24QMessageContentContainerE 0x000328e0   Section       16  QtMessaging.in(.constdata__ZTVN10QtMobility24QMessageContentContainerE)
    .constdata__ZTVN10QtMobility25CAsynchronousMTMOperationE 0x000328f0   Section       32  QtMessaging.in(.constdata__ZTVN10QtMobility25CAsynchronousMTMOperationE)
    .constdata__ZTVN10QtMobility8QMTMWaitE   0x00032910   Section       32  QtMessaging.in(.constdata__ZTVN10QtMobility8QMTMWaitE)
    .constdata__ZTVN10QtMobility8QMessageE   0x00032930   Section       16  QtMessaging.in(.constdata__ZTVN10QtMobility8QMessageE)
    .conststring$3                           0x00032940   Data           0  QtMessaging.in(.conststring)
    .conststring                             0x00032940   Section        9  QtMessaging.in(.conststring)
    .init_array                              0x0003294c   Section        4  QtMessaging.in(.init_array)
    .init_array                              0x00032950   Section        4  QtMessaging.in(.init_array)
    .init_array                              0x00032954   Section        4  QtMessaging.in(.init_array)
    .ARM.exidx                               0x00032958   Section        8  ucppinit_aeabi.o(.ARM.exidx)
    .data$0                                  0x00400000   Data           0  QtMessaging.in(.data)
    QtMobility::registrationId               0x00400000   Data           4  QtMessaging.in(.data)
    .data                                    0x00400000   Section        4  QtMessaging.in(.data)
    .data$0                                  0x00400004   Data           0  QtMessaging.in(.data)
    .data                                    0x00400004   Section        4  QtMessaging.in(.data)
    .data$0                                  0x00400008   Data           0  QtMessaging.in(.data)
    QtMobility::registrationId1              0x00400008   Data           4  QtMessaging.in(.data)
    .data                                    0x00400008   Section        8  QtMessaging.in(.data)
    QtMobility::registrationId2              0x0040000c   Data           4  QtMessaging.in(.data)
    .data$0                                  0x00400010   Data           0  QtMessaging.in(.data)
    QtMobility::SymbianHelpers::mtmPrefix    0x00400010   Data           4  QtMessaging.in(.data)
    .data                                    0x00400010   Section       16  QtMessaging.in(.data)
    QtMobility::SymbianHelpers::freestylePrefix 0x00400014   Data           4  QtMessaging.in(.data)
    _ZGVprefix@_ZN10QtMobility13MessagingUtil8idPrefixEv_0 0x00400018   Data           4  QtMessaging.in(.data)
    prefix@_ZN10QtMobility13MessagingUtil8idPrefixEv_1 0x0040001c   Data           4  QtMessaging.in(.data)
    .data$0                                  0x00400020   Data           0  QtMessaging.in(.data)
    QtMobility::SymbianHelpers::mtmPrefix    0x00400020   Data           4  QtMessaging.in(.data)
    .data                                    0x00400020   Section       20  QtMessaging.in(.data)
    _ZGVcleanup@_ZN10QtMobility9mtmEngineEv_0 0x00400024   Data           4  QtMessaging.in(.data)
    cleanup@_ZN10QtMobility9mtmEngineEv_1    0x00400028   Data           4  QtMessaging.in(.data)
    QtMobility::this_mtmEngine               0x0040002c   Data           8  QtMessaging.in(.data)
    .data$0                                  0x00400034   Data           0  QtMessaging.in(.data)
    _ZGVcleanup@_ZN10QtMobility19messageStorePrivateEv_0 0x00400034   Data           4  QtMessaging.in(.data)
    .data                                    0x00400034   Section       16  QtMessaging.in(.data)
    cleanup@_ZN10QtMobility19messageStorePrivateEv_1 0x00400038   Data           4  QtMessaging.in(.data)
    QtMobility::this_messageStorePrivate     0x0040003c   Data           8  QtMessaging.in(.data)
    .data$0                                  0x00400044   Data           0  QtMessaging.in(.data)
    _ZGVcleanup@_ZN10QtMobility12messageCacheEv_0 0x00400044   Data           4  QtMessaging.in(.data)
    .data                                    0x00400044   Section       32  QtMessaging.in(.data)
    cleanup@_ZN10QtMobility12messageCacheEv_1 0x00400048   Data           4  QtMessaging.in(.data)
    _ZGVcleanup@_ZN10QtMobility15messagingHelperEv_0 0x0040004c   Data           4  QtMessaging.in(.data)
    cleanup@_ZN10QtMobility15messagingHelperEv_1 0x00400050   Data           4  QtMessaging.in(.data)
    QtMobility::this_messageCache            0x00400054   Data           8  QtMessaging.in(.data)
    QtMobility::this_messagingHelper         0x0040005c   Data           8  QtMessaging.in(.data)
    .data$0                                  0x00400064   Data           0  ucppfini.o(.data)
    .data                                    0x00400064   Section        4  ucppfini.o(.data)
    .data__ZZN11QMetaTypeIdI4QSetIiEE14qt_metatype_idEvE11metatype_id 0x00400068   Section        4  QtMessaging.in(.data__ZZN11QMetaTypeIdI4QSetIiEE14qt_metatype_idEvE11metatype_id)
    .data__ZZN11QMetaTypeIdIN10QtMobility10QMessageIdEE14qt_metatype_idEvE11metatype_id 0x0040006c   Section        4  QtMessaging.in(.data__ZZN11QMetaTypeIdIN10QtMobility10QMessageIdEE14qt_metatype_idEvE11metatype_id)
    .bss$5                                   0x00400070   Data           0  ucppfini.o(.bss)
    dtor_rec                                 0x00400070   Data        2048  ucppfini.o(.bss)
    .bss                                     0x00400070   Section     2048  ucppfini.o(.bss)

    Global Symbols

    Symbol Name                              Value     Ov Type        Size  Object(Section)

    BuildAttributes$$THUMB_ISAv2$ARM_ISAv5$M$PE$A:L22$X:L11$S22$IEEE1$IW$USESV6$~STKCKD$USESV7$~SHL$OSPACE$IEEEJ$EBA8$UX$REQ8$PRES8$EABIv2 0x00000000   Number         0  anon$$obj.o ABSOLUTE
    #<DLL>CHARCONV{000a0000}[10003b11].DLL#<\DLL>6  - Undefined Reference
    #<DLL>CHARCONV{000a0000}[10003b11].DLL#<\DLL>8  - Undefined Reference
    #<DLL>QtCore{00040703}[2001b2dc].dll#<\DLL>11a  - Undefined Reference
    #<DLL>QtCore{00040703}[2001b2dc].dll#<\DLL>12f  - Undefined Reference
    #<DLL>QtCore{00040703}[2001b2dc].dll#<\DLL>138  - Undefined Reference
    #<DLL>QtCore{00040703}[2001b2dc].dll#<\DLL>144  - Undefined Reference
    #<DLL>QtCore{00040703}[2001b2dc].dll#<\DLL>14a  - Undefined Reference
    #<DLL>QtCore{00040703}[2001b2dc].dll#<\DLL>14b  - Undefined Reference
    #<DLL>QtCore{00040703}[2001b2dc].dll#<\DLL>14c  - Undefined Reference
    #<DLL>QtCore{00040703}[2001b2dc].dll#<\DLL>20  - Undefined Reference
    #<DLL>QtCore{00040703}[2001b2dc].dll#<\DLL>38  - Undefined Reference
    #<DLL>QtCore{00040703}[2001b2dc].dll#<\DLL>46  - Undefined Reference
    #<DLL>QtCore{00040703}[2001b2dc].dll#<\DLL>49  - Undefined Reference
    #<DLL>QtCore{00040703}[2001b2dc].dll#<\DLL>5f  - Undefined Reference
    #<DLL>QtCore{00040703}[2001b2dc].dll#<\DLL>60  - Undefined Reference
    #<DLL>QtCore{00040703}[2001b2dc].dll#<\DLL>618  - Undefined Reference
    #<DLL>QtCore{00040703}[2001b2dc].dll#<\DLL>62e  - Undefined Reference
    #<DLL>QtCore{00040703}[2001b2dc].dll#<\DLL>643  - Undefined Reference
    #<DLL>QtCore{00040703}[2001b2dc].dll#<\DLL>647  - Undefined Reference
    #<DLL>QtCore{00040703}[2001b2dc].dll#<\DLL>64a  - Undefined Reference
    #<DLL>QtCore{00040703}[2001b2dc].dll#<\DLL>656  - Undefined Reference
    #<DLL>QtCore{00040703}[2001b2dc].dll#<\DLL>65f  - Undefined Reference
    #<DLL>QtCore{00040703}[2001b2dc].dll#<\DLL>66b  - Undefined Reference
    #<DLL>QtCore{00040703}[2001b2dc].dll#<\DLL>686  - Undefined Reference
    #<DLL>QtCore{00040703}[2001b2dc].dll#<\DLL>687  - Undefined Reference
    #<DLL>QtCore{00040703}[2001b2dc].dll#<\DLL>68a  - Undefined Reference
    #<DLL>QtCore{00040703}[2001b2dc].dll#<\DLL>68c  - Undefined Reference
    #<DLL>QtCore{00040703}[2001b2dc].dll#<\DLL>6e0  - Undefined Reference
    #<DLL>QtCore{00040703}[2001b2dc].dll#<\DLL>6e3  - Undefined Reference
    #<DLL>QtCore{00040703}[2001b2dc].dll#<\DLL>6e4  - Undefined Reference
    #<DLL>QtCore{00040703}[2001b2dc].dll#<\DLL>6e6  - Undefined Reference
    #<DLL>QtCore{00040703}[2001b2dc].dll#<\DLL>6e7  - Undefined Reference
    #<DLL>QtCore{00040703}[2001b2dc].dll#<\DLL>6e8  - Undefined Reference
    #<DLL>QtCore{00040703}[2001b2dc].dll#<\DLL>6ed  - Undefined Reference
    #<DLL>QtCore{00040703}[2001b2dc].dll#<\DLL>6f1  - Undefined Reference
    #<DLL>QtCore{00040703}[2001b2dc].dll#<\DLL>6f8  - Undefined Reference
    #<DLL>QtCore{00040703}[2001b2dc].dll#<\DLL>6f9  - Undefined Reference
    #<DLL>QtCore{00040703}[2001b2dc].dll#<\DLL>6fd  - Undefined Reference
    #<DLL>QtCore{00040703}[2001b2dc].dll#<\DLL>702  - Undefined Reference
    #<DLL>QtCore{00040703}[2001b2dc].dll#<\DLL>70a  - Undefined Reference
    #<DLL>QtCore{00040703}[2001b2dc].dll#<\DLL>70d  - Undefined Reference
    #<DLL>QtCore{00040703}[2001b2dc].dll#<\DLL>713  - Undefined Reference
    #<DLL>QtCore{00040703}[2001b2dc].dll#<\DLL>716  - Undefined Reference
    #<DLL>QtCore{00040703}[2001b2dc].dll#<\DLL>721  - Undefined Reference
    #<DLL>QtCore{00040703}[2001b2dc].dll#<\DLL>726  - Undefined Reference
    #<DLL>QtCore{00040703}[2001b2dc].dll#<\DLL>72c  - Undefined Reference
    #<DLL>QtCore{00040703}[2001b2dc].dll#<\DLL>72f  - Undefined Reference
    #<DLL>QtCore{00040703}[2001b2dc].dll#<\DLL>732  - Undefined Reference
    #<DLL>QtCore{00040703}[2001b2dc].dll#<\DLL>734  - Undefined Reference
    #<DLL>QtCore{00040703}[2001b2dc].dll#<\DLL>752  - Undefined Reference
    #<DLL>QtCore{00040703}[2001b2dc].dll#<\DLL>753  - Undefined Reference
    #<DLL>QtCore{00040703}[2001b2dc].dll#<\DLL>75d  - Undefined Reference
    #<DLL>QtCore{00040703}[2001b2dc].dll#<\DLL>79b  - Undefined Reference
    #<DLL>QtCore{00040703}[2001b2dc].dll#<\DLL>79d  - Undefined Reference
    #<DLL>QtCore{00040703}[2001b2dc].dll#<\DLL>7e  - Undefined Reference
    #<DLL>QtCore{00040703}[2001b2dc].dll#<\DLL>7f2  - Undefined Reference
    #<DLL>QtCore{00040703}[2001b2dc].dll#<\DLL>7f4  - Undefined Reference
    #<DLL>QtCore{00040703}[2001b2dc].dll#<\DLL>7f8  - Undefined Reference
    #<DLL>QtCore{00040703}[2001b2dc].dll#<\DLL>7fb  - Undefined Reference
    #<DLL>QtCore{00040703}[2001b2dc].dll#<\DLL>80  - Undefined Reference
    #<DLL>QtCore{00040703}[2001b2dc].dll#<\DLL>822  - Undefined Reference
    #<DLL>QtCore{00040703}[2001b2dc].dll#<\DLL>824  - Undefined Reference
    #<DLL>QtCore{00040703}[2001b2dc].dll#<\DLL>831  - Undefined Reference
    #<DLL>QtCore{00040703}[2001b2dc].dll#<\DLL>837  - Undefined Reference
    #<DLL>QtCore{00040703}[2001b2dc].dll#<\DLL>838  - Undefined Reference
    #<DLL>QtCore{00040703}[2001b2dc].dll#<\DLL>839  - Undefined Reference
    #<DLL>QtCore{00040703}[2001b2dc].dll#<\DLL>83e  - Undefined Reference
    #<DLL>QtCore{00040703}[2001b2dc].dll#<\DLL>840  - Undefined Reference
    #<DLL>QtCore{00040703}[2001b2dc].dll#<\DLL>84a  - Undefined Reference
    #<DLL>QtCore{00040703}[2001b2dc].dll#<\DLL>85  - Undefined Reference
    #<DLL>QtCore{00040703}[2001b2dc].dll#<\DLL>852  - Undefined Reference
    #<DLL>QtCore{00040703}[2001b2dc].dll#<\DLL>856  - Undefined Reference
    #<DLL>QtCore{00040703}[2001b2dc].dll#<\DLL>85d  - Undefined Reference
    #<DLL>QtCore{00040703}[2001b2dc].dll#<\DLL>85e  - Undefined Reference
    #<DLL>QtCore{00040703}[2001b2dc].dll#<\DLL>85f  - Undefined Reference
    #<DLL>QtCore{00040703}[2001b2dc].dll#<\DLL>879  - Undefined Reference
    #<DLL>QtCore{00040703}[2001b2dc].dll#<\DLL>88a  - Undefined Reference
    #<DLL>QtCore{00040703}[2001b2dc].dll#<\DLL>88c  - Undefined Reference
    #<DLL>QtCore{00040703}[2001b2dc].dll#<\DLL>88e  - Undefined Reference
    #<DLL>QtCore{00040703}[2001b2dc].dll#<\DLL>88f  - Undefined Reference
    #<DLL>QtCore{00040703}[2001b2dc].dll#<\DLL>891  - Undefined Reference
    #<DLL>QtCore{00040703}[2001b2dc].dll#<\DLL>894  - Undefined Reference
    #<DLL>QtCore{00040703}[2001b2dc].dll#<\DLL>895  - Undefined Reference
    #<DLL>QtCore{00040703}[2001b2dc].dll#<\DLL>897  - Undefined Reference
    #<DLL>QtCore{00040703}[2001b2dc].dll#<\DLL>8c  - Undefined Reference
    #<DLL>QtCore{00040703}[2001b2dc].dll#<\DLL>911  - Undefined Reference
    #<DLL>QtCore{00040703}[2001b2dc].dll#<\DLL>91a  - Undefined Reference
    #<DLL>QtCore{00040703}[2001b2dc].dll#<\DLL>91c  - Undefined Reference
    #<DLL>QtCore{00040703}[2001b2dc].dll#<\DLL>91e  - Undefined Reference
    #<DLL>QtCore{00040703}[2001b2dc].dll#<\DLL>924  - Undefined Reference
    #<DLL>QtCore{00040703}[2001b2dc].dll#<\DLL>925  - Undefined Reference
    #<DLL>QtCore{00040703}[2001b2dc].dll#<\DLL>929  - Undefined Reference
    #<DLL>QtCore{00040703}[2001b2dc].dll#<\DLL>930  - Undefined Reference
    #<DLL>QtCore{00040703}[2001b2dc].dll#<\DLL>937  - Undefined Reference
    #<DLL>QtCore{00040703}[2001b2dc].dll#<\DLL>938  - Undefined Reference
    #<DLL>QtCore{00040703}[2001b2dc].dll#<\DLL>949  - Undefined Reference
    #<DLL>QtCore{00040703}[2001b2dc].dll#<\DLL>94c  - Undefined Reference
    #<DLL>QtCore{00040703}[2001b2dc].dll#<\DLL>96  - Undefined Reference
    #<DLL>QtCore{00040703}[2001b2dc].dll#<\DLL>99  - Undefined Reference
    #<DLL>QtCore{00040703}[2001b2dc].dll#<\DLL>9f  - Undefined Reference
    #<DLL>QtCore{00040703}[2001b2dc].dll#<\DLL>a0  - Undefined Reference
    #<DLL>QtCore{00040703}[2001b2dc].dll#<\DLL>a7  - Undefined Reference
    #<DLL>QtCore{00040703}[2001b2dc].dll#<\DLL>a8  - Undefined Reference
    #<DLL>QtCore{00040703}[2001b2dc].dll#<\DLL>af  - Undefined Reference
    #<DLL>QtCore{00040703}[2001b2dc].dll#<\DLL>b1  - Undefined Reference
    #<DLL>QtCore{00040703}[2001b2dc].dll#<\DLL>b3  - Undefined Reference
    #<DLL>QtCore{00040703}[2001b2dc].dll#<\DLL>b43  - Undefined Reference
    #<DLL>QtCore{00040703}[2001b2dc].dll#<\DLL>b44  - Undefined Reference
    #<DLL>QtCore{00040703}[2001b2dc].dll#<\DLL>b45  - Undefined Reference
    #<DLL>QtCore{00040703}[2001b2dc].dll#<\DLL>b54  - Undefined Reference
    #<DLL>QtCore{00040703}[2001b2dc].dll#<\DLL>b6  - Undefined Reference
    #<DLL>QtCore{00040703}[2001b2dc].dll#<\DLL>b61  - Undefined Reference
    #<DLL>QtCore{00040703}[2001b2dc].dll#<\DLL>b62  - Undefined Reference
    #<DLL>QtCore{00040703}[2001b2dc].dll#<\DLL>b63  - Undefined Reference
    #<DLL>QtCore{00040703}[2001b2dc].dll#<\DLL>b64  - Undefined Reference
    #<DLL>QtCore{00040703}[2001b2dc].dll#<\DLL>bce  - Undefined Reference
    #<DLL>QtCore{00040703}[2001b2dc].dll#<\DLL>bd9  - Undefined Reference
    #<DLL>QtCore{00040703}[2001b2dc].dll#<\DLL>be0  - Undefined Reference
    #<DLL>QtCore{00040703}[2001b2dc].dll#<\DLL>bee  - Undefined Reference
    #<DLL>QtCore{00040703}[2001b2dc].dll#<\DLL>bef  - Undefined Reference
    #<DLL>QtCore{00040703}[2001b2dc].dll#<\DLL>bf3  - Undefined Reference
    #<DLL>QtCore{00040703}[2001b2dc].dll#<\DLL>bf8  - Undefined Reference
    #<DLL>QtCore{00040703}[2001b2dc].dll#<\DLL>bfa  - Undefined Reference
    #<DLL>QtCore{00040703}[2001b2dc].dll#<\DLL>c00  - Undefined Reference
    #<DLL>QtCore{00040703}[2001b2dc].dll#<\DLL>c05  - Undefined Reference
    #<DLL>QtCore{00040703}[2001b2dc].dll#<\DLL>c09  - Undefined Reference
    #<DLL>QtCore{00040703}[2001b2dc].dll#<\DLL>c0f  - Undefined Reference
    #<DLL>QtCore{00040703}[2001b2dc].dll#<\DLL>c17  - Undefined Reference
    #<DLL>QtCore{00040703}[2001b2dc].dll#<\DLL>c1a  - Undefined Reference
    #<DLL>QtCore{00040703}[2001b2dc].dll#<\DLL>c1d  - Undefined Reference
    #<DLL>QtCore{00040703}[2001b2dc].dll#<\DLL>c3b  - Undefined Reference
    #<DLL>QtCore{00040703}[2001b2dc].dll#<\DLL>c40  - Undefined Reference
    #<DLL>QtCore{00040703}[2001b2dc].dll#<\DLL>c43  - Undefined Reference
    #<DLL>QtCore{00040703}[2001b2dc].dll#<\DLL>c46  - Undefined Reference
    #<DLL>QtCore{00040703}[2001b2dc].dll#<\DLL>c5b  - Undefined Reference
    #<DLL>QtCore{00040703}[2001b2dc].dll#<\DLL>c62  - Undefined Reference
    #<DLL>QtCore{00040703}[2001b2dc].dll#<\DLL>c63  - Undefined Reference
    #<DLL>QtCore{00040703}[2001b2dc].dll#<\DLL>c65  - Undefined Reference
    #<DLL>QtCore{00040703}[2001b2dc].dll#<\DLL>c72  - Undefined Reference
    #<DLL>QtCore{00040703}[2001b2dc].dll#<\DLL>c73  - Undefined Reference
    #<DLL>QtCore{00040703}[2001b2dc].dll#<\DLL>c8c  - Undefined Reference
    #<DLL>QtCore{00040703}[2001b2dc].dll#<\DLL>c92  - Undefined Reference
    #<DLL>QtCore{00040703}[2001b2dc].dll#<\DLL>c93  - Undefined Reference
    #<DLL>QtCore{00040703}[2001b2dc].dll#<\DLL>ca  - Undefined Reference
    #<DLL>QtCore{00040703}[2001b2dc].dll#<\DLL>ce  - Undefined Reference
    #<DLL>QtCore{00040703}[2001b2dc].dll#<\DLL>e17  - Undefined Reference
    #<DLL>QtCore{00040703}[2001b2dc].dll#<\DLL>e18  - Undefined Reference
    #<DLL>QtCore{00040703}[2001b2dc].dll#<\DLL>e19  - Undefined Reference
    #<DLL>QtCore{00040703}[2001b2dc].dll#<\DLL>e1a  - Undefined Reference
    #<DLL>QtCore{00040703}[2001b2dc].dll#<\DLL>e5  - Undefined Reference
    #<DLL>QtCore{00040703}[2001b2dc].dll#<\DLL>e69  - Undefined Reference
    #<DLL>QtCore{00040703}[2001b2dc].dll#<\DLL>e6b  - Undefined Reference
    #<DLL>QtCore{00040703}[2001b2dc].dll#<\DLL>e6c  - Undefined Reference
    #<DLL>SENDUI{000a0000}[100058f0].DLL#<\DLL>2  - Undefined Reference
    #<DLL>SENDUI{000a0000}[100058f0].DLL#<\DLL>3  - Undefined Reference
    #<DLL>SENDUI{000a0000}[100058f0].DLL#<\DLL>31  - Undefined Reference
    #<DLL>SENDUI{000a0000}[100058f0].DLL#<\DLL>32  - Undefined Reference
    #<DLL>SENDUI{000a0000}[100058f0].DLL#<\DLL>4  - Undefined Reference
    #<DLL>SENDUI{000a0000}[100058f0].DLL#<\DLL>5  - Undefined Reference
    #<DLL>SENDUI{000a0000}[100058f0].DLL#<\DLL>6  - Undefined Reference
    #<DLL>SENDUI{000a0000}[100058f0].DLL#<\DLL>7  - Undefined Reference
    #<DLL>SENDUI{000a0000}[100058f0].DLL#<\DLL>b  - Undefined Reference
    #<DLL>apgrfx{000a0000}[10003a3c].dll#<\DLL>143  - Undefined Reference
    #<DLL>apgrfx{000a0000}[10003a3c].dll#<\DLL>19  - Undefined Reference
    #<DLL>apgrfx{000a0000}[10003a3c].dll#<\DLL>1c  - Undefined Reference
    #<DLL>apgrfx{000a0000}[10003a3c].dll#<\DLL>97  - Undefined Reference
    #<DLL>apmime{000a0000}[10003a1a].dll#<\DLL>3d  - Undefined Reference
    #<DLL>apmime{000a0000}[10003a1a].dll#<\DLL>4f  - Undefined Reference
    #<DLL>bafl{000a0000}[10003a0f].dll#<\DLL>28  - Undefined Reference
    #<DLL>bafl{000a0000}[10003a0f].dll#<\DLL>2b  - Undefined Reference
    #<DLL>drtaeabi{000a0000}.dll#<\DLL>87     - Undefined Reference
    #<DLL>drtaeabi{000a0000}.dll#<\DLL>93     - Undefined Reference
    #<DLL>drtaeabi{000a0000}.dll#<\DLL>9b     - Undefined Reference
    #<DLL>drtaeabi{000a0000}.dll#<\DLL>9e     - Undefined Reference
    #<DLL>drtaeabi{000a0000}.dll#<\DLL>9f     - Undefined Reference
    #<DLL>drtaeabi{000a0000}.dll#<\DLL>b4     - Undefined Reference
    #<DLL>drtaeabi{000a0000}.dll#<\DLL>b6     - Undefined Reference
    #<DLL>drtaeabi{000a0000}.dll#<\DLL>b7     - Undefined Reference
    #<DLL>drtaeabi{000a0000}.dll#<\DLL>b8     - Undefined Reference
    #<DLL>drtaeabi{000a0000}.dll#<\DLL>ba     - Undefined Reference
    #<DLL>drtaeabi{000a0000}.dll#<\DLL>bb     - Undefined Reference
    #<DLL>drtaeabi{000a0000}.dll#<\DLL>bc     - Undefined Reference
    #<DLL>drtaeabi{000a0000}.dll#<\DLL>be     - Undefined Reference
    #<DLL>drtrvct2_2{000a0000}.dll#<\DLL>1c   - Undefined Reference
    #<DLL>efsrv{000a0000}[100039e4].dll#<\DLL>108  - Undefined Reference
    #<DLL>efsrv{000a0000}[100039e4].dll#<\DLL>12a  - Undefined Reference
    #<DLL>efsrv{000a0000}[100039e4].dll#<\DLL>12c  - Undefined Reference
    #<DLL>efsrv{000a0000}[100039e4].dll#<\DLL>1b  - Undefined Reference
    #<DLL>efsrv{000a0000}[100039e4].dll#<\DLL>34  - Undefined Reference
    #<DLL>efsrv{000a0000}[100039e4].dll#<\DLL>44  - Undefined Reference
    #<DLL>efsrv{000a0000}[100039e4].dll#<\DLL>46  - Undefined Reference
    #<DLL>efsrv{000a0000}[100039e4].dll#<\DLL>5d  - Undefined Reference
    #<DLL>efsrv{000a0000}[100039e4].dll#<\DLL>5e  - Undefined Reference
    #<DLL>efsrv{000a0000}[100039e4].dll#<\DLL>61  - Undefined Reference
    #<DLL>efsrv{000a0000}[100039e4].dll#<\DLL>8d  - Undefined Reference
    #<DLL>efsrv{000a0000}[100039e4].dll#<\DLL>8f  - Undefined Reference
    #<DLL>efsrv{000a0000}[100039e4].dll#<\DLL>ff  - Undefined Reference
    #<DLL>etext{000a0000}[10003a1c].dll#<\DLL>75  - Undefined Reference
    #<DLL>etext{000a0000}[10003a1c].dll#<\DLL>7a  - Undefined Reference
    #<DLL>etext{000a0000}[10003a1c].dll#<\DLL>b2  - Undefined Reference
    #<DLL>euser{000a0000}[100039e5].dll#<\DLL>1a8  - Undefined Reference
    #<DLL>euser{000a0000}[100039e5].dll#<\DLL>1d7  - Undefined Reference
    #<DLL>euser{000a0000}[100039e5].dll#<\DLL>1d8  - Undefined Reference
    #<DLL>euser{000a0000}[100039e5].dll#<\DLL>1da  - Undefined Reference
    #<DLL>euser{000a0000}[100039e5].dll#<\DLL>1e1  - Undefined Reference
    #<DLL>euser{000a0000}[100039e5].dll#<\DLL>251  - Undefined Reference
    #<DLL>euser{000a0000}[100039e5].dll#<\DLL>289  - Undefined Reference
    #<DLL>euser{000a0000}[100039e5].dll#<\DLL>28c  - Undefined Reference
    #<DLL>euser{000a0000}[100039e5].dll#<\DLL>28e  - Undefined Reference
    #<DLL>euser{000a0000}[100039e5].dll#<\DLL>29d  - Undefined Reference
    #<DLL>euser{000a0000}[100039e5].dll#<\DLL>29e  - Undefined Reference
    #<DLL>euser{000a0000}[100039e5].dll#<\DLL>29f  - Undefined Reference
    #<DLL>euser{000a0000}[100039e5].dll#<\DLL>2e  - Undefined Reference
    #<DLL>euser{000a0000}[100039e5].dll#<\DLL>2e8  - Undefined Reference
    #<DLL>euser{000a0000}[100039e5].dll#<\DLL>330  - Undefined Reference
    #<DLL>euser{000a0000}[100039e5].dll#<\DLL>357  - Undefined Reference
    #<DLL>euser{000a0000}[100039e5].dll#<\DLL>35d  - Undefined Reference
    #<DLL>euser{000a0000}[100039e5].dll#<\DLL>37b  - Undefined Reference
    #<DLL>euser{000a0000}[100039e5].dll#<\DLL>37d  - Undefined Reference
    #<DLL>euser{000a0000}[100039e5].dll#<\DLL>37e  - Undefined Reference
    #<DLL>euser{000a0000}[100039e5].dll#<\DLL>39  - Undefined Reference
    #<DLL>euser{000a0000}[100039e5].dll#<\DLL>39d  - Undefined Reference
    #<DLL>euser{000a0000}[100039e5].dll#<\DLL>3a0  - Undefined Reference
    #<DLL>euser{000a0000}[100039e5].dll#<\DLL>3a1  - Undefined Reference
    #<DLL>euser{000a0000}[100039e5].dll#<\DLL>3b9  - Undefined Reference
    #<DLL>euser{000a0000}[100039e5].dll#<\DLL>3c8  - Undefined Reference
    #<DLL>euser{000a0000}[100039e5].dll#<\DLL>408  - Undefined Reference
    #<DLL>euser{000a0000}[100039e5].dll#<\DLL>409  - Undefined Reference
    #<DLL>euser{000a0000}[100039e5].dll#<\DLL>40a  - Undefined Reference
    #<DLL>euser{000a0000}[100039e5].dll#<\DLL>440  - Undefined Reference
    #<DLL>euser{000a0000}[100039e5].dll#<\DLL>441  - Undefined Reference
    #<DLL>euser{000a0000}[100039e5].dll#<\DLL>442  - Undefined Reference
    #<DLL>euser{000a0000}[100039e5].dll#<\DLL>443  - Undefined Reference
    #<DLL>euser{000a0000}[100039e5].dll#<\DLL>446  - Undefined Reference
    #<DLL>euser{000a0000}[100039e5].dll#<\DLL>45c  - Undefined Reference
    #<DLL>euser{000a0000}[100039e5].dll#<\DLL>45f  - Undefined Reference
    #<DLL>euser{000a0000}[100039e5].dll#<\DLL>491  - Undefined Reference
    #<DLL>euser{000a0000}[100039e5].dll#<\DLL>492  - Undefined Reference
    #<DLL>euser{000a0000}[100039e5].dll#<\DLL>493  - Undefined Reference
    #<DLL>euser{000a0000}[100039e5].dll#<\DLL>50  - Undefined Reference
    #<DLL>euser{000a0000}[100039e5].dll#<\DLL>51  - Undefined Reference
    #<DLL>euser{000a0000}[100039e5].dll#<\DLL>5bc  - Undefined Reference
    #<DLL>euser{000a0000}[100039e5].dll#<\DLL>5bd  - Undefined Reference
    #<DLL>euser{000a0000}[100039e5].dll#<\DLL>5c2  - Undefined Reference
    #<DLL>euser{000a0000}[100039e5].dll#<\DLL>5c5  - Undefined Reference
    #<DLL>euser{000a0000}[100039e5].dll#<\DLL>5c6  - Undefined Reference
    #<DLL>euser{000a0000}[100039e5].dll#<\DLL>5c7  - Undefined Reference
    #<DLL>euser{000a0000}[100039e5].dll#<\DLL>5c8  - Undefined Reference
    #<DLL>euser{000a0000}[100039e5].dll#<\DLL>5c9  - Undefined Reference
    #<DLL>euser{000a0000}[100039e5].dll#<\DLL>5ca  - Undefined Reference
    #<DLL>euser{000a0000}[100039e5].dll#<\DLL>5e3  - Undefined Reference
    #<DLL>euser{000a0000}[100039e5].dll#<\DLL>5e6  - Undefined Reference
    #<DLL>euser{000a0000}[100039e5].dll#<\DLL>611  - Undefined Reference
    #<DLL>euser{000a0000}[100039e5].dll#<\DLL>636  - Undefined Reference
    #<DLL>euser{000a0000}[100039e5].dll#<\DLL>637  - Undefined Reference
    #<DLL>euser{000a0000}[100039e5].dll#<\DLL>639  - Undefined Reference
    #<DLL>euser{000a0000}[100039e5].dll#<\DLL>641  - Undefined Reference
    #<DLL>euser{000a0000}[100039e5].dll#<\DLL>642  - Undefined Reference
    #<DLL>euser{000a0000}[100039e5].dll#<\DLL>68f  - Undefined Reference
    #<DLL>euser{000a0000}[100039e5].dll#<\DLL>6b7  - Undefined Reference
    #<DLL>euser{000a0000}[100039e5].dll#<\DLL>6c5  - Undefined Reference
    #<DLL>euser{000a0000}[100039e5].dll#<\DLL>70e  - Undefined Reference
    #<DLL>euser{000a0000}[100039e5].dll#<\DLL>70f  - Undefined Reference
    #<DLL>euser{000a0000}[100039e5].dll#<\DLL>71d  - Undefined Reference
    #<DLL>euser{000a0000}[100039e5].dll#<\DLL>78  - Undefined Reference
    #<DLL>euser{000a0000}[100039e5].dll#<\DLL>80c  - Undefined Reference
    #<DLL>euser{000a0000}[100039e5].dll#<\DLL>80d  - Undefined Reference
    #<DLL>euser{000a0000}[100039e5].dll#<\DLL>822  - Undefined Reference
    #<DLL>euser{000a0000}[100039e5].dll#<\DLL>84b  - Undefined Reference
    #<DLL>euser{000a0000}[100039e5].dll#<\DLL>84d  - Undefined Reference
    #<DLL>euser{000a0000}[100039e5].dll#<\DLL>850  - Undefined Reference
    #<DLL>euser{000a0000}[100039e5].dll#<\DLL>ca  - Undefined Reference
    #<DLL>euser{000a0000}[100039e5].dll#<\DLL>cb  - Undefined Reference
    #<DLL>euser{000a0000}[100039e5].dll#<\DLL>cd  - Undefined Reference
    #<DLL>euser{000a0000}[100039e5].dll#<\DLL>cf  - Undefined Reference
    #<DLL>euser{000a0000}[100039e5].dll#<\DLL>d0  - Undefined Reference
    #<DLL>euser{000a0000}[100039e5].dll#<\DLL>d1  - Undefined Reference
    #<DLL>euser{000a0000}[100039e5].dll#<\DLL>f7  - Undefined Reference
    #<DLL>euser{000a0000}[100039e5].dll#<\DLL>fa  - Undefined Reference
    #<DLL>gsmu{000a0000}[10000849].dll#<\DLL>102  - Undefined Reference
    #<DLL>gsmu{000a0000}[10000849].dll#<\DLL>105  - Undefined Reference
    #<DLL>gsmu{000a0000}[10000849].dll#<\DLL>10c  - Undefined Reference
    #<DLL>gsmu{000a0000}[10000849].dll#<\DLL>118  - Undefined Reference
    #<DLL>gsmu{000a0000}[10000849].dll#<\DLL>95  - Undefined Reference
    #<DLL>imcm{000a0000}[10004839].dll#<\DLL>11  - Undefined Reference
    #<DLL>imcm{000a0000}[10004839].dll#<\DLL>12  - Undefined Reference
    #<DLL>imcm{000a0000}[10004839].dll#<\DLL>14  - Undefined Reference
    #<DLL>imcm{000a0000}[10004839].dll#<\DLL>164  - Undefined Reference
    #<DLL>imcm{000a0000}[10004839].dll#<\DLL>172  - Undefined Reference
    #<DLL>imcm{000a0000}[10004839].dll#<\DLL>174  - Undefined Reference
    #<DLL>imcm{000a0000}[10004839].dll#<\DLL>175  - Undefined Reference
    #<DLL>imcm{000a0000}[10004839].dll#<\DLL>177  - Undefined Reference
    #<DLL>imcm{000a0000}[10004839].dll#<\DLL>17d  - Undefined Reference
    #<DLL>imcm{000a0000}[10004839].dll#<\DLL>17e  - Undefined Reference
    #<DLL>imcm{000a0000}[10004839].dll#<\DLL>181  - Undefined Reference
    #<DLL>imcm{000a0000}[10004839].dll#<\DLL>189  - Undefined Reference
    #<DLL>imcm{000a0000}[10004839].dll#<\DLL>19a  - Undefined Reference
    #<DLL>imcm{000a0000}[10004839].dll#<\DLL>20b  - Undefined Reference
    #<DLL>imcm{000a0000}[10004839].dll#<\DLL>20c  - Undefined Reference
    #<DLL>imcm{000a0000}[10004839].dll#<\DLL>210  - Undefined Reference
    #<DLL>imcm{000a0000}[10004839].dll#<\DLL>292  - Undefined Reference
    #<DLL>imcm{000a0000}[10004839].dll#<\DLL>2ae  - Undefined Reference
    #<DLL>imcm{000a0000}[10004839].dll#<\DLL>2d8  - Undefined Reference
    #<DLL>imcm{000a0000}[10004839].dll#<\DLL>2e7  - Undefined Reference
    #<DLL>imcm{000a0000}[10004839].dll#<\DLL>2e9  - Undefined Reference
    #<DLL>imcm{000a0000}[10004839].dll#<\DLL>2ea  - Undefined Reference
    #<DLL>imcm{000a0000}[10004839].dll#<\DLL>2f9  - Undefined Reference
    #<DLL>imcm{000a0000}[10004839].dll#<\DLL>4a  - Undefined Reference
    #<DLL>imcm{000a0000}[10004839].dll#<\DLL>53  - Undefined Reference
    #<DLL>imcm{000a0000}[10004839].dll#<\DLL>58  - Undefined Reference
    #<DLL>imcm{000a0000}[10004839].dll#<\DLL>59  - Undefined Reference
    #<DLL>imcm{000a0000}[10004839].dll#<\DLL>7  - Undefined Reference
    #<DLL>imcm{000a0000}[10004839].dll#<\DLL>9  - Undefined Reference
    #<DLL>imcm{000a0000}[10004839].dll#<\DLL>b  - Undefined Reference
    #<DLL>imcm{000a0000}[10004839].dll#<\DLL>e4  - Undefined Reference
    #<DLL>libc{00010000}[10207369].dll#<\DLL>15e  - Undefined Reference
    #<DLL>libc{00010000}[10207369].dll#<\DLL>e8  - Undefined Reference
    #<DLL>libstdcpp{00010000}[10282872].dll#<\DLL>3dc  - Undefined Reference
    #<DLL>libstdcpp{00010000}[10282872].dll#<\DLL>3e0  - Undefined Reference
    #<DLL>msgs{000a0000}[10004e66].dll#<\DLL>126  - Undefined Reference
    #<DLL>msgs{000a0000}[10004e66].dll#<\DLL>127  - Undefined Reference
    #<DLL>msgs{000a0000}[10004e66].dll#<\DLL>153  - Undefined Reference
    #<DLL>msgs{000a0000}[10004e66].dll#<\DLL>157  - Undefined Reference
    #<DLL>msgs{000a0000}[10004e66].dll#<\DLL>16  - Undefined Reference
    #<DLL>msgs{000a0000}[10004e66].dll#<\DLL>162  - Undefined Reference
    #<DLL>msgs{000a0000}[10004e66].dll#<\DLL>163  - Undefined Reference
    #<DLL>msgs{000a0000}[10004e66].dll#<\DLL>166  - Undefined Reference
    #<DLL>msgs{000a0000}[10004e66].dll#<\DLL>169  - Undefined Reference
    #<DLL>msgs{000a0000}[10004e66].dll#<\DLL>16c  - Undefined Reference
    #<DLL>msgs{000a0000}[10004e66].dll#<\DLL>16d  - Undefined Reference
    #<DLL>msgs{000a0000}[10004e66].dll#<\DLL>171  - Undefined Reference
    #<DLL>msgs{000a0000}[10004e66].dll#<\DLL>172  - Undefined Reference
    #<DLL>msgs{000a0000}[10004e66].dll#<\DLL>173  - Undefined Reference
    #<DLL>msgs{000a0000}[10004e66].dll#<\DLL>178  - Undefined Reference
    #<DLL>msgs{000a0000}[10004e66].dll#<\DLL>179  - Undefined Reference
    #<DLL>msgs{000a0000}[10004e66].dll#<\DLL>17a  - Undefined Reference
    #<DLL>msgs{000a0000}[10004e66].dll#<\DLL>180  - Undefined Reference
    #<DLL>msgs{000a0000}[10004e66].dll#<\DLL>182  - Undefined Reference
    #<DLL>msgs{000a0000}[10004e66].dll#<\DLL>187  - Undefined Reference
    #<DLL>msgs{000a0000}[10004e66].dll#<\DLL>192  - Undefined Reference
    #<DLL>msgs{000a0000}[10004e66].dll#<\DLL>194  - Undefined Reference
    #<DLL>msgs{000a0000}[10004e66].dll#<\DLL>195  - Undefined Reference
    #<DLL>msgs{000a0000}[10004e66].dll#<\DLL>198  - Undefined Reference
    #<DLL>msgs{000a0000}[10004e66].dll#<\DLL>1d3  - Undefined Reference
    #<DLL>msgs{000a0000}[10004e66].dll#<\DLL>1d5  - Undefined Reference
    #<DLL>msgs{000a0000}[10004e66].dll#<\DLL>1d6  - Undefined Reference
    #<DLL>msgs{000a0000}[10004e66].dll#<\DLL>1d7  - Undefined Reference
    #<DLL>msgs{000a0000}[10004e66].dll#<\DLL>1d9  - Undefined Reference
    #<DLL>msgs{000a0000}[10004e66].dll#<\DLL>1dd  - Undefined Reference
    #<DLL>msgs{000a0000}[10004e66].dll#<\DLL>22  - Undefined Reference
    #<DLL>msgs{000a0000}[10004e66].dll#<\DLL>276  - Undefined Reference
    #<DLL>msgs{000a0000}[10004e66].dll#<\DLL>277  - Undefined Reference
    #<DLL>msgs{000a0000}[10004e66].dll#<\DLL>280  - Undefined Reference
    #<DLL>msgs{000a0000}[10004e66].dll#<\DLL>283  - Undefined Reference
    #<DLL>msgs{000a0000}[10004e66].dll#<\DLL>294  - Undefined Reference
    #<DLL>msgs{000a0000}[10004e66].dll#<\DLL>299  - Undefined Reference
    #<DLL>msgs{000a0000}[10004e66].dll#<\DLL>2bc  - Undefined Reference
    #<DLL>msgs{000a0000}[10004e66].dll#<\DLL>2c3  - Undefined Reference
    #<DLL>msgs{000a0000}[10004e66].dll#<\DLL>2c7  - Undefined Reference
    #<DLL>msgs{000a0000}[10004e66].dll#<\DLL>2c8  - Undefined Reference
    #<DLL>msgs{000a0000}[10004e66].dll#<\DLL>2cb  - Undefined Reference
    #<DLL>msgs{000a0000}[10004e66].dll#<\DLL>2cc  - Undefined Reference
    #<DLL>msgs{000a0000}[10004e66].dll#<\DLL>31e  - Undefined Reference
    #<DLL>msgs{000a0000}[10004e66].dll#<\DLL>31f  - Undefined Reference
    #<DLL>msgs{000a0000}[10004e66].dll#<\DLL>321  - Undefined Reference
    #<DLL>msgs{000a0000}[10004e66].dll#<\DLL>322  - Undefined Reference
    #<DLL>msgs{000a0000}[10004e66].dll#<\DLL>33c  - Undefined Reference
    #<DLL>msgs{000a0000}[10004e66].dll#<\DLL>33d  - Undefined Reference
    #<DLL>msgs{000a0000}[10004e66].dll#<\DLL>340  - Undefined Reference
    #<DLL>msgs{000a0000}[10004e66].dll#<\DLL>341  - Undefined Reference
    #<DLL>msgs{000a0000}[10004e66].dll#<\DLL>67  - Undefined Reference
    #<DLL>msgs{000a0000}[10004e66].dll#<\DLL>a8  - Undefined Reference
    #<DLL>msgs{000a0000}[10004e66].dll#<\DLL>f9  - Undefined Reference
    #<DLL>msgs{000a0000}[10004e66].dll#<\DLL>fa  - Undefined Reference
    #<DLL>msgs{000a0000}[10004e66].dll#<\DLL>fe  - Undefined Reference
    #<DLL>mtur{000a0000}[10004835].dll#<\DLL>1f  - Undefined Reference
    #<DLL>mtur{000a0000}[10004835].dll#<\DLL>20  - Undefined Reference
    #<DLL>mtur{000a0000}[10004835].dll#<\DLL>3a  - Undefined Reference
    #<DLL>smcm{000a0000}[1000483b].dll#<\DLL>119  - Undefined Reference
    #<DLL>smcm{000a0000}[1000483b].dll#<\DLL>11a  - Undefined Reference
    #<DLL>smcm{000a0000}[1000483b].dll#<\DLL>11b  - Undefined Reference
    #<DLL>smcm{000a0000}[1000483b].dll#<\DLL>11d  - Undefined Reference
    #<DLL>smcm{000a0000}[1000483b].dll#<\DLL>15  - Undefined Reference
    #<DLL>smcm{000a0000}[1000483b].dll#<\DLL>17  - Undefined Reference
    #<DLL>smcm{000a0000}[1000483b].dll#<\DLL>1f  - Undefined Reference
    #<DLL>smcm{000a0000}[1000483b].dll#<\DLL>2a  - Undefined Reference
    #<DLL>smcm{000a0000}[1000483b].dll#<\DLL>2c  - Undefined Reference
    #<DLL>smcm{000a0000}[1000483b].dll#<\DLL>5  - Undefined Reference
    QByteArray::shared_null                   - Undefined Reference
    QCoreApplication::self                    - Undefined Reference
    QObject::staticMetaObject                 - Undefined Reference
    QString::shared_null                      - Undefined Reference
    QMapData::shared_null                     - Undefined Reference
    QHashData::shared_null                    - Undefined Reference
    QListData::shared_null                    - Undefined Reference
    typeinfo for XLeaveException              - Undefined Reference
    typeinfo for CBase                        - Undefined Reference
    typeinfo for CActive                      - Undefined Reference
    typeinfo for QObject                      - Undefined Reference
    typeinfo for std::exception               - Undefined Reference
    vtable for __cxxabiv1::__class_type_info  - Undefined Reference
    vtable for __cxxabiv1::__si_class_type_info  - Undefined Reference
    vtable for __cxxabiv1::__vmi_class_type_info  - Undefined Reference
    _fp_init                                  - Undefined Weak Reference
    Image$$ER_RO$$Base                       0x00008000   Number         0  anon$$obj.o(linker$$defined$$symbols)
    _E32Dll                                  0x00008000   ARM Code      40  uc_dll_.o(.emb_text)
    Symbian$$CPP$$Exception$$Descriptor      0x00008014   Data           0  uc_dll_.o(.emb_text)
    __cpp_initialize__aeabi_                 0x00008028   ARM Code      72  ucppinit_aeabi.o(.emb_text)
    QtMobility::QMessageId::operator !=(const QtMobility::QMessageId&) const 0x00008071   Thumb Code    12  QtMessaging.in(.text)
    std::nothrow                             0x00008071   Thumb Code     0  ucppinit_aeabi.o(.emb_text)
    QtMobility::QMessageContentContainerId::operator !=(const QtMobility::QMessageContentContainerId&) const 0x0000808d   Thumb Code    12  QtMessaging.in(.text)
    QtMobility::QMessageFolderId::operator !=(const QtMobility::QMessageFolderId&) const 0x00008099   Thumb Code    12  QtMessaging.in(.text)
    QtMobility::QMessageAccountId::operator !=(const QtMobility::QMessageAccountId&) const 0x000080a5   Thumb Code    12  QtMessaging.in(.text)
    QtMobility::qParseMailbox(QString&, QString&, QString&, QString&, bool&, bool&) 0x0000818f   Thumb Code   360  QtMessaging.in(.text)
    QtMobility::QMessageAddress::QMessageAddress() 0x00008301   Thumb Code    40  QtMessaging.in(.text)
    QtMobility::QMessageAddress::QMessageAddress__sub_object() 0x00008301   Thumb Code     0  QtMessaging.in(.text)
    QtMobility::QMessageAddress::QMessageAddress(QtMobility::QMessageAddress::Type, const QString&) 0x00008329   Thumb Code    52  QtMessaging.in(.text)
    QtMobility::QMessageAddress::QMessageAddress__sub_object(QtMobility::QMessageAddress::Type, const QString&) 0x00008329   Thumb Code     0  QtMessaging.in(.text)
    QtMobility::QMessageAddress::operator =(const QtMobility::QMessageAddress&) 0x0000835d   Thumb Code    34  QtMessaging.in(.text)
    QtMobility::QMessageAddress::QMessageAddress(const QtMobility::QMessageAddress&) 0x0000837f   Thumb Code    46  QtMessaging.in(.text)
    QtMobility::QMessageAddress::QMessageAddress__sub_object(const QtMobility::QMessageAddress&) 0x0000837f   Thumb Code     0  QtMessaging.in(.text)
    QtMobility::QMessageAddress::~QMessageAddress() 0x000083ad   Thumb Code    34  QtMessaging.in(.text)
    QtMobility::QMessageAddress::~QMessageAddress__sub_object() 0x000083ad   Thumb Code     0  QtMessaging.in(.text)
    QtMobility::QMessageAddress::~QMessageAddress__deallocating() 0x000083cf   Thumb Code    16  QtMessaging.in(.text)
    QtMobility::QMessageAddress::operator ==(const QtMobility::QMessageAddress&) const 0x000083df   Thumb Code    34  QtMessaging.in(.text)
    QtMobility::QMessageAddress::operator !=(const QtMobility::QMessageAddress&) const 0x00008401   Thumb Code    12  QtMessaging.in(.text)
    QtMobility::QMessageAddress::type() const 0x0000840d   Thumb Code     6  QtMessaging.in(.text)
    QtMobility::QMessageAddress::setType(QtMobility::QMessageAddress::Type) 0x00008413   Thumb Code     6  QtMessaging.in(.text)
    QtMobility::QMessageAddress::addressee() const 0x00008419   Thumb Code    12  QtMessaging.in(.text)
    QtMobility::QMessageAddress::setAddressee(const QString&) 0x00008425   Thumb Code    12  QtMessaging.in(.text)
    QtMobility::QMessageAddress::parseEmailAddress(const QString&, QString*, QString*, QString*, bool*, bool*) 0x00008431   Thumb Code   120  QtMessaging.in(.text)
    QtMobility::QMessage::setPreferredCharsets(const QList<QByteArray>&) 0x000084ad   Thumb Code    52  QtMessaging.in(.text)
    QtMobility::QMessage::preferredCharsets() 0x000084e1   Thumb Code    10  QtMessaging.in(.text)
    QtMobility::QMessage::preferredCharsetFor(const QString&) 0x000084eb   Thumb Code   434  QtMessaging.in(.text)
    QtMobility::QMessageAccountFilter::operator !=(const QtMobility::QMessageAccountFilter&) const 0x000086ed   Thumb Code    12  QtMessaging.in(.text)
    QtMobility::QMessageAccountSortOrder::operator !=(const QtMobility::QMessageAccountSortOrder&) const 0x000086f9   Thumb Code    12  QtMessaging.in(.text)
    QtMobility::QMessageFolderFilter::operator !=(const QtMobility::QMessageFolderFilter&) const 0x00008705   Thumb Code    12  QtMessaging.in(.text)
    QtMobility::QMessageFolderSortOrder::operator !=(const QtMobility::QMessageFolderSortOrder&) const 0x00008711   Thumb Code    12  QtMessaging.in(.text)
    QtMobility::QMessageFilter::operator !=(const QtMobility::QMessageFilter&) const 0x0000871d   Thumb Code    12  QtMessaging.in(.text)
    QtMobility::QMessageManager::getStaticMetaObject() 0x00008729   Thumb Code     4  QtMessaging.in(.text)
    QtMobility::QMessageManager::metaObject() const 0x0000872d   Thumb Code    12  QtMessaging.in(.text)
    QtMobility::QMessageManager::qt_metacast(const char*) 0x00008739   Thumb Code    40  QtMessaging.in(.text)
    QtMobility::QMessageManager::messageUpdated(const QtMobility::QMessageId&, const QSet<int>&) 0x00008761   Thumb Code    32  QtMessaging.in(.text)
    QtMobility::QMessageManager::messageRemoved(const QtMobility::QMessageId&, const QSet<int>&) 0x00008781   Thumb Code    32  QtMessaging.in(.text)
    QtMobility::QMessageManager::messageAdded(const QtMobility::QMessageId&, const QSet<int>&) 0x000087a1   Thumb Code    30  QtMessaging.in(.text)
    QtMobility::QMessageManager::qt_metacall(QMetaObject::Call, int, void**) 0x000087bf   Thumb Code    72  QtMessaging.in(.text)
    QtMobility::QMessageManager::QMessageManager(QObject*) 0x00008807   Thumb Code    72  QtMessaging.in(.text)
    QtMobility::QMessageManager::QMessageManager__sub_object(QObject*) 0x00008807   Thumb Code     0  QtMessaging.in(.text)
    QtMobility::QMessageManager::~QMessageManager() 0x0000884f   Thumb Code     8  QtMessaging.in(.text)
    QtMobility::QMessageManager::~QMessageManager__sub_object() 0x0000884f   Thumb Code     0  QtMessaging.in(.text)
    QtMobility::QMessageManager::~QMessageManager__deallocating() 0x00008857   Thumb Code    16  QtMessaging.in(.text)
    QtMobility::QMessageManager::error() const 0x00008867   Thumb Code    10  QtMessaging.in(.text)
    QtMobility::QMessageManager::queryMessages(const QtMobility::QMessageFilter&, const QtMobility::QMessageSortOrder&, unsigned, unsigned) const 0x00008871   Thumb Code    24  QtMessaging.in(.text)
    QtMobility::QMessageManager::queryMessages(const QtMobility::QMessageFilter&, const QList<QtMobility::QMessageSortOrder>&, unsigned, unsigned) const 0x00008889   Thumb Code   118  QtMessaging.in(.text)
    QtMobility::QMessageManager::queryMessages(const QtMobility::QMessageFilter&, const QString&, QFlags<QtMobility::QMessageDataComparator::MatchFlag>, const QtMobility::QMessageSortOrder&, unsigned, unsigned) const 0x000088ff   Thumb Code    44  QtMessaging.in(.text)
    QtMobility::QMessageManager::queryMessages(const QtMobility::QMessageFilter&, const QString&, QFlags<QtMobility::QMessageDataComparator::MatchFlag>, const QList<QtMobility::QMessageSortOrder>&, unsigned, unsigned) const 0x0000892b   Thumb Code   128  QtMessaging.in(.text)
    QtMobility::QMessageManager::queryFolders(const QtMobility::QMessageFolderFilter&, const QtMobility::QMessageFolderSortOrder&, unsigned, unsigned) const 0x000089ab   Thumb Code    24  QtMessaging.in(.text)
    QtMobility::QMessageManager::queryFolders(const QtMobility::QMessageFolderFilter&, const QList<QtMobility::QMessageFolderSortOrder>&, unsigned, unsigned) const 0x000089c3   Thumb Code   170  QtMessaging.in(.text)
    QtMobility::QMessageManager::queryAccounts(const QtMobility::QMessageAccountFilter&, const QtMobility::QMessageAccountSortOrder&, unsigned, unsigned) const 0x00008a6d   Thumb Code    24  QtMessaging.in(.text)
    QtMobility::QMessageManager::queryAccounts(const QtMobility::QMessageAccountFilter&, const QList<QtMobility::QMessageAccountSortOrder>&, unsigned, unsigned) const 0x00008a85   Thumb Code    84  QtMessaging.in(.text)
    QtMobility::QMessageManager::countMessages(const QtMobility::QMessageFilter&) const 0x00008ad9   Thumb Code    10  QtMessaging.in(.text)
    QtMobility::QMessageManager::countFolders(const QtMobility::QMessageFolderFilter&) const 0x00008ae3   Thumb Code    10  QtMessaging.in(.text)
    QtMobility::QMessageManager::countAccounts(const QtMobility::QMessageAccountFilter&) const 0x00008aed   Thumb Code    10  QtMessaging.in(.text)
    QtMobility::QMessageManager::addMessage(QtMobility::QMessage*) 0x00008af7   Thumb Code    10  QtMessaging.in(.text)
    QtMobility::QMessageManager::updateMessage(QtMobility::QMessage*) 0x00008b01   Thumb Code    10  QtMessaging.in(.text)
    QtMobility::QMessageManager::removeMessage(const QtMobility::QMessageId&, QtMobility::QMessageManager::RemovalOption) 0x00008b0b   Thumb Code    10  QtMessaging.in(.text)
    QtMobility::QMessageManager::removeMessages(const QtMobility::QMessageFilter&, QtMobility::QMessageManager::RemovalOption) 0x00008b15   Thumb Code    10  QtMessaging.in(.text)
    QtMobility::QMessageManager::message(const QtMobility::QMessageId&) const 0x00008b1f   Thumb Code    10  QtMessaging.in(.text)
    QtMobility::QMessageManager::folder(const QtMobility::QMessageFolderId&) const 0x00008b29   Thumb Code    10  QtMessaging.in(.text)
    QtMobility::QMessageManager::account(const QtMobility::QMessageAccountId&) const 0x00008b33   Thumb Code    10  QtMessaging.in(.text)
    QtMobility::QMessageManager::registerNotificationFilter(const QtMobility::QMessageFilter&) 0x00008b3d   Thumb Code    10  QtMessaging.in(.text)
    QtMobility::QMessageManager::unregisterNotificationFilter(int) 0x00008b47   Thumb Code    10  QtMessaging.in(.text)
    QtMobility::QMessageSortOrder::operator !=(const QtMobility::QMessageSortOrder&) const 0x00008b65   Thumb Code    12  QtMessaging.in(.text)
    QtMobility::QMessageStore::getStaticMetaObject() 0x00008b71   Thumb Code     4  QtMessaging.in(.text)
    QtMobility::QMessageStore::metaObject() const 0x00008b75   Thumb Code    12  QtMessaging.in(.text)
    QtMobility::QMessageStore::qt_metacast(const char*) 0x00008b81   Thumb Code    40  QtMessaging.in(.text)
    QtMobility::QMessageStore::messageUpdated(const QtMobility::QMessageId&, const QSet<int>&) 0x00008ba9   Thumb Code    32  QtMessaging.in(.text)
    QtMobility::QMessageStore::messageRemoved(const QtMobility::QMessageId&, const QSet<int>&) 0x00008bc9   Thumb Code    32  QtMessaging.in(.text)
    QtMobility::QMessageStore::messageAdded(const QtMobility::QMessageId&, const QSet<int>&) 0x00008be9   Thumb Code    30  QtMessaging.in(.text)
    QtMobility::QMessageStore::qt_metacall(QMetaObject::Call, int, void**) 0x00008c07   Thumb Code    72  QtMessaging.in(.text)
    QtMobility::QMessageService::getStaticMetaObject() 0x00008c55   Thumb Code     4  QtMessaging.in(.text)
    QtMobility::QMessageService::metaObject() const 0x00008c59   Thumb Code    12  QtMessaging.in(.text)
    QtMobility::QMessageService::qt_metacast(const char*) 0x00008c65   Thumb Code    40  QtMessaging.in(.text)
    QtMobility::QMessageService::progressChanged(unsigned, unsigned) 0x00008c8d   Thumb Code    36  QtMessaging.in(.text)
    QtMobility::QMessageService::messagesCounted(int) 0x00008cb1   Thumb Code    30  QtMessaging.in(.text)
    QtMobility::QMessageService::messagesFound(const QList<QtMobility::QMessageId>&) 0x00008ccf   Thumb Code    24  QtMessaging.in(.text)
    QtMobility::QMessageService::stateChanged(QtMobility::QMessageService::State) 0x00008ce7   Thumb Code    26  QtMessaging.in(.text)
    QtMobility::QMessageService::qt_metacall(QMetaObject::Call, int, void**) 0x00008d01   Thumb Code    96  QtMessaging.in(.text)
    QtMobility::SymbianHelpers::idType(const QString&) 0x00008d65   Thumb Code    74  QtMessaging.in(.text)
    QtMobility::SymbianHelpers::idType(const QtMobility::QMessageId&) 0x00008daf   Thumb Code   108  QtMessaging.in(.text)
    QtMobility::SymbianHelpers::idType(const QtMobility::QMessageAccountId&) 0x00008e1b   Thumb Code   106  QtMessaging.in(.text)
    QtMobility::SymbianHelpers::idType(const QtMobility::QMessageFolderId&) 0x00008e85   Thumb Code   106  QtMessaging.in(.text)
    QtMobility::SymbianHelpers::addIdPrefix(const QString&, const QtMobility::SymbianHelpers::EngineType&) 0x00008eef   Thumb Code    74  QtMessaging.in(.text)
    QtMobility::SymbianHelpers::addIdPrefix(const QtMobility::QMessageAccountId&, const QtMobility::SymbianHelpers::EngineType&) 0x00008f39   Thumb Code   124  QtMessaging.in(.text)
    QtMobility::SymbianHelpers::addIdPrefix(const QtMobility::QMessageFolderId&, const QtMobility::SymbianHelpers::EngineType&) 0x00008fb5   Thumb Code   124  QtMessaging.in(.text)
    QtMobility::SymbianHelpers::addIdPrefix(const QtMobility::QMessageId&, const QtMobility::SymbianHelpers::EngineType&) 0x00009031   Thumb Code    94  QtMessaging.in(.text)
    QtMobility::SymbianHelpers::stripIdPrefix(const QString&) 0x0000908f   Thumb Code   146  QtMessaging.in(.text)
    QtMobility::SymbianHelpers::stripIdPrefix(const QtMobility::QMessageId&) 0x00009121   Thumb Code   266  QtMessaging.in(.text)
    QtMobility::SymbianHelpers::stripIdPrefix(const QtMobility::QMessageAccountId&) 0x0000922b   Thumb Code   264  QtMessaging.in(.text)
    QtMobility::SymbianHelpers::stripIdPrefix(const QtMobility::QMessageFolderId&) 0x00009333   Thumb Code   264  QtMessaging.in(.text)
    QtMobility::MessagingUtil::idPrefix()    0x0000943b   Thumb Code    62  QtMessaging.in(.text)
    QtMobility::MessagingUtil::addIdPrefix(const QString&) 0x00009479   Thumb Code   112  QtMessaging.in(.text)
    QtMobility::MessagingUtil::stripIdPrefix(const QString&) 0x000094e9   Thumb Code    88  QtMessaging.in(.text)
    QtMobility::CMTMEngine::getStaticMetaObject() 0x00009551   Thumb Code     4  QtMessaging.in(.text)
    QtMobility::CMTMEngine::metaObject() const 0x00009555   Thumb Code    12  QtMessaging.in(.text)
    QtMobility::CMTMEngine::qt_metacast(const char*) 0x00009561   Thumb Code    74  QtMessaging.in(.text)
    QtMobility::CMTMEngine::cleanupMTMBackend() 0x000095ab   Thumb Code   302  QtMessaging.in(.text)
    QtMobility::CMTMEngine::qt_metacall(QMetaObject::Call, int, void**) 0x000096d9   Thumb Code    34  QtMessaging.in(.text)
    QtMobility::CMTMEngine::updateEmailAccountsL() const 0x000096fb   Thumb Code  1398  QtMessaging.in(.text)
    QtMobility::CMTMEngine::mtmServiceEntryIdL(QtMobility::CMTMEngine::MTMType) const 0x00009c71   Thumb Code   172  QtMessaging.in(.text)
    QtMobility::CMTMEngine::CMTMEngine()     0x00009d1d   Thumb Code   980  QtMessaging.in(.text)
    QtMobility::CMTMEngine::CMTMEngine__sub_object() 0x00009d1d   Thumb Code     0  QtMessaging.in(.text)
    QtMobility::CMTMEngine::instance()       0x0000a165   Thumb Code     2  QtMessaging.in(.text)
    QtMobility::CMTMEngine::~CMTMEngine()    0x0000a167   Thumb Code   274  QtMessaging.in(.text)
    QtMobility::CMTMEngine::~CMTMEngine__sub_object() 0x0000a167   Thumb Code     0  QtMessaging.in(.text)
    QtMobility::CMTMEngine::~CMTMEngine__deallocating() 0x0000a279   Thumb Code    16  QtMessaging.in(.text)
    thunk{-8} to QtMobility::CMTMEngine::~CMTMEngine__deallocating() 0x0000a289   Thumb Code     4  QtMessaging.in(.text)
    thunk{-8} to QtMobility::CMTMEngine::~CMTMEngine() 0x0000a28d   Thumb Code     4  QtMessaging.in(.text)
    QtMobility::CMTMEngine::applyOffsetAndLimitToAccountIds(QList<QtMobility::QMessageAccountId>&, int, int) const 0x0000a291   Thumb Code   184  QtMessaging.in(.text)
    QtMobility::CMTMEngine::account(const QtMobility::QMessageAccountId&) const 0x0000a349   Thumb Code   198  QtMessaging.in(.text)
    QtMobility::CMTMEngine::accountLessThan(QtMobility::QMessageAccountId, QtMobility::QMessageAccountId) 0x0000a40f   Thumb Code    66  QtMessaging.in(.text)
    QtMobility::CMTMEngine::orderAccounts(QList<QtMobility::QMessageAccountId>&, const QtMobility::QMessageAccountSortOrder&) const 0x0000a451   Thumb Code    62  QtMessaging.in(.text)
    QtMobility::CMTMEngine::queryAccounts(const QtMobility::QMessageAccountFilter&, const QtMobility::QMessageAccountSortOrder&, unsigned, unsigned) const 0x0000a48f   Thumb Code   418  QtMessaging.in(.text)
    QtMobility::CMTMEngine::countAccounts(const QtMobility::QMessageAccountFilter&) const 0x0000a631   Thumb Code    58  QtMessaging.in(.text)
    QtMobility::CMTMEngine::defaultAccount(QtMobility::QMessage::Type) const 0x0000a66b   Thumb Code   192  QtMessaging.in(.text)
    QtMobility::CMTMEngine::applyOffsetAndLimitToMsgFolderIds(QList<QtMobility::QMessageFolderId>&, int, int) const 0x0000a72b   Thumb Code   110  QtMessaging.in(.text)
    QtMobility::CMTMEngine::releaseCMsvEntryAndPopFromCleanupStack(CMsvEntry*) const 0x0000a799   Thumb Code    70  QtMessaging.in(.text)
    QtMobility::CMTMEngine::accountIdByServiceId(long) const 0x0000a7df   Thumb Code   176  QtMessaging.in(.text)
    QtMobility::CMTMEngine::cmsvEntryCleanup(void*) 0x0000a88f   Thumb Code    66  QtMessaging.in(.text)
    QtMobility::CMTMEngine::retrieveCMsvEntryAndPushToCleanupStack(long) const 0x0000a8d1   Thumb Code   304  QtMessaging.in(.text)
    QtMobility::CMTMEngine::serviceEntryIdFromQMessageFolderId(const QtMobility::QMessageFolderId&) const 0x0000aa01   Thumb Code    60  QtMessaging.in(.text)
    QtMobility::CMTMEngine::folderIdFromQMessageFolderId(const QtMobility::QMessageFolderId&) const 0x0000aa3d   Thumb Code    60  QtMessaging.in(.text)
    QtMobility::CMTMEngine::folderL(const QtMobility::QMessageFolderId&) const 0x0000aa79   Thumb Code   184  QtMessaging.in(.text)
    QtMobility::CMTMEngine::folder(const QtMobility::QMessageFolderId&) const 0x0000ab31   Thumb Code   110  QtMessaging.in(.text)
    QtMobility::CMTMEngine::folderLessThan(QtMobility::QMessageFolderId, QtMobility::QMessageFolderId) 0x0000ab9f   Thumb Code    64  QtMessaging.in(.text)
    QtMobility::CMTMEngine::orderFolders(QList<QtMobility::QMessageFolderId>&, const QtMobility::QMessageFolderSortOrder&) const 0x0000abdf   Thumb Code    62  QtMessaging.in(.text)
    QtMobility::CMTMEngine::createQMessageFolderId(const long&, const long&) const 0x0000ac1d   Thumb Code   190  QtMessaging.in(.text)
    QtMobility::CMTMEngine::folderIdsByServiceEntryId(const long&, const long&) const 0x0000acdb   Thumb Code   526  QtMessaging.in(.text)
    QtMobility::CMTMEngine::folderIdsByAccountId(const QtMobility::QMessageAccountId&) const 0x0000aee9   Thumb Code    72  QtMessaging.in(.text)
    QtMobility::CMTMEngine::allFolders() const 0x0000af31   Thumb Code   168  QtMessaging.in(.text)
    QtMobility::CMTMEngine::filterMessageFoldersL(const QtMobility::QMessageFolderFilter&, bool&) const 0x0000afd9   Thumb Code  1356  QtMessaging.in(.text)
    QtMobility::CMTMEngine::filterMessageFolders(const QtMobility::QMessageFolderFilter&, bool&) const 0x0000b525   Thumb Code    80  QtMessaging.in(.text)
    QtMobility::CMTMEngine::handleNestedFiltersFromFolderFilter(QtMobility::QMessageFolderFilter&) const 0x0000b575   Thumb Code   904  QtMessaging.in(.text)
    QtMobility::CMTMEngine::queryFolders(const QtMobility::QMessageFolderFilter&, const QtMobility::QMessageFolderSortOrder&, unsigned, unsigned) const 0x0000b8fd   Thumb Code   462  QtMessaging.in(.text)
    QtMobility::CMTMEngine::countFolders(const QtMobility::QMessageFolderFilter&) const 0x0000bacb   Thumb Code    58  QtMessaging.in(.text)
    QtMobility::QMTMWait::~QMTMWait()        0x0000bb05   Thumb Code    32  QtMessaging.in(.text)
    QtMobility::QMTMWait::~QMTMWait__sub_object() 0x0000bb05   Thumb Code     0  QtMessaging.in(.text)
    QtMobility::QMTMWait::start()            0x0000bb25   Thumb Code    24  QtMessaging.in(.text)
    QtMobility::CMTMEngine::qDateTimeToSymbianTTime(const QDateTime&) const 0x0000bb3d   Thumb Code   204  QtMessaging.in(.text)
    QtMobility::CMTMEngine::privateFolderPath() 0x0000bc09   Thumb Code    94  QtMessaging.in(.text)
    QtMobility::QMTMWait::QMTMWait(int)      0x0000bc67   Thumb Code    36  QtMessaging.in(.text)
    QtMobility::QMTMWait::QMTMWait__sub_object(int) 0x0000bc67   Thumb Code     0  QtMessaging.in(.text)
    QtMobility::CMTMEngine::standardFolderId(QtMobility::QMessage::StandardFolder) 0x0000bc8b   Thumb Code    48  QtMessaging.in(.text)
    QtMobility::CMTMEngine::storeEmailL(QtMobility::QMessage&) 0x0000bcbb   Thumb Code  2716  QtMessaging.in(.text)
    QtMobility::CMTMEngine::storeEmail(QtMobility::QMessage&) 0x0000c757   Thumb Code    82  QtMessaging.in(.text)
    QtMobility::CMTMEngine::storeMMSL(QtMobility::QMessage&) 0x0000c7a9   Thumb Code  2308  QtMessaging.in(.text)
    QtMobility::CMTMEngine::storeMMS(QtMobility::QMessage&) 0x0000d0ad   Thumb Code    76  QtMessaging.in(.text)
    QtMobility::CMTMEngine::storeSMSL(QtMobility::QMessage&) 0x0000d0f9   Thumb Code   652  QtMessaging.in(.text)
    QtMobility::CMTMEngine::storeSMS(QtMobility::QMessage&) 0x0000d385   Thumb Code    76  QtMessaging.in(.text)
    QtMobility::CMTMEngine::addMessage(QtMobility::QMessage*) 0x0000d3d1   Thumb Code   264  QtMessaging.in(.text)
    QtMobility::CMTMEngine::updateEmailL(QtMobility::QMessage&) 0x0000d4d9   Thumb Code  2392  QtMessaging.in(.text)
    QtMobility::CMTMEngine::updateMMSL(QtMobility::QMessage&) 0x0000de31   Thumb Code  2248  QtMessaging.in(.text)
    QtMobility::CMTMEngine::updateSMSL(QtMobility::QMessage&) 0x0000e6f9   Thumb Code   704  QtMessaging.in(.text)
    QtMobility::CMTMEngine::updateMessage(QtMobility::QMessage*) 0x0000e9b9   Thumb Code   338  QtMessaging.in(.text)
    QtMobility::CMTMEngine::removeMessageL(const QtMobility::QMessageId&, QtMobility::QMessageManager::RemovalOption) 0x0000eb0b   Thumb Code   410  QtMessaging.in(.text)
    QtMobility::CMTMEngine::removeMessage(const QtMobility::QMessageId&, QtMobility::QMessageManager::RemovalOption) 0x0000eca5   Thumb Code    96  QtMessaging.in(.text)
    QtMobility::CMTMEngine::removeMessages(const QtMobility::QMessageFilter&, QtMobility::QMessageManager::RemovalOption) 0x0000ed05   Thumb Code     4  QtMessaging.in(.text)
    QtMobility::CMessagesFindOperation::getServiceSpecificMessagesFromFolderL(long, TMsvSelectionOrdering, long) 0x0000ed09   Thumb Code   356  QtMessaging.in(.text)
    QtMobility::CMessagesFindOperation::getServiceSpecificMessagesL(long, TMsvSelectionOrdering, QtMobility::QMessageFilterPrivate*) 0x0000ee6d   Thumb Code   420  QtMessaging.in(.text)
    QtMobility::CMessagesFindOperation::getAccountSpecificMessagesL(QtMobility::QMessageAccount&, TMsvSelectionOrdering, QtMobility::QMessageFilterPrivate*) 0x0000f011   Thumb Code   136  QtMessaging.in(.text)
    QtMobility::CMessagesFindOperation::getAllMessagesL(TMsvSelectionOrdering) 0x0000f099   Thumb Code   116  QtMessaging.in(.text)
    QtMobility::CMTMEngine::accountsByType(QtMobility::QMessage::Type) const 0x0000f10d   Thumb Code   132  QtMessaging.in(.text)
    QtMobility::CMessagesFindOperation::filterAndOrderMessages(const QList<QtMobility::QMessageFilter>&, const QtMobility::QMessageSortOrder&, QString, QFlags<QtMobility::QMessageDataComparator::MatchFlag>) 0x0000f191   Thumb Code  3662  QtMessaging.in(.text)
    QtMobility::CMessagesFindOperation::filterAndOrderMessages(const QtMobility::QMessageFilter&, const QtMobility::QMessageSortOrder&, QString, QFlags<QtMobility::QMessageDataComparator::MatchFlag>) 0x0000ffdf   Thumb Code   116  QtMessaging.in(.text)
    QtMobility::CMTMEngine::handleNestedFiltersFromMessageFilter(QtMobility::QMessageFilter&) const 0x00010053   Thumb Code  1630  QtMessaging.in(.text)
    QtMobility::CMessagesFindOperation::CMessagesFindOperation(QtMobility::CMTMEngine&, CMsvSession*, int) 0x000106b1   Thumb Code    92  QtMessaging.in(.text)
    QtMobility::CMessagesFindOperation::CMessagesFindOperation__sub_object(QtMobility::CMTMEngine&, CMsvSession*, int) 0x000106b1   Thumb Code     0  QtMessaging.in(.text)
    QtMobility::CMTMEngine::queryMessagesL(QtMobility::QMessageServicePrivate&, const QtMobility::QMessageFilter&, const QtMobility::QMessageSortOrder&, unsigned, unsigned) const 0x0001070d   Thumb Code   304  QtMessaging.in(.text)
    QtMobility::CMTMEngine::queryMessages(QtMobility::QMessageServicePrivate&, const QtMobility::QMessageFilter&, const QtMobility::QMessageSortOrder&, unsigned, unsigned) const 0x0001083d   Thumb Code    78  QtMessaging.in(.text)
    QtMobility::CMTMEngine::queryMessagesL(QtMobility::QMessageServicePrivate&, const QtMobility::QMessageFilter&, const QString&, QFlags<QtMobility::QMessageDataComparator::MatchFlag>, const QtMobility::QMessageSortOrder&, unsigned, unsigned) const 0x0001088b   Thumb Code   324  QtMessaging.in(.text)
    QtMobility::CMTMEngine::queryMessages(QtMobility::QMessageServicePrivate&, const QtMobility::QMessageFilter&, const QString&, QFlags<QtMobility::QMessageDataComparator::MatchFlag>, const QtMobility::QMessageSortOrder&, unsigned, unsigned) const 0x000109cf   Thumb Code    90  QtMessaging.in(.text)
    QtMobility::CMTMEngine::countMessagesL(QtMobility::QMessageServicePrivate&, const QtMobility::QMessageFilter&) 0x00010a29   Thumb Code   326  QtMessaging.in(.text)
    QtMobility::CMTMEngine::countMessages(QtMobility::QMessageServicePrivate&, const QtMobility::QMessageFilter&) 0x00010b6f   Thumb Code    72  QtMessaging.in(.text)
    QtMobility::CMTMEngine::showMessageL(const QtMobility::QMessageId&) 0x00010bb7   Thumb Code   180  QtMessaging.in(.text)
    QtMobility::CMTMEngine::showMessage(const QtMobility::QMessageId&) 0x00010c6b   Thumb Code    76  QtMessaging.in(.text)
    QtMobility::CMTMEngine::composeEmailL(const QtMobility::QMessage&) 0x00010cb7   Thumb Code   982  QtMessaging.in(.text)
    QtMobility::CMTMEngine::composeMMSL(const QtMobility::QMessage&) 0x0001108d   Thumb Code   710  QtMessaging.in(.text)
    QtMobility::CMTMEngine::composeSMSL(const QtMobility::QMessage&) 0x00011353   Thumb Code   304  QtMessaging.in(.text)
    QtMobility::CMTMEngine::composeMessage(const QtMobility::QMessage&) 0x00011483   Thumb Code   430  QtMessaging.in(.text)
    QtMobility::CMTMEngine::appendAttachmentToMessage(QtMobility::QMessage&, QtMobility::QMessageContentContainer&) const 0x00011631   Thumb Code   306  QtMessaging.in(.text)
    QtMobility::CMTMEngine::symbianTTimetoQDateTime(const TTime&) const 0x00011763   Thumb Code    74  QtMessaging.in(.text)
    QtMobility::CMTMEngine::emailMessageL(CMsvEntry&, long, bool) const 0x000117ad   Thumb Code  2238  QtMessaging.in(.text)
    QtMobility::CMTMEngine::mmsMessageL(CMsvEntry&, long, bool) const 0x0001206b   Thumb Code  1540  QtMessaging.in(.text)
    QtMobility::CMTMEngine::smsMessageL(CMsvEntry&, long, bool) const 0x0001266f   Thumb Code   818  QtMessaging.in(.text)
    QtMobility::CMTMEngine::messageL(const QtMobility::QMessageId&, bool) const 0x000129a1   Thumb Code   348  QtMessaging.in(.text)
    QtMobility::CMTMEngine::message(const QtMobility::QMessageId&) const 0x00012afd   Thumb Code   168  QtMessaging.in(.text)
    QtMobility::CMTMEngine::sendMMSL(QtMobility::QMessageServicePrivate&, QtMobility::QMessage&) 0x00012ba5   Thumb Code   312  QtMessaging.in(.text)
    QtMobility::CMTMEngine::sendMMS(QtMobility::QMessageServicePrivate&, QtMobility::QMessage&) 0x00012cdd   Thumb Code   182  QtMessaging.in(.text)
    QtMobility::CMTMEngine::sendEmailL(QtMobility::QMessageServicePrivate&, QtMobility::QMessage&) 0x00012d93   Thumb Code   408  QtMessaging.in(.text)
    QtMobility::CMTMEngine::sendEmail(QtMobility::QMessageServicePrivate&, QtMobility::QMessage&) 0x00012f2b   Thumb Code   180  QtMessaging.in(.text)
    QtMobility::CMTMEngine::validateSMS()    0x00012fdf   Thumb Code    40  QtMessaging.in(.text)
    QtMobility::CMTMEngine::isGsm0338CompatibleUnicodeCharacter(unsigned short) 0x00013007   Thumb Code    62  QtMessaging.in(.text)
    QtMobility::CMTMEngine::sendSMSL(QtMobility::QMessageServicePrivate&, QtMobility::QMessage&) 0x00013045   Thumb Code   658  QtMessaging.in(.text)
    QtMobility::CMTMEngine::sendSMS(QtMobility::QMessageServicePrivate&, QtMobility::QMessage&) 0x000132d7   Thumb Code   180  QtMessaging.in(.text)
    QtMobility::CAsynchronousMTMOperation::retrieveMessageAttachments(long) 0x0001338b   Thumb Code    86  QtMessaging.in(.text)
    QtMobility::CAsynchronousMTMOperation::CAsynchronousMTMOperation(QtMobility::CMTMEngine&, QtMobility::QMessageServicePrivate&, CBaseMtm*, long, int) 0x000133e1   Thumb Code    48  QtMessaging.in(.text)
    QtMobility::CAsynchronousMTMOperation::CAsynchronousMTMOperation__sub_object(QtMobility::CMTMEngine&, QtMobility::QMessageServicePrivate&, CBaseMtm*, long, int) 0x000133e1   Thumb Code     0  QtMessaging.in(.text)
    QtMobility::CMTMEngine::createAsynchronousMTMOperation(QtMobility::QMessageServicePrivate&, CBaseMtm*, long) 0x00013411   Thumb Code    54  QtMessaging.in(.text)
    QtMobility::CMTMEngine::retrieveL(QtMobility::QMessageServicePrivate&, const QtMobility::QMessageId&, const QtMobility::QMessageContentContainerId&) 0x00013447   Thumb Code   142  QtMessaging.in(.text)
    QtMobility::CMTMEngine::retrieve(QtMobility::QMessageServicePrivate&, const QtMobility::QMessageId&, const QtMobility::QMessageContentContainerId&) 0x000134d5   Thumb Code    74  QtMessaging.in(.text)
    QtMobility::CAsynchronousMTMOperation::retrieveMessageBody(long) 0x0001351f   Thumb Code    84  QtMessaging.in(.text)
    QtMobility::CMTMEngine::retrieveBodyL(QtMobility::QMessageServicePrivate&, const QtMobility::QMessageId&) 0x00013573   Thumb Code   158  QtMessaging.in(.text)
    QtMobility::CMTMEngine::retrieveBody(QtMobility::QMessageServicePrivate&, const QtMobility::QMessageId&) 0x00013611   Thumb Code    72  QtMessaging.in(.text)
    QtMobility::CAsynchronousMTMOperation::retrieveMessageHeader(long) 0x00013659   Thumb Code    84  QtMessaging.in(.text)
    QtMobility::CMTMEngine::retrieveHeaderL(QtMobility::QMessageServicePrivate&, const QtMobility::QMessageId&) 0x000136ad   Thumb Code   142  QtMessaging.in(.text)
    QtMobility::CMTMEngine::retrieveHeader(QtMobility::QMessageServicePrivate&, const QtMobility::QMessageId&) 0x0001373b   Thumb Code    72  QtMessaging.in(.text)
    QtMobility::CAsynchronousMTMOperation::doFullSync() 0x00013783   Thumb Code    84  QtMessaging.in(.text)
    QtMobility::CMTMEngine::exportUpdatesL(QtMobility::QMessageServicePrivate&, const QtMobility::QMessageAccountId&) 0x000137d7   Thumb Code    96  QtMessaging.in(.text)
    QtMobility::CMTMEngine::exportUpdates(QtMobility::QMessageServicePrivate&, const QtMobility::QMessageAccountId&) 0x00013837   Thumb Code    72  QtMessaging.in(.text)
    QtMobility::CMTMEngine::attachmentContentL(long, unsigned) 0x0001387f   Thumb Code   340  QtMessaging.in(.text)
    QtMobility::CMTMEngine::attachmentContent(long, unsigned) 0x000139d3   Thumb Code    80  QtMessaging.in(.text)
    QtMobility::CMTMEngine::attachmentTextContent(long, unsigned, const QByteArray&) 0x00013a23   Thumb Code    98  QtMessaging.in(.text)
    QtMobility::CMTMEngine::registerNotificationFilter(QtMobility::QMessageStorePrivate&, const QtMobility::QMessageFilter&) 0x00013a85   Thumb Code   200  QtMessaging.in(.text)
    QtMobility::CMTMEngine::unregisterNotificationFilter(int) 0x00013b4d   Thumb Code    32  QtMessaging.in(.text)
    QtMobility::CMTMEngine::tryToDeliverMessageNotifications() 0x00013b6d   Thumb Code   636  QtMessaging.in(.text)
    QtMobility::CMTMEngine::notification(MMsvSessionObserver::TMsvSessionEvent, TUid, long, long, CMsvEntry*) 0x00013de9   Thumb Code  1266  QtMessaging.in(.text)
    QtMobility::CMTMEngine::handleMessageSendingNotifications(MMsvSessionObserver::TMsvSessionEvent, TUid, long, long, unsigned) 0x000142db   Thumb Code   404  QtMessaging.in(.text)
    QtMobility::CMTMEngine::applyOffsetAndLimitToMsgIds(QList<QtMobility::QMessageId>&, int, int) const 0x0001446f   Thumb Code   102  QtMessaging.in(.text)
    QtMobility::CMTMEngine::messageLessThan(const QtMobility::QMessage&, const QtMobility::QMessage&) 0x000144d5   Thumb Code    26  QtMessaging.in(.text)
    QtMobility::CMTMEngine::orderMessages(QList<QtMobility::QMessageId>&, const QtMobility::QMessageSortOrder&) const 0x000144ef   Thumb Code   194  QtMessaging.in(.text)
    QtMobility::CMTMEngine::filterAndOrderMessagesReady(bool, int, QList<QtMobility::QMessageId>, int, bool) 0x000145b1   Thumb Code  1030  QtMessaging.in(.text)
    QtMobility::CMTMEngine::cancel(QtMobility::QMessageServicePrivate&) 0x000149b7   Thumb Code    56  QtMessaging.in(.text)
    QtMobility::CMTMEngine::mtmByType(QtMobility::CMTMEngine::MTMType) 0x000149ef   Thumb Code    40  QtMessaging.in(.text)
    QtMobility::CMTMEngine::switchToMTMRootEntry(QtMobility::CMTMEngine::MTMType) 0x00014a17   Thumb Code   104  QtMessaging.in(.text)
    QtMobility::CMTMEngine::mtmByUid(TUid)   0x00014a7f   Thumb Code    96  QtMessaging.in(.text)
    QtMobility::CMTMEngine::mtmUidByType(QtMobility::CMTMEngine::MTMType) 0x00014adf   Thumb Code    44  QtMessaging.in(.text)
    QtMobility::CMTMEngine::copyMessageL(long, long) 0x00014b0b   Thumb Code    78  QtMessaging.in(.text)
    QtMobility::CMTMEngine::deleteAsynchronousMTMOperation(QtMobility::CAsynchronousMTMOperation*) 0x00014b59   Thumb Code    12  QtMessaging.in(.text)
    QtMobility::CMTMEngine::checkIfWaitingDiscardClearMessage(long) 0x00014b65   Thumb Code   156  QtMessaging.in(.text)
    QtMobility::CMTMEngine::RunL()           0x00014c01   Thumb Code     8  QtMessaging.in(.text)
    thunk{-8} to QtMobility::CMTMEngine::RunL() 0x00014c09   Thumb Code    10  QtMessaging.in(.text)
    QtMobility::CMTMEngine::DoCancel()       0x00014c13   Thumb Code    14  QtMessaging.in(.text)
    thunk{-8} to QtMobility::CMTMEngine::DoCancel() 0x00014c21   Thumb Code     4  QtMessaging.in(.text)
    QtMobility::CMTMEngine::HandleSessionEventL(MMsvSessionObserver::TMsvSessionEvent, void*, void*, void*) 0x00014c25   Thumb Code   520  QtMessaging.in(.text)
    thunk{-36} to QtMobility::CMTMEngine::HandleSessionEventL(MMsvSessionObserver::TMsvSessionEvent, void*, void*, void*) 0x00014e2d   Thumb Code   534  QtMessaging.in(.text)
    QtMobility::CMessagesFindOperation::~CMessagesFindOperation() 0x00015043   Thumb Code    76  QtMessaging.in(.text)
    QtMobility::CMessagesFindOperation::~CMessagesFindOperation__sub_object() 0x00015043   Thumb Code     0  QtMessaging.in(.text)
    QtMobility::CMessagesFindOperation::~CMessagesFindOperation__deallocating() 0x0001508f   Thumb Code    16  QtMessaging.in(.text)
    QtMobility::CMessagesFindOperation::RunL() 0x0001509f   Thumb Code   222  QtMessaging.in(.text)
    QtMobility::CMessagesFindOperation::DoCancel() 0x0001517d   Thumb Code    10  QtMessaging.in(.text)
    QtMobility::QMTMWait::~QMTMWait__deallocating() 0x00015187   Thumb Code    16  QtMessaging.in(.text)
    QtMobility::QMTMWait::RunL()             0x00015197   Thumb Code    10  QtMessaging.in(.text)
    QtMobility::QMTMWait::DoCancel()         0x000151a1   Thumb Code     8  QtMessaging.in(.text)
    QtMobility::CAsynchronousMTMOperation::~CAsynchronousMTMOperation() 0x000151a9   Thumb Code    26  QtMessaging.in(.text)
    QtMobility::CAsynchronousMTMOperation::~CAsynchronousMTMOperation__sub_object() 0x000151a9   Thumb Code     0  QtMessaging.in(.text)
    QtMobility::CAsynchronousMTMOperation::~CAsynchronousMTMOperation__deallocating() 0x000151c3   Thumb Code    16  QtMessaging.in(.text)
    QtMobility::CAsynchronousMTMOperation::RunL() 0x000151d3   Thumb Code   886  QtMessaging.in(.text)
    QtMobility::CAsynchronousMTMOperation::DoCancel() 0x00015549   Thumb Code    10  QtMessaging.in(.text)
    QtMobility::QMessageId::QMessageId()     0x00015561   Thumb Code     6  QtMessaging.in(.text)
    QtMobility::QMessageId::QMessageId__sub_object() 0x00015561   Thumb Code     0  QtMessaging.in(.text)
    QtMobility::QMessageId::operator =(const QtMobility::QMessageId&) 0x00015567   Thumb Code    70  QtMessaging.in(.text)
    QtMobility::QMessageId::QMessageId(const QtMobility::QMessageId&) 0x000155ad   Thumb Code    18  QtMessaging.in(.text)
    QtMobility::QMessageId::QMessageId__sub_object(const QtMobility::QMessageId&) 0x000155ad   Thumb Code     0  QtMessaging.in(.text)
    QtMobility::QMessageId::QMessageId(const QString&) 0x000155bf   Thumb Code    38  QtMessaging.in(.text)
    QtMobility::QMessageId::QMessageId__sub_object(const QString&) 0x000155bf   Thumb Code     0  QtMessaging.in(.text)
    QtMobility::QMessageId::~QMessageId()    0x000155e5   Thumb Code    22  QtMessaging.in(.text)
    QtMobility::QMessageId::~QMessageId__sub_object() 0x000155e5   Thumb Code     0  QtMessaging.in(.text)
    QtMobility::QMessageId::operator ==(const QtMobility::QMessageId&) const 0x000155fb   Thumb Code    32  QtMessaging.in(.text)
    QtMobility::QMessageId::operator <(const QtMobility::QMessageId&) const 0x0001561b   Thumb Code    78  QtMessaging.in(.text)
    QtMobility::QMessageId::toString() const 0x00015669   Thumb Code    42  QtMessaging.in(.text)
    QtMobility::QMessageId::isValid() const  0x00015693   Thumb Code    14  QtMessaging.in(.text)
    QtMobility::qHash(const QtMobility::QMessageId&) 0x000156a1   Thumb Code    28  QtMessaging.in(.text)
    QtMobility::QMessageContentContainerId::QMessageContentContainerId() 0x000156bd   Thumb Code    30  QtMessaging.in(.text)
    QtMobility::QMessageContentContainerId::QMessageContentContainerId__sub_object() 0x000156bd   Thumb Code     0  QtMessaging.in(.text)
    QtMobility::QMessageContentContainerId::operator =(const QtMobility::QMessageContentContainerId&) 0x000156db   Thumb Code    20  QtMessaging.in(.text)
    QtMobility::QMessageContentContainerId::QMessageContentContainerId(const QtMobility::QMessageContentContainerId&) 0x000156ef   Thumb Code    40  QtMessaging.in(.text)
    QtMobility::QMessageContentContainerId::QMessageContentContainerId__sub_object(const QtMobility::QMessageContentContainerId&) 0x000156ef   Thumb Code     0  QtMessaging.in(.text)
    QtMobility::QMessageContentContainerId::QMessageContentContainerId(const QString&) 0x00015717   Thumb Code    68  QtMessaging.in(.text)
    QtMobility::QMessageContentContainerId::QMessageContentContainerId__sub_object(const QString&) 0x00015717   Thumb Code     0  QtMessaging.in(.text)
    QtMobility::QMessageContentContainerId::~QMessageContentContainerId() 0x0001575b   Thumb Code    22  QtMessaging.in(.text)
    QtMobility::QMessageContentContainerId::~QMessageContentContainerId__sub_object() 0x0001575b   Thumb Code     0  QtMessaging.in(.text)
    QtMobility::QMessageContentContainerId::operator ==(const QtMobility::QMessageContentContainerId&) const 0x00015771   Thumb Code    12  QtMessaging.in(.text)
    QtMobility::QMessageContentContainerId::isValid() const 0x0001577d   Thumb Code    14  QtMessaging.in(.text)
    QtMobility::QMessageContentContainerId::toString() const 0x0001578b   Thumb Code    36  QtMessaging.in(.text)
    QtMobility::QMessageFolderId::QMessageFolderId() 0x000157b1   Thumb Code     6  QtMessaging.in(.text)
    QtMobility::QMessageFolderId::QMessageFolderId__sub_object() 0x000157b1   Thumb Code     0  QtMessaging.in(.text)
    QtMobility::QMessageFolderId::isValid() const 0x000157b7   Thumb Code    22  QtMessaging.in(.text)
    QtMobility::QMessageFolderId::operator =(const QtMobility::QMessageFolderId&) 0x000157cd   Thumb Code    84  QtMessaging.in(.text)
    QtMobility::QMessageFolderId::QMessageFolderId(const QtMobility::QMessageFolderId&) 0x00015821   Thumb Code    18  QtMessaging.in(.text)
    QtMobility::QMessageFolderId::QMessageFolderId__sub_object(const QtMobility::QMessageFolderId&) 0x00015821   Thumb Code     0  QtMessaging.in(.text)
    QtMobility::QMessageFolderId::QMessageFolderId(const QString&) 0x00015833   Thumb Code    42  QtMessaging.in(.text)
    QtMobility::QMessageFolderId::QMessageFolderId__sub_object(const QString&) 0x00015833   Thumb Code     0  QtMessaging.in(.text)
    QtMobility::QMessageFolderId::~QMessageFolderId() 0x0001585d   Thumb Code    22  QtMessaging.in(.text)
    QtMobility::QMessageFolderId::~QMessageFolderId__sub_object() 0x0001585d   Thumb Code     0  QtMessaging.in(.text)
    QtMobility::QMessageFolderId::operator ==(const QtMobility::QMessageFolderId&) const 0x00015873   Thumb Code    52  QtMessaging.in(.text)
    QtMobility::QMessageFolderId::operator <(const QtMobility::QMessageFolderId&) const 0x000158a7   Thumb Code    84  QtMessaging.in(.text)
    QtMobility::QMessageFolderId::toString() const 0x000158fb   Thumb Code    34  QtMessaging.in(.text)
    QtMobility::qHash(const QtMobility::QMessageFolderId&) 0x0001591d   Thumb Code    28  QtMessaging.in(.text)
    QtMobility::QMessageAccountId::QMessageAccountId() 0x0001593d   Thumb Code     6  QtMessaging.in(.text)
    QtMobility::QMessageAccountId::QMessageAccountId__sub_object() 0x0001593d   Thumb Code     0  QtMessaging.in(.text)
    QtMobility::QMessageAccountId::isValid() const 0x00015943   Thumb Code    22  QtMessaging.in(.text)
    QtMobility::QMessageAccountId::operator =(const QtMobility::QMessageAccountId&) 0x00015959   Thumb Code    84  QtMessaging.in(.text)
    QtMobility::QMessageAccountId::QMessageAccountId(const QtMobility::QMessageAccountId&) 0x000159ad   Thumb Code    18  QtMessaging.in(.text)
    QtMobility::QMessageAccountId::QMessageAccountId__sub_object(const QtMobility::QMessageAccountId&) 0x000159ad   Thumb Code     0  QtMessaging.in(.text)
    QtMobility::QMessageAccountId::QMessageAccountId(const QString&) 0x000159bf   Thumb Code    42  QtMessaging.in(.text)
    QtMobility::QMessageAccountId::QMessageAccountId__sub_object(const QString&) 0x000159bf   Thumb Code     0  QtMessaging.in(.text)
    QtMobility::QMessageAccountId::~QMessageAccountId() 0x000159e9   Thumb Code    22  QtMessaging.in(.text)
    QtMobility::QMessageAccountId::~QMessageAccountId__sub_object() 0x000159e9   Thumb Code     0  QtMessaging.in(.text)
    QtMobility::QMessageAccountId::operator ==(const QtMobility::QMessageAccountId&) const 0x000159ff   Thumb Code    52  QtMessaging.in(.text)
    QtMobility::QMessageAccountId::operator <(const QtMobility::QMessageAccountId&) const 0x00015a33   Thumb Code    82  QtMessaging.in(.text)
    QtMobility::QMessageAccountId::toString() const 0x00015a85   Thumb Code    34  QtMessaging.in(.text)
    QtMobility::qHash(const QtMobility::QMessageAccountId&) 0x00015aa7   Thumb Code    28  QtMessaging.in(.text)
    QtMobility::QMessageContentContainerPrivate::operator =(const QtMobility::QMessageContentContainerPrivate&) 0x00015ac5   Thumb Code   164  QtMessaging.in(.text)
    QtMobility::QMessageContentContainer::operator =(const QtMobility::QMessageContentContainer&) 0x00015b69   Thumb Code    20  QtMessaging.in(.text)
    QtMobility::QMessageContentContainer::QMessageContentContainer(const QtMobility::QMessageContentContainer&) 0x00015b7d   Thumb Code    46  QtMessaging.in(.text)
    QtMobility::QMessageContentContainer::QMessageContentContainer__sub_object(const QtMobility::QMessageContentContainer&) 0x00015b7d   Thumb Code     0  QtMessaging.in(.text)
    QtMobility::QMessageContentContainer::QMessageContentContainer() 0x00015bab   Thumb Code    36  QtMessaging.in(.text)
    QtMobility::QMessageContentContainer::QMessageContentContainer__sub_object() 0x00015bab   Thumb Code     0  QtMessaging.in(.text)
    QtMobility::QMessageContentContainer::~QMessageContentContainer() 0x00015bcf   Thumb Code    26  QtMessaging.in(.text)
    QtMobility::QMessageContentContainer::~QMessageContentContainer__sub_object() 0x00015bcf   Thumb Code     0  QtMessaging.in(.text)
    QtMobility::QMessageContentContainer::~QMessageContentContainer__deallocating() 0x00015be9   Thumb Code    16  QtMessaging.in(.text)
    QtMobility::QMessageContentContainer::contentType() const 0x00015bf9   Thumb Code    12  QtMessaging.in(.text)
    QtMobility::QMessageContentContainer::contentSubType() const 0x00015c05   Thumb Code    12  QtMessaging.in(.text)
    QtMobility::QMessageContentContainer::contentCharset() const 0x00015c11   Thumb Code    12  QtMessaging.in(.text)
    QtMobility::QMessageContentContainer::suggestedFileName() const 0x00015c1d   Thumb Code    12  QtMessaging.in(.text)
    QtMobility::QMessageContentContainer::isContentAvailable() const 0x00015c29   Thumb Code     6  QtMessaging.in(.text)
    QtMobility::QMessageContentContainer::size() const 0x00015c2f   Thumb Code     6  QtMessaging.in(.text)
    QtMobility::QMessageContentContainer::textContent() const 0x00015c35   Thumb Code   182  QtMessaging.in(.text)
    QtMobility::QMessageContentContainer::content() const 0x00015ceb   Thumb Code    70  QtMessaging.in(.text)
    QtMobility::QMessageContentContainer::writeTextContent(QTextStream&) const 0x00015d31   Thumb Code    28  QtMessaging.in(.text)
    QtMobility::QMessageContentContainer::writeContent(QDataStream&) const 0x00015d4d   Thumb Code    46  QtMessaging.in(.text)
    QtMobility::QMessageContentContainerPrivate::isMessage() const 0x00015d7b   Thumb Code    14  QtMessaging.in(.text)
    QtMobility::QMessageContentContainer::contentIds() const 0x00015d89   Thumb Code    98  QtMessaging.in(.text)
    QtMobility::QMessageContentContainerPrivate::bodyContentId() 0x00015deb   Thumb Code    50  QtMessaging.in(.text)
    QtMobility::QMessageContentContainerPrivate::attachment(const QtMobility::QMessageContentContainerId&) 0x00015e1d   Thumb Code   132  QtMessaging.in(.text)
    QtMobility::QMessageContentContainer::find(const QtMobility::QMessageContentContainerId&) const 0x00015ea1   Thumb Code    46  QtMessaging.in(.text)
    QtMobility::QMessageContentContainer::contains(const QtMobility::QMessageContentContainerId&) const 0x00015ecf   Thumb Code    36  QtMessaging.in(.text)
    QtMobility::QMessageContentContainer::headerFieldValue(const QByteArray&) const 0x00015ef3   Thumb Code    70  QtMessaging.in(.text)
    QtMobility::QMessageContentContainer::headerFieldValues(const QByteArray&) const 0x00015f39   Thumb Code   110  QtMessaging.in(.text)
    QtMobility::QMessageContentContainer::headerFields() const 0x00015fa7   Thumb Code    12  QtMessaging.in(.text)
    QtMobility::QMessageContentContainerPrivate::setDerivedMessage(QtMobility::QMessage*) 0x00015fb3   Thumb Code     4  QtMessaging.in(.text)
    QtMobility::QMessageContentContainer::setDerivedMessage(QtMobility::QMessage*) 0x00015fb7   Thumb Code     6  QtMessaging.in(.text)
    QtMobility::QMessageContentContainerPrivate::clearContents() 0x00015fbd   Thumb Code   220  QtMessaging.in(.text)
    QtMobility::QMessageContentContainerPrivate::attachment(const QtMobility::QMessageContentContainerId&) const 0x00016099   Thumb Code   132  QtMessaging.in(.text)
    QtMobility::QMessageContentContainerPrivate::setContentType(const QByteArray&, const QByteArray&, const QByteArray&) 0x0001611d   Thumb Code    46  QtMessaging.in(.text)
    QtMobility::QMessageContentContainerPrivate::setContent(const QString&, const QByteArray&, const QByteArray&, const QByteArray&) 0x0001614b   Thumb Code    38  QtMessaging.in(.text)
    QtMobility::QMessageContentContainerPrivate::setContent(const QByteArray&, const QByteArray&, const QByteArray&, const QByteArray&) 0x00016171   Thumb Code    32  QtMessaging.in(.text)
    QtMobility::QMessageContentContainerPrivate::setHeaderField(const QByteArray&, const QByteArray&) 0x00016191   Thumb Code   164  QtMessaging.in(.text)
    QtMobility::QMessageContentContainerPrivate::createAttachment(const QString&) 0x00016235   Thumb Code   522  QtMessaging.in(.text)
    QtMobility::QMessageContentContainerPrivate::appendContent(QtMobility::QMessageContentContainer&) 0x0001643f   Thumb Code    98  QtMessaging.in(.text)
    QtMobility::QMessageContentContainerPrivate::prependContent(QtMobility::QMessageContentContainer&) 0x000164a1   Thumb Code   202  QtMessaging.in(.text)
    QtMobility::QMessageContentContainerPrivate::attachmentFilename(const QtMobility::QMessageContentContainer&) 0x0001656b   Thumb Code    12  QtMessaging.in(.text)
    QtMobility::QMessageContentContainerPrivate::from(long, unsigned, QByteArray&, QByteArray&, QByteArray&, int) 0x00016577   Thumb Code    66  QtMessaging.in(.text)
    QtMobility::QMessageContentContainerPrivate::implementation(const QtMobility::QMessageContentContainer&) 0x000165b9   Thumb Code     4  QtMessaging.in(.text)
    QtMobility::QMessagePrivate::QMessagePrivate(QtMobility::QMessage*) 0x000165c1   Thumb Code   174  QtMessaging.in(.text)
    QtMobility::QMessagePrivate::QMessagePrivate__sub_object(QtMobility::QMessage*) 0x000165c1   Thumb Code     0  QtMessaging.in(.text)
    QtMobility::QMessage::QMessage()         0x0001666f   Thumb Code    60  QtMessaging.in(.text)
    QtMobility::QMessage::QMessage__sub_object() 0x0001666f   Thumb Code     0  QtMessaging.in(.text)
    QtMobility::QMessagePrivate::~QMessagePrivate() 0x000166ab   Thumb Code   152  QtMessaging.in(.text)
    QtMobility::QMessagePrivate::~QMessagePrivate__sub_object() 0x000166ab   Thumb Code     0  QtMessaging.in(.text)
    QtMobility::QMessage::~QMessage()        0x00016743   Thumb Code    30  QtMessaging.in(.text)
    QtMobility::QMessage::~QMessage__sub_object() 0x00016743   Thumb Code     0  QtMessaging.in(.text)
    QtMobility::QMessage::operator =(const QtMobility::QMessage&) 0x00016761   Thumb Code    38  QtMessaging.in(.text)
    QtMobility::QMessage::QMessage(const QtMobility::QMessageId&) 0x00016787   Thumb Code    92  QtMessaging.in(.text)
    QtMobility::QMessage::QMessage__sub_object(const QtMobility::QMessageId&) 0x00016787   Thumb Code     0  QtMessaging.in(.text)
    QtMobility::QMessage::QMessage(const QtMobility::QMessage&) 0x000167e3   Thumb Code    50  QtMessaging.in(.text)
    QtMobility::QMessage::QMessage__sub_object(const QtMobility::QMessage&) 0x000167e3   Thumb Code     0  QtMessaging.in(.text)
    QtMobility::QMessage::~QMessage__deallocating() 0x00016815   Thumb Code    16  QtMessaging.in(.text)
    QtMobility::QMessage::id() const         0x00016825   Thumb Code    12  QtMessaging.in(.text)
    QtMobility::QMessage::type() const       0x00016831   Thumb Code     6  QtMessaging.in(.text)
    QtMobility::QMessage::setType(QtMobility::QMessage::Type) 0x00016837   Thumb Code    14  QtMessaging.in(.text)
    QtMobility::QMessage::parentAccountId() const 0x00016845   Thumb Code    12  QtMessaging.in(.text)
    QtMobility::QMessage::setParentAccountId(const QtMobility::QMessageAccountId&) 0x00016851   Thumb Code    22  QtMessaging.in(.text)
    QtMobility::QMessage::parentFolderId() const 0x00016867   Thumb Code    12  QtMessaging.in(.text)
    QtMobility::QMessage::standardFolder() const 0x00016873   Thumb Code     6  QtMessaging.in(.text)
    QtMobility::QMessage::from() const       0x00016879   Thumb Code    12  QtMessaging.in(.text)
    QtMobility::QMessage::setFrom(const QtMobility::QMessageAddress&) 0x00016885   Thumb Code    28  QtMessaging.in(.text)
    QtMobility::QMessage::subject() const    0x000168a1   Thumb Code    12  QtMessaging.in(.text)
    QtMobility::QMessage::setSubject(const QString&) 0x000168ad   Thumb Code    28  QtMessaging.in(.text)
    QtMobility::QMessage::date() const       0x000168c9   Thumb Code    12  QtMessaging.in(.text)
    QtMobility::QMessage::setDate(const QDateTime&) 0x000168d5   Thumb Code    28  QtMessaging.in(.text)
    QtMobility::QMessage::receivedDate() const 0x000168f1   Thumb Code    12  QtMessaging.in(.text)
    QtMobility::QMessage::setReceivedDate(const QDateTime&) 0x000168fd   Thumb Code    28  QtMessaging.in(.text)
    QtMobility::QMessage::to() const         0x00016919   Thumb Code    12  QtMessaging.in(.text)
    QtMobility::QMessage::setTo(const QList<QtMobility::QMessageAddress>&) 0x00016925   Thumb Code    28  QtMessaging.in(.text)
    QtMobility::QMessage::setTo(const QtMobility::QMessageAddress&) 0x00016941   Thumb Code    28  QtMessaging.in(.text)
    QtMobility::QMessage::cc() const         0x0001695d   Thumb Code    12  QtMessaging.in(.text)
    QtMobility::QMessage::setCc(const QList<QtMobility::QMessageAddress>&) 0x00016969   Thumb Code    28  QtMessaging.in(.text)
    QtMobility::QMessage::bcc() const        0x00016985   Thumb Code    12  QtMessaging.in(.text)
    QtMobility::QMessage::setBcc(const QList<QtMobility::QMessageAddress>&) 0x00016991   Thumb Code    28  QtMessaging.in(.text)
    QtMobility::QMessage::status() const     0x000169ad   Thumb Code     8  QtMessaging.in(.text)
    QtMobility::QMessage::setStatus(QFlags<QtMobility::QMessage::Status>) 0x000169b5   Thumb Code    22  QtMessaging.in(.text)
    QtMobility::QMessage::setStatus(QtMobility::QMessage::Status, bool) 0x000169cb   Thumb Code    42  QtMessaging.in(.text)
    QtMobility::QMessage::priority() const   0x000169f5   Thumb Code     6  QtMessaging.in(.text)
    QtMobility::QMessage::setPriority(QtMobility::QMessage::Priority) 0x000169fb   Thumb Code    20  QtMessaging.in(.text)
    QtMobility::QMessage::size() const       0x00016a0f   Thumb Code   152  QtMessaging.in(.text)
    QtMobility::QMessage::bodyId() const     0x00016aa7   Thumb Code    12  QtMessaging.in(.text)
    QtMobility::QMessage::setBody(const QString&, const QByteArray&) 0x00016ab3   Thumb Code   608  QtMessaging.in(.text)
    QtMobility::QMessage::setBody(QTextStream&, const QByteArray&) 0x00016d13   Thumb Code    38  QtMessaging.in(.text)
    QtMobility::QMessage::attachmentIds() const 0x00016d39   Thumb Code   136  QtMessaging.in(.text)
    QtMobility::QMessage::appendAttachments(const QStringList&) 0x00016dc1   Thumb Code   524  QtMessaging.in(.text)
    QtMobility::QMessage::clearAttachments() 0x00016fcd   Thumb Code    20  QtMessaging.in(.text)
    QtMobility::QMessage::isModified() const 0x00016fe1   Thumb Code     8  QtMessaging.in(.text)
    QtMobility::QMessage::createResponseMessage(QtMobility::QMessage::ResponseType) const 0x00016fe9   Thumb Code   904  QtMessaging.in(.text)
    QtMobility::QMessagePrivate::senderName(const QtMobility::QMessage&) 0x00017371   Thumb Code    12  QtMessaging.in(.text)
    QtMobility::QMessagePrivate::setSenderName(const QtMobility::QMessage&, const QString&) 0x0001737d   Thumb Code    12  QtMessaging.in(.text)
    QtMobility::QMessagePrivate::setSize(const QtMobility::QMessage&, int) 0x00017389   Thumb Code     6  QtMessaging.in(.text)
    QtMobility::QMessagePrivate::setStandardFolder(QtMobility::QMessage&, QtMobility::QMessage::StandardFolder) 0x0001738f   Thumb Code    14  QtMessaging.in(.text)
    QtMobility::QMessagePrivate::implementation(const QtMobility::QMessage&) 0x0001739d   Thumb Code     4  QtMessaging.in(.text)
    QtMobility::QMessagePrivate::containerImplementation(const QtMobility::QMessage&) 0x000173a1   Thumb Code     4  QtMessaging.in(.text)
    QtMobility::QMessageFolder::QMessageFolder() 0x000173b5   Thumb Code    36  QtMessaging.in(.text)
    QtMobility::QMessageFolder::QMessageFolder__sub_object() 0x000173b5   Thumb Code     0  QtMessaging.in(.text)
    QtMobility::QMessageFolder::~QMessageFolder() 0x000173d9   Thumb Code    78  QtMessaging.in(.text)
    QtMobility::QMessageFolder::~QMessageFolder__sub_object() 0x000173d9   Thumb Code     0  QtMessaging.in(.text)
    QtMobility::QMessageFolder::operator =(const QtMobility::QMessageFolder&) 0x00017427   Thumb Code    80  QtMessaging.in(.text)
    QtMobility::QMessageFolder::QMessageFolder(const QtMobility::QMessageFolderId&) 0x00017477   Thumb Code    80  QtMessaging.in(.text)
    QtMobility::QMessageFolder::QMessageFolder__sub_object(const QtMobility::QMessageFolderId&) 0x00017477   Thumb Code     0  QtMessaging.in(.text)
    QtMobility::QMessageFolder::QMessageFolder(const QtMobility::QMessageFolder&) 0x000174c7   Thumb Code    46  QtMessaging.in(.text)
    QtMobility::QMessageFolder::QMessageFolder__sub_object(const QtMobility::QMessageFolder&) 0x000174c7   Thumb Code     0  QtMessaging.in(.text)
    QtMobility::QMessageFolder::~QMessageFolder__deallocating() 0x000174f5   Thumb Code    16  QtMessaging.in(.text)
    QtMobility::QMessageFolder::id() const   0x00017505   Thumb Code    12  QtMessaging.in(.text)
    QtMobility::QMessageFolder::parentAccountId() const 0x00017511   Thumb Code    12  QtMessaging.in(.text)
    QtMobility::QMessageFolder::parentFolderId() const 0x0001751d   Thumb Code    12  QtMessaging.in(.text)
    QtMobility::QMessageFolder::name() const 0x00017529   Thumb Code    12  QtMessaging.in(.text)
    QtMobility::QMessageFolder::path() const 0x00017535   Thumb Code    12  QtMessaging.in(.text)
    QtMobility::QMessageFolderPrivate::from(const QtMobility::QMessageFolderId&, const QtMobility::QMessageAccountId&, const QtMobility::QMessageFolderId&, const QString&, const QString&) 0x00017541   Thumb Code    70  QtMessaging.in(.text)
    QtMobility::QMessageAccount::QMessageAccount() 0x0001758d   Thumb Code    36  QtMessaging.in(.text)
    QtMobility::QMessageAccount::QMessageAccount__sub_object() 0x0001758d   Thumb Code     0  QtMessaging.in(.text)
    QtMobility::QMessageAccount::~QMessageAccount() 0x000175b1   Thumb Code    42  QtMessaging.in(.text)
    QtMobility::QMessageAccount::~QMessageAccount__sub_object() 0x000175b1   Thumb Code     0  QtMessaging.in(.text)
    QtMobility::QMessageAccount::operator =(const QtMobility::QMessageAccount&) 0x000175db   Thumb Code    52  QtMessaging.in(.text)
    QtMobility::QMessageAccount::QMessageAccount(const QtMobility::QMessageAccountId&) 0x0001760f   Thumb Code    80  QtMessaging.in(.text)
    QtMobility::QMessageAccount::QMessageAccount__sub_object(const QtMobility::QMessageAccountId&) 0x0001760f   Thumb Code     0  QtMessaging.in(.text)
    QtMobility::QMessageAccount::QMessageAccount(const QtMobility::QMessageAccount&) 0x0001765f   Thumb Code    46  QtMessaging.in(.text)
    QtMobility::QMessageAccount::QMessageAccount__sub_object(const QtMobility::QMessageAccount&) 0x0001765f   Thumb Code     0  QtMessaging.in(.text)
    QtMobility::QMessageAccount::~QMessageAccount__deallocating() 0x0001768d   Thumb Code    16  QtMessaging.in(.text)
    QtMobility::QMessageAccount::id() const  0x0001769d   Thumb Code    12  QtMessaging.in(.text)
    QtMobility::QMessageAccount::name() const 0x000176a9   Thumb Code    16  QtMessaging.in(.text)
    QtMobility::QMessageAccount::messageTypes() const 0x000176b9   Thumb Code     8  QtMessaging.in(.text)
    QtMobility::QMessageAccount::defaultAccount(QtMobility::QMessage::Type) 0x000176c1   Thumb Code    22  QtMessaging.in(.text)
    QtMobility::QMessageAccountPrivate::from(const QtMobility::QMessageAccountId&, const QString&, long, long, const QFlags<QtMobility::QMessage::Type>&) 0x000176d7   Thumb Code    54  QtMessaging.in(.text)
    QtMobility::QMessageAccountFilterPrivate::~QMessageAccountFilterPrivate() 0x00017711   Thumb Code    32  QtMessaging.in(.text)
    QtMobility::QMessageAccountFilterPrivate::~QMessageAccountFilterPrivate__sub_object() 0x00017711   Thumb Code     0  QtMessaging.in(.text)
    QtMobility::QMessageAccountFilter::~QMessageAccountFilter() 0x00017731   Thumb Code    26  QtMessaging.in(.text)
    QtMobility::QMessageAccountFilter::~QMessageAccountFilter__sub_object() 0x00017731   Thumb Code     0  QtMessaging.in(.text)
    QtMobility::QMessageAccountFilterPrivate::QMessageAccountFilterPrivate(QtMobility::QMessageAccountFilter*) 0x0001774b   Thumb Code    42  QtMessaging.in(.text)
    QtMobility::QMessageAccountFilterPrivate::QMessageAccountFilterPrivate__sub_object(QtMobility::QMessageAccountFilter*) 0x0001774b   Thumb Code     0  QtMessaging.in(.text)
    QtMobility::QMessageAccountFilter::QMessageAccountFilter(const QtMobility::QMessageAccountFilter&) 0x00017775   Thumb Code    46  QtMessaging.in(.text)
    QtMobility::QMessageAccountFilter::QMessageAccountFilter__sub_object(const QtMobility::QMessageAccountFilter&) 0x00017775   Thumb Code     0  QtMessaging.in(.text)
    QtMobility::QMessageAccountFilter::operator =(const QtMobility::QMessageAccountFilter&) 0x000177a3   Thumb Code    98  QtMessaging.in(.text)
    QtMobility::QMessageAccountFilter::QMessageAccountFilter() 0x00017805   Thumb Code   114  QtMessaging.in(.text)
    QtMobility::QMessageAccountFilter::QMessageAccountFilter__sub_object() 0x00017805   Thumb Code     0  QtMessaging.in(.text)
    QtMobility::QMessageAccountFilter::~QMessageAccountFilter__deallocating() 0x00017877   Thumb Code    16  QtMessaging.in(.text)
    QtMobility::QMessageAccountFilter::setMatchFlags(QFlags<QtMobility::QMessageDataComparator::MatchFlag>) 0x00017887   Thumb Code     8  QtMessaging.in(.text)
    QtMobility::QMessageAccountFilter::matchFlags() const 0x0001788f   Thumb Code     8  QtMessaging.in(.text)
    QtMobility::QMessageAccountFilter::isEmpty() const 0x00017897   Thumb Code    34  QtMessaging.in(.text)
    QtMobility::QMessageAccountFilter::isSupported() const 0x000178b9   Thumb Code     6  QtMessaging.in(.text)
    QtMobility::QMessageAccountFilterPrivate::lessThan(QtMobility::QMessageAccountFilter, QtMobility::QMessageAccountFilter) 0x000178bf   Thumb Code    48  QtMessaging.in(.text)
    QtMobility::QMessageAccountFilter::operator &=(const QtMobility::QMessageAccountFilter&) 0x000178ef   Thumb Code   570  QtMessaging.in(.text)
    QtMobility::QMessageAccountFilter::operator |=(const QtMobility::QMessageAccountFilter&) 0x00017b29   Thumb Code   262  QtMessaging.in(.text)
    QtMobility::QMessageAccountFilterPrivate::changeANDsAndORsToOpposite(QtMobility::QMessageAccountFilter&) 0x00017c2f   Thumb Code   372  QtMessaging.in(.text)
    QtMobility::QMessageAccountFilterPrivate::changeComparatorValuesToOpposite(QtMobility::QMessageAccountFilter&) 0x00017da3   Thumb Code   100  QtMessaging.in(.text)
    QtMobility::QMessageAccountFilterPrivate::applyNot(QtMobility::QMessageAccountFilter&) 0x00017e07   Thumb Code    16  QtMessaging.in(.text)
    QtMobility::QMessageAccountFilter::operator ~() const 0x00017e17   Thumb Code    46  QtMessaging.in(.text)
    QtMobility::QMessageAccountFilter::operator &(const QtMobility::QMessageAccountFilter&) const 0x00017e45   Thumb Code    18  QtMessaging.in(.text)
    QtMobility::QMessageAccountFilter::operator |(const QtMobility::QMessageAccountFilter&) const 0x00017e57   Thumb Code    18  QtMessaging.in(.text)
    QtMobility::QMessageAccountFilter::operator ==(const QtMobility::QMessageAccountFilter&) const 0x00017e69   Thumb Code   306  QtMessaging.in(.text)
    QtMobility::QMessageAccountFilter::byId(const QtMobility::QMessageAccountId&, QtMobility::QMessageDataComparator::EqualityComparator) 0x00017f9b   Thumb Code    74  QtMessaging.in(.text)
    QtMobility::QMessageAccountFilter::byId(const QList<QtMobility::QMessageAccountId>&, QtMobility::QMessageDataComparator::InclusionComparator) 0x00017fe5   Thumb Code    42  QtMessaging.in(.text)
    QtMobility::QMessageAccountFilter::byId(const QtMobility::QMessageAccountFilter&, QtMobility::QMessageDataComparator::InclusionComparator) 0x0001800f   Thumb Code   108  QtMessaging.in(.text)
    QtMobility::QMessageAccountFilter::byName(const QString&, QtMobility::QMessageDataComparator::EqualityComparator) 0x0001807b   Thumb Code    62  QtMessaging.in(.text)
    QtMobility::QMessageAccountFilter::byName(const QString&, QtMobility::QMessageDataComparator::InclusionComparator) 0x000180b9   Thumb Code    58  QtMessaging.in(.text)
    QtMobility::QMessageAccountFilterPrivate::filter(const QtMobility::QMessageAccount&, const QtMobility::QMessageAccountFilterPrivate&) 0x000180f3   Thumb Code   494  QtMessaging.in(.text)
    QtMobility::QMessageAccountFilterPrivate::filter(const QtMobility::QMessageAccount&) const 0x000182e1   Thumb Code   116  QtMessaging.in(.text)
    QtMobility::QMessageAccountFilterPrivate::implementation(const QtMobility::QMessageAccountFilter&) 0x00018355   Thumb Code     4  QtMessaging.in(.text)
    QtMobility::QMessageAccountSortOrder::QMessageAccountSortOrder() 0x00018359   Thumb Code    10  QtMessaging.in(.text)
    QtMobility::QMessageAccountSortOrder::QMessageAccountSortOrder__sub_object() 0x00018359   Thumb Code     0  QtMessaging.in(.text)
    QtMobility::QMessageAccountSortOrderPrivate::QMessageAccountSortOrderPrivate(QtMobility::QMessageAccountSortOrder*) 0x00018363   Thumb Code     4  QtMessaging.in(.text)
    QtMobility::QMessageAccountSortOrderPrivate::QMessageAccountSortOrderPrivate__sub_object(QtMobility::QMessageAccountSortOrder*) 0x00018363   Thumb Code     0  QtMessaging.in(.text)
    QtMobility::QMessageAccountSortOrder::operator =(const QtMobility::QMessageAccountSortOrder&) 0x00018367   Thumb Code    46  QtMessaging.in(.text)
    QtMobility::QMessageAccountSortOrder::QMessageAccountSortOrder(const QtMobility::QMessageAccountSortOrder&) 0x00018395   Thumb Code    40  QtMessaging.in(.text)
    QtMobility::QMessageAccountSortOrder::QMessageAccountSortOrder__sub_object(const QtMobility::QMessageAccountSortOrder&) 0x00018395   Thumb Code     0  QtMessaging.in(.text)
    QtMobility::QMessageAccountSortOrder::~QMessageAccountSortOrder() 0x000183bd   Thumb Code    22  QtMessaging.in(.text)
    QtMobility::QMessageAccountSortOrder::~QMessageAccountSortOrder__sub_object() 0x000183bd   Thumb Code     0  QtMessaging.in(.text)
    QtMobility::QMessageAccountSortOrder::~QMessageAccountSortOrder__deallocating() 0x000183d3   Thumb Code    16  QtMessaging.in(.text)
    QtMobility::QMessageAccountSortOrder::isEmpty() const 0x000183e3   Thumb Code    14  QtMessaging.in(.text)
    QtMobility::QMessageAccountSortOrder::isSupported() const 0x000183f1   Thumb Code     4  QtMessaging.in(.text)
    QtMobility::QMessageAccountSortOrder::operator ==(const QtMobility::QMessageAccountSortOrder&) const 0x000183f5   Thumb Code    34  QtMessaging.in(.text)
    QtMobility::QMessageAccountSortOrder::byName(Qt::SortOrder) 0x00018417   Thumb Code    32  QtMessaging.in(.text)
    QtMobility::QMessageAccountSortOrderPrivate::lessThan(const QtMobility::QMessageAccountSortOrder&, const QtMobility::QMessageAccount&, const QtMobility::QMessageAccount&) 0x00018437   Thumb Code   102  QtMessaging.in(.text)
    QtMobility::QMessageFolderFilterPrivate::~QMessageFolderFilterPrivate() 0x000184a1   Thumb Code    32  QtMessaging.in(.text)
    QtMobility::QMessageFolderFilterPrivate::~QMessageFolderFilterPrivate__sub_object() 0x000184a1   Thumb Code     0  QtMessaging.in(.text)
    QtMobility::QMessageFolderFilter::~QMessageFolderFilter() 0x000184c1   Thumb Code    46  QtMessaging.in(.text)
    QtMobility::QMessageFolderFilter::~QMessageFolderFilter__sub_object() 0x000184c1   Thumb Code     0  QtMessaging.in(.text)
    QtMobility::QMessageFolderFilterPrivate::QMessageFolderFilterPrivate(QtMobility::QMessageFolderFilter*) 0x000184ef   Thumb Code    42  QtMessaging.in(.text)
    QtMobility::QMessageFolderFilterPrivate::QMessageFolderFilterPrivate__sub_object(QtMobility::QMessageFolderFilter*) 0x000184ef   Thumb Code     0  QtMessaging.in(.text)
    QtMobility::QMessageFolderFilter::QMessageFolderFilter(const QtMobility::QMessageFolderFilter&) 0x00018519   Thumb Code    50  QtMessaging.in(.text)
    QtMobility::QMessageFolderFilter::QMessageFolderFilter__sub_object(const QtMobility::QMessageFolderFilter&) 0x00018519   Thumb Code     0  QtMessaging.in(.text)
    QtMobility::QMessageFolderFilter::operator =(const QtMobility::QMessageFolderFilter&) 0x0001854b   Thumb Code   154  QtMessaging.in(.text)
    QtMobility::QMessageFolderFilter::QMessageFolderFilter() 0x000185e5   Thumb Code   118  QtMessaging.in(.text)
    QtMobility::QMessageFolderFilter::QMessageFolderFilter__sub_object() 0x000185e5   Thumb Code     0  QtMessaging.in(.text)
    QtMobility::QMessageFolderFilter::~QMessageFolderFilter__deallocating() 0x0001865b   Thumb Code    16  QtMessaging.in(.text)
    QtMobility::QMessageFolderFilter::setMatchFlags(QFlags<QtMobility::QMessageDataComparator::MatchFlag>) 0x0001866b   Thumb Code     8  QtMessaging.in(.text)
    QtMobility::QMessageFolderFilter::matchFlags() const 0x00018673   Thumb Code     8  QtMessaging.in(.text)
    QtMobility::QMessageFolderFilter::isEmpty() const 0x0001867b   Thumb Code    34  QtMessaging.in(.text)
    QtMobility::QMessageFolderFilter::isSupported() const 0x0001869d   Thumb Code     6  QtMessaging.in(.text)
    QtMobility::QMessageFolderFilterPrivate::lessThan(QtMobility::QMessageFolderFilter, QtMobility::QMessageFolderFilter) 0x000186a3   Thumb Code    48  QtMessaging.in(.text)
    QtMobility::QMessageFolderFilter::operator &=(const QtMobility::QMessageFolderFilter&) 0x000186d3   Thumb Code   572  QtMessaging.in(.text)
    QtMobility::QMessageFolderFilter::operator |=(const QtMobility::QMessageFolderFilter&) 0x0001890f   Thumb Code   262  QtMessaging.in(.text)
    QtMobility::QMessageFolderFilterPrivate::changeANDsAndORsToOpposite(QtMobility::QMessageFolderFilter&) 0x00018a15   Thumb Code   372  QtMessaging.in(.text)
    QtMobility::QMessageFolderFilterPrivate::changeComparatorValuesToOpposite(QtMobility::QMessageFolderFilter&) 0x00018b89   Thumb Code   100  QtMessaging.in(.text)
    QtMobility::QMessageFolderFilterPrivate::applyNot(QtMobility::QMessageFolderFilter&) 0x00018bed   Thumb Code    16  QtMessaging.in(.text)
    QtMobility::QMessageFolderFilter::operator ~() const 0x00018bfd   Thumb Code    46  QtMessaging.in(.text)
    QtMobility::QMessageFolderFilter::operator &(const QtMobility::QMessageFolderFilter&) const 0x00018c2b   Thumb Code    18  QtMessaging.in(.text)
    QtMobility::QMessageFolderFilter::operator |(const QtMobility::QMessageFolderFilter&) const 0x00018c3d   Thumb Code    18  QtMessaging.in(.text)
    QtMobility::QMessageFolderFilter::operator ==(const QtMobility::QMessageFolderFilter&) const 0x00018c4f   Thumb Code   344  QtMessaging.in(.text)
    QtMobility::QMessageFolderFilter::byId(const QtMobility::QMessageFolderId&, QtMobility::QMessageDataComparator::EqualityComparator) 0x00018da7   Thumb Code    78  QtMessaging.in(.text)
    QtMobility::QMessageFolderFilter::byId(const QList<QtMobility::QMessageFolderId>&, QtMobility::QMessageDataComparator::InclusionComparator) 0x00018df5   Thumb Code    44  QtMessaging.in(.text)
    QtMobility::QMessageFolderFilter::byId(const QtMobility::QMessageFolderFilter&, QtMobility::QMessageDataComparator::InclusionComparator) 0x00018e21   Thumb Code   112  QtMessaging.in(.text)
    QtMobility::QMessageFolderFilter::byName(const QString&, QtMobility::QMessageDataComparator::EqualityComparator) 0x00018e91   Thumb Code    62  QtMessaging.in(.text)
    QtMobility::QMessageFolderFilter::byName(const QString&, QtMobility::QMessageDataComparator::InclusionComparator) 0x00018ecf   Thumb Code    58  QtMessaging.in(.text)
    QtMobility::QMessageFolderFilter::byPath(const QString&, QtMobility::QMessageDataComparator::EqualityComparator) 0x00018f09   Thumb Code    62  QtMessaging.in(.text)
    QtMobility::QMessageFolderFilter::byPath(const QString&, QtMobility::QMessageDataComparator::InclusionComparator) 0x00018f47   Thumb Code    58  QtMessaging.in(.text)
    QtMobility::QMessageFolderFilter::byParentAccountId(const QtMobility::QMessageAccountId&, QtMobility::QMessageDataComparator::EqualityComparator) 0x00018f81   Thumb Code    76  QtMessaging.in(.text)
    QtMobility::QMessageFolderFilter::byParentAccountId(const QtMobility::QMessageAccountFilter&, QtMobility::QMessageDataComparator::InclusionComparator) 0x00018fcd   Thumb Code    52  QtMessaging.in(.text)
    QtMobility::QMessageFolderFilter::byParentFolderId(const QtMobility::QMessageFolderId&, QtMobility::QMessageDataComparator::EqualityComparator) 0x00019001   Thumb Code    14  QtMessaging.in(.text)
    QtMobility::QMessageFolderFilter::byParentFolderId(const QtMobility::QMessageFolderFilter&, QtMobility::QMessageDataComparator::InclusionComparator) 0x0001900f   Thumb Code    14  QtMessaging.in(.text)
    QtMobility::QMessageFolderFilter::byAncestorFolderIds(const QtMobility::QMessageFolderId&, QtMobility::QMessageDataComparator::InclusionComparator) 0x0001901d   Thumb Code    14  QtMessaging.in(.text)
    QtMobility::QMessageFolderFilter::byAncestorFolderIds(const QtMobility::QMessageFolderFilter&, QtMobility::QMessageDataComparator::InclusionComparator) 0x0001902b   Thumb Code    14  QtMessaging.in(.text)
    QtMobility::QMessageFolderFilterPrivate::filter(const QtMobility::QMessageFolder&, const QtMobility::QMessageFolderFilterPrivate&) 0x00019039   Thumb Code  1068  QtMessaging.in(.text)
    QtMobility::QMessageFolderFilterPrivate::filter(const QtMobility::QMessageFolder&) const 0x00019465   Thumb Code   116  QtMessaging.in(.text)
    QtMobility::QMessageFolderFilterPrivate::implementation(const QtMobility::QMessageFolderFilter&) 0x000194d9   Thumb Code     4  QtMessaging.in(.text)
    QtMobility::QMessageFolderSortOrder::QMessageFolderSortOrder() 0x000194dd   Thumb Code    36  QtMessaging.in(.text)
    QtMobility::QMessageFolderSortOrder::QMessageFolderSortOrder__sub_object() 0x000194dd   Thumb Code     0  QtMessaging.in(.text)
    QtMobility::QMessageFolderSortOrder::operator =(const QtMobility::QMessageFolderSortOrder&) 0x00019501   Thumb Code    24  QtMessaging.in(.text)
    QtMobility::QMessageFolderSortOrder::QMessageFolderSortOrder(const QtMobility::QMessageFolderSortOrder&) 0x00019519   Thumb Code    46  QtMessaging.in(.text)
    QtMobility::QMessageFolderSortOrder::QMessageFolderSortOrder__sub_object(const QtMobility::QMessageFolderSortOrder&) 0x00019519   Thumb Code     0  QtMessaging.in(.text)
    QtMobility::QMessageFolderSortOrder::~QMessageFolderSortOrder() 0x00019547   Thumb Code    34  QtMessaging.in(.text)
    QtMobility::QMessageFolderSortOrder::~QMessageFolderSortOrder__sub_object() 0x00019547   Thumb Code     0  QtMessaging.in(.text)
    QtMobility::QMessageFolderSortOrder::~QMessageFolderSortOrder__deallocating() 0x00019569   Thumb Code    16  QtMessaging.in(.text)
    QtMobility::QMessageFolderSortOrder::isEmpty() const 0x00019579   Thumb Code    12  QtMessaging.in(.text)
    QtMobility::QMessageFolderSortOrder::isSupported() const 0x00019585   Thumb Code     4  QtMessaging.in(.text)
    QtMobility::QMessageFolderSortOrder::operator +(const QtMobility::QMessageFolderSortOrder&) const 0x00019589   Thumb Code    68  QtMessaging.in(.text)
    QtMobility::QMessageFolderSortOrder::operator +=(const QtMobility::QMessageFolderSortOrder&) 0x000195cd   Thumb Code    24  QtMessaging.in(.text)
    QtMobility::QMessageFolderSortOrder::operator ==(const QtMobility::QMessageFolderSortOrder&) const 0x000195e5   Thumb Code    16  QtMessaging.in(.text)
    QtMobility::QMessageFolderSortOrder::byName(Qt::SortOrder) 0x000195f5   Thumb Code    28  QtMessaging.in(.text)
    QtMobility::QMessageFolderSortOrder::byPath(Qt::SortOrder) 0x00019611   Thumb Code    28  QtMessaging.in(.text)
    QtMobility::QMessageFolderSortOrderPrivate::lessThan(const QtMobility::QMessageFolderSortOrder&, const QtMobility::QMessageFolder&, const QtMobility::QMessageFolder&) 0x0001962d   Thumb Code   252  QtMessaging.in(.text)
    QtMobility::QMessageFilterPrivate::~QMessageFilterPrivate() 0x0001972d   Thumb Code    32  QtMessaging.in(.text)
    QtMobility::QMessageFilterPrivate::~QMessageFilterPrivate__sub_object() 0x0001972d   Thumb Code     0  QtMessaging.in(.text)
    QtMobility::QMessageFilter::~QMessageFilter() 0x0001974d   Thumb Code    64  QtMessaging.in(.text)
    QtMobility::QMessageFilter::~QMessageFilter__sub_object() 0x0001974d   Thumb Code     0  QtMessaging.in(.text)
    QtMobility::QMessageFilterPrivate::QMessageFilterPrivate(QtMobility::QMessageFilter*) 0x0001978d   Thumb Code    52  QtMessaging.in(.text)
    QtMobility::QMessageFilterPrivate::QMessageFilterPrivate__sub_object(QtMobility::QMessageFilter*) 0x0001978d   Thumb Code     0  QtMessaging.in(.text)
    QtMobility::QMessageFilter::QMessageFilter(const QtMobility::QMessageFilter&) 0x000197c1   Thumb Code    54  QtMessaging.in(.text)
    QtMobility::QMessageFilter::QMessageFilter__sub_object(const QtMobility::QMessageFilter&) 0x000197c1   Thumb Code     0  QtMessaging.in(.text)
    QtMobility::QMessageFilter::operator =(const QtMobility::QMessageFilter&) 0x000197f7   Thumb Code   216  QtMessaging.in(.text)
    QtMobility::QMessageFilter::QMessageFilter() 0x000198cf   Thumb Code   126  QtMessaging.in(.text)
    QtMobility::QMessageFilter::QMessageFilter__sub_object() 0x000198cf   Thumb Code     0  QtMessaging.in(.text)
    QtMobility::QMessageFilter::~QMessageFilter__deallocating() 0x0001994d   Thumb Code    16  QtMessaging.in(.text)
    QtMobility::QMessageFilter::setMatchFlags(QFlags<QtMobility::QMessageDataComparator::MatchFlag>) 0x0001995d   Thumb Code     8  QtMessaging.in(.text)
    QtMobility::QMessageFilter::matchFlags() const 0x00019965   Thumb Code     8  QtMessaging.in(.text)
    QtMobility::QMessageFilter::isEmpty() const 0x0001996d   Thumb Code    34  QtMessaging.in(.text)
    QtMobility::QMessageFilter::isSupported() const 0x0001998f   Thumb Code     6  QtMessaging.in(.text)
    QtMobility::QMessageFilterPrivate::lessThan(QtMobility::QMessageFilter, QtMobility::QMessageFilter) 0x00019995   Thumb Code    48  QtMessaging.in(.text)
    QtMobility::QMessageFilter::operator &=(const QtMobility::QMessageFilter&) 0x000199c5   Thumb Code   584  QtMessaging.in(.text)
    QtMobility::QMessageFilter::operator |=(const QtMobility::QMessageFilter&) 0x00019c0d   Thumb Code   274  QtMessaging.in(.text)
    QtMobility::QMessageFilterPrivate::changeANDsAndORsToOpposite(QtMobility::QMessageFilter&) 0x00019d1f   Thumb Code   372  QtMessaging.in(.text)
    QtMobility::QMessageFilterPrivate::changeComparatorValuesToOpposite(QtMobility::QMessageFilter&) 0x00019e93   Thumb Code   180  QtMessaging.in(.text)
    QtMobility::QMessageFilterPrivate::applyNot(QtMobility::QMessageFilter&) 0x00019f47   Thumb Code    16  QtMessaging.in(.text)
    QtMobility::QMessageFilter::operator ~() const 0x00019f57   Thumb Code    50  QtMessaging.in(.text)
    QtMobility::QMessageFilter::operator &(const QtMobility::QMessageFilter&) const 0x00019f89   Thumb Code    18  QtMessaging.in(.text)
    QtMobility::QMessageFilter::operator |(const QtMobility::QMessageFilter&) const 0x00019f9b   Thumb Code    18  QtMessaging.in(.text)
    QtMobility::QMessageFilter::operator ==(const QtMobility::QMessageFilter&) const 0x00019fad   Thumb Code   374  QtMessaging.in(.text)
    QtMobility::QMessageFilter::byId(const QtMobility::QMessageId&, QtMobility::QMessageDataComparator::EqualityComparator) 0x0001a123   Thumb Code    78  QtMessaging.in(.text)
    QtMobility::QMessageFilter::byId(const QList<QtMobility::QMessageId>&, QtMobility::QMessageDataComparator::InclusionComparator) 0x0001a171   Thumb Code    46  QtMessaging.in(.text)
    QtMobility::QMessageFilter::byId(const QtMobility::QMessageFilter&, QtMobility::QMessageDataComparator::InclusionComparator) 0x0001a19f   Thumb Code   120  QtMessaging.in(.text)
    QtMobility::QMessageFilter::byType(QtMobility::QMessage::Type, QtMobility::QMessageDataComparator::EqualityComparator) 0x0001a217   Thumb Code    62  QtMessaging.in(.text)
    QtMobility::QMessageFilter::byType(QFlags<QtMobility::QMessage::Type>, QtMobility::QMessageDataComparator::InclusionComparator) 0x0001a255   Thumb Code    60  QtMessaging.in(.text)
    QtMobility::QMessageFilter::bySender(const QString&, QtMobility::QMessageDataComparator::EqualityComparator) 0x0001a291   Thumb Code    62  QtMessaging.in(.text)
    QtMobility::QMessageFilter::bySender(const QString&, QtMobility::QMessageDataComparator::InclusionComparator) 0x0001a2cf   Thumb Code    60  QtMessaging.in(.text)
    QtMobility::QMessageFilter::byRecipients(const QString&, QtMobility::QMessageDataComparator::InclusionComparator) 0x0001a30b   Thumb Code    60  QtMessaging.in(.text)
    QtMobility::QMessageFilter::bySubject(const QString&, QtMobility::QMessageDataComparator::EqualityComparator) 0x0001a347   Thumb Code    62  QtMessaging.in(.text)
    QtMobility::QMessageFilter::bySubject(const QString&, QtMobility::QMessageDataComparator::InclusionComparator) 0x0001a385   Thumb Code    60  QtMessaging.in(.text)
    QtMobility::QMessageFilter::byTimeStamp(const QDateTime&, QtMobility::QMessageDataComparator::EqualityComparator) 0x0001a3c1   Thumb Code    62  QtMessaging.in(.text)
    QtMobility::QMessageFilter::byTimeStamp(const QDateTime&, QtMobility::QMessageDataComparator::RelationComparator) 0x0001a3ff   Thumb Code    58  QtMessaging.in(.text)
    QtMobility::QMessageFilter::byReceptionTimeStamp(const QDateTime&, QtMobility::QMessageDataComparator::EqualityComparator) 0x0001a439   Thumb Code    62  QtMessaging.in(.text)
    QtMobility::QMessageFilter::byReceptionTimeStamp(const QDateTime&, QtMobility::QMessageDataComparator::RelationComparator) 0x0001a477   Thumb Code    58  QtMessaging.in(.text)
    QtMobility::QMessageFilter::byStatus(QtMobility::QMessage::Status, QtMobility::QMessageDataComparator::EqualityComparator) 0x0001a4b1   Thumb Code    62  QtMessaging.in(.text)
    QtMobility::QMessageFilter::byStatus(QFlags<QtMobility::QMessage::Status>, QtMobility::QMessageDataComparator::InclusionComparator) 0x0001a4ef   Thumb Code    60  QtMessaging.in(.text)
    QtMobility::QMessageFilter::byPriority(QtMobility::QMessage::Priority, QtMobility::QMessageDataComparator::EqualityComparator) 0x0001a52b   Thumb Code    62  QtMessaging.in(.text)
    QtMobility::QMessageFilter::bySize(int, QtMobility::QMessageDataComparator::EqualityComparator) 0x0001a569   Thumb Code    62  QtMessaging.in(.text)
    QtMobility::QMessageFilter::bySize(int, QtMobility::QMessageDataComparator::RelationComparator) 0x0001a5a7   Thumb Code    58  QtMessaging.in(.text)
    QtMobility::QMessageFilter::byParentAccountId(const QtMobility::QMessageAccountId&, QtMobility::QMessageDataComparator::EqualityComparator) 0x0001a5e1   Thumb Code    76  QtMessaging.in(.text)
    QtMobility::QMessageFilter::byParentAccountId(const QtMobility::QMessageAccountFilter&, QtMobility::QMessageDataComparator::InclusionComparator) 0x0001a62d   Thumb Code    56  QtMessaging.in(.text)
    QtMobility::QMessageFilter::byStandardFolder(QtMobility::QMessage::StandardFolder, QtMobility::QMessageDataComparator::EqualityComparator) 0x0001a665   Thumb Code    62  QtMessaging.in(.text)
    QtMobility::QMessageFilter::byParentFolderId(const QtMobility::QMessageFolderId&, QtMobility::QMessageDataComparator::EqualityComparator) 0x0001a6a3   Thumb Code    76  QtMessaging.in(.text)
    QtMobility::QMessageFilter::byParentFolderId(const QtMobility::QMessageFolderFilter&, QtMobility::QMessageDataComparator::InclusionComparator) 0x0001a6ef   Thumb Code    52  QtMessaging.in(.text)
    QtMobility::QMessageFilter::byAncestorFolderIds(const QtMobility::QMessageFolderId&, QtMobility::QMessageDataComparator::InclusionComparator) 0x0001a723   Thumb Code    14  QtMessaging.in(.text)
    QtMobility::QMessageFilter::byAncestorFolderIds(const QtMobility::QMessageFolderFilter&, QtMobility::QMessageDataComparator::InclusionComparator) 0x0001a731   Thumb Code    14  QtMessaging.in(.text)
    QtMobility::QMessageFilterPrivate::filter(const QtMobility::QMessage&, const QtMobility::QMessageFilterPrivate&) 0x0001a73f   Thumb Code  2488  QtMessaging.in(.text)
    QtMobility::QMessageFilterPrivate::filter(const QtMobility::QMessage&) const 0x0001b0f7   Thumb Code   116  QtMessaging.in(.text)
    QtMobility::QMessageFilterPrivate::implementation(const QtMobility::QMessageFilter&) 0x0001b16b   Thumb Code     4  QtMessaging.in(.text)
    QtMobility::QMessageSortOrderPrivate::QMessageSortOrderPrivate(QtMobility::QMessageSortOrder*) 0x0001b171   Thumb Code    26  QtMessaging.in(.text)
    QtMobility::QMessageSortOrderPrivate::QMessageSortOrderPrivate__sub_object(QtMobility::QMessageSortOrder*) 0x0001b171   Thumb Code     0  QtMessaging.in(.text)
    QtMobility::QMessageSortOrder::QMessageSortOrder() 0x0001b18b   Thumb Code    36  QtMessaging.in(.text)
    QtMobility::QMessageSortOrder::QMessageSortOrder__sub_object() 0x0001b18b   Thumb Code     0  QtMessaging.in(.text)
    QtMobility::QMessageSortOrder::operator =(const QtMobility::QMessageSortOrder&) 0x0001b1af   Thumb Code    34  QtMessaging.in(.text)
    QtMobility::QMessageSortOrder::QMessageSortOrder(const QtMobility::QMessageSortOrder&) 0x0001b1d1   Thumb Code    46  QtMessaging.in(.text)
    QtMobility::QMessageSortOrder::QMessageSortOrder__sub_object(const QtMobility::QMessageSortOrder&) 0x0001b1d1   Thumb Code     0  QtMessaging.in(.text)
    QtMobility::QMessageSortOrder::~QMessageSortOrder() 0x0001b1ff   Thumb Code    34  QtMessaging.in(.text)
    QtMobility::QMessageSortOrder::~QMessageSortOrder__sub_object() 0x0001b1ff   Thumb Code     0  QtMessaging.in(.text)
    QtMobility::QMessageSortOrder::~QMessageSortOrder__deallocating() 0x0001b221   Thumb Code    16  QtMessaging.in(.text)
    QtMobility::QMessageSortOrder::isEmpty() const 0x0001b231   Thumb Code    12  QtMessaging.in(.text)
    QtMobility::QMessageSortOrder::isSupported() const 0x0001b23d   Thumb Code     6  QtMessaging.in(.text)
    QtMobility::QMessageSortOrder::operator +(const QtMobility::QMessageSortOrder&) const 0x0001b243   Thumb Code    68  QtMessaging.in(.text)
    QtMobility::QMessageSortOrder::operator +=(const QtMobility::QMessageSortOrder&) 0x0001b287   Thumb Code    24  QtMessaging.in(.text)
    QtMobility::QMessageSortOrder::operator ==(const QtMobility::QMessageSortOrder&) const 0x0001b29f   Thumb Code    16  QtMessaging.in(.text)
    QtMobility::QMessageSortOrderPrivate::from(QtMobility::QMessageSortOrderPrivate::Field, Qt::SortOrder) 0x0001b2af   Thumb Code    28  QtMessaging.in(.text)
    QtMobility::QMessageSortOrder::byType(Qt::SortOrder) 0x0001b2cb   Thumb Code    30  QtMessaging.in(.text)
    QtMobility::QMessageSortOrder::bySender(Qt::SortOrder) 0x0001b2e9   Thumb Code    30  QtMessaging.in(.text)
    QtMobility::QMessageSortOrder::byRecipients(Qt::SortOrder) 0x0001b307   Thumb Code    30  QtMessaging.in(.text)
    QtMobility::QMessageSortOrder::bySubject(Qt::SortOrder) 0x0001b325   Thumb Code    30  QtMessaging.in(.text)
    QtMobility::QMessageSortOrder::byTimeStamp(Qt::SortOrder) 0x0001b343   Thumb Code    30  QtMessaging.in(.text)
    QtMobility::QMessageSortOrder::byReceptionTimeStamp(Qt::SortOrder) 0x0001b361   Thumb Code    30  QtMessaging.in(.text)
    QtMobility::QMessageSortOrder::byStatus(QtMobility::QMessage::Status, Qt::SortOrder) 0x0001b37f   Thumb Code   114  QtMessaging.in(.text)
    QtMobility::QMessageSortOrder::byPriority(Qt::SortOrder) 0x0001b3f1   Thumb Code    30  QtMessaging.in(.text)
    QtMobility::QMessageSortOrder::bySize(Qt::SortOrder) 0x0001b40f   Thumb Code    30  QtMessaging.in(.text)
    QtMobility::QMessageSortOrderPrivate::implementation(const QtMobility::QMessageSortOrder&) 0x0001b42d   Thumb Code     4  QtMessaging.in(.text)
    QtMobility::QMessageSortOrderPrivate::lessThan(const QtMobility::QMessageSortOrder&, const QtMobility::QMessage&, const QtMobility::QMessage&) 0x0001b431   Thumb Code  1256  QtMessaging.in(.text)
    QtMobility::QMessageStore::error() const 0x0001b919   Thumb Code     4  QtMessaging.in(.text)
    QtMobility::QMessageStorePrivate::QMessageStorePrivate() 0x0001b91d   Thumb Code    48  QtMessaging.in(.text)
    QtMobility::QMessageStorePrivate::QMessageStorePrivate__sub_object() 0x0001b91d   Thumb Code     0  QtMessaging.in(.text)
    QtMobility::QMessageStorePrivate::queryMessages(const QtMobility::QMessageFilter&, const QtMobility::QMessageSortOrder&, unsigned, unsigned) const 0x0001b9bf   Thumb Code   134  QtMessaging.in(.text)
    QtMobility::QMessageStore::queryMessages(const QtMobility::QMessageFilter&, const QtMobility::QMessageSortOrder&, unsigned, unsigned) const 0x0001ba45   Thumb Code    36  QtMessaging.in(.text)
    QtMobility::QMessageStorePrivate::queryMessages(const QtMobility::QMessageFilter&, const QString&, QFlags<QtMobility::QMessageDataComparator::MatchFlag>, const QtMobility::QMessageSortOrder&, unsigned, unsigned) const 0x0001ba69   Thumb Code   144  QtMessaging.in(.text)
    QtMobility::QMessageStore::queryMessages(const QtMobility::QMessageFilter&, const QString&, QFlags<QtMobility::QMessageDataComparator::MatchFlag>, const QtMobility::QMessageSortOrder&, unsigned, unsigned) const 0x0001baf9   Thumb Code    44  QtMessaging.in(.text)
    QtMobility::QMessageStorePrivate::queryFolders(const QtMobility::QMessageFolderFilter&, const QtMobility::QMessageFolderSortOrder&, unsigned, unsigned) const 0x0001bb25   Thumb Code    72  QtMessaging.in(.text)
    QtMobility::QMessageStore::queryFolders(const QtMobility::QMessageFolderFilter&, const QtMobility::QMessageFolderSortOrder&, unsigned, unsigned) const 0x0001bb6d   Thumb Code    34  QtMessaging.in(.text)
    QtMobility::QMessageStorePrivate::queryAccounts(const QtMobility::QMessageAccountFilter&, const QtMobility::QMessageAccountSortOrder&, unsigned, unsigned) const 0x0001bb8f   Thumb Code    72  QtMessaging.in(.text)
    QtMobility::QMessageStore::queryAccounts(const QtMobility::QMessageAccountFilter&, const QtMobility::QMessageAccountSortOrder&, unsigned, unsigned) const 0x0001bbd7   Thumb Code    34  QtMessaging.in(.text)
    QtMobility::QMessageStorePrivate::countMessages(const QtMobility::QMessageFilter&) const 0x0001bbf9   Thumb Code   110  QtMessaging.in(.text)
    QtMobility::QMessageStore::countMessages(const QtMobility::QMessageFilter&) const 0x0001bc67   Thumb Code    16  QtMessaging.in(.text)
    QtMobility::QMessageStorePrivate::countFolders(const QtMobility::QMessageFolderFilter&) const 0x0001bc77   Thumb Code    10  QtMessaging.in(.text)
    QtMobility::QMessageStore::countFolders(const QtMobility::QMessageFolderFilter&) const 0x0001bc81   Thumb Code    16  QtMessaging.in(.text)
    QtMobility::QMessageStorePrivate::countAccounts(const QtMobility::QMessageAccountFilter&) const 0x0001bc91   Thumb Code    10  QtMessaging.in(.text)
    QtMobility::QMessageStore::countAccounts(const QtMobility::QMessageAccountFilter&) const 0x0001bc9b   Thumb Code    16  QtMessaging.in(.text)
    QtMobility::QMessageStorePrivate::addMessage(QtMobility::QMessage*) 0x0001bcab   Thumb Code   282  QtMessaging.in(.text)
    QtMobility::QMessageStore::addMessage(QtMobility::QMessage*) 0x0001bdc5   Thumb Code    16  QtMessaging.in(.text)
    QtMobility::QMessageStorePrivate::updateMessage(QtMobility::QMessage*) 0x0001bdd5   Thumb Code    44  QtMessaging.in(.text)
    QtMobility::QMessageStore::updateMessage(QtMobility::QMessage*) 0x0001be01   Thumb Code    16  QtMessaging.in(.text)
    QtMobility::QMessageStorePrivate::removeMessage(const QtMobility::QMessageId&, QtMobility::QMessageManager::RemovalOption) 0x0001be11   Thumb Code    34  QtMessaging.in(.text)
    QtMobility::QMessageStore::removeMessage(const QtMobility::QMessageId&, QtMobility::QMessageManager::RemovalOption) 0x0001be33   Thumb Code    20  QtMessaging.in(.text)
    QtMobility::QMessageStorePrivate::removeMessages(const QtMobility::QMessageFilter&, QtMobility::QMessageManager::RemovalOption) 0x0001be47   Thumb Code   240  QtMessaging.in(.text)
    QtMobility::QMessageStore::removeMessages(const QtMobility::QMessageFilter&, QtMobility::QMessageManager::RemovalOption) 0x0001bf37   Thumb Code    20  QtMessaging.in(.text)
    QtMobility::QMessageStorePrivate::message(const QtMobility::QMessageId&) const 0x0001bf4b   Thumb Code    38  QtMessaging.in(.text)
    QtMobility::QMessageStore::message(const QtMobility::QMessageId&) const 0x0001bf71   Thumb Code    22  QtMessaging.in(.text)
    QtMobility::QMessageStorePrivate::folder(const QtMobility::QMessageFolderId&) const 0x0001bf87   Thumb Code    38  QtMessaging.in(.text)
    QtMobility::QMessageStore::folder(const QtMobility::QMessageFolderId&) const 0x0001bfad   Thumb Code    22  QtMessaging.in(.text)
    QtMobility::QMessageStorePrivate::account(const QtMobility::QMessageAccountId&) const 0x0001bfc3   Thumb Code    38  QtMessaging.in(.text)
    QtMobility::QMessageStore::account(const QtMobility::QMessageAccountId&) const 0x0001bfe9   Thumb Code    22  QtMessaging.in(.text)
    QtMobility::QMessageStorePrivate::registerNotificationFilter(const QtMobility::QMessageFilter&) 0x0001bfff   Thumb Code    16  QtMessaging.in(.text)
    QtMobility::QMessageStore::registerNotificationFilter(const QtMobility::QMessageFilter&) 0x0001c00f   Thumb Code    16  QtMessaging.in(.text)
    QtMobility::QMessageStorePrivate::unregisterNotificationFilter(int) 0x0001c01f   Thumb Code    10  QtMessaging.in(.text)
    QtMobility::QMessageStore::unregisterNotificationFilter(int) 0x0001c029   Thumb Code    16  QtMessaging.in(.text)
    QtMobility::QMessageStorePrivate::initialize(QtMobility::QMessageStore*) 0x0001c039   Thumb Code    14  QtMessaging.in(.text)
    QtMobility::QMessageStore::QMessageStore(QObject*) 0x0001c047   Thumb Code    28  QtMessaging.in(.text)
    QtMobility::QMessageStore::QMessageStore__sub_object(QObject*) 0x0001c047   Thumb Code     0  QtMessaging.in(.text)
    QtMobility::QMessageStore::instance()    0x0001c063   Thumb Code    36  QtMessaging.in(.text)
    QtMobility::QMessageStore::~QMessageStore() 0x0001c087   Thumb Code    16  QtMessaging.in(.text)
    QtMobility::QMessageStore::~QMessageStore__sub_object() 0x0001c087   Thumb Code     0  QtMessaging.in(.text)
    QtMobility::QMessageStore::~QMessageStore__deallocating() 0x0001c097   Thumb Code    16  QtMessaging.in(.text)
    QtMobility::QMessageStorePrivate::getStaticMetaObject() 0x0001c0a7   Thumb Code     4  QtMessaging.in(.text)
    QtMobility::QMessageStorePrivate::metaObject() const 0x0001c0ab   Thumb Code    12  QtMessaging.in(.text)
    QtMobility::QMessageStorePrivate::qt_metacast(const char*) 0x0001c0b7   Thumb Code    40  QtMessaging.in(.text)
    QtMobility::QMessageStorePrivate::messagesCounted(int) 0x0001c0df   Thumb Code    12  QtMessaging.in(.text)
    QtMobility::QMessageStorePrivate::messagesFound(const QList<QtMobility::QMessageId>&) 0x0001c0eb   Thumb Code    20  QtMessaging.in(.text)
    QtMobility::QMessageStorePrivate::stateChanged(QtMobility::QMessageService::State) 0x0001c0ff   Thumb Code    14  QtMessaging.in(.text)
    QtMobility::QMessageStorePrivate::qt_metacall(QMetaObject::Call, int, void**) 0x0001c10d   Thumb Code    70  QtMessaging.in(.text)
    QtMobility::QMessageStorePrivate::~QMessageStorePrivate() 0x0001c153   Thumb Code    36  QtMessaging.in(.text)
    QtMobility::QMessageStorePrivate::~QMessageStorePrivate__sub_object() 0x0001c153   Thumb Code     0  QtMessaging.in(.text)
    QtMobility::QMessageStorePrivate::~QMessageStorePrivate__deallocating() 0x0001c177   Thumb Code    16  QtMessaging.in(.text)
    QtMobility::QMessageStorePrivate::messageNotification(QtMobility::QMessageStorePrivate::NotificationType, const QtMobility::QMessageId&, const QSet<int>&) 0x0001c187   Thumb Code    44  QtMessaging.in(.text)
    QtMobility::QMessageServicePrivate::QMessageServicePrivate(QtMobility::QMessageService*) 0x0001c1d5   Thumb Code    62  QtMessaging.in(.text)
    QtMobility::QMessageServicePrivate::QMessageServicePrivate__sub_object(QtMobility::QMessageService*) 0x0001c1d5   Thumb Code     0  QtMessaging.in(.text)
    QtMobility::QMessageService::QMessageService(QObject*) 0x0001c213   Thumb Code    86  QtMessaging.in(.text)
    QtMobility::QMessageService::QMessageService__sub_object(QObject*) 0x0001c213   Thumb Code     0  QtMessaging.in(.text)
    QtMobility::QMessageServicePrivate::cancel() 0x0001c269   Thumb Code    22  QtMessaging.in(.text)
    QtMobility::QMessageService::~QMessageService() 0x0001c27f   Thumb Code    22  QtMessaging.in(.text)
    QtMobility::QMessageService::~QMessageService__sub_object() 0x0001c27f   Thumb Code     0  QtMessaging.in(.text)
    QtMobility::QMessageService::~QMessageService__deallocating() 0x0001c295   Thumb Code    16  QtMessaging.in(.text)
    QtMobility::QMessageServicePrivate::setFinished(bool) 0x0001c2a5   Thumb Code    32  QtMessaging.in(.text)
    QtMobility::QMessageServicePrivate::queryMessages(const QtMobility::QMessageFilter&, const QtMobility::QMessageSortOrder&, unsigned, unsigned) const 0x0001c2c5   Thumb Code    92  QtMessaging.in(.text)
    QtMobility::QMessageService::queryMessages(const QtMobility::QMessageFilter&, const QtMobility::QMessageSortOrder&, unsigned, unsigned) 0x0001c321   Thumb Code    72  QtMessaging.in(.text)
    QtMobility::QMessageServicePrivate::queryMessages(const QtMobility::QMessageFilter&, const QString&, QFlags<QtMobility::QMessageDataComparator::MatchFlag>, const QtMobility::QMessageSortOrder&, unsigned, unsigned) const 0x0001c369   Thumb Code   110  QtMessaging.in(.text)
    QtMobility::QMessageService::queryMessages(const QtMobility::QMessageFilter&, const QString&, QFlags<QtMobility::QMessageDataComparator::MatchFlag>, const QtMobility::QMessageSortOrder&, unsigned, unsigned) 0x0001c3d7   Thumb Code    90  QtMessaging.in(.text)
    QtMobility::QMessageServicePrivate::countMessages(const QtMobility::QMessageFilter&) 0x0001c431   Thumb Code    42  QtMessaging.in(.text)
    QtMobility::QMessageService::countMessages(const QtMobility::QMessageFilter&) 0x0001c45b   Thumb Code    64  QtMessaging.in(.text)
    QtMobility::QMessageServicePrivate::sendEmail(QtMobility::QMessage&) 0x0001c49b   Thumb Code    48  QtMessaging.in(.text)
    QtMobility::QMessageServicePrivate::sendMMS(QtMobility::QMessage&) 0x0001c4cb   Thumb Code    20  QtMessaging.in(.text)
    QtMobility::QMessageServicePrivate::sendSMS(QtMobility::QMessage&) 0x0001c4df   Thumb Code    20  QtMessaging.in(.text)
    QtMobility::QMessageService::send(QtMobility::QMessage&) 0x0001c4f3   Thumb Code   720  QtMessaging.in(.text)
    QtMobility::QMessageServicePrivate::compose(const QtMobility::QMessage&) 0x0001c7c3   Thumb Code    44  QtMessaging.in(.text)
    QtMobility::QMessageService::compose(const QtMobility::QMessage&) 0x0001c7ef   Thumb Code    60  QtMessaging.in(.text)
    QtMobility::QMessageServicePrivate::retrieveHeader(const QtMobility::QMessageId&) 0x0001c82b   Thumb Code    34  QtMessaging.in(.text)
    QtMobility::QMessageService::retrieveHeader(const QtMobility::QMessageId&) 0x0001c84d   Thumb Code    78  QtMessaging.in(.text)
    QtMobility::QMessageServicePrivate::retrieveBody(const QtMobility::QMessageId&) 0x0001c89b   Thumb Code    34  QtMessaging.in(.text)
    QtMobility::QMessageService::retrieveBody(const QtMobility::QMessageId&) 0x0001c8bd   Thumb Code    78  QtMessaging.in(.text)
    QtMobility::QMessageServicePrivate::retrieve(const QtMobility::QMessageId&, const QtMobility::QMessageContentContainerId&) 0x0001c90b   Thumb Code    38  QtMessaging.in(.text)
    QtMobility::QMessageService::retrieve(const QtMobility::QMessageId&, const QtMobility::QMessageContentContainerId&) 0x0001c931   Thumb Code    96  QtMessaging.in(.text)
    QtMobility::QMessageServicePrivate::show(const QtMobility::QMessageId&) 0x0001c991   Thumb Code    30  QtMessaging.in(.text)
    QtMobility::QMessageService::show(const QtMobility::QMessageId&) 0x0001c9af   Thumb Code    76  QtMessaging.in(.text)
    QtMobility::QMessageServicePrivate::exportUpdates(const QtMobility::QMessageAccountId&) 0x0001c9fb   Thumb Code    34  QtMessaging.in(.text)
    QtMobility::QMessageService::exportUpdates(const QtMobility::QMessageAccountId&) 0x0001ca1d   Thumb Code    78  QtMessaging.in(.text)
    QtMobility::QMessageService::state() const 0x0001ca6b   Thumb Code     6  QtMessaging.in(.text)
    QtMobility::QMessageService::error() const 0x0001ca71   Thumb Code     6  QtMessaging.in(.text)
    QtMobility::QMessageService::cancel()    0x0001ca77   Thumb Code    36  QtMessaging.in(.text)
    QtMobility::QMessageServicePrivate::getStaticMetaObject() 0x0001ca9b   Thumb Code     4  QtMessaging.in(.text)
    QtMobility::QMessageServicePrivate::metaObject() const 0x0001ca9f   Thumb Code    12  QtMessaging.in(.text)
    QtMobility::QMessageServicePrivate::qt_metacast(const char*) 0x0001caab   Thumb Code    40  QtMessaging.in(.text)
    QtMobility::QMessageServicePrivate::progressChanged(unsigned, unsigned) 0x0001cad3   Thumb Code    36  QtMessaging.in(.text)
    QtMobility::QMessageServicePrivate::messagesFound(const QList<QtMobility::QMessageId>&) 0x0001caf7   Thumb Code    24  QtMessaging.in(.text)
    QtMobility::QMessageServicePrivate::stateChanged(QtMobility::QMessageService::State) 0x0001cb0f   Thumb Code    28  QtMessaging.in(.text)
    QtMobility::QMessageServicePrivate::qt_metacall(QMetaObject::Call, int, void**) 0x0001cb2b   Thumb Code    74  QtMessaging.in(.text)
    QtMobility::QMessageServicePrivate::~QMessageServicePrivate() 0x0001cb75   Thumb Code    48  QtMessaging.in(.text)
    QtMobility::QMessageServicePrivate::~QMessageServicePrivate__sub_object() 0x0001cb75   Thumb Code     0  QtMessaging.in(.text)
    QtMobility::QMessageServicePrivate::~QMessageServicePrivate__deallocating() 0x0001cba5   Thumb Code    16  QtMessaging.in(.text)
    QtMobility::QMessageServicePrivate::messagesFound(const QList<QtMobility::QMessageId>&, bool, bool) 0x0001cbb5   Thumb Code   196  QtMessaging.in(.text)
    QtMobility::QMessageServicePrivate::messagesCounted(int) 0x0001cc79   Thumb Code    40  QtMessaging.in(.text)
    QtMobility::MessageCache::~MessageCache() 0x0001cca9   Thumb Code    18  QtMessaging.in(.text)
    QtMobility::MessageCache::~MessageCache__sub_object() 0x0001cca9   Thumb Code     0  QtMessaging.in(.text)
    QtMobility::MessagingHelper::~MessagingHelper() 0x0001ccbb   Thumb Code     2  QtMessaging.in(.text)
    QtMobility::MessagingHelper::~MessagingHelper__sub_object() 0x0001ccbb   Thumb Code     0  QtMessaging.in(.text)
    QtMobility::MessagingHelper::MessagingHelper() 0x0001ccbd   Thumb Code     2  QtMessaging.in(.text)
    QtMobility::MessagingHelper::MessagingHelper__sub_object() 0x0001ccbd   Thumb Code     0  QtMessaging.in(.text)
    QtMobility::MessagingHelper::instance()  0x0001cd29   Thumb Code     2  QtMessaging.in(.text)
    QtMobility::MessagingHelper::filterAccounts(QList<QtMobility::QMessageAccountId>&, const QtMobility::QMessageAccountFilter&) 0x0001cd2b   Thumb Code   138  QtMessaging.in(.text)
    QtMobility::MessagingHelper::accountLessThan(QtMobility::QMessageAccountId, QtMobility::QMessageAccountId) 0x0001cdb5   Thumb Code    66  QtMessaging.in(.text)
    QtMobility::MessagingHelper::orderAccounts(QList<QtMobility::QMessageAccountId>&, const QtMobility::QMessageAccountSortOrder&) 0x0001cdf7   Thumb Code    68  QtMessaging.in(.text)
    QtMobility::MessagingHelper::applyOffsetAndLimitToAccountIdList(QList<QtMobility::QMessageAccountId>&, int, int) 0x0001ce3b   Thumb Code   104  QtMessaging.in(.text)
    QtMobility::MessagingHelper::filterFolders(QList<QtMobility::QMessageFolderId>&, const QtMobility::QMessageFolderFilter&) 0x0001cea3   Thumb Code   138  QtMessaging.in(.text)
    QtMobility::MessagingHelper::folderLessThan(QtMobility::QMessageFolderId, QtMobility::QMessageFolderId) 0x0001cf2d   Thumb Code    64  QtMessaging.in(.text)
    QtMobility::MessagingHelper::orderFolders(QList<QtMobility::QMessageFolderId>&, const QtMobility::QMessageFolderSortOrder&) 0x0001cf6d   Thumb Code    68  QtMessaging.in(.text)
    QtMobility::MessagingHelper::applyOffsetAndLimitToFolderIdList(QList<QtMobility::QMessageFolderId>&, int, int) 0x0001cfb1   Thumb Code   104  QtMessaging.in(.text)
    QtMobility::MessageCache::unlock()       0x0001d019   Thumb Code    10  QtMessaging.in(.text)
    QtMobility::MessageCache::messageObject(const QtMobility::QMessageId&) 0x0001d023   Thumb Code    30  QtMessaging.in(.text)
    QtMobility::MessageCache::lock()         0x0001d041   Thumb Code    10  QtMessaging.in(.text)
    QtMobility::MessageCache::MessageCache() 0x0001d04b   Thumb Code    78  QtMessaging.in(.text)
    QtMobility::MessageCache::MessageCache__sub_object() 0x0001d04b   Thumb Code     0  QtMessaging.in(.text)
    QtMobility::MessageCache::instance()     0x0001d10d   Thumb Code     2  QtMessaging.in(.text)
    QtMobility::MessagingHelper::filterMessages(QList<QtMobility::QMessageId>&, const QtMobility::QMessageFilter&) 0x0001d10f   Thumb Code   216  QtMessaging.in(.text)
    QtMobility::MessagingHelper::messageLessThan(QtMobility::QMessageId, QtMobility::QMessageId) 0x0001d1e7   Thumb Code   238  QtMessaging.in(.text)
    QtMobility::MessagingHelper::orderMessages(QList<QtMobility::QMessageId>&, const QtMobility::QMessageSortOrder&) 0x0001d2d5   Thumb Code    68  QtMessaging.in(.text)
    QtMobility::MessagingHelper::applyOffsetAndLimitToMessageIdList(QList<QtMobility::QMessageId>&, int, int) 0x0001d319   Thumb Code   104  QtMessaging.in(.text)
    QtMobility::MessagingHelper::handleNestedFiltersFromFolderFilter(QtMobility::QMessageFolderFilter&) 0x0001d381   Thumb Code   932  QtMessaging.in(.text)
    QtMobility::MessagingHelper::handleNestedFiltersFromMessageFilter(QtMobility::QMessageFilter&) 0x0001d725   Thumb Code  1644  QtMessaging.in(.text)
    QtMobility::MessagingHelper::preFilter(QtMobility::QMessageFilter&, QtMobility::QMessage::Type) 0x0001dd91   Thumb Code    58  QtMessaging.in(.text)
    QtMobility::MessagingHelper::extractMIMEHeaderParts(const QByteArray&, QByteArray&, QByteArray&, QByteArray&) 0x0001ddcb   Thumb Code   334  QtMessaging.in(.text)
    QtMobility::MessageCache::insert(const QtMobility::QMessage&) 0x0001df19   Thumb Code   108  QtMessaging.in(.text)
    QtMobility::MessageCache::update(const QtMobility::QMessage&) 0x0001df85   Thumb Code   134  QtMessaging.in(.text)
    QtMobility::MessageCache::remove(const QtMobility::QMessageId&) 0x0001e00b   Thumb Code    50  QtMessaging.in(.text)
    QtMobility::MessageCache::contains(const QtMobility::QMessageId&) 0x0001e03d   Thumb Code    68  QtMessaging.in(.text)
    QtMobility::MessageCache::message(const QtMobility::QMessageId&) 0x0001e081   Thumb Code    66  QtMessaging.in(.text)
    QtMobility::MessageCache::messageIds()   0x0001e0c3   Thumb Code   158  QtMessaging.in(.text)
    QtMobility::MessageCache::isFull() const 0x0001e161   Thumb Code    18  QtMessaging.in(.text)
    QtMobility::MessageCache::count() const  0x0001e173   Thumb Code     6  QtMessaging.in(.text)
    QtMobility::MessageCache::insertObject(QtMobility::QMessage*) 0x0001e179   Thumb Code    68  QtMessaging.in(.text)
    QtMobility::MessageCache::clear()        0x0001e1bd   Thumb Code    28  QtMessaging.in(.text)
    _E32Dll_Body                             0x0001e1dd   Thumb Code    34  uc_dll.o(.text)
    CppBSSInitializationError                0x0001e204   ARM Code       4  ucppfini.o(.text)
    __aeabi_atexit                           0x0001e208   ARM Code      28  ucppfini.o(.text)
    __cxa_atexit                             0x0001e224   ARM Code      48  ucppfini.o(.text)
    __cxa_finalize                           0x0001e254   ARM Code      48  ucppfini.o(.text)
    run_static_dtors                         0x0001e284   ARM Code       8  ucppfini.o(.text)
    __DLL_Export_Table__                     0x00020ae4   ARM Code       0  QtMessaging{00010103}.exp(ExportTable)
    DLL##ExportTableSize                     0x00020ae8   Data           0  QtMessaging{00010103}.exp(ExportTable)
    DLL##ExportTable                         0x00020aec   Data           0  QtMessaging{00010103}.exp(ExportTable)
    CMessageData::NewLC()                    0x00021174   ARM Code       0  SENDUI{000a0000}-11.o(StubCode)
    CMessageData::SetSubjectL(const TDesC16*) 0x0002117c   ARM Code       0  SENDUI{000a0000}-2.o(StubCode)
    CMessageData::SetBodyTextL(const CRichText*) 0x00021184   ARM Code       0  SENDUI{000a0000}-3.o(StubCode)
    CMessageData::AppendCcAddressL(const TDesC16&, const TDesC16&) 0x0002118c   ARM Code       0  SENDUI{000a0000}-4.o(StubCode)
    CSendUi::CreateAndSendMessageL(TUid, const CMessageData*, TUid, int) 0x00021194   ARM Code       0  SENDUI{000a0000}-49.o(StubCode)
    CMessageData::AppendToAddressL(const TDesC16&, const TDesC16&) 0x0002119c   ARM Code       0  SENDUI{000a0000}-5.o(StubCode)
    CSendUi::NewL()                          0x000211a4   ARM Code       0  SENDUI{000a0000}-50.o(StubCode)
    CMessageData::AppendAttachmentL(const TDesC16&) 0x000211ac   ARM Code       0  SENDUI{000a0000}-6.o(StubCode)
    CMessageData::AppendBccAddressL(const TDesC16&, const TDesC16&) 0x000211b4   ARM Code       0  SENDUI{000a0000}-7.o(StubCode)
    CMsvEntryFilter::NewLC()                 0x000211bc   ARM Code       0  msgs{000a0000}-103.o(StubCode)
    CMsvFindOperation::FindInSelectionL(CMsvSession&, const TDesC16&, const CMsvEntrySelection&, unsigned, TRequestStatus&) 0x000211c4   ARM Code       0  msgs{000a0000}-168.o(StubCode)
    CMsvSession::GetChildIdsL(long, const CMsvEntryFilter&, CMsvEntrySelection&) 0x000211cc   ARM Code       0  msgs{000a0000}-22.o(StubCode)
    CClientMtmRegistry::NewL(CMsvSession&, TTimeIntervalMicroSeconds32) 0x000211d4   ARM Code       0  msgs{000a0000}-249.o(StubCode)
    CClientMtmRegistry::NewMtmL(TUid)        0x000211dc   ARM Code       0  msgs{000a0000}-250.o(StubCode)
    CMsvEntrySelection::CMsvEntrySelection() 0x000211e4   ARM Code       0  msgs{000a0000}-254.o(StubCode)
    TMsvSelectionOrdering::TMsvSelectionOrdering(int, TMsvSorting, int) 0x000211ec   ARM Code       0  msgs{000a0000}-294.o(StubCode)
    TMsvSelectionOrdering::TMsvSelectionOrdering() 0x000211f4   ARM Code       0  msgs{000a0000}-295.o(StubCode)
    CBaseMtm::SetCurrentEntryL(CMsvEntry*)   0x000211fc   ARM Code       0  msgs{000a0000}-339.o(StubCode)
    CMsvSession::OpenSyncL(MMsvSessionObserver&) 0x00021204   ARM Code       0  msgs{000a0000}-34.o(StubCode)
    CBaseMtm::SwitchCurrentEntryL(long)      0x0002120c   ARM Code       0  msgs{000a0000}-343.o(StubCode)
    CMsvEntry::EditStoreL()                  0x00021214   ARM Code       0  msgs{000a0000}-354.o(StubCode)
    CMsvEntry::ReadStoreL()                  0x0002121c   ARM Code       0  msgs{000a0000}-355.o(StubCode)
    CMsvEntry::SetSortTypeL(const TMsvSelectionOrdering&) 0x00021224   ARM Code       0  msgs{000a0000}-358.o(StubCode)
    CMsvEntry::NewL(CMsvSession&, long, const TMsvSelectionOrdering&) 0x0002122c   ARM Code       0  msgs{000a0000}-361.o(StubCode)
    CMsvEntry::CopyL(long, long)             0x00021234   ARM Code       0  msgs{000a0000}-364.o(StubCode)
    CMsvEntry::CopyL(long, long, TRequestStatus&) 0x0002123c   ARM Code       0  msgs{000a0000}-365.o(StubCode)
    CMsvEntry::MoveL(long, long, TRequestStatus&) 0x00021244   ARM Code       0  msgs{000a0000}-369.o(StubCode)
    CMsvEntry::ChangeL(const TMsvEntry&)     0x0002124c   ARM Code       0  msgs{000a0000}-370.o(StubCode)
    CMsvEntry::ChangeL(const TMsvEntry&, TRequestStatus&) 0x00021254   ARM Code       0  msgs{000a0000}-371.o(StubCode)
    CMsvEntry::DeleteL(long)                 0x0002125c   ARM Code       0  msgs{000a0000}-376.o(StubCode)
    CMsvEntry::DeleteL(long, TRequestStatus&) 0x00021264   ARM Code       0  msgs{000a0000}-377.o(StubCode)
    CMsvEntry::SetEntryL(long)               0x0002126c   ARM Code       0  msgs{000a0000}-378.o(StubCode)
    CMsvStore::StoreBodyTextL(const CRichText&) 0x00021274   ARM Code       0  msgs{000a0000}-384.o(StubCode)
    CMsvStore::RestoreBodyTextL(CRichText&)  0x0002127c   ARM Code       0  msgs{000a0000}-386.o(StubCode)
    CMsvStore::CommitL()                     0x00021284   ARM Code       0  msgs{000a0000}-391.o(StubCode)
    TMsvEntry::SetPriority(TMsvPriority)     0x0002128c   ARM Code       0  msgs{000a0000}-402.o(StubCode)
    TMsvEntry::TMsvEntry(const TMsvEntry&)   0x00021294   ARM Code       0  msgs{000a0000}-404.o(StubCode)
    TMsvEntry::TMsvEntry()                   0x0002129c   ARM Code       0  msgs{000a0000}-405.o(StubCode)
    TMsvEntry::operator =(const TMsvEntry&)  0x000212a4   ARM Code       0  msgs{000a0000}-408.o(StubCode)
    CMsvEntry::ChildrenWithTypeL(TUid) const 0x000212ac   ARM Code       0  msgs{000a0000}-467.o(StubCode)
    CMsvEntry::ChildrenL() const             0x000212b4   ARM Code       0  msgs{000a0000}-469.o(StubCode)
    CMsvEntry::HasStoreL() const             0x000212bc   ARM Code       0  msgs{000a0000}-470.o(StubCode)
    CMsvEntry::operator [](int) const        0x000212c4   ARM Code       0  msgs{000a0000}-471.o(StubCode)
    CMsvStore::HasBodyTextL() const          0x000212cc   ARM Code       0  msgs{000a0000}-473.o(StubCode)
    TMsvEntry::Priority() const              0x000212d4   ARM Code       0  msgs{000a0000}-477.o(StubCode)
    CMsvSession::GetEntry(long, long&, TMsvEntry&) 0x000212dc   ARM Code       0  msgs{000a0000}-630.o(StubCode)
    CMsvSession::GetEntryL(long)             0x000212e4   ARM Code       0  msgs{000a0000}-631.o(StubCode)
    CMsvAttachment::SetAttachmentNameL(const TDesC16&) 0x000212ec   ARM Code       0  msgs{000a0000}-640.o(StubCode)
    CMsvAttachment::NewL(CMsvAttachment::TMsvAttachmentType) 0x000212f4   ARM Code       0  msgs{000a0000}-643.o(StubCode)
    CMsvMimeHeaders::SetSuggestedFilenameL(const TDesC16&) 0x000212fc   ARM Code       0  msgs{000a0000}-660.o(StubCode)
    CMsvMimeHeaders::NewL()                  0x00021304   ARM Code       0  msgs{000a0000}-665.o(StubCode)
    CMsvStore::AttachmentManagerL()          0x0002130c   ARM Code       0  msgs{000a0000}-700.o(StubCode)
    CMsvAttachment::AttachmentName() const   0x00021314   ARM Code       0  msgs{000a0000}-707.o(StubCode)
    CMsvAttachment::Id() const               0x0002131c   ARM Code       0  msgs{000a0000}-711.o(StubCode)
    CMsvAttachment::Size() const             0x00021324   ARM Code       0  msgs{000a0000}-712.o(StubCode)
    CMsvAttachment::FilePath() const         0x0002132c   ARM Code       0  msgs{000a0000}-715.o(StubCode)
    CMsvAttachment::MimeType() const         0x00021334   ARM Code       0  msgs{000a0000}-716.o(StubCode)
    CMsvRecipientList::Type(int) const       0x0002133c   ARM Code       0  msgs{000a0000}-798.o(StubCode)
    CMsvRecipientList::Count() const         0x00021344   ARM Code       0  msgs{000a0000}-799.o(StubCode)
    CMsvRecipientList::operator [](int) const 0x0002134c   ARM Code       0  msgs{000a0000}-801.o(StubCode)
    CBaseMtm::AddresseeList() const          0x00021354   ARM Code       0  msgs{000a0000}-802.o(StubCode)
    CBaseMtm::Body()                         0x0002135c   ARM Code       0  msgs{000a0000}-828.o(StubCode)
    CBaseMtm::Session()                      0x00021364   ARM Code       0  msgs{000a0000}-829.o(StubCode)
    CBaseMtm::Type() const                   0x0002136c   ARM Code       0  msgs{000a0000}-832.o(StubCode)
    CBaseMtm::Entry() const                  0x00021374   ARM Code       0  msgs{000a0000}-833.o(StubCode)
    CCharFormatLayer::NewL()                 0x0002137c   ARM Code       0  etext{000a0000}-117.o(StubCode)
    CParaFormatLayer::NewL()                 0x00021384   ARM Code       0  etext{000a0000}-122.o(StubCode)
    CRichText::NewL(const CParaFormatLayer*, const CCharFormatLayer*, CEditableText::TDocumentStorage, int, CRichText::TParaType) 0x0002138c   ARM Code       0  etext{000a0000}-178.o(StubCode)
    CFileMan::NewL(RFs&)                     0x00021394   ARM Code       0  efsrv{000a0000}-141.o(StubCode)
    CFileMan::RmDir(const TDesC16&)          0x0002139c   ARM Code       0  efsrv{000a0000}-143.o(StubCode)
    RFile::Read(TDes8&) const                0x000213a4   ARM Code       0  efsrv{000a0000}-255.o(StubCode)
    RFile::Size(int&) const                  0x000213ac   ARM Code       0  efsrv{000a0000}-264.o(StubCode)
    RFs::PrivatePath(TDes16&)                0x000213b4   ARM Code       0  efsrv{000a0000}-27.o(StubCode)
    RFile::Name(TDes16&) const               0x000213bc   ARM Code       0  efsrv{000a0000}-298.o(StubCode)
    RFile::Close()                           0x000213c4   ARM Code       0  efsrv{000a0000}-300.o(StubCode)
    RFs::CreatePrivatePath(int)              0x000213cc   ARM Code       0  efsrv{000a0000}-52.o(StubCode)
    RFs::Connect(int)                        0x000213d4   ARM Code       0  efsrv{000a0000}-68.o(StubCode)
    RFs::MkDirAll(const TDesC16&)            0x000213dc   ARM Code       0  efsrv{000a0000}-70.o(StubCode)
    RFile::Open(RFs&, const TDesC16&, unsigned) 0x000213e4   ARM Code       0  efsrv{000a0000}-93.o(StubCode)
    RFile::Temp(RFs&, const TDesC16&, TBuf<(int)256>&, unsigned) 0x000213ec   ARM Code       0  efsrv{000a0000}-94.o(StubCode)
    RFile::Write(const TDesC8&)              0x000213f4   ARM Code       0  efsrv{000a0000}-97.o(StubCode)
    CnvUtfConverter::ConvertFromUnicodeToUtf8L(const TDesC16&) 0x000213fc   ARM Code       0  CHARCONV{000a0000}-6.o(StubCode)
    CnvUtfConverter::ConvertToUnicodeFromUtf8L(const TDesC8&) 0x00021404   ARM Code       0  CHARCONV{000a0000}-8.o(StubCode)
    CSmsPDU::SetServiceCenterAddressL(const TDesC16&) 0x0002140c   ARM Code       0  gsmu{000a0000}-149.o(StubCode)
    CSmsPDU::ToFromAddress() const           0x00021414   ARM Code       0  gsmu{000a0000}-258.o(StubCode)
    CSmsPDU::IndicationState() const         0x0002141c   ARM Code       0  gsmu{000a0000}-261.o(StubCode)
    CSmsPDU::ServiceCenterAddress() const    0x00021424   ARM Code       0  gsmu{000a0000}-268.o(StubCode)
    CSmsPDU::Bits7To4() const                0x0002142c   ARM Code       0  gsmu{000a0000}-280.o(StubCode)
    CImMimeHeader::SetContentSubTypeL(const TDesC8&) 0x00021434   ARM Code       0  imcm{000a0000}-11.o(StubCode)
    CImMimeHeader::Size()                    0x0002143c   ARM Code       0  imcm{000a0000}-17.o(StubCode)
    CImMimeHeader::NewLC()                   0x00021444   ARM Code       0  imcm{000a0000}-18.o(StubCode)
    CImMimeHeader::RestoreL(CMsvStore&)      0x0002144c   ARM Code       0  imcm{000a0000}-20.o(StubCode)
    CImEmailOperation::CreateNewL(TRequestStatus&, CMsvSession&, long, long, unsigned, const unsigned&, TUid, int) 0x00021454   ARM Code       0  imcm{000a0000}-228.o(StubCode)
    CImHeader::SetSubjectL(const TDesC16&)   0x0002145c   ARM Code       0  imcm{000a0000}-356.o(StubCode)
    CImHeader::NewLC()                       0x00021464   ARM Code       0  imcm{000a0000}-370.o(StubCode)
    CImHeader::DataSize()                    0x0002146c   ARM Code       0  imcm{000a0000}-372.o(StubCode)
    CImHeader::RestoreL(CMsvStore&)          0x00021474   ARM Code       0  imcm{000a0000}-373.o(StubCode)
    CImHeader::SetFromL(const TDesC16&)      0x0002147c   ARM Code       0  imcm{000a0000}-375.o(StubCode)
    CImMimeHeader::ContentType() const       0x00021484   ARM Code       0  imcm{000a0000}-381.o(StubCode)
    CImMimeHeader::MimeCharset() const       0x0002148c   ARM Code       0  imcm{000a0000}-382.o(StubCode)
    CImMimeHeader::ContentSubType() const    0x00021494   ARM Code       0  imcm{000a0000}-385.o(StubCode)
    CImMimeHeader::StoreL(CMsvStore&) const  0x0002149c   ARM Code       0  imcm{000a0000}-393.o(StubCode)
    CImEmailMessage::Selection() const       0x000214a4   ARM Code       0  imcm{000a0000}-410.o(StubCode)
    CImHeader::From() const                  0x000214ac   ARM Code       0  imcm{000a0000}-523.o(StubCode)
    CImHeader::StoreL(CMsvStore&) const      0x000214b4   ARM Code       0  imcm{000a0000}-524.o(StubCode)
    CImHeader::Subject() const               0x000214bc   ARM Code       0  imcm{000a0000}-528.o(StubCode)
    CImEmailMessage::AttachmentManager() const 0x000214c4   ARM Code       0  imcm{000a0000}-658.o(StubCode)
    CEmailAccounts::NewLC()                  0x000214cc   ARM Code       0  imcm{000a0000}-686.o(StubCode)
    CImMimeHeader::SetMimeCharset(unsigned)  0x000214d4   ARM Code       0  imcm{000a0000}-7.o(StubCode)
    CImEmailMessage::StoreBodyTextWithMimeHeaderL(long, CRichText&, const CImMimeHeader&, TRequestStatus&) 0x000214dc   ARM Code       0  imcm{000a0000}-728.o(StubCode)
    CImEmailMessage::GetBodyTextL(long, CImEmailMessage::TImEmailEntryType, CRichText&, CParaFormatLayer&, CCharFormatLayer&) 0x000214e4   ARM Code       0  imcm{000a0000}-74.o(StubCode)
    CEmailAccounts::GetPopAccountsL(RArray<TPopAccount>&) 0x000214ec   ARM Code       0  imcm{000a0000}-743.o(StubCode)
    CEmailAccounts::GetImapAccountsL(RArray<TImapAccount>&) 0x000214f4   ARM Code       0  imcm{000a0000}-745.o(StubCode)
    CEmailAccounts::GetSmtpAccountsL(RArray<TSmtpAccount>&) 0x000214fc   ARM Code       0  imcm{000a0000}-746.o(StubCode)
    CEmailAccounts::DefaultSmtpAccountL(TSmtpAccount&) 0x00021504   ARM Code       0  imcm{000a0000}-761.o(StubCode)
    CImEmailMessage::GetAttachmentsListL(long, CImEmailMessage::TImAttachmentType, CImEmailMessage::TImEmailEntryType) 0x0002150c   ARM Code       0  imcm{000a0000}-83.o(StubCode)
    CImEmailMessage::NewL(CMsvEntry&)        0x00021514   ARM Code       0  imcm{000a0000}-88.o(StubCode)
    CImEmailMessage::NewLC(CMsvEntry&)       0x0002151c   ARM Code       0  imcm{000a0000}-89.o(StubCode)
    CImMimeHeader::SetContentTypeL(const TDesC8&) 0x00021524   ARM Code       0  imcm{000a0000}-9.o(StubCode)
    CDesC16Array::Reset()                    0x0002152c   ARM Code       0  bafl{000a0000}-40.o(StubCode)
    CDesC16Array::AppendL(const TDesC16&)    0x00021534   ARM Code       0  bafl{000a0000}-43.o(StubCode)
    CMtmUiRegistry::NewL(CMsvSession&, TTimeIntervalMicroSeconds32) 0x0002153c   ARM Code       0  mtur{000a0000}-31.o(StubCode)
    CMtmUiRegistry::NewMtmUiL(CBaseMtm&)     0x00021544   ARM Code       0  mtur{000a0000}-32.o(StubCode)
    CBaseMtmUi::BaseMtm() const              0x0002154c   ARM Code       0  mtur{000a0000}-58.o(StubCode)
    CSmsNumber::NewL()                       0x00021554   ARM Code       0  smcm{000a0000}-21.o(StubCode)
    CSmsSettings::NewL()                     0x0002155c   ARM Code       0  smcm{000a0000}-23.o(StubCode)
    CSmsSettings::GetServiceCenter(int) const 0x00021564   ARM Code       0  smcm{000a0000}-281.o(StubCode)
    CSmsSettings::ServiceCenterCount() const 0x0002156c   ARM Code       0  smcm{000a0000}-282.o(StubCode)
    CSmsSettings::DefaultServiceCenter() const 0x00021574   ARM Code       0  smcm{000a0000}-283.o(StubCode)
    CSmsServiceCenter::Address() const       0x0002157c   ARM Code       0  smcm{000a0000}-285.o(StubCode)
    CSmsHeader::SetSmsSettingsL(const CSmsMessageSettings&) 0x00021584   ARM Code       0  smcm{000a0000}-31.o(StubCode)
    CSmsNumber::Address() const              0x0002158c   ARM Code       0  smcm{000a0000}-42.o(StubCode)
    CSmsNumber::SetAddressL(const TDesC16&)  0x00021594   ARM Code       0  smcm{000a0000}-44.o(StubCode)
    CSmsSettings::CopyL(const CSmsSettings&) 0x0002159c   ARM Code       0  smcm{000a0000}-5.o(StubCode)
    RApaLsSession::RecognizeData(const TDesC16&, const TDesC8&, TDataRecognitionResult&) const 0x000215a4   ARM Code       0  apgrfx{000a0000}-151.o(StubCode)
    RApaLsSession::Connect()                 0x000215ac   ARM Code       0  apgrfx{000a0000}-25.o(StubCode)
    RApaLsSession::RApaLsSession()           0x000215b4   ARM Code       0  apgrfx{000a0000}-28.o(StubCode)
    RApaLsSession::Close()                   0x000215bc   ARM Code       0  apgrfx{000a0000}-323.o(StubCode)
    TDataType::TDataType()                   0x000215c4   ARM Code       0  apmime{000a0000}-61.o(StubCode)
    TDataType::Des8() const                  0x000215cc   ARM Code       0  apmime{000a0000}-79.o(StubCode)
    operator delete (void*)                  0x000215d4   ARM Code       0  libstdcpp{00010000}-988.o(StubCode)
    operator new(unsigned)                   0x000215dc   ARM Code       0  libstdcpp{00010000}-992.o(StubCode)
    QByteArray::append(const char*)          0x000215e4   ARM Code       0  QtCore{00040703}-126.o(StubCode)
    QByteArray::append(const QByteArray&)    0x000215ec   ARM Code       0  QtCore{00040703}-128.o(StubCode)
    QByteArray::insert(int, const QByteArray&) 0x000215f4   ARM Code       0  QtCore{00040703}-133.o(StubCode)
    QByteArray::remove(int, int)             0x000215fc   ARM Code       0  QtCore{00040703}-140.o(StubCode)
    QByteArray::realloc(int)                 0x00021604   ARM Code       0  QtCore{00040703}-150.o(StubCode)
    QByteArray::replace(const QByteArray&, const QByteArray&) 0x0002160c   ARM Code       0  QtCore{00040703}-153.o(StubCode)
    QChar::QChar(char)                       0x00021614   ARM Code       0  QtCore{00040703}-1560.o(StubCode)
    QDate::QDate(int, int, int)              0x0002161c   ARM Code       0  QtCore{00040703}-1582.o(StubCode)
    QByteArray::QByteArray(const char*)      0x00021624   ARM Code       0  QtCore{00040703}-159.o(StubCode)
    QByteArray::QByteArray(const char*, int) 0x0002162c   ARM Code       0  QtCore{00040703}-160.o(StubCode)
    QFile::open(QFlags<QIODevice::OpenModeFlag>) 0x00021634   ARM Code       0  QtCore{00040703}-1603.o(StubCode)
    QFile::close()                           0x0002163c   ARM Code       0  QtCore{00040703}-1607.o(StubCode)
    QFile::exists(const QString&)            0x00021644   ARM Code       0  QtCore{00040703}-1610.o(StubCode)
    QFile::QFile(const QString&)             0x0002164c   ARM Code       0  QtCore{00040703}-1622.o(StubCode)
    QFile::~QFile()                          0x00021654   ARM Code       0  QtCore{00040703}-1631.o(StubCode)
    QTime::QTime(int, int, int, int)         0x0002165c   ARM Code       0  QtCore{00040703}-1643.o(StubCode)
    QByteArray::operator =(const char*)      0x00021664   ARM Code       0  QtCore{00040703}-167.o(StubCode)
    QMutex::lock()                           0x0002166c   ARM Code       0  QtCore{00040703}-1670.o(StubCode)
    QMutex::unlock()                         0x00021674   ARM Code       0  QtCore{00040703}-1671.o(StubCode)
    QMutex::QMutex(QMutex::RecursionMode)    0x0002167c   ARM Code       0  QtCore{00040703}-1674.o(StubCode)
    QMutex::~QMutex()                        0x00021684   ARM Code       0  QtCore{00040703}-1676.o(StubCode)
    QByteArray::operator =(const QByteArray&) 0x0002168c   ARM Code       0  QtCore{00040703}-168.o(StubCode)
    QEventLoop::exec(QFlags<QEventLoop::ProcessEventsFlag>) 0x00021694   ARM Code       0  QtCore{00040703}-175.o(StubCode)
    QObject::childEvent(QChildEvent*)        0x0002169c   ARM Code       0  QtCore{00040703}-1760.o(StubCode)
    QObject::timerEvent(QTimerEvent*)        0x000216a4   ARM Code       0  QtCore{00040703}-1763.o(StubCode)
    QObject::customEvent(QEvent*)            0x000216ac   ARM Code       0  QtCore{00040703}-1764.o(StubCode)
    QObject::eventFilter(QObject*, QEvent*)  0x000216b4   ARM Code       0  QtCore{00040703}-1766.o(StubCode)
    QObject::qt_metacall(QMetaObject::Call, int, void**) 0x000216bc   ARM Code       0  QtCore{00040703}-1767.o(StubCode)
    QObject::qt_metacast(const char*)        0x000216c4   ARM Code       0  QtCore{00040703}-1768.o(StubCode)
    QEventLoop::quit()                       0x000216cc   ARM Code       0  QtCore{00040703}-177.o(StubCode)
    QObject::connectNotify(const char*)      0x000216d4   ARM Code       0  QtCore{00040703}-1773.o(StubCode)
    QObject::disconnectNotify(const char*)   0x000216dc   ARM Code       0  QtCore{00040703}-1777.o(StubCode)
    QObject::event(QEvent*)                  0x000216e4   ARM Code       0  QtCore{00040703}-1784.o(StubCode)
    QObject::connect(const QObject*, const char*, const QObject*, const char*, Qt::ConnectionType) 0x000216ec   ARM Code       0  QtCore{00040703}-1785.o(StubCode)
    QObject::QObject(QObject*)               0x000216f4   ARM Code       0  QtCore{00040703}-1789.o(StubCode)
    QEventLoop::QEventLoop(QObject*)         0x000216fc   ARM Code       0  QtCore{00040703}-179.o(StubCode)
    QObject::~QObject()                      0x00021704   ARM Code       0  QtCore{00040703}-1794.o(StubCode)
    QRegExp::cap(int)                        0x0002170c   ARM Code       0  QtCore{00040703}-1802.o(StubCode)
    QRegExp::QRegExp(const QString&, Qt::CaseSensitivity, QRegExp::PatternSyntax) 0x00021714   ARM Code       0  QtCore{00040703}-1805.o(StubCode)
    QRegExp::~QRegExp()                      0x0002171c   ARM Code       0  QtCore{00040703}-1811.o(StubCode)
    QString::fromLatin1(const char*, int)    0x00021724   ARM Code       0  QtCore{00040703}-1814.o(StubCode)
    QEventLoop::~QEventLoop()                0x0002172c   ARM Code       0  QtCore{00040703}-182.o(StubCode)
    QString::fromAscii_helper(const char*, int) 0x00021734   ARM Code       0  QtCore{00040703}-1825.o(StubCode)
    QString::free(QString::Data*)            0x0002173c   ARM Code       0  QtCore{00040703}-1830.o(StubCode)
    QString::append(const QString&)          0x00021744   ARM Code       0  QtCore{00040703}-1836.o(StubCode)
    QString::insert(int, const QChar*, int)  0x0002174c   ARM Code       0  QtCore{00040703}-1839.o(StubCode)
    QString::number(int, int)                0x00021754   ARM Code       0  QtCore{00040703}-1842.o(StubCode)
    QString::number(long, int)               0x0002175c   ARM Code       0  QtCore{00040703}-1844.o(StubCode)
    QString::fromAscii(const char*, int)     0x00021764   ARM Code       0  QtCore{00040703}-1874.o(StubCode)
    QString::fromUtf16(const unsigned short*, int) 0x0002176c   ARM Code       0  QtCore{00040703}-1875.o(StubCode)
    QString::operator =(const QString&)      0x00021774   ARM Code       0  QtCore{00040703}-1885.o(StubCode)
    QMapData::node_delete(QMapData::Node**, int, QMapData::Node*) 0x0002177c   ARM Code       0  QtCore{00040703}-1947.o(StubCode)
    QMapData::continueFreeData(int)          0x00021784   ARM Code       0  QtCore{00040703}-1949.o(StubCode)
    QTextCodec::codecForName(const QByteArray&) 0x0002178c   ARM Code       0  QtCore{00040703}-202.o(StubCode)
    QVariant::QVariant(const QString&)       0x00021794   ARM Code       0  QtCore{00040703}-2034.o(StubCode)
    QVariant::QVariant(const QDateTime&)     0x0002179c   ARM Code       0  QtCore{00040703}-2036.o(StubCode)
    QVariant::QVariant(int)                  0x000217a4   ARM Code       0  QtCore{00040703}-2040.o(StubCode)
    QVariant::QVariant(unsigned)             0x000217ac   ARM Code       0  QtCore{00040703}-2043.o(StubCode)
    QTextCodec::codecForLocale()             0x000217b4   ARM Code       0  QtCore{00040703}-206.o(StubCode)
    QVariant::~QVariant()                    0x000217bc   ARM Code       0  QtCore{00040703}-2082.o(StubCode)
    QVariant::operator =(const QVariant&)    0x000217c4   ARM Code       0  QtCore{00040703}-2084.o(StubCode)
    QDateTime::currentDateTime()             0x000217cc   ARM Code       0  QtCore{00040703}-2097.o(StubCode)
    QDateTime::QDateTime(const QDate&, const QTime&, Qt::TimeSpec) 0x000217d4   ARM Code       0  QtCore{00040703}-2103.o(StubCode)
    QDateTime::QDateTime(const QDateTime&)   0x000217dc   ARM Code       0  QtCore{00040703}-2104.o(StubCode)
    QDateTime::QDateTime()                   0x000217e4   ARM Code       0  QtCore{00040703}-2105.o(StubCode)
    QDateTime::~QDateTime()                  0x000217ec   ARM Code       0  QtCore{00040703}-2110.o(StubCode)
    QDateTime::operator =(const QDateTime&)  0x000217f4   ARM Code       0  QtCore{00040703}-2112.o(StubCode)
    QFileInfo::QFileInfo(const QString&)     0x000217fc   ARM Code       0  QtCore{00040703}-2122.o(StubCode)
    QFileInfo::~QFileInfo()                  0x00021804   ARM Code       0  QtCore{00040703}-2130.o(StubCode)
    QHashData::free_helper(void(*)(QHashData::Node*)) 0x0002180c   ARM Code       0  QtCore{00040703}-2134.o(StubCode)
    QHashData::rehash(int)                   0x00021814   ARM Code       0  QtCore{00040703}-2141.o(StubCode)
    QHashData::freeNode(void*)               0x0002181c   ARM Code       0  QtCore{00040703}-2142.o(StubCode)
    QHashData::nextNode(QHashData::Node*)    0x00021824   ARM Code       0  QtCore{00040703}-2143.o(StubCode)
    QIODevice::readAll()                     0x0002182c   ARM Code       0  QtCore{00040703}-2169.o(StubCode)
    QListData::erase(void**)                 0x00021834   ARM Code       0  QtCore{00040703}-2186.o(StubCode)
    QListData::append()                      0x0002183c   ARM Code       0  QtCore{00040703}-2188.o(StubCode)
    QListData::insert(int)                   0x00021844   ARM Code       0  QtCore{00040703}-2190.o(StubCode)
    QListData::remove(int)                   0x0002184c   ARM Code       0  QtCore{00040703}-2191.o(StubCode)
    QListData::append2(const QListData&)     0x00021854   ARM Code       0  QtCore{00040703}-2193.o(StubCode)
    QListData::prepend()                     0x0002185c   ARM Code       0  QtCore{00040703}-2196.o(StubCode)
    QListData::realloc(int)                  0x00021864   ARM Code       0  QtCore{00040703}-2197.o(StubCode)
    QMetaType::registerType(const char*, void(*)(void*), void*(*)(const void*)) 0x0002186c   ARM Code       0  QtCore{00040703}-2199.o(StubCode)
    QDataStream::writeRawData(const char*, int) 0x00021874   ARM Code       0  QtCore{00040703}-229.o(StubCode)
    QtPrivate::QStringList_contains(const QStringList*, const QString&, Qt::CaseSensitivity) 0x0002187c   ARM Code       0  QtCore{00040703}-2321.o(StubCode)
    QByteArray::startsWith(char) const       0x00021884   ARM Code       0  QtCore{00040703}-2330.o(StubCode)
    QByteArray::lastIndexOf(const char*, int) const 0x0002188c   ARM Code       0  QtCore{00040703}-2332.o(StubCode)
    QByteArray::lastIndexOf(char, int) const 0x00021894   ARM Code       0  QtCore{00040703}-2334.o(StubCode)
    QByteArray::mid(int, int) const          0x0002189c   ARM Code       0  QtCore{00040703}-2340.o(StubCode)
    QByteArray::left(int) const              0x000218a4   ARM Code       0  QtCore{00040703}-2341.o(StubCode)
    QByteArray::right(int) const             0x000218ac   ARM Code       0  QtCore{00040703}-2345.o(StubCode)
    QByteArray::indexOf(const char*, int) const 0x000218b4   ARM Code       0  QtCore{00040703}-2352.o(StubCode)
    QByteArray::toUpper() const              0x000218bc   ARM Code       0  QtCore{00040703}-2359.o(StubCode)
    QByteArray::trimmed() const              0x000218c4   ARM Code       0  QtCore{00040703}-2360.o(StubCode)
    QTextCodec::canEncode(QChar) const       0x000218cc   ARM Code       0  QtCore{00040703}-2377.o(StubCode)
    QTextCodec::toUnicode(const QByteArray&) const 0x000218d4   ARM Code       0  QtCore{00040703}-2380.o(StubCode)
    QMetaObject::activate(QObject*, const QMetaObject*, int, void**) 0x000218dc   ARM Code       0  QtCore{00040703}-282.o(StubCode)
    QDate::day() const                       0x000218e4   ARM Code       0  QtCore{00040703}-2883.o(StubCode)
    QDate::year() const                      0x000218ec   ARM Code       0  QtCore{00040703}-2884.o(StubCode)
    QDate::month() const                     0x000218f4   ARM Code       0  QtCore{00040703}-2885.o(StubCode)
    QFile::size() const                      0x000218fc   ARM Code       0  QtCore{00040703}-2900.o(StubCode)
    QTime::hour() const                      0x00021904   ARM Code       0  QtCore{00040703}-2913.o(StubCode)
    QTime::msec() const                      0x0002190c   ARM Code       0  QtCore{00040703}-2914.o(StubCode)
    QTime::minute() const                    0x00021914   ARM Code       0  QtCore{00040703}-2915.o(StubCode)
    QTime::second() const                    0x0002191c   ARM Code       0  QtCore{00040703}-2916.o(StubCode)
    QRegExp::indexIn(const QString&, int, QRegExp::CaretMode) const 0x00021924   ARM Code       0  QtCore{00040703}-3022.o(StubCode)
    QTextStream::readAll()                   0x0002192c   ARM Code       0  QtCore{00040703}-303.o(StubCode)
    QString::startsWith(const QString&, Qt::CaseSensitivity) const 0x00021934   ARM Code       0  QtCore{00040703}-3033.o(StubCode)
    QString::toLocal8Bit() const             0x0002193c   ARM Code       0  QtCore{00040703}-3040.o(StubCode)
    QString::mid(int, int) const             0x00021944   ARM Code       0  QtCore{00040703}-3054.o(StubCode)
    QString::left(int) const                 0x0002194c   ARM Code       0  QtCore{00040703}-3055.o(StubCode)
    QString::right(int) const                0x00021954   ARM Code       0  QtCore{00040703}-3059.o(StubCode)
    QString::utf16() const                   0x0002195c   ARM Code       0  QtCore{00040703}-3064.o(StubCode)
    QString::toLong(bool*, int) const        0x00021964   ARM Code       0  QtCore{00040703}-3066.o(StubCode)
    QString::compare(const QString&, Qt::CaseSensitivity) const 0x0002196c   ARM Code       0  QtCore{00040703}-3072.o(StubCode)
    QString::indexOf(const QString&, int, Qt::CaseSensitivity) const 0x00021974   ARM Code       0  QtCore{00040703}-3077.o(StubCode)
    QString::toAscii() const                 0x0002197c   ARM Code       0  QtCore{00040703}-3081.o(StubCode)
    QString::trimmed() const                 0x00021984   ARM Code       0  QtCore{00040703}-3087.o(StubCode)
    QString::toLatin1() const                0x0002198c   ARM Code       0  QtCore{00040703}-3095.o(StubCode)
    QString::operator ==(const QString&) const 0x00021994   ARM Code       0  QtCore{00040703}-3098.o(StubCode)
    QString::operator <(const QString&) const 0x0002199c   ARM Code       0  QtCore{00040703}-3101.o(StubCode)
    QTextStream::QTextStream(QString*, QFlags<QIODevice::OpenModeFlag>) 0x000219a4   ARM Code       0  QtCore{00040703}-312.o(StubCode)
    QVariant::toDateTime() const             0x000219ac   ARM Code       0  QtCore{00040703}-3131.o(StubCode)
    QVariant::cmp(const QVariant&) const     0x000219b4   ARM Code       0  QtCore{00040703}-3136.o(StubCode)
    QVariant::toInt(bool*) const             0x000219bc   ARM Code       0  QtCore{00040703}-3139.o(StubCode)
    QVariant::isNull() const                 0x000219c4   ARM Code       0  QtCore{00040703}-3142.o(StubCode)
    QVariant::toString() const               0x000219cc   ARM Code       0  QtCore{00040703}-3163.o(StubCode)
    QDateTime::date() const                  0x000219d4   ARM Code       0  QtCore{00040703}-3170.o(StubCode)
    QDateTime::time() const                  0x000219dc   ARM Code       0  QtCore{00040703}-3171.o(StubCode)
    QDateTime::isNull() const                0x000219e4   ARM Code       0  QtCore{00040703}-3173.o(StubCode)
    QDateTime::operator ==(const QDateTime&) const 0x000219ec   ARM Code       0  QtCore{00040703}-3186.o(StubCode)
    QDateTime::operator <(const QDateTime&) const 0x000219f4   ARM Code       0  QtCore{00040703}-3187.o(StubCode)
    qt_message_output(QtMsgType, const char*) 0x000219fc   ARM Code       0  QtCore{00040703}-32.o(StubCode)
    QFileInfo::suffix() const                0x00021a04   ARM Code       0  QtCore{00040703}-3212.o(StubCode)
    QFileInfo::fileName() const              0x00021a0c   ARM Code       0  QtCore{00040703}-3218.o(StubCode)
    QFileInfo::filePath() const              0x00021a14   ARM Code       0  QtCore{00040703}-3219.o(StubCode)
    QTextStream::~QTextStream()              0x00021a1c   ARM Code       0  QtCore{00040703}-324.o(StubCode)
    QTextStream::operator <<(const QByteArray&) 0x00021a24   ARM Code       0  QtCore{00040703}-330.o(StubCode)
    QTextStream::operator <<(const QString&) 0x00021a2c   ARM Code       0  QtCore{00040703}-331.o(StubCode)
    QTextStream::operator <<(char)           0x00021a34   ARM Code       0  QtCore{00040703}-332.o(StubCode)
    QMapData::createData(int)                0x00021a3c   ARM Code       0  QtCore{00040703}-3607.o(StubCode)
    QMapData::node_create(QMapData::Node**, int, int) 0x00021a44   ARM Code       0  QtCore{00040703}-3608.o(StubCode)
    QHashData::allocateNode(int)             0x00021a4c   ARM Code       0  QtCore{00040703}-3609.o(StubCode)
    QHashData::detach_helper2(void(*)(QHashData::Node*, void*), void(*)(QHashData::Node*), int, int) 0x00021a54   ARM Code       0  QtCore{00040703}-3610.o(StubCode)
    QListData::detach_grow(int*, int)        0x00021a5c   ARM Code       0  QtCore{00040703}-3689.o(StubCode)
    QListData::detach(int)                   0x00021a64   ARM Code       0  QtCore{00040703}-3691.o(StubCode)
    QMetaType::registerTypedef(const char*, int) 0x00021a6c   ARM Code       0  QtCore{00040703}-3692.o(StubCode)
    QBasicAtomicPointer_testAndSetOrdered(void*volatile *, void*, void*) 0x00021a74   ARM Code       0  QtCore{00040703}-56.o(StubCode)
    qFree(void*)                             0x00021a7c   ARM Code       0  QtCore{00040703}-70.o(StubCode)
    qHash(const QString&)                    0x00021a84   ARM Code       0  QtCore{00040703}-73.o(StubCode)
    qstrcmp(const QByteArray&, const char*)  0x00021a8c   ARM Code       0  QtCore{00040703}-95.o(StubCode)
    qstrcmp(const QByteArray&, const QByteArray&) 0x00021a94   ARM Code       0  QtCore{00040703}-96.o(StubCode)
    memcmp                                   0x00021a9c   ARM Code       0  libc{00010000}-232.o(StubCode)
    strcmp                                   0x00021aa4   ARM Code       0  libc{00010000}-350.o(StubCode)
    TPtrC8::TPtrC8(const unsigned char*)     0x00021aac   ARM Code       0  euser{000a0000}-1032.o(StubCode)
    TPtrC8::TPtrC8(const unsigned char*, int) 0x00021ab4   ARM Code       0  euser{000a0000}-1033.o(StubCode)
    TPtrC8::TPtrC8(const TDesC8&)            0x00021abc   ARM Code       0  euser{000a0000}-1034.o(StubCode)
    CActive::Cancel()                        0x00021ac4   ARM Code       0  euser{000a0000}-1088.o(StubCode)
    CActive::RunError(int)                   0x00021acc   ARM Code       0  euser{000a0000}-1089.o(StubCode)
    CActive::SetActive()                     0x00021ad4   ARM Code       0  euser{000a0000}-1090.o(StubCode)
    CActive::CActive__sub_object(int)        0x00021adc   ARM Code       0  euser{000a0000}-1091.o(StubCode)
    CActive::~CActive__sub_object()          0x00021ae4   ARM Code       0  euser{000a0000}-1094.o(StubCode)
    HBufC16::Des()                           0x00021aec   ARM Code       0  euser{000a0000}-1116.o(StubCode)
    HBufC16::NewLC(int)                      0x00021af4   ARM Code       0  euser{000a0000}-1119.o(StubCode)
    TPtrC16::TPtrC16(const unsigned short*)  0x00021afc   ARM Code       0  euser{000a0000}-1169.o(StubCode)
    TPtrC16::TPtrC16(const unsigned short*, int) 0x00021b04   ARM Code       0  euser{000a0000}-1170.o(StubCode)
    TPtrC16::TPtrC16(const TDesC16&)         0x00021b0c   ARM Code       0  euser{000a0000}-1171.o(StubCode)
    RHandleBase::Close()                     0x00021b14   ARM Code       0  euser{000a0000}-120.o(StubCode)
    TBufBase8::TBufBase8(int)                0x00021b1c   ARM Code       0  euser{000a0000}-1468.o(StubCode)
    TBufBase8::TBufBase8(int, int)           0x00021b24   ARM Code       0  euser{000a0000}-1469.o(StubCode)
    TDateTime::SetMicroSecond(int)           0x00021b2c   ARM Code       0  euser{000a0000}-1474.o(StubCode)
    TDateTime::SetDay(int)                   0x00021b34   ARM Code       0  euser{000a0000}-1477.o(StubCode)
    TDateTime::SetHour(int)                  0x00021b3c   ARM Code       0  euser{000a0000}-1478.o(StubCode)
    TDateTime::SetYear(int)                  0x00021b44   ARM Code       0  euser{000a0000}-1479.o(StubCode)
    TDateTime::SetMonth(TMonth)              0x00021b4c   ARM Code       0  euser{000a0000}-1480.o(StubCode)
    TDateTime::SetMinute(int)                0x00021b54   ARM Code       0  euser{000a0000}-1481.o(StubCode)
    TDateTime::SetSecond(int)                0x00021b5c   ARM Code       0  euser{000a0000}-1482.o(StubCode)
    RArrayBase::At(int) const                0x00021b64   ARM Code       0  euser{000a0000}-1507.o(StubCode)
    RArrayBase::Count() const                0x00021b6c   ARM Code       0  euser{000a0000}-1510.o(StubCode)
    CArrayFixBase::At(int) const             0x00021b74   ARM Code       0  euser{000a0000}-1553.o(StubCode)
    RPointerArrayBase::At(int) const         0x00021b7c   ARM Code       0  euser{000a0000}-1590.o(StubCode)
    RPointerArrayBase::Find(const void*) const 0x00021b84   ARM Code       0  euser{000a0000}-1591.o(StubCode)
    RPointerArrayBase::Count() const         0x00021b8c   ARM Code       0  euser{000a0000}-1593.o(StubCode)
    TUid::operator ==(const TUid&) const     0x00021b94   ARM Code       0  euser{000a0000}-1601.o(StubCode)
    TUid::operator !=(const TUid&) const     0x00021b9c   ARM Code       0  euser{000a0000}-1602.o(StubCode)
    TTime::DateTime() const                  0x00021ba4   ARM Code       0  euser{000a0000}-1679.o(StubCode)
    TDesC8::Ptr() const                      0x00021bac   ARM Code       0  euser{000a0000}-1719.o(StubCode)
    TDesC8::Compare(const TDesC8&) const     0x00021bb4   ARM Code       0  euser{000a0000}-1733.o(StubCode)
    TDesC16::AtC(int) const                  0x00021bbc   ARM Code       0  euser{000a0000}-1806.o(StubCode)
    TDesC16::Ptr() const                     0x00021bc4   ARM Code       0  euser{000a0000}-1807.o(StubCode)
    TDesC16::AllocLC() const                 0x00021bcc   ARM Code       0  euser{000a0000}-1821.o(StubCode)
    CleanupStack::PopAndDestroy(int)         0x00021bd4   ARM Code       0  euser{000a0000}-202.o(StubCode)
    CleanupStack::PopAndDestroy()            0x00021bdc   ARM Code       0  euser{000a0000}-203.o(StubCode)
    CleanupStack::Pop()                      0x00021be4   ARM Code       0  euser{000a0000}-205.o(StubCode)
    User::MarkCleanupStack()                 0x00021bec   ARM Code       0  euser{000a0000}-2060.o(StubCode)
    User::UnMarkCleanupStack(TTrapHandler*)  0x00021bf4   ARM Code       0  euser{000a0000}-2061.o(StubCode)
    CleanupStack::PushL(TCleanupItem)        0x00021bfc   ARM Code       0  euser{000a0000}-207.o(StubCode)
    CleanupStack::PushL(CBase*)              0x00021c04   ARM Code       0  euser{000a0000}-208.o(StubCode)
    XLeaveException::GetReason() const       0x00021c0c   ARM Code       0  euser{000a0000}-2082.o(StubCode)
    CleanupStack::PushL(void*)               0x00021c14   ARM Code       0  euser{000a0000}-209.o(StubCode)
    CActive::Extension_(unsigned, void*&, void*) 0x00021c1c   ARM Code       0  euser{000a0000}-2128.o(StubCode)
    CArrayFixBase::Delete(int)               0x00021c24   ARM Code       0  euser{000a0000}-247.o(StubCode)
    CArrayFixBase::InsertL(int, const void*) 0x00021c2c   ARM Code       0  euser{000a0000}-250.o(StubCode)
    CActiveScheduler::Add(CActive*)          0x00021c34   ARM Code       0  euser{000a0000}-424.o(StubCode)
    RArrayBase::Close()                      0x00021c3c   ARM Code       0  euser{000a0000}-46.o(StubCode)
    RPointerArrayBase::Reset()               0x00021c44   ARM Code       0  euser{000a0000}-471.o(StubCode)
    RPointerArrayBase::Append(const void*)   0x00021c4c   ARM Code       0  euser{000a0000}-472.o(StubCode)
    RPointerArrayBase::Remove(int)           0x00021c54   ARM Code       0  euser{000a0000}-474.o(StubCode)
    RPointerArrayBase::RPointerArrayBase()   0x00021c5c   ARM Code       0  euser{000a0000}-481.o(StubCode)
    RArrayBase::RArrayBase(int, int)         0x00021c64   ARM Code       0  euser{000a0000}-57.o(StubCode)
    User::LeaveIfError(int)                  0x00021c6c   ARM Code       0  euser{000a0000}-593.o(StubCode)
    User::Leave(int)                         0x00021c74   ARM Code       0  euser{000a0000}-649.o(StubCode)
    User::AllocZ(int)                        0x00021c7c   ARM Code       0  euser{000a0000}-652.o(StubCode)
    User::AllocZL(int)                       0x00021c84   ARM Code       0  euser{000a0000}-654.o(StubCode)
    User::Invariant()                        0x00021c8c   ARM Code       0  euser{000a0000}-669.o(StubCode)
    User::LockedDec(int&)                    0x00021c94   ARM Code       0  euser{000a0000}-670.o(StubCode)
    User::LockedInc(int&)                    0x00021c9c   ARM Code       0  euser{000a0000}-671.o(StubCode)
    TDes8::Copy(const TDesC8&)               0x00021ca4   ARM Code       0  euser{000a0000}-744.o(StubCode)
    TBufBase16::TBufBase16(const TDesC16&, int) 0x00021cac   ARM Code       0  euser{000a0000}-80.o(StubCode)
    TBufBase16::TBufBase16(int)              0x00021cb4   ARM Code       0  euser{000a0000}-81.o(StubCode)
    TPtr8::TPtr8(unsigned char*, int, int)   0x00021cbc   ARM Code       0  euser{000a0000}-816.o(StubCode)
    TTime::UniversalTime()                   0x00021cc4   ARM Code       0  euser{000a0000}-855.o(StubCode)
    TTime::TTime(const TDateTime&)           0x00021ccc   ARM Code       0  euser{000a0000}-861.o(StubCode)
    HBufC8::Des()                            0x00021cd4   ARM Code       0  euser{000a0000}-891.o(StubCode)
    HBufC8::NewL(int)                        0x00021cdc   ARM Code       0  euser{000a0000}-893.o(StubCode)
    HBufC8::NewLC(int)                       0x00021ce4   ARM Code       0  euser{000a0000}-894.o(StubCode)
    RTimer::CreateLocal()                    0x00021cec   ARM Code       0  euser{000a0000}-925.o(StubCode)
    RTimer::After(TRequestStatus&, TTimeIntervalMicroSeconds32) 0x00021cf4   ARM Code       0  euser{000a0000}-928.o(StubCode)
    RTimer::Cancel()                         0x00021cfc   ARM Code       0  euser{000a0000}-929.o(StubCode)
    TDes16::Copy(const TDesC16&)             0x00021d04   ARM Code       0  euser{000a0000}-953.o(StubCode)
    TDes16::Append(const TDesC16&)           0x00021d0c   ARM Code       0  euser{000a0000}-968.o(StubCode)
    __aeabi_idivmod                          0x00021d14   ARM Code       0  drtaeabi{000a0000}-135.o(StubCode)
    __aeabi_memcpy4                          0x00021d1c   ARM Code       0  drtaeabi{000a0000}-147.o(StubCode)
    __aeabi_uidivmod                         0x00021d24   ARM Code       0  drtaeabi{000a0000}-155.o(StubCode)
    __aeabi_unwind_cpp_pr0                   0x00021d2c   ARM Code       0  drtaeabi{000a0000}-158.o(StubCode)
    __aeabi_unwind_cpp_pr1                   0x00021d34   ARM Code       0  drtaeabi{000a0000}-159.o(StubCode)
    __cxa_begin_catch                        0x00021d3c   ARM Code       0  drtaeabi{000a0000}-180.o(StubCode)
    __cxa_call_unexpected                    0x00021d44   ARM Code       0  drtaeabi{000a0000}-182.o(StubCode)
    __cxa_end_catch                          0x00021d4c   ARM Code       0  drtaeabi{000a0000}-183.o(StubCode)
    __cxa_end_cleanup                        0x00021d54   ARM Code       0  drtaeabi{000a0000}-184.o(StubCode)
    __cxa_guard_abort                        0x00021d5c   ARM Code       0  drtaeabi{000a0000}-186.o(StubCode)
    __cxa_guard_acquire                      0x00021d64   ARM Code       0  drtaeabi{000a0000}-187.o(StubCode)
    __cxa_guard_release                      0x00021d6c   ARM Code       0  drtaeabi{000a0000}-188.o(StubCode)
    __cxa_rethrow                            0x00021d74   ARM Code       0  drtaeabi{000a0000}-190.o(StubCode)
    __ARM_switch8                            0x00021d7c   ARM Code       0  drtrvct2_2{000a0000}-28.o(StubCode)
    qWarning()                               0x00021d85   Thumb Code    66  QtMessaging.in(i._Z8qWarningv)
    QByteArray::QByteArray(const QByteArray&) 0x00021ddf   Thumb Code    16  QtMessaging.in(i._ZN10QByteArrayC1ERKS_)
    QByteArray::QByteArray__sub_object(const QByteArray&) 0x00021ddf   Thumb Code     0  QtMessaging.in(i._ZN10QByteArrayC1ERKS_)
    QByteArray::QByteArray()                 0x00021df1   Thumb Code    16  QtMessaging.in(i._ZN10QByteArrayC1Ev)
    QByteArray::QByteArray__sub_object()     0x00021df1   Thumb Code     0  QtMessaging.in(i._ZN10QByteArrayC1Ev)
    QByteArray::~QByteArray()                0x00021e05   Thumb Code    24  QtMessaging.in(i._ZN10QByteArrayD1Ev)
    QByteArray::~QByteArray__sub_object()    0x00021e05   Thumb Code     0  QtMessaging.in(i._ZN10QByteArrayD1Ev)
    QtMobility::MessageEvent::MessageEvent(const QtMobility::MessageEvent&) 0x00021e1d   Thumb Code    62  QtMessaging.in(i._ZN10QtMobility12MessageEventC1ERKS0_)
    QtMobility::MessageEvent::MessageEvent__sub_object(const QtMobility::MessageEvent&) 0x00021e1d   Thumb Code     0  QtMessaging.in(i._ZN10QtMobility12MessageEventC1ERKS0_)
    QtMobility::MessageEvent::MessageEvent() 0x00021e5b   Thumb Code    12  QtMessaging.in(i._ZN10QtMobility12MessageEventC1Ev)
    QtMobility::MessageEvent::MessageEvent__sub_object() 0x00021e5b   Thumb Code     0  QtMessaging.in(i._ZN10QtMobility12MessageEventC1Ev)
    QtMobility::MessageEvent::~MessageEvent() 0x00021e67   Thumb Code    12  QtMessaging.in(i._ZN10QtMobility12MessageEventD1Ev)
    QtMobility::MessageEvent::~MessageEvent__sub_object() 0x00021e67   Thumb Code     0  QtMessaging.in(i._ZN10QtMobility12MessageEventD1Ev)
    QtMobility::QMessagePrivate::operator =(const QtMobility::QMessagePrivate&) 0x00021e73   Thumb Code   192  QtMessaging.in(i._ZN10QtMobility15QMessagePrivateaSERKS0_)
    QtMobility::MessageQueryInfo::MessageQueryInfo(const QtMobility::MessageQueryInfo&) 0x00021f33   Thumb Code   108  QtMessaging.in(i._ZN10QtMobility16MessageQueryInfoC1ERKS0_)
    QtMobility::MessageQueryInfo::MessageQueryInfo__sub_object(const QtMobility::MessageQueryInfo&) 0x00021f33   Thumb Code     0  QtMessaging.in(i._ZN10QtMobility16MessageQueryInfoC1ERKS0_)
    QtMobility::MessageQueryInfo::MessageQueryInfo() 0x00021fc3   Thumb Code    52  QtMessaging.in(i._ZN10QtMobility16MessageQueryInfoC1Ev)
    QtMobility::MessageQueryInfo::MessageQueryInfo__sub_object() 0x00021fc3   Thumb Code     0  QtMessaging.in(i._ZN10QtMobility16MessageQueryInfoC1Ev)
    QtMobility::MessageQueryInfo::~MessageQueryInfo() 0x0002201b   Thumb Code    44  QtMessaging.in(i._ZN10QtMobility16MessageQueryInfoD1Ev)
    QtMobility::MessageQueryInfo::~MessageQueryInfo__sub_object() 0x0002201b   Thumb Code     0  QtMessaging.in(i._ZN10QtMobility16MessageQueryInfoD1Ev)
    QtMobility::QMessageIdPrivate::QMessageIdPrivate() 0x0002206b   Thumb Code     8  QtMessaging.in(i._ZN10QtMobility17QMessageIdPrivateC1Ev)
    QtMobility::QMessageIdPrivate::QMessageIdPrivate__sub_object() 0x0002206b   Thumb Code     0  QtMessaging.in(i._ZN10QtMobility17QMessageIdPrivateC1Ev)
    QtMobility::QMessageFolderPrivate::QMessageFolderPrivate(QtMobility::QMessageFolder*) 0x00022073   Thumb Code    58  QtMessaging.in(i._ZN10QtMobility21QMessageFolderPrivateC1EPNS_14QMessageFolderE)
    QtMobility::QMessageFolderPrivate::QMessageFolderPrivate__sub_object(QtMobility::QMessageFolder*) 0x00022073   Thumb Code     0  QtMessaging.in(i._ZN10QtMobility21QMessageFolderPrivateC1EPNS_14QMessageFolderE)
    QtMobility::QMessageAccountPrivate::QMessageAccountPrivate(QtMobility::QMessageAccount*) 0x000220dd   Thumb Code    32  QtMessaging.in(i._ZN10QtMobility22QMessageAccountPrivateC1EPNS_15QMessageAccountE)
    QtMobility::QMessageAccountPrivate::QMessageAccountPrivate__sub_object(QtMobility::QMessageAccount*) 0x000220dd   Thumb Code     0  QtMessaging.in(i._ZN10QtMobility22QMessageAccountPrivateC1EPNS_15QMessageAccountE)
    QtMobility::QMessageAddressPrivate::QMessageAddressPrivate(QtMobility::QMessageAddress*) 0x0002210b   Thumb Code    18  QtMessaging.in(i._ZN10QtMobility22QMessageAddressPrivateC1EPNS_15QMessageAddressE)
    QtMobility::QMessageAddressPrivate::QMessageAddressPrivate__sub_object(QtMobility::QMessageAddress*) 0x0002210b   Thumb Code     0  QtMessaging.in(i._ZN10QtMobility22QMessageAddressPrivateC1EPNS_15QMessageAddressE)
    QtMobility::QMessageFolderIdPrivate::QMessageFolderIdPrivate(QtMobility::QMessageFolderId*) 0x0002211d   Thumb Code    12  QtMessaging.in(i._ZN10QtMobility23QMessageFolderIdPrivateC1EPNS_16QMessageFolderIdE)
    QtMobility::QMessageFolderIdPrivate::QMessageFolderIdPrivate__sub_object(QtMobility::QMessageFolderId*) 0x0002211d   Thumb Code     0  QtMessaging.in(i._ZN10QtMobility23QMessageFolderIdPrivateC1EPNS_16QMessageFolderIdE)
    QtMobility::QMessageFolderIdPrivate::~QMessageFolderIdPrivate() 0x00022129   Thumb Code    12  QtMessaging.in(i._ZN10QtMobility23QMessageFolderIdPrivateD1Ev)
    QtMobility::QMessageFolderIdPrivate::~QMessageFolderIdPrivate__sub_object() 0x00022129   Thumb Code     0  QtMessaging.in(i._ZN10QtMobility23QMessageFolderIdPrivateD1Ev)
    QtMobility::QMessageAccountIdPrivate::QMessageAccountIdPrivate(QtMobility::QMessageAccountId*) 0x00022135   Thumb Code    12  QtMessaging.in(i._ZN10QtMobility24QMessageAccountIdPrivateC1EPNS_17QMessageAccountIdE)
    QtMobility::QMessageAccountIdPrivate::QMessageAccountIdPrivate__sub_object(QtMobility::QMessageAccountId*) 0x00022135   Thumb Code     0  QtMessaging.in(i._ZN10QtMobility24QMessageAccountIdPrivateC1EPNS_17QMessageAccountIdE)
    QtMobility::QMessageAccountIdPrivate::~QMessageAccountIdPrivate() 0x00022141   Thumb Code    12  QtMessaging.in(i._ZN10QtMobility24QMessageAccountIdPrivateD1Ev)
    QtMobility::QMessageAccountIdPrivate::~QMessageAccountIdPrivate__sub_object() 0x00022141   Thumb Code     0  QtMessaging.in(i._ZN10QtMobility24QMessageAccountIdPrivateD1Ev)
    QtMobility::QMessageFolderSortOrderPrivate::QMessageFolderSortOrderPrivate(QtMobility::QMessageFolderSortOrder*) 0x0002214d   Thumb Code    18  QtMessaging.in(i._ZN10QtMobility30QMessageFolderSortOrderPrivateC1EPNS_23QMessageFolderSortOrderE)
    QtMobility::QMessageFolderSortOrderPrivate::QMessageFolderSortOrderPrivate__sub_object(QtMobility::QMessageFolderSortOrder*) 0x0002214d   Thumb Code     0  QtMessaging.in(i._ZN10QtMobility30QMessageFolderSortOrderPrivateC1EPNS_23QMessageFolderSortOrderE)
    QtMobility::QMessageContentContainerPrivate::QMessageContentContainerPrivate(QtMobility::QMessageContentContainer*) 0x00022165   Thumb Code   146  QtMessaging.in(i._ZN10QtMobility31QMessageContentContainerPrivateC1EPNS_24QMessageContentContainerE)
    QtMobility::QMessageContentContainerPrivate::QMessageContentContainerPrivate__sub_object(QtMobility::QMessageContentContainer*) 0x00022165   Thumb Code     0  QtMessaging.in(i._ZN10QtMobility31QMessageContentContainerPrivateC1EPNS_24QMessageContentContainerE)
    QtMobility::QMessageContentContainerPrivate::~QMessageContentContainerPrivate() 0x0002226f   Thumb Code   128  QtMessaging.in(i._ZN10QtMobility31QMessageContentContainerPrivateD1Ev)
    QtMobility::QMessageContentContainerPrivate::~QMessageContentContainerPrivate__sub_object() 0x0002226f   Thumb Code     0  QtMessaging.in(i._ZN10QtMobility31QMessageContentContainerPrivateD1Ev)
    QtMobility::QMessageContentContainerIdPrivate::QMessageContentContainerIdPrivate() 0x00022367   Thumb Code     8  QtMessaging.in(i._ZN10QtMobility33QMessageContentContainerIdPrivateC1Ev)
    QtMobility::QMessageContentContainerIdPrivate::QMessageContentContainerIdPrivate__sub_object() 0x00022367   Thumb Code     0  QtMessaging.in(i._ZN10QtMobility33QMessageContentContainerIdPrivateC1Ev)
    QStringList::~QStringList()              0x0002236f   Thumb Code     8  QtMessaging.in(i._ZN11QStringListD1Ev)
    QStringList::~QStringList__sub_object()  0x0002236f   Thumb Code     0  QtMessaging.in(i._ZN11QStringListD1Ev)
    CMmsClientMtm::SwitchCurrentEntryL(long) 0x00022377   Thumb Code     8  QtMessaging.in(i._ZN13CMmsClientMtm19SwitchCurrentEntryLEl)
    CMsvEntryFilter::SetOrder(const TMsvSelectionOrdering&) 0x0002237f   Thumb Code    22  QtMessaging.in(i._ZN15CMsvEntryFilter8SetOrderERK21TMsvSelectionOrdering)
    QBasicAtomicInt::ref()                   0x00022395   Thumb Code    18  QtMessaging.in(i._ZN15QBasicAtomicInt3refEv)
    QBasicAtomicInt::deref()                 0x000223a7   Thumb Code    18  QtMessaging.in(i._ZN15QBasicAtomicInt5derefEv)
    QForeachContainer<QStringList>::~QForeachContainer() 0x000223b9   Thumb Code     8  QtMessaging.in(i._ZN17QForeachContainerI11QStringListED1Ev)
    QForeachContainer<QStringList>::~QForeachContainer__sub_object() 0x000223b9   Thumb Code     0  QtMessaging.in(i._ZN17QForeachContainerI11QStringListED1Ev)
    QForeachContainer<QHash<QString, QtMobility::QMessageAccount>>::~QForeachContainer() 0x000223c1   Thumb Code     8  QtMessaging.in(i._ZN17QForeachContainerI5QHashI7QStringN10QtMobility15QMessageAccountEEED1Ev)
    QForeachContainer<QHash<QString, QtMobility::QMessageAccount>>::~QForeachContainer__sub_object() 0x000223c1   Thumb Code     0  QtMessaging.in(i._ZN17QForeachContainerI5QHashI7QStringN10QtMobility15QMessageAccountEEED1Ev)
    QForeachContainer<QList<QByteArray>>::~QForeachContainer() 0x000223c9   Thumb Code     8  QtMessaging.in(i._ZN17QForeachContainerI5QListI10QByteArrayEED1Ev)
    QForeachContainer<QList<QByteArray>>::~QForeachContainer__sub_object() 0x000223c9   Thumb Code     0  QtMessaging.in(i._ZN17QForeachContainerI5QListI10QByteArrayEED1Ev)
    QForeachContainer<QList<QtMobility::QMessageAddress>>::~QForeachContainer() 0x000223d1   Thumb Code     8  QtMessaging.in(i._ZN17QForeachContainerI5QListIN10QtMobility15QMessageAddressEEED1Ev)
    QForeachContainer<QList<QtMobility::QMessageAddress>>::~QForeachContainer__sub_object() 0x000223d1   Thumb Code     0  QtMessaging.in(i._ZN17QForeachContainerI5QListIN10QtMobility15QMessageAddressEEED1Ev)
    QForeachContainer<QList<QtMobility::QMessageSortOrder>>::~QForeachContainer() 0x000223d9   Thumb Code     8  QtMessaging.in(i._ZN17QForeachContainerI5QListIN10QtMobility17QMessageSortOrderEEED1Ev)
    QForeachContainer<QList<QtMobility::QMessageSortOrder>>::~QForeachContainer__sub_object() 0x000223d9   Thumb Code     0  QtMessaging.in(i._ZN17QForeachContainerI5QListIN10QtMobility17QMessageSortOrderEEED1Ev)
    QForeachContainer<QList<QtMobility::QMessageFolderSortOrder>>::~QForeachContainer() 0x000223e1   Thumb Code     8  QtMessaging.in(i._ZN17QForeachContainerI5QListIN10QtMobility23QMessageFolderSortOrderEEED1Ev)
    QForeachContainer<QList<QtMobility::QMessageFolderSortOrder>>::~QForeachContainer__sub_object() 0x000223e1   Thumb Code     0  QtMessaging.in(i._ZN17QForeachContainerI5QListIN10QtMobility23QMessageFolderSortOrderEEED1Ev)
    QForeachContainer<QList<QtMobility::QMessageContentContainer>>::~QForeachContainer() 0x000223e9   Thumb Code     8  QtMessaging.in(i._ZN17QForeachContainerI5QListIN10QtMobility24QMessageContentContainerEEED1Ev)
    QForeachContainer<QList<QtMobility::QMessageContentContainer>>::~QForeachContainer__sub_object() 0x000223e9   Thumb Code     0  QtMessaging.in(i._ZN17QForeachContainerI5QListIN10QtMobility24QMessageContentContainerEEED1Ev)
    QForeachContainer<QList<QtMobility::QMessageContentContainerId>>::~QForeachContainer() 0x000223f1   Thumb Code     8  QtMessaging.in(i._ZN17QForeachContainerI5QListIN10QtMobility26QMessageContentContainerIdEEED1Ev)
    QForeachContainer<QList<QtMobility::QMessageContentContainerId>>::~QForeachContainer__sub_object() 0x000223f1   Thumb Code     0  QtMessaging.in(i._ZN17QForeachContainerI5QListIN10QtMobility26QMessageContentContainerIdEEED1Ev)
    TMsvSelectionOrdering::SetShowInvisibleEntries(int) 0x000223f9   Thumb Code    22  QtMessaging.in(i._ZN21TMsvSelectionOrdering23SetShowInvisibleEntriesEi)
    QSet<int>::~QSet()                       0x0002240f   Thumb Code     8  QtMessaging.in(i._ZN4QSetIiED1Ev)
    QSet<int>::~QSet__sub_object()           0x0002240f   Thumb Code     0  QtMessaging.in(i._ZN4QSetIiED1Ev)
    CBase::operator new(unsigned)            0x00022417   Thumb Code     8  QtMessaging.in(i._ZN5CBasenwEj)
    RFile::RFile()                           0x0002241f   Thumb Code     8  QtMessaging.in(i._ZN5RFileC1Ev)
    RFile::RFile__sub_object()               0x0002241f   Thumb Code     0  QtMessaging.in(i._ZN5RFileC1Ev)
    TPtr8::TPtr8(const TPtr8&)               0x00022427   Thumb Code    14  QtMessaging.in(i._ZN5TPtr8C1ERKS_)
    TPtr8::TPtr8__sub_object(const TPtr8&)   0x00022427   Thumb Code     0  QtMessaging.in(i._ZN5TPtr8C1ERKS_)
    QDebug::maybeSpace()                     0x00022435   Thumb Code    22  QtMessaging.in(i._ZN6QDebug10maybeSpaceEv)
    QDebug::~QDebug()                        0x0002244b   Thumb Code   122  QtMessaging.in(i._ZN6QDebugD1Ev)
    QDebug::~QDebug__sub_object()            0x0002244b   Thumb Code     0  QtMessaging.in(i._ZN6QDebugD1Ev)
    QDebug::operator <<(const char*)         0x000224d9   Thumb Code    46  QtMessaging.in(i._ZN6QDebuglsEPKc)
    TPtr16::TPtr16(const TPtr16&)            0x00022511   Thumb Code    14  QtMessaging.in(i._ZN6TPtr16C1ERKS_)
    TPtr16::TPtr16__sub_object(const TPtr16&) 0x00022511   Thumb Code     0  QtMessaging.in(i._ZN6TPtr16C1ERKS_)
    QString::insert(int, const QString&)     0x0002251f   Thumb Code    14  QtMessaging.in(i._ZN7QString6insertEiRKS_)
    QString::QString(const char*)            0x0002252d   Thumb Code    20  QtMessaging.in(i._ZN7QStringC1EPKc)
    QString::QString__sub_object(const char*) 0x0002252d   Thumb Code     0  QtMessaging.in(i._ZN7QStringC1EPKc)
    QString::QString(const QByteArray&)      0x00022541   Thumb Code    46  QtMessaging.in(i._ZN7QStringC1ERK10QByteArray)
    QString::QString__sub_object(const QByteArray&) 0x00022541   Thumb Code     0  QtMessaging.in(i._ZN7QStringC1ERK10QByteArray)
    QString::QString(const QString&)         0x0002256f   Thumb Code    16  QtMessaging.in(i._ZN7QStringC1ERKS_)
    QString::QString__sub_object(const QString&) 0x0002256f   Thumb Code     0  QtMessaging.in(i._ZN7QStringC1ERKS_)
    QString::QString()                       0x00022581   Thumb Code    16  QtMessaging.in(i._ZN7QStringC1Ev)
    QString::QString__sub_object()           0x00022581   Thumb Code     0  QtMessaging.in(i._ZN7QStringC1Ev)
    QString::~QString()                      0x00022595   Thumb Code    24  QtMessaging.in(i._ZN7QStringD1Ev)
    QString::~QString__sub_object()          0x00022595   Thumb Code     0  QtMessaging.in(i._ZN7QStringD1Ev)
    QString::operator =(const char*)         0x000225ad   Thumb Code    34  QtMessaging.in(i._ZN7QStringaSEPKc)
    TPtrC16::Set(const TPtrC16&)             0x000225d9   Thumb Code    26  QtMessaging.in(i._ZN7TPtrC163SetERKS_)
    QVariant::QVariant()                     0x000225f3   Thumb Code    24  QtMessaging.in(i._ZN8QVariantC1Ev)
    QVariant::QVariant__sub_object()         0x000225f3   Thumb Code     0  QtMessaging.in(i._ZN8QVariantC1Ev)
    QHashData::willGrow()                    0x0002260b   Thumb Code    28  QtMessaging.in(i._ZN9QHashData8willGrowEv)
    TMsvEntry::SetVisible(int)               0x00022627   Thumb Code    22  QtMessaging.in(i._ZN9TMsvEntry10SetVisibleEi)
    TMsvEntry::SetInPreparation(int)         0x0002263d   Thumb Code    22  QtMessaging.in(i._ZN9TMsvEntry16SetInPreparationEi)
    TMsvEntry::SetNew(int)                   0x00022653   Thumb Code    20  QtMessaging.in(i._ZN9TMsvEntry6SetNewEi)
    TMsvEntry::SetUnread(int)                0x00022667   Thumb Code    20  QtMessaging.in(i._ZN9TMsvEntry9SetUnreadEi)
    CSmsHeader::FromAddress() const          0x0002267b   Thumb Code    44  QtMessaging.in(i._ZNK10CSmsHeader11FromAddressEv)
    QByteArray::isEmpty() const              0x000226a7   Thumb Code    16  QtMessaging.in(i._ZNK10QByteArray7isEmptyEv)
    CMmsClientMtm::Entry() const             0x000226b7   Thumb Code     8  QtMessaging.in(i._ZNK13CMmsClientMtm5EntryEv)
    QBasicAtomicInt::operator ==(int) const  0x000226bf   Thumb Code    14  QtMessaging.in(i._ZNK15QBasicAtomicInteqEi)
    QBasicAtomicInt::operator !=(int) const  0x000226cd   Thumb Code    14  QtMessaging.in(i._ZNK15QBasicAtomicIntneEi)
    QBool::operator const void*() const      0x000226db   Thumb Code    14  QtMessaging.in(i._ZNK5QBoolcvPKvEv)
    TDesC8::operator ==(const TDesC8&) const 0x000226e9   Thumb Code    18  QtMessaging.in(i._ZNK6TDesC8eqERKS_)
    QString::isEmpty() const                 0x000226fb   Thumb Code    16  QtMessaging.in(i._ZNK7QString7isEmptyEv)
    QString::contains(const QString&, Qt::CaseSensitivity) const 0x0002270b   Thumb Code    24  QtMessaging.in(i._ZNK7QString8containsERKS_N2Qt15CaseSensitivityE)
    QString::operator !=(const QString&) const 0x00022723   Thumb Code    12  QtMessaging.in(i._ZNK7QStringneERKS_)
    QDateTime::operator >=(const QDateTime&) const 0x0002272f   Thumb Code    12  QtMessaging.in(i._ZNK9QDateTimegeERKS_)
    QDateTime::operator <=(const QDateTime&) const 0x0002273b   Thumb Code    18  QtMessaging.in(i._ZNK9QDateTimeleERKS_)
    QDateTime::operator !=(const QDateTime&) const 0x0002274d   Thumb Code    12  QtMessaging.in(i._ZNK9QDateTimeneERKS_)
    QListData::at(int) const                 0x00022759   Thumb Code    16  QtMessaging.in(i._ZNK9QListData2atEi)
    QListData::end() const                   0x00022769   Thumb Code    12  QtMessaging.in(i._ZNK9QListData3endEv)
    QListData::size() const                  0x00022775   Thumb Code    10  QtMessaging.in(i._ZNK9QListData4sizeEv)
    QListData::begin() const                 0x0002277f   Thumb Code    12  QtMessaging.in(i._ZNK9QListData5beginEv)
    QListData::isEmpty() const               0x0002278b   Thumb Code    18  QtMessaging.in(i._ZNK9QListData7isEmptyEv)
    operator delete (void*, void*)           0x0002279d   Thumb Code     2  QtMessaging.in(i._ZdlPvS_)
    operator ==(QChar, QChar)                0x0002279f   Thumb Code    20  QtMessaging.in(i._Zeq5QCharS_)
    operator ==(const QByteArray&, const char*) 0x000227b3   Thumb Code    28  QtMessaging.in(i._ZeqRK10QByteArrayPKc)
    operator new(unsigned, void*)            0x000227cf   Thumb Code     4  QtMessaging.in(i._ZnwjPv)
    operator +(const char*, const QString&)  0x000227d3   Thumb Code    40  QtMessaging.in(i._ZplPKcRK7QString)
    operator +(const QString&, const char*)  0x00022805   Thumb Code    56  QtMessaging.in(i._ZplRK7QStringPKc)
    operator +(const QString&, const QString&) 0x0002284d   Thumb Code    36  QtMessaging.in(i._ZplRK7QStringS1_)
    qMapLessThanKey<QByteArray>(const T1&, const T1&) 0x0002287b   Thumb Code    10  QtMessaging.in(t._Z15qMapLessThanKeyI10QByteArrayEbRKT_S3_)
    qMapLessThanKey<int>(const T1&, const T1&) 0x00022885   Thumb Code    16  QtMessaging.in(t._Z15qMapLessThanKeyIiEbRKT_S2_)
    qMapLessThanKey<long>(const T1&, const T1&) 0x00022895   Thumb Code    16  QtMessaging.in(t._Z15qMapLessThanKeyIlEbRKT_S2_)
    CleanupClosePushL<RFs>(T1&)              0x000228a5   Thumb Code    12  QtMessaging.in(t._Z17CleanupClosePushLI3RFsEvRT_)
    CleanupClosePushL<RFile>(T1&)            0x000228b5   Thumb Code    12  QtMessaging.in(t._Z17CleanupClosePushLI5RFileEvRT_)
    qRegisterMetaType<QSet<int>>(const char*, T1*) 0x000228c5   Thumb Code    44  QtMessaging.in(t._Z17qRegisterMetaTypeI4QSetIiEEiPKcPT_)
    qRegisterMetaType<QtMobility::QMessageId>(const char*, T1*) 0x000228f9   Thumb Code    44  QtMessaging.in(t._Z17qRegisterMetaTypeIN10QtMobility10QMessageIdEEiPKcPT_)
    qForeachContainerNew<QHash<QString, QtMobility::QMessageAccount>>(const T1&) 0x0002292d   Thumb Code    52  QtMessaging.in(t._Z20qForeachContainerNewI5QHashI7QStringN10QtMobility15QMessageAccountEEE17QForeachContainerIT_ERKS6_)
    qForeachContainerNew<QList<QtMobility::QMessageAddress>>(const T1&) 0x0002296b   Thumb Code    46  QtMessaging.in(t._Z20qForeachContainerNewI5QListIN10QtMobility15QMessageAddressEEE17QForeachContainerIT_ERKS5_)
    qForeachContainerNew<QList<QtMobility::QMessageSortOrder>>(const T1&) 0x000229a3   Thumb Code    62  QtMessaging.in(t._Z20qForeachContainerNewI5QListIN10QtMobility17QMessageSortOrderEEE17QForeachContainerIT_ERKS5_)
    qForeachContainerNew<QList<QtMobility::QMessageContentContainer>>(const T1&) 0x000229eb   Thumb Code    60  QtMessaging.in(t._Z20qForeachContainerNewI5QListIN10QtMobility24QMessageContentContainerEEE17QForeachContainerIT_ERKS5_)
    qForeachContainerNew<QList<QtMobility::QMessageContentContainerId>>(const T1&) 0x00022a31   Thumb Code    60  QtMessaging.in(t._Z20qForeachContainerNewI5QListIN10QtMobility26QMessageContentContainerIdEEE17QForeachContainerIT_ERKS5_)
    qMetaTypeDeleteHelper<QSet<int>>(T1*)    0x00022a77   Thumb Code    16  QtMessaging.in(t._Z21qMetaTypeDeleteHelperI4QSetIiEEvPT_)
    qMetaTypeDeleteHelper<QtMobility::QMessageId>(T1*) 0x00022a87   Thumb Code    16  QtMessaging.in(t._Z21qMetaTypeDeleteHelperIN10QtMobility10QMessageIdEEvPT_)
    qMetaTypeConstructHelper<QSet<int>>(const T1*) 0x00022a99   Thumb Code   110  QtMessaging.in(t._Z24qMetaTypeConstructHelperI4QSetIiEEPvPKT_)
    qMetaTypeConstructHelper<QtMobility::QMessageId>(const T1*) 0x00022b25   Thumb Code    48  QtMessaging.in(t._Z24qMetaTypeConstructHelperIN10QtMobility10QMessageIdEEPvPKT_)
    qSort<QList<QtMobility::QMessageFilter>::iterator, bool(*)(QtMobility::QMessageFilter, QtMobility::QMessageFilter)>(T1, T1, T2) 0x00022b65   Thumb Code    30  QtMessaging.in(t._Z5qSortIN5QListIN10QtMobility14QMessageFilterEE8iteratorEPFbS2_S2_EEvT_S7_T0_)
    qSort<QList<QtMobility::QMessageFolderFilter>::iterator, bool(*)(QtMobility::QMessageFolderFilter, QtMobility::QMessageFolderFilter)>(T1, T1, T2) 0x00022b83   Thumb Code    30  QtMessaging.in(t._Z5qSortIN5QListIN10QtMobility20QMessageFolderFilterEE8iteratorEPFbS2_S2_EEvT_S7_T0_)
    qSort<QList<QtMobility::QMessageAccountFilter>::iterator, bool(*)(QtMobility::QMessageAccountFilter, QtMobility::QMessageAccountFilter)>(T1, T1, T2) 0x00022ba1   Thumb Code    30  QtMessaging.in(t._Z5qSortIN5QListIN10QtMobility21QMessageAccountFilterEE8iteratorEPFbS2_S2_EEvT_S7_T0_)
    qSwap<QtMobility::QMessageId>(T1&, T1&)  0x00022bbf   Thumb Code    38  QtMessaging.in(t._Z5qSwapIN10QtMobility10QMessageIdEEvRT_S3_)
    qSwap<QtMobility::QMessageFilter>(T1&, T1&) 0x00022bef   Thumb Code    38  QtMessaging.in(t._Z5qSwapIN10QtMobility14QMessageFilterEEvRT_S3_)
    qSwap<QtMobility::QMessageFolderId>(T1&, T1&) 0x00022c1f   Thumb Code    38  QtMessaging.in(t._Z5qSwapIN10QtMobility16QMessageFolderIdEEvRT_S3_)
    qSwap<QtMobility::QMessageAccountId>(T1&, T1&) 0x00022c4f   Thumb Code    38  QtMessaging.in(t._Z5qSwapIN10QtMobility17QMessageAccountIdEEvRT_S3_)
    qSwap<QtMobility::QMessageFolderFilter>(T1&, T1&) 0x00022c7f   Thumb Code    38  QtMessaging.in(t._Z5qSwapIN10QtMobility20QMessageFolderFilterEEvRT_S3_)
    qSwap<QtMobility::QMessageAccountFilter>(T1&, T1&) 0x00022caf   Thumb Code    38  QtMessaging.in(t._Z5qSwapIN10QtMobility21QMessageAccountFilterEEvRT_S3_)
    qSwap<QtMobility::QMessage>(T1&, T1&)    0x00022cdf   Thumb Code    38  QtMessaging.in(t._Z5qSwapIN10QtMobility8QMessageEEvRT_S3_)
    CleanupClose<RFs>::Close(void*)          0x00022d0f   Thumb Code     8  QtMessaging.in(t._ZN12CleanupCloseI3RFsE5CloseEPv)
    CleanupClose<RFile>::Close(void*)        0x00022d17   Thumb Code     8  QtMessaging.in(t._ZN12CleanupCloseI5RFileE5CloseEPv)
    CleanupClose<RArray<TPopAccount>>::Close(void*) 0x00022d1f   Thumb Code     8  QtMessaging.in(t._ZN12CleanupCloseI6RArrayI11TPopAccountEE5CloseEPv)
    CleanupClose<RArray<TImapAccount>>::Close(void*) 0x00022d27   Thumb Code     8  QtMessaging.in(t._ZN12CleanupCloseI6RArrayI12TImapAccountEE5CloseEPv)
    CleanupClose<RArray<TSmtpAccount>>::Close(void*) 0x00022d2f   Thumb Code     8  QtMessaging.in(t._ZN12CleanupCloseI6RArrayI12TSmtpAccountEE5CloseEPv)
    QMetaTypeId2<QSet<int>>::qt_metatype_id() 0x00022d39   Thumb Code    24  QtMessaging.in(t._ZN12QMetaTypeId2I4QSetIiEE14qt_metatype_idEv)
    QMetaTypeId2<QtMobility::QMessageId>::qt_metatype_id() 0x00022d95   Thumb Code    24  QtMessaging.in(t._ZN12QMetaTypeId2IN10QtMobility10QMessageIdEE14qt_metatype_idEv)
    RPointerArray<CMsvEntry>::ResetAndDestroy() 0x00022dd5   Thumb Code    48  QtMessaging.in(t._ZN13RPointerArrayI9CMsvEntryE15ResetAndDestroyEv)
    RPointerArray<CMsvEntry>::Append(const CMsvEntry*) 0x00022e05   Thumb Code     8  QtMessaging.in(t._ZN13RPointerArrayI9CMsvEntryE6AppendEPKS0_)
    RPointerArray<CMsvEntry>::Remove(int)    0x00022e0d   Thumb Code     8  QtMessaging.in(t._ZN13RPointerArrayI9CMsvEntryE6RemoveEi)
    QAlgorithmsPrivate::qSortHelper<QList<QtMobility::QMessageId>::iterator, QtMobility::QMessageId, bool(*)(QtMobility::QMessageId, QtMobility::QMessageId)>(T1, T1, const T2&, T3) 0x00022e15   Thumb Code   568  QtMessaging.in(t._ZN18QAlgorithmsPrivate11qSortHelperIN5QListIN10QtMobility10QMessageIdEE8iteratorES3_PFbS3_S3_EEEvT_S8_RKT0_T1_)
    QAlgorithmsPrivate::qSortHelper<QList<QtMobility::QMessageFilter>::iterator, QtMobility::QMessageFilter, bool(*)(QtMobility::QMessageFilter, QtMobility::QMessageFilter)>(T1, T1, const T2&, T3) 0x00023085   Thumb Code   568  QtMessaging.in(t._ZN18QAlgorithmsPrivate11qSortHelperIN5QListIN10QtMobility14QMessageFilterEE8iteratorES3_PFbS3_S3_EEEvT_S8_RKT0_T1_)
    QAlgorithmsPrivate::qSortHelper<QList<QtMobility::QMessageFolderId>::iterator, QtMobility::QMessageFolderId, bool(*)(QtMobility::QMessageFolderId, QtMobility::QMessageFolderId)>(T1, T1, const T2&, T3) 0x000232f5   Thumb Code   568  QtMessaging.in(t._ZN18QAlgorithmsPrivate11qSortHelperIN5QListIN10QtMobility16QMessageFolderIdEE8iteratorES3_PFbS3_S3_EEEvT_S8_RKT0_T1_)
    QAlgorithmsPrivate::qSortHelper<QList<QtMobility::QMessageAccountId>::iterator, QtMobility::QMessageAccountId, bool(*)(QtMobility::QMessageAccountId, QtMobility::QMessageAccountId)>(T1, T1, const T2&, T3) 0x00023565   Thumb Code   568  QtMessaging.in(t._ZN18QAlgorithmsPrivate11qSortHelperIN5QListIN10QtMobility17QMessageAccountIdEE8iteratorES3_PFbS3_S3_EEEvT_S8_RKT0_T1_)
    QAlgorithmsPrivate::qSortHelper<QList<QtMobility::QMessageFolderFilter>::iterator, QtMobility::QMessageFolderFilter, bool(*)(QtMobility::QMessageFolderFilter, QtMobility::QMessageFolderFilter)>(T1, T1, const T2&, T3) 0x000237d5   Thumb Code   568  QtMessaging.in(t._ZN18QAlgorithmsPrivate11qSortHelperIN5QListIN10QtMobility20QMessageFolderFilterEE8iteratorES3_PFbS3_S3_EEEvT_S8_RKT0_T1_)
    QAlgorithmsPrivate::qSortHelper<QList<QtMobility::QMessageAccountFilter>::iterator, QtMobility::QMessageAccountFilter, bool(*)(QtMobility::QMessageAccountFilter, QtMobility::QMessageAccountFilter)>(T1, T1, const T2&, T3) 0x00023a45   Thumb Code   568  QtMessaging.in(t._ZN18QAlgorithmsPrivate11qSortHelperIN5QListIN10QtMobility21QMessageAccountFilterEE8iteratorES3_PFbS3_S3_EEEvT_S8_RKT0_T1_)
    QAlgorithmsPrivate::qSortHelper<QList<QtMobility::QMessage>::iterator, QtMobility::QMessage, bool(*)(const QtMobility::QMessage&, const QtMobility::QMessage&)>(T1, T1, const T2&, T3) 0x00023cb5   Thumb Code   318  QtMessaging.in(t._ZN18QAlgorithmsPrivate11qSortHelperIN5QListIN10QtMobility8QMessageEE8iteratorES3_PFbRKS3_S7_EEEvT_SA_RKT0_T1_)
    QGlobalStaticDeleter<QtMobility::CMTMEngine>::~QGlobalStaticDeleter() 0x00023df3   Thumb Code    34  QtMessaging.in(t._ZN20QGlobalStaticDeleterIN10QtMobility10CMTMEngineEED1Ev)
    QGlobalStaticDeleter<QtMobility::CMTMEngine>::~QGlobalStaticDeleter__sub_object() 0x00023df3   Thumb Code     0  QtMessaging.in(t._ZN20QGlobalStaticDeleterIN10QtMobility10CMTMEngineEED1Ev)
    QGlobalStaticDeleter<QtMobility::MessageCache>::~QGlobalStaticDeleter() 0x00023e15   Thumb Code    36  QtMessaging.in(t._ZN20QGlobalStaticDeleterIN10QtMobility12MessageCacheEED1Ev)
    QGlobalStaticDeleter<QtMobility::MessageCache>::~QGlobalStaticDeleter__sub_object() 0x00023e15   Thumb Code     0  QtMessaging.in(t._ZN20QGlobalStaticDeleterIN10QtMobility12MessageCacheEED1Ev)
    QGlobalStaticDeleter<QtMobility::MessagingHelper>::~QGlobalStaticDeleter() 0x00023e39   Thumb Code    32  QtMessaging.in(t._ZN20QGlobalStaticDeleterIN10QtMobility15MessagingHelperEED1Ev)
    QGlobalStaticDeleter<QtMobility::MessagingHelper>::~QGlobalStaticDeleter__sub_object() 0x00023e39   Thumb Code     0  QtMessaging.in(t._ZN20QGlobalStaticDeleterIN10QtMobility15MessagingHelperEED1Ev)
    QGlobalStaticDeleter<QtMobility::QMessageStorePrivate>::~QGlobalStaticDeleter() 0x00023e59   Thumb Code    34  QtMessaging.in(t._ZN20QGlobalStaticDeleterIN10QtMobility20QMessageStorePrivateEED1Ev)
    QGlobalStaticDeleter<QtMobility::QMessageStorePrivate>::~QGlobalStaticDeleter__sub_object() 0x00023e59   Thumb Code     0  QtMessaging.in(t._ZN20QGlobalStaticDeleterIN10QtMobility20QMessageStorePrivateEED1Ev)
    QMap<QByteArray, QString>::node_create(QMapData*, QMapData::Node**, const QByteArray&, const QString&) 0x00023e7b   Thumb Code   106  QtMessaging.in(t._ZN4QMapI10QByteArray7QStringE11node_createEP8QMapDataPPNS3_4NodeERKS0_RKS1_)
    QMap<QByteArray, QString>::detach_helper() 0x00023f0b   Thumb Code   114  QtMessaging.in(t._ZN4QMapI10QByteArray7QStringE13detach_helperEv)
    QMap<QByteArray, QString>::end()         0x00023f85   Thumb Code    12  QtMessaging.in(t._ZN4QMapI10QByteArray7QStringE3endEv)
    QMap<QByteArray, QString>::detach()      0x00023f91   Thumb Code    26  QtMessaging.in(t._ZN4QMapI10QByteArray7QStringE6detachEv)
    QMap<QByteArray, QString>::remove(const QByteArray&) 0x00023fab   Thumb Code   168  QtMessaging.in(t._ZN4QMapI10QByteArray7QStringE6removeERKS0_)
    QMap<QByteArray, QString>::freeData(QMapData*) 0x00024053   Thumb Code    42  QtMessaging.in(t._ZN4QMapI10QByteArray7QStringE8freeDataEP8QMapData)
    QMap<QByteArray, QString>::QMap()        0x0002407d   Thumb Code    18  QtMessaging.in(t._ZN4QMapI10QByteArray7QStringEC1Ev)
    QMap<QByteArray, QString>::QMap__sub_object() 0x0002407d   Thumb Code     0  QtMessaging.in(t._ZN4QMapI10QByteArray7QStringEC1Ev)
    QMap<QByteArray, QString>::~QMap()       0x00024095   Thumb Code    32  QtMessaging.in(t._ZN4QMapI10QByteArray7QStringED1Ev)
    QMap<QByteArray, QString>::~QMap__sub_object() 0x00024095   Thumb Code     0  QtMessaging.in(t._ZN4QMapI10QByteArray7QStringED1Ev)
    QMap<QByteArray, QString>::operator =(const QMap<QByteArray, QString>&) 0x000240b5   Thumb Code    58  QtMessaging.in(t._ZN4QMapI10QByteArray7QStringEaSERKS2_)
    QMap<int, QtMobility::QMessageFilter>::node_create(QMapData*, QMapData::Node**, const int&, const QtMobility::QMessageFilter&) 0x000240ef   Thumb Code    98  QtMessaging.in(t._ZN4QMapIiN10QtMobility14QMessageFilterEE11node_createEP8QMapDataPPNS3_4NodeERKiRKS1_)
    QMap<int, QtMobility::QMessageFilter>::detach_helper() 0x0002416d   Thumb Code   114  QtMessaging.in(t._ZN4QMapIiN10QtMobility14QMessageFilterEE13detach_helperEv)
    QMap<int, QtMobility::QMessageFilter>::begin() 0x000241e7   Thumb Code    14  QtMessaging.in(t._ZN4QMapIiN10QtMobility14QMessageFilterEE5beginEv)
    QMap<int, QtMobility::QMessageFilter>::detach() 0x000241f5   Thumb Code    26  QtMessaging.in(t._ZN4QMapIiN10QtMobility14QMessageFilterEE6detachEv)
    QMap<int, QtMobility::QMessageFilter>::insert(const int&, const QtMobility::QMessageFilter&) 0x0002420f   Thumb Code   130  QtMessaging.in(t._ZN4QMapIiN10QtMobility14QMessageFilterEE6insertERKiRKS1_)
    QMap<int, QtMobility::QMessageFilter>::remove(const int&) 0x00024291   Thumb Code   156  QtMessaging.in(t._ZN4QMapIiN10QtMobility14QMessageFilterEE6removeERKi)
    QMap<int, QtMobility::QMessageFilter>::freeData(QMapData*) 0x0002432d   Thumb Code    32  QtMessaging.in(t._ZN4QMapIiN10QtMobility14QMessageFilterEE8freeDataEP8QMapData)
    QMap<int, QtMobility::QMessageFilter>::QMap(const QMap<int, QtMobility::QMessageFilter>&) 0x0002434d   Thumb Code    32  QtMessaging.in(t._ZN4QMapIiN10QtMobility14QMessageFilterEEC1ERKS2_)
    QMap<int, QtMobility::QMessageFilter>::QMap__sub_object(const QMap<int, QtMobility::QMessageFilter>&) 0x0002434d   Thumb Code     0  QtMessaging.in(t._ZN4QMapIiN10QtMobility14QMessageFilterEEC1ERKS2_)
    QMap<int, QtMobility::QMessageFilter>::~QMap() 0x0002436d   Thumb Code    32  QtMessaging.in(t._ZN4QMapIiN10QtMobility14QMessageFilterEED1Ev)
    QMap<int, QtMobility::QMessageFilter>::~QMap__sub_object() 0x0002436d   Thumb Code     0  QtMessaging.in(t._ZN4QMapIiN10QtMobility14QMessageFilterEED1Ev)
    QMap<long, MMsvSessionObserver::TMsvSessionEvent>::node_create(QMapData*, QMapData::Node**, const long&, const MMsvSessionObserver::TMsvSessionEvent&) 0x0002438d   Thumb Code    60  QtMessaging.in(t._ZN4QMapIlN19MMsvSessionObserver16TMsvSessionEventEE11node_createEP8QMapDataPPNS3_4NodeERKlRKS1_)
    QMap<long, MMsvSessionObserver::TMsvSessionEvent>::detach_helper() 0x000243c9   Thumb Code   114  QtMessaging.in(t._ZN4QMapIlN19MMsvSessionObserver16TMsvSessionEventEE13detach_helperEv)
    QMap<long, MMsvSessionObserver::TMsvSessionEvent>::take(const long&) 0x00024443   Thumb Code   114  QtMessaging.in(t._ZN4QMapIlN19MMsvSessionObserver16TMsvSessionEventEE4takeERKl)
    QMap<long, MMsvSessionObserver::TMsvSessionEvent>::detach() 0x000244b5   Thumb Code    26  QtMessaging.in(t._ZN4QMapIlN19MMsvSessionObserver16TMsvSessionEventEE6detachEv)
    QMap<long, MMsvSessionObserver::TMsvSessionEvent>::remove(const long&) 0x000244cf   Thumb Code   150  QtMessaging.in(t._ZN4QMapIlN19MMsvSessionObserver16TMsvSessionEventEE6removeERKl)
    QMap<long, MMsvSessionObserver::TMsvSessionEvent>::freeData(QMapData*) 0x00024565   Thumb Code    22  QtMessaging.in(t._ZN4QMapIlN19MMsvSessionObserver16TMsvSessionEventEE8freeDataEP8QMapData)
    QMap<long, MMsvSessionObserver::TMsvSessionEvent>::~QMap() 0x0002457b   Thumb Code    32  QtMessaging.in(t._ZN4QMapIlN19MMsvSessionObserver16TMsvSessionEventEED1Ev)
    QMap<long, MMsvSessionObserver::TMsvSessionEvent>::~QMap__sub_object() 0x0002457b   Thumb Code     0  QtMessaging.in(t._ZN4QMapIlN19MMsvSessionObserver16TMsvSessionEventEED1Ev)
    QSet<int>::clear()                       0x0002459b   Thumb Code    26  QtMessaging.in(t._ZN4QSetIiE5clearEv)
    QSet<int>::insert(const int&)            0x000245bf   Thumb Code   102  QtMessaging.in(t._ZN4QSetIiE6insertERKi)
    QSet<int>::QSet()                        0x00024625   Thumb Code     8  QtMessaging.in(t._ZN4QSetIiEC1Ev)
    QSet<int>::QSet__sub_object()            0x00024625   Thumb Code     0  QtMessaging.in(t._ZN4QSetIiEC1Ev)
    TBuf<(int)256>::TBuf(const TDesC16&)     0x0002462d   Thumb Code    12  QtMessaging.in(t._ZN4TBufILi256EEC1ERK7TDesC16)
    TBuf<(int)256>::TBuf__sub_object(const TDesC16&) 0x0002462d   Thumb Code     0  QtMessaging.in(t._ZN4TBufILi256EEC1ERK7TDesC16)
    TBuf<(int)256>::TBuf()                   0x00024639   Thumb Code    12  QtMessaging.in(t._ZN4TBufILi256EEC1Ev)
    TBuf<(int)256>::TBuf__sub_object()       0x00024639   Thumb Code     0  QtMessaging.in(t._ZN4TBufILi256EEC1Ev)
    QHash<QString, QtMobility::QMessageAccount>::createNode(unsigned, const QString&, const QtMobility::QMessageAccount&, QHashNode<QString, QtMobility::QMessageAccount>**) 0x00024645   Thumb Code    66  QtMessaging.in(t._ZN5QHashI7QStringN10QtMobility15QMessageAccountEE10createNodeEjRKS0_RKS2_PP9QHashNodeIS0_S2_E)
    QHash<QString, QtMobility::QMessageAccount>::deleteNode2(QHashData::Node*) 0x00024693   Thumb Code    18  QtMessaging.in(t._ZN5QHashI7QStringN10QtMobility15QMessageAccountEE11deleteNode2EPN9QHashData4NodeE)
    QHash<QString, QtMobility::QMessageAccount>::duplicateNode(QHashData::Node*, void*) 0x000246b1   Thumb Code    30  QtMessaging.in(t._ZN5QHashI7QStringN10QtMobility15QMessageAccountEE13duplicateNodeEPN9QHashData4NodeEPv)
    QHash<QString, QtMobility::QMessageAccount>::const_iterator::operator ++() 0x000246db   Thumb Code    16  QtMessaging.in(t._ZN5QHashI7QStringN10QtMobility15QMessageAccountEE14const_iteratorppEv)
    QHash<QString, QtMobility::QMessageAccount>::detach() 0x000246ed   Thumb Code    60  QtMessaging.in(t._ZN5QHashI7QStringN10QtMobility15QMessageAccountEE6detachEv)
    QHash<QString, QtMobility::QMessageAccount>::insert(const QString&, const QtMobility::QMessageAccount&) 0x00024731   Thumb Code    82  QtMessaging.in(t._ZN5QHashI7QStringN10QtMobility15QMessageAccountEE6insertERKS0_RKS2_)
    QHash<QString, QtMobility::QMessageAccount>::remove(const QString&) 0x00024783   Thumb Code   184  QtMessaging.in(t._ZN5QHashI7QStringN10QtMobility15QMessageAccountEE6removeERKS0_)
    QHash<QString, QtMobility::QMessageAccount>::freeData(QHashData*) 0x0002483d   Thumb Code    12  QtMessaging.in(t._ZN5QHashI7QStringN10QtMobility15QMessageAccountEE8freeDataEP9QHashData)
    QHash<QString, QtMobility::QMessageAccount>::~QHash() 0x0002484d   Thumb Code    28  QtMessaging.in(t._ZN5QHashI7QStringN10QtMobility15QMessageAccountEED1Ev)
    QHash<QString, QtMobility::QMessageAccount>::~QHash__sub_object() 0x0002484d   Thumb Code     0  QtMessaging.in(t._ZN5QHashI7QStringN10QtMobility15QMessageAccountEED1Ev)
    QHash<QString, QCache<QString, QtMobility::QMessage>::Node>::deleteNode2(QHashData::Node*) 0x00024869   Thumb Code    10  QtMessaging.in(t._ZN5QHashI7QStringN6QCacheIS0_N10QtMobility8QMessageEE4NodeEE11deleteNode2EPN9QHashData4NodeE)
    QHash<QString, QCache<QString, QtMobility::QMessage>::Node>::detach_helper() 0x00024875   Thumb Code    46  QtMessaging.in(t._ZN5QHashI7QStringN6QCacheIS0_N10QtMobility8QMessageEE4NodeEE13detach_helperEv)
    QHash<QString, QCache<QString, QtMobility::QMessage>::Node>::duplicateNode(QHashData::Node*, void*) 0x000248ad   Thumb Code    30  QtMessaging.in(t._ZN5QHashI7QStringN6QCacheIS0_N10QtMobility8QMessageEE4NodeEE13duplicateNodeEPN9QHashData4NodeEPv)
    QHash<QString, QCache<QString, QtMobility::QMessage>::Node>::find(const QString&) 0x000248d7   Thumb Code    24  QtMessaging.in(t._ZN5QHashI7QStringN6QCacheIS0_N10QtMobility8QMessageEE4NodeEE4findERKS0_)
    QHash<QString, QCache<QString, QtMobility::QMessage>::Node>::detach() 0x000248ef   Thumb Code    26  QtMessaging.in(t._ZN5QHashI7QStringN6QCacheIS0_N10QtMobility8QMessageEE4NodeEE6detachEv)
    QHash<QString, QCache<QString, QtMobility::QMessage>::Node>::insert(const QString&, const QCache<QString, QtMobility::QMessage>::Node&) 0x00024909   Thumb Code   134  QtMessaging.in(t._ZN5QHashI7QStringN6QCacheIS0_N10QtMobility8QMessageEE4NodeEE6insertERKS0_RKS5_)
    QHash<QString, QCache<QString, QtMobility::QMessage>::Node>::remove(const QString&) 0x0002499b   Thumb Code   186  QtMessaging.in(t._ZN5QHashI7QStringN6QCacheIS0_N10QtMobility8QMessageEE4NodeEE6removeERKS0_)
    QHash<QString, QCache<QString, QtMobility::QMessage>::Node>::freeData(QHashData*) 0x00024a55   Thumb Code    12  QtMessaging.in(t._ZN5QHashI7QStringN6QCacheIS0_N10QtMobility8QMessageEE4NodeEE8freeDataEP9QHashData)
    QHash<QString, QCache<QString, QtMobility::QMessage>::Node>::QHash() 0x00024a65   Thumb Code    18  QtMessaging.in(t._ZN5QHashI7QStringN6QCacheIS0_N10QtMobility8QMessageEE4NodeEEC1Ev)
    QHash<QString, QCache<QString, QtMobility::QMessage>::Node>::QHash__sub_object() 0x00024a65   Thumb Code     0  QtMessaging.in(t._ZN5QHashI7QStringN6QCacheIS0_N10QtMobility8QMessageEE4NodeEEC1Ev)
    QHash<QString, QCache<QString, QtMobility::QMessage>::Node>::~QHash() 0x00024a7d   Thumb Code    28  QtMessaging.in(t._ZN5QHashI7QStringN6QCacheIS0_N10QtMobility8QMessageEE4NodeEED1Ev)
    QHash<QString, QCache<QString, QtMobility::QMessage>::Node>::~QHash__sub_object() 0x00024a7d   Thumb Code     0  QtMessaging.in(t._ZN5QHashI7QStringN6QCacheIS0_N10QtMobility8QMessageEE4NodeEED1Ev)
    QHash<int, QHashDummyValue>::deleteNode2(QHashData::Node*) 0x00024a99   Thumb Code     2  QtMessaging.in(t._ZN5QHashIi15QHashDummyValueE11deleteNode2EPN9QHashData4NodeE)
    QHash<int, QHashDummyValue>::detach_helper() 0x00024a9d   Thumb Code    46  QtMessaging.in(t._ZN5QHashIi15QHashDummyValueE13detach_helperEv)
    QHash<int, QHashDummyValue>::duplicateNode(QHashData::Node*, void*) 0x00024ad5   Thumb Code    10  QtMessaging.in(t._ZN5QHashIi15QHashDummyValueE13duplicateNodeEPN9QHashData4NodeEPv)
    QHash<int, QHashDummyValue>::detach()    0x00024adf   Thumb Code    26  QtMessaging.in(t._ZN5QHashIi15QHashDummyValueE6detachEv)
    QHash<int, QHashDummyValue>::freeData(QHashData*) 0x00024af9   Thumb Code    12  QtMessaging.in(t._ZN5QHashIi15QHashDummyValueE8freeDataEP9QHashData)
    QHash<int, QHashDummyValue>::QHash()     0x00024b09   Thumb Code    18  QtMessaging.in(t._ZN5QHashIi15QHashDummyValueEC1Ev)
    QHash<int, QHashDummyValue>::QHash__sub_object() 0x00024b09   Thumb Code     0  QtMessaging.in(t._ZN5QHashIi15QHashDummyValueEC1Ev)
    QHash<int, QHashDummyValue>::~QHash()    0x00024b21   Thumb Code    28  QtMessaging.in(t._ZN5QHashIi15QHashDummyValueED1Ev)
    QHash<int, QHashDummyValue>::~QHash__sub_object() 0x00024b21   Thumb Code     0  QtMessaging.in(t._ZN5QHashIi15QHashDummyValueED1Ev)
    QHash<int, QHashDummyValue>::operator =(const QHash<int, QHashDummyValue>&) 0x00024b3d   Thumb Code    58  QtMessaging.in(t._ZN5QHashIi15QHashDummyValueEaSERKS1_)
    QList<QByteArray>::detach_helper(int)    0x00024b77   Thumb Code   142  QtMessaging.in(t._ZN5QListI10QByteArrayE13detach_helperEi)
    QList<QByteArray>::detach_helper()       0x00024c19   Thumb Code    12  QtMessaging.in(t._ZN5QListI10QByteArrayE13detach_helperEv)
    QList<QByteArray>::node_construct(QList<QByteArray>::Node*, const QByteArray&) 0x00024c25   Thumb Code    26  QtMessaging.in(t._ZN5QListI10QByteArrayE14node_constructEPNS1_4NodeERKS0_)
    QList<QByteArray>::detach_helper_grow(int, int) 0x00024c4b   Thumb Code   186  QtMessaging.in(t._ZN5QListI10QByteArrayE18detach_helper_growEii)
    QList<QByteArray>::free(QListData::Data*) 0x00024d0d   Thumb Code    48  QtMessaging.in(t._ZN5QListI10QByteArrayE4freeEPN9QListData4DataE)
    QList<QByteArray>::append(const QByteArray&) 0x00024d3d   Thumb Code    94  QtMessaging.in(t._ZN5QListI10QByteArrayE6appendERKS0_)
    QList<QByteArray>::reserve(int)          0x00024da9   Thumb Code   116  QtMessaging.in(t._ZN5QListI10QByteArrayE7reserveEi)
    QList<QByteArray>::node_copy(QList<QByteArray>::Node*, QList<QByteArray>::Node*, QList<QByteArray>::Node*) 0x00024e25   Thumb Code    70  QtMessaging.in(t._ZN5QListI10QByteArrayE9node_copyEPNS1_4NodeES3_S3_)
    QList<QByteArray>::QList(const QList<QByteArray>&) 0x00024e81   Thumb Code    30  QtMessaging.in(t._ZN5QListI10QByteArrayEC1ERKS1_)
    QList<QByteArray>::QList__sub_object(const QList<QByteArray>&) 0x00024e81   Thumb Code     0  QtMessaging.in(t._ZN5QListI10QByteArrayEC1ERKS1_)
    QList<QByteArray>::~QList()              0x00024e9f   Thumb Code    30  QtMessaging.in(t._ZN5QListI10QByteArrayED1Ev)
    QList<QByteArray>::~QList__sub_object()  0x00024e9f   Thumb Code     0  QtMessaging.in(t._ZN5QListI10QByteArrayED1Ev)
    QList<QPair<QtMobility::QMessageSortOrderPrivate::Field, Qt::SortOrder>>::detach_helper() 0x00024ebd   Thumb Code    88  QtMessaging.in(t._ZN5QListI5QPairIN10QtMobility24QMessageSortOrderPrivate5FieldEN2Qt9SortOrderEEE13detach_helperEv)
    QList<QPair<QtMobility::QMessageSortOrderPrivate::Field, Qt::SortOrder>>::node_destruct(QList<QPair<QtMobility::QMessageSortOrderPrivate::Field, Qt::SortOrder>>::Node*, QList<QPair<QtMobility::QMessageSortOrderPrivate::Field, Qt::SortOrder>>::Node*) 0x00024f1d   Thumb Code    22  QtMessaging.in(t._ZN5QListI5QPairIN10QtMobility24QMessageSortOrderPrivate5FieldEN2Qt9SortOrderEEE13node_destructEPNS7_4NodeES9_)
    QList<QPair<QtMobility::QMessageSortOrderPrivate::Field, Qt::SortOrder>>::node_construct(QList<QPair<QtMobility::QMessageSortOrderPrivate::Field, Qt::SortOrder>>::Node*, const QPair<QtMobility::QMessageSortOrderPrivate::Field, Qt::SortOrder>&) 0x00024f33   Thumb Code    32  QtMessaging.in(t._ZN5QListI5QPairIN10QtMobility24QMessageSortOrderPrivate5FieldEN2Qt9SortOrderEEE14node_constructEPNS7_4NodeERKS6_)
    QList<QPair<QtMobility::QMessageSortOrderPrivate::Field, Qt::SortOrder>>::detach_helper_grow(int, int) 0x00024f53   Thumb Code   180  QtMessaging.in(t._ZN5QListI5QPairIN10QtMobility24QMessageSortOrderPrivate5FieldEN2Qt9SortOrderEEE18detach_helper_growEii)
    QList<QPair<QtMobility::QMessageSortOrderPrivate::Field, Qt::SortOrder>>::free(QListData::Data*) 0x0002500f   Thumb Code    38  QtMessaging.in(t._ZN5QListI5QPairIN10QtMobility24QMessageSortOrderPrivate5FieldEN2Qt9SortOrderEEE4freeEPN9QListData4DataE)
    QList<QPair<QtMobility::QMessageSortOrderPrivate::Field, Qt::SortOrder>>::append(const QPair<QtMobility::QMessageSortOrderPrivate::Field, Qt::SortOrder>&) 0x00025035   Thumb Code    90  QtMessaging.in(t._ZN5QListI5QPairIN10QtMobility24QMessageSortOrderPrivate5FieldEN2Qt9SortOrderEEE6appendERKS6_)
    QList<QPair<QtMobility::QMessageSortOrderPrivate::Field, Qt::SortOrder>>::detach() 0x0002509d   Thumb Code    24  QtMessaging.in(t._ZN5QListI5QPairIN10QtMobility24QMessageSortOrderPrivate5FieldEN2Qt9SortOrderEEE6detachEv)
    QList<QPair<QtMobility::QMessageSortOrderPrivate::Field, Qt::SortOrder>>::node_copy(QList<QPair<QtMobility::QMessageSortOrderPrivate::Field, Qt::SortOrder>>::Node*, QList<QPair<QtMobility::QMessageSortOrderPrivate::Field, Qt::SortOrder>>::Node*, QList<QPair<QtMobility::QMessageSortOrderPrivate::Field, Qt::SortOrder>>::Node*) 0x000250b5   Thumb Code    44  QtMessaging.in(t._ZN5QListI5QPairIN10QtMobility24QMessageSortOrderPrivate5FieldEN2Qt9SortOrderEEE9node_copyEPNS7_4NodeES9_S9_)
    QList<QPair<QtMobility::QMessageSortOrderPrivate::Field, Qt::SortOrder>>::~QList() 0x000250e1   Thumb Code    30  QtMessaging.in(t._ZN5QListI5QPairIN10QtMobility24QMessageSortOrderPrivate5FieldEN2Qt9SortOrderEEED1Ev)
    QList<QPair<QtMobility::QMessageSortOrderPrivate::Field, Qt::SortOrder>>::~QList__sub_object() 0x000250e1   Thumb Code     0  QtMessaging.in(t._ZN5QListI5QPairIN10QtMobility24QMessageSortOrderPrivate5FieldEN2Qt9SortOrderEEED1Ev)
    QList<QPair<QtMobility::QMessageSortOrderPrivate::Field, Qt::SortOrder>>::operator =(const QList<QPair<QtMobility::QMessageSortOrderPrivate::Field, Qt::SortOrder>>&) 0x000250ff   Thumb Code    54  QtMessaging.in(t._ZN5QListI5QPairIN10QtMobility24QMessageSortOrderPrivate5FieldEN2Qt9SortOrderEEEaSERKS7_)
    QList<QPair<QtMobility::QMessageSortOrderPrivate::Field, Qt::SortOrder>>::operator +=(const QList<QPair<QtMobility::QMessageSortOrderPrivate::Field, Qt::SortOrder>>&) 0x00025135   Thumb Code   132  QtMessaging.in(t._ZN5QListI5QPairIN10QtMobility24QMessageSortOrderPrivate5FieldEN2Qt9SortOrderEEEpLERKS7_)
    QList<QPair<QtMobility::QMessageFolderSortOrderPrivate::Field, Qt::SortOrder>>::detach_helper() 0x000251c5   Thumb Code    88  QtMessaging.in(t._ZN5QListI5QPairIN10QtMobility30QMessageFolderSortOrderPrivate5FieldEN2Qt9SortOrderEEE13detach_helperEv)
    QList<QPair<QtMobility::QMessageFolderSortOrderPrivate::Field, Qt::SortOrder>>::node_destruct(QList<QPair<QtMobility::QMessageFolderSortOrderPrivate::Field, Qt::SortOrder>>::Node*, QList<QPair<QtMobility::QMessageFolderSortOrderPrivate::Field, Qt::SortOrder>>::Node*) 0x00025225   Thumb Code    22  QtMessaging.in(t._ZN5QListI5QPairIN10QtMobility30QMessageFolderSortOrderPrivate5FieldEN2Qt9SortOrderEEE13node_destructEPNS7_4NodeES9_)
    QList<QPair<QtMobility::QMessageFolderSortOrderPrivate::Field, Qt::SortOrder>>::node_construct(QList<QPair<QtMobility::QMessageFolderSortOrderPrivate::Field, Qt::SortOrder>>::Node*, const QPair<QtMobility::QMessageFolderSortOrderPrivate::Field, Qt::SortOrder>&) 0x0002523b   Thumb Code    32  QtMessaging.in(t._ZN5QListI5QPairIN10QtMobility30QMessageFolderSortOrderPrivate5FieldEN2Qt9SortOrderEEE14node_constructEPNS7_4NodeERKS6_)
    QList<QPair<QtMobility::QMessageFolderSortOrderPrivate::Field, Qt::SortOrder>>::detach_helper_grow(int, int) 0x0002525b   Thumb Code   180  QtMessaging.in(t._ZN5QListI5QPairIN10QtMobility30QMessageFolderSortOrderPrivate5FieldEN2Qt9SortOrderEEE18detach_helper_growEii)
    QList<QPair<QtMobility::QMessageFolderSortOrderPrivate::Field, Qt::SortOrder>>::free(QListData::Data*) 0x00025317   Thumb Code    38  QtMessaging.in(t._ZN5QListI5QPairIN10QtMobility30QMessageFolderSortOrderPrivate5FieldEN2Qt9SortOrderEEE4freeEPN9QListData4DataE)
    QList<QPair<QtMobility::QMessageFolderSortOrderPrivate::Field, Qt::SortOrder>>::append(const QPair<QtMobility::QMessageFolderSortOrderPrivate::Field, Qt::SortOrder>&) 0x0002533d   Thumb Code    90  QtMessaging.in(t._ZN5QListI5QPairIN10QtMobility30QMessageFolderSortOrderPrivate5FieldEN2Qt9SortOrderEEE6appendERKS6_)
    QList<QPair<QtMobility::QMessageFolderSortOrderPrivate::Field, Qt::SortOrder>>::detach() 0x000253a5   Thumb Code    24  QtMessaging.in(t._ZN5QListI5QPairIN10QtMobility30QMessageFolderSortOrderPrivate5FieldEN2Qt9SortOrderEEE6detachEv)
    QList<QPair<QtMobility::QMessageFolderSortOrderPrivate::Field, Qt::SortOrder>>::node_copy(QList<QPair<QtMobility::QMessageFolderSortOrderPrivate::Field, Qt::SortOrder>>::Node*, QList<QPair<QtMobility::QMessageFolderSortOrderPrivate::Field, Qt::SortOrder>>::Node*, QList<QPair<QtMobility::QMessageFolderSortOrderPrivate::Field, Qt::SortOrder>>::Node*) 0x000253bd   Thumb Code    44  QtMessaging.in(t._ZN5QListI5QPairIN10QtMobility30QMessageFolderSortOrderPrivate5FieldEN2Qt9SortOrderEEE9node_copyEPNS7_4NodeES9_S9_)
    QList<QPair<QtMobility::QMessageFolderSortOrderPrivate::Field, Qt::SortOrder>>::~QList() 0x000253e9   Thumb Code    30  QtMessaging.in(t._ZN5QListI5QPairIN10QtMobility30QMessageFolderSortOrderPrivate5FieldEN2Qt9SortOrderEEED1Ev)
    QList<QPair<QtMobility::QMessageFolderSortOrderPrivate::Field, Qt::SortOrder>>::~QList__sub_object() 0x000253e9   Thumb Code     0  QtMessaging.in(t._ZN5QListI5QPairIN10QtMobility30QMessageFolderSortOrderPrivate5FieldEN2Qt9SortOrderEEED1Ev)
    QList<QPair<QtMobility::QMessageFolderSortOrderPrivate::Field, Qt::SortOrder>>::operator =(const QList<QPair<QtMobility::QMessageFolderSortOrderPrivate::Field, Qt::SortOrder>>&) 0x00025407   Thumb Code    54  QtMessaging.in(t._ZN5QListI5QPairIN10QtMobility30QMessageFolderSortOrderPrivate5FieldEN2Qt9SortOrderEEEaSERKS7_)
    QList<QPair<QtMobility::QMessageFolderSortOrderPrivate::Field, Qt::SortOrder>>::operator +=(const QList<QPair<QtMobility::QMessageFolderSortOrderPrivate::Field, Qt::SortOrder>>&) 0x0002543d   Thumb Code   132  QtMessaging.in(t._ZN5QListI5QPairIN10QtMobility30QMessageFolderSortOrderPrivate5FieldEN2Qt9SortOrderEEEpLERKS7_)
    QList<QString>::detach_helper(int)       0x000254cd   Thumb Code    86  QtMessaging.in(t._ZN5QListI7QStringE13detach_helperEi)
    QList<QString>::detach_helper()          0x0002552b   Thumb Code    12  QtMessaging.in(t._ZN5QListI7QStringE13detach_helperEv)
    QList<QString>::node_construct(QList<QString>::Node*, const QString&) 0x00025537   Thumb Code    26  QtMessaging.in(t._ZN5QListI7QStringE14node_constructEPNS1_4NodeERKS0_)
    QList<QString>::detach_helper_grow(int, int) 0x0002555d   Thumb Code   186  QtMessaging.in(t._ZN5QListI7QStringE18detach_helper_growEii)
    QList<QString>::free(QListData::Data*)   0x0002561f   Thumb Code    54  QtMessaging.in(t._ZN5QListI7QStringE4freeEPN9QListData4DataE)
    QList<QString>::append(const QString&)   0x00025655   Thumb Code    94  QtMessaging.in(t._ZN5QListI7QStringE6appendERKS0_)
    QList<QString>::detach()                 0x000256c1   Thumb Code    24  QtMessaging.in(t._ZN5QListI7QStringE6detachEv)
    QList<QString>::node_copy(QList<QString>::Node*, QList<QString>::Node*, QList<QString>::Node*) 0x000256d9   Thumb Code    70  QtMessaging.in(t._ZN5QListI7QStringE9node_copyEPNS1_4NodeES3_S3_)
    QList<QString>::removeOne(const QString&) 0x00025735   Thumb Code   148  QtMessaging.in(t._ZN5QListI7QStringE9removeOneERKS0_)
    QList<QString>::QList()                  0x000257cd   Thumb Code    16  QtMessaging.in(t._ZN5QListI7QStringEC1Ev)
    QList<QString>::QList__sub_object()      0x000257cd   Thumb Code     0  QtMessaging.in(t._ZN5QListI7QStringEC1Ev)
    QList<QString>::~QList()                 0x000257e1   Thumb Code    30  QtMessaging.in(t._ZN5QListI7QStringED1Ev)
    QList<QString>::~QList__sub_object()     0x000257e1   Thumb Code     0  QtMessaging.in(t._ZN5QListI7QStringED1Ev)
    QList<QtMobility::QMessageId>::detach_helper(int) 0x000257ff   Thumb Code   152  QtMessaging.in(t._ZN5QListIN10QtMobility10QMessageIdEE13detach_helperEi)
    QList<QtMobility::QMessageId>::detach_helper() 0x000258a9   Thumb Code    12  QtMessaging.in(t._ZN5QListIN10QtMobility10QMessageIdEE13detach_helperEv)
    QList<QtMobility::QMessageId>::node_destruct(QList<QtMobility::QMessageId>::Node*) 0x000258b5   Thumb Code    18  QtMessaging.in(t._ZN5QListIN10QtMobility10QMessageIdEE13node_destructEPNS2_4NodeE)
    QList<QtMobility::QMessageId>::node_destruct(QList<QtMobility::QMessageId>::Node*, QList<QtMobility::QMessageId>::Node*) 0x000258c7   Thumb Code    30  QtMessaging.in(t._ZN5QListIN10QtMobility10QMessageIdEE13node_destructEPNS2_4NodeES4_)
    QList<QtMobility::QMessageId>::node_construct(QList<QtMobility::QMessageId>::Node*, const QtMobility::QMessageId&) 0x000258e5   Thumb Code    32  QtMessaging.in(t._ZN5QListIN10QtMobility10QMessageIdEE14node_constructEPNS2_4NodeERKS1_)
    QList<QtMobility::QMessageId>::detach_helper_grow(int, int) 0x0002590f   Thumb Code   180  QtMessaging.in(t._ZN5QListIN10QtMobility10QMessageIdEE18detach_helper_growEii)
    QList<QtMobility::QMessageId>::free(QListData::Data*) 0x000259cb   Thumb Code    38  QtMessaging.in(t._ZN5QListIN10QtMobility10QMessageIdEE4freeEPN9QListData4DataE)
    QList<QtMobility::QMessageId>::begin()   0x000259f1   Thumb Code    22  QtMessaging.in(t._ZN5QListIN10QtMobility10QMessageIdEE5beginEv)
    QList<QtMobility::QMessageId>::clear()   0x00025a07   Thumb Code    26  QtMessaging.in(t._ZN5QListIN10QtMobility10QMessageIdEE5clearEv)
    QList<QtMobility::QMessageId>::append(const QtMobility::QMessageId&) 0x00025a2d   Thumb Code    90  QtMessaging.in(t._ZN5QListIN10QtMobility10QMessageIdEE6appendERKS1_)
    QList<QtMobility::QMessageId>::detach()  0x00025a95   Thumb Code    24  QtMessaging.in(t._ZN5QListIN10QtMobility10QMessageIdEE6detachEv)
    QList<QtMobility::QMessageId>::removeAt(int) 0x00025aad   Thumb Code    50  QtMessaging.in(t._ZN5QListIN10QtMobility10QMessageIdEE8removeAtEi)
    QList<QtMobility::QMessageId>::node_copy(QList<QtMobility::QMessageId>::Node*, QList<QtMobility::QMessageId>::Node*, QList<QtMobility::QMessageId>::Node*) 0x00025adf   Thumb Code    80  QtMessaging.in(t._ZN5QListIN10QtMobility10QMessageIdEE9node_copyEPNS2_4NodeES4_S4_)
    QList<QtMobility::QMessageId>::QList(const QList<QtMobility::QMessageId>&) 0x00025b41   Thumb Code    30  QtMessaging.in(t._ZN5QListIN10QtMobility10QMessageIdEEC1ERKS2_)
    QList<QtMobility::QMessageId>::QList__sub_object(const QList<QtMobility::QMessageId>&) 0x00025b41   Thumb Code     0  QtMessaging.in(t._ZN5QListIN10QtMobility10QMessageIdEEC1ERKS2_)
    QList<QtMobility::QMessageId>::QList()   0x00025b61   Thumb Code    16  QtMessaging.in(t._ZN5QListIN10QtMobility10QMessageIdEEC1Ev)
    QList<QtMobility::QMessageId>::QList__sub_object() 0x00025b61   Thumb Code     0  QtMessaging.in(t._ZN5QListIN10QtMobility10QMessageIdEEC1Ev)
    QList<QtMobility::QMessageId>::~QList()  0x00025b75   Thumb Code    30  QtMessaging.in(t._ZN5QListIN10QtMobility10QMessageIdEED1Ev)
    QList<QtMobility::QMessageId>::~QList__sub_object() 0x00025b75   Thumb Code     0  QtMessaging.in(t._ZN5QListIN10QtMobility10QMessageIdEED1Ev)
    QList<QtMobility::QMessageId>::operator =(const QList<QtMobility::QMessageId>&) 0x00025b93   Thumb Code    54  QtMessaging.in(t._ZN5QListIN10QtMobility10QMessageIdEEaSERKS2_)
    QList<QtMobility::QMessageId>::operator [](int) 0x00025bc9   Thumb Code    22  QtMessaging.in(t._ZN5QListIN10QtMobility10QMessageIdEEixEi)
    QList<QtMobility::QMessageId>::operator +=(const QList<QtMobility::QMessageId>&) 0x00025be1   Thumb Code   132  QtMessaging.in(t._ZN5QListIN10QtMobility10QMessageIdEEpLERKS2_)
    QList<QtMobility::PendingSend>::detach_helper() 0x00025c71   Thumb Code    88  QtMessaging.in(t._ZN5QListIN10QtMobility11PendingSendEE13detach_helperEv)
    QList<QtMobility::PendingSend>::node_destruct(QList<QtMobility::PendingSend>::Node*, QList<QtMobility::PendingSend>::Node*) 0x00025cd1   Thumb Code    22  QtMessaging.in(t._ZN5QListIN10QtMobility11PendingSendEE13node_destructEPNS2_4NodeES4_)
    QList<QtMobility::PendingSend>::node_construct(QList<QtMobility::PendingSend>::Node*, const QtMobility::PendingSend&) 0x00025ce7   Thumb Code    30  QtMessaging.in(t._ZN5QListIN10QtMobility11PendingSendEE14node_constructEPNS2_4NodeERKS1_)
    QList<QtMobility::PendingSend>::detach_helper_grow(int, int) 0x00025d05   Thumb Code   180  QtMessaging.in(t._ZN5QListIN10QtMobility11PendingSendEE18detach_helper_growEii)
    QList<QtMobility::PendingSend>::free(QListData::Data*) 0x00025dc1   Thumb Code    44  QtMessaging.in(t._ZN5QListIN10QtMobility11PendingSendEE4freeEPN9QListData4DataE)
    QList<QtMobility::PendingSend>::append(const QtMobility::PendingSend&) 0x00025ded   Thumb Code    90  QtMessaging.in(t._ZN5QListIN10QtMobility11PendingSendEE6appendERKS1_)
    QList<QtMobility::PendingSend>::detach() 0x00025e55   Thumb Code    24  QtMessaging.in(t._ZN5QListIN10QtMobility11PendingSendEE6detachEv)
    QList<QtMobility::PendingSend>::removeAt(int) 0x00025e6d   Thumb Code    48  QtMessaging.in(t._ZN5QListIN10QtMobility11PendingSendEE8removeAtEi)
    QList<QtMobility::PendingSend>::node_copy(QList<QtMobility::PendingSend>::Node*, QList<QtMobility::PendingSend>::Node*, QList<QtMobility::PendingSend>::Node*) 0x00025e9d   Thumb Code    42  QtMessaging.in(t._ZN5QListIN10QtMobility11PendingSendEE9node_copyEPNS2_4NodeES4_S4_)
    QList<QtMobility::PendingSend>::~QList() 0x00025ec7   Thumb Code    30  QtMessaging.in(t._ZN5QListIN10QtMobility11PendingSendEED1Ev)
    QList<QtMobility::PendingSend>::~QList__sub_object() 0x00025ec7   Thumb Code     0  QtMessaging.in(t._ZN5QListIN10QtMobility11PendingSendEED1Ev)
    QList<QtMobility::PendingSend>::operator [](int) 0x00025ee5   Thumb Code    22  QtMessaging.in(t._ZN5QListIN10QtMobility11PendingSendEEixEi)
    QList<QtMobility::MessageEvent>::removeFirst() 0x00025efb   Thumb Code    34  QtMessaging.in(t._ZN5QListIN10QtMobility12MessageEventEE11removeFirstEv)
    QList<QtMobility::MessageEvent>::detach_helper() 0x00025f1d   Thumb Code    88  QtMessaging.in(t._ZN5QListIN10QtMobility12MessageEventEE13detach_helperEv)
    QList<QtMobility::MessageEvent>::node_destruct(QList<QtMobility::MessageEvent>::Node*) 0x00025f7d   Thumb Code    18  QtMessaging.in(t._ZN5QListIN10QtMobility12MessageEventEE13node_destructEPNS2_4NodeE)
    QList<QtMobility::MessageEvent>::node_destruct(QList<QtMobility::MessageEvent>::Node*, QList<QtMobility::MessageEvent>::Node*) 0x00025f8f   Thumb Code    30  QtMessaging.in(t._ZN5QListIN10QtMobility12MessageEventEE13node_destructEPNS2_4NodeES4_)
    QList<QtMobility::MessageEvent>::node_construct(QList<QtMobility::MessageEvent>::Node*, const QtMobility::MessageEvent&) 0x00025fad   Thumb Code    32  QtMessaging.in(t._ZN5QListIN10QtMobility12MessageEventEE14node_constructEPNS2_4NodeERKS1_)
    QList<QtMobility::MessageEvent>::detach_helper_grow(int, int) 0x00025fd7   Thumb Code   180  QtMessaging.in(t._ZN5QListIN10QtMobility12MessageEventEE18detach_helper_growEii)
    QList<QtMobility::MessageEvent>::free(QListData::Data*) 0x00026093   Thumb Code    44  QtMessaging.in(t._ZN5QListIN10QtMobility12MessageEventEE4freeEPN9QListData4DataE)
    QList<QtMobility::MessageEvent>::append(const QtMobility::MessageEvent&) 0x000260c1   Thumb Code    90  QtMessaging.in(t._ZN5QListIN10QtMobility12MessageEventEE6appendERKS1_)
    QList<QtMobility::MessageEvent>::detach() 0x00026129   Thumb Code    24  QtMessaging.in(t._ZN5QListIN10QtMobility12MessageEventEE6detachEv)
    QList<QtMobility::MessageEvent>::removeAt(int) 0x00026141   Thumb Code    50  QtMessaging.in(t._ZN5QListIN10QtMobility12MessageEventEE8removeAtEi)
    QList<QtMobility::MessageEvent>::node_copy(QList<QtMobility::MessageEvent>::Node*, QList<QtMobility::MessageEvent>::Node*, QList<QtMobility::MessageEvent>::Node*) 0x00026173   Thumb Code    80  QtMessaging.in(t._ZN5QListIN10QtMobility12MessageEventEE9node_copyEPNS2_4NodeES4_S4_)
    QList<QtMobility::MessageEvent>::QList() 0x000261d5   Thumb Code    16  QtMessaging.in(t._ZN5QListIN10QtMobility12MessageEventEEC1Ev)
    QList<QtMobility::MessageEvent>::QList__sub_object() 0x000261d5   Thumb Code     0  QtMessaging.in(t._ZN5QListIN10QtMobility12MessageEventEEC1Ev)
    QList<QtMobility::MessageEvent>::~QList() 0x000261e9   Thumb Code    30  QtMessaging.in(t._ZN5QListIN10QtMobility12MessageEventEED1Ev)
    QList<QtMobility::MessageEvent>::~QList__sub_object() 0x000261e9   Thumb Code     0  QtMessaging.in(t._ZN5QListIN10QtMobility12MessageEventEED1Ev)
    QList<QtMobility::MessageEvent>::operator [](int) 0x00026207   Thumb Code    22  QtMessaging.in(t._ZN5QListIN10QtMobility12MessageEventEEixEi)
    QList<QtMobility::QMessageFilter>::detach_helper() 0x0002621d   Thumb Code    88  QtMessaging.in(t._ZN5QListIN10QtMobility14QMessageFilterEE13detach_helperEv)
    QList<QtMobility::QMessageFilter>::node_destruct(QList<QtMobility::QMessageFilter>::Node*) 0x0002627d   Thumb Code    14  QtMessaging.in(t._ZN5QListIN10QtMobility14QMessageFilterEE13node_destructEPNS2_4NodeE)
    QList<QtMobility::QMessageFilter>::node_destruct(QList<QtMobility::QMessageFilter>::Node*, QList<QtMobility::QMessageFilter>::Node*) 0x0002628b   Thumb Code    28  QtMessaging.in(t._ZN5QListIN10QtMobility14QMessageFilterEE13node_destructEPNS2_4NodeES4_)
    QList<QtMobility::QMessageFilter>::node_construct(QList<QtMobility::QMessageFilter>::Node*, const QtMobility::QMessageFilter&) 0x000262a7   Thumb Code    32  QtMessaging.in(t._ZN5QListIN10QtMobility14QMessageFilterEE14node_constructEPNS2_4NodeERKS1_)
    QList<QtMobility::QMessageFilter>::detach_helper_grow(int, int) 0x000262d1   Thumb Code   180  QtMessaging.in(t._ZN5QListIN10QtMobility14QMessageFilterEE18detach_helper_growEii)
    QList<QtMobility::QMessageFilter>::end() 0x0002638d   Thumb Code    22  QtMessaging.in(t._ZN5QListIN10QtMobility14QMessageFilterEE3endEv)
    QList<QtMobility::QMessageFilter>::free(QListData::Data*) 0x000263a3   Thumb Code    44  QtMessaging.in(t._ZN5QListIN10QtMobility14QMessageFilterEE4freeEPN9QListData4DataE)
    QList<QtMobility::QMessageFilter>::begin() 0x000263cf   Thumb Code    22  QtMessaging.in(t._ZN5QListIN10QtMobility14QMessageFilterEE5beginEv)
    QList<QtMobility::QMessageFilter>::append(const QtMobility::QMessageFilter&) 0x000263e5   Thumb Code    90  QtMessaging.in(t._ZN5QListIN10QtMobility14QMessageFilterEE6appendERKS1_)
    QList<QtMobility::QMessageFilter>::detach() 0x0002644d   Thumb Code    24  QtMessaging.in(t._ZN5QListIN10QtMobility14QMessageFilterEE6detachEv)
    QList<QtMobility::QMessageFilter>::removeAt(int) 0x00026465   Thumb Code    50  QtMessaging.in(t._ZN5QListIN10QtMobility14QMessageFilterEE8removeAtEi)
    QList<QtMobility::QMessageFilter>::node_copy(QList<QtMobility::QMessageFilter>::Node*, QList<QtMobility::QMessageFilter>::Node*, QList<QtMobility::QMessageFilter>::Node*) 0x00026497   Thumb Code    78  QtMessaging.in(t._ZN5QListIN10QtMobility14QMessageFilterEE9node_copyEPNS2_4NodeES4_S4_)
    QList<QtMobility::QMessageFilter>::QList(const QList<QtMobility::QMessageFilter>&) 0x000264f7   Thumb Code    30  QtMessaging.in(t._ZN5QListIN10QtMobility14QMessageFilterEEC1ERKS2_)
    QList<QtMobility::QMessageFilter>::QList__sub_object(const QList<QtMobility::QMessageFilter>&) 0x000264f7   Thumb Code     0  QtMessaging.in(t._ZN5QListIN10QtMobility14QMessageFilterEEC1ERKS2_)
    QList<QtMobility::QMessageFilter>::QList() 0x00026515   Thumb Code    16  QtMessaging.in(t._ZN5QListIN10QtMobility14QMessageFilterEEC1Ev)
    QList<QtMobility::QMessageFilter>::QList__sub_object() 0x00026515   Thumb Code     0  QtMessaging.in(t._ZN5QListIN10QtMobility14QMessageFilterEEC1Ev)
    QList<QtMobility::QMessageFilter>::~QList() 0x00026529   Thumb Code    30  QtMessaging.in(t._ZN5QListIN10QtMobility14QMessageFilterEED1Ev)
    QList<QtMobility::QMessageFilter>::~QList__sub_object() 0x00026529   Thumb Code     0  QtMessaging.in(t._ZN5QListIN10QtMobility14QMessageFilterEED1Ev)
    QList<QtMobility::QMessageFilter>::operator [](int) 0x00026547   Thumb Code    22  QtMessaging.in(t._ZN5QListIN10QtMobility14QMessageFilterEEixEi)
    QList<QtMobility::QMessageFilter>::operator <<(const QtMobility::QMessageFilter&) 0x0002655d   Thumb Code    12  QtMessaging.in(t._ZN5QListIN10QtMobility14QMessageFilterEElsERKS1_)
    QList<QtMobility::QMessageFilter>::operator +=(const QList<QtMobility::QMessageFilter>&) 0x00026569   Thumb Code   168  QtMessaging.in(t._ZN5QListIN10QtMobility14QMessageFilterEEpLERKS2_)
    QList<QtMobility::QMessageAddress>::detach_helper(int) 0x0002661d   Thumb Code   150  QtMessaging.in(t._ZN5QListIN10QtMobility15QMessageAddressEE13detach_helperEi)
    QList<QtMobility::QMessageAddress>::detach_helper() 0x000266c5   Thumb Code    12  QtMessaging.in(t._ZN5QListIN10QtMobility15QMessageAddressEE13detach_helperEv)
    QList<QtMobility::QMessageAddress>::node_destruct(QList<QtMobility::QMessageAddress>::Node*, QList<QtMobility::QMessageAddress>::Node*) 0x000266d1   Thumb Code    28  QtMessaging.in(t._ZN5QListIN10QtMobility15QMessageAddressEE13node_destructEPNS2_4NodeES4_)
    QList<QtMobility::QMessageAddress>::node_construct(QList<QtMobility::QMessageAddress>::Node*, const QtMobility::QMessageAddress&) 0x000266ed   Thumb Code    32  QtMessaging.in(t._ZN5QListIN10QtMobility15QMessageAddressEE14node_constructEPNS2_4NodeERKS1_)
    QList<QtMobility::QMessageAddress>::detach_helper_grow(int, int) 0x00026717   Thumb Code   180  QtMessaging.in(t._ZN5QListIN10QtMobility15QMessageAddressEE18detach_helper_growEii)
    QList<QtMobility::QMessageAddress>::free(QListData::Data*) 0x000267d3   Thumb Code    38  QtMessaging.in(t._ZN5QListIN10QtMobility15QMessageAddressEE4freeEPN9QListData4DataE)
    QList<QtMobility::QMessageAddress>::append(const QtMobility::QMessageAddress&) 0x000267f9   Thumb Code    90  QtMessaging.in(t._ZN5QListIN10QtMobility15QMessageAddressEE6appendERKS1_)
    QList<QtMobility::QMessageAddress>::node_copy(QList<QtMobility::QMessageAddress>::Node*, QList<QtMobility::QMessageAddress>::Node*, QList<QtMobility::QMessageAddress>::Node*) 0x00026861   Thumb Code    78  QtMessaging.in(t._ZN5QListIN10QtMobility15QMessageAddressEE9node_copyEPNS2_4NodeES4_S4_)
    QList<QtMobility::QMessageAddress>::QList(const QList<QtMobility::QMessageAddress>&) 0x000268c1   Thumb Code    30  QtMessaging.in(t._ZN5QListIN10QtMobility15QMessageAddressEEC1ERKS2_)
    QList<QtMobility::QMessageAddress>::QList__sub_object(const QList<QtMobility::QMessageAddress>&) 0x000268c1   Thumb Code     0  QtMessaging.in(t._ZN5QListIN10QtMobility15QMessageAddressEEC1ERKS2_)
    QList<QtMobility::QMessageAddress>::QList() 0x000268e1   Thumb Code    16  QtMessaging.in(t._ZN5QListIN10QtMobility15QMessageAddressEEC1Ev)
    QList<QtMobility::QMessageAddress>::QList__sub_object() 0x000268e1   Thumb Code     0  QtMessaging.in(t._ZN5QListIN10QtMobility15QMessageAddressEEC1Ev)
    QList<QtMobility::QMessageAddress>::~QList() 0x000268f5   Thumb Code    30  QtMessaging.in(t._ZN5QListIN10QtMobility15QMessageAddressEED1Ev)
    QList<QtMobility::QMessageAddress>::~QList__sub_object() 0x000268f5   Thumb Code     0  QtMessaging.in(t._ZN5QListIN10QtMobility15QMessageAddressEED1Ev)
    QList<QtMobility::QMessageAddress>::operator =(const QList<QtMobility::QMessageAddress>&) 0x00026913   Thumb Code    54  QtMessaging.in(t._ZN5QListIN10QtMobility15QMessageAddressEEaSERKS2_)
    QList<QtMobility::QMessageAddress>::operator [](int) 0x00026949   Thumb Code    36  QtMessaging.in(t._ZN5QListIN10QtMobility15QMessageAddressEEixEi)
    QList<QtMobility::QMessageAddress>::operator +=(const QList<QtMobility::QMessageAddress>&) 0x0002696d   Thumb Code   168  QtMessaging.in(t._ZN5QListIN10QtMobility15QMessageAddressEEpLERKS2_)
    QList<QtMobility::MessageQueryInfo>::detach_helper() 0x00026a21   Thumb Code    88  QtMessaging.in(t._ZN5QListIN10QtMobility16MessageQueryInfoEE13detach_helperEv)
    QList<QtMobility::MessageQueryInfo>::node_destruct(QList<QtMobility::MessageQueryInfo>::Node*) 0x00026a81   Thumb Code    18  QtMessaging.in(t._ZN5QListIN10QtMobility16MessageQueryInfoEE13node_destructEPNS2_4NodeE)
    QList<QtMobility::MessageQueryInfo>::node_destruct(QList<QtMobility::MessageQueryInfo>::Node*, QList<QtMobility::MessageQueryInfo>::Node*) 0x00026a93   Thumb Code    30  QtMessaging.in(t._ZN5QListIN10QtMobility16MessageQueryInfoEE13node_destructEPNS2_4NodeES4_)
    QList<QtMobility::MessageQueryInfo>::node_construct(QList<QtMobility::MessageQueryInfo>::Node*, const QtMobility::MessageQueryInfo&) 0x00026ab1   Thumb Code    32  QtMessaging.in(t._ZN5QListIN10QtMobility16MessageQueryInfoEE14node_constructEPNS2_4NodeERKS1_)
    QList<QtMobility::MessageQueryInfo>::detach_helper_grow(int, int) 0x00026adb   Thumb Code   180  QtMessaging.in(t._ZN5QListIN10QtMobility16MessageQueryInfoEE18detach_helper_growEii)
    QList<QtMobility::MessageQueryInfo>::free(QListData::Data*) 0x00026b97   Thumb Code    44  QtMessaging.in(t._ZN5QListIN10QtMobility16MessageQueryInfoEE4freeEPN9QListData4DataE)
    QList<QtMobility::MessageQueryInfo>::append(const QtMobility::MessageQueryInfo&) 0x00026bc5   Thumb Code    90  QtMessaging.in(t._ZN5QListIN10QtMobility16MessageQueryInfoEE6appendERKS1_)
    QList<QtMobility::MessageQueryInfo>::detach() 0x00026c2d   Thumb Code    24  QtMessaging.in(t._ZN5QListIN10QtMobility16MessageQueryInfoEE6detachEv)
    QList<QtMobility::MessageQueryInfo>::removeAt(int) 0x00026c45   Thumb Code    50  QtMessaging.in(t._ZN5QListIN10QtMobility16MessageQueryInfoEE8removeAtEi)
    QList<QtMobility::MessageQueryInfo>::node_copy(QList<QtMobility::MessageQueryInfo>::Node*, QList<QtMobility::MessageQueryInfo>::Node*, QList<QtMobility::MessageQueryInfo>::Node*) 0x00026c77   Thumb Code    80  QtMessaging.in(t._ZN5QListIN10QtMobility16MessageQueryInfoEE9node_copyEPNS2_4NodeES4_S4_)
    QList<QtMobility::MessageQueryInfo>::~QList() 0x00026cd9   Thumb Code    30  QtMessaging.in(t._ZN5QListIN10QtMobility16MessageQueryInfoEED1Ev)
    QList<QtMobility::MessageQueryInfo>::~QList__sub_object() 0x00026cd9   Thumb Code     0  QtMessaging.in(t._ZN5QListIN10QtMobility16MessageQueryInfoEED1Ev)
    QList<QtMobility::MessageQueryInfo>::operator [](int) 0x00026cf7   Thumb Code    22  QtMessaging.in(t._ZN5QListIN10QtMobility16MessageQueryInfoEEixEi)
    QList<QtMobility::QMessageFolderId>::detach_helper(int) 0x00026d0d   Thumb Code   152  QtMessaging.in(t._ZN5QListIN10QtMobility16QMessageFolderIdEE13detach_helperEi)
    QList<QtMobility::QMessageFolderId>::detach_helper() 0x00026db7   Thumb Code    12  QtMessaging.in(t._ZN5QListIN10QtMobility16QMessageFolderIdEE13detach_helperEv)
    QList<QtMobility::QMessageFolderId>::node_destruct(QList<QtMobility::QMessageFolderId>::Node*) 0x00026dc3   Thumb Code    18  QtMessaging.in(t._ZN5QListIN10QtMobility16QMessageFolderIdEE13node_destructEPNS2_4NodeE)
    QList<QtMobility::QMessageFolderId>::node_destruct(QList<QtMobility::QMessageFolderId>::Node*, QList<QtMobility::QMessageFolderId>::Node*) 0x00026dd5   Thumb Code    30  QtMessaging.in(t._ZN5QListIN10QtMobility16QMessageFolderIdEE13node_destructEPNS2_4NodeES4_)
    QList<QtMobility::QMessageFolderId>::node_construct(QList<QtMobility::QMessageFolderId>::Node*, const QtMobility::QMessageFolderId&) 0x00026df3   Thumb Code    32  QtMessaging.in(t._ZN5QListIN10QtMobility16QMessageFolderIdEE14node_constructEPNS2_4NodeERKS1_)
    QList<QtMobility::QMessageFolderId>::detach_helper_grow(int, int) 0x00026e1d   Thumb Code   180  QtMessaging.in(t._ZN5QListIN10QtMobility16QMessageFolderIdEE18detach_helper_growEii)
    QList<QtMobility::QMessageFolderId>::free(QListData::Data*) 0x00026ed9   Thumb Code    38  QtMessaging.in(t._ZN5QListIN10QtMobility16QMessageFolderIdEE4freeEPN9QListData4DataE)
    QList<QtMobility::QMessageFolderId>::begin() 0x00026eff   Thumb Code    22  QtMessaging.in(t._ZN5QListIN10QtMobility16QMessageFolderIdEE5beginEv)
    QList<QtMobility::QMessageFolderId>::clear() 0x00026f15   Thumb Code    66  QtMessaging.in(t._ZN5QListIN10QtMobility16QMessageFolderIdEE5clearEv)
    QList<QtMobility::QMessageFolderId>::append(const QtMobility::QMessageFolderId&) 0x00026f69   Thumb Code    90  QtMessaging.in(t._ZN5QListIN10QtMobility16QMessageFolderIdEE6appendERKS1_)
    QList<QtMobility::QMessageFolderId>::detach() 0x00026fd1   Thumb Code    24  QtMessaging.in(t._ZN5QListIN10QtMobility16QMessageFolderIdEE6detachEv)
    QList<QtMobility::QMessageFolderId>::removeAt(int) 0x00026fe9   Thumb Code    50  QtMessaging.in(t._ZN5QListIN10QtMobility16QMessageFolderIdEE8removeAtEi)
    QList<QtMobility::QMessageFolderId>::node_copy(QList<QtMobility::QMessageFolderId>::Node*, QList<QtMobility::QMessageFolderId>::Node*, QList<QtMobility::QMessageFolderId>::Node*) 0x0002701b   Thumb Code    80  QtMessaging.in(t._ZN5QListIN10QtMobility16QMessageFolderIdEE9node_copyEPNS2_4NodeES4_S4_)
    QList<QtMobility::QMessageFolderId>::removeOne(const QtMobility::QMessageFolderId&) 0x0002707d   Thumb Code   116  QtMessaging.in(t._ZN5QListIN10QtMobility16QMessageFolderIdEE9removeOneERKS1_)
    QList<QtMobility::QMessageFolderId>::QList() 0x000270f5   Thumb Code    16  QtMessaging.in(t._ZN5QListIN10QtMobility16QMessageFolderIdEEC1Ev)
    QList<QtMobility::QMessageFolderId>::QList__sub_object() 0x000270f5   Thumb Code     0  QtMessaging.in(t._ZN5QListIN10QtMobility16QMessageFolderIdEEC1Ev)
    QList<QtMobility::QMessageFolderId>::~QList() 0x00027109   Thumb Code    30  QtMessaging.in(t._ZN5QListIN10QtMobility16QMessageFolderIdEED1Ev)
    QList<QtMobility::QMessageFolderId>::~QList__sub_object() 0x00027109   Thumb Code     0  QtMessaging.in(t._ZN5QListIN10QtMobility16QMessageFolderIdEED1Ev)
    QList<QtMobility::QMessageFolderId>::operator =(const QList<QtMobility::QMessageFolderId>&) 0x00027127   Thumb Code    54  QtMessaging.in(t._ZN5QListIN10QtMobility16QMessageFolderIdEEaSERKS2_)
    QList<QtMobility::QMessageFolderId>::operator [](int) 0x0002715d   Thumb Code    22  QtMessaging.in(t._ZN5QListIN10QtMobility16QMessageFolderIdEEixEi)
    QList<QtMobility::QMessageFolderId>::operator +=(const QList<QtMobility::QMessageFolderId>&) 0x00027175   Thumb Code   132  QtMessaging.in(t._ZN5QListIN10QtMobility16QMessageFolderIdEEpLERKS2_)
    QList<QtMobility::QMessageAccountId>::detach_helper(int) 0x00027205   Thumb Code   152  QtMessaging.in(t._ZN5QListIN10QtMobility17QMessageAccountIdEE13detach_helperEi)
    QList<QtMobility::QMessageAccountId>::detach_helper() 0x000272af   Thumb Code    12  QtMessaging.in(t._ZN5QListIN10QtMobility17QMessageAccountIdEE13detach_helperEv)
    QList<QtMobility::QMessageAccountId>::node_destruct(QList<QtMobility::QMessageAccountId>::Node*) 0x000272bb   Thumb Code    18  QtMessaging.in(t._ZN5QListIN10QtMobility17QMessageAccountIdEE13node_destructEPNS2_4NodeE)
    QList<QtMobility::QMessageAccountId>::node_destruct(QList<QtMobility::QMessageAccountId>::Node*, QList<QtMobility::QMessageAccountId>::Node*) 0x000272cd   Thumb Code    30  QtMessaging.in(t._ZN5QListIN10QtMobility17QMessageAccountIdEE13node_destructEPNS2_4NodeES4_)
    QList<QtMobility::QMessageAccountId>::node_construct(QList<QtMobility::QMessageAccountId>::Node*, const QtMobility::QMessageAccountId&) 0x000272eb   Thumb Code    32  QtMessaging.in(t._ZN5QListIN10QtMobility17QMessageAccountIdEE14node_constructEPNS2_4NodeERKS1_)
    QList<QtMobility::QMessageAccountId>::detach_helper_grow(int, int) 0x00027315   Thumb Code   180  QtMessaging.in(t._ZN5QListIN10QtMobility17QMessageAccountIdEE18detach_helper_growEii)
    QList<QtMobility::QMessageAccountId>::free(QListData::Data*) 0x000273d1   Thumb Code    38  QtMessaging.in(t._ZN5QListIN10QtMobility17QMessageAccountIdEE4freeEPN9QListData4DataE)
    QList<QtMobility::QMessageAccountId>::begin() 0x000273f7   Thumb Code    22  QtMessaging.in(t._ZN5QListIN10QtMobility17QMessageAccountIdEE5beginEv)
    QList<QtMobility::QMessageAccountId>::clear() 0x0002740d   Thumb Code    66  QtMessaging.in(t._ZN5QListIN10QtMobility17QMessageAccountIdEE5clearEv)
    QList<QtMobility::QMessageAccountId>::append(const QtMobility::QMessageAccountId&) 0x00027461   Thumb Code    90  QtMessaging.in(t._ZN5QListIN10QtMobility17QMessageAccountIdEE6appendERKS1_)
    QList<QtMobility::QMessageAccountId>::detach() 0x000274c9   Thumb Code    24  QtMessaging.in(t._ZN5QListIN10QtMobility17QMessageAccountIdEE6detachEv)
    QList<QtMobility::QMessageAccountId>::removeAt(int) 0x000274e1   Thumb Code    50  QtMessaging.in(t._ZN5QListIN10QtMobility17QMessageAccountIdEE8removeAtEi)
    QList<QtMobility::QMessageAccountId>::node_copy(QList<QtMobility::QMessageAccountId>::Node*, QList<QtMobility::QMessageAccountId>::Node*, QList<QtMobility::QMessageAccountId>::Node*) 0x00027513   Thumb Code    80  QtMessaging.in(t._ZN5QListIN10QtMobility17QMessageAccountIdEE9node_copyEPNS2_4NodeES4_S4_)
    QList<QtMobility::QMessageAccountId>::QList() 0x00027575   Thumb Code    16  QtMessaging.in(t._ZN5QListIN10QtMobility17QMessageAccountIdEEC1Ev)
    QList<QtMobility::QMessageAccountId>::QList__sub_object() 0x00027575   Thumb Code     0  QtMessaging.in(t._ZN5QListIN10QtMobility17QMessageAccountIdEEC1Ev)
    QList<QtMobility::QMessageAccountId>::~QList() 0x00027589   Thumb Code    30  QtMessaging.in(t._ZN5QListIN10QtMobility17QMessageAccountIdEED1Ev)
    QList<QtMobility::QMessageAccountId>::~QList__sub_object() 0x00027589   Thumb Code     0  QtMessaging.in(t._ZN5QListIN10QtMobility17QMessageAccountIdEED1Ev)
    QList<QtMobility::QMessageAccountId>::operator =(const QList<QtMobility::QMessageAccountId>&) 0x000275a7   Thumb Code    56  QtMessaging.in(t._ZN5QListIN10QtMobility17QMessageAccountIdEEaSERKS2_)
    QList<QtMobility::QMessageAccountId>::operator [](int) 0x000275df   Thumb Code    22  QtMessaging.in(t._ZN5QListIN10QtMobility17QMessageAccountIdEEixEi)
    QList<QtMobility::QMessageAccountId>::operator +=(const QList<QtMobility::QMessageAccountId>&) 0x000275f5   Thumb Code   168  QtMessaging.in(t._ZN5QListIN10QtMobility17QMessageAccountIdEEpLERKS2_)
    QList<QtMobility::QMessageSortOrder>::detach_helper(int) 0x000276a9   Thumb Code   150  QtMessaging.in(t._ZN5QListIN10QtMobility17QMessageSortOrderEE13detach_helperEi)
    QList<QtMobility::QMessageSortOrder>::free(QListData::Data*) 0x00027751   Thumb Code    54  QtMessaging.in(t._ZN5QListIN10QtMobility17QMessageSortOrderEE4freeEPN9QListData4DataE)
    QList<QtMobility::QMessageSortOrder>::~QList() 0x00027787   Thumb Code    30  QtMessaging.in(t._ZN5QListIN10QtMobility17QMessageSortOrderEED1Ev)
    QList<QtMobility::QMessageSortOrder>::~QList__sub_object() 0x00027787   Thumb Code     0  QtMessaging.in(t._ZN5QListIN10QtMobility17QMessageSortOrderEED1Ev)
    QList<QtMobility::QMessageFolderFilter>::detach_helper() 0x000277a5   Thumb Code    88  QtMessaging.in(t._ZN5QListIN10QtMobility20QMessageFolderFilterEE13detach_helperEv)
    QList<QtMobility::QMessageFolderFilter>::node_destruct(QList<QtMobility::QMessageFolderFilter>::Node*) 0x00027805   Thumb Code    14  QtMessaging.in(t._ZN5QListIN10QtMobility20QMessageFolderFilterEE13node_destructEPNS2_4NodeE)
    QList<QtMobility::QMessageFolderFilter>::node_destruct(QList<QtMobility::QMessageFolderFilter>::Node*, QList<QtMobility::QMessageFolderFilter>::Node*) 0x00027813   Thumb Code    28  QtMessaging.in(t._ZN5QListIN10QtMobility20QMessageFolderFilterEE13node_destructEPNS2_4NodeES4_)
    QList<QtMobility::QMessageFolderFilter>::node_construct(QList<QtMobility::QMessageFolderFilter>::Node*, const QtMobility::QMessageFolderFilter&) 0x0002782f   Thumb Code    32  QtMessaging.in(t._ZN5QListIN10QtMobility20QMessageFolderFilterEE14node_constructEPNS2_4NodeERKS1_)
    QList<QtMobility::QMessageFolderFilter>::detach_helper_grow(int, int) 0x00027859   Thumb Code   180  QtMessaging.in(t._ZN5QListIN10QtMobility20QMessageFolderFilterEE18detach_helper_growEii)
    QList<QtMobility::QMessageFolderFilter>::end() 0x00027915   Thumb Code    22  QtMessaging.in(t._ZN5QListIN10QtMobility20QMessageFolderFilterEE3endEv)
    QList<QtMobility::QMessageFolderFilter>::free(QListData::Data*) 0x0002792b   Thumb Code    38  QtMessaging.in(t._ZN5QListIN10QtMobility20QMessageFolderFilterEE4freeEPN9QListData4DataE)
    QList<QtMobility::QMessageFolderFilter>::begin() 0x00027951   Thumb Code    22  QtMessaging.in(t._ZN5QListIN10QtMobility20QMessageFolderFilterEE5beginEv)
    QList<QtMobility::QMessageFolderFilter>::append(const QtMobility::QMessageFolderFilter&) 0x00027969   Thumb Code    90  QtMessaging.in(t._ZN5QListIN10QtMobility20QMessageFolderFilterEE6appendERKS1_)
    QList<QtMobility::QMessageFolderFilter>::detach() 0x000279d1   Thumb Code    24  QtMessaging.in(t._ZN5QListIN10QtMobility20QMessageFolderFilterEE6detachEv)
    QList<QtMobility::QMessageFolderFilter>::node_copy(QList<QtMobility::QMessageFolderFilter>::Node*, QList<QtMobility::QMessageFolderFilter>::Node*, QList<QtMobility::QMessageFolderFilter>::Node*) 0x000279e9   Thumb Code    78  QtMessaging.in(t._ZN5QListIN10QtMobility20QMessageFolderFilterEE9node_copyEPNS2_4NodeES4_S4_)
    QList<QtMobility::QMessageFolderFilter>::QList(const QList<QtMobility::QMessageFolderFilter>&) 0x00027a49   Thumb Code    30  QtMessaging.in(t._ZN5QListIN10QtMobility20QMessageFolderFilterEEC1ERKS2_)
    QList<QtMobility::QMessageFolderFilter>::QList__sub_object(const QList<QtMobility::QMessageFolderFilter>&) 0x00027a49   Thumb Code     0  QtMessaging.in(t._ZN5QListIN10QtMobility20QMessageFolderFilterEEC1ERKS2_)
    QList<QtMobility::QMessageFolderFilter>::QList() 0x00027a69   Thumb Code    16  QtMessaging.in(t._ZN5QListIN10QtMobility20QMessageFolderFilterEEC1Ev)
    QList<QtMobility::QMessageFolderFilter>::QList__sub_object() 0x00027a69   Thumb Code     0  QtMessaging.in(t._ZN5QListIN10QtMobility20QMessageFolderFilterEEC1Ev)
    QList<QtMobility::QMessageFolderFilter>::~QList() 0x00027a7d   Thumb Code    30  QtMessaging.in(t._ZN5QListIN10QtMobility20QMessageFolderFilterEED1Ev)
    QList<QtMobility::QMessageFolderFilter>::~QList__sub_object() 0x00027a7d   Thumb Code     0  QtMessaging.in(t._ZN5QListIN10QtMobility20QMessageFolderFilterEED1Ev)
    QList<QtMobility::QMessageFolderFilter>::operator [](int) 0x00027a9b   Thumb Code    22  QtMessaging.in(t._ZN5QListIN10QtMobility20QMessageFolderFilterEEixEi)
    QList<QtMobility::QMessageFolderFilter>::operator <<(const QtMobility::QMessageFolderFilter&) 0x00027ab1   Thumb Code    12  QtMessaging.in(t._ZN5QListIN10QtMobility20QMessageFolderFilterEElsERKS1_)
    QList<QtMobility::QMessageFolderFilter>::operator +=(const QList<QtMobility::QMessageFolderFilter>&) 0x00027abd   Thumb Code   168  QtMessaging.in(t._ZN5QListIN10QtMobility20QMessageFolderFilterEEpLERKS2_)
    QList<QtMobility::QMessageAccountFilter>::detach_helper() 0x00027b71   Thumb Code    88  QtMessaging.in(t._ZN5QListIN10QtMobility21QMessageAccountFilterEE13detach_helperEv)
    QList<QtMobility::QMessageAccountFilter>::node_destruct(QList<QtMobility::QMessageAccountFilter>::Node*, QList<QtMobility::QMessageAccountFilter>::Node*) 0x00027bd1   Thumb Code    28  QtMessaging.in(t._ZN5QListIN10QtMobility21QMessageAccountFilterEE13node_destructEPNS2_4NodeES4_)
    QList<QtMobility::QMessageAccountFilter>::node_construct(QList<QtMobility::QMessageAccountFilter>::Node*, const QtMobility::QMessageAccountFilter&) 0x00027bed   Thumb Code    32  QtMessaging.in(t._ZN5QListIN10QtMobility21QMessageAccountFilterEE14node_constructEPNS2_4NodeERKS1_)
    QList<QtMobility::QMessageAccountFilter>::detach_helper_grow(int, int) 0x00027c17   Thumb Code   180  QtMessaging.in(t._ZN5QListIN10QtMobility21QMessageAccountFilterEE18detach_helper_growEii)
    QList<QtMobility::QMessageAccountFilter>::end() 0x00027cd3   Thumb Code    22  QtMessaging.in(t._ZN5QListIN10QtMobility21QMessageAccountFilterEE3endEv)
    QList<QtMobility::QMessageAccountFilter>::free(QListData::Data*) 0x00027ce9   Thumb Code    38  QtMessaging.in(t._ZN5QListIN10QtMobility21QMessageAccountFilterEE4freeEPN9QListData4DataE)
    QList<QtMobility::QMessageAccountFilter>::begin() 0x00027d0f   Thumb Code    22  QtMessaging.in(t._ZN5QListIN10QtMobility21QMessageAccountFilterEE5beginEv)
    QList<QtMobility::QMessageAccountFilter>::append(const QtMobility::QMessageAccountFilter&) 0x00027d25   Thumb Code    90  QtMessaging.in(t._ZN5QListIN10QtMobility21QMessageAccountFilterEE6appendERKS1_)
    QList<QtMobility::QMessageAccountFilter>::detach() 0x00027d8d   Thumb Code    24  QtMessaging.in(t._ZN5QListIN10QtMobility21QMessageAccountFilterEE6detachEv)
    QList<QtMobility::QMessageAccountFilter>::node_copy(QList<QtMobility::QMessageAccountFilter>::Node*, QList<QtMobility::QMessageAccountFilter>::Node*, QList<QtMobility::QMessageAccountFilter>::Node*) 0x00027da5   Thumb Code    78  QtMessaging.in(t._ZN5QListIN10QtMobility21QMessageAccountFilterEE9node_copyEPNS2_4NodeES4_S4_)
    QList<QtMobility::QMessageAccountFilter>::QList(const QList<QtMobility::QMessageAccountFilter>&) 0x00027e05   Thumb Code    30  QtMessaging.in(t._ZN5QListIN10QtMobility21QMessageAccountFilterEEC1ERKS2_)
    QList<QtMobility::QMessageAccountFilter>::QList__sub_object(const QList<QtMobility::QMessageAccountFilter>&) 0x00027e05   Thumb Code     0  QtMessaging.in(t._ZN5QListIN10QtMobility21QMessageAccountFilterEEC1ERKS2_)
    QList<QtMobility::QMessageAccountFilter>::QList() 0x00027e25   Thumb Code    16  QtMessaging.in(t._ZN5QListIN10QtMobility21QMessageAccountFilterEEC1Ev)
    QList<QtMobility::QMessageAccountFilter>::QList__sub_object() 0x00027e25   Thumb Code     0  QtMessaging.in(t._ZN5QListIN10QtMobility21QMessageAccountFilterEEC1Ev)
    QList<QtMobility::QMessageAccountFilter>::~QList() 0x00027e39   Thumb Code    30  QtMessaging.in(t._ZN5QListIN10QtMobility21QMessageAccountFilterEED1Ev)
    QList<QtMobility::QMessageAccountFilter>::~QList__sub_object() 0x00027e39   Thumb Code     0  QtMessaging.in(t._ZN5QListIN10QtMobility21QMessageAccountFilterEED1Ev)
    QList<QtMobility::QMessageAccountFilter>::operator [](int) 0x00027e57   Thumb Code    22  QtMessaging.in(t._ZN5QListIN10QtMobility21QMessageAccountFilterEEixEi)
    QList<QtMobility::QMessageAccountFilter>::operator <<(const QtMobility::QMessageAccountFilter&) 0x00027e6d   Thumb Code    12  QtMessaging.in(t._ZN5QListIN10QtMobility21QMessageAccountFilterEElsERKS1_)
    QList<QtMobility::QMessageAccountFilter>::operator +=(const QList<QtMobility::QMessageAccountFilter>&) 0x00027e79   Thumb Code   168  QtMessaging.in(t._ZN5QListIN10QtMobility21QMessageAccountFilterEEpLERKS2_)
    QList<QtMobility::QMessageFolderSortOrder>::detach_helper(int) 0x00027f2d   Thumb Code   150  QtMessaging.in(t._ZN5QListIN10QtMobility23QMessageFolderSortOrderEE13detach_helperEi)
    QList<QtMobility::QMessageFolderSortOrder>::free(QListData::Data*) 0x00027fd5   Thumb Code    54  QtMessaging.in(t._ZN5QListIN10QtMobility23QMessageFolderSortOrderEE4freeEPN9QListData4DataE)
    QList<QtMobility::QMessageFolderSortOrder>::~QList() 0x0002800b   Thumb Code    30  QtMessaging.in(t._ZN5QListIN10QtMobility23QMessageFolderSortOrderEED1Ev)
    QList<QtMobility::QMessageFolderSortOrder>::~QList__sub_object() 0x0002800b   Thumb Code     0  QtMessaging.in(t._ZN5QListIN10QtMobility23QMessageFolderSortOrderEED1Ev)
    QList<QtMobility::QMessageContentContainer>::detach_helper(int) 0x00028029   Thumb Code   150  QtMessaging.in(t._ZN5QListIN10QtMobility24QMessageContentContainerEE13detach_helperEi)
    QList<QtMobility::QMessageContentContainer>::detach_helper() 0x000280d1   Thumb Code    12  QtMessaging.in(t._ZN5QListIN10QtMobility24QMessageContentContainerEE13detach_helperEv)
    QList<QtMobility::QMessageContentContainer>::node_destruct(QList<QtMobility::QMessageContentContainer>::Node*, QList<QtMobility::QMessageContentContainer>::Node*) 0x000280dd   Thumb Code    28  QtMessaging.in(t._ZN5QListIN10QtMobility24QMessageContentContainerEE13node_destructEPNS2_4NodeES4_)
    QList<QtMobility::QMessageContentContainer>::node_construct(QList<QtMobility::QMessageContentContainer>::Node*, const QtMobility::QMessageContentContainer&) 0x000280f9   Thumb Code    32  QtMessaging.in(t._ZN5QListIN10QtMobility24QMessageContentContainerEE14node_constructEPNS2_4NodeERKS1_)
    QList<QtMobility::QMessageContentContainer>::detach_helper_grow(int, int) 0x00028123   Thumb Code   180  QtMessaging.in(t._ZN5QListIN10QtMobility24QMessageContentContainerEE18detach_helper_growEii)
    QList<QtMobility::QMessageContentContainer>::free(QListData::Data*) 0x000281df   Thumb Code    44  QtMessaging.in(t._ZN5QListIN10QtMobility24QMessageContentContainerEE4freeEPN9QListData4DataE)
    QList<QtMobility::QMessageContentContainer>::clear() 0x0002820d   Thumb Code    66  QtMessaging.in(t._ZN5QListIN10QtMobility24QMessageContentContainerEE5clearEv)
    QList<QtMobility::QMessageContentContainer>::append(const QtMobility::QMessageContentContainer&) 0x00028261   Thumb Code    90  QtMessaging.in(t._ZN5QListIN10QtMobility24QMessageContentContainerEE6appendERKS1_)
    QList<QtMobility::QMessageContentContainer>::node_copy(QList<QtMobility::QMessageContentContainer>::Node*, QList<QtMobility::QMessageContentContainer>::Node*, QList<QtMobility::QMessageContentContainer>::Node*) 0x000282c9   Thumb Code    78  QtMessaging.in(t._ZN5QListIN10QtMobility24QMessageContentContainerEE9node_copyEPNS2_4NodeES4_S4_)
    QList<QtMobility::QMessageContentContainer>::QList() 0x00028329   Thumb Code    16  QtMessaging.in(t._ZN5QListIN10QtMobility24QMessageContentContainerEEC1Ev)
    QList<QtMobility::QMessageContentContainer>::QList__sub_object() 0x00028329   Thumb Code     0  QtMessaging.in(t._ZN5QListIN10QtMobility24QMessageContentContainerEEC1Ev)
    QList<QtMobility::QMessageContentContainer>::~QList() 0x0002833d   Thumb Code    30  QtMessaging.in(t._ZN5QListIN10QtMobility24QMessageContentContainerEED1Ev)
    QList<QtMobility::QMessageContentContainer>::~QList__sub_object() 0x0002833d   Thumb Code     0  QtMessaging.in(t._ZN5QListIN10QtMobility24QMessageContentContainerEED1Ev)
    QList<QtMobility::QMessageContentContainer>::operator =(const QList<QtMobility::QMessageContentContainer>&) 0x0002835b   Thumb Code    54  QtMessaging.in(t._ZN5QListIN10QtMobility24QMessageContentContainerEEaSERKS2_)
    QList<QtMobility::QMessageContentContainer>::operator [](int) 0x00028391   Thumb Code    42  QtMessaging.in(t._ZN5QListIN10QtMobility24QMessageContentContainerEEixEi)
    QList<QtMobility::QMessageContentContainerId>::detach_helper(int) 0x000283bb   Thumb Code   152  QtMessaging.in(t._ZN5QListIN10QtMobility26QMessageContentContainerIdEE13detach_helperEi)
    QList<QtMobility::QMessageContentContainerId>::detach_helper() 0x00028465   Thumb Code    88  QtMessaging.in(t._ZN5QListIN10QtMobility26QMessageContentContainerIdEE13detach_helperEv)
    QList<QtMobility::QMessageContentContainerId>::node_destruct(QList<QtMobility::QMessageContentContainerId>::Node*, QList<QtMobility::QMessageContentContainerId>::Node*) 0x000284c5   Thumb Code    30  QtMessaging.in(t._ZN5QListIN10QtMobility26QMessageContentContainerIdEE13node_destructEPNS2_4NodeES4_)
    QList<QtMobility::QMessageContentContainerId>::node_construct(QList<QtMobility::QMessageContentContainerId>::Node*, const QtMobility::QMessageContentContainerId&) 0x000284e3   Thumb Code    32  QtMessaging.in(t._ZN5QListIN10QtMobility26QMessageContentContainerIdEE14node_constructEPNS2_4NodeERKS1_)
    QList<QtMobility::QMessageContentContainerId>::detach_helper_grow(int, int) 0x0002850d   Thumb Code   180  QtMessaging.in(t._ZN5QListIN10QtMobility26QMessageContentContainerIdEE18detach_helper_growEii)
    QList<QtMobility::QMessageContentContainerId>::free(QListData::Data*) 0x000285c9   Thumb Code    44  QtMessaging.in(t._ZN5QListIN10QtMobility26QMessageContentContainerIdEE4freeEPN9QListData4DataE)
    QList<QtMobility::QMessageContentContainerId>::append(const QtMobility::QMessageContentContainerId&) 0x000285f5   Thumb Code    90  QtMessaging.in(t._ZN5QListIN10QtMobility26QMessageContentContainerIdEE6appendERKS1_)
    QList<QtMobility::QMessageContentContainerId>::node_copy(QList<QtMobility::QMessageContentContainerId>::Node*, QList<QtMobility::QMessageContentContainerId>::Node*, QList<QtMobility::QMessageContentContainerId>::Node*) 0x0002865d   Thumb Code    80  QtMessaging.in(t._ZN5QListIN10QtMobility26QMessageContentContainerIdEE9node_copyEPNS2_4NodeES4_S4_)
    QList<QtMobility::QMessageContentContainerId>::~QList() 0x000286bf   Thumb Code    30  QtMessaging.in(t._ZN5QListIN10QtMobility26QMessageContentContainerIdEED1Ev)
    QList<QtMobility::QMessageContentContainerId>::~QList__sub_object() 0x000286bf   Thumb Code     0  QtMessaging.in(t._ZN5QListIN10QtMobility26QMessageContentContainerIdEED1Ev)
    QList<QtMobility::QMessage>::detach_helper() 0x000286dd   Thumb Code    88  QtMessaging.in(t._ZN5QListIN10QtMobility8QMessageEE13detach_helperEv)
    QList<QtMobility::QMessage>::node_destruct(QList<QtMobility::QMessage>::Node*, QList<QtMobility::QMessage>::Node*) 0x0002873d   Thumb Code    28  QtMessaging.in(t._ZN5QListIN10QtMobility8QMessageEE13node_destructEPNS2_4NodeES4_)
    QList<QtMobility::QMessage>::node_construct(QList<QtMobility::QMessage>::Node*, const QtMobility::QMessage&) 0x00028759   Thumb Code    32  QtMessaging.in(t._ZN5QListIN10QtMobility8QMessageEE14node_constructEPNS2_4NodeERKS1_)
    QList<QtMobility::QMessage>::detach_helper_grow(int, int) 0x00028783   Thumb Code   180  QtMessaging.in(t._ZN5QListIN10QtMobility8QMessageEE18detach_helper_growEii)
    QList<QtMobility::QMessage>::free(QListData::Data*) 0x0002883f   Thumb Code    44  QtMessaging.in(t._ZN5QListIN10QtMobility8QMessageEE4freeEPN9QListData4DataE)
    QList<QtMobility::QMessage>::append(const QtMobility::QMessage&) 0x0002886d   Thumb Code    90  QtMessaging.in(t._ZN5QListIN10QtMobility8QMessageEE6appendERKS1_)
    QList<QtMobility::QMessage>::detach()    0x000288d5   Thumb Code    24  QtMessaging.in(t._ZN5QListIN10QtMobility8QMessageEE6detachEv)
    QList<QtMobility::QMessage>::node_copy(QList<QtMobility::QMessage>::Node*, QList<QtMobility::QMessage>::Node*, QList<QtMobility::QMessage>::Node*) 0x000288ed   Thumb Code    78  QtMessaging.in(t._ZN5QListIN10QtMobility8QMessageEE9node_copyEPNS2_4NodeES4_S4_)
    QList<QtMobility::QMessage>::~QList()    0x0002894d   Thumb Code    30  QtMessaging.in(t._ZN5QListIN10QtMobility8QMessageEED1Ev)
    QList<QtMobility::QMessage>::~QList__sub_object() 0x0002894d   Thumb Code     0  QtMessaging.in(t._ZN5QListIN10QtMobility8QMessageEED1Ev)
    QList<QTextCodec*>::detach_helper()      0x0002896b   Thumb Code    88  QtMessaging.in(t._ZN5QListIP10QTextCodecE13detach_helperEv)
    QList<QTextCodec*>::detach_helper_grow(int, int) 0x000289cb   Thumb Code   164  QtMessaging.in(t._ZN5QListIP10QTextCodecE18detach_helper_growEii)
    QList<QTextCodec*>::free(QListData::Data*) 0x00028a77   Thumb Code    16  QtMessaging.in(t._ZN5QListIP10QTextCodecE4freeEPN9QListData4DataE)
    QList<QTextCodec*>::begin()              0x00028a87   Thumb Code    34  QtMessaging.in(t._ZN5QListIP10QTextCodecE5beginEv)
    QList<QTextCodec*>::node_copy(QList<QTextCodec*>::Node*, QList<QTextCodec*>::Node*, QList<QTextCodec*>::Node*) 0x00028aa9   Thumb Code    28  QtMessaging.in(t._ZN5QListIP10QTextCodecE9node_copyEPNS2_4NodeES4_S4_)
    QList<QTextCodec*>::~QList()             0x00028ac5   Thumb Code    30  QtMessaging.in(t._ZN5QListIP10QTextCodecED1Ev)
    QList<QTextCodec*>::~QList__sub_object() 0x00028ac5   Thumb Code     0  QtMessaging.in(t._ZN5QListIP10QTextCodecED1Ev)
    QList<QList<QtMobility::QMessageFilter>>::detach_helper() 0x00028ae3   Thumb Code    88  QtMessaging.in(t._ZN5QListIS_IN10QtMobility14QMessageFilterEEE13detach_helperEv)
    QList<QList<QtMobility::QMessageFilter>>::node_destruct(QList<QList<QtMobility::QMessageFilter>>::Node*, QList<QList<QtMobility::QMessageFilter>>::Node*) 0x00028b43   Thumb Code    30  QtMessaging.in(t._ZN5QListIS_IN10QtMobility14QMessageFilterEEE13node_destructEPNS3_4NodeES5_)
    QList<QList<QtMobility::QMessageFilter>>::node_construct(QList<QList<QtMobility::QMessageFilter>>::Node*, const QList<QtMobility::QMessageFilter>&) 0x00028b61   Thumb Code    32  QtMessaging.in(t._ZN5QListIS_IN10QtMobility14QMessageFilterEEE14node_constructEPNS3_4NodeERKS2_)
    QList<QList<QtMobility::QMessageFilter>>::detach_helper_grow(int, int) 0x00028b8b   Thumb Code   180  QtMessaging.in(t._ZN5QListIS_IN10QtMobility14QMessageFilterEEE18detach_helper_growEii)
    QList<QList<QtMobility::QMessageFilter>>::free(QListData::Data*) 0x00028c47   Thumb Code    44  QtMessaging.in(t._ZN5QListIS_IN10QtMobility14QMessageFilterEEE4freeEPN9QListData4DataE)
    QList<QList<QtMobility::QMessageFilter>>::append(const QList<QtMobility::QMessageFilter>&) 0x00028c75   Thumb Code    90  QtMessaging.in(t._ZN5QListIS_IN10QtMobility14QMessageFilterEEE6appendERKS2_)
    QList<QList<QtMobility::QMessageFilter>>::node_copy(QList<QList<QtMobility::QMessageFilter>>::Node*, QList<QList<QtMobility::QMessageFilter>>::Node*, QList<QList<QtMobility::QMessageFilter>>::Node*) 0x00028cdd   Thumb Code    80  QtMessaging.in(t._ZN5QListIS_IN10QtMobility14QMessageFilterEEE9node_copyEPNS3_4NodeES5_S5_)
    QList<QList<QtMobility::QMessageFilter>>::QList() 0x00028d41   Thumb Code    16  QtMessaging.in(t._ZN5QListIS_IN10QtMobility14QMessageFilterEEEC1Ev)
    QList<QList<QtMobility::QMessageFilter>>::QList__sub_object() 0x00028d41   Thumb Code     0  QtMessaging.in(t._ZN5QListIS_IN10QtMobility14QMessageFilterEEEC1Ev)
    QList<QList<QtMobility::QMessageFilter>>::~QList() 0x00028d55   Thumb Code    30  QtMessaging.in(t._ZN5QListIS_IN10QtMobility14QMessageFilterEEED1Ev)
    QList<QList<QtMobility::QMessageFilter>>::~QList__sub_object() 0x00028d55   Thumb Code     0  QtMessaging.in(t._ZN5QListIS_IN10QtMobility14QMessageFilterEEED1Ev)
    QList<QList<QtMobility::QMessageFilter>>::operator =(const QList<QList<QtMobility::QMessageFilter>>&) 0x00028d73   Thumb Code    54  QtMessaging.in(t._ZN5QListIS_IN10QtMobility14QMessageFilterEEEaSERKS3_)
    QList<QList<QtMobility::QMessageFilter>>::operator [](int) 0x00028da9   Thumb Code    36  QtMessaging.in(t._ZN5QListIS_IN10QtMobility14QMessageFilterEEEixEi)
    QList<QList<QtMobility::QMessageFilter>>::operator +=(const QList<QList<QtMobility::QMessageFilter>>&) 0x00028dcd   Thumb Code   132  QtMessaging.in(t._ZN5QListIS_IN10QtMobility14QMessageFilterEEEpLERKS3_)
    QList<QList<QtMobility::QMessageFolderFilter>>::detach_helper() 0x00028e5d   Thumb Code    88  QtMessaging.in(t._ZN5QListIS_IN10QtMobility20QMessageFolderFilterEEE13detach_helperEv)
    QList<QList<QtMobility::QMessageFolderFilter>>::node_destruct(QList<QList<QtMobility::QMessageFolderFilter>>::Node*, QList<QList<QtMobility::QMessageFolderFilter>>::Node*) 0x00028ebd   Thumb Code    30  QtMessaging.in(t._ZN5QListIS_IN10QtMobility20QMessageFolderFilterEEE13node_destructEPNS3_4NodeES5_)
    QList<QList<QtMobility::QMessageFolderFilter>>::node_construct(QList<QList<QtMobility::QMessageFolderFilter>>::Node*, const QList<QtMobility::QMessageFolderFilter>&) 0x00028edb   Thumb Code    32  QtMessaging.in(t._ZN5QListIS_IN10QtMobility20QMessageFolderFilterEEE14node_constructEPNS3_4NodeERKS2_)
    QList<QList<QtMobility::QMessageFolderFilter>>::detach_helper_grow(int, int) 0x00028f05   Thumb Code   180  QtMessaging.in(t._ZN5QListIS_IN10QtMobility20QMessageFolderFilterEEE18detach_helper_growEii)
    QList<QList<QtMobility::QMessageFolderFilter>>::free(QListData::Data*) 0x00028fc1   Thumb Code    38  QtMessaging.in(t._ZN5QListIS_IN10QtMobility20QMessageFolderFilterEEE4freeEPN9QListData4DataE)
    QList<QList<QtMobility::QMessageFolderFilter>>::append(const QList<QtMobility::QMessageFolderFilter>&) 0x00028fe9   Thumb Code    90  QtMessaging.in(t._ZN5QListIS_IN10QtMobility20QMessageFolderFilterEEE6appendERKS2_)
    QList<QList<QtMobility::QMessageFolderFilter>>::node_copy(QList<QList<QtMobility::QMessageFolderFilter>>::Node*, QList<QList<QtMobility::QMessageFolderFilter>>::Node*, QList<QList<QtMobility::QMessageFolderFilter>>::Node*) 0x00029051   Thumb Code    80  QtMessaging.in(t._ZN5QListIS_IN10QtMobility20QMessageFolderFilterEEE9node_copyEPNS3_4NodeES5_S5_)
    QList<QList<QtMobility::QMessageFolderFilter>>::QList() 0x000290b5   Thumb Code    16  QtMessaging.in(t._ZN5QListIS_IN10QtMobility20QMessageFolderFilterEEEC1Ev)
    QList<QList<QtMobility::QMessageFolderFilter>>::QList__sub_object() 0x000290b5   Thumb Code     0  QtMessaging.in(t._ZN5QListIS_IN10QtMobility20QMessageFolderFilterEEEC1Ev)
    QList<QList<QtMobility::QMessageFolderFilter>>::~QList() 0x000290c9   Thumb Code    30  QtMessaging.in(t._ZN5QListIS_IN10QtMobility20QMessageFolderFilterEEED1Ev)
    QList<QList<QtMobility::QMessageFolderFilter>>::~QList__sub_object() 0x000290c9   Thumb Code     0  QtMessaging.in(t._ZN5QListIS_IN10QtMobility20QMessageFolderFilterEEED1Ev)
    QList<QList<QtMobility::QMessageFolderFilter>>::operator =(const QList<QList<QtMobility::QMessageFolderFilter>>&) 0x000290e7   Thumb Code    54  QtMessaging.in(t._ZN5QListIS_IN10QtMobility20QMessageFolderFilterEEEaSERKS3_)
    QList<QList<QtMobility::QMessageFolderFilter>>::operator [](int) 0x0002911d   Thumb Code    36  QtMessaging.in(t._ZN5QListIS_IN10QtMobility20QMessageFolderFilterEEEixEi)
    QList<QList<QtMobility::QMessageFolderFilter>>::operator +=(const QList<QList<QtMobility::QMessageFolderFilter>>&) 0x00029141   Thumb Code   132  QtMessaging.in(t._ZN5QListIS_IN10QtMobility20QMessageFolderFilterEEEpLERKS3_)
    QList<QList<QtMobility::QMessageAccountFilter>>::detach_helper() 0x000291d1   Thumb Code    88  QtMessaging.in(t._ZN5QListIS_IN10QtMobility21QMessageAccountFilterEEE13detach_helperEv)
    QList<QList<QtMobility::QMessageAccountFilter>>::node_destruct(QList<QList<QtMobility::QMessageAccountFilter>>::Node*, QList<QList<QtMobility::QMessageAccountFilter>>::Node*) 0x00029231   Thumb Code    30  QtMessaging.in(t._ZN5QListIS_IN10QtMobility21QMessageAccountFilterEEE13node_destructEPNS3_4NodeES5_)
    QList<QList<QtMobility::QMessageAccountFilter>>::node_construct(QList<QList<QtMobility::QMessageAccountFilter>>::Node*, const QList<QtMobility::QMessageAccountFilter>&) 0x0002924f   Thumb Code    32  QtMessaging.in(t._ZN5QListIS_IN10QtMobility21QMessageAccountFilterEEE14node_constructEPNS3_4NodeERKS2_)
    QList<QList<QtMobility::QMessageAccountFilter>>::detach_helper_grow(int, int) 0x00029279   Thumb Code   180  QtMessaging.in(t._ZN5QListIS_IN10QtMobility21QMessageAccountFilterEEE18detach_helper_growEii)
    QList<QList<QtMobility::QMessageAccountFilter>>::free(QListData::Data*) 0x00029335   Thumb Code    38  QtMessaging.in(t._ZN5QListIS_IN10QtMobility21QMessageAccountFilterEEE4freeEPN9QListData4DataE)
    QList<QList<QtMobility::QMessageAccountFilter>>::append(const QList<QtMobility::QMessageAccountFilter>&) 0x0002935d   Thumb Code    90  QtMessaging.in(t._ZN5QListIS_IN10QtMobility21QMessageAccountFilterEEE6appendERKS2_)
    QList<QList<QtMobility::QMessageAccountFilter>>::node_copy(QList<QList<QtMobility::QMessageAccountFilter>>::Node*, QList<QList<QtMobility::QMessageAccountFilter>>::Node*, QList<QList<QtMobility::QMessageAccountFilter>>::Node*) 0x000293c5   Thumb Code    80  QtMessaging.in(t._ZN5QListIS_IN10QtMobility21QMessageAccountFilterEEE9node_copyEPNS3_4NodeES5_S5_)
    QList<QList<QtMobility::QMessageAccountFilter>>::QList() 0x00029429   Thumb Code    16  QtMessaging.in(t._ZN5QListIS_IN10QtMobility21QMessageAccountFilterEEEC1Ev)
    QList<QList<QtMobility::QMessageAccountFilter>>::QList__sub_object() 0x00029429   Thumb Code     0  QtMessaging.in(t._ZN5QListIS_IN10QtMobility21QMessageAccountFilterEEEC1Ev)
    QList<QList<QtMobility::QMessageAccountFilter>>::~QList() 0x0002943d   Thumb Code    30  QtMessaging.in(t._ZN5QListIS_IN10QtMobility21QMessageAccountFilterEEED1Ev)
    QList<QList<QtMobility::QMessageAccountFilter>>::~QList__sub_object() 0x0002943d   Thumb Code     0  QtMessaging.in(t._ZN5QListIS_IN10QtMobility21QMessageAccountFilterEEED1Ev)
    QList<QList<QtMobility::QMessageAccountFilter>>::operator =(const QList<QList<QtMobility::QMessageAccountFilter>>&) 0x0002945b   Thumb Code    54  QtMessaging.in(t._ZN5QListIS_IN10QtMobility21QMessageAccountFilterEEEaSERKS3_)
    QList<QList<QtMobility::QMessageAccountFilter>>::operator [](int) 0x00029491   Thumb Code    36  QtMessaging.in(t._ZN5QListIS_IN10QtMobility21QMessageAccountFilterEEEixEi)
    QList<QList<QtMobility::QMessageAccountFilter>>::operator +=(const QList<QList<QtMobility::QMessageAccountFilter>>&) 0x000294b5   Thumb Code   132  QtMessaging.in(t._ZN5QListIS_IN10QtMobility21QMessageAccountFilterEEEpLERKS3_)
    TPckg<TImImap4GetPartialMailInfo>::TPckg(const TImImap4GetPartialMailInfo&) 0x00029545   Thumb Code    12  QtMessaging.in(t._ZN5TPckgI26TImImap4GetPartialMailInfoEC1ERKS0_)
    TPckg<TImImap4GetPartialMailInfo>::TPckg__sub_object(const TImImap4GetPartialMailInfo&) 0x00029545   Thumb Code     0  QtMessaging.in(t._ZN5TPckgI26TImImap4GetPartialMailInfoEC1ERKS0_)
    QCache<QString, QtMobility::QMessage>::trim(int) 0x00029551   Thumb Code    32  QtMessaging.in(t._ZN6QCacheI7QStringN10QtMobility8QMessageEE4trimEi)
    QCache<QString, QtMobility::QMessage>::clear() 0x00029571   Thumb Code   104  QtMessaging.in(t._ZN6QCacheI7QStringN10QtMobility8QMessageEE5clearEv)
    QCache<QString, QtMobility::QMessage>::insert(const QString&, QtMobility::QMessage*, int) 0x000295e3   Thumb Code   116  QtMessaging.in(t._ZN6QCacheI7QStringN10QtMobility8QMessageEE6insertERKS0_PS2_i)
    QCache<QString, QtMobility::QMessage>::remove(const QString&) 0x00029657   Thumb Code    50  QtMessaging.in(t._ZN6QCacheI7QStringN10QtMobility8QMessageEE6removeERKS0_)
    QCache<QString, QtMobility::QMessage>::unlink(QCache<QString, QtMobility::QMessage>::Node&) 0x00029689   Thumb Code    72  QtMessaging.in(t._ZN6QCacheI7QStringN10QtMobility8QMessageEE6unlinkERNS3_4NodeE)
    QCache<QString, QtMobility::QMessage>::~QCache() 0x000296d1   Thumb Code    20  QtMessaging.in(t._ZN6QCacheI7QStringN10QtMobility8QMessageEED1Ev)
    QCache<QString, QtMobility::QMessage>::~QCache__sub_object() 0x000296d1   Thumb Code     0  QtMessaging.in(t._ZN6QCacheI7QStringN10QtMobility8QMessageEED1Ev)
    RArray<TPopAccount>::operator [](int)    0x000296ef   Thumb Code     8  QtMessaging.in(t._ZN6RArrayI11TPopAccountEixEi)
    RArray<TImapAccount>::operator [](int)   0x000296f7   Thumb Code     8  QtMessaging.in(t._ZN6RArrayI12TImapAccountEixEi)
    RArray<TSmtpAccount>::operator [](int)   0x000296ff   Thumb Code     8  QtMessaging.in(t._ZN6RArrayI12TSmtpAccountEixEi)
    TPckgBuf<int>::TPckgBuf()                0x00029707   Thumb Code    26  QtMessaging.in(t._ZN8TPckgBufIiEC1Ev)
    TPckgBuf<int>::TPckgBuf__sub_object()    0x00029707   Thumb Code     0  QtMessaging.in(t._ZN8TPckgBufIiEC1Ev)
    CArrayFix<long>::At(int)                 0x00029721   Thumb Code     8  QtMessaging.in(t._ZN9CArrayFixIlE2AtEi)
    CArrayFix<long>::AppendL(const long&)    0x00029729   Thumb Code    12  QtMessaging.in(t._ZN9CArrayFixIlE7AppendLERKl)
    CArrayFix<long>::operator [](int)        0x00029735   Thumb Code     8  QtMessaging.in(t._ZN9CArrayFixIlEixEi)
    QHashNode<QString, QtMobility::QMessageAccount>::QHashNode(const QString&, const QtMobility::QMessageAccount&) 0x0002973d   Thumb Code    28  QtMessaging.in(t._ZN9QHashNodeI7QStringN10QtMobility15QMessageAccountEEC1ERKS0_RKS2_)
    QHashNode<QString, QtMobility::QMessageAccount>::QHashNode__sub_object(const QString&, const QtMobility::QMessageAccount&) 0x0002973d   Thumb Code     0  QtMessaging.in(t._ZN9QHashNodeI7QStringN10QtMobility15QMessageAccountEEC1ERKS0_RKS2_)
    QHashNode<QString, QCache<QString, QtMobility::QMessage>::Node>::QHashNode(const QString&, const QCache<QString, QtMobility::QMessage>::Node&) 0x00029765   Thumb Code    34  QtMessaging.in(t._ZN9QHashNodeI7QStringN6QCacheIS0_N10QtMobility8QMessageEE4NodeEEC1ERKS0_RKS5_)
    QHashNode<QString, QCache<QString, QtMobility::QMessage>::Node>::QHashNode__sub_object(const QString&, const QCache<QString, QtMobility::QMessage>::Node&) 0x00029765   Thumb Code     0  QtMessaging.in(t._ZN9QHashNodeI7QStringN6QCacheIS0_N10QtMobility8QMessageEE4NodeEEC1ERKS0_RKS5_)
    QMultiMap<QByteArray, QString>::find(const QByteArray&) 0x00029787   Thumb Code    84  QtMessaging.in(t._ZN9QMultiMapI10QByteArray7QStringE4findERKS0_)
    RPointerArray<CMsvEntry>::Count() const  0x000297db   Thumb Code     8  QtMessaging.in(t._ZNK13RPointerArrayI9CMsvEntryE5CountEv)
    QForeachContainer<QHash<QString, QtMobility::QMessageAccount>>::condition() const 0x000297e3   Thumb Code    26  QtMessaging.in(t._ZNK17QForeachContainerI5QHashI7QStringN10QtMobility15QMessageAccountEEE9conditionEv)
    QForeachContainer<QList<QtMobility::QMessageAddress>>::condition() const 0x000297fd   Thumb Code    26  QtMessaging.in(t._ZNK17QForeachContainerI5QListIN10QtMobility15QMessageAddressEEE9conditionEv)
    QForeachContainer<QList<QtMobility::QMessageSortOrder>>::condition() const 0x00029817   Thumb Code    26  QtMessaging.in(t._ZNK17QForeachContainerI5QListIN10QtMobility17QMessageSortOrderEEE9conditionEv)
    QForeachContainer<QList<QtMobility::QMessageContentContainer>>::condition() const 0x00029831   Thumb Code    26  QtMessaging.in(t._ZNK17QForeachContainerI5QListIN10QtMobility24QMessageContentContainerEEE9conditionEv)
    QForeachContainer<QList<QtMobility::QMessageContentContainerId>>::condition() const 0x0002984b   Thumb Code    26  QtMessaging.in(t._ZNK17QForeachContainerI5QListIN10QtMobility26QMessageContentContainerIdEEE9conditionEv)
    QMap<QByteArray, QString>::const_iterator::operator !=(const QMap<QByteArray, QString>::const_iterator&) const 0x00029865   Thumb Code    16  QtMessaging.in(t._ZNK4QMapI10QByteArray7QStringE14const_iteratorneERKS3_)
    QMap<QByteArray, QString>::keys() const  0x00029875   Thumb Code    54  QtMessaging.in(t._ZNK4QMapI10QByteArray7QStringE4keysEv)
    QMap<long, MMsvSessionObserver::TMsvSessionEvent>::contains(const long&) const 0x000298bb   Thumb Code    90  QtMessaging.in(t._ZNK4QMapIlN19MMsvSessionObserver16TMsvSessionEventEE8containsERKl)
    QHash<QString, QtMobility::QMessageAccount>::keys() const 0x00029915   Thumb Code    88  QtMessaging.in(t._ZNK5QHashI7QStringN10QtMobility15QMessageAccountEE4keysEv)
    QHash<QString, QtMobility::QMessageAccount>::begin() const 0x00029977   Thumb Code    28  QtMessaging.in(t._ZNK5QHashI7QStringN10QtMobility15QMessageAccountEE5beginEv)
    QHash<QString, QtMobility::QMessageAccount>::contains(const QString&) const 0x00029993   Thumb Code    26  QtMessaging.in(t._ZNK5QHashI7QStringN10QtMobility15QMessageAccountEE8containsERKS0_)
    QHash<QString, QtMobility::QMessageAccount>::findNode(const QString&, unsigned*) const 0x000299ad   Thumb Code    90  QtMessaging.in(t._ZNK5QHashI7QStringN10QtMobility15QMessageAccountEE8findNodeERKS0_Pj)
    QHash<QString, QCache<QString, QtMobility::QMessage>::Node>::const_iterator::operator ==(const QHash<QString, QCache<QString, QtMobility::QMessage>::Node>::const_iterator&) const 0x00029a07   Thumb Code    16  QtMessaging.in(t._ZNK5QHashI7QStringN6QCacheIS0_N10QtMobility8QMessageEE4NodeEE14const_iteratoreqERKS7_)
    QHash<QString, QCache<QString, QtMobility::QMessage>::Node>::keys() const 0x00029a19   Thumb Code   112  QtMessaging.in(t._ZNK5QHashI7QStringN6QCacheIS0_N10QtMobility8QMessageEE4NodeEE4keysEv)
    QHash<QString, QCache<QString, QtMobility::QMessage>::Node>::findNode(const QString&, unsigned*) const 0x00029a97   Thumb Code    90  QtMessaging.in(t._ZNK5QHashI7QStringN6QCacheIS0_N10QtMobility8QMessageEE4NodeEE8findNodeERKS0_Pj)
    QHash<int, QHashDummyValue>::findNode(const int&, unsigned*) const 0x00029af1   Thumb Code    50  QtMessaging.in(t._ZNK5QHashIi15QHashDummyValueE8findNodeERKiPj)
    QList<QPair<QtMobility::QMessageSortOrderPrivate::Field, Qt::SortOrder>>::operator ==(const QList<QPair<QtMobility::QMessageSortOrderPrivate::Field, Qt::SortOrder>>&) const 0x00029b23   Thumb Code    90  QtMessaging.in(t._ZNK5QListI5QPairIN10QtMobility24QMessageSortOrderPrivate5FieldEN2Qt9SortOrderEEEeqERKS7_)
    QList<QPair<QtMobility::QMessageFolderSortOrderPrivate::Field, Qt::SortOrder>>::isEmpty() const 0x00029b7d   Thumb Code    18  QtMessaging.in(t._ZNK5QListI5QPairIN10QtMobility30QMessageFolderSortOrderPrivate5FieldEN2Qt9SortOrderEEE7isEmptyEv)
    QList<QPair<QtMobility::QMessageFolderSortOrderPrivate::Field, Qt::SortOrder>>::operator ==(const QList<QPair<QtMobility::QMessageFolderSortOrderPrivate::Field, Qt::SortOrder>>&) const 0x00029b8f   Thumb Code    90  QtMessaging.in(t._ZNK5QListI5QPairIN10QtMobility30QMessageFolderSortOrderPrivate5FieldEN2Qt9SortOrderEEEeqERKS7_)
    QList<QtMobility::QMessageId>::count() const 0x00029be9   Thumb Code     8  QtMessaging.in(t._ZNK5QListIN10QtMobility10QMessageIdEE5countEv)
    QList<QtMobility::QMessageId>::contains(const QtMobility::QMessageId&) const 0x00029bf1   Thumb Code    54  QtMessaging.in(t._ZNK5QListIN10QtMobility10QMessageIdEE8containsERKS1_)
    QList<QtMobility::PendingSend>::count() const 0x00029c27   Thumb Code     8  QtMessaging.in(t._ZNK5QListIN10QtMobility11PendingSendEE5countEv)
    QList<QtMobility::MessageEvent>::at(int) const 0x00029c2f   Thumb Code    10  QtMessaging.in(t._ZNK5QListIN10QtMobility12MessageEventEE2atEi)
    QList<QtMobility::MessageEvent>::count() const 0x00029c39   Thumb Code     8  QtMessaging.in(t._ZNK5QListIN10QtMobility12MessageEventEE5countEv)
    QList<QtMobility::QMessageFilter>::count() const 0x00029c41   Thumb Code     8  QtMessaging.in(t._ZNK5QListIN10QtMobility14QMessageFilterEE5countEv)
    QList<QtMobility::QMessageFilter>::operator [](int) const 0x00029c49   Thumb Code    10  QtMessaging.in(t._ZNK5QListIN10QtMobility14QMessageFilterEEixEi)
    QList<QtMobility::QMessageAddress>::at(int) const 0x00029c53   Thumb Code    10  QtMessaging.in(t._ZNK5QListIN10QtMobility15QMessageAddressEE2atEi)
    QList<QtMobility::QMessageAddress>::size() const 0x00029c5d   Thumb Code     8  QtMessaging.in(t._ZNK5QListIN10QtMobility15QMessageAddressEE4sizeEv)
    QList<QtMobility::QMessageAddress>::count() const 0x00029c65   Thumb Code     8  QtMessaging.in(t._ZNK5QListIN10QtMobility15QMessageAddressEE5countEv)
    QList<QtMobility::QMessageAddress>::operator +(const QList<QtMobility::QMessageAddress>&) const 0x00029c6d   Thumb Code    18  QtMessaging.in(t._ZNK5QListIN10QtMobility15QMessageAddressEEplERKS2_)
    QList<QtMobility::MessageQueryInfo>::count() const 0x00029c89   Thumb Code     8  QtMessaging.in(t._ZNK5QListIN10QtMobility16MessageQueryInfoEE5countEv)
    QList<QtMobility::QMessageFolderId>::count() const 0x00029c91   Thumb Code     8  QtMessaging.in(t._ZNK5QListIN10QtMobility16QMessageFolderIdEE5countEv)
    QList<QtMobility::QMessageFolderId>::contains(const QtMobility::QMessageFolderId&) const 0x00029c99   Thumb Code    54  QtMessaging.in(t._ZNK5QListIN10QtMobility16QMessageFolderIdEE8containsERKS1_)
    QList<QtMobility::QMessageAccountId>::count() const 0x00029ccf   Thumb Code     8  QtMessaging.in(t._ZNK5QListIN10QtMobility17QMessageAccountIdEE5countEv)
    QList<QtMobility::QMessageAccountId>::contains(const QtMobility::QMessageAccountId&) const 0x00029cd7   Thumb Code    54  QtMessaging.in(t._ZNK5QListIN10QtMobility17QMessageAccountIdEE8containsERKS1_)
    QList<QtMobility::QMessageFolderFilter>::count() const 0x00029d0d   Thumb Code     8  QtMessaging.in(t._ZNK5QListIN10QtMobility20QMessageFolderFilterEE5countEv)
    QList<QtMobility::QMessageAccountFilter>::count() const 0x00029d15   Thumb Code     8  QtMessaging.in(t._ZNK5QListIN10QtMobility21QMessageAccountFilterEE5countEv)
    QList<QtMobility::QMessageContentContainer>::count() const 0x00029d1d   Thumb Code    10  QtMessaging.in(t._ZNK5QListIN10QtMobility24QMessageContentContainerEE5countEv)
    QList<QTextCodec*>::isEmpty() const      0x00029d27   Thumb Code    18  QtMessaging.in(t._ZNK5QListIP10QTextCodecE7isEmptyEv)
    QList<QList<QtMobility::QMessageFilter>>::count() const 0x00029d39   Thumb Code     8  QtMessaging.in(t._ZNK5QListIS_IN10QtMobility14QMessageFilterEEE5countEv)
    QList<QList<QtMobility::QMessageFilter>>::operator [](int) const 0x00029d41   Thumb Code    10  QtMessaging.in(t._ZNK5QListIS_IN10QtMobility14QMessageFilterEEEixEi)
    QList<QList<QtMobility::QMessageFolderFilter>>::count() const 0x00029d4b   Thumb Code     8  QtMessaging.in(t._ZNK5QListIS_IN10QtMobility20QMessageFolderFilterEEE5countEv)
    QList<QList<QtMobility::QMessageFolderFilter>>::operator [](int) const 0x00029d53   Thumb Code    10  QtMessaging.in(t._ZNK5QListIS_IN10QtMobility20QMessageFolderFilterEEEixEi)
    QList<QList<QtMobility::QMessageAccountFilter>>::count() const 0x00029d5d   Thumb Code     8  QtMessaging.in(t._ZNK5QListIS_IN10QtMobility21QMessageAccountFilterEEE5countEv)
    QList<QList<QtMobility::QMessageAccountFilter>>::operator [](int) const 0x00029d65   Thumb Code    10  QtMessaging.in(t._ZNK5QListIS_IN10QtMobility21QMessageAccountFilterEEEixEi)
    QCache<QString, QtMobility::QMessage>::object(const QString&) const 0x00029d6f   Thumb Code    92  QtMessaging.in(t._ZNK6QCacheI7QStringN10QtMobility8QMessageEE6objectERKS0_)
    QFlags<QtMobility::QMessageDataComparator::MatchFlag>::operator &(QtMobility::QMessageDataComparator::MatchFlag) const 0x00029dcb   Thumb Code    12  QtMessaging.in(t._ZNK6QFlagsIN10QtMobility22QMessageDataComparator9MatchFlagEEanES2_)
    QFlags<QtMobility::QMessage::Type>::operator &(QtMobility::QMessage::Type) const 0x00029dd7   Thumb Code    12  QtMessaging.in(t._ZNK6QFlagsIN10QtMobility8QMessage4TypeEEanES2_)
    QFlags<QtMobility::QMessage::Status>::operator |(QtMobility::QMessage::Status) const 0x00029de3   Thumb Code    12  QtMessaging.in(t._ZNK6QFlagsIN10QtMobility8QMessage6StatusEEorES2_)
    QtMobility::QMessageManager::staticMetaObject 0x000319c0   Data          16  QtMessaging.in(.constdata)
    QtMobility::QMessageStore::staticMetaObject 0x00031c10   Data          16  QtMessaging.in(.constdata)
    QtMobility::QMessageService::staticMetaObject 0x00031d88   Data          16  QtMessaging.in(.constdata)
    QtMobility::CMTMEngine::staticMetaObject 0x00031f40   Data          16  QtMessaging.in(.constdata)
    QtMobility::QMessageStorePrivate::staticMetaObject 0x000320d8   Data          16  QtMessaging.in(.constdata)
    QtMobility::QMessageServicePrivate::staticMetaObject 0x000321dc   Data          16  QtMessaging.in(.constdata)
    typeinfo for MMsvSessionObserver         0x000322e0   Data           8  QtMessaging.in(.constdata__ZTI19MMsvSessionObserver)
    typeinfo for QtMobility::CMTMEngine      0x000322e8   Data          40  QtMessaging.in(.constdata__ZTIN10QtMobility10CMTMEngineE)
    typeinfo for QtMobility::QMessageStore   0x00032310   Data          12  QtMessaging.in(.constdata__ZTIN10QtMobility13QMessageStoreE)
    typeinfo for QtMobility::QMessageFilter  0x0003231c   Data           8  QtMessaging.in(.constdata__ZTIN10QtMobility14QMessageFilterE)
    typeinfo for QtMobility::QMessageFolder  0x00032324   Data           8  QtMessaging.in(.constdata__ZTIN10QtMobility14QMessageFolderE)
    typeinfo for QtMobility::QMessageAccount 0x0003232c   Data           8  QtMessaging.in(.constdata__ZTIN10QtMobility15QMessageAccountE)
    typeinfo for QtMobility::QMessageAddress 0x00032334   Data           8  QtMessaging.in(.constdata__ZTIN10QtMobility15QMessageAddressE)
    typeinfo for QtMobility::QMessageManager 0x0003233c   Data          12  QtMessaging.in(.constdata__ZTIN10QtMobility15QMessageManagerE)
    typeinfo for QtMobility::QMessageService 0x00032348   Data          12  QtMessaging.in(.constdata__ZTIN10QtMobility15QMessageServiceE)
    typeinfo for QtMobility::QMessageSortOrder 0x00032354   Data           8  QtMessaging.in(.constdata__ZTIN10QtMobility17QMessageSortOrderE)
    typeinfo for QtMobility::QMessageFolderFilter 0x0003235c   Data           8  QtMessaging.in(.constdata__ZTIN10QtMobility20QMessageFolderFilterE)
    typeinfo for QtMobility::QMessageStorePrivate 0x00032364   Data          12  QtMessaging.in(.constdata__ZTIN10QtMobility20QMessageStorePrivateE)
    typeinfo for QtMobility::QMessageAccountFilter 0x00032370   Data           8  QtMessaging.in(.constdata__ZTIN10QtMobility21QMessageAccountFilterE)
    typeinfo for QtMobility::CMessagesFindOperation 0x00032378   Data          12  QtMessaging.in(.constdata__ZTIN10QtMobility22CMessagesFindOperationE)
    typeinfo for QtMobility::QMessageServicePrivate 0x00032384   Data          12  QtMessaging.in(.constdata__ZTIN10QtMobility22QMessageServicePrivateE)
    typeinfo for QtMobility::QMessageFolderSortOrder 0x00032390   Data           8  QtMessaging.in(.constdata__ZTIN10QtMobility23QMessageFolderSortOrderE)
    typeinfo for QtMobility::QMessageAccountSortOrder 0x00032398   Data           8  QtMessaging.in(.constdata__ZTIN10QtMobility24QMessageAccountSortOrderE)
    typeinfo for QtMobility::QMessageContentContainer 0x000323a0   Data           8  QtMessaging.in(.constdata__ZTIN10QtMobility24QMessageContentContainerE)
    typeinfo for QtMobility::CAsynchronousMTMOperation 0x000323a8   Data          12  QtMessaging.in(.constdata__ZTIN10QtMobility25CAsynchronousMTMOperationE)
    typeinfo for QtMobility::QMTMWait        0x000323b4   Data          12  QtMessaging.in(.constdata__ZTIN10QtMobility8QMTMWaitE)
    typeinfo for QtMobility::QMessage        0x000323c0   Data          12  QtMessaging.in(.constdata__ZTIN10QtMobility8QMessageE)
    typeinfo for std::bad_alloc              0x000323cc   Data          12  QtMessaging.in(.constdata__ZTISt9bad_alloc)
    typeinfo name for MMsvSessionObserver    0x000323d8   Data          22  QtMessaging.in(.constdata__ZTS19MMsvSessionObserver)
    typeinfo name for QtMobility::CMTMEngine 0x000323ee   Data          27  QtMessaging.in(.constdata__ZTSN10QtMobility10CMTMEngineE)
    typeinfo name for QtMobility::QMessageStore 0x00032409   Data          30  QtMessaging.in(.constdata__ZTSN10QtMobility13QMessageStoreE)
    typeinfo name for QtMobility::QMessageFilter 0x00032427   Data          31  QtMessaging.in(.constdata__ZTSN10QtMobility14QMessageFilterE)
    typeinfo name for QtMobility::QMessageFolder 0x00032446   Data          31  QtMessaging.in(.constdata__ZTSN10QtMobility14QMessageFolderE)
    typeinfo name for QtMobility::QMessageAccount 0x00032465   Data          32  QtMessaging.in(.constdata__ZTSN10QtMobility15QMessageAccountE)
    typeinfo name for QtMobility::QMessageAddress 0x00032485   Data          32  QtMessaging.in(.constdata__ZTSN10QtMobility15QMessageAddressE)
    typeinfo name for QtMobility::QMessageManager 0x000324a5   Data          32  QtMessaging.in(.constdata__ZTSN10QtMobility15QMessageManagerE)
    typeinfo name for QtMobility::QMessageService 0x000324c5   Data          32  QtMessaging.in(.constdata__ZTSN10QtMobility15QMessageServiceE)
    typeinfo name for QtMobility::QMessageSortOrder 0x000324e5   Data          34  QtMessaging.in(.constdata__ZTSN10QtMobility17QMessageSortOrderE)
    typeinfo name for QtMobility::QMessageFolderFilter 0x00032507   Data          37  QtMessaging.in(.constdata__ZTSN10QtMobility20QMessageFolderFilterE)
    typeinfo name for QtMobility::QMessageStorePrivate 0x0003252c   Data          37  QtMessaging.in(.constdata__ZTSN10QtMobility20QMessageStorePrivateE)
    typeinfo name for QtMobility::QMessageAccountFilter 0x00032551   Data          38  QtMessaging.in(.constdata__ZTSN10QtMobility21QMessageAccountFilterE)
    typeinfo name for QtMobility::CMessagesFindOperation 0x00032577   Data          39  QtMessaging.in(.constdata__ZTSN10QtMobility22CMessagesFindOperationE)
    typeinfo name for QtMobility::QMessageServicePrivate 0x0003259e   Data          39  QtMessaging.in(.constdata__ZTSN10QtMobility22QMessageServicePrivateE)
    typeinfo name for QtMobility::QMessageFolderSortOrder 0x000325c5   Data          40  QtMessaging.in(.constdata__ZTSN10QtMobility23QMessageFolderSortOrderE)
    typeinfo name for QtMobility::QMessageAccountSortOrder 0x000325ed   Data          41  QtMessaging.in(.constdata__ZTSN10QtMobility24QMessageAccountSortOrderE)
    typeinfo name for QtMobility::QMessageContentContainer 0x00032616   Data          41  QtMessaging.in(.constdata__ZTSN10QtMobility24QMessageContentContainerE)
    typeinfo name for QtMobility::CAsynchronousMTMOperation 0x0003263f   Data          42  QtMessaging.in(.constdata__ZTSN10QtMobility25CAsynchronousMTMOperationE)
    typeinfo name for QtMobility::QMTMWait   0x00032669   Data          24  QtMessaging.in(.constdata__ZTSN10QtMobility8QMTMWaitE)
    typeinfo name for QtMobility::QMessage   0x00032681   Data          24  QtMessaging.in(.constdata__ZTSN10QtMobility8QMessageE)
    typeinfo name for std::bad_alloc         0x00032699   Data          13  QtMessaging.in(.constdata__ZTSSt9bad_alloc)
    vtable for QtMobility::CMTMEngine        0x000326a8   Data         112  QtMessaging.in(.constdata__ZTVN10QtMobility10CMTMEngineE)
    vtable for QtMobility::QMessageStore     0x00032718   Data          56  QtMessaging.in(.constdata__ZTVN10QtMobility13QMessageStoreE)
    vtable for QtMobility::QMessageFilter    0x00032750   Data          16  QtMessaging.in(.constdata__ZTVN10QtMobility14QMessageFilterE)
    vtable for QtMobility::QMessageFolder    0x00032760   Data          16  QtMessaging.in(.constdata__ZTVN10QtMobility14QMessageFolderE)
    vtable for QtMobility::QMessageAccount   0x00032770   Data          16  QtMessaging.in(.constdata__ZTVN10QtMobility15QMessageAccountE)
    vtable for QtMobility::QMessageAddress   0x00032780   Data          16  QtMessaging.in(.constdata__ZTVN10QtMobility15QMessageAddressE)
    vtable for QtMobility::QMessageManager   0x00032790   Data          56  QtMessaging.in(.constdata__ZTVN10QtMobility15QMessageManagerE)
    vtable for QtMobility::QMessageService   0x000327c8   Data          56  QtMessaging.in(.constdata__ZTVN10QtMobility15QMessageServiceE)
    vtable for QtMobility::QMessageSortOrder 0x00032800   Data          16  QtMessaging.in(.constdata__ZTVN10QtMobility17QMessageSortOrderE)
    vtable for QtMobility::QMessageFolderFilter 0x00032810   Data          16  QtMessaging.in(.constdata__ZTVN10QtMobility20QMessageFolderFilterE)
    vtable for QtMobility::QMessageStorePrivate 0x00032820   Data          56  QtMessaging.in(.constdata__ZTVN10QtMobility20QMessageStorePrivateE)
    vtable for QtMobility::QMessageAccountFilter 0x00032858   Data          16  QtMessaging.in(.constdata__ZTVN10QtMobility21QMessageAccountFilterE)
    vtable for QtMobility::CMessagesFindOperation 0x00032868   Data          32  QtMessaging.in(.constdata__ZTVN10QtMobility22CMessagesFindOperationE)
    vtable for QtMobility::QMessageServicePrivate 0x00032888   Data          56  QtMessaging.in(.constdata__ZTVN10QtMobility22QMessageServicePrivateE)
    vtable for QtMobility::QMessageFolderSortOrder 0x000328c0   Data          16  QtMessaging.in(.constdata__ZTVN10QtMobility23QMessageFolderSortOrderE)
    vtable for QtMobility::QMessageAccountSortOrder 0x000328d0   Data          16  QtMessaging.in(.constdata__ZTVN10QtMobility24QMessageAccountSortOrderE)
    vtable for QtMobility::QMessageContentContainer 0x000328e0   Data          16  QtMessaging.in(.constdata__ZTVN10QtMobility24QMessageContentContainerE)
    vtable for QtMobility::CAsynchronousMTMOperation 0x000328f0   Data          32  QtMessaging.in(.constdata__ZTVN10QtMobility25CAsynchronousMTMOperationE)
    vtable for QtMobility::QMTMWait          0x00032910   Data          32  QtMessaging.in(.constdata__ZTVN10QtMobility8QMTMWaitE)
    vtable for QtMobility::QMessage          0x00032930   Data          16  QtMessaging.in(.constdata__ZTVN10QtMobility8QMessageE)
    SHT$$INIT_ARRAY$$Base                    0x0003294c   Number         0  QtMessaging.in(.init_array)
    .ARM.exidx$$Base                         0x00032958   Number         0  ucppinit_aeabi.o(.ARM.exidx)
    SHT$$INIT_ARRAY$$Limit                   0x00032958   Data           0  QtMessaging.in(.init_array)
    .ARM.exidx$$Limit                        0x00034a88   Number         0  QtMessaging.in(.ARM.exidx)
    Image$$ER_RO$$Limit                      0x00034a88   Number         0  anon$$obj.o(linker$$defined$$symbols)
    QtMobility::<unnamed>::charsets          0x00400004   Data           4  QtMessaging.in(.data)
    __dso_handle                             0x00400064   Data           4  ucppfini.o(.data)
    QMetaTypeId<QSet<int>>::qt_metatype_id()::metatype_id 0x00400068   Data           4  QtMessaging.in(.data__ZZN11QMetaTypeIdI4QSetIiEE14qt_metatype_idEvE11metatype_id)
    QMetaTypeId<QtMobility::QMessageId>::qt_metatype_id()::metatype_id 0x0040006c   Data           4  QtMessaging.in(.data__ZZN11QMetaTypeIdIN10QtMobility10QMessageIdEE14qt_metatype_idEvE11metatype_id)

