ARM Linker, RVCT2.2 [Build 686]

================================================================================

Image Symbol Table

    Local Symbols

    Symbol Name                              Value     Ov Type        Size  Object(Section)

    ../../unhosted.s                         0x00000000   Number         0  switch8.o ABSOLUTE
    M:\\epoc32\\build\\euser\\c_e18a23aea4fd210f\\edll_lib\\armv5\\urel\\uc_dll_.cpp 0x00000000   Number         0  uc_dll_.o ABSOLUTE
    M:\\sf\\os\\kernelhwsrv\\kernel\\eka\\compsupp\\rvct\\ucppinit.cpp 0x00000000   Number         0  ucppinit.o ABSOLUTE
    M:\epoc32\build\euser\c_e18a23aea4fd210f\edll_lib\armv5\urel\uc_dll_.cpp 0x00000000   Number         0  uc_dll_.o ABSOLUTE
    M:\sf\os\kernelhwsrv\kernel\eka\compsupp\rvct\dllexp.cpp 0x00000000   Number         0  dllexp.o ABSOLUTE
    M:\sf\os\kernelhwsrv\kernel\eka\compsupp\rvct\ucppfini.cpp 0x00000000   Number         0  ucppfini.o ABSOLUTE
    M:\sf\os\kernelhwsrv\kernel\eka\compsupp\rvct\ucppinit.cpp 0x00000000   Number         0  ucppinit.o ABSOLUTE
    M:\sf\os\kernelhwsrv\kernel\eka\euser\epoc\arm\uc_dll.cpp 0x00000000   Number         0  uc_dll.o ABSOLUTE
    S:\sf\mw\qt\src\multimedia\audio\qaudio.cpp 0x00000000   Number         0  qaudio.o ABSOLUTE
    S:\sf\mw\qt\src\multimedia\audio\qaudio_symbian_p.cpp 0x00000000   Number         0  qaudio_symbian_p.o ABSOLUTE
    S:\sf\mw\qt\src\multimedia\audio\qaudiodevicefactory.cpp 0x00000000   Number         0  qaudiodevicefactory.o ABSOLUTE
    S:\sf\mw\qt\src\multimedia\audio\qaudiodeviceinfo.cpp 0x00000000   Number         0  qaudiodeviceinfo.o ABSOLUTE
    S:\sf\mw\qt\src\multimedia\audio\qaudiodeviceinfo_symbian_p.cpp 0x00000000   Number         0  qaudiodeviceinfo_symbian_p.o ABSOLUTE
    S:\sf\mw\qt\src\multimedia\audio\qaudioengine.cpp 0x00000000   Number         0  qaudioengine.o ABSOLUTE
    S:\sf\mw\qt\src\multimedia\audio\qaudioengineplugin.cpp 0x00000000   Number         0  qaudioengineplugin.o ABSOLUTE
    S:\sf\mw\qt\src\multimedia\audio\qaudioformat.cpp 0x00000000   Number         0  qaudioformat.o ABSOLUTE
    S:\sf\mw\qt\src\multimedia\audio\qaudioinput.cpp 0x00000000   Number         0  qaudioinput.o ABSOLUTE
    S:\sf\mw\qt\src\multimedia\audio\qaudioinput_symbian_p.cpp 0x00000000   Number         0  qaudioinput_symbian_p.o ABSOLUTE
    S:\sf\mw\qt\src\multimedia\audio\qaudiooutput.cpp 0x00000000   Number         0  qaudiooutput.o ABSOLUTE
    S:\sf\mw\qt\src\multimedia\audio\qaudiooutput_symbian_p.cpp 0x00000000   Number         0  qaudiooutput_symbian_p.o ABSOLUTE
    S:\sf\mw\qt\src\multimedia\tmp\moc\debug_shared\moc_qabstractvideosurface.cpp 0x00000000   Number         0  moc_qabstractvideosurface.o ABSOLUTE
    S:\sf\mw\qt\src\multimedia\tmp\moc\debug_shared\moc_qaudio_symbian_p.cpp 0x00000000   Number         0  moc_qaudio_symbian_p.o ABSOLUTE
    S:\sf\mw\qt\src\multimedia\tmp\moc\debug_shared\moc_qaudiodeviceinfo_symbian_p.cpp 0x00000000   Number         0  moc_qaudiodeviceinfo_symbian_p.o ABSOLUTE
    S:\sf\mw\qt\src\multimedia\tmp\moc\debug_shared\moc_qaudioengine.cpp 0x00000000   Number         0  moc_qaudioengine.o ABSOLUTE
    S:\sf\mw\qt\src\multimedia\tmp\moc\debug_shared\moc_qaudioengineplugin.cpp 0x00000000   Number         0  moc_qaudioengineplugin.o ABSOLUTE
    S:\sf\mw\qt\src\multimedia\tmp\moc\debug_shared\moc_qaudioinput.cpp 0x00000000   Number         0  moc_qaudioinput.o ABSOLUTE
    S:\sf\mw\qt\src\multimedia\tmp\moc\debug_shared\moc_qaudioinput_symbian_p.cpp 0x00000000   Number         0  moc_qaudioinput_symbian_p.o ABSOLUTE
    S:\sf\mw\qt\src\multimedia\tmp\moc\debug_shared\moc_qaudiooutput.cpp 0x00000000   Number         0  moc_qaudiooutput.o ABSOLUTE
    S:\sf\mw\qt\src\multimedia\tmp\moc\debug_shared\moc_qaudiooutput_symbian_p.cpp 0x00000000   Number         0  moc_qaudiooutput_symbian_p.o ABSOLUTE
    S:\sf\mw\qt\src\multimedia\video\qabstractvideobuffer.cpp 0x00000000   Number         0  qabstractvideobuffer.o ABSOLUTE
    S:\sf\mw\qt\src\multimedia\video\qabstractvideosurface.cpp 0x00000000   Number         0  qabstractvideosurface.o ABSOLUTE
    S:\sf\mw\qt\src\multimedia\video\qimagevideobuffer.cpp 0x00000000   Number         0  qimagevideobuffer.o ABSOLUTE
    S:\sf\mw\qt\src\multimedia\video\qmemoryvideobuffer.cpp 0x00000000   Number         0  qmemoryvideobuffer.o ABSOLUTE
    S:\sf\mw\qt\src\multimedia\video\qvideoframe.cpp 0x00000000   Number         0  qvideoframe.o ABSOLUTE
    S:\sf\mw\qt\src\multimedia\video\qvideosurfaceformat.cpp 0x00000000   Number         0  qvideosurfaceformat.o ABSOLUTE
    .emb_text                                0x00008000   Section       40  uc_dll_.o(.emb_text)
    .emb_text                                0x00008028   Section       52  ucppinit.o(.emb_text)
    loop                                     0x0000803c   ARM Code       0  ucppinit.o(.emb_text)
    base                                     0x00008054   Data           0  ucppinit.o(.emb_text)
    limit                                    0x00008058   Data           0  ucppinit.o(.emb_text)
    __sti___10_qaudio_cpp                    0x000084c5   Thumb Code    16  qaudio.o(.text)
    .text                                    0x000084c4   Section       16  qaudio.o(.text)
    .text                                    0x000084d4   Section      428  qaudioformat.o(.text)
    .text                                    0x00008680   Section     1692  qaudiodeviceinfo.o(.text)
    .text                                    0x00008d1c   Section      356  qaudiooutput.o(.text)
    .text                                    0x00008e80   Section      356  qaudioinput.o(.text)
    .text                                    0x00008fe4   Section       52  qaudioengineplugin.o(.text)
    loader()                                 0x00009019   Thumb Code   136  qaudiodevicefactory.o(.text)
    .text                                    0x00009018   Section     1560  qaudiodevicefactory.o(.text)
    |L1.1076|                                0x0000944c   Data           0  qaudiodevicefactory.o(.text)
    .text                                    0x00009630   Section     2146  qaudio_symbian_p.o(.text)
    |L1.952|                                 0x000099e8   Data           0  qaudio_symbian_p.o(.text)
    .text                                    0x00009e94   Section     1668  qaudiodeviceinfo_symbian_p.o(.text)
    .text                                    0x0000a518   Section     2330  qaudioinput_symbian_p.o(.text)
    .text                                    0x0000ae34   Section     2676  qaudiooutput_symbian_p.o(.text)
    .text                                    0x0000b8a8   Section      156  moc_qaudioinput.o(.text)
    .text                                    0x0000b944   Section      156  moc_qaudiooutput.o(.text)
    .text                                    0x0000b9e0   Section      224  moc_qaudioengineplugin.o(.text)
    .text                                    0x0000bac0   Section      384  moc_qaudioengine.o(.text)
    .text                                    0x0000bc40   Section      256  moc_qaudio_symbian_p.o(.text)
    .text                                    0x0000bd40   Section      100  moc_qaudiodeviceinfo_symbian_p.o(.text)
    .text                                    0x0000bda4   Section      220  moc_qaudioinput_symbian_p.o(.text)
    .text                                    0x0000be80   Section      228  moc_qaudiooutput_symbian_p.o(.text)
    .text                                    0x0000bf64   Section      192  moc_qabstractvideosurface.o(.text)
    .text                                    0x0000c024   Section      120  qabstractvideobuffer.o(.text)
    .text                                    0x0000c09c   Section      492  qabstractvideosurface.o(.text)
    .text                                    0x0000c288   Section      188  qimagevideobuffer.o(.text)
    .text                                    0x0000c344   Section      188  qmemoryvideobuffer.o(.text)
    .text                                    0x0000c400   Section      924  qvideoframe.o(.text)
    .text                                    0x0000c79c   Section     3708  qvideosurfaceformat.o(.text)
    |L1.876|                                 0x0000cb08   Data           0  qvideosurfaceformat.o(.text)
    |L1.888|                                 0x0000cb14   Data           0  qvideosurfaceformat.o(.text)
    |L1.900|                                 0x0000cb20   Data           0  qvideosurfaceformat.o(.text)
    |L1.912|                                 0x0000cb2c   Data           0  qvideosurfaceformat.o(.text)
    |L1.924|                                 0x0000cb38   Data           0  qvideosurfaceformat.o(.text)
    |L1.936|                                 0x0000cb44   Data           0  qvideosurfaceformat.o(.text)
    |L1.948|                                 0x0000cb50   Data           0  qvideosurfaceformat.o(.text)
    |L1.968|                                 0x0000cb64   Data           0  qvideosurfaceformat.o(.text)
    |L1.980|                                 0x0000cb70   Data           0  qvideosurfaceformat.o(.text)
    |L1.1000|                                0x0000cb84   Data           0  qvideosurfaceformat.o(.text)
    |L1.1012|                                0x0000cb90   Data           0  qvideosurfaceformat.o(.text)
    .text                                    0x0000d618   Section       24  switch8.o(.text)
    .text                                    0x0000d630   Section       60  uc_dll.o(.text)
    .text                                    0x0000d66c   Section      144  ucppfini.o(.text)
    .text                                    0x0000d6fc   Section        4  dllexp.o(.text)
    .text.clean                              0x0000d700   Section       14  qaudioformat.o(.text.clean)
    .text.clean                              0x0000d70e   Section      318  qaudiodeviceinfo.o(.text.clean)
    .text.clean                              0x0000d84c   Section       30  qaudiooutput.o(.text.clean)
    .text.clean                              0x0000d86a   Section       30  qaudioinput.o(.text.clean)
    .text.clean                              0x0000d888   Section        8  qaudioengineplugin.o(.text.clean)
    .text.clean                              0x0000d890   Section      324  qaudiodevicefactory.o(.text.clean)
    .text.clean                              0x0000d9d4   Section      220  qaudio_symbian_p.o(.text.clean)
    .text.clean                              0x0000dab0   Section      180  qaudiodeviceinfo_symbian_p.o(.text.clean)
    .text.clean                              0x0000db64   Section      178  qaudioinput_symbian_p.o(.text.clean)
    .text.clean                              0x0000dc16   Section      144  qaudiooutput_symbian_p.o(.text.clean)
    .text.clean                              0x0000dca6   Section        4  qabstractvideobuffer.o(.text.clean)
    .text.clean                              0x0000dcaa   Section       56  qabstractvideosurface.o(.text.clean)
    .text.clean                              0x0000dce2   Section       22  qimagevideobuffer.o(.text.clean)
    .text.clean                              0x0000dcf8   Section       22  qmemoryvideobuffer.o(.text.clean)
    .text.clean                              0x0000dd0e   Section      104  qvideoframe.o(.text.clean)
    .text.clean                              0x0000dd76   Section      220  qvideosurfaceformat.o(.text.clean)
    i._Z20qvariant_cast_helperRK8QVariantNS_4TypeEPv 0x0000de54   Section       20  qvideosurfaceformat.o(i._Z20qvariant_cast_helperRK8QVariantNS_4TypeEPv)
    i._Z8qWarningv                           0x0000de68   Section       50  qaudiodevicefactory.o(i._Z8qWarningv)
    i._Z8qWarningv.clean                     0x0000de9a   Section       18  qaudiodevicefactory.o(i._Z8qWarningv.clean)
    i._ZN10QByteArray4dataEv                 0x0000deac   Section       36  qmemoryvideobuffer.o(i._ZN10QByteArray4dataEv)
    i._ZN10QByteArrayC1ERKS_                 0x0000ded0   Section       16  qaudiodeviceinfo.o(i._ZN10QByteArrayC1ERKS_)
    i._ZN10QByteArrayD1Ev                    0x0000dee0   Section       24  qaudiodeviceinfo.o(i._ZN10QByteArrayD1Ev)
    i._ZN11QStringListD1Ev                   0x0000def8   Section        8  qaudiodeviceinfo.o(i._ZN11QStringListD1Ev)
    i._ZN12QMapIteratorIiiED1Ev              0x0000df00   Section        8  qaudiodeviceinfo.o(i._ZN12QMapIteratorIiiED1Ev)
    i._ZN15QBasicAtomicInt3refEv             0x0000df08   Section       18  qaudioformat.o(i._ZN15QBasicAtomicInt3refEv)
    i._ZN15QBasicAtomicInt5derefEv           0x0000df1a   Section       18  qaudioformat.o(i._ZN15QBasicAtomicInt5derefEv)
    i._ZN15QNullDeviceInfo12channelsListEv   0x0000df2c   Section        8  qaudiodevicefactory.o(i._ZN15QNullDeviceInfo12channelsListEv)
    i._ZN15QNullDeviceInfo13byteOrderListEv  0x0000df34   Section       20  qaudiodevicefactory.o(i._ZN15QNullDeviceInfo13byteOrderListEv)
    i._ZN15QNullDeviceInfo13frequencyListEv  0x0000df48   Section        8  qaudiodevicefactory.o(i._ZN15QNullDeviceInfo13frequencyListEv)
    i._ZN15QNullDeviceInfo14sampleSizeListEv 0x0000df50   Section        8  qaudiodevicefactory.o(i._ZN15QNullDeviceInfo14sampleSizeListEv)
    i._ZN15QNullDeviceInfo14sampleTypeListEv 0x0000df58   Section       20  qaudiodevicefactory.o(i._ZN15QNullDeviceInfo14sampleTypeListEv)
    i._ZN15QNullDeviceInfo9codecListEv       0x0000df6c   Section       20  qaudiodevicefactory.o(i._ZN15QNullDeviceInfo9codecListEv)
    i._ZN15QNullDeviceInfoD0Ev               0x0000df80   Section       16  qaudiodevicefactory.o(i._ZN15QNullDeviceInfoD0Ev)
    i._ZN15QNullDeviceInfoD1Ev               0x0000df90   Section        8  qaudiodevicefactory.o(i._ZN15QNullDeviceInfoD1Ev)
    i._ZN16QNullInputDevice13setBufferSizeEi 0x0000df98   Section        2  qaudiodevicefactory.o(i._ZN16QNullInputDevice13setBufferSizeEi)
    i._ZN16QNullInputDevice17setNotifyIntervalEi 0x0000df9a   Section        2  qaudiodevicefactory.o(i._ZN16QNullInputDevice17setNotifyIntervalEi)
    i._ZN16QNullInputDevice4stopEv           0x0000df9c   Section        2  qaudiodevicefactory.o(i._ZN16QNullInputDevice4stopEv)
    i._ZN16QNullInputDevice5resetEv          0x0000df9e   Section        2  qaudiodevicefactory.o(i._ZN16QNullInputDevice5resetEv)
    i._ZN16QNullInputDevice5startEP9QIODevice 0x0000dfa0   Section       68  qaudiodevicefactory.o(i._ZN16QNullInputDevice5startEP9QIODevice)
    i._ZN16QNullInputDevice5startEP9QIODevice.clean 0x0000dfe4   Section       10  qaudiodevicefactory.o(i._ZN16QNullInputDevice5startEP9QIODevice.clean)
    i._ZN16QNullInputDevice6resumeEv         0x0000dfee   Section        2  qaudiodevicefactory.o(i._ZN16QNullInputDevice6resumeEv)
    i._ZN16QNullInputDevice7suspendEv        0x0000dff0   Section        2  qaudiodevicefactory.o(i._ZN16QNullInputDevice7suspendEv)
    i._ZN16QNullInputDeviceC1Ev              0x0000dff4   Section       20  qaudiodevicefactory.o(i._ZN16QNullInputDeviceC1Ev)
    i._ZN16QNullInputDeviceD0Ev              0x0000e008   Section       16  qaudiodevicefactory.o(i._ZN16QNullInputDeviceD0Ev)
    i._ZN16QNullInputDeviceD1Ev              0x0000e018   Section        8  qaudiodevicefactory.o(i._ZN16QNullInputDeviceD1Ev)
    i._ZN17MDevSoundObserver17SendEventToClientERK9TMMFEvent 0x0000e020   Section        2  moc_qaudio_symbian_p.o(i._ZN17MDevSoundObserver17SendEventToClientERK9TMMFEvent)
    i._ZN17QForeachContainerI11QStringListED1Ev 0x0000e022   Section        8  qaudiodevicefactory.o(i._ZN17QForeachContainerI11QStringListED1Ev)
    i._ZN17QForeachContainerI5QListI10QByteArrayEED1Ev 0x0000e02a   Section        8  qaudiodevicefactory.o(i._ZN17QForeachContainerI5QListI10QByteArrayEED1Ev)
    i._ZN17QForeachContainerI5QListI7QStringEED1Ev 0x0000e032   Section        8  qaudiodeviceinfo_symbian_p.o(i._ZN17QForeachContainerI5QListI7QStringEED1Ev)
    i._ZN17QForeachContainerI5QListIN12QAudioFormat10SampleTypeEEED1Ev 0x0000e03a   Section        8  qaudiodeviceinfo_symbian_p.o(i._ZN17QForeachContainerI5QListIN12QAudioFormat10SampleTypeEEED1Ev)
    i._ZN17QForeachContainerI5QListIN12QAudioFormat6EndianEEED1Ev 0x0000e042   Section        8  qaudiodeviceinfo_symbian_p.o(i._ZN17QForeachContainerI5QListIN12QAudioFormat6EndianEEED1Ev)
    i._ZN17QForeachContainerI5QListIiEED1Ev  0x0000e04a   Section        8  qaudiodeviceinfo.o(i._ZN17QForeachContainerI5QListIiEED1Ev)
    i._ZN17QNullOutputDevice13setBufferSizeEi 0x0000e052   Section        2  qaudiodevicefactory.o(i._ZN17QNullOutputDevice13setBufferSizeEi)
    i._ZN17QNullOutputDevice17setNotifyIntervalEi 0x0000e054   Section        2  qaudiodevicefactory.o(i._ZN17QNullOutputDevice17setNotifyIntervalEi)
    i._ZN17QNullOutputDevice4stopEv          0x0000e056   Section        2  qaudiodevicefactory.o(i._ZN17QNullOutputDevice4stopEv)
    i._ZN17QNullOutputDevice5resetEv         0x0000e058   Section        2  qaudiodevicefactory.o(i._ZN17QNullOutputDevice5resetEv)
    i._ZN17QNullOutputDevice5startEP9QIODevice 0x0000e05c   Section       72  qaudiodevicefactory.o(i._ZN17QNullOutputDevice5startEP9QIODevice)
    i._ZN17QNullOutputDevice5startEP9QIODevice.clean 0x0000e0a4   Section       10  qaudiodevicefactory.o(i._ZN17QNullOutputDevice5startEP9QIODevice.clean)
    i._ZN17QNullOutputDevice6resumeEv        0x0000e0ae   Section        2  qaudiodevicefactory.o(i._ZN17QNullOutputDevice6resumeEv)
    i._ZN17QNullOutputDevice7suspendEv       0x0000e0b0   Section        2  qaudiodevicefactory.o(i._ZN17QNullOutputDevice7suspendEv)
    i._ZN17QNullOutputDeviceC1Ev             0x0000e0b4   Section       20  qaudiodevicefactory.o(i._ZN17QNullOutputDeviceC1Ev)
    i._ZN17QNullOutputDeviceD0Ev             0x0000e0c8   Section       16  qaudiodevicefactory.o(i._ZN17QNullOutputDeviceD0Ev)
    i._ZN17QNullOutputDeviceD1Ev             0x0000e0d8   Section        8  qaudiodevicefactory.o(i._ZN17QNullOutputDeviceD1Ev)
    i._ZN18QVideoFramePrivateC1ERK5QSizeN11QVideoFrame11PixelFormatE 0x0000e0e0   Section       38  qvideoframe.o(i._ZN18QVideoFramePrivateC1ERK5QSizeN11QVideoFrame11PixelFormatE)
    i._ZN18QVideoFramePrivateD1Ev            0x0000e106   Section       20  qvideoframe.o(i._ZN18QVideoFramePrivateD1Ev)
    i._ZN19QAbstractAudioInputD0Ev           0x0000e11a   Section       16  moc_qaudioengine.o(i._ZN19QAbstractAudioInputD0Ev)
    i._ZN19QAbstractAudioInputD2Ev           0x0000e12a   Section        8  qaudioinput_symbian_p.o(i._ZN19QAbstractAudioInputD2Ev)
    i._ZN19QAudioFormatPrivateD1Ev           0x0000e132   Section       12  qaudioformat.o(i._ZN19QAudioFormatPrivateD1Ev)
    i._ZN20QAbstractAudioOutputD0Ev          0x0000e13e   Section       16  moc_qaudioengine.o(i._ZN20QAbstractAudioOutputD0Ev)
    i._ZN20QAbstractAudioOutputD2Ev          0x0000e14e   Section        8  qaudiooutput_symbian_p.o(i._ZN20QAbstractAudioOutputD2Ev)
    i._ZN23QAudioDeviceInfoPrivateD1Ev       0x0000e156   Section       36  qaudiodeviceinfo.o(i._ZN23QAudioDeviceInfoPrivateD1Ev)
    i._ZN23QAudioDeviceInfoPrivateD1Ev.clean 0x0000e17a   Section       20  qaudiodeviceinfo.o(i._ZN23QAudioDeviceInfoPrivateD1Ev.clean)
    i._ZN24QAbstractAudioDeviceInfoD0Ev      0x0000e18e   Section       16  moc_qaudioengine.o(i._ZN24QAbstractAudioDeviceInfoD0Ev)
    i._ZN24QAbstractAudioDeviceInfoD2Ev      0x0000e19e   Section        8  qaudiodeviceinfo_symbian_p.o(i._ZN24QAbstractAudioDeviceInfoD2Ev)
    i._ZN24QAudioDeviceInfoInternal12CapabilitiesC1Ev 0x0000e1a8   Section       68  qaudiodeviceinfo_symbian_p.o(i._ZN24QAudioDeviceInfoInternal12CapabilitiesC1Ev)
    i._ZN24QAudioDeviceInfoInternal12CapabilitiesC1Ev.clean 0x0000e1ec   Section       42  qaudiodeviceinfo_symbian_p.o(i._ZN24QAudioDeviceInfoInternal12CapabilitiesC1Ev.clean)
    i._ZN24QAudioDeviceInfoInternal12CapabilitiesD1Ev 0x0000e216   Section       52  qaudiodeviceinfo_symbian_p.o(i._ZN24QAudioDeviceInfoInternal12CapabilitiesD1Ev)
    i._ZN24QAudioDeviceInfoInternal12CapabilitiesD1Ev.clean 0x0000e24a   Section       42  qaudiodeviceinfo_symbian_p.o(i._ZN24QAudioDeviceInfoInternal12CapabilitiesD1Ev.clean)
    i._ZN24QImageVideoBufferPrivateD0Ev      0x0000e274   Section       16  qimagevideobuffer.o(i._ZN24QImageVideoBufferPrivateD0Ev)
    i._ZN24QImageVideoBufferPrivateD1Ev      0x0000e284   Section       24  qimagevideobuffer.o(i._ZN24QImageVideoBufferPrivateD1Ev)
    i._ZN24QImageVideoBufferPrivateD1Ev.clean 0x0000e29c   Section       10  qimagevideobuffer.o(i._ZN24QImageVideoBufferPrivateD1Ev.clean)
    i._ZN25QMemoryVideoBufferPrivateD0Ev     0x0000e2a6   Section       16  qmemoryvideobuffer.o(i._ZN25QMemoryVideoBufferPrivateD0Ev)
    i._ZN25QMemoryVideoBufferPrivateD1Ev     0x0000e2b8   Section       24  qmemoryvideobuffer.o(i._ZN25QMemoryVideoBufferPrivateD1Ev)
    i._ZN25QMemoryVideoBufferPrivateD1Ev.clean 0x0000e2d0   Section       10  qmemoryvideobuffer.o(i._ZN25QMemoryVideoBufferPrivateD1Ev.clean)
    i._ZN26QVideoSurfaceFormatPrivateC1ERKS_ 0x0000e2da   Section      106  qvideosurfaceformat.o(i._ZN26QVideoSurfaceFormatPrivateC1ERKS_)
    i._ZN26QVideoSurfaceFormatPrivateC1ERKS_.clean 0x0000e344   Section       12  qvideosurfaceformat.o(i._ZN26QVideoSurfaceFormatPrivateC1ERKS_.clean)
    i._ZN26QVideoSurfaceFormatPrivateD1Ev    0x0000e350   Section       20  qvideosurfaceformat.o(i._ZN26QVideoSurfaceFormatPrivateD1Ev)
    i._ZN26QVideoSurfaceFormatPrivateD1Ev.clean 0x0000e364   Section       12  qvideosurfaceformat.o(i._ZN26QVideoSurfaceFormatPrivateD1Ev.clean)
    i._ZN27QAbstractVideoBufferPrivateD0Ev   0x0000e370   Section       12  qabstractvideobuffer.o(i._ZN27QAbstractVideoBufferPrivateD0Ev)
    i._ZN27QAbstractVideoBufferPrivateD1Ev   0x0000e37c   Section        2  qabstractvideobuffer.o(i._ZN27QAbstractVideoBufferPrivateD1Ev)
    i._ZN28QAbstractVideoSurfacePrivateD0Ev  0x0000e37e   Section       16  qabstractvideosurface.o(i._ZN28QAbstractVideoSurfacePrivateD0Ev)
    i._ZN28QAbstractVideoSurfacePrivateD1Ev  0x0000e390   Section       28  qabstractvideosurface.o(i._ZN28QAbstractVideoSurfacePrivateD1Ev)
    i._ZN28QAbstractVideoSurfacePrivateD1Ev.clean 0x0000e3ac   Section       10  qabstractvideosurface.o(i._ZN28QAbstractVideoSurfacePrivateD1Ev.clean)
    i._ZN5QRectC1ERK6QPointRK5QSize          0x0000e3b6   Section       28  qvideosurfaceformat.o(i._ZN5QRectC1ERK6QPointRK5QSize)
    i._ZN5QRectC1Ev                          0x0000e3d2   Section       14  qvideosurfaceformat.o(i._ZN5QRectC1Ev)
    i._ZN6QDebug10maybeSpaceEv               0x0000e3e0   Section       22  qvideosurfaceformat.o(i._ZN6QDebug10maybeSpaceEv)
    i._ZN6QDebugC1ERKS_                      0x0000e3f6   Section       12  qvideosurfaceformat.o(i._ZN6QDebugC1ERKS_)
    i._ZN6QDebugD1Ev                         0x0000e402   Section      122  qaudiodevicefactory.o(i._ZN6QDebugD1Ev)
    i._ZN6QDebugD1Ev.clean                   0x0000e47c   Section       20  qaudiodevicefactory.o(i._ZN6QDebugD1Ev.clean)
    i._ZN6QDebuglsEPKc                       0x0000e490   Section       36  qvideosurfaceformat.o(i._ZN6QDebuglsEPKc)
    i._ZN6QDebuglsEPKc.clean                 0x0000e4b4   Section       10  qvideosurfaceformat.o(i._ZN6QDebuglsEPKc.clean)
    i._ZN7QStringC1ERK13QLatin1String        0x0000e4be   Section       20  qaudiodevicefactory.o(i._ZN7QStringC1ERK13QLatin1String)
    i._ZN7QStringC1ERKS_                     0x0000e4d2   Section       16  qaudioformat.o(i._ZN7QStringC1ERKS_)
    i._ZN7QStringC1Ev                        0x0000e4e4   Section       20  qaudiodeviceinfo.o(i._ZN7QStringC1Ev)
    i._ZN7QStringD1Ev                        0x0000e4f8   Section       24  qaudioformat.o(i._ZN7QStringD1Ev)
    i._ZN7QStringaSERK13QLatin1String        0x0000e510   Section       34  qvideosurfaceformat.o(i._ZN7QStringaSERK13QLatin1String)
    i._ZN7QStringaSERK13QLatin1String.clean  0x0000e532   Section       10  qvideosurfaceformat.o(i._ZN7QStringaSERK13QLatin1String.clean)
    i._ZNK15QBasicAtomicInteqEi              0x0000e53c   Section       14  qaudiodeviceinfo.o(i._ZNK15QBasicAtomicInteqEi)
    i._ZNK15QBasicAtomicIntneEi              0x0000e54a   Section       14  qaudiodeviceinfo.o(i._ZNK15QBasicAtomicIntneEi)
    i._ZNK15QBasicAtomicIntntEv              0x0000e558   Section       14  qaudio.o(i._ZNK15QBasicAtomicIntntEv)
    i._ZNK15QNullDeviceInfo10deviceNameEv    0x0000e566   Section        8  qaudiodevicefactory.o(i._ZNK15QNullDeviceInfo10deviceNameEv)
    i._ZNK15QNullDeviceInfo13nearestFormatERK12QAudioFormat 0x0000e56e   Section        8  qaudiodevicefactory.o(i._ZNK15QNullDeviceInfo13nearestFormatERK12QAudioFormat)
    i._ZNK15QNullDeviceInfo15preferredFormatEv 0x0000e578   Section       72  qaudiodevicefactory.o(i._ZNK15QNullDeviceInfo15preferredFormatEv)
    i._ZNK15QNullDeviceInfo15preferredFormatEv.clean 0x0000e5c0   Section       10  qaudiodevicefactory.o(i._ZNK15QNullDeviceInfo15preferredFormatEv.clean)
    i._ZNK15QNullDeviceInfo17isFormatSupportedERK12QAudioFormat 0x0000e5ca   Section        4  qaudiodevicefactory.o(i._ZNK15QNullDeviceInfo17isFormatSupportedERK12QAudioFormat)
    i._ZNK16QNullInputDevice10bufferSizeEv   0x0000e5ce   Section        4  qaudiodevicefactory.o(i._ZNK16QNullInputDevice10bufferSizeEv)
    i._ZNK16QNullInputDevice10bytesReadyEv   0x0000e5d2   Section        4  qaudiodevicefactory.o(i._ZNK16QNullInputDevice10bytesReadyEv)
    i._ZNK16QNullInputDevice10periodSizeEv   0x0000e5d6   Section        4  qaudiodevicefactory.o(i._ZNK16QNullInputDevice10periodSizeEv)
    i._ZNK16QNullInputDevice12elapsedUSecsEv 0x0000e5da   Section        6  qaudiodevicefactory.o(i._ZNK16QNullInputDevice12elapsedUSecsEv)
    i._ZNK16QNullInputDevice14notifyIntervalEv 0x0000e5e0   Section        4  qaudiodevicefactory.o(i._ZNK16QNullInputDevice14notifyIntervalEv)
    i._ZNK16QNullInputDevice14processedUSecsEv 0x0000e5e4   Section        6  qaudiodevicefactory.o(i._ZNK16QNullInputDevice14processedUSecsEv)
    i._ZNK16QNullInputDevice5errorEv         0x0000e5ea   Section        4  qaudiodevicefactory.o(i._ZNK16QNullInputDevice5errorEv)
    i._ZNK16QNullInputDevice5stateEv         0x0000e5ee   Section        4  qaudiodevicefactory.o(i._ZNK16QNullInputDevice5stateEv)
    i._ZNK16QNullInputDevice6formatEv        0x0000e5f2   Section        8  qaudiodevicefactory.o(i._ZNK16QNullInputDevice6formatEv)
    i._ZNK17QNullOutputDevice10bufferSizeEv  0x0000e5fa   Section        4  qaudiodevicefactory.o(i._ZNK17QNullOutputDevice10bufferSizeEv)
    i._ZNK17QNullOutputDevice10periodSizeEv  0x0000e5fe   Section        4  qaudiodevicefactory.o(i._ZNK17QNullOutputDevice10periodSizeEv)
    i._ZNK17QNullOutputDevice12elapsedUSecsEv 0x0000e602   Section        6  qaudiodevicefactory.o(i._ZNK17QNullOutputDevice12elapsedUSecsEv)
    i._ZNK17QNullOutputDevice14notifyIntervalEv 0x0000e608   Section        4  qaudiodevicefactory.o(i._ZNK17QNullOutputDevice14notifyIntervalEv)
    i._ZNK17QNullOutputDevice14processedUSecsEv 0x0000e60c   Section        6  qaudiodevicefactory.o(i._ZNK17QNullOutputDevice14processedUSecsEv)
    i._ZNK17QNullOutputDevice5errorEv        0x0000e612   Section        4  qaudiodevicefactory.o(i._ZNK17QNullOutputDevice5errorEv)
    i._ZNK17QNullOutputDevice5stateEv        0x0000e616   Section        4  qaudiodevicefactory.o(i._ZNK17QNullOutputDevice5stateEv)
    i._ZNK17QNullOutputDevice6formatEv       0x0000e61a   Section        8  qaudiodevicefactory.o(i._ZNK17QNullOutputDevice6formatEv)
    i._ZNK17QNullOutputDevice9bytesFreeEv    0x0000e622   Section        4  qaudiodevicefactory.o(i._ZNK17QNullOutputDevice9bytesFreeEv)
    i._ZNK26QVideoSurfaceFormatPrivateeqERKS_ 0x0000e628   Section      332  qvideosurfaceformat.o(i._ZNK26QVideoSurfaceFormatPrivateeqERKS_)
    i._ZNK5QBoolcvPKvEv                      0x0000e774   Section       14  qaudio_symbian_p.o(i._ZNK5QBoolcvPKvEv)
    i._ZNK7QObject7connectEPKS_PKcS3_N2Qt14ConnectionTypeE 0x0000e782   Section       20  qaudiooutput.o(i._ZNK7QObject7connectEPKS_PKcS3_N2Qt14ConnectionTypeE)
    i._ZNK7TFourCCeqERKm                     0x0000e796   Section       16  qaudio_symbian_p.o(i._ZNK7TFourCCeqERKm)
    i._ZNK9QListData2atEi                    0x0000e7a6   Section       16  qaudiodeviceinfo_symbian_p.o(i._ZNK9QListData2atEi)
    i._ZNK9QListData3endEv                   0x0000e7b6   Section       12  qaudiodeviceinfo.o(i._ZNK9QListData3endEv)
    i._ZNK9QListData4sizeEv                  0x0000e7c2   Section       10  qvideosurfaceformat.o(i._ZNK9QListData4sizeEv)
    i._ZNK9QListData5beginEv                 0x0000e7cc   Section       12  qaudiodeviceinfo.o(i._ZNK9QListData5beginEv)
    i._ZdlPvS_                               0x0000e7d8   Section        2  qaudiodeviceinfo.o(i._ZdlPvS_)
    i._ZeqRK5QSizeS1_                        0x0000e7da   Section       24  qvideosurfaceformat.o(i._ZeqRK5QSizeS1_)
    i._ZneRK10QByteArrayPKc                  0x0000e7f2   Section       42  qvideosurfaceformat.o(i._ZneRK10QByteArrayPKc)
    i._ZnwjPv                                0x0000e81c   Section        4  qaudiodeviceinfo.o(i._ZnwjPv)
    t._Z12appendUniqueIN12QAudioFormat10SampleTypeEEvR5QListIT_ERKS4_ 0x0000e820   Section      138  qaudiodeviceinfo_symbian_p.o(t._Z12appendUniqueIN12QAudioFormat10SampleTypeEEvR5QListIT_ERKS4_)
    t._Z12appendUniqueIN12QAudioFormat10SampleTypeEEvR5QListIT_ERKS4_.clean 0x0000e8aa   Section       18  qaudiodeviceinfo_symbian_p.o(t._Z12appendUniqueIN12QAudioFormat10SampleTypeEEvR5QListIT_ERKS4_.clean)
    t._Z12appendUniqueIN12QAudioFormat6EndianEEvR5QListIT_ERKS4_ 0x0000e8bc   Section      138  qaudiodeviceinfo_symbian_p.o(t._Z12appendUniqueIN12QAudioFormat6EndianEEvR5QListIT_ERKS4_)
    t._Z12appendUniqueIN12QAudioFormat6EndianEEvR5QListIT_ERKS4_.clean 0x0000e946   Section       18  qaudiodeviceinfo_symbian_p.o(t._Z12appendUniqueIN12QAudioFormat6EndianEEvR5QListIT_ERKS4_.clean)
    t._Z12appendUniqueIiEvR5QListIT_ERKS2_   0x0000e958   Section      180  qaudiodeviceinfo_symbian_p.o(t._Z12appendUniqueIiEvR5QListIT_ERKS2_)
    t._Z12appendUniqueIiEvR5QListIT_ERKS2_.clean 0x0000ea0c   Section       24  qaudiodeviceinfo_symbian_p.o(t._Z12appendUniqueIiEvR5QListIT_ERKS2_.clean)
    t._Z12qobject_castIP28QAudioEngineFactoryInterfaceET_P7QObject 0x0000ea24   Section       28  qaudiodevicefactory.o(t._Z12qobject_castIP28QAudioEngineFactoryInterfaceET_P7QObject)
    t._Z13qvariant_castI5QSizeET_RK8QVariant 0x0000ea40   Section       66  qvideosurfaceformat.o(t._Z13qvariant_castI5QSizeET_RK8QVariant)
    t._Z15qMapLessThanKeyI7QStringEbRKT_S3_  0x0000ea82   Section        8  qaudiodeviceinfo_symbian_p.o(t._Z15qMapLessThanKeyI7QStringEbRKT_S3_)
    t._Z15qMapLessThanKeyIiEbRKT_S2_         0x0000ea8a   Section       16  qaudiodeviceinfo.o(t._Z15qMapLessThanKeyIiEbRKT_S2_)
    t._Z17qRegisterMetaTypeIN11QVideoFrame11PixelFormatEEiPKcPT_ 0x0000ea9c   Section       52  qvideosurfaceformat.o(t._Z17qRegisterMetaTypeIN11QVideoFrame11PixelFormatEEiPKcPT_)
    t._Z17qRegisterMetaTypeIN19QVideoSurfaceFormat15YCbCrColorSpaceEEiPKcPT_ 0x0000ead0   Section       52  qvideosurfaceformat.o(t._Z17qRegisterMetaTypeIN19QVideoSurfaceFormat15YCbCrColorSpaceEEiPKcPT_)
    t._Z17qRegisterMetaTypeIN19QVideoSurfaceFormat9DirectionEEiPKcPT_ 0x0000eb04   Section       52  qvideosurfaceformat.o(t._Z17qRegisterMetaTypeIN19QVideoSurfaceFormat9DirectionEEiPKcPT_)
    t._Z17qRegisterMetaTypeIN20QAbstractVideoBuffer10HandleTypeEEiPKcPT_ 0x0000eb38   Section       52  qvideosurfaceformat.o(t._Z17qRegisterMetaTypeIN20QAbstractVideoBuffer10HandleTypeEEiPKcPT_)
    t._Z17qRegisterMetaTypeIN6QAudio4ModeEEiPKcPT_ 0x0000eb6c   Section       52  qaudio.o(t._Z17qRegisterMetaTypeIN6QAudio4ModeEEiPKcPT_)
    t._Z17qRegisterMetaTypeIN6QAudio5ErrorEEiPKcPT_ 0x0000eba0   Section       52  qaudio.o(t._Z17qRegisterMetaTypeIN6QAudio5ErrorEEiPKcPT_)
    t._Z17qRegisterMetaTypeIN6QAudio5StateEEiPKcPT_ 0x0000ebd4   Section       52  qaudio.o(t._Z17qRegisterMetaTypeIN6QAudio5StateEEiPKcPT_)
    t._Z17qVariantFromValueIN20QAbstractVideoBuffer10HandleTypeEE8QVariantRKT_ 0x0000ec08   Section       24  qvideosurfaceformat.o(t._Z17qVariantFromValueIN20QAbstractVideoBuffer10HandleTypeEE8QVariantRKT_)
    t._Z18qVariantCanConvertI5QSizeEbRK8QVariant 0x0000ec20   Section       10  qvideosurfaceformat.o(t._Z18qVariantCanConvertI5QSizeEbRK8QVariant)
    t._Z20qForeachContainerNewI5QListI10QByteArrayEE17QForeachContainerIT_ERKS4_ 0x0000ec2a   Section       62  qaudiodevicefactory.o(t._Z20qForeachContainerNewI5QListI10QByteArrayEE17QForeachContainerIT_ERKS4_)
    t._Z20qForeachContainerNewI5QListI10QByteArrayEE17QForeachContainerIT_ERKS4_.clean 0x0000ec68   Section       10  qaudiodevicefactory.o(t._Z20qForeachContainerNewI5QListI10QByteArrayEE17QForeachContainerIT_ERKS4_.clean)
    t._Z20qForeachContainerNewI5QListIiEE17QForeachContainerIT_ERKS3_ 0x0000ec72   Section       46  qaudiodeviceinfo.o(t._Z20qForeachContainerNewI5QListIiEE17QForeachContainerIT_ERKS3_)
    t._Z20qForeachContainerNewI5QListIiEE17QForeachContainerIT_ERKS3_.clean 0x0000eca0   Section       10  qaudiodeviceinfo.o(t._Z20qForeachContainerNewI5QListIiEE17QForeachContainerIT_ERKS3_.clean)
    t._Z21qMetaTypeDeleteHelperIN11QVideoFrame11PixelFormatEEvPT_ 0x0000ecaa   Section        8  qvideosurfaceformat.o(t._Z21qMetaTypeDeleteHelperIN11QVideoFrame11PixelFormatEEvPT_)
    t._Z21qMetaTypeDeleteHelperIN19QVideoSurfaceFormat15YCbCrColorSpaceEEvPT_ 0x0000ecb2   Section        8  qvideosurfaceformat.o(t._Z21qMetaTypeDeleteHelperIN19QVideoSurfaceFormat15YCbCrColorSpaceEEvPT_)
    t._Z21qMetaTypeDeleteHelperIN19QVideoSurfaceFormat9DirectionEEvPT_ 0x0000ecba   Section        8  qvideosurfaceformat.o(t._Z21qMetaTypeDeleteHelperIN19QVideoSurfaceFormat9DirectionEEvPT_)
    t._Z21qMetaTypeDeleteHelperIN20QAbstractVideoBuffer10HandleTypeEEvPT_ 0x0000ecc2   Section        8  qvideosurfaceformat.o(t._Z21qMetaTypeDeleteHelperIN20QAbstractVideoBuffer10HandleTypeEEvPT_)
    t._Z21qMetaTypeDeleteHelperIN6QAudio4ModeEEvPT_ 0x0000ecca   Section        8  qaudio.o(t._Z21qMetaTypeDeleteHelperIN6QAudio4ModeEEvPT_)
    t._Z21qMetaTypeDeleteHelperIN6QAudio5ErrorEEvPT_ 0x0000ecd2   Section        8  qaudio.o(t._Z21qMetaTypeDeleteHelperIN6QAudio5ErrorEEvPT_)
    t._Z21qMetaTypeDeleteHelperIN6QAudio5StateEEvPT_ 0x0000ecda   Section        8  qaudio.o(t._Z21qMetaTypeDeleteHelperIN6QAudio5StateEEvPT_)
    t._Z21qMetaTypeDeleteHelperIP10CMMFBufferEvPT_ 0x0000ece2   Section        8  qaudioinput_symbian_p.o(t._Z21qMetaTypeDeleteHelperIP10CMMFBufferEvPT_)
    t._Z24qMetaTypeConstructHelperIN11QVideoFrame11PixelFormatEEPvPKT_ 0x0000ecea   Section       26  qvideosurfaceformat.o(t._Z24qMetaTypeConstructHelperIN11QVideoFrame11PixelFormatEEPvPKT_)
    t._Z24qMetaTypeConstructHelperIN19QVideoSurfaceFormat15YCbCrColorSpaceEEPvPKT_ 0x0000ed04   Section       26  qvideosurfaceformat.o(t._Z24qMetaTypeConstructHelperIN19QVideoSurfaceFormat15YCbCrColorSpaceEEPvPKT_)
    t._Z24qMetaTypeConstructHelperIN19QVideoSurfaceFormat9DirectionEEPvPKT_ 0x0000ed1e   Section       26  qvideosurfaceformat.o(t._Z24qMetaTypeConstructHelperIN19QVideoSurfaceFormat9DirectionEEPvPKT_)
    t._Z24qMetaTypeConstructHelperIN20QAbstractVideoBuffer10HandleTypeEEPvPKT_ 0x0000ed38   Section       26  qvideosurfaceformat.o(t._Z24qMetaTypeConstructHelperIN20QAbstractVideoBuffer10HandleTypeEEPvPKT_)
    t._Z24qMetaTypeConstructHelperIN6QAudio4ModeEEPvPKT_ 0x0000ed52   Section       26  qaudio.o(t._Z24qMetaTypeConstructHelperIN6QAudio4ModeEEPvPKT_)
    t._Z24qMetaTypeConstructHelperIN6QAudio5ErrorEEPvPKT_ 0x0000ed6c   Section       26  qaudio.o(t._Z24qMetaTypeConstructHelperIN6QAudio5ErrorEEPvPKT_)
    t._Z24qMetaTypeConstructHelperIN6QAudio5StateEEPvPKT_ 0x0000ed86   Section       26  qaudio.o(t._Z24qMetaTypeConstructHelperIN6QAudio5StateEEPvPKT_)
    t._Z24qMetaTypeConstructHelperIP10CMMFBufferEPvPKT_ 0x0000eda0   Section       26  qaudioinput_symbian_p.o(t._Z24qMetaTypeConstructHelperIP10CMMFBufferEPvPKT_)
    t._Z4qAbsIfET_RKS0_                      0x0000edba   Section       14  qvideosurfaceformat.o(t._Z4qAbsIfET_RKS0_)
    t._ZN12QMapIteratorIiiEC1ERK4QMapIiiE    0x0000edc8   Section       42  qaudiodeviceinfo.o(t._ZN12QMapIteratorIiiEC1ERK4QMapIiiE)
    t._ZN12QMapIteratorIiiEC1ERK4QMapIiiE.clean 0x0000edf2   Section        4  qaudiodeviceinfo.o(t._ZN12QMapIteratorIiiEC1ERK4QMapIiiE.clean)
    t._ZN12QMetaTypeId2IN11QVideoFrame11PixelFormatEE14qt_metatype_idEv 0x0000edf8   Section       64  qvideosurfaceformat.o(t._ZN12QMetaTypeId2IN11QVideoFrame11PixelFormatEE14qt_metatype_idEv)
    t._ZN12QMetaTypeId2IN19QVideoSurfaceFormat15YCbCrColorSpaceEE14qt_metatype_idEv 0x0000ee38   Section       76  qvideosurfaceformat.o(t._ZN12QMetaTypeId2IN19QVideoSurfaceFormat15YCbCrColorSpaceEE14qt_metatype_idEv)
    t._ZN12QMetaTypeId2IN19QVideoSurfaceFormat9DirectionEE14qt_metatype_idEv 0x0000ee84   Section       68  qvideosurfaceformat.o(t._ZN12QMetaTypeId2IN19QVideoSurfaceFormat9DirectionEE14qt_metatype_idEv)
    t._ZN12QMetaTypeId2IN20QAbstractVideoBuffer10HandleTypeEE14qt_metatype_idEv 0x0000eec8   Section       72  qvideosurfaceformat.o(t._ZN12QMetaTypeId2IN20QAbstractVideoBuffer10HandleTypeEE14qt_metatype_idEv)
    t._ZN12QMetaTypeId2IN6QAudio4ModeEE14qt_metatype_idEv 0x0000ef10   Section       52  qaudio.o(t._ZN12QMetaTypeId2IN6QAudio4ModeEE14qt_metatype_idEv)
    t._ZN12QMetaTypeId2IN6QAudio5ErrorEE14qt_metatype_idEv 0x0000ef44   Section       52  qaudio.o(t._ZN12QMetaTypeId2IN6QAudio5ErrorEE14qt_metatype_idEv)
    t._ZN12QMetaTypeId2IN6QAudio5StateEE14qt_metatype_idEv 0x0000ef78   Section       52  qaudio.o(t._ZN12QMetaTypeId2IN6QAudio5StateEE14qt_metatype_idEv)
    t._ZN12SymbianAudio5Utils9findValueIiEEbPKT_iS2_Ri 0x0000efac   Section       34  qaudio_symbian_p.o(t._ZN12SymbianAudio5Utils9findValueIiEEbPKT_iS2_Ri)
    t._ZN14QScopedPointerI6QTimer21QScopedPointerDeleterIS0_EED1Ev 0x0000efce   Section       24  qaudioinput_symbian_p.o(t._ZN14QScopedPointerI6QTimer21QScopedPointerDeleterIS0_EED1Ev)
    t._ZN14QScopedPointerIN12SymbianAudio15DevSoundWrapperE21QScopedPointerDeleterIS1_EED1Ev 0x0000efe6   Section       24  qaudiodeviceinfo_symbian_p.o(t._ZN14QScopedPointerIN12SymbianAudio15DevSoundWrapperE21QScopedPointerDeleterIS1_EED1Ev)
    t._ZN18QSharedDataPointerI19QAudioFormatPrivateE13detach_helperEv 0x0000effe   Section       82  qaudioformat.o(t._ZN18QSharedDataPointerI19QAudioFormatPrivateE13detach_helperEv)
    t._ZN18QSharedDataPointerI19QAudioFormatPrivateE13detach_helperEv.clean 0x0000f050   Section       10  qaudioformat.o(t._ZN18QSharedDataPointerI19QAudioFormatPrivateE13detach_helperEv.clean)
    t._ZN18QSharedDataPointerI19QAudioFormatPrivateED1Ev 0x0000f05a   Section       36  qaudioformat.o(t._ZN18QSharedDataPointerI19QAudioFormatPrivateED1Ev)
    t._ZN18QSharedDataPointerI19QAudioFormatPrivateEptEv 0x0000f07e   Section       26  qaudioformat.o(t._ZN18QSharedDataPointerI19QAudioFormatPrivateEptEv)
    t._ZN18QSharedDataPointerI23QAudioDeviceInfoPrivateEC1EPS0_ 0x0000f098   Section       18  qaudiodeviceinfo.o(t._ZN18QSharedDataPointerI23QAudioDeviceInfoPrivateEC1EPS0_)
    t._ZN18QSharedDataPointerI23QAudioDeviceInfoPrivateED1Ev 0x0000f0aa   Section       36  qaudiodeviceinfo.o(t._ZN18QSharedDataPointerI23QAudioDeviceInfoPrivateED1Ev)
    t._ZN18QSharedDataPointerI26QVideoSurfaceFormatPrivateEC1EPS0_ 0x0000f0ce   Section       18  qvideosurfaceformat.o(t._ZN18QSharedDataPointerI26QVideoSurfaceFormatPrivateEC1EPS0_)
    t._ZN18QSharedDataPointerI26QVideoSurfaceFormatPrivateED1Ev 0x0000f0e0   Section       36  qvideosurfaceformat.o(t._ZN18QSharedDataPointerI26QVideoSurfaceFormatPrivateED1Ev)
    t._ZN18QSharedDataPointerI26QVideoSurfaceFormatPrivateEptEv 0x0000f104   Section       70  qvideosurfaceformat.o(t._ZN18QSharedDataPointerI26QVideoSurfaceFormatPrivateEptEv)
    t._ZN18QSharedDataPointerI26QVideoSurfaceFormatPrivateEptEv.clean 0x0000f14a   Section       10  qvideosurfaceformat.o(t._ZN18QSharedDataPointerI26QVideoSurfaceFormatPrivateEptEv.clean)
    t._ZN20QGlobalStaticDeleterI14QFactoryLoaderED1Ev 0x0000f154   Section       34  qaudiodevicefactory.o(t._ZN20QGlobalStaticDeleterI14QFactoryLoaderED1Ev)
    t._ZN28QExplicitlySharedDataPointerI18QVideoFramePrivateEC1EPS0_ 0x0000f176   Section       18  qvideoframe.o(t._ZN28QExplicitlySharedDataPointerI18QVideoFramePrivateEC1EPS0_)
    t._ZN28QExplicitlySharedDataPointerI18QVideoFramePrivateED1Ev 0x0000f188   Section       36  qvideoframe.o(t._ZN28QExplicitlySharedDataPointerI18QVideoFramePrivateED1Ev)
    t._ZN4QMapI7QStringN24QAudioDeviceInfoInternal12CapabilitiesEE11node_createEP8QMapDataPPNS4_4NodeERKS0_RKS2_ 0x0000f1ac   Section      164  qaudiodeviceinfo_symbian_p.o(t._ZN4QMapI7QStringN24QAudioDeviceInfoInternal12CapabilitiesEE11node_createEP8QMapDataPPNS4_4NodeERKS0_RKS2_)
    t._ZN4QMapI7QStringN24QAudioDeviceInfoInternal12CapabilitiesEE11node_createEP8QMapDataPPNS4_4NodeERKS0_RKS2_.clean 0x0000f250   Section       78  qaudiodeviceinfo_symbian_p.o(t._ZN4QMapI7QStringN24QAudioDeviceInfoInternal12CapabilitiesEE11node_createEP8QMapDataPPNS4_4NodeERKS0_RKS2_.clean)
    t._ZN4QMapI7QStringN24QAudioDeviceInfoInternal12CapabilitiesEE13detach_helperEv 0x0000f29e   Section      114  qaudiodeviceinfo_symbian_p.o(t._ZN4QMapI7QStringN24QAudioDeviceInfoInternal12CapabilitiesEE13detach_helperEv)
    t._ZN4QMapI7QStringN24QAudioDeviceInfoInternal12CapabilitiesEE13detach_helperEv.clean 0x0000f310   Section        8  qaudiodeviceinfo_symbian_p.o(t._ZN4QMapI7QStringN24QAudioDeviceInfoInternal12CapabilitiesEE13detach_helperEv.clean)
    t._ZN4QMapI7QStringN24QAudioDeviceInfoInternal12CapabilitiesEE8freeDataEP8QMapData 0x0000f318   Section       42  qaudiodeviceinfo_symbian_p.o(t._ZN4QMapI7QStringN24QAudioDeviceInfoInternal12CapabilitiesEE8freeDataEP8QMapData)
    t._ZN4QMapI7QStringN24QAudioDeviceInfoInternal12CapabilitiesEED1Ev 0x0000f342   Section       32  qaudiodeviceinfo_symbian_p.o(t._ZN4QMapI7QStringN24QAudioDeviceInfoInternal12CapabilitiesEED1Ev)
    t._ZN4QMapI7QStringN24QAudioDeviceInfoInternal12CapabilitiesEEixERKS0_ 0x0000f362   Section      154  qaudiodeviceinfo_symbian_p.o(t._ZN4QMapI7QStringN24QAudioDeviceInfoInternal12CapabilitiesEEixERKS0_)
    t._ZN4QMapI7QStringN24QAudioDeviceInfoInternal12CapabilitiesEEixERKS0_.clean 0x0000f3fc   Section       10  qaudiodeviceinfo_symbian_p.o(t._ZN4QMapI7QStringN24QAudioDeviceInfoInternal12CapabilitiesEEixERKS0_.clean)
    t._ZN4QMapIiiE11node_createEP8QMapDataPPNS1_4NodeERKiS7_ 0x0000f406   Section       60  qaudiodeviceinfo.o(t._ZN4QMapIiiE11node_createEP8QMapDataPPNS1_4NodeERKiS7_)
    t._ZN4QMapIiiE11node_createEP8QMapDataPPNS1_4NodeERKiS7_.clean 0x0000f442   Section        4  qaudiodeviceinfo.o(t._ZN4QMapIiiE11node_createEP8QMapDataPPNS1_4NodeERKiS7_.clean)
    t._ZN4QMapIiiE13detach_helperEv          0x0000f446   Section      114  qaudiodeviceinfo.o(t._ZN4QMapIiiE13detach_helperEv)
    t._ZN4QMapIiiE13detach_helperEv.clean    0x0000f4b8   Section        8  qaudiodeviceinfo.o(t._ZN4QMapIiiE13detach_helperEv.clean)
    t._ZN4QMapIiiE6detachEv                  0x0000f4c0   Section       26  qaudiodeviceinfo.o(t._ZN4QMapIiiE6detachEv)
    t._ZN4QMapIiiE6insertERKiS2_             0x0000f4da   Section      130  qaudiodeviceinfo.o(t._ZN4QMapIiiE6insertERKiS2_)
    t._ZN4QMapIiiE8freeDataEP8QMapData       0x0000f55c   Section       12  qaudiodeviceinfo.o(t._ZN4QMapIiiE8freeDataEP8QMapData)
    t._ZN4QMapIiiEC1Ev                       0x0000f568   Section       24  qaudiodeviceinfo.o(t._ZN4QMapIiiEC1Ev)
    t._ZN4QMapIiiED1Ev                       0x0000f580   Section       32  qaudiodeviceinfo.o(t._ZN4QMapIiiED1Ev)
    t._ZN5QListI10QByteArrayE13detach_helperEi 0x0000f5a0   Section      142  qaudiodevicefactory.o(t._ZN5QListI10QByteArrayE13detach_helperEi)
    t._ZN5QListI10QByteArrayE13detach_helperEi.clean 0x0000f62e   Section       20  qaudiodevicefactory.o(t._ZN5QListI10QByteArrayE13detach_helperEi.clean)
    t._ZN5QListI10QByteArrayE13detach_helperEv 0x0000f642   Section       88  qvideosurfaceformat.o(t._ZN5QListI10QByteArrayE13detach_helperEv)
    t._ZN5QListI10QByteArrayE13detach_helperEv.clean 0x0000f69a   Section        8  qvideosurfaceformat.o(t._ZN5QListI10QByteArrayE13detach_helperEv.clean)
    t._ZN5QListI10QByteArrayE14node_constructEPNS1_4NodeERKS0_ 0x0000f6a2   Section       26  qaudiodeviceinfo_symbian_p.o(t._ZN5QListI10QByteArrayE14node_constructEPNS1_4NodeERKS0_)
    t._ZN5QListI10QByteArrayE14node_constructEPNS1_4NodeERKS0_.clean 0x0000f6bc   Section       12  qaudiodeviceinfo_symbian_p.o(t._ZN5QListI10QByteArrayE14node_constructEPNS1_4NodeERKS0_.clean)
    t._ZN5QListI10QByteArrayE18detach_helper_growEii 0x0000f6c8   Section      186  qaudiodeviceinfo_symbian_p.o(t._ZN5QListI10QByteArrayE18detach_helper_growEii)
    t._ZN5QListI10QByteArrayE18detach_helper_growEii.clean 0x0000f782   Section        8  qaudiodeviceinfo_symbian_p.o(t._ZN5QListI10QByteArrayE18detach_helper_growEii.clean)
    t._ZN5QListI10QByteArrayE4freeEPN9QListData4DataE 0x0000f78a   Section       48  qaudiodevicefactory.o(t._ZN5QListI10QByteArrayE4freeEPN9QListData4DataE)
    t._ZN5QListI10QByteArrayE6appendERKS0_   0x0000f7bc   Section      100  qaudiodeviceinfo_symbian_p.o(t._ZN5QListI10QByteArrayE6appendERKS0_)
    t._ZN5QListI10QByteArrayE6appendERKS0_.clean 0x0000f820   Section        8  qaudiodeviceinfo_symbian_p.o(t._ZN5QListI10QByteArrayE6appendERKS0_.clean)
    t._ZN5QListI10QByteArrayE9node_copyEPNS1_4NodeES3_S3_ 0x0000f828   Section       70  qaudiodeviceinfo_symbian_p.o(t._ZN5QListI10QByteArrayE9node_copyEPNS1_4NodeES3_S3_)
    t._ZN5QListI10QByteArrayE9node_copyEPNS1_4NodeES3_S3_.clean 0x0000f86e   Section       22  qaudiodeviceinfo_symbian_p.o(t._ZN5QListI10QByteArrayE9node_copyEPNS1_4NodeES3_S3_.clean)
    t._ZN5QListI10QByteArrayEC1ERKS1_        0x0000f884   Section       30  qvideosurfaceformat.o(t._ZN5QListI10QByteArrayEC1ERKS1_)
    t._ZN5QListI10QByteArrayEC1Ev            0x0000f8a4   Section       20  qvideosurfaceformat.o(t._ZN5QListI10QByteArrayEC1Ev)
    t._ZN5QListI10QByteArrayED1Ev            0x0000f8b8   Section       30  qaudiodevicefactory.o(t._ZN5QListI10QByteArrayED1Ev)
    t._ZN5QListI10QByteArrayElsERKS0_        0x0000f8d6   Section       12  qvideosurfaceformat.o(t._ZN5QListI10QByteArrayElsERKS0_)
    t._ZN5QListI10QByteArrayEpLERKS1_        0x0000f8e4   Section      172  qvideosurfaceformat.o(t._ZN5QListI10QByteArrayEpLERKS1_)
    t._ZN5QListI10QByteArrayEpLERKS1_.clean  0x0000f990   Section        8  qvideosurfaceformat.o(t._ZN5QListI10QByteArrayEpLERKS1_.clean)
    t._ZN5QListI16QAudioDeviceInfoE13node_destructEPNS1_4NodeES3_ 0x0000f998   Section       30  qaudiodevicefactory.o(t._ZN5QListI16QAudioDeviceInfoE13node_destructEPNS1_4NodeES3_)
    t._ZN5QListI16QAudioDeviceInfoE14node_constructEPNS1_4NodeERKS0_ 0x0000f9b6   Section       24  qaudiodevicefactory.o(t._ZN5QListI16QAudioDeviceInfoE14node_constructEPNS1_4NodeERKS0_)
    t._ZN5QListI16QAudioDeviceInfoE14node_constructEPNS1_4NodeERKS0_.clean 0x0000f9ce   Section       10  qaudiodevicefactory.o(t._ZN5QListI16QAudioDeviceInfoE14node_constructEPNS1_4NodeERKS0_.clean)
    t._ZN5QListI16QAudioDeviceInfoE18detach_helper_growEii 0x0000f9d8   Section      180  qaudiodevicefactory.o(t._ZN5QListI16QAudioDeviceInfoE18detach_helper_growEii)
    t._ZN5QListI16QAudioDeviceInfoE18detach_helper_growEii.clean 0x0000fa8c   Section        8  qaudiodevicefactory.o(t._ZN5QListI16QAudioDeviceInfoE18detach_helper_growEii.clean)
    t._ZN5QListI16QAudioDeviceInfoE4freeEPN9QListData4DataE 0x0000fa94   Section       38  qaudiodevicefactory.o(t._ZN5QListI16QAudioDeviceInfoE4freeEPN9QListData4DataE)
    t._ZN5QListI16QAudioDeviceInfoE6appendERKS0_ 0x0000fabc   Section       96  qaudiodevicefactory.o(t._ZN5QListI16QAudioDeviceInfoE6appendERKS0_)
    t._ZN5QListI16QAudioDeviceInfoE6appendERKS0_.clean 0x0000fb1c   Section        8  qaudiodevicefactory.o(t._ZN5QListI16QAudioDeviceInfoE6appendERKS0_.clean)
    t._ZN5QListI16QAudioDeviceInfoE9node_copyEPNS1_4NodeES3_S3_ 0x0000fb24   Section       72  qaudiodevicefactory.o(t._ZN5QListI16QAudioDeviceInfoE9node_copyEPNS1_4NodeES3_S3_)
    t._ZN5QListI16QAudioDeviceInfoE9node_copyEPNS1_4NodeES3_S3_.clean 0x0000fb6c   Section       18  qaudiodevicefactory.o(t._ZN5QListI16QAudioDeviceInfoE9node_copyEPNS1_4NodeES3_S3_.clean)
    t._ZN5QListI16QAudioDeviceInfoED1Ev      0x0000fb7e   Section       30  qaudiodevicefactory.o(t._ZN5QListI16QAudioDeviceInfoED1Ev)
    t._ZN5QListI7QStringE13detach_helperEi   0x0000fb9c   Section       86  qaudiodeviceinfo_symbian_p.o(t._ZN5QListI7QStringE13detach_helperEi)
    t._ZN5QListI7QStringE13detach_helperEi.clean 0x0000fbf2   Section        8  qaudiodeviceinfo_symbian_p.o(t._ZN5QListI7QStringE13detach_helperEi.clean)
    t._ZN5QListI7QStringE14node_constructEPNS1_4NodeERKS0_ 0x0000fbfa   Section       26  qaudio_symbian_p.o(t._ZN5QListI7QStringE14node_constructEPNS1_4NodeERKS0_)
    t._ZN5QListI7QStringE14node_constructEPNS1_4NodeERKS0_.clean 0x0000fc14   Section       12  qaudio_symbian_p.o(t._ZN5QListI7QStringE14node_constructEPNS1_4NodeERKS0_.clean)
    t._ZN5QListI7QStringE18detach_helper_growEii 0x0000fc20   Section      186  qaudio_symbian_p.o(t._ZN5QListI7QStringE18detach_helper_growEii)
    t._ZN5QListI7QStringE18detach_helper_growEii.clean 0x0000fcda   Section        8  qaudio_symbian_p.o(t._ZN5QListI7QStringE18detach_helper_growEii.clean)
    t._ZN5QListI7QStringE4freeEPN9QListData4DataE 0x0000fce2   Section       48  qaudiodevicefactory.o(t._ZN5QListI7QStringE4freeEPN9QListData4DataE)
    t._ZN5QListI7QStringE6appendERKS0_       0x0000fd14   Section      100  qaudio_symbian_p.o(t._ZN5QListI7QStringE6appendERKS0_)
    t._ZN5QListI7QStringE6appendERKS0_.clean 0x0000fd78   Section        8  qaudio_symbian_p.o(t._ZN5QListI7QStringE6appendERKS0_.clean)
    t._ZN5QListI7QStringE9node_copyEPNS1_4NodeES3_S3_ 0x0000fd80   Section       70  qaudio_symbian_p.o(t._ZN5QListI7QStringE9node_copyEPNS1_4NodeES3_S3_)
    t._ZN5QListI7QStringE9node_copyEPNS1_4NodeES3_S3_.clean 0x0000fdc6   Section       22  qaudio_symbian_p.o(t._ZN5QListI7QStringE9node_copyEPNS1_4NodeES3_S3_.clean)
    t._ZN5QListI7QStringEC1ERKS1_            0x0000fddc   Section       32  qaudiodeviceinfo_symbian_p.o(t._ZN5QListI7QStringEC1ERKS1_)
    t._ZN5QListI7QStringED1Ev                0x0000fdfc   Section       30  qaudiodeviceinfo.o(t._ZN5QListI7QStringED1Ev)
    t._ZN5QListI8QVariantE13detach_helperEv  0x0000fe1a   Section       88  qvideosurfaceformat.o(t._ZN5QListI8QVariantE13detach_helperEv)
    t._ZN5QListI8QVariantE13detach_helperEv.clean 0x0000fe72   Section        8  qvideosurfaceformat.o(t._ZN5QListI8QVariantE13detach_helperEv.clean)
    t._ZN5QListI8QVariantE13node_destructEPNS1_4NodeE 0x0000fe7a   Section       18  qvideosurfaceformat.o(t._ZN5QListI8QVariantE13node_destructEPNS1_4NodeE)
    t._ZN5QListI8QVariantE13node_destructEPNS1_4NodeES3_ 0x0000fe8c   Section       30  qvideosurfaceformat.o(t._ZN5QListI8QVariantE13node_destructEPNS1_4NodeES3_)
    t._ZN5QListI8QVariantE14node_constructEPNS1_4NodeERKS0_ 0x0000feaa   Section       24  qvideosurfaceformat.o(t._ZN5QListI8QVariantE14node_constructEPNS1_4NodeERKS0_)
    t._ZN5QListI8QVariantE14node_constructEPNS1_4NodeERKS0_.clean 0x0000fec2   Section       10  qvideosurfaceformat.o(t._ZN5QListI8QVariantE14node_constructEPNS1_4NodeERKS0_.clean)
    t._ZN5QListI8QVariantE18detach_helper_growEii 0x0000fecc   Section      180  qvideosurfaceformat.o(t._ZN5QListI8QVariantE18detach_helper_growEii)
    t._ZN5QListI8QVariantE18detach_helper_growEii.clean 0x0000ff80   Section        8  qvideosurfaceformat.o(t._ZN5QListI8QVariantE18detach_helper_growEii.clean)
    t._ZN5QListI8QVariantE4freeEPN9QListData4DataE 0x0000ff88   Section       38  qvideosurfaceformat.o(t._ZN5QListI8QVariantE4freeEPN9QListData4DataE)
    t._ZN5QListI8QVariantE6appendERKS0_      0x0000ffb0   Section       96  qvideosurfaceformat.o(t._ZN5QListI8QVariantE6appendERKS0_)
    t._ZN5QListI8QVariantE6appendERKS0_.clean 0x00010010   Section        8  qvideosurfaceformat.o(t._ZN5QListI8QVariantE6appendERKS0_.clean)
    t._ZN5QListI8QVariantE6detachEv          0x00010018   Section       24  qvideosurfaceformat.o(t._ZN5QListI8QVariantE6detachEv)
    t._ZN5QListI8QVariantE9node_copyEPNS1_4NodeES3_S3_ 0x00010030   Section       72  qvideosurfaceformat.o(t._ZN5QListI8QVariantE9node_copyEPNS1_4NodeES3_S3_)
    t._ZN5QListI8QVariantE9node_copyEPNS1_4NodeES3_S3_.clean 0x00010078   Section       18  qvideosurfaceformat.o(t._ZN5QListI8QVariantE9node_copyEPNS1_4NodeES3_S3_.clean)
    t._ZN5QListI8QVariantEC1Ev               0x0001008c   Section       20  qvideosurfaceformat.o(t._ZN5QListI8QVariantEC1Ev)
    t._ZN5QListI8QVariantED1Ev               0x000100a0   Section       30  qvideosurfaceformat.o(t._ZN5QListI8QVariantED1Ev)
    t._ZN5QListIN11QVideoFrame11PixelFormatEED1Ev 0x000100be   Section       74  qabstractvideosurface.o(t._ZN5QListIN11QVideoFrame11PixelFormatEED1Ev)
    t._ZN5QListIN12QAudioFormat10SampleTypeEE13detach_helperEi 0x00010108   Section      128  qaudiodeviceinfo.o(t._ZN5QListIN12QAudioFormat10SampleTypeEE13detach_helperEi)
    t._ZN5QListIN12QAudioFormat10SampleTypeEE13detach_helperEi.clean 0x00010188   Section        8  qaudiodeviceinfo.o(t._ZN5QListIN12QAudioFormat10SampleTypeEE13detach_helperEi.clean)
    t._ZN5QListIN12QAudioFormat10SampleTypeEE13detach_helperEv 0x00010190   Section       88  qaudio_symbian_p.o(t._ZN5QListIN12QAudioFormat10SampleTypeEE13detach_helperEv)
    t._ZN5QListIN12QAudioFormat10SampleTypeEE13detach_helperEv.clean 0x000101e8   Section        8  qaudio_symbian_p.o(t._ZN5QListIN12QAudioFormat10SampleTypeEE13detach_helperEv.clean)
    t._ZN5QListIN12QAudioFormat10SampleTypeEE13node_destructEPNS2_4NodeES4_ 0x000101f0   Section       22  qaudio_symbian_p.o(t._ZN5QListIN12QAudioFormat10SampleTypeEE13node_destructEPNS2_4NodeES4_)
    t._ZN5QListIN12QAudioFormat10SampleTypeEE14node_constructEPNS2_4NodeERKS1_ 0x00010206   Section       20  qaudio_symbian_p.o(t._ZN5QListIN12QAudioFormat10SampleTypeEE14node_constructEPNS2_4NodeERKS1_)
    t._ZN5QListIN12QAudioFormat10SampleTypeEE18detach_helper_growEii 0x0001021a   Section      180  qaudio_symbian_p.o(t._ZN5QListIN12QAudioFormat10SampleTypeEE18detach_helper_growEii)
    t._ZN5QListIN12QAudioFormat10SampleTypeEE18detach_helper_growEii.clean 0x000102ce   Section        8  qaudio_symbian_p.o(t._ZN5QListIN12QAudioFormat10SampleTypeEE18detach_helper_growEii.clean)
    t._ZN5QListIN12QAudioFormat10SampleTypeEE4freeEPN9QListData4DataE 0x000102d6   Section       44  qaudio_symbian_p.o(t._ZN5QListIN12QAudioFormat10SampleTypeEE4freeEPN9QListData4DataE)
    t._ZN5QListIN12QAudioFormat10SampleTypeEE5clearEv 0x00010302   Section       64  qaudio_symbian_p.o(t._ZN5QListIN12QAudioFormat10SampleTypeEE5clearEv)
    t._ZN5QListIN12QAudioFormat10SampleTypeEE5clearEv.clean 0x00010342   Section       10  qaudio_symbian_p.o(t._ZN5QListIN12QAudioFormat10SampleTypeEE5clearEv.clean)
    t._ZN5QListIN12QAudioFormat10SampleTypeEE6appendERKS1_ 0x0001034c   Section       96  qaudio_symbian_p.o(t._ZN5QListIN12QAudioFormat10SampleTypeEE6appendERKS1_)
    t._ZN5QListIN12QAudioFormat10SampleTypeEE6appendERKS1_.clean 0x000103ac   Section        8  qaudio_symbian_p.o(t._ZN5QListIN12QAudioFormat10SampleTypeEE6appendERKS1_.clean)
    t._ZN5QListIN12QAudioFormat10SampleTypeEE9node_copyEPNS2_4NodeES4_S4_ 0x000103b4   Section       60  qaudio_symbian_p.o(t._ZN5QListIN12QAudioFormat10SampleTypeEE9node_copyEPNS2_4NodeES4_S4_)
    t._ZN5QListIN12QAudioFormat10SampleTypeEE9node_copyEPNS2_4NodeES4_S4_.clean 0x000103f0   Section        8  qaudio_symbian_p.o(t._ZN5QListIN12QAudioFormat10SampleTypeEE9node_copyEPNS2_4NodeES4_S4_.clean)
    t._ZN5QListIN12QAudioFormat10SampleTypeEEC1ERKS2_ 0x000103f8   Section       30  qaudiodeviceinfo_symbian_p.o(t._ZN5QListIN12QAudioFormat10SampleTypeEEC1ERKS2_)
    t._ZN5QListIN12QAudioFormat10SampleTypeEEC1Ev 0x00010418   Section       20  qaudio_symbian_p.o(t._ZN5QListIN12QAudioFormat10SampleTypeEEC1Ev)
    t._ZN5QListIN12QAudioFormat10SampleTypeEED1Ev 0x0001042c   Section       30  qaudiodeviceinfo.o(t._ZN5QListIN12QAudioFormat10SampleTypeEED1Ev)
    t._ZN5QListIN12QAudioFormat6EndianEE13detach_helperEi 0x0001044a   Section      128  qaudiodeviceinfo.o(t._ZN5QListIN12QAudioFormat6EndianEE13detach_helperEi)
    t._ZN5QListIN12QAudioFormat6EndianEE13detach_helperEi.clean 0x000104ca   Section        8  qaudiodeviceinfo.o(t._ZN5QListIN12QAudioFormat6EndianEE13detach_helperEi.clean)
    t._ZN5QListIN12QAudioFormat6EndianEE13detach_helperEv 0x000104d2   Section       88  qaudio_symbian_p.o(t._ZN5QListIN12QAudioFormat6EndianEE13detach_helperEv)
    t._ZN5QListIN12QAudioFormat6EndianEE13detach_helperEv.clean 0x0001052a   Section        8  qaudio_symbian_p.o(t._ZN5QListIN12QAudioFormat6EndianEE13detach_helperEv.clean)
    t._ZN5QListIN12QAudioFormat6EndianEE13node_destructEPNS2_4NodeES4_ 0x00010532   Section       22  qaudio_symbian_p.o(t._ZN5QListIN12QAudioFormat6EndianEE13node_destructEPNS2_4NodeES4_)
    t._ZN5QListIN12QAudioFormat6EndianEE14node_constructEPNS2_4NodeERKS1_ 0x00010548   Section       20  qaudio_symbian_p.o(t._ZN5QListIN12QAudioFormat6EndianEE14node_constructEPNS2_4NodeERKS1_)
    t._ZN5QListIN12QAudioFormat6EndianEE18detach_helper_growEii 0x0001055c   Section      180  qaudio_symbian_p.o(t._ZN5QListIN12QAudioFormat6EndianEE18detach_helper_growEii)
    t._ZN5QListIN12QAudioFormat6EndianEE18detach_helper_growEii.clean 0x00010610   Section        8  qaudio_symbian_p.o(t._ZN5QListIN12QAudioFormat6EndianEE18detach_helper_growEii.clean)
    t._ZN5QListIN12QAudioFormat6EndianEE4freeEPN9QListData4DataE 0x00010618   Section       44  qaudio_symbian_p.o(t._ZN5QListIN12QAudioFormat6EndianEE4freeEPN9QListData4DataE)
    t._ZN5QListIN12QAudioFormat6EndianEE5clearEv 0x00010644   Section       64  qaudio_symbian_p.o(t._ZN5QListIN12QAudioFormat6EndianEE5clearEv)
    t._ZN5QListIN12QAudioFormat6EndianEE5clearEv.clean 0x00010684   Section       10  qaudio_symbian_p.o(t._ZN5QListIN12QAudioFormat6EndianEE5clearEv.clean)
    t._ZN5QListIN12QAudioFormat6EndianEE6appendERKS1_ 0x00010690   Section       96  qaudio_symbian_p.o(t._ZN5QListIN12QAudioFormat6EndianEE6appendERKS1_)
    t._ZN5QListIN12QAudioFormat6EndianEE6appendERKS1_.clean 0x000106f0   Section        8  qaudio_symbian_p.o(t._ZN5QListIN12QAudioFormat6EndianEE6appendERKS1_.clean)
    t._ZN5QListIN12QAudioFormat6EndianEE9node_copyEPNS2_4NodeES4_S4_ 0x000106f8   Section       60  qaudio_symbian_p.o(t._ZN5QListIN12QAudioFormat6EndianEE9node_copyEPNS2_4NodeES4_S4_)
    t._ZN5QListIN12QAudioFormat6EndianEE9node_copyEPNS2_4NodeES4_S4_.clean 0x00010734   Section        8  qaudio_symbian_p.o(t._ZN5QListIN12QAudioFormat6EndianEE9node_copyEPNS2_4NodeES4_S4_.clean)
    t._ZN5QListIN12QAudioFormat6EndianEEC1ERKS2_ 0x0001073c   Section       30  qaudiodeviceinfo_symbian_p.o(t._ZN5QListIN12QAudioFormat6EndianEEC1ERKS2_)
    t._ZN5QListIN12QAudioFormat6EndianEEC1Ev 0x0001075c   Section       20  qaudio_symbian_p.o(t._ZN5QListIN12QAudioFormat6EndianEEC1Ev)
    t._ZN5QListIN12QAudioFormat6EndianEED1Ev 0x00010770   Section       30  qaudiodeviceinfo.o(t._ZN5QListIN12QAudioFormat6EndianEED1Ev)
    t._ZN5QListIP14CMMFDataBufferE13detach_helperEv 0x0001078e   Section       88  qaudioinput_symbian_p.o(t._ZN5QListIP14CMMFDataBufferE13detach_helperEv)
    t._ZN5QListIP14CMMFDataBufferE13detach_helperEv.clean 0x000107e6   Section        8  qaudioinput_symbian_p.o(t._ZN5QListIP14CMMFDataBufferE13detach_helperEv.clean)
    t._ZN5QListIP14CMMFDataBufferE18detach_helper_growEii 0x000107ee   Section      164  qaudioinput_symbian_p.o(t._ZN5QListIP14CMMFDataBufferE18detach_helper_growEii)
    t._ZN5QListIP14CMMFDataBufferE18detach_helper_growEii.clean 0x00010892   Section        8  qaudioinput_symbian_p.o(t._ZN5QListIP14CMMFDataBufferE18detach_helper_growEii.clean)
    t._ZN5QListIP14CMMFDataBufferE4freeEPN9QListData4DataE 0x0001089a   Section       16  qaudioinput_symbian_p.o(t._ZN5QListIP14CMMFDataBufferE4freeEPN9QListData4DataE)
    t._ZN5QListIP14CMMFDataBufferE5beginEv   0x000108aa   Section       34  qaudioinput_symbian_p.o(t._ZN5QListIP14CMMFDataBufferE5beginEv)
    t._ZN5QListIP14CMMFDataBufferE5clearEv   0x000108cc   Section       64  qaudioinput_symbian_p.o(t._ZN5QListIP14CMMFDataBufferE5clearEv)
    t._ZN5QListIP14CMMFDataBufferE5clearEv.clean 0x0001090c   Section       10  qaudioinput_symbian_p.o(t._ZN5QListIP14CMMFDataBufferE5clearEv.clean)
    t._ZN5QListIP14CMMFDataBufferE6appendERKS1_ 0x00010918   Section       60  qaudioinput_symbian_p.o(t._ZN5QListIP14CMMFDataBufferE6appendERKS1_)
    t._ZN5QListIP14CMMFDataBufferE6appendERKS1_.clean 0x00010954   Section       10  qaudioinput_symbian_p.o(t._ZN5QListIP14CMMFDataBufferE6appendERKS1_.clean)
    t._ZN5QListIP14CMMFDataBufferE9node_copyEPNS2_4NodeES4_S4_ 0x0001095e   Section       28  qaudioinput_symbian_p.o(t._ZN5QListIP14CMMFDataBufferE9node_copyEPNS2_4NodeES4_S4_)
    t._ZN5QListIP14CMMFDataBufferEC1Ev       0x0001097c   Section       20  qaudioinput_symbian_p.o(t._ZN5QListIP14CMMFDataBufferEC1Ev)
    t._ZN5QListIP14CMMFDataBufferED1Ev       0x00010990   Section       30  qaudioinput_symbian_p.o(t._ZN5QListIP14CMMFDataBufferED1Ev)
    t._ZN5QListIiE13detach_helperEi          0x000109ae   Section       98  qaudiodeviceinfo.o(t._ZN5QListIiE13detach_helperEi)
    t._ZN5QListIiE13detach_helperEi.clean    0x00010a10   Section        8  qaudiodeviceinfo.o(t._ZN5QListIiE13detach_helperEi.clean)
    t._ZN5QListIiE13detach_helperEv          0x00010a18   Section       12  qaudiodeviceinfo.o(t._ZN5QListIiE13detach_helperEv)
    t._ZN5QListIiE18detach_helper_growEii    0x00010a24   Section      164  qaudio_symbian_p.o(t._ZN5QListIiE18detach_helper_growEii)
    t._ZN5QListIiE18detach_helper_growEii.clean 0x00010ac8   Section        8  qaudio_symbian_p.o(t._ZN5QListIiE18detach_helper_growEii.clean)
    t._ZN5QListIiE4freeEPN9QListData4DataE   0x00010ad0   Section       24  qaudiodeviceinfo.o(t._ZN5QListIiE4freeEPN9QListData4DataE)
    t._ZN5QListIiE5clearEv                   0x00010ae8   Section       64  qaudio_symbian_p.o(t._ZN5QListIiE5clearEv)
    t._ZN5QListIiE5clearEv.clean             0x00010b28   Section       10  qaudio_symbian_p.o(t._ZN5QListIiE5clearEv.clean)
    t._ZN5QListIiE9node_copyEPNS0_4NodeES2_S2_ 0x00010b32   Section       28  qaudio_symbian_p.o(t._ZN5QListIiE9node_copyEPNS0_4NodeES2_S2_)
    t._ZN5QListIiE9removeAllERKi             0x00010b50   Section       92  qaudiodeviceinfo.o(t._ZN5QListIiE9removeAllERKi)
    t._ZN5QListIiEC1ERKS0_                   0x00010bac   Section       30  qaudiodeviceinfo.o(t._ZN5QListIiEC1ERKS0_)
    t._ZN5QListIiEC1Ev                       0x00010bcc   Section       20  qaudiodeviceinfo.o(t._ZN5QListIiEC1Ev)
    t._ZN5QListIiED1Ev                       0x00010be0   Section       30  qaudiodeviceinfo.o(t._ZN5QListIiED1Ev)
    t._ZN5QListIiEaSERKS0_                   0x00010bfe   Section       54  qaudiodeviceinfo_symbian_p.o(t._ZN5QListIiEaSERKS0_)
    t._ZN5QListIiEpLERKi                     0x00010c34   Section       60  qaudio_symbian_p.o(t._ZN5QListIiEpLERKi)
    t._ZN5QListIiEpLERKi.clean               0x00010c70   Section       10  qaudio_symbian_p.o(t._ZN5QListIiEpLERKi.clean)
    t._ZNK12QMapIteratorIiiE7hasNextEv       0x00010c7a   Section       20  qaudiodeviceinfo.o(t._ZNK12QMapIteratorIiiE7hasNextEv)
    t._ZNK17QForeachContainerI5QListI10QByteArrayEE9conditionEv 0x00010c8e   Section       26  qaudiodevicefactory.o(t._ZNK17QForeachContainerI5QListI10QByteArrayEE9conditionEv)
    t._ZNK17QForeachContainerI5QListIiEE9conditionEv 0x00010ca8   Section       26  qaudiodeviceinfo.o(t._ZNK17QForeachContainerI5QListIiEE9conditionEv)
    t._ZNK4QMapI7QStringN24QAudioDeviceInfoInternal12CapabilitiesEE4keysEv 0x00010cc4   Section       88  qaudiodeviceinfo_symbian_p.o(t._ZNK4QMapI7QStringN24QAudioDeviceInfoInternal12CapabilitiesEE4keysEv)
    t._ZNK4QMapI7QStringN24QAudioDeviceInfoInternal12CapabilitiesEE4keysEv.clean 0x00010d1c   Section       10  qaudiodeviceinfo_symbian_p.o(t._ZNK4QMapI7QStringN24QAudioDeviceInfoInternal12CapabilitiesEE4keysEv.clean)
    t._ZNK4QMapI7QStringN24QAudioDeviceInfoInternal12CapabilitiesEE8containsERKS0_ 0x00010d26   Section       90  qaudiodeviceinfo_symbian_p.o(t._ZNK4QMapI7QStringN24QAudioDeviceInfoInternal12CapabilitiesEE8containsERKS0_)
    t._ZNK5QListI10QByteArrayE2atEi          0x00010d80   Section       16  qaudiodevicefactory.o(t._ZNK5QListI10QByteArrayE2atEi)
    t._ZNK5QListI10QByteArrayE5countEv       0x00010d90   Section        8  qvideosurfaceformat.o(t._ZNK5QListI10QByteArrayE5countEv)
    t._ZNK5QListI10QByteArrayE7indexOfERKS0_i 0x00010d98   Section      124  qvideosurfaceformat.o(t._ZNK5QListI10QByteArrayE7indexOfERKS0_i)
    t._ZNK5QListI10QByteArrayE7isEmptyEv     0x00010e14   Section       18  qvideosurfaceformat.o(t._ZNK5QListI10QByteArrayE7isEmptyEv)
    t._ZNK5QListI8QVariantE2atEi             0x00010e26   Section       10  qvideosurfaceformat.o(t._ZNK5QListI8QVariantE2atEi)
    t._ZNK5QListIN12QAudioFormat10SampleTypeEE8containsERKS1_ 0x00010e30   Section       50  qaudiodeviceinfo_symbian_p.o(t._ZNK5QListIN12QAudioFormat10SampleTypeEE8containsERKS1_)
    t._ZNK5QListIN12QAudioFormat6EndianEE8containsERKS1_ 0x00010e62   Section       50  qaudiodeviceinfo_symbian_p.o(t._ZNK5QListIN12QAudioFormat6EndianEE8containsERKS1_)
    t._ZNK5QListIP14CMMFDataBufferE5emptyEv  0x00010e94   Section       18  qaudioinput_symbian_p.o(t._ZNK5QListIP14CMMFDataBufferE5emptyEv)
    t._ZNK5QListIiE4sizeEv                   0x00010ea6   Section       10  qaudiodeviceinfo_symbian_p.o(t._ZNK5QListIiE4sizeEv)
    t._ZNK5QListIiE8containsERKi             0x00010eb0   Section       48  qaudiodeviceinfo.o(t._ZNK5QListIiE8containsERKi)
    .extab._ZN12QAudioFormatC1Ev             0x00010ee0   Data           0  qaudioformat.o(.ARM.extab)
    .extab._ZN18QSharedDataPointerI19QAudioFormatPrivateE13detach_helperEv 0x00010ef0   Data           0  qaudioformat.o(.ARM.extab)
    .extab._ZN16QAudioDeviceInfoC1Ev         0x00010f00   Data           0  qaudiodeviceinfo.o(.ARM.extab)
    .extab._ZNK16QAudioDeviceInfo10deviceNameEv 0x00010f18   Data           0  qaudiodeviceinfo.o(.ARM.extab)
    .extab._ZNK16QAudioDeviceInfo15preferredFormatEv 0x00010f38   Data           0  qaudiodeviceinfo.o(.ARM.extab)
    .extab._ZNK16QAudioDeviceInfo20supportedSampleSizesEv 0x00010f58   Data           0  qaudiodeviceinfo.o(.ARM.extab)
    .extab._ZNK16QAudioDeviceInfo20supportedFrequenciesEv 0x00010f78   Data           0  qaudiodeviceinfo.o(.ARM.extab)
    .extab._ZNK16QAudioDeviceInfo13nearestFormatERK12QAudioFormat 0x00010f98   Data           0  qaudiodeviceinfo.o(.ARM.extab)
    .extab._ZNK16QAudioDeviceInfo15supportedCodecsEv 0x00011058   Data           0  qaudiodeviceinfo.o(.ARM.extab)
    .extab._ZNK16QAudioDeviceInfo17supportedChannelsEv 0x00011078   Data           0  qaudiodeviceinfo.o(.ARM.extab)
    .extab._ZNK16QAudioDeviceInfo19supportedByteOrdersEv 0x00011098   Data           0  qaudiodeviceinfo.o(.ARM.extab)
    .extab._ZNK16QAudioDeviceInfo20supportedSampleTypesEv 0x000110b8   Data           0  qaudiodeviceinfo.o(.ARM.extab)
    .extab._ZN16QAudioDeviceInfoC1ERK7QStringRK10QByteArrayN6QAudio4ModeE 0x000110d8   Data           0  qaudiodeviceinfo.o(.ARM.extab)
    .extab._Z20qForeachContainerNewI5QListIiEE17QForeachContainerIT_ERKS3_ 0x000110f8   Data           0  qaudiodeviceinfo.o(.ARM.extab)
    .extab._ZN23QAudioDeviceInfoPrivateD1Ev  0x00011108   Data           0  qaudiodeviceinfo.o(.ARM.extab)
    .extab._ZN5QListIN12QAudioFormat6EndianEE13detach_helperEi 0x00011120   Data           0  qaudiodeviceinfo.o(.ARM.extab)
    .extab._ZN5QListIN12QAudioFormat10SampleTypeEE13detach_helperEi 0x0001115c   Data           0  qaudiodeviceinfo.o(.ARM.extab)
    .extab._ZN5QListIiE13detach_helperEi     0x00011198   Data           0  qaudiodeviceinfo.o(.ARM.extab)
    .extab._ZN4QMapIiiE13detach_helperEv     0x000111b4   Data           0  qaudiodeviceinfo.o(.ARM.extab)
    .extab._ZN12QAudioOutputC1ERK12QAudioFormatP7QObject 0x000111d0   Data           0  qaudiooutput.o(.ARM.extab)
    .extab._ZN12QAudioOutputC1ERK16QAudioDeviceInfoRK12QAudioFormatP7QObject 0x000111e0   Data           0  qaudiooutput.o(.ARM.extab)
    .extab._ZN12QAudioOutputD1Ev             0x000111f0   Data           0  qaudiooutput.o(.ARM.extab)
    .extab._ZN11QAudioInputC1ERK12QAudioFormatP7QObject 0x00011200   Data           0  qaudioinput.o(.ARM.extab)
    .extab._ZN11QAudioInputC1ERK16QAudioDeviceInfoRK12QAudioFormatP7QObject 0x00011210   Data           0  qaudioinput.o(.ARM.extab)
    .extab._ZN11QAudioInputD1Ev              0x00011220   Data           0  qaudioinput.o(.ARM.extab)
    .extab._Z6loaderv                        0x00011230   Data           0  qaudiodevicefactory.o(.ARM.extab)
    .extab._ZN19QAudioDeviceFactory16availableDevicesEN6QAudio4ModeE 0x00011258   Data           0  qaudiodevicefactory.o(.ARM.extab)
    .extab._ZN19QAudioDeviceFactory18defaultInputDeviceEv 0x00011300   Data           0  qaudiodevicefactory.o(.ARM.extab)
    .extab._ZN19QAudioDeviceFactory19defaultOutputDeviceEv 0x00011340   Data           0  qaudiodevicefactory.o(.ARM.extab)
    .extab._ZN19QAudioDeviceFactory15audioDeviceInfoERK7QStringRK10QByteArrayN6QAudio4ModeE 0x00011380   Data           0  qaudiodevicefactory.o(.ARM.extab)
    .extab._ZN19QAudioDeviceFactory17createInputDeviceERK16QAudioDeviceInfoRK12QAudioFormat 0x000113a8   Data           0  qaudiodevicefactory.o(.ARM.extab)
    .extab._ZN19QAudioDeviceFactory24createDefaultInputDeviceERK12QAudioFormat 0x000113f0   Data           0  qaudiodevicefactory.o(.ARM.extab)
    .extab._ZN19QAudioDeviceFactory18createOutputDeviceERK16QAudioDeviceInfoRK12QAudioFormat 0x00011400   Data           0  qaudiodevicefactory.o(.ARM.extab)
    .extab._ZN19QAudioDeviceFactory25createDefaultOutputDeviceERK12QAudioFormat 0x00011448   Data           0  qaudiodevicefactory.o(.ARM.extab)
    .extab._Z8qWarningv                      0x00011458   Data           0  qaudiodevicefactory.o(.ARM.extab)
    .extab._Z20qForeachContainerNewI5QListI10QByteArrayEE17QForeachContainerIT_ERKS4_ 0x00011470   Data           0  qaudiodevicefactory.o(.ARM.extab)
    .extab._ZN6QDebugD1Ev                    0x00011480   Data           0  qaudiodevicefactory.o(.ARM.extab)
    .extab._ZN5QListI16QAudioDeviceInfoE14node_constructEPNS1_4NodeERKS0_ 0x000114a4   Data           0  qaudiodevicefactory.o(.ARM.extab)
    .extab._ZN5QListI16QAudioDeviceInfoE9node_copyEPNS1_4NodeES3_S3_ 0x000114b4   Data           0  qaudiodevicefactory.o(.ARM.extab)
    .extab._ZN5QListI16QAudioDeviceInfoE18detach_helper_growEii 0x000114d8   Data           0  qaudiodevicefactory.o(.ARM.extab)
    .extab._ZN5QListI10QByteArrayE13detach_helperEi 0x00011508   Data           0  qaudiodevicefactory.o(.ARM.extab)
    .extab._ZN5QListI16QAudioDeviceInfoE6appendERKS0_ 0x0001154c   Data           0  qaudiodevicefactory.o(.ARM.extab)
    .extab._ZNK15QNullDeviceInfo15preferredFormatEv 0x0001157c   Data           0  qaudiodevicefactory.o(.ARM.extab)
    .extab._ZN16QNullInputDevice5startEP9QIODevice 0x0001158c   Data           0  qaudiodevicefactory.o(.ARM.extab)
    .extab._ZN17QNullOutputDevice5startEP9QIODevice 0x0001159c   Data           0  qaudiodevicefactory.o(.ARM.extab)
    .extab._ZN12SymbianAudio15DevSoundWrapper18getSupportedCodecsEv 0x000115ac   Data           0  qaudio_symbian_p.o(.ARM.extab)
    .extab._ZN12SymbianAudio15DevSoundWrapperC1EN6QAudio4ModeEP7QObject 0x000115bc   Data           0  qaudio_symbian_p.o(.ARM.extab)
    .extab._ZN12SymbianAudio15DevSoundWrapperD1Ev 0x0001161c   Data           0  qaudio_symbian_p.o(.ARM.extab)
    .extab._ZN12SymbianAudio15DevSoundWrapper10initializeERK7QString 0x0001165c   Data           0  qaudio_symbian_p.o(.ARM.extab)
    .extab._ZNK12SymbianAudio15DevSoundWrapper17isFormatSupportedERK12QAudioFormat 0x00011684   Data           0  qaudio_symbian_p.o(.ARM.extab)
    .extab._ZN12SymbianAudio5Utils16formatQtToNativeERK12QAudioFormatRmR16TMMFCapabilities 0x00011694   Data           0  qaudio_symbian_p.o(.ARM.extab)
    .extab._ZN12SymbianAudio15DevSoundWrapper9setFormatERK12QAudioFormat 0x000116a4   Data           0  qaudio_symbian_p.o(.ARM.extab)
    .extab._ZN12SymbianAudio15DevSoundWrapper5startEv 0x000116cc   Data           0  qaudio_symbian_p.o(.ARM.extab)
    .extab._ZN5QListI7QStringE9node_copyEPNS1_4NodeES3_S3_ 0x00011714   Data           0  qaudio_symbian_p.o(.ARM.extab)
    .extab._ZN5QListI7QStringE18detach_helper_growEii 0x00011738   Data           0  qaudio_symbian_p.o(.ARM.extab)
    .extab._ZN5QListIN12QAudioFormat10SampleTypeEE9node_copyEPNS2_4NodeES4_S4_ 0x00011768   Data           0  qaudio_symbian_p.o(.ARM.extab)
    .extab._ZN5QListIN12QAudioFormat10SampleTypeEE18detach_helper_growEii 0x00011784   Data           0  qaudio_symbian_p.o(.ARM.extab)
    .extab._ZN5QListIN12QAudioFormat6EndianEE9node_copyEPNS2_4NodeES4_S4_ 0x000117b4   Data           0  qaudio_symbian_p.o(.ARM.extab)
    .extab._ZN5QListIN12QAudioFormat6EndianEE18detach_helper_growEii 0x000117d0   Data           0  qaudio_symbian_p.o(.ARM.extab)
    .extab._ZN5QListIiE18detach_helper_growEii 0x00011800   Data           0  qaudio_symbian_p.o(.ARM.extab)
    .extab._ZN5QListIiEpLERKi                0x00011830   Data           0  qaudio_symbian_p.o(.ARM.extab)
    .extab._ZN5QListIN12QAudioFormat10SampleTypeEE5clearEv 0x0001184c   Data           0  qaudio_symbian_p.o(.ARM.extab)
    .extab._ZN5QListIN12QAudioFormat6EndianEE5clearEv 0x0001185c   Data           0  qaudio_symbian_p.o(.ARM.extab)
    .extab._ZN5QListIiE5clearEv              0x0001186c   Data           0  qaudio_symbian_p.o(.ARM.extab)
    .extab._ZN5QListI7QStringE6appendERKS0_  0x0001187c   Data           0  qaudio_symbian_p.o(.ARM.extab)
    .extab._ZN5QListIN12QAudioFormat10SampleTypeEE6appendERKS1_ 0x000118ac   Data           0  qaudio_symbian_p.o(.ARM.extab)
    .extab._ZN5QListIN12QAudioFormat6EndianEE6appendERKS1_ 0x000118dc   Data           0  qaudio_symbian_p.o(.ARM.extab)
    .extab._ZN5QListIN12QAudioFormat10SampleTypeEE13detach_helperEv 0x0001190c   Data           0  qaudio_symbian_p.o(.ARM.extab)
    .extab._ZN5QListIN12QAudioFormat6EndianEE13detach_helperEv 0x00011928   Data           0  qaudio_symbian_p.o(.ARM.extab)
    .extab._ZN5QListI7QStringE14node_constructEPNS1_4NodeERKS0_ 0x00011944   Data           0  qaudio_symbian_p.o(.ARM.extab)
    .extab._ZN24QAudioDeviceInfoInternalC1E10QByteArrayN6QAudio4ModeE 0x00011954   Data           0  qaudiodeviceinfo_symbian_p.o(.ARM.extab)
    .extab._ZN24QAudioDeviceInfoInternalD1Ev 0x00011974   Data           0  qaudiodeviceinfo_symbian_p.o(.ARM.extab)
    .extab._ZNK24QAudioDeviceInfoInternal15preferredFormatEv 0x00011994   Data           0  qaudiodeviceinfo_symbian_p.o(.ARM.extab)
    .extab._ZNK24QAudioDeviceInfoInternal19getSupportedFormatsEv 0x00011a04   Data           0  qaudiodeviceinfo_symbian_p.o(.ARM.extab)
    .extab._ZNK24QAudioDeviceInfoInternal17isFormatSupportedERK12QAudioFormat 0x00011a2c   Data           0  qaudiodeviceinfo_symbian_p.o(.ARM.extab)
    .extab._ZN24QAudioDeviceInfoInternal9codecListEv 0x00011a44   Data           0  qaudiodeviceinfo_symbian_p.o(.ARM.extab)
    .extab._ZN24QAudioDeviceInfoInternal16availableDevicesEN6QAudio4ModeE 0x00011a54   Data           0  qaudiodeviceinfo_symbian_p.o(.ARM.extab)
    .extab._ZN5QListI7QStringE13detach_helperEi 0x00011a74   Data           0  qaudiodeviceinfo_symbian_p.o(.ARM.extab)
    .extab._Z12appendUniqueIiEvR5QListIT_ERKS2_ 0x00011a90   Data           0  qaudiodeviceinfo_symbian_p.o(.ARM.extab)
    .extab._Z12appendUniqueIN12QAudioFormat6EndianEEvR5QListIT_ERKS4_ 0x00011ac4   Data           0  qaudiodeviceinfo_symbian_p.o(.ARM.extab)
    .extab._Z12appendUniqueIN12QAudioFormat10SampleTypeEEvR5QListIT_ERKS4_ 0x00011adc   Data           0  qaudiodeviceinfo_symbian_p.o(.ARM.extab)
    .extab._ZN24QAudioDeviceInfoInternal12CapabilitiesD1Ev 0x00011af4   Data           0  qaudiodeviceinfo_symbian_p.o(.ARM.extab)
    .extab._ZN24QAudioDeviceInfoInternal12CapabilitiesC1Ev 0x00011b1c   Data           0  qaudiodeviceinfo_symbian_p.o(.ARM.extab)
    .extab._ZN4QMapI7QStringN24QAudioDeviceInfoInternal12CapabilitiesEE11node_createEP8QMapDataPPNS4_4NodeERKS0_RKS2_ 0x00011b44   Data           0  qaudiodeviceinfo_symbian_p.o(.ARM.extab)
    .extab._ZN4QMapI7QStringN24QAudioDeviceInfoInternal12CapabilitiesEEixERKS0_ 0x00011bb0   Data           0  qaudiodeviceinfo_symbian_p.o(.ARM.extab)
    .extab._ZN5QListI10QByteArrayE9node_copyEPNS1_4NodeES3_S3_ 0x00011bc0   Data           0  qaudiodeviceinfo_symbian_p.o(.ARM.extab)
    .extab._ZN5QListI10QByteArrayE18detach_helper_growEii 0x00011be4   Data           0  qaudiodeviceinfo_symbian_p.o(.ARM.extab)
    .extab._ZN4QMapI7QStringN24QAudioDeviceInfoInternal12CapabilitiesEE13detach_helperEv 0x00011c14   Data           0  qaudiodeviceinfo_symbian_p.o(.ARM.extab)
    .extab._ZNK4QMapI7QStringN24QAudioDeviceInfoInternal12CapabilitiesEE4keysEv 0x00011c30   Data           0  qaudiodeviceinfo_symbian_p.o(.ARM.extab)
    .extab._ZN5QListI10QByteArrayE6appendERKS0_ 0x00011c40   Data           0  qaudiodeviceinfo_symbian_p.o(.ARM.extab)
    .extab._ZN5QListI10QByteArrayE14node_constructEPNS1_4NodeERKS0_ 0x00011c70   Data           0  qaudiodeviceinfo_symbian_p.o(.ARM.extab)
    .extab._ZN18QAudioInputPrivateC1ERK10QByteArrayRK12QAudioFormat 0x00011c80   Data           0  qaudioinput_symbian_p.o(.ARM.extab)
    .extab._ZN18QAudioInputPrivateD1Ev       0x00011cc8   Data           0  qaudioinput_symbian_p.o(.ARM.extab)
    .extab._ZN18QAudioInputPrivate4openEv    0x00011d00   Data           0  qaudioinput_symbian_p.o(.ARM.extab)
    .extab._ZN18QAudioInputPrivate5startEP9QIODevice 0x00011d18   Data           0  qaudioinput_symbian_p.o(.ARM.extab)
    .extab._ZN5QListIP14CMMFDataBufferE13detach_helperEv 0x00011d28   Data           0  qaudioinput_symbian_p.o(.ARM.extab)
    .extab._ZN5QListIP14CMMFDataBufferE5clearEv 0x00011d44   Data           0  qaudioinput_symbian_p.o(.ARM.extab)
    .extab._ZN5QListIP14CMMFDataBufferE18detach_helper_growEii 0x00011d54   Data           0  qaudioinput_symbian_p.o(.ARM.extab)
    .extab._ZN5QListIP14CMMFDataBufferE6appendERKS1_ 0x00011d84   Data           0  qaudioinput_symbian_p.o(.ARM.extab)
    .extab._ZN19QAudioOutputPrivateC1ERK10QByteArrayRK12QAudioFormat 0x00011da0   Data           0  qaudiooutput_symbian_p.o(.ARM.extab)
    .extab._ZN19QAudioOutputPrivateD1Ev      0x00011de0   Data           0  qaudiooutput_symbian_p.o(.ARM.extab)
    .extab._ZN19QAudioOutputPrivate4openEv   0x00011e10   Data           0  qaudiooutput_symbian_p.o(.ARM.extab)
    .extab._ZN19QAudioOutputPrivate5startEP9QIODevice 0x00011e28   Data           0  qaudiooutput_symbian_p.o(.ARM.extab)
    .extab._ZN21QAbstractVideoSurfaceC2EP7QObject 0x00011e38   Data           0  qabstractvideosurface.o(.ARM.extab)
    .extab._ZNK21QAbstractVideoSurface17isFormatSupportedERK19QVideoSurfaceFormat 0x00011e50   Data           0  qabstractvideosurface.o(.ARM.extab)
    .extab._ZNK21QAbstractVideoSurface13nearestFormatERK19QVideoSurfaceFormat 0x00011e60   Data           0  qabstractvideosurface.o(.ARM.extab)
    .extab._ZN21QAbstractVideoSurface4stopEv 0x00011e70   Data           0  qabstractvideosurface.o(.ARM.extab)
    .extab._ZN28QAbstractVideoSurfacePrivateD1Ev 0x00011e80   Data           0  qabstractvideosurface.o(.ARM.extab)
    .extab._ZN17QImageVideoBufferC1ERK6QImage 0x00011e90   Data           0  qimagevideobuffer.o(.ARM.extab)
    .extab._ZN24QImageVideoBufferPrivateD1Ev 0x00011ea8   Data           0  qimagevideobuffer.o(.ARM.extab)
    .extab._ZN18QMemoryVideoBufferC1ERK10QByteArrayi 0x00011eb8   Data           0  qmemoryvideobuffer.o(.ARM.extab)
    .extab._ZN25QMemoryVideoBufferPrivateD1Ev 0x00011ed0   Data           0  qmemoryvideobuffer.o(.ARM.extab)
    .extab._ZN11QVideoFrameC1Ev              0x00011ee0   Data           0  qvideoframe.o(.ARM.extab)
    .extab._ZN11QVideoFrameC1EP20QAbstractVideoBufferRK5QSizeNS_11PixelFormatE 0x00011ef0   Data           0  qvideoframe.o(.ARM.extab)
    .extab._ZN11QVideoFrameC1EiRK5QSizeiNS_11PixelFormatE 0x00011f00   Data           0  qvideoframe.o(.ARM.extab)
    .extab._ZN11QVideoFrameC1ERK6QImage      0x00011f28   Data           0  qvideoframe.o(.ARM.extab)
    .extab._ZNK11QVideoFrame6handleEv        0x00011f40   Data           0  qvideoframe.o(.ARM.extab)
    .extab._ZNK19QVideoSurfaceFormat8propertyEPKc 0x00011f58   Data           0  qvideosurfaceformat.o(.ARM.extab)
    .extab._ZNK19QVideoSurfaceFormat13propertyNamesEv 0x00011f68   Data           0  qvideosurfaceformat.o(.ARM.extab)
    .extab._Zls6QDebugRK19QVideoSurfaceFormat 0x00012020   Data           0  qvideosurfaceformat.o(.ARM.extab)
    .extab._ZN19QVideoSurfaceFormatC1Ev      0x000120c8   Data           0  qvideosurfaceformat.o(.ARM.extab)
    .extab._ZN19QVideoSurfaceFormatC1ERK5QSizeN11QVideoFrame11PixelFormatEN20QAbstractVideoBuffer10HandleTypeE 0x000120e0   Data           0  qvideosurfaceformat.o(.ARM.extab)
    .extab._ZN19QVideoSurfaceFormat11setPropertyEPKcRK8QVariant 0x000120f8   Data           0  qvideosurfaceformat.o(.ARM.extab)
    .extab._ZN6QDebuglsEPKc                  0x00012108   Data           0  qvideosurfaceformat.o(.ARM.extab)
    .extab._ZN5QListI10QByteArrayE13detach_helperEv 0x00012118   Data           0  qvideosurfaceformat.o(.ARM.extab)
    .extab._ZN5QListI10QByteArrayEpLERKS1_   0x00012134   Data           0  qvideosurfaceformat.o(.ARM.extab)
    .extab._ZN7QStringaSERK13QLatin1String   0x00012150   Data           0  qvideosurfaceformat.o(.ARM.extab)
    .extab._ZN5QListI8QVariantE9node_copyEPNS1_4NodeES3_S3_ 0x00012160   Data           0  qvideosurfaceformat.o(.ARM.extab)
    .extab._ZN5QListI8QVariantE13detach_helperEv 0x00012184   Data           0  qvideosurfaceformat.o(.ARM.extab)
    .extab._ZN18QSharedDataPointerI26QVideoSurfaceFormatPrivateEptEv 0x000121a0   Data           0  qvideosurfaceformat.o(.ARM.extab)
    .extab._ZN5QListI8QVariantE14node_constructEPNS1_4NodeERKS0_ 0x000121b0   Data           0  qvideosurfaceformat.o(.ARM.extab)
    .extab._ZN5QListI8QVariantE18detach_helper_growEii 0x000121c0   Data           0  qvideosurfaceformat.o(.ARM.extab)
    .extab._ZN26QVideoSurfaceFormatPrivateD1Ev 0x000121f0   Data           0  qvideosurfaceformat.o(.ARM.extab)
    .extab._ZN26QVideoSurfaceFormatPrivateC1ERKS_ 0x00012200   Data           0  qvideosurfaceformat.o(.ARM.extab)
    .extab._ZN5QListI8QVariantE6appendERKS0_ 0x00012210   Data           0  qvideosurfaceformat.o(.ARM.extab)
    .constdata$1                             0x00012240   Data           0  qaudiodevicefactory.o(.constdata)
    .constdata                               0x00012240   Section       42  qaudiodevicefactory.o(.constdata)
    .constdata$1                             0x0001226c   Data           0  qaudio_symbian_p.o(.constdata)
    SymbianAudio::Utils::ChannelsListNative  0x0001226c   Data           8  qaudio_symbian_p.o(.constdata)
    .constdata                               0x0001226c   Section      232  qaudio_symbian_p.o(.constdata)
    SymbianAudio::Utils::ChannelsListQt      0x00012274   Data           8  qaudio_symbian_p.o(.constdata)
    SymbianAudio::Utils::SampleRateListNative 0x0001227c   Data          48  qaudio_symbian_p.o(.constdata)
    SymbianAudio::Utils::SampleRateListQt    0x000122ac   Data          48  qaudio_symbian_p.o(.constdata)
    SymbianAudio::Utils::EncodingFourCC      0x000122dc   Data          24  qaudio_symbian_p.o(.constdata)
    SymbianAudio::Utils::EncodingNative      0x000122f4   Data          24  qaudio_symbian_p.o(.constdata)
    SymbianAudio::Utils::EncodingSampleSize  0x0001230c   Data          24  qaudio_symbian_p.o(.constdata)
    SymbianAudio::Utils::EncodingByteOrder   0x00012324   Data          24  qaudio_symbian_p.o(.constdata)
    SymbianAudio::Utils::EncodingSampleType  0x0001233c   Data          24  qaudio_symbian_p.o(.constdata)
    .constdata$1                             0x00012354   Data           0  moc_qaudioinput.o(.constdata)
    qt_meta_stringdata_QAudioInput           0x00012354   Data          51  moc_qaudioinput.o(.constdata)
    .constdata                               0x00012354   Section       68  moc_qaudioinput.o(.constdata)
    .constdata$10                            0x00012398   Data           0  moc_qaudioinput.o(.constdata)
    qt_meta_data_QAudioInput                 0x00012398   Data         100  moc_qaudioinput.o(.constdata)
    .constdata                               0x00012398   Section      100  moc_qaudioinput.o(.constdata)
    .constdata$1                             0x000123fc   Data           0  moc_qaudiooutput.o(.constdata)
    qt_meta_stringdata_QAudioOutput          0x000123fc   Data          52  moc_qaudiooutput.o(.constdata)
    .constdata                               0x000123fc   Section       68  moc_qaudiooutput.o(.constdata)
    .constdata$10                            0x00012440   Data           0  moc_qaudiooutput.o(.constdata)
    qt_meta_data_QAudioOutput                0x00012440   Data         100  moc_qaudiooutput.o(.constdata)
    .constdata                               0x00012440   Section      100  moc_qaudiooutput.o(.constdata)
    .constdata$1                             0x000124a4   Data           0  moc_qaudioengineplugin.o(.constdata)
    qt_meta_stringdata_QAudioEnginePlugin    0x000124a4   Data          20  moc_qaudioengineplugin.o(.constdata)
    .constdata                               0x000124a4   Section       36  moc_qaudioengineplugin.o(.constdata)
    .constdata$10                            0x000124c8   Data           0  moc_qaudioengineplugin.o(.constdata)
    qt_meta_data_QAudioEnginePlugin          0x000124c8   Data          60  moc_qaudioengineplugin.o(.constdata)
    .constdata                               0x000124c8   Section       60  moc_qaudioengineplugin.o(.constdata)
    .constdata$1                             0x00012504   Data           0  moc_qaudioengine.o(.constdata)
    qt_meta_stringdata_QAbstractAudioDeviceInfo 0x00012504   Data          26  moc_qaudioengine.o(.constdata)
    .constdata                               0x00012504   Section      196  moc_qaudioengine.o(.constdata)
    qt_meta_stringdata_QAbstractAudioOutput  0x0001251e   Data          60  moc_qaudioengine.o(.constdata)
    qt_meta_stringdata_QAbstractAudioInput   0x0001255a   Data          59  moc_qaudioengine.o(.constdata)
    .constdata$16                            0x000125c8   Data           0  moc_qaudioengine.o(.constdata)
    qt_meta_data_QAbstractAudioDeviceInfo    0x000125c8   Data          60  moc_qaudioengine.o(.constdata)
    .constdata                               0x000125c8   Section       60  moc_qaudioengine.o(.constdata)
    .constdata$22                            0x00012604   Data           0  moc_qaudioengine.o(.constdata)
    qt_meta_data_QAbstractAudioOutput        0x00012604   Data         100  moc_qaudioengine.o(.constdata)
    .constdata                               0x00012604   Section      100  moc_qaudioengine.o(.constdata)
    .constdata$28                            0x00012668   Data           0  moc_qaudioengine.o(.constdata)
    qt_meta_data_QAbstractAudioInput         0x00012668   Data         100  moc_qaudioengine.o(.constdata)
    .constdata                               0x00012668   Section      100  moc_qaudioengine.o(.constdata)
    .constdata$1                             0x000126cc   Data           0  moc_qaudio_symbian_p.o(.constdata)
    qt_meta_stringdata_SymbianAudio__DevSoundWrapper 0x000126cc   Data         123  moc_qaudio_symbian_p.o(.constdata)
    .constdata                               0x000126cc   Section      140  moc_qaudio_symbian_p.o(.constdata)
    .constdata$10                            0x00012758   Data           0  moc_qaudio_symbian_p.o(.constdata)
    qt_meta_data_SymbianAudio__DevSoundWrapper 0x00012758   Data         120  moc_qaudio_symbian_p.o(.constdata)
    .constdata                               0x00012758   Section      120  moc_qaudio_symbian_p.o(.constdata)
    .constdata$1                             0x000127d0   Data           0  moc_qaudiodeviceinfo_symbian_p.o(.constdata)
    qt_meta_stringdata_QAudioDeviceInfoInternal 0x000127d0   Data          63  moc_qaudiodeviceinfo_symbian_p.o(.constdata)
    .constdata                               0x000127d0   Section       80  moc_qaudiodeviceinfo_symbian_p.o(.constdata)
    .constdata$10                            0x00012820   Data           0  moc_qaudiodeviceinfo_symbian_p.o(.constdata)
    qt_meta_data_QAudioDeviceInfoInternal    0x00012820   Data          80  moc_qaudiodeviceinfo_symbian_p.o(.constdata)
    .constdata                               0x00012820   Section       80  moc_qaudiodeviceinfo_symbian_p.o(.constdata)
    .constdata$1                             0x00012870   Data           0  moc_qaudioinput_symbian_p.o(.constdata)
    qt_meta_stringdata_SymbianAudioInputPrivate 0x00012870   Data          26  moc_qaudioinput_symbian_p.o(.constdata)
    .constdata                               0x00012870   Section      200  moc_qaudioinput_symbian_p.o(.constdata)
    qt_meta_stringdata_QAudioInputPrivate    0x0001288a   Data         140  moc_qaudioinput_symbian_p.o(.constdata)
    .constdata$13                            0x00012938   Data           0  moc_qaudioinput_symbian_p.o(.constdata)
    qt_meta_data_SymbianAudioInputPrivate    0x00012938   Data          60  moc_qaudioinput_symbian_p.o(.constdata)
    .constdata                               0x00012938   Section       60  moc_qaudioinput_symbian_p.o(.constdata)
    .constdata$19                            0x00012974   Data           0  moc_qaudioinput_symbian_p.o(.constdata)
    qt_meta_data_QAudioInputPrivate          0x00012974   Data         160  moc_qaudioinput_symbian_p.o(.constdata)
    .constdata                               0x00012974   Section      160  moc_qaudioinput_symbian_p.o(.constdata)
    .constdata$1                             0x00012a14   Data           0  moc_qaudiooutput_symbian_p.o(.constdata)
    qt_meta_stringdata_SymbianAudioOutputPrivate 0x00012a14   Data          27  moc_qaudiooutput_symbian_p.o(.constdata)
    .constdata                               0x00012a14   Section      224  moc_qaudiooutput_symbian_p.o(.constdata)
    qt_meta_stringdata_QAudioOutputPrivate   0x00012a2f   Data         163  moc_qaudiooutput_symbian_p.o(.constdata)
    .constdata$13                            0x00012af4   Data           0  moc_qaudiooutput_symbian_p.o(.constdata)
    qt_meta_data_SymbianAudioOutputPrivate   0x00012af4   Data          60  moc_qaudiooutput_symbian_p.o(.constdata)
    .constdata                               0x00012af4   Section       60  moc_qaudiooutput_symbian_p.o(.constdata)
    .constdata$19                            0x00012b30   Data           0  moc_qaudiooutput_symbian_p.o(.constdata)
    qt_meta_data_QAudioOutputPrivate         0x00012b30   Data         180  moc_qaudiooutput_symbian_p.o(.constdata)
    .constdata                               0x00012b30   Section      180  moc_qaudiooutput_symbian_p.o(.constdata)
    .constdata$1                             0x00012be4   Data           0  moc_qabstractvideosurface.o(.constdata)
    qt_meta_stringdata_QAbstractVideoSurface 0x00012be4   Data         126  moc_qabstractvideosurface.o(.constdata)
    .constdata                               0x00012be4   Section      144  moc_qabstractvideosurface.o(.constdata)
    .constdata$10                            0x00012c74   Data           0  moc_qabstractvideosurface.o(.constdata)
    qt_meta_data_QAbstractVideoSurface       0x00012c74   Data         120  moc_qabstractvideosurface.o(.constdata)
    .constdata                               0x00012c74   Section      120  moc_qabstractvideosurface.o(.constdata)
    .constdata__ZN9stlp_priv15_Integer_limitsIaLan128ELa127ELin1ELb1EE6digitsE 0x00012cec   Section        4  qaudio.o(.constdata__ZN9stlp_priv15_Integer_limitsIaLan128ELa127ELin1ELb1EE6digitsE)
    .constdata__ZN9stlp_priv15_Integer_limitsIbLb0ELb1ELi1ELb0EE6digitsE 0x00012cf0   Section        4  qaudio.o(.constdata__ZN9stlp_priv15_Integer_limitsIbLb0ELb1ELi1ELb0EE6digitsE)
    .constdata__ZN9stlp_priv15_Integer_limitsIcLc128ELc127ELin1ELb1EE6digitsE 0x00012cf4   Section        4  qaudio.o(.constdata__ZN9stlp_priv15_Integer_limitsIcLc128ELc127ELin1ELb1EE6digitsE)
    .constdata__ZN9stlp_priv15_Integer_limitsIhLh0ELh255ELin1ELb1EE6digitsE 0x00012cf8   Section        4  qaudio.o(.constdata__ZN9stlp_priv15_Integer_limitsIhLh0ELh255ELin1ELb1EE6digitsE)
    .constdata__ZN9stlp_priv15_Integer_limitsIiLin2147483648ELi2147483647ELin1ELb1EE6digitsE 0x00012cfc   Section        4  qaudio.o(.constdata__ZN9stlp_priv15_Integer_limitsIiLin2147483648ELi2147483647ELin1ELb1EE6digitsE)
    .constdata__ZN9stlp_priv15_Integer_limitsIiLin2147483648ELi2147483647ELin1ELb1EE9is_signedE 0x00012d00   Section        1  qaudio.o(.constdata__ZN9stlp_priv15_Integer_limitsIiLin2147483648ELi2147483647ELin1ELb1EE9is_signedE)
    .constdata__ZN9stlp_priv15_Integer_limitsIjLj0ELj4294967295ELin1ELb1EE6digitsE 0x00012d04   Section        4  qaudio.o(.constdata__ZN9stlp_priv15_Integer_limitsIjLj0ELj4294967295ELin1ELb1EE6digitsE)
    .constdata__ZN9stlp_priv15_Integer_limitsIlLln2147483648ELl2147483647ELin1ELb1EE6digitsE 0x00012d08   Section        4  qaudio.o(.constdata__ZN9stlp_priv15_Integer_limitsIlLln2147483648ELl2147483647ELin1ELb1EE6digitsE)
    .constdata__ZN9stlp_priv15_Integer_limitsImLm0ELm4294967295ELin1ELb1EE6digitsE 0x00012d0c   Section        4  qaudio.o(.constdata__ZN9stlp_priv15_Integer_limitsImLm0ELm4294967295ELin1ELb1EE6digitsE)
    .constdata__ZN9stlp_priv15_Integer_limitsIsLsn32768ELs32767ELin1ELb1EE6digitsE 0x00012d10   Section        4  qaudio.o(.constdata__ZN9stlp_priv15_Integer_limitsIsLsn32768ELs32767ELin1ELb1EE6digitsE)
    .constdata__ZN9stlp_priv15_Integer_limitsItLt0ELt65535ELin1ELb1EE6digitsE 0x00012d14   Section        4  qaudio.o(.constdata__ZN9stlp_priv15_Integer_limitsItLt0ELt65535ELin1ELb1EE6digitsE)
    .constdata__ZN9stlp_priv15_Integer_limitsIwLw0ELw65535ELin1ELb1EE6digitsE 0x00012d18   Section        4  qaudio.o(.constdata__ZN9stlp_priv15_Integer_limitsIwLw0ELw65535ELin1ELb1EE6digitsE)
    .constdata__ZN9stlp_priv15_Integer_limitsIxLxn9223372036854775808ELx9223372036854775807ELin1ELb1EE6digitsE 0x00012d1c   Section        4  qaudio.o(.constdata__ZN9stlp_priv15_Integer_limitsIxLxn9223372036854775808ELx9223372036854775807ELin1ELb1EE6digitsE)
    .constdata__ZN9stlp_priv15_Integer_limitsIyLy0ELy18446744073709551615ELin1ELb1EE6digitsE 0x00012d20   Section        4  qaudio.o(.constdata__ZN9stlp_priv15_Integer_limitsIyLy0ELy18446744073709551615ELin1ELb1EE6digitsE)
    .constdata__ZTI11QAudioInput             0x00012d24   Section       12  moc_qaudioinput.o(.constdata__ZTI11QAudioInput)
    .constdata__ZTI12QAudioOutput            0x00012d30   Section       12  moc_qaudiooutput.o(.constdata__ZTI12QAudioOutput)
    .constdata__ZTI15QNullDeviceInfo         0x00012d3c   Section       12  qaudiodevicefactory.o(.constdata__ZTI15QNullDeviceInfo)
    .constdata__ZTI16QNullInputDevice        0x00012d48   Section       12  qaudiodevicefactory.o(.constdata__ZTI16QNullInputDevice)
    .constdata__ZTI17MDevSoundObserver       0x00012d54   Section        8  moc_qaudio_symbian_p.o(.constdata__ZTI17MDevSoundObserver)
    .constdata__ZTI17QFactoryInterface       0x00012d5c   Section        8  moc_qaudioengineplugin.o(.constdata__ZTI17QFactoryInterface)
    .constdata__ZTI17QImageVideoBuffer       0x00012d64   Section       12  qimagevideobuffer.o(.constdata__ZTI17QImageVideoBuffer)
    .constdata__ZTI17QNullOutputDevice       0x00012d70   Section       12  qaudiodevicefactory.o(.constdata__ZTI17QNullOutputDevice)
    .constdata__ZTI18QAudioEnginePlugin      0x00012d7c   Section       32  moc_qaudioengineplugin.o(.constdata__ZTI18QAudioEnginePlugin)
    .constdata__ZTI18QAudioInputPrivate      0x00012d9c   Section       12  moc_qaudioinput_symbian_p.o(.constdata__ZTI18QAudioInputPrivate)
    .constdata__ZTI18QMemoryVideoBuffer      0x00012da8   Section       12  qmemoryvideobuffer.o(.constdata__ZTI18QMemoryVideoBuffer)
    .constdata__ZTI19QAbstractAudioInput     0x00012db4   Section       12  moc_qaudioengine.o(.constdata__ZTI19QAbstractAudioInput)
    .constdata__ZTI19QAudioOutputPrivate     0x00012dc0   Section       12  moc_qaudiooutput_symbian_p.o(.constdata__ZTI19QAudioOutputPrivate)
    .constdata__ZTI20QAbstractAudioOutput    0x00012dcc   Section       12  moc_qaudioengine.o(.constdata__ZTI20QAbstractAudioOutput)
    .constdata__ZTI20QAbstractVideoBuffer    0x00012dd8   Section        8  qabstractvideobuffer.o(.constdata__ZTI20QAbstractVideoBuffer)
    .constdata__ZTI21QAbstractVideoSurface   0x00012de0   Section       12  moc_qabstractvideosurface.o(.constdata__ZTI21QAbstractVideoSurface)
    .constdata__ZTI24QAbstractAudioDeviceInfo 0x00012dec   Section       12  moc_qaudioengine.o(.constdata__ZTI24QAbstractAudioDeviceInfo)
    .constdata__ZTI24QAudioDeviceInfoInternal 0x00012df8   Section       12  moc_qaudiodeviceinfo_symbian_p.o(.constdata__ZTI24QAudioDeviceInfoInternal)
    .constdata__ZTI24QImageVideoBufferPrivate 0x00012e04   Section       12  qimagevideobuffer.o(.constdata__ZTI24QImageVideoBufferPrivate)
    .constdata__ZTI24SymbianAudioInputPrivate 0x00012e10   Section       12  moc_qaudioinput_symbian_p.o(.constdata__ZTI24SymbianAudioInputPrivate)
    .constdata__ZTI25QMemoryVideoBufferPrivate 0x00012e1c   Section       12  qmemoryvideobuffer.o(.constdata__ZTI25QMemoryVideoBufferPrivate)
    .constdata__ZTI25SymbianAudioOutputPrivate 0x00012e28   Section       12  moc_qaudiooutput_symbian_p.o(.constdata__ZTI25SymbianAudioOutputPrivate)
    .constdata__ZTI27QAbstractVideoBufferPrivate 0x00012e34   Section        8  qabstractvideobuffer.o(.constdata__ZTI27QAbstractVideoBufferPrivate)
    .constdata__ZTI28QAbstractVideoSurfacePrivate 0x00012e3c   Section       12  qabstractvideosurface.o(.constdata__ZTI28QAbstractVideoSurfacePrivate)
    .constdata__ZTI28QAudioEngineFactoryInterface 0x00012e48   Section       12  moc_qaudioengineplugin.o(.constdata__ZTI28QAudioEngineFactoryInterface)
    .constdata__ZTIN12SymbianAudio15DevSoundWrapperE 0x00012e54   Section       32  moc_qaudio_symbian_p.o(.constdata__ZTIN12SymbianAudio15DevSoundWrapperE)
    .constdata__ZTS11QAudioInput             0x00012e74   Section       14  moc_qaudioinput.o(.constdata__ZTS11QAudioInput)
    .constdata__ZTS12QAudioOutput            0x00012e82   Section       15  moc_qaudiooutput.o(.constdata__ZTS12QAudioOutput)
    .constdata__ZTS15QNullDeviceInfo         0x00012e91   Section       18  qaudiodevicefactory.o(.constdata__ZTS15QNullDeviceInfo)
    .constdata__ZTS16QNullInputDevice        0x00012ea3   Section       19  qaudiodevicefactory.o(.constdata__ZTS16QNullInputDevice)
    .constdata__ZTS17MDevSoundObserver       0x00012eb6   Section       20  moc_qaudio_symbian_p.o(.constdata__ZTS17MDevSoundObserver)
    .constdata__ZTS17QFactoryInterface       0x00012eca   Section       20  moc_qaudioengineplugin.o(.constdata__ZTS17QFactoryInterface)
    .constdata__ZTS17QImageVideoBuffer       0x00012ede   Section       20  qimagevideobuffer.o(.constdata__ZTS17QImageVideoBuffer)
    .constdata__ZTS17QNullOutputDevice       0x00012ef2   Section       20  qaudiodevicefactory.o(.constdata__ZTS17QNullOutputDevice)
    .constdata__ZTS18QAudioEnginePlugin      0x00012f06   Section       21  moc_qaudioengineplugin.o(.constdata__ZTS18QAudioEnginePlugin)
    .constdata__ZTS18QAudioInputPrivate      0x00012f1b   Section       21  moc_qaudioinput_symbian_p.o(.constdata__ZTS18QAudioInputPrivate)
    .constdata__ZTS18QMemoryVideoBuffer      0x00012f30   Section       21  qmemoryvideobuffer.o(.constdata__ZTS18QMemoryVideoBuffer)
    .constdata__ZTS19QAbstractAudioInput     0x00012f45   Section       22  moc_qaudioengine.o(.constdata__ZTS19QAbstractAudioInput)
    .constdata__ZTS19QAudioOutputPrivate     0x00012f5b   Section       22  moc_qaudiooutput_symbian_p.o(.constdata__ZTS19QAudioOutputPrivate)
    .constdata__ZTS20QAbstractAudioOutput    0x00012f71   Section       23  moc_qaudioengine.o(.constdata__ZTS20QAbstractAudioOutput)
    .constdata__ZTS20QAbstractVideoBuffer    0x00012f88   Section       23  qabstractvideobuffer.o(.constdata__ZTS20QAbstractVideoBuffer)
    .constdata__ZTS21QAbstractVideoSurface   0x00012f9f   Section       24  moc_qabstractvideosurface.o(.constdata__ZTS21QAbstractVideoSurface)
    .constdata__ZTS24QAbstractAudioDeviceInfo 0x00012fb7   Section       27  moc_qaudioengine.o(.constdata__ZTS24QAbstractAudioDeviceInfo)
    .constdata__ZTS24QAudioDeviceInfoInternal 0x00012fd2   Section       27  moc_qaudiodeviceinfo_symbian_p.o(.constdata__ZTS24QAudioDeviceInfoInternal)
    .constdata__ZTS24QImageVideoBufferPrivate 0x00012fed   Section       27  qimagevideobuffer.o(.constdata__ZTS24QImageVideoBufferPrivate)
    .constdata__ZTS24SymbianAudioInputPrivate 0x00013008   Section       27  moc_qaudioinput_symbian_p.o(.constdata__ZTS24SymbianAudioInputPrivate)
    .constdata__ZTS25QMemoryVideoBufferPrivate 0x00013023   Section       28  qmemoryvideobuffer.o(.constdata__ZTS25QMemoryVideoBufferPrivate)
    .constdata__ZTS25SymbianAudioOutputPrivate 0x0001303f   Section       28  moc_qaudiooutput_symbian_p.o(.constdata__ZTS25SymbianAudioOutputPrivate)
    .constdata__ZTS27QAbstractVideoBufferPrivate 0x0001305b   Section       30  qabstractvideobuffer.o(.constdata__ZTS27QAbstractVideoBufferPrivate)
    .constdata__ZTS28QAbstractVideoSurfacePrivate 0x00013079   Section       31  qabstractvideosurface.o(.constdata__ZTS28QAbstractVideoSurfacePrivate)
    .constdata__ZTS28QAudioEngineFactoryInterface 0x00013098   Section       31  moc_qaudioengineplugin.o(.constdata__ZTS28QAudioEngineFactoryInterface)
    .constdata__ZTSN12SymbianAudio15DevSoundWrapperE 0x000130b7   Section       34  moc_qaudio_symbian_p.o(.constdata__ZTSN12SymbianAudio15DevSoundWrapperE)
    .constdata__ZTV11QAudioInput             0x000130dc   Section       56  moc_qaudioinput.o(.constdata__ZTV11QAudioInput)
    .constdata__ZTV12QAudioOutput            0x00013114   Section       56  moc_qaudiooutput.o(.constdata__ZTV12QAudioOutput)
    .constdata__ZTV15QNullDeviceInfo         0x0001314c   Section       96  qaudiodevicefactory.o(.constdata__ZTV15QNullDeviceInfo)
    .constdata__ZTV16QNullInputDevice        0x000131ac   Section      120  qaudiodevicefactory.o(.constdata__ZTV16QNullInputDevice)
    .constdata__ZTV17QImageVideoBuffer       0x00013224   Section       32  qimagevideobuffer.o(.constdata__ZTV17QImageVideoBuffer)
    .constdata__ZTV17QNullOutputDevice       0x00013244   Section      120  qaudiodevicefactory.o(.constdata__ZTV17QNullOutputDevice)
    .constdata__ZTV18QAudioEnginePlugin      0x000132bc   Section      112  moc_qaudioengineplugin.o(.constdata__ZTV18QAudioEnginePlugin)
    .constdata__ZTV18QAudioInputPrivate      0x0001332c   Section      120  moc_qaudioinput_symbian_p.o(.constdata__ZTV18QAudioInputPrivate)
    .constdata__ZTV18QMemoryVideoBuffer      0x000133a4   Section       32  qmemoryvideobuffer.o(.constdata__ZTV18QMemoryVideoBuffer)
    .constdata__ZTV19QAbstractAudioInput     0x000133c4   Section      120  moc_qaudioengine.o(.constdata__ZTV19QAbstractAudioInput)
    .constdata__ZTV19QAudioOutputPrivate     0x0001343c   Section      120  moc_qaudiooutput_symbian_p.o(.constdata__ZTV19QAudioOutputPrivate)
    .constdata__ZTV20QAbstractAudioOutput    0x000134b4   Section      120  moc_qaudioengine.o(.constdata__ZTV20QAbstractAudioOutput)
    .constdata__ZTV20QAbstractVideoBuffer    0x0001352c   Section       32  qabstractvideobuffer.o(.constdata__ZTV20QAbstractVideoBuffer)
    .constdata__ZTV21QAbstractVideoSurface   0x0001354c   Section       80  moc_qabstractvideosurface.o(.constdata__ZTV21QAbstractVideoSurface)
    .constdata__ZTV24QAbstractAudioDeviceInfo 0x0001359c   Section       96  moc_qaudioengine.o(.constdata__ZTV24QAbstractAudioDeviceInfo)
    .constdata__ZTV24QAudioDeviceInfoInternal 0x000135fc   Section       96  moc_qaudiodeviceinfo_symbian_p.o(.constdata__ZTV24QAudioDeviceInfoInternal)
    .constdata__ZTV24QImageVideoBufferPrivate 0x0001365c   Section       16  qimagevideobuffer.o(.constdata__ZTV24QImageVideoBufferPrivate)
    .constdata__ZTV24SymbianAudioInputPrivate 0x0001366c   Section      120  moc_qaudioinput_symbian_p.o(.constdata__ZTV24SymbianAudioInputPrivate)
    .constdata__ZTV25QMemoryVideoBufferPrivate 0x000136e4   Section       16  qmemoryvideobuffer.o(.constdata__ZTV25QMemoryVideoBufferPrivate)
    .constdata__ZTV25SymbianAudioOutputPrivate 0x000136f4   Section      120  moc_qaudiooutput_symbian_p.o(.constdata__ZTV25SymbianAudioOutputPrivate)
    .constdata__ZTV27QAbstractVideoBufferPrivate 0x0001376c   Section       16  qabstractvideobuffer.o(.constdata__ZTV27QAbstractVideoBufferPrivate)
    .constdata__ZTV28QAbstractVideoSurfacePrivate 0x0001377c   Section       16  qabstractvideosurface.o(.constdata__ZTV28QAbstractVideoSurfacePrivate)
    .constdata__ZTVN12SymbianAudio15DevSoundWrapperE 0x0001378c   Section      132  moc_qaudio_symbian_p.o(.constdata__ZTVN12SymbianAudio15DevSoundWrapperE)
    .init_array                              0x00013810   Section        4  qaudio.o(.init_array)
    .ARM.exidx                               0x00013814   Section        8  ucppinit.o(.ARM.exidx)
    .data$0                                  0x00400000   Data           0  qaudio.o(.data)
    .data                                    0x00400000   Section        1  qaudio.o(.data)
    .data$0                                  0x00400004   Data           0  qaudiodevicefactory.o(.data)
    _ZGVcleanup@_Z6loaderv_0                 0x00400004   Data           4  qaudiodevicefactory.o(.data)
    .data                                    0x00400004   Section       16  qaudiodevicefactory.o(.data)
    cleanup@_Z6loaderv_1                     0x00400008   Data           4  qaudiodevicefactory.o(.data)
    this_loader                              0x0040000c   Data           8  qaudiodevicefactory.o(.data)
    .data$0                                  0x00400014   Data           0  ucppfini.o(.data)
    .data                                    0x00400014   Section        4  ucppfini.o(.data)
    .data__ZNSt19_Atomic_swap_structILi1EE12_S_swap_lockE 0x00400018   Section       12  qaudio.o(.data__ZNSt19_Atomic_swap_structILi1EE12_S_swap_lockE)
    .data__ZZN11QMetaTypeIdIN11QVideoFrame11PixelFormatEE14qt_metatype_idEvE11metatype_id 0x00400024   Section        4  qvideosurfaceformat.o(.data__ZZN11QMetaTypeIdIN11QVideoFrame11PixelFormatEE14qt_metatype_idEvE11metatype_id)
    .data__ZZN11QMetaTypeIdIN19QVideoSurfaceFormat15YCbCrColorSpaceEE14qt_metatype_idEvE11metatype_id 0x00400028   Section        4  qvideosurfaceformat.o(.data__ZZN11QMetaTypeIdIN19QVideoSurfaceFormat15YCbCrColorSpaceEE14qt_metatype_idEvE11metatype_id)
    .data__ZZN11QMetaTypeIdIN19QVideoSurfaceFormat9DirectionEE14qt_metatype_idEvE11metatype_id 0x0040002c   Section        4  qvideosurfaceformat.o(.data__ZZN11QMetaTypeIdIN19QVideoSurfaceFormat9DirectionEE14qt_metatype_idEvE11metatype_id)
    .data__ZZN11QMetaTypeIdIN20QAbstractVideoBuffer10HandleTypeEE14qt_metatype_idEvE11metatype_id 0x00400030   Section        4  qvideosurfaceformat.o(.data__ZZN11QMetaTypeIdIN20QAbstractVideoBuffer10HandleTypeEE14qt_metatype_idEvE11metatype_id)
    .data__ZZN11QMetaTypeIdIN6QAudio4ModeEE14qt_metatype_idEvE11metatype_id 0x00400034   Section        4  qaudio.o(.data__ZZN11QMetaTypeIdIN6QAudio4ModeEE14qt_metatype_idEvE11metatype_id)
    .data__ZZN11QMetaTypeIdIN6QAudio5ErrorEE14qt_metatype_idEvE11metatype_id 0x00400038   Section        4  qaudio.o(.data__ZZN11QMetaTypeIdIN6QAudio5ErrorEE14qt_metatype_idEvE11metatype_id)
    .data__ZZN11QMetaTypeIdIN6QAudio5StateEE14qt_metatype_idEvE11metatype_id 0x0040003c   Section        4  qaudio.o(.data__ZZN11QMetaTypeIdIN6QAudio5StateEE14qt_metatype_idEvE11metatype_id)
    .bss$5                                   0x00400040   Data           0  ucppfini.o(.bss)
    .bss                                     0x00400040   Section     2048  ucppfini.o(.bss)

    Global Symbols

    Symbol Name                              Value     Ov Type        Size  Object(Section)

    BuildAttributes$$THUMB_ISAv2$ARM_ISAv5$M$VFPv2$PE$A:L22$X:L11$S22$IEEE1$IW$USESV6$~STKCKD$USESV7$~SHL$OSPACE$ROPI$IEEEJ$EBA8$UX$FPIC$INDIRECT$REQ8$PRES8$EABIv2 0x00000000   Number         0  anon$$obj.o ABSOLUTE
    QtCore{00040703}[2001b2dc].dll           0x00000000   Data           0  anon$$obj.o ABSOLUTE
    QtGui{00040703}[2001b2dd].dll            0x00000000   Data           0  anon$$obj.o ABSOLUTE
    QtMultimedia{00040703}[2001e627].dll     0x00000000   Data           0  anon$$obj.o ABSOLUTE
    dfpaeabi{000a0000}.dll                   0x00000000   Data           0  anon$$obj.o ABSOLUTE
    drtaeabi{000a0000}.dll                   0x00000000   Data           0  anon$$obj.o ABSOLUTE
    drtrvct2_2{000a0000}.dll                 0x00000000   Data           0  anon$$obj.o ABSOLUTE
    euser{000a0000}[100039e5].dll            0x00000000   Data           0  anon$$obj.o ABSOLUTE
    libc{00010001}[10207369].dll             0x00000000   Data           0  anon$$obj.o ABSOLUTE
    mmfdevsound{000a0000}[100058cc].dll      0x00000000   Data           0  anon$$obj.o ABSOLUTE
    stdnew{000a0000}[20022178].dll           0x00000000   Data           0  anon$$obj.o ABSOLUTE
    qt_message_output(QtMsgType, const char*)  - Undefined Reference
    _Z17qt_message_output9QtMsgTypePKc@QtCore{00040703}[2001b2dc].dll  - Undefined Reference
    qt_symbian_throwIfError(int)              - Undefined Reference
    _Z23qt_symbian_throwIfErrori@QtCore{00040703}[2001b2dc].dll  - Undefined Reference
    QBasicAtomicPointer_testAndSetOrdered(void*volatile *, void*, void*)  - Undefined Reference
    _Z37QBasicAtomicPointer_testAndSetOrderedPVPvS_S_@QtCore{00040703}[2001b2dc].dll  - Undefined Reference
    qFree(void*)                              - Undefined Reference
    _Z5qFreePv@QtCore{00040703}[2001b2dc].dll  - Undefined Reference
    qstrcmp(const char*, const char*)         - Undefined Reference
    _Z7qstrcmpPKcS0_@QtCore{00040703}[2001b2dc].dll  - Undefined Reference
    qstrcmp(const QByteArray&, const char*)   - Undefined Reference
    _Z7qstrcmpRK10QByteArrayPKc@QtCore{00040703}[2001b2dc].dll  - Undefined Reference
    QByteArray::shared_null                   - Undefined Reference
    _ZN10QByteArray11shared_nullE@QtCore{00040703}[2001b2dc].dll  - Undefined Reference
    QByteArray::resize(int)                   - Undefined Reference
    _ZN10QByteArray6resizeEi@QtCore{00040703}[2001b2dc].dll  - Undefined Reference
    QByteArray::realloc(int)                  - Undefined Reference
    _ZN10QByteArray7reallocEi@QtCore{00040703}[2001b2dc].dll  - Undefined Reference
    QByteArray::QByteArray(const char*)       - Undefined Reference
    _ZN10QByteArrayC1EPKc@QtCore{00040703}[2001b2dc].dll  - Undefined Reference
    QByteArray::operator =(const QByteArray&)  - Undefined Reference
    _ZN10QByteArrayaSERKS_@QtCore{00040703}[2001b2dc].dll  - Undefined Reference
    QMetaObject::invokeMethod(QObject*, const char*, Qt::ConnectionType, QGenericReturnArgument, QGenericArgument, QGenericArgument, QGenericArgument, QGenericArgument, QGenericArgument, QGenericArgument, QGenericArgument, QGenericArgument, QGenericArgument, QGenericArgument)  - Undefined Reference
    _ZN11QMetaObject12invokeMethodEP7QObjectPKcN2Qt14ConnectionTypeE22QGenericReturnArgument16QGenericArgumentS7_S7_S7_S7_S7_S7_S7_S7_S7_@QtCore{00040703}[2001b2dc].dll  - Undefined Reference
    QMetaObject::activate(QObject*, const QMetaObject*, int, void**)  - Undefined Reference
    _ZN11QMetaObject8activateEP7QObjectPKS_iPPv@QtCore{00040703}[2001b2dc].dll  - Undefined Reference
    QTextStream::QTextStream(QString*, QFlags<QIODevice::OpenModeFlag>)  - Undefined Reference
    _ZN11QTextStreamC1EP7QString6QFlagsIN9QIODevice12OpenModeFlagEE@QtCore{00040703}[2001b2dc].dll  - Undefined Reference
    QTextStream::~QTextStream()               - Undefined Reference
    _ZN11QTextStreamD1Ev@QtCore{00040703}[2001b2dc].dll  - Undefined Reference
    QTextStream::operator <<(const QString&)  - Undefined Reference
    _ZN11QTextStreamlsERK7QString@QtCore{00040703}[2001b2dc].dll  - Undefined Reference
    QTextStream::operator <<(char)            - Undefined Reference
    _ZN11QTextStreamlsEc@QtCore{00040703}[2001b2dc].dll  - Undefined Reference
    CMMFDevSound::RecordData()                - Undefined Reference
    _ZN12CMMFDevSound10RecordDataEv@mmfdevsound{000a0000}[100058cc].dll  - Undefined Reference
    CMMFDevSound::SetConfigL(const TMMFCapabilities&)  - Undefined Reference
    _ZN12CMMFDevSound10SetConfigLERK16TMMFCapabilities@mmfdevsound{000a0000}[100058cc].dll  - Undefined Reference
    CMMFDevSound::InitializeL(MDevSoundObserver&, TFourCC, TMMFState)  - Undefined Reference
    _ZN12CMMFDevSound11InitializeLER17MDevSoundObserver7TFourCC9TMMFState@mmfdevsound{000a0000}[100058cc].dll  - Undefined Reference
    CMMFDevSound::RecordInitL()               - Undefined Reference
    _ZN12CMMFDevSound11RecordInitLEv@mmfdevsound{000a0000}[100058cc].dll  - Undefined Reference
    CMMFDevSound::Capabilities()              - Undefined Reference
    _ZN12CMMFDevSound12CapabilitiesEv@mmfdevsound{000a0000}[100058cc].dll  - Undefined Reference
    CMMFDevSound::SamplesPlayed()             - Undefined Reference
    _ZN12CMMFDevSound13SamplesPlayedEv@mmfdevsound{000a0000}[100058cc].dll  - Undefined Reference
    CMMFDevSound::SamplesRecorded()           - Undefined Reference
    _ZN12CMMFDevSound15SamplesRecordedEv@mmfdevsound{000a0000}[100058cc].dll  - Undefined Reference
    CMMFDevSound::NewL()                      - Undefined Reference
    _ZN12CMMFDevSound4NewLEv@mmfdevsound{000a0000}[100058cc].dll  - Undefined Reference
    CMMFDevSound::Stop()                      - Undefined Reference
    _ZN12CMMFDevSound4StopEv@mmfdevsound{000a0000}[100058cc].dll  - Undefined Reference
    CMMFDevSound::PlayData()                  - Undefined Reference
    _ZN12CMMFDevSound8PlayDataEv@mmfdevsound{000a0000}[100058cc].dll  - Undefined Reference
    CMMFDevSound::PlayInitL()                 - Undefined Reference
    _ZN12CMMFDevSound9PlayInitLEv@mmfdevsound{000a0000}[100058cc].dll  - Undefined Reference
    QFactoryLoader::QFactoryLoader(const char*, const QString&, Qt::CaseSensitivity)  - Undefined Reference
    _ZN14QFactoryLoaderC1EPKcRK7QStringN2Qt15CaseSensitivityE@QtCore{00040703}[2001b2dc].dll  - Undefined Reference
    QObjectPrivate::QObjectPrivate(int)       - Undefined Reference
    _ZN14QObjectPrivateC1Ei@QtCore{00040703}[2001b2dc].dll  - Undefined Reference
    QObjectPrivate::~QObjectPrivate()         - Undefined Reference
    _ZN14QObjectPrivateD1Ev@QtCore{00040703}[2001b2dc].dll  - Undefined Reference
    QCoreApplication::processEvents(QFlags<QEventLoop::ProcessEventsFlag>)  - Undefined Reference
    _ZN16QCoreApplication13processEventsE6QFlagsIN10QEventLoop17ProcessEventsFlagEE@QtCore{00040703}[2001b2dc].dll  - Undefined Reference
    User::MarkCleanupStack()                  - Undefined Reference
    _ZN4User16MarkCleanupStackEv@euser{000a0000}[100039e5].dll  - Undefined Reference
    User::UnMarkCleanupStack(TTrapHandler*)   - Undefined Reference
    _ZN4User18UnMarkCleanupStackEP12TTrapHandler@euser{000a0000}[100039e5].dll  - Undefined Reference
    User::Invariant()                         - Undefined Reference
    _ZN4User9InvariantEv@euser{000a0000}[100039e5].dll  - Undefined Reference
    User::LockedDec(int&)                     - Undefined Reference
    _ZN4User9LockedDecERi@euser{000a0000}[100039e5].dll  - Undefined Reference
    User::LockedInc(int&)                     - Undefined Reference
    _ZN4User9LockedIncERi@euser{000a0000}[100039e5].dll  - Undefined Reference
    QTime::restart()                          - Undefined Reference
    _ZN5QTime7restartEv@QtCore{00040703}[2001b2dc].dll  - Undefined Reference
    TDes8::Append(const unsigned char*, int)  - Undefined Reference
    _ZN5TDes86AppendEPKhi@euser{000a0000}[100039e5].dll  - Undefined Reference
    TDes8::SetLength(int)                     - Undefined Reference
    _ZN5TDes89SetLengthEi@euser{000a0000}[100039e5].dll  - Undefined Reference
    QImage::bits()                            - Undefined Reference
    _ZN6QImage4bitsEv@QtGui{00040703}[2001b2dd].dll  - Undefined Reference
    QImage::QImage()                          - Undefined Reference
    _ZN6QImageC1Ev@QtGui{00040703}[2001b2dd].dll  - Undefined Reference
    QImage::~QImage()                         - Undefined Reference
    _ZN6QImageD1Ev@QtGui{00040703}[2001b2dd].dll  - Undefined Reference
    QImage::operator =(const QImage&)         - Undefined Reference
    _ZN6QImageaSERKS_@QtGui{00040703}[2001b2dd].dll  - Undefined Reference
    QTimer::setInterval(int)                  - Undefined Reference
    _ZN6QTimer11setIntervalEi@QtCore{00040703}[2001b2dc].dll  - Undefined Reference
    QTimer::stop()                            - Undefined Reference
    _ZN6QTimer4stopEv@QtCore{00040703}[2001b2dc].dll  - Undefined Reference
    QTimer::start(int)                        - Undefined Reference
    _ZN6QTimer5startEi@QtCore{00040703}[2001b2dc].dll  - Undefined Reference
    QTimer::start()                           - Undefined Reference
    _ZN6QTimer5startEv@QtCore{00040703}[2001b2dc].dll  - Undefined Reference
    QTimer::QTimer(QObject*)                  - Undefined Reference
    _ZN6QTimerC1EP7QObject@QtCore{00040703}[2001b2dc].dll  - Undefined Reference
    QObject::childEvent(QChildEvent*)         - Undefined Reference
    _ZN7QObject10childEventEP11QChildEvent@QtCore{00040703}[2001b2dc].dll  - Undefined Reference
    QObject::timerEvent(QTimerEvent*)         - Undefined Reference
    _ZN7QObject10timerEventEP11QTimerEvent@QtCore{00040703}[2001b2dc].dll  - Undefined Reference
    QObject::customEvent(QEvent*)             - Undefined Reference
    _ZN7QObject11customEventEP6QEvent@QtCore{00040703}[2001b2dc].dll  - Undefined Reference
    QObject::eventFilter(QObject*, QEvent*)   - Undefined Reference
    _ZN7QObject11eventFilterEPS_P6QEvent@QtCore{00040703}[2001b2dc].dll  - Undefined Reference
    QObject::qt_metacall(QMetaObject::Call, int, void**)  - Undefined Reference
    _ZN7QObject11qt_metacallEN11QMetaObject4CallEiPPv@QtCore{00040703}[2001b2dc].dll  - Undefined Reference
    QObject::qt_metacast(const char*)         - Undefined Reference
    _ZN7QObject11qt_metacastEPKc@QtCore{00040703}[2001b2dc].dll  - Undefined Reference
    QObject::connectNotify(const char*)       - Undefined Reference
    _ZN7QObject13connectNotifyEPKc@QtCore{00040703}[2001b2dc].dll  - Undefined Reference
    QObject::disconnectNotify(const char*)    - Undefined Reference
    _ZN7QObject16disconnectNotifyEPKc@QtCore{00040703}[2001b2dc].dll  - Undefined Reference
    QObject::staticMetaObject                 - Undefined Reference
    _ZN7QObject16staticMetaObjectE@QtCore{00040703}[2001b2dc].dll  - Undefined Reference
    QObject::event(QEvent*)                   - Undefined Reference
    _ZN7QObject5eventEP6QEvent@QtCore{00040703}[2001b2dc].dll  - Undefined Reference
    QObject::connect(const QObject*, const char*, const QObject*, const char*, Qt::ConnectionType)  - Undefined Reference
    _ZN7QObject7connectEPKS_PKcS1_S3_N2Qt14ConnectionTypeE@QtCore{00040703}[2001b2dc].dll  - Undefined Reference
    QObject::QObject(QObject*)                - Undefined Reference
    _ZN7QObjectC1EPS_@QtCore{00040703}[2001b2dc].dll  - Undefined Reference
    QObject::QObject(QObjectPrivate&, QObject*)  - Undefined Reference
    _ZN7QObjectC1ER14QObjectPrivatePS_@QtCore{00040703}[2001b2dc].dll  - Undefined Reference
    QObject::~QObject()                       - Undefined Reference
    _ZN7QObjectD1Ev@QtCore{00040703}[2001b2dc].dll  - Undefined Reference
    QString::fromLatin1(const char*, int)     - Undefined Reference
    _ZN7QString10fromLatin1EPKci@QtCore{00040703}[2001b2dc].dll  - Undefined Reference
    QString::shared_null                      - Undefined Reference
    _ZN7QString11shared_nullE@QtCore{00040703}[2001b2dc].dll  - Undefined Reference
    QString::fromLatin1_helper(const char*, int)  - Undefined Reference
    _ZN7QString17fromLatin1_helperEPKci@QtCore{00040703}[2001b2dc].dll  - Undefined Reference
    QString::free(QString::Data*)             - Undefined Reference
    _ZN7QString4freeEPNS_4DataE@QtCore{00040703}[2001b2dc].dll  - Undefined Reference
    QString::fromAscii(const char*, int)      - Undefined Reference
    _ZN7QString9fromAsciiEPKci@QtCore{00040703}[2001b2dc].dll  - Undefined Reference
    QString::operator =(const QString&)       - Undefined Reference
    _ZN7QStringaSERKS_@QtCore{00040703}[2001b2dc].dll  - Undefined Reference
    QMapData::createData(int)                 - Undefined Reference
    _ZN8QMapData10createDataEi@QtCore{00040703}[2001b2dc].dll  - Undefined Reference
    QMapData::node_create(QMapData::Node**, int, int)  - Undefined Reference
    _ZN8QMapData11node_createEPPNS_4NodeEii@QtCore{00040703}[2001b2dc].dll  - Undefined Reference
    QMapData::node_delete(QMapData::Node**, int, QMapData::Node*)  - Undefined Reference
    _ZN8QMapData11node_deleteEPPNS_4NodeEiS1_@QtCore{00040703}[2001b2dc].dll  - Undefined Reference
    QMapData::shared_null                     - Undefined Reference
    _ZN8QMapData11shared_nullE@QtCore{00040703}[2001b2dc].dll  - Undefined Reference
    QMapData::continueFreeData(int)           - Undefined Reference
    _ZN8QMapData16continueFreeDataEi@QtCore{00040703}[2001b2dc].dll  - Undefined Reference
    QVariant::handler                         - Undefined Reference
    _ZN8QVariant7handlerE@QtCore{00040703}[2001b2dc].dll  - Undefined Reference
    QVariant::QVariant(const QRect&)          - Undefined Reference
    _ZN8QVariantC1ERK5QRect@QtCore{00040703}[2001b2dc].dll  - Undefined Reference
    QVariant::QVariant(const QSize&)          - Undefined Reference
    _ZN8QVariantC1ERK5QSize@QtCore{00040703}[2001b2dc].dll  - Undefined Reference
    QVariant::QVariant(const QVariant&)       - Undefined Reference
    _ZN8QVariantC1ERKS_@QtCore{00040703}[2001b2dc].dll  - Undefined Reference
    QVariant::QVariant(int)                   - Undefined Reference
    _ZN8QVariantC1Ei@QtCore{00040703}[2001b2dc].dll  - Undefined Reference
    QVariant::QVariant(int, const void*, unsigned)  - Undefined Reference
    _ZN8QVariantC1EiPKvj@QtCore{00040703}[2001b2dc].dll  - Undefined Reference
    QVariant::~QVariant()                     - Undefined Reference
    _ZN8QVariantD1Ev@QtCore{00040703}[2001b2dc].dll  - Undefined Reference
    QVariant::operator =(const QVariant&)     - Undefined Reference
    _ZN8QVariantaSERKS_@QtCore{00040703}[2001b2dc].dll  - Undefined Reference
    QIODevice::qt_metacall(QMetaObject::Call, int, void**)  - Undefined Reference
    _ZN9QIODevice11qt_metacallEN11QMetaObject4CallEiPPv@QtCore{00040703}[2001b2dc].dll  - Undefined Reference
    QIODevice::qt_metacast(const char*)       - Undefined Reference
    _ZN9QIODevice11qt_metacastEPKc@QtCore{00040703}[2001b2dc].dll  - Undefined Reference
    QIODevice::readLineData(char*, long long)  - Undefined Reference
    _ZN9QIODevice12readLineDataEPcx@QtCore{00040703}[2001b2dc].dll  - Undefined Reference
    QIODevice::staticMetaObject               - Undefined Reference
    _ZN9QIODevice16staticMetaObjectE@QtCore{00040703}[2001b2dc].dll  - Undefined Reference
    QIODevice::waitForReadyRead(int)          - Undefined Reference
    _ZN9QIODevice16waitForReadyReadEi@QtCore{00040703}[2001b2dc].dll  - Undefined Reference
    QIODevice::waitForBytesWritten(int)       - Undefined Reference
    _ZN9QIODevice19waitForBytesWrittenEi@QtCore{00040703}[2001b2dc].dll  - Undefined Reference
    QIODevice::open(QFlags<QIODevice::OpenModeFlag>)  - Undefined Reference
    _ZN9QIODevice4openE6QFlagsINS_12OpenModeFlagEE@QtCore{00040703}[2001b2dc].dll  - Undefined Reference
    QIODevice::read(char*, long long)         - Undefined Reference
    _ZN9QIODevice4readEPcx@QtCore{00040703}[2001b2dc].dll  - Undefined Reference
    QIODevice::seek(long long)                - Undefined Reference
    _ZN9QIODevice4seekEx@QtCore{00040703}[2001b2dc].dll  - Undefined Reference
    QIODevice::close()                        - Undefined Reference
    _ZN9QIODevice5closeEv@QtCore{00040703}[2001b2dc].dll  - Undefined Reference
    QIODevice::reset()                        - Undefined Reference
    _ZN9QIODevice5resetEv@QtCore{00040703}[2001b2dc].dll  - Undefined Reference
    QIODevice::write(const char*, long long)  - Undefined Reference
    _ZN9QIODevice5writeEPKcx@QtCore{00040703}[2001b2dc].dll  - Undefined Reference
    QIODevice::readyRead()                    - Undefined Reference
    _ZN9QIODevice9readyReadEv@QtCore{00040703}[2001b2dc].dll  - Undefined Reference
    QIODevice::QIODevice__sub_object()        - Undefined Reference
    _ZN9QIODeviceC2Ev@QtCore{00040703}[2001b2dc].dll  - Undefined Reference
    QIODevice::~QIODevice__sub_object()       - Undefined Reference
    _ZN9QIODeviceD2Ev@QtCore{00040703}[2001b2dc].dll  - Undefined Reference
    QListData::detach_grow(int*, int)         - Undefined Reference
    _ZN9QListData11detach_growEPii@QtCore{00040703}[2001b2dc].dll  - Undefined Reference
    QListData::shared_null                    - Undefined Reference
    _ZN9QListData11shared_nullE@QtCore{00040703}[2001b2dc].dll  - Undefined Reference
    QListData::erase(void**)                  - Undefined Reference
    _ZN9QListData5eraseEPPv@QtCore{00040703}[2001b2dc].dll  - Undefined Reference
    QListData::append()                       - Undefined Reference
    _ZN9QListData6appendEv@QtCore{00040703}[2001b2dc].dll  - Undefined Reference
    QListData::detach(int)                    - Undefined Reference
    _ZN9QListData6detachEi@QtCore{00040703}[2001b2dc].dll  - Undefined Reference
    QListData::remove(int)                    - Undefined Reference
    _ZN9QListData6removeEi@QtCore{00040703}[2001b2dc].dll  - Undefined Reference
    QListData::append2(const QListData&)      - Undefined Reference
    _ZN9QListData7append2ERKS_@QtCore{00040703}[2001b2dc].dll  - Undefined Reference
    QListData::realloc(int)                   - Undefined Reference
    _ZN9QListData7reallocEi@QtCore{00040703}[2001b2dc].dll  - Undefined Reference
    QMetaType::registerType(const char*, void(*)(void*), void*(*)(const void*))  - Undefined Reference
    _ZN9QMetaType12registerTypeEPKcPFvPvEPFS2_PKvE@QtCore{00040703}[2001b2dc].dll  - Undefined Reference
    QMetaType::registerTypedef(const char*, int)  - Undefined Reference
    _ZN9QMetaType15registerTypedefEPKci@QtCore{00040703}[2001b2dc].dll  - Undefined Reference
    QMetaObject::cast(QObject*) const         - Undefined Reference
    _ZNK11QMetaObject4castEP7QObject@QtCore{00040703}[2001b2dc].dll  - Undefined Reference
    CMMFDevSound::Config() const              - Undefined Reference
    _ZNK12CMMFDevSound6ConfigEv@mmfdevsound{000a0000}[100058cc].dll  - Undefined Reference
    QFactoryLoader::keys() const              - Undefined Reference
    _ZNK14QFactoryLoader4keysEv@QtCore{00040703}[2001b2dc].dll  - Undefined Reference
    QFactoryLoader::instance(const QString&) const  - Undefined Reference
    _ZNK14QFactoryLoader8instanceERK7QString@QtCore{00040703}[2001b2dc].dll  - Undefined Reference
    XLeaveException::GetReason() const        - Undefined Reference
    _ZNK15XLeaveException9GetReasonEv@euser{000a0000}[100039e5].dll  - Undefined Reference
    QTime::elapsed() const                    - Undefined Reference
    _ZNK5QTime7elapsedEv@QtCore{00040703}[2001b2dc].dll  - Undefined Reference
    QImage::bytesPerLine() const              - Undefined Reference
    _ZNK6QImage12bytesPerLineEv@QtGui{00040703}[2001b2dd].dll  - Undefined Reference
    QImage::size() const                      - Undefined Reference
    _ZNK6QImage4sizeEv@QtGui{00040703}[2001b2dd].dll  - Undefined Reference
    QImage::format() const                    - Undefined Reference
    _ZNK6QImage6formatEv@QtGui{00040703}[2001b2dd].dll  - Undefined Reference
    QImage::byteCount() const                 - Undefined Reference
    _ZNK6QImage9byteCountEv@QtGui{00040703}[2001b2dd].dll  - Undefined Reference
    TDesC8::Ptr() const                       - Undefined Reference
    _ZNK6TDesC83PtrEv@euser{000a0000}[100039e5].dll  - Undefined Reference
    QString::toLocal8Bit() const              - Undefined Reference
    _ZNK7QString11toLocal8BitEv@QtCore{00040703}[2001b2dc].dll  - Undefined Reference
    QString::arg(long long, int, int, const QChar&) const  - Undefined Reference
    _ZNK7QString3argExiiRK5QChar@QtCore{00040703}[2001b2dc].dll  - Undefined Reference
    QString::operator ==(const QLatin1String&) const  - Undefined Reference
    _ZNK7QStringeqERK13QLatin1String@QtCore{00040703}[2001b2dc].dll  - Undefined Reference
    QString::operator ==(const QString&) const  - Undefined Reference
    _ZNK7QStringeqERKS_@QtCore{00040703}[2001b2dc].dll  - Undefined Reference
    QString::operator <(const QString&) const  - Undefined Reference
    _ZNK7QStringltERKS_@QtCore{00040703}[2001b2dc].dll  - Undefined Reference
    QVariant::canConvert(QVariant::Type) const  - Undefined Reference
    _ZNK8QVariant10canConvertENS_4TypeE@QtCore{00040703}[2001b2dc].dll  - Undefined Reference
    QVariant::cmp(const QVariant&) const      - Undefined Reference
    _ZNK8QVariant3cmpERKS_@QtCore{00040703}[2001b2dc].dll  - Undefined Reference
    QVariant::isNull() const                  - Undefined Reference
    _ZNK8QVariant6isNullEv@QtCore{00040703}[2001b2dc].dll  - Undefined Reference
    QVariant::userType() const                - Undefined Reference
    _ZNK8QVariant8userTypeEv@QtCore{00040703}[2001b2dc].dll  - Undefined Reference
    QVariant::constData() const               - Undefined Reference
    _ZNK8QVariant9constDataEv@QtCore{00040703}[2001b2dc].dll  - Undefined Reference
    QIODevice::canReadLine() const            - Undefined Reference
    _ZNK9QIODevice11canReadLineEv@QtCore{00040703}[2001b2dc].dll  - Undefined Reference
    QIODevice::bytesToWrite() const           - Undefined Reference
    _ZNK9QIODevice12bytesToWriteEv@QtCore{00040703}[2001b2dc].dll  - Undefined Reference
    QIODevice::isSequential() const           - Undefined Reference
    _ZNK9QIODevice12isSequentialEv@QtCore{00040703}[2001b2dc].dll  - Undefined Reference
    QIODevice::bytesAvailable() const         - Undefined Reference
    _ZNK9QIODevice14bytesAvailableEv@QtCore{00040703}[2001b2dc].dll  - Undefined Reference
    QIODevice::pos() const                    - Undefined Reference
    _ZNK9QIODevice3posEv@QtCore{00040703}[2001b2dc].dll  - Undefined Reference
    QIODevice::size() const                   - Undefined Reference
    _ZNK9QIODevice4sizeEv@QtCore{00040703}[2001b2dc].dll  - Undefined Reference
    QIODevice::atEnd() const                  - Undefined Reference
    _ZNK9QIODevice5atEndEv@QtCore{00040703}[2001b2dc].dll  - Undefined Reference
    typeinfo for QObjectPrivate               - Undefined Reference
    _ZTI14QObjectPrivate@QtCore{00040703}[2001b2dc].dll  - Undefined Reference
    typeinfo for XLeaveException              - Undefined Reference
    _ZTI15XLeaveException@drtaeabi{000a0000}.dll  - Undefined Reference
    typeinfo for QObject                      - Undefined Reference
    _ZTI7QObject@QtCore{00040703}[2001b2dc].dll  - Undefined Reference
    typeinfo for QIODevice                    - Undefined Reference
    _ZTI9QIODevice@QtCore{00040703}[2001b2dc].dll  - Undefined Reference
    typeinfo for std::bad_alloc               - Undefined Reference
    _ZTISt9bad_alloc@stdnew{000a0000}[20022178].dll  - Undefined Reference
    vtable for __cxxabiv1::__class_type_info  - Undefined Reference
    _ZTVN10__cxxabiv117__class_type_infoE@drtaeabi{000a0000}.dll  - Undefined Reference
    vtable for __cxxabiv1::__si_class_type_info  - Undefined Reference
    _ZTVN10__cxxabiv120__si_class_type_infoE@drtaeabi{000a0000}.dll  - Undefined Reference
    vtable for __cxxabiv1::__vmi_class_type_info  - Undefined Reference
    _ZTVN10__cxxabiv121__vmi_class_type_infoE@drtaeabi{000a0000}.dll  - Undefined Reference
    operator delete (void*)                   - Undefined Reference
    _ZdlPv@stdnew{000a0000}[20022178].dll     - Undefined Reference
    operator <<(QDebug, const QRect&)         - Undefined Reference
    _Zls6QDebugRK5QRect@QtCore{00040703}[2001b2dc].dll  - Undefined Reference
    operator <<(QDebug, const QSize&)         - Undefined Reference
    _Zls6QDebugRK5QSize@QtCore{00040703}[2001b2dc].dll  - Undefined Reference
    operator <<(QDebug, const QVariant&)      - Undefined Reference
    _Zls6QDebugRK8QVariant@QtCore{00040703}[2001b2dc].dll  - Undefined Reference
    operator new(unsigned)                    - Undefined Reference
    _Znwj@stdnew{000a0000}[20022178].dll      - Undefined Reference
    __ARM_ll_addls                            - Undefined Reference
    __ARM_ll_addls@drtrvct2_2{000a0000}.dll   - Undefined Reference
    __ARM_ll_addlu                            - Undefined Reference
    __ARM_ll_addlu@drtrvct2_2{000a0000}.dll   - Undefined Reference
    __ARM_ll_cmpge                            - Undefined Reference
    __ARM_ll_cmpge@drtrvct2_2{000a0000}.dll   - Undefined Reference
    __ARM_ll_cmple                            - Undefined Reference
    __ARM_ll_cmple@drtrvct2_2{000a0000}.dll   - Undefined Reference
    __ARM_ll_cmpu                             - Undefined Reference
    __ARM_ll_cmpu@drtrvct2_2{000a0000}.dll    - Undefined Reference
    __ARM_ll_mulls                            - Undefined Reference
    __ARM_ll_mulls@drtrvct2_2{000a0000}.dll   - Undefined Reference
    __ARM_ll_muluu                            - Undefined Reference
    __ARM_ll_muluu@drtrvct2_2{000a0000}.dll   - Undefined Reference
    __ARM_ll_rsbls                            - Undefined Reference
    __ARM_ll_rsbls@drtrvct2_2{000a0000}.dll   - Undefined Reference
    __ARM_ll_rsblu                            - Undefined Reference
    __ARM_ll_rsblu@drtrvct2_2{000a0000}.dll   - Undefined Reference
    __aeabi_cdcmple                           - Undefined Reference
    __aeabi_cdcmple@dfpaeabi{000a0000}.dll    - Undefined Reference
    __aeabi_cfcmple                           - Undefined Reference
    __aeabi_cfcmple@dfpaeabi{000a0000}.dll    - Undefined Reference
    __aeabi_dmul                              - Undefined Reference
    __aeabi_dmul@dfpaeabi{000a0000}.dll       - Undefined Reference
    __aeabi_f2d                               - Undefined Reference
    __aeabi_f2d@dfpaeabi{000a0000}.dll        - Undefined Reference
    __aeabi_fsub                              - Undefined Reference
    __aeabi_fsub@dfpaeabi{000a0000}.dll       - Undefined Reference
    __aeabi_idivmod                           - Undefined Reference
    __aeabi_idivmod@drtaeabi{000a0000}.dll    - Undefined Reference
    __aeabi_ldivmod                           - Undefined Reference
    __aeabi_ldivmod@drtaeabi{000a0000}.dll    - Undefined Reference
    __aeabi_memclr4                           - Undefined Reference
    __aeabi_memclr4@drtaeabi{000a0000}.dll    - Undefined Reference
    __aeabi_memcpy                            - Undefined Reference
    __aeabi_memcpy4                           - Undefined Reference
    __aeabi_memcpy4@drtaeabi{000a0000}.dll    - Undefined Reference
    __aeabi_memcpy@drtaeabi{000a0000}.dll     - Undefined Reference
    __aeabi_unwind_cpp_pr0                    - Undefined Reference
    __aeabi_unwind_cpp_pr0@drtaeabi{000a0000}.dll  - Undefined Reference
    __cxa_begin_catch                         - Undefined Reference
    __cxa_begin_catch@drtaeabi{000a0000}.dll  - Undefined Reference
    __cxa_end_catch                           - Undefined Reference
    __cxa_end_catch@drtaeabi{000a0000}.dll    - Undefined Reference
    __cxa_end_cleanup                         - Undefined Reference
    __cxa_end_cleanup@drtaeabi{000a0000}.dll  - Undefined Reference
    __cxa_guard_abort                         - Undefined Reference
    __cxa_guard_abort@drtaeabi{000a0000}.dll  - Undefined Reference
    __cxa_guard_acquire                       - Undefined Reference
    __cxa_guard_acquire@drtaeabi{000a0000}.dll  - Undefined Reference
    __cxa_guard_release                       - Undefined Reference
    __cxa_guard_release@drtaeabi{000a0000}.dll  - Undefined Reference
    __cxa_pure_virtual                        - Undefined Reference
    __cxa_pure_virtual@drtaeabi{000a0000}.dll  - Undefined Reference
    __cxa_rethrow                             - Undefined Reference
    __cxa_rethrow@drtaeabi{000a0000}.dll      - Undefined Reference
    memclr                                    - Undefined Reference
    memclr@euser{000a0000}[100039e5].dll      - Undefined Reference
    memcmp                                    - Undefined Reference
    memcmp@libc{00010001}[10207369].dll       - Undefined Reference
    strcmp                                    - Undefined Reference
    strcmp@libc{00010001}[10207369].dll       - Undefined Reference
    Image$$ER_RO$$Base                       0x00008000   Number         0  anon$$obj.o(linker$$defined$$symbols)
    _E32Dll                                  0x00008000   ARM Code      40  uc_dll_.o(.emb_text)
    Symbian$$CPP$$Exception$$Descriptor      0x00008014   Data           0  uc_dll_.o(.emb_text)
    __cpp_initialize__aeabi_                 0x00008028   ARM Code      52  ucppinit.o(.emb_text)
    std::nothrow                             0x0000805c   ARM Code       0  ucppinit.o(.emb_text)
    __PLT                                    0x0000805c   ARM Code       0  anon$$obj.o(.plt)
    QAudioFormat::QAudioFormat()             0x000084d5   Thumb Code    56  qaudioformat.o(.text)
    QAudioFormat::QAudioFormat__sub_object() 0x000084d5   Thumb Code     0  qaudioformat.o(.text)
    QAudioFormat::QAudioFormat(const QAudioFormat&) 0x0000850d   Thumb Code    20  qaudioformat.o(.text)
    QAudioFormat::QAudioFormat__sub_object(const QAudioFormat&) 0x0000850d   Thumb Code     0  qaudioformat.o(.text)
    QAudioFormat::~QAudioFormat()            0x00008521   Thumb Code     8  qaudioformat.o(.text)
    QAudioFormat::~QAudioFormat__sub_object() 0x00008521   Thumb Code     0  qaudioformat.o(.text)
    QAudioFormat::operator =(const QAudioFormat&) 0x00008529   Thumb Code    56  qaudioformat.o(.text)
    QAudioFormat::operator ==(const QAudioFormat&) const 0x00008561   Thumb Code    74  qaudioformat.o(.text)
    QAudioFormat::operator !=(const QAudioFormat&) const 0x000085ab   Thumb Code    12  qaudioformat.o(.text)
    QAudioFormat::isValid() const            0x000085b7   Thumb Code    42  qaudioformat.o(.text)
    QAudioFormat::setFrequency(int)          0x000085e1   Thumb Code    12  qaudioformat.o(.text)
    QAudioFormat::frequency() const          0x000085ed   Thumb Code     6  qaudioformat.o(.text)
    QAudioFormat::setSampleRate(int)         0x000085f3   Thumb Code    12  qaudioformat.o(.text)
    QAudioFormat::sampleRate() const         0x000085ff   Thumb Code     6  qaudioformat.o(.text)
    QAudioFormat::setChannels(int)           0x00008605   Thumb Code    12  qaudioformat.o(.text)
    QAudioFormat::channels() const           0x00008611   Thumb Code     6  qaudioformat.o(.text)
    QAudioFormat::setChannelCount(int)       0x00008617   Thumb Code    12  qaudioformat.o(.text)
    QAudioFormat::channelCount() const       0x00008623   Thumb Code     6  qaudioformat.o(.text)
    QAudioFormat::setSampleSize(int)         0x00008629   Thumb Code    12  qaudioformat.o(.text)
    QAudioFormat::sampleSize() const         0x00008635   Thumb Code     6  qaudioformat.o(.text)
    QAudioFormat::setCodec(const QString&)   0x0000863b   Thumb Code    18  qaudioformat.o(.text)
    QAudioFormat::codec() const              0x0000864d   Thumb Code    12  qaudioformat.o(.text)
    QAudioFormat::setByteOrder(QAudioFormat::Endian) 0x00008659   Thumb Code    12  qaudioformat.o(.text)
    QAudioFormat::byteOrder() const          0x00008665   Thumb Code     6  qaudioformat.o(.text)
    QAudioFormat::setSampleType(QAudioFormat::SampleType) 0x0000866b   Thumb Code    12  qaudioformat.o(.text)
    QAudioFormat::sampleType() const         0x00008677   Thumb Code     6  qaudioformat.o(.text)
    QAudioDeviceInfo::QAudioDeviceInfo()     0x00008681   Thumb Code    56  qaudiodeviceinfo.o(.text)
    QAudioDeviceInfo::QAudioDeviceInfo__sub_object() 0x00008681   Thumb Code     0  qaudiodeviceinfo.o(.text)
    QAudioDeviceInfo::QAudioDeviceInfo(const QAudioDeviceInfo&) 0x000086b9   Thumb Code    20  qaudiodeviceinfo.o(.text)
    QAudioDeviceInfo::QAudioDeviceInfo__sub_object(const QAudioDeviceInfo&) 0x000086b9   Thumb Code     0  qaudiodeviceinfo.o(.text)
    QAudioDeviceInfo::~QAudioDeviceInfo()    0x000086cd   Thumb Code     8  qaudiodeviceinfo.o(.text)
    QAudioDeviceInfo::~QAudioDeviceInfo__sub_object() 0x000086cd   Thumb Code     0  qaudiodeviceinfo.o(.text)
    QAudioDeviceInfo::operator =(const QAudioDeviceInfo&) 0x000086d5   Thumb Code    56  qaudiodeviceinfo.o(.text)
    QAudioDeviceInfo::isNull() const         0x0000870d   Thumb Code    16  qaudiodeviceinfo.o(.text)
    QAudioDeviceInfo::deviceName() const     0x0000871d   Thumb Code    74  qaudiodeviceinfo.o(.text)
    QAudioDeviceInfo::isFormatSupported(const QAudioFormat&) const 0x00008767   Thumb Code    28  qaudiodeviceinfo.o(.text)
    QAudioDeviceInfo::preferredFormat() const 0x00008783   Thumb Code    74  qaudiodeviceinfo.o(.text)
    QAudioDeviceInfo::supportedSampleSizes() const 0x000087cd   Thumb Code    74  qaudiodeviceinfo.o(.text)
    QAudioDeviceInfo::supportedFrequencies() const 0x00008817   Thumb Code    74  qaudiodeviceinfo.o(.text)
    QAudioDeviceInfo::nearestFormat(const QAudioFormat&) const 0x00008861   Thumb Code   718  qaudiodeviceinfo.o(.text)
    QAudioDeviceInfo::supportedCodecs() const 0x00008b2f   Thumb Code    94  qaudiodeviceinfo.o(.text)
    QAudioDeviceInfo::supportedSampleRates() const 0x00008b8d   Thumb Code     2  qaudiodeviceinfo.o(.text)
    QAudioDeviceInfo::supportedChannels() const 0x00008b8f   Thumb Code    74  qaudiodeviceinfo.o(.text)
    QAudioDeviceInfo::supportedChannelCounts() const 0x00008bd9   Thumb Code     2  qaudiodeviceinfo.o(.text)
    QAudioDeviceInfo::supportedByteOrders() const 0x00008bdb   Thumb Code    94  qaudiodeviceinfo.o(.text)
    QAudioDeviceInfo::supportedSampleTypes() const 0x00008c39   Thumb Code    94  qaudiodeviceinfo.o(.text)
    QAudioDeviceInfo::defaultInputDevice()   0x00008c97   Thumb Code     8  qaudiodeviceinfo.o(.text)
    QAudioDeviceInfo::defaultOutputDevice()  0x00008c9f   Thumb Code     8  qaudiodeviceinfo.o(.text)
    QAudioDeviceInfo::availableDevices(QAudio::Mode) 0x00008ca7   Thumb Code     8  qaudiodeviceinfo.o(.text)
    QAudioDeviceInfo::QAudioDeviceInfo(const QString&, const QByteArray&, QAudio::Mode) 0x00008caf   Thumb Code    76  qaudiodeviceinfo.o(.text)
    QAudioDeviceInfo::QAudioDeviceInfo__sub_object(const QString&, const QByteArray&, QAudio::Mode) 0x00008caf   Thumb Code     0  qaudiodeviceinfo.o(.text)
    QAudioDeviceInfo::realm() const          0x00008cfb   Thumb Code    12  qaudiodeviceinfo.o(.text)
    QAudioDeviceInfo::handle() const         0x00008d07   Thumb Code    12  qaudiodeviceinfo.o(.text)
    QAudioDeviceInfo::mode() const           0x00008d13   Thumb Code     6  qaudiodeviceinfo.o(.text)
    QAudioOutput::QAudioOutput(const QAudioFormat&, QObject*) 0x00008d1d   Thumb Code    60  qaudiooutput.o(.text)
    QAudioOutput::QAudioOutput__sub_object(const QAudioFormat&, QObject*) 0x00008d1d   Thumb Code     0  qaudiooutput.o(.text)
    QAudioOutput::QAudioOutput(const QAudioDeviceInfo&, const QAudioFormat&, QObject*) 0x00008d59   Thumb Code    64  qaudiooutput.o(.text)
    QAudioOutput::QAudioOutput__sub_object(const QAudioDeviceInfo&, const QAudioFormat&, QObject*) 0x00008d59   Thumb Code     0  qaudiooutput.o(.text)
    QAudioOutput::~QAudioOutput()            0x00008d99   Thumb Code    28  qaudiooutput.o(.text)
    QAudioOutput::~QAudioOutput__sub_object() 0x00008d99   Thumb Code     0  qaudiooutput.o(.text)
    QAudioOutput::~QAudioOutput__deallocating() 0x00008db5   Thumb Code    16  qaudiooutput.o(.text)
    QAudioOutput::format() const             0x00008dc5   Thumb Code     8  qaudiooutput.o(.text)
    QAudioOutput::start(QIODevice*)          0x00008dcd   Thumb Code     8  qaudiooutput.o(.text)
    QAudioOutput::start()                    0x00008dd5   Thumb Code    10  qaudiooutput.o(.text)
    QAudioOutput::stop()                     0x00008ddf   Thumb Code     8  qaudiooutput.o(.text)
    QAudioOutput::reset()                    0x00008de7   Thumb Code     8  qaudiooutput.o(.text)
    QAudioOutput::suspend()                  0x00008def   Thumb Code     8  qaudiooutput.o(.text)
    QAudioOutput::resume()                   0x00008df7   Thumb Code     8  qaudiooutput.o(.text)
    QAudioOutput::setBufferSize(int)         0x00008dff   Thumb Code     8  qaudiooutput.o(.text)
    QAudioOutput::bufferSize() const         0x00008e07   Thumb Code     8  qaudiooutput.o(.text)
    QAudioOutput::bytesFree() const          0x00008e0f   Thumb Code     8  qaudiooutput.o(.text)
    QAudioOutput::periodSize() const         0x00008e17   Thumb Code     8  qaudiooutput.o(.text)
    QAudioOutput::setNotifyInterval(int)     0x00008e1f   Thumb Code     8  qaudiooutput.o(.text)
    QAudioOutput::notifyInterval() const     0x00008e27   Thumb Code     8  qaudiooutput.o(.text)
    QAudioOutput::processedUSecs() const     0x00008e2f   Thumb Code     8  qaudiooutput.o(.text)
    QAudioOutput::elapsedUSecs() const       0x00008e37   Thumb Code     8  qaudiooutput.o(.text)
    QAudioOutput::error() const              0x00008e3f   Thumb Code     8  qaudiooutput.o(.text)
    QAudioOutput::state() const              0x00008e47   Thumb Code     8  qaudiooutput.o(.text)
    QAudioInput::QAudioInput(const QAudioFormat&, QObject*) 0x00008e81   Thumb Code    60  qaudioinput.o(.text)
    QAudioInput::QAudioInput__sub_object(const QAudioFormat&, QObject*) 0x00008e81   Thumb Code     0  qaudioinput.o(.text)
    QAudioInput::QAudioInput(const QAudioDeviceInfo&, const QAudioFormat&, QObject*) 0x00008ebd   Thumb Code    64  qaudioinput.o(.text)
    QAudioInput::QAudioInput__sub_object(const QAudioDeviceInfo&, const QAudioFormat&, QObject*) 0x00008ebd   Thumb Code     0  qaudioinput.o(.text)
    QAudioInput::~QAudioInput()              0x00008efd   Thumb Code    28  qaudioinput.o(.text)
    QAudioInput::~QAudioInput__sub_object()  0x00008efd   Thumb Code     0  qaudioinput.o(.text)
    QAudioInput::~QAudioInput__deallocating() 0x00008f19   Thumb Code    16  qaudioinput.o(.text)
    QAudioInput::format() const              0x00008f29   Thumb Code     8  qaudioinput.o(.text)
    QAudioInput::start(QIODevice*)           0x00008f31   Thumb Code     8  qaudioinput.o(.text)
    QAudioInput::start()                     0x00008f39   Thumb Code    10  qaudioinput.o(.text)
    QAudioInput::stop()                      0x00008f43   Thumb Code     8  qaudioinput.o(.text)
    QAudioInput::reset()                     0x00008f4b   Thumb Code     8  qaudioinput.o(.text)
    QAudioInput::suspend()                   0x00008f53   Thumb Code     8  qaudioinput.o(.text)
    QAudioInput::resume()                    0x00008f5b   Thumb Code     8  qaudioinput.o(.text)
    QAudioInput::setBufferSize(int)          0x00008f63   Thumb Code     8  qaudioinput.o(.text)
    QAudioInput::bufferSize() const          0x00008f6b   Thumb Code     8  qaudioinput.o(.text)
    QAudioInput::bytesReady() const          0x00008f73   Thumb Code     8  qaudioinput.o(.text)
    QAudioInput::periodSize() const          0x00008f7b   Thumb Code     8  qaudioinput.o(.text)
    QAudioInput::setNotifyInterval(int)      0x00008f83   Thumb Code     8  qaudioinput.o(.text)
    QAudioInput::notifyInterval() const      0x00008f8b   Thumb Code     8  qaudioinput.o(.text)
    QAudioInput::processedUSecs() const      0x00008f93   Thumb Code     8  qaudioinput.o(.text)
    QAudioInput::elapsedUSecs() const        0x00008f9b   Thumb Code     8  qaudioinput.o(.text)
    QAudioInput::error() const               0x00008fa3   Thumb Code     8  qaudioinput.o(.text)
    QAudioInput::state() const               0x00008fab   Thumb Code     8  qaudioinput.o(.text)
    QAudioEnginePlugin::QAudioEnginePlugin__sub_object(QObject*) 0x00008fe5   Thumb Code    16  qaudioengineplugin.o(.text)
    QAudioEnginePlugin::~QAudioEnginePlugin() 0x00008ff5   Thumb Code     0  qaudioengineplugin.o(.text)
    QAudioEnginePlugin::~QAudioEnginePlugin__sub_object() 0x00008ff5   Thumb Code     8  qaudioengineplugin.o(.text)
    QAudioEnginePlugin::~QAudioEnginePlugin__deallocating() 0x00008ffd   Thumb Code    16  qaudioengineplugin.o(.text)
    thunk{-8} to QAudioEnginePlugin::~QAudioEnginePlugin__deallocating() 0x0000900d   Thumb Code     4  qaudioengineplugin.o(.text)
    thunk{-8} to QAudioEnginePlugin::~QAudioEnginePlugin() 0x00009011   Thumb Code     4  qaudioengineplugin.o(.text)
    QAudioDeviceFactory::availableDevices(QAudio::Mode) 0x000090a1   Thumb Code   400  qaudiodevicefactory.o(.text)
    QAudioDeviceFactory::defaultInputDevice() 0x00009231   Thumb Code   172  qaudiodevicefactory.o(.text)
    QAudioDeviceFactory::defaultOutputDevice() 0x000092dd   Thumb Code   170  qaudiodevicefactory.o(.text)
    QAudioDeviceFactory::audioDeviceInfo(const QString&, const QByteArray&, QAudio::Mode) 0x00009387   Thumb Code   218  qaudiodevicefactory.o(.text)
    QAudioDeviceFactory::createInputDevice(const QAudioDeviceInfo&, const QAudioFormat&) 0x00009461   Thumb Code   200  qaudiodevicefactory.o(.text)
    QAudioDeviceFactory::createDefaultInputDevice(const QAudioFormat&) 0x00009529   Thumb Code    30  qaudiodevicefactory.o(.text)
    QAudioDeviceFactory::createOutputDevice(const QAudioDeviceInfo&, const QAudioFormat&) 0x00009547   Thumb Code   200  qaudiodevicefactory.o(.text)
    QAudioDeviceFactory::createDefaultOutputDevice(const QAudioFormat&) 0x0000960f   Thumb Code    30  qaudiodevicefactory.o(.text)
    SymbianAudio::DevSoundWrapper::getSupportedCodecs() 0x00009631   Thumb Code    36  qaudio_symbian_p.o(.text)
    SymbianAudio::DevSoundWrapper::DevSoundWrapper(QAudio::Mode, QObject*) 0x00009655   Thumb Code   184  qaudio_symbian_p.o(.text)
    SymbianAudio::DevSoundWrapper::DevSoundWrapper__sub_object(QAudio::Mode, QObject*) 0x00009655   Thumb Code     0  qaudio_symbian_p.o(.text)
    SymbianAudio::DevSoundWrapper::~DevSoundWrapper() 0x0000970d   Thumb Code   102  qaudio_symbian_p.o(.text)
    SymbianAudio::DevSoundWrapper::~DevSoundWrapper__sub_object() 0x0000970d   Thumb Code     0  qaudio_symbian_p.o(.text)
    SymbianAudio::DevSoundWrapper::~DevSoundWrapper__deallocating() 0x00009773   Thumb Code    16  qaudio_symbian_p.o(.text)
    SymbianAudio::DevSoundWrapper::supportedCodecs() const 0x00009783   Thumb Code     4  qaudio_symbian_p.o(.text)
    SymbianAudio::DevSoundWrapper::initialize(const QString&) 0x00009787   Thumb Code   108  qaudio_symbian_p.o(.text)
    SymbianAudio::DevSoundWrapper::supportedFrequencies() const 0x000097f3   Thumb Code     4  qaudio_symbian_p.o(.text)
    SymbianAudio::DevSoundWrapper::supportedChannels() const 0x000097f7   Thumb Code     4  qaudio_symbian_p.o(.text)
    SymbianAudio::DevSoundWrapper::supportedSampleSizes() const 0x000097fb   Thumb Code     4  qaudio_symbian_p.o(.text)
    SymbianAudio::DevSoundWrapper::supportedByteOrders() const 0x000097ff   Thumb Code     4  qaudio_symbian_p.o(.text)
    SymbianAudio::DevSoundWrapper::supportedSampleTypes() const 0x00009803   Thumb Code     4  qaudio_symbian_p.o(.text)
    SymbianAudio::DevSoundWrapper::isFormatSupported(const QAudioFormat&) const 0x00009807   Thumb Code   332  qaudio_symbian_p.o(.text)
    SymbianAudio::DevSoundWrapper::samplesProcessed() const 0x00009953   Thumb Code    40  qaudio_symbian_p.o(.text)
    SymbianAudio::Utils::sampleInfoQtToNative(int, QAudioFormat::Endian, QAudioFormat::SampleType, unsigned long&, TMMFSoundEncoding&) 0x0000997b   Thumb Code    72  qaudio_symbian_p.o(.text)
    SymbianAudio::Utils::channelsQtToNative(int, TMMFMonoStereo&) 0x000099c3   Thumb Code    66  qaudio_symbian_p.o(.text)
    SymbianAudio::Utils::sampleRateQtToNative(int, TMMFSampleRate&) 0x00009a05   Thumb Code    34  qaudio_symbian_p.o(.text)
    SymbianAudio::Utils::formatQtToNative(const QAudioFormat&, unsigned long&, TMMFCapabilities&) 0x00009a27   Thumb Code   144  qaudio_symbian_p.o(.text)
    SymbianAudio::DevSoundWrapper::setFormat(const QAudioFormat&) 0x00009ab7   Thumb Code    96  qaudio_symbian_p.o(.text)
    SymbianAudio::DevSoundWrapper::start()   0x00009b17   Thumb Code   128  qaudio_symbian_p.o(.text)
    SymbianAudio::DevSoundWrapper::stop()    0x00009b97   Thumb Code    10  qaudio_symbian_p.o(.text)
    SymbianAudio::DevSoundWrapper::isResumeSupported() const 0x00009ba1   Thumb Code     4  qaudio_symbian_p.o(.text)
    SymbianAudio::DevSoundWrapper::pause()   0x00009ba5   Thumb Code    12  qaudio_symbian_p.o(.text)
    SymbianAudio::DevSoundWrapper::resume()  0x00009bb1   Thumb Code     2  qaudio_symbian_p.o(.text)
    SymbianAudio::DevSoundWrapper::bufferProcessed() 0x00009bb3   Thumb Code    28  qaudio_symbian_p.o(.text)
    SymbianAudio::DevSoundWrapper::populateCapabilities() 0x00009bcf   Thumb Code   196  qaudio_symbian_p.o(.text)
    SymbianAudio::DevSoundWrapper::InitializeComplete(int) 0x00009c93   Thumb Code    34  qaudio_symbian_p.o(.text)
    thunk{-8} to SymbianAudio::DevSoundWrapper::InitializeComplete(int) 0x00009cb5   Thumb Code     4  qaudio_symbian_p.o(.text)
    SymbianAudio::DevSoundWrapper::ToneFinished(int) 0x00009cb9   Thumb Code     2  qaudio_symbian_p.o(.text)
    thunk{-8} to SymbianAudio::DevSoundWrapper::ToneFinished(int) 0x00009cbb   Thumb Code     2  qaudio_symbian_p.o(.text)
    SymbianAudio::DevSoundWrapper::BufferToBeFilled(CMMFBuffer*) 0x00009cbd   Thumb Code     8  qaudio_symbian_p.o(.text)
    thunk{-8} to SymbianAudio::DevSoundWrapper::BufferToBeFilled(CMMFBuffer*) 0x00009cc5   Thumb Code    10  qaudio_symbian_p.o(.text)
    SymbianAudio::DevSoundWrapper::PlayError(int) 0x00009ccf   Thumb Code     8  qaudio_symbian_p.o(.text)
    thunk{-8} to SymbianAudio::DevSoundWrapper::PlayError(int) 0x00009cd7   Thumb Code    10  qaudio_symbian_p.o(.text)
    SymbianAudio::DevSoundWrapper::BufferToBeEmptied(CMMFBuffer*) 0x00009ce1   Thumb Code     8  qaudio_symbian_p.o(.text)
    thunk{-8} to SymbianAudio::DevSoundWrapper::BufferToBeEmptied(CMMFBuffer*) 0x00009ce9   Thumb Code    10  qaudio_symbian_p.o(.text)
    SymbianAudio::DevSoundWrapper::RecordError(int) 0x00009cf3   Thumb Code     8  qaudio_symbian_p.o(.text)
    thunk{-8} to SymbianAudio::DevSoundWrapper::RecordError(int) 0x00009cfb   Thumb Code    10  qaudio_symbian_p.o(.text)
    SymbianAudio::DevSoundWrapper::ConvertError(int) 0x00009d05   Thumb Code     2  qaudio_symbian_p.o(.text)
    thunk{-8} to SymbianAudio::DevSoundWrapper::ConvertError(int) 0x00009d07   Thumb Code     2  qaudio_symbian_p.o(.text)
    SymbianAudio::DevSoundWrapper::DeviceMessage(TUid, const TDesC8&) 0x00009d09   Thumb Code     2  qaudio_symbian_p.o(.text)
    thunk{-8} to SymbianAudio::DevSoundWrapper::DeviceMessage(TUid, const TDesC8&) 0x00009d0b   Thumb Code     2  qaudio_symbian_p.o(.text)
    SymbianAudio::Utils::sampleRateNativeToQt(TMMFSampleRate, int&) 0x00009d0d   Thumb Code    46  qaudio_symbian_p.o(.text)
    SymbianAudio::Utils::channelsNativeToQt(TMMFMonoStereo, int&) 0x00009d3b   Thumb Code    48  qaudio_symbian_p.o(.text)
    SymbianAudio::Utils::capabilitiesNativeToQt(const TMMFCapabilities&, const TFourCC&, QList<int>&, QList<int>&, QList<int>&, QList<QAudioFormat::Endian>&, QList<QAudioFormat::SampleType>&) 0x00009d6b   Thumb Code   178  qaudio_symbian_p.o(.text)
    SymbianAudio::Utils::stateNativeToQt(SymbianAudio::State) 0x00009e1d   Thumb Code    32  qaudio_symbian_p.o(.text)
    SymbianAudio::Utils::bytesToSamples(const QAudioFormat&, long long) 0x00009e3d   Thumb Code    42  qaudio_symbian_p.o(.text)
    SymbianAudio::Utils::samplesToBytes(const QAudioFormat&, long long) 0x00009e67   Thumb Code    44  qaudio_symbian_p.o(.text)
    QAudioDeviceInfoInternal::QAudioDeviceInfoInternal(QByteArray, QAudio::Mode) 0x00009e95   Thumb Code    74  qaudiodeviceinfo_symbian_p.o(.text)
    QAudioDeviceInfoInternal::QAudioDeviceInfoInternal__sub_object(QByteArray, QAudio::Mode) 0x00009e95   Thumb Code     0  qaudiodeviceinfo_symbian_p.o(.text)
    QAudioDeviceInfoInternal::~QAudioDeviceInfoInternal() 0x00009edf   Thumb Code    48  qaudiodeviceinfo_symbian_p.o(.text)
    QAudioDeviceInfoInternal::~QAudioDeviceInfoInternal__sub_object() 0x00009edf   Thumb Code     0  qaudiodeviceinfo_symbian_p.o(.text)
    QAudioDeviceInfoInternal::~QAudioDeviceInfoInternal__deallocating() 0x00009f0f   Thumb Code    16  qaudiodeviceinfo_symbian_p.o(.text)
    QAudioDeviceInfoInternal::preferredFormat() const 0x00009f1f   Thumb Code   416  qaudiodeviceinfo_symbian_p.o(.text)
    QAudioDeviceInfoInternal::getSupportedFormats() const 0x0000a0bf   Thumb Code   598  qaudiodeviceinfo_symbian_p.o(.text)
    QAudioDeviceInfoInternal::isFormatSupported(const QAudioFormat&) const 0x0000a315   Thumb Code   226  qaudiodeviceinfo_symbian_p.o(.text)
    QAudioDeviceInfoInternal::nearestFormat(const QAudioFormat&) const 0x0000a3f7   Thumb Code    44  qaudiodeviceinfo_symbian_p.o(.text)
    QAudioDeviceInfoInternal::deviceName() const 0x0000a423   Thumb Code    10  qaudiodeviceinfo_symbian_p.o(.text)
    QAudioDeviceInfoInternal::codecList()    0x0000a42d   Thumb Code    38  qaudiodeviceinfo_symbian_p.o(.text)
    QAudioDeviceInfoInternal::frequencyList() 0x0000a453   Thumb Code    24  qaudiodeviceinfo_symbian_p.o(.text)
    QAudioDeviceInfoInternal::channelsList() 0x0000a46b   Thumb Code    24  qaudiodeviceinfo_symbian_p.o(.text)
    QAudioDeviceInfoInternal::sampleSizeList() 0x0000a483   Thumb Code    24  qaudiodeviceinfo_symbian_p.o(.text)
    QAudioDeviceInfoInternal::byteOrderList() 0x0000a49b   Thumb Code    24  qaudiodeviceinfo_symbian_p.o(.text)
    QAudioDeviceInfoInternal::sampleTypeList() 0x0000a4b3   Thumb Code    24  qaudiodeviceinfo_symbian_p.o(.text)
    QAudioDeviceInfoInternal::defaultInputDevice() 0x0000a4cb   Thumb Code    10  qaudiodeviceinfo_symbian_p.o(.text)
    QAudioDeviceInfoInternal::defaultOutputDevice() 0x0000a4d5   Thumb Code    10  qaudiodeviceinfo_symbian_p.o(.text)
    QAudioDeviceInfoInternal::availableDevices(QAudio::Mode) 0x0000a4df   Thumb Code    36  qaudiodeviceinfo_symbian_p.o(.text)
    QAudioDeviceInfoInternal::devsoundInitializeComplete(int) 0x0000a503   Thumb Code     8  qaudiodeviceinfo_symbian_p.o(.text)
    SymbianAudioInputPrivate::SymbianAudioInputPrivate(QAudioInputPrivate*) 0x0000a519   Thumb Code    16  qaudioinput_symbian_p.o(.text)
    SymbianAudioInputPrivate::SymbianAudioInputPrivate__sub_object(QAudioInputPrivate*) 0x0000a519   Thumb Code     0  qaudioinput_symbian_p.o(.text)
    SymbianAudioInputPrivate::~SymbianAudioInputPrivate() 0x0000a529   Thumb Code     8  qaudioinput_symbian_p.o(.text)
    SymbianAudioInputPrivate::~SymbianAudioInputPrivate__sub_object() 0x0000a529   Thumb Code     0  qaudioinput_symbian_p.o(.text)
    SymbianAudioInputPrivate::~SymbianAudioInputPrivate__deallocating() 0x0000a531   Thumb Code    16  qaudioinput_symbian_p.o(.text)
    QAudioInputPrivate::setState(SymbianAudio::State) 0x0000a541   Thumb Code    30  qaudioinput_symbian_p.o(.text)
    QAudioInputPrivate::setError(QAudio::Error) 0x0000a55f   Thumb Code    88  qaudioinput_symbian_p.o(.text)
    QAudioInputPrivate::bufferEmptied()      0x0000a5b7   Thumb Code   126  qaudioinput_symbian_p.o(.text)
    QAudioInputPrivate::currentBuffer() const 0x0000a635   Thumb Code    36  qaudioinput_symbian_p.o(.text)
    QAudioInputPrivate::read(char*, long long) 0x0000a659   Thumb Code   188  qaudioinput_symbian_p.o(.text)
    SymbianAudioInputPrivate::readData(char*, long long) 0x0000a715   Thumb Code   106  qaudioinput_symbian_p.o(.text)
    SymbianAudioInputPrivate::writeData(const char*, long long) 0x0000a77f   Thumb Code     6  qaudioinput_symbian_p.o(.text)
    SymbianAudioInputPrivate::dataReady()    0x0000a785   Thumb Code     8  qaudioinput_symbian_p.o(.text)
    QAudioInputPrivate::QAudioInputPrivate(const QByteArray&, const QAudioFormat&) 0x0000a78d   Thumb Code   198  qaudioinput_symbian_p.o(.text)
    QAudioInputPrivate::QAudioInputPrivate__sub_object(const QByteArray&, const QAudioFormat&) 0x0000a78d   Thumb Code     0  qaudioinput_symbian_p.o(.text)
    QAudioInputPrivate::close()              0x0000a853   Thumb Code   100  qaudioinput_symbian_p.o(.text)
    QAudioInputPrivate::~QAudioInputPrivate() 0x0000a8b7   Thumb Code   158  qaudioinput_symbian_p.o(.text)
    QAudioInputPrivate::~QAudioInputPrivate__sub_object() 0x0000a8b7   Thumb Code     0  qaudioinput_symbian_p.o(.text)
    QAudioInputPrivate::~QAudioInputPrivate__deallocating() 0x0000a955   Thumb Code    16  qaudioinput_symbian_p.o(.text)
    QAudioInputPrivate::open()               0x0000a965   Thumb Code   112  qaudioinput_symbian_p.o(.text)
    QAudioInputPrivate::start(QIODevice*)    0x0000a9d5   Thumb Code    82  qaudioinput_symbian_p.o(.text)
    QAudioInputPrivate::stop()               0x0000aa27   Thumb Code     2  qaudioinput_symbian_p.o(.text)
    QAudioInputPrivate::pushData()           0x0000aa29   Thumb Code    16  qaudioinput_symbian_p.o(.text)
    QAudioInputPrivate::startDataTransfer()  0x0000aa39   Thumb Code    86  qaudioinput_symbian_p.o(.text)
    QAudioInputPrivate::startRecording()     0x0000aa8f   Thumb Code    58  qaudioinput_symbian_p.o(.text)
    QAudioInputPrivate::getSamplesRecorded() const 0x0000aac9   Thumb Code    24  qaudioinput_symbian_p.o(.text)
    QAudioInputPrivate::reset()              0x0000aae1   Thumb Code    30  qaudioinput_symbian_p.o(.text)
    QAudioInputPrivate::suspend()            0x0000aaff   Thumb Code    98  qaudioinput_symbian_p.o(.text)
    QAudioInputPrivate::resume()             0x0000ab61   Thumb Code    36  qaudioinput_symbian_p.o(.text)
    QAudioInputPrivate::bytesReady() const   0x0000ab85   Thumb Code    14  qaudioinput_symbian_p.o(.text)
    QAudioInputPrivate::periodSize() const   0x0000ab93   Thumb Code     6  qaudioinput_symbian_p.o(.text)
    QAudioInputPrivate::setBufferSize(int)   0x0000ab99   Thumb Code     8  qaudioinput_symbian_p.o(.text)
    QAudioInputPrivate::bufferSize() const   0x0000aba1   Thumb Code    14  qaudioinput_symbian_p.o(.text)
    QAudioInputPrivate::setNotifyInterval(int) 0x0000abaf   Thumb Code    36  qaudioinput_symbian_p.o(.text)
    QAudioInputPrivate::notifyInterval() const 0x0000abd3   Thumb Code     4  qaudioinput_symbian_p.o(.text)
    QAudioInputPrivate::processedUSecs() const 0x0000abd7   Thumb Code    58  qaudioinput_symbian_p.o(.text)
    QAudioInputPrivate::elapsedUSecs() const 0x0000ac11   Thumb Code    38  qaudioinput_symbian_p.o(.text)
    QAudioInputPrivate::error() const        0x0000ac37   Thumb Code     4  qaudioinput_symbian_p.o(.text)
    QAudioInputPrivate::state() const        0x0000ac3b   Thumb Code     4  qaudioinput_symbian_p.o(.text)
    QAudioInputPrivate::format() const       0x0000ac3f   Thumb Code    10  qaudioinput_symbian_p.o(.text)
    QAudioInputPrivate::pullData()           0x0000ac49   Thumb Code   340  qaudioinput_symbian_p.o(.text)
    QAudioInputPrivate::devsoundInitializeComplete(int) 0x0000ad9d   Thumb Code    40  qaudioinput_symbian_p.o(.text)
    QAudioInputPrivate::devsoundBufferToBeEmptied(CMMFBuffer*) 0x0000adc5   Thumb Code   100  qaudioinput_symbian_p.o(.text)
    QAudioInputPrivate::devsoundRecordError(int) 0x0000ae29   Thumb Code    10  qaudioinput_symbian_p.o(.text)
    SymbianAudioOutputPrivate::SymbianAudioOutputPrivate(QAudioOutputPrivate*) 0x0000ae35   Thumb Code    16  qaudiooutput_symbian_p.o(.text)
    SymbianAudioOutputPrivate::SymbianAudioOutputPrivate__sub_object(QAudioOutputPrivate*) 0x0000ae35   Thumb Code     0  qaudiooutput_symbian_p.o(.text)
    SymbianAudioOutputPrivate::~SymbianAudioOutputPrivate() 0x0000ae45   Thumb Code     8  qaudiooutput_symbian_p.o(.text)
    SymbianAudioOutputPrivate::~SymbianAudioOutputPrivate__sub_object() 0x0000ae45   Thumb Code     0  qaudiooutput_symbian_p.o(.text)
    SymbianAudioOutputPrivate::~SymbianAudioOutputPrivate__deallocating() 0x0000ae4d   Thumb Code    16  qaudiooutput_symbian_p.o(.text)
    SymbianAudioOutputPrivate::readData(char*, long long) 0x0000ae5d   Thumb Code     6  qaudiooutput_symbian_p.o(.text)
    QAudioOutputPrivate::setState(SymbianAudio::State) 0x0000ae63   Thumb Code    30  qaudiooutput_symbian_p.o(.text)
    QAudioOutputPrivate::getSamplesPlayed() const 0x0000ae81   Thumb Code    78  qaudiooutput_symbian_p.o(.text)
    QAudioOutputPrivate::bufferFilled()      0x0000aecf   Thumb Code    58  qaudiooutput_symbian_p.o(.text)
    QAudioOutputPrivate::pushData(const char*, long long) 0x0000af09   Thumb Code   170  qaudiooutput_symbian_p.o(.text)
    SymbianAudioOutputPrivate::writeData(const char*, long long) 0x0000afb3   Thumb Code   106  qaudiooutput_symbian_p.o(.text)
    QAudioOutputPrivate::QAudioOutputPrivate(const QByteArray&, const QAudioFormat&) 0x0000b01d   Thumb Code   196  qaudiooutput_symbian_p.o(.text)
    QAudioOutputPrivate::QAudioOutputPrivate__sub_object(const QByteArray&, const QAudioFormat&) 0x0000b01d   Thumb Code     0  qaudiooutput_symbian_p.o(.text)
    QAudioOutputPrivate::close()             0x0000b0e1   Thumb Code   102  qaudiooutput_symbian_p.o(.text)
    QAudioOutputPrivate::~QAudioOutputPrivate() 0x0000b147   Thumb Code    68  qaudiooutput_symbian_p.o(.text)
    QAudioOutputPrivate::~QAudioOutputPrivate__sub_object() 0x0000b147   Thumb Code     0  qaudiooutput_symbian_p.o(.text)
    QAudioOutputPrivate::~QAudioOutputPrivate__deallocating() 0x0000b18b   Thumb Code    16  qaudiooutput_symbian_p.o(.text)
    QAudioOutputPrivate::open()              0x0000b19b   Thumb Code   386  qaudiooutput_symbian_p.o(.text)
    QAudioOutputPrivate::start(QIODevice*)   0x0000b31d   Thumb Code   104  qaudiooutput_symbian_p.o(.text)
    QAudioOutputPrivate::stop()              0x0000b385   Thumb Code     2  qaudiooutput_symbian_p.o(.text)
    QAudioOutputPrivate::setError(QAudio::Error) 0x0000b387   Thumb Code    88  qaudiooutput_symbian_p.o(.text)
    QAudioOutputPrivate::lastBufferFilled()  0x0000b3df   Thumb Code    18  qaudiooutput_symbian_p.o(.text)
    QAudioOutputPrivate::pullData()          0x0000b3f1   Thumb Code   212  qaudiooutput_symbian_p.o(.text)
    QAudioOutputPrivate::dataReady()         0x0000b4c5   Thumb Code    10  qaudiooutput_symbian_p.o(.text)
    QAudioOutputPrivate::writePaddingData()  0x0000b4cf   Thumb Code   180  qaudiooutput_symbian_p.o(.text)
    QAudioOutputPrivate::isDataReady() const 0x0000b583   Thumb Code    48  qaudiooutput_symbian_p.o(.text)
    QAudioOutputPrivate::startPlayback()     0x0000b5b3   Thumb Code   130  qaudiooutput_symbian_p.o(.text)
    QAudioOutputPrivate::reset()             0x0000b635   Thumb Code    34  qaudiooutput_symbian_p.o(.text)
    QAudioOutputPrivate::suspend()           0x0000b657   Thumb Code   116  qaudiooutput_symbian_p.o(.text)
    QAudioOutputPrivate::resume()            0x0000b6cb   Thumb Code    70  qaudiooutput_symbian_p.o(.text)
    QAudioOutputPrivate::bytesFree() const   0x0000b711   Thumb Code    28  qaudiooutput_symbian_p.o(.text)
    QAudioOutputPrivate::periodSize() const  0x0000b72d   Thumb Code     6  qaudiooutput_symbian_p.o(.text)
    QAudioOutputPrivate::setBufferSize(int)  0x0000b733   Thumb Code     8  qaudiooutput_symbian_p.o(.text)
    QAudioOutputPrivate::bufferSize() const  0x0000b73b   Thumb Code    14  qaudiooutput_symbian_p.o(.text)
    QAudioOutputPrivate::setNotifyInterval(int) 0x0000b749   Thumb Code    36  qaudiooutput_symbian_p.o(.text)
    QAudioOutputPrivate::notifyInterval() const 0x0000b76d   Thumb Code     4  qaudiooutput_symbian_p.o(.text)
    QAudioOutputPrivate::processedUSecs() const 0x0000b771   Thumb Code    58  qaudiooutput_symbian_p.o(.text)
    QAudioOutputPrivate::elapsedUSecs() const 0x0000b7ab   Thumb Code    38  qaudiooutput_symbian_p.o(.text)
    QAudioOutputPrivate::error() const       0x0000b7d1   Thumb Code     4  qaudiooutput_symbian_p.o(.text)
    QAudioOutputPrivate::state() const       0x0000b7d5   Thumb Code     4  qaudiooutput_symbian_p.o(.text)
    QAudioOutputPrivate::format() const      0x0000b7d9   Thumb Code    10  qaudiooutput_symbian_p.o(.text)
    QAudioOutputPrivate::underflowTimerExpired() 0x0000b7e3   Thumb Code    38  qaudiooutput_symbian_p.o(.text)
    QAudioOutputPrivate::devsoundInitializeComplete(int) 0x0000b809   Thumb Code    40  qaudiooutput_symbian_p.o(.text)
    QAudioOutputPrivate::devsoundBufferToBeFilled(CMMFBuffer*) 0x0000b831   Thumb Code    62  qaudiooutput_symbian_p.o(.text)
    QAudioOutputPrivate::devsoundPlayError(int) 0x0000b86f   Thumb Code    52  qaudiooutput_symbian_p.o(.text)
    QAudioInput::getStaticMetaObject()       0x0000b8a9   Thumb Code     4  moc_qaudioinput.o(.text)
    QAudioInput::metaObject() const          0x0000b8ad   Thumb Code    12  moc_qaudioinput.o(.text)
    QAudioInput::qt_metacast(const char*)    0x0000b8b9   Thumb Code    40  moc_qaudioinput.o(.text)
    QAudioInput::notify()                    0x0000b8e1   Thumb Code    14  moc_qaudioinput.o(.text)
    QAudioInput::stateChanged(QAudio::State) 0x0000b8ef   Thumb Code    28  moc_qaudioinput.o(.text)
    QAudioInput::qt_metacall(QMetaObject::Call, int, void**) 0x0000b90b   Thumb Code    52  moc_qaudioinput.o(.text)
    QAudioOutput::getStaticMetaObject()      0x0000b945   Thumb Code     4  moc_qaudiooutput.o(.text)
    QAudioOutput::metaObject() const         0x0000b949   Thumb Code    12  moc_qaudiooutput.o(.text)
    QAudioOutput::qt_metacast(const char*)   0x0000b955   Thumb Code    40  moc_qaudiooutput.o(.text)
    QAudioOutput::notify()                   0x0000b97d   Thumb Code    14  moc_qaudiooutput.o(.text)
    QAudioOutput::stateChanged(QAudio::State) 0x0000b98b   Thumb Code    28  moc_qaudiooutput.o(.text)
    QAudioOutput::qt_metacall(QMetaObject::Call, int, void**) 0x0000b9a7   Thumb Code    52  moc_qaudiooutput.o(.text)
    QAudioEnginePlugin::getStaticMetaObject() 0x0000b9e1   Thumb Code     4  moc_qaudioengineplugin.o(.text)
    QAudioEnginePlugin::metaObject() const   0x0000b9e5   Thumb Code    12  moc_qaudioengineplugin.o(.text)
    QAudioEnginePlugin::qt_metacast(const char*) 0x0000b9f1   Thumb Code    84  moc_qaudioengineplugin.o(.text)
    QAudioEnginePlugin::qt_metacall(QMetaObject::Call, int, void**) 0x0000ba45   Thumb Code     8  moc_qaudioengineplugin.o(.text)
    QAbstractAudioDeviceInfo::getStaticMetaObject() 0x0000bac1   Thumb Code     4  moc_qaudioengine.o(.text)
    QAbstractAudioDeviceInfo::metaObject() const 0x0000bac5   Thumb Code    12  moc_qaudioengine.o(.text)
    QAbstractAudioDeviceInfo::qt_metacast(const char*) 0x0000bad1   Thumb Code    40  moc_qaudioengine.o(.text)
    QAbstractAudioDeviceInfo::qt_metacall(QMetaObject::Call, int, void**) 0x0000baf9   Thumb Code     8  moc_qaudioengine.o(.text)
    QAbstractAudioOutput::getStaticMetaObject() 0x0000bb01   Thumb Code     6  moc_qaudioengine.o(.text)
    QAbstractAudioOutput::metaObject() const 0x0000bb07   Thumb Code    14  moc_qaudioengine.o(.text)
    QAbstractAudioOutput::qt_metacast(const char*) 0x0000bb15   Thumb Code    40  moc_qaudioengine.o(.text)
    QAbstractAudioOutput::notify()           0x0000bb3d   Thumb Code    16  moc_qaudioengine.o(.text)
    QAbstractAudioOutput::stateChanged(QAudio::State) 0x0000bb4d   Thumb Code    30  moc_qaudioengine.o(.text)
    QAbstractAudioOutput::qt_metacall(QMetaObject::Call, int, void**) 0x0000bb6b   Thumb Code    52  moc_qaudioengine.o(.text)
    QAbstractAudioInput::getStaticMetaObject() 0x0000bb9f   Thumb Code     6  moc_qaudioengine.o(.text)
    QAbstractAudioInput::metaObject() const  0x0000bba5   Thumb Code    14  moc_qaudioengine.o(.text)
    QAbstractAudioInput::qt_metacast(const char*) 0x0000bbb3   Thumb Code    40  moc_qaudioengine.o(.text)
    QAbstractAudioInput::notify()            0x0000bbdb   Thumb Code    16  moc_qaudioengine.o(.text)
    QAbstractAudioInput::stateChanged(QAudio::State) 0x0000bbeb   Thumb Code    28  moc_qaudioengine.o(.text)
    QAbstractAudioInput::qt_metacall(QMetaObject::Call, int, void**) 0x0000bc07   Thumb Code    52  moc_qaudioengine.o(.text)
    SymbianAudio::DevSoundWrapper::getStaticMetaObject() 0x0000bc41   Thumb Code     4  moc_qaudio_symbian_p.o(.text)
    SymbianAudio::DevSoundWrapper::metaObject() const 0x0000bc45   Thumb Code    12  moc_qaudio_symbian_p.o(.text)
    SymbianAudio::DevSoundWrapper::qt_metacast(const char*) 0x0000bc51   Thumb Code    58  moc_qaudio_symbian_p.o(.text)
    SymbianAudio::DevSoundWrapper::processingError(int) 0x0000bc8b   Thumb Code    30  moc_qaudio_symbian_p.o(.text)
    SymbianAudio::DevSoundWrapper::bufferToBeProcessed(CMMFBuffer*) 0x0000bca9   Thumb Code    28  moc_qaudio_symbian_p.o(.text)
    SymbianAudio::DevSoundWrapper::initializeComplete(int) 0x0000bcc5   Thumb Code    26  moc_qaudio_symbian_p.o(.text)
    SymbianAudio::DevSoundWrapper::qt_metacall(QMetaObject::Call, int, void**) 0x0000bcdf   Thumb Code    72  moc_qaudio_symbian_p.o(.text)
    QAudioDeviceInfoInternal::getStaticMetaObject() 0x0000bd41   Thumb Code     4  moc_qaudiodeviceinfo_symbian_p.o(.text)
    QAudioDeviceInfoInternal::metaObject() const 0x0000bd45   Thumb Code    12  moc_qaudiodeviceinfo_symbian_p.o(.text)
    QAudioDeviceInfoInternal::qt_metacast(const char*) 0x0000bd51   Thumb Code    40  moc_qaudiodeviceinfo_symbian_p.o(.text)
    QAudioDeviceInfoInternal::qt_metacall(QMetaObject::Call, int, void**) 0x0000bd79   Thumb Code    40  moc_qaudiodeviceinfo_symbian_p.o(.text)
    SymbianAudioInputPrivate::getStaticMetaObject() 0x0000bda5   Thumb Code     4  moc_qaudioinput_symbian_p.o(.text)
    SymbianAudioInputPrivate::metaObject() const 0x0000bda9   Thumb Code    12  moc_qaudioinput_symbian_p.o(.text)
    SymbianAudioInputPrivate::qt_metacast(const char*) 0x0000bdb5   Thumb Code    40  moc_qaudioinput_symbian_p.o(.text)
    SymbianAudioInputPrivate::qt_metacall(QMetaObject::Call, int, void**) 0x0000bddd   Thumb Code     8  moc_qaudioinput_symbian_p.o(.text)
    QAudioInputPrivate::getStaticMetaObject() 0x0000bde5   Thumb Code     6  moc_qaudioinput_symbian_p.o(.text)
    QAudioInputPrivate::metaObject() const   0x0000bdeb   Thumb Code    14  moc_qaudioinput_symbian_p.o(.text)
    QAudioInputPrivate::qt_metacast(const char*) 0x0000bdf9   Thumb Code    40  moc_qaudioinput_symbian_p.o(.text)
    QAudioInputPrivate::qt_metacall(QMetaObject::Call, int, void**) 0x0000be21   Thumb Code    90  moc_qaudioinput_symbian_p.o(.text)
    SymbianAudioOutputPrivate::getStaticMetaObject() 0x0000be81   Thumb Code     4  moc_qaudiooutput_symbian_p.o(.text)
    SymbianAudioOutputPrivate::metaObject() const 0x0000be85   Thumb Code    12  moc_qaudiooutput_symbian_p.o(.text)
    SymbianAudioOutputPrivate::qt_metacast(const char*) 0x0000be91   Thumb Code    40  moc_qaudiooutput_symbian_p.o(.text)
    SymbianAudioOutputPrivate::qt_metacall(QMetaObject::Call, int, void**) 0x0000beb9   Thumb Code     8  moc_qaudiooutput_symbian_p.o(.text)
    QAudioOutputPrivate::getStaticMetaObject() 0x0000bec1   Thumb Code     6  moc_qaudiooutput_symbian_p.o(.text)
    QAudioOutputPrivate::metaObject() const  0x0000bec7   Thumb Code    14  moc_qaudiooutput_symbian_p.o(.text)
    QAudioOutputPrivate::qt_metacast(const char*) 0x0000bed5   Thumb Code    40  moc_qaudiooutput_symbian_p.o(.text)
    QAudioOutputPrivate::qt_metacall(QMetaObject::Call, int, void**) 0x0000befd   Thumb Code    98  moc_qaudiooutput_symbian_p.o(.text)
    QAbstractVideoSurface::getStaticMetaObject() 0x0000bf65   Thumb Code     4  moc_qabstractvideosurface.o(.text)
    QAbstractVideoSurface::metaObject() const 0x0000bf69   Thumb Code    12  moc_qabstractvideosurface.o(.text)
    QAbstractVideoSurface::qt_metacast(const char*) 0x0000bf75   Thumb Code    40  moc_qabstractvideosurface.o(.text)
    QAbstractVideoSurface::supportedFormatsChanged() 0x0000bf9d   Thumb Code    14  moc_qabstractvideosurface.o(.text)
    QAbstractVideoSurface::surfaceFormatChanged(const QVideoSurfaceFormat&) 0x0000bfab   Thumb Code    24  moc_qabstractvideosurface.o(.text)
    QAbstractVideoSurface::activeChanged(bool) 0x0000bfc3   Thumb Code    28  moc_qabstractvideosurface.o(.text)
    QAbstractVideoSurface::qt_metacall(QMetaObject::Call, int, void**) 0x0000bfdf   Thumb Code    66  moc_qabstractvideosurface.o(.text)
    QAbstractVideoBuffer::QAbstractVideoBuffer__sub_object(QAbstractVideoBuffer::HandleType) 0x0000c025   Thumb Code    32  qabstractvideobuffer.o(.text)
    QAbstractVideoBuffer::~QAbstractVideoBuffer() 0x0000c045   Thumb Code     0  qabstractvideobuffer.o(.text)
    QAbstractVideoBuffer::~QAbstractVideoBuffer__sub_object() 0x0000c045   Thumb Code    24  qabstractvideobuffer.o(.text)
    QAbstractVideoBuffer::~QAbstractVideoBuffer__deallocating() 0x0000c05d   Thumb Code    16  qabstractvideobuffer.o(.text)
    QAbstractVideoBuffer::handleType() const 0x0000c06d   Thumb Code     6  qabstractvideobuffer.o(.text)
    QAbstractVideoBuffer::handle() const     0x0000c073   Thumb Code    24  qabstractvideobuffer.o(.text)
    QAbstractVideoBuffer::QAbstractVideoBuffer__sub_object(QAbstractVideoBufferPrivate&, QAbstractVideoBuffer::HandleType) 0x0000c08b   Thumb Code    10  qabstractvideobuffer.o(.text)
    QAbstractVideoSurface::QAbstractVideoSurface__sub_object(QObject*) 0x0000c09d   Thumb Code    64  qabstractvideosurface.o(.text)
    QAbstractVideoSurface::~QAbstractVideoSurface() 0x0000c0dd   Thumb Code     0  qabstractvideosurface.o(.text)
    QAbstractVideoSurface::~QAbstractVideoSurface__sub_object() 0x0000c0dd   Thumb Code     8  qabstractvideosurface.o(.text)
    QAbstractVideoSurface::~QAbstractVideoSurface__deallocating() 0x0000c0e5   Thumb Code    16  qabstractvideosurface.o(.text)
    QAbstractVideoSurface::isFormatSupported(const QVideoSurfaceFormat&) const 0x0000c0f5   Thumb Code   180  qabstractvideosurface.o(.text)
    QAbstractVideoSurface::nearestFormat(const QVideoSurfaceFormat&) const 0x0000c1a9   Thumb Code    52  qabstractvideosurface.o(.text)
    QAbstractVideoSurface::surfaceFormat() const 0x0000c1dd   Thumb Code    12  qabstractvideosurface.o(.text)
    QAbstractVideoSurface::start(const QVideoSurfaceFormat&) 0x0000c1e9   Thumb Code    52  qabstractvideosurface.o(.text)
    QAbstractVideoSurface::stop()            0x0000c21d   Thumb Code    62  qabstractvideosurface.o(.text)
    QAbstractVideoSurface::isActive() const  0x0000c25b   Thumb Code     8  qabstractvideosurface.o(.text)
    QAbstractVideoSurface::error() const     0x0000c263   Thumb Code     6  qabstractvideosurface.o(.text)
    QAbstractVideoSurface::QAbstractVideoSurface__sub_object(QAbstractVideoSurfacePrivate&, QObject*) 0x0000c269   Thumb Code    12  qabstractvideosurface.o(.text)
    QAbstractVideoSurface::setError(QAbstractVideoSurface::Error) 0x0000c275   Thumb Code     6  qabstractvideosurface.o(.text)
    QImageVideoBuffer::QImageVideoBuffer(const QImage&) 0x0000c289   Thumb Code    70  qimagevideobuffer.o(.text)
    QImageVideoBuffer::QImageVideoBuffer__sub_object(const QImage&) 0x0000c289   Thumb Code     0  qimagevideobuffer.o(.text)
    QImageVideoBuffer::~QImageVideoBuffer()  0x0000c2cf   Thumb Code     8  qimagevideobuffer.o(.text)
    QImageVideoBuffer::~QImageVideoBuffer__sub_object() 0x0000c2cf   Thumb Code     0  qimagevideobuffer.o(.text)
    QImageVideoBuffer::~QImageVideoBuffer__deallocating() 0x0000c2d7   Thumb Code    16  qimagevideobuffer.o(.text)
    QImageVideoBuffer::mapMode() const       0x0000c2e7   Thumb Code     6  qimagevideobuffer.o(.text)
    QImageVideoBuffer::map(QAbstractVideoBuffer::MapMode, int*, int*) 0x0000c2ed   Thumb Code    72  qimagevideobuffer.o(.text)
    QImageVideoBuffer::unmap()               0x0000c335   Thumb Code     8  qimagevideobuffer.o(.text)
    QMemoryVideoBuffer::QMemoryVideoBuffer(const QByteArray&, int) 0x0000c345   Thumb Code    70  qmemoryvideobuffer.o(.text)
    QMemoryVideoBuffer::QMemoryVideoBuffer__sub_object(const QByteArray&, int) 0x0000c345   Thumb Code     0  qmemoryvideobuffer.o(.text)
    QMemoryVideoBuffer::~QMemoryVideoBuffer() 0x0000c38b   Thumb Code     8  qmemoryvideobuffer.o(.text)
    QMemoryVideoBuffer::~QMemoryVideoBuffer__sub_object() 0x0000c38b   Thumb Code     0  qmemoryvideobuffer.o(.text)
    QMemoryVideoBuffer::~QMemoryVideoBuffer__deallocating() 0x0000c393   Thumb Code    16  qmemoryvideobuffer.o(.text)
    QMemoryVideoBuffer::mapMode() const      0x0000c3a3   Thumb Code     6  qmemoryvideobuffer.o(.text)
    QMemoryVideoBuffer::map(QAbstractVideoBuffer::MapMode, int*, int*) 0x0000c3a9   Thumb Code    68  qmemoryvideobuffer.o(.text)
    QMemoryVideoBuffer::unmap()              0x0000c3ed   Thumb Code     8  qmemoryvideobuffer.o(.text)
    QVideoFrame::QVideoFrame()               0x0000c401   Thumb Code    50  qvideoframe.o(.text)
    QVideoFrame::QVideoFrame__sub_object()   0x0000c401   Thumb Code     0  qvideoframe.o(.text)
    QVideoFrame::QVideoFrame(QAbstractVideoBuffer*, const QSize&, QVideoFrame::PixelFormat) 0x0000c433   Thumb Code    48  qvideoframe.o(.text)
    QVideoFrame::QVideoFrame__sub_object(QAbstractVideoBuffer*, const QSize&, QVideoFrame::PixelFormat) 0x0000c433   Thumb Code     0  qvideoframe.o(.text)
    QVideoFrame::QVideoFrame(int, const QSize&, int, QVideoFrame::PixelFormat) 0x0000c463   Thumb Code   102  qvideoframe.o(.text)
    QVideoFrame::QVideoFrame__sub_object(int, const QSize&, int, QVideoFrame::PixelFormat) 0x0000c463   Thumb Code     0  qvideoframe.o(.text)
    QVideoFrame::pixelFormatFromImageFormat(QImage::Format) 0x0000c4c9   Thumb Code    56  qvideoframe.o(.text)
    QVideoFrame::QVideoFrame(const QImage&)  0x0000c501   Thumb Code    90  qvideoframe.o(.text)
    QVideoFrame::QVideoFrame__sub_object(const QImage&) 0x0000c501   Thumb Code     0  qvideoframe.o(.text)
    QVideoFrame::QVideoFrame(const QVideoFrame&) 0x0000c55b   Thumb Code    20  qvideoframe.o(.text)
    QVideoFrame::QVideoFrame__sub_object(const QVideoFrame&) 0x0000c55b   Thumb Code     0  qvideoframe.o(.text)
    QVideoFrame::~QVideoFrame()              0x0000c56f   Thumb Code     8  qvideoframe.o(.text)
    QVideoFrame::~QVideoFrame__sub_object()  0x0000c56f   Thumb Code     0  qvideoframe.o(.text)
    QVideoFrame::operator =(const QVideoFrame&) 0x0000c577   Thumb Code    56  qvideoframe.o(.text)
    QVideoFrame::isValid() const             0x0000c5af   Thumb Code    16  qvideoframe.o(.text)
    QVideoFrame::pixelFormat() const         0x0000c5bf   Thumb Code     6  qvideoframe.o(.text)
    QVideoFrame::handleType() const          0x0000c5c5   Thumb Code    20  qvideoframe.o(.text)
    QVideoFrame::size() const                0x0000c5d9   Thumb Code    10  qvideoframe.o(.text)
    QVideoFrame::width() const               0x0000c5e3   Thumb Code     6  qvideoframe.o(.text)
    QVideoFrame::height() const              0x0000c5e9   Thumb Code     6  qvideoframe.o(.text)
    QVideoFrame::fieldType() const           0x0000c5ef   Thumb Code     6  qvideoframe.o(.text)
    QVideoFrame::setFieldType(QVideoFrame::FieldType) 0x0000c5f5   Thumb Code     6  qvideoframe.o(.text)
    QVideoFrame::isMapped() const            0x0000c5fb   Thumb Code    28  qvideoframe.o(.text)
    QVideoFrame::isReadable() const          0x0000c617   Thumb Code    28  qvideoframe.o(.text)
    QVideoFrame::isWritable() const          0x0000c633   Thumb Code    28  qvideoframe.o(.text)
    QVideoFrame::mapMode() const             0x0000c64f   Thumb Code    18  qvideoframe.o(.text)
    QVideoFrame::map(QAbstractVideoBuffer::MapMode) 0x0000c661   Thumb Code    46  qvideoframe.o(.text)
    QVideoFrame::unmap()                     0x0000c68f   Thumb Code    32  qvideoframe.o(.text)
    QVideoFrame::bytesPerLine() const        0x0000c6af   Thumb Code     6  qvideoframe.o(.text)
    QVideoFrame::bits()                      0x0000c6b5   Thumb Code     6  qvideoframe.o(.text)
    QVideoFrame::bits() const                0x0000c6bb   Thumb Code     6  qvideoframe.o(.text)
    QVideoFrame::mappedBytes() const         0x0000c6c1   Thumb Code     6  qvideoframe.o(.text)
    QVideoFrame::handle() const              0x0000c6c7   Thumb Code    92  qvideoframe.o(.text)
    QVideoFrame::startTime() const           0x0000c723   Thumb Code     8  qvideoframe.o(.text)
    QVideoFrame::setStartTime(long long)     0x0000c72b   Thumb Code     8  qvideoframe.o(.text)
    QVideoFrame::endTime() const             0x0000c733   Thumb Code     8  qvideoframe.o(.text)
    QVideoFrame::setEndTime(long long)       0x0000c73b   Thumb Code     8  qvideoframe.o(.text)
    QVideoFrame::imageFormatFromPixelFormat(QVideoFrame::PixelFormat) 0x0000c743   Thumb Code    86  qvideoframe.o(.text)
    QVideoSurfaceFormat::sizeHint() const    0x0000c79d   Thumb Code    58  qvideosurfaceformat.o(.text)
    QVideoSurfaceFormat::property(const char*) const 0x0000c7d7   Thumb Code   434  qvideosurfaceformat.o(.text)
    QVideoSurfaceFormat::propertyNames() const 0x0000c989   Thumb Code   264  qvideosurfaceformat.o(.text)
    QVideoSurfaceFormat::pixelAspectRatio() const 0x0000ca91   Thumb Code    10  qvideosurfaceformat.o(.text)
    QVideoSurfaceFormat::viewport() const    0x0000ca9b   Thumb Code    12  qvideosurfaceformat.o(.text)
    QVideoSurfaceFormat::frameSize() const   0x0000caa7   Thumb Code    10  qvideosurfaceformat.o(.text)
    QVideoSurfaceFormat::pixelFormat() const 0x0000cab1   Thumb Code     6  qvideosurfaceformat.o(.text)
    operator <<(QDebug, const QVideoSurfaceFormat&) 0x0000cab7   Thumb Code  1266  qvideosurfaceformat.o(.text)
    QVideoSurfaceFormat::QVideoSurfaceFormat() 0x0000cfa9   Thumb Code    84  qvideosurfaceformat.o(.text)
    QVideoSurfaceFormat::QVideoSurfaceFormat__sub_object() 0x0000cfa9   Thumb Code     0  qvideosurfaceformat.o(.text)
    QVideoSurfaceFormat::QVideoSurfaceFormat(const QSize&, QVideoFrame::PixelFormat, QAbstractVideoBuffer::HandleType) 0x0000cffd   Thumb Code   102  qvideosurfaceformat.o(.text)
    QVideoSurfaceFormat::QVideoSurfaceFormat__sub_object(const QSize&, QVideoFrame::PixelFormat, QAbstractVideoBuffer::HandleType) 0x0000cffd   Thumb Code     0  qvideosurfaceformat.o(.text)
    QVideoSurfaceFormat::QVideoSurfaceFormat(const QVideoSurfaceFormat&) 0x0000d063   Thumb Code    20  qvideosurfaceformat.o(.text)
    QVideoSurfaceFormat::QVideoSurfaceFormat__sub_object(const QVideoSurfaceFormat&) 0x0000d063   Thumb Code     0  qvideosurfaceformat.o(.text)
    QVideoSurfaceFormat::~QVideoSurfaceFormat() 0x0000d077   Thumb Code     8  qvideosurfaceformat.o(.text)
    QVideoSurfaceFormat::~QVideoSurfaceFormat__sub_object() 0x0000d077   Thumb Code     0  qvideosurfaceformat.o(.text)
    QVideoSurfaceFormat::operator =(const QVideoSurfaceFormat&) 0x0000d07f   Thumb Code    56  qvideosurfaceformat.o(.text)
    QVideoSurfaceFormat::operator ==(const QVideoSurfaceFormat&) const 0x0000d0b7   Thumb Code   250  qvideosurfaceformat.o(.text)
    QVideoSurfaceFormat::operator !=(const QVideoSurfaceFormat&) const 0x0000d1b1   Thumb Code    26  qvideosurfaceformat.o(.text)
    QVideoSurfaceFormat::isValid() const     0x0000d1cb   Thumb Code    36  qvideosurfaceformat.o(.text)
    QVideoSurfaceFormat::handleType() const  0x0000d1ef   Thumb Code     6  qvideosurfaceformat.o(.text)
    QVideoSurfaceFormat::setFrameSize(const QSize&) 0x0000d1f5   Thumb Code    54  qvideosurfaceformat.o(.text)
    QVideoSurfaceFormat::setFrameSize(int, int) 0x0000d22b   Thumb Code    44  qvideosurfaceformat.o(.text)
    QVideoSurfaceFormat::frameWidth() const  0x0000d257   Thumb Code     6  qvideosurfaceformat.o(.text)
    QVideoSurfaceFormat::frameHeight() const 0x0000d25d   Thumb Code     6  qvideosurfaceformat.o(.text)
    QVideoSurfaceFormat::setViewport(const QRect&) 0x0000d263   Thumb Code    16  qvideosurfaceformat.o(.text)
    QVideoSurfaceFormat::scanLineDirection() const 0x0000d273   Thumb Code     6  qvideosurfaceformat.o(.text)
    QVideoSurfaceFormat::setScanLineDirection(QVideoSurfaceFormat::Direction) 0x0000d279   Thumb Code    12  qvideosurfaceformat.o(.text)
    QVideoSurfaceFormat::frameRate() const   0x0000d285   Thumb Code     6  qvideosurfaceformat.o(.text)
    QVideoSurfaceFormat::setFrameRate(float) 0x0000d28b   Thumb Code    12  qvideosurfaceformat.o(.text)
    QVideoSurfaceFormat::setPixelAspectRatio(const QSize&) 0x0000d297   Thumb Code    16  qvideosurfaceformat.o(.text)
    QVideoSurfaceFormat::setPixelAspectRatio(int, int) 0x0000d2a7   Thumb Code    16  qvideosurfaceformat.o(.text)
    QVideoSurfaceFormat::yCbCrColorSpace() const 0x0000d2b7   Thumb Code     6  qvideosurfaceformat.o(.text)
    QVideoSurfaceFormat::setYCbCrColorSpace(QVideoSurfaceFormat::YCbCrColorSpace) 0x0000d2bd   Thumb Code    12  qvideosurfaceformat.o(.text)
    QVideoSurfaceFormat::setProperty(const char*, const QVariant&) 0x0000d2c9   Thumb Code   804  qvideosurfaceformat.o(.text)
    __ARM_switch8                            0x0000d618   ARM Code      24  switch8.o(.text)
    __rt_switch8                             0x0000d618   ARM Code       0  switch8.o(.text)
    _E32Dll_Body                             0x0000d630   ARM Code      56  uc_dll.o(.text)
    __aeabi_atexit                           0x0000d66c   ARM Code      28  ucppfini.o(.text)
    __cxa_atexit                             0x0000d688   ARM Code      48  ucppfini.o(.text)
    __cxa_finalize                           0x0000d6b8   ARM Code      48  ucppfini.o(.text)
    run_static_dtors                         0x0000d6e8   ARM Code       8  ucppfini.o(.text)
    __DLL_Export_Table__                     0x0000d6fc   ARM Code       4  dllexp.o(.text)
    qvariant_cast_helper(const QVariant&, QVariant::Type, void*) 0x0000de55   Thumb Code    16  qvideosurfaceformat.o(i._Z20qvariant_cast_helperRK8QVariantNS_4TypeEPv)
    qWarning()                               0x0000de69   Thumb Code    50  qaudiodevicefactory.o(i._Z8qWarningv)
    QByteArray::data()                       0x0000dead   Thumb Code    36  qmemoryvideobuffer.o(i._ZN10QByteArray4dataEv)
    QByteArray::QByteArray(const QByteArray&) 0x0000ded1   Thumb Code    16  qaudiodeviceinfo.o(i._ZN10QByteArrayC1ERKS_)
    QByteArray::QByteArray__sub_object(const QByteArray&) 0x0000ded1   Thumb Code     0  qaudiodeviceinfo.o(i._ZN10QByteArrayC1ERKS_)
    QByteArray::~QByteArray()                0x0000dee1   Thumb Code    24  qaudiodeviceinfo.o(i._ZN10QByteArrayD1Ev)
    QByteArray::~QByteArray__sub_object()    0x0000dee1   Thumb Code     0  qaudiodeviceinfo.o(i._ZN10QByteArrayD1Ev)
    QStringList::~QStringList()              0x0000def9   Thumb Code     8  qaudiodeviceinfo.o(i._ZN11QStringListD1Ev)
    QStringList::~QStringList__sub_object()  0x0000def9   Thumb Code     0  qaudiodeviceinfo.o(i._ZN11QStringListD1Ev)
    QMapIterator<int, int>::~QMapIterator()  0x0000df01   Thumb Code     8  qaudiodeviceinfo.o(i._ZN12QMapIteratorIiiED1Ev)
    QMapIterator<int, int>::~QMapIterator__sub_object() 0x0000df01   Thumb Code     0  qaudiodeviceinfo.o(i._ZN12QMapIteratorIiiED1Ev)
    QBasicAtomicInt::ref()                   0x0000df09   Thumb Code    18  qaudioformat.o(i._ZN15QBasicAtomicInt3refEv)
    QBasicAtomicInt::deref()                 0x0000df1b   Thumb Code    18  qaudioformat.o(i._ZN15QBasicAtomicInt5derefEv)
    QNullDeviceInfo::channelsList()          0x0000df2d   Thumb Code     8  qaudiodevicefactory.o(i._ZN15QNullDeviceInfo12channelsListEv)
    QNullDeviceInfo::byteOrderList()         0x0000df35   Thumb Code    14  qaudiodevicefactory.o(i._ZN15QNullDeviceInfo13byteOrderListEv)
    QNullDeviceInfo::frequencyList()         0x0000df49   Thumb Code     8  qaudiodevicefactory.o(i._ZN15QNullDeviceInfo13frequencyListEv)
    QNullDeviceInfo::sampleSizeList()        0x0000df51   Thumb Code     8  qaudiodevicefactory.o(i._ZN15QNullDeviceInfo14sampleSizeListEv)
    QNullDeviceInfo::sampleTypeList()        0x0000df59   Thumb Code    14  qaudiodevicefactory.o(i._ZN15QNullDeviceInfo14sampleTypeListEv)
    QNullDeviceInfo::codecList()             0x0000df6d   Thumb Code    14  qaudiodevicefactory.o(i._ZN15QNullDeviceInfo9codecListEv)
    QNullDeviceInfo::~QNullDeviceInfo__deallocating() 0x0000df81   Thumb Code    16  qaudiodevicefactory.o(i._ZN15QNullDeviceInfoD0Ev)
    QNullDeviceInfo::~QNullDeviceInfo()      0x0000df91   Thumb Code     8  qaudiodevicefactory.o(i._ZN15QNullDeviceInfoD1Ev)
    QNullDeviceInfo::~QNullDeviceInfo__sub_object() 0x0000df91   Thumb Code     0  qaudiodevicefactory.o(i._ZN15QNullDeviceInfoD1Ev)
    QNullInputDevice::setBufferSize(int)     0x0000df99   Thumb Code     2  qaudiodevicefactory.o(i._ZN16QNullInputDevice13setBufferSizeEi)
    QNullInputDevice::setNotifyInterval(int) 0x0000df9b   Thumb Code     2  qaudiodevicefactory.o(i._ZN16QNullInputDevice17setNotifyIntervalEi)
    QNullInputDevice::stop()                 0x0000df9d   Thumb Code     2  qaudiodevicefactory.o(i._ZN16QNullInputDevice4stopEv)
    QNullInputDevice::reset()                0x0000df9f   Thumb Code     2  qaudiodevicefactory.o(i._ZN16QNullInputDevice5resetEv)
    QNullInputDevice::start(QIODevice*)      0x0000dfa1   Thumb Code    26  qaudiodevicefactory.o(i._ZN16QNullInputDevice5startEP9QIODevice)
    QNullInputDevice::resume()               0x0000dfef   Thumb Code     2  qaudiodevicefactory.o(i._ZN16QNullInputDevice6resumeEv)
    QNullInputDevice::suspend()              0x0000dff1   Thumb Code     2  qaudiodevicefactory.o(i._ZN16QNullInputDevice7suspendEv)
    QNullInputDevice::QNullInputDevice()     0x0000dff5   Thumb Code    14  qaudiodevicefactory.o(i._ZN16QNullInputDeviceC1Ev)
    QNullInputDevice::QNullInputDevice__sub_object() 0x0000dff5   Thumb Code     0  qaudiodevicefactory.o(i._ZN16QNullInputDeviceC1Ev)
    QNullInputDevice::~QNullInputDevice__deallocating() 0x0000e009   Thumb Code    16  qaudiodevicefactory.o(i._ZN16QNullInputDeviceD0Ev)
    QNullInputDevice::~QNullInputDevice()    0x0000e019   Thumb Code     8  qaudiodevicefactory.o(i._ZN16QNullInputDeviceD1Ev)
    QNullInputDevice::~QNullInputDevice__sub_object() 0x0000e019   Thumb Code     0  qaudiodevicefactory.o(i._ZN16QNullInputDeviceD1Ev)
    MDevSoundObserver::SendEventToClient(const TMMFEvent&) 0x0000e021   Thumb Code     2  moc_qaudio_symbian_p.o(i._ZN17MDevSoundObserver17SendEventToClientERK9TMMFEvent)
    QForeachContainer<QStringList>::~QForeachContainer() 0x0000e023   Thumb Code     8  qaudiodevicefactory.o(i._ZN17QForeachContainerI11QStringListED1Ev)
    QForeachContainer<QStringList>::~QForeachContainer__sub_object() 0x0000e023   Thumb Code     0  qaudiodevicefactory.o(i._ZN17QForeachContainerI11QStringListED1Ev)
    QForeachContainer<QList<QByteArray>>::~QForeachContainer() 0x0000e02b   Thumb Code     8  qaudiodevicefactory.o(i._ZN17QForeachContainerI5QListI10QByteArrayEED1Ev)
    QForeachContainer<QList<QByteArray>>::~QForeachContainer__sub_object() 0x0000e02b   Thumb Code     0  qaudiodevicefactory.o(i._ZN17QForeachContainerI5QListI10QByteArrayEED1Ev)
    QForeachContainer<QList<QString>>::~QForeachContainer() 0x0000e033   Thumb Code     8  qaudiodeviceinfo_symbian_p.o(i._ZN17QForeachContainerI5QListI7QStringEED1Ev)
    QForeachContainer<QList<QString>>::~QForeachContainer__sub_object() 0x0000e033   Thumb Code     0  qaudiodeviceinfo_symbian_p.o(i._ZN17QForeachContainerI5QListI7QStringEED1Ev)
    QForeachContainer<QList<QAudioFormat::SampleType>>::~QForeachContainer() 0x0000e03b   Thumb Code     8  qaudiodeviceinfo_symbian_p.o(i._ZN17QForeachContainerI5QListIN12QAudioFormat10SampleTypeEEED1Ev)
    QForeachContainer<QList<QAudioFormat::SampleType>>::~QForeachContainer__sub_object() 0x0000e03b   Thumb Code     0  qaudiodeviceinfo_symbian_p.o(i._ZN17QForeachContainerI5QListIN12QAudioFormat10SampleTypeEEED1Ev)
    QForeachContainer<QList<QAudioFormat::Endian>>::~QForeachContainer() 0x0000e043   Thumb Code     8  qaudiodeviceinfo_symbian_p.o(i._ZN17QForeachContainerI5QListIN12QAudioFormat6EndianEEED1Ev)
    QForeachContainer<QList<QAudioFormat::Endian>>::~QForeachContainer__sub_object() 0x0000e043   Thumb Code     0  qaudiodeviceinfo_symbian_p.o(i._ZN17QForeachContainerI5QListIN12QAudioFormat6EndianEEED1Ev)
    QForeachContainer<QList<int>>::~QForeachContainer() 0x0000e04b   Thumb Code     8  qaudiodeviceinfo.o(i._ZN17QForeachContainerI5QListIiEED1Ev)
    QForeachContainer<QList<int>>::~QForeachContainer__sub_object() 0x0000e04b   Thumb Code     0  qaudiodeviceinfo.o(i._ZN17QForeachContainerI5QListIiEED1Ev)
    QNullOutputDevice::setBufferSize(int)    0x0000e053   Thumb Code     2  qaudiodevicefactory.o(i._ZN17QNullOutputDevice13setBufferSizeEi)
    QNullOutputDevice::setNotifyInterval(int) 0x0000e055   Thumb Code     2  qaudiodevicefactory.o(i._ZN17QNullOutputDevice17setNotifyIntervalEi)
    QNullOutputDevice::stop()                0x0000e057   Thumb Code     2  qaudiodevicefactory.o(i._ZN17QNullOutputDevice4stopEv)
    QNullOutputDevice::reset()               0x0000e059   Thumb Code     2  qaudiodevicefactory.o(i._ZN17QNullOutputDevice5resetEv)
    QNullOutputDevice::start(QIODevice*)     0x0000e05d   Thumb Code    26  qaudiodevicefactory.o(i._ZN17QNullOutputDevice5startEP9QIODevice)
    QNullOutputDevice::resume()              0x0000e0af   Thumb Code     2  qaudiodevicefactory.o(i._ZN17QNullOutputDevice6resumeEv)
    QNullOutputDevice::suspend()             0x0000e0b1   Thumb Code     2  qaudiodevicefactory.o(i._ZN17QNullOutputDevice7suspendEv)
    QNullOutputDevice::QNullOutputDevice()   0x0000e0b5   Thumb Code    14  qaudiodevicefactory.o(i._ZN17QNullOutputDeviceC1Ev)
    QNullOutputDevice::QNullOutputDevice__sub_object() 0x0000e0b5   Thumb Code     0  qaudiodevicefactory.o(i._ZN17QNullOutputDeviceC1Ev)
    QNullOutputDevice::~QNullOutputDevice__deallocating() 0x0000e0c9   Thumb Code    16  qaudiodevicefactory.o(i._ZN17QNullOutputDeviceD0Ev)
    QNullOutputDevice::~QNullOutputDevice()  0x0000e0d9   Thumb Code     8  qaudiodevicefactory.o(i._ZN17QNullOutputDeviceD1Ev)
    QNullOutputDevice::~QNullOutputDevice__sub_object() 0x0000e0d9   Thumb Code     0  qaudiodevicefactory.o(i._ZN17QNullOutputDeviceD1Ev)
    QVideoFramePrivate::QVideoFramePrivate(const QSize&, QVideoFrame::PixelFormat) 0x0000e0e1   Thumb Code    38  qvideoframe.o(i._ZN18QVideoFramePrivateC1ERK5QSizeN11QVideoFrame11PixelFormatE)
    QVideoFramePrivate::QVideoFramePrivate__sub_object(const QSize&, QVideoFrame::PixelFormat) 0x0000e0e1   Thumb Code     0  qvideoframe.o(i._ZN18QVideoFramePrivateC1ERK5QSizeN11QVideoFrame11PixelFormatE)
    QVideoFramePrivate::~QVideoFramePrivate() 0x0000e107   Thumb Code    20  qvideoframe.o(i._ZN18QVideoFramePrivateD1Ev)
    QVideoFramePrivate::~QVideoFramePrivate__sub_object() 0x0000e107   Thumb Code     0  qvideoframe.o(i._ZN18QVideoFramePrivateD1Ev)
    QAbstractAudioInput::~QAbstractAudioInput__deallocating() 0x0000e11b   Thumb Code    16  moc_qaudioengine.o(i._ZN19QAbstractAudioInputD0Ev)
    QAbstractAudioInput::~QAbstractAudioInput() 0x0000e12b   Thumb Code     0  qaudioinput_symbian_p.o(i._ZN19QAbstractAudioInputD2Ev)
    QAbstractAudioInput::~QAbstractAudioInput__sub_object() 0x0000e12b   Thumb Code     8  qaudioinput_symbian_p.o(i._ZN19QAbstractAudioInputD2Ev)
    QAudioFormatPrivate::~QAudioFormatPrivate() 0x0000e133   Thumb Code    12  qaudioformat.o(i._ZN19QAudioFormatPrivateD1Ev)
    QAudioFormatPrivate::~QAudioFormatPrivate__sub_object() 0x0000e133   Thumb Code     0  qaudioformat.o(i._ZN19QAudioFormatPrivateD1Ev)
    QAbstractAudioOutput::~QAbstractAudioOutput__deallocating() 0x0000e13f   Thumb Code    16  moc_qaudioengine.o(i._ZN20QAbstractAudioOutputD0Ev)
    QAbstractAudioOutput::~QAbstractAudioOutput() 0x0000e14f   Thumb Code     0  qaudiooutput_symbian_p.o(i._ZN20QAbstractAudioOutputD2Ev)
    QAbstractAudioOutput::~QAbstractAudioOutput__sub_object() 0x0000e14f   Thumb Code     8  qaudiooutput_symbian_p.o(i._ZN20QAbstractAudioOutputD2Ev)
    QAudioDeviceInfoPrivate::~QAudioDeviceInfoPrivate() 0x0000e157   Thumb Code    36  qaudiodeviceinfo.o(i._ZN23QAudioDeviceInfoPrivateD1Ev)
    QAudioDeviceInfoPrivate::~QAudioDeviceInfoPrivate__sub_object() 0x0000e157   Thumb Code     0  qaudiodeviceinfo.o(i._ZN23QAudioDeviceInfoPrivateD1Ev)
    QAbstractAudioDeviceInfo::~QAbstractAudioDeviceInfo__deallocating() 0x0000e18f   Thumb Code    16  moc_qaudioengine.o(i._ZN24QAbstractAudioDeviceInfoD0Ev)
    QAbstractAudioDeviceInfo::~QAbstractAudioDeviceInfo() 0x0000e19f   Thumb Code     0  qaudiodeviceinfo_symbian_p.o(i._ZN24QAbstractAudioDeviceInfoD2Ev)
    QAbstractAudioDeviceInfo::~QAbstractAudioDeviceInfo__sub_object() 0x0000e19f   Thumb Code     8  qaudiodeviceinfo_symbian_p.o(i._ZN24QAbstractAudioDeviceInfoD2Ev)
    QAudioDeviceInfoInternal::Capabilities::Capabilities() 0x0000e1a9   Thumb Code    62  qaudiodeviceinfo_symbian_p.o(i._ZN24QAudioDeviceInfoInternal12CapabilitiesC1Ev)
    QAudioDeviceInfoInternal::Capabilities::Capabilities__sub_object() 0x0000e1a9   Thumb Code     0  qaudiodeviceinfo_symbian_p.o(i._ZN24QAudioDeviceInfoInternal12CapabilitiesC1Ev)
    QAudioDeviceInfoInternal::Capabilities::~Capabilities() 0x0000e217   Thumb Code    52  qaudiodeviceinfo_symbian_p.o(i._ZN24QAudioDeviceInfoInternal12CapabilitiesD1Ev)
    QAudioDeviceInfoInternal::Capabilities::~Capabilities__sub_object() 0x0000e217   Thumb Code     0  qaudiodeviceinfo_symbian_p.o(i._ZN24QAudioDeviceInfoInternal12CapabilitiesD1Ev)
    QImageVideoBufferPrivate::~QImageVideoBufferPrivate__deallocating() 0x0000e275   Thumb Code    16  qimagevideobuffer.o(i._ZN24QImageVideoBufferPrivateD0Ev)
    QImageVideoBufferPrivate::~QImageVideoBufferPrivate() 0x0000e285   Thumb Code    20  qimagevideobuffer.o(i._ZN24QImageVideoBufferPrivateD1Ev)
    QImageVideoBufferPrivate::~QImageVideoBufferPrivate__sub_object() 0x0000e285   Thumb Code     0  qimagevideobuffer.o(i._ZN24QImageVideoBufferPrivateD1Ev)
    QMemoryVideoBufferPrivate::~QMemoryVideoBufferPrivate__deallocating() 0x0000e2a7   Thumb Code    16  qmemoryvideobuffer.o(i._ZN25QMemoryVideoBufferPrivateD0Ev)
    QMemoryVideoBufferPrivate::~QMemoryVideoBufferPrivate() 0x0000e2b9   Thumb Code    20  qmemoryvideobuffer.o(i._ZN25QMemoryVideoBufferPrivateD1Ev)
    QMemoryVideoBufferPrivate::~QMemoryVideoBufferPrivate__sub_object() 0x0000e2b9   Thumb Code     0  qmemoryvideobuffer.o(i._ZN25QMemoryVideoBufferPrivateD1Ev)
    QVideoSurfaceFormatPrivate::QVideoSurfaceFormatPrivate(const QVideoSurfaceFormatPrivate&) 0x0000e2db   Thumb Code   106  qvideosurfaceformat.o(i._ZN26QVideoSurfaceFormatPrivateC1ERKS_)
    QVideoSurfaceFormatPrivate::QVideoSurfaceFormatPrivate__sub_object(const QVideoSurfaceFormatPrivate&) 0x0000e2db   Thumb Code     0  qvideosurfaceformat.o(i._ZN26QVideoSurfaceFormatPrivateC1ERKS_)
    QVideoSurfaceFormatPrivate::~QVideoSurfaceFormatPrivate() 0x0000e351   Thumb Code    20  qvideosurfaceformat.o(i._ZN26QVideoSurfaceFormatPrivateD1Ev)
    QVideoSurfaceFormatPrivate::~QVideoSurfaceFormatPrivate__sub_object() 0x0000e351   Thumb Code     0  qvideosurfaceformat.o(i._ZN26QVideoSurfaceFormatPrivateD1Ev)
    QAbstractVideoBufferPrivate::~QAbstractVideoBufferPrivate__deallocating() 0x0000e371   Thumb Code    12  qabstractvideobuffer.o(i._ZN27QAbstractVideoBufferPrivateD0Ev)
    QAbstractVideoBufferPrivate::~QAbstractVideoBufferPrivate() 0x0000e37d   Thumb Code     2  qabstractvideobuffer.o(i._ZN27QAbstractVideoBufferPrivateD1Ev)
    QAbstractVideoBufferPrivate::~QAbstractVideoBufferPrivate__sub_object() 0x0000e37d   Thumb Code     0  qabstractvideobuffer.o(i._ZN27QAbstractVideoBufferPrivateD1Ev)
    QAbstractVideoSurfacePrivate::~QAbstractVideoSurfacePrivate__deallocating() 0x0000e37f   Thumb Code    16  qabstractvideosurface.o(i._ZN28QAbstractVideoSurfacePrivateD0Ev)
    QAbstractVideoSurfacePrivate::~QAbstractVideoSurfacePrivate() 0x0000e391   Thumb Code    24  qabstractvideosurface.o(i._ZN28QAbstractVideoSurfacePrivateD1Ev)
    QAbstractVideoSurfacePrivate::~QAbstractVideoSurfacePrivate__sub_object() 0x0000e391   Thumb Code     0  qabstractvideosurface.o(i._ZN28QAbstractVideoSurfacePrivateD1Ev)
    QRect::QRect(const QPoint&, const QSize&) 0x0000e3b7   Thumb Code    28  qvideosurfaceformat.o(i._ZN5QRectC1ERK6QPointRK5QSize)
    QRect::QRect__sub_object(const QPoint&, const QSize&) 0x0000e3b7   Thumb Code     0  qvideosurfaceformat.o(i._ZN5QRectC1ERK6QPointRK5QSize)
    QRect::QRect()                           0x0000e3d3   Thumb Code    14  qvideosurfaceformat.o(i._ZN5QRectC1Ev)
    QRect::QRect__sub_object()               0x0000e3d3   Thumb Code     0  qvideosurfaceformat.o(i._ZN5QRectC1Ev)
    QDebug::maybeSpace()                     0x0000e3e1   Thumb Code    22  qvideosurfaceformat.o(i._ZN6QDebug10maybeSpaceEv)
    QDebug::QDebug(const QDebug&)            0x0000e3f7   Thumb Code    12  qvideosurfaceformat.o(i._ZN6QDebugC1ERKS_)
    QDebug::QDebug__sub_object(const QDebug&) 0x0000e3f7   Thumb Code     0  qvideosurfaceformat.o(i._ZN6QDebugC1ERKS_)
    QDebug::~QDebug()                        0x0000e403   Thumb Code   122  qaudiodevicefactory.o(i._ZN6QDebugD1Ev)
    QDebug::~QDebug__sub_object()            0x0000e403   Thumb Code     0  qaudiodevicefactory.o(i._ZN6QDebugD1Ev)
    QDebug::operator <<(const char*)         0x0000e491   Thumb Code    36  qvideosurfaceformat.o(i._ZN6QDebuglsEPKc)
    QString::QString(const QLatin1String&)   0x0000e4bf   Thumb Code    20  qaudiodevicefactory.o(i._ZN7QStringC1ERK13QLatin1String)
    QString::QString__sub_object(const QLatin1String&) 0x0000e4bf   Thumb Code     0  qaudiodevicefactory.o(i._ZN7QStringC1ERK13QLatin1String)
    QString::QString(const QString&)         0x0000e4d3   Thumb Code    16  qaudioformat.o(i._ZN7QStringC1ERKS_)
    QString::QString__sub_object(const QString&) 0x0000e4d3   Thumb Code     0  qaudioformat.o(i._ZN7QStringC1ERKS_)
    QString::QString()                       0x0000e4e5   Thumb Code    16  qaudiodeviceinfo.o(i._ZN7QStringC1Ev)
    QString::QString__sub_object()           0x0000e4e5   Thumb Code     0  qaudiodeviceinfo.o(i._ZN7QStringC1Ev)
    QString::~QString()                      0x0000e4f9   Thumb Code    24  qaudioformat.o(i._ZN7QStringD1Ev)
    QString::~QString__sub_object()          0x0000e4f9   Thumb Code     0  qaudioformat.o(i._ZN7QStringD1Ev)
    QString::operator =(const QLatin1String&) 0x0000e511   Thumb Code    34  qvideosurfaceformat.o(i._ZN7QStringaSERK13QLatin1String)
    QBasicAtomicInt::operator ==(int) const  0x0000e53d   Thumb Code    14  qaudiodeviceinfo.o(i._ZNK15QBasicAtomicInteqEi)
    QBasicAtomicInt::operator !=(int) const  0x0000e54b   Thumb Code    14  qaudiodeviceinfo.o(i._ZNK15QBasicAtomicIntneEi)
    QBasicAtomicInt::operator !() const      0x0000e559   Thumb Code    14  qaudio.o(i._ZNK15QBasicAtomicIntntEv)
    QNullDeviceInfo::deviceName() const      0x0000e567   Thumb Code     8  qaudiodevicefactory.o(i._ZNK15QNullDeviceInfo10deviceNameEv)
    QNullDeviceInfo::nearestFormat(const QAudioFormat&) const 0x0000e56f   Thumb Code     8  qaudiodevicefactory.o(i._ZNK15QNullDeviceInfo13nearestFormatERK12QAudioFormat)
    QNullDeviceInfo::preferredFormat() const 0x0000e579   Thumb Code    32  qaudiodevicefactory.o(i._ZNK15QNullDeviceInfo15preferredFormatEv)
    QNullDeviceInfo::isFormatSupported(const QAudioFormat&) const 0x0000e5cb   Thumb Code     4  qaudiodevicefactory.o(i._ZNK15QNullDeviceInfo17isFormatSupportedERK12QAudioFormat)
    QNullInputDevice::bufferSize() const     0x0000e5cf   Thumb Code     4  qaudiodevicefactory.o(i._ZNK16QNullInputDevice10bufferSizeEv)
    QNullInputDevice::bytesReady() const     0x0000e5d3   Thumb Code     4  qaudiodevicefactory.o(i._ZNK16QNullInputDevice10bytesReadyEv)
    QNullInputDevice::periodSize() const     0x0000e5d7   Thumb Code     4  qaudiodevicefactory.o(i._ZNK16QNullInputDevice10periodSizeEv)
    QNullInputDevice::elapsedUSecs() const   0x0000e5db   Thumb Code     6  qaudiodevicefactory.o(i._ZNK16QNullInputDevice12elapsedUSecsEv)
    QNullInputDevice::notifyInterval() const 0x0000e5e1   Thumb Code     4  qaudiodevicefactory.o(i._ZNK16QNullInputDevice14notifyIntervalEv)
    QNullInputDevice::processedUSecs() const 0x0000e5e5   Thumb Code     6  qaudiodevicefactory.o(i._ZNK16QNullInputDevice14processedUSecsEv)
    QNullInputDevice::error() const          0x0000e5eb   Thumb Code     4  qaudiodevicefactory.o(i._ZNK16QNullInputDevice5errorEv)
    QNullInputDevice::state() const          0x0000e5ef   Thumb Code     4  qaudiodevicefactory.o(i._ZNK16QNullInputDevice5stateEv)
    QNullInputDevice::format() const         0x0000e5f3   Thumb Code     8  qaudiodevicefactory.o(i._ZNK16QNullInputDevice6formatEv)
    QNullOutputDevice::bufferSize() const    0x0000e5fb   Thumb Code     4  qaudiodevicefactory.o(i._ZNK17QNullOutputDevice10bufferSizeEv)
    QNullOutputDevice::periodSize() const    0x0000e5ff   Thumb Code     4  qaudiodevicefactory.o(i._ZNK17QNullOutputDevice10periodSizeEv)
    QNullOutputDevice::elapsedUSecs() const  0x0000e603   Thumb Code     6  qaudiodevicefactory.o(i._ZNK17QNullOutputDevice12elapsedUSecsEv)
    QNullOutputDevice::notifyInterval() const 0x0000e609   Thumb Code     4  qaudiodevicefactory.o(i._ZNK17QNullOutputDevice14notifyIntervalEv)
    QNullOutputDevice::processedUSecs() const 0x0000e60d   Thumb Code     6  qaudiodevicefactory.o(i._ZNK17QNullOutputDevice14processedUSecsEv)
    QNullOutputDevice::error() const         0x0000e613   Thumb Code     4  qaudiodevicefactory.o(i._ZNK17QNullOutputDevice5errorEv)
    QNullOutputDevice::state() const         0x0000e617   Thumb Code     4  qaudiodevicefactory.o(i._ZNK17QNullOutputDevice5stateEv)
    QNullOutputDevice::format() const        0x0000e61b   Thumb Code     8  qaudiodevicefactory.o(i._ZNK17QNullOutputDevice6formatEv)
    QNullOutputDevice::bytesFree() const     0x0000e623   Thumb Code     4  qaudiodevicefactory.o(i._ZNK17QNullOutputDevice9bytesFreeEv)
    QVideoSurfaceFormatPrivate::operator ==(const QVideoSurfaceFormatPrivate&) const 0x0000e629   Thumb Code   324  qvideosurfaceformat.o(i._ZNK26QVideoSurfaceFormatPrivateeqERKS_)
    QBool::operator const void*() const      0x0000e775   Thumb Code    14  qaudio_symbian_p.o(i._ZNK5QBoolcvPKvEv)
    QObject::connect(const QObject*, const char*, const char*, Qt::ConnectionType) const 0x0000e783   Thumb Code    20  qaudiooutput.o(i._ZNK7QObject7connectEPKS_PKcS3_N2Qt14ConnectionTypeE)
    TFourCC::operator ==(const unsigned long&) const 0x0000e797   Thumb Code    16  qaudio_symbian_p.o(i._ZNK7TFourCCeqERKm)
    QListData::at(int) const                 0x0000e7a7   Thumb Code    16  qaudiodeviceinfo_symbian_p.o(i._ZNK9QListData2atEi)
    QListData::end() const                   0x0000e7b7   Thumb Code    12  qaudiodeviceinfo.o(i._ZNK9QListData3endEv)
    QListData::size() const                  0x0000e7c3   Thumb Code    10  qvideosurfaceformat.o(i._ZNK9QListData4sizeEv)
    QListData::begin() const                 0x0000e7cd   Thumb Code    12  qaudiodeviceinfo.o(i._ZNK9QListData5beginEv)
    operator delete (void*, void*)           0x0000e7d9   Thumb Code     2  qaudiodeviceinfo.o(i._ZdlPvS_)
    operator ==(const QSize&, const QSize&)  0x0000e7db   Thumb Code    24  qvideosurfaceformat.o(i._ZeqRK5QSizeS1_)
    operator !=(const QByteArray&, const char*) 0x0000e7f3   Thumb Code    42  qvideosurfaceformat.o(i._ZneRK10QByteArrayPKc)
    operator new(unsigned, void*)            0x0000e81d   Thumb Code     4  qaudiodeviceinfo.o(i._ZnwjPv)
    appendUnique<QAudioFormat::SampleType>(QList<T1>&, const QList<T1>&) 0x0000e821   Thumb Code   138  qaudiodeviceinfo_symbian_p.o(t._Z12appendUniqueIN12QAudioFormat10SampleTypeEEvR5QListIT_ERKS4_)
    appendUnique<QAudioFormat::Endian>(QList<T1>&, const QList<T1>&) 0x0000e8bd   Thumb Code   138  qaudiodeviceinfo_symbian_p.o(t._Z12appendUniqueIN12QAudioFormat6EndianEEvR5QListIT_ERKS4_)
    appendUnique<int>(QList<T1>&, const QList<T1>&) 0x0000e959   Thumb Code   174  qaudiodeviceinfo_symbian_p.o(t._Z12appendUniqueIiEvR5QListIT_ERKS2_)
    qobject_cast<QAudioEngineFactoryInterface*>(QObject*) 0x0000ea25   Thumb Code    22  qaudiodevicefactory.o(t._Z12qobject_castIP28QAudioEngineFactoryInterfaceET_P7QObject)
    qvariant_cast<QSize>(const QVariant&)    0x0000ea41   Thumb Code    66  qvideosurfaceformat.o(t._Z13qvariant_castI5QSizeET_RK8QVariant)
    qMapLessThanKey<QString>(const T1&, const T1&) 0x0000ea83   Thumb Code     8  qaudiodeviceinfo_symbian_p.o(t._Z15qMapLessThanKeyI7QStringEbRKT_S3_)
    qMapLessThanKey<int>(const T1&, const T1&) 0x0000ea8b   Thumb Code    16  qaudiodeviceinfo.o(t._Z15qMapLessThanKeyIiEbRKT_S2_)
    qRegisterMetaType<QVideoFrame::PixelFormat>(const char*, T1*) 0x0000ea9d   Thumb Code    44  qvideosurfaceformat.o(t._Z17qRegisterMetaTypeIN11QVideoFrame11PixelFormatEEiPKcPT_)
    qRegisterMetaType<QVideoSurfaceFormat::YCbCrColorSpace>(const char*, T1*) 0x0000ead1   Thumb Code    44  qvideosurfaceformat.o(t._Z17qRegisterMetaTypeIN19QVideoSurfaceFormat15YCbCrColorSpaceEEiPKcPT_)
    qRegisterMetaType<QVideoSurfaceFormat::Direction>(const char*, T1*) 0x0000eb05   Thumb Code    44  qvideosurfaceformat.o(t._Z17qRegisterMetaTypeIN19QVideoSurfaceFormat9DirectionEEiPKcPT_)
    qRegisterMetaType<QAbstractVideoBuffer::HandleType>(const char*, T1*) 0x0000eb39   Thumb Code    44  qvideosurfaceformat.o(t._Z17qRegisterMetaTypeIN20QAbstractVideoBuffer10HandleTypeEEiPKcPT_)
    qRegisterMetaType<QAudio::Mode>(const char*, T1*) 0x0000eb6d   Thumb Code    44  qaudio.o(t._Z17qRegisterMetaTypeIN6QAudio4ModeEEiPKcPT_)
    qRegisterMetaType<QAudio::Error>(const char*, T1*) 0x0000eba1   Thumb Code    44  qaudio.o(t._Z17qRegisterMetaTypeIN6QAudio5ErrorEEiPKcPT_)
    qRegisterMetaType<QAudio::State>(const char*, T1*) 0x0000ebd5   Thumb Code    44  qaudio.o(t._Z17qRegisterMetaTypeIN6QAudio5StateEEiPKcPT_)
    qVariantFromValue<QAbstractVideoBuffer::HandleType>(const T1&) 0x0000ec09   Thumb Code    24  qvideosurfaceformat.o(t._Z17qVariantFromValueIN20QAbstractVideoBuffer10HandleTypeEE8QVariantRKT_)
    qVariantCanConvert<QSize>(const QVariant&) 0x0000ec21   Thumb Code    10  qvideosurfaceformat.o(t._Z18qVariantCanConvertI5QSizeEbRK8QVariant)
    qForeachContainerNew<QList<QByteArray>>(const T1&) 0x0000ec2b   Thumb Code    62  qaudiodevicefactory.o(t._Z20qForeachContainerNewI5QListI10QByteArrayEE17QForeachContainerIT_ERKS4_)
    qForeachContainerNew<QList<int>>(const T1&) 0x0000ec73   Thumb Code    46  qaudiodeviceinfo.o(t._Z20qForeachContainerNewI5QListIiEE17QForeachContainerIT_ERKS3_)
    qMetaTypeDeleteHelper<QVideoFrame::PixelFormat>(T1*) 0x0000ecab   Thumb Code     8  qvideosurfaceformat.o(t._Z21qMetaTypeDeleteHelperIN11QVideoFrame11PixelFormatEEvPT_)
    qMetaTypeDeleteHelper<QVideoSurfaceFormat::YCbCrColorSpace>(T1*) 0x0000ecb3   Thumb Code     8  qvideosurfaceformat.o(t._Z21qMetaTypeDeleteHelperIN19QVideoSurfaceFormat15YCbCrColorSpaceEEvPT_)
    qMetaTypeDeleteHelper<QVideoSurfaceFormat::Direction>(T1*) 0x0000ecbb   Thumb Code     8  qvideosurfaceformat.o(t._Z21qMetaTypeDeleteHelperIN19QVideoSurfaceFormat9DirectionEEvPT_)
    qMetaTypeDeleteHelper<QAbstractVideoBuffer::HandleType>(T1*) 0x0000ecc3   Thumb Code     8  qvideosurfaceformat.o(t._Z21qMetaTypeDeleteHelperIN20QAbstractVideoBuffer10HandleTypeEEvPT_)
    qMetaTypeDeleteHelper<QAudio::Mode>(T1*) 0x0000eccb   Thumb Code     8  qaudio.o(t._Z21qMetaTypeDeleteHelperIN6QAudio4ModeEEvPT_)
    qMetaTypeDeleteHelper<QAudio::Error>(T1*) 0x0000ecd3   Thumb Code     8  qaudio.o(t._Z21qMetaTypeDeleteHelperIN6QAudio5ErrorEEvPT_)
    qMetaTypeDeleteHelper<QAudio::State>(T1*) 0x0000ecdb   Thumb Code     8  qaudio.o(t._Z21qMetaTypeDeleteHelperIN6QAudio5StateEEvPT_)
    qMetaTypeDeleteHelper<CMMFBuffer*>(T1*)  0x0000ece3   Thumb Code     8  qaudioinput_symbian_p.o(t._Z21qMetaTypeDeleteHelperIP10CMMFBufferEvPT_)
    qMetaTypeConstructHelper<QVideoFrame::PixelFormat>(const T1*) 0x0000eceb   Thumb Code    26  qvideosurfaceformat.o(t._Z24qMetaTypeConstructHelperIN11QVideoFrame11PixelFormatEEPvPKT_)
    qMetaTypeConstructHelper<QVideoSurfaceFormat::YCbCrColorSpace>(const T1*) 0x0000ed05   Thumb Code    26  qvideosurfaceformat.o(t._Z24qMetaTypeConstructHelperIN19QVideoSurfaceFormat15YCbCrColorSpaceEEPvPKT_)
    qMetaTypeConstructHelper<QVideoSurfaceFormat::Direction>(const T1*) 0x0000ed1f   Thumb Code    26  qvideosurfaceformat.o(t._Z24qMetaTypeConstructHelperIN19QVideoSurfaceFormat9DirectionEEPvPKT_)
    qMetaTypeConstructHelper<QAbstractVideoBuffer::HandleType>(const T1*) 0x0000ed39   Thumb Code    26  qvideosurfaceformat.o(t._Z24qMetaTypeConstructHelperIN20QAbstractVideoBuffer10HandleTypeEEPvPKT_)
    qMetaTypeConstructHelper<QAudio::Mode>(const T1*) 0x0000ed53   Thumb Code    26  qaudio.o(t._Z24qMetaTypeConstructHelperIN6QAudio4ModeEEPvPKT_)
    qMetaTypeConstructHelper<QAudio::Error>(const T1*) 0x0000ed6d   Thumb Code    26  qaudio.o(t._Z24qMetaTypeConstructHelperIN6QAudio5ErrorEEPvPKT_)
    qMetaTypeConstructHelper<QAudio::State>(const T1*) 0x0000ed87   Thumb Code    26  qaudio.o(t._Z24qMetaTypeConstructHelperIN6QAudio5StateEEPvPKT_)
    qMetaTypeConstructHelper<CMMFBuffer*>(const T1*) 0x0000eda1   Thumb Code    26  qaudioinput_symbian_p.o(t._Z24qMetaTypeConstructHelperIP10CMMFBufferEPvPKT_)
    qAbs<float>(const T1&)                   0x0000edbb   Thumb Code    14  qvideosurfaceformat.o(t._Z4qAbsIfET_RKS0_)
    QMapIterator<int, int>::QMapIterator(const QMap<int, int>&) 0x0000edc9   Thumb Code    42  qaudiodeviceinfo.o(t._ZN12QMapIteratorIiiEC1ERK4QMapIiiE)
    QMapIterator<int, int>::QMapIterator__sub_object(const QMap<int, int>&) 0x0000edc9   Thumb Code     0  qaudiodeviceinfo.o(t._ZN12QMapIteratorIiiEC1ERK4QMapIiiE)
    QMetaTypeId2<QVideoFrame::PixelFormat>::qt_metatype_id() 0x0000edf9   Thumb Code    30  qvideosurfaceformat.o(t._ZN12QMetaTypeId2IN11QVideoFrame11PixelFormatEE14qt_metatype_idEv)
    QMetaTypeId2<QVideoSurfaceFormat::YCbCrColorSpace>::qt_metatype_id() 0x0000ee39   Thumb Code    30  qvideosurfaceformat.o(t._ZN12QMetaTypeId2IN19QVideoSurfaceFormat15YCbCrColorSpaceEE14qt_metatype_idEv)
    QMetaTypeId2<QVideoSurfaceFormat::Direction>::qt_metatype_id() 0x0000ee85   Thumb Code    30  qvideosurfaceformat.o(t._ZN12QMetaTypeId2IN19QVideoSurfaceFormat9DirectionEE14qt_metatype_idEv)
    QMetaTypeId2<QAbstractVideoBuffer::HandleType>::qt_metatype_id() 0x0000eec9   Thumb Code    30  qvideosurfaceformat.o(t._ZN12QMetaTypeId2IN20QAbstractVideoBuffer10HandleTypeEE14qt_metatype_idEv)
    QMetaTypeId2<QAudio::Mode>::qt_metatype_id() 0x0000ef11   Thumb Code    30  qaudio.o(t._ZN12QMetaTypeId2IN6QAudio4ModeEE14qt_metatype_idEv)
    QMetaTypeId2<QAudio::Error>::qt_metatype_id() 0x0000ef45   Thumb Code    30  qaudio.o(t._ZN12QMetaTypeId2IN6QAudio5ErrorEE14qt_metatype_idEv)
    QMetaTypeId2<QAudio::State>::qt_metatype_id() 0x0000ef79   Thumb Code    30  qaudio.o(t._ZN12QMetaTypeId2IN6QAudio5StateEE14qt_metatype_idEv)
    SymbianAudio::Utils::findValue<int>(const T1*, int, T1, int&) 0x0000efad   Thumb Code    34  qaudio_symbian_p.o(t._ZN12SymbianAudio5Utils9findValueIiEEbPKT_iS2_Ri)
    QScopedPointer<QTimer, QScopedPointerDeleter<QTimer>>::~QScopedPointer() 0x0000efcf   Thumb Code    24  qaudioinput_symbian_p.o(t._ZN14QScopedPointerI6QTimer21QScopedPointerDeleterIS0_EED1Ev)
    QScopedPointer<QTimer, QScopedPointerDeleter<QTimer>>::~QScopedPointer__sub_object() 0x0000efcf   Thumb Code     0  qaudioinput_symbian_p.o(t._ZN14QScopedPointerI6QTimer21QScopedPointerDeleterIS0_EED1Ev)
    QScopedPointer<SymbianAudio::DevSoundWrapper, QScopedPointerDeleter<SymbianAudio::DevSoundWrapper>>::~QScopedPointer() 0x0000efe7   Thumb Code    24  qaudiodeviceinfo_symbian_p.o(t._ZN14QScopedPointerIN12SymbianAudio15DevSoundWrapperE21QScopedPointerDeleterIS1_EED1Ev)
    QScopedPointer<SymbianAudio::DevSoundWrapper, QScopedPointerDeleter<SymbianAudio::DevSoundWrapper>>::~QScopedPointer__sub_object() 0x0000efe7   Thumb Code     0  qaudiodeviceinfo_symbian_p.o(t._ZN14QScopedPointerIN12SymbianAudio15DevSoundWrapperE21QScopedPointerDeleterIS1_EED1Ev)
    QSharedDataPointer<QAudioFormatPrivate>::detach_helper() 0x0000efff   Thumb Code    82  qaudioformat.o(t._ZN18QSharedDataPointerI19QAudioFormatPrivateE13detach_helperEv)
    QSharedDataPointer<QAudioFormatPrivate>::~QSharedDataPointer() 0x0000f05b   Thumb Code    36  qaudioformat.o(t._ZN18QSharedDataPointerI19QAudioFormatPrivateED1Ev)
    QSharedDataPointer<QAudioFormatPrivate>::~QSharedDataPointer__sub_object() 0x0000f05b   Thumb Code     0  qaudioformat.o(t._ZN18QSharedDataPointerI19QAudioFormatPrivateED1Ev)
    QSharedDataPointer<QAudioFormatPrivate>::operator ->() 0x0000f07f   Thumb Code    26  qaudioformat.o(t._ZN18QSharedDataPointerI19QAudioFormatPrivateEptEv)
    QSharedDataPointer<QAudioDeviceInfoPrivate>::QSharedDataPointer(QAudioDeviceInfoPrivate*) 0x0000f099   Thumb Code    18  qaudiodeviceinfo.o(t._ZN18QSharedDataPointerI23QAudioDeviceInfoPrivateEC1EPS0_)
    QSharedDataPointer<QAudioDeviceInfoPrivate>::QSharedDataPointer__sub_object(QAudioDeviceInfoPrivate*) 0x0000f099   Thumb Code     0  qaudiodeviceinfo.o(t._ZN18QSharedDataPointerI23QAudioDeviceInfoPrivateEC1EPS0_)
    QSharedDataPointer<QAudioDeviceInfoPrivate>::~QSharedDataPointer() 0x0000f0ab   Thumb Code    36  qaudiodeviceinfo.o(t._ZN18QSharedDataPointerI23QAudioDeviceInfoPrivateED1Ev)
    QSharedDataPointer<QAudioDeviceInfoPrivate>::~QSharedDataPointer__sub_object() 0x0000f0ab   Thumb Code     0  qaudiodeviceinfo.o(t._ZN18QSharedDataPointerI23QAudioDeviceInfoPrivateED1Ev)
    QSharedDataPointer<QVideoSurfaceFormatPrivate>::QSharedDataPointer(QVideoSurfaceFormatPrivate*) 0x0000f0cf   Thumb Code    18  qvideosurfaceformat.o(t._ZN18QSharedDataPointerI26QVideoSurfaceFormatPrivateEC1EPS0_)
    QSharedDataPointer<QVideoSurfaceFormatPrivate>::QSharedDataPointer__sub_object(QVideoSurfaceFormatPrivate*) 0x0000f0cf   Thumb Code     0  qvideosurfaceformat.o(t._ZN18QSharedDataPointerI26QVideoSurfaceFormatPrivateEC1EPS0_)
    QSharedDataPointer<QVideoSurfaceFormatPrivate>::~QSharedDataPointer() 0x0000f0e1   Thumb Code    36  qvideosurfaceformat.o(t._ZN18QSharedDataPointerI26QVideoSurfaceFormatPrivateED1Ev)
    QSharedDataPointer<QVideoSurfaceFormatPrivate>::~QSharedDataPointer__sub_object() 0x0000f0e1   Thumb Code     0  qvideosurfaceformat.o(t._ZN18QSharedDataPointerI26QVideoSurfaceFormatPrivateED1Ev)
    QSharedDataPointer<QVideoSurfaceFormatPrivate>::operator ->() 0x0000f105   Thumb Code    70  qvideosurfaceformat.o(t._ZN18QSharedDataPointerI26QVideoSurfaceFormatPrivateEptEv)
    QGlobalStaticDeleter<QFactoryLoader>::~QGlobalStaticDeleter() 0x0000f155   Thumb Code    34  qaudiodevicefactory.o(t._ZN20QGlobalStaticDeleterI14QFactoryLoaderED1Ev)
    QGlobalStaticDeleter<QFactoryLoader>::~QGlobalStaticDeleter__sub_object() 0x0000f155   Thumb Code     0  qaudiodevicefactory.o(t._ZN20QGlobalStaticDeleterI14QFactoryLoaderED1Ev)
    QExplicitlySharedDataPointer<QVideoFramePrivate>::QExplicitlySharedDataPointer(QVideoFramePrivate*) 0x0000f177   Thumb Code    18  qvideoframe.o(t._ZN28QExplicitlySharedDataPointerI18QVideoFramePrivateEC1EPS0_)
    QExplicitlySharedDataPointer<QVideoFramePrivate>::QExplicitlySharedDataPointer__sub_object(QVideoFramePrivate*) 0x0000f177   Thumb Code     0  qvideoframe.o(t._ZN28QExplicitlySharedDataPointerI18QVideoFramePrivateEC1EPS0_)
    QExplicitlySharedDataPointer<QVideoFramePrivate>::~QExplicitlySharedDataPointer() 0x0000f189   Thumb Code    36  qvideoframe.o(t._ZN28QExplicitlySharedDataPointerI18QVideoFramePrivateED1Ev)
    QExplicitlySharedDataPointer<QVideoFramePrivate>::~QExplicitlySharedDataPointer__sub_object() 0x0000f189   Thumb Code     0  qvideoframe.o(t._ZN28QExplicitlySharedDataPointerI18QVideoFramePrivateED1Ev)
    QMap<QString, QAudioDeviceInfoInternal::Capabilities>::node_create(QMapData*, QMapData::Node**, const QString&, const QAudioDeviceInfoInternal::Capabilities&) 0x0000f1ad   Thumb Code   164  qaudiodeviceinfo_symbian_p.o(t._ZN4QMapI7QStringN24QAudioDeviceInfoInternal12CapabilitiesEE11node_createEP8QMapDataPPNS4_4NodeERKS0_RKS2_)
    QMap<QString, QAudioDeviceInfoInternal::Capabilities>::detach_helper() 0x0000f29f   Thumb Code   114  qaudiodeviceinfo_symbian_p.o(t._ZN4QMapI7QStringN24QAudioDeviceInfoInternal12CapabilitiesEE13detach_helperEv)
    QMap<QString, QAudioDeviceInfoInternal::Capabilities>::freeData(QMapData*) 0x0000f319   Thumb Code    42  qaudiodeviceinfo_symbian_p.o(t._ZN4QMapI7QStringN24QAudioDeviceInfoInternal12CapabilitiesEE8freeDataEP8QMapData)
    QMap<QString, QAudioDeviceInfoInternal::Capabilities>::~QMap() 0x0000f343   Thumb Code    32  qaudiodeviceinfo_symbian_p.o(t._ZN4QMapI7QStringN24QAudioDeviceInfoInternal12CapabilitiesEED1Ev)
    QMap<QString, QAudioDeviceInfoInternal::Capabilities>::~QMap__sub_object() 0x0000f343   Thumb Code     0  qaudiodeviceinfo_symbian_p.o(t._ZN4QMapI7QStringN24QAudioDeviceInfoInternal12CapabilitiesEED1Ev)
    QMap<QString, QAudioDeviceInfoInternal::Capabilities>::operator [](const QString&) 0x0000f363   Thumb Code   154  qaudiodeviceinfo_symbian_p.o(t._ZN4QMapI7QStringN24QAudioDeviceInfoInternal12CapabilitiesEEixERKS0_)
    QMap<int, int>::node_create(QMapData*, QMapData::Node**, const int&, const int&) 0x0000f407   Thumb Code    60  qaudiodeviceinfo.o(t._ZN4QMapIiiE11node_createEP8QMapDataPPNS1_4NodeERKiS7_)
    QMap<int, int>::detach_helper()          0x0000f447   Thumb Code   114  qaudiodeviceinfo.o(t._ZN4QMapIiiE13detach_helperEv)
    QMap<int, int>::detach()                 0x0000f4c1   Thumb Code    26  qaudiodeviceinfo.o(t._ZN4QMapIiiE6detachEv)
    QMap<int, int>::insert(const int&, const int&) 0x0000f4db   Thumb Code   130  qaudiodeviceinfo.o(t._ZN4QMapIiiE6insertERKiS2_)
    QMap<int, int>::freeData(QMapData*)      0x0000f55d   Thumb Code    12  qaudiodeviceinfo.o(t._ZN4QMapIiiE8freeDataEP8QMapData)
    QMap<int, int>::QMap()                   0x0000f569   Thumb Code    18  qaudiodeviceinfo.o(t._ZN4QMapIiiEC1Ev)
    QMap<int, int>::QMap__sub_object()       0x0000f569   Thumb Code     0  qaudiodeviceinfo.o(t._ZN4QMapIiiEC1Ev)
    QMap<int, int>::~QMap()                  0x0000f581   Thumb Code    32  qaudiodeviceinfo.o(t._ZN4QMapIiiED1Ev)
    QMap<int, int>::~QMap__sub_object()      0x0000f581   Thumb Code     0  qaudiodeviceinfo.o(t._ZN4QMapIiiED1Ev)
    QList<QByteArray>::detach_helper(int)    0x0000f5a1   Thumb Code   142  qaudiodevicefactory.o(t._ZN5QListI10QByteArrayE13detach_helperEi)
    QList<QByteArray>::detach_helper()       0x0000f643   Thumb Code    88  qvideosurfaceformat.o(t._ZN5QListI10QByteArrayE13detach_helperEv)
    QList<QByteArray>::node_construct(QList<QByteArray>::Node*, const QByteArray&) 0x0000f6a3   Thumb Code    26  qaudiodeviceinfo_symbian_p.o(t._ZN5QListI10QByteArrayE14node_constructEPNS1_4NodeERKS0_)
    QList<QByteArray>::detach_helper_grow(int, int) 0x0000f6c9   Thumb Code   186  qaudiodeviceinfo_symbian_p.o(t._ZN5QListI10QByteArrayE18detach_helper_growEii)
    QList<QByteArray>::free(QListData::Data*) 0x0000f78b   Thumb Code    48  qaudiodevicefactory.o(t._ZN5QListI10QByteArrayE4freeEPN9QListData4DataE)
    QList<QByteArray>::append(const QByteArray&) 0x0000f7bd   Thumb Code    94  qaudiodeviceinfo_symbian_p.o(t._ZN5QListI10QByteArrayE6appendERKS0_)
    QList<QByteArray>::node_copy(QList<QByteArray>::Node*, QList<QByteArray>::Node*, QList<QByteArray>::Node*) 0x0000f829   Thumb Code    70  qaudiodeviceinfo_symbian_p.o(t._ZN5QListI10QByteArrayE9node_copyEPNS1_4NodeES3_S3_)
    QList<QByteArray>::QList(const QList<QByteArray>&) 0x0000f885   Thumb Code    30  qvideosurfaceformat.o(t._ZN5QListI10QByteArrayEC1ERKS1_)
    QList<QByteArray>::QList__sub_object(const QList<QByteArray>&) 0x0000f885   Thumb Code     0  qvideosurfaceformat.o(t._ZN5QListI10QByteArrayEC1ERKS1_)
    QList<QByteArray>::QList()               0x0000f8a5   Thumb Code    16  qvideosurfaceformat.o(t._ZN5QListI10QByteArrayEC1Ev)
    QList<QByteArray>::QList__sub_object()   0x0000f8a5   Thumb Code     0  qvideosurfaceformat.o(t._ZN5QListI10QByteArrayEC1Ev)
    QList<QByteArray>::~QList()              0x0000f8b9   Thumb Code    30  qaudiodevicefactory.o(t._ZN5QListI10QByteArrayED1Ev)
    QList<QByteArray>::~QList__sub_object()  0x0000f8b9   Thumb Code     0  qaudiodevicefactory.o(t._ZN5QListI10QByteArrayED1Ev)
    QList<QByteArray>::operator <<(const QByteArray&) 0x0000f8d7   Thumb Code    12  qvideosurfaceformat.o(t._ZN5QListI10QByteArrayElsERKS0_)
    QList<QByteArray>::operator +=(const QList<QByteArray>&) 0x0000f8e5   Thumb Code   168  qvideosurfaceformat.o(t._ZN5QListI10QByteArrayEpLERKS1_)
    QList<QAudioDeviceInfo>::node_destruct(QList<QAudioDeviceInfo>::Node*, QList<QAudioDeviceInfo>::Node*) 0x0000f999   Thumb Code    30  qaudiodevicefactory.o(t._ZN5QListI16QAudioDeviceInfoE13node_destructEPNS1_4NodeES3_)
    QList<QAudioDeviceInfo>::node_construct(QList<QAudioDeviceInfo>::Node*, const QAudioDeviceInfo&) 0x0000f9b7   Thumb Code    24  qaudiodevicefactory.o(t._ZN5QListI16QAudioDeviceInfoE14node_constructEPNS1_4NodeERKS0_)
    QList<QAudioDeviceInfo>::detach_helper_grow(int, int) 0x0000f9d9   Thumb Code   180  qaudiodevicefactory.o(t._ZN5QListI16QAudioDeviceInfoE18detach_helper_growEii)
    QList<QAudioDeviceInfo>::free(QListData::Data*) 0x0000fa95   Thumb Code    38  qaudiodevicefactory.o(t._ZN5QListI16QAudioDeviceInfoE4freeEPN9QListData4DataE)
    QList<QAudioDeviceInfo>::append(const QAudioDeviceInfo&) 0x0000fabd   Thumb Code    90  qaudiodevicefactory.o(t._ZN5QListI16QAudioDeviceInfoE6appendERKS0_)
    QList<QAudioDeviceInfo>::node_copy(QList<QAudioDeviceInfo>::Node*, QList<QAudioDeviceInfo>::Node*, QList<QAudioDeviceInfo>::Node*) 0x0000fb25   Thumb Code    72  qaudiodevicefactory.o(t._ZN5QListI16QAudioDeviceInfoE9node_copyEPNS1_4NodeES3_S3_)
    QList<QAudioDeviceInfo>::~QList()        0x0000fb7f   Thumb Code    30  qaudiodevicefactory.o(t._ZN5QListI16QAudioDeviceInfoED1Ev)
    QList<QAudioDeviceInfo>::~QList__sub_object() 0x0000fb7f   Thumb Code     0  qaudiodevicefactory.o(t._ZN5QListI16QAudioDeviceInfoED1Ev)
    QList<QString>::detach_helper(int)       0x0000fb9d   Thumb Code    86  qaudiodeviceinfo_symbian_p.o(t._ZN5QListI7QStringE13detach_helperEi)
    QList<QString>::node_construct(QList<QString>::Node*, const QString&) 0x0000fbfb   Thumb Code    26  qaudio_symbian_p.o(t._ZN5QListI7QStringE14node_constructEPNS1_4NodeERKS0_)
    QList<QString>::detach_helper_grow(int, int) 0x0000fc21   Thumb Code   186  qaudio_symbian_p.o(t._ZN5QListI7QStringE18detach_helper_growEii)
    QList<QString>::free(QListData::Data*)   0x0000fce3   Thumb Code    48  qaudiodevicefactory.o(t._ZN5QListI7QStringE4freeEPN9QListData4DataE)
    QList<QString>::append(const QString&)   0x0000fd15   Thumb Code    94  qaudio_symbian_p.o(t._ZN5QListI7QStringE6appendERKS0_)
    QList<QString>::node_copy(QList<QString>::Node*, QList<QString>::Node*, QList<QString>::Node*) 0x0000fd81   Thumb Code    70  qaudio_symbian_p.o(t._ZN5QListI7QStringE9node_copyEPNS1_4NodeES3_S3_)
    QList<QString>::QList(const QList<QString>&) 0x0000fddd   Thumb Code    32  qaudiodeviceinfo_symbian_p.o(t._ZN5QListI7QStringEC1ERKS1_)
    QList<QString>::QList__sub_object(const QList<QString>&) 0x0000fddd   Thumb Code     0  qaudiodeviceinfo_symbian_p.o(t._ZN5QListI7QStringEC1ERKS1_)
    QList<QString>::~QList()                 0x0000fdfd   Thumb Code    30  qaudiodeviceinfo.o(t._ZN5QListI7QStringED1Ev)
    QList<QString>::~QList__sub_object()     0x0000fdfd   Thumb Code     0  qaudiodeviceinfo.o(t._ZN5QListI7QStringED1Ev)
    QList<QVariant>::detach_helper()         0x0000fe1b   Thumb Code    88  qvideosurfaceformat.o(t._ZN5QListI8QVariantE13detach_helperEv)
    QList<QVariant>::node_destruct(QList<QVariant>::Node*) 0x0000fe7b   Thumb Code    18  qvideosurfaceformat.o(t._ZN5QListI8QVariantE13node_destructEPNS1_4NodeE)
    QList<QVariant>::node_destruct(QList<QVariant>::Node*, QList<QVariant>::Node*) 0x0000fe8d   Thumb Code    30  qvideosurfaceformat.o(t._ZN5QListI8QVariantE13node_destructEPNS1_4NodeES3_)
    QList<QVariant>::node_construct(QList<QVariant>::Node*, const QVariant&) 0x0000feab   Thumb Code    24  qvideosurfaceformat.o(t._ZN5QListI8QVariantE14node_constructEPNS1_4NodeERKS0_)
    QList<QVariant>::detach_helper_grow(int, int) 0x0000fecd   Thumb Code   180  qvideosurfaceformat.o(t._ZN5QListI8QVariantE18detach_helper_growEii)
    QList<QVariant>::free(QListData::Data*)  0x0000ff89   Thumb Code    38  qvideosurfaceformat.o(t._ZN5QListI8QVariantE4freeEPN9QListData4DataE)
    QList<QVariant>::append(const QVariant&) 0x0000ffb1   Thumb Code    90  qvideosurfaceformat.o(t._ZN5QListI8QVariantE6appendERKS0_)
    QList<QVariant>::detach()                0x00010019   Thumb Code    24  qvideosurfaceformat.o(t._ZN5QListI8QVariantE6detachEv)
    QList<QVariant>::node_copy(QList<QVariant>::Node*, QList<QVariant>::Node*, QList<QVariant>::Node*) 0x00010031   Thumb Code    72  qvideosurfaceformat.o(t._ZN5QListI8QVariantE9node_copyEPNS1_4NodeES3_S3_)
    QList<QVariant>::QList()                 0x0001008d   Thumb Code    16  qvideosurfaceformat.o(t._ZN5QListI8QVariantEC1Ev)
    QList<QVariant>::QList__sub_object()     0x0001008d   Thumb Code     0  qvideosurfaceformat.o(t._ZN5QListI8QVariantEC1Ev)
    QList<QVariant>::~QList()                0x000100a1   Thumb Code    30  qvideosurfaceformat.o(t._ZN5QListI8QVariantED1Ev)
    QList<QVariant>::~QList__sub_object()    0x000100a1   Thumb Code     0  qvideosurfaceformat.o(t._ZN5QListI8QVariantED1Ev)
    QList<QVideoFrame::PixelFormat>::~QList() 0x000100bf   Thumb Code    74  qabstractvideosurface.o(t._ZN5QListIN11QVideoFrame11PixelFormatEED1Ev)
    QList<QVideoFrame::PixelFormat>::~QList__sub_object() 0x000100bf   Thumb Code     0  qabstractvideosurface.o(t._ZN5QListIN11QVideoFrame11PixelFormatEED1Ev)
    QList<QAudioFormat::SampleType>::detach_helper(int) 0x00010109   Thumb Code   128  qaudiodeviceinfo.o(t._ZN5QListIN12QAudioFormat10SampleTypeEE13detach_helperEi)
    QList<QAudioFormat::SampleType>::detach_helper() 0x00010191   Thumb Code    88  qaudio_symbian_p.o(t._ZN5QListIN12QAudioFormat10SampleTypeEE13detach_helperEv)
    QList<QAudioFormat::SampleType>::node_destruct(QList<QAudioFormat::SampleType>::Node*, QList<QAudioFormat::SampleType>::Node*) 0x000101f1   Thumb Code    22  qaudio_symbian_p.o(t._ZN5QListIN12QAudioFormat10SampleTypeEE13node_destructEPNS2_4NodeES4_)
    QList<QAudioFormat::SampleType>::node_construct(QList<QAudioFormat::SampleType>::Node*, const QAudioFormat::SampleType&) 0x00010207   Thumb Code    20  qaudio_symbian_p.o(t._ZN5QListIN12QAudioFormat10SampleTypeEE14node_constructEPNS2_4NodeERKS1_)
    QList<QAudioFormat::SampleType>::detach_helper_grow(int, int) 0x0001021b   Thumb Code   180  qaudio_symbian_p.o(t._ZN5QListIN12QAudioFormat10SampleTypeEE18detach_helper_growEii)
    QList<QAudioFormat::SampleType>::free(QListData::Data*) 0x000102d7   Thumb Code    44  qaudio_symbian_p.o(t._ZN5QListIN12QAudioFormat10SampleTypeEE4freeEPN9QListData4DataE)
    QList<QAudioFormat::SampleType>::clear() 0x00010303   Thumb Code    64  qaudio_symbian_p.o(t._ZN5QListIN12QAudioFormat10SampleTypeEE5clearEv)
    QList<QAudioFormat::SampleType>::append(const QAudioFormat::SampleType&) 0x0001034d   Thumb Code    90  qaudio_symbian_p.o(t._ZN5QListIN12QAudioFormat10SampleTypeEE6appendERKS1_)
    QList<QAudioFormat::SampleType>::node_copy(QList<QAudioFormat::SampleType>::Node*, QList<QAudioFormat::SampleType>::Node*, QList<QAudioFormat::SampleType>::Node*) 0x000103b5   Thumb Code    60  qaudio_symbian_p.o(t._ZN5QListIN12QAudioFormat10SampleTypeEE9node_copyEPNS2_4NodeES4_S4_)
    QList<QAudioFormat::SampleType>::QList(const QList<QAudioFormat::SampleType>&) 0x000103f9   Thumb Code    30  qaudiodeviceinfo_symbian_p.o(t._ZN5QListIN12QAudioFormat10SampleTypeEEC1ERKS2_)
    QList<QAudioFormat::SampleType>::QList__sub_object(const QList<QAudioFormat::SampleType>&) 0x000103f9   Thumb Code     0  qaudiodeviceinfo_symbian_p.o(t._ZN5QListIN12QAudioFormat10SampleTypeEEC1ERKS2_)
    QList<QAudioFormat::SampleType>::QList() 0x00010419   Thumb Code    16  qaudio_symbian_p.o(t._ZN5QListIN12QAudioFormat10SampleTypeEEC1Ev)
    QList<QAudioFormat::SampleType>::QList__sub_object() 0x00010419   Thumb Code     0  qaudio_symbian_p.o(t._ZN5QListIN12QAudioFormat10SampleTypeEEC1Ev)
    QList<QAudioFormat::SampleType>::~QList() 0x0001042d   Thumb Code    30  qaudiodeviceinfo.o(t._ZN5QListIN12QAudioFormat10SampleTypeEED1Ev)
    QList<QAudioFormat::SampleType>::~QList__sub_object() 0x0001042d   Thumb Code     0  qaudiodeviceinfo.o(t._ZN5QListIN12QAudioFormat10SampleTypeEED1Ev)
    QList<QAudioFormat::Endian>::detach_helper(int) 0x0001044b   Thumb Code   128  qaudiodeviceinfo.o(t._ZN5QListIN12QAudioFormat6EndianEE13detach_helperEi)
    QList<QAudioFormat::Endian>::detach_helper() 0x000104d3   Thumb Code    88  qaudio_symbian_p.o(t._ZN5QListIN12QAudioFormat6EndianEE13detach_helperEv)
    QList<QAudioFormat::Endian>::node_destruct(QList<QAudioFormat::Endian>::Node*, QList<QAudioFormat::Endian>::Node*) 0x00010533   Thumb Code    22  qaudio_symbian_p.o(t._ZN5QListIN12QAudioFormat6EndianEE13node_destructEPNS2_4NodeES4_)
    QList<QAudioFormat::Endian>::node_construct(QList<QAudioFormat::Endian>::Node*, const QAudioFormat::Endian&) 0x00010549   Thumb Code    20  qaudio_symbian_p.o(t._ZN5QListIN12QAudioFormat6EndianEE14node_constructEPNS2_4NodeERKS1_)
    QList<QAudioFormat::Endian>::detach_helper_grow(int, int) 0x0001055d   Thumb Code   180  qaudio_symbian_p.o(t._ZN5QListIN12QAudioFormat6EndianEE18detach_helper_growEii)
    QList<QAudioFormat::Endian>::free(QListData::Data*) 0x00010619   Thumb Code    44  qaudio_symbian_p.o(t._ZN5QListIN12QAudioFormat6EndianEE4freeEPN9QListData4DataE)
    QList<QAudioFormat::Endian>::clear()     0x00010645   Thumb Code    64  qaudio_symbian_p.o(t._ZN5QListIN12QAudioFormat6EndianEE5clearEv)
    QList<QAudioFormat::Endian>::append(const QAudioFormat::Endian&) 0x00010691   Thumb Code    90  qaudio_symbian_p.o(t._ZN5QListIN12QAudioFormat6EndianEE6appendERKS1_)
    QList<QAudioFormat::Endian>::node_copy(QList<QAudioFormat::Endian>::Node*, QList<QAudioFormat::Endian>::Node*, QList<QAudioFormat::Endian>::Node*) 0x000106f9   Thumb Code    60  qaudio_symbian_p.o(t._ZN5QListIN12QAudioFormat6EndianEE9node_copyEPNS2_4NodeES4_S4_)
    QList<QAudioFormat::Endian>::QList(const QList<QAudioFormat::Endian>&) 0x0001073d   Thumb Code    30  qaudiodeviceinfo_symbian_p.o(t._ZN5QListIN12QAudioFormat6EndianEEC1ERKS2_)
    QList<QAudioFormat::Endian>::QList__sub_object(const QList<QAudioFormat::Endian>&) 0x0001073d   Thumb Code     0  qaudiodeviceinfo_symbian_p.o(t._ZN5QListIN12QAudioFormat6EndianEEC1ERKS2_)
    QList<QAudioFormat::Endian>::QList()     0x0001075d   Thumb Code    16  qaudio_symbian_p.o(t._ZN5QListIN12QAudioFormat6EndianEEC1Ev)
    QList<QAudioFormat::Endian>::QList__sub_object() 0x0001075d   Thumb Code     0  qaudio_symbian_p.o(t._ZN5QListIN12QAudioFormat6EndianEEC1Ev)
    QList<QAudioFormat::Endian>::~QList()    0x00010771   Thumb Code    30  qaudiodeviceinfo.o(t._ZN5QListIN12QAudioFormat6EndianEED1Ev)
    QList<QAudioFormat::Endian>::~QList__sub_object() 0x00010771   Thumb Code     0  qaudiodeviceinfo.o(t._ZN5QListIN12QAudioFormat6EndianEED1Ev)
    QList<CMMFDataBuffer*>::detach_helper()  0x0001078f   Thumb Code    88  qaudioinput_symbian_p.o(t._ZN5QListIP14CMMFDataBufferE13detach_helperEv)
    QList<CMMFDataBuffer*>::detach_helper_grow(int, int) 0x000107ef   Thumb Code   164  qaudioinput_symbian_p.o(t._ZN5QListIP14CMMFDataBufferE18detach_helper_growEii)
    QList<CMMFDataBuffer*>::free(QListData::Data*) 0x0001089b   Thumb Code    16  qaudioinput_symbian_p.o(t._ZN5QListIP14CMMFDataBufferE4freeEPN9QListData4DataE)
    QList<CMMFDataBuffer*>::begin()          0x000108ab   Thumb Code    34  qaudioinput_symbian_p.o(t._ZN5QListIP14CMMFDataBufferE5beginEv)
    QList<CMMFDataBuffer*>::clear()          0x000108cd   Thumb Code    64  qaudioinput_symbian_p.o(t._ZN5QListIP14CMMFDataBufferE5clearEv)
    QList<CMMFDataBuffer*>::append(CMMFDataBuffer*const &) 0x00010919   Thumb Code    54  qaudioinput_symbian_p.o(t._ZN5QListIP14CMMFDataBufferE6appendERKS1_)
    QList<CMMFDataBuffer*>::node_copy(QList<CMMFDataBuffer*>::Node*, QList<CMMFDataBuffer*>::Node*, QList<CMMFDataBuffer*>::Node*) 0x0001095f   Thumb Code    28  qaudioinput_symbian_p.o(t._ZN5QListIP14CMMFDataBufferE9node_copyEPNS2_4NodeES4_S4_)
    QList<CMMFDataBuffer*>::QList()          0x0001097d   Thumb Code    16  qaudioinput_symbian_p.o(t._ZN5QListIP14CMMFDataBufferEC1Ev)
    QList<CMMFDataBuffer*>::QList__sub_object() 0x0001097d   Thumb Code     0  qaudioinput_symbian_p.o(t._ZN5QListIP14CMMFDataBufferEC1Ev)
    QList<CMMFDataBuffer*>::~QList()         0x00010991   Thumb Code    30  qaudioinput_symbian_p.o(t._ZN5QListIP14CMMFDataBufferED1Ev)
    QList<CMMFDataBuffer*>::~QList__sub_object() 0x00010991   Thumb Code     0  qaudioinput_symbian_p.o(t._ZN5QListIP14CMMFDataBufferED1Ev)
    QList<int>::detach_helper(int)           0x000109af   Thumb Code    98  qaudiodeviceinfo.o(t._ZN5QListIiE13detach_helperEi)
    QList<int>::detach_helper()              0x00010a19   Thumb Code    12  qaudiodeviceinfo.o(t._ZN5QListIiE13detach_helperEv)
    QList<int>::detach_helper_grow(int, int) 0x00010a25   Thumb Code   164  qaudio_symbian_p.o(t._ZN5QListIiE18detach_helper_growEii)
    QList<int>::free(QListData::Data*)       0x00010ad1   Thumb Code    24  qaudiodeviceinfo.o(t._ZN5QListIiE4freeEPN9QListData4DataE)
    QList<int>::clear()                      0x00010ae9   Thumb Code    64  qaudio_symbian_p.o(t._ZN5QListIiE5clearEv)
    QList<int>::node_copy(QList<int>::Node*, QList<int>::Node*, QList<int>::Node*) 0x00010b33   Thumb Code    28  qaudio_symbian_p.o(t._ZN5QListIiE9node_copyEPNS0_4NodeES2_S2_)
    QList<int>::removeAll(const int&)        0x00010b51   Thumb Code    86  qaudiodeviceinfo.o(t._ZN5QListIiE9removeAllERKi)
    QList<int>::QList(const QList<int>&)     0x00010bad   Thumb Code    30  qaudiodeviceinfo.o(t._ZN5QListIiEC1ERKS0_)
    QList<int>::QList__sub_object(const QList<int>&) 0x00010bad   Thumb Code     0  qaudiodeviceinfo.o(t._ZN5QListIiEC1ERKS0_)
    QList<int>::QList()                      0x00010bcd   Thumb Code    16  qaudiodeviceinfo.o(t._ZN5QListIiEC1Ev)
    QList<int>::QList__sub_object()          0x00010bcd   Thumb Code     0  qaudiodeviceinfo.o(t._ZN5QListIiEC1Ev)
    QList<int>::~QList()                     0x00010be1   Thumb Code    30  qaudiodeviceinfo.o(t._ZN5QListIiED1Ev)
    QList<int>::~QList__sub_object()         0x00010be1   Thumb Code     0  qaudiodeviceinfo.o(t._ZN5QListIiED1Ev)
    QList<int>::operator =(const QList<int>&) 0x00010bff   Thumb Code    54  qaudiodeviceinfo_symbian_p.o(t._ZN5QListIiEaSERKS0_)
    QList<int>::operator +=(const int&)      0x00010c35   Thumb Code    56  qaudio_symbian_p.o(t._ZN5QListIiEpLERKi)
    QMapIterator<int, int>::hasNext() const  0x00010c7b   Thumb Code    20  qaudiodeviceinfo.o(t._ZNK12QMapIteratorIiiE7hasNextEv)
    QForeachContainer<QList<QByteArray>>::condition() const 0x00010c8f   Thumb Code    26  qaudiodevicefactory.o(t._ZNK17QForeachContainerI5QListI10QByteArrayEE9conditionEv)
    QForeachContainer<QList<int>>::condition() const 0x00010ca9   Thumb Code    26  qaudiodeviceinfo.o(t._ZNK17QForeachContainerI5QListIiEE9conditionEv)
    QMap<QString, QAudioDeviceInfoInternal::Capabilities>::keys() const 0x00010cc5   Thumb Code    84  qaudiodeviceinfo_symbian_p.o(t._ZNK4QMapI7QStringN24QAudioDeviceInfoInternal12CapabilitiesEE4keysEv)
    QMap<QString, QAudioDeviceInfoInternal::Capabilities>::contains(const QString&) const 0x00010d27   Thumb Code    90  qaudiodeviceinfo_symbian_p.o(t._ZNK4QMapI7QStringN24QAudioDeviceInfoInternal12CapabilitiesEE8containsERKS0_)
    QList<QByteArray>::at(int) const         0x00010d81   Thumb Code    16  qaudiodevicefactory.o(t._ZNK5QListI10QByteArrayE2atEi)
    QList<QByteArray>::count() const         0x00010d91   Thumb Code     8  qvideosurfaceformat.o(t._ZNK5QListI10QByteArrayE5countEv)
    QList<QByteArray>::indexOf(const QByteArray&, int) const 0x00010d99   Thumb Code   124  qvideosurfaceformat.o(t._ZNK5QListI10QByteArrayE7indexOfERKS0_i)
    QList<QByteArray>::isEmpty() const       0x00010e15   Thumb Code    18  qvideosurfaceformat.o(t._ZNK5QListI10QByteArrayE7isEmptyEv)
    QList<QVariant>::at(int) const           0x00010e27   Thumb Code    10  qvideosurfaceformat.o(t._ZNK5QListI8QVariantE2atEi)
    QList<QAudioFormat::SampleType>::contains(const QAudioFormat::SampleType&) const 0x00010e31   Thumb Code    50  qaudiodeviceinfo_symbian_p.o(t._ZNK5QListIN12QAudioFormat10SampleTypeEE8containsERKS1_)
    QList<QAudioFormat::Endian>::contains(const QAudioFormat::Endian&) const 0x00010e63   Thumb Code    50  qaudiodeviceinfo_symbian_p.o(t._ZNK5QListIN12QAudioFormat6EndianEE8containsERKS1_)
    QList<CMMFDataBuffer*>::empty() const    0x00010e95   Thumb Code    18  qaudioinput_symbian_p.o(t._ZNK5QListIP14CMMFDataBufferE5emptyEv)
    QList<int>::size() const                 0x00010ea7   Thumb Code    10  qaudiodeviceinfo_symbian_p.o(t._ZNK5QListIiE4sizeEv)
    QList<int>::contains(const int&) const   0x00010eb1   Thumb Code    48  qaudiodeviceinfo.o(t._ZNK5QListIiE8containsERKi)
    QAudioInput::staticMetaObject            0x00012388   Data          16  moc_qaudioinput.o(.constdata)
    QAudioOutput::staticMetaObject           0x00012430   Data          16  moc_qaudiooutput.o(.constdata)
    QAudioEnginePlugin::staticMetaObject     0x000124b8   Data          16  moc_qaudioengineplugin.o(.constdata)
    QAbstractAudioDeviceInfo::staticMetaObject 0x00012598   Data          16  moc_qaudioengine.o(.constdata)
    QAbstractAudioOutput::staticMetaObject   0x000125a8   Data          16  moc_qaudioengine.o(.constdata)
    QAbstractAudioInput::staticMetaObject    0x000125b8   Data          16  moc_qaudioengine.o(.constdata)
    SymbianAudio::DevSoundWrapper::staticMetaObject 0x00012748   Data          16  moc_qaudio_symbian_p.o(.constdata)
    QAudioDeviceInfoInternal::staticMetaObject 0x00012810   Data          16  moc_qaudiodeviceinfo_symbian_p.o(.constdata)
    SymbianAudioInputPrivate::staticMetaObject 0x00012918   Data          16  moc_qaudioinput_symbian_p.o(.constdata)
    QAudioInputPrivate::staticMetaObject     0x00012928   Data          16  moc_qaudioinput_symbian_p.o(.constdata)
    SymbianAudioOutputPrivate::staticMetaObject 0x00012ad4   Data          16  moc_qaudiooutput_symbian_p.o(.constdata)
    QAudioOutputPrivate::staticMetaObject    0x00012ae4   Data          16  moc_qaudiooutput_symbian_p.o(.constdata)
    QAbstractVideoSurface::staticMetaObject  0x00012c64   Data          16  moc_qabstractvideosurface.o(.constdata)
    stlp_priv::_Integer_limits<signed char, (signed char)-128, (signed char)127, (int)-1, (bool)1>::digits 0x00012cec   Data           4  qaudio.o(.constdata__ZN9stlp_priv15_Integer_limitsIaLan128ELa127ELin1ELb1EE6digitsE)
    stlp_priv::_Integer_limits<bool, (bool)0, (bool)1, (int)1, (bool)0>::digits 0x00012cf0   Data           4  qaudio.o(.constdata__ZN9stlp_priv15_Integer_limitsIbLb0ELb1ELi1ELb0EE6digitsE)
    stlp_priv::_Integer_limits<char, (char)128, (char)127, (int)-1, (bool)1>::digits 0x00012cf4   Data           4  qaudio.o(.constdata__ZN9stlp_priv15_Integer_limitsIcLc128ELc127ELin1ELb1EE6digitsE)
    stlp_priv::_Integer_limits<unsigned char, (unsigned char)0, (unsigned char)255, (int)-1, (bool)1>::digits 0x00012cf8   Data           4  qaudio.o(.constdata__ZN9stlp_priv15_Integer_limitsIhLh0ELh255ELin1ELb1EE6digitsE)
    stlp_priv::_Integer_limits<int, (int)-2147483648, (int)2147483647, (int)-1, (bool)1>::digits 0x00012cfc   Data           4  qaudio.o(.constdata__ZN9stlp_priv15_Integer_limitsIiLin2147483648ELi2147483647ELin1ELb1EE6digitsE)
    stlp_priv::_Integer_limits<int, (int)-2147483648, (int)2147483647, (int)-1, (bool)1>::is_signed 0x00012d00   Data           1  qaudio.o(.constdata__ZN9stlp_priv15_Integer_limitsIiLin2147483648ELi2147483647ELin1ELb1EE9is_signedE)
    stlp_priv::_Integer_limits<unsigned, (unsigned)0, (unsigned)4294967295, (int)-1, (bool)1>::digits 0x00012d04   Data           4  qaudio.o(.constdata__ZN9stlp_priv15_Integer_limitsIjLj0ELj4294967295ELin1ELb1EE6digitsE)
    stlp_priv::_Integer_limits<long, (long)-2147483648, (long)2147483647, (int)-1, (bool)1>::digits 0x00012d08   Data           4  qaudio.o(.constdata__ZN9stlp_priv15_Integer_limitsIlLln2147483648ELl2147483647ELin1ELb1EE6digitsE)
    stlp_priv::_Integer_limits<unsigned long, (unsigned long)0, (unsigned long)4294967295, (int)-1, (bool)1>::digits 0x00012d0c   Data           4  qaudio.o(.constdata__ZN9stlp_priv15_Integer_limitsImLm0ELm4294967295ELin1ELb1EE6digitsE)
    stlp_priv::_Integer_limits<short, (short)-32768, (short)32767, (int)-1, (bool)1>::digits 0x00012d10   Data           4  qaudio.o(.constdata__ZN9stlp_priv15_Integer_limitsIsLsn32768ELs32767ELin1ELb1EE6digitsE)
    stlp_priv::_Integer_limits<unsigned short, (unsigned short)0, (unsigned short)65535, (int)-1, (bool)1>::digits 0x00012d14   Data           4  qaudio.o(.constdata__ZN9stlp_priv15_Integer_limitsItLt0ELt65535ELin1ELb1EE6digitsE)
    stlp_priv::_Integer_limits<wchar_t, (wchar_t)0, (wchar_t)65535, (int)-1, (bool)1>::digits 0x00012d18   Data           4  qaudio.o(.constdata__ZN9stlp_priv15_Integer_limitsIwLw0ELw65535ELin1ELb1EE6digitsE)
    stlp_priv::_Integer_limits<long long, (long long)-9223372036854775808, (long long)9223372036854775807, (int)-1, (bool)1>::digits 0x00012d1c   Data           4  qaudio.o(.constdata__ZN9stlp_priv15_Integer_limitsIxLxn9223372036854775808ELx9223372036854775807ELin1ELb1EE6digitsE)
    stlp_priv::_Integer_limits<unsigned long long, (unsigned long long)0, (unsigned long long)18446744073709551615, (int)-1, (bool)1>::digits 0x00012d20   Data           4  qaudio.o(.constdata__ZN9stlp_priv15_Integer_limitsIyLy0ELy18446744073709551615ELin1ELb1EE6digitsE)
    typeinfo for QAudioInput                 0x00012d24   Data          12  moc_qaudioinput.o(.constdata__ZTI11QAudioInput)
    typeinfo for QAudioOutput                0x00012d30   Data          12  moc_qaudiooutput.o(.constdata__ZTI12QAudioOutput)
    typeinfo for QNullDeviceInfo             0x00012d3c   Data          12  qaudiodevicefactory.o(.constdata__ZTI15QNullDeviceInfo)
    typeinfo for QNullInputDevice            0x00012d48   Data          12  qaudiodevicefactory.o(.constdata__ZTI16QNullInputDevice)
    typeinfo for MDevSoundObserver           0x00012d54   Data           8  moc_qaudio_symbian_p.o(.constdata__ZTI17MDevSoundObserver)
    typeinfo for QFactoryInterface           0x00012d5c   Data           8  moc_qaudioengineplugin.o(.constdata__ZTI17QFactoryInterface)
    typeinfo for QImageVideoBuffer           0x00012d64   Data          12  qimagevideobuffer.o(.constdata__ZTI17QImageVideoBuffer)
    typeinfo for QNullOutputDevice           0x00012d70   Data          12  qaudiodevicefactory.o(.constdata__ZTI17QNullOutputDevice)
    typeinfo for QAudioEnginePlugin          0x00012d7c   Data          32  moc_qaudioengineplugin.o(.constdata__ZTI18QAudioEnginePlugin)
    typeinfo for QAudioInputPrivate          0x00012d9c   Data          12  moc_qaudioinput_symbian_p.o(.constdata__ZTI18QAudioInputPrivate)
    typeinfo for QMemoryVideoBuffer          0x00012da8   Data          12  qmemoryvideobuffer.o(.constdata__ZTI18QMemoryVideoBuffer)
    typeinfo for QAbstractAudioInput         0x00012db4   Data          12  moc_qaudioengine.o(.constdata__ZTI19QAbstractAudioInput)
    typeinfo for QAudioOutputPrivate         0x00012dc0   Data          12  moc_qaudiooutput_symbian_p.o(.constdata__ZTI19QAudioOutputPrivate)
    typeinfo for QAbstractAudioOutput        0x00012dcc   Data          12  moc_qaudioengine.o(.constdata__ZTI20QAbstractAudioOutput)
    typeinfo for QAbstractVideoBuffer        0x00012dd8   Data           8  qabstractvideobuffer.o(.constdata__ZTI20QAbstractVideoBuffer)
    typeinfo for QAbstractVideoSurface       0x00012de0   Data          12  moc_qabstractvideosurface.o(.constdata__ZTI21QAbstractVideoSurface)
    typeinfo for QAbstractAudioDeviceInfo    0x00012dec   Data          12  moc_qaudioengine.o(.constdata__ZTI24QAbstractAudioDeviceInfo)
    typeinfo for QAudioDeviceInfoInternal    0x00012df8   Data          12  moc_qaudiodeviceinfo_symbian_p.o(.constdata__ZTI24QAudioDeviceInfoInternal)
    typeinfo for QImageVideoBufferPrivate    0x00012e04   Data          12  qimagevideobuffer.o(.constdata__ZTI24QImageVideoBufferPrivate)
    typeinfo for SymbianAudioInputPrivate    0x00012e10   Data          12  moc_qaudioinput_symbian_p.o(.constdata__ZTI24SymbianAudioInputPrivate)
    typeinfo for QMemoryVideoBufferPrivate   0x00012e1c   Data          12  qmemoryvideobuffer.o(.constdata__ZTI25QMemoryVideoBufferPrivate)
    typeinfo for SymbianAudioOutputPrivate   0x00012e28   Data          12  moc_qaudiooutput_symbian_p.o(.constdata__ZTI25SymbianAudioOutputPrivate)
    typeinfo for QAbstractVideoBufferPrivate 0x00012e34   Data           8  qabstractvideobuffer.o(.constdata__ZTI27QAbstractVideoBufferPrivate)
    typeinfo for QAbstractVideoSurfacePrivate 0x00012e3c   Data          12  qabstractvideosurface.o(.constdata__ZTI28QAbstractVideoSurfacePrivate)
    typeinfo for QAudioEngineFactoryInterface 0x00012e48   Data          12  moc_qaudioengineplugin.o(.constdata__ZTI28QAudioEngineFactoryInterface)
    typeinfo for SymbianAudio::DevSoundWrapper 0x00012e54   Data          32  moc_qaudio_symbian_p.o(.constdata__ZTIN12SymbianAudio15DevSoundWrapperE)
    typeinfo name for QAudioInput            0x00012e74   Data          14  moc_qaudioinput.o(.constdata__ZTS11QAudioInput)
    typeinfo name for QAudioOutput           0x00012e82   Data          15  moc_qaudiooutput.o(.constdata__ZTS12QAudioOutput)
    typeinfo name for QNullDeviceInfo        0x00012e91   Data          18  qaudiodevicefactory.o(.constdata__ZTS15QNullDeviceInfo)
    typeinfo name for QNullInputDevice       0x00012ea3   Data          19  qaudiodevicefactory.o(.constdata__ZTS16QNullInputDevice)
    typeinfo name for MDevSoundObserver      0x00012eb6   Data          20  moc_qaudio_symbian_p.o(.constdata__ZTS17MDevSoundObserver)
    typeinfo name for QFactoryInterface      0x00012eca   Data          20  moc_qaudioengineplugin.o(.constdata__ZTS17QFactoryInterface)
    typeinfo name for QImageVideoBuffer      0x00012ede   Data          20  qimagevideobuffer.o(.constdata__ZTS17QImageVideoBuffer)
    typeinfo name for QNullOutputDevice      0x00012ef2   Data          20  qaudiodevicefactory.o(.constdata__ZTS17QNullOutputDevice)
    typeinfo name for QAudioEnginePlugin     0x00012f06   Data          21  moc_qaudioengineplugin.o(.constdata__ZTS18QAudioEnginePlugin)
    typeinfo name for QAudioInputPrivate     0x00012f1b   Data          21  moc_qaudioinput_symbian_p.o(.constdata__ZTS18QAudioInputPrivate)
    typeinfo name for QMemoryVideoBuffer     0x00012f30   Data          21  qmemoryvideobuffer.o(.constdata__ZTS18QMemoryVideoBuffer)
    typeinfo name for QAbstractAudioInput    0x00012f45   Data          22  moc_qaudioengine.o(.constdata__ZTS19QAbstractAudioInput)
    typeinfo name for QAudioOutputPrivate    0x00012f5b   Data          22  moc_qaudiooutput_symbian_p.o(.constdata__ZTS19QAudioOutputPrivate)
    typeinfo name for QAbstractAudioOutput   0x00012f71   Data          23  moc_qaudioengine.o(.constdata__ZTS20QAbstractAudioOutput)
    typeinfo name for QAbstractVideoBuffer   0x00012f88   Data          23  qabstractvideobuffer.o(.constdata__ZTS20QAbstractVideoBuffer)
    typeinfo name for QAbstractVideoSurface  0x00012f9f   Data          24  moc_qabstractvideosurface.o(.constdata__ZTS21QAbstractVideoSurface)
    typeinfo name for QAbstractAudioDeviceInfo 0x00012fb7   Data          27  moc_qaudioengine.o(.constdata__ZTS24QAbstractAudioDeviceInfo)
    typeinfo name for QAudioDeviceInfoInternal 0x00012fd2   Data          27  moc_qaudiodeviceinfo_symbian_p.o(.constdata__ZTS24QAudioDeviceInfoInternal)
    typeinfo name for QImageVideoBufferPrivate 0x00012fed   Data          27  qimagevideobuffer.o(.constdata__ZTS24QImageVideoBufferPrivate)
    typeinfo name for SymbianAudioInputPrivate 0x00013008   Data          27  moc_qaudioinput_symbian_p.o(.constdata__ZTS24SymbianAudioInputPrivate)
    typeinfo name for QMemoryVideoBufferPrivate 0x00013023   Data          28  qmemoryvideobuffer.o(.constdata__ZTS25QMemoryVideoBufferPrivate)
    typeinfo name for SymbianAudioOutputPrivate 0x0001303f   Data          28  moc_qaudiooutput_symbian_p.o(.constdata__ZTS25SymbianAudioOutputPrivate)
    typeinfo name for QAbstractVideoBufferPrivate 0x0001305b   Data          30  qabstractvideobuffer.o(.constdata__ZTS27QAbstractVideoBufferPrivate)
    typeinfo name for QAbstractVideoSurfacePrivate 0x00013079   Data          31  qabstractvideosurface.o(.constdata__ZTS28QAbstractVideoSurfacePrivate)
    typeinfo name for QAudioEngineFactoryInterface 0x00013098   Data          31  moc_qaudioengineplugin.o(.constdata__ZTS28QAudioEngineFactoryInterface)
    typeinfo name for SymbianAudio::DevSoundWrapper 0x000130b7   Data          34  moc_qaudio_symbian_p.o(.constdata__ZTSN12SymbianAudio15DevSoundWrapperE)
    vtable for QAudioInput                   0x000130dc   Data          56  moc_qaudioinput.o(.constdata__ZTV11QAudioInput)
    vtable for QAudioOutput                  0x00013114   Data          56  moc_qaudiooutput.o(.constdata__ZTV12QAudioOutput)
    vtable for QNullDeviceInfo               0x0001314c   Data          96  qaudiodevicefactory.o(.constdata__ZTV15QNullDeviceInfo)
    vtable for QNullInputDevice              0x000131ac   Data         120  qaudiodevicefactory.o(.constdata__ZTV16QNullInputDevice)
    vtable for QImageVideoBuffer             0x00013224   Data          32  qimagevideobuffer.o(.constdata__ZTV17QImageVideoBuffer)
    vtable for QNullOutputDevice             0x00013244   Data         120  qaudiodevicefactory.o(.constdata__ZTV17QNullOutputDevice)
    vtable for QAudioEnginePlugin            0x000132bc   Data         112  moc_qaudioengineplugin.o(.constdata__ZTV18QAudioEnginePlugin)
    vtable for QAudioInputPrivate            0x0001332c   Data         120  moc_qaudioinput_symbian_p.o(.constdata__ZTV18QAudioInputPrivate)
    vtable for QMemoryVideoBuffer            0x000133a4   Data          32  qmemoryvideobuffer.o(.constdata__ZTV18QMemoryVideoBuffer)
    vtable for QAbstractAudioInput           0x000133c4   Data         120  moc_qaudioengine.o(.constdata__ZTV19QAbstractAudioInput)
    vtable for QAudioOutputPrivate           0x0001343c   Data         120  moc_qaudiooutput_symbian_p.o(.constdata__ZTV19QAudioOutputPrivate)
    vtable for QAbstractAudioOutput          0x000134b4   Data         120  moc_qaudioengine.o(.constdata__ZTV20QAbstractAudioOutput)
    vtable for QAbstractVideoBuffer          0x0001352c   Data          32  qabstractvideobuffer.o(.constdata__ZTV20QAbstractVideoBuffer)
    vtable for QAbstractVideoSurface         0x0001354c   Data          80  moc_qabstractvideosurface.o(.constdata__ZTV21QAbstractVideoSurface)
    vtable for QAbstractAudioDeviceInfo      0x0001359c   Data          96  moc_qaudioengine.o(.constdata__ZTV24QAbstractAudioDeviceInfo)
    vtable for QAudioDeviceInfoInternal      0x000135fc   Data          96  moc_qaudiodeviceinfo_symbian_p.o(.constdata__ZTV24QAudioDeviceInfoInternal)
    vtable for QImageVideoBufferPrivate      0x0001365c   Data          16  qimagevideobuffer.o(.constdata__ZTV24QImageVideoBufferPrivate)
    vtable for SymbianAudioInputPrivate      0x0001366c   Data         120  moc_qaudioinput_symbian_p.o(.constdata__ZTV24SymbianAudioInputPrivate)
    vtable for QMemoryVideoBufferPrivate     0x000136e4   Data          16  qmemoryvideobuffer.o(.constdata__ZTV25QMemoryVideoBufferPrivate)
    vtable for SymbianAudioOutputPrivate     0x000136f4   Data         120  moc_qaudiooutput_symbian_p.o(.constdata__ZTV25SymbianAudioOutputPrivate)
    vtable for QAbstractVideoBufferPrivate   0x0001376c   Data          16  qabstractvideobuffer.o(.constdata__ZTV27QAbstractVideoBufferPrivate)
    vtable for QAbstractVideoSurfacePrivate  0x0001377c   Data          16  qabstractvideosurface.o(.constdata__ZTV28QAbstractVideoSurfacePrivate)
    vtable for SymbianAudio::DevSoundWrapper 0x0001378c   Data         132  moc_qaudio_symbian_p.o(.constdata__ZTVN12SymbianAudio15DevSoundWrapperE)
    SHT$$INIT_ARRAY$$Base                    0x00013810   Number         0  qaudio.o(.init_array)
    .ARM.exidx$$Base                         0x00013814   Number         0  ucppinit.o(.ARM.exidx)
    SHT$$INIT_ARRAY$$Limit                   0x00013814   Data           0  qaudio.o(.init_array)
    .ARM.exidx$$Limit                        0x00014524   Number         0  qaudiodeviceinfo.o(.ARM.exidx)
    Image$$ER_RO$$Limit                      0x00014524   Number         0  anon$$obj.o(linker$$defined$$symbols)
    QAudio::_register                        0x00400000   Data           1  qaudio.o(.data)
    __dso_handle                             0x00400014   Data           4  ucppfini.o(.data)
    std::_Atomic_swap_struct<(int)1>::_S_swap_lock 0x00400018   Data          12  qaudio.o(.data__ZNSt19_Atomic_swap_structILi1EE12_S_swap_lockE)
    QMetaTypeId<QVideoFrame::PixelFormat>::qt_metatype_id()::metatype_id 0x00400024   Data           4  qvideosurfaceformat.o(.data__ZZN11QMetaTypeIdIN11QVideoFrame11PixelFormatEE14qt_metatype_idEvE11metatype_id)
    QMetaTypeId<QVideoSurfaceFormat::YCbCrColorSpace>::qt_metatype_id()::metatype_id 0x00400028   Data           4  qvideosurfaceformat.o(.data__ZZN11QMetaTypeIdIN19QVideoSurfaceFormat15YCbCrColorSpaceEE14qt_metatype_idEvE11metatype_id)
    QMetaTypeId<QVideoSurfaceFormat::Direction>::qt_metatype_id()::metatype_id 0x0040002c   Data           4  qvideosurfaceformat.o(.data__ZZN11QMetaTypeIdIN19QVideoSurfaceFormat9DirectionEE14qt_metatype_idEvE11metatype_id)
    QMetaTypeId<QAbstractVideoBuffer::HandleType>::qt_metatype_id()::metatype_id 0x00400030   Data           4  qvideosurfaceformat.o(.data__ZZN11QMetaTypeIdIN20QAbstractVideoBuffer10HandleTypeEE14qt_metatype_idEvE11metatype_id)
    QMetaTypeId<QAudio::Mode>::qt_metatype_id()::metatype_id 0x00400034   Data           4  qaudio.o(.data__ZZN11QMetaTypeIdIN6QAudio4ModeEE14qt_metatype_idEvE11metatype_id)
    QMetaTypeId<QAudio::Error>::qt_metatype_id()::metatype_id 0x00400038   Data           4  qaudio.o(.data__ZZN11QMetaTypeIdIN6QAudio5ErrorEE14qt_metatype_idEvE11metatype_id)
    QMetaTypeId<QAudio::State>::qt_metatype_id()::metatype_id 0x0040003c   Data           4  qaudio.o(.data__ZZN11QMetaTypeIdIN6QAudio5StateEE14qt_metatype_idEvE11metatype_id)
    dtor_rec                                 0x00400040   Data        2048  ucppfini.o(.bss)

