ARM Linker, RVCT2.2 [Build 686]

================================================================================

Image Symbol Table

    Local Symbols

    Symbol Name                              Value     Ov Type        Size  Object(Section)

    [Anonymous Symbol]                       0x00000000   Number         0  QtGui{00040703}-11460.o ABSOLUTE
    [Anonymous Symbol]                       0x00000000   Number         0  ws32{000a0000}-206.o ABSOLUTE
    [Anonymous Symbol]                       0x00000000   Number         0  QtCore{00040703}-2321.o ABSOLUTE
    [Anonymous Symbol]                       0x00000000   Number         0  QtGui{00040703}-11461.o ABSOLUTE
    [Anonymous Symbol]                       0x00000000   Number         0  ws32{000a0000}-211.o ABSOLUTE
    [Anonymous Symbol]                       0x00000000   Number         0  QtCore{00040703}-2416.o ABSOLUTE
    [Anonymous Symbol]                       0x00000000   Number         0  QtGui{00040703}-11462.o ABSOLUTE
    [Anonymous Symbol]                       0x00000000   Number         0  ws32{000a0000}-265.o ABSOLUTE
    [Anonymous Symbol]                       0x00000000   Number         0  QtCore{00040703}-2418.o ABSOLUTE
    [Anonymous Symbol]                       0x00000000   Number         0  QtGui{00040703}-1493.o ABSOLUTE
    [Anonymous Symbol]                       0x00000000   Number         0  ws32{000a0000}-269.o ABSOLUTE
    [Anonymous Symbol]                       0x00000000   Number         0  QtCore{00040703}-274.o ABSOLUTE
    [Anonymous Symbol]                       0x00000000   Number         0  QtGui{00040703}-1503.o ABSOLUTE
    [Anonymous Symbol]                       0x00000000   Number         0  ws32{000a0000}-276.o ABSOLUTE
    [Anonymous Symbol]                       0x00000000   Number         0  QtCore{00040703}-275.o ABSOLUTE
    [Anonymous Symbol]                       0x00000000   Number         0  QtGui{00040703}-1574.o ABSOLUTE
    [Anonymous Symbol]                       0x00000000   Number         0  ws32{000a0000}-387.o ABSOLUTE
    [Anonymous Symbol]                       0x00000000   Number         0  QtCore{00040703}-276.o ABSOLUTE
    [Anonymous Symbol]                       0x00000000   Number         0  QtGui{00040703}-3062.o ABSOLUTE
    [Anonymous Symbol]                       0x00000000   Number         0  ws32{000a0000}-421.o ABSOLUTE
    [Anonymous Symbol]                       0x00000000   Number         0  QtCore{00040703}-2792.o ABSOLUTE
    [Anonymous Symbol]                       0x00000000   Number         0  QtGui{00040703}-34.o ABSOLUTE
    [Anonymous Symbol]                       0x00000000   Number         0  ws32{000a0000}-446.o ABSOLUTE
    [Anonymous Symbol]                       0x00000000   Number         0  QtCore{00040703}-2801.o ABSOLUTE
    [Anonymous Symbol]                       0x00000000   Number         0  QtGui{00040703}-6033.o ABSOLUTE
    [Anonymous Symbol]                       0x00000000   Number         0  ws32{000a0000}-69.o ABSOLUTE
    [Anonymous Symbol]                       0x00000000   Number         0  QtCore{00040703}-2812.o ABSOLUTE
    [Anonymous Symbol]                       0x00000000   Number         0  QtGui{00040703}-6052.o ABSOLUTE
    [Anonymous Symbol]                       0x00000000   Number         0  mediaclientvideo{000a0000}-10.o ABSOLUTE
    [Anonymous Symbol]                       0x00000000   Number         0  QtCore{00040703}-282.o ABSOLUTE
    [Anonymous Symbol]                       0x00000000   Number         0  QtGui{00040703}-6063.o ABSOLUTE
    [Anonymous Symbol]                       0x00000000   Number         0  mediaclientvideo{000a0000}-105.o ABSOLUTE
    [Anonymous Symbol]                       0x00000000   Number         0  QtCore{00040703}-2823.o ABSOLUTE
    [Anonymous Symbol]                       0x00000000   Number         0  QtGui{00040703}-6065.o ABSOLUTE
    [Anonymous Symbol]                       0x00000000   Number         0  mediaclientvideo{000a0000}-106.o ABSOLUTE
    [Anonymous Symbol]                       0x00000000   Number         0  QtCore{00040703}-2841.o ABSOLUTE
    [Anonymous Symbol]                       0x00000000   Number         0  QtGui{00040703}-6166.o ABSOLUTE
    [Anonymous Symbol]                       0x00000000   Number         0  mediaclientvideo{000a0000}-11.o ABSOLUTE
    [Anonymous Symbol]                       0x00000000   Number         0  QtCore{00040703}-2842.o ABSOLUTE
    [Anonymous Symbol]                       0x00000000   Number         0  QtGui{00040703}-6167.o ABSOLUTE
    [Anonymous Symbol]                       0x00000000   Number         0  mediaclientvideo{000a0000}-124.o ABSOLUTE
    [Anonymous Symbol]                       0x00000000   Number         0  QtCore{00040703}-2848.o ABSOLUTE
    [Anonymous Symbol]                       0x00000000   Number         0  QtGui{00040703}-6168.o ABSOLUTE
    [Anonymous Symbol]                       0x00000000   Number         0  mediaclientvideo{000a0000}-13.o ABSOLUTE
    [Anonymous Symbol]                       0x00000000   Number         0  QtCore{00040703}-2911.o ABSOLUTE
    [Anonymous Symbol]                       0x00000000   Number         0  QtGui{00040703}-6169.o ABSOLUTE
    [Anonymous Symbol]                       0x00000000   Number         0  mediaclientvideo{000a0000}-130.o ABSOLUTE
    [Anonymous Symbol]                       0x00000000   Number         0  QtCore{00040703}-3035.o ABSOLUTE
    [Anonymous Symbol]                       0x00000000   Number         0  QtGui{00040703}-6172.o ABSOLUTE
    [Anonymous Symbol]                       0x00000000   Number         0  mediaclientvideo{000a0000}-17.o ABSOLUTE
    [Anonymous Symbol]                       0x00000000   Number         0  QtCore{00040703}-3040.o ABSOLUTE
    [Anonymous Symbol]                       0x00000000   Number         0  QtGui{00040703}-6174.o ABSOLUTE
    [Anonymous Symbol]                       0x00000000   Number         0  mediaclientvideo{000a0000}-18.o ABSOLUTE
    [Anonymous Symbol]                       0x00000000   Number         0  QtCore{00040703}-3052.o ABSOLUTE
    [Anonymous Symbol]                       0x00000000   Number         0  QtGui{00040703}-6178.o ABSOLUTE
    [Anonymous Symbol]                       0x00000000   Number         0  mediaclientvideo{000a0000}-20.o ABSOLUTE
    [Anonymous Symbol]                       0x00000000   Number         0  QtCore{00040703}-3054.o ABSOLUTE
    [Anonymous Symbol]                       0x00000000   Number         0  QtGui{00040703}-6179.o ABSOLUTE
    [Anonymous Symbol]                       0x00000000   Number         0  mediaclientvideo{000a0000}-22.o ABSOLUTE
    [Anonymous Symbol]                       0x00000000   Number         0  QtCore{00040703}-3063.o ABSOLUTE
    [Anonymous Symbol]                       0x00000000   Number         0  QtGui{00040703}-6180.o ABSOLUTE
    [Anonymous Symbol]                       0x00000000   Number         0  mediaclientvideo{000a0000}-23.o ABSOLUTE
    [Anonymous Symbol]                       0x00000000   Number         0  QtCore{00040703}-3064.o ABSOLUTE
    [Anonymous Symbol]                       0x00000000   Number         0  QtGui{00040703}-6183.o ABSOLUTE
    [Anonymous Symbol]                       0x00000000   Number         0  mediaclientvideo{000a0000}-24.o ABSOLUTE
    [Anonymous Symbol]                       0x00000000   Number         0  QtCore{00040703}-3071.o ABSOLUTE
    [Anonymous Symbol]                       0x00000000   Number         0  QtGui{00040703}-6184.o ABSOLUTE
    [Anonymous Symbol]                       0x00000000   Number         0  mediaclientvideo{000a0000}-25.o ABSOLUTE
    [Anonymous Symbol]                       0x00000000   Number         0  QtCore{00040703}-3072.o ABSOLUTE
    [Anonymous Symbol]                       0x00000000   Number         0  QtGui{00040703}-6185.o ABSOLUTE
    [Anonymous Symbol]                       0x00000000   Number         0  mediaclientvideo{000a0000}-26.o ABSOLUTE
    [Anonymous Symbol]                       0x00000000   Number         0  QtCore{00040703}-3097.o ABSOLUTE
    [Anonymous Symbol]                       0x00000000   Number         0  QtGui{00040703}-6190.o ABSOLUTE
    [Anonymous Symbol]                       0x00000000   Number         0  mediaclientvideo{000a0000}-28.o ABSOLUTE
    [Anonymous Symbol]                       0x00000000   Number         0  QtCore{00040703}-3098.o ABSOLUTE
    [Anonymous Symbol]                       0x00000000   Number         0  QtGui{00040703}-6191.o ABSOLUTE
    [Anonymous Symbol]                       0x00000000   Number         0  mediaclientvideo{000a0000}-3.o ABSOLUTE
    [Anonymous Symbol]                       0x00000000   Number         0  QtCore{00040703}-3101.o ABSOLUTE
    [Anonymous Symbol]                       0x00000000   Number         0  QtGui{00040703}-6194.o ABSOLUTE
    [Anonymous Symbol]                       0x00000000   Number         0  mediaclientvideo{000a0000}-30.o ABSOLUTE
    [Anonymous Symbol]                       0x00000000   Number         0  QtCore{00040703}-312.o ABSOLUTE
    [Anonymous Symbol]                       0x00000000   Number         0  QtGui{00040703}-6202.o ABSOLUTE
    [Anonymous Symbol]                       0x00000000   Number         0  mediaclientvideo{000a0000}-5.o ABSOLUTE
    [Anonymous Symbol]                       0x00000000   Number         0  QtCore{00040703}-3139.o ABSOLUTE
    [Anonymous Symbol]                       0x00000000   Number         0  QtGui{00040703}-6208.o ABSOLUTE
    [Anonymous Symbol]                       0x00000000   Number         0  mediaclientvideo{000a0000}-61.o ABSOLUTE
    [Anonymous Symbol]                       0x00000000   Number         0  QtCore{00040703}-3142.o ABSOLUTE
    [Anonymous Symbol]                       0x00000000   Number         0  QtGui{00040703}-6209.o ABSOLUTE
    [Anonymous Symbol]                       0x00000000   Number         0  mediaclientvideo{000a0000}-64.o ABSOLUTE
    [Anonymous Symbol]                       0x00000000   Number         0  QtCore{00040703}-32.o ABSOLUTE
    [Anonymous Symbol]                       0x00000000   Number         0  QtGui{00040703}-6210.o ABSOLUTE
    [Anonymous Symbol]                       0x00000000   Number         0  mediaclientvideo{000a0000}-67.o ABSOLUTE
    [Anonymous Symbol]                       0x00000000   Number         0  QtCore{00040703}-324.o ABSOLUTE
    [Anonymous Symbol]                       0x00000000   Number         0  QtGui{00040703}-6212.o ABSOLUTE
    [Anonymous Symbol]                       0x00000000   Number         0  mediaclientvideo{000a0000}-69.o ABSOLUTE
    [Anonymous Symbol]                       0x00000000   Number         0  QtCore{00040703}-331.o ABSOLUTE
    [Anonymous Symbol]                       0x00000000   Number         0  QtGui{00040703}-6213.o ABSOLUTE
    [Anonymous Symbol]                       0x00000000   Number         0  mediaclientvideo{000a0000}-72.o ABSOLUTE
    [Anonymous Symbol]                       0x00000000   Number         0  QtCore{00040703}-332.o ABSOLUTE
    [Anonymous Symbol]                       0x00000000   Number         0  QtGui{00040703}-6216.o ABSOLUTE
    [Anonymous Symbol]                       0x00000000   Number         0  mediaclientvideo{000a0000}-73.o ABSOLUTE
    [Anonymous Symbol]                       0x00000000   Number         0  QtCore{00040703}-3584.o ABSOLUTE
    [Anonymous Symbol]                       0x00000000   Number         0  QtGui{00040703}-6220.o ABSOLUTE
    [Anonymous Symbol]                       0x00000000   Number         0  mediaclientvideo{000a0000}-74.o ABSOLUTE
    [Anonymous Symbol]                       0x00000000   Number         0  QtCore{00040703}-3607.o ABSOLUTE
    [Anonymous Symbol]                       0x00000000   Number         0  QtGui{00040703}-6222.o ABSOLUTE
    [Anonymous Symbol]                       0x00000000   Number         0  mediaclientaudio{000a0000}-102.o ABSOLUTE
    [Anonymous Symbol]                       0x00000000   Number         0  QtCore{00040703}-3608.o ABSOLUTE
    [Anonymous Symbol]                       0x00000000   Number         0  QtGui{00040703}-6223.o ABSOLUTE
    [Anonymous Symbol]                       0x00000000   Number         0  mediaclientaudio{000a0000}-112.o ABSOLUTE
    [Anonymous Symbol]                       0x00000000   Number         0  QtCore{00040703}-3609.o ABSOLUTE
    [Anonymous Symbol]                       0x00000000   Number         0  QtGui{00040703}-6224.o ABSOLUTE
    [Anonymous Symbol]                       0x00000000   Number         0  mediaclientaudio{000a0000}-14.o ABSOLUTE
    [Anonymous Symbol]                       0x00000000   Number         0  QtCore{00040703}-3610.o ABSOLUTE
    [Anonymous Symbol]                       0x00000000   Number         0  QtGui{00040703}-6225.o ABSOLUTE
    [Anonymous Symbol]                       0x00000000   Number         0  mediaclientaudio{000a0000}-15.o ABSOLUTE
    [Anonymous Symbol]                       0x00000000   Number         0  QtCore{00040703}-3689.o ABSOLUTE
    [Anonymous Symbol]                       0x00000000   Number         0  QtGui{00040703}-6226.o ABSOLUTE
    [Anonymous Symbol]                       0x00000000   Number         0  mediaclientaudio{000a0000}-24.o ABSOLUTE
    [Anonymous Symbol]                       0x00000000   Number         0  QtCore{00040703}-3691.o ABSOLUTE
    [Anonymous Symbol]                       0x00000000   Number         0  QtGui{00040703}-6235.o ABSOLUTE
    [Anonymous Symbol]                       0x00000000   Number         0  mediaclientaudio{000a0000}-29.o ABSOLUTE
    [Anonymous Symbol]                       0x00000000   Number         0  QtCore{00040703}-46.o ABSOLUTE
    [Anonymous Symbol]                       0x00000000   Number         0  QtGui{00040703}-6237.o ABSOLUTE
    [Anonymous Symbol]                       0x00000000   Number         0  mediaclientaudio{000a0000}-30.o ABSOLUTE
    [Anonymous Symbol]                       0x00000000   Number         0  QtCore{00040703}-634.o ABSOLUTE
    [Anonymous Symbol]                       0x00000000   Number         0  QtGui{00040703}-6239.o ABSOLUTE
    [Anonymous Symbol]                       0x00000000   Number         0  mediaclientaudio{000a0000}-32.o ABSOLUTE
    [Anonymous Symbol]                       0x00000000   Number         0  QtCore{00040703}-1763.o ABSOLUTE
    [Anonymous Symbol]                       0x00000000   Number         0  QtGui{00040703}-6246.o ABSOLUTE
    [Anonymous Symbol]                       0x00000000   Number         0  mediaclientaudio{000a0000}-35.o ABSOLUTE
    [Anonymous Symbol]                       0x00000000   Number         0  QtCore{00040703}-1764.o ABSOLUTE
    [Anonymous Symbol]                       0x00000000   Number         0  QtGui{00040703}-6247.o ABSOLUTE
    [Anonymous Symbol]                       0x00000000   Number         0  mediaclientaudio{000a0000}-36.o ABSOLUTE
    [Anonymous Symbol]                       0x00000000   Number         0  QtCore{00040703}-1766.o ABSOLUTE
    [Anonymous Symbol]                       0x00000000   Number         0  QtGui{00040703}-6255.o ABSOLUTE
    [Anonymous Symbol]                       0x00000000   Number         0  mediaclientaudio{000a0000}-37.o ABSOLUTE
    [Anonymous Symbol]                       0x00000000   Number         0  QtCore{00040703}-1767.o ABSOLUTE
    [Anonymous Symbol]                       0x00000000   Number         0  QtGui{00040703}-6265.o ABSOLUTE
    [Anonymous Symbol]                       0x00000000   Number         0  mediaclientaudio{000a0000}-42.o ABSOLUTE
    [Anonymous Symbol]                       0x00000000   Number         0  QtCore{00040703}-1768.o ABSOLUTE
    [Anonymous Symbol]                       0x00000000   Number         0  QtGui{00040703}-6276.o ABSOLUTE
    [Anonymous Symbol]                       0x00000000   Number         0  mediaclientaudio{000a0000}-81.o ABSOLUTE
    [Anonymous Symbol]                       0x00000000   Number         0  QtCore{00040703}-1769.o ABSOLUTE
    [Anonymous Symbol]                       0x00000000   Number         0  QtGui{00040703}-6277.o ABSOLUTE
    [Anonymous Symbol]                       0x00000000   Number         0  mediaclientaudio{000a0000}-85.o ABSOLUTE
    [Anonymous Symbol]                       0x00000000   Number         0  QtCore{00040703}-1773.o ABSOLUTE
    [Anonymous Symbol]                       0x00000000   Number         0  QtGui{00040703}-6279.o ABSOLUTE
    [Anonymous Symbol]                       0x00000000   Number         0  mediaclientaudio{000a0000}-88.o ABSOLUTE
    [Anonymous Symbol]                       0x00000000   Number         0  QtCore{00040703}-1777.o ABSOLUTE
    [Anonymous Symbol]                       0x00000000   Number         0  QtGui{00040703}-6284.o ABSOLUTE
    [Anonymous Symbol]                       0x00000000   Number         0  mediaclientaudio{000a0000}-89.o ABSOLUTE
    [Anonymous Symbol]                       0x00000000   Number         0  QtCore{00040703}-1781.o ABSOLUTE
    [Anonymous Symbol]                       0x00000000   Number         0  QtGui{00040703}-6295.o ABSOLUTE
    [Anonymous Symbol]                       0x00000000   Number         0  mediaclientaudio{000a0000}-90.o ABSOLUTE
    [Anonymous Symbol]                       0x00000000   Number         0  QtCore{00040703}-1784.o ABSOLUTE
    [Anonymous Symbol]                       0x00000000   Number         0  QtGui{00040703}-6308.o ABSOLUTE
    [Anonymous Symbol]                       0x00000000   Number         0  mediaclientaudio{000a0000}-92.o ABSOLUTE
    [Anonymous Symbol]                       0x00000000   Number         0  QtCore{00040703}-1785.o ABSOLUTE
    [Anonymous Symbol]                       0x00000000   Number         0  QtGui{00040703}-6311.o ABSOLUTE
    [Anonymous Symbol]                       0x00000000   Number         0  mediaclientaudio{000a0000}-93.o ABSOLUTE
    [Anonymous Symbol]                       0x00000000   Number         0  QtCore{00040703}-1789.o ABSOLUTE
    [Anonymous Symbol]                       0x00000000   Number         0  QtGui{00040703}-6312.o ABSOLUTE
    [Anonymous Symbol]                       0x00000000   Number         0  mediaclientaudio{000a0000}-95.o ABSOLUTE
    [Anonymous Symbol]                       0x00000000   Number         0  QtCore{00040703}-1794.o ABSOLUTE
    [Anonymous Symbol]                       0x00000000   Number         0  QtGui{00040703}-6318.o ABSOLUTE
    [Anonymous Symbol]                       0x00000000   Number         0  mediaclientaudio{000a0000}-96.o ABSOLUTE
    [Anonymous Symbol]                       0x00000000   Number         0  QtCore{00040703}-1825.o ABSOLUTE
    [Anonymous Symbol]                       0x00000000   Number         0  QtGui{00040703}-6319.o ABSOLUTE
    [Anonymous Symbol]                       0x00000000   Number         0  mediaclientaudio{000a0000}-99.o ABSOLUTE
    [Anonymous Symbol]                       0x00000000   Number         0  QtCore{00040703}-1826.o ABSOLUTE
    [Anonymous Symbol]                       0x00000000   Number         0  QtGui{00040703}-6324.o ABSOLUTE
    [Anonymous Symbol]                       0x00000000   Number         0  fbscli{000a0000}-117.o ABSOLUTE
    [Anonymous Symbol]                       0x00000000   Number         0  QtCore{00040703}-1828.o ABSOLUTE
    [Anonymous Symbol]                       0x00000000   Number         0  QtGui{00040703}-6456.o ABSOLUTE
    [Anonymous Symbol]                       0x00000000   Number         0  mmfcontrollerframework{000a0000}-100.o ABSOLUTE
    [Anonymous Symbol]                       0x00000000   Number         0  QtCore{00040703}-1830.o ABSOLUTE
    [Anonymous Symbol]                       0x00000000   Number         0  QtGui{00040703}-6545.o ABSOLUTE
    [Anonymous Symbol]                       0x00000000   Number         0  mmfcontrollerframework{000a0000}-102.o ABSOLUTE
    [Anonymous Symbol]                       0x00000000   Number         0  QtCore{00040703}-1836.o ABSOLUTE
    [Anonymous Symbol]                       0x00000000   Number         0  QtGui{00040703}-6549.o ABSOLUTE
    [Anonymous Symbol]                       0x00000000   Number         0  mmfcontrollerframework{000a0000}-120.o ABSOLUTE
    [Anonymous Symbol]                       0x00000000   Number         0  QtCore{00040703}-1842.o ABSOLUTE
    [Anonymous Symbol]                       0x00000000   Number         0  QtGui{00040703}-6559.o ABSOLUTE
    [Anonymous Symbol]                       0x00000000   Number         0  mmfcontrollerframework{000a0000}-121.o ABSOLUTE
    [Anonymous Symbol]                       0x00000000   Number         0  QtCore{00040703}-1871.o ABSOLUTE
    [Anonymous Symbol]                       0x00000000   Number         0  QtGui{00040703}-6573.o ABSOLUTE
    [Anonymous Symbol]                       0x00000000   Number         0  mmfcontrollerframework{000a0000}-122.o ABSOLUTE
    [Anonymous Symbol]                       0x00000000   Number         0  QtCore{00040703}-1874.o ABSOLUTE
    [Anonymous Symbol]                       0x00000000   Number         0  QtGui{00040703}-8694.o ABSOLUTE
    [Anonymous Symbol]                       0x00000000   Number         0  mmfcontrollerframework{000a0000}-126.o ABSOLUTE
    [Anonymous Symbol]                       0x00000000   Number         0  QtCore{00040703}-1875.o ABSOLUTE
    [Anonymous Symbol]                       0x00000000   Number         0  QtGui{00040703}-9987.o ABSOLUTE
    [Anonymous Symbol]                       0x00000000   Number         0  mmfcontrollerframework{000a0000}-127.o ABSOLUTE
    [Anonymous Symbol]                       0x00000000   Number         0  QtCore{00040703}-1885.o ABSOLUTE
    [Anonymous Symbol]                       0x00000000   Number         0  QtCore{00040703}-1453.o ABSOLUTE
    [Anonymous Symbol]                       0x00000000   Number         0  mmfcontrollerframework{000a0000}-128.o ABSOLUTE
    [Anonymous Symbol]                       0x00000000   Number         0  QtCore{00040703}-1947.o ABSOLUTE
    [Anonymous Symbol]                       0x00000000   Number         0  QtCore{00040703}-1466.o ABSOLUTE
    [Anonymous Symbol]                       0x00000000   Number         0  mmfcontrollerframework{000a0000}-129.o ABSOLUTE
    [Anonymous Symbol]                       0x00000000   Number         0  QtCore{00040703}-1949.o ABSOLUTE
    [Anonymous Symbol]                       0x00000000   Number         0  QtCore{00040703}-1471.o ABSOLUTE
    [Anonymous Symbol]                       0x00000000   Number         0  mmfcontrollerframework{000a0000}-150.o ABSOLUTE
    [Anonymous Symbol]                       0x00000000   Number         0  QtCore{00040703}-2010.o ABSOLUTE
    [Anonymous Symbol]                       0x00000000   Number         0  QtCore{00040703}-1477.o ABSOLUTE
    [Anonymous Symbol]                       0x00000000   Number         0  mmfcontrollerframework{000a0000}-151.o ABSOLUTE
    [Anonymous Symbol]                       0x00000000   Number         0  euser{000a0000}-214.o ABSOLUTE
    [Anonymous Symbol]                       0x00000000   Number         0  QtCore{00040703}-150.o ABSOLUTE
    [Anonymous Symbol]                       0x00000000   Number         0  mmfcontrollerframework{000a0000}-167.o ABSOLUTE
    [Anonymous Symbol]                       0x00000000   Number         0  euser{000a0000}-44.o ABSOLUTE
    [Anonymous Symbol]                       0x00000000   Number         0  QtCore{00040703}-1516.o ABSOLUTE
    [Anonymous Symbol]                       0x00000000   Number         0  mmfcontrollerframework{000a0000}-171.o ABSOLUTE
    [Anonymous Symbol]                       0x00000000   Number         0  euser{000a0000}-46.o ABSOLUTE
    [Anonymous Symbol]                       0x00000000   Number         0  QtCore{00040703}-1523.o ABSOLUTE
    [Anonymous Symbol]                       0x00000000   Number         0  mmfcontrollerframework{000a0000}-173.o ABSOLUTE
    [Anonymous Symbol]                       0x00000000   Number         0  euser{000a0000}-47.o ABSOLUTE
    [Anonymous Symbol]                       0x00000000   Number         0  QtCore{00040703}-1525.o ABSOLUTE
    [Anonymous Symbol]                       0x00000000   Number         0  mmfcontrollerframework{000a0000}-177.o ABSOLUTE
    [Anonymous Symbol]                       0x00000000   Number         0  euser{000a0000}-470.o ABSOLUTE
    [Anonymous Symbol]                       0x00000000   Number         0  QtCore{00040703}-1526.o ABSOLUTE
    [Anonymous Symbol]                       0x00000000   Number         0  mmfcontrollerframework{000a0000}-180.o ABSOLUTE
    [Anonymous Symbol]                       0x00000000   Number         0  euser{000a0000}-471.o ABSOLUTE
    [Anonymous Symbol]                       0x00000000   Number         0  QtCore{00040703}-1531.o ABSOLUTE
    [Anonymous Symbol]                       0x00000000   Number         0  mmfcontrollerframework{000a0000}-181.o ABSOLUTE
    [Anonymous Symbol]                       0x00000000   Number         0  euser{000a0000}-48.o ABSOLUTE
    [Anonymous Symbol]                       0x00000000   Number         0  QtCore{00040703}-1534.o ABSOLUTE
    [Anonymous Symbol]                       0x00000000   Number         0  efsrv{000a0000}-300.o ABSOLUTE
    [Anonymous Symbol]                       0x00000000   Number         0  euser{000a0000}-481.o ABSOLUTE
    [Anonymous Symbol]                       0x00000000   Number         0  QtCore{00040703}-1560.o ABSOLUTE
    [Anonymous Symbol]                       0x00000000   Number         0  efsrv{000a0000}-68.o ABSOLUTE
    [Anonymous Symbol]                       0x00000000   Number         0  euser{000a0000}-55.o ABSOLUTE
    [Anonymous Symbol]                       0x00000000   Number         0  QtCore{00040703}-1634.o ABSOLUTE
    [Anonymous Symbol]                       0x00000000   Number         0  efsrv{000a0000}-93.o ABSOLUTE
    [Anonymous Symbol]                       0x00000000   Number         0  euser{000a0000}-593.o ABSOLUTE
    [Anonymous Symbol]                       0x00000000   Number         0  QtCore{00040703}-1713.o ABSOLUTE
    [Anonymous Symbol]                       0x00000000   Number         0  apgrfx{000a0000}-25.o ABSOLUTE
    [Anonymous Symbol]                       0x00000000   Number         0  euser{000a0000}-651.o ABSOLUTE
    [Anonymous Symbol]                       0x00000000   Number         0  QtCore{00040703}-1714.o ABSOLUTE
    [Anonymous Symbol]                       0x00000000   Number         0  apgrfx{000a0000}-28.o ABSOLUTE
    [Anonymous Symbol]                       0x00000000   Number         0  euser{000a0000}-654.o ABSOLUTE
    [Anonymous Symbol]                       0x00000000   Number         0  QtCore{00040703}-1717.o ABSOLUTE
    [Anonymous Symbol]                       0x00000000   Number         0  apgrfx{000a0000}-314.o ABSOLUTE
    [Anonymous Symbol]                       0x00000000   Number         0  euser{000a0000}-669.o ABSOLUTE
    [Anonymous Symbol]                       0x00000000   Number         0  QtCore{00040703}-1760.o ABSOLUTE
    [Anonymous Symbol]                       0x00000000   Number         0  apgrfx{000a0000}-323.o ABSOLUTE
    [Anonymous Symbol]                       0x00000000   Number         0  euser{000a0000}-670.o ABSOLUTE
    [Anonymous Symbol]                       0x00000000   Number         0  QtCore{00040703}-1761.o ABSOLUTE
    [Anonymous Symbol]                       0x00000000   Number         0  apmime{000a0000}-61.o ABSOLUTE
    [Anonymous Symbol]                       0x00000000   Number         0  euser{000a0000}-671.o ABSOLUTE
    [Anonymous Symbol]                       0x00000000   Number         0  QtCore{00040703}-70.o ABSOLUTE
    [Anonymous Symbol]                       0x00000000   Number         0  apmime{000a0000}-77.o ABSOLUTE
    [Anonymous Symbol]                       0x00000000   Number         0  euser{000a0000}-743.o ABSOLUTE
    [Anonymous Symbol]                       0x00000000   Number         0  QtCore{00040703}-73.o ABSOLUTE
    [Anonymous Symbol]                       0x00000000   Number         0  bafl{000a0000}-103.o ABSOLUTE
    [Anonymous Symbol]                       0x00000000   Number         0  euser{000a0000}-822.o ABSOLUTE
    [Anonymous Symbol]                       0x00000000   Number         0  QtCore{00040703}-94.o ABSOLUTE
    [Anonymous Symbol]                       0x00000000   Number         0  bafl{000a0000}-18.o ABSOLUTE
    [Anonymous Symbol]                       0x00000000   Number         0  euser{000a0000}-839.o ABSOLUTE
    [Anonymous Symbol]                       0x00000000   Number         0  libc{00010000}-350.o ABSOLUTE
    [Anonymous Symbol]                       0x00000000   Number         0  bafl{000a0000}-256.o ABSOLUTE
    [Anonymous Symbol]                       0x00000000   Number         0  euser{000a0000}-891.o ABSOLUTE
    [Anonymous Symbol]                       0x00000000   Number         0  euser{000a0000}-1169.o ABSOLUTE
    [Anonymous Symbol]                       0x00000000   Number         0  bafl{000a0000}-257.o ABSOLUTE
    [Anonymous Symbol]                       0x00000000   Number         0  euser{000a0000}-893.o ABSOLUTE
    [Anonymous Symbol]                       0x00000000   Number         0  euser{000a0000}-1170.o ABSOLUTE
    [Anonymous Symbol]                       0x00000000   Number         0  bafl{000a0000}-272.o ABSOLUTE
    [Anonymous Symbol]                       0x00000000   Number         0  QtMultimediaKit{00010103}-476.o ABSOLUTE
    [Anonymous Symbol]                       0x00000000   Number         0  euser{000a0000}-1171.o ABSOLUTE
    [Anonymous Symbol]                       0x00000000   Number         0  Radio_Utility{000a0001}-43.o ABSOLUTE
    [Anonymous Symbol]                       0x00000000   Number         0  QtMultimediaKit{00010103}-483.o ABSOLUTE
    [Anonymous Symbol]                       0x00000000   Number         0  euser{000a0000}-120.o ABSOLUTE
    [Anonymous Symbol]                       0x00000000   Number         0  Radio_Utility{000a0001}-44.o ABSOLUTE
    [Anonymous Symbol]                       0x00000000   Number         0  QtMultimediaKit{00010103}-484.o ABSOLUTE
    [Anonymous Symbol]                       0x00000000   Number         0  euser{000a0000}-1469.o ABSOLUTE
    [Anonymous Symbol]                       0x00000000   Number         0  Radio_Utility{000a0001}-45.o ABSOLUTE
    [Anonymous Symbol]                       0x00000000   Number         0  QtMultimediaKit{00010103}-487.o ABSOLUTE
    [Anonymous Symbol]                       0x00000000   Number         0  euser{000a0000}-1507.o ABSOLUTE
    [Anonymous Symbol]                       0x00000000   Number         0  Radio_Utility{000a0001}-46.o ABSOLUTE
    [Anonymous Symbol]                       0x00000000   Number         0  QtMultimediaKit{00010103}-518.o ABSOLUTE
    [Anonymous Symbol]                       0x00000000   Number         0  euser{000a0000}-1508.o ABSOLUTE
    [Anonymous Symbol]                       0x00000000   Number         0  Radio_Utility{000a0001}-48.o ABSOLUTE
    [Anonymous Symbol]                       0x00000000   Number         0  QtMultimediaKit{00010103}-519.o ABSOLUTE
    [Anonymous Symbol]                       0x00000000   Number         0  euser{000a0000}-1510.o ABSOLUTE
    [Anonymous Symbol]                       0x00000000   Number         0  Radio_Utility{000a0001}-53.o ABSOLUTE
    [Anonymous Symbol]                       0x00000000   Number         0  QtMultimediaKit{00010103}-526.o ABSOLUTE
    [Anonymous Symbol]                       0x00000000   Number         0  QtMultimediaKit{00010103}-1081.o ABSOLUTE
    [Anonymous Symbol]                       0x00000000   Number         0  Radio_Utility{000a0001}-54.o ABSOLUTE
    [Anonymous Symbol]                       0x00000000   Number         0  QtMultimediaKit{00010103}-529.o ABSOLUTE
    [Anonymous Symbol]                       0x00000000   Number         0  QtMultimediaKit{00010103}-1086.o ABSOLUTE
    [Anonymous Symbol]                       0x00000000   Number         0  Radio_Utility{000a0001}-56.o ABSOLUTE
    [Anonymous Symbol]                       0x00000000   Number         0  QtMultimediaKit{00010103}-531.o ABSOLUTE
    [Anonymous Symbol]                       0x00000000   Number         0  QtMultimediaKit{00010103}-1087.o ABSOLUTE
    [Anonymous Symbol]                       0x00000000   Number         0  Radio_Utility{000a0001}-59.o ABSOLUTE
    [Anonymous Symbol]                       0x00000000   Number         0  QtMultimediaKit{00010103}-532.o ABSOLUTE
    [Anonymous Symbol]                       0x00000000   Number         0  QtMultimediaKit{00010103}-1088.o ABSOLUTE
    [Anonymous Symbol]                       0x00000000   Number         0  Radio_Utility{000a0001}-6.o ABSOLUTE
    [Anonymous Symbol]                       0x00000000   Number         0  QtMultimediaKit{00010103}-540.o ABSOLUTE
    [Anonymous Symbol]                       0x00000000   Number         0  QtMultimediaKit{00010103}-1089.o ABSOLUTE
    [Anonymous Symbol]                       0x00000000   Number         0  Radio_Utility{000a0001}-60.o ABSOLUTE
    [Anonymous Symbol]                       0x00000000   Number         0  QtMultimediaKit{00010103}-543.o ABSOLUTE
    [Anonymous Symbol]                       0x00000000   Number         0  QtMultimediaKit{00010103}-1091.o ABSOLUTE
    [Anonymous Symbol]                       0x00000000   Number         0  Radio_Utility{000a0001}-62.o ABSOLUTE
    [Anonymous Symbol]                       0x00000000   Number         0  QtMultimediaKit{00010103}-556.o ABSOLUTE
    [Anonymous Symbol]                       0x00000000   Number         0  QtMultimediaKit{00010103}-1092.o ABSOLUTE
    [Anonymous Symbol]                       0x00000000   Number         0  Radio_Utility{000a0001}-63.o ABSOLUTE
    [Anonymous Symbol]                       0x00000000   Number         0  QtMultimediaKit{00010103}-557.o ABSOLUTE
    [Anonymous Symbol]                       0x00000000   Number         0  QtMultimediaKit{00010103}-214.o ABSOLUTE
    [Anonymous Symbol]                       0x00000000   Number         0  Radio_Utility{000a0001}-7.o ABSOLUTE
    [Anonymous Symbol]                       0x00000000   Number         0  QtMultimediaKit{00010103}-560.o ABSOLUTE
    [Anonymous Symbol]                       0x00000000   Number         0  QtMultimediaKit{00010103}-215.o ABSOLUTE
    [Anonymous Symbol]                       0x00000000   Number         0  Radio_Utility{000a0001}-72.o ABSOLUTE
    [Anonymous Symbol]                       0x00000000   Number         0  QtMultimediaKit{00010103}-563.o ABSOLUTE
    [Anonymous Symbol]                       0x00000000   Number         0  QtMultimediaKit{00010103}-222.o ABSOLUTE
    [Anonymous Symbol]                       0x00000000   Number         0  Radio_Utility{000a0001}-77.o ABSOLUTE
    [Anonymous Symbol]                       0x00000000   Number         0  QtMultimediaKit{00010103}-578.o ABSOLUTE
    [Anonymous Symbol]                       0x00000000   Number         0  QtMultimediaKit{00010103}-224.o ABSOLUTE
    [Anonymous Symbol]                       0x00000000   Number         0  Radio_Utility{000a0001}-78.o ABSOLUTE
    [Anonymous Symbol]                       0x00000000   Number         0  QtMultimediaKit{00010103}-579.o ABSOLUTE
    [Anonymous Symbol]                       0x00000000   Number         0  QtMultimediaKit{00010103}-236.o ABSOLUTE
    [Anonymous Symbol]                       0x00000000   Number         0  Radio_Utility{000a0001}-79.o ABSOLUTE
    [Anonymous Symbol]                       0x00000000   Number         0  QtMultimediaKit{00010103}-580.o ABSOLUTE
    [Anonymous Symbol]                       0x00000000   Number         0  QtMultimediaKit{00010103}-237.o ABSOLUTE
    [Anonymous Symbol]                       0x00000000   Number         0  Radio_Utility{000a0001}-8.o ABSOLUTE
    [Anonymous Symbol]                       0x00000000   Number         0  QtMultimediaKit{00010103}-584.o ABSOLUTE
    [Anonymous Symbol]                       0x00000000   Number         0  QtMultimediaKit{00010103}-240.o ABSOLUTE
    [Anonymous Symbol]                       0x00000000   Number         0  libstdcpp{00010000}-988.o ABSOLUTE
    [Anonymous Symbol]                       0x00000000   Number         0  QtMultimediaKit{00010103}-587.o ABSOLUTE
    [Anonymous Symbol]                       0x00000000   Number         0  QtCore{00040703}-2034.o ABSOLUTE
    [Anonymous Symbol]                       0x00000000   Number         0  libstdcpp{00010000}-992.o ABSOLUTE
    [Anonymous Symbol]                       0x00000000   Number         0  QtMultimediaKit{00010103}-596.o ABSOLUTE
    [Anonymous Symbol]                       0x00000000   Number         0  QtCore{00040703}-2037.o ABSOLUTE
    [Anonymous Symbol]                       0x00000000   Number         0  QtGui{00040703}-10072.o ABSOLUTE
    [Anonymous Symbol]                       0x00000000   Number         0  QtMultimediaKit{00010103}-597.o ABSOLUTE
    [Anonymous Symbol]                       0x00000000   Number         0  QtCore{00040703}-2038.o ABSOLUTE
    [Anonymous Symbol]                       0x00000000   Number         0  QtGui{00040703}-10076.o ABSOLUTE
    [Anonymous Symbol]                       0x00000000   Number         0  QtMultimediaKit{00010103}-606.o ABSOLUTE
    [Anonymous Symbol]                       0x00000000   Number         0  QtCore{00040703}-2040.o ABSOLUTE
    [Anonymous Symbol]                       0x00000000   Number         0  QtGui{00040703}-10094.o ABSOLUTE
    [Anonymous Symbol]                       0x00000000   Number         0  QtMultimediaKit{00010103}-610.o ABSOLUTE
    [Anonymous Symbol]                       0x00000000   Number         0  QtCore{00040703}-2082.o ABSOLUTE
    [Anonymous Symbol]                       0x00000000   Number         0  QtGui{00040703}-10098.o ABSOLUTE
    [Anonymous Symbol]                       0x00000000   Number         0  QtMultimediaKit{00010103}-613.o ABSOLUTE
    [Anonymous Symbol]                       0x00000000   Number         0  QtCore{00040703}-2084.o ABSOLUTE
    [Anonymous Symbol]                       0x00000000   Number         0  QtGui{00040703}-10106.o ABSOLUTE
    [Anonymous Symbol]                       0x00000000   Number         0  QtMultimediaKit{00010103}-614.o ABSOLUTE
    [Anonymous Symbol]                       0x00000000   Number         0  QtCore{00040703}-2134.o ABSOLUTE
    [Anonymous Symbol]                       0x00000000   Number         0  QtGui{00040703}-10108.o ABSOLUTE
    [Anonymous Symbol]                       0x00000000   Number         0  QtMultimediaKit{00010103}-616.o ABSOLUTE
    [Anonymous Symbol]                       0x00000000   Number         0  QtCore{00040703}-2141.o ABSOLUTE
    [Anonymous Symbol]                       0x00000000   Number         0  QtGui{00040703}-10120.o ABSOLUTE
    [Anonymous Symbol]                       0x00000000   Number         0  QtMultimediaKit{00010103}-617.o ABSOLUTE
    [Anonymous Symbol]                       0x00000000   Number         0  QtCore{00040703}-2143.o ABSOLUTE
    [Anonymous Symbol]                       0x00000000   Number         0  QtGui{00040703}-10124.o ABSOLUTE
    [Anonymous Symbol]                       0x00000000   Number         0  QtMultimediaKit{00010103}-618.o ABSOLUTE
    [Anonymous Symbol]                       0x00000000   Number         0  QtCore{00040703}-2188.o ABSOLUTE
    [Anonymous Symbol]                       0x00000000   Number         0  QtGui{00040703}-10129.o ABSOLUTE
    [Anonymous Symbol]                       0x00000000   Number         0  QtMultimediaKit{00010103}-621.o ABSOLUTE
    [Anonymous Symbol]                       0x00000000   Number         0  QtCore{00040703}-2193.o ABSOLUTE
    [Anonymous Symbol]                       0x00000000   Number         0  QtGui{00040703}-10133.o ABSOLUTE
    [Anonymous Symbol]                       0x00000000   Number         0  QtMultimediaKit{00010103}-623.o ABSOLUTE
    [Anonymous Symbol]                       0x00000000   Number         0  QtCore{00040703}-2197.o ABSOLUTE
    [Anonymous Symbol]                       0x00000000   Number         0  QtGui{00040703}-10139.o ABSOLUTE
    [Anonymous Symbol]                       0x00000000   Number         0  QtMultimediaKit{00010103}-647.o ABSOLUTE
    [Anonymous Symbol]                       0x00000000   Number         0  QtCore{00040703}-2318.o ABSOLUTE
    [Anonymous Symbol]                       0x00000000   Number         0  cone{000a0000}-287.o ABSOLUTE
    [Anonymous Symbol]                       0x00000000   Number         0  QtMultimediaKit{00010103}-648.o ABSOLUTE
    [Anonymous Symbol]                       0x00000000   Number         0  QtMultimediaKit{00010103}-440.o ABSOLUTE
    [Anonymous Symbol]                       0x00000000   Number         0  QtMultimediaKit{00010103}-73.o ABSOLUTE
    [Anonymous Symbol]                       0x00000000   Number         0  QtMultimediaKit{00010103}-650.o ABSOLUTE
    [Anonymous Symbol]                       0x00000000   Number         0  QtMultimediaKit{00010103}-442.o ABSOLUTE
    [Anonymous Symbol]                       0x00000000   Number         0  QtMultimediaKit{00010103}-741.o ABSOLUTE
    [Anonymous Symbol]                       0x00000000   Number         0  QtMultimediaKit{00010103}-655.o ABSOLUTE
    [Anonymous Symbol]                       0x00000000   Number         0  QtMultimediaKit{00010103}-445.o ABSOLUTE
    [Anonymous Symbol]                       0x00000000   Number         0  QtMultimediaKit{00010103}-742.o ABSOLUTE
    [Anonymous Symbol]                       0x00000000   Number         0  QtMultimediaKit{00010103}-658.o ABSOLUTE
    [Anonymous Symbol]                       0x00000000   Number         0  QtMultimediaKit{00010103}-466.o ABSOLUTE
    [Anonymous Symbol]                       0x00000000   Number         0  QtMultimediaKit{00010103}-747.o ABSOLUTE
    [Anonymous Symbol]                       0x00000000   Number         0  QtMultimediaKit{00010103}-687.o ABSOLUTE
    [Anonymous Symbol]                       0x00000000   Number         0  QtMultimediaKit{00010103}-467.o ABSOLUTE
    [Anonymous Symbol]                       0x00000000   Number         0  QtMultimediaKit{00010103}-75.o ABSOLUTE
    [Anonymous Symbol]                       0x00000000   Number         0  QtMultimediaKit{00010103}-688.o ABSOLUTE
    [Anonymous Symbol]                       0x00000000   Number         0  QtMultimediaKit{00010103}-468.o ABSOLUTE
    [Anonymous Symbol]                       0x00000000   Number         0  QtMultimediaKit{00010103}-750.o ABSOLUTE
    [Anonymous Symbol]                       0x00000000   Number         0  QtMultimediaKit{00010103}-691.o ABSOLUTE
    [Anonymous Symbol]                       0x00000000   Number         0  QtMultimediaKit{00010103}-470.o ABSOLUTE
    [Anonymous Symbol]                       0x00000000   Number         0  QtMultimediaKit{00010103}-76.o ABSOLUTE
    [Anonymous Symbol]                       0x00000000   Number         0  QtMultimediaKit{00010103}-693.o ABSOLUTE
    [Anonymous Symbol]                       0x00000000   Number         0  euser{000a0000}-202.o ABSOLUTE
    [Anonymous Symbol]                       0x00000000   Number         0  QtMultimediaKit{00010103}-78.o ABSOLUTE
    [Anonymous Symbol]                       0x00000000   Number         0  QtMultimediaKit{00010103}-696.o ABSOLUTE
    [Anonymous Symbol]                       0x00000000   Number         0  euser{000a0000}-203.o ABSOLUTE
    [Anonymous Symbol]                       0x00000000   Number         0  QtMultimediaKit{00010103}-79.o ABSOLUTE
    [Anonymous Symbol]                       0x00000000   Number         0  QtMultimediaKit{00010103}-697.o ABSOLUTE
    [Anonymous Symbol]                       0x00000000   Number         0  euser{000a0000}-2060.o ABSOLUTE
    [Anonymous Symbol]                       0x00000000   Number         0  QtMultimediaKit{00010103}-80.o ABSOLUTE
    [Anonymous Symbol]                       0x00000000   Number         0  QtMultimediaKit{00010103}-698.o ABSOLUTE
    [Anonymous Symbol]                       0x00000000   Number         0  dfpaeabi{000a0000}-19.o ABSOLUTE
    [Anonymous Symbol]                       0x00000000   Number         0  QtMultimediaKit{00010103}-826.o ABSOLUTE
    [Anonymous Symbol]                       0x00000000   Number         0  QtMultimediaKit{00010103}-701.o ABSOLUTE
    [Anonymous Symbol]                       0x00000000   Number         0  dfpaeabi{000a0000}-20.o ABSOLUTE
    [Anonymous Symbol]                       0x00000000   Number         0  QtMultimediaKit{00010103}-827.o ABSOLUTE
    [Anonymous Symbol]                       0x00000000   Number         0  QtMultimediaKit{00010103}-704.o ABSOLUTE
    [Anonymous Symbol]                       0x00000000   Number         0  dfpaeabi{000a0000}-24.o ABSOLUTE
    [Anonymous Symbol]                       0x00000000   Number         0  QtMultimediaKit{00010103}-83.o ABSOLUTE
    [Anonymous Symbol]                       0x00000000   Number         0  QtMultimediaKit{00010103}-71.o ABSOLUTE
    [Anonymous Symbol]                       0x00000000   Number         0  dfpaeabi{000a0000}-25.o ABSOLUTE
    [Anonymous Symbol]                       0x00000000   Number         0  euser{000a0000}-1590.o ABSOLUTE
    [Anonymous Symbol]                       0x00000000   Number         0  drtaeabi{000a0000}-158.o ABSOLUTE
    [Anonymous Symbol]                       0x00000000   Number         0  dfpaeabi{000a0000}-36.o ABSOLUTE
    [Anonymous Symbol]                       0x00000000   Number         0  euser{000a0000}-1593.o ABSOLUTE
    [Anonymous Symbol]                       0x00000000   Number         0  drtaeabi{000a0000}-180.o ABSOLUTE
    [Anonymous Symbol]                       0x00000000   Number         0  dfpaeabi{000a0000}-37.o ABSOLUTE
    [Anonymous Symbol]                       0x00000000   Number         0  euser{000a0000}-1649.o ABSOLUTE
    [Anonymous Symbol]                       0x00000000   Number         0  drtaeabi{000a0000}-183.o ABSOLUTE
    [Anonymous Symbol]                       0x00000000   Number         0  dfpaeabi{000a0000}-4.o ABSOLUTE
    [Anonymous Symbol]                       0x00000000   Number         0  euser{000a0000}-1651.o ABSOLUTE
    [Anonymous Symbol]                       0x00000000   Number         0  drtaeabi{000a0000}-184.o ABSOLUTE
    [Anonymous Symbol]                       0x00000000   Number         0  dfpaeabi{000a0000}-40.o ABSOLUTE
    [Anonymous Symbol]                       0x00000000   Number         0  euser{000a0000}-1719.o ABSOLUTE
    [Anonymous Symbol]                       0x00000000   Number         0  drtaeabi{000a0000}-186.o ABSOLUTE
    [Anonymous Symbol]                       0x00000000   Number         0  dfpaeabi{000a0000}-41.o ABSOLUTE
    [Anonymous Symbol]                       0x00000000   Number         0  euser{000a0000}-1807.o ABSOLUTE
    [Anonymous Symbol]                       0x00000000   Number         0  drtaeabi{000a0000}-187.o ABSOLUTE
    [Anonymous Symbol]                       0x00000000   Number         0  dfpaeabi{000a0000}-42.o ABSOLUTE
    [Anonymous Symbol]                       0x00000000   Number         0  euser{000a0000}-1822.o ABSOLUTE
    [Anonymous Symbol]                       0x00000000   Number         0  drtaeabi{000a0000}-188.o ABSOLUTE
    [Anonymous Symbol]                       0x00000000   Number         0  dfpaeabi{000a0000}-5.o ABSOLUTE
    [Anonymous Symbol]                       0x00000000   Number         0  QtMultimediaKit{00010103}-882.o ABSOLUTE
    [Anonymous Symbol]                       0x00000000   Number         0  drtaeabi{000a0000}-189.o ABSOLUTE
    [Anonymous Symbol]                       0x00000000   Number         0  dfpaeabi{000a0000}-6.o ABSOLUTE
    [Anonymous Symbol]                       0x00000000   Number         0  QtMultimediaKit{00010103}-935.o ABSOLUTE
    [Anonymous Symbol]                       0x00000000   Number         0  drtaeabi{000a0000}-190.o ABSOLUTE
    [Anonymous Symbol]                       0x00000000   Number         0  dfpaeabi{000a0000}-8.o ABSOLUTE
    [Anonymous Symbol]                       0x00000000   Number         0  QtMultimediaKit{00010103}-938.o ABSOLUTE
    [Anonymous Symbol]                       0x00000000   Number         0  drtrvct2_2{000a0000}-28.o ABSOLUTE
    [Anonymous Symbol]                       0x00000000   Number         0  drtaeabi{000a0000}-135.o ABSOLUTE
    [Anonymous Symbol]                       0x00000000   Number         0  euser{000a0000}-2061.o ABSOLUTE
    [Anonymous Symbol]                       0x00000000   Number         0  drtrvct2_2{000a0000}-51.o ABSOLUTE
    [Anonymous Symbol]                       0x00000000   Number         0  drtaeabi{000a0000}-139.o ABSOLUTE
    [Anonymous Symbol]                       0x00000000   Number         0  euser{000a0000}-207.o ABSOLUTE
    [Anonymous Symbol]                       0x00000000   Number         0  drtrvct2_2{000a0000}-56.o ABSOLUTE
    [Anonymous Symbol]                       0x00000000   Number         0  drtaeabi{000a0000}-147.o ABSOLUTE
    [Anonymous Symbol]                       0x00000000   Number         0  euser{000a0000}-2082.o ABSOLUTE
    [Anonymous Symbol]                       0x00000000   Number         0  drtrvct2_2{000a0000}-57.o ABSOLUTE
    [Anonymous Symbol]                       0x00000000   Number         0  drtaeabi{000a0000}-155.o ABSOLUTE
    [Anonymous Symbol]                       0x00000000   Number         0  euser{000a0000}-2106.o ABSOLUTE
    [Anonymous Symbol]                       0x00000000   Number         0  QtMultimediaKit{00010103}-85.o ABSOLUTE
    [Anonymous Symbol]                       0x00000000   Number         0  QtMultimediaKit{00010103}-429.o ABSOLUTE
    [Anonymous Symbol]                       0x00000000   Number         0  QtMultimediaKit{00010103}-244.o ABSOLUTE
    [Anonymous Symbol]                       0x00000000   Number         0  QtMultimediaKit{00010103}-874.o ABSOLUTE
    [Anonymous Symbol]                       0x00000000   Number         0  euser{000a0000}-2123.o ABSOLUTE
    [Anonymous Symbol]                       0x00000000   Number         0  QtMultimediaKit{00010103}-328.o ABSOLUTE
    [Anonymous Symbol]                       0x00000000   Number         0  QtMultimediaKit{00010103}-875.o ABSOLUTE
    [Anonymous Symbol]                       0x00000000   Number         0  QtMultimediaKit{00010103}-431.o ABSOLUTE
    [Anonymous Symbol]                       0x00000000   Number         0  QtMultimediaKit{00010103}-336.o ABSOLUTE
    [Anonymous Symbol]                       0x00000000   Number         0  QtMultimediaKit{00010103}-876.o ABSOLUTE
    [Anonymous Symbol]                       0x00000000   Number         0  QtMultimediaKit{00010103}-432.o ABSOLUTE
    [Anonymous Symbol]                       0x00000000   Number         0  QtMultimediaKit{00010103}-342.o ABSOLUTE
    [Anonymous Symbol]                       0x00000000   Number         0  QtMultimediaKit{00010103}-878.o ABSOLUTE
    [Anonymous Symbol]                       0x00000000   Number         0  QtMultimediaKit{00010103}-433.o ABSOLUTE
    [Anonymous Symbol]                       0x00000000   Number         0  QtMultimediaKit{00010103}-881.o ABSOLUTE
    [Anonymous Symbol]                       0x00000000   Number         0  QtMultimediaKit{00010103}-880.o ABSOLUTE
    [Anonymous Symbol]                       0x00000000   Number         0  QtMultimediaKit{00010103}-434.o ABSOLUTE
    [Anonymous Symbol]                       0x00000000   Number         0  QtMultimediaKit{00010103}-430.o ABSOLUTE
    [Anonymous Symbol]                       0x00000000   Number         0  QtMultimediaKit{00010103}-436.o ABSOLUTE
    [Anonymous Symbol]                       0x00000000   Number         0  QtMultimediaKit{00010103}-435.o ABSOLUTE
    [Anonymous Symbol]                       0x00000000   Number         0  cone{000a0000}-182.o ABSOLUTE
    [Anonymous Symbol]                       0x00000000   Number         0  QtMultimediaKit{00010103}-439.o ABSOLUTE
    [Anonymous Symbol]                       0x00000000   Number         0  QtMultimediaKit{00010103}-940.o ABSOLUTE
    [Anonymous Symbol]                       0x00000000   Number         0  cone{000a0000}-262.o ABSOLUTE
    [Anonymous Symbol]                       0x00000000   Number         0  euser{000a0000}-2125.o ABSOLUTE
    ..\..\..\..\EPOC32\BUILD\s60\osext\mobileruntime\group\LIBSTDCPP\ARMV5\VtblExports.s 0x00000000   Number         0  VtblExports.o ABSOLUTE
    \EPOC32\BUILD\s60\mw\mmenhs\group\RADIO_UTILITY\ARMV5\VtblExports.s 0x00000000   Number         0  VtblExports.o ABSOLUTE
    \EPOC32\BUILD\src\cedar\generic\base\e32\compsupp\DRTAEABI\ARMV5\VtblExports.s 0x00000000   Number         0  VtblExports.o ABSOLUTE
    \EPOC32\BUILD\src\cedar\generic\base\e32\euser\EDLL\ARMV5\urel\uc_dll_.cpp 0x00000000   Number         0  uc_dll_.o ABSOLUTE
    \EPOC32\BUILD\src\cedar\generic\base\e32\euser\EUSER\ARMV5\VtblExports.s 0x00000000   Number         0  VtblExports.o ABSOLUTE
    \EPOC32\BUILD\src\cedar\generic\base\f32\group\EFSRV\ARMV5\VtblExports.s 0x00000000   Number         0  VtblExports.o ABSOLUTE
    \EPOC32\BUILD\src\common\generic\app-framework\apparc\group\APGRFX\ARMV5\VtblExports.s 0x00000000   Number         0  VtblExports.o ABSOLUTE
    \EPOC32\BUILD\src\common\generic\app-framework\cone\group\CONE\ARMV5\VtblExports.s 0x00000000   Number         0  VtblExports.o ABSOLUTE
    \EPOC32\BUILD\src\common\generic\app-framework\emime\group\APMIME\ARMV5\VtblExports.s 0x00000000   Number         0  VtblExports.o ABSOLUTE
    \EPOC32\BUILD\src\common\generic\graphics\bitgdi\group\BITGDILIB\ARMV5\VtblExports.s 0x00000000   Number         0  VtblExports.o ABSOLUTE
    \EPOC32\BUILD\src\common\generic\graphics\fbserv\group\FBSCLI\ARMV5\VtblExports.s 0x00000000   Number         0  VtblExports.o ABSOLUTE
    \EPOC32\BUILD\src\common\generic\graphics\wserv\group\WS32LIB\ARMV5\VtblExports.s 0x00000000   Number         0  VtblExports.o ABSOLUTE
    \EPOC32\BUILD\src\common\generic\multimedia\mmf\group\MEDIACLIENTAUDIO\ARMV5\VtblExports.s 0x00000000   Number         0  VtblExports.o ABSOLUTE
    \EPOC32\BUILD\src\common\generic\multimedia\mmf\group\MEDIACLIENTVIDEO\ARMV5\VtblExports.s 0x00000000   Number         0  VtblExports.o ABSOLUTE
    \EPOC32\BUILD\src\common\generic\multimedia\mmf\group\MMFCONTROLLERFRAMEWORK\ARMV5\VtblExports.s 0x00000000   Number         0  VtblExports.o ABSOLUTE
    \EPOC32\BUILD\src\common\generic\syslibs\bafl\group\BAFL\ARMV5\VtblExports.s 0x00000000   Number         0  VtblExports.o ABSOLUTE
    \EPOC32\BUILD\wk29\stdlibs\group\LIBC\ARMV5\VtblExports.s 0x00000000   Number         0  VtblExports.o ABSOLUTE
    \EPOC32\BUILD\wk29\stdlibs\group\LIBDL\ARMV5\VtblExports.s 0x00000000   Number         0  VtblExports.o ABSOLUTE
    \EPOC32\BUILD\wk29\stdlibs\group\LIBM\ARMV5\VtblExports.s 0x00000000   Number         0  VtblExports.o ABSOLUTE
    \EPOC32\BUILD\wk29\stdlibs\group\LIBPTHREAD\ARMV5\VtblExports.s 0x00000000   Number         0  VtblExports.o ABSOLUTE
    \\EPOC32\\BUILD\\src\\cedar\\generic\\base\\e32\\euser\\EDLL\\ARMV5\\urel\\uc_dll_.cpp 0x00000000   Number         0  uc_dll_.o ABSOLUTE
    \\src\\cedar\\generic\\base\\e32\\compsupp\\RVCT2_2\\ucppinit_aeabi.cpp 0x00000000   Number         0  ucppinit_aeabi.o ABSOLUTE
    \dev\symb\SDKs\32\EPOC32\BUILD\iwmake\buildS60____PADDING________\src\QTCORE_DLL\ARMV6\VtblExports.s 0x00000000   Number         0  VtblExports.o ABSOLUTE
    \dev\symb\SDKs\32\EPOC32\BUILD\iwmake\buildS60____PADDING________\src\QTGUI_DLL\ARMV6\VtblExports.s 0x00000000   Number         0  VtblExports.o ABSOLUTE
    \s60\5.0\EPOC32\BUILD\scripts\5.0\qtmobility\QTMULTIMEDIAKIT_DLL\ARMV5\VtblExports.s 0x00000000   Number         0  VtblExports.o ABSOLUTE
    \s60\5.0\EPOC32\BUILD\scripts\5.0\qtmobility\QTMULTIMEDIAKIT_MMFENGINE_DLL\ARMV5\urel\qtmultimediakit_mmfengine{000a0000}.s 0x00000000   Number         0  qtmultimediakit_mmfengine{000a0000}.exp ABSOLUTE
    \scripts\5.0\qtmobility\build\Release\qtmultimediakit_mmfengine\moc\moc_s60audiocaptureservice.cpp 0x00000000   Number         0  qtmultimediakit_mmfengine.in ABSOLUTE
    \scripts\5.0\qtmobility\build\Release\qtmultimediakit_mmfengine\moc\moc_s60audiocapturesession.cpp 0x00000000   Number         0  qtmultimediakit_mmfengine.in ABSOLUTE
    \scripts\5.0\qtmobility\build\Release\qtmultimediakit_mmfengine\moc\moc_s60audiocontainercontrol.cpp 0x00000000   Number         0  qtmultimediakit_mmfengine.in ABSOLUTE
    \scripts\5.0\qtmobility\build\Release\qtmultimediakit_mmfengine\moc\moc_s60audioencodercontrol.cpp 0x00000000   Number         0  qtmultimediakit_mmfengine.in ABSOLUTE
    \scripts\5.0\qtmobility\build\Release\qtmultimediakit_mmfengine\moc\moc_s60audioendpointselector.cpp 0x00000000   Number         0  qtmultimediakit_mmfengine.in ABSOLUTE
    \scripts\5.0\qtmobility\build\Release\qtmultimediakit_mmfengine\moc\moc_s60audiomediarecordercontrol.cpp 0x00000000   Number         0  qtmultimediakit_mmfengine.in ABSOLUTE
    \scripts\5.0\qtmobility\build\Release\qtmultimediakit_mmfengine\moc\moc_s60audioplayersession.cpp 0x00000000   Number         0  qtmultimediakit_mmfengine.in ABSOLUTE
    \scripts\5.0\qtmobility\build\Release\qtmultimediakit_mmfengine\moc\moc_s60mediametadataprovider.cpp 0x00000000   Number         0  qtmultimediakit_mmfengine.in ABSOLUTE
    \scripts\5.0\qtmobility\build\Release\qtmultimediakit_mmfengine\moc\moc_s60mediaplayeraudioendpointselector.cpp 0x00000000   Number         0  qtmultimediakit_mmfengine.in ABSOLUTE
    \scripts\5.0\qtmobility\build\Release\qtmultimediakit_mmfengine\moc\moc_s60mediaplayercontrol.cpp 0x00000000   Number         0  qtmultimediakit_mmfengine.in ABSOLUTE
    \scripts\5.0\qtmobility\build\Release\qtmultimediakit_mmfengine\moc\moc_s60mediaplayerservice.cpp 0x00000000   Number         0  qtmultimediakit_mmfengine.in ABSOLUTE
    \scripts\5.0\qtmobility\build\Release\qtmultimediakit_mmfengine\moc\moc_s60mediaplayersession.cpp 0x00000000   Number         0  qtmultimediakit_mmfengine.in ABSOLUTE
    \scripts\5.0\qtmobility\build\Release\qtmultimediakit_mmfengine\moc\moc_s60mediarecognizer.cpp 0x00000000   Number         0  qtmultimediakit_mmfengine.in ABSOLUTE
    \scripts\5.0\qtmobility\build\Release\qtmultimediakit_mmfengine\moc\moc_s60mediaserviceplugin.cpp 0x00000000   Number         0  qtmultimediakit_mmfengine.in ABSOLUTE
    \scripts\5.0\qtmobility\build\Release\qtmultimediakit_mmfengine\moc\moc_s60mediastreamcontrol.cpp 0x00000000   Number         0  qtmultimediakit_mmfengine.in ABSOLUTE
    \scripts\5.0\qtmobility\build\Release\qtmultimediakit_mmfengine\moc\moc_s60radiotunercontrol_since32.cpp 0x00000000   Number         0  qtmultimediakit_mmfengine.in ABSOLUTE
    \scripts\5.0\qtmobility\build\Release\qtmultimediakit_mmfengine\moc\moc_s60radiotunerservice.cpp 0x00000000   Number         0  qtmultimediakit_mmfengine.in ABSOLUTE
    \scripts\5.0\qtmobility\build\Release\qtmultimediakit_mmfengine\moc\moc_s60videodisplay.cpp 0x00000000   Number         0  qtmultimediakit_mmfengine.in ABSOLUTE
    \scripts\5.0\qtmobility\build\Release\qtmultimediakit_mmfengine\moc\moc_s60videoplayersession.cpp 0x00000000   Number         0  qtmultimediakit_mmfengine.in ABSOLUTE
    \scripts\5.0\qtmobility\build\Release\qtmultimediakit_mmfengine\moc\moc_s60videosurface.cpp 0x00000000   Number         0  qtmultimediakit_mmfengine.in ABSOLUTE
    \scripts\5.0\qtmobility\build\Release\qtmultimediakit_mmfengine\moc\moc_s60videowidget.cpp 0x00000000   Number         0  qtmultimediakit_mmfengine.in ABSOLUTE
    \scripts\5.0\qtmobility\build\Release\qtmultimediakit_mmfengine\moc\moc_s60videowidgetcontrol.cpp 0x00000000   Number         0  qtmultimediakit_mmfengine.in ABSOLUTE
    \scripts\5.0\qtmobility\build\Release\qtmultimediakit_mmfengine\moc\moc_s60videowidgetdisplay.cpp 0x00000000   Number         0  qtmultimediakit_mmfengine.in ABSOLUTE
    \scripts\5.0\qtmobility\build\Release\qtmultimediakit_mmfengine\moc\moc_s60videowindowcontrol.cpp 0x00000000   Number         0  qtmultimediakit_mmfengine.in ABSOLUTE
    \scripts\5.0\qtmobility\plugins\multimedia\symbian\mmf\audiosource\s60audiocaptureservice.cpp 0x00000000   Number         0  qtmultimediakit_mmfengine.in ABSOLUTE
    \scripts\5.0\qtmobility\plugins\multimedia\symbian\mmf\audiosource\s60audiocapturesession.cpp 0x00000000   Number         0  qtmultimediakit_mmfengine.in ABSOLUTE
    \scripts\5.0\qtmobility\plugins\multimedia\symbian\mmf\audiosource\s60audiocontainercontrol.cpp 0x00000000   Number         0  qtmultimediakit_mmfengine.in ABSOLUTE
    \scripts\5.0\qtmobility\plugins\multimedia\symbian\mmf\audiosource\s60audioencodercontrol.cpp 0x00000000   Number         0  qtmultimediakit_mmfengine.in ABSOLUTE
    \scripts\5.0\qtmobility\plugins\multimedia\symbian\mmf\audiosource\s60audioendpointselector.cpp 0x00000000   Number         0  qtmultimediakit_mmfengine.in ABSOLUTE
    \scripts\5.0\qtmobility\plugins\multimedia\symbian\mmf\audiosource\s60audiomediarecordercontrol.cpp 0x00000000   Number         0  qtmultimediakit_mmfengine.in ABSOLUTE
    \scripts\5.0\qtmobility\plugins\multimedia\symbian\mmf\mediaplayer\s60audioplayersession.cpp 0x00000000   Number         0  qtmultimediakit_mmfengine.in ABSOLUTE
    \scripts\5.0\qtmobility\plugins\multimedia\symbian\mmf\mediaplayer\s60mediametadataprovider.cpp 0x00000000   Number         0  qtmultimediakit_mmfengine.in ABSOLUTE
    \scripts\5.0\qtmobility\plugins\multimedia\symbian\mmf\mediaplayer\s60mediaplayeraudioendpointselector.cpp 0x00000000   Number         0  qtmultimediakit_mmfengine.in ABSOLUTE
    \scripts\5.0\qtmobility\plugins\multimedia\symbian\mmf\mediaplayer\s60mediaplayercontrol.cpp 0x00000000   Number         0  qtmultimediakit_mmfengine.in ABSOLUTE
    \scripts\5.0\qtmobility\plugins\multimedia\symbian\mmf\mediaplayer\s60mediaplayerservice.cpp 0x00000000   Number         0  qtmultimediakit_mmfengine.in ABSOLUTE
    \scripts\5.0\qtmobility\plugins\multimedia\symbian\mmf\mediaplayer\s60mediaplayersession.cpp 0x00000000   Number         0  qtmultimediakit_mmfengine.in ABSOLUTE
    \scripts\5.0\qtmobility\plugins\multimedia\symbian\mmf\mediaplayer\s60mediarecognizer.cpp 0x00000000   Number         0  qtmultimediakit_mmfengine.in ABSOLUTE
    \scripts\5.0\qtmobility\plugins\multimedia\symbian\mmf\mediaplayer\s60mediastreamcontrol.cpp 0x00000000   Number         0  qtmultimediakit_mmfengine.in ABSOLUTE
    \scripts\5.0\qtmobility\plugins\multimedia\symbian\mmf\mediaplayer\s60videoplayersession.cpp 0x00000000   Number         0  qtmultimediakit_mmfengine.in ABSOLUTE
    \scripts\5.0\qtmobility\plugins\multimedia\symbian\mmf\mediaplayer\s60videosurface.cpp 0x00000000   Number         0  qtmultimediakit_mmfengine.in ABSOLUTE
    \scripts\5.0\qtmobility\plugins\multimedia\symbian\mmf\radio\s60radiotunercontrol_since32.cpp 0x00000000   Number         0  qtmultimediakit_mmfengine.in ABSOLUTE
    \scripts\5.0\qtmobility\plugins\multimedia\symbian\mmf\radio\s60radiotunerservice.cpp 0x00000000   Number         0  qtmultimediakit_mmfengine.in ABSOLUTE
    \scripts\5.0\qtmobility\plugins\multimedia\symbian\mmf\s60formatsupported.cpp 0x00000000   Number         0  qtmultimediakit_mmfengine.in ABSOLUTE
    \scripts\5.0\qtmobility\plugins\multimedia\symbian\mmf\s60mediaserviceplugin.cpp 0x00000000   Number         0  qtmultimediakit_mmfengine.in ABSOLUTE
    \scripts\5.0\qtmobility\plugins\multimedia\symbian\videooutput\s60videodisplay.cpp 0x00000000   Number         0  qtmultimediakit_mmfengine.in ABSOLUTE
    \scripts\5.0\qtmobility\plugins\multimedia\symbian\videooutput\s60videowidget.cpp 0x00000000   Number         0  qtmultimediakit_mmfengine.in ABSOLUTE
    \scripts\5.0\qtmobility\plugins\multimedia\symbian\videooutput\s60videowidgetcontrol.cpp 0x00000000   Number         0  qtmultimediakit_mmfengine.in ABSOLUTE
    \scripts\5.0\qtmobility\plugins\multimedia\symbian\videooutput\s60videowidgetdisplay.cpp 0x00000000   Number         0  qtmultimediakit_mmfengine.in ABSOLUTE
    \scripts\5.0\qtmobility\plugins\multimedia\symbian\videooutput\s60videowindowcontrol.cpp 0x00000000   Number         0  qtmultimediakit_mmfengine.in ABSOLUTE
    \scripts\5.0\qtmobility\plugins\multimedia\symbian\videooutput\s60videowindowdisplay.cpp 0x00000000   Number         0  qtmultimediakit_mmfengine.in ABSOLUTE
    \src\cedar\generic\base\e32\compsupp\RVCT2_2\ucppfini.cpp 0x00000000   Number         0  ucppfini.o ABSOLUTE
    \src\cedar\generic\base\e32\compsupp\RVCT2_2\ucppinit_aeabi.cpp 0x00000000   Number         0  ucppinit_aeabi.o ABSOLUTE
    \src\cedar\generic\base\e32\euser\epoc\arm\uc_dll.cpp 0x00000000   Number         0  uc_dll.o ABSOLUTE
    .emb_text                                0x00008000   Section       40  uc_dll_.o(.emb_text)
    .emb_text                                0x00008028   Section       72  ucppinit_aeabi.o(.emb_text)
    skip                                     0x0000803c   ARM Code       0  ucppinit_aeabi.o(.emb_text)
    loop                                     0x0000804c   ARM Code       0  ucppinit_aeabi.o(.emb_text)
    fpinit                                   0x00008064   Data           0  ucppinit_aeabi.o(.emb_text)
    base                                     0x00008068   Data           0  ucppinit_aeabi.o(.emb_text)
    limit                                    0x0000806c   Data           0  ucppinit_aeabi.o(.emb_text)
    .text                                    0x00008070   Section      540  qtmultimediakit_mmfengine.in(.text)
    .text                                    0x0000828c   Section      224  qtmultimediakit_mmfengine.in(.text)
    .text                                    0x0000836c   Section      248  qtmultimediakit_mmfengine.in(.text)
    .text                                    0x00008464   Section       68  qtmultimediakit_mmfengine.in(.text)
    .text                                    0x000084a8   Section       96  qtmultimediakit_mmfengine.in(.text)
    .text                                    0x00008508   Section       68  qtmultimediakit_mmfengine.in(.text)
    .text                                    0x0000854c   Section      112  qtmultimediakit_mmfengine.in(.text)
    .text                                    0x000085bc   Section      752  qtmultimediakit_mmfengine.in(.text)
    .text                                    0x000088ac   Section       68  qtmultimediakit_mmfengine.in(.text)
    .text                                    0x000088f0   Section      284  qtmultimediakit_mmfengine.in(.text)
    .text                                    0x00008a0c   Section       68  qtmultimediakit_mmfengine.in(.text)
    .text                                    0x00008a50   Section       68  qtmultimediakit_mmfengine.in(.text)
    .text                                    0x00008a94   Section      188  qtmultimediakit_mmfengine.in(.text)
    .text                                    0x00008b50   Section      100  qtmultimediakit_mmfengine.in(.text)
    .text                                    0x00008bb4   Section       96  qtmultimediakit_mmfengine.in(.text)
    .text                                    0x00008c14   Section      224  qtmultimediakit_mmfengine.in(.text)
    .text                                    0x00008cf4   Section       68  qtmultimediakit_mmfengine.in(.text)
    .text                                    0x00008d38   Section       68  qtmultimediakit_mmfengine.in(.text)
    .text                                    0x00008d7c   Section      148  qtmultimediakit_mmfengine.in(.text)
    .text                                    0x00008e10   Section      100  qtmultimediakit_mmfengine.in(.text)
    .text                                    0x00008e74   Section       68  qtmultimediakit_mmfengine.in(.text)
    .text                                    0x00008eb8   Section      380  qtmultimediakit_mmfengine.in(.text)
    .text                                    0x00009034   Section       68  qtmultimediakit_mmfengine.in(.text)
    .text                                    0x00009078   Section      196  qtmultimediakit_mmfengine.in(.text)
    .text                                    0x0000913c   Section      616  qtmultimediakit_mmfengine.in(.text)
    .text                                    0x000093a4   Section      592  qtmultimediakit_mmfengine.in(.text)
    .text                                    0x000095f4   Section     1220  qtmultimediakit_mmfengine.in(.text)
    |L1.1048|                                0x00009a0c   Data           0  qtmultimediakit_mmfengine.in(.text)
    |L1.1068|                                0x00009a20   Data           0  qtmultimediakit_mmfengine.in(.text)
    .text                                    0x00009ab8   Section      452  qtmultimediakit_mmfengine.in(.text)
    .text                                    0x00009c7c   Section      168  qtmultimediakit_mmfengine.in(.text)
    .text                                    0x00009d24   Section      408  qtmultimediakit_mmfengine.in(.text)
    .text                                    0x00009ebc   Section     5504  qtmultimediakit_mmfengine.in(.text)
    |L1.1176|                                0x0000a354   Data           0  qtmultimediakit_mmfengine.in(.text)
    |L1.1196|                                0x0000a368   Data           0  qtmultimediakit_mmfengine.in(.text)
    |L1.1284|                                0x0000a3c0   Data           0  qtmultimediakit_mmfengine.in(.text)
    |L1.1288|                                0x0000a3c4   Data           0  qtmultimediakit_mmfengine.in(.text)
    .text                                    0x0000b43c   Section       92  qtmultimediakit_mmfengine.in(.text)
    .text                                    0x0000b498   Section     1000  qtmultimediakit_mmfengine.in(.text)
    .text                                    0x0000b880   Section     2104  qtmultimediakit_mmfengine.in(.text)
    |L1.1156|                                0x0000bd04   Data           0  qtmultimediakit_mmfengine.in(.text)
    |L1.1184|                                0x0000bd20   Data           0  qtmultimediakit_mmfengine.in(.text)
    |L1.1212|                                0x0000bd3c   Data           0  qtmultimediakit_mmfengine.in(.text)
    |L1.1232|                                0x0000bd50   Data           0  qtmultimediakit_mmfengine.in(.text)
    |L1.1252|                                0x0000bd64   Data           0  qtmultimediakit_mmfengine.in(.text)
    |L1.1280|                                0x0000bd80   Data           0  qtmultimediakit_mmfengine.in(.text)
    |L1.1316|                                0x0000bda4   Data           0  qtmultimediakit_mmfengine.in(.text)
    |L1.1364|                                0x0000bdd4   Data           0  qtmultimediakit_mmfengine.in(.text)
    |L1.1392|                                0x0000bdf0   Data           0  qtmultimediakit_mmfengine.in(.text)
    |L1.1424|                                0x0000be10   Data           0  qtmultimediakit_mmfengine.in(.text)
    |L1.1456|                                0x0000be30   Data           0  qtmultimediakit_mmfengine.in(.text)
    |L1.1480|                                0x0000be48   Data           0  qtmultimediakit_mmfengine.in(.text)
    |L1.1536|                                0x0000be80   Data           0  qtmultimediakit_mmfengine.in(.text)
    |L1.1568|                                0x0000bea0   Data           0  qtmultimediakit_mmfengine.in(.text)
    |L1.1588|                                0x0000beb4   Data           0  qtmultimediakit_mmfengine.in(.text)
    |L1.1628|                                0x0000bedc   Data           0  qtmultimediakit_mmfengine.in(.text)
    |L1.1652|                                0x0000bef4   Data           0  qtmultimediakit_mmfengine.in(.text)
    .text                                    0x0000c0b8   Section     3162  qtmultimediakit_mmfengine.in(.text)
    |L1.1048|                                0x0000c4d0   Data           0  qtmultimediakit_mmfengine.in(.text)
    .text                                    0x0000cd14   Section      276  qtmultimediakit_mmfengine.in(.text)
    .text                                    0x0000ce28   Section     3340  qtmultimediakit_mmfengine.in(.text)
    __sti___25_s60videoplayersession_cpp     0x0000daf9   Thumb Code    30  qtmultimediakit_mmfengine.in(.text)
    .text                                    0x0000db34   Section      272  qtmultimediakit_mmfengine.in(.text)
    .text                                    0x0000dc44   Section      464  qtmultimediakit_mmfengine.in(.text)
    .text                                    0x0000de14   Section      772  qtmultimediakit_mmfengine.in(.text)
    .text                                    0x0000e118   Section      892  qtmultimediakit_mmfengine.in(.text)
    .text                                    0x0000e494   Section      260  qtmultimediakit_mmfengine.in(.text)
    .text                                    0x0000e598   Section     2496  qtmultimediakit_mmfengine.in(.text)
    .text                                    0x0000ef58   Section      152  qtmultimediakit_mmfengine.in(.text)
    .text                                    0x0000eff0   Section      628  qtmultimediakit_mmfengine.in(.text)
    .text                                    0x0000f264   Section     1012  qtmultimediakit_mmfengine.in(.text)
    .text                                    0x0000f658   Section      288  qtmultimediakit_mmfengine.in(.text)
    .text                                    0x0000f778   Section     1080  qtmultimediakit_mmfengine.in(.text)
    .text                                    0x0000fbb0   Section      332  qtmultimediakit_mmfengine.in(.text)
    .text                                    0x0000fcfc   Section      572  qtmultimediakit_mmfengine.in(.text)
    .text                                    0x0000ff38   Section       40  uc_dll.o(.text)
    .text                                    0x0000ff60   Section      148  ucppfini.o(.text)
    .text.clean                              0x0000fff4   Section       76  qtmultimediakit_mmfengine.in(.text.clean)
    .text.clean                              0x00010040   Section       66  qtmultimediakit_mmfengine.in(.text.clean)
    .text.clean                              0x00010082   Section      152  qtmultimediakit_mmfengine.in(.text.clean)
    .text.clean                              0x0001011a   Section       10  qtmultimediakit_mmfengine.in(.text.clean)
    .text.clean                              0x00010124   Section       10  qtmultimediakit_mmfengine.in(.text.clean)
    .text.clean                              0x0001012e   Section       26  qtmultimediakit_mmfengine.in(.text.clean)
    .text.clean                              0x00010148   Section      714  qtmultimediakit_mmfengine.in(.text.clean)
    .text.clean                              0x00010412   Section       10  qtmultimediakit_mmfengine.in(.text.clean)
    .text.clean                              0x0001041c   Section       96  qtmultimediakit_mmfengine.in(.text.clean)
    .text.clean                              0x0001047c   Section      106  qtmultimediakit_mmfengine.in(.text.clean)
    .text.clean                              0x000104e6   Section      276  qtmultimediakit_mmfengine.in(.text.clean)
    .text.clean                              0x000105fa   Section       10  qtmultimediakit_mmfengine.in(.text.clean)
    .text.clean                              0x00010604   Section      228  qtmultimediakit_mmfengine.in(.text.clean)
    .text.clean                              0x000106e8   Section       56  qtmultimediakit_mmfengine.in(.text.clean)
    .text.clean                              0x00010720   Section       50  qtmultimediakit_mmfengine.in(.text.clean)
    .text.clean                              0x00010752   Section       88  qtmultimediakit_mmfengine.in(.text.clean)
    .text.clean                              0x000107aa   Section      146  qtmultimediakit_mmfengine.in(.text.clean)
    .text.clean                              0x0001083c   Section       10  qtmultimediakit_mmfengine.in(.text.clean)
    .text.clean                              0x00010846   Section      154  qtmultimediakit_mmfengine.in(.text.clean)
    .text.clean                              0x000108e0   Section       26  qtmultimediakit_mmfengine.in(.text.clean)
    .text.clean                              0x000108fa   Section       10  qtmultimediakit_mmfengine.in(.text.clean)
    .text.clean                              0x00010904   Section       48  qtmultimediakit_mmfengine.in(.text.clean)
    .text.clean                              0x00010934   Section       16  qtmultimediakit_mmfengine.in(.text.clean)
    .text.clean                              0x00010944   Section       76  qtmultimediakit_mmfengine.in(.text.clean)
    .text.clean                              0x00010990   Section       16  qtmultimediakit_mmfengine.in(.text.clean)
    .text.clean                              0x000109a0   Section       16  qtmultimediakit_mmfengine.in(.text.clean)
    ExportTable                              0x000109b0   Section       16  qtmultimediakit_mmfengine{000a0000}.exp(ExportTable)
    StubCode                                 0x000109c0   Section        8  QtMultimediaKit{00010103}-1081.o(StubCode)
    theImportedSymbol                        0x000109c4   Data           0  QtMultimediaKit{00010103}-1081.o(StubCode)
    StubCode                                 0x000109c8   Section        8  QtMultimediaKit{00010103}-1086.o(StubCode)
    theImportedSymbol                        0x000109cc   Data           0  QtMultimediaKit{00010103}-1086.o(StubCode)
    StubCode                                 0x000109d0   Section        8  QtMultimediaKit{00010103}-1087.o(StubCode)
    theImportedSymbol                        0x000109d4   Data           0  QtMultimediaKit{00010103}-1087.o(StubCode)
    StubCode                                 0x000109d8   Section        8  QtMultimediaKit{00010103}-1088.o(StubCode)
    theImportedSymbol                        0x000109dc   Data           0  QtMultimediaKit{00010103}-1088.o(StubCode)
    StubCode                                 0x000109e0   Section        8  QtMultimediaKit{00010103}-1089.o(StubCode)
    theImportedSymbol                        0x000109e4   Data           0  QtMultimediaKit{00010103}-1089.o(StubCode)
    StubCode                                 0x000109e8   Section        8  QtMultimediaKit{00010103}-1091.o(StubCode)
    theImportedSymbol                        0x000109ec   Data           0  QtMultimediaKit{00010103}-1091.o(StubCode)
    StubCode                                 0x000109f0   Section        8  QtMultimediaKit{00010103}-1092.o(StubCode)
    theImportedSymbol                        0x000109f4   Data           0  QtMultimediaKit{00010103}-1092.o(StubCode)
    StubCode                                 0x000109f8   Section        8  QtMultimediaKit{00010103}-214.o(StubCode)
    theImportedSymbol                        0x000109fc   Data           0  QtMultimediaKit{00010103}-214.o(StubCode)
    StubCode                                 0x00010a00   Section        8  QtMultimediaKit{00010103}-215.o(StubCode)
    theImportedSymbol                        0x00010a04   Data           0  QtMultimediaKit{00010103}-215.o(StubCode)
    StubCode                                 0x00010a08   Section        8  QtMultimediaKit{00010103}-222.o(StubCode)
    theImportedSymbol                        0x00010a0c   Data           0  QtMultimediaKit{00010103}-222.o(StubCode)
    StubCode                                 0x00010a10   Section        8  QtMultimediaKit{00010103}-224.o(StubCode)
    theImportedSymbol                        0x00010a14   Data           0  QtMultimediaKit{00010103}-224.o(StubCode)
    StubCode                                 0x00010a18   Section        8  QtMultimediaKit{00010103}-236.o(StubCode)
    theImportedSymbol                        0x00010a1c   Data           0  QtMultimediaKit{00010103}-236.o(StubCode)
    StubCode                                 0x00010a20   Section        8  QtMultimediaKit{00010103}-237.o(StubCode)
    theImportedSymbol                        0x00010a24   Data           0  QtMultimediaKit{00010103}-237.o(StubCode)
    StubCode                                 0x00010a28   Section        8  QtMultimediaKit{00010103}-240.o(StubCode)
    theImportedSymbol                        0x00010a2c   Data           0  QtMultimediaKit{00010103}-240.o(StubCode)
    StubCode                                 0x00010a30   Section        8  QtMultimediaKit{00010103}-244.o(StubCode)
    theImportedSymbol                        0x00010a34   Data           0  QtMultimediaKit{00010103}-244.o(StubCode)
    StubCode                                 0x00010a38   Section        8  QtMultimediaKit{00010103}-328.o(StubCode)
    theImportedSymbol                        0x00010a3c   Data           0  QtMultimediaKit{00010103}-328.o(StubCode)
    StubCode                                 0x00010a40   Section        8  QtMultimediaKit{00010103}-336.o(StubCode)
    theImportedSymbol                        0x00010a44   Data           0  QtMultimediaKit{00010103}-336.o(StubCode)
    StubCode                                 0x00010a48   Section        8  QtMultimediaKit{00010103}-342.o(StubCode)
    theImportedSymbol                        0x00010a4c   Data           0  QtMultimediaKit{00010103}-342.o(StubCode)
    StubCode                                 0x00010a50   Section        8  QtMultimediaKit{00010103}-429.o(StubCode)
    theImportedSymbol                        0x00010a54   Data           0  QtMultimediaKit{00010103}-429.o(StubCode)
    StubCode                                 0x00010a58   Section        8  QtMultimediaKit{00010103}-430.o(StubCode)
    theImportedSymbol                        0x00010a5c   Data           0  QtMultimediaKit{00010103}-430.o(StubCode)
    StubCode                                 0x00010a60   Section        8  QtMultimediaKit{00010103}-431.o(StubCode)
    theImportedSymbol                        0x00010a64   Data           0  QtMultimediaKit{00010103}-431.o(StubCode)
    StubCode                                 0x00010a68   Section        8  QtMultimediaKit{00010103}-432.o(StubCode)
    theImportedSymbol                        0x00010a6c   Data           0  QtMultimediaKit{00010103}-432.o(StubCode)
    StubCode                                 0x00010a70   Section        8  QtMultimediaKit{00010103}-433.o(StubCode)
    theImportedSymbol                        0x00010a74   Data           0  QtMultimediaKit{00010103}-433.o(StubCode)
    StubCode                                 0x00010a78   Section        8  QtMultimediaKit{00010103}-434.o(StubCode)
    theImportedSymbol                        0x00010a7c   Data           0  QtMultimediaKit{00010103}-434.o(StubCode)
    StubCode                                 0x00010a80   Section        8  QtMultimediaKit{00010103}-435.o(StubCode)
    theImportedSymbol                        0x00010a84   Data           0  QtMultimediaKit{00010103}-435.o(StubCode)
    StubCode                                 0x00010a88   Section        8  QtMultimediaKit{00010103}-436.o(StubCode)
    theImportedSymbol                        0x00010a8c   Data           0  QtMultimediaKit{00010103}-436.o(StubCode)
    StubCode                                 0x00010a90   Section        8  QtMultimediaKit{00010103}-439.o(StubCode)
    theImportedSymbol                        0x00010a94   Data           0  QtMultimediaKit{00010103}-439.o(StubCode)
    StubCode                                 0x00010a98   Section        8  QtMultimediaKit{00010103}-440.o(StubCode)
    theImportedSymbol                        0x00010a9c   Data           0  QtMultimediaKit{00010103}-440.o(StubCode)
    StubCode                                 0x00010aa0   Section        8  QtMultimediaKit{00010103}-442.o(StubCode)
    theImportedSymbol                        0x00010aa4   Data           0  QtMultimediaKit{00010103}-442.o(StubCode)
    StubCode                                 0x00010aa8   Section        8  QtMultimediaKit{00010103}-445.o(StubCode)
    theImportedSymbol                        0x00010aac   Data           0  QtMultimediaKit{00010103}-445.o(StubCode)
    StubCode                                 0x00010ab0   Section        8  QtMultimediaKit{00010103}-466.o(StubCode)
    theImportedSymbol                        0x00010ab4   Data           0  QtMultimediaKit{00010103}-466.o(StubCode)
    StubCode                                 0x00010ab8   Section        8  QtMultimediaKit{00010103}-467.o(StubCode)
    theImportedSymbol                        0x00010abc   Data           0  QtMultimediaKit{00010103}-467.o(StubCode)
    StubCode                                 0x00010ac0   Section        8  QtMultimediaKit{00010103}-468.o(StubCode)
    theImportedSymbol                        0x00010ac4   Data           0  QtMultimediaKit{00010103}-468.o(StubCode)
    StubCode                                 0x00010ac8   Section        8  QtMultimediaKit{00010103}-470.o(StubCode)
    theImportedSymbol                        0x00010acc   Data           0  QtMultimediaKit{00010103}-470.o(StubCode)
    StubCode                                 0x00010ad0   Section        8  QtMultimediaKit{00010103}-476.o(StubCode)
    theImportedSymbol                        0x00010ad4   Data           0  QtMultimediaKit{00010103}-476.o(StubCode)
    StubCode                                 0x00010ad8   Section        8  QtMultimediaKit{00010103}-483.o(StubCode)
    theImportedSymbol                        0x00010adc   Data           0  QtMultimediaKit{00010103}-483.o(StubCode)
    StubCode                                 0x00010ae0   Section        8  QtMultimediaKit{00010103}-484.o(StubCode)
    theImportedSymbol                        0x00010ae4   Data           0  QtMultimediaKit{00010103}-484.o(StubCode)
    StubCode                                 0x00010ae8   Section        8  QtMultimediaKit{00010103}-487.o(StubCode)
    theImportedSymbol                        0x00010aec   Data           0  QtMultimediaKit{00010103}-487.o(StubCode)
    StubCode                                 0x00010af0   Section        8  QtMultimediaKit{00010103}-518.o(StubCode)
    theImportedSymbol                        0x00010af4   Data           0  QtMultimediaKit{00010103}-518.o(StubCode)
    StubCode                                 0x00010af8   Section        8  QtMultimediaKit{00010103}-519.o(StubCode)
    theImportedSymbol                        0x00010afc   Data           0  QtMultimediaKit{00010103}-519.o(StubCode)
    StubCode                                 0x00010b00   Section        8  QtMultimediaKit{00010103}-526.o(StubCode)
    theImportedSymbol                        0x00010b04   Data           0  QtMultimediaKit{00010103}-526.o(StubCode)
    StubCode                                 0x00010b08   Section        8  QtMultimediaKit{00010103}-529.o(StubCode)
    theImportedSymbol                        0x00010b0c   Data           0  QtMultimediaKit{00010103}-529.o(StubCode)
    StubCode                                 0x00010b10   Section        8  QtMultimediaKit{00010103}-531.o(StubCode)
    theImportedSymbol                        0x00010b14   Data           0  QtMultimediaKit{00010103}-531.o(StubCode)
    StubCode                                 0x00010b18   Section        8  QtMultimediaKit{00010103}-532.o(StubCode)
    theImportedSymbol                        0x00010b1c   Data           0  QtMultimediaKit{00010103}-532.o(StubCode)
    StubCode                                 0x00010b20   Section        8  QtMultimediaKit{00010103}-540.o(StubCode)
    theImportedSymbol                        0x00010b24   Data           0  QtMultimediaKit{00010103}-540.o(StubCode)
    StubCode                                 0x00010b28   Section        8  QtMultimediaKit{00010103}-543.o(StubCode)
    theImportedSymbol                        0x00010b2c   Data           0  QtMultimediaKit{00010103}-543.o(StubCode)
    StubCode                                 0x00010b30   Section        8  QtMultimediaKit{00010103}-556.o(StubCode)
    theImportedSymbol                        0x00010b34   Data           0  QtMultimediaKit{00010103}-556.o(StubCode)
    StubCode                                 0x00010b38   Section        8  QtMultimediaKit{00010103}-557.o(StubCode)
    theImportedSymbol                        0x00010b3c   Data           0  QtMultimediaKit{00010103}-557.o(StubCode)
    StubCode                                 0x00010b40   Section        8  QtMultimediaKit{00010103}-560.o(StubCode)
    theImportedSymbol                        0x00010b44   Data           0  QtMultimediaKit{00010103}-560.o(StubCode)
    StubCode                                 0x00010b48   Section        8  QtMultimediaKit{00010103}-563.o(StubCode)
    theImportedSymbol                        0x00010b4c   Data           0  QtMultimediaKit{00010103}-563.o(StubCode)
    StubCode                                 0x00010b50   Section        8  QtMultimediaKit{00010103}-578.o(StubCode)
    theImportedSymbol                        0x00010b54   Data           0  QtMultimediaKit{00010103}-578.o(StubCode)
    StubCode                                 0x00010b58   Section        8  QtMultimediaKit{00010103}-579.o(StubCode)
    theImportedSymbol                        0x00010b5c   Data           0  QtMultimediaKit{00010103}-579.o(StubCode)
    StubCode                                 0x00010b60   Section        8  QtMultimediaKit{00010103}-580.o(StubCode)
    theImportedSymbol                        0x00010b64   Data           0  QtMultimediaKit{00010103}-580.o(StubCode)
    StubCode                                 0x00010b68   Section        8  QtMultimediaKit{00010103}-584.o(StubCode)
    theImportedSymbol                        0x00010b6c   Data           0  QtMultimediaKit{00010103}-584.o(StubCode)
    StubCode                                 0x00010b70   Section        8  QtMultimediaKit{00010103}-587.o(StubCode)
    theImportedSymbol                        0x00010b74   Data           0  QtMultimediaKit{00010103}-587.o(StubCode)
    StubCode                                 0x00010b78   Section        8  QtMultimediaKit{00010103}-596.o(StubCode)
    theImportedSymbol                        0x00010b7c   Data           0  QtMultimediaKit{00010103}-596.o(StubCode)
    StubCode                                 0x00010b80   Section        8  QtMultimediaKit{00010103}-597.o(StubCode)
    theImportedSymbol                        0x00010b84   Data           0  QtMultimediaKit{00010103}-597.o(StubCode)
    StubCode                                 0x00010b88   Section        8  QtMultimediaKit{00010103}-606.o(StubCode)
    theImportedSymbol                        0x00010b8c   Data           0  QtMultimediaKit{00010103}-606.o(StubCode)
    StubCode                                 0x00010b90   Section        8  QtMultimediaKit{00010103}-610.o(StubCode)
    theImportedSymbol                        0x00010b94   Data           0  QtMultimediaKit{00010103}-610.o(StubCode)
    StubCode                                 0x00010b98   Section        8  QtMultimediaKit{00010103}-613.o(StubCode)
    theImportedSymbol                        0x00010b9c   Data           0  QtMultimediaKit{00010103}-613.o(StubCode)
    StubCode                                 0x00010ba0   Section        8  QtMultimediaKit{00010103}-614.o(StubCode)
    theImportedSymbol                        0x00010ba4   Data           0  QtMultimediaKit{00010103}-614.o(StubCode)
    StubCode                                 0x00010ba8   Section        8  QtMultimediaKit{00010103}-616.o(StubCode)
    theImportedSymbol                        0x00010bac   Data           0  QtMultimediaKit{00010103}-616.o(StubCode)
    StubCode                                 0x00010bb0   Section        8  QtMultimediaKit{00010103}-617.o(StubCode)
    theImportedSymbol                        0x00010bb4   Data           0  QtMultimediaKit{00010103}-617.o(StubCode)
    StubCode                                 0x00010bb8   Section        8  QtMultimediaKit{00010103}-618.o(StubCode)
    theImportedSymbol                        0x00010bbc   Data           0  QtMultimediaKit{00010103}-618.o(StubCode)
    StubCode                                 0x00010bc0   Section        8  QtMultimediaKit{00010103}-621.o(StubCode)
    theImportedSymbol                        0x00010bc4   Data           0  QtMultimediaKit{00010103}-621.o(StubCode)
    StubCode                                 0x00010bc8   Section        8  QtMultimediaKit{00010103}-623.o(StubCode)
    theImportedSymbol                        0x00010bcc   Data           0  QtMultimediaKit{00010103}-623.o(StubCode)
    StubCode                                 0x00010bd0   Section        8  QtMultimediaKit{00010103}-647.o(StubCode)
    theImportedSymbol                        0x00010bd4   Data           0  QtMultimediaKit{00010103}-647.o(StubCode)
    StubCode                                 0x00010bd8   Section        8  QtMultimediaKit{00010103}-648.o(StubCode)
    theImportedSymbol                        0x00010bdc   Data           0  QtMultimediaKit{00010103}-648.o(StubCode)
    StubCode                                 0x00010be0   Section        8  QtMultimediaKit{00010103}-650.o(StubCode)
    theImportedSymbol                        0x00010be4   Data           0  QtMultimediaKit{00010103}-650.o(StubCode)
    StubCode                                 0x00010be8   Section        8  QtMultimediaKit{00010103}-655.o(StubCode)
    theImportedSymbol                        0x00010bec   Data           0  QtMultimediaKit{00010103}-655.o(StubCode)
    StubCode                                 0x00010bf0   Section        8  QtMultimediaKit{00010103}-658.o(StubCode)
    theImportedSymbol                        0x00010bf4   Data           0  QtMultimediaKit{00010103}-658.o(StubCode)
    StubCode                                 0x00010bf8   Section        8  QtMultimediaKit{00010103}-687.o(StubCode)
    theImportedSymbol                        0x00010bfc   Data           0  QtMultimediaKit{00010103}-687.o(StubCode)
    StubCode                                 0x00010c00   Section        8  QtMultimediaKit{00010103}-688.o(StubCode)
    theImportedSymbol                        0x00010c04   Data           0  QtMultimediaKit{00010103}-688.o(StubCode)
    StubCode                                 0x00010c08   Section        8  QtMultimediaKit{00010103}-691.o(StubCode)
    theImportedSymbol                        0x00010c0c   Data           0  QtMultimediaKit{00010103}-691.o(StubCode)
    StubCode                                 0x00010c10   Section        8  QtMultimediaKit{00010103}-693.o(StubCode)
    theImportedSymbol                        0x00010c14   Data           0  QtMultimediaKit{00010103}-693.o(StubCode)
    StubCode                                 0x00010c18   Section        8  QtMultimediaKit{00010103}-696.o(StubCode)
    theImportedSymbol                        0x00010c1c   Data           0  QtMultimediaKit{00010103}-696.o(StubCode)
    StubCode                                 0x00010c20   Section        8  QtMultimediaKit{00010103}-697.o(StubCode)
    theImportedSymbol                        0x00010c24   Data           0  QtMultimediaKit{00010103}-697.o(StubCode)
    StubCode                                 0x00010c28   Section        8  QtMultimediaKit{00010103}-698.o(StubCode)
    theImportedSymbol                        0x00010c2c   Data           0  QtMultimediaKit{00010103}-698.o(StubCode)
    StubCode                                 0x00010c30   Section        8  QtMultimediaKit{00010103}-701.o(StubCode)
    theImportedSymbol                        0x00010c34   Data           0  QtMultimediaKit{00010103}-701.o(StubCode)
    StubCode                                 0x00010c38   Section        8  QtMultimediaKit{00010103}-704.o(StubCode)
    theImportedSymbol                        0x00010c3c   Data           0  QtMultimediaKit{00010103}-704.o(StubCode)
    StubCode                                 0x00010c40   Section        8  QtMultimediaKit{00010103}-71.o(StubCode)
    theImportedSymbol                        0x00010c44   Data           0  QtMultimediaKit{00010103}-71.o(StubCode)
    StubCode                                 0x00010c48   Section        8  QtMultimediaKit{00010103}-73.o(StubCode)
    theImportedSymbol                        0x00010c4c   Data           0  QtMultimediaKit{00010103}-73.o(StubCode)
    StubCode                                 0x00010c50   Section        8  QtMultimediaKit{00010103}-741.o(StubCode)
    theImportedSymbol                        0x00010c54   Data           0  QtMultimediaKit{00010103}-741.o(StubCode)
    StubCode                                 0x00010c58   Section        8  QtMultimediaKit{00010103}-742.o(StubCode)
    theImportedSymbol                        0x00010c5c   Data           0  QtMultimediaKit{00010103}-742.o(StubCode)
    StubCode                                 0x00010c60   Section        8  QtMultimediaKit{00010103}-747.o(StubCode)
    theImportedSymbol                        0x00010c64   Data           0  QtMultimediaKit{00010103}-747.o(StubCode)
    StubCode                                 0x00010c68   Section        8  QtMultimediaKit{00010103}-75.o(StubCode)
    theImportedSymbol                        0x00010c6c   Data           0  QtMultimediaKit{00010103}-75.o(StubCode)
    StubCode                                 0x00010c70   Section        8  QtMultimediaKit{00010103}-750.o(StubCode)
    theImportedSymbol                        0x00010c74   Data           0  QtMultimediaKit{00010103}-750.o(StubCode)
    StubCode                                 0x00010c78   Section        8  QtMultimediaKit{00010103}-76.o(StubCode)
    theImportedSymbol                        0x00010c7c   Data           0  QtMultimediaKit{00010103}-76.o(StubCode)
    StubCode                                 0x00010c80   Section        8  QtMultimediaKit{00010103}-78.o(StubCode)
    theImportedSymbol                        0x00010c84   Data           0  QtMultimediaKit{00010103}-78.o(StubCode)
    StubCode                                 0x00010c88   Section        8  QtMultimediaKit{00010103}-79.o(StubCode)
    theImportedSymbol                        0x00010c8c   Data           0  QtMultimediaKit{00010103}-79.o(StubCode)
    StubCode                                 0x00010c90   Section        8  QtMultimediaKit{00010103}-80.o(StubCode)
    theImportedSymbol                        0x00010c94   Data           0  QtMultimediaKit{00010103}-80.o(StubCode)
    StubCode                                 0x00010c98   Section        8  QtMultimediaKit{00010103}-826.o(StubCode)
    theImportedSymbol                        0x00010c9c   Data           0  QtMultimediaKit{00010103}-826.o(StubCode)
    StubCode                                 0x00010ca0   Section        8  QtMultimediaKit{00010103}-827.o(StubCode)
    theImportedSymbol                        0x00010ca4   Data           0  QtMultimediaKit{00010103}-827.o(StubCode)
    StubCode                                 0x00010ca8   Section        8  QtMultimediaKit{00010103}-83.o(StubCode)
    theImportedSymbol                        0x00010cac   Data           0  QtMultimediaKit{00010103}-83.o(StubCode)
    StubCode                                 0x00010cb0   Section        8  QtMultimediaKit{00010103}-85.o(StubCode)
    theImportedSymbol                        0x00010cb4   Data           0  QtMultimediaKit{00010103}-85.o(StubCode)
    StubCode                                 0x00010cb8   Section        8  QtMultimediaKit{00010103}-874.o(StubCode)
    theImportedSymbol                        0x00010cbc   Data           0  QtMultimediaKit{00010103}-874.o(StubCode)
    StubCode                                 0x00010cc0   Section        8  QtMultimediaKit{00010103}-875.o(StubCode)
    theImportedSymbol                        0x00010cc4   Data           0  QtMultimediaKit{00010103}-875.o(StubCode)
    StubCode                                 0x00010cc8   Section        8  QtMultimediaKit{00010103}-876.o(StubCode)
    theImportedSymbol                        0x00010ccc   Data           0  QtMultimediaKit{00010103}-876.o(StubCode)
    StubCode                                 0x00010cd0   Section        8  QtMultimediaKit{00010103}-878.o(StubCode)
    theImportedSymbol                        0x00010cd4   Data           0  QtMultimediaKit{00010103}-878.o(StubCode)
    StubCode                                 0x00010cd8   Section        8  QtMultimediaKit{00010103}-880.o(StubCode)
    theImportedSymbol                        0x00010cdc   Data           0  QtMultimediaKit{00010103}-880.o(StubCode)
    StubCode                                 0x00010ce0   Section        8  QtMultimediaKit{00010103}-881.o(StubCode)
    theImportedSymbol                        0x00010ce4   Data           0  QtMultimediaKit{00010103}-881.o(StubCode)
    StubCode                                 0x00010ce8   Section        8  QtMultimediaKit{00010103}-882.o(StubCode)
    theImportedSymbol                        0x00010cec   Data           0  QtMultimediaKit{00010103}-882.o(StubCode)
    StubCode                                 0x00010cf0   Section        8  QtMultimediaKit{00010103}-935.o(StubCode)
    theImportedSymbol                        0x00010cf4   Data           0  QtMultimediaKit{00010103}-935.o(StubCode)
    StubCode                                 0x00010cf8   Section        8  QtMultimediaKit{00010103}-938.o(StubCode)
    theImportedSymbol                        0x00010cfc   Data           0  QtMultimediaKit{00010103}-938.o(StubCode)
    StubCode                                 0x00010d00   Section        8  QtMultimediaKit{00010103}-940.o(StubCode)
    theImportedSymbol                        0x00010d04   Data           0  QtMultimediaKit{00010103}-940.o(StubCode)
    StubCode                                 0x00010d08   Section        8  cone{000a0000}-182.o(StubCode)
    theImportedSymbol                        0x00010d0c   Data           0  cone{000a0000}-182.o(StubCode)
    StubCode                                 0x00010d10   Section        8  cone{000a0000}-262.o(StubCode)
    theImportedSymbol                        0x00010d14   Data           0  cone{000a0000}-262.o(StubCode)
    StubCode                                 0x00010d18   Section        8  cone{000a0000}-287.o(StubCode)
    theImportedSymbol                        0x00010d1c   Data           0  cone{000a0000}-287.o(StubCode)
    StubCode                                 0x00010d20   Section        8  ws32{000a0000}-206.o(StubCode)
    theImportedSymbol                        0x00010d24   Data           0  ws32{000a0000}-206.o(StubCode)
    StubCode                                 0x00010d28   Section        8  ws32{000a0000}-211.o(StubCode)
    theImportedSymbol                        0x00010d2c   Data           0  ws32{000a0000}-211.o(StubCode)
    StubCode                                 0x00010d30   Section        8  ws32{000a0000}-265.o(StubCode)
    theImportedSymbol                        0x00010d34   Data           0  ws32{000a0000}-265.o(StubCode)
    StubCode                                 0x00010d38   Section        8  ws32{000a0000}-269.o(StubCode)
    theImportedSymbol                        0x00010d3c   Data           0  ws32{000a0000}-269.o(StubCode)
    StubCode                                 0x00010d40   Section        8  ws32{000a0000}-276.o(StubCode)
    theImportedSymbol                        0x00010d44   Data           0  ws32{000a0000}-276.o(StubCode)
    StubCode                                 0x00010d48   Section        8  ws32{000a0000}-387.o(StubCode)
    theImportedSymbol                        0x00010d4c   Data           0  ws32{000a0000}-387.o(StubCode)
    StubCode                                 0x00010d50   Section        8  ws32{000a0000}-421.o(StubCode)
    theImportedSymbol                        0x00010d54   Data           0  ws32{000a0000}-421.o(StubCode)
    StubCode                                 0x00010d58   Section        8  ws32{000a0000}-446.o(StubCode)
    theImportedSymbol                        0x00010d5c   Data           0  ws32{000a0000}-446.o(StubCode)
    StubCode                                 0x00010d60   Section        8  ws32{000a0000}-69.o(StubCode)
    theImportedSymbol                        0x00010d64   Data           0  ws32{000a0000}-69.o(StubCode)
    StubCode                                 0x00010d68   Section        8  mediaclientvideo{000a0000}-10.o(StubCode)
    theImportedSymbol                        0x00010d6c   Data           0  mediaclientvideo{000a0000}-10.o(StubCode)
    StubCode                                 0x00010d70   Section        8  mediaclientvideo{000a0000}-105.o(StubCode)
    theImportedSymbol                        0x00010d74   Data           0  mediaclientvideo{000a0000}-105.o(StubCode)
    StubCode                                 0x00010d78   Section        8  mediaclientvideo{000a0000}-106.o(StubCode)
    theImportedSymbol                        0x00010d7c   Data           0  mediaclientvideo{000a0000}-106.o(StubCode)
    StubCode                                 0x00010d80   Section        8  mediaclientvideo{000a0000}-11.o(StubCode)
    theImportedSymbol                        0x00010d84   Data           0  mediaclientvideo{000a0000}-11.o(StubCode)
    StubCode                                 0x00010d88   Section        8  mediaclientvideo{000a0000}-124.o(StubCode)
    theImportedSymbol                        0x00010d8c   Data           0  mediaclientvideo{000a0000}-124.o(StubCode)
    StubCode                                 0x00010d90   Section        8  mediaclientvideo{000a0000}-13.o(StubCode)
    theImportedSymbol                        0x00010d94   Data           0  mediaclientvideo{000a0000}-13.o(StubCode)
    StubCode                                 0x00010d98   Section        8  mediaclientvideo{000a0000}-130.o(StubCode)
    theImportedSymbol                        0x00010d9c   Data           0  mediaclientvideo{000a0000}-130.o(StubCode)
    StubCode                                 0x00010da0   Section        8  mediaclientvideo{000a0000}-17.o(StubCode)
    theImportedSymbol                        0x00010da4   Data           0  mediaclientvideo{000a0000}-17.o(StubCode)
    StubCode                                 0x00010da8   Section        8  mediaclientvideo{000a0000}-18.o(StubCode)
    theImportedSymbol                        0x00010dac   Data           0  mediaclientvideo{000a0000}-18.o(StubCode)
    StubCode                                 0x00010db0   Section        8  mediaclientvideo{000a0000}-20.o(StubCode)
    theImportedSymbol                        0x00010db4   Data           0  mediaclientvideo{000a0000}-20.o(StubCode)
    StubCode                                 0x00010db8   Section        8  mediaclientvideo{000a0000}-22.o(StubCode)
    theImportedSymbol                        0x00010dbc   Data           0  mediaclientvideo{000a0000}-22.o(StubCode)
    StubCode                                 0x00010dc0   Section        8  mediaclientvideo{000a0000}-23.o(StubCode)
    theImportedSymbol                        0x00010dc4   Data           0  mediaclientvideo{000a0000}-23.o(StubCode)
    StubCode                                 0x00010dc8   Section        8  mediaclientvideo{000a0000}-24.o(StubCode)
    theImportedSymbol                        0x00010dcc   Data           0  mediaclientvideo{000a0000}-24.o(StubCode)
    StubCode                                 0x00010dd0   Section        8  mediaclientvideo{000a0000}-25.o(StubCode)
    theImportedSymbol                        0x00010dd4   Data           0  mediaclientvideo{000a0000}-25.o(StubCode)
    StubCode                                 0x00010dd8   Section        8  mediaclientvideo{000a0000}-26.o(StubCode)
    theImportedSymbol                        0x00010ddc   Data           0  mediaclientvideo{000a0000}-26.o(StubCode)
    StubCode                                 0x00010de0   Section        8  mediaclientvideo{000a0000}-28.o(StubCode)
    theImportedSymbol                        0x00010de4   Data           0  mediaclientvideo{000a0000}-28.o(StubCode)
    StubCode                                 0x00010de8   Section        8  mediaclientvideo{000a0000}-3.o(StubCode)
    theImportedSymbol                        0x00010dec   Data           0  mediaclientvideo{000a0000}-3.o(StubCode)
    StubCode                                 0x00010df0   Section        8  mediaclientvideo{000a0000}-30.o(StubCode)
    theImportedSymbol                        0x00010df4   Data           0  mediaclientvideo{000a0000}-30.o(StubCode)
    StubCode                                 0x00010df8   Section        8  mediaclientvideo{000a0000}-5.o(StubCode)
    theImportedSymbol                        0x00010dfc   Data           0  mediaclientvideo{000a0000}-5.o(StubCode)
    StubCode                                 0x00010e00   Section        8  mediaclientvideo{000a0000}-61.o(StubCode)
    theImportedSymbol                        0x00010e04   Data           0  mediaclientvideo{000a0000}-61.o(StubCode)
    StubCode                                 0x00010e08   Section        8  mediaclientvideo{000a0000}-64.o(StubCode)
    theImportedSymbol                        0x00010e0c   Data           0  mediaclientvideo{000a0000}-64.o(StubCode)
    StubCode                                 0x00010e10   Section        8  mediaclientvideo{000a0000}-67.o(StubCode)
    theImportedSymbol                        0x00010e14   Data           0  mediaclientvideo{000a0000}-67.o(StubCode)
    StubCode                                 0x00010e18   Section        8  mediaclientvideo{000a0000}-69.o(StubCode)
    theImportedSymbol                        0x00010e1c   Data           0  mediaclientvideo{000a0000}-69.o(StubCode)
    StubCode                                 0x00010e20   Section        8  mediaclientvideo{000a0000}-72.o(StubCode)
    theImportedSymbol                        0x00010e24   Data           0  mediaclientvideo{000a0000}-72.o(StubCode)
    StubCode                                 0x00010e28   Section        8  mediaclientvideo{000a0000}-73.o(StubCode)
    theImportedSymbol                        0x00010e2c   Data           0  mediaclientvideo{000a0000}-73.o(StubCode)
    StubCode                                 0x00010e30   Section        8  mediaclientvideo{000a0000}-74.o(StubCode)
    theImportedSymbol                        0x00010e34   Data           0  mediaclientvideo{000a0000}-74.o(StubCode)
    StubCode                                 0x00010e38   Section        8  mediaclientaudio{000a0000}-102.o(StubCode)
    theImportedSymbol                        0x00010e3c   Data           0  mediaclientaudio{000a0000}-102.o(StubCode)
    StubCode                                 0x00010e40   Section        8  mediaclientaudio{000a0000}-112.o(StubCode)
    theImportedSymbol                        0x00010e44   Data           0  mediaclientaudio{000a0000}-112.o(StubCode)
    StubCode                                 0x00010e48   Section        8  mediaclientaudio{000a0000}-14.o(StubCode)
    theImportedSymbol                        0x00010e4c   Data           0  mediaclientaudio{000a0000}-14.o(StubCode)
    StubCode                                 0x00010e50   Section        8  mediaclientaudio{000a0000}-15.o(StubCode)
    theImportedSymbol                        0x00010e54   Data           0  mediaclientaudio{000a0000}-15.o(StubCode)
    StubCode                                 0x00010e58   Section        8  mediaclientaudio{000a0000}-24.o(StubCode)
    theImportedSymbol                        0x00010e5c   Data           0  mediaclientaudio{000a0000}-24.o(StubCode)
    StubCode                                 0x00010e60   Section        8  mediaclientaudio{000a0000}-29.o(StubCode)
    theImportedSymbol                        0x00010e64   Data           0  mediaclientaudio{000a0000}-29.o(StubCode)
    StubCode                                 0x00010e68   Section        8  mediaclientaudio{000a0000}-30.o(StubCode)
    theImportedSymbol                        0x00010e6c   Data           0  mediaclientaudio{000a0000}-30.o(StubCode)
    StubCode                                 0x00010e70   Section        8  mediaclientaudio{000a0000}-32.o(StubCode)
    theImportedSymbol                        0x00010e74   Data           0  mediaclientaudio{000a0000}-32.o(StubCode)
    StubCode                                 0x00010e78   Section        8  mediaclientaudio{000a0000}-35.o(StubCode)
    theImportedSymbol                        0x00010e7c   Data           0  mediaclientaudio{000a0000}-35.o(StubCode)
    StubCode                                 0x00010e80   Section        8  mediaclientaudio{000a0000}-36.o(StubCode)
    theImportedSymbol                        0x00010e84   Data           0  mediaclientaudio{000a0000}-36.o(StubCode)
    StubCode                                 0x00010e88   Section        8  mediaclientaudio{000a0000}-37.o(StubCode)
    theImportedSymbol                        0x00010e8c   Data           0  mediaclientaudio{000a0000}-37.o(StubCode)
    StubCode                                 0x00010e90   Section        8  mediaclientaudio{000a0000}-42.o(StubCode)
    theImportedSymbol                        0x00010e94   Data           0  mediaclientaudio{000a0000}-42.o(StubCode)
    StubCode                                 0x00010e98   Section        8  mediaclientaudio{000a0000}-81.o(StubCode)
    theImportedSymbol                        0x00010e9c   Data           0  mediaclientaudio{000a0000}-81.o(StubCode)
    StubCode                                 0x00010ea0   Section        8  mediaclientaudio{000a0000}-85.o(StubCode)
    theImportedSymbol                        0x00010ea4   Data           0  mediaclientaudio{000a0000}-85.o(StubCode)
    StubCode                                 0x00010ea8   Section        8  mediaclientaudio{000a0000}-88.o(StubCode)
    theImportedSymbol                        0x00010eac   Data           0  mediaclientaudio{000a0000}-88.o(StubCode)
    StubCode                                 0x00010eb0   Section        8  mediaclientaudio{000a0000}-89.o(StubCode)
    theImportedSymbol                        0x00010eb4   Data           0  mediaclientaudio{000a0000}-89.o(StubCode)
    StubCode                                 0x00010eb8   Section        8  mediaclientaudio{000a0000}-90.o(StubCode)
    theImportedSymbol                        0x00010ebc   Data           0  mediaclientaudio{000a0000}-90.o(StubCode)
    StubCode                                 0x00010ec0   Section        8  mediaclientaudio{000a0000}-92.o(StubCode)
    theImportedSymbol                        0x00010ec4   Data           0  mediaclientaudio{000a0000}-92.o(StubCode)
    StubCode                                 0x00010ec8   Section        8  mediaclientaudio{000a0000}-93.o(StubCode)
    theImportedSymbol                        0x00010ecc   Data           0  mediaclientaudio{000a0000}-93.o(StubCode)
    StubCode                                 0x00010ed0   Section        8  mediaclientaudio{000a0000}-95.o(StubCode)
    theImportedSymbol                        0x00010ed4   Data           0  mediaclientaudio{000a0000}-95.o(StubCode)
    StubCode                                 0x00010ed8   Section        8  mediaclientaudio{000a0000}-96.o(StubCode)
    theImportedSymbol                        0x00010edc   Data           0  mediaclientaudio{000a0000}-96.o(StubCode)
    StubCode                                 0x00010ee0   Section        8  mediaclientaudio{000a0000}-99.o(StubCode)
    theImportedSymbol                        0x00010ee4   Data           0  mediaclientaudio{000a0000}-99.o(StubCode)
    StubCode                                 0x00010ee8   Section        8  fbscli{000a0000}-117.o(StubCode)
    theImportedSymbol                        0x00010eec   Data           0  fbscli{000a0000}-117.o(StubCode)
    StubCode                                 0x00010ef0   Section        8  mmfcontrollerframework{000a0000}-100.o(StubCode)
    theImportedSymbol                        0x00010ef4   Data           0  mmfcontrollerframework{000a0000}-100.o(StubCode)
    StubCode                                 0x00010ef8   Section        8  mmfcontrollerframework{000a0000}-102.o(StubCode)
    theImportedSymbol                        0x00010efc   Data           0  mmfcontrollerframework{000a0000}-102.o(StubCode)
    StubCode                                 0x00010f00   Section        8  mmfcontrollerframework{000a0000}-120.o(StubCode)
    theImportedSymbol                        0x00010f04   Data           0  mmfcontrollerframework{000a0000}-120.o(StubCode)
    StubCode                                 0x00010f08   Section        8  mmfcontrollerframework{000a0000}-121.o(StubCode)
    theImportedSymbol                        0x00010f0c   Data           0  mmfcontrollerframework{000a0000}-121.o(StubCode)
    StubCode                                 0x00010f10   Section        8  mmfcontrollerframework{000a0000}-122.o(StubCode)
    theImportedSymbol                        0x00010f14   Data           0  mmfcontrollerframework{000a0000}-122.o(StubCode)
    StubCode                                 0x00010f18   Section        8  mmfcontrollerframework{000a0000}-126.o(StubCode)
    theImportedSymbol                        0x00010f1c   Data           0  mmfcontrollerframework{000a0000}-126.o(StubCode)
    StubCode                                 0x00010f20   Section        8  mmfcontrollerframework{000a0000}-127.o(StubCode)
    theImportedSymbol                        0x00010f24   Data           0  mmfcontrollerframework{000a0000}-127.o(StubCode)
    StubCode                                 0x00010f28   Section        8  mmfcontrollerframework{000a0000}-128.o(StubCode)
    theImportedSymbol                        0x00010f2c   Data           0  mmfcontrollerframework{000a0000}-128.o(StubCode)
    StubCode                                 0x00010f30   Section        8  mmfcontrollerframework{000a0000}-129.o(StubCode)
    theImportedSymbol                        0x00010f34   Data           0  mmfcontrollerframework{000a0000}-129.o(StubCode)
    StubCode                                 0x00010f38   Section        8  mmfcontrollerframework{000a0000}-150.o(StubCode)
    theImportedSymbol                        0x00010f3c   Data           0  mmfcontrollerframework{000a0000}-150.o(StubCode)
    StubCode                                 0x00010f40   Section        8  mmfcontrollerframework{000a0000}-151.o(StubCode)
    theImportedSymbol                        0x00010f44   Data           0  mmfcontrollerframework{000a0000}-151.o(StubCode)
    StubCode                                 0x00010f48   Section        8  mmfcontrollerframework{000a0000}-167.o(StubCode)
    theImportedSymbol                        0x00010f4c   Data           0  mmfcontrollerframework{000a0000}-167.o(StubCode)
    StubCode                                 0x00010f50   Section        8  mmfcontrollerframework{000a0000}-171.o(StubCode)
    theImportedSymbol                        0x00010f54   Data           0  mmfcontrollerframework{000a0000}-171.o(StubCode)
    StubCode                                 0x00010f58   Section        8  mmfcontrollerframework{000a0000}-173.o(StubCode)
    theImportedSymbol                        0x00010f5c   Data           0  mmfcontrollerframework{000a0000}-173.o(StubCode)
    StubCode                                 0x00010f60   Section        8  mmfcontrollerframework{000a0000}-177.o(StubCode)
    theImportedSymbol                        0x00010f64   Data           0  mmfcontrollerframework{000a0000}-177.o(StubCode)
    StubCode                                 0x00010f68   Section        8  mmfcontrollerframework{000a0000}-180.o(StubCode)
    theImportedSymbol                        0x00010f6c   Data           0  mmfcontrollerframework{000a0000}-180.o(StubCode)
    StubCode                                 0x00010f70   Section        8  mmfcontrollerframework{000a0000}-181.o(StubCode)
    theImportedSymbol                        0x00010f74   Data           0  mmfcontrollerframework{000a0000}-181.o(StubCode)
    StubCode                                 0x00010f78   Section        8  efsrv{000a0000}-300.o(StubCode)
    theImportedSymbol                        0x00010f7c   Data           0  efsrv{000a0000}-300.o(StubCode)
    StubCode                                 0x00010f80   Section        8  efsrv{000a0000}-68.o(StubCode)
    theImportedSymbol                        0x00010f84   Data           0  efsrv{000a0000}-68.o(StubCode)
    StubCode                                 0x00010f88   Section        8  efsrv{000a0000}-93.o(StubCode)
    theImportedSymbol                        0x00010f8c   Data           0  efsrv{000a0000}-93.o(StubCode)
    StubCode                                 0x00010f90   Section        8  apgrfx{000a0000}-25.o(StubCode)
    theImportedSymbol                        0x00010f94   Data           0  apgrfx{000a0000}-25.o(StubCode)
    StubCode                                 0x00010f98   Section        8  apgrfx{000a0000}-28.o(StubCode)
    theImportedSymbol                        0x00010f9c   Data           0  apgrfx{000a0000}-28.o(StubCode)
    StubCode                                 0x00010fa0   Section        8  apgrfx{000a0000}-314.o(StubCode)
    theImportedSymbol                        0x00010fa4   Data           0  apgrfx{000a0000}-314.o(StubCode)
    StubCode                                 0x00010fa8   Section        8  apgrfx{000a0000}-323.o(StubCode)
    theImportedSymbol                        0x00010fac   Data           0  apgrfx{000a0000}-323.o(StubCode)
    StubCode                                 0x00010fb0   Section        8  apmime{000a0000}-61.o(StubCode)
    theImportedSymbol                        0x00010fb4   Data           0  apmime{000a0000}-61.o(StubCode)
    StubCode                                 0x00010fb8   Section        8  apmime{000a0000}-77.o(StubCode)
    theImportedSymbol                        0x00010fbc   Data           0  apmime{000a0000}-77.o(StubCode)
    StubCode                                 0x00010fc0   Section        8  bafl{000a0000}-103.o(StubCode)
    theImportedSymbol                        0x00010fc4   Data           0  bafl{000a0000}-103.o(StubCode)
    StubCode                                 0x00010fc8   Section        8  bafl{000a0000}-18.o(StubCode)
    theImportedSymbol                        0x00010fcc   Data           0  bafl{000a0000}-18.o(StubCode)
    StubCode                                 0x00010fd0   Section        8  bafl{000a0000}-256.o(StubCode)
    theImportedSymbol                        0x00010fd4   Data           0  bafl{000a0000}-256.o(StubCode)
    StubCode                                 0x00010fd8   Section        8  bafl{000a0000}-257.o(StubCode)
    theImportedSymbol                        0x00010fdc   Data           0  bafl{000a0000}-257.o(StubCode)
    StubCode                                 0x00010fe0   Section        8  bafl{000a0000}-272.o(StubCode)
    theImportedSymbol                        0x00010fe4   Data           0  bafl{000a0000}-272.o(StubCode)
    StubCode                                 0x00010fe8   Section        8  Radio_Utility{000a0001}-43.o(StubCode)
    theImportedSymbol                        0x00010fec   Data           0  Radio_Utility{000a0001}-43.o(StubCode)
    StubCode                                 0x00010ff0   Section        8  Radio_Utility{000a0001}-44.o(StubCode)
    theImportedSymbol                        0x00010ff4   Data           0  Radio_Utility{000a0001}-44.o(StubCode)
    StubCode                                 0x00010ff8   Section        8  Radio_Utility{000a0001}-45.o(StubCode)
    theImportedSymbol                        0x00010ffc   Data           0  Radio_Utility{000a0001}-45.o(StubCode)
    StubCode                                 0x00011000   Section        8  Radio_Utility{000a0001}-46.o(StubCode)
    theImportedSymbol                        0x00011004   Data           0  Radio_Utility{000a0001}-46.o(StubCode)
    StubCode                                 0x00011008   Section        8  Radio_Utility{000a0001}-48.o(StubCode)
    theImportedSymbol                        0x0001100c   Data           0  Radio_Utility{000a0001}-48.o(StubCode)
    StubCode                                 0x00011010   Section        8  Radio_Utility{000a0001}-53.o(StubCode)
    theImportedSymbol                        0x00011014   Data           0  Radio_Utility{000a0001}-53.o(StubCode)
    StubCode                                 0x00011018   Section        8  Radio_Utility{000a0001}-54.o(StubCode)
    theImportedSymbol                        0x0001101c   Data           0  Radio_Utility{000a0001}-54.o(StubCode)
    StubCode                                 0x00011020   Section        8  Radio_Utility{000a0001}-56.o(StubCode)
    theImportedSymbol                        0x00011024   Data           0  Radio_Utility{000a0001}-56.o(StubCode)
    StubCode                                 0x00011028   Section        8  Radio_Utility{000a0001}-59.o(StubCode)
    theImportedSymbol                        0x0001102c   Data           0  Radio_Utility{000a0001}-59.o(StubCode)
    StubCode                                 0x00011030   Section        8  Radio_Utility{000a0001}-6.o(StubCode)
    theImportedSymbol                        0x00011034   Data           0  Radio_Utility{000a0001}-6.o(StubCode)
    StubCode                                 0x00011038   Section        8  Radio_Utility{000a0001}-60.o(StubCode)
    theImportedSymbol                        0x0001103c   Data           0  Radio_Utility{000a0001}-60.o(StubCode)
    StubCode                                 0x00011040   Section        8  Radio_Utility{000a0001}-62.o(StubCode)
    theImportedSymbol                        0x00011044   Data           0  Radio_Utility{000a0001}-62.o(StubCode)
    StubCode                                 0x00011048   Section        8  Radio_Utility{000a0001}-63.o(StubCode)
    theImportedSymbol                        0x0001104c   Data           0  Radio_Utility{000a0001}-63.o(StubCode)
    StubCode                                 0x00011050   Section        8  Radio_Utility{000a0001}-7.o(StubCode)
    theImportedSymbol                        0x00011054   Data           0  Radio_Utility{000a0001}-7.o(StubCode)
    StubCode                                 0x00011058   Section        8  Radio_Utility{000a0001}-72.o(StubCode)
    theImportedSymbol                        0x0001105c   Data           0  Radio_Utility{000a0001}-72.o(StubCode)
    StubCode                                 0x00011060   Section        8  Radio_Utility{000a0001}-77.o(StubCode)
    theImportedSymbol                        0x00011064   Data           0  Radio_Utility{000a0001}-77.o(StubCode)
    StubCode                                 0x00011068   Section        8  Radio_Utility{000a0001}-78.o(StubCode)
    theImportedSymbol                        0x0001106c   Data           0  Radio_Utility{000a0001}-78.o(StubCode)
    StubCode                                 0x00011070   Section        8  Radio_Utility{000a0001}-79.o(StubCode)
    theImportedSymbol                        0x00011074   Data           0  Radio_Utility{000a0001}-79.o(StubCode)
    StubCode                                 0x00011078   Section        8  Radio_Utility{000a0001}-8.o(StubCode)
    theImportedSymbol                        0x0001107c   Data           0  Radio_Utility{000a0001}-8.o(StubCode)
    StubCode                                 0x00011080   Section        8  libstdcpp{00010000}-988.o(StubCode)
    theImportedSymbol                        0x00011084   Data           0  libstdcpp{00010000}-988.o(StubCode)
    StubCode                                 0x00011088   Section        8  libstdcpp{00010000}-992.o(StubCode)
    theImportedSymbol                        0x0001108c   Data           0  libstdcpp{00010000}-992.o(StubCode)
    StubCode                                 0x00011090   Section        8  QtGui{00040703}-10072.o(StubCode)
    theImportedSymbol                        0x00011094   Data           0  QtGui{00040703}-10072.o(StubCode)
    StubCode                                 0x00011098   Section        8  QtGui{00040703}-10076.o(StubCode)
    theImportedSymbol                        0x0001109c   Data           0  QtGui{00040703}-10076.o(StubCode)
    StubCode                                 0x000110a0   Section        8  QtGui{00040703}-10094.o(StubCode)
    theImportedSymbol                        0x000110a4   Data           0  QtGui{00040703}-10094.o(StubCode)
    StubCode                                 0x000110a8   Section        8  QtGui{00040703}-10098.o(StubCode)
    theImportedSymbol                        0x000110ac   Data           0  QtGui{00040703}-10098.o(StubCode)
    StubCode                                 0x000110b0   Section        8  QtGui{00040703}-10106.o(StubCode)
    theImportedSymbol                        0x000110b4   Data           0  QtGui{00040703}-10106.o(StubCode)
    StubCode                                 0x000110b8   Section        8  QtGui{00040703}-10108.o(StubCode)
    theImportedSymbol                        0x000110bc   Data           0  QtGui{00040703}-10108.o(StubCode)
    StubCode                                 0x000110c0   Section        8  QtGui{00040703}-10120.o(StubCode)
    theImportedSymbol                        0x000110c4   Data           0  QtGui{00040703}-10120.o(StubCode)
    StubCode                                 0x000110c8   Section        8  QtGui{00040703}-10124.o(StubCode)
    theImportedSymbol                        0x000110cc   Data           0  QtGui{00040703}-10124.o(StubCode)
    StubCode                                 0x000110d0   Section        8  QtGui{00040703}-10129.o(StubCode)
    theImportedSymbol                        0x000110d4   Data           0  QtGui{00040703}-10129.o(StubCode)
    StubCode                                 0x000110d8   Section        8  QtGui{00040703}-10133.o(StubCode)
    theImportedSymbol                        0x000110dc   Data           0  QtGui{00040703}-10133.o(StubCode)
    StubCode                                 0x000110e0   Section        8  QtGui{00040703}-10139.o(StubCode)
    theImportedSymbol                        0x000110e4   Data           0  QtGui{00040703}-10139.o(StubCode)
    StubCode                                 0x000110e8   Section        8  QtGui{00040703}-11460.o(StubCode)
    theImportedSymbol                        0x000110ec   Data           0  QtGui{00040703}-11460.o(StubCode)
    StubCode                                 0x000110f0   Section        8  QtGui{00040703}-11461.o(StubCode)
    theImportedSymbol                        0x000110f4   Data           0  QtGui{00040703}-11461.o(StubCode)
    StubCode                                 0x000110f8   Section        8  QtGui{00040703}-11462.o(StubCode)
    theImportedSymbol                        0x000110fc   Data           0  QtGui{00040703}-11462.o(StubCode)
    StubCode                                 0x00011100   Section        8  QtGui{00040703}-1493.o(StubCode)
    theImportedSymbol                        0x00011104   Data           0  QtGui{00040703}-1493.o(StubCode)
    StubCode                                 0x00011108   Section        8  QtGui{00040703}-1503.o(StubCode)
    theImportedSymbol                        0x0001110c   Data           0  QtGui{00040703}-1503.o(StubCode)
    StubCode                                 0x00011110   Section        8  QtGui{00040703}-1574.o(StubCode)
    theImportedSymbol                        0x00011114   Data           0  QtGui{00040703}-1574.o(StubCode)
    StubCode                                 0x00011118   Section        8  QtGui{00040703}-3062.o(StubCode)
    theImportedSymbol                        0x0001111c   Data           0  QtGui{00040703}-3062.o(StubCode)
    StubCode                                 0x00011120   Section        8  QtGui{00040703}-34.o(StubCode)
    theImportedSymbol                        0x00011124   Data           0  QtGui{00040703}-34.o(StubCode)
    StubCode                                 0x00011128   Section        8  QtGui{00040703}-6033.o(StubCode)
    theImportedSymbol                        0x0001112c   Data           0  QtGui{00040703}-6033.o(StubCode)
    StubCode                                 0x00011130   Section        8  QtGui{00040703}-6052.o(StubCode)
    theImportedSymbol                        0x00011134   Data           0  QtGui{00040703}-6052.o(StubCode)
    StubCode                                 0x00011138   Section        8  QtGui{00040703}-6063.o(StubCode)
    theImportedSymbol                        0x0001113c   Data           0  QtGui{00040703}-6063.o(StubCode)
    StubCode                                 0x00011140   Section        8  QtGui{00040703}-6065.o(StubCode)
    theImportedSymbol                        0x00011144   Data           0  QtGui{00040703}-6065.o(StubCode)
    StubCode                                 0x00011148   Section        8  QtGui{00040703}-6166.o(StubCode)
    theImportedSymbol                        0x0001114c   Data           0  QtGui{00040703}-6166.o(StubCode)
    StubCode                                 0x00011150   Section        8  QtGui{00040703}-6167.o(StubCode)
    theImportedSymbol                        0x00011154   Data           0  QtGui{00040703}-6167.o(StubCode)
    StubCode                                 0x00011158   Section        8  QtGui{00040703}-6168.o(StubCode)
    theImportedSymbol                        0x0001115c   Data           0  QtGui{00040703}-6168.o(StubCode)
    StubCode                                 0x00011160   Section        8  QtGui{00040703}-6169.o(StubCode)
    theImportedSymbol                        0x00011164   Data           0  QtGui{00040703}-6169.o(StubCode)
    StubCode                                 0x00011168   Section        8  QtGui{00040703}-6172.o(StubCode)
    theImportedSymbol                        0x0001116c   Data           0  QtGui{00040703}-6172.o(StubCode)
    StubCode                                 0x00011170   Section        8  QtGui{00040703}-6174.o(StubCode)
    theImportedSymbol                        0x00011174   Data           0  QtGui{00040703}-6174.o(StubCode)
    StubCode                                 0x00011178   Section        8  QtGui{00040703}-6178.o(StubCode)
    theImportedSymbol                        0x0001117c   Data           0  QtGui{00040703}-6178.o(StubCode)
    StubCode                                 0x00011180   Section        8  QtGui{00040703}-6179.o(StubCode)
    theImportedSymbol                        0x00011184   Data           0  QtGui{00040703}-6179.o(StubCode)
    StubCode                                 0x00011188   Section        8  QtGui{00040703}-6180.o(StubCode)
    theImportedSymbol                        0x0001118c   Data           0  QtGui{00040703}-6180.o(StubCode)
    StubCode                                 0x00011190   Section        8  QtGui{00040703}-6183.o(StubCode)
    theImportedSymbol                        0x00011194   Data           0  QtGui{00040703}-6183.o(StubCode)
    StubCode                                 0x00011198   Section        8  QtGui{00040703}-6184.o(StubCode)
    theImportedSymbol                        0x0001119c   Data           0  QtGui{00040703}-6184.o(StubCode)
    StubCode                                 0x000111a0   Section        8  QtGui{00040703}-6185.o(StubCode)
    theImportedSymbol                        0x000111a4   Data           0  QtGui{00040703}-6185.o(StubCode)
    StubCode                                 0x000111a8   Section        8  QtGui{00040703}-6190.o(StubCode)
    theImportedSymbol                        0x000111ac   Data           0  QtGui{00040703}-6190.o(StubCode)
    StubCode                                 0x000111b0   Section        8  QtGui{00040703}-6191.o(StubCode)
    theImportedSymbol                        0x000111b4   Data           0  QtGui{00040703}-6191.o(StubCode)
    StubCode                                 0x000111b8   Section        8  QtGui{00040703}-6194.o(StubCode)
    theImportedSymbol                        0x000111bc   Data           0  QtGui{00040703}-6194.o(StubCode)
    StubCode                                 0x000111c0   Section        8  QtGui{00040703}-6202.o(StubCode)
    theImportedSymbol                        0x000111c4   Data           0  QtGui{00040703}-6202.o(StubCode)
    StubCode                                 0x000111c8   Section        8  QtGui{00040703}-6208.o(StubCode)
    theImportedSymbol                        0x000111cc   Data           0  QtGui{00040703}-6208.o(StubCode)
    StubCode                                 0x000111d0   Section        8  QtGui{00040703}-6209.o(StubCode)
    theImportedSymbol                        0x000111d4   Data           0  QtGui{00040703}-6209.o(StubCode)
    StubCode                                 0x000111d8   Section        8  QtGui{00040703}-6210.o(StubCode)
    theImportedSymbol                        0x000111dc   Data           0  QtGui{00040703}-6210.o(StubCode)
    StubCode                                 0x000111e0   Section        8  QtGui{00040703}-6212.o(StubCode)
    theImportedSymbol                        0x000111e4   Data           0  QtGui{00040703}-6212.o(StubCode)
    StubCode                                 0x000111e8   Section        8  QtGui{00040703}-6213.o(StubCode)
    theImportedSymbol                        0x000111ec   Data           0  QtGui{00040703}-6213.o(StubCode)
    StubCode                                 0x000111f0   Section        8  QtGui{00040703}-6216.o(StubCode)
    theImportedSymbol                        0x000111f4   Data           0  QtGui{00040703}-6216.o(StubCode)
    StubCode                                 0x000111f8   Section        8  QtGui{00040703}-6220.o(StubCode)
    theImportedSymbol                        0x000111fc   Data           0  QtGui{00040703}-6220.o(StubCode)
    StubCode                                 0x00011200   Section        8  QtGui{00040703}-6222.o(StubCode)
    theImportedSymbol                        0x00011204   Data           0  QtGui{00040703}-6222.o(StubCode)
    StubCode                                 0x00011208   Section        8  QtGui{00040703}-6223.o(StubCode)
    theImportedSymbol                        0x0001120c   Data           0  QtGui{00040703}-6223.o(StubCode)
    StubCode                                 0x00011210   Section        8  QtGui{00040703}-6224.o(StubCode)
    theImportedSymbol                        0x00011214   Data           0  QtGui{00040703}-6224.o(StubCode)
    StubCode                                 0x00011218   Section        8  QtGui{00040703}-6225.o(StubCode)
    theImportedSymbol                        0x0001121c   Data           0  QtGui{00040703}-6225.o(StubCode)
    StubCode                                 0x00011220   Section        8  QtGui{00040703}-6226.o(StubCode)
    theImportedSymbol                        0x00011224   Data           0  QtGui{00040703}-6226.o(StubCode)
    StubCode                                 0x00011228   Section        8  QtGui{00040703}-6235.o(StubCode)
    theImportedSymbol                        0x0001122c   Data           0  QtGui{00040703}-6235.o(StubCode)
    StubCode                                 0x00011230   Section        8  QtGui{00040703}-6237.o(StubCode)
    theImportedSymbol                        0x00011234   Data           0  QtGui{00040703}-6237.o(StubCode)
    StubCode                                 0x00011238   Section        8  QtGui{00040703}-6239.o(StubCode)
    theImportedSymbol                        0x0001123c   Data           0  QtGui{00040703}-6239.o(StubCode)
    StubCode                                 0x00011240   Section        8  QtGui{00040703}-6246.o(StubCode)
    theImportedSymbol                        0x00011244   Data           0  QtGui{00040703}-6246.o(StubCode)
    StubCode                                 0x00011248   Section        8  QtGui{00040703}-6247.o(StubCode)
    theImportedSymbol                        0x0001124c   Data           0  QtGui{00040703}-6247.o(StubCode)
    StubCode                                 0x00011250   Section        8  QtGui{00040703}-6255.o(StubCode)
    theImportedSymbol                        0x00011254   Data           0  QtGui{00040703}-6255.o(StubCode)
    StubCode                                 0x00011258   Section        8  QtGui{00040703}-6265.o(StubCode)
    theImportedSymbol                        0x0001125c   Data           0  QtGui{00040703}-6265.o(StubCode)
    StubCode                                 0x00011260   Section        8  QtGui{00040703}-6276.o(StubCode)
    theImportedSymbol                        0x00011264   Data           0  QtGui{00040703}-6276.o(StubCode)
    StubCode                                 0x00011268   Section        8  QtGui{00040703}-6277.o(StubCode)
    theImportedSymbol                        0x0001126c   Data           0  QtGui{00040703}-6277.o(StubCode)
    StubCode                                 0x00011270   Section        8  QtGui{00040703}-6279.o(StubCode)
    theImportedSymbol                        0x00011274   Data           0  QtGui{00040703}-6279.o(StubCode)
    StubCode                                 0x00011278   Section        8  QtGui{00040703}-6284.o(StubCode)
    theImportedSymbol                        0x0001127c   Data           0  QtGui{00040703}-6284.o(StubCode)
    StubCode                                 0x00011280   Section        8  QtGui{00040703}-6295.o(StubCode)
    theImportedSymbol                        0x00011284   Data           0  QtGui{00040703}-6295.o(StubCode)
    StubCode                                 0x00011288   Section        8  QtGui{00040703}-6308.o(StubCode)
    theImportedSymbol                        0x0001128c   Data           0  QtGui{00040703}-6308.o(StubCode)
    StubCode                                 0x00011290   Section        8  QtGui{00040703}-6311.o(StubCode)
    theImportedSymbol                        0x00011294   Data           0  QtGui{00040703}-6311.o(StubCode)
    StubCode                                 0x00011298   Section        8  QtGui{00040703}-6312.o(StubCode)
    theImportedSymbol                        0x0001129c   Data           0  QtGui{00040703}-6312.o(StubCode)
    StubCode                                 0x000112a0   Section        8  QtGui{00040703}-6318.o(StubCode)
    theImportedSymbol                        0x000112a4   Data           0  QtGui{00040703}-6318.o(StubCode)
    StubCode                                 0x000112a8   Section        8  QtGui{00040703}-6319.o(StubCode)
    theImportedSymbol                        0x000112ac   Data           0  QtGui{00040703}-6319.o(StubCode)
    StubCode                                 0x000112b0   Section        8  QtGui{00040703}-6324.o(StubCode)
    theImportedSymbol                        0x000112b4   Data           0  QtGui{00040703}-6324.o(StubCode)
    StubCode                                 0x000112b8   Section        8  QtGui{00040703}-6456.o(StubCode)
    theImportedSymbol                        0x000112bc   Data           0  QtGui{00040703}-6456.o(StubCode)
    StubCode                                 0x000112c0   Section        8  QtGui{00040703}-6545.o(StubCode)
    theImportedSymbol                        0x000112c4   Data           0  QtGui{00040703}-6545.o(StubCode)
    StubCode                                 0x000112c8   Section        8  QtGui{00040703}-6549.o(StubCode)
    theImportedSymbol                        0x000112cc   Data           0  QtGui{00040703}-6549.o(StubCode)
    StubCode                                 0x000112d0   Section        8  QtGui{00040703}-6559.o(StubCode)
    theImportedSymbol                        0x000112d4   Data           0  QtGui{00040703}-6559.o(StubCode)
    StubCode                                 0x000112d8   Section        8  QtGui{00040703}-6573.o(StubCode)
    theImportedSymbol                        0x000112dc   Data           0  QtGui{00040703}-6573.o(StubCode)
    StubCode                                 0x000112e0   Section        8  QtGui{00040703}-8694.o(StubCode)
    theImportedSymbol                        0x000112e4   Data           0  QtGui{00040703}-8694.o(StubCode)
    StubCode                                 0x000112e8   Section        8  QtGui{00040703}-9987.o(StubCode)
    theImportedSymbol                        0x000112ec   Data           0  QtGui{00040703}-9987.o(StubCode)
    StubCode                                 0x000112f0   Section        8  QtCore{00040703}-1453.o(StubCode)
    theImportedSymbol                        0x000112f4   Data           0  QtCore{00040703}-1453.o(StubCode)
    StubCode                                 0x000112f8   Section        8  QtCore{00040703}-1466.o(StubCode)
    theImportedSymbol                        0x000112fc   Data           0  QtCore{00040703}-1466.o(StubCode)
    StubCode                                 0x00011300   Section        8  QtCore{00040703}-1471.o(StubCode)
    theImportedSymbol                        0x00011304   Data           0  QtCore{00040703}-1471.o(StubCode)
    StubCode                                 0x00011308   Section        8  QtCore{00040703}-1477.o(StubCode)
    theImportedSymbol                        0x0001130c   Data           0  QtCore{00040703}-1477.o(StubCode)
    StubCode                                 0x00011310   Section        8  QtCore{00040703}-150.o(StubCode)
    theImportedSymbol                        0x00011314   Data           0  QtCore{00040703}-150.o(StubCode)
    StubCode                                 0x00011318   Section        8  QtCore{00040703}-1516.o(StubCode)
    theImportedSymbol                        0x0001131c   Data           0  QtCore{00040703}-1516.o(StubCode)
    StubCode                                 0x00011320   Section        8  QtCore{00040703}-1523.o(StubCode)
    theImportedSymbol                        0x00011324   Data           0  QtCore{00040703}-1523.o(StubCode)
    StubCode                                 0x00011328   Section        8  QtCore{00040703}-1525.o(StubCode)
    theImportedSymbol                        0x0001132c   Data           0  QtCore{00040703}-1525.o(StubCode)
    StubCode                                 0x00011330   Section        8  QtCore{00040703}-1526.o(StubCode)
    theImportedSymbol                        0x00011334   Data           0  QtCore{00040703}-1526.o(StubCode)
    StubCode                                 0x00011338   Section        8  QtCore{00040703}-1531.o(StubCode)
    theImportedSymbol                        0x0001133c   Data           0  QtCore{00040703}-1531.o(StubCode)
    StubCode                                 0x00011340   Section        8  QtCore{00040703}-1534.o(StubCode)
    theImportedSymbol                        0x00011344   Data           0  QtCore{00040703}-1534.o(StubCode)
    StubCode                                 0x00011348   Section        8  QtCore{00040703}-1560.o(StubCode)
    theImportedSymbol                        0x0001134c   Data           0  QtCore{00040703}-1560.o(StubCode)
    StubCode                                 0x00011350   Section        8  QtCore{00040703}-1634.o(StubCode)
    theImportedSymbol                        0x00011354   Data           0  QtCore{00040703}-1634.o(StubCode)
    StubCode                                 0x00011358   Section        8  QtCore{00040703}-1713.o(StubCode)
    theImportedSymbol                        0x0001135c   Data           0  QtCore{00040703}-1713.o(StubCode)
    StubCode                                 0x00011360   Section        8  QtCore{00040703}-1714.o(StubCode)
    theImportedSymbol                        0x00011364   Data           0  QtCore{00040703}-1714.o(StubCode)
    StubCode                                 0x00011368   Section        8  QtCore{00040703}-1717.o(StubCode)
    theImportedSymbol                        0x0001136c   Data           0  QtCore{00040703}-1717.o(StubCode)
    StubCode                                 0x00011370   Section        8  QtCore{00040703}-1760.o(StubCode)
    theImportedSymbol                        0x00011374   Data           0  QtCore{00040703}-1760.o(StubCode)
    StubCode                                 0x00011378   Section        8  QtCore{00040703}-1761.o(StubCode)
    theImportedSymbol                        0x0001137c   Data           0  QtCore{00040703}-1761.o(StubCode)
    StubCode                                 0x00011380   Section        8  QtCore{00040703}-1763.o(StubCode)
    theImportedSymbol                        0x00011384   Data           0  QtCore{00040703}-1763.o(StubCode)
    StubCode                                 0x00011388   Section        8  QtCore{00040703}-1764.o(StubCode)
    theImportedSymbol                        0x0001138c   Data           0  QtCore{00040703}-1764.o(StubCode)
    StubCode                                 0x00011390   Section        8  QtCore{00040703}-1766.o(StubCode)
    theImportedSymbol                        0x00011394   Data           0  QtCore{00040703}-1766.o(StubCode)
    StubCode                                 0x00011398   Section        8  QtCore{00040703}-1767.o(StubCode)
    theImportedSymbol                        0x0001139c   Data           0  QtCore{00040703}-1767.o(StubCode)
    StubCode                                 0x000113a0   Section        8  QtCore{00040703}-1768.o(StubCode)
    theImportedSymbol                        0x000113a4   Data           0  QtCore{00040703}-1768.o(StubCode)
    StubCode                                 0x000113a8   Section        8  QtCore{00040703}-1769.o(StubCode)
    theImportedSymbol                        0x000113ac   Data           0  QtCore{00040703}-1769.o(StubCode)
    StubCode                                 0x000113b0   Section        8  QtCore{00040703}-1773.o(StubCode)
    theImportedSymbol                        0x000113b4   Data           0  QtCore{00040703}-1773.o(StubCode)
    StubCode                                 0x000113b8   Section        8  QtCore{00040703}-1777.o(StubCode)
    theImportedSymbol                        0x000113bc   Data           0  QtCore{00040703}-1777.o(StubCode)
    StubCode                                 0x000113c0   Section        8  QtCore{00040703}-1781.o(StubCode)
    theImportedSymbol                        0x000113c4   Data           0  QtCore{00040703}-1781.o(StubCode)
    StubCode                                 0x000113c8   Section        8  QtCore{00040703}-1784.o(StubCode)
    theImportedSymbol                        0x000113cc   Data           0  QtCore{00040703}-1784.o(StubCode)
    StubCode                                 0x000113d0   Section        8  QtCore{00040703}-1785.o(StubCode)
    theImportedSymbol                        0x000113d4   Data           0  QtCore{00040703}-1785.o(StubCode)
    StubCode                                 0x000113d8   Section        8  QtCore{00040703}-1789.o(StubCode)
    theImportedSymbol                        0x000113dc   Data           0  QtCore{00040703}-1789.o(StubCode)
    StubCode                                 0x000113e0   Section        8  QtCore{00040703}-1794.o(StubCode)
    theImportedSymbol                        0x000113e4   Data           0  QtCore{00040703}-1794.o(StubCode)
    StubCode                                 0x000113e8   Section        8  QtCore{00040703}-1825.o(StubCode)
    theImportedSymbol                        0x000113ec   Data           0  QtCore{00040703}-1825.o(StubCode)
    StubCode                                 0x000113f0   Section        8  QtCore{00040703}-1826.o(StubCode)
    theImportedSymbol                        0x000113f4   Data           0  QtCore{00040703}-1826.o(StubCode)
    StubCode                                 0x000113f8   Section        8  QtCore{00040703}-1828.o(StubCode)
    theImportedSymbol                        0x000113fc   Data           0  QtCore{00040703}-1828.o(StubCode)
    StubCode                                 0x00011400   Section        8  QtCore{00040703}-1830.o(StubCode)
    theImportedSymbol                        0x00011404   Data           0  QtCore{00040703}-1830.o(StubCode)
    StubCode                                 0x00011408   Section        8  QtCore{00040703}-1836.o(StubCode)
    theImportedSymbol                        0x0001140c   Data           0  QtCore{00040703}-1836.o(StubCode)
    StubCode                                 0x00011410   Section        8  QtCore{00040703}-1842.o(StubCode)
    theImportedSymbol                        0x00011414   Data           0  QtCore{00040703}-1842.o(StubCode)
    StubCode                                 0x00011418   Section        8  QtCore{00040703}-1871.o(StubCode)
    theImportedSymbol                        0x0001141c   Data           0  QtCore{00040703}-1871.o(StubCode)
    StubCode                                 0x00011420   Section        8  QtCore{00040703}-1874.o(StubCode)
    theImportedSymbol                        0x00011424   Data           0  QtCore{00040703}-1874.o(StubCode)
    StubCode                                 0x00011428   Section        8  QtCore{00040703}-1875.o(StubCode)
    theImportedSymbol                        0x0001142c   Data           0  QtCore{00040703}-1875.o(StubCode)
    StubCode                                 0x00011430   Section        8  QtCore{00040703}-1885.o(StubCode)
    theImportedSymbol                        0x00011434   Data           0  QtCore{00040703}-1885.o(StubCode)
    StubCode                                 0x00011438   Section        8  QtCore{00040703}-1947.o(StubCode)
    theImportedSymbol                        0x0001143c   Data           0  QtCore{00040703}-1947.o(StubCode)
    StubCode                                 0x00011440   Section        8  QtCore{00040703}-1949.o(StubCode)
    theImportedSymbol                        0x00011444   Data           0  QtCore{00040703}-1949.o(StubCode)
    StubCode                                 0x00011448   Section        8  QtCore{00040703}-2010.o(StubCode)
    theImportedSymbol                        0x0001144c   Data           0  QtCore{00040703}-2010.o(StubCode)
    StubCode                                 0x00011450   Section        8  QtCore{00040703}-2034.o(StubCode)
    theImportedSymbol                        0x00011454   Data           0  QtCore{00040703}-2034.o(StubCode)
    StubCode                                 0x00011458   Section        8  QtCore{00040703}-2037.o(StubCode)
    theImportedSymbol                        0x0001145c   Data           0  QtCore{00040703}-2037.o(StubCode)
    StubCode                                 0x00011460   Section        8  QtCore{00040703}-2038.o(StubCode)
    theImportedSymbol                        0x00011464   Data           0  QtCore{00040703}-2038.o(StubCode)
    StubCode                                 0x00011468   Section        8  QtCore{00040703}-2040.o(StubCode)
    theImportedSymbol                        0x0001146c   Data           0  QtCore{00040703}-2040.o(StubCode)
    StubCode                                 0x00011470   Section        8  QtCore{00040703}-2082.o(StubCode)
    theImportedSymbol                        0x00011474   Data           0  QtCore{00040703}-2082.o(StubCode)
    StubCode                                 0x00011478   Section        8  QtCore{00040703}-2084.o(StubCode)
    theImportedSymbol                        0x0001147c   Data           0  QtCore{00040703}-2084.o(StubCode)
    StubCode                                 0x00011480   Section        8  QtCore{00040703}-2134.o(StubCode)
    theImportedSymbol                        0x00011484   Data           0  QtCore{00040703}-2134.o(StubCode)
    StubCode                                 0x00011488   Section        8  QtCore{00040703}-2141.o(StubCode)
    theImportedSymbol                        0x0001148c   Data           0  QtCore{00040703}-2141.o(StubCode)
    StubCode                                 0x00011490   Section        8  QtCore{00040703}-2143.o(StubCode)
    theImportedSymbol                        0x00011494   Data           0  QtCore{00040703}-2143.o(StubCode)
    StubCode                                 0x00011498   Section        8  QtCore{00040703}-2188.o(StubCode)
    theImportedSymbol                        0x0001149c   Data           0  QtCore{00040703}-2188.o(StubCode)
    StubCode                                 0x000114a0   Section        8  QtCore{00040703}-2193.o(StubCode)
    theImportedSymbol                        0x000114a4   Data           0  QtCore{00040703}-2193.o(StubCode)
    StubCode                                 0x000114a8   Section        8  QtCore{00040703}-2197.o(StubCode)
    theImportedSymbol                        0x000114ac   Data           0  QtCore{00040703}-2197.o(StubCode)
    StubCode                                 0x000114b0   Section        8  QtCore{00040703}-2318.o(StubCode)
    theImportedSymbol                        0x000114b4   Data           0  QtCore{00040703}-2318.o(StubCode)
    StubCode                                 0x000114b8   Section        8  QtCore{00040703}-2321.o(StubCode)
    theImportedSymbol                        0x000114bc   Data           0  QtCore{00040703}-2321.o(StubCode)
    StubCode                                 0x000114c0   Section        8  QtCore{00040703}-2416.o(StubCode)
    theImportedSymbol                        0x000114c4   Data           0  QtCore{00040703}-2416.o(StubCode)
    StubCode                                 0x000114c8   Section        8  QtCore{00040703}-2418.o(StubCode)
    theImportedSymbol                        0x000114cc   Data           0  QtCore{00040703}-2418.o(StubCode)
    StubCode                                 0x000114d0   Section        8  QtCore{00040703}-274.o(StubCode)
    theImportedSymbol                        0x000114d4   Data           0  QtCore{00040703}-274.o(StubCode)
    StubCode                                 0x000114d8   Section        8  QtCore{00040703}-275.o(StubCode)
    theImportedSymbol                        0x000114dc   Data           0  QtCore{00040703}-275.o(StubCode)
    StubCode                                 0x000114e0   Section        8  QtCore{00040703}-276.o(StubCode)
    theImportedSymbol                        0x000114e4   Data           0  QtCore{00040703}-276.o(StubCode)
    StubCode                                 0x000114e8   Section        8  QtCore{00040703}-2792.o(StubCode)
    theImportedSymbol                        0x000114ec   Data           0  QtCore{00040703}-2792.o(StubCode)
    StubCode                                 0x000114f0   Section        8  QtCore{00040703}-2801.o(StubCode)
    theImportedSymbol                        0x000114f4   Data           0  QtCore{00040703}-2801.o(StubCode)
    StubCode                                 0x000114f8   Section        8  QtCore{00040703}-2812.o(StubCode)
    theImportedSymbol                        0x000114fc   Data           0  QtCore{00040703}-2812.o(StubCode)
    StubCode                                 0x00011500   Section        8  QtCore{00040703}-282.o(StubCode)
    theImportedSymbol                        0x00011504   Data           0  QtCore{00040703}-282.o(StubCode)
    StubCode                                 0x00011508   Section        8  QtCore{00040703}-2823.o(StubCode)
    theImportedSymbol                        0x0001150c   Data           0  QtCore{00040703}-2823.o(StubCode)
    StubCode                                 0x00011510   Section        8  QtCore{00040703}-2841.o(StubCode)
    theImportedSymbol                        0x00011514   Data           0  QtCore{00040703}-2841.o(StubCode)
    StubCode                                 0x00011518   Section        8  QtCore{00040703}-2842.o(StubCode)
    theImportedSymbol                        0x0001151c   Data           0  QtCore{00040703}-2842.o(StubCode)
    StubCode                                 0x00011520   Section        8  QtCore{00040703}-2848.o(StubCode)
    theImportedSymbol                        0x00011524   Data           0  QtCore{00040703}-2848.o(StubCode)
    StubCode                                 0x00011528   Section        8  QtCore{00040703}-2911.o(StubCode)
    theImportedSymbol                        0x0001152c   Data           0  QtCore{00040703}-2911.o(StubCode)
    StubCode                                 0x00011530   Section        8  QtCore{00040703}-3035.o(StubCode)
    theImportedSymbol                        0x00011534   Data           0  QtCore{00040703}-3035.o(StubCode)
    StubCode                                 0x00011538   Section        8  QtCore{00040703}-3040.o(StubCode)
    theImportedSymbol                        0x0001153c   Data           0  QtCore{00040703}-3040.o(StubCode)
    StubCode                                 0x00011540   Section        8  QtCore{00040703}-3052.o(StubCode)
    theImportedSymbol                        0x00011544   Data           0  QtCore{00040703}-3052.o(StubCode)
    StubCode                                 0x00011548   Section        8  QtCore{00040703}-3054.o(StubCode)
    theImportedSymbol                        0x0001154c   Data           0  QtCore{00040703}-3054.o(StubCode)
    StubCode                                 0x00011550   Section        8  QtCore{00040703}-3063.o(StubCode)
    theImportedSymbol                        0x00011554   Data           0  QtCore{00040703}-3063.o(StubCode)
    StubCode                                 0x00011558   Section        8  QtCore{00040703}-3064.o(StubCode)
    theImportedSymbol                        0x0001155c   Data           0  QtCore{00040703}-3064.o(StubCode)
    StubCode                                 0x00011560   Section        8  QtCore{00040703}-3071.o(StubCode)
    theImportedSymbol                        0x00011564   Data           0  QtCore{00040703}-3071.o(StubCode)
    StubCode                                 0x00011568   Section        8  QtCore{00040703}-3072.o(StubCode)
    theImportedSymbol                        0x0001156c   Data           0  QtCore{00040703}-3072.o(StubCode)
    StubCode                                 0x00011570   Section        8  QtCore{00040703}-3097.o(StubCode)
    theImportedSymbol                        0x00011574   Data           0  QtCore{00040703}-3097.o(StubCode)
    StubCode                                 0x00011578   Section        8  QtCore{00040703}-3098.o(StubCode)
    theImportedSymbol                        0x0001157c   Data           0  QtCore{00040703}-3098.o(StubCode)
    StubCode                                 0x00011580   Section        8  QtCore{00040703}-3101.o(StubCode)
    theImportedSymbol                        0x00011584   Data           0  QtCore{00040703}-3101.o(StubCode)
    StubCode                                 0x00011588   Section        8  QtCore{00040703}-312.o(StubCode)
    theImportedSymbol                        0x0001158c   Data           0  QtCore{00040703}-312.o(StubCode)
    StubCode                                 0x00011590   Section        8  QtCore{00040703}-3139.o(StubCode)
    theImportedSymbol                        0x00011594   Data           0  QtCore{00040703}-3139.o(StubCode)
    StubCode                                 0x00011598   Section        8  QtCore{00040703}-3142.o(StubCode)
    theImportedSymbol                        0x0001159c   Data           0  QtCore{00040703}-3142.o(StubCode)
    StubCode                                 0x000115a0   Section        8  QtCore{00040703}-32.o(StubCode)
    theImportedSymbol                        0x000115a4   Data           0  QtCore{00040703}-32.o(StubCode)
    StubCode                                 0x000115a8   Section        8  QtCore{00040703}-324.o(StubCode)
    theImportedSymbol                        0x000115ac   Data           0  QtCore{00040703}-324.o(StubCode)
    StubCode                                 0x000115b0   Section        8  QtCore{00040703}-331.o(StubCode)
    theImportedSymbol                        0x000115b4   Data           0  QtCore{00040703}-331.o(StubCode)
    StubCode                                 0x000115b8   Section        8  QtCore{00040703}-332.o(StubCode)
    theImportedSymbol                        0x000115bc   Data           0  QtCore{00040703}-332.o(StubCode)
    StubCode                                 0x000115c0   Section        8  QtCore{00040703}-3584.o(StubCode)
    theImportedSymbol                        0x000115c4   Data           0  QtCore{00040703}-3584.o(StubCode)
    StubCode                                 0x000115c8   Section        8  QtCore{00040703}-3607.o(StubCode)
    theImportedSymbol                        0x000115cc   Data           0  QtCore{00040703}-3607.o(StubCode)
    StubCode                                 0x000115d0   Section        8  QtCore{00040703}-3608.o(StubCode)
    theImportedSymbol                        0x000115d4   Data           0  QtCore{00040703}-3608.o(StubCode)
    StubCode                                 0x000115d8   Section        8  QtCore{00040703}-3609.o(StubCode)
    theImportedSymbol                        0x000115dc   Data           0  QtCore{00040703}-3609.o(StubCode)
    StubCode                                 0x000115e0   Section        8  QtCore{00040703}-3610.o(StubCode)
    theImportedSymbol                        0x000115e4   Data           0  QtCore{00040703}-3610.o(StubCode)
    StubCode                                 0x000115e8   Section        8  QtCore{00040703}-3689.o(StubCode)
    theImportedSymbol                        0x000115ec   Data           0  QtCore{00040703}-3689.o(StubCode)
    StubCode                                 0x000115f0   Section        8  QtCore{00040703}-3691.o(StubCode)
    theImportedSymbol                        0x000115f4   Data           0  QtCore{00040703}-3691.o(StubCode)
    StubCode                                 0x000115f8   Section        8  QtCore{00040703}-46.o(StubCode)
    theImportedSymbol                        0x000115fc   Data           0  QtCore{00040703}-46.o(StubCode)
    StubCode                                 0x00011600   Section        8  QtCore{00040703}-70.o(StubCode)
    theImportedSymbol                        0x00011604   Data           0  QtCore{00040703}-70.o(StubCode)
    StubCode                                 0x00011608   Section        8  QtCore{00040703}-73.o(StubCode)
    theImportedSymbol                        0x0001160c   Data           0  QtCore{00040703}-73.o(StubCode)
    StubCode                                 0x00011610   Section        8  QtCore{00040703}-94.o(StubCode)
    theImportedSymbol                        0x00011614   Data           0  QtCore{00040703}-94.o(StubCode)
    StubCode                                 0x00011618   Section        8  libc{00010000}-350.o(StubCode)
    theImportedSymbol                        0x0001161c   Data           0  libc{00010000}-350.o(StubCode)
    StubCode                                 0x00011620   Section        8  euser{000a0000}-1169.o(StubCode)
    theImportedSymbol                        0x00011624   Data           0  euser{000a0000}-1169.o(StubCode)
    StubCode                                 0x00011628   Section        8  euser{000a0000}-1170.o(StubCode)
    theImportedSymbol                        0x0001162c   Data           0  euser{000a0000}-1170.o(StubCode)
    StubCode                                 0x00011630   Section        8  euser{000a0000}-1171.o(StubCode)
    theImportedSymbol                        0x00011634   Data           0  euser{000a0000}-1171.o(StubCode)
    StubCode                                 0x00011638   Section        8  euser{000a0000}-120.o(StubCode)
    theImportedSymbol                        0x0001163c   Data           0  euser{000a0000}-120.o(StubCode)
    StubCode                                 0x00011640   Section        8  euser{000a0000}-1469.o(StubCode)
    theImportedSymbol                        0x00011644   Data           0  euser{000a0000}-1469.o(StubCode)
    StubCode                                 0x00011648   Section        8  euser{000a0000}-1507.o(StubCode)
    theImportedSymbol                        0x0001164c   Data           0  euser{000a0000}-1507.o(StubCode)
    StubCode                                 0x00011650   Section        8  euser{000a0000}-1508.o(StubCode)
    theImportedSymbol                        0x00011654   Data           0  euser{000a0000}-1508.o(StubCode)
    StubCode                                 0x00011658   Section        8  euser{000a0000}-1510.o(StubCode)
    theImportedSymbol                        0x0001165c   Data           0  euser{000a0000}-1510.o(StubCode)
    StubCode                                 0x00011660   Section        8  euser{000a0000}-1590.o(StubCode)
    theImportedSymbol                        0x00011664   Data           0  euser{000a0000}-1590.o(StubCode)
    StubCode                                 0x00011668   Section        8  euser{000a0000}-1593.o(StubCode)
    theImportedSymbol                        0x0001166c   Data           0  euser{000a0000}-1593.o(StubCode)
    StubCode                                 0x00011670   Section        8  euser{000a0000}-1649.o(StubCode)
    theImportedSymbol                        0x00011674   Data           0  euser{000a0000}-1649.o(StubCode)
    StubCode                                 0x00011678   Section        8  euser{000a0000}-1651.o(StubCode)
    theImportedSymbol                        0x0001167c   Data           0  euser{000a0000}-1651.o(StubCode)
    StubCode                                 0x00011680   Section        8  euser{000a0000}-1719.o(StubCode)
    theImportedSymbol                        0x00011684   Data           0  euser{000a0000}-1719.o(StubCode)
    StubCode                                 0x00011688   Section        8  euser{000a0000}-1807.o(StubCode)
    theImportedSymbol                        0x0001168c   Data           0  euser{000a0000}-1807.o(StubCode)
    StubCode                                 0x00011690   Section        8  euser{000a0000}-1822.o(StubCode)
    theImportedSymbol                        0x00011694   Data           0  euser{000a0000}-1822.o(StubCode)
    StubCode                                 0x00011698   Section        8  euser{000a0000}-202.o(StubCode)
    theImportedSymbol                        0x0001169c   Data           0  euser{000a0000}-202.o(StubCode)
    StubCode                                 0x000116a0   Section        8  euser{000a0000}-203.o(StubCode)
    theImportedSymbol                        0x000116a4   Data           0  euser{000a0000}-203.o(StubCode)
    StubCode                                 0x000116a8   Section        8  euser{000a0000}-2060.o(StubCode)
    theImportedSymbol                        0x000116ac   Data           0  euser{000a0000}-2060.o(StubCode)
    StubCode                                 0x000116b0   Section        8  euser{000a0000}-2061.o(StubCode)
    theImportedSymbol                        0x000116b4   Data           0  euser{000a0000}-2061.o(StubCode)
    StubCode                                 0x000116b8   Section        8  euser{000a0000}-207.o(StubCode)
    theImportedSymbol                        0x000116bc   Data           0  euser{000a0000}-207.o(StubCode)
    StubCode                                 0x000116c0   Section        8  euser{000a0000}-2082.o(StubCode)
    theImportedSymbol                        0x000116c4   Data           0  euser{000a0000}-2082.o(StubCode)
    StubCode                                 0x000116c8   Section        8  euser{000a0000}-2106.o(StubCode)
    theImportedSymbol                        0x000116cc   Data           0  euser{000a0000}-2106.o(StubCode)
    StubCode                                 0x000116d0   Section        8  euser{000a0000}-214.o(StubCode)
    theImportedSymbol                        0x000116d4   Data           0  euser{000a0000}-214.o(StubCode)
    StubCode                                 0x000116d8   Section        8  euser{000a0000}-44.o(StubCode)
    theImportedSymbol                        0x000116dc   Data           0  euser{000a0000}-44.o(StubCode)
    StubCode                                 0x000116e0   Section        8  euser{000a0000}-46.o(StubCode)
    theImportedSymbol                        0x000116e4   Data           0  euser{000a0000}-46.o(StubCode)
    StubCode                                 0x000116e8   Section        8  euser{000a0000}-47.o(StubCode)
    theImportedSymbol                        0x000116ec   Data           0  euser{000a0000}-47.o(StubCode)
    StubCode                                 0x000116f0   Section        8  euser{000a0000}-470.o(StubCode)
    theImportedSymbol                        0x000116f4   Data           0  euser{000a0000}-470.o(StubCode)
    StubCode                                 0x000116f8   Section        8  euser{000a0000}-471.o(StubCode)
    theImportedSymbol                        0x000116fc   Data           0  euser{000a0000}-471.o(StubCode)
    StubCode                                 0x00011700   Section        8  euser{000a0000}-48.o(StubCode)
    theImportedSymbol                        0x00011704   Data           0  euser{000a0000}-48.o(StubCode)
    StubCode                                 0x00011708   Section        8  euser{000a0000}-481.o(StubCode)
    theImportedSymbol                        0x0001170c   Data           0  euser{000a0000}-481.o(StubCode)
    StubCode                                 0x00011710   Section        8  euser{000a0000}-55.o(StubCode)
    theImportedSymbol                        0x00011714   Data           0  euser{000a0000}-55.o(StubCode)
    StubCode                                 0x00011718   Section        8  euser{000a0000}-593.o(StubCode)
    theImportedSymbol                        0x0001171c   Data           0  euser{000a0000}-593.o(StubCode)
    StubCode                                 0x00011720   Section        8  euser{000a0000}-651.o(StubCode)
    theImportedSymbol                        0x00011724   Data           0  euser{000a0000}-651.o(StubCode)
    StubCode                                 0x00011728   Section        8  euser{000a0000}-654.o(StubCode)
    theImportedSymbol                        0x0001172c   Data           0  euser{000a0000}-654.o(StubCode)
    StubCode                                 0x00011730   Section        8  euser{000a0000}-669.o(StubCode)
    theImportedSymbol                        0x00011734   Data           0  euser{000a0000}-669.o(StubCode)
    StubCode                                 0x00011738   Section        8  euser{000a0000}-670.o(StubCode)
    theImportedSymbol                        0x0001173c   Data           0  euser{000a0000}-670.o(StubCode)
    StubCode                                 0x00011740   Section        8  euser{000a0000}-671.o(StubCode)
    theImportedSymbol                        0x00011744   Data           0  euser{000a0000}-671.o(StubCode)
    StubCode                                 0x00011748   Section        8  euser{000a0000}-743.o(StubCode)
    theImportedSymbol                        0x0001174c   Data           0  euser{000a0000}-743.o(StubCode)
    StubCode                                 0x00011750   Section        8  euser{000a0000}-822.o(StubCode)
    theImportedSymbol                        0x00011754   Data           0  euser{000a0000}-822.o(StubCode)
    StubCode                                 0x00011758   Section        8  euser{000a0000}-839.o(StubCode)
    theImportedSymbol                        0x0001175c   Data           0  euser{000a0000}-839.o(StubCode)
    StubCode                                 0x00011760   Section        8  euser{000a0000}-891.o(StubCode)
    theImportedSymbol                        0x00011764   Data           0  euser{000a0000}-891.o(StubCode)
    StubCode                                 0x00011768   Section        8  euser{000a0000}-893.o(StubCode)
    theImportedSymbol                        0x0001176c   Data           0  euser{000a0000}-893.o(StubCode)
    StubCode                                 0x00011770   Section        8  dfpaeabi{000a0000}-19.o(StubCode)
    theImportedSymbol                        0x00011774   Data           0  dfpaeabi{000a0000}-19.o(StubCode)
    StubCode                                 0x00011778   Section        8  dfpaeabi{000a0000}-20.o(StubCode)
    theImportedSymbol                        0x0001177c   Data           0  dfpaeabi{000a0000}-20.o(StubCode)
    StubCode                                 0x00011780   Section        8  dfpaeabi{000a0000}-24.o(StubCode)
    theImportedSymbol                        0x00011784   Data           0  dfpaeabi{000a0000}-24.o(StubCode)
    StubCode                                 0x00011788   Section        8  dfpaeabi{000a0000}-25.o(StubCode)
    theImportedSymbol                        0x0001178c   Data           0  dfpaeabi{000a0000}-25.o(StubCode)
    StubCode                                 0x00011790   Section        8  dfpaeabi{000a0000}-36.o(StubCode)
    theImportedSymbol                        0x00011794   Data           0  dfpaeabi{000a0000}-36.o(StubCode)
    StubCode                                 0x00011798   Section        8  dfpaeabi{000a0000}-37.o(StubCode)
    theImportedSymbol                        0x0001179c   Data           0  dfpaeabi{000a0000}-37.o(StubCode)
    StubCode                                 0x000117a0   Section        8  dfpaeabi{000a0000}-4.o(StubCode)
    theImportedSymbol                        0x000117a4   Data           0  dfpaeabi{000a0000}-4.o(StubCode)
    StubCode                                 0x000117a8   Section        8  dfpaeabi{000a0000}-40.o(StubCode)
    theImportedSymbol                        0x000117ac   Data           0  dfpaeabi{000a0000}-40.o(StubCode)
    StubCode                                 0x000117b0   Section        8  dfpaeabi{000a0000}-41.o(StubCode)
    theImportedSymbol                        0x000117b4   Data           0  dfpaeabi{000a0000}-41.o(StubCode)
    StubCode                                 0x000117b8   Section        8  dfpaeabi{000a0000}-42.o(StubCode)
    theImportedSymbol                        0x000117bc   Data           0  dfpaeabi{000a0000}-42.o(StubCode)
    StubCode                                 0x000117c0   Section        8  dfpaeabi{000a0000}-5.o(StubCode)
    theImportedSymbol                        0x000117c4   Data           0  dfpaeabi{000a0000}-5.o(StubCode)
    StubCode                                 0x000117c8   Section        8  dfpaeabi{000a0000}-6.o(StubCode)
    theImportedSymbol                        0x000117cc   Data           0  dfpaeabi{000a0000}-6.o(StubCode)
    StubCode                                 0x000117d0   Section        8  dfpaeabi{000a0000}-8.o(StubCode)
    theImportedSymbol                        0x000117d4   Data           0  dfpaeabi{000a0000}-8.o(StubCode)
    StubCode                                 0x000117d8   Section        8  drtaeabi{000a0000}-135.o(StubCode)
    theImportedSymbol                        0x000117dc   Data           0  drtaeabi{000a0000}-135.o(StubCode)
    StubCode                                 0x000117e0   Section        8  drtaeabi{000a0000}-139.o(StubCode)
    theImportedSymbol                        0x000117e4   Data           0  drtaeabi{000a0000}-139.o(StubCode)
    StubCode                                 0x000117e8   Section        8  drtaeabi{000a0000}-147.o(StubCode)
    theImportedSymbol                        0x000117ec   Data           0  drtaeabi{000a0000}-147.o(StubCode)
    StubCode                                 0x000117f0   Section        8  drtaeabi{000a0000}-155.o(StubCode)
    theImportedSymbol                        0x000117f4   Data           0  drtaeabi{000a0000}-155.o(StubCode)
    StubCode                                 0x000117f8   Section        8  drtaeabi{000a0000}-158.o(StubCode)
    theImportedSymbol                        0x000117fc   Data           0  drtaeabi{000a0000}-158.o(StubCode)
    StubCode                                 0x00011800   Section        8  drtaeabi{000a0000}-180.o(StubCode)
    theImportedSymbol                        0x00011804   Data           0  drtaeabi{000a0000}-180.o(StubCode)
    StubCode                                 0x00011808   Section        8  drtaeabi{000a0000}-183.o(StubCode)
    theImportedSymbol                        0x0001180c   Data           0  drtaeabi{000a0000}-183.o(StubCode)
    StubCode                                 0x00011810   Section        8  drtaeabi{000a0000}-184.o(StubCode)
    theImportedSymbol                        0x00011814   Data           0  drtaeabi{000a0000}-184.o(StubCode)
    StubCode                                 0x00011818   Section        8  drtaeabi{000a0000}-186.o(StubCode)
    theImportedSymbol                        0x0001181c   Data           0  drtaeabi{000a0000}-186.o(StubCode)
    StubCode                                 0x00011820   Section        8  drtaeabi{000a0000}-187.o(StubCode)
    theImportedSymbol                        0x00011824   Data           0  drtaeabi{000a0000}-187.o(StubCode)
    StubCode                                 0x00011828   Section        8  drtaeabi{000a0000}-188.o(StubCode)
    theImportedSymbol                        0x0001182c   Data           0  drtaeabi{000a0000}-188.o(StubCode)
    StubCode                                 0x00011830   Section        8  drtaeabi{000a0000}-189.o(StubCode)
    theImportedSymbol                        0x00011834   Data           0  drtaeabi{000a0000}-189.o(StubCode)
    StubCode                                 0x00011838   Section        8  drtaeabi{000a0000}-190.o(StubCode)
    theImportedSymbol                        0x0001183c   Data           0  drtaeabi{000a0000}-190.o(StubCode)
    StubCode                                 0x00011840   Section        8  drtrvct2_2{000a0000}-28.o(StubCode)
    theImportedSymbol                        0x00011844   Data           0  drtrvct2_2{000a0000}-28.o(StubCode)
    StubCode                                 0x00011848   Section        8  drtrvct2_2{000a0000}-51.o(StubCode)
    theImportedSymbol                        0x0001184c   Data           0  drtrvct2_2{000a0000}-51.o(StubCode)
    StubCode                                 0x00011850   Section        8  drtrvct2_2{000a0000}-56.o(StubCode)
    theImportedSymbol                        0x00011854   Data           0  drtrvct2_2{000a0000}-56.o(StubCode)
    StubCode                                 0x00011858   Section        8  drtrvct2_2{000a0000}-57.o(StubCode)
    theImportedSymbol                        0x0001185c   Data           0  drtrvct2_2{000a0000}-57.o(StubCode)
    i._Z23qStringComparisonHelperRK7QStringPKc 0x00011860   Section       60  qtmultimediakit_mmfengine.in(i._Z23qStringComparisonHelperRK7QStringPKc)
    i._Z23qStringComparisonHelperRK7QStringPKc.clean 0x0001189c   Section       10  qtmultimediakit_mmfengine.in(i._Z23qStringComparisonHelperRK7QStringPKc.clean)
    i._Z8qWarningv                           0x000118a8   Section       72  qtmultimediakit_mmfengine.in(i._Z8qWarningv)
    i._Z8qWarningv.clean                     0x000118f0   Section       18  qtmultimediakit_mmfengine.in(i._Z8qWarningv.clean)
    i._ZN10QByteArrayD1Ev                    0x00011902   Section       24  qtmultimediakit_mmfengine.in(i._ZN10QByteArrayD1Ev)
    i._ZN11QStringListC1ERK5QListI7QStringE  0x0001191a   Section        8  qtmultimediakit_mmfengine.in(i._ZN11QStringListC1ERK5QListI7QStringE)
    i._ZN11QStringListC1ERKS_                0x00011922   Section       30  qtmultimediakit_mmfengine.in(i._ZN11QStringListC1ERKS_)
    i._ZN11QStringListC1Ev                   0x00011940   Section       20  qtmultimediakit_mmfengine.in(i._ZN11QStringListC1Ev)
    i._ZN11QStringListD1Ev                   0x00011954   Section        8  qtmultimediakit_mmfengine.in(i._ZN11QStringListD1Ev)
    i._ZN11QStringListlsERK7QString          0x0001195c   Section       12  qtmultimediakit_mmfengine.in(i._ZN11QStringListlsERK7QString)
    i._ZN14ControllerDataC1ERKS_             0x00011968   Section       42  qtmultimediakit_mmfengine.in(i._ZN14ControllerDataC1ERKS_)
    i._ZN14ControllerDataC1ERKS_.clean       0x00011992   Section       12  qtmultimediakit_mmfengine.in(i._ZN14ControllerDataC1ERKS_.clean)
    i._ZN14ControllerDataC1Ev                0x0001199e   Section       24  qtmultimediakit_mmfengine.in(i._ZN14ControllerDataC1Ev)
    i._ZN14ControllerDataC1Ev.clean          0x000119b6   Section       12  qtmultimediakit_mmfengine.in(i._ZN14ControllerDataC1Ev.clean)
    i._ZN14ControllerDataD1Ev                0x000119c2   Section       20  qtmultimediakit_mmfengine.in(i._ZN14ControllerDataD1Ev)
    i._ZN14ControllerDataD1Ev.clean          0x000119d6   Section       12  qtmultimediakit_mmfengine.in(i._ZN14ControllerDataD1Ev.clean)
    i._ZN15QBasicAtomicInt3refEv             0x000119e2   Section       18  qtmultimediakit_mmfengine.in(i._ZN15QBasicAtomicInt3refEv)
    i._ZN15QBasicAtomicInt5derefEv           0x000119f4   Section       18  qtmultimediakit_mmfengine.in(i._ZN15QBasicAtomicInt5derefEv)
    i._ZN16S60MediaSettingsD1Ev              0x00011a06   Section       12  qtmultimediakit_mmfengine.in(i._ZN16S60MediaSettingsD1Ev)
    i._ZN17QForeachContainerI11QStringListED1Ev 0x00011a12   Section        8  qtmultimediakit_mmfengine.in(i._ZN17QForeachContainerI11QStringListED1Ev)
    i._ZN20S60RadioTunerControl2trEPKcS1_    0x00011a1c   Section       20  qtmultimediakit_mmfengine.in(i._ZN20S60RadioTunerControl2trEPKcS1_)
    i._ZN21S60AudioPlayerSession10doLoadUrlLERK7TDesC16 0x00011a30   Section        2  qtmultimediakit_mmfengine.in(i._ZN21S60AudioPlayerSession10doLoadUrlLERK7TDesC16)
    i._ZN21S60MediaServicePluginC1Ev         0x00011a34   Section       40  qtmultimediakit_mmfengine.in(i._ZN21S60MediaServicePluginC1Ev)
    i._ZN21S60MediaServicePluginC1Ev.clean   0x00011a5c   Section       18  qtmultimediakit_mmfengine.in(i._ZN21S60MediaServicePluginC1Ev.clean)
    i._ZN21S60MediaServicePluginD0Ev         0x00011a6e   Section       16  qtmultimediakit_mmfengine.in(i._ZN21S60MediaServicePluginD0Ev)
    i._ZN21S60MediaServicePluginD1Ev         0x00011a80   Section       36  qtmultimediakit_mmfengine.in(i._ZN21S60MediaServicePluginD1Ev)
    i._ZN21S60MediaServicePluginD1Ev.clean   0x00011aa4   Section       18  qtmultimediakit_mmfengine.in(i._ZN21S60MediaServicePluginD1Ev.clean)
    i._ZN24S60AudioContainerControlD0Ev      0x00011ab6   Section       16  qtmultimediakit_mmfengine.in(i._ZN24S60AudioContainerControlD0Ev)
    i._ZN24S60AudioContainerControlD1Ev      0x00011ac6   Section        8  qtmultimediakit_mmfengine.in(i._ZN24S60AudioContainerControlD1Ev)
    i._ZN27QMediaServiceProviderPluginD2Ev   0x00011ace   Section        8  qtmultimediakit_mmfengine.in(i._ZN27QMediaServiceProviderPluginD2Ev)
    i._ZN28S60AudioMediaRecorderControl13applySettingsEv 0x00011ad6   Section        2  qtmultimediakit_mmfengine.in(i._ZN28S60AudioMediaRecorderControl13applySettingsEv)
    i._ZN38QMediaServiceSupportedFormatsInterfaceD2Ev 0x00011ad8   Section        2  qtmultimediakit_mmfengine.in(i._ZN38QMediaServiceSupportedFormatsInterfaceD2Ev)
    i._ZN5QRectC1Ev                          0x00011ada   Section       14  qtmultimediakit_mmfengine.in(i._ZN5QRectC1Ev)
    i._ZN6QDebugD1Ev                         0x00011ae8   Section      126  qtmultimediakit_mmfengine.in(i._ZN6QDebugD1Ev)
    i._ZN6QDebugD1Ev.clean                   0x00011b66   Section       20  qtmultimediakit_mmfengine.in(i._ZN6QDebugD1Ev.clean)
    i._ZN6RArrayIjEC1Ev                      0x00011b7a   Section        8  qtmultimediakit_mmfengine.in(i._ZN6RArrayIjEC1Ev)
    i._ZN6RArrayIjEixEi                      0x00011b82   Section        8  qtmultimediakit_mmfengine.in(i._ZN6RArrayIjEixEi)
    i._ZN7QString6appendEPKc                 0x00011b8a   Section       34  qtmultimediakit_mmfengine.in(i._ZN7QString6appendEPKc)
    i._ZN7QString6appendEPKc.clean           0x00011bac   Section       10  qtmultimediakit_mmfengine.in(i._ZN7QString6appendEPKc.clean)
    i._ZN7QStringC1EPKc                      0x00011bb6   Section       20  qtmultimediakit_mmfengine.in(i._ZN7QStringC1EPKc)
    i._ZN7QStringC1ERK13QLatin1String        0x00011bca   Section       20  qtmultimediakit_mmfengine.in(i._ZN7QStringC1ERK13QLatin1String)
    i._ZN7QStringC1ERKS_                     0x00011bde   Section       16  qtmultimediakit_mmfengine.in(i._ZN7QStringC1ERKS_)
    i._ZN7QStringC1Ev                        0x00011bf0   Section       20  qtmultimediakit_mmfengine.in(i._ZN7QStringC1Ev)
    i._ZN7QStringD1Ev                        0x00011c04   Section       24  qtmultimediakit_mmfengine.in(i._ZN7QStringD1Ev)
    i._ZN8QVariantC1Ev                       0x00011c1c   Section       24  qtmultimediakit_mmfengine.in(i._ZN8QVariantC1Ev)
    i._ZN9CodecDataC1ERKS_                   0x00011c34   Section       14  qtmultimediakit_mmfengine.in(i._ZN9CodecDataC1ERKS_)
    i._ZN9CodecDataC1Ev                      0x00011c44   Section       20  qtmultimediakit_mmfengine.in(i._ZN9CodecDataC1Ev)
    i._ZN9CodecDataD1Ev                      0x00011c58   Section       12  qtmultimediakit_mmfengine.in(i._ZN9CodecDataD1Ev)
    i._ZN9CodecDataaSERKS_                   0x00011c64   Section       18  qtmultimediakit_mmfengine.in(i._ZN9CodecDataaSERKS_)
    i._ZN9QHashData8willGrowEv               0x00011c76   Section       28  qtmultimediakit_mmfengine.in(i._ZN9QHashData8willGrowEv)
    i._ZN9QHashData9firstNodeEv              0x00011c92   Section       24  qtmultimediakit_mmfengine.in(i._ZN9QHashData9firstNodeEv)
    i._ZNK15QBasicAtomicIntneEi              0x00011caa   Section       14  qtmultimediakit_mmfengine.in(i._ZNK15QBasicAtomicIntneEi)
    i._ZNK16S60MediaSettings13audioEndpointEv 0x00011cb8   Section       14  qtmultimediakit_mmfengine.in(i._ZNK16S60MediaSettings13audioEndpointEv)
    i._ZNK21S60MediaPlayerSession13getIsSeekableEv 0x00011cc6   Section        4  qtmultimediakit_mmfengine.in(i._ZNK21S60MediaPlayerSession13getIsSeekableEv)
    i._ZNK5QBoolcvPKvEv                      0x00011cca   Section       14  qtmultimediakit_mmfengine.in(i._ZNK5QBoolcvPKvEv)
    i._ZNK5QRect4sizeEv                      0x00011cd8   Section       22  qtmultimediakit_mmfengine.in(i._ZNK5QRect4sizeEv)
    i._ZNK6RArrayIjE5CountEv                 0x00011cee   Section        8  qtmultimediakit_mmfengine.in(i._ZNK6RArrayIjE5CountEv)
    i._ZNK7QStringeqEPKc                     0x00011cf6   Section        8  qtmultimediakit_mmfengine.in(i._ZNK7QStringeqEPKc)
    i._ZNK9QListData3endEv                   0x00011cfe   Section       12  qtmultimediakit_mmfengine.in(i._ZNK9QListData3endEv)
    i._ZNK9QListData5beginEv                 0x00011d0a   Section       12  qtmultimediakit_mmfengine.in(i._ZNK9QListData5beginEv)
    i._ZThn12_N21S60MediaServicePluginD0Ev   0x00011d16   Section       10  qtmultimediakit_mmfengine.in(i._ZThn12_N21S60MediaServicePluginD0Ev)
    i._ZThn12_N21S60MediaServicePluginD1Ev   0x00011d20   Section       10  qtmultimediakit_mmfengine.in(i._ZThn12_N21S60MediaServicePluginD1Ev)
    i._ZThn8_N21S60MediaServicePluginD0Ev    0x00011d2a   Section       10  qtmultimediakit_mmfengine.in(i._ZThn8_N21S60MediaServicePluginD0Ev)
    i._ZThn8_N21S60MediaServicePluginD1Ev    0x00011d34   Section       10  qtmultimediakit_mmfengine.in(i._ZThn8_N21S60MediaServicePluginD1Ev)
    i._ZdlPvS_                               0x00011d3e   Section        2  qtmultimediakit_mmfengine.in(i._ZdlPvS_)
    i._ZnwjPv                                0x00011d40   Section        4  qtmultimediakit_mmfengine.in(i._ZnwjPv)
    t._Z17CleanupClosePushLI6RArrayIjEEvRT_  0x00011d44   Section       16  qtmultimediakit_mmfengine.in(t._Z17CleanupClosePushLI6RArrayIjEEvRT_)
    t._Z4qAbsIfET_RKS0_                      0x00011d54   Section       26  qtmultimediakit_mmfengine.in(t._Z4qAbsIfET_RKS0_)
    t._ZN12CleanupCloseI6RArrayI4TUidEE5CloseEPv 0x00011d6e   Section        8  qtmultimediakit_mmfengine.in(t._ZN12CleanupCloseI6RArrayI4TUidEE5CloseEPv)
    t._ZN12CleanupCloseI6RArrayI7TFourCCEE5CloseEPv 0x00011d76   Section        8  qtmultimediakit_mmfengine.in(t._ZN12CleanupCloseI6RArrayI7TFourCCEE5CloseEPv)
    t._ZN12CleanupCloseI6RArrayIjEE5CloseEPv 0x00011d7e   Section        8  qtmultimediakit_mmfengine.in(t._ZN12CleanupCloseI6RArrayIjEE5CloseEPv)
    t._ZN14QScopedPointerI18S60MediaRecognizer21QScopedPointerDeleterIS0_EED1Ev 0x00011d86   Section       24  qtmultimediakit_mmfengine.in(t._ZN14QScopedPointerI18S60MediaRecognizer21QScopedPointerDeleterIS0_EED1Ev)
    t._ZN14QScopedPointerI7QWidget21QScopedPointerDeleterIS0_EED1Ev 0x00011d9e   Section       24  qtmultimediakit_mmfengine.in(t._ZN14QScopedPointerI7QWidget21QScopedPointerDeleterIS0_EED1Ev)
    t._ZN22CleanupResetAndDestroyI13RPointerArrayI39CMMFControllerImplementationInformationEE15ResetAndDestroyEPv 0x00011db6   Section       48  qtmultimediakit_mmfengine.in(t._ZN22CleanupResetAndDestroyI13RPointerArrayI39CMMFControllerImplementationInformationEE15ResetAndDestroyEPv)
    t._ZN4QMapI7QString8QVariantE11node_createEP8QMapDataPPNS3_4NodeERKS0_RKS1_ 0x00011de6   Section      108  qtmultimediakit_mmfengine.in(t._ZN4QMapI7QString8QVariantE11node_createEP8QMapDataPPNS3_4NodeERKS0_RKS1_)
    t._ZN4QMapI7QString8QVariantE11node_createEP8QMapDataPPNS3_4NodeERKS0_RKS1_.clean 0x00011e52   Section       38  qtmultimediakit_mmfengine.in(t._ZN4QMapI7QString8QVariantE11node_createEP8QMapDataPPNS3_4NodeERKS0_RKS1_.clean)
    t._ZN4QMapI7QString8QVariantE13detach_helperEv 0x00011e78   Section      116  qtmultimediakit_mmfengine.in(t._ZN4QMapI7QString8QVariantE13detach_helperEv)
    t._ZN4QMapI7QString8QVariantE13detach_helperEv.clean 0x00011eec   Section        8  qtmultimediakit_mmfengine.in(t._ZN4QMapI7QString8QVariantE13detach_helperEv.clean)
    t._ZN4QMapI7QString8QVariantE5clearEv    0x00011ef4   Section       96  qtmultimediakit_mmfengine.in(t._ZN4QMapI7QString8QVariantE5clearEv)
    t._ZN4QMapI7QString8QVariantE5clearEv.clean 0x00011f54   Section       10  qtmultimediakit_mmfengine.in(t._ZN4QMapI7QString8QVariantE5clearEv.clean)
    t._ZN4QMapI7QString8QVariantE6insertERKS0_RKS1_ 0x00011f5e   Section      136  qtmultimediakit_mmfengine.in(t._ZN4QMapI7QString8QVariantE6insertERKS0_RKS1_)
    t._ZN4QMapI7QString8QVariantE8freeDataEP8QMapData 0x00011fe6   Section       44  qtmultimediakit_mmfengine.in(t._ZN4QMapI7QString8QVariantE8freeDataEP8QMapData)
    t._ZN4QMapI7QString8QVariantED1Ev        0x00012012   Section       32  qtmultimediakit_mmfengine.in(t._ZN4QMapI7QString8QVariantED1Ev)
    t._ZN4QMapI7QStringS0_ED1Ev              0x00012032   Section       62  qtmultimediakit_mmfengine.in(t._ZN4QMapI7QStringS0_ED1Ev)
    t._ZN5QHashI7QString14ControllerDataE11deleteNode2EPN9QHashData4NodeE 0x00012070   Section       18  qtmultimediakit_mmfengine.in(t._ZN5QHashI7QString14ControllerDataE11deleteNode2EPN9QHashData4NodeE)
    t._ZN5QHashI7QString14ControllerDataE11deleteNode2EPN9QHashData4NodeE.clean 0x00012082   Section       12  qtmultimediakit_mmfengine.in(t._ZN5QHashI7QString14ControllerDataE11deleteNode2EPN9QHashData4NodeE.clean)
    t._ZN5QHashI7QString14ControllerDataE13duplicateNodeEPN9QHashData4NodeEPv 0x0001208e   Section       30  qtmultimediakit_mmfengine.in(t._ZN5QHashI7QString14ControllerDataE13duplicateNodeEPN9QHashData4NodeEPv)
    t._ZN5QHashI7QString14ControllerDataE13duplicateNodeEPN9QHashData4NodeEPv.clean 0x000120ac   Section       12  qtmultimediakit_mmfengine.in(t._ZN5QHashI7QString14ControllerDataE13duplicateNodeEPN9QHashData4NodeEPv.clean)
    t._ZN5QHashI7QString14ControllerDataE6detachEv 0x000120b8   Section       68  qtmultimediakit_mmfengine.in(t._ZN5QHashI7QString14ControllerDataE6detachEv)
    t._ZN5QHashI7QString14ControllerDataE8freeDataEP9QHashData 0x000120fc   Section       16  qtmultimediakit_mmfengine.in(t._ZN5QHashI7QString14ControllerDataE8freeDataEP9QHashData)
    t._ZN5QHashI7QString14ControllerDataED1Ev 0x0001210c   Section       28  qtmultimediakit_mmfengine.in(t._ZN5QHashI7QString14ControllerDataED1Ev)
    t._ZN5QHashI7QString14ControllerDataEixERKS0_ 0x00012128   Section      142  qtmultimediakit_mmfengine.in(t._ZN5QHashI7QString14ControllerDataEixERKS0_)
    t._ZN5QHashI7QString14ControllerDataEixERKS0_.clean 0x000121b6   Section       20  qtmultimediakit_mmfengine.in(t._ZN5QHashI7QString14ControllerDataEixERKS0_.clean)
    t._ZN5QHashI7QString9CodecDataE11deleteNode2EPN9QHashData4NodeE 0x000121ca   Section       18  qtmultimediakit_mmfengine.in(t._ZN5QHashI7QString9CodecDataE11deleteNode2EPN9QHashData4NodeE)
    t._ZN5QHashI7QString9CodecDataE11deleteNode2EPN9QHashData4NodeE.clean 0x000121dc   Section       12  qtmultimediakit_mmfengine.in(t._ZN5QHashI7QString9CodecDataE11deleteNode2EPN9QHashData4NodeE.clean)
    t._ZN5QHashI7QString9CodecDataE13duplicateNodeEPN9QHashData4NodeEPv 0x000121e8   Section       30  qtmultimediakit_mmfengine.in(t._ZN5QHashI7QString9CodecDataE13duplicateNodeEPN9QHashData4NodeEPv)
    t._ZN5QHashI7QString9CodecDataE13duplicateNodeEPN9QHashData4NodeEPv.clean 0x00012206   Section       12  qtmultimediakit_mmfengine.in(t._ZN5QHashI7QString9CodecDataE13duplicateNodeEPN9QHashData4NodeEPv.clean)
    t._ZN5QHashI7QString9CodecDataE6detachEv 0x00012214   Section       68  qtmultimediakit_mmfengine.in(t._ZN5QHashI7QString9CodecDataE6detachEv)
    t._ZN5QHashI7QString9CodecDataE8freeDataEP9QHashData 0x00012258   Section       16  qtmultimediakit_mmfengine.in(t._ZN5QHashI7QString9CodecDataE8freeDataEP9QHashData)
    t._ZN5QHashI7QString9CodecDataED1Ev      0x00012268   Section       28  qtmultimediakit_mmfengine.in(t._ZN5QHashI7QString9CodecDataED1Ev)
    t._ZN5QHashI7QString9CodecDataEixERKS0_  0x00012284   Section      140  qtmultimediakit_mmfengine.in(t._ZN5QHashI7QString9CodecDataEixERKS0_)
    t._ZN5QHashI7QString9CodecDataEixERKS0_.clean 0x00012310   Section       20  qtmultimediakit_mmfengine.in(t._ZN5QHashI7QString9CodecDataEixERKS0_.clean)
    t._ZN5QListI7QStringE13detach_helperEi   0x00012324   Section       86  qtmultimediakit_mmfengine.in(t._ZN5QListI7QStringE13detach_helperEi)
    t._ZN5QListI7QStringE13detach_helperEi.clean 0x0001237a   Section        8  qtmultimediakit_mmfengine.in(t._ZN5QListI7QStringE13detach_helperEi.clean)
    t._ZN5QListI7QStringE13detach_helperEv   0x00012382   Section       12  qtmultimediakit_mmfengine.in(t._ZN5QListI7QStringE13detach_helperEv)
    t._ZN5QListI7QStringE14node_constructEPNS1_4NodeERKS0_ 0x0001238e   Section       26  qtmultimediakit_mmfengine.in(t._ZN5QListI7QStringE14node_constructEPNS1_4NodeERKS0_)
    t._ZN5QListI7QStringE14node_constructEPNS1_4NodeERKS0_.clean 0x000123a8   Section       12  qtmultimediakit_mmfengine.in(t._ZN5QListI7QStringE14node_constructEPNS1_4NodeERKS0_.clean)
    t._ZN5QListI7QStringE18detach_helper_growEii 0x000123b4   Section      186  qtmultimediakit_mmfengine.in(t._ZN5QListI7QStringE18detach_helper_growEii)
    t._ZN5QListI7QStringE18detach_helper_growEii.clean 0x0001246e   Section        8  qtmultimediakit_mmfengine.in(t._ZN5QListI7QStringE18detach_helper_growEii.clean)
    t._ZN5QListI7QStringE4freeEPN9QListData4DataE 0x00012476   Section       48  qtmultimediakit_mmfengine.in(t._ZN5QListI7QStringE4freeEPN9QListData4DataE)
    t._ZN5QListI7QStringE6appendERKS0_       0x000124a8   Section       96  qtmultimediakit_mmfengine.in(t._ZN5QListI7QStringE6appendERKS0_)
    t._ZN5QListI7QStringE6appendERKS0_.clean 0x00012508   Section        8  qtmultimediakit_mmfengine.in(t._ZN5QListI7QStringE6appendERKS0_.clean)
    t._ZN5QListI7QStringE7reserveEi          0x00012510   Section       44  qtmultimediakit_mmfengine.in(t._ZN5QListI7QStringE7reserveEi)
    t._ZN5QListI7QStringE9node_copyEPNS1_4NodeES3_S3_ 0x0001253c   Section       70  qtmultimediakit_mmfengine.in(t._ZN5QListI7QStringE9node_copyEPNS1_4NodeES3_S3_)
    t._ZN5QListI7QStringE9node_copyEPNS1_4NodeES3_S3_.clean 0x00012582   Section       22  qtmultimediakit_mmfengine.in(t._ZN5QListI7QStringE9node_copyEPNS1_4NodeES3_S3_.clean)
    t._ZN5QListI7QStringEC1ERKS1_            0x00012598   Section       30  qtmultimediakit_mmfengine.in(t._ZN5QListI7QStringEC1ERKS1_)
    t._ZN5QListI7QStringEC1Ev                0x000125b8   Section       20  qtmultimediakit_mmfengine.in(t._ZN5QListI7QStringEC1Ev)
    t._ZN5QListI7QStringED1Ev                0x000125cc   Section       30  qtmultimediakit_mmfengine.in(t._ZN5QListI7QStringED1Ev)
    t._ZN5QListI7QStringEaSERKS1_            0x000125ea   Section       54  qtmultimediakit_mmfengine.in(t._ZN5QListI7QStringEaSERKS1_)
    t._ZN5QListI7QStringEixEi                0x00012620   Section       40  qtmultimediakit_mmfengine.in(t._ZN5QListI7QStringEixEi)
    t._ZN5QListI7QStringEpLERKS1_            0x00012648   Section      136  qtmultimediakit_mmfengine.in(t._ZN5QListI7QStringEpLERKS1_)
    t._ZN5QListI7QStringEpLERKS1_.clean      0x000126d0   Section        8  qtmultimediakit_mmfengine.in(t._ZN5QListI7QStringEpLERKS1_.clean)
    t._ZN5QListIN11QVideoFrame11PixelFormatEEC1Ev 0x000126d8   Section       20  qtmultimediakit_mmfengine.in(t._ZN5QListIN11QVideoFrame11PixelFormatEEC1Ev)
    t._ZN5QListIN11QVideoFrame11PixelFormatEED1Ev 0x000126ec   Section       66  qtmultimediakit_mmfengine.in(t._ZN5QListIN11QVideoFrame11PixelFormatEED1Ev)
    t._ZN5QListIN15QtMultimediaKit8MetaDataEE13node_destructEPNS2_4NodeES4_ 0x0001272e   Section       22  qtmultimediakit_mmfengine.in(t._ZN5QListIN15QtMultimediaKit8MetaDataEE13node_destructEPNS2_4NodeES4_)
    t._ZN5QListIN15QtMultimediaKit8MetaDataEE14node_constructEPNS2_4NodeERKS1_ 0x00012744   Section       28  qtmultimediakit_mmfengine.in(t._ZN5QListIN15QtMultimediaKit8MetaDataEE14node_constructEPNS2_4NodeERKS1_)
    t._ZN5QListIN15QtMultimediaKit8MetaDataEE18detach_helper_growEii 0x00012760   Section      180  qtmultimediakit_mmfengine.in(t._ZN5QListIN15QtMultimediaKit8MetaDataEE18detach_helper_growEii)
    t._ZN5QListIN15QtMultimediaKit8MetaDataEE18detach_helper_growEii.clean 0x00012814   Section        8  qtmultimediakit_mmfengine.in(t._ZN5QListIN15QtMultimediaKit8MetaDataEE18detach_helper_growEii.clean)
    t._ZN5QListIN15QtMultimediaKit8MetaDataEE4freeEPN9QListData4DataE 0x0001281c   Section       38  qtmultimediakit_mmfengine.in(t._ZN5QListIN15QtMultimediaKit8MetaDataEE4freeEPN9QListData4DataE)
    t._ZN5QListIN15QtMultimediaKit8MetaDataEE6appendERKS1_ 0x00012844   Section       96  qtmultimediakit_mmfengine.in(t._ZN5QListIN15QtMultimediaKit8MetaDataEE6appendERKS1_)
    t._ZN5QListIN15QtMultimediaKit8MetaDataEE6appendERKS1_.clean 0x000128a4   Section        8  qtmultimediakit_mmfengine.in(t._ZN5QListIN15QtMultimediaKit8MetaDataEE6appendERKS1_.clean)
    t._ZN5QListIN15QtMultimediaKit8MetaDataEE9node_copyEPNS2_4NodeES4_S4_ 0x000128ac   Section       40  qtmultimediakit_mmfengine.in(t._ZN5QListIN15QtMultimediaKit8MetaDataEE9node_copyEPNS2_4NodeES4_S4_)
    t._ZN5QListIN15QtMultimediaKit8MetaDataEED1Ev 0x000128d4   Section       30  qtmultimediakit_mmfengine.in(t._ZN5QListIN15QtMultimediaKit8MetaDataEED1Ev)
    t._ZN5QListIiE13detach_helperEv          0x000128f2   Section       88  qtmultimediakit_mmfengine.in(t._ZN5QListIiE13detach_helperEv)
    t._ZN5QListIiE13detach_helperEv.clean    0x0001294a   Section        8  qtmultimediakit_mmfengine.in(t._ZN5QListIiE13detach_helperEv.clean)
    t._ZN5QListIiE18detach_helper_growEii    0x00012952   Section      164  qtmultimediakit_mmfengine.in(t._ZN5QListIiE18detach_helper_growEii)
    t._ZN5QListIiE18detach_helper_growEii.clean 0x000129f6   Section        8  qtmultimediakit_mmfengine.in(t._ZN5QListIiE18detach_helper_growEii.clean)
    t._ZN5QListIiE4freeEPN9QListData4DataE   0x000129fe   Section       16  qtmultimediakit_mmfengine.in(t._ZN5QListIiE4freeEPN9QListData4DataE)
    t._ZN5QListIiE6appendERKi                0x00012a10   Section       60  qtmultimediakit_mmfengine.in(t._ZN5QListIiE6appendERKi)
    t._ZN5QListIiE6appendERKi.clean          0x00012a4c   Section       10  qtmultimediakit_mmfengine.in(t._ZN5QListIiE6appendERKi.clean)
    t._ZN5QListIiE9node_copyEPNS0_4NodeES2_S2_ 0x00012a56   Section       28  qtmultimediakit_mmfengine.in(t._ZN5QListIiE9node_copyEPNS0_4NodeES2_S2_)
    t._ZN5QListIiEC1Ev                       0x00012a74   Section       20  qtmultimediakit_mmfengine.in(t._ZN5QListIiEC1Ev)
    t._ZN5QListIiED1Ev                       0x00012a88   Section       30  qtmultimediakit_mmfengine.in(t._ZN5QListIiED1Ev)
    t._ZN5QListIiEaSERKS0_                   0x00012aa6   Section       54  qtmultimediakit_mmfengine.in(t._ZN5QListIiEaSERKS0_)
    t._ZN5QListIiElsERKi                     0x00012adc   Section       12  qtmultimediakit_mmfengine.in(t._ZN5QListIiElsERKi)
    t._ZN5QPairIiiEC1Ev                      0x00012ae8   Section        8  qtmultimediakit_mmfengine.in(t._ZN5QPairIiiEC1Ev)
    t._ZN7QVectorIiED1Ev                     0x00012af0   Section       30  qtmultimediakit_mmfengine.in(t._ZN7QVectorIiED1Ev)
    t._ZN8QPointerI7QObjectED1Ev             0x00012b0e   Section       12  qtmultimediakit_mmfengine.in(t._ZN8QPointerI7QObjectED1Ev)
    t._ZN9QHashNodeI7QString14ControllerDataEC1ERKS0_RKS1_ 0x00012b1a   Section       28  qtmultimediakit_mmfengine.in(t._ZN9QHashNodeI7QString14ControllerDataEC1ERKS0_RKS1_)
    t._ZN9QHashNodeI7QString14ControllerDataEC1ERKS0_RKS1_.clean 0x00012b36   Section       12  qtmultimediakit_mmfengine.in(t._ZN9QHashNodeI7QString14ControllerDataEC1ERKS0_RKS1_.clean)
    t._ZN9QHashNodeI7QString9CodecDataEC1ERKS0_RKS1_ 0x00012b42   Section       28  qtmultimediakit_mmfengine.in(t._ZN9QHashNodeI7QString9CodecDataEC1ERKS0_RKS1_)
    t._ZN9QHashNodeI7QString9CodecDataEC1ERKS0_RKS1_.clean 0x00012b5e   Section       12  qtmultimediakit_mmfengine.in(t._ZN9QHashNodeI7QString9CodecDataEC1ERKS0_RKS1_.clean)
    t._ZNK13RPointerArrayI35CMMFFormatImplementationInformationEixEi 0x00012b6a   Section        8  qtmultimediakit_mmfengine.in(t._ZNK13RPointerArrayI35CMMFFormatImplementationInformationEixEi)
    t._ZNK4QMapI7QString8QVariantE4keysEv    0x00012b74   Section       88  qtmultimediakit_mmfengine.in(t._ZNK4QMapI7QString8QVariantE4keysEv)
    t._ZNK4QMapI7QString8QVariantE4keysEv.clean 0x00012bcc   Section       10  qtmultimediakit_mmfengine.in(t._ZNK4QMapI7QString8QVariantE4keysEv.clean)
    t._ZNK4QMapI7QString8QVariantE5valueERKS0_ 0x00012bd6   Section      128  qtmultimediakit_mmfengine.in(t._ZNK4QMapI7QString8QVariantE5valueERKS0_)
    t._ZNK4QMapI7QStringS0_E4keysEv          0x00012c56   Section       50  qtmultimediakit_mmfengine.in(t._ZNK4QMapI7QStringS0_E4keysEv)
    t._ZNK4QMapI7QStringS0_E4keysEv.clean    0x00012c88   Section       10  qtmultimediakit_mmfengine.in(t._ZNK4QMapI7QStringS0_E4keysEv.clean)
    t._ZNK5QHashI7QString14ControllerDataE4keysEv 0x00012c92   Section       60  qtmultimediakit_mmfengine.in(t._ZNK5QHashI7QString14ControllerDataE4keysEv)
    t._ZNK5QHashI7QString14ControllerDataE4keysEv.clean 0x00012cce   Section       10  qtmultimediakit_mmfengine.in(t._ZNK5QHashI7QString14ControllerDataE4keysEv.clean)
    t._ZNK5QHashI7QString14ControllerDataE5valueERKS0_ 0x00012cd8   Section       62  qtmultimediakit_mmfengine.in(t._ZNK5QHashI7QString14ControllerDataE5valueERKS0_)
    t._ZNK5QHashI7QString14ControllerDataE8containsERKS0_ 0x00012d16   Section       26  qtmultimediakit_mmfengine.in(t._ZNK5QHashI7QString14ControllerDataE8containsERKS0_)
    t._ZNK5QHashI7QString14ControllerDataE8findNodeERKS0_Pj 0x00012d30   Section       90  qtmultimediakit_mmfengine.in(t._ZNK5QHashI7QString14ControllerDataE8findNodeERKS0_Pj)
    t._ZNK5QHashI7QString9CodecDataE4keysEv  0x00012d8a   Section       60  qtmultimediakit_mmfengine.in(t._ZNK5QHashI7QString9CodecDataE4keysEv)
    t._ZNK5QHashI7QString9CodecDataE4keysEv.clean 0x00012dc6   Section       10  qtmultimediakit_mmfengine.in(t._ZNK5QHashI7QString9CodecDataE4keysEv.clean)
    t._ZNK5QHashI7QString9CodecDataE5valueERKS0_ 0x00012dd0   Section       60  qtmultimediakit_mmfengine.in(t._ZNK5QHashI7QString9CodecDataE5valueERKS0_)
    t._ZNK5QHashI7QString9CodecDataE8findNodeERKS0_Pj 0x00012e0c   Section       90  qtmultimediakit_mmfengine.in(t._ZNK5QHashI7QString9CodecDataE8findNodeERKS0_Pj)
    t._ZNK5QListI7QStringE7isEmptyEv         0x00012e66   Section       18  qtmultimediakit_mmfengine.in(t._ZNK5QListI7QStringE7isEmptyEv)
    t._ZNK5QListI7QStringE8containsERKS0_    0x00012e78   Section       54  qtmultimediakit_mmfengine.in(t._ZNK5QListI7QStringE8containsERKS0_)
    .extab._ZN21S60MediaServicePluginD1Ev    0x00012eb0   Data           0  qtmultimediakit_mmfengine.in(.ARM.extab)
    .extab.qt_plugin_instance                0x00012ec0   Data           0  qtmultimediakit_mmfengine.in(.ARM.extab)
    .extab._ZNK21S60MediaServicePlugin4keysEv 0x00012ed8   Data           0  qtmultimediakit_mmfengine.in(.ARM.extab)
    .extab._ZN21S60MediaServicePlugin6createERK7QString 0x00012f18   Data           0  qtmultimediakit_mmfengine.in(.ARM.extab)
    .extab._ZNK21S60MediaServicePlugin18supportedMimeTypesEv 0x00012f38   Data           0  qtmultimediakit_mmfengine.in(.ARM.extab)
    .extab._ZN5QListI7QStringE9node_copyEPNS1_4NodeES3_S3_ 0x00012f68   Data           0  qtmultimediakit_mmfengine.in(.ARM.extab)
    .extab._ZN5QListI7QStringE18detach_helper_growEii 0x00012f8c   Data           0  qtmultimediakit_mmfengine.in(.ARM.extab)
    .extab._ZN21S60MediaServicePluginC1Ev    0x00012fbc   Data           0  qtmultimediakit_mmfengine.in(.ARM.extab)
    .extab._ZN5QListI7QStringE6appendERKS0_  0x00012fcc   Data           0  qtmultimediakit_mmfengine.in(.ARM.extab)
    .extab._ZN5QListI7QStringE14node_constructEPNS1_4NodeERKS0_ 0x00012ffc   Data           0  qtmultimediakit_mmfengine.in(.ARM.extab)
    .extab._ZN18S60FormatSupportedD1Ev       0x0001300c   Data           0  qtmultimediakit_mmfengine.in(.ARM.extab)
    .extab._ZN18S60FormatSupported23supportedPlayMimeTypesLEv 0x0001301c   Data           0  qtmultimediakit_mmfengine.in(.ARM.extab)
    .extab._ZN5QListI7QStringEpLERKS1_       0x0001307c   Data           0  qtmultimediakit_mmfengine.in(.ARM.extab)
    .extab._ZN22S60AudioEncoderControlC1EP7QObjectS1_ 0x00013098   Data           0  qtmultimediakit_mmfengine.in(.ARM.extab)
    .extab._ZN22S60AudioEncoderControlD1Ev   0x000130f0   Data           0  qtmultimediakit_mmfengine.in(.ARM.extab)
    .extab._ZN22S60AudioEncoderControl16setAudioSettingsERK21QAudioEncoderSettings 0x00013100   Data           0  qtmultimediakit_mmfengine.in(.ARM.extab)
    .extab._ZNK22S60AudioEncoderControl24supportedEncodingOptionsERK7QString 0x00013138   Data           0  qtmultimediakit_mmfengine.in(.ARM.extab)
    .extab._ZNK22S60AudioEncoderControl14encodingOptionERK7QStringS2_ 0x00013178   Data           0  qtmultimediakit_mmfengine.in(.ARM.extab)
    .extab._ZN22S60AudioEncoderControl17setEncodingOptionERK7QStringS2_RK8QVariant 0x000131c0   Data           0  qtmultimediakit_mmfengine.in(.ARM.extab)
    .extab._ZN28S60AudioMediaRecorderControlC1EP7QObjectS1_ 0x00013200   Data           0  qtmultimediakit_mmfengine.in(.ARM.extab)
    .extab._ZN24S60AudioEndpointSelectorC1EP7QObjectS1_ 0x00013210   Data           0  qtmultimediakit_mmfengine.in(.ARM.extab)
    .extab._ZN22S60AudioCaptureServiceC1EP7QObject 0x00013220   Data           0  qtmultimediakit_mmfengine.in(.ARM.extab)
    .extab._ZN22S60AudioCaptureSession8setErrorEi 0x00013250   Data           0  qtmultimediakit_mmfengine.in(.ARM.extab)
    .extab._ZN22S60AudioCaptureSession18setDefaultSettingsEv 0x00013278   Data           0  qtmultimediakit_mmfengine.in(.ARM.extab)
    .extab._ZN22S60AudioCaptureSession24populateAudioCodecsDataLEv 0x000132c0   Data           0  qtmultimediakit_mmfengine.in(.ARM.extab)
    .extab._ZN22S60AudioCaptureSession22updateAudioContainersLEv 0x00013388   Data           0  qtmultimediakit_mmfengine.in(.ARM.extab)
    .extab._ZN22S60AudioCaptureSessionC1EP7QObject 0x000133c8   Data           0  qtmultimediakit_mmfengine.in(.ARM.extab)
    .extab._ZN22S60AudioCaptureSessionD1Ev   0x00013460   Data           0  qtmultimediakit_mmfengine.in(.ARM.extab)
    .extab._ZNK22S60AudioCaptureSession20supportedAudioCodecsEv 0x000134b8   Data           0  qtmultimediakit_mmfengine.in(.ARM.extab)
    .extab._ZN22S60AudioCaptureSession16codecDescriptionERK7QString 0x000134c8   Data           0  qtmultimediakit_mmfengine.in(.ARM.extab)
    .extab._ZN22S60AudioCaptureSession13setAudioCodecERK7QString 0x000134e0   Data           0  qtmultimediakit_mmfengine.in(.ARM.extab)
    .extab._ZNK22S60AudioCaptureSession24supportedAudioContainersEv 0x000134f0   Data           0  qtmultimediakit_mmfengine.in(.ARM.extab)
    .extab._ZN22S60AudioCaptureSession17setAudioContainerERK7QString 0x00013500   Data           0  qtmultimediakit_mmfengine.in(.ARM.extab)
    .extab._ZN22S60AudioCaptureSession25audioContainerDescriptionERK7QString 0x00013520   Data           0  qtmultimediakit_mmfengine.in(.ARM.extab)
    .extab._ZNK22S60AudioCaptureSession25supportedAudioSampleRatesERK21QAudioEncoderSettings 0x00013538   Data           0  qtmultimediakit_mmfengine.in(.ARM.extab)
    .extab._ZN22S60AudioCaptureSession17setOutputLocationERK4QUrl 0x00013558   Data           0  qtmultimediakit_mmfengine.in(.ARM.extab)
    .extab._ZN22S60AudioCaptureSession12prepareSinkLEv 0x000135a0   Data           0  qtmultimediakit_mmfengine.in(.ARM.extab)
    .extab._ZN22S60AudioCaptureSession6recordEv 0x000136a8   Data           0  qtmultimediakit_mmfengine.in(.ARM.extab)
    .extab._ZNK22S60AudioCaptureSession19endpointDescriptionERK7QString 0x00013700   Data           0  qtmultimediakit_mmfengine.in(.ARM.extab)
    .extab._ZN22S60AudioCaptureSession34retrieveSupportedAudioSampleRatesLEv 0x00013710   Data           0  qtmultimediakit_mmfengine.in(.ARM.extab)
    .extab._ZN22S60AudioCaptureSession19applyAudioSettingsLEv 0x00013720   Data           0  qtmultimediakit_mmfengine.in(.ARM.extab)
    .extab._ZN22S60AudioCaptureSession22MoscoStateChangeEventLEP5CBaseiii 0x00013798   Data           0  qtmultimediakit_mmfengine.in(.ARM.extab)
    .extab._ZN22S60AudioCaptureSession21MoscoStateChangeEventEP5CBaseiii 0x000137c0   Data           0  qtmultimediakit_mmfengine.in(.ARM.extab)
    .extab._ZThn8_N22S60AudioCaptureSession21MoscoStateChangeEventEP5CBaseiii 0x000137e8   Data           0  qtmultimediakit_mmfengine.in(.ARM.extab)
    .extab._ZN22S60AudioCaptureSession17setActiveEndpointERK7QString 0x00013810   Data           0  qtmultimediakit_mmfengine.in(.ARM.extab)
    .extab._Z23qStringComparisonHelperRK7QStringPKc 0x00013828   Data           0  qtmultimediakit_mmfengine.in(.ARM.extab)
    .extab._ZN5QListI7QStringE13detach_helperEi 0x00013838   Data           0  qtmultimediakit_mmfengine.in(.ARM.extab)
    .extab._ZN14ControllerDataC1Ev           0x00013854   Data           0  qtmultimediakit_mmfengine.in(.ARM.extab)
    .extab._ZN14ControllerDataC1ERKS_        0x00013864   Data           0  qtmultimediakit_mmfengine.in(.ARM.extab)
    .extab._ZNK5QHashI7QString9CodecDataE4keysEv 0x00013874   Data           0  qtmultimediakit_mmfengine.in(.ARM.extab)
    .extab._ZNK5QHashI7QString14ControllerDataE4keysEv 0x00013884   Data           0  qtmultimediakit_mmfengine.in(.ARM.extab)
    .extab._ZN5QListIiE18detach_helper_growEii 0x00013894   Data           0  qtmultimediakit_mmfengine.in(.ARM.extab)
    .extab._ZN5QListIiE6appendERKi           0x000138c4   Data           0  qtmultimediakit_mmfengine.in(.ARM.extab)
    .extab._ZN9QHashNodeI7QString9CodecDataEC1ERKS0_RKS1_ 0x000138e0   Data           0  qtmultimediakit_mmfengine.in(.ARM.extab)
    .extab._ZN5QHashI7QString9CodecDataEixERKS0_ 0x000138f0   Data           0  qtmultimediakit_mmfengine.in(.ARM.extab)
    .extab._ZN9QHashNodeI7QString14ControllerDataEC1ERKS0_RKS1_ 0x00013908   Data           0  qtmultimediakit_mmfengine.in(.ARM.extab)
    .extab._ZNK4QMapI7QStringS0_E4keysEv     0x00013918   Data           0  qtmultimediakit_mmfengine.in(.ARM.extab)
    .extab._ZN14ControllerDataD1Ev           0x00013928   Data           0  qtmultimediakit_mmfengine.in(.ARM.extab)
    .extab._ZN5QHashI7QString9CodecDataE11deleteNode2EPN9QHashData4NodeE 0x00013938   Data           0  qtmultimediakit_mmfengine.in(.ARM.extab)
    .extab._ZN5QHashI7QString14ControllerDataE11deleteNode2EPN9QHashData4NodeE 0x00013948   Data           0  qtmultimediakit_mmfengine.in(.ARM.extab)
    .extab._ZN5QHashI7QString9CodecDataE13duplicateNodeEPN9QHashData4NodeEPv 0x00013958   Data           0  qtmultimediakit_mmfengine.in(.ARM.extab)
    .extab._ZN5QHashI7QString14ControllerDataE13duplicateNodeEPN9QHashData4NodeEPv 0x00013968   Data           0  qtmultimediakit_mmfengine.in(.ARM.extab)
    .extab._ZN5QHashI7QString14ControllerDataEixERKS0_ 0x00013978   Data           0  qtmultimediakit_mmfengine.in(.ARM.extab)
    .extab._ZN5QListIiE13detach_helperEv     0x00013990   Data           0  qtmultimediakit_mmfengine.in(.ARM.extab)
    .extab._ZN24S60AudioContainerControlC1EP7QObjectS1_ 0x000139ac   Data           0  qtmultimediakit_mmfengine.in(.ARM.extab)
    .extab._ZN21S60MediaPlayerControlC1ER23MS60MediaPlayerResolverP7QObject 0x000139bc   Data           0  qtmultimediakit_mmfengine.in(.ARM.extab)
    .extab._ZN21S60MediaPlayerControlD1Ev    0x000139dc   Data           0  qtmultimediakit_mmfengine.in(.ARM.extab)
    .extab._ZNK21S60MediaPlayerControl23availablePlaybackRangesEv 0x000139f4   Data           0  qtmultimediakit_mmfengine.in(.ARM.extab)
    .extab._ZN21S60MediaPlayerControl8setMediaERK13QMediaContentP9QIODevice 0x00013a04   Data           0  qtmultimediakit_mmfengine.in(.ARM.extab)
    .extab._ZN21S60MediaPlayerServiceC1EP7QObject 0x00013a34   Data           0  qtmultimediakit_mmfengine.in(.ARM.extab)
    .extab._ZN21S60MediaPlayerService14requestControlEPKc 0x00013a5c   Data           0  qtmultimediakit_mmfengine.in(.ARM.extab)
    .extab._ZN21S60MediaPlayerService13PlayerSessionEv 0x00013a74   Data           0  qtmultimediakit_mmfengine.in(.ARM.extab)
    .extab._ZN21S60MediaPlayerService18VideoPlayerSessionEv 0x00013abc   Data           0  qtmultimediakit_mmfengine.in(.ARM.extab)
    .extab._ZN21S60MediaPlayerService18AudioPlayerSessionEv 0x00013ad4   Data           0  qtmultimediakit_mmfengine.in(.ARM.extab)
    .extab._ZN21S60MediaPlayerSessionC2EP7QObject 0x00013aec   Data           0  qtmultimediakit_mmfengine.in(.ARM.extab)
    .extab._ZN21S60MediaPlayerSessionD2Ev    0x00013b14   Data           0  qtmultimediakit_mmfengine.in(.ARM.extab)
    .extab._ZNK21S60MediaPlayerSession8durationEv 0x00013b24   Data           0  qtmultimediakit_mmfengine.in(.ARM.extab)
    .extab._ZNK21S60MediaPlayerSession8positionEv 0x00013b4c   Data           0  qtmultimediakit_mmfengine.in(.ARM.extab)
    .extab._ZN21S60MediaPlayerSession8setErrorEiRK7QStringb 0x00013b74   Data           0  qtmultimediakit_mmfengine.in(.ARM.extab)
    .extab._ZN21S60MediaPlayerSession8setMutedEb 0x00013b9c   Data           0  qtmultimediakit_mmfengine.in(.ARM.extab)
    .extab._ZN21S60MediaPlayerSession9setVolumeEi 0x00013bcc   Data           0  qtmultimediakit_mmfengine.in(.ARM.extab)
    .extab._ZN21S60MediaPlayerSession5pauseEv 0x00013bfc   Data           0  qtmultimediakit_mmfengine.in(.ARM.extab)
    .extab._ZN21S60MediaPlayerSession11setPositionEx 0x00013c2c   Data           0  qtmultimediakit_mmfengine.in(.ARM.extab)
    .extab._ZN21S60MediaPlayerSession5resetEv 0x00013c5c   Data           0  qtmultimediakit_mmfengine.in(.ARM.extab)
    .extab._ZNK21S60MediaPlayerSession8metaDataEN15QtMultimediaKit8MetaDataE 0x00013c6c   Data           0  qtmultimediakit_mmfengine.in(.ARM.extab)
    .extab._ZNK21S60MediaPlayerSession17availableMetaDataEv 0x00013c7c   Data           0  qtmultimediakit_mmfengine.in(.ARM.extab)
    .extab._ZNK21S60MediaPlayerSession25availableExtendedMetaDataEv 0x00013cac   Data           0  qtmultimediakit_mmfengine.in(.ARM.extab)
    .extab._ZN21S60MediaPlayerSession4loadE4QUrl 0x00013cbc   Data           0  qtmultimediakit_mmfengine.in(.ARM.extab)
    .extab._ZN21S60MediaPlayerSession12bufferStatusEv 0x00013d1c   Data           0  qtmultimediakit_mmfengine.in(.ARM.extab)
    .extab._ZN21S60MediaPlayerSession15setAndEmitErrorEi 0x00013d4c   Data           0  qtmultimediakit_mmfengine.in(.ARM.extab)
    .extab._ZN21S60MediaPlayerSession6loadedEv 0x00013d6c   Data           0  qtmultimediakit_mmfengine.in(.ARM.extab)
    .extab._ZN7QString6appendEPKc            0x00013d9c   Data           0  qtmultimediakit_mmfengine.in(.ARM.extab)
    .extab._ZN5QListIN15QtMultimediaKit8MetaDataEE18detach_helper_growEii 0x00013dac   Data           0  qtmultimediakit_mmfengine.in(.ARM.extab)
    .extab._ZNK4QMapI7QString8QVariantE4keysEv 0x00013ddc   Data           0  qtmultimediakit_mmfengine.in(.ARM.extab)
    .extab._ZN5QListIN15QtMultimediaKit8MetaDataEE6appendERKS1_ 0x00013dec   Data           0  qtmultimediakit_mmfengine.in(.ARM.extab)
    .extab._ZN24S60MediaMetaDataProviderC1EP7QObjectS1_ 0x00013e1c   Data           0  qtmultimediakit_mmfengine.in(.ARM.extab)
    .extab._ZN21S60VideoPlayerSessionC1EP13QMediaService 0x00013e2c   Data           0  qtmultimediakit_mmfengine.in(.ARM.extab)
    .extab._ZN21S60VideoPlayerSessionD1Ev    0x00013e6c   Data           0  qtmultimediakit_mmfengine.in(.ARM.extab)
    .extab._ZN21S60VideoPlayerSession16isVideoAvailableEv 0x00013e84   Data           0  qtmultimediakit_mmfengine.in(.ARM.extab)
    .extab._ZN21S60VideoPlayerSession16isAudioAvailableEv 0x00013eb4   Data           0  qtmultimediakit_mmfengine.in(.ARM.extab)
    .extab._ZN21S60VideoPlayerSession19applyPendingChangesEb 0x00013ee4   Data           0  qtmultimediakit_mmfengine.in(.ARM.extab)
    .extab._ZN21S60VideoPlayerSession15setPlaybackRateEf 0x00013f34   Data           0  qtmultimediakit_mmfengine.in(.ARM.extab)
    .extab._ZN21S60VideoPlayerSession22updateMetaDataEntriesLEv 0x00013f64   Data           0  qtmultimediakit_mmfengine.in(.ARM.extab)
    .extab._ZNK21S60VideoPlayerSession13getIsSeekableEv 0x00013f94   Data           0  qtmultimediakit_mmfengine.in(.ARM.extab)
    .extab._ZN21S60VideoPlayerSession22stopDirectScreenAccessEv 0x00013fdc   Data           0  qtmultimediakit_mmfengine.in(.ARM.extab)
    .extab._ZN21S60VideoPlayerSession23startDirectScreenAccessEv 0x0001400c   Data           0  qtmultimediakit_mmfengine.in(.ARM.extab)
    .extab._ZN21S60VideoPlayerSession17MvpuoOpenCompleteEi 0x0001403c   Data           0  qtmultimediakit_mmfengine.in(.ARM.extab)
    .extab._ZN21S60VideoPlayerSession20MvpuoPrepareCompleteEi 0x0001407c   Data           0  qtmultimediakit_mmfengine.in(.ARM.extab)
    .extab._ZN21S60VideoPlayerSession17MvpuoPlayCompleteEi 0x000140ac   Data           0  qtmultimediakit_mmfengine.in(.ARM.extab)
    .extab.__sti___25_s60videoplayersession_cpp 0x000140bc   Data           0  qtmultimediakit_mmfengine.in(.ARM.extab)
    .extab._ZN4QMapI7QString8QVariantE11node_createEP8QMapDataPPNS3_4NodeERKS0_RKS1_ 0x000140cc   Data           0  qtmultimediakit_mmfengine.in(.ARM.extab)
    .extab._ZN4QMapI7QString8QVariantE13detach_helperEv 0x00014118   Data           0  qtmultimediakit_mmfengine.in(.ARM.extab)
    .extab._ZN4QMapI7QString8QVariantE5clearEv 0x00014134   Data           0  qtmultimediakit_mmfengine.in(.ARM.extab)
    .extab._ZN15S60VideoSurfaceC1EP7QObject  0x00014144   Data           0  qtmultimediakit_mmfengine.in(.ARM.extab)
    .extab._ZN15S60VideoSurfaceD1Ev          0x00014164   Data           0  qtmultimediakit_mmfengine.in(.ARM.extab)
    .extab._ZN18S60MediaRecognizerC1EP7QObject 0x0001417c   Data           0  qtmultimediakit_mmfengine.in(.ARM.extab)
    .extab._ZN18S60MediaRecognizerD1Ev       0x0001418c   Data           0  qtmultimediakit_mmfengine.in(.ARM.extab)
    .extab._ZN18S60MediaRecognizer17identifyMediaTypeERK7QString 0x0001419c   Data           0  qtmultimediakit_mmfengine.in(.ARM.extab)
    .extab._ZN18S60MediaRecognizer9mediaTypeERK4QUrl 0x000141ac   Data           0  qtmultimediakit_mmfengine.in(.ARM.extab)
    .extab._ZN21S60AudioPlayerSessionC1EP7QObject 0x000141cc   Data           0  qtmultimediakit_mmfengine.in(.ARM.extab)
    .extab._ZN21S60AudioPlayerSessionD1Ev    0x00014204   Data           0  qtmultimediakit_mmfengine.in(.ARM.extab)
    .extab._ZN21S60AudioPlayerSession22updateMetaDataEntriesLEv 0x0001421c   Data           0  qtmultimediakit_mmfengine.in(.ARM.extab)
    .extab._ZN21S60AudioPlayerSession16MapcInitCompleteEiRK25TTimeIntervalMicroSeconds 0x0001424c   Data           0  qtmultimediakit_mmfengine.in(.ARM.extab)
    .extab._ZN21S60AudioPlayerSession16MapcPlayCompleteEi 0x0001425c   Data           0  qtmultimediakit_mmfengine.in(.ARM.extab)
    .extab._ZN35S60MediaPlayerAudioEndpointSelectorC1EP7QObjectS1_ 0x0001426c   Data           0  qtmultimediakit_mmfengine.in(.ARM.extab)
    .extab._ZN35S60MediaPlayerAudioEndpointSelectorD1Ev 0x000142dc   Data           0  qtmultimediakit_mmfengine.in(.ARM.extab)
    .extab._ZNK35S60MediaPlayerAudioEndpointSelector19endpointDescriptionERK7QString 0x000142f4   Data           0  qtmultimediakit_mmfengine.in(.ARM.extab)
    .extab._ZN35S60MediaPlayerAudioEndpointSelector17setActiveEndpointERK7QString 0x00014324   Data           0  qtmultimediakit_mmfengine.in(.ARM.extab)
    .extab._ZN21S60MediaStreamControlC1EP7QObjectS1_ 0x00014384   Data           0  qtmultimediakit_mmfengine.in(.ARM.extab)
    .extab._ZN20S60RadioTunerControl9initRadioEv 0x00014394   Data           0  qtmultimediakit_mmfengine.in(.ARM.extab)
    .extab._ZN20S60RadioTunerControlC1EP7QObject 0x000143bc   Data           0  qtmultimediakit_mmfengine.in(.ARM.extab)
    .extab._ZN20S60RadioTunerControlD1Ev     0x000143fc   Data           0  qtmultimediakit_mmfengine.in(.ARM.extab)
    .extab._ZN20S60RadioTunerControl7setBandEN11QRadioTuner4BandE 0x00014414   Data           0  qtmultimediakit_mmfengine.in(.ARM.extab)
    .extab._ZN20S60RadioTunerControl32MrftoRequestTunerControlCompleteEi 0x000144ac   Data           0  qtmultimediakit_mmfengine.in(.ARM.extab)
    .extab._ZN20S60RadioTunerControl30MrftoSetFrequencyRangeCompleteEi 0x00014514   Data           0  qtmultimediakit_mmfengine.in(.ARM.extab)
    .extab._ZN20S60RadioTunerControl25MrftoSetFrequencyCompleteEi 0x00014534   Data           0  qtmultimediakit_mmfengine.in(.ARM.extab)
    .extab._ZN20S60RadioTunerControl24MrftoStationSeekCompleteEii 0x00014554   Data           0  qtmultimediakit_mmfengine.in(.ARM.extab)
    .extab._ZN20S60RadioTunerServiceC1EP7QObject 0x00014564   Data           0  qtmultimediakit_mmfengine.in(.ARM.extab)
    .extab._ZN20S60RadioTunerServiceD1Ev     0x00014574   Data           0  qtmultimediakit_mmfengine.in(.ARM.extab)
    .extab._ZN15S60VideoDisplayC2EP7QObject  0x00014584   Data           0  qtmultimediakit_mmfengine.in(.ARM.extab)
    .extab._ZN14S60VideoWidgetC1EP7QWidget   0x00014594   Data           0  qtmultimediakit_mmfengine.in(.ARM.extab)
    .extab._ZN14S60VideoWidget10paintEventEP11QPaintEvent 0x000145c4   Data           0  qtmultimediakit_mmfengine.in(.ARM.extab)
    .extab._Z8qWarningv                      0x000145ec   Data           0  qtmultimediakit_mmfengine.in(.ARM.extab)
    .extab._ZN6QDebugD1Ev                    0x00014604   Data           0  qtmultimediakit_mmfengine.in(.ARM.extab)
    .extab._ZN21S60VideoWidgetControlC1EP7QObject 0x00014628   Data           0  qtmultimediakit_mmfengine.in(.ARM.extab)
    .extab._ZN21S60VideoWidgetDisplayC1EP7QObject 0x00014640   Data           0  qtmultimediakit_mmfengine.in(.ARM.extab)
    .extab._ZN21S60VideoWidgetDisplayD1Ev    0x00014660   Data           0  qtmultimediakit_mmfengine.in(.ARM.extab)
    .extab._ZN21S60VideoWidgetDisplay11eventFilterEP7QObjectP6QEvent 0x00014680   Data           0  qtmultimediakit_mmfengine.in(.ARM.extab)
    .extab._ZN21S60VideoWidgetDisplay8setFrameERK10CFbsBitmap 0x00014690   Data           0  qtmultimediakit_mmfengine.in(.ARM.extab)
    .extab._ZN21S60VideoWindowControlC1EP7QObject 0x000146a0   Data           0  qtmultimediakit_mmfengine.in(.ARM.extab)
    .extab._ZN21S60VideoWindowDisplayC1EP7QObject 0x000146b8   Data           0  qtmultimediakit_mmfengine.in(.ARM.extab)
    .constdata$1                             0x000146d8   Data           0  qtmultimediakit_mmfengine.in(.constdata)
    qt_meta_stringdata_S60VideoDisplay       0x000146d8   Data         404  qtmultimediakit_mmfengine.in(.constdata)
    .constdata                               0x000146d8   Section      420  qtmultimediakit_mmfengine.in(.constdata)
    .constdata$10                            0x0001487c   Data           0  qtmultimediakit_mmfengine.in(.constdata)
    qt_meta_data_S60VideoDisplay             0x0001487c   Data         320  qtmultimediakit_mmfengine.in(.constdata)
    .constdata                               0x0001487c   Section      320  qtmultimediakit_mmfengine.in(.constdata)
    .constdata$1                             0x000149bc   Data           0  qtmultimediakit_mmfengine.in(.constdata)
    qt_meta_stringdata_S60VideoWidget        0x000149bc   Data         267  qtmultimediakit_mmfengine.in(.constdata)
    .constdata                               0x000149bc   Section      284  qtmultimediakit_mmfengine.in(.constdata)
    .constdata$10                            0x00014ad8   Data           0  qtmultimediakit_mmfengine.in(.constdata)
    qt_meta_data_S60VideoWidget              0x00014ad8   Data         240  qtmultimediakit_mmfengine.in(.constdata)
    .constdata                               0x00014ad8   Section      240  qtmultimediakit_mmfengine.in(.constdata)
    .constdata$1                             0x00014bc8   Data           0  qtmultimediakit_mmfengine.in(.constdata)
    qt_meta_stringdata_S60VideoWidgetControl 0x00014bc8   Data         111  qtmultimediakit_mmfengine.in(.constdata)
    .constdata                               0x00014bc8   Section      128  qtmultimediakit_mmfengine.in(.constdata)
    .constdata$10                            0x00014c48   Data           0  qtmultimediakit_mmfengine.in(.constdata)
    qt_meta_data_S60VideoWidgetControl       0x00014c48   Data         128  qtmultimediakit_mmfengine.in(.constdata)
    .constdata                               0x00014c48   Section      128  qtmultimediakit_mmfengine.in(.constdata)
    .constdata$1                             0x00014cc8   Data           0  qtmultimediakit_mmfengine.in(.constdata)
    qt_meta_stringdata_S60VideoWidgetDisplay 0x00014cc8   Data          23  qtmultimediakit_mmfengine.in(.constdata)
    .constdata                               0x00014cc8   Section       40  qtmultimediakit_mmfengine.in(.constdata)
    .constdata$10                            0x00014cf0   Data           0  qtmultimediakit_mmfengine.in(.constdata)
    qt_meta_data_S60VideoWidgetDisplay       0x00014cf0   Data          60  qtmultimediakit_mmfengine.in(.constdata)
    .constdata                               0x00014cf0   Section       60  qtmultimediakit_mmfengine.in(.constdata)
    .constdata$1                             0x00014d2c   Data           0  qtmultimediakit_mmfengine.in(.constdata)
    qt_meta_stringdata_S60VideoWindowControl 0x00014d2c   Data          41  qtmultimediakit_mmfengine.in(.constdata)
    .constdata                               0x00014d2c   Section       60  qtmultimediakit_mmfengine.in(.constdata)
    .constdata$10                            0x00014d68   Data           0  qtmultimediakit_mmfengine.in(.constdata)
    qt_meta_data_S60VideoWindowControl       0x00014d68   Data          80  qtmultimediakit_mmfengine.in(.constdata)
    .constdata                               0x00014d68   Section       80  qtmultimediakit_mmfengine.in(.constdata)
    .constdata$1                             0x00014db8   Data           0  qtmultimediakit_mmfengine.in(.constdata)
    qt_meta_stringdata_S60MediaPlayerControl 0x00014db8   Data          23  qtmultimediakit_mmfengine.in(.constdata)
    .constdata                               0x00014db8   Section       40  qtmultimediakit_mmfengine.in(.constdata)
    .constdata$10                            0x00014de0   Data           0  qtmultimediakit_mmfengine.in(.constdata)
    qt_meta_data_S60MediaPlayerControl       0x00014de0   Data          60  qtmultimediakit_mmfengine.in(.constdata)
    .constdata                               0x00014de0   Section       60  qtmultimediakit_mmfengine.in(.constdata)
    .constdata$1                             0x00014e1c   Data           0  qtmultimediakit_mmfengine.in(.constdata)
    qt_meta_stringdata_S60MediaPlayerService 0x00014e1c   Data          23  qtmultimediakit_mmfengine.in(.constdata)
    .constdata                               0x00014e1c   Section       40  qtmultimediakit_mmfengine.in(.constdata)
    .constdata$10                            0x00014e44   Data           0  qtmultimediakit_mmfengine.in(.constdata)
    qt_meta_data_S60MediaPlayerService       0x00014e44   Data          60  qtmultimediakit_mmfengine.in(.constdata)
    .constdata                               0x00014e44   Section       60  qtmultimediakit_mmfengine.in(.constdata)
    .constdata$1                             0x00014e80   Data           0  qtmultimediakit_mmfengine.in(.constdata)
    qt_meta_stringdata_S60MediaPlayerSession 0x00014e80   Data         616  qtmultimediakit_mmfengine.in(.constdata)
    .constdata                               0x00014e80   Section      632  qtmultimediakit_mmfengine.in(.constdata)
    .constdata$10                            0x000150f8   Data           0  qtmultimediakit_mmfengine.in(.constdata)
    qt_meta_data_S60MediaPlayerSession       0x000150f8   Data         440  qtmultimediakit_mmfengine.in(.constdata)
    .constdata                               0x000150f8   Section      440  qtmultimediakit_mmfengine.in(.constdata)
    .constdata$1                             0x000152b0   Data           0  qtmultimediakit_mmfengine.in(.constdata)
    qt_meta_stringdata_S60MediaMetaDataProvider 0x000152b0   Data          26  qtmultimediakit_mmfengine.in(.constdata)
    .constdata                               0x000152b0   Section       44  qtmultimediakit_mmfengine.in(.constdata)
    .constdata$10                            0x000152dc   Data           0  qtmultimediakit_mmfengine.in(.constdata)
    qt_meta_data_S60MediaMetaDataProvider    0x000152dc   Data          60  qtmultimediakit_mmfengine.in(.constdata)
    .constdata                               0x000152dc   Section       60  qtmultimediakit_mmfengine.in(.constdata)
    .constdata$1                             0x00015318   Data           0  qtmultimediakit_mmfengine.in(.constdata)
    qt_meta_stringdata_S60VideoPlayerSession 0x00015318   Data         200  qtmultimediakit_mmfengine.in(.constdata)
    .constdata                               0x00015318   Section      216  qtmultimediakit_mmfengine.in(.constdata)
    .constdata$10                            0x000153f0   Data           0  qtmultimediakit_mmfengine.in(.constdata)
    qt_meta_data_S60VideoPlayerSession       0x000153f0   Data         200  qtmultimediakit_mmfengine.in(.constdata)
    .constdata                               0x000153f0   Section      200  qtmultimediakit_mmfengine.in(.constdata)
    .constdata$1                             0x000154b8   Data           0  qtmultimediakit_mmfengine.in(.constdata)
    qt_meta_stringdata_S60VideoSurface       0x000154b8   Data          17  qtmultimediakit_mmfengine.in(.constdata)
    .constdata                               0x000154b8   Section       36  qtmultimediakit_mmfengine.in(.constdata)
    .constdata$10                            0x000154dc   Data           0  qtmultimediakit_mmfengine.in(.constdata)
    qt_meta_data_S60VideoSurface             0x000154dc   Data          60  qtmultimediakit_mmfengine.in(.constdata)
    .constdata                               0x000154dc   Section       60  qtmultimediakit_mmfengine.in(.constdata)
    .constdata$1                             0x00015518   Data           0  qtmultimediakit_mmfengine.in(.constdata)
    qt_meta_stringdata_S60MediaRecognizer    0x00015518   Data          20  qtmultimediakit_mmfengine.in(.constdata)
    .constdata                               0x00015518   Section       36  qtmultimediakit_mmfengine.in(.constdata)
    .constdata$10                            0x0001553c   Data           0  qtmultimediakit_mmfengine.in(.constdata)
    qt_meta_data_S60MediaRecognizer          0x0001553c   Data          60  qtmultimediakit_mmfengine.in(.constdata)
    .constdata                               0x0001553c   Section       60  qtmultimediakit_mmfengine.in(.constdata)
    .constdata$1                             0x00015578   Data           0  qtmultimediakit_mmfengine.in(.constdata)
    qt_meta_stringdata_S60AudioPlayerSession 0x00015578   Data          56  qtmultimediakit_mmfengine.in(.constdata)
    .constdata                               0x00015578   Section       72  qtmultimediakit_mmfengine.in(.constdata)
    .constdata$10                            0x000155c0   Data           0  qtmultimediakit_mmfengine.in(.constdata)
    qt_meta_data_S60AudioPlayerSession       0x000155c0   Data          80  qtmultimediakit_mmfengine.in(.constdata)
    .constdata                               0x000155c0   Section       80  qtmultimediakit_mmfengine.in(.constdata)
    .constdata$1                             0x00015610   Data           0  qtmultimediakit_mmfengine.in(.constdata)
    qt_meta_stringdata_S60MediaPlayerAudioEndpointSelector 0x00015610   Data          70  qtmultimediakit_mmfengine.in(.constdata)
    .constdata                               0x00015610   Section       88  qtmultimediakit_mmfengine.in(.constdata)
    .constdata$10                            0x00015668   Data           0  qtmultimediakit_mmfengine.in(.constdata)
    qt_meta_data_S60MediaPlayerAudioEndpointSelector 0x00015668   Data          80  qtmultimediakit_mmfengine.in(.constdata)
    .constdata                               0x00015668   Section       80  qtmultimediakit_mmfengine.in(.constdata)
    .constdata$1                             0x000156b8   Data           0  qtmultimediakit_mmfengine.in(.constdata)
    qt_meta_stringdata_S60MediaStreamControl 0x000156b8   Data          47  qtmultimediakit_mmfengine.in(.constdata)
    .constdata                               0x000156b8   Section       64  qtmultimediakit_mmfengine.in(.constdata)
    .constdata$10                            0x000156f8   Data           0  qtmultimediakit_mmfengine.in(.constdata)
    qt_meta_data_S60MediaStreamControl       0x000156f8   Data          80  qtmultimediakit_mmfengine.in(.constdata)
    .constdata                               0x000156f8   Section       80  qtmultimediakit_mmfengine.in(.constdata)
    .constdata$1                             0x00015748   Data           0  qtmultimediakit_mmfengine.in(.constdata)
    qt_meta_stringdata_S60RadioTunerControl  0x00015748   Data          72  qtmultimediakit_mmfengine.in(.constdata)
    .constdata                               0x00015748   Section       88  qtmultimediakit_mmfengine.in(.constdata)
    .constdata$10                            0x000157a0   Data           0  qtmultimediakit_mmfengine.in(.constdata)
    qt_meta_data_S60RadioTunerControl        0x000157a0   Data         100  qtmultimediakit_mmfengine.in(.constdata)
    .constdata                               0x000157a0   Section      100  qtmultimediakit_mmfengine.in(.constdata)
    .constdata$1                             0x00015804   Data           0  qtmultimediakit_mmfengine.in(.constdata)
    qt_meta_stringdata_S60RadioTunerService  0x00015804   Data          22  qtmultimediakit_mmfengine.in(.constdata)
    .constdata                               0x00015804   Section       40  qtmultimediakit_mmfengine.in(.constdata)
    .constdata$10                            0x0001582c   Data           0  qtmultimediakit_mmfengine.in(.constdata)
    qt_meta_data_S60RadioTunerService        0x0001582c   Data          60  qtmultimediakit_mmfengine.in(.constdata)
    .constdata                               0x0001582c   Section       60  qtmultimediakit_mmfengine.in(.constdata)
    .constdata$1                             0x00015868   Data           0  qtmultimediakit_mmfengine.in(.constdata)
    qt_meta_stringdata_S60AudioEncoderControl 0x00015868   Data          24  qtmultimediakit_mmfengine.in(.constdata)
    .constdata                               0x00015868   Section       40  qtmultimediakit_mmfengine.in(.constdata)
    .constdata$10                            0x00015890   Data           0  qtmultimediakit_mmfengine.in(.constdata)
    qt_meta_data_S60AudioEncoderControl      0x00015890   Data          60  qtmultimediakit_mmfengine.in(.constdata)
    .constdata                               0x00015890   Section       60  qtmultimediakit_mmfengine.in(.constdata)
    .constdata$1                             0x000158cc   Data           0  qtmultimediakit_mmfengine.in(.constdata)
    qt_meta_stringdata_S60AudioMediaRecorderControl 0x000158cc   Data         133  qtmultimediakit_mmfengine.in(.constdata)
    .constdata                               0x000158cc   Section      152  qtmultimediakit_mmfengine.in(.constdata)
    .constdata$10                            0x00015964   Data           0  qtmultimediakit_mmfengine.in(.constdata)
    qt_meta_data_S60AudioMediaRecorderControl 0x00015964   Data         160  qtmultimediakit_mmfengine.in(.constdata)
    .constdata                               0x00015964   Section      160  qtmultimediakit_mmfengine.in(.constdata)
    .constdata$1                             0x00015a04   Data           0  qtmultimediakit_mmfengine.in(.constdata)
    qt_meta_stringdata_S60AudioEndpointSelector 0x00015a04   Data          59  qtmultimediakit_mmfengine.in(.constdata)
    .constdata                               0x00015a04   Section       76  qtmultimediakit_mmfengine.in(.constdata)
    .constdata$10                            0x00015a50   Data           0  qtmultimediakit_mmfengine.in(.constdata)
    qt_meta_data_S60AudioEndpointSelector    0x00015a50   Data          80  qtmultimediakit_mmfengine.in(.constdata)
    .constdata                               0x00015a50   Section       80  qtmultimediakit_mmfengine.in(.constdata)
    .constdata$1                             0x00015aa0   Data           0  qtmultimediakit_mmfengine.in(.constdata)
    qt_meta_stringdata_S60AudioCaptureService 0x00015aa0   Data          24  qtmultimediakit_mmfengine.in(.constdata)
    .constdata                               0x00015aa0   Section       40  qtmultimediakit_mmfengine.in(.constdata)
    .constdata$10                            0x00015ac8   Data           0  qtmultimediakit_mmfengine.in(.constdata)
    qt_meta_data_S60AudioCaptureService      0x00015ac8   Data          60  qtmultimediakit_mmfengine.in(.constdata)
    .constdata                               0x00015ac8   Section       60  qtmultimediakit_mmfengine.in(.constdata)
    .constdata$1                             0x00015b04   Data           0  qtmultimediakit_mmfengine.in(.constdata)
    qt_meta_stringdata_S60AudioCaptureSession 0x00015b04   Data         329  qtmultimediakit_mmfengine.in(.constdata)
    .constdata                               0x00015b04   Section      348  qtmultimediakit_mmfengine.in(.constdata)
    .constdata$10                            0x00015c60   Data           0  qtmultimediakit_mmfengine.in(.constdata)
    qt_meta_data_S60AudioCaptureSession      0x00015c60   Data         240  qtmultimediakit_mmfengine.in(.constdata)
    .constdata                               0x00015c60   Section      240  qtmultimediakit_mmfengine.in(.constdata)
    .constdata$1                             0x00015d50   Data           0  qtmultimediakit_mmfengine.in(.constdata)
    qt_meta_stringdata_S60AudioContainerControl 0x00015d50   Data          26  qtmultimediakit_mmfengine.in(.constdata)
    .constdata                               0x00015d50   Section       44  qtmultimediakit_mmfengine.in(.constdata)
    .constdata$10                            0x00015d7c   Data           0  qtmultimediakit_mmfengine.in(.constdata)
    qt_meta_data_S60AudioContainerControl    0x00015d7c   Data          60  qtmultimediakit_mmfengine.in(.constdata)
    .constdata                               0x00015d7c   Section       60  qtmultimediakit_mmfengine.in(.constdata)
    .constdata$1                             0x00015db8   Data           0  qtmultimediakit_mmfengine.in(.constdata)
    qt_meta_stringdata_S60MediaServicePlugin 0x00015db8   Data          23  qtmultimediakit_mmfengine.in(.constdata)
    .constdata                               0x00015db8   Section       40  qtmultimediakit_mmfengine.in(.constdata)
    .constdata$10                            0x00015de0   Data           0  qtmultimediakit_mmfengine.in(.constdata)
    qt_meta_data_S60MediaServicePlugin       0x00015de0   Data          60  qtmultimediakit_mmfengine.in(.constdata)
    .constdata                               0x00015de0   Section       60  qtmultimediakit_mmfengine.in(.constdata)
    .constdata$1                             0x00015e1c   Data           0  qtmultimediakit_mmfengine.in(.constdata)
    qt_plugin_verification_data              0x00015e1c   Data          91  qtmultimediakit_mmfengine.in(.constdata)
    .constdata                               0x00015e1c   Section       91  qtmultimediakit_mmfengine.in(.constdata)
    .constdata$1                             0x00015e78   Data           0  qtmultimediakit_mmfengine.in(.constdata)
    KUidMediaTypeAudio                       0x00015e78   Data           4  qtmultimediakit_mmfengine.in(.constdata)
    .constdata                               0x00015e78   Section        8  qtmultimediakit_mmfengine.in(.constdata)
    KUidMediaTypeVideo                       0x00015e7c   Data           4  qtmultimediakit_mmfengine.in(.constdata)
    .constdata$1                             0x00015e80   Data           0  qtmultimediakit_mmfengine.in(.constdata)
    KUidMediaTypeAudio                       0x00015e80   Data           4  qtmultimediakit_mmfengine.in(.constdata)
    .constdata                               0x00015e80   Section        4  qtmultimediakit_mmfengine.in(.constdata)
    .constdata$1                             0x00015e84   Data           0  qtmultimediakit_mmfengine.in(.constdata)
    KUidInterfaceMMFROPController            0x00015e84   Data           4  qtmultimediakit_mmfengine.in(.constdata)
    .constdata                               0x00015e84   Section       48  qtmultimediakit_mmfengine.in(.constdata)
    KHelixUID                                0x00015e88   Data           4  qtmultimediakit_mmfengine.in(.constdata)
    KNullDesC8                               0x00015e8c   Data           8  qtmultimediakit_mmfengine.in(.constdata)
    KFalse                                   0x00015e94   Data           8  qtmultimediakit_mmfengine.in(.constdata)
    KSeekable                                0x00015e9c   Data          24  qtmultimediakit_mmfengine.in(.constdata)
    .constdata$1                             0x00015eb4   Data           0  qtmultimediakit_mmfengine.in(.constdata)
    KMimeTypePrefixAudio                     0x00015eb4   Data          20  qtmultimediakit_mmfengine.in(.constdata)
    .constdata                               0x00015eb4   Section       40  qtmultimediakit_mmfengine.in(.constdata)
    KMimeTypePrefixVideo                     0x00015ec8   Data          20  qtmultimediakit_mmfengine.in(.constdata)
    .constdata$1                             0x00015edc   Data           0  qtmultimediakit_mmfengine.in(.constdata)
    .constdata                               0x00015edc   Section      564  qtmultimediakit_mmfengine.in(.constdata)
    .constdata__ZTI14S60VideoWidget          0x00016110   Section       12  qtmultimediakit_mmfengine.in(.constdata__ZTI14S60VideoWidget)
    .constdata__ZTI15S60VideoDisplay         0x0001611c   Section       12  qtmultimediakit_mmfengine.in(.constdata__ZTI15S60VideoDisplay)
    .constdata__ZTI15S60VideoSurface         0x00016128   Section       12  qtmultimediakit_mmfengine.in(.constdata__ZTI15S60VideoSurface)
    .constdata__ZTI18S60MediaRecognizer      0x00016134   Section       12  qtmultimediakit_mmfengine.in(.constdata__ZTI18S60MediaRecognizer)
    .constdata__ZTI20MRadioPlayerObserver    0x00016140   Section        8  qtmultimediakit_mmfengine.in(.constdata__ZTI20MRadioPlayerObserver)
    .constdata__ZTI20S60RadioTunerControl    0x00016148   Section       40  qtmultimediakit_mmfengine.in(.constdata__ZTI20S60RadioTunerControl)
    .constdata__ZTI20S60RadioTunerService    0x00016170   Section       12  qtmultimediakit_mmfengine.in(.constdata__ZTI20S60RadioTunerService)
    .constdata__ZTI21MAudioLoadingObserver   0x0001617c   Section        8  qtmultimediakit_mmfengine.in(.constdata__ZTI21MAudioLoadingObserver)
    .constdata__ZTI21MRadioFmTunerObserver   0x00016184   Section        8  qtmultimediakit_mmfengine.in(.constdata__ZTI21MRadioFmTunerObserver)
    .constdata__ZTI21MVideoLoadingObserver   0x0001618c   Section        8  qtmultimediakit_mmfengine.in(.constdata__ZTI21MVideoLoadingObserver)
    .constdata__ZTI21S60AudioPlayerSession   0x00016194   Section       40  qtmultimediakit_mmfengine.in(.constdata__ZTI21S60AudioPlayerSession)
    .constdata__ZTI21S60MediaPlayerControl   0x000161bc   Section       12  qtmultimediakit_mmfengine.in(.constdata__ZTI21S60MediaPlayerControl)
    .constdata__ZTI21S60MediaPlayerService   0x000161c8   Section       32  qtmultimediakit_mmfengine.in(.constdata__ZTI21S60MediaPlayerService)
    .constdata__ZTI21S60MediaPlayerSession   0x000161e8   Section       12  qtmultimediakit_mmfengine.in(.constdata__ZTI21S60MediaPlayerSession)
    .constdata__ZTI21S60MediaServicePlugin   0x000161f4   Section       32  qtmultimediakit_mmfengine.in(.constdata__ZTI21S60MediaServicePlugin)
    .constdata__ZTI21S60MediaStreamControl   0x00016214   Section       12  qtmultimediakit_mmfengine.in(.constdata__ZTI21S60MediaStreamControl)
    .constdata__ZTI21S60VideoPlayerSession   0x00016220   Section       40  qtmultimediakit_mmfengine.in(.constdata__ZTI21S60VideoPlayerSession)
    .constdata__ZTI21S60VideoWidgetControl   0x00016248   Section       12  qtmultimediakit_mmfengine.in(.constdata__ZTI21S60VideoWidgetControl)
    .constdata__ZTI21S60VideoWidgetDisplay   0x00016254   Section       12  qtmultimediakit_mmfengine.in(.constdata__ZTI21S60VideoWidgetDisplay)
    .constdata__ZTI21S60VideoWindowControl   0x00016260   Section       12  qtmultimediakit_mmfengine.in(.constdata__ZTI21S60VideoWindowControl)
    .constdata__ZTI21S60VideoWindowDisplay   0x0001626c   Section       12  qtmultimediakit_mmfengine.in(.constdata__ZTI21S60VideoWindowDisplay)
    .constdata__ZTI22S60AudioCaptureService  0x00016278   Section       12  qtmultimediakit_mmfengine.in(.constdata__ZTI22S60AudioCaptureService)
    .constdata__ZTI22S60AudioCaptureSession  0x00016284   Section       32  qtmultimediakit_mmfengine.in(.constdata__ZTI22S60AudioCaptureSession)
    .constdata__ZTI22S60AudioEncoderControl  0x000162a4   Section       12  qtmultimediakit_mmfengine.in(.constdata__ZTI22S60AudioEncoderControl)
    .constdata__ZTI23MMdaAudioPlayerCallback 0x000162b0   Section        8  qtmultimediakit_mmfengine.in(.constdata__ZTI23MMdaAudioPlayerCallback)
    .constdata__ZTI23MS60MediaPlayerResolver 0x000162b8   Section        8  qtmultimediakit_mmfengine.in(.constdata__ZTI23MS60MediaPlayerResolver)
    .constdata__ZTI24S60AudioContainerControl 0x000162c0   Section       12  qtmultimediakit_mmfengine.in(.constdata__ZTI24S60AudioContainerControl)
    .constdata__ZTI24S60AudioEndpointSelector 0x000162cc   Section       12  qtmultimediakit_mmfengine.in(.constdata__ZTI24S60AudioEndpointSelector)
    .constdata__ZTI24S60MediaMetaDataProvider 0x000162d8   Section       12  qtmultimediakit_mmfengine.in(.constdata__ZTI24S60MediaMetaDataProvider)
    .constdata__ZTI27MVideoPlayerUtilityObserver 0x000162e4   Section        8  qtmultimediakit_mmfengine.in(.constdata__ZTI27MVideoPlayerUtilityObserver)
    .constdata__ZTI28S60AudioMediaRecorderControl 0x000162ec   Section       12  qtmultimediakit_mmfengine.in(.constdata__ZTI28S60AudioMediaRecorderControl)
    .constdata__ZTI29MMdaObjectStateChangeObserver 0x000162f8   Section        8  qtmultimediakit_mmfengine.in(.constdata__ZTI29MMdaObjectStateChangeObserver)
    .constdata__ZTI35S60MediaPlayerAudioEndpointSelector 0x00016300   Section       12  qtmultimediakit_mmfengine.in(.constdata__ZTI35S60MediaPlayerAudioEndpointSelector)
    .constdata__ZTI38QMediaServiceSupportedFormatsInterface 0x0001630c   Section        8  qtmultimediakit_mmfengine.in(.constdata__ZTI38QMediaServiceSupportedFormatsInterface)
    .constdata__ZTISt9bad_alloc              0x00016314   Section       12  qtmultimediakit_mmfengine.in(.constdata__ZTISt9bad_alloc)
    .constdata__ZTS14S60VideoWidget          0x00016320   Section       17  qtmultimediakit_mmfengine.in(.constdata__ZTS14S60VideoWidget)
    .constdata__ZTS15S60VideoDisplay         0x00016331   Section       18  qtmultimediakit_mmfengine.in(.constdata__ZTS15S60VideoDisplay)
    .constdata__ZTS15S60VideoSurface         0x00016343   Section       18  qtmultimediakit_mmfengine.in(.constdata__ZTS15S60VideoSurface)
    .constdata__ZTS18S60MediaRecognizer      0x00016355   Section       21  qtmultimediakit_mmfengine.in(.constdata__ZTS18S60MediaRecognizer)
    .constdata__ZTS20MRadioPlayerObserver    0x0001636a   Section       23  qtmultimediakit_mmfengine.in(.constdata__ZTS20MRadioPlayerObserver)
    .constdata__ZTS20S60RadioTunerControl    0x00016381   Section       23  qtmultimediakit_mmfengine.in(.constdata__ZTS20S60RadioTunerControl)
    .constdata__ZTS20S60RadioTunerService    0x00016398   Section       23  qtmultimediakit_mmfengine.in(.constdata__ZTS20S60RadioTunerService)
    .constdata__ZTS21MAudioLoadingObserver   0x000163af   Section       24  qtmultimediakit_mmfengine.in(.constdata__ZTS21MAudioLoadingObserver)
    .constdata__ZTS21MRadioFmTunerObserver   0x000163c7   Section       24  qtmultimediakit_mmfengine.in(.constdata__ZTS21MRadioFmTunerObserver)
    .constdata__ZTS21MVideoLoadingObserver   0x000163df   Section       24  qtmultimediakit_mmfengine.in(.constdata__ZTS21MVideoLoadingObserver)
    .constdata__ZTS21S60AudioPlayerSession   0x000163f7   Section       24  qtmultimediakit_mmfengine.in(.constdata__ZTS21S60AudioPlayerSession)
    .constdata__ZTS21S60MediaPlayerControl   0x0001640f   Section       24  qtmultimediakit_mmfengine.in(.constdata__ZTS21S60MediaPlayerControl)
    .constdata__ZTS21S60MediaPlayerService   0x00016427   Section       24  qtmultimediakit_mmfengine.in(.constdata__ZTS21S60MediaPlayerService)
    .constdata__ZTS21S60MediaPlayerSession   0x0001643f   Section       24  qtmultimediakit_mmfengine.in(.constdata__ZTS21S60MediaPlayerSession)
    .constdata__ZTS21S60MediaServicePlugin   0x00016457   Section       24  qtmultimediakit_mmfengine.in(.constdata__ZTS21S60MediaServicePlugin)
    .constdata__ZTS21S60MediaStreamControl   0x0001646f   Section       24  qtmultimediakit_mmfengine.in(.constdata__ZTS21S60MediaStreamControl)
    .constdata__ZTS21S60VideoPlayerSession   0x00016487   Section       24  qtmultimediakit_mmfengine.in(.constdata__ZTS21S60VideoPlayerSession)
    .constdata__ZTS21S60VideoWidgetControl   0x0001649f   Section       24  qtmultimediakit_mmfengine.in(.constdata__ZTS21S60VideoWidgetControl)
    .constdata__ZTS21S60VideoWidgetDisplay   0x000164b7   Section       24  qtmultimediakit_mmfengine.in(.constdata__ZTS21S60VideoWidgetDisplay)
    .constdata__ZTS21S60VideoWindowControl   0x000164cf   Section       24  qtmultimediakit_mmfengine.in(.constdata__ZTS21S60VideoWindowControl)
    .constdata__ZTS21S60VideoWindowDisplay   0x000164e7   Section       24  qtmultimediakit_mmfengine.in(.constdata__ZTS21S60VideoWindowDisplay)
    .constdata__ZTS22S60AudioCaptureService  0x000164ff   Section       25  qtmultimediakit_mmfengine.in(.constdata__ZTS22S60AudioCaptureService)
    .constdata__ZTS22S60AudioCaptureSession  0x00016518   Section       25  qtmultimediakit_mmfengine.in(.constdata__ZTS22S60AudioCaptureSession)
    .constdata__ZTS22S60AudioEncoderControl  0x00016531   Section       25  qtmultimediakit_mmfengine.in(.constdata__ZTS22S60AudioEncoderControl)
    .constdata__ZTS23MMdaAudioPlayerCallback 0x0001654a   Section       26  qtmultimediakit_mmfengine.in(.constdata__ZTS23MMdaAudioPlayerCallback)
    .constdata__ZTS23MS60MediaPlayerResolver 0x00016564   Section       26  qtmultimediakit_mmfengine.in(.constdata__ZTS23MS60MediaPlayerResolver)
    .constdata__ZTS24S60AudioContainerControl 0x0001657e   Section       27  qtmultimediakit_mmfengine.in(.constdata__ZTS24S60AudioContainerControl)
    .constdata__ZTS24S60AudioEndpointSelector 0x00016599   Section       27  qtmultimediakit_mmfengine.in(.constdata__ZTS24S60AudioEndpointSelector)
    .constdata__ZTS24S60MediaMetaDataProvider 0x000165b4   Section       27  qtmultimediakit_mmfengine.in(.constdata__ZTS24S60MediaMetaDataProvider)
    .constdata__ZTS27MVideoPlayerUtilityObserver 0x000165cf   Section       30  qtmultimediakit_mmfengine.in(.constdata__ZTS27MVideoPlayerUtilityObserver)
    .constdata__ZTS28S60AudioMediaRecorderControl 0x000165ed   Section       31  qtmultimediakit_mmfengine.in(.constdata__ZTS28S60AudioMediaRecorderControl)
    .constdata__ZTS29MMdaObjectStateChangeObserver 0x0001660c   Section       32  qtmultimediakit_mmfengine.in(.constdata__ZTS29MMdaObjectStateChangeObserver)
    .constdata__ZTS35S60MediaPlayerAudioEndpointSelector 0x0001662c   Section       38  qtmultimediakit_mmfengine.in(.constdata__ZTS35S60MediaPlayerAudioEndpointSelector)
    .constdata__ZTS38QMediaServiceSupportedFormatsInterface 0x00016652   Section       41  qtmultimediakit_mmfengine.in(.constdata__ZTS38QMediaServiceSupportedFormatsInterface)
    .constdata__ZTSSt9bad_alloc              0x0001667b   Section       13  qtmultimediakit_mmfengine.in(.constdata__ZTSSt9bad_alloc)
    .constdata__ZTV14S60VideoWidget          0x00016688   Section      248  qtmultimediakit_mmfengine.in(.constdata__ZTV14S60VideoWidget)
    .constdata__ZTV15S60VideoDisplay         0x00016780   Section       68  qtmultimediakit_mmfengine.in(.constdata__ZTV15S60VideoDisplay)
    .constdata__ZTV15S60VideoSurface         0x000167c4   Section       80  qtmultimediakit_mmfengine.in(.constdata__ZTV15S60VideoSurface)
    .constdata__ZTV18S60MediaRecognizer      0x00016814   Section       56  qtmultimediakit_mmfengine.in(.constdata__ZTV18S60MediaRecognizer)
    .constdata__ZTV20S60RadioTunerControl    0x0001684c   Section      296  qtmultimediakit_mmfengine.in(.constdata__ZTV20S60RadioTunerControl)
    .constdata__ZTV20S60RadioTunerService    0x00016974   Section       64  qtmultimediakit_mmfengine.in(.constdata__ZTV20S60RadioTunerService)
    .constdata__ZTV21S60AudioPlayerSession   0x000169b4   Section      188  qtmultimediakit_mmfengine.in(.constdata__ZTV21S60AudioPlayerSession)
    .constdata__ZTV21S60MediaPlayerControl   0x00016a70   Section      144  qtmultimediakit_mmfengine.in(.constdata__ZTV21S60MediaPlayerControl)
    .constdata__ZTV21S60MediaPlayerService   0x00016b00   Section       96  qtmultimediakit_mmfengine.in(.constdata__ZTV21S60MediaPlayerService)
    .constdata__ZTV21S60MediaPlayerSession   0x00016b60   Section      140  qtmultimediakit_mmfengine.in(.constdata__ZTV21S60MediaPlayerSession)
    .constdata__ZTV21S60MediaServicePlugin   0x00016bec   Section      128  qtmultimediakit_mmfengine.in(.constdata__ZTV21S60MediaServicePlugin)
    .constdata__ZTV21S60MediaStreamControl   0x00016c6c   Section       76  qtmultimediakit_mmfengine.in(.constdata__ZTV21S60MediaStreamControl)
    .constdata__ZTV21S60VideoPlayerSession   0x00016cb8   Section      212  qtmultimediakit_mmfengine.in(.constdata__ZTV21S60VideoPlayerSession)
    .constdata__ZTV21S60VideoWidgetControl   0x00016d8c   Section      108  qtmultimediakit_mmfengine.in(.constdata__ZTV21S60VideoWidgetControl)
    .constdata__ZTV21S60VideoWidgetDisplay   0x00016df8   Section       68  qtmultimediakit_mmfengine.in(.constdata__ZTV21S60VideoWidgetDisplay)
    .constdata__ZTV21S60VideoWindowControl   0x00016e3c   Section      128  qtmultimediakit_mmfengine.in(.constdata__ZTV21S60VideoWindowControl)
    .constdata__ZTV21S60VideoWindowDisplay   0x00016ebc   Section       68  qtmultimediakit_mmfengine.in(.constdata__ZTV21S60VideoWindowDisplay)
    .constdata__ZTV22S60AudioCaptureService  0x00016f00   Section       64  qtmultimediakit_mmfengine.in(.constdata__ZTV22S60AudioCaptureService)
    .constdata__ZTV22S60AudioCaptureSession  0x00016f40   Section       72  qtmultimediakit_mmfengine.in(.constdata__ZTV22S60AudioCaptureSession)
    .constdata__ZTV22S60AudioEncoderControl  0x00016f88   Section       88  qtmultimediakit_mmfengine.in(.constdata__ZTV22S60AudioEncoderControl)
    .constdata__ZTV24S60AudioContainerControl 0x00016fe0   Section       72  qtmultimediakit_mmfengine.in(.constdata__ZTV24S60AudioContainerControl)
    .constdata__ZTV24S60AudioEndpointSelector 0x00017028   Section       76  qtmultimediakit_mmfengine.in(.constdata__ZTV24S60AudioEndpointSelector)
    .constdata__ZTV24S60MediaMetaDataProvider 0x00017074   Section       76  qtmultimediakit_mmfengine.in(.constdata__ZTV24S60MediaMetaDataProvider)
    .constdata__ZTV28S60AudioMediaRecorderControl 0x000170c0   Section       96  qtmultimediakit_mmfengine.in(.constdata__ZTV28S60AudioMediaRecorderControl)
    .constdata__ZTV35S60MediaPlayerAudioEndpointSelector 0x00017120   Section       76  qtmultimediakit_mmfengine.in(.constdata__ZTV35S60MediaPlayerAudioEndpointSelector)
    .init_array                              0x0001716c   Section        4  qtmultimediakit_mmfengine.in(.init_array)
    .ARM.exidx                               0x00017170   Section        8  ucppinit_aeabi.o(.ARM.exidx)
    .data$0                                  0x00400000   Data           0  qtmultimediakit_mmfengine.in(.data)
    _ZGV_instance@qt_plugin_instance_0       0x00400000   Data           4  qtmultimediakit_mmfengine.in(.data)
    .data                                    0x00400000   Section        8  qtmultimediakit_mmfengine.in(.data)
    _instance@qt_plugin_instance_1           0x00400004   Data           4  qtmultimediakit_mmfengine.in(.data)
    .data$0                                  0x00400008   Data           0  qtmultimediakit_mmfengine.in(.data)
    DefaultAudioEndpoint                     0x00400008   Data           4  qtmultimediakit_mmfengine.in(.data)
    .data                                    0x00400008   Section        4  qtmultimediakit_mmfengine.in(.data)
    .data$0                                  0x0040000c   Data           0  ucppfini.o(.data)
    .data                                    0x0040000c   Section        4  ucppfini.o(.data)
    .bss$5                                   0x00400010   Data           0  ucppfini.o(.bss)
    dtor_rec                                 0x00400010   Data        2048  ucppfini.o(.bss)
    .bss                                     0x00400010   Section     2048  ucppfini.o(.bss)

    Global Symbols

    Symbol Name                              Value     Ov Type        Size  Object(Section)

    BuildAttributes$$THUMB_ISAv2$ARM_ISAv5$M$PE$A:L22$X:L11$S22$IEEE1$IW$USESV6$~STKCKD$USESV7$~SHL$OSPACE$IEEEJ$EBA8$UX$REQ8$PRES8$EABIv2 0x00000000   Number         0  anon$$obj.o ABSOLUTE
    #<DLL>QtCore{00040703}[2001b2dc].dll#<\DLL>112  - Undefined Reference
    #<DLL>QtCore{00040703}[2001b2dc].dll#<\DLL>113  - Undefined Reference
    #<DLL>QtCore{00040703}[2001b2dc].dll#<\DLL>114  - Undefined Reference
    #<DLL>QtCore{00040703}[2001b2dc].dll#<\DLL>11a  - Undefined Reference
    #<DLL>QtCore{00040703}[2001b2dc].dll#<\DLL>138  - Undefined Reference
    #<DLL>QtCore{00040703}[2001b2dc].dll#<\DLL>144  - Undefined Reference
    #<DLL>QtCore{00040703}[2001b2dc].dll#<\DLL>14b  - Undefined Reference
    #<DLL>QtCore{00040703}[2001b2dc].dll#<\DLL>14c  - Undefined Reference
    #<DLL>QtCore{00040703}[2001b2dc].dll#<\DLL>20  - Undefined Reference
    #<DLL>QtCore{00040703}[2001b2dc].dll#<\DLL>27a  - Undefined Reference
    #<DLL>QtCore{00040703}[2001b2dc].dll#<\DLL>2e  - Undefined Reference
    #<DLL>QtCore{00040703}[2001b2dc].dll#<\DLL>46  - Undefined Reference
    #<DLL>QtCore{00040703}[2001b2dc].dll#<\DLL>49  - Undefined Reference
    #<DLL>QtCore{00040703}[2001b2dc].dll#<\DLL>5ad  - Undefined Reference
    #<DLL>QtCore{00040703}[2001b2dc].dll#<\DLL>5ba  - Undefined Reference
    #<DLL>QtCore{00040703}[2001b2dc].dll#<\DLL>5bf  - Undefined Reference
    #<DLL>QtCore{00040703}[2001b2dc].dll#<\DLL>5c5  - Undefined Reference
    #<DLL>QtCore{00040703}[2001b2dc].dll#<\DLL>5e  - Undefined Reference
    #<DLL>QtCore{00040703}[2001b2dc].dll#<\DLL>5ec  - Undefined Reference
    #<DLL>QtCore{00040703}[2001b2dc].dll#<\DLL>5f3  - Undefined Reference
    #<DLL>QtCore{00040703}[2001b2dc].dll#<\DLL>5f5  - Undefined Reference
    #<DLL>QtCore{00040703}[2001b2dc].dll#<\DLL>5f6  - Undefined Reference
    #<DLL>QtCore{00040703}[2001b2dc].dll#<\DLL>5fb  - Undefined Reference
    #<DLL>QtCore{00040703}[2001b2dc].dll#<\DLL>5fe  - Undefined Reference
    #<DLL>QtCore{00040703}[2001b2dc].dll#<\DLL>618  - Undefined Reference
    #<DLL>QtCore{00040703}[2001b2dc].dll#<\DLL>662  - Undefined Reference
    #<DLL>QtCore{00040703}[2001b2dc].dll#<\DLL>6b1  - Undefined Reference
    #<DLL>QtCore{00040703}[2001b2dc].dll#<\DLL>6b2  - Undefined Reference
    #<DLL>QtCore{00040703}[2001b2dc].dll#<\DLL>6b5  - Undefined Reference
    #<DLL>QtCore{00040703}[2001b2dc].dll#<\DLL>6e0  - Undefined Reference
    #<DLL>QtCore{00040703}[2001b2dc].dll#<\DLL>6e1  - Undefined Reference
    #<DLL>QtCore{00040703}[2001b2dc].dll#<\DLL>6e3  - Undefined Reference
    #<DLL>QtCore{00040703}[2001b2dc].dll#<\DLL>6e4  - Undefined Reference
    #<DLL>QtCore{00040703}[2001b2dc].dll#<\DLL>6e6  - Undefined Reference
    #<DLL>QtCore{00040703}[2001b2dc].dll#<\DLL>6e7  - Undefined Reference
    #<DLL>QtCore{00040703}[2001b2dc].dll#<\DLL>6e8  - Undefined Reference
    #<DLL>QtCore{00040703}[2001b2dc].dll#<\DLL>6e9  - Undefined Reference
    #<DLL>QtCore{00040703}[2001b2dc].dll#<\DLL>6ed  - Undefined Reference
    #<DLL>QtCore{00040703}[2001b2dc].dll#<\DLL>6f1  - Undefined Reference
    #<DLL>QtCore{00040703}[2001b2dc].dll#<\DLL>6f5  - Undefined Reference
    #<DLL>QtCore{00040703}[2001b2dc].dll#<\DLL>6f8  - Undefined Reference
    #<DLL>QtCore{00040703}[2001b2dc].dll#<\DLL>6f9  - Undefined Reference
    #<DLL>QtCore{00040703}[2001b2dc].dll#<\DLL>6fd  - Undefined Reference
    #<DLL>QtCore{00040703}[2001b2dc].dll#<\DLL>702  - Undefined Reference
    #<DLL>QtCore{00040703}[2001b2dc].dll#<\DLL>721  - Undefined Reference
    #<DLL>QtCore{00040703}[2001b2dc].dll#<\DLL>722  - Undefined Reference
    #<DLL>QtCore{00040703}[2001b2dc].dll#<\DLL>724  - Undefined Reference
    #<DLL>QtCore{00040703}[2001b2dc].dll#<\DLL>726  - Undefined Reference
    #<DLL>QtCore{00040703}[2001b2dc].dll#<\DLL>72c  - Undefined Reference
    #<DLL>QtCore{00040703}[2001b2dc].dll#<\DLL>732  - Undefined Reference
    #<DLL>QtCore{00040703}[2001b2dc].dll#<\DLL>74f  - Undefined Reference
    #<DLL>QtCore{00040703}[2001b2dc].dll#<\DLL>752  - Undefined Reference
    #<DLL>QtCore{00040703}[2001b2dc].dll#<\DLL>753  - Undefined Reference
    #<DLL>QtCore{00040703}[2001b2dc].dll#<\DLL>75d  - Undefined Reference
    #<DLL>QtCore{00040703}[2001b2dc].dll#<\DLL>79b  - Undefined Reference
    #<DLL>QtCore{00040703}[2001b2dc].dll#<\DLL>79d  - Undefined Reference
    #<DLL>QtCore{00040703}[2001b2dc].dll#<\DLL>7da  - Undefined Reference
    #<DLL>QtCore{00040703}[2001b2dc].dll#<\DLL>7f2  - Undefined Reference
    #<DLL>QtCore{00040703}[2001b2dc].dll#<\DLL>7f5  - Undefined Reference
    #<DLL>QtCore{00040703}[2001b2dc].dll#<\DLL>7f6  - Undefined Reference
    #<DLL>QtCore{00040703}[2001b2dc].dll#<\DLL>7f8  - Undefined Reference
    #<DLL>QtCore{00040703}[2001b2dc].dll#<\DLL>822  - Undefined Reference
    #<DLL>QtCore{00040703}[2001b2dc].dll#<\DLL>824  - Undefined Reference
    #<DLL>QtCore{00040703}[2001b2dc].dll#<\DLL>856  - Undefined Reference
    #<DLL>QtCore{00040703}[2001b2dc].dll#<\DLL>85d  - Undefined Reference
    #<DLL>QtCore{00040703}[2001b2dc].dll#<\DLL>85f  - Undefined Reference
    #<DLL>QtCore{00040703}[2001b2dc].dll#<\DLL>88c  - Undefined Reference
    #<DLL>QtCore{00040703}[2001b2dc].dll#<\DLL>891  - Undefined Reference
    #<DLL>QtCore{00040703}[2001b2dc].dll#<\DLL>895  - Undefined Reference
    #<DLL>QtCore{00040703}[2001b2dc].dll#<\DLL>90e  - Undefined Reference
    #<DLL>QtCore{00040703}[2001b2dc].dll#<\DLL>911  - Undefined Reference
    #<DLL>QtCore{00040703}[2001b2dc].dll#<\DLL>96  - Undefined Reference
    #<DLL>QtCore{00040703}[2001b2dc].dll#<\DLL>970  - Undefined Reference
    #<DLL>QtCore{00040703}[2001b2dc].dll#<\DLL>972  - Undefined Reference
    #<DLL>QtCore{00040703}[2001b2dc].dll#<\DLL>ae8  - Undefined Reference
    #<DLL>QtCore{00040703}[2001b2dc].dll#<\DLL>af1  - Undefined Reference
    #<DLL>QtCore{00040703}[2001b2dc].dll#<\DLL>afc  - Undefined Reference
    #<DLL>QtCore{00040703}[2001b2dc].dll#<\DLL>b07  - Undefined Reference
    #<DLL>QtCore{00040703}[2001b2dc].dll#<\DLL>b19  - Undefined Reference
    #<DLL>QtCore{00040703}[2001b2dc].dll#<\DLL>b1a  - Undefined Reference
    #<DLL>QtCore{00040703}[2001b2dc].dll#<\DLL>b20  - Undefined Reference
    #<DLL>QtCore{00040703}[2001b2dc].dll#<\DLL>b5f  - Undefined Reference
    #<DLL>QtCore{00040703}[2001b2dc].dll#<\DLL>bdb  - Undefined Reference
    #<DLL>QtCore{00040703}[2001b2dc].dll#<\DLL>be0  - Undefined Reference
    #<DLL>QtCore{00040703}[2001b2dc].dll#<\DLL>bec  - Undefined Reference
    #<DLL>QtCore{00040703}[2001b2dc].dll#<\DLL>bee  - Undefined Reference
    #<DLL>QtCore{00040703}[2001b2dc].dll#<\DLL>bf7  - Undefined Reference
    #<DLL>QtCore{00040703}[2001b2dc].dll#<\DLL>bf8  - Undefined Reference
    #<DLL>QtCore{00040703}[2001b2dc].dll#<\DLL>bff  - Undefined Reference
    #<DLL>QtCore{00040703}[2001b2dc].dll#<\DLL>c00  - Undefined Reference
    #<DLL>QtCore{00040703}[2001b2dc].dll#<\DLL>c19  - Undefined Reference
    #<DLL>QtCore{00040703}[2001b2dc].dll#<\DLL>c1a  - Undefined Reference
    #<DLL>QtCore{00040703}[2001b2dc].dll#<\DLL>c1d  - Undefined Reference
    #<DLL>QtCore{00040703}[2001b2dc].dll#<\DLL>c43  - Undefined Reference
    #<DLL>QtCore{00040703}[2001b2dc].dll#<\DLL>c46  - Undefined Reference
    #<DLL>QtCore{00040703}[2001b2dc].dll#<\DLL>e00  - Undefined Reference
    #<DLL>QtCore{00040703}[2001b2dc].dll#<\DLL>e17  - Undefined Reference
    #<DLL>QtCore{00040703}[2001b2dc].dll#<\DLL>e18  - Undefined Reference
    #<DLL>QtCore{00040703}[2001b2dc].dll#<\DLL>e19  - Undefined Reference
    #<DLL>QtCore{00040703}[2001b2dc].dll#<\DLL>e1a  - Undefined Reference
    #<DLL>QtCore{00040703}[2001b2dc].dll#<\DLL>e69  - Undefined Reference
    #<DLL>QtCore{00040703}[2001b2dc].dll#<\DLL>e6b  - Undefined Reference
    #<DLL>QtGui{00040703}[2001b2dd].dll#<\DLL>1791  - Undefined Reference
    #<DLL>QtGui{00040703}[2001b2dd].dll#<\DLL>17a4  - Undefined Reference
    #<DLL>QtGui{00040703}[2001b2dd].dll#<\DLL>17af  - Undefined Reference
    #<DLL>QtGui{00040703}[2001b2dd].dll#<\DLL>17b1  - Undefined Reference
    #<DLL>QtGui{00040703}[2001b2dd].dll#<\DLL>1816  - Undefined Reference
    #<DLL>QtGui{00040703}[2001b2dd].dll#<\DLL>1817  - Undefined Reference
    #<DLL>QtGui{00040703}[2001b2dd].dll#<\DLL>1818  - Undefined Reference
    #<DLL>QtGui{00040703}[2001b2dd].dll#<\DLL>1819  - Undefined Reference
    #<DLL>QtGui{00040703}[2001b2dd].dll#<\DLL>181c  - Undefined Reference
    #<DLL>QtGui{00040703}[2001b2dd].dll#<\DLL>181e  - Undefined Reference
    #<DLL>QtGui{00040703}[2001b2dd].dll#<\DLL>1822  - Undefined Reference
    #<DLL>QtGui{00040703}[2001b2dd].dll#<\DLL>1823  - Undefined Reference
    #<DLL>QtGui{00040703}[2001b2dd].dll#<\DLL>1824  - Undefined Reference
    #<DLL>QtGui{00040703}[2001b2dd].dll#<\DLL>1827  - Undefined Reference
    #<DLL>QtGui{00040703}[2001b2dd].dll#<\DLL>1828  - Undefined Reference
    #<DLL>QtGui{00040703}[2001b2dd].dll#<\DLL>1829  - Undefined Reference
    #<DLL>QtGui{00040703}[2001b2dd].dll#<\DLL>182e  - Undefined Reference
    #<DLL>QtGui{00040703}[2001b2dd].dll#<\DLL>182f  - Undefined Reference
    #<DLL>QtGui{00040703}[2001b2dd].dll#<\DLL>1832  - Undefined Reference
    #<DLL>QtGui{00040703}[2001b2dd].dll#<\DLL>183a  - Undefined Reference
    #<DLL>QtGui{00040703}[2001b2dd].dll#<\DLL>1840  - Undefined Reference
    #<DLL>QtGui{00040703}[2001b2dd].dll#<\DLL>1841  - Undefined Reference
    #<DLL>QtGui{00040703}[2001b2dd].dll#<\DLL>1842  - Undefined Reference
    #<DLL>QtGui{00040703}[2001b2dd].dll#<\DLL>1844  - Undefined Reference
    #<DLL>QtGui{00040703}[2001b2dd].dll#<\DLL>1845  - Undefined Reference
    #<DLL>QtGui{00040703}[2001b2dd].dll#<\DLL>1848  - Undefined Reference
    #<DLL>QtGui{00040703}[2001b2dd].dll#<\DLL>184c  - Undefined Reference
    #<DLL>QtGui{00040703}[2001b2dd].dll#<\DLL>184e  - Undefined Reference
    #<DLL>QtGui{00040703}[2001b2dd].dll#<\DLL>184f  - Undefined Reference
    #<DLL>QtGui{00040703}[2001b2dd].dll#<\DLL>1850  - Undefined Reference
    #<DLL>QtGui{00040703}[2001b2dd].dll#<\DLL>1851  - Undefined Reference
    #<DLL>QtGui{00040703}[2001b2dd].dll#<\DLL>1852  - Undefined Reference
    #<DLL>QtGui{00040703}[2001b2dd].dll#<\DLL>185b  - Undefined Reference
    #<DLL>QtGui{00040703}[2001b2dd].dll#<\DLL>185d  - Undefined Reference
    #<DLL>QtGui{00040703}[2001b2dd].dll#<\DLL>185f  - Undefined Reference
    #<DLL>QtGui{00040703}[2001b2dd].dll#<\DLL>1866  - Undefined Reference
    #<DLL>QtGui{00040703}[2001b2dd].dll#<\DLL>1867  - Undefined Reference
    #<DLL>QtGui{00040703}[2001b2dd].dll#<\DLL>186f  - Undefined Reference
    #<DLL>QtGui{00040703}[2001b2dd].dll#<\DLL>1879  - Undefined Reference
    #<DLL>QtGui{00040703}[2001b2dd].dll#<\DLL>1884  - Undefined Reference
    #<DLL>QtGui{00040703}[2001b2dd].dll#<\DLL>1885  - Undefined Reference
    #<DLL>QtGui{00040703}[2001b2dd].dll#<\DLL>1887  - Undefined Reference
    #<DLL>QtGui{00040703}[2001b2dd].dll#<\DLL>188c  - Undefined Reference
    #<DLL>QtGui{00040703}[2001b2dd].dll#<\DLL>1897  - Undefined Reference
    #<DLL>QtGui{00040703}[2001b2dd].dll#<\DLL>18a4  - Undefined Reference
    #<DLL>QtGui{00040703}[2001b2dd].dll#<\DLL>18a7  - Undefined Reference
    #<DLL>QtGui{00040703}[2001b2dd].dll#<\DLL>18a8  - Undefined Reference
    #<DLL>QtGui{00040703}[2001b2dd].dll#<\DLL>18ae  - Undefined Reference
    #<DLL>QtGui{00040703}[2001b2dd].dll#<\DLL>18af  - Undefined Reference
    #<DLL>QtGui{00040703}[2001b2dd].dll#<\DLL>18b4  - Undefined Reference
    #<DLL>QtGui{00040703}[2001b2dd].dll#<\DLL>1938  - Undefined Reference
    #<DLL>QtGui{00040703}[2001b2dd].dll#<\DLL>1991  - Undefined Reference
    #<DLL>QtGui{00040703}[2001b2dd].dll#<\DLL>1995  - Undefined Reference
    #<DLL>QtGui{00040703}[2001b2dd].dll#<\DLL>199f  - Undefined Reference
    #<DLL>QtGui{00040703}[2001b2dd].dll#<\DLL>19ad  - Undefined Reference
    #<DLL>QtGui{00040703}[2001b2dd].dll#<\DLL>21f6  - Undefined Reference
    #<DLL>QtGui{00040703}[2001b2dd].dll#<\DLL>22  - Undefined Reference
    #<DLL>QtGui{00040703}[2001b2dd].dll#<\DLL>2703  - Undefined Reference
    #<DLL>QtGui{00040703}[2001b2dd].dll#<\DLL>2758  - Undefined Reference
    #<DLL>QtGui{00040703}[2001b2dd].dll#<\DLL>275c  - Undefined Reference
    #<DLL>QtGui{00040703}[2001b2dd].dll#<\DLL>276e  - Undefined Reference
    #<DLL>QtGui{00040703}[2001b2dd].dll#<\DLL>2772  - Undefined Reference
    #<DLL>QtGui{00040703}[2001b2dd].dll#<\DLL>277a  - Undefined Reference
    #<DLL>QtGui{00040703}[2001b2dd].dll#<\DLL>277c  - Undefined Reference
    #<DLL>QtGui{00040703}[2001b2dd].dll#<\DLL>2788  - Undefined Reference
    #<DLL>QtGui{00040703}[2001b2dd].dll#<\DLL>278c  - Undefined Reference
    #<DLL>QtGui{00040703}[2001b2dd].dll#<\DLL>2791  - Undefined Reference
    #<DLL>QtGui{00040703}[2001b2dd].dll#<\DLL>2795  - Undefined Reference
    #<DLL>QtGui{00040703}[2001b2dd].dll#<\DLL>279b  - Undefined Reference
    #<DLL>QtGui{00040703}[2001b2dd].dll#<\DLL>2cc4  - Undefined Reference
    #<DLL>QtGui{00040703}[2001b2dd].dll#<\DLL>2cc5  - Undefined Reference
    #<DLL>QtGui{00040703}[2001b2dd].dll#<\DLL>2cc6  - Undefined Reference
    #<DLL>QtGui{00040703}[2001b2dd].dll#<\DLL>5d5  - Undefined Reference
    #<DLL>QtGui{00040703}[2001b2dd].dll#<\DLL>5df  - Undefined Reference
    #<DLL>QtGui{00040703}[2001b2dd].dll#<\DLL>626  - Undefined Reference
    #<DLL>QtGui{00040703}[2001b2dd].dll#<\DLL>bf6  - Undefined Reference
    #<DLL>QtMultimediaKit{00010103}[2002ac77].dll#<\DLL>148  - Undefined Reference
    #<DLL>QtMultimediaKit{00010103}[2002ac77].dll#<\DLL>150  - Undefined Reference
    #<DLL>QtMultimediaKit{00010103}[2002ac77].dll#<\DLL>156  - Undefined Reference
    #<DLL>QtMultimediaKit{00010103}[2002ac77].dll#<\DLL>1ad  - Undefined Reference
    #<DLL>QtMultimediaKit{00010103}[2002ac77].dll#<\DLL>1ae  - Undefined Reference
    #<DLL>QtMultimediaKit{00010103}[2002ac77].dll#<\DLL>1af  - Undefined Reference
    #<DLL>QtMultimediaKit{00010103}[2002ac77].dll#<\DLL>1b0  - Undefined Reference
    #<DLL>QtMultimediaKit{00010103}[2002ac77].dll#<\DLL>1b1  - Undefined Reference
    #<DLL>QtMultimediaKit{00010103}[2002ac77].dll#<\DLL>1b2  - Undefined Reference
    #<DLL>QtMultimediaKit{00010103}[2002ac77].dll#<\DLL>1b3  - Undefined Reference
    #<DLL>QtMultimediaKit{00010103}[2002ac77].dll#<\DLL>1b4  - Undefined Reference
    #<DLL>QtMultimediaKit{00010103}[2002ac77].dll#<\DLL>1b7  - Undefined Reference
    #<DLL>QtMultimediaKit{00010103}[2002ac77].dll#<\DLL>1b8  - Undefined Reference
    #<DLL>QtMultimediaKit{00010103}[2002ac77].dll#<\DLL>1ba  - Undefined Reference
    #<DLL>QtMultimediaKit{00010103}[2002ac77].dll#<\DLL>1bd  - Undefined Reference
    #<DLL>QtMultimediaKit{00010103}[2002ac77].dll#<\DLL>1d2  - Undefined Reference
    #<DLL>QtMultimediaKit{00010103}[2002ac77].dll#<\DLL>1d3  - Undefined Reference
    #<DLL>QtMultimediaKit{00010103}[2002ac77].dll#<\DLL>1d4  - Undefined Reference
    #<DLL>QtMultimediaKit{00010103}[2002ac77].dll#<\DLL>1d6  - Undefined Reference
    #<DLL>QtMultimediaKit{00010103}[2002ac77].dll#<\DLL>1dc  - Undefined Reference
    #<DLL>QtMultimediaKit{00010103}[2002ac77].dll#<\DLL>1e3  - Undefined Reference
    #<DLL>QtMultimediaKit{00010103}[2002ac77].dll#<\DLL>1e4  - Undefined Reference
    #<DLL>QtMultimediaKit{00010103}[2002ac77].dll#<\DLL>1e7  - Undefined Reference
    #<DLL>QtMultimediaKit{00010103}[2002ac77].dll#<\DLL>206  - Undefined Reference
    #<DLL>QtMultimediaKit{00010103}[2002ac77].dll#<\DLL>207  - Undefined Reference
    #<DLL>QtMultimediaKit{00010103}[2002ac77].dll#<\DLL>20e  - Undefined Reference
    #<DLL>QtMultimediaKit{00010103}[2002ac77].dll#<\DLL>211  - Undefined Reference
    #<DLL>QtMultimediaKit{00010103}[2002ac77].dll#<\DLL>213  - Undefined Reference
    #<DLL>QtMultimediaKit{00010103}[2002ac77].dll#<\DLL>214  - Undefined Reference
    #<DLL>QtMultimediaKit{00010103}[2002ac77].dll#<\DLL>21c  - Undefined Reference
    #<DLL>QtMultimediaKit{00010103}[2002ac77].dll#<\DLL>21f  - Undefined Reference
    #<DLL>QtMultimediaKit{00010103}[2002ac77].dll#<\DLL>22c  - Undefined Reference
    #<DLL>QtMultimediaKit{00010103}[2002ac77].dll#<\DLL>22d  - Undefined Reference
    #<DLL>QtMultimediaKit{00010103}[2002ac77].dll#<\DLL>230  - Undefined Reference
    #<DLL>QtMultimediaKit{00010103}[2002ac77].dll#<\DLL>233  - Undefined Reference
    #<DLL>QtMultimediaKit{00010103}[2002ac77].dll#<\DLL>242  - Undefined Reference
    #<DLL>QtMultimediaKit{00010103}[2002ac77].dll#<\DLL>243  - Undefined Reference
    #<DLL>QtMultimediaKit{00010103}[2002ac77].dll#<\DLL>244  - Undefined Reference
    #<DLL>QtMultimediaKit{00010103}[2002ac77].dll#<\DLL>248  - Undefined Reference
    #<DLL>QtMultimediaKit{00010103}[2002ac77].dll#<\DLL>24b  - Undefined Reference
    #<DLL>QtMultimediaKit{00010103}[2002ac77].dll#<\DLL>254  - Undefined Reference
    #<DLL>QtMultimediaKit{00010103}[2002ac77].dll#<\DLL>255  - Undefined Reference
    #<DLL>QtMultimediaKit{00010103}[2002ac77].dll#<\DLL>25e  - Undefined Reference
    #<DLL>QtMultimediaKit{00010103}[2002ac77].dll#<\DLL>262  - Undefined Reference
    #<DLL>QtMultimediaKit{00010103}[2002ac77].dll#<\DLL>265  - Undefined Reference
    #<DLL>QtMultimediaKit{00010103}[2002ac77].dll#<\DLL>266  - Undefined Reference
    #<DLL>QtMultimediaKit{00010103}[2002ac77].dll#<\DLL>268  - Undefined Reference
    #<DLL>QtMultimediaKit{00010103}[2002ac77].dll#<\DLL>269  - Undefined Reference
    #<DLL>QtMultimediaKit{00010103}[2002ac77].dll#<\DLL>26a  - Undefined Reference
    #<DLL>QtMultimediaKit{00010103}[2002ac77].dll#<\DLL>26d  - Undefined Reference
    #<DLL>QtMultimediaKit{00010103}[2002ac77].dll#<\DLL>26f  - Undefined Reference
    #<DLL>QtMultimediaKit{00010103}[2002ac77].dll#<\DLL>287  - Undefined Reference
    #<DLL>QtMultimediaKit{00010103}[2002ac77].dll#<\DLL>288  - Undefined Reference
    #<DLL>QtMultimediaKit{00010103}[2002ac77].dll#<\DLL>28a  - Undefined Reference
    #<DLL>QtMultimediaKit{00010103}[2002ac77].dll#<\DLL>28f  - Undefined Reference
    #<DLL>QtMultimediaKit{00010103}[2002ac77].dll#<\DLL>292  - Undefined Reference
    #<DLL>QtMultimediaKit{00010103}[2002ac77].dll#<\DLL>2af  - Undefined Reference
    #<DLL>QtMultimediaKit{00010103}[2002ac77].dll#<\DLL>2b0  - Undefined Reference
    #<DLL>QtMultimediaKit{00010103}[2002ac77].dll#<\DLL>2b3  - Undefined Reference
    #<DLL>QtMultimediaKit{00010103}[2002ac77].dll#<\DLL>2b5  - Undefined Reference
    #<DLL>QtMultimediaKit{00010103}[2002ac77].dll#<\DLL>2b8  - Undefined Reference
    #<DLL>QtMultimediaKit{00010103}[2002ac77].dll#<\DLL>2b9  - Undefined Reference
    #<DLL>QtMultimediaKit{00010103}[2002ac77].dll#<\DLL>2ba  - Undefined Reference
    #<DLL>QtMultimediaKit{00010103}[2002ac77].dll#<\DLL>2bd  - Undefined Reference
    #<DLL>QtMultimediaKit{00010103}[2002ac77].dll#<\DLL>2c0  - Undefined Reference
    #<DLL>QtMultimediaKit{00010103}[2002ac77].dll#<\DLL>2e5  - Undefined Reference
    #<DLL>QtMultimediaKit{00010103}[2002ac77].dll#<\DLL>2e6  - Undefined Reference
    #<DLL>QtMultimediaKit{00010103}[2002ac77].dll#<\DLL>2eb  - Undefined Reference
    #<DLL>QtMultimediaKit{00010103}[2002ac77].dll#<\DLL>2ee  - Undefined Reference
    #<DLL>QtMultimediaKit{00010103}[2002ac77].dll#<\DLL>33a  - Undefined Reference
    #<DLL>QtMultimediaKit{00010103}[2002ac77].dll#<\DLL>33b  - Undefined Reference
    #<DLL>QtMultimediaKit{00010103}[2002ac77].dll#<\DLL>36a  - Undefined Reference
    #<DLL>QtMultimediaKit{00010103}[2002ac77].dll#<\DLL>36b  - Undefined Reference
    #<DLL>QtMultimediaKit{00010103}[2002ac77].dll#<\DLL>36c  - Undefined Reference
    #<DLL>QtMultimediaKit{00010103}[2002ac77].dll#<\DLL>36e  - Undefined Reference
    #<DLL>QtMultimediaKit{00010103}[2002ac77].dll#<\DLL>370  - Undefined Reference
    #<DLL>QtMultimediaKit{00010103}[2002ac77].dll#<\DLL>371  - Undefined Reference
    #<DLL>QtMultimediaKit{00010103}[2002ac77].dll#<\DLL>372  - Undefined Reference
    #<DLL>QtMultimediaKit{00010103}[2002ac77].dll#<\DLL>3a7  - Undefined Reference
    #<DLL>QtMultimediaKit{00010103}[2002ac77].dll#<\DLL>3aa  - Undefined Reference
    #<DLL>QtMultimediaKit{00010103}[2002ac77].dll#<\DLL>3ac  - Undefined Reference
    #<DLL>QtMultimediaKit{00010103}[2002ac77].dll#<\DLL>439  - Undefined Reference
    #<DLL>QtMultimediaKit{00010103}[2002ac77].dll#<\DLL>43e  - Undefined Reference
    #<DLL>QtMultimediaKit{00010103}[2002ac77].dll#<\DLL>43f  - Undefined Reference
    #<DLL>QtMultimediaKit{00010103}[2002ac77].dll#<\DLL>440  - Undefined Reference
    #<DLL>QtMultimediaKit{00010103}[2002ac77].dll#<\DLL>441  - Undefined Reference
    #<DLL>QtMultimediaKit{00010103}[2002ac77].dll#<\DLL>443  - Undefined Reference
    #<DLL>QtMultimediaKit{00010103}[2002ac77].dll#<\DLL>444  - Undefined Reference
    #<DLL>QtMultimediaKit{00010103}[2002ac77].dll#<\DLL>47  - Undefined Reference
    #<DLL>QtMultimediaKit{00010103}[2002ac77].dll#<\DLL>49  - Undefined Reference
    #<DLL>QtMultimediaKit{00010103}[2002ac77].dll#<\DLL>4b  - Undefined Reference
    #<DLL>QtMultimediaKit{00010103}[2002ac77].dll#<\DLL>4c  - Undefined Reference
    #<DLL>QtMultimediaKit{00010103}[2002ac77].dll#<\DLL>4e  - Undefined Reference
    #<DLL>QtMultimediaKit{00010103}[2002ac77].dll#<\DLL>4f  - Undefined Reference
    #<DLL>QtMultimediaKit{00010103}[2002ac77].dll#<\DLL>50  - Undefined Reference
    #<DLL>QtMultimediaKit{00010103}[2002ac77].dll#<\DLL>53  - Undefined Reference
    #<DLL>QtMultimediaKit{00010103}[2002ac77].dll#<\DLL>55  - Undefined Reference
    #<DLL>QtMultimediaKit{00010103}[2002ac77].dll#<\DLL>d6  - Undefined Reference
    #<DLL>QtMultimediaKit{00010103}[2002ac77].dll#<\DLL>d7  - Undefined Reference
    #<DLL>QtMultimediaKit{00010103}[2002ac77].dll#<\DLL>de  - Undefined Reference
    #<DLL>QtMultimediaKit{00010103}[2002ac77].dll#<\DLL>e0  - Undefined Reference
    #<DLL>QtMultimediaKit{00010103}[2002ac77].dll#<\DLL>ec  - Undefined Reference
    #<DLL>QtMultimediaKit{00010103}[2002ac77].dll#<\DLL>ed  - Undefined Reference
    #<DLL>QtMultimediaKit{00010103}[2002ac77].dll#<\DLL>f0  - Undefined Reference
    #<DLL>QtMultimediaKit{00010103}[2002ac77].dll#<\DLL>f4  - Undefined Reference
    #<DLL>Radio_Utility{000a0001}[10207b81].dll#<\DLL>2b  - Undefined Reference
    #<DLL>Radio_Utility{000a0001}[10207b81].dll#<\DLL>2c  - Undefined Reference
    #<DLL>Radio_Utility{000a0001}[10207b81].dll#<\DLL>2d  - Undefined Reference
    #<DLL>Radio_Utility{000a0001}[10207b81].dll#<\DLL>2e  - Undefined Reference
    #<DLL>Radio_Utility{000a0001}[10207b81].dll#<\DLL>30  - Undefined Reference
    #<DLL>Radio_Utility{000a0001}[10207b81].dll#<\DLL>35  - Undefined Reference
    #<DLL>Radio_Utility{000a0001}[10207b81].dll#<\DLL>36  - Undefined Reference
    #<DLL>Radio_Utility{000a0001}[10207b81].dll#<\DLL>38  - Undefined Reference
    #<DLL>Radio_Utility{000a0001}[10207b81].dll#<\DLL>3b  - Undefined Reference
    #<DLL>Radio_Utility{000a0001}[10207b81].dll#<\DLL>3c  - Undefined Reference
    #<DLL>Radio_Utility{000a0001}[10207b81].dll#<\DLL>3e  - Undefined Reference
    #<DLL>Radio_Utility{000a0001}[10207b81].dll#<\DLL>3f  - Undefined Reference
    #<DLL>Radio_Utility{000a0001}[10207b81].dll#<\DLL>48  - Undefined Reference
    #<DLL>Radio_Utility{000a0001}[10207b81].dll#<\DLL>4d  - Undefined Reference
    #<DLL>Radio_Utility{000a0001}[10207b81].dll#<\DLL>4e  - Undefined Reference
    #<DLL>Radio_Utility{000a0001}[10207b81].dll#<\DLL>4f  - Undefined Reference
    #<DLL>Radio_Utility{000a0001}[10207b81].dll#<\DLL>6  - Undefined Reference
    #<DLL>Radio_Utility{000a0001}[10207b81].dll#<\DLL>7  - Undefined Reference
    #<DLL>Radio_Utility{000a0001}[10207b81].dll#<\DLL>8  - Undefined Reference
    #<DLL>apgrfx{000a0000}[10003a3c].dll#<\DLL>13a  - Undefined Reference
    #<DLL>apgrfx{000a0000}[10003a3c].dll#<\DLL>143  - Undefined Reference
    #<DLL>apgrfx{000a0000}[10003a3c].dll#<\DLL>19  - Undefined Reference
    #<DLL>apgrfx{000a0000}[10003a3c].dll#<\DLL>1c  - Undefined Reference
    #<DLL>apmime{000a0000}[10003a1a].dll#<\DLL>3d  - Undefined Reference
    #<DLL>apmime{000a0000}[10003a1a].dll#<\DLL>4d  - Undefined Reference
    #<DLL>bafl{000a0000}[10003a0f].dll#<\DLL>100  - Undefined Reference
    #<DLL>bafl{000a0000}[10003a0f].dll#<\DLL>101  - Undefined Reference
    #<DLL>bafl{000a0000}[10003a0f].dll#<\DLL>110  - Undefined Reference
    #<DLL>bafl{000a0000}[10003a0f].dll#<\DLL>12  - Undefined Reference
    #<DLL>bafl{000a0000}[10003a0f].dll#<\DLL>67  - Undefined Reference
    #<DLL>cone{000a0000}[10003a41].dll#<\DLL>106  - Undefined Reference
    #<DLL>cone{000a0000}[10003a41].dll#<\DLL>11f  - Undefined Reference
    #<DLL>cone{000a0000}[10003a41].dll#<\DLL>b6  - Undefined Reference
    #<DLL>dfpaeabi{000a0000}.dll#<\DLL>13     - Undefined Reference
    #<DLL>dfpaeabi{000a0000}.dll#<\DLL>14     - Undefined Reference
    #<DLL>dfpaeabi{000a0000}.dll#<\DLL>18     - Undefined Reference
    #<DLL>dfpaeabi{000a0000}.dll#<\DLL>19     - Undefined Reference
    #<DLL>dfpaeabi{000a0000}.dll#<\DLL>24     - Undefined Reference
    #<DLL>dfpaeabi{000a0000}.dll#<\DLL>25     - Undefined Reference
    #<DLL>dfpaeabi{000a0000}.dll#<\DLL>28     - Undefined Reference
    #<DLL>dfpaeabi{000a0000}.dll#<\DLL>29     - Undefined Reference
    #<DLL>dfpaeabi{000a0000}.dll#<\DLL>2a     - Undefined Reference
    #<DLL>dfpaeabi{000a0000}.dll#<\DLL>4      - Undefined Reference
    #<DLL>dfpaeabi{000a0000}.dll#<\DLL>5      - Undefined Reference
    #<DLL>dfpaeabi{000a0000}.dll#<\DLL>6      - Undefined Reference
    #<DLL>dfpaeabi{000a0000}.dll#<\DLL>8      - Undefined Reference
    #<DLL>drtaeabi{000a0000}.dll#<\DLL>87     - Undefined Reference
    #<DLL>drtaeabi{000a0000}.dll#<\DLL>8b     - Undefined Reference
    #<DLL>drtaeabi{000a0000}.dll#<\DLL>93     - Undefined Reference
    #<DLL>drtaeabi{000a0000}.dll#<\DLL>9b     - Undefined Reference
    #<DLL>drtaeabi{000a0000}.dll#<\DLL>9e     - Undefined Reference
    #<DLL>drtaeabi{000a0000}.dll#<\DLL>b4     - Undefined Reference
    #<DLL>drtaeabi{000a0000}.dll#<\DLL>b7     - Undefined Reference
    #<DLL>drtaeabi{000a0000}.dll#<\DLL>b8     - Undefined Reference
    #<DLL>drtaeabi{000a0000}.dll#<\DLL>ba     - Undefined Reference
    #<DLL>drtaeabi{000a0000}.dll#<\DLL>bb     - Undefined Reference
    #<DLL>drtaeabi{000a0000}.dll#<\DLL>bc     - Undefined Reference
    #<DLL>drtaeabi{000a0000}.dll#<\DLL>bd     - Undefined Reference
    #<DLL>drtaeabi{000a0000}.dll#<\DLL>be     - Undefined Reference
    #<DLL>drtrvct2_2{000a0000}.dll#<\DLL>1c   - Undefined Reference
    #<DLL>drtrvct2_2{000a0000}.dll#<\DLL>33   - Undefined Reference
    #<DLL>drtrvct2_2{000a0000}.dll#<\DLL>38   - Undefined Reference
    #<DLL>drtrvct2_2{000a0000}.dll#<\DLL>39   - Undefined Reference
    #<DLL>efsrv{000a0000}[100039e4].dll#<\DLL>12c  - Undefined Reference
    #<DLL>efsrv{000a0000}[100039e4].dll#<\DLL>44  - Undefined Reference
    #<DLL>efsrv{000a0000}[100039e4].dll#<\DLL>5d  - Undefined Reference
    #<DLL>euser{000a0000}[100039e5].dll#<\DLL>1d6  - Undefined Reference
    #<DLL>euser{000a0000}[100039e5].dll#<\DLL>1d7  - Undefined Reference
    #<DLL>euser{000a0000}[100039e5].dll#<\DLL>1e1  - Undefined Reference
    #<DLL>euser{000a0000}[100039e5].dll#<\DLL>251  - Undefined Reference
    #<DLL>euser{000a0000}[100039e5].dll#<\DLL>28b  - Undefined Reference
    #<DLL>euser{000a0000}[100039e5].dll#<\DLL>28e  - Undefined Reference
    #<DLL>euser{000a0000}[100039e5].dll#<\DLL>29d  - Undefined Reference
    #<DLL>euser{000a0000}[100039e5].dll#<\DLL>29e  - Undefined Reference
    #<DLL>euser{000a0000}[100039e5].dll#<\DLL>29f  - Undefined Reference
    #<DLL>euser{000a0000}[100039e5].dll#<\DLL>2c  - Undefined Reference
    #<DLL>euser{000a0000}[100039e5].dll#<\DLL>2e  - Undefined Reference
    #<DLL>euser{000a0000}[100039e5].dll#<\DLL>2e7  - Undefined Reference
    #<DLL>euser{000a0000}[100039e5].dll#<\DLL>2f  - Undefined Reference
    #<DLL>euser{000a0000}[100039e5].dll#<\DLL>30  - Undefined Reference
    #<DLL>euser{000a0000}[100039e5].dll#<\DLL>336  - Undefined Reference
    #<DLL>euser{000a0000}[100039e5].dll#<\DLL>347  - Undefined Reference
    #<DLL>euser{000a0000}[100039e5].dll#<\DLL>37  - Undefined Reference
    #<DLL>euser{000a0000}[100039e5].dll#<\DLL>37b  - Undefined Reference
    #<DLL>euser{000a0000}[100039e5].dll#<\DLL>37d  - Undefined Reference
    #<DLL>euser{000a0000}[100039e5].dll#<\DLL>491  - Undefined Reference
    #<DLL>euser{000a0000}[100039e5].dll#<\DLL>492  - Undefined Reference
    #<DLL>euser{000a0000}[100039e5].dll#<\DLL>493  - Undefined Reference
    #<DLL>euser{000a0000}[100039e5].dll#<\DLL>5bd  - Undefined Reference
    #<DLL>euser{000a0000}[100039e5].dll#<\DLL>5e3  - Undefined Reference
    #<DLL>euser{000a0000}[100039e5].dll#<\DLL>5e4  - Undefined Reference
    #<DLL>euser{000a0000}[100039e5].dll#<\DLL>5e6  - Undefined Reference
    #<DLL>euser{000a0000}[100039e5].dll#<\DLL>636  - Undefined Reference
    #<DLL>euser{000a0000}[100039e5].dll#<\DLL>639  - Undefined Reference
    #<DLL>euser{000a0000}[100039e5].dll#<\DLL>671  - Undefined Reference
    #<DLL>euser{000a0000}[100039e5].dll#<\DLL>673  - Undefined Reference
    #<DLL>euser{000a0000}[100039e5].dll#<\DLL>6b7  - Undefined Reference
    #<DLL>euser{000a0000}[100039e5].dll#<\DLL>70f  - Undefined Reference
    #<DLL>euser{000a0000}[100039e5].dll#<\DLL>71e  - Undefined Reference
    #<DLL>euser{000a0000}[100039e5].dll#<\DLL>78  - Undefined Reference
    #<DLL>euser{000a0000}[100039e5].dll#<\DLL>80c  - Undefined Reference
    #<DLL>euser{000a0000}[100039e5].dll#<\DLL>80d  - Undefined Reference
    #<DLL>euser{000a0000}[100039e5].dll#<\DLL>822  - Undefined Reference
    #<DLL>euser{000a0000}[100039e5].dll#<\DLL>83a  - Undefined Reference
    #<DLL>euser{000a0000}[100039e5].dll#<\DLL>84b  - Undefined Reference
    #<DLL>euser{000a0000}[100039e5].dll#<\DLL>84d  - Undefined Reference
    #<DLL>euser{000a0000}[100039e5].dll#<\DLL>ca  - Undefined Reference
    #<DLL>euser{000a0000}[100039e5].dll#<\DLL>cb  - Undefined Reference
    #<DLL>euser{000a0000}[100039e5].dll#<\DLL>cf  - Undefined Reference
    #<DLL>euser{000a0000}[100039e5].dll#<\DLL>d6  - Undefined Reference
    #<DLL>fbscli{000a0000}[10003a15].dll#<\DLL>75  - Undefined Reference
    #<DLL>libc{00010000}[10207369].dll#<\DLL>15e  - Undefined Reference
    #<DLL>libstdcpp{00010000}[10282872].dll#<\DLL>3dc  - Undefined Reference
    #<DLL>libstdcpp{00010000}[10282872].dll#<\DLL>3e0  - Undefined Reference
    #<DLL>mediaclientaudio{000a0000}[10003992].dll#<\DLL>18  - Undefined Reference
    #<DLL>mediaclientaudio{000a0000}[10003992].dll#<\DLL>1d  - Undefined Reference
    #<DLL>mediaclientaudio{000a0000}[10003992].dll#<\DLL>1e  - Undefined Reference
    #<DLL>mediaclientaudio{000a0000}[10003992].dll#<\DLL>20  - Undefined Reference
    #<DLL>mediaclientaudio{000a0000}[10003992].dll#<\DLL>23  - Undefined Reference
    #<DLL>mediaclientaudio{000a0000}[10003992].dll#<\DLL>24  - Undefined Reference
    #<DLL>mediaclientaudio{000a0000}[10003992].dll#<\DLL>25  - Undefined Reference
    #<DLL>mediaclientaudio{000a0000}[10003992].dll#<\DLL>2a  - Undefined Reference
    #<DLL>mediaclientaudio{000a0000}[10003992].dll#<\DLL>51  - Undefined Reference
    #<DLL>mediaclientaudio{000a0000}[10003992].dll#<\DLL>55  - Undefined Reference
    #<DLL>mediaclientaudio{000a0000}[10003992].dll#<\DLL>58  - Undefined Reference
    #<DLL>mediaclientaudio{000a0000}[10003992].dll#<\DLL>59  - Undefined Reference
    #<DLL>mediaclientaudio{000a0000}[10003992].dll#<\DLL>5a  - Undefined Reference
    #<DLL>mediaclientaudio{000a0000}[10003992].dll#<\DLL>5c  - Undefined Reference
    #<DLL>mediaclientaudio{000a0000}[10003992].dll#<\DLL>5d  - Undefined Reference
    #<DLL>mediaclientaudio{000a0000}[10003992].dll#<\DLL>5f  - Undefined Reference
    #<DLL>mediaclientaudio{000a0000}[10003992].dll#<\DLL>60  - Undefined Reference
    #<DLL>mediaclientaudio{000a0000}[10003992].dll#<\DLL>63  - Undefined Reference
    #<DLL>mediaclientaudio{000a0000}[10003992].dll#<\DLL>66  - Undefined Reference
    #<DLL>mediaclientaudio{000a0000}[10003992].dll#<\DLL>70  - Undefined Reference
    #<DLL>mediaclientaudio{000a0000}[10003992].dll#<\DLL>e  - Undefined Reference
    #<DLL>mediaclientaudio{000a0000}[10003992].dll#<\DLL>f  - Undefined Reference
    #<DLL>mediaclientvideo{000a0000}[101f4569].dll#<\DLL>11  - Undefined Reference
    #<DLL>mediaclientvideo{000a0000}[101f4569].dll#<\DLL>12  - Undefined Reference
    #<DLL>mediaclientvideo{000a0000}[101f4569].dll#<\DLL>14  - Undefined Reference
    #<DLL>mediaclientvideo{000a0000}[101f4569].dll#<\DLL>16  - Undefined Reference
    #<DLL>mediaclientvideo{000a0000}[101f4569].dll#<\DLL>17  - Undefined Reference
    #<DLL>mediaclientvideo{000a0000}[101f4569].dll#<\DLL>18  - Undefined Reference
    #<DLL>mediaclientvideo{000a0000}[101f4569].dll#<\DLL>19  - Undefined Reference
    #<DLL>mediaclientvideo{000a0000}[101f4569].dll#<\DLL>1a  - Undefined Reference
    #<DLL>mediaclientvideo{000a0000}[101f4569].dll#<\DLL>1c  - Undefined Reference
    #<DLL>mediaclientvideo{000a0000}[101f4569].dll#<\DLL>1e  - Undefined Reference
    #<DLL>mediaclientvideo{000a0000}[101f4569].dll#<\DLL>3  - Undefined Reference
    #<DLL>mediaclientvideo{000a0000}[101f4569].dll#<\DLL>3d  - Undefined Reference
    #<DLL>mediaclientvideo{000a0000}[101f4569].dll#<\DLL>40  - Undefined Reference
    #<DLL>mediaclientvideo{000a0000}[101f4569].dll#<\DLL>43  - Undefined Reference
    #<DLL>mediaclientvideo{000a0000}[101f4569].dll#<\DLL>45  - Undefined Reference
    #<DLL>mediaclientvideo{000a0000}[101f4569].dll#<\DLL>48  - Undefined Reference
    #<DLL>mediaclientvideo{000a0000}[101f4569].dll#<\DLL>49  - Undefined Reference
    #<DLL>mediaclientvideo{000a0000}[101f4569].dll#<\DLL>4a  - Undefined Reference
    #<DLL>mediaclientvideo{000a0000}[101f4569].dll#<\DLL>5  - Undefined Reference
    #<DLL>mediaclientvideo{000a0000}[101f4569].dll#<\DLL>69  - Undefined Reference
    #<DLL>mediaclientvideo{000a0000}[101f4569].dll#<\DLL>6a  - Undefined Reference
    #<DLL>mediaclientvideo{000a0000}[101f4569].dll#<\DLL>7c  - Undefined Reference
    #<DLL>mediaclientvideo{000a0000}[101f4569].dll#<\DLL>82  - Undefined Reference
    #<DLL>mediaclientvideo{000a0000}[101f4569].dll#<\DLL>a  - Undefined Reference
    #<DLL>mediaclientvideo{000a0000}[101f4569].dll#<\DLL>b  - Undefined Reference
    #<DLL>mediaclientvideo{000a0000}[101f4569].dll#<\DLL>d  - Undefined Reference
    #<DLL>mmfcontrollerframework{000a0000}[101f76dd].dll#<\DLL>64  - Undefined Reference
    #<DLL>mmfcontrollerframework{000a0000}[101f76dd].dll#<\DLL>66  - Undefined Reference
    #<DLL>mmfcontrollerframework{000a0000}[101f76dd].dll#<\DLL>78  - Undefined Reference
    #<DLL>mmfcontrollerframework{000a0000}[101f76dd].dll#<\DLL>79  - Undefined Reference
    #<DLL>mmfcontrollerframework{000a0000}[101f76dd].dll#<\DLL>7a  - Undefined Reference
    #<DLL>mmfcontrollerframework{000a0000}[101f76dd].dll#<\DLL>7e  - Undefined Reference
    #<DLL>mmfcontrollerframework{000a0000}[101f76dd].dll#<\DLL>7f  - Undefined Reference
    #<DLL>mmfcontrollerframework{000a0000}[101f76dd].dll#<\DLL>80  - Undefined Reference
    #<DLL>mmfcontrollerframework{000a0000}[101f76dd].dll#<\DLL>81  - Undefined Reference
    #<DLL>mmfcontrollerframework{000a0000}[101f76dd].dll#<\DLL>96  - Undefined Reference
    #<DLL>mmfcontrollerframework{000a0000}[101f76dd].dll#<\DLL>97  - Undefined Reference
    #<DLL>mmfcontrollerframework{000a0000}[101f76dd].dll#<\DLL>a7  - Undefined Reference
    #<DLL>mmfcontrollerframework{000a0000}[101f76dd].dll#<\DLL>ab  - Undefined Reference
    #<DLL>mmfcontrollerframework{000a0000}[101f76dd].dll#<\DLL>ad  - Undefined Reference
    #<DLL>mmfcontrollerframework{000a0000}[101f76dd].dll#<\DLL>b1  - Undefined Reference
    #<DLL>mmfcontrollerframework{000a0000}[101f76dd].dll#<\DLL>b4  - Undefined Reference
    #<DLL>mmfcontrollerframework{000a0000}[101f76dd].dll#<\DLL>b5  - Undefined Reference
    #<DLL>ws32{000a0000}[10003b21].dll#<\DLL>109  - Undefined Reference
    #<DLL>ws32{000a0000}[10003b21].dll#<\DLL>10d  - Undefined Reference
    #<DLL>ws32{000a0000}[10003b21].dll#<\DLL>114  - Undefined Reference
    #<DLL>ws32{000a0000}[10003b21].dll#<\DLL>183  - Undefined Reference
    #<DLL>ws32{000a0000}[10003b21].dll#<\DLL>1a5  - Undefined Reference
    #<DLL>ws32{000a0000}[10003b21].dll#<\DLL>1be  - Undefined Reference
    #<DLL>ws32{000a0000}[10003b21].dll#<\DLL>45  - Undefined Reference
    #<DLL>ws32{000a0000}[10003b21].dll#<\DLL>ce  - Undefined Reference
    #<DLL>ws32{000a0000}[10003b21].dll#<\DLL>d3  - Undefined Reference
    QVectorData::shared_null                  - Undefined Reference
    QMediaService::staticMetaObject           - Undefined Reference
    QRadioTunerControl::staticMetaObject      - Undefined Reference
    QMediaPlayerControl::staticMetaObject     - Undefined Reference
    QVideoWidgetControl::staticMetaObject     - Undefined Reference
    QVideoWindowControl::staticMetaObject     - Undefined Reference
    QAudioEncoderControl::staticMetaObject    - Undefined Reference
    QMediaStreamsControl::staticMetaObject    - Undefined Reference
    QAbstractVideoSurface::staticMetaObject   - Undefined Reference
    QMediaRecorderControl::staticMetaObject   - Undefined Reference
    QAudioEndpointSelector::staticMetaObject  - Undefined Reference
    QMediaContainerControl::staticMetaObject  - Undefined Reference
    QMetaDataReaderControl::staticMetaObject  - Undefined Reference
    QMediaServiceProviderPlugin::staticMetaObject  - Undefined Reference
    QObject::staticMetaObject                 - Undefined Reference
    QString::shared_null                      - Undefined Reference
    QString::codecForCStrings                 - Undefined Reference
    QWidget::staticMetaObject                 - Undefined Reference
    QMapData::shared_null                     - Undefined Reference
    QHashData::shared_null                    - Undefined Reference
    QListData::shared_null                    - Undefined Reference
    typeinfo for QMediaService                - Undefined Reference
    typeinfo for QObjectPrivate               - Undefined Reference
    typeinfo for XLeaveException              - Undefined Reference
    typeinfo for QRadioTunerControl           - Undefined Reference
    typeinfo for QMediaPlayerControl          - Undefined Reference
    typeinfo for QVideoWidgetControl          - Undefined Reference
    typeinfo for QVideoWindowControl          - Undefined Reference
    typeinfo for QAudioEncoderControl         - Undefined Reference
    typeinfo for QMediaStreamsControl         - Undefined Reference
    typeinfo for QAbstractVideoSurface        - Undefined Reference
    typeinfo for QMediaRecorderControl        - Undefined Reference
    typeinfo for QAudioEndpointSelector       - Undefined Reference
    typeinfo for QMediaContainerControl       - Undefined Reference
    typeinfo for QMetaDataReaderControl       - Undefined Reference
    typeinfo for QMediaServiceProviderPlugin  - Undefined Reference
    typeinfo for CBase                        - Undefined Reference
    typeinfo for QObject                      - Undefined Reference
    typeinfo for QWidget                      - Undefined Reference
    typeinfo for std::exception               - Undefined Reference
    vtable for __cxxabiv1::__class_type_info  - Undefined Reference
    vtable for __cxxabiv1::__si_class_type_info  - Undefined Reference
    vtable for __cxxabiv1::__vmi_class_type_info  - Undefined Reference
    _fp_init                                  - Undefined Weak Reference
    Image$$ER_RO$$Base                       0x00008000   Number         0  anon$$obj.o(linker$$defined$$symbols)
    _E32Dll                                  0x00008000   ARM Code      40  uc_dll_.o(.emb_text)
    Symbian$$CPP$$Exception$$Descriptor      0x00008014   Data           0  uc_dll_.o(.emb_text)
    __cpp_initialize__aeabi_                 0x00008028   ARM Code      72  ucppinit_aeabi.o(.emb_text)
    S60VideoDisplay::getStaticMetaObject()   0x00008071   Thumb Code     4  qtmultimediakit_mmfengine.in(.text)
    std::nothrow                             0x00008071   Thumb Code     0  ucppinit_aeabi.o(.emb_text)
    S60VideoDisplay::metaObject() const      0x00008075   Thumb Code    12  qtmultimediakit_mmfengine.in(.text)
    S60VideoDisplay::qt_metacast(const char*) 0x00008081   Thumb Code    38  qtmultimediakit_mmfengine.in(.text)
    S60VideoDisplay::endVideoWindowNativePaint() 0x000080a7   Thumb Code    14  qtmultimediakit_mmfengine.in(.text)
    S60VideoDisplay::beginVideoWindowNativePaint() 0x000080b5   Thumb Code    14  qtmultimediakit_mmfengine.in(.text)
    S60VideoDisplay::paintingEnabledChanged(bool) 0x000080c3   Thumb Code    30  qtmultimediakit_mmfengine.in(.text)
    S60VideoDisplay::contentRectChanged(QRect) 0x000080e1   Thumb Code    34  qtmultimediakit_mmfengine.in(.text)
    S60VideoDisplay::nativeSizeChanged(QSize) 0x00008103   Thumb Code    28  qtmultimediakit_mmfengine.in(.text)
    S60VideoDisplay::aspectRatioModeChanged(Qt::AspectRatioMode) 0x0000811f   Thumb Code    28  qtmultimediakit_mmfengine.in(.text)
    S60VideoDisplay::visibilityChanged(bool) 0x0000813b   Thumb Code    28  qtmultimediakit_mmfengine.in(.text)
    S60VideoDisplay::fullScreenChanged(bool) 0x00008157   Thumb Code    28  qtmultimediakit_mmfengine.in(.text)
    S60VideoDisplay::displayRectChanged(QRect, QRect) 0x00008173   Thumb Code    40  qtmultimediakit_mmfengine.in(.text)
    S60VideoDisplay::windowHandleChanged(RWindow*) 0x0000819b   Thumb Code    26  qtmultimediakit_mmfengine.in(.text)
    S60VideoDisplay::qt_metacall(QMetaObject::Call, int, void**) 0x000081b5   Thumb Code   208  qtmultimediakit_mmfengine.in(.text)
    S60VideoWidget::getStaticMetaObject()    0x0000828d   Thumb Code     4  qtmultimediakit_mmfengine.in(.text)
    S60VideoWidget::metaObject() const       0x00008291   Thumb Code    12  qtmultimediakit_mmfengine.in(.text)
    S60VideoWidget::qt_metacast(const char*) 0x0000829d   Thumb Code    38  qtmultimediakit_mmfengine.in(.text)
    S60VideoWidget::endVideoWidgetNativePaint() 0x000082c3   Thumb Code    14  qtmultimediakit_mmfengine.in(.text)
    S60VideoWidget::beginVideoWidgetNativePaint() 0x000082d1   Thumb Code    14  qtmultimediakit_mmfengine.in(.text)
    S60VideoWidget::qt_metacall(QMetaObject::Call, int, void**) 0x000082df   Thumb Code   132  qtmultimediakit_mmfengine.in(.text)
    S60VideoWidgetControl::getStaticMetaObject() 0x0000836d   Thumb Code     4  qtmultimediakit_mmfengine.in(.text)
    S60VideoWidgetControl::metaObject() const 0x00008371   Thumb Code    12  qtmultimediakit_mmfengine.in(.text)
    S60VideoWidgetControl::qt_metacast(const char*) 0x0000837d   Thumb Code    40  qtmultimediakit_mmfengine.in(.text)
    S60VideoWidgetControl::nativeSizeChanged() 0x000083a5   Thumb Code    14  qtmultimediakit_mmfengine.in(.text)
    S60VideoWidgetControl::qt_metacall(QMetaObject::Call, int, void**) 0x000083b3   Thumb Code   172  qtmultimediakit_mmfengine.in(.text)
    S60VideoWidgetDisplay::getStaticMetaObject() 0x00008465   Thumb Code     4  qtmultimediakit_mmfengine.in(.text)
    S60VideoWidgetDisplay::metaObject() const 0x00008469   Thumb Code    12  qtmultimediakit_mmfengine.in(.text)
    S60VideoWidgetDisplay::qt_metacast(const char*) 0x00008475   Thumb Code    40  qtmultimediakit_mmfengine.in(.text)
    S60VideoWidgetDisplay::qt_metacall(QMetaObject::Call, int, void**) 0x0000849d   Thumb Code     8  qtmultimediakit_mmfengine.in(.text)
    S60VideoWindowControl::getStaticMetaObject() 0x000084a9   Thumb Code     4  qtmultimediakit_mmfengine.in(.text)
    S60VideoWindowControl::metaObject() const 0x000084ad   Thumb Code    12  qtmultimediakit_mmfengine.in(.text)
    S60VideoWindowControl::qt_metacast(const char*) 0x000084b9   Thumb Code    40  qtmultimediakit_mmfengine.in(.text)
    S60VideoWindowControl::qt_metacall(QMetaObject::Call, int, void**) 0x000084e1   Thumb Code    34  qtmultimediakit_mmfengine.in(.text)
    S60MediaPlayerControl::getStaticMetaObject() 0x00008509   Thumb Code     4  qtmultimediakit_mmfengine.in(.text)
    S60MediaPlayerControl::metaObject() const 0x0000850d   Thumb Code    12  qtmultimediakit_mmfengine.in(.text)
    S60MediaPlayerControl::qt_metacast(const char*) 0x00008519   Thumb Code    40  qtmultimediakit_mmfengine.in(.text)
    S60MediaPlayerControl::qt_metacall(QMetaObject::Call, int, void**) 0x00008541   Thumb Code     8  qtmultimediakit_mmfengine.in(.text)
    S60MediaPlayerService::getStaticMetaObject() 0x0000854d   Thumb Code     4  qtmultimediakit_mmfengine.in(.text)
    S60MediaPlayerService::metaObject() const 0x00008551   Thumb Code    12  qtmultimediakit_mmfengine.in(.text)
    S60MediaPlayerService::qt_metacast(const char*) 0x0000855d   Thumb Code    58  qtmultimediakit_mmfengine.in(.text)
    S60MediaPlayerService::qt_metacall(QMetaObject::Call, int, void**) 0x00008597   Thumb Code     8  qtmultimediakit_mmfengine.in(.text)
    S60MediaPlayerSession::getStaticMetaObject() 0x000085bd   Thumb Code     4  qtmultimediakit_mmfengine.in(.text)
    S60MediaPlayerSession::metaObject() const 0x000085c1   Thumb Code    12  qtmultimediakit_mmfengine.in(.text)
    S60MediaPlayerSession::qt_metacast(const char*) 0x000085cd   Thumb Code    38  qtmultimediakit_mmfengine.in(.text)
    S60MediaPlayerSession::mutedChanged(bool) 0x000085f3   Thumb Code    30  qtmultimediakit_mmfengine.in(.text)
    S60MediaPlayerSession::volumeChanged(int) 0x00008611   Thumb Code    28  qtmultimediakit_mmfengine.in(.text)
    S60MediaPlayerSession::playbackRateChanged(float) 0x0000862d   Thumb Code    28  qtmultimediakit_mmfengine.in(.text)
    S60MediaPlayerSession::mediaChanged()    0x00008649   Thumb Code    14  qtmultimediakit_mmfengine.in(.text)
    S60MediaPlayerSession::activeEndpointChanged(const QString&) 0x00008657   Thumb Code    24  qtmultimediakit_mmfengine.in(.text)
    S60MediaPlayerSession::error(int, const QString&) 0x0000866f   Thumb Code    36  qtmultimediakit_mmfengine.in(.text)
    S60MediaPlayerSession::metaDataChanged() 0x00008693   Thumb Code    14  qtmultimediakit_mmfengine.in(.text)
    S60MediaPlayerSession::availablePlaybackRangesChanged(const QMediaTimeRange&) 0x000086a1   Thumb Code    24  qtmultimediakit_mmfengine.in(.text)
    S60MediaPlayerSession::seekableChanged(bool) 0x000086b9   Thumb Code    28  qtmultimediakit_mmfengine.in(.text)
    S60MediaPlayerSession::bufferStatusChanged(int) 0x000086d5   Thumb Code    28  qtmultimediakit_mmfengine.in(.text)
    S60MediaPlayerSession::audioAvailableChanged(bool) 0x000086f1   Thumb Code    28  qtmultimediakit_mmfengine.in(.text)
    S60MediaPlayerSession::videoAvailableChanged(bool) 0x0000870d   Thumb Code    28  qtmultimediakit_mmfengine.in(.text)
    S60MediaPlayerSession::mediaStatusChanged(QMediaPlayer::MediaStatus) 0x00008729   Thumb Code    28  qtmultimediakit_mmfengine.in(.text)
    S60MediaPlayerSession::stateChanged(QMediaPlayer::State) 0x00008745   Thumb Code    28  qtmultimediakit_mmfengine.in(.text)
    S60MediaPlayerSession::positionChanged(long long) 0x00008761   Thumb Code    30  qtmultimediakit_mmfengine.in(.text)
    S60MediaPlayerSession::durationChanged(long long) 0x0000877f   Thumb Code    26  qtmultimediakit_mmfengine.in(.text)
    S60MediaPlayerSession::qt_metacall(QMetaObject::Call, int, void**) 0x00008799   Thumb Code   266  qtmultimediakit_mmfengine.in(.text)
    S60MediaMetaDataProvider::getStaticMetaObject() 0x000088ad   Thumb Code     4  qtmultimediakit_mmfengine.in(.text)
    S60MediaMetaDataProvider::metaObject() const 0x000088b1   Thumb Code    12  qtmultimediakit_mmfengine.in(.text)
    S60MediaMetaDataProvider::qt_metacast(const char*) 0x000088bd   Thumb Code    40  qtmultimediakit_mmfengine.in(.text)
    S60MediaMetaDataProvider::qt_metacall(QMetaObject::Call, int, void**) 0x000088e5   Thumb Code     8  qtmultimediakit_mmfengine.in(.text)
    S60VideoPlayerSession::getStaticMetaObject() 0x000088f1   Thumb Code     4  qtmultimediakit_mmfengine.in(.text)
    S60VideoPlayerSession::metaObject() const 0x000088f5   Thumb Code    12  qtmultimediakit_mmfengine.in(.text)
    S60VideoPlayerSession::qt_metacast(const char*) 0x00008901   Thumb Code    76  qtmultimediakit_mmfengine.in(.text)
    S60VideoPlayerSession::nativeSizeChanged(QSize) 0x0000894d   Thumb Code    28  qtmultimediakit_mmfengine.in(.text)
    S60VideoPlayerSession::qt_metacall(QMetaObject::Call, int, void**) 0x00008969   Thumb Code   106  qtmultimediakit_mmfengine.in(.text)
    S60VideoSurface::getStaticMetaObject()   0x00008a0d   Thumb Code     4  qtmultimediakit_mmfengine.in(.text)
    S60VideoSurface::metaObject() const      0x00008a11   Thumb Code    12  qtmultimediakit_mmfengine.in(.text)
    S60VideoSurface::qt_metacast(const char*) 0x00008a1d   Thumb Code    40  qtmultimediakit_mmfengine.in(.text)
    S60VideoSurface::qt_metacall(QMetaObject::Call, int, void**) 0x00008a45   Thumb Code     8  qtmultimediakit_mmfengine.in(.text)
    S60MediaRecognizer::getStaticMetaObject() 0x00008a51   Thumb Code     4  qtmultimediakit_mmfengine.in(.text)
    S60MediaRecognizer::metaObject() const   0x00008a55   Thumb Code    12  qtmultimediakit_mmfengine.in(.text)
    S60MediaRecognizer::qt_metacast(const char*) 0x00008a61   Thumb Code    40  qtmultimediakit_mmfengine.in(.text)
    S60MediaRecognizer::qt_metacall(QMetaObject::Call, int, void**) 0x00008a89   Thumb Code     8  qtmultimediakit_mmfengine.in(.text)
    S60AudioPlayerSession::getStaticMetaObject() 0x00008a95   Thumb Code     4  qtmultimediakit_mmfengine.in(.text)
    S60AudioPlayerSession::metaObject() const 0x00008a99   Thumb Code    12  qtmultimediakit_mmfengine.in(.text)
    S60AudioPlayerSession::qt_metacast(const char*) 0x00008aa5   Thumb Code    76  qtmultimediakit_mmfengine.in(.text)
    S60AudioPlayerSession::qt_metacall(QMetaObject::Call, int, void**) 0x00008af1   Thumb Code    42  qtmultimediakit_mmfengine.in(.text)
    S60MediaPlayerAudioEndpointSelector::getStaticMetaObject() 0x00008b51   Thumb Code     4  qtmultimediakit_mmfengine.in(.text)
    S60MediaPlayerAudioEndpointSelector::metaObject() const 0x00008b55   Thumb Code    12  qtmultimediakit_mmfengine.in(.text)
    S60MediaPlayerAudioEndpointSelector::qt_metacast(const char*) 0x00008b61   Thumb Code    40  qtmultimediakit_mmfengine.in(.text)
    S60MediaPlayerAudioEndpointSelector::qt_metacall(QMetaObject::Call, int, void**) 0x00008b89   Thumb Code    40  qtmultimediakit_mmfengine.in(.text)
    S60MediaStreamControl::getStaticMetaObject() 0x00008bb5   Thumb Code     4  qtmultimediakit_mmfengine.in(.text)
    S60MediaStreamControl::metaObject() const 0x00008bb9   Thumb Code    12  qtmultimediakit_mmfengine.in(.text)
    S60MediaStreamControl::qt_metacast(const char*) 0x00008bc5   Thumb Code    40  qtmultimediakit_mmfengine.in(.text)
    S60MediaStreamControl::qt_metacall(QMetaObject::Call, int, void**) 0x00008bed   Thumb Code    34  qtmultimediakit_mmfengine.in(.text)
    S60RadioTunerControl::getStaticMetaObject() 0x00008c15   Thumb Code     4  qtmultimediakit_mmfengine.in(.text)
    S60RadioTunerControl::metaObject() const 0x00008c19   Thumb Code    12  qtmultimediakit_mmfengine.in(.text)
    S60RadioTunerControl::qt_metacast(const char*) 0x00008c25   Thumb Code    76  qtmultimediakit_mmfengine.in(.text)
    S60RadioTunerControl::error(QRadioTuner::Error) const 0x00008c71   Thumb Code    28  qtmultimediakit_mmfengine.in(.text)
    S60RadioTunerControl::qt_metacall(QMetaObject::Call, int, void**) 0x00008c8d   Thumb Code    52  qtmultimediakit_mmfengine.in(.text)
    S60RadioTunerService::getStaticMetaObject() 0x00008cf5   Thumb Code     4  qtmultimediakit_mmfengine.in(.text)
    S60RadioTunerService::metaObject() const 0x00008cf9   Thumb Code    12  qtmultimediakit_mmfengine.in(.text)
    S60RadioTunerService::qt_metacast(const char*) 0x00008d05   Thumb Code    40  qtmultimediakit_mmfengine.in(.text)
    S60RadioTunerService::qt_metacall(QMetaObject::Call, int, void**) 0x00008d2d   Thumb Code     8  qtmultimediakit_mmfengine.in(.text)
    S60AudioEncoderControl::getStaticMetaObject() 0x00008d39   Thumb Code     4  qtmultimediakit_mmfengine.in(.text)
    S60AudioEncoderControl::metaObject() const 0x00008d3d   Thumb Code    12  qtmultimediakit_mmfengine.in(.text)
    S60AudioEncoderControl::qt_metacast(const char*) 0x00008d49   Thumb Code    40  qtmultimediakit_mmfengine.in(.text)
    S60AudioEncoderControl::qt_metacall(QMetaObject::Call, int, void**) 0x00008d71   Thumb Code     8  qtmultimediakit_mmfengine.in(.text)
    S60AudioMediaRecorderControl::getStaticMetaObject() 0x00008d7d   Thumb Code     4  qtmultimediakit_mmfengine.in(.text)
    S60AudioMediaRecorderControl::metaObject() const 0x00008d81   Thumb Code    12  qtmultimediakit_mmfengine.in(.text)
    S60AudioMediaRecorderControl::qt_metacast(const char*) 0x00008d8d   Thumb Code    40  qtmultimediakit_mmfengine.in(.text)
    S60AudioMediaRecorderControl::qt_metacall(QMetaObject::Call, int, void**) 0x00008db5   Thumb Code    86  qtmultimediakit_mmfengine.in(.text)
    S60AudioEndpointSelector::getStaticMetaObject() 0x00008e11   Thumb Code     4  qtmultimediakit_mmfengine.in(.text)
    S60AudioEndpointSelector::metaObject() const 0x00008e15   Thumb Code    12  qtmultimediakit_mmfengine.in(.text)
    S60AudioEndpointSelector::qt_metacast(const char*) 0x00008e21   Thumb Code    40  qtmultimediakit_mmfengine.in(.text)
    S60AudioEndpointSelector::qt_metacall(QMetaObject::Call, int, void**) 0x00008e49   Thumb Code    40  qtmultimediakit_mmfengine.in(.text)
    S60AudioCaptureService::getStaticMetaObject() 0x00008e75   Thumb Code     4  qtmultimediakit_mmfengine.in(.text)
    S60AudioCaptureService::metaObject() const 0x00008e79   Thumb Code    12  qtmultimediakit_mmfengine.in(.text)
    S60AudioCaptureService::qt_metacast(const char*) 0x00008e85   Thumb Code    40  qtmultimediakit_mmfengine.in(.text)
    S60AudioCaptureService::qt_metacall(QMetaObject::Call, int, void**) 0x00008ead   Thumb Code     8  qtmultimediakit_mmfengine.in(.text)
    S60AudioCaptureSession::getStaticMetaObject() 0x00008eb9   Thumb Code     4  qtmultimediakit_mmfengine.in(.text)
    S60AudioCaptureSession::metaObject() const 0x00008ebd   Thumb Code    12  qtmultimediakit_mmfengine.in(.text)
    S60AudioCaptureSession::qt_metacast(const char*) 0x00008ec9   Thumb Code    56  qtmultimediakit_mmfengine.in(.text)
    S60AudioCaptureSession::activeEndpointChanged(const QString&) 0x00008f01   Thumb Code    24  qtmultimediakit_mmfengine.in(.text)
    S60AudioCaptureSession::error(int, const QString&) 0x00008f19   Thumb Code    36  qtmultimediakit_mmfengine.in(.text)
    S60AudioCaptureSession::positionChanged(long long) 0x00008f3d   Thumb Code    30  qtmultimediakit_mmfengine.in(.text)
    S60AudioCaptureSession::stateChanged(S60AudioCaptureSession::TAudioCaptureState) 0x00008f5b   Thumb Code    28  qtmultimediakit_mmfengine.in(.text)
    S60AudioCaptureSession::qt_metacall(QMetaObject::Call, int, void**) 0x00008f77   Thumb Code   148  qtmultimediakit_mmfengine.in(.text)
    S60AudioContainerControl::getStaticMetaObject() 0x00009035   Thumb Code     4  qtmultimediakit_mmfengine.in(.text)
    S60AudioContainerControl::metaObject() const 0x00009039   Thumb Code    12  qtmultimediakit_mmfengine.in(.text)
    S60AudioContainerControl::qt_metacast(const char*) 0x00009045   Thumb Code    40  qtmultimediakit_mmfengine.in(.text)
    S60AudioContainerControl::qt_metacall(QMetaObject::Call, int, void**) 0x0000906d   Thumb Code     8  qtmultimediakit_mmfengine.in(.text)
    S60MediaServicePlugin::getStaticMetaObject() 0x00009079   Thumb Code     4  qtmultimediakit_mmfengine.in(.text)
    S60MediaServicePlugin::metaObject() const 0x0000907d   Thumb Code    12  qtmultimediakit_mmfengine.in(.text)
    S60MediaServicePlugin::qt_metacast(const char*) 0x00009089   Thumb Code    72  qtmultimediakit_mmfengine.in(.text)
    S60MediaServicePlugin::qt_metacall(QMetaObject::Call, int, void**) 0x000090d1   Thumb Code     8  qtmultimediakit_mmfengine.in(.text)
    qt_plugin_query_verification_data        0x0000913d   Thumb Code     4  qtmultimediakit_mmfengine.in(.text)
    qt_plugin_instance                       0x00009141   Thumb Code    94  qtmultimediakit_mmfengine.in(.text)
    S60MediaServicePlugin::keys() const      0x0000919f   Thumb Code    90  qtmultimediakit_mmfengine.in(.text)
    thunk{-8} to S60MediaServicePlugin::keys() const 0x000091f9   Thumb Code     4  qtmultimediakit_mmfengine.in(.text)
    S60MediaServicePlugin::create(const QString&) 0x000091fd   Thumb Code   118  qtmultimediakit_mmfengine.in(.text)
    thunk{-8} to S60MediaServicePlugin::create(const QString&) 0x00009273   Thumb Code     4  qtmultimediakit_mmfengine.in(.text)
    S60MediaServicePlugin::release(QMediaService*) 0x00009277   Thumb Code    12  qtmultimediakit_mmfengine.in(.text)
    thunk{-8} to S60MediaServicePlugin::release(QMediaService*) 0x00009283   Thumb Code     4  qtmultimediakit_mmfengine.in(.text)
    S60MediaServicePlugin::hasSupport(const QString&, const QStringList&) const 0x00009287   Thumb Code     4  qtmultimediakit_mmfengine.in(.text)
    thunk{-12} to S60MediaServicePlugin::hasSupport(const QString&, const QStringList&) const 0x0000928b   Thumb Code     4  qtmultimediakit_mmfengine.in(.text)
    S60MediaServicePlugin::supportedMimeTypes() const 0x0000928f   Thumb Code   178  qtmultimediakit_mmfengine.in(.text)
    thunk{-12} to S60MediaServicePlugin::supportedMimeTypes() const 0x00009341   Thumb Code     4  qtmultimediakit_mmfengine.in(.text)
    S60FormatSupported::S60FormatSupported() 0x000093a5   Thumb Code    12  qtmultimediakit_mmfengine.in(.text)
    S60FormatSupported::S60FormatSupported__sub_object() 0x000093a5   Thumb Code     0  qtmultimediakit_mmfengine.in(.text)
    S60FormatSupported::~S60FormatSupported() 0x000093b1   Thumb Code    34  qtmultimediakit_mmfengine.in(.text)
    S60FormatSupported::~S60FormatSupported__sub_object() 0x000093b1   Thumb Code     0  qtmultimediakit_mmfengine.in(.text)
    S60FormatSupported::supportedPlayMimeTypesL() 0x000093d3   Thumb Code   524  qtmultimediakit_mmfengine.in(.text)
    S60AudioEncoderControl::S60AudioEncoderControl(QObject*, QObject*) 0x000095f5   Thumb Code   208  qtmultimediakit_mmfengine.in(.text)
    S60AudioEncoderControl::S60AudioEncoderControl__sub_object(QObject*, QObject*) 0x000095f5   Thumb Code     0  qtmultimediakit_mmfengine.in(.text)
    S60AudioEncoderControl::~S60AudioEncoderControl() 0x000096c5   Thumb Code    24  qtmultimediakit_mmfengine.in(.text)
    S60AudioEncoderControl::~S60AudioEncoderControl__sub_object() 0x000096c5   Thumb Code     0  qtmultimediakit_mmfengine.in(.text)
    S60AudioEncoderControl::~S60AudioEncoderControl__deallocating() 0x000096dd   Thumb Code    16  qtmultimediakit_mmfengine.in(.text)
    S60AudioEncoderControl::supportedAudioCodecs() const 0x000096ed   Thumb Code    10  qtmultimediakit_mmfengine.in(.text)
    S60AudioEncoderControl::codecDescription(const QString&) const 0x000096f7   Thumb Code    10  qtmultimediakit_mmfengine.in(.text)
    S60AudioEncoderControl::supportedSampleRates(const QAudioEncoderSettings&, bool*) const 0x00009701   Thumb Code    18  qtmultimediakit_mmfengine.in(.text)
    S60AudioEncoderControl::audioSettings() const 0x00009713   Thumb Code    10  qtmultimediakit_mmfengine.in(.text)
    S60AudioEncoderControl::setQuality(QtMultimediaKit::EncodingQuality, QAudioFormat&) 0x0000971d   Thumb Code   104  qtmultimediakit_mmfengine.in(.text)
    S60AudioEncoderControl::setAudioSettings(const QAudioEncoderSettings&) 0x00009785   Thumb Code   224  qtmultimediakit_mmfengine.in(.text)
    S60AudioEncoderControl::supportedEncodingOptions(const QString&) const 0x00009865   Thumb Code    98  qtmultimediakit_mmfengine.in(.text)
    S60AudioEncoderControl::quality() const  0x000098c7   Thumb Code     4  qtmultimediakit_mmfengine.in(.text)
    S60AudioEncoderControl::encodingOption(const QString&, const QString&) const 0x000098cb   Thumb Code   210  qtmultimediakit_mmfengine.in(.text)
    S60AudioEncoderControl::setEncodingOption(const QString&, const QString&, const QVariant&) 0x0000999d   Thumb Code   276  qtmultimediakit_mmfengine.in(.text)
    S60AudioMediaRecorderControl::S60AudioMediaRecorderControl(QObject*, QObject*) 0x00009ab9   Thumb Code    80  qtmultimediakit_mmfengine.in(.text)
    S60AudioMediaRecorderControl::S60AudioMediaRecorderControl__sub_object(QObject*, QObject*) 0x00009ab9   Thumb Code     0  qtmultimediakit_mmfengine.in(.text)
    S60AudioMediaRecorderControl::~S60AudioMediaRecorderControl() 0x00009b09   Thumb Code     8  qtmultimediakit_mmfengine.in(.text)
    S60AudioMediaRecorderControl::~S60AudioMediaRecorderControl__sub_object() 0x00009b09   Thumb Code     0  qtmultimediakit_mmfengine.in(.text)
    S60AudioMediaRecorderControl::~S60AudioMediaRecorderControl__deallocating() 0x00009b11   Thumb Code    16  qtmultimediakit_mmfengine.in(.text)
    S60AudioMediaRecorderControl::outputLocation() const 0x00009b21   Thumb Code    10  qtmultimediakit_mmfengine.in(.text)
    S60AudioMediaRecorderControl::setOutputLocation(const QUrl&) 0x00009b2b   Thumb Code    10  qtmultimediakit_mmfengine.in(.text)
    S60AudioMediaRecorderControl::state() const 0x00009b35   Thumb Code     4  qtmultimediakit_mmfengine.in(.text)
    S60AudioMediaRecorderControl::duration() const 0x00009b39   Thumb Code    10  qtmultimediakit_mmfengine.in(.text)
    S60AudioMediaRecorderControl::isMuted() const 0x00009b43   Thumb Code    10  qtmultimediakit_mmfengine.in(.text)
    S60AudioMediaRecorderControl::convertState(S60AudioCaptureSession::TAudioCaptureState) const 0x00009b4d   Thumb Code    26  qtmultimediakit_mmfengine.in(.text)
    S60AudioMediaRecorderControl::record()   0x00009b67   Thumb Code    10  qtmultimediakit_mmfengine.in(.text)
    S60AudioMediaRecorderControl::pause()    0x00009b71   Thumb Code    10  qtmultimediakit_mmfengine.in(.text)
    S60AudioMediaRecorderControl::stop()     0x00009b7b   Thumb Code    10  qtmultimediakit_mmfengine.in(.text)
    S60AudioMediaRecorderControl::setMuted(bool) 0x00009b85   Thumb Code    10  qtmultimediakit_mmfengine.in(.text)
    S60AudioMediaRecorderControl::updateState(S60AudioCaptureSession::TAudioCaptureState) 0x00009b8f   Thumb Code    26  qtmultimediakit_mmfengine.in(.text)
    S60AudioEndpointSelector::S60AudioEndpointSelector(QObject*, QObject*) 0x00009c7d   Thumb Code    44  qtmultimediakit_mmfengine.in(.text)
    S60AudioEndpointSelector::S60AudioEndpointSelector__sub_object(QObject*, QObject*) 0x00009c7d   Thumb Code     0  qtmultimediakit_mmfengine.in(.text)
    S60AudioEndpointSelector::~S60AudioEndpointSelector() 0x00009ca9   Thumb Code     8  qtmultimediakit_mmfengine.in(.text)
    S60AudioEndpointSelector::~S60AudioEndpointSelector__sub_object() 0x00009ca9   Thumb Code     0  qtmultimediakit_mmfengine.in(.text)
    S60AudioEndpointSelector::~S60AudioEndpointSelector__deallocating() 0x00009cb1   Thumb Code    16  qtmultimediakit_mmfengine.in(.text)
    S60AudioEndpointSelector::availableEndpoints() const 0x00009cc1   Thumb Code    10  qtmultimediakit_mmfengine.in(.text)
    S60AudioEndpointSelector::endpointDescription(const QString&) const 0x00009ccb   Thumb Code    10  qtmultimediakit_mmfengine.in(.text)
    S60AudioEndpointSelector::defaultEndpoint() const 0x00009cd5   Thumb Code    10  qtmultimediakit_mmfengine.in(.text)
    S60AudioEndpointSelector::activeEndpoint() const 0x00009cdf   Thumb Code    10  qtmultimediakit_mmfengine.in(.text)
    S60AudioEndpointSelector::setActiveEndpoint(const QString&) 0x00009ce9   Thumb Code    10  qtmultimediakit_mmfengine.in(.text)
    S60AudioCaptureService::S60AudioCaptureService(QObject*) 0x00009d25   Thumb Code   144  qtmultimediakit_mmfengine.in(.text)
    S60AudioCaptureService::S60AudioCaptureService__sub_object(QObject*) 0x00009d25   Thumb Code     0  qtmultimediakit_mmfengine.in(.text)
    S60AudioCaptureService::~S60AudioCaptureService() 0x00009db5   Thumb Code     8  qtmultimediakit_mmfengine.in(.text)
    S60AudioCaptureService::~S60AudioCaptureService__sub_object() 0x00009db5   Thumb Code     0  qtmultimediakit_mmfengine.in(.text)
    S60AudioCaptureService::~S60AudioCaptureService__deallocating() 0x00009dbd   Thumb Code    16  qtmultimediakit_mmfengine.in(.text)
    S60AudioCaptureService::requestControl(const char*) 0x00009dcd   Thumb Code    74  qtmultimediakit_mmfengine.in(.text)
    S60AudioCaptureService::releaseControl(QMediaControl*) 0x00009e17   Thumb Code     2  qtmultimediakit_mmfengine.in(.text)
    S60AudioCaptureSession::stop()           0x00009ebd   Thumb Code    36  qtmultimediakit_mmfengine.in(.text)
    S60AudioCaptureSession::fromSymbianErrorToMultimediaError(int) 0x00009ee1   Thumb Code    92  qtmultimediakit_mmfengine.in(.text)
    S60AudioCaptureSession::setError(int)    0x00009f3d   Thumb Code    98  qtmultimediakit_mmfengine.in(.text)
    S60AudioCaptureSession::setDefaultSettings() 0x00009f9f   Thumb Code   298  qtmultimediakit_mmfengine.in(.text)
    S60AudioCaptureSession::populateAudioCodecsDataL() 0x0000a0c9   Thumb Code   530  qtmultimediakit_mmfengine.in(.text)
    S60AudioCaptureSession::updateAudioContainersL() 0x0000a2db   Thumb Code   674  qtmultimediakit_mmfengine.in(.text)
    S60AudioCaptureSession::initializeSessionL() 0x0000a57d   Thumb Code    64  qtmultimediakit_mmfengine.in(.text)
    S60AudioCaptureSession::S60AudioCaptureSession(QObject*) 0x0000a5bd   Thumb Code   274  qtmultimediakit_mmfengine.in(.text)
    S60AudioCaptureSession::S60AudioCaptureSession__sub_object(QObject*) 0x0000a5bd   Thumb Code     0  qtmultimediakit_mmfengine.in(.text)
    S60AudioCaptureSession::~S60AudioCaptureSession() 0x0000a6cf   Thumb Code   152  qtmultimediakit_mmfengine.in(.text)
    S60AudioCaptureSession::~S60AudioCaptureSession__sub_object() 0x0000a6cf   Thumb Code     0  qtmultimediakit_mmfengine.in(.text)
    S60AudioCaptureSession::~S60AudioCaptureSession__deallocating() 0x0000a767   Thumb Code    16  qtmultimediakit_mmfengine.in(.text)
    S60AudioCaptureSession::format() const   0x0000a777   Thumb Code    10  qtmultimediakit_mmfengine.in(.text)
    S60AudioCaptureSession::setFormat(const QAudioFormat&) 0x0000a781   Thumb Code    12  qtmultimediakit_mmfengine.in(.text)
    S60AudioCaptureSession::settings() const 0x0000a78d   Thumb Code    10  qtmultimediakit_mmfengine.in(.text)
    S60AudioCaptureSession::setEncoderSettings(const QAudioEncoderSettings&) 0x0000a797   Thumb Code    12  qtmultimediakit_mmfengine.in(.text)
    S60AudioCaptureSession::supportedAudioCodecs() const 0x0000a7a3   Thumb Code    28  qtmultimediakit_mmfengine.in(.text)
    S60AudioCaptureSession::codecDescription(const QString&) 0x0000a7bf   Thumb Code    90  qtmultimediakit_mmfengine.in(.text)
    S60AudioCaptureSession::setAudioCodec(const QString&) 0x0000a819   Thumb Code    84  qtmultimediakit_mmfengine.in(.text)
    S60AudioCaptureSession::audioCodec() const 0x0000a86d   Thumb Code    10  qtmultimediakit_mmfengine.in(.text)
    S60AudioCaptureSession::audioContainer() const 0x0000a877   Thumb Code    10  qtmultimediakit_mmfengine.in(.text)
    S60AudioCaptureSession::supportedAudioContainers() const 0x0000a881   Thumb Code    28  qtmultimediakit_mmfengine.in(.text)
    S60AudioCaptureSession::setAudioContainer(const QString&) 0x0000a89d   Thumb Code   106  qtmultimediakit_mmfengine.in(.text)
    S60AudioCaptureSession::audioContainerDescription(const QString&) 0x0000a907   Thumb Code    92  qtmultimediakit_mmfengine.in(.text)
    S60AudioCaptureSession::supportedAudioSampleRates(const QAudioEncoderSettings&) const 0x0000a963   Thumb Code   104  qtmultimediakit_mmfengine.in(.text)
    S60AudioCaptureSession::outputLocation() const 0x0000a9cb   Thumb Code    10  qtmultimediakit_mmfengine.in(.text)
    S60AudioCaptureSession::setOutputLocation(const QUrl&) 0x0000a9d5   Thumb Code   148  qtmultimediakit_mmfengine.in(.text)
    S60AudioCaptureSession::position() const 0x0000aa69   Thumb Code    40  qtmultimediakit_mmfengine.in(.text)
    S60AudioCaptureSession::prepareSinkL()   0x0000aa91   Thumb Code   674  qtmultimediakit_mmfengine.in(.text)
    S60AudioCaptureSession::record()         0x0000ad33   Thumb Code   248  qtmultimediakit_mmfengine.in(.text)
    S60AudioCaptureSession::pause()          0x0000ae2b   Thumb Code    42  qtmultimediakit_mmfengine.in(.text)
    S60AudioCaptureSession::mute(bool)       0x0000ae55   Thumb Code    48  qtmultimediakit_mmfengine.in(.text)
    S60AudioCaptureSession::muted()          0x0000ae85   Thumb Code     6  qtmultimediakit_mmfengine.in(.text)
    S60AudioCaptureSession::activeEndpoint() const 0x0000ae8b   Thumb Code    10  qtmultimediakit_mmfengine.in(.text)
    S60AudioCaptureSession::defaultEndpoint() const 0x0000ae95   Thumb Code    10  qtmultimediakit_mmfengine.in(.text)
    S60AudioCaptureSession::availableEndpoints() const 0x0000ae9f   Thumb Code    10  qtmultimediakit_mmfengine.in(.text)
    S60AudioCaptureSession::endpointDescription(const QString&) const 0x0000aea9   Thumb Code   164  qtmultimediakit_mmfengine.in(.text)
    S60AudioCaptureSession::retrieveSupportedAudioSampleRatesL() 0x0000af4d   Thumb Code   100  qtmultimediakit_mmfengine.in(.text)
    S60AudioCaptureSession::determinePCMFormat() 0x0000afb1   Thumb Code    98  qtmultimediakit_mmfengine.in(.text)
    S60AudioCaptureSession::applyAudioSettingsL() 0x0000b013   Thumb Code   634  qtmultimediakit_mmfengine.in(.text)
    S60AudioCaptureSession::MoscoStateChangeEventL(CBase*, int, int, int) 0x0000b28d   Thumb Code   128  qtmultimediakit_mmfengine.in(.text)
    S60AudioCaptureSession::MoscoStateChangeEvent(CBase*, int, int, int) 0x0000b30d   Thumb Code   128  qtmultimediakit_mmfengine.in(.text)
    thunk{-8} to S60AudioCaptureSession::MoscoStateChangeEvent(CBase*, int, int, int) 0x0000b38d   Thumb Code    84  qtmultimediakit_mmfengine.in(.text)
    S60AudioCaptureSession::setActiveEndpoint(const QString&) 0x0000b3e1   Thumb Code    92  qtmultimediakit_mmfengine.in(.text)
    S60AudioContainerControl::S60AudioContainerControl(QObject*) 0x0000b43d   Thumb Code    12  qtmultimediakit_mmfengine.in(.text)
    S60AudioContainerControl::S60AudioContainerControl__sub_object(QObject*) 0x0000b43d   Thumb Code     0  qtmultimediakit_mmfengine.in(.text)
    S60AudioContainerControl::S60AudioContainerControl(QObject*, QObject*) 0x0000b449   Thumb Code    30  qtmultimediakit_mmfengine.in(.text)
    S60AudioContainerControl::S60AudioContainerControl__sub_object(QObject*, QObject*) 0x0000b449   Thumb Code     0  qtmultimediakit_mmfengine.in(.text)
    S60AudioContainerControl::supportedContainers() const 0x0000b467   Thumb Code    10  qtmultimediakit_mmfengine.in(.text)
    S60AudioContainerControl::containerMimeType() const 0x0000b471   Thumb Code    10  qtmultimediakit_mmfengine.in(.text)
    S60AudioContainerControl::setContainerMimeType(const QString&) 0x0000b47b   Thumb Code    10  qtmultimediakit_mmfengine.in(.text)
    S60AudioContainerControl::containerDescription(const QString&) const 0x0000b485   Thumb Code    10  qtmultimediakit_mmfengine.in(.text)
    S60MediaPlayerControl::S60MediaPlayerControl(MS60MediaPlayerResolver&, QObject*) 0x0000b499   Thumb Code    84  qtmultimediakit_mmfengine.in(.text)
    S60MediaPlayerControl::S60MediaPlayerControl__sub_object(MS60MediaPlayerResolver&, QObject*) 0x0000b499   Thumb Code     0  qtmultimediakit_mmfengine.in(.text)
    S60MediaPlayerControl::~S60MediaPlayerControl() 0x0000b4ed   Thumb Code    36  qtmultimediakit_mmfengine.in(.text)
    S60MediaPlayerControl::~S60MediaPlayerControl__sub_object() 0x0000b4ed   Thumb Code     0  qtmultimediakit_mmfengine.in(.text)
    S60MediaPlayerControl::~S60MediaPlayerControl__deallocating() 0x0000b511   Thumb Code    16  qtmultimediakit_mmfengine.in(.text)
    S60MediaPlayerControl::state() const     0x0000b521   Thumb Code    18  qtmultimediakit_mmfengine.in(.text)
    S60MediaPlayerControl::mediaStatus() const 0x0000b533   Thumb Code    20  qtmultimediakit_mmfengine.in(.text)
    S60MediaPlayerControl::duration() const  0x0000b547   Thumb Code    22  qtmultimediakit_mmfengine.in(.text)
    S60MediaPlayerControl::position() const  0x0000b55d   Thumb Code    20  qtmultimediakit_mmfengine.in(.text)
    S60MediaPlayerControl::setPosition(long long) 0x0000b571   Thumb Code    14  qtmultimediakit_mmfengine.in(.text)
    S60MediaPlayerControl::volume() const    0x0000b57f   Thumb Code    20  qtmultimediakit_mmfengine.in(.text)
    S60MediaPlayerControl::setVolume(int)    0x0000b593   Thumb Code    56  qtmultimediakit_mmfengine.in(.text)
    S60MediaPlayerControl::isMuted() const   0x0000b5cb   Thumb Code    22  qtmultimediakit_mmfengine.in(.text)
    S60MediaPlayerControl::setMuted(bool)    0x0000b5e1   Thumb Code    26  qtmultimediakit_mmfengine.in(.text)
    S60MediaPlayerControl::bufferStatus() const 0x0000b5fb   Thumb Code    18  qtmultimediakit_mmfengine.in(.text)
    S60MediaPlayerControl::isAudioAvailable() const 0x0000b60d   Thumb Code    16  qtmultimediakit_mmfengine.in(.text)
    S60MediaPlayerControl::isVideoAvailable() const 0x0000b61d   Thumb Code    16  qtmultimediakit_mmfengine.in(.text)
    S60MediaPlayerControl::isSeekable() const 0x0000b62d   Thumb Code    18  qtmultimediakit_mmfengine.in(.text)
    S60MediaPlayerControl::availablePlaybackRanges() const 0x0000b63f   Thumb Code    48  qtmultimediakit_mmfengine.in(.text)
    S60MediaPlayerControl::playbackRate() const 0x0000b66f   Thumb Code     4  qtmultimediakit_mmfengine.in(.text)
    S60MediaPlayerControl::setPlaybackRate(float) 0x0000b673   Thumb Code   110  qtmultimediakit_mmfengine.in(.text)
    S60MediaPlayerControl::media() const     0x0000b6e1   Thumb Code    10  qtmultimediakit_mmfengine.in(.text)
    S60MediaPlayerControl::mediaStream() const 0x0000b6eb   Thumb Code     4  qtmultimediakit_mmfengine.in(.text)
    S60MediaPlayerControl::setMedia(const QMediaContent&, QIODevice*) 0x0000b6ef   Thumb Code   258  qtmultimediakit_mmfengine.in(.text)
    S60MediaPlayerControl::play()            0x0000b7f1   Thumb Code    14  qtmultimediakit_mmfengine.in(.text)
    S60MediaPlayerControl::pause()           0x0000b7ff   Thumb Code    14  qtmultimediakit_mmfengine.in(.text)
    S60MediaPlayerControl::stop()            0x0000b80d   Thumb Code    14  qtmultimediakit_mmfengine.in(.text)
    S60MediaPlayerControl::session()         0x0000b81b   Thumb Code     4  qtmultimediakit_mmfengine.in(.text)
    S60MediaPlayerControl::setVideoOutput(QObject*) 0x0000b81f   Thumb Code    22  qtmultimediakit_mmfengine.in(.text)
    S60MediaPlayerControl::mediaControlSettings() const 0x0000b835   Thumb Code     4  qtmultimediakit_mmfengine.in(.text)
    S60MediaPlayerControl::setAudioEndpoint(const QString&) 0x0000b839   Thumb Code    68  qtmultimediakit_mmfengine.in(.text)
    S60MediaPlayerControl::setMediaType(S60MediaSettings::TMediaType) 0x0000b87d   Thumb Code     4  qtmultimediakit_mmfengine.in(.text)
    S60MediaPlayerService::S60MediaPlayerService(QObject*) 0x0000b881   Thumb Code   144  qtmultimediakit_mmfengine.in(.text)
    S60MediaPlayerService::S60MediaPlayerService__sub_object(QObject*) 0x0000b881   Thumb Code     0  qtmultimediakit_mmfengine.in(.text)
    S60MediaPlayerService::~S60MediaPlayerService() 0x0000b911   Thumb Code     8  qtmultimediakit_mmfengine.in(.text)
    S60MediaPlayerService::~S60MediaPlayerService__sub_object() 0x0000b911   Thumb Code     0  qtmultimediakit_mmfengine.in(.text)
    S60MediaPlayerService::~S60MediaPlayerService__deallocating() 0x0000b919   Thumb Code    16  qtmultimediakit_mmfengine.in(.text)
    S60MediaPlayerService::requestControl(const char*) 0x0000b929   Thumb Code   190  qtmultimediakit_mmfengine.in(.text)
    S60MediaPlayerService::releaseControl(QMediaControl*) 0x0000b9e7   Thumb Code    20  qtmultimediakit_mmfengine.in(.text)
    S60MediaPlayerService::PlayerSession()   0x0000b9fb   Thumb Code   178  qtmultimediakit_mmfengine.in(.text)
    thunk{-12} to S60MediaPlayerService::PlayerSession() 0x0000baad   Thumb Code     4  qtmultimediakit_mmfengine.in(.text)
    S60MediaPlayerService::VideoPlayerSession() 0x0000bab1   Thumb Code  1108  qtmultimediakit_mmfengine.in(.text)
    thunk{-12} to S60MediaPlayerService::VideoPlayerSession() 0x0000bf05   Thumb Code    10  qtmultimediakit_mmfengine.in(.text)
    S60MediaPlayerService::AudioPlayerSession() 0x0000bf0f   Thumb Code   352  qtmultimediakit_mmfengine.in(.text)
    thunk{-12} to S60MediaPlayerService::AudioPlayerSession() 0x0000c06f   Thumb Code     4  qtmultimediakit_mmfengine.in(.text)
    S60MediaPlayerSession::S60MediaPlayerSession__sub_object(QObject*) 0x0000c0b9   Thumb Code   140  qtmultimediakit_mmfengine.in(.text)
    S60MediaPlayerSession::~S60MediaPlayerSession() 0x0000c145   Thumb Code     0  qtmultimediakit_mmfengine.in(.text)
    S60MediaPlayerSession::~S60MediaPlayerSession__sub_object() 0x0000c145   Thumb Code    24  qtmultimediakit_mmfengine.in(.text)
    S60MediaPlayerSession::~S60MediaPlayerSession__deallocating() 0x0000c15d   Thumb Code    16  qtmultimediakit_mmfengine.in(.text)
    S60MediaPlayerSession::state() const     0x0000c16d   Thumb Code     4  qtmultimediakit_mmfengine.in(.text)
    S60MediaPlayerSession::mediaStatus() const 0x0000c171   Thumb Code     4  qtmultimediakit_mmfengine.in(.text)
    S60MediaPlayerSession::duration() const  0x0000c175   Thumb Code    98  qtmultimediakit_mmfengine.in(.text)
    S60MediaPlayerSession::position() const  0x0000c1d7   Thumb Code   136  qtmultimediakit_mmfengine.in(.text)
    S60MediaPlayerSession::startProgressTimer() 0x0000c25f   Thumb Code    14  qtmultimediakit_mmfengine.in(.text)
    S60MediaPlayerSession::setState(QMediaPlayer::State) 0x0000c26d   Thumb Code    16  qtmultimediakit_mmfengine.in(.text)
    S60MediaPlayerSession::stopStalledTimer() 0x0000c27d   Thumb Code    10  qtmultimediakit_mmfengine.in(.text)
    S60MediaPlayerSession::stopProgressTimer() 0x0000c287   Thumb Code    10  qtmultimediakit_mmfengine.in(.text)
    S60MediaPlayerSession::setMediaStatus(QMediaPlayer::MediaStatus) 0x0000c291   Thumb Code    40  qtmultimediakit_mmfengine.in(.text)
    S60MediaPlayerSession::stop()            0x0000c2b9   Thumb Code    92  qtmultimediakit_mmfengine.in(.text)
    S60MediaPlayerSession::fromSymbianErrorToMultimediaError(int) 0x0000c315   Thumb Code   142  qtmultimediakit_mmfengine.in(.text)
    S60MediaPlayerSession::setError(int, const QString&, bool) 0x0000c3a3   Thumb Code   142  qtmultimediakit_mmfengine.in(.text)
    S60MediaPlayerSession::setMuted(bool)    0x0000c431   Thumb Code   198  qtmultimediakit_mmfengine.in(.text)
    S60MediaPlayerSession::setVolume(int)    0x0000c4f7   Thumb Code   138  qtmultimediakit_mmfengine.in(.text)
    S60MediaPlayerSession::play()            0x0000c581   Thumb Code   100  qtmultimediakit_mmfengine.in(.text)
    S60MediaPlayerSession::pause()           0x0000c5e5   Thumb Code    80  qtmultimediakit_mmfengine.in(.text)
    S60MediaPlayerSession::setPosition(long long) 0x0000c635   Thumb Code   170  qtmultimediakit_mmfengine.in(.text)
    S60MediaPlayerSession::volume() const    0x0000c6df   Thumb Code     4  qtmultimediakit_mmfengine.in(.text)
    S60MediaPlayerSession::isMuted() const   0x0000c6e3   Thumb Code     4  qtmultimediakit_mmfengine.in(.text)
    S60MediaPlayerSession::isSeekable() const 0x0000c6e7   Thumb Code     6  qtmultimediakit_mmfengine.in(.text)
    S60MediaPlayerSession::reset()           0x0000c6ed   Thumb Code    80  qtmultimediakit_mmfengine.in(.text)
    S60MediaPlayerSession::isMetadataAvailable() const 0x0000c73d   Thumb Code    20  qtmultimediakit_mmfengine.in(.text)
    S60MediaPlayerSession::metaData(const QString&) const 0x0000c751   Thumb Code    10  qtmultimediakit_mmfengine.in(.text)
    S60MediaPlayerSession::metaDataKeyAsString(QtMultimediaKit::MetaData) const 0x0000c75b   Thumb Code   130  qtmultimediakit_mmfengine.in(.text)
    S60MediaPlayerSession::metaData(QtMultimediaKit::MetaData) const 0x0000c7dd   Thumb Code    32  qtmultimediakit_mmfengine.in(.text)
    S60MediaPlayerSession::availableMetaData() const 0x0000c7fd   Thumb Code   106  qtmultimediakit_mmfengine.in(.text)
    S60MediaPlayerSession::availableExtendedMetaData() const 0x0000c867   Thumb Code    44  qtmultimediakit_mmfengine.in(.text)
    S60MediaPlayerSession::QString2TPtrC(const QString&) 0x0000c893   Thumb Code    32  qtmultimediakit_mmfengine.in(.text)
    S60MediaPlayerSession::startStalledTimer() 0x0000c8b3   Thumb Code    12  qtmultimediakit_mmfengine.in(.text)
    S60MediaPlayerSession::load(QUrl)        0x0000c8bf   Thumb Code   250  qtmultimediakit_mmfengine.in(.text)
    S60MediaPlayerSession::bufferStatus()    0x0000c9b9   Thumb Code   122  qtmultimediakit_mmfengine.in(.text)
    S60MediaPlayerSession::setVideoRenderer(QObject*) 0x0000ca33   Thumb Code     2  qtmultimediakit_mmfengine.in(.text)
    S60MediaPlayerSession::setAudioEndpoint(const QString&) 0x0000ca35   Thumb Code     6  qtmultimediakit_mmfengine.in(.text)
    S60MediaPlayerSession::error() const     0x0000ca3b   Thumb Code     4  qtmultimediakit_mmfengine.in(.text)
    S60MediaPlayerSession::setAndEmitError(int) 0x0000ca3f   Thumb Code    70  qtmultimediakit_mmfengine.in(.text)
    S60MediaPlayerSession::loaded()          0x0000ca85   Thumb Code   372  qtmultimediakit_mmfengine.in(.text)
    S60MediaPlayerSession::buffering()       0x0000cbf9   Thumb Code    32  qtmultimediakit_mmfengine.in(.text)
    S60MediaPlayerSession::buffered()        0x0000cc19   Thumb Code    18  qtmultimediakit_mmfengine.in(.text)
    S60MediaPlayerSession::endOfMedia()      0x0000cc2b   Thumb Code    42  qtmultimediakit_mmfengine.in(.text)
    S60MediaPlayerSession::metaDataEntries() 0x0000cc55   Thumb Code     4  qtmultimediakit_mmfengine.in(.text)
    S60MediaPlayerSession::TDesC2QString(const TDesC16&) 0x0000cc59   Thumb Code    28  qtmultimediakit_mmfengine.in(.text)
    S60MediaPlayerSession::TRect2QRect(const TRect&) 0x0000cc75   Thumb Code    52  qtmultimediakit_mmfengine.in(.text)
    S60MediaPlayerSession::QRect2TRect(const QRect&) 0x0000cca9   Thumb Code    52  qtmultimediakit_mmfengine.in(.text)
    S60MediaPlayerSession::tick()            0x0000ccdd   Thumb Code    44  qtmultimediakit_mmfengine.in(.text)
    S60MediaPlayerSession::stalled()         0x0000cd09   Thumb Code    10  qtmultimediakit_mmfengine.in(.text)
    S60MediaMetaDataProvider::S60MediaMetaDataProvider(QObject*, QObject*) 0x0000cd15   Thumb Code    34  qtmultimediakit_mmfengine.in(.text)
    S60MediaMetaDataProvider::S60MediaMetaDataProvider__sub_object(QObject*, QObject*) 0x0000cd15   Thumb Code     0  qtmultimediakit_mmfengine.in(.text)
    S60MediaMetaDataProvider::~S60MediaMetaDataProvider() 0x0000cd37   Thumb Code     8  qtmultimediakit_mmfengine.in(.text)
    S60MediaMetaDataProvider::~S60MediaMetaDataProvider__sub_object() 0x0000cd37   Thumb Code     0  qtmultimediakit_mmfengine.in(.text)
    S60MediaMetaDataProvider::~S60MediaMetaDataProvider__deallocating() 0x0000cd3f   Thumb Code    16  qtmultimediakit_mmfengine.in(.text)
    S60MediaMetaDataProvider::isMetaDataAvailable() const 0x0000cd4f   Thumb Code    30  qtmultimediakit_mmfengine.in(.text)
    S60MediaMetaDataProvider::isWritable() const 0x0000cd6d   Thumb Code     4  qtmultimediakit_mmfengine.in(.text)
    S60MediaMetaDataProvider::metaData(QtMultimediaKit::MetaData) const 0x0000cd71   Thumb Code    44  qtmultimediakit_mmfengine.in(.text)
    S60MediaMetaDataProvider::availableMetaData() const 0x0000cd9d   Thumb Code    42  qtmultimediakit_mmfengine.in(.text)
    S60MediaMetaDataProvider::extendedMetaData(const QString&) const 0x0000cdc7   Thumb Code    44  qtmultimediakit_mmfengine.in(.text)
    S60MediaMetaDataProvider::availableExtendedMetaData() const 0x0000cdf3   Thumb Code    42  qtmultimediakit_mmfengine.in(.text)
    S60VideoPlayerSession::S60VideoPlayerSession(QMediaService*) 0x0000ce29   Thumb Code   376  qtmultimediakit_mmfengine.in(.text)
    S60VideoPlayerSession::S60VideoPlayerSession__sub_object(QMediaService*) 0x0000ce29   Thumb Code     0  qtmultimediakit_mmfengine.in(.text)
    S60VideoPlayerSession::~S60VideoPlayerSession() 0x0000cfa1   Thumb Code    52  qtmultimediakit_mmfengine.in(.text)
    S60VideoPlayerSession::~S60VideoPlayerSession__sub_object() 0x0000cfa1   Thumb Code     0  qtmultimediakit_mmfengine.in(.text)
    S60VideoPlayerSession::~S60VideoPlayerSession__deallocating() 0x0000cfd5   Thumb Code    16  qtmultimediakit_mmfengine.in(.text)
    S60VideoPlayerSession::isVideoAvailable() 0x0000cfe5   Thumb Code   160  qtmultimediakit_mmfengine.in(.text)
    S60VideoPlayerSession::isAudioAvailable() 0x0000d085   Thumb Code   160  qtmultimediakit_mmfengine.in(.text)
    S60VideoPlayerSession::applyPendingChanges(bool) 0x0000d125   Thumb Code   576  qtmultimediakit_mmfengine.in(.text)
    S60VideoPlayerSession::windowHandleChanged() 0x0000d365   Thumb Code    12  qtmultimediakit_mmfengine.in(.text)
    S60VideoPlayerSession::setVideoRenderer(QObject*) 0x0000d371   Thumb Code   576  qtmultimediakit_mmfengine.in(.text)
    S60VideoPlayerSession::MvloLoadingStarted() 0x0000d5b1   Thumb Code     8  qtmultimediakit_mmfengine.in(.text)
    thunk{-60} to S60VideoPlayerSession::MvloLoadingStarted() 0x0000d5b9   Thumb Code    10  qtmultimediakit_mmfengine.in(.text)
    S60VideoPlayerSession::MvloLoadingComplete() 0x0000d5c3   Thumb Code     8  qtmultimediakit_mmfengine.in(.text)
    thunk{-60} to S60VideoPlayerSession::MvloLoadingComplete() 0x0000d5cb   Thumb Code    10  qtmultimediakit_mmfengine.in(.text)
    S60VideoPlayerSession::setPlaybackRate(float) 0x0000d5d5   Thumb Code   108  qtmultimediakit_mmfengine.in(.text)
    S60VideoPlayerSession::activeEndpoint() const 0x0000d641   Thumb Code    10  qtmultimediakit_mmfengine.in(.text)
    S60VideoPlayerSession::defaultEndpoint() const 0x0000d64b   Thumb Code    10  qtmultimediakit_mmfengine.in(.text)
    S60VideoPlayerSession::setActiveEndpoint(const QString&) 0x0000d655   Thumb Code     2  qtmultimediakit_mmfengine.in(.text)
    S60VideoPlayerSession::doLoadL(const TDesC16&) 0x0000d657   Thumb Code    14  qtmultimediakit_mmfengine.in(.text)
    S60VideoPlayerSession::doLoadUrlL(const TDesC16&) 0x0000d665   Thumb Code    24  qtmultimediakit_mmfengine.in(.text)
    S60VideoPlayerSession::doPlay()          0x0000d67d   Thumb Code    10  qtmultimediakit_mmfengine.in(.text)
    S60VideoPlayerSession::doStop()          0x0000d687   Thumb Code    10  qtmultimediakit_mmfengine.in(.text)
    S60VideoPlayerSession::doClose()         0x0000d691   Thumb Code    20  qtmultimediakit_mmfengine.in(.text)
    S60VideoPlayerSession::doPauseL()        0x0000d6a5   Thumb Code    10  qtmultimediakit_mmfengine.in(.text)
    S60VideoPlayerSession::doSetVolumeL(int) 0x0000d6af   Thumb Code    30  qtmultimediakit_mmfengine.in(.text)
    S60VideoPlayerSession::doGetPositionL() const 0x0000d6cd   Thumb Code    26  qtmultimediakit_mmfengine.in(.text)
    S60VideoPlayerSession::doSetPositionL(long long) 0x0000d6e7   Thumb Code    16  qtmultimediakit_mmfengine.in(.text)
    S60VideoPlayerSession::updateMetaDataEntriesL() 0x0000d6f7   Thumb Code   136  qtmultimediakit_mmfengine.in(.text)
    S60VideoPlayerSession::doGetBufferStatusL() const 0x0000d77f   Thumb Code    18  qtmultimediakit_mmfengine.in(.text)
    S60VideoPlayerSession::doGetDurationL() const 0x0000d791   Thumb Code    26  qtmultimediakit_mmfengine.in(.text)
    S60VideoPlayerSession::doSetAudioEndpoint(const QString&) 0x0000d7ab   Thumb Code    10  qtmultimediakit_mmfengine.in(.text)
    S60VideoPlayerSession::getIsSeekable() const 0x0000d7b5   Thumb Code   188  qtmultimediakit_mmfengine.in(.text)
    S60VideoPlayerSession::displayRectChanged() 0x0000d871   Thumb Code    18  qtmultimediakit_mmfengine.in(.text)
    S60VideoPlayerSession::aspectRatioChanged() 0x0000d883   Thumb Code    18  qtmultimediakit_mmfengine.in(.text)
    S60VideoPlayerSession::stopDirectScreenAccess() 0x0000d895   Thumb Code   100  qtmultimediakit_mmfengine.in(.text)
    S60VideoPlayerSession::suspendDirectScreenAccess() 0x0000d8f9   Thumb Code    14  qtmultimediakit_mmfengine.in(.text)
    S60VideoPlayerSession::startDirectScreenAccess() 0x0000d907   Thumb Code    96  qtmultimediakit_mmfengine.in(.text)
    S60VideoPlayerSession::resumeDirectScreenAccess() 0x0000d967   Thumb Code    22  qtmultimediakit_mmfengine.in(.text)
    S60VideoPlayerSession::MvpuoOpenComplete(int) 0x0000d97d   Thumb Code   160  qtmultimediakit_mmfengine.in(.text)
    thunk{-56} to S60VideoPlayerSession::MvpuoOpenComplete(int) 0x0000da1d   Thumb Code     4  qtmultimediakit_mmfengine.in(.text)
    S60VideoPlayerSession::MvpuoPrepareComplete(int) 0x0000da21   Thumb Code   164  qtmultimediakit_mmfengine.in(.text)
    thunk{-56} to S60VideoPlayerSession::MvpuoPrepareComplete(int) 0x0000dac5   Thumb Code     4  qtmultimediakit_mmfengine.in(.text)
    S60VideoPlayerSession::MvpuoFrameReady(CFbsBitmap&, int) 0x0000dac9   Thumb Code     2  qtmultimediakit_mmfengine.in(.text)
    thunk{-56} to S60VideoPlayerSession::MvpuoFrameReady(CFbsBitmap&, int) 0x0000dacb   Thumb Code     2  qtmultimediakit_mmfengine.in(.text)
    S60VideoPlayerSession::MvpuoPlayComplete(int) 0x0000dacd   Thumb Code    36  qtmultimediakit_mmfengine.in(.text)
    thunk{-56} to S60VideoPlayerSession::MvpuoPlayComplete(int) 0x0000daf1   Thumb Code     4  qtmultimediakit_mmfengine.in(.text)
    S60VideoPlayerSession::MvpuoEvent(const TMMFEvent&) 0x0000daf5   Thumb Code     2  qtmultimediakit_mmfengine.in(.text)
    thunk{-56} to S60VideoPlayerSession::MvpuoEvent(const TMMFEvent&) 0x0000daf7   Thumb Code     2  qtmultimediakit_mmfengine.in(.text)
    S60VideoSurface::S60VideoSurface(QObject*) 0x0000db35   Thumb Code   116  qtmultimediakit_mmfengine.in(.text)
    S60VideoSurface::S60VideoSurface__sub_object(QObject*) 0x0000db35   Thumb Code     0  qtmultimediakit_mmfengine.in(.text)
    S60VideoSurface::~S60VideoSurface()      0x0000dba9   Thumb Code    36  qtmultimediakit_mmfengine.in(.text)
    S60VideoSurface::~S60VideoSurface__sub_object() 0x0000dba9   Thumb Code     0  qtmultimediakit_mmfengine.in(.text)
    S60VideoSurface::~S60VideoSurface__deallocating() 0x0000dbcd   Thumb Code    16  qtmultimediakit_mmfengine.in(.text)
    S60VideoSurface::winId() const           0x0000dbdd   Thumb Code     4  qtmultimediakit_mmfengine.in(.text)
    S60VideoSurface::setWinId(CCoeControl*)  0x0000dbe1   Thumb Code     4  qtmultimediakit_mmfengine.in(.text)
    S60VideoSurface::displayRect() const     0x0000dbe5   Thumb Code    12  qtmultimediakit_mmfengine.in(.text)
    S60VideoSurface::setDisplayRect(const QRect&) 0x0000dbf1   Thumb Code    12  qtmultimediakit_mmfengine.in(.text)
    S60VideoSurface::brightness() const      0x0000dbfd   Thumb Code     4  qtmultimediakit_mmfengine.in(.text)
    S60VideoSurface::setBrightness(int)      0x0000dc01   Thumb Code     2  qtmultimediakit_mmfengine.in(.text)
    S60VideoSurface::contrast() const        0x0000dc03   Thumb Code     4  qtmultimediakit_mmfengine.in(.text)
    S60VideoSurface::setContrast(int)        0x0000dc07   Thumb Code     2  qtmultimediakit_mmfengine.in(.text)
    S60VideoSurface::hue() const             0x0000dc09   Thumb Code     4  qtmultimediakit_mmfengine.in(.text)
    S60VideoSurface::setHue(int)             0x0000dc0d   Thumb Code     2  qtmultimediakit_mmfengine.in(.text)
    S60VideoSurface::saturation() const      0x0000dc0f   Thumb Code     4  qtmultimediakit_mmfengine.in(.text)
    S60VideoSurface::setSaturation(int)      0x0000dc13   Thumb Code     2  qtmultimediakit_mmfengine.in(.text)
    S60VideoSurface::supportedPixelFormats(QAbstractVideoBuffer::HandleType) const 0x0000dc15   Thumb Code     8  qtmultimediakit_mmfengine.in(.text)
    S60VideoSurface::isFormatSupported(const QVideoSurfaceFormat&) const 0x0000dc1d   Thumb Code     4  qtmultimediakit_mmfengine.in(.text)
    S60VideoSurface::start(const QVideoSurfaceFormat&) 0x0000dc21   Thumb Code     4  qtmultimediakit_mmfengine.in(.text)
    S60VideoSurface::stop()                  0x0000dc25   Thumb Code     2  qtmultimediakit_mmfengine.in(.text)
    S60VideoSurface::present(const QVideoFrame&) 0x0000dc27   Thumb Code     4  qtmultimediakit_mmfengine.in(.text)
    S60VideoSurface::findPort()              0x0000dc2b   Thumb Code     4  qtmultimediakit_mmfengine.in(.text)
    S60VideoSurface::querySupportedFormats() 0x0000dc2f   Thumb Code     2  qtmultimediakit_mmfengine.in(.text)
    S60VideoSurface::getAttribute(const char*, int, int) const 0x0000dc31   Thumb Code     4  qtmultimediakit_mmfengine.in(.text)
    S60VideoSurface::setAttribute(const char*, int, int, int) 0x0000dc35   Thumb Code     2  qtmultimediakit_mmfengine.in(.text)
    S60VideoSurface::redistribute(int, int, int, int, int) 0x0000dc37   Thumb Code     4  qtmultimediakit_mmfengine.in(.text)
    S60MediaRecognizer::S60MediaRecognizer(QObject*) 0x0000dc45   Thumb Code    32  qtmultimediakit_mmfengine.in(.text)
    S60MediaRecognizer::S60MediaRecognizer__sub_object(QObject*) 0x0000dc45   Thumb Code     0  qtmultimediakit_mmfengine.in(.text)
    S60MediaRecognizer::~S60MediaRecognizer() 0x0000dc65   Thumb Code    40  qtmultimediakit_mmfengine.in(.text)
    S60MediaRecognizer::~S60MediaRecognizer__sub_object() 0x0000dc65   Thumb Code     0  qtmultimediakit_mmfengine.in(.text)
    S60MediaRecognizer::~S60MediaRecognizer__deallocating() 0x0000dc8d   Thumb Code    16  qtmultimediakit_mmfengine.in(.text)
    S60MediaRecognizer::QString2TPtrC(const QString&) 0x0000dc9d   Thumb Code    32  qtmultimediakit_mmfengine.in(.text)
    S60MediaRecognizer::identifyMediaType(const QString&) 0x0000dcbd   Thumb Code   210  qtmultimediakit_mmfengine.in(.text)
    S60MediaRecognizer::mediaType(const QUrl&) 0x0000dd8f   Thumb Code   108  qtmultimediakit_mmfengine.in(.text)
    S60AudioPlayerSession::S60AudioPlayerSession(QObject*) 0x0000de15   Thumb Code   120  qtmultimediakit_mmfengine.in(.text)
    S60AudioPlayerSession::S60AudioPlayerSession__sub_object(QObject*) 0x0000de15   Thumb Code     0  qtmultimediakit_mmfengine.in(.text)
    S60AudioPlayerSession::~S60AudioPlayerSession() 0x0000de8d   Thumb Code    52  qtmultimediakit_mmfengine.in(.text)
    S60AudioPlayerSession::~S60AudioPlayerSession__sub_object() 0x0000de8d   Thumb Code     0  qtmultimediakit_mmfengine.in(.text)
    S60AudioPlayerSession::~S60AudioPlayerSession__deallocating() 0x0000dec1   Thumb Code    16  qtmultimediakit_mmfengine.in(.text)
    S60AudioPlayerSession::isVideoAvailable() 0x0000ded1   Thumb Code     4  qtmultimediakit_mmfengine.in(.text)
    S60AudioPlayerSession::isAudioAvailable() 0x0000ded5   Thumb Code     4  qtmultimediakit_mmfengine.in(.text)
    S60AudioPlayerSession::MaloLoadingStarted() 0x0000ded9   Thumb Code     8  qtmultimediakit_mmfengine.in(.text)
    thunk{-60} to S60AudioPlayerSession::MaloLoadingStarted() 0x0000dee1   Thumb Code    10  qtmultimediakit_mmfengine.in(.text)
    S60AudioPlayerSession::MaloLoadingComplete() 0x0000deeb   Thumb Code     8  qtmultimediakit_mmfengine.in(.text)
    thunk{-60} to S60AudioPlayerSession::MaloLoadingComplete() 0x0000def3   Thumb Code    10  qtmultimediakit_mmfengine.in(.text)
    S60AudioPlayerSession::activeEndpoint() const 0x0000defd   Thumb Code    10  qtmultimediakit_mmfengine.in(.text)
    S60AudioPlayerSession::defaultEndpoint() const 0x0000df07   Thumb Code    10  qtmultimediakit_mmfengine.in(.text)
    S60AudioPlayerSession::setPlaybackRate(float) 0x0000df11   Thumb Code    40  qtmultimediakit_mmfengine.in(.text)
    S60AudioPlayerSession::setActiveEndpoint(const QString&) 0x0000df39   Thumb Code     2  qtmultimediakit_mmfengine.in(.text)
    S60AudioPlayerSession::doLoadL(const TDesC16&) 0x0000df3b   Thumb Code    10  qtmultimediakit_mmfengine.in(.text)
    S60AudioPlayerSession::doPlay()          0x0000df45   Thumb Code    24  qtmultimediakit_mmfengine.in(.text)
    S60AudioPlayerSession::doStop()          0x0000df5d   Thumb Code     8  qtmultimediakit_mmfengine.in(.text)
    S60AudioPlayerSession::doClose()         0x0000df65   Thumb Code    10  qtmultimediakit_mmfengine.in(.text)
    S60AudioPlayerSession::doPauseL()        0x0000df6f   Thumb Code    10  qtmultimediakit_mmfengine.in(.text)
    S60AudioPlayerSession::doSetVolumeL(int) 0x0000df79   Thumb Code    34  qtmultimediakit_mmfengine.in(.text)
    S60AudioPlayerSession::doGetPositionL() const 0x0000df9b   Thumb Code    32  qtmultimediakit_mmfengine.in(.text)
    S60AudioPlayerSession::doSetPositionL(long long) 0x0000dfbb   Thumb Code    16  qtmultimediakit_mmfengine.in(.text)
    S60AudioPlayerSession::updateMetaDataEntriesL() 0x0000dfcb   Thumb Code   172  qtmultimediakit_mmfengine.in(.text)
    S60AudioPlayerSession::doGetBufferStatusL() const 0x0000e077   Thumb Code    18  qtmultimediakit_mmfengine.in(.text)
    S60AudioPlayerSession::doGetDurationL() const 0x0000e089   Thumb Code    24  qtmultimediakit_mmfengine.in(.text)
    S60AudioPlayerSession::doSetAudioEndpoint(const QString&) 0x0000e0a1   Thumb Code    10  qtmultimediakit_mmfengine.in(.text)
    S60AudioPlayerSession::getIsSeekable() const 0x0000e0ab   Thumb Code     4  qtmultimediakit_mmfengine.in(.text)
    S60AudioPlayerSession::MapcInitComplete(int, const TTimeIntervalMicroSeconds&) 0x0000e0af   Thumb Code    42  qtmultimediakit_mmfengine.in(.text)
    thunk{-56} to S60AudioPlayerSession::MapcInitComplete(int, const TTimeIntervalMicroSeconds&) 0x0000e0d9   Thumb Code     4  qtmultimediakit_mmfengine.in(.text)
    S60AudioPlayerSession::MapcPlayComplete(int) 0x0000e0dd   Thumb Code    42  qtmultimediakit_mmfengine.in(.text)
    thunk{-56} to S60AudioPlayerSession::MapcPlayComplete(int) 0x0000e107   Thumb Code     4  qtmultimediakit_mmfengine.in(.text)
    S60MediaPlayerAudioEndpointSelector::S60MediaPlayerAudioEndpointSelector(QObject*, QObject*) 0x0000e119   Thumb Code   176  qtmultimediakit_mmfengine.in(.text)
    S60MediaPlayerAudioEndpointSelector::S60MediaPlayerAudioEndpointSelector__sub_object(QObject*, QObject*) 0x0000e119   Thumb Code     0  qtmultimediakit_mmfengine.in(.text)
    S60MediaPlayerAudioEndpointSelector::~S60MediaPlayerAudioEndpointSelector() 0x0000e1c9   Thumb Code    36  qtmultimediakit_mmfengine.in(.text)
    S60MediaPlayerAudioEndpointSelector::~S60MediaPlayerAudioEndpointSelector__sub_object() 0x0000e1c9   Thumb Code     0  qtmultimediakit_mmfengine.in(.text)
    S60MediaPlayerAudioEndpointSelector::~S60MediaPlayerAudioEndpointSelector__deallocating() 0x0000e1ed   Thumb Code    16  qtmultimediakit_mmfengine.in(.text)
    S60MediaPlayerAudioEndpointSelector::availableEndpoints() const 0x0000e1fd   Thumb Code    28  qtmultimediakit_mmfengine.in(.text)
    S60MediaPlayerAudioEndpointSelector::endpointDescription(const QString&) const 0x0000e219   Thumb Code   190  qtmultimediakit_mmfengine.in(.text)
    S60MediaPlayerAudioEndpointSelector::defaultEndpoint() const 0x0000e2d7   Thumb Code    50  qtmultimediakit_mmfengine.in(.text)
    S60MediaPlayerAudioEndpointSelector::activeEndpoint() const 0x0000e309   Thumb Code    50  qtmultimediakit_mmfengine.in(.text)
    S60MediaPlayerAudioEndpointSelector::setActiveEndpoint(const QString&) 0x0000e33b   Thumb Code   286  qtmultimediakit_mmfengine.in(.text)
    S60MediaStreamControl::S60MediaStreamControl(QObject*, QObject*) 0x0000e495   Thumb Code    44  qtmultimediakit_mmfengine.in(.text)
    S60MediaStreamControl::S60MediaStreamControl__sub_object(QObject*, QObject*) 0x0000e495   Thumb Code     0  qtmultimediakit_mmfengine.in(.text)
    S60MediaStreamControl::~S60MediaStreamControl() 0x0000e4c1   Thumb Code     8  qtmultimediakit_mmfengine.in(.text)
    S60MediaStreamControl::~S60MediaStreamControl__sub_object() 0x0000e4c1   Thumb Code     0  qtmultimediakit_mmfengine.in(.text)
    S60MediaStreamControl::~S60MediaStreamControl__deallocating() 0x0000e4c9   Thumb Code    16  qtmultimediakit_mmfengine.in(.text)
    S60MediaStreamControl::streamCount()     0x0000e4d9   Thumb Code    38  qtmultimediakit_mmfengine.in(.text)
    S60MediaStreamControl::streamType(int)   0x0000e4ff   Thumb Code    20  qtmultimediakit_mmfengine.in(.text)
    S60MediaStreamControl::metaData(int, QtMultimediaKit::MetaData) 0x0000e513   Thumb Code    74  qtmultimediakit_mmfengine.in(.text)
    S60MediaStreamControl::isActive(int)     0x0000e55d   Thumb Code    40  qtmultimediakit_mmfengine.in(.text)
    S60MediaStreamControl::setActive(int, bool) 0x0000e585   Thumb Code     4  qtmultimediakit_mmfengine.in(.text)
    S60MediaStreamControl::handleStreamsChanged() 0x0000e589   Thumb Code     8  qtmultimediakit_mmfengine.in(.text)
    S60RadioTunerControl::initRadio()        0x0000e599   Thumb Code   110  qtmultimediakit_mmfengine.in(.text)
    S60RadioTunerControl::S60RadioTunerControl(QObject*) 0x0000e607   Thumb Code   190  qtmultimediakit_mmfengine.in(.text)
    S60RadioTunerControl::S60RadioTunerControl__sub_object(QObject*) 0x0000e607   Thumb Code     0  qtmultimediakit_mmfengine.in(.text)
    S60RadioTunerControl::~S60RadioTunerControl() 0x0000e6c5   Thumb Code    66  qtmultimediakit_mmfengine.in(.text)
    S60RadioTunerControl::~S60RadioTunerControl__sub_object() 0x0000e6c5   Thumb Code     0  qtmultimediakit_mmfengine.in(.text)
    S60RadioTunerControl::~S60RadioTunerControl__deallocating() 0x0000e707   Thumb Code    16  qtmultimediakit_mmfengine.in(.text)
    S60RadioTunerControl::state() const      0x0000e717   Thumb Code     4  qtmultimediakit_mmfengine.in(.text)
    S60RadioTunerControl::band() const       0x0000e71b   Thumb Code     4  qtmultimediakit_mmfengine.in(.text)
    S60RadioTunerControl::setBand(QRadioTuner::Band) 0x0000e71f   Thumb Code   308  qtmultimediakit_mmfengine.in(.text)
    S60RadioTunerControl::isBandSupported(QRadioTuner::Band) const 0x0000e853   Thumb Code    12  qtmultimediakit_mmfengine.in(.text)
    S60RadioTunerControl::frequency() const  0x0000e85f   Thumb Code     4  qtmultimediakit_mmfengine.in(.text)
    S60RadioTunerControl::frequencyStep(QRadioTuner::Band) const 0x0000e863   Thumb Code    36  qtmultimediakit_mmfengine.in(.text)
    S60RadioTunerControl::frequencyRange(QRadioTuner::Band) const 0x0000e887   Thumb Code    38  qtmultimediakit_mmfengine.in(.text)
    S60RadioTunerControl::setFrequency(int)  0x0000e8ad   Thumb Code    16  qtmultimediakit_mmfengine.in(.text)
    S60RadioTunerControl::isStereo() const   0x0000e8bd   Thumb Code     6  qtmultimediakit_mmfengine.in(.text)
    S60RadioTunerControl::stereoMode() const 0x0000e8c3   Thumb Code     4  qtmultimediakit_mmfengine.in(.text)
    S60RadioTunerControl::setStereoMode(QRadioTuner::StereoMode) 0x0000e8c7   Thumb Code    44  qtmultimediakit_mmfengine.in(.text)
    S60RadioTunerControl::signalStrength() const 0x0000e8f3   Thumb Code    74  qtmultimediakit_mmfengine.in(.text)
    S60RadioTunerControl::volume() const     0x0000e93d   Thumb Code     4  qtmultimediakit_mmfengine.in(.text)
    S60RadioTunerControl::setVolume(int)     0x0000e941   Thumb Code   332  qtmultimediakit_mmfengine.in(.text)
    S60RadioTunerControl::isMuted() const    0x0000ea8d   Thumb Code     6  qtmultimediakit_mmfengine.in(.text)
    S60RadioTunerControl::setMuted(bool)     0x0000ea93   Thumb Code    20  qtmultimediakit_mmfengine.in(.text)
    S60RadioTunerControl::isSearching() const 0x0000eaa7   Thumb Code     6  qtmultimediakit_mmfengine.in(.text)
    S60RadioTunerControl::searchForward()    0x0000eaad   Thumb Code    26  qtmultimediakit_mmfengine.in(.text)
    S60RadioTunerControl::searchBackward()   0x0000eac7   Thumb Code    26  qtmultimediakit_mmfengine.in(.text)
    S60RadioTunerControl::cancelSearch()     0x0000eae1   Thumb Code    24  qtmultimediakit_mmfengine.in(.text)
    S60RadioTunerControl::isValid() const    0x0000eaf9   Thumb Code     6  qtmultimediakit_mmfengine.in(.text)
    S60RadioTunerControl::isAvailable() const 0x0000eaff   Thumb Code     6  qtmultimediakit_mmfengine.in(.text)
    S60RadioTunerControl::availabilityError() const 0x0000eb05   Thumb Code    16  qtmultimediakit_mmfengine.in(.text)
    S60RadioTunerControl::start()            0x0000eb15   Thumb Code    36  qtmultimediakit_mmfengine.in(.text)
    S60RadioTunerControl::stop()             0x0000eb39   Thumb Code    22  qtmultimediakit_mmfengine.in(.text)
    S60RadioTunerControl::error() const      0x0000eb4f   Thumb Code     4  qtmultimediakit_mmfengine.in(.text)
    S60RadioTunerControl::errorString() const 0x0000eb53   Thumb Code    10  qtmultimediakit_mmfengine.in(.text)
    S60RadioTunerControl::MrpoStateChange(TPlayerState, int) 0x0000eb5d   Thumb Code    56  qtmultimediakit_mmfengine.in(.text)
    thunk{-12} to S60RadioTunerControl::MrpoStateChange(TPlayerState, int) 0x0000eb95   Thumb Code     4  qtmultimediakit_mmfengine.in(.text)
    S60RadioTunerControl::MrpoVolumeChange(int) 0x0000eb99   Thumb Code    50  qtmultimediakit_mmfengine.in(.text)
    thunk{-12} to S60RadioTunerControl::MrpoVolumeChange(int) 0x0000ebcb   Thumb Code     4  qtmultimediakit_mmfengine.in(.text)
    S60RadioTunerControl::MrpoMuteChange(int) 0x0000ebcf   Thumb Code    22  qtmultimediakit_mmfengine.in(.text)
    thunk{-12} to S60RadioTunerControl::MrpoMuteChange(int) 0x0000ebe5   Thumb Code     4  qtmultimediakit_mmfengine.in(.text)
    S60RadioTunerControl::MrpoBalanceChange(int, int) 0x0000ebe9   Thumb Code     2  qtmultimediakit_mmfengine.in(.text)
    thunk{-12} to S60RadioTunerControl::MrpoBalanceChange(int, int) 0x0000ebeb   Thumb Code     2  qtmultimediakit_mmfengine.in(.text)
    S60RadioTunerControl::MrftoRequestTunerControlComplete(int) 0x0000ebed   Thumb Code   282  qtmultimediakit_mmfengine.in(.text)
    thunk{-16} to S60RadioTunerControl::MrftoRequestTunerControlComplete(int) 0x0000ed07   Thumb Code     4  qtmultimediakit_mmfengine.in(.text)
    S60RadioTunerControl::MrftoSetFrequencyRangeComplete(int) 0x0000ed0b   Thumb Code    58  qtmultimediakit_mmfengine.in(.text)
    thunk{-16} to S60RadioTunerControl::MrftoSetFrequencyRangeComplete(int) 0x0000ed45   Thumb Code     4  qtmultimediakit_mmfengine.in(.text)
    S60RadioTunerControl::MrftoSetFrequencyComplete(int) 0x0000ed49   Thumb Code    68  qtmultimediakit_mmfengine.in(.text)
    thunk{-16} to S60RadioTunerControl::MrftoSetFrequencyComplete(int) 0x0000ed8d   Thumb Code     4  qtmultimediakit_mmfengine.in(.text)
    S60RadioTunerControl::MrftoStationSeekComplete(int, int) 0x0000ed91   Thumb Code    78  qtmultimediakit_mmfengine.in(.text)
    thunk{-16} to S60RadioTunerControl::MrftoStationSeekComplete(int, int) 0x0000eddf   Thumb Code     4  qtmultimediakit_mmfengine.in(.text)
    S60RadioTunerControl::MrftoFmTransmitterStatusChange(int) 0x0000ede3   Thumb Code     2  qtmultimediakit_mmfengine.in(.text)
    thunk{-16} to S60RadioTunerControl::MrftoFmTransmitterStatusChange(int) 0x0000ede5   Thumb Code     2  qtmultimediakit_mmfengine.in(.text)
    S60RadioTunerControl::MrftoAntennaStatusChange(int) 0x0000ede7   Thumb Code    22  qtmultimediakit_mmfengine.in(.text)
    thunk{-16} to S60RadioTunerControl::MrftoAntennaStatusChange(int) 0x0000edfd   Thumb Code     4  qtmultimediakit_mmfengine.in(.text)
    S60RadioTunerControl::MrftoOfflineModeStatusChange(int) 0x0000ee01   Thumb Code     2  qtmultimediakit_mmfengine.in(.text)
    thunk{-16} to S60RadioTunerControl::MrftoOfflineModeStatusChange(int) 0x0000ee03   Thumb Code     2  qtmultimediakit_mmfengine.in(.text)
    S60RadioTunerControl::MrftoFrequencyRangeChange(TFmRadioFrequencyRange) 0x0000ee05   Thumb Code    14  qtmultimediakit_mmfengine.in(.text)
    thunk{-16} to S60RadioTunerControl::MrftoFrequencyRangeChange(TFmRadioFrequencyRange) 0x0000ee13   Thumb Code     4  qtmultimediakit_mmfengine.in(.text)
    S60RadioTunerControl::MrftoFrequencyChange(int) 0x0000ee17   Thumb Code    44  qtmultimediakit_mmfengine.in(.text)
    thunk{-16} to S60RadioTunerControl::MrftoFrequencyChange(int) 0x0000ee43   Thumb Code     4  qtmultimediakit_mmfengine.in(.text)
    S60RadioTunerControl::MrftoForcedMonoChange(int) 0x0000ee47   Thumb Code    30  qtmultimediakit_mmfengine.in(.text)
    thunk{-16} to S60RadioTunerControl::MrftoForcedMonoChange(int) 0x0000ee65   Thumb Code     4  qtmultimediakit_mmfengine.in(.text)
    S60RadioTunerControl::MrftoSquelchChange(int) 0x0000ee69   Thumb Code     2  qtmultimediakit_mmfengine.in(.text)
    thunk{-16} to S60RadioTunerControl::MrftoSquelchChange(int) 0x0000ee6b   Thumb Code     2  qtmultimediakit_mmfengine.in(.text)
    S60RadioTunerControl::changeSignalStrength() 0x0000ee6d   Thumb Code    30  qtmultimediakit_mmfengine.in(.text)
    S60RadioTunerService::S60RadioTunerService(QObject*) 0x0000ef59   Thumb Code    40  qtmultimediakit_mmfengine.in(.text)
    S60RadioTunerService::S60RadioTunerService__sub_object(QObject*) 0x0000ef59   Thumb Code     0  qtmultimediakit_mmfengine.in(.text)
    S60RadioTunerService::~S60RadioTunerService() 0x0000ef81   Thumb Code    28  qtmultimediakit_mmfengine.in(.text)
    S60RadioTunerService::~S60RadioTunerService__sub_object() 0x0000ef81   Thumb Code     0  qtmultimediakit_mmfengine.in(.text)
    S60RadioTunerService::~S60RadioTunerService__deallocating() 0x0000ef9d   Thumb Code    16  qtmultimediakit_mmfengine.in(.text)
    S60RadioTunerService::requestControl(const char*) 0x0000efad   Thumb Code    24  qtmultimediakit_mmfengine.in(.text)
    S60RadioTunerService::releaseControl(QMediaControl*) 0x0000efc5   Thumb Code     2  qtmultimediakit_mmfengine.in(.text)
    S60VideoDisplay::S60VideoDisplay__sub_object(QObject*) 0x0000eff1   Thumb Code    78  qtmultimediakit_mmfengine.in(.text)
    S60VideoDisplay::~S60VideoDisplay()      0x0000f03f   Thumb Code     0  qtmultimediakit_mmfengine.in(.text)
    S60VideoDisplay::~S60VideoDisplay__sub_object() 0x0000f03f   Thumb Code     8  qtmultimediakit_mmfengine.in(.text)
    S60VideoDisplay::~S60VideoDisplay__deallocating() 0x0000f047   Thumb Code    16  qtmultimediakit_mmfengine.in(.text)
    S60VideoDisplay::windowHandle() const    0x0000f057   Thumb Code    34  qtmultimediakit_mmfengine.in(.text)
    S60VideoDisplay::clipRect() const        0x0000f079   Thumb Code    60  qtmultimediakit_mmfengine.in(.text)
    S60VideoDisplay::contentRect() const     0x0000f0b5   Thumb Code    12  qtmultimediakit_mmfengine.in(.text)
    S60VideoDisplay::setFullScreen(bool)     0x0000f0c1   Thumb Code    16  qtmultimediakit_mmfengine.in(.text)
    S60VideoDisplay::isFullScreen() const    0x0000f0d1   Thumb Code     4  qtmultimediakit_mmfengine.in(.text)
    S60VideoDisplay::setVisible(bool)        0x0000f0d5   Thumb Code    16  qtmultimediakit_mmfengine.in(.text)
    S60VideoDisplay::isVisible() const       0x0000f0e5   Thumb Code     4  qtmultimediakit_mmfengine.in(.text)
    S60VideoDisplay::setAspectRatioMode(Qt::AspectRatioMode) 0x0000f0e9   Thumb Code    16  qtmultimediakit_mmfengine.in(.text)
    S60VideoDisplay::aspectRatioMode() const 0x0000f0f9   Thumb Code     4  qtmultimediakit_mmfengine.in(.text)
    S60VideoDisplay::nativeSize() const      0x0000f0fd   Thumb Code     4  qtmultimediakit_mmfengine.in(.text)
    S60VideoDisplay::setPaintingEnabled(bool) 0x0000f101   Thumb Code    20  qtmultimediakit_mmfengine.in(.text)
    S60VideoDisplay::isPaintingEnabled() const 0x0000f115   Thumb Code     6  qtmultimediakit_mmfengine.in(.text)
    S60VideoDisplay::setNativeSize(const QSize&) 0x0000f11b   Thumb Code    30  qtmultimediakit_mmfengine.in(.text)
    S60VideoDisplay::updateContentRect()     0x0000f139   Thumb Code   206  qtmultimediakit_mmfengine.in(.text)
    S60VideoWidget::S60VideoWidget(QWidget*) 0x0000f265   Thumb Code   138  qtmultimediakit_mmfengine.in(.text)
    S60VideoWidget::S60VideoWidget__sub_object(QWidget*) 0x0000f265   Thumb Code     0  qtmultimediakit_mmfengine.in(.text)
    S60VideoWidget::~S60VideoWidget()        0x0000f2ef   Thumb Code     8  qtmultimediakit_mmfengine.in(.text)
    S60VideoWidget::~S60VideoWidget__sub_object() 0x0000f2ef   Thumb Code     0  qtmultimediakit_mmfengine.in(.text)
    S60VideoWidget::~S60VideoWidget__deallocating() 0x0000f2f7   Thumb Code    16  qtmultimediakit_mmfengine.in(.text)
    thunk{-8} to S60VideoWidget::~S60VideoWidget__deallocating() 0x0000f307   Thumb Code     4  qtmultimediakit_mmfengine.in(.text)
    thunk{-8} to S60VideoWidget::~S60VideoWidget() 0x0000f30b   Thumb Code     4  qtmultimediakit_mmfengine.in(.text)
    S60VideoWidget::queueReactivateWindow()  0x0000f30f   Thumb Code    94  qtmultimediakit_mmfengine.in(.text)
    S60VideoWidget::updateOrdinalPosition()  0x0000f36d   Thumb Code    60  qtmultimediakit_mmfengine.in(.text)
    S60VideoWidget::event(QEvent*)           0x0000f3a9   Thumb Code    28  qtmultimediakit_mmfengine.in(.text)
    S60VideoWidget::paintEvent(QPaintEvent*) 0x0000f3c5   Thumb Code   172  qtmultimediakit_mmfengine.in(.text)
    S60VideoWidget::setVisible(bool)         0x0000f471   Thumb Code    20  qtmultimediakit_mmfengine.in(.text)
    S60VideoWidget::videoWinId() const       0x0000f485   Thumb Code    44  qtmultimediakit_mmfengine.in(.text)
    S60VideoWidget::setPixmap(const QPixmap*) 0x0000f4b1   Thumb Code    10  qtmultimediakit_mmfengine.in(.text)
    S60VideoWidget::setWindowBackgroundColor() 0x0000f4bb   Thumb Code    26  qtmultimediakit_mmfengine.in(.text)
    S60VideoWidget::setTopWinId(CCoeControl*) 0x0000f4d5   Thumb Code     4  qtmultimediakit_mmfengine.in(.text)
    S60VideoWidget::topWinId() const         0x0000f4d9   Thumb Code     4  qtmultimediakit_mmfengine.in(.text)
    S60VideoWidget::setOrdinalPosition(int)  0x0000f4dd   Thumb Code     4  qtmultimediakit_mmfengine.in(.text)
    S60VideoWidget::ordinalPosition() const  0x0000f4e1   Thumb Code     4  qtmultimediakit_mmfengine.in(.text)
    S60VideoWidget::beginNativePaintEvent(const QRect&) 0x0000f4e5   Thumb Code     8  qtmultimediakit_mmfengine.in(.text)
    S60VideoWidget::endNativePaintEvent(const QRect&) 0x0000f4ed   Thumb Code    22  qtmultimediakit_mmfengine.in(.text)
    S60VideoWidget::setPaintingEnabled(bool) 0x0000f503   Thumb Code   122  qtmultimediakit_mmfengine.in(.text)
    S60VideoWidget::setFullScreen(bool)      0x0000f57d   Thumb Code    18  qtmultimediakit_mmfengine.in(.text)
    S60VideoWidget::setContentRect(const QRect&) 0x0000f58f   Thumb Code    50  qtmultimediakit_mmfengine.in(.text)
    S60VideoWidget::reactivateWindow(QWidget*) 0x0000f5c1   Thumb Code    10  qtmultimediakit_mmfengine.in(.text)
    S60VideoWidget::setWindowsNonFading()    0x0000f5cb   Thumb Code    36  qtmultimediakit_mmfengine.in(.text)
    S60VideoWidgetControl::S60VideoWidgetControl(QObject*) 0x0000f659   Thumb Code    54  qtmultimediakit_mmfengine.in(.text)
    S60VideoWidgetControl::S60VideoWidgetControl__sub_object(QObject*) 0x0000f659   Thumb Code     0  qtmultimediakit_mmfengine.in(.text)
    S60VideoWidgetControl::~S60VideoWidgetControl() 0x0000f68f   Thumb Code     8  qtmultimediakit_mmfengine.in(.text)
    S60VideoWidgetControl::~S60VideoWidgetControl__sub_object() 0x0000f68f   Thumb Code     0  qtmultimediakit_mmfengine.in(.text)
    S60VideoWidgetControl::~S60VideoWidgetControl__deallocating() 0x0000f697   Thumb Code    16  qtmultimediakit_mmfengine.in(.text)
    S60VideoWidgetControl::videoWidget()     0x0000f6a7   Thumb Code    10  qtmultimediakit_mmfengine.in(.text)
    S60VideoWidgetControl::aspectRatioMode() const 0x0000f6b1   Thumb Code    10  qtmultimediakit_mmfengine.in(.text)
    S60VideoWidgetControl::setAspectRatioMode(Qt::AspectRatioMode) 0x0000f6bb   Thumb Code    10  qtmultimediakit_mmfengine.in(.text)
    S60VideoWidgetControl::isFullScreen() const 0x0000f6c5   Thumb Code    10  qtmultimediakit_mmfengine.in(.text)
    S60VideoWidgetControl::setFullScreen(bool) 0x0000f6cf   Thumb Code    10  qtmultimediakit_mmfengine.in(.text)
    S60VideoWidgetControl::brightness() const 0x0000f6d9   Thumb Code     4  qtmultimediakit_mmfengine.in(.text)
    S60VideoWidgetControl::setBrightness(int) 0x0000f6dd   Thumb Code     2  qtmultimediakit_mmfengine.in(.text)
    S60VideoWidgetControl::contrast() const  0x0000f6df   Thumb Code     4  qtmultimediakit_mmfengine.in(.text)
    S60VideoWidgetControl::setContrast(int)  0x0000f6e3   Thumb Code     2  qtmultimediakit_mmfengine.in(.text)
    S60VideoWidgetControl::hue() const       0x0000f6e5   Thumb Code     4  qtmultimediakit_mmfengine.in(.text)
    S60VideoWidgetControl::setHue(int)       0x0000f6e9   Thumb Code     2  qtmultimediakit_mmfengine.in(.text)
    S60VideoWidgetControl::saturation() const 0x0000f6eb   Thumb Code     4  qtmultimediakit_mmfengine.in(.text)
    S60VideoWidgetControl::setSaturation(int) 0x0000f6ef   Thumb Code     2  qtmultimediakit_mmfengine.in(.text)
    S60VideoWidgetControl::display() const   0x0000f6f1   Thumb Code     4  qtmultimediakit_mmfengine.in(.text)
    S60VideoWidgetControl::topWinId() const  0x0000f6f5   Thumb Code    10  qtmultimediakit_mmfengine.in(.text)
    S60VideoWidgetControl::setTopWinId(CCoeControl*) 0x0000f6ff   Thumb Code    10  qtmultimediakit_mmfengine.in(.text)
    S60VideoWidgetControl::ordinalPosition() const 0x0000f709   Thumb Code    10  qtmultimediakit_mmfengine.in(.text)
    S60VideoWidgetControl::setOrdinalPosition(int) 0x0000f713   Thumb Code    10  qtmultimediakit_mmfengine.in(.text)
    S60VideoWidgetControl::extentRect() const 0x0000f71d   Thumb Code    10  qtmultimediakit_mmfengine.in(.text)
    S60VideoWidgetControl::setExtentRect(const QRect&) 0x0000f727   Thumb Code    10  qtmultimediakit_mmfengine.in(.text)
    S60VideoWidgetControl::nativeSize() const 0x0000f731   Thumb Code    16  qtmultimediakit_mmfengine.in(.text)
    S60VideoWidgetDisplay::S60VideoWidgetDisplay(QObject*) 0x0000f779   Thumb Code   472  qtmultimediakit_mmfengine.in(.text)
    S60VideoWidgetDisplay::S60VideoWidgetDisplay__sub_object(QObject*) 0x0000f779   Thumb Code     0  qtmultimediakit_mmfengine.in(.text)
    S60VideoWidgetDisplay::~S60VideoWidgetDisplay() 0x0000f951   Thumb Code    54  qtmultimediakit_mmfengine.in(.text)
    S60VideoWidgetDisplay::~S60VideoWidgetDisplay__sub_object() 0x0000f951   Thumb Code     0  qtmultimediakit_mmfengine.in(.text)
    S60VideoWidgetDisplay::~S60VideoWidgetDisplay__deallocating() 0x0000f987   Thumb Code    16  qtmultimediakit_mmfengine.in(.text)
    S60VideoWidgetDisplay::eventFilter(QObject*, QEvent*) 0x0000f997   Thumb Code   170  qtmultimediakit_mmfengine.in(.text)
    S60VideoWidgetDisplay::winId() const     0x0000fa41   Thumb Code    20  qtmultimediakit_mmfengine.in(.text)
    S60VideoWidgetDisplay::extentRect() const 0x0000fa55   Thumb Code   142  qtmultimediakit_mmfengine.in(.text)
    S60VideoWidgetDisplay::setFrame(const CFbsBitmap&) 0x0000fae3   Thumb Code    38  qtmultimediakit_mmfengine.in(.text)
    S60VideoWidgetDisplay::widget() const    0x0000fb09   Thumb Code     4  qtmultimediakit_mmfengine.in(.text)
    S60VideoWidgetDisplay::topWinId() const  0x0000fb0d   Thumb Code    10  qtmultimediakit_mmfengine.in(.text)
    S60VideoWidgetDisplay::setTopWinId(CCoeControl*) 0x0000fb17   Thumb Code    10  qtmultimediakit_mmfengine.in(.text)
    S60VideoWidgetDisplay::setOrdinalPosition(int) 0x0000fb21   Thumb Code    10  qtmultimediakit_mmfengine.in(.text)
    S60VideoWidgetDisplay::ordinalPosition() const 0x0000fb2b   Thumb Code    10  qtmultimediakit_mmfengine.in(.text)
    S60VideoWidgetDisplay::explicitExtentRect() const 0x0000fb35   Thumb Code     4  qtmultimediakit_mmfengine.in(.text)
    S60VideoWidgetDisplay::setExplicitExtentRect(const QRect&) 0x0000fb39   Thumb Code    90  qtmultimediakit_mmfengine.in(.text)
    S60VideoWindowControl::S60VideoWindowControl(QObject*) 0x0000fbb1   Thumb Code    70  qtmultimediakit_mmfengine.in(.text)
    S60VideoWindowControl::S60VideoWindowControl__sub_object(QObject*) 0x0000fbb1   Thumb Code     0  qtmultimediakit_mmfengine.in(.text)
    S60VideoWindowControl::~S60VideoWindowControl() 0x0000fbf7   Thumb Code     8  qtmultimediakit_mmfengine.in(.text)
    S60VideoWindowControl::~S60VideoWindowControl__sub_object() 0x0000fbf7   Thumb Code     0  qtmultimediakit_mmfengine.in(.text)
    S60VideoWindowControl::~S60VideoWindowControl__deallocating() 0x0000fbff   Thumb Code    16  qtmultimediakit_mmfengine.in(.text)
    S60VideoWindowControl::winId() const     0x0000fc0f   Thumb Code     8  qtmultimediakit_mmfengine.in(.text)
    S60VideoWindowControl::setWinId(CCoeControl*) 0x0000fc17   Thumb Code    10  qtmultimediakit_mmfengine.in(.text)
    S60VideoWindowControl::displayRect() const 0x0000fc21   Thumb Code    10  qtmultimediakit_mmfengine.in(.text)
    S60VideoWindowControl::setDisplayRect(const QRect&) 0x0000fc2b   Thumb Code    10  qtmultimediakit_mmfengine.in(.text)
    S60VideoWindowControl::isFullScreen() const 0x0000fc35   Thumb Code    10  qtmultimediakit_mmfengine.in(.text)
    S60VideoWindowControl::setFullScreen(bool) 0x0000fc3f   Thumb Code    10  qtmultimediakit_mmfengine.in(.text)
    S60VideoWindowControl::repaint()         0x0000fc49   Thumb Code    10  qtmultimediakit_mmfengine.in(.text)
    S60VideoWindowControl::nativeSize() const 0x0000fc53   Thumb Code    16  qtmultimediakit_mmfengine.in(.text)
    S60VideoWindowControl::aspectRatioMode() const 0x0000fc63   Thumb Code    10  qtmultimediakit_mmfengine.in(.text)
    S60VideoWindowControl::setAspectRatioMode(Qt::AspectRatioMode) 0x0000fc6d   Thumb Code    10  qtmultimediakit_mmfengine.in(.text)
    S60VideoWindowControl::customAspectRatio() const 0x0000fc77   Thumb Code    10  qtmultimediakit_mmfengine.in(.text)
    S60VideoWindowControl::setCustomAspectRatio(const QSize&) 0x0000fc81   Thumb Code     2  qtmultimediakit_mmfengine.in(.text)
    S60VideoWindowControl::brightness() const 0x0000fc83   Thumb Code     4  qtmultimediakit_mmfengine.in(.text)
    S60VideoWindowControl::setBrightness(int) 0x0000fc87   Thumb Code     2  qtmultimediakit_mmfengine.in(.text)
    S60VideoWindowControl::contrast() const  0x0000fc89   Thumb Code     4  qtmultimediakit_mmfengine.in(.text)
    S60VideoWindowControl::setContrast(int)  0x0000fc8d   Thumb Code     2  qtmultimediakit_mmfengine.in(.text)
    S60VideoWindowControl::hue() const       0x0000fc8f   Thumb Code     4  qtmultimediakit_mmfengine.in(.text)
    S60VideoWindowControl::setHue(int)       0x0000fc93   Thumb Code     2  qtmultimediakit_mmfengine.in(.text)
    S60VideoWindowControl::saturation() const 0x0000fc95   Thumb Code     4  qtmultimediakit_mmfengine.in(.text)
    S60VideoWindowControl::setSaturation(int) 0x0000fc99   Thumb Code     2  qtmultimediakit_mmfengine.in(.text)
    S60VideoWindowControl::display() const   0x0000fc9b   Thumb Code     4  qtmultimediakit_mmfengine.in(.text)
    S60VideoWindowControl::refreshDisplay()  0x0000fc9f   Thumb Code    10  qtmultimediakit_mmfengine.in(.text)
    S60VideoWindowDisplay::S60VideoWindowDisplay(QObject*) 0x0000fcfd   Thumb Code    60  qtmultimediakit_mmfengine.in(.text)
    S60VideoWindowDisplay::S60VideoWindowDisplay__sub_object(QObject*) 0x0000fcfd   Thumb Code     0  qtmultimediakit_mmfengine.in(.text)
    S60VideoWindowDisplay::~S60VideoWindowDisplay() 0x0000fd39   Thumb Code     8  qtmultimediakit_mmfengine.in(.text)
    S60VideoWindowDisplay::~S60VideoWindowDisplay__sub_object() 0x0000fd39   Thumb Code     0  qtmultimediakit_mmfengine.in(.text)
    S60VideoWindowDisplay::~S60VideoWindowDisplay__deallocating() 0x0000fd41   Thumb Code    16  qtmultimediakit_mmfengine.in(.text)
    S60VideoWindowDisplay::winId() const     0x0000fd51   Thumb Code     4  qtmultimediakit_mmfengine.in(.text)
    S60VideoWindowDisplay::displayRect() const 0x0000fd55   Thumb Code    12  qtmultimediakit_mmfengine.in(.text)
    S60VideoWindowDisplay::extentRect() const 0x0000fd61   Thumb Code    70  qtmultimediakit_mmfengine.in(.text)
    S60VideoWindowDisplay::setFrame(const CFbsBitmap&) 0x0000fda7   Thumb Code   138  qtmultimediakit_mmfengine.in(.text)
    S60VideoWindowDisplay::setWinId(CCoeControl*) 0x0000fe31   Thumb Code    46  qtmultimediakit_mmfengine.in(.text)
    S60VideoWindowDisplay::setDisplayRect(const QRect&) 0x0000fe5f   Thumb Code   150  qtmultimediakit_mmfengine.in(.text)
    S60VideoWindowDisplay::repaint()         0x0000fef5   Thumb Code     2  qtmultimediakit_mmfengine.in(.text)
    S60VideoWindowDisplay::refreshDisplay()  0x0000fef7   Thumb Code    50  qtmultimediakit_mmfengine.in(.text)
    _E32Dll_Body                             0x0000ff39   Thumb Code    34  uc_dll.o(.text)
    CppBSSInitializationError                0x0000ff60   ARM Code       4  ucppfini.o(.text)
    __aeabi_atexit                           0x0000ff64   ARM Code      28  ucppfini.o(.text)
    __cxa_atexit                             0x0000ff80   ARM Code      48  ucppfini.o(.text)
    __cxa_finalize                           0x0000ffb0   ARM Code      48  ucppfini.o(.text)
    run_static_dtors                         0x0000ffe0   ARM Code       8  ucppfini.o(.text)
    __DLL_Export_Table__                     0x000109b0   ARM Code       0  qtmultimediakit_mmfengine{000a0000}.exp(ExportTable)
    DLL##ExportTableSize                     0x000109b4   Data           0  qtmultimediakit_mmfengine{000a0000}.exp(ExportTable)
    DLL##ExportTable                         0x000109b8   Data           0  qtmultimediakit_mmfengine{000a0000}.exp(ExportTable)
    QAbstractVideoSurface::nearestFormat(const QVideoSurfaceFormat&) const 0x000109c0   ARM Code       0  QtMultimediaKit{00010103}-1081.o(StubCode)
    QAudioEncoderSettings::sampleRate() const 0x000109c8   ARM Code       0  QtMultimediaKit{00010103}-1086.o(StubCode)
    QAudioEncoderSettings::channelCount() const 0x000109d0   ARM Code       0  QtMultimediaKit{00010103}-1087.o(StubCode)
    QAudioEncoderSettings::encodingMode() const 0x000109d8   ARM Code       0  QtMultimediaKit{00010103}-1088.o(StubCode)
    QAudioEncoderSettings::codec() const     0x000109e0   ARM Code       0  QtMultimediaKit{00010103}-1089.o(StubCode)
    QAudioEncoderSettings::bitRate() const   0x000109e8   ARM Code       0  QtMultimediaKit{00010103}-1091.o(StubCode)
    QAudioEncoderSettings::quality() const   0x000109f0   ARM Code       0  QtMultimediaKit{00010103}-1092.o(StubCode)
    QMediaContent::QMediaContent(const QMediaContent&) 0x000109f8   ARM Code       0  QtMultimediaKit{00010103}-214.o(StubCode)
    QMediaContent::QMediaContent()           0x00010a00   ARM Code       0  QtMultimediaKit{00010103}-215.o(StubCode)
    QMediaContent::~QMediaContent()          0x00010a08   ARM Code       0  QtMultimediaKit{00010103}-222.o(StubCode)
    QMediaContent::operator =(const QMediaContent&) 0x00010a10   ARM Code       0  QtMultimediaKit{00010103}-224.o(StubCode)
    QMediaService::qt_metacall(QMetaObject::Call, int, void**) 0x00010a18   ARM Code       0  QtMultimediaKit{00010103}-236.o(StubCode)
    QMediaService::qt_metacast(const char*)  0x00010a20   ARM Code       0  QtMultimediaKit{00010103}-237.o(StubCode)
    QMediaService::QMediaService__sub_object(QObject*) 0x00010a28   ARM Code       0  QtMultimediaKit{00010103}-240.o(StubCode)
    QMediaService::~QMediaService__sub_object() 0x00010a30   ARM Code       0  QtMultimediaKit{00010103}-244.o(StubCode)
    QMediaTimeRange::addInterval(long long, long long) 0x00010a38   ARM Code       0  QtMultimediaKit{00010103}-328.o(StubCode)
    QMediaTimeRange::QMediaTimeRange()       0x00010a40   ARM Code       0  QtMultimediaKit{00010103}-336.o(StubCode)
    QMediaTimeRange::~QMediaTimeRange()      0x00010a48   ARM Code       0  QtMultimediaKit{00010103}-342.o(StubCode)
    QRadioTunerControl::bandChanged(QRadioTuner::Band) 0x00010a50   ARM Code       0  QtMultimediaKit{00010103}-429.o(StubCode)
    QRadioTunerControl::qt_metacall(QMetaObject::Call, int, void**) 0x00010a58   ARM Code       0  QtMultimediaKit{00010103}-430.o(StubCode)
    QRadioTunerControl::qt_metacast(const char*) 0x00010a60   ARM Code       0  QtMultimediaKit{00010103}-431.o(StubCode)
    QRadioTunerControl::mutedChanged(bool)   0x00010a68   ARM Code       0  QtMultimediaKit{00010103}-432.o(StubCode)
    QRadioTunerControl::stateChanged(QRadioTuner::State) 0x00010a70   ARM Code       0  QtMultimediaKit{00010103}-433.o(StubCode)
    QRadioTunerControl::volumeChanged(int)   0x00010a78   ARM Code       0  QtMultimediaKit{00010103}-434.o(StubCode)
    QRadioTunerControl::frequencyChanged(int) 0x00010a80   ARM Code       0  QtMultimediaKit{00010103}-435.o(StubCode)
    QRadioTunerControl::searchingChanged(bool) 0x00010a88   ARM Code       0  QtMultimediaKit{00010103}-436.o(StubCode)
    QRadioTunerControl::stereoStatusChanged(bool) 0x00010a90   ARM Code       0  QtMultimediaKit{00010103}-439.o(StubCode)
    QRadioTunerControl::signalStrengthChanged(int) 0x00010a98   ARM Code       0  QtMultimediaKit{00010103}-440.o(StubCode)
    QRadioTunerControl::QRadioTunerControl__sub_object(QObject*) 0x00010aa0   ARM Code       0  QtMultimediaKit{00010103}-442.o(StubCode)
    QRadioTunerControl::~QRadioTunerControl__sub_object() 0x00010aa8   ARM Code       0  QtMultimediaKit{00010103}-445.o(StubCode)
    QMediaPlayerControl::qt_metacall(QMetaObject::Call, int, void**) 0x00010ab0   ARM Code       0  QtMultimediaKit{00010103}-466.o(StubCode)
    QMediaPlayerControl::qt_metacast(const char*) 0x00010ab8   ARM Code       0  QtMultimediaKit{00010103}-467.o(StubCode)
    QMediaPlayerControl::mediaChanged(const QMediaContent&) 0x00010ac0   ARM Code       0  QtMultimediaKit{00010103}-468.o(StubCode)
    QMediaPlayerControl::stateChanged(QMediaPlayer::State) 0x00010ac8   ARM Code       0  QtMultimediaKit{00010103}-470.o(StubCode)
    QMediaPlayerControl::mediaStatusChanged(QMediaPlayer::MediaStatus) 0x00010ad0   ARM Code       0  QtMultimediaKit{00010103}-476.o(StubCode)
    QMediaPlayerControl::error(int, const QString&) 0x00010ad8   ARM Code       0  QtMultimediaKit{00010103}-483.o(StubCode)
    QMediaPlayerControl::QMediaPlayerControl__sub_object(QObject*) 0x00010ae0   ARM Code       0  QtMultimediaKit{00010103}-484.o(StubCode)
    QMediaPlayerControl::~QMediaPlayerControl__sub_object() 0x00010ae8   ARM Code       0  QtMultimediaKit{00010103}-487.o(StubCode)
    QVideoWidgetControl::qt_metacall(QMetaObject::Call, int, void**) 0x00010af0   ARM Code       0  QtMultimediaKit{00010103}-518.o(StubCode)
    QVideoWidgetControl::qt_metacast(const char*) 0x00010af8   ARM Code       0  QtMultimediaKit{00010103}-519.o(StubCode)
    QVideoWidgetControl::QVideoWidgetControl__sub_object(QObject*) 0x00010b00   ARM Code       0  QtMultimediaKit{00010103}-526.o(StubCode)
    QVideoWidgetControl::~QVideoWidgetControl__sub_object() 0x00010b08   ARM Code       0  QtMultimediaKit{00010103}-529.o(StubCode)
    QVideoWindowControl::qt_metacall(QMetaObject::Call, int, void**) 0x00010b10   ARM Code       0  QtMultimediaKit{00010103}-531.o(StubCode)
    QVideoWindowControl::qt_metacast(const char*) 0x00010b18   ARM Code       0  QtMultimediaKit{00010103}-532.o(StubCode)
    QVideoWindowControl::QVideoWindowControl__sub_object(QObject*) 0x00010b20   ARM Code       0  QtMultimediaKit{00010103}-540.o(StubCode)
    QVideoWindowControl::~QVideoWindowControl__sub_object() 0x00010b28   ARM Code       0  QtMultimediaKit{00010103}-543.o(StubCode)
    QAudioEncoderControl::qt_metacall(QMetaObject::Call, int, void**) 0x00010b30   ARM Code       0  QtMultimediaKit{00010103}-556.o(StubCode)
    QAudioEncoderControl::qt_metacast(const char*) 0x00010b38   ARM Code       0  QtMultimediaKit{00010103}-557.o(StubCode)
    QAudioEncoderControl::QAudioEncoderControl__sub_object(QObject*) 0x00010b40   ARM Code       0  QtMultimediaKit{00010103}-560.o(StubCode)
    QAudioEncoderControl::~QAudioEncoderControl__sub_object() 0x00010b48   ARM Code       0  QtMultimediaKit{00010103}-563.o(StubCode)
    QMediaStreamsControl::qt_metacall(QMetaObject::Call, int, void**) 0x00010b50   ARM Code       0  QtMultimediaKit{00010103}-578.o(StubCode)
    QMediaStreamsControl::qt_metacast(const char*) 0x00010b58   ARM Code       0  QtMultimediaKit{00010103}-579.o(StubCode)
    QMediaStreamsControl::streamsChanged()   0x00010b60   ARM Code       0  QtMultimediaKit{00010103}-580.o(StubCode)
    QMediaStreamsControl::QMediaStreamsControl__sub_object(QObject*) 0x00010b68   ARM Code       0  QtMultimediaKit{00010103}-584.o(StubCode)
    QMediaStreamsControl::~QMediaStreamsControl__sub_object() 0x00010b70   ARM Code       0  QtMultimediaKit{00010103}-587.o(StubCode)
    QAbstractVideoSurface::qt_metacall(QMetaObject::Call, int, void**) 0x00010b78   ARM Code       0  QtMultimediaKit{00010103}-596.o(StubCode)
    QAbstractVideoSurface::qt_metacast(const char*) 0x00010b80   ARM Code       0  QtMultimediaKit{00010103}-597.o(StubCode)
    QAbstractVideoSurface::QAbstractVideoSurface__sub_object(QObject*) 0x00010b88   ARM Code       0  QtMultimediaKit{00010103}-606.o(StubCode)
    QAbstractVideoSurface::~QAbstractVideoSurface__sub_object() 0x00010b90   ARM Code       0  QtMultimediaKit{00010103}-610.o(StubCode)
    QAudioEncoderSettings::setSampleRate(int) 0x00010b98   ARM Code       0  QtMultimediaKit{00010103}-613.o(StubCode)
    QAudioEncoderSettings::setChannelCount(int) 0x00010ba0   ARM Code       0  QtMultimediaKit{00010103}-614.o(StubCode)
    QAudioEncoderSettings::setCodec(const QString&) 0x00010ba8   ARM Code       0  QtMultimediaKit{00010103}-616.o(StubCode)
    QAudioEncoderSettings::QAudioEncoderSettings(const QAudioEncoderSettings&) 0x00010bb0   ARM Code       0  QtMultimediaKit{00010103}-617.o(StubCode)
    QAudioEncoderSettings::QAudioEncoderSettings() 0x00010bb8   ARM Code       0  QtMultimediaKit{00010103}-618.o(StubCode)
    QAudioEncoderSettings::~QAudioEncoderSettings() 0x00010bc0   ARM Code       0  QtMultimediaKit{00010103}-621.o(StubCode)
    QAudioEncoderSettings::operator =(const QAudioEncoderSettings&) 0x00010bc8   ARM Code       0  QtMultimediaKit{00010103}-623.o(StubCode)
    QMediaRecorderControl::qt_metacall(QMetaObject::Call, int, void**) 0x00010bd0   ARM Code       0  QtMultimediaKit{00010103}-647.o(StubCode)
    QMediaRecorderControl::qt_metacast(const char*) 0x00010bd8   ARM Code       0  QtMultimediaKit{00010103}-648.o(StubCode)
    QMediaRecorderControl::stateChanged(QMediaRecorder::State) 0x00010be0   ARM Code       0  QtMultimediaKit{00010103}-650.o(StubCode)
    QMediaRecorderControl::QMediaRecorderControl__sub_object(QObject*) 0x00010be8   ARM Code       0  QtMultimediaKit{00010103}-655.o(StubCode)
    QMediaRecorderControl::~QMediaRecorderControl__sub_object() 0x00010bf0   ARM Code       0  QtMultimediaKit{00010103}-658.o(StubCode)
    QAudioEndpointSelector::qt_metacall(QMetaObject::Call, int, void**) 0x00010bf8   ARM Code       0  QtMultimediaKit{00010103}-687.o(StubCode)
    QAudioEndpointSelector::qt_metacast(const char*) 0x00010c00   ARM Code       0  QtMultimediaKit{00010103}-688.o(StubCode)
    QAudioEndpointSelector::activeEndpointChanged(const QString&) 0x00010c08   ARM Code       0  QtMultimediaKit{00010103}-691.o(StubCode)
    QAudioEndpointSelector::QAudioEndpointSelector__sub_object(QObject*) 0x00010c10   ARM Code       0  QtMultimediaKit{00010103}-693.o(StubCode)
    QAudioEndpointSelector::~QAudioEndpointSelector__sub_object() 0x00010c18   ARM Code       0  QtMultimediaKit{00010103}-696.o(StubCode)
    QMediaContainerControl::qt_metacall(QMetaObject::Call, int, void**) 0x00010c20   ARM Code       0  QtMultimediaKit{00010103}-697.o(StubCode)
    QMediaContainerControl::qt_metacast(const char*) 0x00010c28   ARM Code       0  QtMultimediaKit{00010103}-698.o(StubCode)
    QMediaContainerControl::QMediaContainerControl__sub_object(QObject*) 0x00010c30   ARM Code       0  QtMultimediaKit{00010103}-701.o(StubCode)
    QMediaContainerControl::~QMediaContainerControl__sub_object() 0x00010c38   ARM Code       0  QtMultimediaKit{00010103}-704.o(StubCode)
    QAudioFormat::setChannels(int)           0x00010c40   ARM Code       0  QtMultimediaKit{00010103}-71.o(StubCode)
    QAudioFormat::setFrequency(int)          0x00010c48   ARM Code       0  QtMultimediaKit{00010103}-73.o(StubCode)
    QMetaDataReaderControl::qt_metacall(QMetaObject::Call, int, void**) 0x00010c50   ARM Code       0  QtMultimediaKit{00010103}-741.o(StubCode)
    QMetaDataReaderControl::qt_metacast(const char*) 0x00010c58   ARM Code       0  QtMultimediaKit{00010103}-742.o(StubCode)
    QMetaDataReaderControl::QMetaDataReaderControl__sub_object(QObject*) 0x00010c60   ARM Code       0  QtMultimediaKit{00010103}-747.o(StubCode)
    QAudioFormat::setSampleSize(int)         0x00010c68   ARM Code       0  QtMultimediaKit{00010103}-75.o(StubCode)
    QMetaDataReaderControl::~QMetaDataReaderControl__sub_object() 0x00010c70   ARM Code       0  QtMultimediaKit{00010103}-750.o(StubCode)
    QAudioFormat::setSampleType(QAudioFormat::SampleType) 0x00010c78   ARM Code       0  QtMultimediaKit{00010103}-76.o(StubCode)
    QAudioFormat::setCodec(const QString&)   0x00010c80   ARM Code       0  QtMultimediaKit{00010103}-78.o(StubCode)
    QAudioFormat::QAudioFormat(const QAudioFormat&) 0x00010c88   ARM Code       0  QtMultimediaKit{00010103}-79.o(StubCode)
    QAudioFormat::QAudioFormat()             0x00010c90   ARM Code       0  QtMultimediaKit{00010103}-80.o(StubCode)
    QMediaServiceProviderPlugin::qt_metacall(QMetaObject::Call, int, void**) 0x00010c98   ARM Code       0  QtMultimediaKit{00010103}-826.o(StubCode)
    QMediaServiceProviderPlugin::qt_metacast(const char*) 0x00010ca0   ARM Code       0  QtMultimediaKit{00010103}-827.o(StubCode)
    QAudioFormat::~QAudioFormat()            0x00010ca8   ARM Code       0  QtMultimediaKit{00010103}-83.o(StubCode)
    QAudioFormat::operator =(const QAudioFormat&) 0x00010cb0   ARM Code       0  QtMultimediaKit{00010103}-85.o(StubCode)
    QAudioFormat::sampleRate() const         0x00010cb8   ARM Code       0  QtMultimediaKit{00010103}-874.o(StubCode)
    QAudioFormat::sampleSize() const         0x00010cc0   ARM Code       0  QtMultimediaKit{00010103}-875.o(StubCode)
    QAudioFormat::sampleType() const         0x00010cc8   ARM Code       0  QtMultimediaKit{00010103}-876.o(StubCode)
    QAudioFormat::codec() const              0x00010cd0   ARM Code       0  QtMultimediaKit{00010103}-878.o(StubCode)
    QAudioFormat::channels() const           0x00010cd8   ARM Code       0  QtMultimediaKit{00010103}-880.o(StubCode)
    QAudioFormat::byteOrder() const          0x00010ce0   ARM Code       0  QtMultimediaKit{00010103}-881.o(StubCode)
    QAudioFormat::frequency() const          0x00010ce8   ARM Code       0  QtMultimediaKit{00010103}-882.o(StubCode)
    QMediaContent::canonicalUrl() const      0x00010cf0   ARM Code       0  QtMultimediaKit{00010103}-935.o(StubCode)
    QMediaContent::isNull() const            0x00010cf8   ARM Code       0  QtMultimediaKit{00010103}-938.o(StubCode)
    QMediaContent::operator ==(const QMediaContent&) const 0x00010d00   ARM Code       0  QtMultimediaKit{00010103}-940.o(StubCode)
    CCoeEnv::Static()                        0x00010d08   ARM Code       0  cone{000a0000}-182.o(StubCode)
    CCoeControl::DrawableWindow() const      0x00010d10   ARM Code       0  cone{000a0000}-262.o(StubCode)
    CCoeControl::SystemGc() const            0x00010d18   ARM Code       0  cone{000a0000}-287.o(StubCode)
    RWindowTreeNode::SetNonFading(int)       0x00010d20   ARM Code       0  ws32{000a0000}-206.o(StubCode)
    RWindowTreeNode::SetOrdinalPosition(int) 0x00010d28   ARM Code       0  ws32{000a0000}-211.o(StubCode)
    RWindow::BeginRedraw(const TRect&)       0x00010d30   ARM Code       0  ws32{000a0000}-265.o(StubCode)
    RWindow::SetBackgroundColor(TRgb)        0x00010d38   ARM Code       0  ws32{000a0000}-269.o(StubCode)
    RWindow::EndRedraw()                     0x00010d40   ARM Code       0  ws32{000a0000}-276.o(StubCode)
    RWindowBase::Size() const                0x00010d48   ARM Code       0  ws32{000a0000}-387.o(StubCode)
    RWindowTreeNode::OrdinalPosition() const 0x00010d50   ARM Code       0  ws32{000a0000}-421.o(StubCode)
    RWindowBase::AbsPosition() const         0x00010d58   ARM Code       0  ws32{000a0000}-446.o(StubCode)
    RWsSession::Flush()                      0x00010d60   ARM Code       0  ws32{000a0000}-69.o(StubCode)
    CVideoPlayerUtility::SetScaleFactorL(float, float, int) 0x00010d68   ARM Code       0  mediaclientvideo{000a0000}-10.o(StubCode)
    CVideoPlayerUtility::StopDirectScreenAccessL() 0x00010d70   ARM Code       0  mediaclientvideo{000a0000}-105.o(StubCode)
    CVideoPlayerUtility::StartDirectScreenAccessL() 0x00010d78   ARM Code       0  mediaclientvideo{000a0000}-106.o(StubCode)
    CVideoPlayerUtility::CustomCommandSync(const TPckgBuf<TMMFMessageDestination>&, int, const TDesC8&, const TDesC8&) 0x00010d80   ARM Code       0  mediaclientvideo{000a0000}-11.o(StubCode)
    CVideoPlayerUtility::SetPlayVelocityL(int) 0x00010d88   ARM Code       0  mediaclientvideo{000a0000}-124.o(StubCode)
    CVideoPlayerUtility::SetDisplayWindowL(RWsSession&, CWsScreenDevice&, RWindowBase&, const TRect&, const TRect&) 0x00010d90   ARM Code       0  mediaclientvideo{000a0000}-13.o(StubCode)
    CVideoPlayerUtility::VideoEnabledL() const 0x00010d98   ARM Code       0  mediaclientvideo{000a0000}-130.o(StubCode)
    CVideoPlayerUtility::GetVideoLoadingProgressL(int&) 0x00010da0   ARM Code       0  mediaclientvideo{000a0000}-17.o(StubCode)
    CVideoPlayerUtility::RegisterForVideoLoadingNotification(MVideoLoadingObserver&) 0x00010da8   ARM Code       0  mediaclientvideo{000a0000}-18.o(StubCode)
    CVideoPlayerUtility::NewL(MVideoPlayerUtilityObserver&, int, TMdaPriorityPreference, RWsSession&, CWsScreenDevice&, RWindowBase&, const TRect&, const TRect&) 0x00010db0   ARM Code       0  mediaclientvideo{000a0000}-20.o(StubCode)
    CVideoPlayerUtility::Play()              0x00010db8   ARM Code       0  mediaclientvideo{000a0000}-22.o(StubCode)
    CVideoPlayerUtility::Stop()              0x00010dc0   ARM Code       0  mediaclientvideo{000a0000}-23.o(StubCode)
    CVideoPlayerUtility::Close()             0x00010dc8   ARM Code       0  mediaclientvideo{000a0000}-24.o(StubCode)
    CVideoPlayerUtility::PauseL()            0x00010dd0   ARM Code       0  mediaclientvideo{000a0000}-25.o(StubCode)
    CVideoPlayerUtility::Prepare()           0x00010dd8   ARM Code       0  mediaclientvideo{000a0000}-26.o(StubCode)
    CVideoPlayerUtility::OpenUrlL(const TDesC16&, int, const TDesC8&, TUid) 0x00010de0   ARM Code       0  mediaclientvideo{000a0000}-28.o(StubCode)
    CVideoPlayerUtility::SetVolumeL(int)     0x00010de8   ARM Code       0  mediaclientvideo{000a0000}-3.o(StubCode)
    CVideoPlayerUtility::OpenFileL(const TDesC16&, TUid) 0x00010df0   ARM Code       0  mediaclientvideo{000a0000}-30.o(StubCode)
    CVideoPlayerUtility::SetPositionL(const TTimeIntervalMicroSeconds&) 0x00010df8   ARM Code       0  mediaclientvideo{000a0000}-5.o(StubCode)
    CVideoPlayerUtility::AudioEnabledL() const 0x00010e00   ARM Code       0  mediaclientvideo{000a0000}-61.o(StubCode)
    CVideoPlayerUtility::MetaDataEntryL(int) const 0x00010e08   ARM Code       0  mediaclientvideo{000a0000}-64.o(StubCode)
    CVideoPlayerUtility::VideoFrameSizeL(TSize&) const 0x00010e10   ARM Code       0  mediaclientvideo{000a0000}-67.o(StubCode)
    CVideoPlayerUtility::NumberOfMetaDataEntriesL() const 0x00010e18   ARM Code       0  mediaclientvideo{000a0000}-69.o(StubCode)
    CVideoPlayerUtility::DurationL() const   0x00010e20   ARM Code       0  mediaclientvideo{000a0000}-72.o(StubCode)
    CVideoPlayerUtility::MaxVolume() const   0x00010e28   ARM Code       0  mediaclientvideo{000a0000}-73.o(StubCode)
    CVideoPlayerUtility::PositionL() const   0x00010e30   ARM Code       0  mediaclientvideo{000a0000}-74.o(StubCode)
    CMdaAudioRecorderUtility::GetSupportedDestinationDataTypesL(RArray<TFourCC>&) 0x00010e38   ARM Code       0  mediaclientaudio{000a0000}-102.o(StubCode)
    CMdaAudioRecorderUtility::NewL(MMdaObjectStateChangeObserver&, CMdaServer*, int, TMdaPriorityPreference) 0x00010e40   ARM Code       0  mediaclientaudio{000a0000}-112.o(StubCode)
    CMdaAudioPlayerUtility::GetPosition(TTimeIntervalMicroSeconds&) 0x00010e48   ARM Code       0  mediaclientaudio{000a0000}-14.o(StubCode)
    CMdaAudioPlayerUtility::SetPosition(const TTimeIntervalMicroSeconds&) 0x00010e50   ARM Code       0  mediaclientaudio{000a0000}-15.o(StubCode)
    CMdaAudioPlayerUtility::GetMetaDataEntryL(int) 0x00010e58   ARM Code       0  mediaclientaudio{000a0000}-24.o(StubCode)
    CMdaAudioPlayerUtility::GetAudioLoadingProgressL(int&) 0x00010e60   ARM Code       0  mediaclientaudio{000a0000}-29.o(StubCode)
    CMdaAudioPlayerUtility::GetNumberOfMetaDataEntries(int&) 0x00010e68   ARM Code       0  mediaclientaudio{000a0000}-30.o(StubCode)
    CMdaAudioPlayerUtility::RegisterForAudioLoadingNotification(MAudioLoadingObserver&) 0x00010e70   ARM Code       0  mediaclientaudio{000a0000}-32.o(StubCode)
    CMdaAudioPlayerUtility::NewL(MMdaAudioPlayerCallback&, int, TMdaPriorityPreference) 0x00010e78   ARM Code       0  mediaclientaudio{000a0000}-35.o(StubCode)
    CMdaAudioPlayerUtility::Close()          0x00010e80   ARM Code       0  mediaclientaudio{000a0000}-36.o(StubCode)
    CMdaAudioPlayerUtility::Pause()          0x00010e88   ARM Code       0  mediaclientaudio{000a0000}-37.o(StubCode)
    CMdaAudioPlayerUtility::OpenFileL(const TDesC16&) 0x00010e90   ARM Code       0  mediaclientaudio{000a0000}-42.o(StubCode)
    CMdaAudioRecorderUtility::DestinationBitRateL() 0x00010e98   ARM Code       0  mediaclientaudio{000a0000}-81.o(StubCode)
    CMdaAudioRecorderUtility::GetSupportedBitRatesL(RArray<unsigned>&) 0x00010ea0   ARM Code       0  mediaclientaudio{000a0000}-85.o(StubCode)
    CMdaAudioRecorderUtility::DestinationSampleRateL() 0x00010ea8   ARM Code       0  mediaclientaudio{000a0000}-88.o(StubCode)
    CMdaAudioRecorderUtility::SetDestinationBitRateL(unsigned) 0x00010eb0   ARM Code       0  mediaclientaudio{000a0000}-89.o(StubCode)
    CMdaAudioRecorderUtility::SetDestinationDataTypeL(TFourCC) 0x00010eb8   ARM Code       0  mediaclientaudio{000a0000}-90.o(StubCode)
    CMdaAudioRecorderUtility::GetSupportedSampleRatesL(RArray<unsigned>&) 0x00010ec0   ARM Code       0  mediaclientaudio{000a0000}-92.o(StubCode)
    CMdaAudioRecorderUtility::SetDestinationSampleRateL(unsigned) 0x00010ec8   ARM Code       0  mediaclientaudio{000a0000}-93.o(StubCode)
    CMdaAudioRecorderUtility::DestinationNumberOfChannelsL() 0x00010ed0   ARM Code       0  mediaclientaudio{000a0000}-95.o(StubCode)
    CMdaAudioRecorderUtility::GetSupportedNumberOfChannelsL(RArray<unsigned>&) 0x00010ed8   ARM Code       0  mediaclientaudio{000a0000}-96.o(StubCode)
    CMdaAudioRecorderUtility::SetDestinationNumberOfChannelsL(unsigned) 0x00010ee0   ARM Code       0  mediaclientaudio{000a0000}-99.o(StubCode)
    CFbsBitmap::SizeInPixels() const         0x00010ee8   ARM Code       0  fbscli{000a0000}-117.o(StubCode)
    TMMFMessageDestination::TMMFMessageDestination(TUid) 0x00010ef0   ARM Code       0  mmfcontrollerframework{000a0000}-100.o(StubCode)
    TMMFMessageDestination::TMMFMessageDestination(const TMMFMessageDestination&) 0x00010ef8   ARM Code       0  mmfcontrollerframework{000a0000}-102.o(StubCode)
    CMMFFormatSelectionParameters::NewL()    0x00010f00   ARM Code       0  mmfcontrollerframework{000a0000}-120.o(StubCode)
    CMMFFormatSelectionParameters::NewLC()   0x00010f08   ARM Code       0  mmfcontrollerframework{000a0000}-121.o(StubCode)
    CMMFPluginSelectionParameters::SetMediaIdsL(const RArray<TUid>&, CMMFPluginSelectionParameters::TMediaIdMatchType) 0x00010f10   ARM Code       0  mmfcontrollerframework{000a0000}-122.o(StubCode)
    CMMFControllerPluginSelectionParameters::SetRequiredPlayFormatSupportL(const CMMFFormatSelectionParameters&) 0x00010f18   ARM Code       0  mmfcontrollerframework{000a0000}-126.o(StubCode)
    CMMFControllerPluginSelectionParameters::SetRequiredRecordFormatSupportL(const CMMFFormatSelectionParameters&) 0x00010f20   ARM Code       0  mmfcontrollerframework{000a0000}-127.o(StubCode)
    CMMFControllerPluginSelectionParameters::NewL() 0x00010f28   ARM Code       0  mmfcontrollerframework{000a0000}-128.o(StubCode)
    CMMFControllerPluginSelectionParameters::NewLC() 0x00010f30   ARM Code       0  mmfcontrollerframework{000a0000}-129.o(StubCode)
    CMMFMetaDataEntry::Name() const          0x00010f38   ARM Code       0  mmfcontrollerframework{000a0000}-150.o(StubCode)
    CMMFMetaDataEntry::Value() const         0x00010f40   ARM Code       0  mmfcontrollerframework{000a0000}-151.o(StubCode)
    CMMFFormatImplementationInformation::SupportedMimeTypes() const 0x00010f48   ARM Code       0  mmfcontrollerframework{000a0000}-167.o(StubCode)
    CMMFFormatImplementationInformation::SupportedFileExtensions() const 0x00010f50   ARM Code       0  mmfcontrollerframework{000a0000}-171.o(StubCode)
    CMMFPluginImplementationInformation::DisplayName() const 0x00010f58   ARM Code       0  mmfcontrollerframework{000a0000}-173.o(StubCode)
    CMMFPluginImplementationInformation::Uid() const 0x00010f60   ARM Code       0  mmfcontrollerframework{000a0000}-177.o(StubCode)
    CMMFControllerImplementationInformation::PlayFormats() const 0x00010f68   ARM Code       0  mmfcontrollerframework{000a0000}-180.o(StubCode)
    CMMFControllerImplementationInformation::RecordFormats() const 0x00010f70   ARM Code       0  mmfcontrollerframework{000a0000}-181.o(StubCode)
    RFile::Close()                           0x00010f78   ARM Code       0  efsrv{000a0000}-300.o(StubCode)
    RFs::Connect(int)                        0x00010f80   ARM Code       0  efsrv{000a0000}-68.o(StubCode)
    RFile::Open(RFs&, const TDesC16&, unsigned) 0x00010f88   ARM Code       0  efsrv{000a0000}-93.o(StubCode)
    RApaLsSession::Connect()                 0x00010f90   ARM Code       0  apgrfx{000a0000}-25.o(StubCode)
    RApaLsSession::RApaLsSession()           0x00010f98   ARM Code       0  apgrfx{000a0000}-28.o(StubCode)
    RApaLsSession::RecognizeData(const RFile&, TDataRecognitionResult&) const 0x00010fa0   ARM Code       0  apgrfx{000a0000}-314.o(StubCode)
    RApaLsSession::Close()                   0x00010fa8   ARM Code       0  apgrfx{000a0000}-323.o(StubCode)
    TDataType::TDataType()                   0x00010fb0   ARM Code       0  apmime{000a0000}-61.o(StubCode)
    TDataType::Des() const                   0x00010fb8   ARM Code       0  apmime{000a0000}-77.o(StubCode)
    CDesC8ArrayFlat::CDesC8ArrayFlat(int)    0x00010fc0   ARM Code       0  bafl{000a0000}-103.o(StubCode)
    CDesC8Array::AppendL(const TDesC8&)      0x00010fc8   ARM Code       0  bafl{000a0000}-18.o(StubCode)
    BaflUtils::DeleteFile(RFs&, const TDesC16&, unsigned) 0x00010fd0   ARM Code       0  bafl{000a0000}-256.o(StubCode)
    BaflUtils::FileExists(const RFs&, const TDesC16&) 0x00010fd8   ARM Code       0  bafl{000a0000}-257.o(StubCode)
    BaflUtils::EnsurePathExistsL(RFs&, const TDesC16&) 0x00010fe0   ARM Code       0  bafl{000a0000}-272.o(StubCode)
    CRadioPlayerUtility::Mute(int)           0x00010fe8   ARM Code       0  Radio_Utility{000a0001}-43.o(StubCode)
    CRadioPlayerUtility::Play()              0x00010ff0   ARM Code       0  Radio_Utility{000a0001}-44.o(StubCode)
    CRadioPlayerUtility::Stop()              0x00010ff8   ARM Code       0  Radio_Utility{000a0001}-45.o(StubCode)
    CRadioPlayerUtility::Close()             0x00011000   ARM Code       0  Radio_Utility{000a0001}-46.o(StubCode)
    CRadioPlayerUtility::SetVolume(int)      0x00011008   ARM Code       0  Radio_Utility{000a0001}-48.o(StubCode)
    CRadioFmTunerUtility::StationSeek(int)   0x00011010   ARM Code       0  Radio_Utility{000a0001}-53.o(StubCode)
    CRadioFmTunerUtility::SetFrequency(int)  0x00011018   ARM Code       0  Radio_Utility{000a0001}-54.o(StubCode)
    CRadioFmTunerUtility::CancelStationSeek() 0x00011020   ARM Code       0  Radio_Utility{000a0001}-56.o(StubCode)
    CRadioFmTunerUtility::ForceMonoReception(int) 0x00011028   ARM Code       0  Radio_Utility{000a0001}-59.o(StubCode)
    CRadioUtility::RadioPlayerUtilityL(MRadioPlayerObserver&) 0x00011030   ARM Code       0  Radio_Utility{000a0001}-6.o(StubCode)
    CRadioFmTunerUtility::RequestTunerControl() 0x00011038   ARM Code       0  Radio_Utility{000a0001}-60.o(StubCode)
    CRadioFmTunerUtility::EnableTunerInOfflineMode(int) 0x00011040   ARM Code       0  Radio_Utility{000a0001}-62.o(StubCode)
    CRadioFmTunerUtility::Close()            0x00011048   ARM Code       0  Radio_Utility{000a0001}-63.o(StubCode)
    CRadioUtility::RadioFmTunerUtilityL(MRadioFmTunerObserver&) 0x00011050   ARM Code       0  Radio_Utility{000a0001}-7.o(StubCode)
    CRadioPlayerUtility::GetMaxVolume(int&) const 0x00011058   ARM Code       0  Radio_Utility{000a0001}-72.o(StubCode)
    CRadioFmTunerUtility::GetFrequencyRange(TFmRadioFrequencyRange&, int&, int&) const 0x00011060   ARM Code       0  Radio_Utility{000a0001}-77.o(StubCode)
    CRadioFmTunerUtility::GetSignalStrength(int&) const 0x00011068   ARM Code       0  Radio_Utility{000a0001}-78.o(StubCode)
    CRadioFmTunerUtility::GetMaxSignalStrength(int&) const 0x00011070   ARM Code       0  Radio_Utility{000a0001}-79.o(StubCode)
    CRadioUtility::NewL(int)                 0x00011078   ARM Code       0  Radio_Utility{000a0001}-8.o(StubCode)
    operator delete (void*)                  0x00011080   ARM Code       0  libstdcpp{00010000}-988.o(StubCode)
    operator new(unsigned)                   0x00011088   ARM Code       0  libstdcpp{00010000}-992.o(StubCode)
    QWidget::mapToGlobal(const QPoint&) const 0x00011090   ARM Code       0  QtGui{00040703}-10072.o(StubCode)
    QWidget::paintEngine() const             0x00011098   ARM Code       0  QtGui{00040703}-10076.o(StubCode)
    QWidget::effectiveWinId() const          0x000110a0   ARM Code       0  QtGui{00040703}-10094.o(StubCode)
    QWidget::heightForWidth(int) const       0x000110a8   ARM Code       0  QtGui{00040703}-10098.o(StubCode)
    QWidget::minimumSizeHint() const         0x000110b0   ARM Code       0  QtGui{00040703}-10106.o(StubCode)
    QWidget::inputMethodQuery(Qt::InputMethodQuery) const 0x000110b8   ARM Code       0  QtGui{00040703}-10108.o(StubCode)
    QWidget::pos() const                     0x000110c0   ARM Code       0  QtGui{00040703}-10120.o(StubCode)
    QWidget::winId() const                   0x000110c8   ARM Code       0  QtGui{00040703}-10124.o(StubCode)
    QWidget::metric(QPaintDevice::PaintDeviceMetric) const 0x000110d0   ARM Code       0  QtGui{00040703}-10129.o(StubCode)
    QWidget::devType() const                 0x000110d8   ARM Code       0  QtGui{00040703}-10133.o(StubCode)
    QWidget::sizeHint() const                0x000110e0   ARM Code       0  QtGui{00040703}-10139.o(StubCode)
    thunk{-8} to QWidget::paintEngine() const 0x000110e8   ARM Code       0  QtGui{00040703}-11460.o(StubCode)
    thunk{-8} to QWidget::metric(QPaintDevice::PaintDeviceMetric) const 0x000110f0   ARM Code       0  QtGui{00040703}-11461.o(StubCode)
    thunk{-8} to QWidget::devType() const    0x000110f8   ARM Code       0  QtGui{00040703}-11462.o(StubCode)
    QApplication::allWidgets()               0x00011100   ARM Code       0  QtGui{00040703}-1493.o(StubCode)
    QApplication::activeWindow()             0x00011108   ARM Code       0  QtGui{00040703}-1503.o(StubCode)
    QApplication::desktop()                  0x00011110   ARM Code       0  QtGui{00040703}-1574.o(StubCode)
    QWidgetPrivate::createExtra()            0x00011118   ARM Code       0  QtGui{00040703}-3062.o(StubCode)
    qt_widget_private(QWidget*)              0x00011120   ARM Code       0  QtGui{00040703}-34.o(StubCode)
    QPixmap::fromSymbianCFbsBitmap(CFbsBitmap*) 0x00011128   ARM Code       0  QtGui{00040703}-6033.o(StubCode)
    QPixmap::QPixmap()                       0x00011130   ARM Code       0  QtGui{00040703}-6052.o(StubCode)
    QPixmap::~QPixmap()                      0x00011138   ARM Code       0  QtGui{00040703}-6063.o(StubCode)
    QPixmap::operator =(const QPixmap&)      0x00011140   ARM Code       0  QtGui{00040703}-6065.o(StubCode)
    QWidget::closeEvent(QCloseEvent*)        0x00011148   ARM Code       0  QtGui{00040703}-6166.o(StubCode)
    QWidget::enterEvent(QEvent*)             0x00011150   ARM Code       0  QtGui{00040703}-6167.o(StubCode)
    QWidget::fontChange(const QFont&)        0x00011158   ARM Code       0  QtGui{00040703}-6168.o(StubCode)
    QWidget::leaveEvent(QEvent*)             0x00011160   ARM Code       0  QtGui{00040703}-6169.o(StubCode)
    QWidget::setPalette(const QPalette&)     0x00011168   ARM Code       0  QtGui{00040703}-6172.o(StubCode)
    QWidget::setVisible(bool)                0x00011170   ARM Code       0  QtGui{00040703}-6174.o(StubCode)
    QWidget::wheelEvent(QWheelEvent*)        0x00011178   ARM Code       0  QtGui{00040703}-6178.o(StubCode)
    QWidget::actionEvent(QActionEvent*)      0x00011180   ARM Code       0  QtGui{00040703}-6179.o(StubCode)
    QWidget::changeEvent(QEvent*)            0x00011188   ARM Code       0  QtGui{00040703}-6180.o(StubCode)
    QWidget::qt_metacall(QMetaObject::Call, int, void**) 0x00011190   ARM Code       0  QtGui{00040703}-6183.o(StubCode)
    QWidget::qt_metacast(const char*)        0x00011198   ARM Code       0  QtGui{00040703}-6184.o(StubCode)
    QWidget::resizeEvent(QResizeEvent*)      0x000111a0   ARM Code       0  QtGui{00040703}-6185.o(StubCode)
    QWidget::styleChange(QStyle&)            0x000111a8   ARM Code       0  QtGui{00040703}-6190.o(StubCode)
    QWidget::tabletEvent(QTabletEvent*)      0x000111b0   ARM Code       0  QtGui{00040703}-6191.o(StubCode)
    QWidget::focusInEvent(QFocusEvent*)      0x000111b8   ARM Code       0  QtGui{00040703}-6194.o(StubCode)
    QWidget::setAttribute(Qt::WidgetAttribute, bool) 0x000111c0   ARM Code       0  QtGui{00040703}-6202.o(StubCode)
    QWidget::dragMoveEvent(QDragMoveEvent*)  0x000111c8   ARM Code       0  QtGui{00040703}-6208.o(StubCode)
    QWidget::enabledChange(bool)             0x000111d0   ARM Code       0  QtGui{00040703}-6209.o(StubCode)
    QWidget::focusOutEvent(QFocusEvent*)     0x000111d8   ARM Code       0  QtGui{00040703}-6210.o(StubCode)
    QWidget::keyPressEvent(QKeyEvent*)       0x000111e0   ARM Code       0  QtGui{00040703}-6212.o(StubCode)
    QWidget::paletteChange(const QPalette&)  0x000111e8   ARM Code       0  QtGui{00040703}-6213.o(StubCode)
    QWidget::setSizePolicy(QSizePolicy)      0x000111f0   ARM Code       0  QtGui{00040703}-6216.o(StubCode)
    QWidget::showMaximized()                 0x000111f8   ARM Code       0  QtGui{00040703}-6220.o(StubCode)
    QWidget::activateWindow()                0x00011200   ARM Code       0  QtGui{00040703}-6222.o(StubCode)
    QWidget::dragEnterEvent(QDragEnterEvent*) 0x00011208   ARM Code       0  QtGui{00040703}-6223.o(StubCode)
    QWidget::dragLeaveEvent(QDragLeaveEvent*) 0x00011210   ARM Code       0  QtGui{00040703}-6224.o(StubCode)
    QWidget::languageChange()                0x00011218   ARM Code       0  QtGui{00040703}-6225.o(StubCode)
    QWidget::mouseMoveEvent(QMouseEvent*)    0x00011220   ARM Code       0  QtGui{00040703}-6226.o(StubCode)
    QWidget::showFullScreen()                0x00011228   ARM Code       0  QtGui{00040703}-6235.o(StubCode)
    QWidget::keyReleaseEvent(QKeyEvent*)     0x00011230   ARM Code       0  QtGui{00040703}-6237.o(StubCode)
    QWidget::mousePressEvent(QMouseEvent*)   0x00011238   ARM Code       0  QtGui{00040703}-6239.o(StubCode)
    QWidget::contextMenuEvent(QContextMenuEvent*) 0x00011240   ARM Code       0  QtGui{00040703}-6246.o(StubCode)
    QWidget::inputMethodEvent(QInputMethodEvent*) 0x00011248   ARM Code       0  QtGui{00040703}-6247.o(StubCode)
    QWidget::mouseReleaseEvent(QMouseEvent*) 0x00011250   ARM Code       0  QtGui{00040703}-6255.o(StubCode)
    QWidget::focusNextPrevChild(bool)        0x00011258   ARM Code       0  QtGui{00040703}-6265.o(StubCode)
    QWidget::mouseDoubleClickEvent(QMouseEvent*) 0x00011260   ARM Code       0  QtGui{00040703}-6276.o(StubCode)
    QWidget::setAutoFillBackground(bool)     0x00011268   ARM Code       0  QtGui{00040703}-6277.o(StubCode)
    QWidget::windowActivationChange(bool)    0x00011270   ARM Code       0  QtGui{00040703}-6279.o(StubCode)
    QWidget::event(QEvent*)                  0x00011278   ARM Code       0  QtGui{00040703}-6284.o(StubCode)
    QWidget::update()                        0x00011280   ARM Code       0  QtGui{00040703}-6295.o(StubCode)
    QWidget::dropEvent(QDropEvent*)          0x00011288   ARM Code       0  QtGui{00040703}-6308.o(StubCode)
    QWidget::hideEvent(QHideEvent*)          0x00011290   ARM Code       0  QtGui{00040703}-6311.o(StubCode)
    QWidget::moveEvent(QMoveEvent*)          0x00011298   ARM Code       0  QtGui{00040703}-6312.o(StubCode)
    QWidget::showEvent(QShowEvent*)          0x000112a0   ARM Code       0  QtGui{00040703}-6318.o(StubCode)
    QWidget::QWidget(QWidget*, QFlags<Qt::WindowType>) 0x000112a8   ARM Code       0  QtGui{00040703}-6319.o(StubCode)
    QWidget::~QWidget()                      0x000112b0   ARM Code       0  QtGui{00040703}-6324.o(StubCode)
    QPainter::drawPixmap(const QPointF&, const QPixmap&) 0x000112b8   ARM Code       0  QtGui{00040703}-6456.o(StubCode)
    QPainter::QPainter(QPaintDevice*)        0x000112c0   ARM Code       0  QtGui{00040703}-6545.o(StubCode)
    QPainter::~QPainter()                    0x000112c8   ARM Code       0  QtGui{00040703}-6549.o(StubCode)
    QPalette::QPalette(Qt::GlobalColor)      0x000112d0   ARM Code       0  QtGui{00040703}-6559.o(StubCode)
    QPalette::~QPalette()                    0x000112d8   ARM Code       0  QtGui{00040703}-6573.o(StubCode)
    QDesktopWidget::screenGeometry(int) const 0x000112e0   ARM Code       0  QtGui{00040703}-8694.o(StubCode)
    QPixmap::size() const                    0x000112e8   ARM Code       0  QtGui{00040703}-9987.o(StubCode)
    QDir::toNativeSeparators(const QString&) 0x000112f0   ARM Code       0  QtCore{00040703}-1453.o(StubCode)
    QDir::rootPath()                         0x000112f8   ARM Code       0  QtCore{00040703}-1466.o(StubCode)
    QDir::QDir(const QString&)               0x00011300   ARM Code       0  QtCore{00040703}-1471.o(StubCode)
    QDir::~QDir()                            0x00011308   ARM Code       0  QtCore{00040703}-1477.o(StubCode)
    QByteArray::realloc(int)                 0x00011310   ARM Code       0  QtCore{00040703}-150.o(StubCode)
    QUrl::setUrl(const QString&)             0x00011318   ARM Code       0  QtCore{00040703}-1516.o(StubCode)
    QUrl::QUrl(const QString&)               0x00011320   ARM Code       0  QtCore{00040703}-1523.o(StubCode)
    QUrl::QUrl(const QUrl&)                  0x00011328   ARM Code       0  QtCore{00040703}-1525.o(StubCode)
    QUrl::QUrl()                             0x00011330   ARM Code       0  QtCore{00040703}-1526.o(StubCode)
    QUrl::~QUrl()                            0x00011338   ARM Code       0  QtCore{00040703}-1531.o(StubCode)
    QUrl::operator =(const QUrl&)            0x00011340   ARM Code       0  QtCore{00040703}-1534.o(StubCode)
    QChar::QChar(char)                       0x00011348   ARM Code       0  QtCore{00040703}-1560.o(StubCode)
    QSize::scale(const QSize&, Qt::AspectRatioMode) 0x00011350   ARM Code       0  QtCore{00040703}-1634.o(StubCode)
    QTimer::stop()                           0x00011358   ARM Code       0  QtCore{00040703}-1713.o(StubCode)
    QTimer::start(int)                       0x00011360   ARM Code       0  QtCore{00040703}-1714.o(StubCode)
    QTimer::QTimer(QObject*)                 0x00011368   ARM Code       0  QtCore{00040703}-1717.o(StubCode)
    QObject::childEvent(QChildEvent*)        0x00011370   ARM Code       0  QtCore{00040703}-1760.o(StubCode)
    QObject::disconnect(const QObject*, const char*, const QObject*, const char*) 0x00011378   ARM Code       0  QtCore{00040703}-1761.o(StubCode)
    QObject::timerEvent(QTimerEvent*)        0x00011380   ARM Code       0  QtCore{00040703}-1763.o(StubCode)
    QObject::customEvent(QEvent*)            0x00011388   ARM Code       0  QtCore{00040703}-1764.o(StubCode)
    QObject::eventFilter(QObject*, QEvent*)  0x00011390   ARM Code       0  QtCore{00040703}-1766.o(StubCode)
    QObject::qt_metacall(QMetaObject::Call, int, void**) 0x00011398   ARM Code       0  QtCore{00040703}-1767.o(StubCode)
    QObject::qt_metacast(const char*)        0x000113a0   ARM Code       0  QtCore{00040703}-1768.o(StubCode)
    QObject::setProperty(const char*, const QVariant&) 0x000113a8   ARM Code       0  QtCore{00040703}-1769.o(StubCode)
    QObject::connectNotify(const char*)      0x000113b0   ARM Code       0  QtCore{00040703}-1773.o(StubCode)
    QObject::disconnectNotify(const char*)   0x000113b8   ARM Code       0  QtCore{00040703}-1777.o(StubCode)
    QObject::installEventFilter(QObject*)    0x000113c0   ARM Code       0  QtCore{00040703}-1781.o(StubCode)
    QObject::event(QEvent*)                  0x000113c8   ARM Code       0  QtCore{00040703}-1784.o(StubCode)
    QObject::connect(const QObject*, const char*, const QObject*, const char*, Qt::ConnectionType) 0x000113d0   ARM Code       0  QtCore{00040703}-1785.o(StubCode)
    QObject::QObject(QObject*)               0x000113d8   ARM Code       0  QtCore{00040703}-1789.o(StubCode)
    QObject::~QObject()                      0x000113e0   ARM Code       0  QtCore{00040703}-1794.o(StubCode)
    QString::fromAscii_helper(const char*, int) 0x000113e8   ARM Code       0  QtCore{00040703}-1825.o(StubCode)
    QString::fromLatin1_helper(const char*, int) 0x000113f0   ARM Code       0  QtCore{00040703}-1826.o(StubCode)
    QString::chop(int)                       0x000113f8   ARM Code       0  QtCore{00040703}-1828.o(StubCode)
    QString::free(QString::Data*)            0x00011400   ARM Code       0  QtCore{00040703}-1830.o(StubCode)
    QString::append(const QString&)          0x00011408   ARM Code       0  QtCore{00040703}-1836.o(StubCode)
    QString::number(int, int)                0x00011410   ARM Code       0  QtCore{00040703}-1842.o(StubCode)
    QString::fromUtf8(const char*, int)      0x00011418   ARM Code       0  QtCore{00040703}-1871.o(StubCode)
    QString::fromAscii(const char*, int)     0x00011420   ARM Code       0  QtCore{00040703}-1874.o(StubCode)
    QString::fromUtf16(const unsigned short*, int) 0x00011428   ARM Code       0  QtCore{00040703}-1875.o(StubCode)
    QString::operator =(const QString&)      0x00011430   ARM Code       0  QtCore{00040703}-1885.o(StubCode)
    QMapData::node_delete(QMapData::Node**, int, QMapData::Node*) 0x00011438   ARM Code       0  QtCore{00040703}-1947.o(StubCode)
    QMapData::continueFreeData(int)          0x00011440   ARM Code       0  QtCore{00040703}-1949.o(StubCode)
    QVariant::QVariant(Qt::GlobalColor)      0x00011448   ARM Code       0  QtCore{00040703}-2010.o(StubCode)
    QVariant::QVariant(const QString&)       0x00011450   ARM Code       0  QtCore{00040703}-2034.o(StubCode)
    QVariant::QVariant(const QVariant&)      0x00011458   ARM Code       0  QtCore{00040703}-2037.o(StubCode)
    QVariant::QVariant(bool)                 0x00011460   ARM Code       0  QtCore{00040703}-2038.o(StubCode)
    QVariant::QVariant(int)                  0x00011468   ARM Code       0  QtCore{00040703}-2040.o(StubCode)
    QVariant::~QVariant()                    0x00011470   ARM Code       0  QtCore{00040703}-2082.o(StubCode)
    QVariant::operator =(const QVariant&)    0x00011478   ARM Code       0  QtCore{00040703}-2084.o(StubCode)
    QHashData::free_helper(void(*)(QHashData::Node*)) 0x00011480   ARM Code       0  QtCore{00040703}-2134.o(StubCode)
    QHashData::rehash(int)                   0x00011488   ARM Code       0  QtCore{00040703}-2141.o(StubCode)
    QHashData::nextNode(QHashData::Node*)    0x00011490   ARM Code       0  QtCore{00040703}-2143.o(StubCode)
    QListData::append()                      0x00011498   ARM Code       0  QtCore{00040703}-2188.o(StubCode)
    QListData::append2(const QListData&)     0x000114a0   ARM Code       0  QtCore{00040703}-2193.o(StubCode)
    QListData::realloc(int)                  0x000114a8   ARM Code       0  QtCore{00040703}-2197.o(StubCode)
    QtPrivate::QStringList_filter(const QStringList*, const QString&, Qt::CaseSensitivity) 0x000114b0   ARM Code       0  QtCore{00040703}-2318.o(StubCode)
    QtPrivate::QStringList_contains(const QStringList*, const QString&, Qt::CaseSensitivity) 0x000114b8   ARM Code       0  QtCore{00040703}-2321.o(StubCode)
    QMetaObject::tr(const char*, const char*) const 0x000114c0   ARM Code       0  QtCore{00040703}-2416.o(StubCode)
    QMetaObject::cast(QObject*) const        0x000114c8   ARM Code       0  QtCore{00040703}-2418.o(StubCode)
    QMetaObject::changeGuard(QObject**, QObject*) 0x000114d0   ARM Code       0  QtCore{00040703}-274.o(StubCode)
    QMetaObject::removeGuard(QObject**)      0x000114d8   ARM Code       0  QtCore{00040703}-275.o(StubCode)
    QMetaObject::invokeMethod(QObject*, const char*, Qt::ConnectionType, QGenericReturnArgument, QGenericArgument, QGenericArgument, QGenericArgument, QGenericArgument, QGenericArgument, QGenericArgument, QGenericArgument, QGenericArgument, QGenericArgument, QGenericArgument) 0x000114e0   ARM Code       0  QtCore{00040703}-276.o(StubCode)
    QDir::canonicalPath() const              0x000114e8   ARM Code       0  QtCore{00040703}-2792.o(StubCode)
    QDir::exists(const QString&) const       0x000114f0   ARM Code       0  QtCore{00040703}-2801.o(StubCode)
    QDir::entryList(const QStringList&, QFlags<QDir::Filter>, QFlags<QDir::SortFlag>) const 0x000114f8   ARM Code       0  QtCore{00040703}-2812.o(StubCode)
    QMetaObject::activate(QObject*, const QMetaObject*, int, void**) 0x00011500   ARM Code       0  QtCore{00040703}-282.o(StubCode)
    QUrl::toLocalFile() const                0x00011508   ARM Code       0  QtCore{00040703}-2823.o(StubCode)
    QUrl::scheme() const                     0x00011510   ARM Code       0  QtCore{00040703}-2841.o(StubCode)
    QUrl::isEmpty() const                    0x00011518   ARM Code       0  QtCore{00040703}-2842.o(StubCode)
    QUrl::toString(QFlags<QUrl::FormattingOption>) const 0x00011520   ARM Code       0  QtCore{00040703}-2848.o(StubCode)
    QRect::operator &(const QRect&) const    0x00011528   ARM Code       0  QtCore{00040703}-2911.o(StubCode)
    QString::lastIndexOf(QChar, int, Qt::CaseSensitivity) const 0x00011530   ARM Code       0  QtCore{00040703}-3035.o(StubCode)
    QString::toLocal8Bit() const             0x00011538   ARM Code       0  QtCore{00040703}-3040.o(StubCode)
    QString::arg(long long, int, int, const QChar&) const 0x00011540   ARM Code       0  QtCore{00040703}-3052.o(StubCode)
    QString::mid(int, int) const             0x00011548   ARM Code       0  QtCore{00040703}-3054.o(StubCode)
    QString::toInt(bool*, int) const         0x00011550   ARM Code       0  QtCore{00040703}-3063.o(StubCode)
    QString::utf16() const                   0x00011558   ARM Code       0  QtCore{00040703}-3064.o(StubCode)
    QString::compare(const QString&) const   0x00011560   ARM Code       0  QtCore{00040703}-3071.o(StubCode)
    QString::compare(const QString&, Qt::CaseSensitivity) const 0x00011568   ARM Code       0  QtCore{00040703}-3072.o(StubCode)
    QString::operator ==(const QLatin1String&) const 0x00011570   ARM Code       0  QtCore{00040703}-3097.o(StubCode)
    QString::operator ==(const QString&) const 0x00011578   ARM Code       0  QtCore{00040703}-3098.o(StubCode)
    QString::operator <(const QString&) const 0x00011580   ARM Code       0  QtCore{00040703}-3101.o(StubCode)
    QTextStream::QTextStream(QString*, QFlags<QIODevice::OpenModeFlag>) 0x00011588   ARM Code       0  QtCore{00040703}-312.o(StubCode)
    QVariant::toInt(bool*) const             0x00011590   ARM Code       0  QtCore{00040703}-3139.o(StubCode)
    QVariant::isNull() const                 0x00011598   ARM Code       0  QtCore{00040703}-3142.o(StubCode)
    qt_message_output(QtMsgType, const char*) 0x000115a0   ARM Code       0  QtCore{00040703}-32.o(StubCode)
    QTextStream::~QTextStream()              0x000115a8   ARM Code       0  QtCore{00040703}-324.o(StubCode)
    QTextStream::operator <<(const QString&) 0x000115b0   ARM Code       0  QtCore{00040703}-331.o(StubCode)
    QTextStream::operator <<(char)           0x000115b8   ARM Code       0  QtCore{00040703}-332.o(StubCode)
    QVectorData::free(QVectorData*, int)     0x000115c0   ARM Code       0  QtCore{00040703}-3584.o(StubCode)
    QMapData::createData(int)                0x000115c8   ARM Code       0  QtCore{00040703}-3607.o(StubCode)
    QMapData::node_create(QMapData::Node**, int, int) 0x000115d0   ARM Code       0  QtCore{00040703}-3608.o(StubCode)
    QHashData::allocateNode(int)             0x000115d8   ARM Code       0  QtCore{00040703}-3609.o(StubCode)
    QHashData::detach_helper2(void(*)(QHashData::Node*, void*), void(*)(QHashData::Node*), int, int) 0x000115e0   ARM Code       0  QtCore{00040703}-3610.o(StubCode)
    QListData::detach_grow(int*, int)        0x000115e8   ARM Code       0  QtCore{00040703}-3689.o(StubCode)
    QListData::detach(int)                   0x000115f0   ARM Code       0  QtCore{00040703}-3691.o(StubCode)
    qt_symbian_throwIfError(int)             0x000115f8   ARM Code       0  QtCore{00040703}-46.o(StubCode)
    qFree(void*)                             0x00011600   ARM Code       0  QtCore{00040703}-70.o(StubCode)
    qHash(const QString&)                    0x00011608   ARM Code       0  QtCore{00040703}-73.o(StubCode)
    qstrcmp(const char*, const char*)        0x00011610   ARM Code       0  QtCore{00040703}-94.o(StubCode)
    strcmp                                   0x00011618   ARM Code       0  libc{00010000}-350.o(StubCode)
    TPtrC16::TPtrC16(const unsigned short*)  0x00011620   ARM Code       0  euser{000a0000}-1169.o(StubCode)
    TPtrC16::TPtrC16(const unsigned short*, int) 0x00011628   ARM Code       0  euser{000a0000}-1170.o(StubCode)
    TPtrC16::TPtrC16(const TDesC16&)         0x00011630   ARM Code       0  euser{000a0000}-1171.o(StubCode)
    RHandleBase::Close()                     0x00011638   ARM Code       0  euser{000a0000}-120.o(StubCode)
    TBufBase8::TBufBase8(int, int)           0x00011640   ARM Code       0  euser{000a0000}-1469.o(StubCode)
    RArrayBase::At(int) const                0x00011648   ARM Code       0  euser{000a0000}-1507.o(StubCode)
    RArrayBase::Find(const void*) const      0x00011650   ARM Code       0  euser{000a0000}-1508.o(StubCode)
    RArrayBase::Count() const                0x00011658   ARM Code       0  euser{000a0000}-1510.o(StubCode)
    RPointerArrayBase::At(int) const         0x00011660   ARM Code       0  euser{000a0000}-1590.o(StubCode)
    RPointerArrayBase::Count() const         0x00011668   ARM Code       0  euser{000a0000}-1593.o(StubCode)
    TRect::Width() const                     0x00011670   ARM Code       0  euser{000a0000}-1649.o(StubCode)
    TRect::Height() const                    0x00011678   ARM Code       0  euser{000a0000}-1651.o(StubCode)
    TDesC8::Ptr() const                      0x00011680   ARM Code       0  euser{000a0000}-1719.o(StubCode)
    TDesC16::Ptr() const                     0x00011688   ARM Code       0  euser{000a0000}-1807.o(StubCode)
    TDesC16::Compare(const TDesC16&) const   0x00011690   ARM Code       0  euser{000a0000}-1822.o(StubCode)
    CleanupStack::PopAndDestroy(int)         0x00011698   ARM Code       0  euser{000a0000}-202.o(StubCode)
    CleanupStack::PopAndDestroy()            0x000116a0   ARM Code       0  euser{000a0000}-203.o(StubCode)
    User::MarkCleanupStack()                 0x000116a8   ARM Code       0  euser{000a0000}-2060.o(StubCode)
    User::UnMarkCleanupStack(TTrapHandler*)  0x000116b0   ARM Code       0  euser{000a0000}-2061.o(StubCode)
    CleanupStack::PushL(TCleanupItem)        0x000116b8   ARM Code       0  euser{000a0000}-207.o(StubCode)
    XLeaveException::GetReason() const       0x000116c0   ARM Code       0  euser{000a0000}-2082.o(StubCode)
    TDesC16::Left(int) const                 0x000116c8   ARM Code       0  euser{000a0000}-2106.o(StubCode)
    RSessionBase::DoShare(int)               0x000116d0   ARM Code       0  euser{000a0000}-214.o(StubCode)
    RArrayBase::HeapSortUnsigned()           0x000116d8   ARM Code       0  euser{000a0000}-44.o(StubCode)
    RArrayBase::Close()                      0x000116e0   ARM Code       0  euser{000a0000}-46.o(StubCode)
    RArrayBase::Reset()                      0x000116e8   ARM Code       0  euser{000a0000}-47.o(StubCode)
    RPointerArrayBase::Close()               0x000116f0   ARM Code       0  euser{000a0000}-470.o(StubCode)
    RPointerArrayBase::Reset()               0x000116f8   ARM Code       0  euser{000a0000}-471.o(StubCode)
    RArrayBase::Append(const void*)          0x00011700   ARM Code       0  euser{000a0000}-48.o(StubCode)
    RPointerArrayBase::RPointerArrayBase()   0x00011708   ARM Code       0  euser{000a0000}-481.o(StubCode)
    RArrayBase::RArrayBase(int)              0x00011710   ARM Code       0  euser{000a0000}-55.o(StubCode)
    User::LeaveIfError(int)                  0x00011718   ARM Code       0  euser{000a0000}-593.o(StubCode)
    User::AllocL(int)                        0x00011720   ARM Code       0  euser{000a0000}-651.o(StubCode)
    User::AllocZL(int)                       0x00011728   ARM Code       0  euser{000a0000}-654.o(StubCode)
    User::Invariant()                        0x00011730   ARM Code       0  euser{000a0000}-669.o(StubCode)
    User::LockedDec(int&)                    0x00011738   ARM Code       0  euser{000a0000}-670.o(StubCode)
    User::LockedInc(int&)                    0x00011740   ARM Code       0  euser{000a0000}-671.o(StubCode)
    TDes8::Copy(const unsigned char*, int)   0x00011748   ARM Code       0  euser{000a0000}-743.o(StubCode)
    TRect::Intersection(const TRect&)        0x00011750   ARM Code       0  euser{000a0000}-822.o(StubCode)
    TRect::TRect(const TPoint&, const TSize&) 0x00011758   ARM Code       0  euser{000a0000}-839.o(StubCode)
    HBufC8::Des()                            0x00011760   ARM Code       0  euser{000a0000}-891.o(StubCode)
    HBufC8::NewL(int)                        0x00011768   ARM Code       0  euser{000a0000}-893.o(StubCode)
    __aeabi_ddiv                             0x00011770   ARM Code       0  dfpaeabi{000a0000}-19.o(StubCode)
    __aeabi_dmul                             0x00011778   ARM Code       0  dfpaeabi{000a0000}-20.o(StubCode)
    __aeabi_f2d                              0x00011780   ARM Code       0  dfpaeabi{000a0000}-24.o(StubCode)
    __aeabi_f2iz                             0x00011788   ARM Code       0  dfpaeabi{000a0000}-25.o(StubCode)
    __aeabi_fdiv                             0x00011790   ARM Code       0  dfpaeabi{000a0000}-36.o(StubCode)
    __aeabi_fmul                             0x00011798   ARM Code       0  dfpaeabi{000a0000}-37.o(StubCode)
    __aeabi_cfcmpeq                          0x000117a0   ARM Code       0  dfpaeabi{000a0000}-4.o(StubCode)
    __aeabi_fsub                             0x000117a8   ARM Code       0  dfpaeabi{000a0000}-40.o(StubCode)
    __aeabi_i2d                              0x000117b0   ARM Code       0  dfpaeabi{000a0000}-41.o(StubCode)
    __aeabi_i2f                              0x000117b8   ARM Code       0  dfpaeabi{000a0000}-42.o(StubCode)
    __aeabi_cfcmple                          0x000117c0   ARM Code       0  dfpaeabi{000a0000}-5.o(StubCode)
    __aeabi_cfrcmple                         0x000117c8   ARM Code       0  dfpaeabi{000a0000}-6.o(StubCode)
    __aeabi_d2iz                             0x000117d0   ARM Code       0  dfpaeabi{000a0000}-8.o(StubCode)
    __aeabi_idivmod                          0x000117d8   ARM Code       0  drtaeabi{000a0000}-135.o(StubCode)
    __aeabi_ldivmod                          0x000117e0   ARM Code       0  drtaeabi{000a0000}-139.o(StubCode)
    __aeabi_memcpy4                          0x000117e8   ARM Code       0  drtaeabi{000a0000}-147.o(StubCode)
    __aeabi_uidivmod                         0x000117f0   ARM Code       0  drtaeabi{000a0000}-155.o(StubCode)
    __aeabi_unwind_cpp_pr0                   0x000117f8   ARM Code       0  drtaeabi{000a0000}-158.o(StubCode)
    __cxa_begin_catch                        0x00011800   ARM Code       0  drtaeabi{000a0000}-180.o(StubCode)
    __cxa_end_catch                          0x00011808   ARM Code       0  drtaeabi{000a0000}-183.o(StubCode)
    __cxa_end_cleanup                        0x00011810   ARM Code       0  drtaeabi{000a0000}-184.o(StubCode)
    __cxa_guard_abort                        0x00011818   ARM Code       0  drtaeabi{000a0000}-186.o(StubCode)
    __cxa_guard_acquire                      0x00011820   ARM Code       0  drtaeabi{000a0000}-187.o(StubCode)
    __cxa_guard_release                      0x00011828   ARM Code       0  drtaeabi{000a0000}-188.o(StubCode)
    __cxa_pure_virtual                       0x00011830   ARM Code       0  drtaeabi{000a0000}-189.o(StubCode)
    __cxa_rethrow                            0x00011838   ARM Code       0  drtaeabi{000a0000}-190.o(StubCode)
    __ARM_switch8                            0x00011840   ARM Code       0  drtrvct2_2{000a0000}-28.o(StubCode)
    __ARM_ll_cmpu                            0x00011848   ARM Code       0  drtrvct2_2{000a0000}-51.o(StubCode)
    __ARM_ll_mulls                           0x00011850   ARM Code       0  drtrvct2_2{000a0000}-56.o(StubCode)
    __ARM_ll_mullu                           0x00011858   ARM Code       0  drtrvct2_2{000a0000}-57.o(StubCode)
    qStringComparisonHelper(const QString&, const char*) 0x00011861   Thumb Code    54  qtmultimediakit_mmfengine.in(i._Z23qStringComparisonHelperRK7QStringPKc)
    qWarning()                               0x000118a9   Thumb Code    66  qtmultimediakit_mmfengine.in(i._Z8qWarningv)
    QByteArray::~QByteArray()                0x00011903   Thumb Code    24  qtmultimediakit_mmfengine.in(i._ZN10QByteArrayD1Ev)
    QByteArray::~QByteArray__sub_object()    0x00011903   Thumb Code     0  qtmultimediakit_mmfengine.in(i._ZN10QByteArrayD1Ev)
    QStringList::QStringList(const QList<QString>&) 0x0001191b   Thumb Code     8  qtmultimediakit_mmfengine.in(i._ZN11QStringListC1ERK5QListI7QStringE)
    QStringList::QStringList__sub_object(const QList<QString>&) 0x0001191b   Thumb Code     0  qtmultimediakit_mmfengine.in(i._ZN11QStringListC1ERK5QListI7QStringE)
    QStringList::QStringList(const QStringList&) 0x00011923   Thumb Code    30  qtmultimediakit_mmfengine.in(i._ZN11QStringListC1ERKS_)
    QStringList::QStringList__sub_object(const QStringList&) 0x00011923   Thumb Code     0  qtmultimediakit_mmfengine.in(i._ZN11QStringListC1ERKS_)
    QStringList::QStringList()               0x00011941   Thumb Code    16  qtmultimediakit_mmfengine.in(i._ZN11QStringListC1Ev)
    QStringList::QStringList__sub_object()   0x00011941   Thumb Code     0  qtmultimediakit_mmfengine.in(i._ZN11QStringListC1Ev)
    QStringList::~QStringList()              0x00011955   Thumb Code     8  qtmultimediakit_mmfengine.in(i._ZN11QStringListD1Ev)
    QStringList::~QStringList__sub_object()  0x00011955   Thumb Code     0  qtmultimediakit_mmfengine.in(i._ZN11QStringListD1Ev)
    QStringList::operator <<(const QString&) 0x0001195d   Thumb Code    12  qtmultimediakit_mmfengine.in(i._ZN11QStringListlsERK7QString)
    ControllerData::ControllerData(const ControllerData&) 0x00011969   Thumb Code    42  qtmultimediakit_mmfengine.in(i._ZN14ControllerDataC1ERKS_)
    ControllerData::ControllerData__sub_object(const ControllerData&) 0x00011969   Thumb Code     0  qtmultimediakit_mmfengine.in(i._ZN14ControllerDataC1ERKS_)
    ControllerData::ControllerData()         0x0001199f   Thumb Code    24  qtmultimediakit_mmfengine.in(i._ZN14ControllerDataC1Ev)
    ControllerData::ControllerData__sub_object() 0x0001199f   Thumb Code     0  qtmultimediakit_mmfengine.in(i._ZN14ControllerDataC1Ev)
    ControllerData::~ControllerData()        0x000119c3   Thumb Code    20  qtmultimediakit_mmfengine.in(i._ZN14ControllerDataD1Ev)
    ControllerData::~ControllerData__sub_object() 0x000119c3   Thumb Code     0  qtmultimediakit_mmfengine.in(i._ZN14ControllerDataD1Ev)
    QBasicAtomicInt::ref()                   0x000119e3   Thumb Code    18  qtmultimediakit_mmfengine.in(i._ZN15QBasicAtomicInt3refEv)
    QBasicAtomicInt::deref()                 0x000119f5   Thumb Code    18  qtmultimediakit_mmfengine.in(i._ZN15QBasicAtomicInt5derefEv)
    S60MediaSettings::~S60MediaSettings()    0x00011a07   Thumb Code    12  qtmultimediakit_mmfengine.in(i._ZN16S60MediaSettingsD1Ev)
    S60MediaSettings::~S60MediaSettings__sub_object() 0x00011a07   Thumb Code     0  qtmultimediakit_mmfengine.in(i._ZN16S60MediaSettingsD1Ev)
    QForeachContainer<QStringList>::~QForeachContainer() 0x00011a13   Thumb Code     8  qtmultimediakit_mmfengine.in(i._ZN17QForeachContainerI11QStringListED1Ev)
    QForeachContainer<QStringList>::~QForeachContainer__sub_object() 0x00011a13   Thumb Code     0  qtmultimediakit_mmfengine.in(i._ZN17QForeachContainerI11QStringListED1Ev)
    S60RadioTunerControl::tr(const char*, const char*) 0x00011a1d   Thumb Code    14  qtmultimediakit_mmfengine.in(i._ZN20S60RadioTunerControl2trEPKcS1_)
    S60AudioPlayerSession::doLoadUrlL(const TDesC16&) 0x00011a31   Thumb Code     2  qtmultimediakit_mmfengine.in(i._ZN21S60AudioPlayerSession10doLoadUrlLERK7TDesC16)
    S60MediaServicePlugin::S60MediaServicePlugin() 0x00011a35   Thumb Code    34  qtmultimediakit_mmfengine.in(i._ZN21S60MediaServicePluginC1Ev)
    S60MediaServicePlugin::S60MediaServicePlugin__sub_object() 0x00011a35   Thumb Code     0  qtmultimediakit_mmfengine.in(i._ZN21S60MediaServicePluginC1Ev)
    S60MediaServicePlugin::~S60MediaServicePlugin__deallocating() 0x00011a6f   Thumb Code    16  qtmultimediakit_mmfengine.in(i._ZN21S60MediaServicePluginD0Ev)
    S60MediaServicePlugin::~S60MediaServicePlugin() 0x00011a81   Thumb Code    32  qtmultimediakit_mmfengine.in(i._ZN21S60MediaServicePluginD1Ev)
    S60MediaServicePlugin::~S60MediaServicePlugin__sub_object() 0x00011a81   Thumb Code     0  qtmultimediakit_mmfengine.in(i._ZN21S60MediaServicePluginD1Ev)
    S60AudioContainerControl::~S60AudioContainerControl__deallocating() 0x00011ab7   Thumb Code    16  qtmultimediakit_mmfengine.in(i._ZN24S60AudioContainerControlD0Ev)
    S60AudioContainerControl::~S60AudioContainerControl() 0x00011ac7   Thumb Code     8  qtmultimediakit_mmfengine.in(i._ZN24S60AudioContainerControlD1Ev)
    S60AudioContainerControl::~S60AudioContainerControl__sub_object() 0x00011ac7   Thumb Code     0  qtmultimediakit_mmfengine.in(i._ZN24S60AudioContainerControlD1Ev)
    QMediaServiceProviderPlugin::~QMediaServiceProviderPlugin() 0x00011acf   Thumb Code     0  qtmultimediakit_mmfengine.in(i._ZN27QMediaServiceProviderPluginD2Ev)
    QMediaServiceProviderPlugin::~QMediaServiceProviderPlugin__sub_object() 0x00011acf   Thumb Code     8  qtmultimediakit_mmfengine.in(i._ZN27QMediaServiceProviderPluginD2Ev)
    S60AudioMediaRecorderControl::applySettings() 0x00011ad7   Thumb Code     2  qtmultimediakit_mmfengine.in(i._ZN28S60AudioMediaRecorderControl13applySettingsEv)
    QMediaServiceSupportedFormatsInterface::~QMediaServiceSupportedFormatsInterface() 0x00011ad9   Thumb Code     0  qtmultimediakit_mmfengine.in(i._ZN38QMediaServiceSupportedFormatsInterfaceD2Ev)
    QMediaServiceSupportedFormatsInterface::~QMediaServiceSupportedFormatsInterface__sub_object() 0x00011ad9   Thumb Code     2  qtmultimediakit_mmfengine.in(i._ZN38QMediaServiceSupportedFormatsInterfaceD2Ev)
    QRect::QRect()                           0x00011adb   Thumb Code    14  qtmultimediakit_mmfengine.in(i._ZN5QRectC1Ev)
    QRect::QRect__sub_object()               0x00011adb   Thumb Code     0  qtmultimediakit_mmfengine.in(i._ZN5QRectC1Ev)
    QDebug::~QDebug()                        0x00011ae9   Thumb Code   126  qtmultimediakit_mmfengine.in(i._ZN6QDebugD1Ev)
    QDebug::~QDebug__sub_object()            0x00011ae9   Thumb Code     0  qtmultimediakit_mmfengine.in(i._ZN6QDebugD1Ev)
    RArray<unsigned>::RArray()               0x00011b7b   Thumb Code     8  qtmultimediakit_mmfengine.in(i._ZN6RArrayIjEC1Ev)
    RArray<unsigned>::RArray__sub_object()   0x00011b7b   Thumb Code     0  qtmultimediakit_mmfengine.in(i._ZN6RArrayIjEC1Ev)
    RArray<unsigned>::operator [](int)       0x00011b83   Thumb Code     8  qtmultimediakit_mmfengine.in(i._ZN6RArrayIjEixEi)
    QString::append(const char*)             0x00011b8b   Thumb Code    34  qtmultimediakit_mmfengine.in(i._ZN7QString6appendEPKc)
    QString::QString(const char*)            0x00011bb7   Thumb Code    20  qtmultimediakit_mmfengine.in(i._ZN7QStringC1EPKc)
    QString::QString__sub_object(const char*) 0x00011bb7   Thumb Code     0  qtmultimediakit_mmfengine.in(i._ZN7QStringC1EPKc)
    QString::QString(const QLatin1String&)   0x00011bcb   Thumb Code    20  qtmultimediakit_mmfengine.in(i._ZN7QStringC1ERK13QLatin1String)
    QString::QString__sub_object(const QLatin1String&) 0x00011bcb   Thumb Code     0  qtmultimediakit_mmfengine.in(i._ZN7QStringC1ERK13QLatin1String)
    QString::QString(const QString&)         0x00011bdf   Thumb Code    16  qtmultimediakit_mmfengine.in(i._ZN7QStringC1ERKS_)
    QString::QString__sub_object(const QString&) 0x00011bdf   Thumb Code     0  qtmultimediakit_mmfengine.in(i._ZN7QStringC1ERKS_)
    QString::QString()                       0x00011bf1   Thumb Code    16  qtmultimediakit_mmfengine.in(i._ZN7QStringC1Ev)
    QString::QString__sub_object()           0x00011bf1   Thumb Code     0  qtmultimediakit_mmfengine.in(i._ZN7QStringC1Ev)
    QString::~QString()                      0x00011c05   Thumb Code    24  qtmultimediakit_mmfengine.in(i._ZN7QStringD1Ev)
    QString::~QString__sub_object()          0x00011c05   Thumb Code     0  qtmultimediakit_mmfengine.in(i._ZN7QStringD1Ev)
    QVariant::QVariant()                     0x00011c1d   Thumb Code    24  qtmultimediakit_mmfengine.in(i._ZN8QVariantC1Ev)
    QVariant::QVariant__sub_object()         0x00011c1d   Thumb Code     0  qtmultimediakit_mmfengine.in(i._ZN8QVariantC1Ev)
    CodecData::CodecData(const CodecData&)   0x00011c35   Thumb Code    14  qtmultimediakit_mmfengine.in(i._ZN9CodecDataC1ERKS_)
    CodecData::CodecData__sub_object(const CodecData&) 0x00011c35   Thumb Code     0  qtmultimediakit_mmfengine.in(i._ZN9CodecDataC1ERKS_)
    CodecData::CodecData()                   0x00011c45   Thumb Code    14  qtmultimediakit_mmfengine.in(i._ZN9CodecDataC1Ev)
    CodecData::CodecData__sub_object()       0x00011c45   Thumb Code     0  qtmultimediakit_mmfengine.in(i._ZN9CodecDataC1Ev)
    CodecData::~CodecData()                  0x00011c59   Thumb Code    12  qtmultimediakit_mmfengine.in(i._ZN9CodecDataD1Ev)
    CodecData::~CodecData__sub_object()      0x00011c59   Thumb Code     0  qtmultimediakit_mmfengine.in(i._ZN9CodecDataD1Ev)
    CodecData::operator =(const CodecData&)  0x00011c65   Thumb Code    18  qtmultimediakit_mmfengine.in(i._ZN9CodecDataaSERKS_)
    QHashData::willGrow()                    0x00011c77   Thumb Code    28  qtmultimediakit_mmfengine.in(i._ZN9QHashData8willGrowEv)
    QHashData::firstNode()                   0x00011c93   Thumb Code    24  qtmultimediakit_mmfengine.in(i._ZN9QHashData9firstNodeEv)
    QBasicAtomicInt::operator !=(int) const  0x00011cab   Thumb Code    14  qtmultimediakit_mmfengine.in(i._ZNK15QBasicAtomicIntneEi)
    S60MediaSettings::audioEndpoint() const  0x00011cb9   Thumb Code    14  qtmultimediakit_mmfengine.in(i._ZNK16S60MediaSettings13audioEndpointEv)
    S60MediaPlayerSession::getIsSeekable() const 0x00011cc7   Thumb Code     4  qtmultimediakit_mmfengine.in(i._ZNK21S60MediaPlayerSession13getIsSeekableEv)
    QBool::operator const void*() const      0x00011ccb   Thumb Code    14  qtmultimediakit_mmfengine.in(i._ZNK5QBoolcvPKvEv)
    QRect::size() const                      0x00011cd9   Thumb Code    22  qtmultimediakit_mmfengine.in(i._ZNK5QRect4sizeEv)
    RArray<unsigned>::Count() const          0x00011cef   Thumb Code     8  qtmultimediakit_mmfengine.in(i._ZNK6RArrayIjE5CountEv)
    QString::operator ==(const char*) const  0x00011cf7   Thumb Code     8  qtmultimediakit_mmfengine.in(i._ZNK7QStringeqEPKc)
    QListData::end() const                   0x00011cff   Thumb Code    12  qtmultimediakit_mmfengine.in(i._ZNK9QListData3endEv)
    QListData::begin() const                 0x00011d0b   Thumb Code    12  qtmultimediakit_mmfengine.in(i._ZNK9QListData5beginEv)
    thunk{-12} to S60MediaServicePlugin::~S60MediaServicePlugin__deallocating() 0x00011d17   Thumb Code    10  qtmultimediakit_mmfengine.in(i._ZThn12_N21S60MediaServicePluginD0Ev)
    thunk{-12} to S60MediaServicePlugin::~S60MediaServicePlugin() 0x00011d21   Thumb Code    10  qtmultimediakit_mmfengine.in(i._ZThn12_N21S60MediaServicePluginD1Ev)
    thunk{-8} to S60MediaServicePlugin::~S60MediaServicePlugin__deallocating() 0x00011d2b   Thumb Code    10  qtmultimediakit_mmfengine.in(i._ZThn8_N21S60MediaServicePluginD0Ev)
    thunk{-8} to S60MediaServicePlugin::~S60MediaServicePlugin() 0x00011d35   Thumb Code    10  qtmultimediakit_mmfengine.in(i._ZThn8_N21S60MediaServicePluginD1Ev)
    operator delete (void*, void*)           0x00011d3f   Thumb Code     2  qtmultimediakit_mmfengine.in(i._ZdlPvS_)
    operator new(unsigned, void*)            0x00011d41   Thumb Code     4  qtmultimediakit_mmfengine.in(i._ZnwjPv)
    CleanupClosePushL<RArray<unsigned>>(T1&) 0x00011d45   Thumb Code    12  qtmultimediakit_mmfengine.in(t._Z17CleanupClosePushLI6RArrayIjEEvRT_)
    qAbs<float>(const T1&)                   0x00011d55   Thumb Code    26  qtmultimediakit_mmfengine.in(t._Z4qAbsIfET_RKS0_)
    CleanupClose<RArray<TUid>>::Close(void*) 0x00011d6f   Thumb Code     8  qtmultimediakit_mmfengine.in(t._ZN12CleanupCloseI6RArrayI4TUidEE5CloseEPv)
    CleanupClose<RArray<TFourCC>>::Close(void*) 0x00011d77   Thumb Code     8  qtmultimediakit_mmfengine.in(t._ZN12CleanupCloseI6RArrayI7TFourCCEE5CloseEPv)
    CleanupClose<RArray<unsigned>>::Close(void*) 0x00011d7f   Thumb Code     8  qtmultimediakit_mmfengine.in(t._ZN12CleanupCloseI6RArrayIjEE5CloseEPv)
    QScopedPointer<S60MediaRecognizer, QScopedPointerDeleter<S60MediaRecognizer>>::~QScopedPointer() 0x00011d87   Thumb Code    24  qtmultimediakit_mmfengine.in(t._ZN14QScopedPointerI18S60MediaRecognizer21QScopedPointerDeleterIS0_EED1Ev)
    QScopedPointer<S60MediaRecognizer, QScopedPointerDeleter<S60MediaRecognizer>>::~QScopedPointer__sub_object() 0x00011d87   Thumb Code     0  qtmultimediakit_mmfengine.in(t._ZN14QScopedPointerI18S60MediaRecognizer21QScopedPointerDeleterIS0_EED1Ev)
    QScopedPointer<QWidget, QScopedPointerDeleter<QWidget>>::~QScopedPointer() 0x00011d9f   Thumb Code    24  qtmultimediakit_mmfengine.in(t._ZN14QScopedPointerI7QWidget21QScopedPointerDeleterIS0_EED1Ev)
    QScopedPointer<QWidget, QScopedPointerDeleter<QWidget>>::~QScopedPointer__sub_object() 0x00011d9f   Thumb Code     0  qtmultimediakit_mmfengine.in(t._ZN14QScopedPointerI7QWidget21QScopedPointerDeleterIS0_EED1Ev)
    CleanupResetAndDestroy<RPointerArray<CMMFControllerImplementationInformation>>::ResetAndDestroy(void*) 0x00011db7   Thumb Code    48  qtmultimediakit_mmfengine.in(t._ZN22CleanupResetAndDestroyI13RPointerArrayI39CMMFControllerImplementationInformationEE15ResetAndDestroyEPv)
    QMap<QString, QVariant>::node_create(QMapData*, QMapData::Node**, const QString&, const QVariant&) 0x00011de7   Thumb Code   108  qtmultimediakit_mmfengine.in(t._ZN4QMapI7QString8QVariantE11node_createEP8QMapDataPPNS3_4NodeERKS0_RKS1_)
    QMap<QString, QVariant>::detach_helper() 0x00011e79   Thumb Code   116  qtmultimediakit_mmfengine.in(t._ZN4QMapI7QString8QVariantE13detach_helperEv)
    QMap<QString, QVariant>::clear()         0x00011ef5   Thumb Code    90  qtmultimediakit_mmfengine.in(t._ZN4QMapI7QString8QVariantE5clearEv)
    QMap<QString, QVariant>::insert(const QString&, const QVariant&) 0x00011f5f   Thumb Code   136  qtmultimediakit_mmfengine.in(t._ZN4QMapI7QString8QVariantE6insertERKS0_RKS1_)
    QMap<QString, QVariant>::freeData(QMapData*) 0x00011fe7   Thumb Code    44  qtmultimediakit_mmfengine.in(t._ZN4QMapI7QString8QVariantE8freeDataEP8QMapData)
    QMap<QString, QVariant>::~QMap()         0x00012013   Thumb Code    32  qtmultimediakit_mmfengine.in(t._ZN4QMapI7QString8QVariantED1Ev)
    QMap<QString, QVariant>::~QMap__sub_object() 0x00012013   Thumb Code     0  qtmultimediakit_mmfengine.in(t._ZN4QMapI7QString8QVariantED1Ev)
    QMap<QString, QString>::~QMap()          0x00012033   Thumb Code    62  qtmultimediakit_mmfengine.in(t._ZN4QMapI7QStringS0_ED1Ev)
    QMap<QString, QString>::~QMap__sub_object() 0x00012033   Thumb Code     0  qtmultimediakit_mmfengine.in(t._ZN4QMapI7QStringS0_ED1Ev)
    QHash<QString, ControllerData>::deleteNode2(QHashData::Node*) 0x00012071   Thumb Code    18  qtmultimediakit_mmfengine.in(t._ZN5QHashI7QString14ControllerDataE11deleteNode2EPN9QHashData4NodeE)
    QHash<QString, ControllerData>::duplicateNode(QHashData::Node*, void*) 0x0001208f   Thumb Code    30  qtmultimediakit_mmfengine.in(t._ZN5QHashI7QString14ControllerDataE13duplicateNodeEPN9QHashData4NodeEPv)
    QHash<QString, ControllerData>::detach() 0x000120b9   Thumb Code    60  qtmultimediakit_mmfengine.in(t._ZN5QHashI7QString14ControllerDataE6detachEv)
    QHash<QString, ControllerData>::freeData(QHashData*) 0x000120fd   Thumb Code    12  qtmultimediakit_mmfengine.in(t._ZN5QHashI7QString14ControllerDataE8freeDataEP9QHashData)
    QHash<QString, ControllerData>::~QHash() 0x0001210d   Thumb Code    28  qtmultimediakit_mmfengine.in(t._ZN5QHashI7QString14ControllerDataED1Ev)
    QHash<QString, ControllerData>::~QHash__sub_object() 0x0001210d   Thumb Code     0  qtmultimediakit_mmfengine.in(t._ZN5QHashI7QString14ControllerDataED1Ev)
    QHash<QString, ControllerData>::operator [](const QString&) 0x00012129   Thumb Code   142  qtmultimediakit_mmfengine.in(t._ZN5QHashI7QString14ControllerDataEixERKS0_)
    QHash<QString, CodecData>::deleteNode2(QHashData::Node*) 0x000121cb   Thumb Code    18  qtmultimediakit_mmfengine.in(t._ZN5QHashI7QString9CodecDataE11deleteNode2EPN9QHashData4NodeE)
    QHash<QString, CodecData>::duplicateNode(QHashData::Node*, void*) 0x000121e9   Thumb Code    30  qtmultimediakit_mmfengine.in(t._ZN5QHashI7QString9CodecDataE13duplicateNodeEPN9QHashData4NodeEPv)
    QHash<QString, CodecData>::detach()      0x00012215   Thumb Code    60  qtmultimediakit_mmfengine.in(t._ZN5QHashI7QString9CodecDataE6detachEv)
    QHash<QString, CodecData>::freeData(QHashData*) 0x00012259   Thumb Code    12  qtmultimediakit_mmfengine.in(t._ZN5QHashI7QString9CodecDataE8freeDataEP9QHashData)
    QHash<QString, CodecData>::~QHash()      0x00012269   Thumb Code    28  qtmultimediakit_mmfengine.in(t._ZN5QHashI7QString9CodecDataED1Ev)
    QHash<QString, CodecData>::~QHash__sub_object() 0x00012269   Thumb Code     0  qtmultimediakit_mmfengine.in(t._ZN5QHashI7QString9CodecDataED1Ev)
    QHash<QString, CodecData>::operator [](const QString&) 0x00012285   Thumb Code   140  qtmultimediakit_mmfengine.in(t._ZN5QHashI7QString9CodecDataEixERKS0_)
    QList<QString>::detach_helper(int)       0x00012325   Thumb Code    86  qtmultimediakit_mmfengine.in(t._ZN5QListI7QStringE13detach_helperEi)
    QList<QString>::detach_helper()          0x00012383   Thumb Code    12  qtmultimediakit_mmfengine.in(t._ZN5QListI7QStringE13detach_helperEv)
    QList<QString>::node_construct(QList<QString>::Node*, const QString&) 0x0001238f   Thumb Code    26  qtmultimediakit_mmfengine.in(t._ZN5QListI7QStringE14node_constructEPNS1_4NodeERKS0_)
    QList<QString>::detach_helper_grow(int, int) 0x000123b5   Thumb Code   186  qtmultimediakit_mmfengine.in(t._ZN5QListI7QStringE18detach_helper_growEii)
    QList<QString>::free(QListData::Data*)   0x00012477   Thumb Code    48  qtmultimediakit_mmfengine.in(t._ZN5QListI7QStringE4freeEPN9QListData4DataE)
    QList<QString>::append(const QString&)   0x000124a9   Thumb Code    90  qtmultimediakit_mmfengine.in(t._ZN5QListI7QStringE6appendERKS0_)
    QList<QString>::reserve(int)             0x00012511   Thumb Code    44  qtmultimediakit_mmfengine.in(t._ZN5QListI7QStringE7reserveEi)
    QList<QString>::node_copy(QList<QString>::Node*, QList<QString>::Node*, QList<QString>::Node*) 0x0001253d   Thumb Code    70  qtmultimediakit_mmfengine.in(t._ZN5QListI7QStringE9node_copyEPNS1_4NodeES3_S3_)
    QList<QString>::QList(const QList<QString>&) 0x00012599   Thumb Code    30  qtmultimediakit_mmfengine.in(t._ZN5QListI7QStringEC1ERKS1_)
    QList<QString>::QList__sub_object(const QList<QString>&) 0x00012599   Thumb Code     0  qtmultimediakit_mmfengine.in(t._ZN5QListI7QStringEC1ERKS1_)
    QList<QString>::QList()                  0x000125b9   Thumb Code    16  qtmultimediakit_mmfengine.in(t._ZN5QListI7QStringEC1Ev)
    QList<QString>::QList__sub_object()      0x000125b9   Thumb Code     0  qtmultimediakit_mmfengine.in(t._ZN5QListI7QStringEC1Ev)
    QList<QString>::~QList()                 0x000125cd   Thumb Code    30  qtmultimediakit_mmfengine.in(t._ZN5QListI7QStringED1Ev)
    QList<QString>::~QList__sub_object()     0x000125cd   Thumb Code     0  qtmultimediakit_mmfengine.in(t._ZN5QListI7QStringED1Ev)
    QList<QString>::operator =(const QList<QString>&) 0x000125eb   Thumb Code    54  qtmultimediakit_mmfengine.in(t._ZN5QListI7QStringEaSERKS1_)
    QList<QString>::operator [](int)         0x00012621   Thumb Code    40  qtmultimediakit_mmfengine.in(t._ZN5QListI7QStringEixEi)
    QList<QString>::operator +=(const QList<QString>&) 0x00012649   Thumb Code   132  qtmultimediakit_mmfengine.in(t._ZN5QListI7QStringEpLERKS1_)
    QList<QVideoFrame::PixelFormat>::QList() 0x000126d9   Thumb Code    16  qtmultimediakit_mmfengine.in(t._ZN5QListIN11QVideoFrame11PixelFormatEEC1Ev)
    QList<QVideoFrame::PixelFormat>::QList__sub_object() 0x000126d9   Thumb Code     0  qtmultimediakit_mmfengine.in(t._ZN5QListIN11QVideoFrame11PixelFormatEEC1Ev)
    QList<QVideoFrame::PixelFormat>::~QList() 0x000126ed   Thumb Code    66  qtmultimediakit_mmfengine.in(t._ZN5QListIN11QVideoFrame11PixelFormatEED1Ev)
    QList<QVideoFrame::PixelFormat>::~QList__sub_object() 0x000126ed   Thumb Code     0  qtmultimediakit_mmfengine.in(t._ZN5QListIN11QVideoFrame11PixelFormatEED1Ev)
    QList<QtMultimediaKit::MetaData>::node_destruct(QList<QtMultimediaKit::MetaData>::Node*, QList<QtMultimediaKit::MetaData>::Node*) 0x0001272f   Thumb Code    22  qtmultimediakit_mmfengine.in(t._ZN5QListIN15QtMultimediaKit8MetaDataEE13node_destructEPNS2_4NodeES4_)
    QList<QtMultimediaKit::MetaData>::node_construct(QList<QtMultimediaKit::MetaData>::Node*, const QtMultimediaKit::MetaData&) 0x00012745   Thumb Code    28  qtmultimediakit_mmfengine.in(t._ZN5QListIN15QtMultimediaKit8MetaDataEE14node_constructEPNS2_4NodeERKS1_)
    QList<QtMultimediaKit::MetaData>::detach_helper_grow(int, int) 0x00012761   Thumb Code   180  qtmultimediakit_mmfengine.in(t._ZN5QListIN15QtMultimediaKit8MetaDataEE18detach_helper_growEii)
    QList<QtMultimediaKit::MetaData>::free(QListData::Data*) 0x0001281d   Thumb Code    38  qtmultimediakit_mmfengine.in(t._ZN5QListIN15QtMultimediaKit8MetaDataEE4freeEPN9QListData4DataE)
    QList<QtMultimediaKit::MetaData>::append(const QtMultimediaKit::MetaData&) 0x00012845   Thumb Code    90  qtmultimediakit_mmfengine.in(t._ZN5QListIN15QtMultimediaKit8MetaDataEE6appendERKS1_)
    QList<QtMultimediaKit::MetaData>::node_copy(QList<QtMultimediaKit::MetaData>::Node*, QList<QtMultimediaKit::MetaData>::Node*, QList<QtMultimediaKit::MetaData>::Node*) 0x000128ad   Thumb Code    40  qtmultimediakit_mmfengine.in(t._ZN5QListIN15QtMultimediaKit8MetaDataEE9node_copyEPNS2_4NodeES4_S4_)
    QList<QtMultimediaKit::MetaData>::~QList() 0x000128d5   Thumb Code    30  qtmultimediakit_mmfengine.in(t._ZN5QListIN15QtMultimediaKit8MetaDataEED1Ev)
    QList<QtMultimediaKit::MetaData>::~QList__sub_object() 0x000128d5   Thumb Code     0  qtmultimediakit_mmfengine.in(t._ZN5QListIN15QtMultimediaKit8MetaDataEED1Ev)
    QList<int>::detach_helper()              0x000128f3   Thumb Code    88  qtmultimediakit_mmfengine.in(t._ZN5QListIiE13detach_helperEv)
    QList<int>::detach_helper_grow(int, int) 0x00012953   Thumb Code   164  qtmultimediakit_mmfengine.in(t._ZN5QListIiE18detach_helper_growEii)
    QList<int>::free(QListData::Data*)       0x000129ff   Thumb Code    16  qtmultimediakit_mmfengine.in(t._ZN5QListIiE4freeEPN9QListData4DataE)
    QList<int>::append(const int&)           0x00012a11   Thumb Code    54  qtmultimediakit_mmfengine.in(t._ZN5QListIiE6appendERKi)
    QList<int>::node_copy(QList<int>::Node*, QList<int>::Node*, QList<int>::Node*) 0x00012a57   Thumb Code    28  qtmultimediakit_mmfengine.in(t._ZN5QListIiE9node_copyEPNS0_4NodeES2_S2_)
    QList<int>::QList()                      0x00012a75   Thumb Code    16  qtmultimediakit_mmfengine.in(t._ZN5QListIiEC1Ev)
    QList<int>::QList__sub_object()          0x00012a75   Thumb Code     0  qtmultimediakit_mmfengine.in(t._ZN5QListIiEC1Ev)
    QList<int>::~QList()                     0x00012a89   Thumb Code    30  qtmultimediakit_mmfengine.in(t._ZN5QListIiED1Ev)
    QList<int>::~QList__sub_object()         0x00012a89   Thumb Code     0  qtmultimediakit_mmfengine.in(t._ZN5QListIiED1Ev)
    QList<int>::operator =(const QList<int>&) 0x00012aa7   Thumb Code    54  qtmultimediakit_mmfengine.in(t._ZN5QListIiEaSERKS0_)
    QList<int>::operator <<(const int&)      0x00012add   Thumb Code    12  qtmultimediakit_mmfengine.in(t._ZN5QListIiElsERKi)
    QPair<int, int>::QPair()                 0x00012ae9   Thumb Code     8  qtmultimediakit_mmfengine.in(t._ZN5QPairIiiEC1Ev)
    QPair<int, int>::QPair__sub_object()     0x00012ae9   Thumb Code     0  qtmultimediakit_mmfengine.in(t._ZN5QPairIiiEC1Ev)
    QVector<int>::~QVector()                 0x00012af1   Thumb Code    30  qtmultimediakit_mmfengine.in(t._ZN7QVectorIiED1Ev)
    QVector<int>::~QVector__sub_object()     0x00012af1   Thumb Code     0  qtmultimediakit_mmfengine.in(t._ZN7QVectorIiED1Ev)
    QPointer<QObject>::~QPointer()           0x00012b0f   Thumb Code    12  qtmultimediakit_mmfengine.in(t._ZN8QPointerI7QObjectED1Ev)
    QPointer<QObject>::~QPointer__sub_object() 0x00012b0f   Thumb Code     0  qtmultimediakit_mmfengine.in(t._ZN8QPointerI7QObjectED1Ev)
    QHashNode<QString, ControllerData>::QHashNode(const QString&, const ControllerData&) 0x00012b1b   Thumb Code    28  qtmultimediakit_mmfengine.in(t._ZN9QHashNodeI7QString14ControllerDataEC1ERKS0_RKS1_)
    QHashNode<QString, ControllerData>::QHashNode__sub_object(const QString&, const ControllerData&) 0x00012b1b   Thumb Code     0  qtmultimediakit_mmfengine.in(t._ZN9QHashNodeI7QString14ControllerDataEC1ERKS0_RKS1_)
    QHashNode<QString, CodecData>::QHashNode(const QString&, const CodecData&) 0x00012b43   Thumb Code    28  qtmultimediakit_mmfengine.in(t._ZN9QHashNodeI7QString9CodecDataEC1ERKS0_RKS1_)
    QHashNode<QString, CodecData>::QHashNode__sub_object(const QString&, const CodecData&) 0x00012b43   Thumb Code     0  qtmultimediakit_mmfengine.in(t._ZN9QHashNodeI7QString9CodecDataEC1ERKS0_RKS1_)
    RPointerArray<CMMFFormatImplementationInformation>::operator [](int) const 0x00012b6b   Thumb Code     8  qtmultimediakit_mmfengine.in(t._ZNK13RPointerArrayI35CMMFFormatImplementationInformationEixEi)
    QMap<QString, QVariant>::keys() const    0x00012b75   Thumb Code    84  qtmultimediakit_mmfengine.in(t._ZNK4QMapI7QString8QVariantE4keysEv)
    QMap<QString, QVariant>::value(const QString&) const 0x00012bd7   Thumb Code   128  qtmultimediakit_mmfengine.in(t._ZNK4QMapI7QString8QVariantE5valueERKS0_)
    QMap<QString, QString>::keys() const     0x00012c57   Thumb Code    50  qtmultimediakit_mmfengine.in(t._ZNK4QMapI7QStringS0_E4keysEv)
    QHash<QString, ControllerData>::keys() const 0x00012c93   Thumb Code    60  qtmultimediakit_mmfengine.in(t._ZNK5QHashI7QString14ControllerDataE4keysEv)
    QHash<QString, ControllerData>::value(const QString&) const 0x00012cd9   Thumb Code    62  qtmultimediakit_mmfengine.in(t._ZNK5QHashI7QString14ControllerDataE5valueERKS0_)
    QHash<QString, ControllerData>::contains(const QString&) const 0x00012d17   Thumb Code    26  qtmultimediakit_mmfengine.in(t._ZNK5QHashI7QString14ControllerDataE8containsERKS0_)
    QHash<QString, ControllerData>::findNode(const QString&, unsigned*) const 0x00012d31   Thumb Code    90  qtmultimediakit_mmfengine.in(t._ZNK5QHashI7QString14ControllerDataE8findNodeERKS0_Pj)
    QHash<QString, CodecData>::keys() const  0x00012d8b   Thumb Code    60  qtmultimediakit_mmfengine.in(t._ZNK5QHashI7QString9CodecDataE4keysEv)
    QHash<QString, CodecData>::value(const QString&) const 0x00012dd1   Thumb Code    60  qtmultimediakit_mmfengine.in(t._ZNK5QHashI7QString9CodecDataE5valueERKS0_)
    QHash<QString, CodecData>::findNode(const QString&, unsigned*) const 0x00012e0d   Thumb Code    90  qtmultimediakit_mmfengine.in(t._ZNK5QHashI7QString9CodecDataE8findNodeERKS0_Pj)
    QList<QString>::isEmpty() const          0x00012e67   Thumb Code    18  qtmultimediakit_mmfengine.in(t._ZNK5QListI7QStringE7isEmptyEv)
    QList<QString>::contains(const QString&) const 0x00012e79   Thumb Code    54  qtmultimediakit_mmfengine.in(t._ZNK5QListI7QStringE8containsERKS0_)
    S60VideoDisplay::staticMetaObject        0x0001486c   Data          16  qtmultimediakit_mmfengine.in(.constdata)
    S60VideoWidget::staticMetaObject         0x00014ac8   Data          16  qtmultimediakit_mmfengine.in(.constdata)
    S60VideoWidgetControl::staticMetaObject  0x00014c38   Data          16  qtmultimediakit_mmfengine.in(.constdata)
    S60VideoWidgetDisplay::staticMetaObject  0x00014ce0   Data          16  qtmultimediakit_mmfengine.in(.constdata)
    S60VideoWindowControl::staticMetaObject  0x00014d58   Data          16  qtmultimediakit_mmfengine.in(.constdata)
    S60MediaPlayerControl::staticMetaObject  0x00014dd0   Data          16  qtmultimediakit_mmfengine.in(.constdata)
    S60MediaPlayerService::staticMetaObject  0x00014e34   Data          16  qtmultimediakit_mmfengine.in(.constdata)
    S60MediaPlayerSession::staticMetaObject  0x000150e8   Data          16  qtmultimediakit_mmfengine.in(.constdata)
    S60MediaMetaDataProvider::staticMetaObject 0x000152cc   Data          16  qtmultimediakit_mmfengine.in(.constdata)
    S60VideoPlayerSession::staticMetaObject  0x000153e0   Data          16  qtmultimediakit_mmfengine.in(.constdata)
    S60VideoSurface::staticMetaObject        0x000154cc   Data          16  qtmultimediakit_mmfengine.in(.constdata)
    S60MediaRecognizer::staticMetaObject     0x0001552c   Data          16  qtmultimediakit_mmfengine.in(.constdata)
    S60AudioPlayerSession::staticMetaObject  0x000155b0   Data          16  qtmultimediakit_mmfengine.in(.constdata)
    S60MediaPlayerAudioEndpointSelector::staticMetaObject 0x00015658   Data          16  qtmultimediakit_mmfengine.in(.constdata)
    S60MediaStreamControl::staticMetaObject  0x000156e8   Data          16  qtmultimediakit_mmfengine.in(.constdata)
    S60RadioTunerControl::staticMetaObject   0x00015790   Data          16  qtmultimediakit_mmfengine.in(.constdata)
    S60RadioTunerService::staticMetaObject   0x0001581c   Data          16  qtmultimediakit_mmfengine.in(.constdata)
    S60AudioEncoderControl::staticMetaObject 0x00015880   Data          16  qtmultimediakit_mmfengine.in(.constdata)
    S60AudioMediaRecorderControl::staticMetaObject 0x00015954   Data          16  qtmultimediakit_mmfengine.in(.constdata)
    S60AudioEndpointSelector::staticMetaObject 0x00015a40   Data          16  qtmultimediakit_mmfengine.in(.constdata)
    S60AudioCaptureService::staticMetaObject 0x00015ab8   Data          16  qtmultimediakit_mmfengine.in(.constdata)
    S60AudioCaptureSession::staticMetaObject 0x00015c50   Data          16  qtmultimediakit_mmfengine.in(.constdata)
    S60AudioContainerControl::staticMetaObject 0x00015d6c   Data          16  qtmultimediakit_mmfengine.in(.constdata)
    S60MediaServicePlugin::staticMetaObject  0x00015dd0   Data          16  qtmultimediakit_mmfengine.in(.constdata)
    typeinfo for S60VideoWidget              0x00016110   Data          12  qtmultimediakit_mmfengine.in(.constdata__ZTI14S60VideoWidget)
    typeinfo for S60VideoDisplay             0x0001611c   Data          12  qtmultimediakit_mmfengine.in(.constdata__ZTI15S60VideoDisplay)
    typeinfo for S60VideoSurface             0x00016128   Data          12  qtmultimediakit_mmfengine.in(.constdata__ZTI15S60VideoSurface)
    typeinfo for S60MediaRecognizer          0x00016134   Data          12  qtmultimediakit_mmfengine.in(.constdata__ZTI18S60MediaRecognizer)
    typeinfo for MRadioPlayerObserver        0x00016140   Data           8  qtmultimediakit_mmfengine.in(.constdata__ZTI20MRadioPlayerObserver)
    typeinfo for S60RadioTunerControl        0x00016148   Data          40  qtmultimediakit_mmfengine.in(.constdata__ZTI20S60RadioTunerControl)
    typeinfo for S60RadioTunerService        0x00016170   Data          12  qtmultimediakit_mmfengine.in(.constdata__ZTI20S60RadioTunerService)
    typeinfo for MAudioLoadingObserver       0x0001617c   Data           8  qtmultimediakit_mmfengine.in(.constdata__ZTI21MAudioLoadingObserver)
    typeinfo for MRadioFmTunerObserver       0x00016184   Data           8  qtmultimediakit_mmfengine.in(.constdata__ZTI21MRadioFmTunerObserver)
    typeinfo for MVideoLoadingObserver       0x0001618c   Data           8  qtmultimediakit_mmfengine.in(.constdata__ZTI21MVideoLoadingObserver)
    typeinfo for S60AudioPlayerSession       0x00016194   Data          40  qtmultimediakit_mmfengine.in(.constdata__ZTI21S60AudioPlayerSession)
    typeinfo for S60MediaPlayerControl       0x000161bc   Data          12  qtmultimediakit_mmfengine.in(.constdata__ZTI21S60MediaPlayerControl)
    typeinfo for S60MediaPlayerService       0x000161c8   Data          32  qtmultimediakit_mmfengine.in(.constdata__ZTI21S60MediaPlayerService)
    typeinfo for S60MediaPlayerSession       0x000161e8   Data          12  qtmultimediakit_mmfengine.in(.constdata__ZTI21S60MediaPlayerSession)
    typeinfo for S60MediaServicePlugin       0x000161f4   Data          32  qtmultimediakit_mmfengine.in(.constdata__ZTI21S60MediaServicePlugin)
    typeinfo for S60MediaStreamControl       0x00016214   Data          12  qtmultimediakit_mmfengine.in(.constdata__ZTI21S60MediaStreamControl)
    typeinfo for S60VideoPlayerSession       0x00016220   Data          40  qtmultimediakit_mmfengine.in(.constdata__ZTI21S60VideoPlayerSession)
    typeinfo for S60VideoWidgetControl       0x00016248   Data          12  qtmultimediakit_mmfengine.in(.constdata__ZTI21S60VideoWidgetControl)
    typeinfo for S60VideoWidgetDisplay       0x00016254   Data          12  qtmultimediakit_mmfengine.in(.constdata__ZTI21S60VideoWidgetDisplay)
    typeinfo for S60VideoWindowControl       0x00016260   Data          12  qtmultimediakit_mmfengine.in(.constdata__ZTI21S60VideoWindowControl)
    typeinfo for S60VideoWindowDisplay       0x0001626c   Data          12  qtmultimediakit_mmfengine.in(.constdata__ZTI21S60VideoWindowDisplay)
    typeinfo for S60AudioCaptureService      0x00016278   Data          12  qtmultimediakit_mmfengine.in(.constdata__ZTI22S60AudioCaptureService)
    typeinfo for S60AudioCaptureSession      0x00016284   Data          32  qtmultimediakit_mmfengine.in(.constdata__ZTI22S60AudioCaptureSession)
    typeinfo for S60AudioEncoderControl      0x000162a4   Data          12  qtmultimediakit_mmfengine.in(.constdata__ZTI22S60AudioEncoderControl)
    typeinfo for MMdaAudioPlayerCallback     0x000162b0   Data           8  qtmultimediakit_mmfengine.in(.constdata__ZTI23MMdaAudioPlayerCallback)
    typeinfo for MS60MediaPlayerResolver     0x000162b8   Data           8  qtmultimediakit_mmfengine.in(.constdata__ZTI23MS60MediaPlayerResolver)
    typeinfo for S60AudioContainerControl    0x000162c0   Data          12  qtmultimediakit_mmfengine.in(.constdata__ZTI24S60AudioContainerControl)
    typeinfo for S60AudioEndpointSelector    0x000162cc   Data          12  qtmultimediakit_mmfengine.in(.constdata__ZTI24S60AudioEndpointSelector)
    typeinfo for S60MediaMetaDataProvider    0x000162d8   Data          12  qtmultimediakit_mmfengine.in(.constdata__ZTI24S60MediaMetaDataProvider)
    typeinfo for MVideoPlayerUtilityObserver 0x000162e4   Data           8  qtmultimediakit_mmfengine.in(.constdata__ZTI27MVideoPlayerUtilityObserver)
    typeinfo for S60AudioMediaRecorderControl 0x000162ec   Data          12  qtmultimediakit_mmfengine.in(.constdata__ZTI28S60AudioMediaRecorderControl)
    typeinfo for MMdaObjectStateChangeObserver 0x000162f8   Data           8  qtmultimediakit_mmfengine.in(.constdata__ZTI29MMdaObjectStateChangeObserver)
    typeinfo for S60MediaPlayerAudioEndpointSelector 0x00016300   Data          12  qtmultimediakit_mmfengine.in(.constdata__ZTI35S60MediaPlayerAudioEndpointSelector)
    typeinfo for QMediaServiceSupportedFormatsInterface 0x0001630c   Data           8  qtmultimediakit_mmfengine.in(.constdata__ZTI38QMediaServiceSupportedFormatsInterface)
    typeinfo for std::bad_alloc              0x00016314   Data          12  qtmultimediakit_mmfengine.in(.constdata__ZTISt9bad_alloc)
    typeinfo name for S60VideoWidget         0x00016320   Data          17  qtmultimediakit_mmfengine.in(.constdata__ZTS14S60VideoWidget)
    typeinfo name for S60VideoDisplay        0x00016331   Data          18  qtmultimediakit_mmfengine.in(.constdata__ZTS15S60VideoDisplay)
    typeinfo name for S60VideoSurface        0x00016343   Data          18  qtmultimediakit_mmfengine.in(.constdata__ZTS15S60VideoSurface)
    typeinfo name for S60MediaRecognizer     0x00016355   Data          21  qtmultimediakit_mmfengine.in(.constdata__ZTS18S60MediaRecognizer)
    typeinfo name for MRadioPlayerObserver   0x0001636a   Data          23  qtmultimediakit_mmfengine.in(.constdata__ZTS20MRadioPlayerObserver)
    typeinfo name for S60RadioTunerControl   0x00016381   Data          23  qtmultimediakit_mmfengine.in(.constdata__ZTS20S60RadioTunerControl)
    typeinfo name for S60RadioTunerService   0x00016398   Data          23  qtmultimediakit_mmfengine.in(.constdata__ZTS20S60RadioTunerService)
    typeinfo name for MAudioLoadingObserver  0x000163af   Data          24  qtmultimediakit_mmfengine.in(.constdata__ZTS21MAudioLoadingObserver)
    typeinfo name for MRadioFmTunerObserver  0x000163c7   Data          24  qtmultimediakit_mmfengine.in(.constdata__ZTS21MRadioFmTunerObserver)
    typeinfo name for MVideoLoadingObserver  0x000163df   Data          24  qtmultimediakit_mmfengine.in(.constdata__ZTS21MVideoLoadingObserver)
    typeinfo name for S60AudioPlayerSession  0x000163f7   Data          24  qtmultimediakit_mmfengine.in(.constdata__ZTS21S60AudioPlayerSession)
    typeinfo name for S60MediaPlayerControl  0x0001640f   Data          24  qtmultimediakit_mmfengine.in(.constdata__ZTS21S60MediaPlayerControl)
    typeinfo name for S60MediaPlayerService  0x00016427   Data          24  qtmultimediakit_mmfengine.in(.constdata__ZTS21S60MediaPlayerService)
    typeinfo name for S60MediaPlayerSession  0x0001643f   Data          24  qtmultimediakit_mmfengine.in(.constdata__ZTS21S60MediaPlayerSession)
    typeinfo name for S60MediaServicePlugin  0x00016457   Data          24  qtmultimediakit_mmfengine.in(.constdata__ZTS21S60MediaServicePlugin)
    typeinfo name for S60MediaStreamControl  0x0001646f   Data          24  qtmultimediakit_mmfengine.in(.constdata__ZTS21S60MediaStreamControl)
    typeinfo name for S60VideoPlayerSession  0x00016487   Data          24  qtmultimediakit_mmfengine.in(.constdata__ZTS21S60VideoPlayerSession)
    typeinfo name for S60VideoWidgetControl  0x0001649f   Data          24  qtmultimediakit_mmfengine.in(.constdata__ZTS21S60VideoWidgetControl)
    typeinfo name for S60VideoWidgetDisplay  0x000164b7   Data          24  qtmultimediakit_mmfengine.in(.constdata__ZTS21S60VideoWidgetDisplay)
    typeinfo name for S60VideoWindowControl  0x000164cf   Data          24  qtmultimediakit_mmfengine.in(.constdata__ZTS21S60VideoWindowControl)
    typeinfo name for S60VideoWindowDisplay  0x000164e7   Data          24  qtmultimediakit_mmfengine.in(.constdata__ZTS21S60VideoWindowDisplay)
    typeinfo name for S60AudioCaptureService 0x000164ff   Data          25  qtmultimediakit_mmfengine.in(.constdata__ZTS22S60AudioCaptureService)
    typeinfo name for S60AudioCaptureSession 0x00016518   Data          25  qtmultimediakit_mmfengine.in(.constdata__ZTS22S60AudioCaptureSession)
    typeinfo name for S60AudioEncoderControl 0x00016531   Data          25  qtmultimediakit_mmfengine.in(.constdata__ZTS22S60AudioEncoderControl)
    typeinfo name for MMdaAudioPlayerCallback 0x0001654a   Data          26  qtmultimediakit_mmfengine.in(.constdata__ZTS23MMdaAudioPlayerCallback)
    typeinfo name for MS60MediaPlayerResolver 0x00016564   Data          26  qtmultimediakit_mmfengine.in(.constdata__ZTS23MS60MediaPlayerResolver)
    typeinfo name for S60AudioContainerControl 0x0001657e   Data          27  qtmultimediakit_mmfengine.in(.constdata__ZTS24S60AudioContainerControl)
    typeinfo name for S60AudioEndpointSelector 0x00016599   Data          27  qtmultimediakit_mmfengine.in(.constdata__ZTS24S60AudioEndpointSelector)
    typeinfo name for S60MediaMetaDataProvider 0x000165b4   Data          27  qtmultimediakit_mmfengine.in(.constdata__ZTS24S60MediaMetaDataProvider)
    typeinfo name for MVideoPlayerUtilityObserver 0x000165cf   Data          30  qtmultimediakit_mmfengine.in(.constdata__ZTS27MVideoPlayerUtilityObserver)
    typeinfo name for S60AudioMediaRecorderControl 0x000165ed   Data          31  qtmultimediakit_mmfengine.in(.constdata__ZTS28S60AudioMediaRecorderControl)
    typeinfo name for MMdaObjectStateChangeObserver 0x0001660c   Data          32  qtmultimediakit_mmfengine.in(.constdata__ZTS29MMdaObjectStateChangeObserver)
    typeinfo name for S60MediaPlayerAudioEndpointSelector 0x0001662c   Data          38  qtmultimediakit_mmfengine.in(.constdata__ZTS35S60MediaPlayerAudioEndpointSelector)
    typeinfo name for QMediaServiceSupportedFormatsInterface 0x00016652   Data          41  qtmultimediakit_mmfengine.in(.constdata__ZTS38QMediaServiceSupportedFormatsInterface)
    typeinfo name for std::bad_alloc         0x0001667b   Data          13  qtmultimediakit_mmfengine.in(.constdata__ZTSSt9bad_alloc)
    vtable for S60VideoWidget                0x00016688   Data         248  qtmultimediakit_mmfengine.in(.constdata__ZTV14S60VideoWidget)
    vtable for S60VideoDisplay               0x00016780   Data          68  qtmultimediakit_mmfengine.in(.constdata__ZTV15S60VideoDisplay)
    vtable for S60VideoSurface               0x000167c4   Data          80  qtmultimediakit_mmfengine.in(.constdata__ZTV15S60VideoSurface)
    vtable for S60MediaRecognizer            0x00016814   Data          56  qtmultimediakit_mmfengine.in(.constdata__ZTV18S60MediaRecognizer)
    vtable for S60RadioTunerControl          0x0001684c   Data         296  qtmultimediakit_mmfengine.in(.constdata__ZTV20S60RadioTunerControl)
    vtable for S60RadioTunerService          0x00016974   Data          64  qtmultimediakit_mmfengine.in(.constdata__ZTV20S60RadioTunerService)
    vtable for S60AudioPlayerSession         0x000169b4   Data         188  qtmultimediakit_mmfengine.in(.constdata__ZTV21S60AudioPlayerSession)
    vtable for S60MediaPlayerControl         0x00016a70   Data         144  qtmultimediakit_mmfengine.in(.constdata__ZTV21S60MediaPlayerControl)
    vtable for S60MediaPlayerService         0x00016b00   Data          96  qtmultimediakit_mmfengine.in(.constdata__ZTV21S60MediaPlayerService)
    vtable for S60MediaPlayerSession         0x00016b60   Data         140  qtmultimediakit_mmfengine.in(.constdata__ZTV21S60MediaPlayerSession)
    vtable for S60MediaServicePlugin         0x00016bec   Data         128  qtmultimediakit_mmfengine.in(.constdata__ZTV21S60MediaServicePlugin)
    vtable for S60MediaStreamControl         0x00016c6c   Data          76  qtmultimediakit_mmfengine.in(.constdata__ZTV21S60MediaStreamControl)
    vtable for S60VideoPlayerSession         0x00016cb8   Data         212  qtmultimediakit_mmfengine.in(.constdata__ZTV21S60VideoPlayerSession)
    vtable for S60VideoWidgetControl         0x00016d8c   Data         108  qtmultimediakit_mmfengine.in(.constdata__ZTV21S60VideoWidgetControl)
    vtable for S60VideoWidgetDisplay         0x00016df8   Data          68  qtmultimediakit_mmfengine.in(.constdata__ZTV21S60VideoWidgetDisplay)
    vtable for S60VideoWindowControl         0x00016e3c   Data         128  qtmultimediakit_mmfengine.in(.constdata__ZTV21S60VideoWindowControl)
    vtable for S60VideoWindowDisplay         0x00016ebc   Data          68  qtmultimediakit_mmfengine.in(.constdata__ZTV21S60VideoWindowDisplay)
    vtable for S60AudioCaptureService        0x00016f00   Data          64  qtmultimediakit_mmfengine.in(.constdata__ZTV22S60AudioCaptureService)
    vtable for S60AudioCaptureSession        0x00016f40   Data          72  qtmultimediakit_mmfengine.in(.constdata__ZTV22S60AudioCaptureSession)
    vtable for S60AudioEncoderControl        0x00016f88   Data          88  qtmultimediakit_mmfengine.in(.constdata__ZTV22S60AudioEncoderControl)
    vtable for S60AudioContainerControl      0x00016fe0   Data          72  qtmultimediakit_mmfengine.in(.constdata__ZTV24S60AudioContainerControl)
    vtable for S60AudioEndpointSelector      0x00017028   Data          76  qtmultimediakit_mmfengine.in(.constdata__ZTV24S60AudioEndpointSelector)
    vtable for S60MediaMetaDataProvider      0x00017074   Data          76  qtmultimediakit_mmfengine.in(.constdata__ZTV24S60MediaMetaDataProvider)
    vtable for S60AudioMediaRecorderControl  0x000170c0   Data          96  qtmultimediakit_mmfengine.in(.constdata__ZTV28S60AudioMediaRecorderControl)
    vtable for S60MediaPlayerAudioEndpointSelector 0x00017120   Data          76  qtmultimediakit_mmfengine.in(.constdata__ZTV35S60MediaPlayerAudioEndpointSelector)
    SHT$$INIT_ARRAY$$Base                    0x0001716c   Number         0  qtmultimediakit_mmfengine.in(.init_array)
    .ARM.exidx$$Base                         0x00017170   Number         0  ucppinit_aeabi.o(.ARM.exidx)
    SHT$$INIT_ARRAY$$Limit                   0x00017170   Data           0  qtmultimediakit_mmfengine.in(.init_array)
    .ARM.exidx$$Limit                        0x00017e90   Number         0  qtmultimediakit_mmfengine.in(.ARM.exidx)
    Image$$ER_RO$$Limit                      0x00017e90   Number         0  anon$$obj.o(linker$$defined$$symbols)
    __dso_handle                             0x0040000c   Data           4  ucppfini.o(.data)

