ARM Linker, RVCT2.2 [Build 686]

================================================================================

Image Symbol Table

    Local Symbols

    Symbol Name                              Value     Ov Type        Size  Object(Section)

    [Anonymous Symbol]                       0x00000000   Number         0  QtCore{00040703}-1874.o ABSOLUTE
    [Anonymous Symbol]                       0x00000000   Number         0  MmfDevSound{000a0000}-7.o ABSOLUTE
    [Anonymous Symbol]                       0x00000000   Number         0  QtCore{00040703}-3608.o ABSOLUTE
    [Anonymous Symbol]                       0x00000000   Number         0  QtCore{00040703}-1876.o ABSOLUTE
    [Anonymous Symbol]                       0x00000000   Number         0  MmfDevSound{000a0000}-8.o ABSOLUTE
    [Anonymous Symbol]                       0x00000000   Number         0  QtCore{00040703}-3609.o ABSOLUTE
    [Anonymous Symbol]                       0x00000000   Number         0  QtCore{00040703}-1885.o ABSOLUTE
    [Anonymous Symbol]                       0x00000000   Number         0  efsrv{000a0000}-231.o ABSOLUTE
    [Anonymous Symbol]                       0x00000000   Number         0  QtCore{00040703}-3610.o ABSOLUTE
    [Anonymous Symbol]                       0x00000000   Number         0  QtCore{00040703}-1947.o ABSOLUTE
    [Anonymous Symbol]                       0x00000000   Number         0  efsrv{000a0000}-68.o ABSOLUTE
    [Anonymous Symbol]                       0x00000000   Number         0  QtCore{00040703}-3689.o ABSOLUTE
    [Anonymous Symbol]                       0x00000000   Number         0  QtCore{00040703}-1949.o ABSOLUTE
    [Anonymous Symbol]                       0x00000000   Number         0  libstdcpp{00010000}-988.o ABSOLUTE
    [Anonymous Symbol]                       0x00000000   Number         0  QtCore{00040703}-3691.o ABSOLUTE
    [Anonymous Symbol]                       0x00000000   Number         0  QtCore{00040703}-2003.o ABSOLUTE
    [Anonymous Symbol]                       0x00000000   Number         0  libstdcpp{00010000}-992.o ABSOLUTE
    [Anonymous Symbol]                       0x00000000   Number         0  QtCore{00040703}-3692.o ABSOLUTE
    [Anonymous Symbol]                       0x00000000   Number         0  QtCore{00040703}-2018.o ABSOLUTE
    [Anonymous Symbol]                       0x00000000   Number         0  QtGui{00040703}-10007.o ABSOLUTE
    [Anonymous Symbol]                       0x00000000   Number         0  QtCore{00040703}-46.o ABSOLUTE
    [Anonymous Symbol]                       0x00000000   Number         0  QtCore{00040703}-2024.o ABSOLUTE
    [Anonymous Symbol]                       0x00000000   Number         0  QtGui{00040703}-10014.o ABSOLUTE
    [Anonymous Symbol]                       0x00000000   Number         0  QtCore{00040703}-499.o ABSOLUTE
    [Anonymous Symbol]                       0x00000000   Number         0  QtCore{00040703}-2025.o ABSOLUTE
    [Anonymous Symbol]                       0x00000000   Number         0  QtGui{00040703}-10076.o ABSOLUTE
    [Anonymous Symbol]                       0x00000000   Number         0  QtCore{00040703}-501.o ABSOLUTE
    [Anonymous Symbol]                       0x00000000   Number         0  QtCore{00040703}-2034.o ABSOLUTE
    [Anonymous Symbol]                       0x00000000   Number         0  QtGui{00040703}-10077.o ABSOLUTE
    [Anonymous Symbol]                       0x00000000   Number         0  QtCore{00040703}-505.o ABSOLUTE
    [Anonymous Symbol]                       0x00000000   Number         0  QtCore{00040703}-2037.o ABSOLUTE
    [Anonymous Symbol]                       0x00000000   Number         0  QtGui{00040703}-10083.o ABSOLUTE
    [Anonymous Symbol]                       0x00000000   Number         0  QtCore{00040703}-56.o ABSOLUTE
    [Anonymous Symbol]                       0x00000000   Number         0  QtCore{00040703}-2038.o ABSOLUTE
    [Anonymous Symbol]                       0x00000000   Number         0  QtGui{00040703}-10094.o ABSOLUTE
    [Anonymous Symbol]                       0x00000000   Number         0  QtCore{00040703}-70.o ABSOLUTE
    [Anonymous Symbol]                       0x00000000   Number         0  QtCore{00040703}-2040.o ABSOLUTE
    [Anonymous Symbol]                       0x00000000   Number         0  QtGui{00040703}-10098.o ABSOLUTE
    [Anonymous Symbol]                       0x00000000   Number         0  QtCore{00040703}-73.o ABSOLUTE
    [Anonymous Symbol]                       0x00000000   Number         0  QtCore{00040703}-2042.o ABSOLUTE
    [Anonymous Symbol]                       0x00000000   Number         0  QtGui{00040703}-10106.o ABSOLUTE
    [Anonymous Symbol]                       0x00000000   Number         0  QtCore{00040703}-753.o ABSOLUTE
    [Anonymous Symbol]                       0x00000000   Number         0  QtCore{00040703}-2044.o ABSOLUTE
    [Anonymous Symbol]                       0x00000000   Number         0  QtGui{00040703}-10108.o ABSOLUTE
    [Anonymous Symbol]                       0x00000000   Number         0  QtCore{00040703}-756.o ABSOLUTE
    [Anonymous Symbol]                       0x00000000   Number         0  QtCore{00040703}-2082.o ABSOLUTE
    [Anonymous Symbol]                       0x00000000   Number         0  QtGui{00040703}-10119.o ABSOLUTE
    [Anonymous Symbol]                       0x00000000   Number         0  QtCore{00040703}-78.o ABSOLUTE
    [Anonymous Symbol]                       0x00000000   Number         0  QtCore{00040703}-2084.o ABSOLUTE
    [Anonymous Symbol]                       0x00000000   Number         0  QtGui{00040703}-10124.o ABSOLUTE
    [Anonymous Symbol]                       0x00000000   Number         0  QtCore{00040703}-94.o ABSOLUTE
    [Anonymous Symbol]                       0x00000000   Number         0  QtCore{00040703}-2134.o ABSOLUTE
    [Anonymous Symbol]                       0x00000000   Number         0  QtGui{00040703}-10127.o ABSOLUTE
    [Anonymous Symbol]                       0x00000000   Number         0  QtCore{00040703}-95.o ABSOLUTE
    [Anonymous Symbol]                       0x00000000   Number         0  QtCore{00040703}-2141.o ABSOLUTE
    [Anonymous Symbol]                       0x00000000   Number         0  QtGui{00040703}-10129.o ABSOLUTE
    [Anonymous Symbol]                       0x00000000   Number         0  libc{00010000}-232.o ABSOLUTE
    [Anonymous Symbol]                       0x00000000   Number         0  QtCore{00040703}-2142.o ABSOLUTE
    [Anonymous Symbol]                       0x00000000   Number         0  QtGui{00040703}-10130.o ABSOLUTE
    [Anonymous Symbol]                       0x00000000   Number         0  libc{00010000}-350.o ABSOLUTE
    [Anonymous Symbol]                       0x00000000   Number         0  QtCore{00040703}-2143.o ABSOLUTE
    [Anonymous Symbol]                       0x00000000   Number         0  QtGui{00040703}-10133.o ABSOLUTE
    [Anonymous Symbol]                       0x00000000   Number         0  libc{00010000}-364.o ABSOLUTE
    [Anonymous Symbol]                       0x00000000   Number         0  QtCore{00040703}-2144.o ABSOLUTE
    [Anonymous Symbol]                       0x00000000   Number         0  QtGui{00040703}-10135.o ABSOLUTE
    [Anonymous Symbol]                       0x00000000   Number         0  euser{000a0000}-1170.o ABSOLUTE
    [Anonymous Symbol]                       0x00000000   Number         0  QtCore{00040703}-2145.o ABSOLUTE
    [Anonymous Symbol]                       0x00000000   Number         0  QtGui{00040703}-10139.o ABSOLUTE
    [Anonymous Symbol]                       0x00000000   Number         0  euser{000a0000}-120.o ABSOLUTE
    [Anonymous Symbol]                       0x00000000   Number         0  QtCore{00040703}-2149.o ABSOLUTE
    [Anonymous Symbol]                       0x00000000   Number         0  QtGui{00040703}-10208.o ABSOLUTE
    [Anonymous Symbol]                       0x00000000   Number         0  euser{000a0000}-1719.o ABSOLUTE
    [Anonymous Symbol]                       0x00000000   Number         0  QtCore{00040703}-2152.o ABSOLUTE
    [Anonymous Symbol]                       0x00000000   Number         0  QtGui{00040703}-10222.o ABSOLUTE
    [Anonymous Symbol]                       0x00000000   Number         0  euser{000a0000}-1951.o ABSOLUTE
    [Anonymous Symbol]                       0x00000000   Number         0  QtCore{00040703}-2156.o ABSOLUTE
    [Anonymous Symbol]                       0x00000000   Number         0  QtGui{00040703}-10225.o ABSOLUTE
    [Anonymous Symbol]                       0x00000000   Number         0  euser{000a0000}-2060.o ABSOLUTE
    [Anonymous Symbol]                       0x00000000   Number         0  QtCore{00040703}-2157.o ABSOLUTE
    [Anonymous Symbol]                       0x00000000   Number         0  QtGui{00040703}-11460.o ABSOLUTE
    [Anonymous Symbol]                       0x00000000   Number         0  euser{000a0000}-2061.o ABSOLUTE
    [Anonymous Symbol]                       0x00000000   Number         0  QtCore{00040703}-2158.o ABSOLUTE
    [Anonymous Symbol]                       0x00000000   Number         0  QtGui{00040703}-11461.o ABSOLUTE
    [Anonymous Symbol]                       0x00000000   Number         0  euser{000a0000}-2082.o ABSOLUTE
    [Anonymous Symbol]                       0x00000000   Number         0  QtCore{00040703}-216.o ABSOLUTE
    [Anonymous Symbol]                       0x00000000   Number         0  QtGui{00040703}-11462.o ABSOLUTE
    [Anonymous Symbol]                       0x00000000   Number         0  euser{000a0000}-669.o ABSOLUTE
    [Anonymous Symbol]                       0x00000000   Number         0  QtCore{00040703}-2160.o ABSOLUTE
    [Anonymous Symbol]                       0x00000000   Number         0  QtGui{00040703}-11717.o ABSOLUTE
    [Anonymous Symbol]                       0x00000000   Number         0  euser{000a0000}-670.o ABSOLUTE
    [Anonymous Symbol]                       0x00000000   Number         0  QtCore{00040703}-2161.o ABSOLUTE
    [Anonymous Symbol]                       0x00000000   Number         0  QtGui{00040703}-1436.o ABSOLUTE
    [Anonymous Symbol]                       0x00000000   Number         0  euser{000a0000}-671.o ABSOLUTE
    [Anonymous Symbol]                       0x00000000   Number         0  QtCore{00040703}-2162.o ABSOLUTE
    [Anonymous Symbol]                       0x00000000   Number         0  QtGui{00040703}-1698.o ABSOLUTE
    [Anonymous Symbol]                       0x00000000   Number         0  euser{000a0000}-759.o ABSOLUTE
    [Anonymous Symbol]                       0x00000000   Number         0  QtCore{00040703}-2163.o ABSOLUTE
    [Anonymous Symbol]                       0x00000000   Number         0  QtGui{00040703}-1702.o ABSOLUTE
    [Anonymous Symbol]                       0x00000000   Number         0  euser{000a0000}-782.o ABSOLUTE
    [Anonymous Symbol]                       0x00000000   Number         0  QtCore{00040703}-2164.o ABSOLUTE
    [Anonymous Symbol]                       0x00000000   Number         0  QtGui{00040703}-1705.o ABSOLUTE
    [Anonymous Symbol]                       0x00000000   Number         0  QtCore{00040703}-286.o ABSOLUTE
    [Anonymous Symbol]                       0x00000000   Number         0  QtCore{00040703}-2166.o ABSOLUTE
    [Anonymous Symbol]                       0x00000000   Number         0  QtGui{00040703}-1711.o ABSOLUTE
    [Anonymous Symbol]                       0x00000000   Number         0  QtCore{00040703}-2907.o ABSOLUTE
    [Anonymous Symbol]                       0x00000000   Number         0  QtCore{00040703}-217.o ABSOLUTE
    [Anonymous Symbol]                       0x00000000   Number         0  QtGui{00040703}-2295.o ABSOLUTE
    [Anonymous Symbol]                       0x00000000   Number         0  QtCore{00040703}-2919.o ABSOLUTE
    [Anonymous Symbol]                       0x00000000   Number         0  QtCore{00040703}-2172.o ABSOLUTE
    [Anonymous Symbol]                       0x00000000   Number         0  QtGui{00040703}-2296.o ABSOLUTE
    [Anonymous Symbol]                       0x00000000   Number         0  QtCore{00040703}-2944.o ABSOLUTE
    [Anonymous Symbol]                       0x00000000   Number         0  QtCore{00040703}-2174.o ABSOLUTE
    [Anonymous Symbol]                       0x00000000   Number         0  QtGui{00040703}-2301.o ABSOLUTE
    [Anonymous Symbol]                       0x00000000   Number         0  QtCore{00040703}-3003.o ABSOLUTE
    [Anonymous Symbol]                       0x00000000   Number         0  QtCore{00040703}-2176.o ABSOLUTE
    [Anonymous Symbol]                       0x00000000   Number         0  QtGui{00040703}-2308.o ABSOLUTE
    [Anonymous Symbol]                       0x00000000   Number         0  QtCore{00040703}-3006.o ABSOLUTE
    [Anonymous Symbol]                       0x00000000   Number         0  QtCore{00040703}-2179.o ABSOLUTE
    [Anonymous Symbol]                       0x00000000   Number         0  QtGui{00040703}-2310.o ABSOLUTE
    [Anonymous Symbol]                       0x00000000   Number         0  QtCore{00040703}-3008.o ABSOLUTE
    [Anonymous Symbol]                       0x00000000   Number         0  QtCore{00040703}-2186.o ABSOLUTE
    [Anonymous Symbol]                       0x00000000   Number         0  QtGui{00040703}-2311.o ABSOLUTE
    [Anonymous Symbol]                       0x00000000   Number         0  QtCore{00040703}-3031.o ABSOLUTE
    [Anonymous Symbol]                       0x00000000   Number         0  QtCore{00040703}-2188.o ABSOLUTE
    [Anonymous Symbol]                       0x00000000   Number         0  QtGui{00040703}-2313.o ABSOLUTE
    [Anonymous Symbol]                       0x00000000   Number         0  QtCore{00040703}-3040.o ABSOLUTE
    [Anonymous Symbol]                       0x00000000   Number         0  QtCore{00040703}-2190.o ABSOLUTE
    [Anonymous Symbol]                       0x00000000   Number         0  QtGui{00040703}-2315.o ABSOLUTE
    [Anonymous Symbol]                       0x00000000   Number         0  QtCore{00040703}-3049.o ABSOLUTE
    [Anonymous Symbol]                       0x00000000   Number         0  QtCore{00040703}-2191.o ABSOLUTE
    [Anonymous Symbol]                       0x00000000   Number         0  QtGui{00040703}-2316.o ABSOLUTE
    [Anonymous Symbol]                       0x00000000   Number         0  QtCore{00040703}-3052.o ABSOLUTE
    [Anonymous Symbol]                       0x00000000   Number         0  QtCore{00040703}-2192.o ABSOLUTE
    [Anonymous Symbol]                       0x00000000   Number         0  QtGui{00040703}-2319.o ABSOLUTE
    [Anonymous Symbol]                       0x00000000   Number         0  QtCore{00040703}-3064.o ABSOLUTE
    [Anonymous Symbol]                       0x00000000   Number         0  QtCore{00040703}-2193.o ABSOLUTE
    [Anonymous Symbol]                       0x00000000   Number         0  QtGui{00040703}-2320.o ABSOLUTE
    [Anonymous Symbol]                       0x00000000   Number         0  QtCore{00040703}-3080.o ABSOLUTE
    [Anonymous Symbol]                       0x00000000   Number         0  QtCore{00040703}-2196.o ABSOLUTE
    [Anonymous Symbol]                       0x00000000   Number         0  QtGui{00040703}-2321.o ABSOLUTE
    [Anonymous Symbol]                       0x00000000   Number         0  QtCore{00040703}-3088.o ABSOLUTE
    [Anonymous Symbol]                       0x00000000   Number         0  QtCore{00040703}-2197.o ABSOLUTE
    [Anonymous Symbol]                       0x00000000   Number         0  QtGui{00040703}-2322.o ABSOLUTE
    [Anonymous Symbol]                       0x00000000   Number         0  QtCore{00040703}-3090.o ABSOLUTE
    [Anonymous Symbol]                       0x00000000   Number         0  QtCore{00040703}-2199.o ABSOLUTE
    [Anonymous Symbol]                       0x00000000   Number         0  QtGui{00040703}-2326.o ABSOLUTE
    [Anonymous Symbol]                       0x00000000   Number         0  QtCore{00040703}-3097.o ABSOLUTE
    [Anonymous Symbol]                       0x00000000   Number         0  QtCore{00040703}-2206.o ABSOLUTE
    [Anonymous Symbol]                       0x00000000   Number         0  QtGui{00040703}-2327.o ABSOLUTE
    [Anonymous Symbol]                       0x00000000   Number         0  QtCore{00040703}-3098.o ABSOLUTE
    [Anonymous Symbol]                       0x00000000   Number         0  QtCore{00040703}-2321.o ABSOLUTE
    [Anonymous Symbol]                       0x00000000   Number         0  QtGui{00040703}-2328.o ABSOLUTE
    [Anonymous Symbol]                       0x00000000   Number         0  QtCore{00040703}-3101.o ABSOLUTE
    [Anonymous Symbol]                       0x00000000   Number         0  QtCore{00040703}-2324.o ABSOLUTE
    [Anonymous Symbol]                       0x00000000   Number         0  QtGui{00040703}-2329.o ABSOLUTE
    [Anonymous Symbol]                       0x00000000   Number         0  QtCore{00040703}-312.o ABSOLUTE
    [Anonymous Symbol]                       0x00000000   Number         0  QtCore{00040703}-2392.o ABSOLUTE
    [Anonymous Symbol]                       0x00000000   Number         0  QtGui{00040703}-2331.o ABSOLUTE
    [Anonymous Symbol]                       0x00000000   Number         0  QtCore{00040703}-3129.o ABSOLUTE
    [Anonymous Symbol]                       0x00000000   Number         0  QtCore{00040703}-2409.o ABSOLUTE
    [Anonymous Symbol]                       0x00000000   Number         0  QtGui{00040703}-2332.o ABSOLUTE
    [Anonymous Symbol]                       0x00000000   Number         0  QtCore{00040703}-3136.o ABSOLUTE
    [Anonymous Symbol]                       0x00000000   Number         0  QtCore{00040703}-2416.o ABSOLUTE
    [Anonymous Symbol]                       0x00000000   Number         0  QtGui{00040703}-2333.o ABSOLUTE
    [Anonymous Symbol]                       0x00000000   Number         0  QtCore{00040703}-3139.o ABSOLUTE
    [Anonymous Symbol]                       0x00000000   Number         0  QtCore{00040703}-2418.o ABSOLUTE
    [Anonymous Symbol]                       0x00000000   Number         0  QtGui{00040703}-2336.o ABSOLUTE
    [Anonymous Symbol]                       0x00000000   Number         0  QtCore{00040703}-3142.o ABSOLUTE
    [Anonymous Symbol]                       0x00000000   Number         0  QtCore{00040703}-2422.o ABSOLUTE
    [Anonymous Symbol]                       0x00000000   Number         0  QtGui{00040703}-2342.o ABSOLUTE
    [Anonymous Symbol]                       0x00000000   Number         0  QtCore{00040703}-3143.o ABSOLUTE
    [Anonymous Symbol]                       0x00000000   Number         0  QtCore{00040703}-2495.o ABSOLUTE
    [Anonymous Symbol]                       0x00000000   Number         0  QtGui{00040703}-2343.o ABSOLUTE
    [Anonymous Symbol]                       0x00000000   Number         0  QtCore{00040703}-3149.o ABSOLUTE
    [Anonymous Symbol]                       0x00000000   Number         0  QtCore{00040703}-2497.o ABSOLUTE
    [Anonymous Symbol]                       0x00000000   Number         0  QtGui{00040703}-2359.o ABSOLUTE
    [Anonymous Symbol]                       0x00000000   Number         0  QtCore{00040703}-3151.o ABSOLUTE
    [Anonymous Symbol]                       0x00000000   Number         0  QtCore{00040703}-2500.o ABSOLUTE
    [Anonymous Symbol]                       0x00000000   Number         0  QtGui{00040703}-2360.o ABSOLUTE
    [Anonymous Symbol]                       0x00000000   Number         0  QtCore{00040703}-3163.o ABSOLUTE
    [Anonymous Symbol]                       0x00000000   Number         0  QtCore{00040703}-2508.o ABSOLUTE
    [Anonymous Symbol]                       0x00000000   Number         0  QtGui{00040703}-2362.o ABSOLUTE
    [Anonymous Symbol]                       0x00000000   Number         0  QtCore{00040703}-3165.o ABSOLUTE
    [Anonymous Symbol]                       0x00000000   Number         0  QtCore{00040703}-274.o ABSOLUTE
    [Anonymous Symbol]                       0x00000000   Number         0  QtGui{00040703}-2367.o ABSOLUTE
    [Anonymous Symbol]                       0x00000000   Number         0  QtCore{00040703}-3166.o ABSOLUTE
    [Anonymous Symbol]                       0x00000000   Number         0  QtCore{00040703}-275.o ABSOLUTE
    [Anonymous Symbol]                       0x00000000   Number         0  QtGui{00040703}-2378.o ABSOLUTE
    [Anonymous Symbol]                       0x00000000   Number         0  QtCore{00040703}-32.o ABSOLUTE
    [Anonymous Symbol]                       0x00000000   Number         0  QtCore{00040703}-276.o ABSOLUTE
    [Anonymous Symbol]                       0x00000000   Number         0  QtGui{00040703}-2426.o ABSOLUTE
    [Anonymous Symbol]                       0x00000000   Number         0  QtCore{00040703}-3229.o ABSOLUTE
    [Anonymous Symbol]                       0x00000000   Number         0  QtCore{00040703}-2791.o ABSOLUTE
    [Anonymous Symbol]                       0x00000000   Number         0  QtGui{00040703}-3345.o ABSOLUTE
    [Anonymous Symbol]                       0x00000000   Number         0  QtCore{00040703}-3231.o ABSOLUTE
    [Anonymous Symbol]                       0x00000000   Number         0  QtCore{00040703}-2795.o ABSOLUTE
    [Anonymous Symbol]                       0x00000000   Number         0  QtGui{00040703}-3346.o ABSOLUTE
    [Anonymous Symbol]                       0x00000000   Number         0  QtCore{00040703}-3232.o ABSOLUTE
    [Anonymous Symbol]                       0x00000000   Number         0  QtCore{00040703}-2802.o ABSOLUTE
    [Anonymous Symbol]                       0x00000000   Number         0  QtGui{00040703}-3358.o ABSOLUTE
    [Anonymous Symbol]                       0x00000000   Number         0  QtCore{00040703}-3233.o ABSOLUTE
    [Anonymous Symbol]                       0x00000000   Number         0  QtCore{00040703}-2811.o ABSOLUTE
    [Anonymous Symbol]                       0x00000000   Number         0  QtGui{00040703}-47.o ABSOLUTE
    [Anonymous Symbol]                       0x00000000   Number         0  QtCore{00040703}-3235.o ABSOLUTE
    [Anonymous Symbol]                       0x00000000   Number         0  QtCore{00040703}-282.o ABSOLUTE
    [Anonymous Symbol]                       0x00000000   Number         0  QtGui{00040703}-5620.o ABSOLUTE
    [Anonymous Symbol]                       0x00000000   Number         0  QtCore{00040703}-3236.o ABSOLUTE
    [Anonymous Symbol]                       0x00000000   Number         0  QtCore{00040703}-2823.o ABSOLUTE
    [Anonymous Symbol]                       0x00000000   Number         0  QtGui{00040703}-5622.o ABSOLUTE
    [Anonymous Symbol]                       0x00000000   Number         0  QtCore{00040703}-3237.o ABSOLUTE
    [Anonymous Symbol]                       0x00000000   Number         0  QtCore{00040703}-2838.o ABSOLUTE
    [Anonymous Symbol]                       0x00000000   Number         0  QtGui{00040703}-5627.o ABSOLUTE
    [Anonymous Symbol]                       0x00000000   Number         0  QtCore{00040703}-324.o ABSOLUTE
    [Anonymous Symbol]                       0x00000000   Number         0  QtCore{00040703}-2841.o ABSOLUTE
    [Anonymous Symbol]                       0x00000000   Number         0  QtGui{00040703}-5639.o ABSOLUTE
    [Anonymous Symbol]                       0x00000000   Number         0  QtCore{00040703}-331.o ABSOLUTE
    [Anonymous Symbol]                       0x00000000   Number         0  QtCore{00040703}-2842.o ABSOLUTE
    [Anonymous Symbol]                       0x00000000   Number         0  QtGui{00040703}-5643.o ABSOLUTE
    [Anonymous Symbol]                       0x00000000   Number         0  QtCore{00040703}-332.o ABSOLUTE
    [Anonymous Symbol]                       0x00000000   Number         0  QtCore{00040703}-2853.o ABSOLUTE
    [Anonymous Symbol]                       0x00000000   Number         0  QtGui{00040703}-5675.o ABSOLUTE
    [Anonymous Symbol]                       0x00000000   Number         0  QtCore{00040703}-335.o ABSOLUTE
    [Anonymous Symbol]                       0x00000000   Number         0  QtGui{00040703}-6213.o ABSOLUTE
    [Anonymous Symbol]                       0x00000000   Number         0  QtGui{00040703}-5682.o ABSOLUTE
    [Anonymous Symbol]                       0x00000000   Number         0  QtCore{00040703}-3474.o ABSOLUTE
    [Anonymous Symbol]                       0x00000000   Number         0  QtGui{00040703}-6223.o ABSOLUTE
    [Anonymous Symbol]                       0x00000000   Number         0  QtGui{00040703}-5713.o ABSOLUTE
    [Anonymous Symbol]                       0x00000000   Number         0  QtCore{00040703}-3475.o ABSOLUTE
    [Anonymous Symbol]                       0x00000000   Number         0  QtGui{00040703}-6224.o ABSOLUTE
    [Anonymous Symbol]                       0x00000000   Number         0  QtGui{00040703}-5730.o ABSOLUTE
    [Anonymous Symbol]                       0x00000000   Number         0  QtCore{00040703}-3483.o ABSOLUTE
    [Anonymous Symbol]                       0x00000000   Number         0  QtGui{00040703}-6225.o ABSOLUTE
    [Anonymous Symbol]                       0x00000000   Number         0  QtGui{00040703}-5735.o ABSOLUTE
    [Anonymous Symbol]                       0x00000000   Number         0  QtCore{00040703}-3583.o ABSOLUTE
    [Anonymous Symbol]                       0x00000000   Number         0  QtGui{00040703}-6226.o ABSOLUTE
    [Anonymous Symbol]                       0x00000000   Number         0  QtGui{00040703}-5748.o ABSOLUTE
    [Anonymous Symbol]                       0x00000000   Number         0  QtCore{00040703}-3584.o ABSOLUTE
    [Anonymous Symbol]                       0x00000000   Number         0  QtGui{00040703}-6232.o ABSOLUTE
    [Anonymous Symbol]                       0x00000000   Number         0  QtGui{00040703}-5750.o ABSOLUTE
    [Anonymous Symbol]                       0x00000000   Number         0  QtCore{00040703}-3585.o ABSOLUTE
    [Anonymous Symbol]                       0x00000000   Number         0  QtGui{00040703}-6235.o ABSOLUTE
    [Anonymous Symbol]                       0x00000000   Number         0  QtGui{00040703}-5826.o ABSOLUTE
    [Anonymous Symbol]                       0x00000000   Number         0  QtCore{00040703}-3607.o ABSOLUTE
    [Anonymous Symbol]                       0x00000000   Number         0  QtGui{00040703}-6236.o ABSOLUTE
    [Anonymous Symbol]                       0x00000000   Number         0  QtGui{00040703}-5832.o ABSOLUTE
    [Anonymous Symbol]                       0x00000000   Number         0  dfpaeabi{000a0000}-29.o ABSOLUTE
    [Anonymous Symbol]                       0x00000000   Number         0  QtGui{00040703}-6237.o ABSOLUTE
    [Anonymous Symbol]                       0x00000000   Number         0  QtGui{00040703}-5833.o ABSOLUTE
    [Anonymous Symbol]                       0x00000000   Number         0  dfpaeabi{000a0000}-36.o ABSOLUTE
    [Anonymous Symbol]                       0x00000000   Number         0  QtGui{00040703}-6239.o ABSOLUTE
    [Anonymous Symbol]                       0x00000000   Number         0  QtGui{00040703}-5834.o ABSOLUTE
    [Anonymous Symbol]                       0x00000000   Number         0  dfpaeabi{000a0000}-37.o ABSOLUTE
    [Anonymous Symbol]                       0x00000000   Number         0  QtGui{00040703}-6246.o ABSOLUTE
    [Anonymous Symbol]                       0x00000000   Number         0  QtGui{00040703}-5835.o ABSOLUTE
    [Anonymous Symbol]                       0x00000000   Number         0  dfpaeabi{000a0000}-39.o ABSOLUTE
    [Anonymous Symbol]                       0x00000000   Number         0  QtGui{00040703}-6247.o ABSOLUTE
    [Anonymous Symbol]                       0x00000000   Number         0  QtGui{00040703}-6004.o ABSOLUTE
    [Anonymous Symbol]                       0x00000000   Number         0  dfpaeabi{000a0000}-40.o ABSOLUTE
    [Anonymous Symbol]                       0x00000000   Number         0  QtGui{00040703}-6255.o ABSOLUTE
    [Anonymous Symbol]                       0x00000000   Number         0  QtGui{00040703}-6017.o ABSOLUTE
    [Anonymous Symbol]                       0x00000000   Number         0  dfpaeabi{000a0000}-42.o ABSOLUTE
    [Anonymous Symbol]                       0x00000000   Number         0  QtGui{00040703}-6265.o ABSOLUTE
    [Anonymous Symbol]                       0x00000000   Number         0  QtGui{00040703}-6050.o ABSOLUTE
    [Anonymous Symbol]                       0x00000000   Number         0  dfpaeabi{000a0000}-5.o ABSOLUTE
    [Anonymous Symbol]                       0x00000000   Number         0  QtGui{00040703}-6276.o ABSOLUTE
    [Anonymous Symbol]                       0x00000000   Number         0  QtGui{00040703}-6052.o ABSOLUTE
    [Anonymous Symbol]                       0x00000000   Number         0  dfpaeabi{000a0000}-6.o ABSOLUTE
    [Anonymous Symbol]                       0x00000000   Number         0  QtGui{00040703}-6279.o ABSOLUTE
    [Anonymous Symbol]                       0x00000000   Number         0  QtGui{00040703}-6063.o ABSOLUTE
    [Anonymous Symbol]                       0x00000000   Number         0  dfpaeabi{000a0000}-7.o ABSOLUTE
    [Anonymous Symbol]                       0x00000000   Number         0  QtGui{00040703}-6284.o ABSOLUTE
    [Anonymous Symbol]                       0x00000000   Number         0  QtGui{00040703}-6072.o ABSOLUTE
    [Anonymous Symbol]                       0x00000000   Number         0  dfpaeabi{000a0000}-8.o ABSOLUTE
    [Anonymous Symbol]                       0x00000000   Number         0  QtGui{00040703}-6293.o ABSOLUTE
    [Anonymous Symbol]                       0x00000000   Number         0  QtGui{00040703}-6075.o ABSOLUTE
    [Anonymous Symbol]                       0x00000000   Number         0  drtaeabi{000a0000}-135.o ABSOLUTE
    [Anonymous Symbol]                       0x00000000   Number         0  QtGui{00040703}-6295.o ABSOLUTE
    [Anonymous Symbol]                       0x00000000   Number         0  QtGui{00040703}-6084.o ABSOLUTE
    [Anonymous Symbol]                       0x00000000   Number         0  drtaeabi{000a0000}-139.o ABSOLUTE
    [Anonymous Symbol]                       0x00000000   Number         0  QtGui{00040703}-6308.o ABSOLUTE
    [Anonymous Symbol]                       0x00000000   Number         0  QtGui{00040703}-6088.o ABSOLUTE
    [Anonymous Symbol]                       0x00000000   Number         0  drtaeabi{000a0000}-144.o ABSOLUTE
    [Anonymous Symbol]                       0x00000000   Number         0  QtGui{00040703}-6311.o ABSOLUTE
    [Anonymous Symbol]                       0x00000000   Number         0  QtGui{00040703}-6166.o ABSOLUTE
    [Anonymous Symbol]                       0x00000000   Number         0  drtaeabi{000a0000}-146.o ABSOLUTE
    [Anonymous Symbol]                       0x00000000   Number         0  QtGui{00040703}-6314.o ABSOLUTE
    [Anonymous Symbol]                       0x00000000   Number         0  QtGui{00040703}-6167.o ABSOLUTE
    [Anonymous Symbol]                       0x00000000   Number         0  drtaeabi{000a0000}-147.o ABSOLUTE
    [Anonymous Symbol]                       0x00000000   Number         0  QtGui{00040703}-6316.o ABSOLUTE
    [Anonymous Symbol]                       0x00000000   Number         0  QtGui{00040703}-6168.o ABSOLUTE
    [Anonymous Symbol]                       0x00000000   Number         0  drtaeabi{000a0000}-155.o ABSOLUTE
    [Anonymous Symbol]                       0x00000000   Number         0  QtGui{00040703}-6318.o ABSOLUTE
    [Anonymous Symbol]                       0x00000000   Number         0  QtGui{00040703}-6169.o ABSOLUTE
    [Anonymous Symbol]                       0x00000000   Number         0  drtaeabi{000a0000}-158.o ABSOLUTE
    [Anonymous Symbol]                       0x00000000   Number         0  QtGui{00040703}-6319.o ABSOLUTE
    [Anonymous Symbol]                       0x00000000   Number         0  QtGui{00040703}-6172.o ABSOLUTE
    [Anonymous Symbol]                       0x00000000   Number         0  drtaeabi{000a0000}-180.o ABSOLUTE
    [Anonymous Symbol]                       0x00000000   Number         0  QtGui{00040703}-6324.o ABSOLUTE
    [Anonymous Symbol]                       0x00000000   Number         0  QtGui{00040703}-6174.o ABSOLUTE
    [Anonymous Symbol]                       0x00000000   Number         0  drtaeabi{000a0000}-183.o ABSOLUTE
    [Anonymous Symbol]                       0x00000000   Number         0  QtGui{00040703}-6455.o ABSOLUTE
    [Anonymous Symbol]                       0x00000000   Number         0  QtGui{00040703}-6175.o ABSOLUTE
    [Anonymous Symbol]                       0x00000000   Number         0  drtaeabi{000a0000}-184.o ABSOLUTE
    [Anonymous Symbol]                       0x00000000   Number         0  QtGui{00040703}-6479.o ABSOLUTE
    [Anonymous Symbol]                       0x00000000   Number         0  QtGui{00040703}-6178.o ABSOLUTE
    [Anonymous Symbol]                       0x00000000   Number         0  drtaeabi{000a0000}-186.o ABSOLUTE
    [Anonymous Symbol]                       0x00000000   Number         0  QtGui{00040703}-6499.o ABSOLUTE
    [Anonymous Symbol]                       0x00000000   Number         0  QtGui{00040703}-6179.o ABSOLUTE
    [Anonymous Symbol]                       0x00000000   Number         0  drtaeabi{000a0000}-187.o ABSOLUTE
    [Anonymous Symbol]                       0x00000000   Number         0  QtGui{00040703}-6508.o ABSOLUTE
    [Anonymous Symbol]                       0x00000000   Number         0  QtGui{00040703}-6180.o ABSOLUTE
    [Anonymous Symbol]                       0x00000000   Number         0  drtaeabi{000a0000}-188.o ABSOLUTE
    [Anonymous Symbol]                       0x00000000   Number         0  QtGui{00040703}-6525.o ABSOLUTE
    [Anonymous Symbol]                       0x00000000   Number         0  QtGui{00040703}-6183.o ABSOLUTE
    [Anonymous Symbol]                       0x00000000   Number         0  drtaeabi{000a0000}-189.o ABSOLUTE
    [Anonymous Symbol]                       0x00000000   Number         0  QtGui{00040703}-6527.o ABSOLUTE
    [Anonymous Symbol]                       0x00000000   Number         0  QtGui{00040703}-6184.o ABSOLUTE
    [Anonymous Symbol]                       0x00000000   Number         0  drtaeabi{000a0000}-190.o ABSOLUTE
    [Anonymous Symbol]                       0x00000000   Number         0  QtGui{00040703}-6528.o ABSOLUTE
    [Anonymous Symbol]                       0x00000000   Number         0  QtGui{00040703}-6185.o ABSOLUTE
    [Anonymous Symbol]                       0x00000000   Number         0  drtrvct2_2{000a0000}-28.o ABSOLUTE
    [Anonymous Symbol]                       0x00000000   Number         0  QtGui{00040703}-6533.o ABSOLUTE
    [Anonymous Symbol]                       0x00000000   Number         0  QtGui{00040703}-6190.o ABSOLUTE
    [Anonymous Symbol]                       0x00000000   Number         0  drtrvct2_2{000a0000}-44.o ABSOLUTE
    [Anonymous Symbol]                       0x00000000   Number         0  QtGui{00040703}-6544.o ABSOLUTE
    [Anonymous Symbol]                       0x00000000   Number         0  QtGui{00040703}-6191.o ABSOLUTE
    [Anonymous Symbol]                       0x00000000   Number         0  drtrvct2_2{000a0000}-45.o ABSOLUTE
    [Anonymous Symbol]                       0x00000000   Number         0  QtGui{00040703}-6545.o ABSOLUTE
    [Anonymous Symbol]                       0x00000000   Number         0  QtGui{00040703}-6194.o ABSOLUTE
    [Anonymous Symbol]                       0x00000000   Number         0  drtrvct2_2{000a0000}-49.o ABSOLUTE
    [Anonymous Symbol]                       0x00000000   Number         0  QtGui{00040703}-6549.o ABSOLUTE
    [Anonymous Symbol]                       0x00000000   Number         0  QtGui{00040703}-6208.o ABSOLUTE
    [Anonymous Symbol]                       0x00000000   Number         0  drtrvct2_2{000a0000}-50.o ABSOLUTE
    [Anonymous Symbol]                       0x00000000   Number         0  QtGui{00040703}-6558.o ABSOLUTE
    [Anonymous Symbol]                       0x00000000   Number         0  QtGui{00040703}-6209.o ABSOLUTE
    [Anonymous Symbol]                       0x00000000   Number         0  MmfDevSound{000a0000}-10.o ABSOLUTE
    [Anonymous Symbol]                       0x00000000   Number         0  QtGui{00040703}-6564.o ABSOLUTE
    [Anonymous Symbol]                       0x00000000   Number         0  QtGui{00040703}-6210.o ABSOLUTE
    [Anonymous Symbol]                       0x00000000   Number         0  MmfDevSound{000a0000}-17.o ABSOLUTE
    [Anonymous Symbol]                       0x00000000   Number         0  QtGui{00040703}-6573.o ABSOLUTE
    [Anonymous Symbol]                       0x00000000   Number         0  QtGui{00040703}-6212.o ABSOLUTE
    [Anonymous Symbol]                       0x00000000   Number         0  MmfDevSound{000a0000}-2.o ABSOLUTE
    [Anonymous Symbol]                       0x00000000   Number         0  QtGui{00040703}-67.o ABSOLUTE
    [Anonymous Symbol]                       0x00000000   Number         0  QtCore{00040703}-1787.o ABSOLUTE
    [Anonymous Symbol]                       0x00000000   Number         0  MmfDevSound{000a0000}-27.o ABSOLUTE
    [Anonymous Symbol]                       0x00000000   Number         0  QtGui{00040703}-7523.o ABSOLUTE
    [Anonymous Symbol]                       0x00000000   Number         0  QtCore{00040703}-1789.o ABSOLUTE
    [Anonymous Symbol]                       0x00000000   Number         0  MmfDevSound{000a0000}-28.o ABSOLUTE
    [Anonymous Symbol]                       0x00000000   Number         0  QtGui{00040703}-8128.o ABSOLUTE
    [Anonymous Symbol]                       0x00000000   Number         0  QtCore{00040703}-1794.o ABSOLUTE
    [Anonymous Symbol]                       0x00000000   Number         0  MmfDevSound{000a0000}-3.o ABSOLUTE
    [Anonymous Symbol]                       0x00000000   Number         0  dfpaeabi{000a0000}-12.o ABSOLUTE
    [Anonymous Symbol]                       0x00000000   Number         0  QtCore{00040703}-1814.o ABSOLUTE
    [Anonymous Symbol]                       0x00000000   Number         0  MmfDevSound{000a0000}-33.o ABSOLUTE
    [Anonymous Symbol]                       0x00000000   Number         0  dfpaeabi{000a0000}-2.o ABSOLUTE
    [Anonymous Symbol]                       0x00000000   Number         0  QtCore{00040703}-1825.o ABSOLUTE
    [Anonymous Symbol]                       0x00000000   Number         0  MmfDevSound{000a0000}-35.o ABSOLUTE
    [Anonymous Symbol]                       0x00000000   Number         0  dfpaeabi{000a0000}-20.o ABSOLUTE
    [Anonymous Symbol]                       0x00000000   Number         0  QtCore{00040703}-1826.o ABSOLUTE
    [Anonymous Symbol]                       0x00000000   Number         0  MmfDevSound{000a0000}-42.o ABSOLUTE
    [Anonymous Symbol]                       0x00000000   Number         0  dfpaeabi{000a0000}-24.o ABSOLUTE
    [Anonymous Symbol]                       0x00000000   Number         0  QtCore{00040703}-1830.o ABSOLUTE
    [Anonymous Symbol]                       0x00000000   Number         0  MmfDevSound{000a0000}-5.o ABSOLUTE
    [Anonymous Symbol]                       0x00000000   Number         0  dfpaeabi{000a0000}-25.o ABSOLUTE
    [Anonymous Symbol]                       0x00000000   Number         0  QtCore{00040703}-1836.o ABSOLUTE
    [Anonymous Symbol]                       0x00000000   Number         0  QtCore{00040703}-1631.o ABSOLUTE
    [Anonymous Symbol]                       0x00000000   Number         0  QtGui{00040703}-9807.o ABSOLUTE
    [Anonymous Symbol]                       0x00000000   Number         0  QtGui{00040703}-8460.o ABSOLUTE
    [Anonymous Symbol]                       0x00000000   Number         0  QtCore{00040703}-1633.o ABSOLUTE
    [Anonymous Symbol]                       0x00000000   Number         0  QtGui{00040703}-9856.o ABSOLUTE
    [Anonymous Symbol]                       0x00000000   Number         0  QtGui{00040703}-8472.o ABSOLUTE
    [Anonymous Symbol]                       0x00000000   Number         0  QtCore{00040703}-1634.o ABSOLUTE
    [Anonymous Symbol]                       0x00000000   Number         0  QtNetwork{00040703}-322.o ABSOLUTE
    [Anonymous Symbol]                       0x00000000   Number         0  QtGui{00040703}-8477.o ABSOLUTE
    [Anonymous Symbol]                       0x00000000   Number         0  QtCore{00040703}-1639.o ABSOLUTE
    [Anonymous Symbol]                       0x00000000   Number         0  QtNetwork{00040703}-323.o ABSOLUTE
    [Anonymous Symbol]                       0x00000000   Number         0  QtGui{00040703}-8478.o ABSOLUTE
    [Anonymous Symbol]                       0x00000000   Number         0  QtCore{00040703}-1642.o ABSOLUTE
    [Anonymous Symbol]                       0x00000000   Number         0  QtNetwork{00040703}-326.o ABSOLUTE
    [Anonymous Symbol]                       0x00000000   Number         0  QtGui{00040703}-8488.o ABSOLUTE
    [Anonymous Symbol]                       0x00000000   Number         0  QtCore{00040703}-1670.o ABSOLUTE
    [Anonymous Symbol]                       0x00000000   Number         0  QtNetwork{00040703}-478.o ABSOLUTE
    [Anonymous Symbol]                       0x00000000   Number         0  QtGui{00040703}-8496.o ABSOLUTE
    [Anonymous Symbol]                       0x00000000   Number         0  QtCore{00040703}-1671.o ABSOLUTE
    [Anonymous Symbol]                       0x00000000   Number         0  QtNetwork{00040703}-481.o ABSOLUTE
    [Anonymous Symbol]                       0x00000000   Number         0  QtGui{00040703}-8525.o ABSOLUTE
    [Anonymous Symbol]                       0x00000000   Number         0  QtCore{00040703}-1674.o ABSOLUTE
    [Anonymous Symbol]                       0x00000000   Number         0  QtNetwork{00040703}-488.o ABSOLUTE
    [Anonymous Symbol]                       0x00000000   Number         0  QtGui{00040703}-8743.o ABSOLUTE
    [Anonymous Symbol]                       0x00000000   Number         0  QtCore{00040703}-1676.o ABSOLUTE
    [Anonymous Symbol]                       0x00000000   Number         0  QtNetwork{00040703}-754.o ABSOLUTE
    [Anonymous Symbol]                       0x00000000   Number         0  QtGui{00040703}-9726.o ABSOLUTE
    [Anonymous Symbol]                       0x00000000   Number         0  QtCore{00040703}-1678.o ABSOLUTE
    [Anonymous Symbol]                       0x00000000   Number         0  QtNetwork{00040703}-756.o ABSOLUTE
    [Anonymous Symbol]                       0x00000000   Number         0  QtGui{00040703}-9778.o ABSOLUTE
    [Anonymous Symbol]                       0x00000000   Number         0  QtCore{00040703}-168.o ABSOLUTE
    [Anonymous Symbol]                       0x00000000   Number         0  QtNetwork{00040703}-758.o ABSOLUTE
    [Anonymous Symbol]                       0x00000000   Number         0  QtGui{00040703}-9785.o ABSOLUTE
    [Anonymous Symbol]                       0x00000000   Number         0  QtCore{00040703}-1706.o ABSOLUTE
    [Anonymous Symbol]                       0x00000000   Number         0  QtNetwork{00040703}-799.o ABSOLUTE
    [Anonymous Symbol]                       0x00000000   Number         0  QtGui{00040703}-9796.o ABSOLUTE
    [Anonymous Symbol]                       0x00000000   Number         0  QtCore{00040703}-1710.o ABSOLUTE
    [Anonymous Symbol]                       0x00000000   Number         0  QtNetwork{00040703}-803.o ABSOLUTE
    [Anonymous Symbol]                       0x00000000   Number         0  QtGui{00040703}-9805.o ABSOLUTE
    [Anonymous Symbol]                       0x00000000   Number         0  QtCore{00040703}-1713.o ABSOLUTE
    [Anonymous Symbol]                       0x00000000   Number         0  QtCore{00040703}-104.o ABSOLUTE
    [Anonymous Symbol]                       0x00000000   Number         0  QtCore{00040703}-1773.o ABSOLUTE
    [Anonymous Symbol]                       0x00000000   Number         0  QtCore{00040703}-1714.o ABSOLUTE
    [Anonymous Symbol]                       0x00000000   Number         0  QtCore{00040703}-109.o ABSOLUTE
    [Anonymous Symbol]                       0x00000000   Number         0  QtCore{00040703}-1777.o ABSOLUTE
    [Anonymous Symbol]                       0x00000000   Number         0  QtCore{00040703}-1715.o ABSOLUTE
    [Anonymous Symbol]                       0x00000000   Number         0  QtCore{00040703}-141.o ABSOLUTE
    [Anonymous Symbol]                       0x00000000   Number         0  QtCore{00040703}-1780.o ABSOLUTE
    [Anonymous Symbol]                       0x00000000   Number         0  QtCore{00040703}-1717.o ABSOLUTE
    [Anonymous Symbol]                       0x00000000   Number         0  QtCore{00040703}-1453.o ABSOLUTE
    [Anonymous Symbol]                       0x00000000   Number         0  QtCore{00040703}-1781.o ABSOLUTE
    [Anonymous Symbol]                       0x00000000   Number         0  QtCore{00040703}-1760.o ABSOLUTE
    [Anonymous Symbol]                       0x00000000   Number         0  QtCore{00040703}-1471.o ABSOLUTE
    [Anonymous Symbol]                       0x00000000   Number         0  QtCore{00040703}-1784.o ABSOLUTE
    [Anonymous Symbol]                       0x00000000   Number         0  QtCore{00040703}-1761.o ABSOLUTE
    [Anonymous Symbol]                       0x00000000   Number         0  QtCore{00040703}-1477.o ABSOLUTE
    [Anonymous Symbol]                       0x00000000   Number         0  QtCore{00040703}-1785.o ABSOLUTE
    [Anonymous Symbol]                       0x00000000   Number         0  QtCore{00040703}-1762.o ABSOLUTE
    [Anonymous Symbol]                       0x00000000   Number         0  QtCore{00040703}-150.o ABSOLUTE
    [Anonymous Symbol]                       0x00000000   Number         0  QtCore{00040703}-1767.o ABSOLUTE
    [Anonymous Symbol]                       0x00000000   Number         0  QtCore{00040703}-1763.o ABSOLUTE
    [Anonymous Symbol]                       0x00000000   Number         0  QtCore{00040703}-1525.o ABSOLUTE
    [Anonymous Symbol]                       0x00000000   Number         0  QtCore{00040703}-1768.o ABSOLUTE
    [Anonymous Symbol]                       0x00000000   Number         0  QtCore{00040703}-1764.o ABSOLUTE
    [Anonymous Symbol]                       0x00000000   Number         0  QtCore{00040703}-1526.o ABSOLUTE
    [Anonymous Symbol]                       0x00000000   Number         0  QtCore{00040703}-1769.o ABSOLUTE
    [Anonymous Symbol]                       0x00000000   Number         0  QtCore{00040703}-1765.o ABSOLUTE
    [Anonymous Symbol]                       0x00000000   Number         0  QtCore{00040703}-1531.o ABSOLUTE
    [Anonymous Symbol]                       0x00000000   Number         0  QtGui{00040703}-8408.o ABSOLUTE
    [Anonymous Symbol]                       0x00000000   Number         0  QtCore{00040703}-1766.o ABSOLUTE
    [Anonymous Symbol]                       0x00000000   Number         0  QtCore{00040703}-1534.o ABSOLUTE
    [Anonymous Symbol]                       0x00000000   Number         0  QtGui{00040703}-8422.o ABSOLUTE
    [Anonymous Symbol]                       0x00000000   Number         0  QtCore{00040703}-1603.o ABSOLUTE
    [Anonymous Symbol]                       0x00000000   Number         0  QtCore{00040703}-159.o ABSOLUTE
    [Anonymous Symbol]                       0x00000000   Number         0  QtGui{00040703}-8449.o ABSOLUTE
    [Anonymous Symbol]                       0x00000000   Number         0  QtCore{00040703}-1622.o ABSOLUTE
    [Anonymous Symbol]                       0x00000000   Number         0  QtGui{00040703}-8453.o ABSOLUTE
    [Anonymous Symbol]                       0x00000000   Number         0  QtGui{00040703}-8450.o ABSOLUTE
    [Anonymous Symbol]                       0x00000000   Number         0  drtrvct2_2{000a0000}-51.o ABSOLUTE
    [Anonymous Symbol]                       0x00000000   Number         0  drtrvct2_2{000a0000}-59.o ABSOLUTE
    [Anonymous Symbol]                       0x00000000   Number         0  drtrvct2_2{000a0000}-57.o ABSOLUTE
    [Anonymous Symbol]                       0x00000000   Number         0  drtrvct2_2{000a0000}-56.o ABSOLUTE
    [Anonymous Symbol]                       0x00000000   Number         0  drtrvct2_2{000a0000}-64.o ABSOLUTE
    [Anonymous Symbol]                       0x00000000   Number         0  drtrvct2_2{000a0000}-65.o ABSOLUTE
    ..\..\..\..\EPOC32\BUILD\s60\osext\mobileruntime\group\LIBSTDCPP\ARMV5\VtblExports.s 0x00000000   Number         0  VtblExports.o ABSOLUTE
    \EPOC32\BUILD\ncp_sw\corecom\aasw\DevSound\group\MMFDEVSOUND\ARMV5\VtblExports.s 0x00000000   Number         0  VtblExports.o ABSOLUTE
    \EPOC32\BUILD\src\cedar\generic\base\e32\compsupp\DRTAEABI\ARMV5\VtblExports.s 0x00000000   Number         0  VtblExports.o ABSOLUTE
    \EPOC32\BUILD\src\cedar\generic\base\e32\euser\EDLL\ARMV5\urel\uc_dll_.cpp 0x00000000   Number         0  uc_dll_.o ABSOLUTE
    \EPOC32\BUILD\src\cedar\generic\base\e32\euser\EUSER\ARMV5\VtblExports.s 0x00000000   Number         0  VtblExports.o ABSOLUTE
    \EPOC32\BUILD\src\cedar\generic\base\f32\group\EFSRV\ARMV5\VtblExports.s 0x00000000   Number         0  VtblExports.o ABSOLUTE
    \EPOC32\BUILD\wk29\stdlibs\group\LIBC\ARMV5\VtblExports.s 0x00000000   Number         0  VtblExports.o ABSOLUTE
    \EPOC32\BUILD\wk29\stdlibs\group\LIBDL\ARMV5\VtblExports.s 0x00000000   Number         0  VtblExports.o ABSOLUTE
    \EPOC32\BUILD\wk29\stdlibs\group\LIBM\ARMV5\VtblExports.s 0x00000000   Number         0  VtblExports.o ABSOLUTE
    \EPOC32\BUILD\wk29\stdlibs\group\LIBPTHREAD\ARMV5\VtblExports.s 0x00000000   Number         0  VtblExports.o ABSOLUTE
    \\EPOC32\\BUILD\\src\\cedar\\generic\\base\\e32\\euser\\EDLL\\ARMV5\\urel\\uc_dll_.cpp 0x00000000   Number         0  uc_dll_.o ABSOLUTE
    \\src\\cedar\\generic\\base\\e32\\compsupp\\RVCT2_2\\ucppinit_aeabi.cpp 0x00000000   Number         0  ucppinit_aeabi.o ABSOLUTE
    \dev\symb\SDKs\32\EPOC32\BUILD\iwmake\buildS60____PADDING________\src\QTCORE_DLL\ARMV6\VtblExports.s 0x00000000   Number         0  VtblExports.o ABSOLUTE
    \dev\symb\SDKs\32\EPOC32\BUILD\iwmake\buildS60____PADDING________\src\QTGUI_DLL\ARMV6\VtblExports.s 0x00000000   Number         0  VtblExports.o ABSOLUTE
    \dev\symb\SDKs\32\EPOC32\BUILD\iwmake\buildS60____PADDING________\src\QTNETWORK_DLL\ARMV6\VtblExports.s 0x00000000   Number         0  VtblExports.o ABSOLUTE
    \s60\5.0\EPOC32\BUILD\scripts\5.0\qtmobility\QTMULTIMEDIAKIT_DLL\ARMV5\urel\QtMultimediaKit{00010103}.s 0x00000000   Number         0  QtMultimediaKit{00010103}.exp ABSOLUTE
    \scripts\5.0\qtmobility\build\Release\QtMultimediaKit\moc\moc_qaudio_symbian_p.cpp 0x00000000   Number         0  QtMultimediaKit.in ABSOLUTE
    \scripts\5.0\qtmobility\src\multimedia\audio\qaudio.cpp 0x00000000   Number         0  QtMultimediaKit.in ABSOLUTE
    \scripts\5.0\qtmobility\src\multimedia\audio\qaudio_symbian_p.cpp 0x00000000   Number         0  QtMultimediaKit.in ABSOLUTE
    \scripts\5.0\qtmobility\src\multimedia\audio\qaudiodevicefactory.cpp 0x00000000   Number         0  QtMultimediaKit.in ABSOLUTE
    \scripts\5.0\qtmobility\src\multimedia\audio\qaudiodeviceinfo.cpp 0x00000000   Number         0  QtMultimediaKit.in ABSOLUTE
    \scripts\5.0\qtmobility\src\multimedia\audio\qaudiodeviceinfo_symbian_p.cpp 0x00000000   Number         0  QtMultimediaKit.in ABSOLUTE
    \scripts\5.0\qtmobility\src\multimedia\audio\qaudioformat.cpp 0x00000000   Number         0  QtMultimediaKit.in ABSOLUTE
    \scripts\5.0\qtmobility\src\multimedia\audio\qaudioinput.cpp 0x00000000   Number         0  QtMultimediaKit.in ABSOLUTE
    \scripts\5.0\qtmobility\src\multimedia\audio\qaudioinput_symbian_p.cpp 0x00000000   Number         0  QtMultimediaKit.in ABSOLUTE
    \scripts\5.0\qtmobility\src\multimedia\audio\qaudiooutput.cpp 0x00000000   Number         0  QtMultimediaKit.in ABSOLUTE
    \scripts\5.0\qtmobility\src\multimedia\audio\qaudiooutput_symbian_p.cpp 0x00000000   Number         0  QtMultimediaKit.in ABSOLUTE
    \scripts\5.0\qtmobility\src\multimedia\audio\qaudiopluginloader.cpp 0x00000000   Number         0  QtMultimediaKit.in ABSOLUTE
    \scripts\5.0\qtmobility\src\multimedia\audio\qaudiosystem.cpp 0x00000000   Number         0  QtMultimediaKit.in ABSOLUTE
    \scripts\5.0\qtmobility\src\multimedia\audio\qaudiosystemplugin.cpp 0x00000000   Number         0  QtMultimediaKit.in ABSOLUTE
    \scripts\5.0\qtmobility\src\multimedia\effects\qsoundeffect.cpp 0x00000000   Number         0  QtMultimediaKit.in ABSOLUTE
    \scripts\5.0\qtmobility\src\multimedia\effects\qsoundeffect_qsound_p.cpp 0x00000000   Number         0  QtMultimediaKit.in ABSOLUTE
    \scripts\5.0\qtmobility\src\multimedia\effects\qwavedecoder_p.cpp 0x00000000   Number         0  QtMultimediaKit.in ABSOLUTE
    \scripts\5.0\qtmobility\src\multimedia\qaudiocapturesource.cpp 0x00000000   Number         0  QtMultimediaKit.in ABSOLUTE
    \scripts\5.0\qtmobility\src\multimedia\qaudioencodercontrol.cpp 0x00000000   Number         0  QtMultimediaKit.in ABSOLUTE
    \scripts\5.0\qtmobility\src\multimedia\qaudioendpointselector.cpp 0x00000000   Number         0  QtMultimediaKit.in ABSOLUTE
    \scripts\5.0\qtmobility\src\multimedia\qcamera.cpp 0x00000000   Number         0  QtMultimediaKit.in ABSOLUTE
    \scripts\5.0\qtmobility\src\multimedia\qcameracontrol.cpp 0x00000000   Number         0  QtMultimediaKit.in ABSOLUTE
    \scripts\5.0\qtmobility\src\multimedia\qcameraexposure.cpp 0x00000000   Number         0  QtMultimediaKit.in ABSOLUTE
    \scripts\5.0\qtmobility\src\multimedia\qcameraexposurecontrol.cpp 0x00000000   Number         0  QtMultimediaKit.in ABSOLUTE
    \scripts\5.0\qtmobility\src\multimedia\qcameraflashcontrol.cpp 0x00000000   Number         0  QtMultimediaKit.in ABSOLUTE
    \scripts\5.0\qtmobility\src\multimedia\qcamerafocus.cpp 0x00000000   Number         0  QtMultimediaKit.in ABSOLUTE
    \scripts\5.0\qtmobility\src\multimedia\qcamerafocuscontrol.cpp 0x00000000   Number         0  QtMultimediaKit.in ABSOLUTE
    \scripts\5.0\qtmobility\src\multimedia\qcameraimagecapture.cpp 0x00000000   Number         0  QtMultimediaKit.in ABSOLUTE
    \scripts\5.0\qtmobility\src\multimedia\qcameraimagecapturecontrol.cpp 0x00000000   Number         0  QtMultimediaKit.in ABSOLUTE
    \scripts\5.0\qtmobility\src\multimedia\qcameraimageprocessing.cpp 0x00000000   Number         0  QtMultimediaKit.in ABSOLUTE
    \scripts\5.0\qtmobility\src\multimedia\qcameraimageprocessingcontrol.cpp 0x00000000   Number         0  QtMultimediaKit.in ABSOLUTE
    \scripts\5.0\qtmobility\src\multimedia\qcameralockscontrol.cpp 0x00000000   Number         0  QtMultimediaKit.in ABSOLUTE
    \scripts\5.0\qtmobility\src\multimedia\qcameraviewfinder.cpp 0x00000000   Number         0  QtMultimediaKit.in ABSOLUTE
    \scripts\5.0\qtmobility\src\multimedia\qgraphicsvideoitem_overlay.cpp 0x00000000   Number         0  QtMultimediaKit.in ABSOLUTE
    \scripts\5.0\qtmobility\src\multimedia\qimageencodercontrol.cpp 0x00000000   Number         0  QtMultimediaKit.in ABSOLUTE
    \scripts\5.0\qtmobility\src\multimedia\qlocalmediaplaylistprovider.cpp 0x00000000   Number         0  QtMultimediaKit.in ABSOLUTE
    \scripts\5.0\qtmobility\src\multimedia\qmediabindableinterface.cpp 0x00000000   Number         0  QtMultimediaKit.in ABSOLUTE
    \scripts\5.0\qtmobility\src\multimedia\qmediacontainercontrol.cpp 0x00000000   Number         0  QtMultimediaKit.in ABSOLUTE
    \scripts\5.0\qtmobility\src\multimedia\qmediacontent.cpp 0x00000000   Number         0  QtMultimediaKit.in ABSOLUTE
    \scripts\5.0\qtmobility\src\multimedia\qmediacontrol.cpp 0x00000000   Number         0  QtMultimediaKit.in ABSOLUTE
    \scripts\5.0\qtmobility\src\multimedia\qmediaencodersettings.cpp 0x00000000   Number         0  QtMultimediaKit.in ABSOLUTE
    \scripts\5.0\qtmobility\src\multimedia\qmediaimageviewer.cpp 0x00000000   Number         0  QtMultimediaKit.in ABSOLUTE
    \scripts\5.0\qtmobility\src\multimedia\qmediaimageviewerservice.cpp 0x00000000   Number         0  QtMultimediaKit.in ABSOLUTE
    \scripts\5.0\qtmobility\src\multimedia\qmediaobject.cpp 0x00000000   Number         0  QtMultimediaKit.in ABSOLUTE
    \scripts\5.0\qtmobility\src\multimedia\qmediaplayer.cpp 0x00000000   Number         0  QtMultimediaKit.in ABSOLUTE
    \scripts\5.0\qtmobility\src\multimedia\qmediaplayercontrol.cpp 0x00000000   Number         0  QtMultimediaKit.in ABSOLUTE
    \scripts\5.0\qtmobility\src\multimedia\qmediaplaylist.cpp 0x00000000   Number         0  QtMultimediaKit.in ABSOLUTE
    \scripts\5.0\qtmobility\src\multimedia\qmediaplaylistcontrol.cpp 0x00000000   Number         0  QtMultimediaKit.in ABSOLUTE
    \scripts\5.0\qtmobility\src\multimedia\qmediaplaylistioplugin.cpp 0x00000000   Number         0  QtMultimediaKit.in ABSOLUTE
    \scripts\5.0\qtmobility\src\multimedia\qmediaplaylistnavigator.cpp 0x00000000   Number         0  QtMultimediaKit.in ABSOLUTE
    \scripts\5.0\qtmobility\src\multimedia\qmediaplaylistprovider.cpp 0x00000000   Number         0  QtMultimediaKit.in ABSOLUTE
    \scripts\5.0\qtmobility\src\multimedia\qmediaplaylistsourcecontrol.cpp 0x00000000   Number         0  QtMultimediaKit.in ABSOLUTE
    \scripts\5.0\qtmobility\src\multimedia\qmediapluginloader.cpp 0x00000000   Number         0  QtMultimediaKit.in ABSOLUTE
    \scripts\5.0\qtmobility\src\multimedia\qmediarecorder.cpp 0x00000000   Number         0  QtMultimediaKit.in ABSOLUTE
    \scripts\5.0\qtmobility\src\multimedia\qmediarecordercontrol.cpp 0x00000000   Number         0  QtMultimediaKit.in ABSOLUTE
    \scripts\5.0\qtmobility\src\multimedia\qmediaresource.cpp 0x00000000   Number         0  QtMultimediaKit.in ABSOLUTE
    \scripts\5.0\qtmobility\src\multimedia\qmediaservice.cpp 0x00000000   Number         0  QtMultimediaKit.in ABSOLUTE
    \scripts\5.0\qtmobility\src\multimedia\qmediaserviceprovider.cpp 0x00000000   Number         0  QtMultimediaKit.in ABSOLUTE
    \scripts\5.0\qtmobility\src\multimedia\qmediastreamscontrol.cpp 0x00000000   Number         0  QtMultimediaKit.in ABSOLUTE
    \scripts\5.0\qtmobility\src\multimedia\qmediatimerange.cpp 0x00000000   Number         0  QtMultimediaKit.in ABSOLUTE
    \scripts\5.0\qtmobility\src\multimedia\qmetadatareadercontrol.cpp 0x00000000   Number         0  QtMultimediaKit.in ABSOLUTE
    \scripts\5.0\qtmobility\src\multimedia\qmetadatawritercontrol.cpp 0x00000000   Number         0  QtMultimediaKit.in ABSOLUTE
    \scripts\5.0\qtmobility\src\multimedia\qpaintervideosurface.cpp 0x00000000   Number         0  QtMultimediaKit.in ABSOLUTE
    \scripts\5.0\qtmobility\src\multimedia\qradiotuner.cpp 0x00000000   Number         0  QtMultimediaKit.in ABSOLUTE
    \scripts\5.0\qtmobility\src\multimedia\qradiotunercontrol.cpp 0x00000000   Number         0  QtMultimediaKit.in ABSOLUTE
    \scripts\5.0\qtmobility\src\multimedia\qvideodevicecontrol.cpp 0x00000000   Number         0  QtMultimediaKit.in ABSOLUTE
    \scripts\5.0\qtmobility\src\multimedia\qvideoencodercontrol.cpp 0x00000000   Number         0  QtMultimediaKit.in ABSOLUTE
    \scripts\5.0\qtmobility\src\multimedia\qvideorenderercontrol.cpp 0x00000000   Number         0  QtMultimediaKit.in ABSOLUTE
    \scripts\5.0\qtmobility\src\multimedia\qvideowidget.cpp 0x00000000   Number         0  QtMultimediaKit.in ABSOLUTE
    \scripts\5.0\qtmobility\src\multimedia\qvideowidgetcontrol.cpp 0x00000000   Number         0  QtMultimediaKit.in ABSOLUTE
    \scripts\5.0\qtmobility\src\multimedia\qvideowindowcontrol.cpp 0x00000000   Number         0  QtMultimediaKit.in ABSOLUTE
    \scripts\5.0\qtmobility\src\multimedia\video\qabstractvideobuffer.cpp 0x00000000   Number         0  QtMultimediaKit.in ABSOLUTE
    \scripts\5.0\qtmobility\src\multimedia\video\qabstractvideosurface.cpp 0x00000000   Number         0  QtMultimediaKit.in ABSOLUTE
    \scripts\5.0\qtmobility\src\multimedia\video\qimagevideobuffer.cpp 0x00000000   Number         0  QtMultimediaKit.in ABSOLUTE
    \scripts\5.0\qtmobility\src\multimedia\video\qmemoryvideobuffer.cpp 0x00000000   Number         0  QtMultimediaKit.in ABSOLUTE
    \scripts\5.0\qtmobility\src\multimedia\video\qvideoframe.cpp 0x00000000   Number         0  QtMultimediaKit.in ABSOLUTE
    \scripts\5.0\qtmobility\src\multimedia\video\qvideosurfaceformat.cpp 0x00000000   Number         0  QtMultimediaKit.in ABSOLUTE
    \src\cedar\generic\base\e32\compsupp\RVCT2_2\ucppfini.cpp 0x00000000   Number         0  ucppfini.o ABSOLUTE
    \src\cedar\generic\base\e32\compsupp\RVCT2_2\ucppinit_aeabi.cpp 0x00000000   Number         0  ucppinit_aeabi.o ABSOLUTE
    \src\cedar\generic\base\e32\euser\epoc\arm\uc_dll.cpp 0x00000000   Number         0  uc_dll.o ABSOLUTE
    .emb_text                                0x00008000   Section       40  uc_dll_.o(.emb_text)
    .emb_text                                0x00008028   Section       72  ucppinit_aeabi.o(.emb_text)
    skip                                     0x0000803c   ARM Code       0  ucppinit_aeabi.o(.emb_text)
    loop                                     0x0000804c   ARM Code       0  ucppinit_aeabi.o(.emb_text)
    fpinit                                   0x00008064   Data           0  ucppinit_aeabi.o(.emb_text)
    base                                     0x00008068   Data           0  ucppinit_aeabi.o(.emb_text)
    limit                                    0x0000806c   Data           0  ucppinit_aeabi.o(.emb_text)
    .text                                    0x00008070   Section      256  QtMultimediaKit.in(.text)
    .text                                    0x00008170   Section      180  QtMultimediaKit.in(.text)
    .text                                    0x00008224   Section     1872  QtMultimediaKit.in(.text)
    .text                                    0x00008974   Section      184  QtMultimediaKit.in(.text)
    .text                                    0x00008a2c   Section       14  QtMultimediaKit.in(.text)
    .text                                    0x00008a3c   Section      928  QtMultimediaKit.in(.text)
    .text                                    0x00008ddc   Section     2228  QtMultimediaKit.in(.text)
    |L1.1020|                                0x000091d8   Data           0  QtMultimediaKit.in(.text)
    |L1.1060|                                0x00009200   Data           0  QtMultimediaKit.in(.text)
    |L1.1096|                                0x00009224   Data           0  QtMultimediaKit.in(.text)
    |L1.1120|                                0x0000923c   Data           0  QtMultimediaKit.in(.text)
    |L1.1136|                                0x0000924c   Data           0  QtMultimediaKit.in(.text)
    .text                                    0x00009690   Section     2844  QtMultimediaKit.in(.text)
    |L1.2136|                                0x00009ee8   Data           0  QtMultimediaKit.in(.text)
    |L1.2176|                                0x00009f10   Data           0  QtMultimediaKit.in(.text)
    playerService(QFlags<QMediaPlayer::Flag>, QMediaServiceProvider*) 0x0000a1ad   Thumb Code   138  QtMultimediaKit.in(.text)
    .text                                    0x0000a1ac   Section     4248  QtMultimediaKit.in(.text)
    |L1.1012|                                0x0000a5a0   Data           0  QtMultimediaKit.in(.text)
    |L1.2232|                                0x0000aa64   Data           0  QtMultimediaKit.in(.text)
    |L1.2248|                                0x0000aa74   Data           0  QtMultimediaKit.in(.text)
    __sti___16_qmediaplayer_cpp              0x0000b1db   Thumb Code    28  QtMultimediaKit.in(.text)
    .text                                    0x0000b244   Section      740  QtMultimediaKit.in(.text)
    playlistIOLoader()                       0x0000b529   Thumb Code   158  QtMultimediaKit.in(.text)
    .text                                    0x0000b528   Section     4000  QtMultimediaKit.in(.text)
    |L1.3096|                                0x0000c140   Data           0  QtMultimediaKit.in(.text)
    .text                                    0x0000c4c8   Section      296  QtMultimediaKit.in(.text)
    _q_nullMediaPlaylist()                   0x0000c5f1   Thumb Code   120  QtMultimediaKit.in(.text)
    .text                                    0x0000c5f0   Section     2296  QtMultimediaKit.in(.text)
    .text                                    0x0000cee8   Section      836  QtMultimediaKit.in(.text)
    .text                                    0x0000d22c   Section     4068  QtMultimediaKit.in(.text)
    |L1.1456|                                0x0000d7dc   Data           0  QtMultimediaKit.in(.text)
    |L1.1496|                                0x0000d804   Data           0  QtMultimediaKit.in(.text)
    |L1.1536|                                0x0000d82c   Data           0  QtMultimediaKit.in(.text)
    |L1.1556|                                0x0000d840   Data           0  QtMultimediaKit.in(.text)
    |L1.1584|                                0x0000d85c   Data           0  QtMultimediaKit.in(.text)
    |L1.1608|                                0x0000d874   Data           0  QtMultimediaKit.in(.text)
    |L1.1628|                                0x0000d888   Data           0  QtMultimediaKit.in(.text)
    |L1.1652|                                0x0000d8a0   Data           0  QtMultimediaKit.in(.text)
    |L1.1668|                                0x0000d8b0   Data           0  QtMultimediaKit.in(.text)
    |L1.1688|                                0x0000d8c4   Data           0  QtMultimediaKit.in(.text)
    |L1.1720|                                0x0000d8e4   Data           0  QtMultimediaKit.in(.text)
    |L1.1752|                                0x0000d904   Data           0  QtMultimediaKit.in(.text)
    __sti___18_qmediarecorder_cpp            0x0000e1a5   Thumb Code    20  QtMultimediaKit.in(.text)
    .text                                    0x0000e210   Section     1400  QtMultimediaKit.in(.text)
    .text                                    0x0000e788   Section      348  QtMultimediaKit.in(.text)
    .text                                    0x0000e8e4   Section      710  QtMultimediaKit.in(.text)
    .text                                    0x0000ebaa   Section     1798  QtMultimediaKit.in(.text)
    loader()                                 0x0000f2b1   Thumb Code   158  QtMultimediaKit.in(.text)
    .text                                    0x0000f2b0   Section     1240  QtMultimediaKit.in(.text)
    pluginProvider()                         0x0000f34f   Thumb Code   136  QtMultimediaKit.in(.text)
    |L1.948|                                 0x0000f664   Data           0  QtMultimediaKit.in(.text)
    .text                                    0x0000f788   Section      228  QtMultimediaKit.in(.text)
    .text                                    0x0000f86c   Section      272  QtMultimediaKit.in(.text)
    .text                                    0x0000f97c   Section      208  QtMultimediaKit.in(.text)
    .text                                    0x0000fa4c   Section     1940  QtMultimediaKit.in(.text)
    .text                                    0x000101e0   Section      536  QtMultimediaKit.in(.text)
    .text                                    0x000103f8   Section     5866  QtMultimediaKit.in(.text)
    |L1.2192|                                0x00010c88   Data           0  QtMultimediaKit.in(.text)
    |L1.2216|                                0x00010ca0   Data           0  QtMultimediaKit.in(.text)
    |L1.2236|                                0x00010cb4   Data           0  QtMultimediaKit.in(.text)
    |L1.2264|                                0x00010cd0   Data           0  QtMultimediaKit.in(.text)
    |L1.2288|                                0x00010ce8   Data           0  QtMultimediaKit.in(.text)
    |L1.2316|                                0x00010d04   Data           0  QtMultimediaKit.in(.text)
    |L1.2340|                                0x00010d1c   Data           0  QtMultimediaKit.in(.text)
    |L1.2360|                                0x00010d30   Data           0  QtMultimediaKit.in(.text)
    |L1.2380|                                0x00010d44   Data           0  QtMultimediaKit.in(.text)
    |L1.2408|                                0x00010d60   Data           0  QtMultimediaKit.in(.text)
    .text                                    0x00011ae4   Section      360  QtMultimediaKit.in(.text)
    .text                                    0x00011c4c   Section      340  QtMultimediaKit.in(.text)
    .text                                    0x00011da0   Section      108  QtMultimediaKit.in(.text)
    .text                                    0x00011e0c   Section      108  QtMultimediaKit.in(.text)
    .text                                    0x00011e78   Section      108  QtMultimediaKit.in(.text)
    .text                                    0x00011ee4   Section      720  QtMultimediaKit.in(.text)
    .text                                    0x000121b4   Section      108  QtMultimediaKit.in(.text)
    .text                                    0x00012220   Section      312  QtMultimediaKit.in(.text)
    .text                                    0x00012358   Section      200  QtMultimediaKit.in(.text)
    .text                                    0x00012420   Section      204  QtMultimediaKit.in(.text)
    .text                                    0x000124ec   Section      252  QtMultimediaKit.in(.text)
    staticMediaPlugins()                     0x000125e9   Thumb Code   118  QtMultimediaKit.in(.text)
    .text                                    0x000125e8   Section     1412  QtMultimediaKit.in(.text)
    .text                                    0x00012b6c   Section     1824  QtMultimediaKit.in(.text)
    .text                                    0x0001328c   Section      108  QtMultimediaKit.in(.text)
    .text                                    0x000132f8   Section     2164  QtMultimediaKit.in(.text)
    .text                                    0x00013b6c   Section     3732  QtMultimediaKit.in(.text)
    |L1.2144|                                0x000143cc   Data           0  QtMultimediaKit.in(.text)
    __sti___11_qcamera_cpp                   0x00014945   Thumb Code    10  QtMultimediaKit.in(.text)
    <unnamed>::CameraRegisterMetaTypes::CameraRegisterMetaTypes() 0x0001494f   Thumb Code    56  QtMultimediaKit.in(.text)
    <unnamed>::CameraRegisterMetaTypes::CameraRegisterMetaTypes__sub_object() 0x0001494f   Thumb Code     0  QtMultimediaKit.in(.text)
    .text                                    0x00014a00   Section      232  QtMultimediaKit.in(.text)
    .text                                    0x00014ae8   Section     2816  QtMultimediaKit.in(.text)
    __sti___19_qcameraexposure_cpp           0x0001556b   Thumb Code    28  QtMultimediaKit.in(.text)
    qFuzzyCompare(float, float)              0x000155e9   Thumb Code    80  QtMultimediaKit.in(.text)
    .text                                    0x000155e8   Section     2016  QtMultimediaKit.in(.text)
    |L1.1112|                                0x00015a40   Data           0  QtMultimediaKit.in(.text)
    __sti___16_qcamerafocus_cpp              0x00015c7b   Thumb Code   334  QtMultimediaKit.in(.text)
    .text                                    0x00015dc8   Section     1032  QtMultimediaKit.in(.text)
    .text                                    0x000161d0   Section     2160  QtMultimediaKit.in(.text)
    __sti___23_qcameraimagecapture_cpp       0x00016a17   Thumb Code    12  QtMultimediaKit.in(.text)
    .text                                    0x00016a40   Section      376  QtMultimediaKit.in(.text)
    .text                                    0x00016bb8   Section      344  QtMultimediaKit.in(.text)
    .text                                    0x00016d10   Section      220  QtMultimediaKit.in(.text)
    .text                                    0x00016dec   Section      292  QtMultimediaKit.in(.text)
    .text                                    0x00016f10   Section      352  QtMultimediaKit.in(.text)
    .text                                    0x00017070   Section      200  QtMultimediaKit.in(.text)
    .text                                    0x00017138   Section      140  QtMultimediaKit.in(.text)
    qFuzzyCompare(float, float)              0x000171c5   Thumb Code    80  QtMultimediaKit.in(.text)
    .text                                    0x000171c4   Section     2768  QtMultimediaKit.in(.text)
    __sti___10_qaudio_cpp                    0x00017c95   Thumb Code    16  QtMultimediaKit.in(.text)
    .text                                    0x00017c94   Section       16  QtMultimediaKit.in(.text)
    .text                                    0x00017ca4   Section      440  QtMultimediaKit.in(.text)
    .text                                    0x00017e5c   Section     2782  QtMultimediaKit.in(.text)
    .text                                    0x0001893c   Section      508  QtMultimediaKit.in(.text)
    .text                                    0x00018b38   Section      508  QtMultimediaKit.in(.text)
    .text                                    0x00018d34   Section      276  QtMultimediaKit.in(.text)
    .text                                    0x00018e48   Section      476  QtMultimediaKit.in(.text)
    audioLoader()                            0x00019025   Thumb Code   158  QtMultimediaKit.in(.text)
    .text                                    0x00019024   Section     1684  QtMultimediaKit.in(.text)
    |L1.1056|                                0x00019444   Data           0  QtMultimediaKit.in(.text)
    .text                                    0x000196b8   Section     1132  QtMultimediaKit.in(.text)
    .text                                    0x00019b24   Section     2146  QtMultimediaKit.in(.text)
    |L1.952|                                 0x00019edc   Data           0  QtMultimediaKit.in(.text)
    .text                                    0x0001a388   Section     1728  QtMultimediaKit.in(.text)
    .text                                    0x0001aa48   Section     2744  QtMultimediaKit.in(.text)
    .text                                    0x0001b500   Section     3040  QtMultimediaKit.in(.text)
    .text                                    0x0001c0e0   Section      988  QtMultimediaKit.in(.text)
    .text                                    0x0001c4bc   Section     1072  QtMultimediaKit.in(.text)
    .text                                    0x0001c8ec   Section     1174  QtMultimediaKit.in(.text)
    .text                                    0x0001cd84   Section      128  QtMultimediaKit.in(.text)
    .text                                    0x0001ce04   Section     1420  QtMultimediaKit.in(.text)
    |L1.956|                                 0x0001d1c0   Data           0  QtMultimediaKit.in(.text)
    |L1.1000|                                0x0001d1ec   Data           0  QtMultimediaKit.in(.text)
    |L1.1012|                                0x0001d1f8   Data           0  QtMultimediaKit.in(.text)
    |L1.1024|                                0x0001d204   Data           0  QtMultimediaKit.in(.text)
    .text                                    0x0001d390   Section      200  QtMultimediaKit.in(.text)
    .text                                    0x0001d458   Section      200  QtMultimediaKit.in(.text)
    .text                                    0x0001d520   Section      972  QtMultimediaKit.in(.text)
    .text                                    0x0001d8ec   Section     3732  QtMultimediaKit.in(.text)
    |L1.876|                                 0x0001dc58   Data           0  QtMultimediaKit.in(.text)
    |L1.888|                                 0x0001dc64   Data           0  QtMultimediaKit.in(.text)
    |L1.900|                                 0x0001dc70   Data           0  QtMultimediaKit.in(.text)
    |L1.912|                                 0x0001dc7c   Data           0  QtMultimediaKit.in(.text)
    |L1.924|                                 0x0001dc88   Data           0  QtMultimediaKit.in(.text)
    |L1.936|                                 0x0001dc94   Data           0  QtMultimediaKit.in(.text)
    |L1.948|                                 0x0001dca0   Data           0  QtMultimediaKit.in(.text)
    |L1.968|                                 0x0001dcb4   Data           0  QtMultimediaKit.in(.text)
    |L1.980|                                 0x0001dcc0   Data           0  QtMultimediaKit.in(.text)
    |L1.1000|                                0x0001dcd4   Data           0  QtMultimediaKit.in(.text)
    |L1.1012|                                0x0001dce0   Data           0  QtMultimediaKit.in(.text)
    .text                                    0x0001e780   Section       40  uc_dll.o(.text)
    .text                                    0x0001e7a8   Section      148  ucppfini.o(.text)
    .text.clean                              0x0001e83c   Section       14  QtMultimediaKit.in(.text.clean)
    .text.clean                              0x0001e84a   Section      194  QtMultimediaKit.in(.text.clean)
    .text.clean                              0x0001e90c   Section       14  QtMultimediaKit.in(.text.clean)
    .text.clean                              0x0001e91a   Section       56  QtMultimediaKit.in(.text.clean)
    .text.clean                              0x0001e952   Section      122  QtMultimediaKit.in(.text.clean)
    .text.clean                              0x0001e9cc   Section      388  QtMultimediaKit.in(.text.clean)
    .text.clean                              0x0001eb50   Section      174  QtMultimediaKit.in(.text.clean)
    .text.clean                              0x0001ebfe   Section        4  QtMultimediaKit.in(.text.clean)
    .text.clean                              0x0001ec04   Section      252  QtMultimediaKit.in(.text.clean)
    .text.clean                              0x0001ed00   Section      152  QtMultimediaKit.in(.text.clean)
    .text.clean                              0x0001ed98   Section       32  QtMultimediaKit.in(.text.clean)
    .text.clean                              0x0001edb8   Section      468  QtMultimediaKit.in(.text.clean)
    .text.clean                              0x0001ef8c   Section       42  QtMultimediaKit.in(.text.clean)
    .text.clean                              0x0001efb6   Section      142  QtMultimediaKit.in(.text.clean)
    .text.clean                              0x0001f044   Section      336  QtMultimediaKit.in(.text.clean)
    .text.clean                              0x0001f194   Section      116  QtMultimediaKit.in(.text.clean)
    .text.clean                              0x0001f208   Section        4  QtMultimediaKit.in(.text.clean)
    .text.clean                              0x0001f20c   Section        4  QtMultimediaKit.in(.text.clean)
    .text.clean                              0x0001f210   Section        4  QtMultimediaKit.in(.text.clean)
    .text.clean                              0x0001f214   Section       36  QtMultimediaKit.in(.text.clean)
    .text.clean                              0x0001f238   Section        4  QtMultimediaKit.in(.text.clean)
    .text.clean                              0x0001f23c   Section      238  QtMultimediaKit.in(.text.clean)
    .text.clean                              0x0001f32a   Section       60  QtMultimediaKit.in(.text.clean)
    .text.clean                              0x0001f366   Section        4  QtMultimediaKit.in(.text.clean)
    .text.clean                              0x0001f36a   Section        4  QtMultimediaKit.in(.text.clean)
    .text.clean                              0x0001f370   Section      256  QtMultimediaKit.in(.text.clean)
    .text.clean                              0x0001f470   Section      116  QtMultimediaKit.in(.text.clean)
    .text.clean                              0x0001f4e4   Section      172  QtMultimediaKit.in(.text.clean)
    .text.clean                              0x0001f590   Section      204  QtMultimediaKit.in(.text.clean)
    .text.clean                              0x0001f65c   Section       14  QtMultimediaKit.in(.text.clean)
    .text.clean                              0x0001f66a   Section      226  QtMultimediaKit.in(.text.clean)
    .text.clean                              0x0001f74c   Section       68  QtMultimediaKit.in(.text.clean)
    .text.clean                              0x0001f790   Section      186  QtMultimediaKit.in(.text.clean)
    .text.clean                              0x0001f84a   Section      170  QtMultimediaKit.in(.text.clean)
    .text.clean                              0x0001f8f4   Section        4  QtMultimediaKit.in(.text.clean)
    .text.clean                              0x0001f8f8   Section        4  QtMultimediaKit.in(.text.clean)
    .text.clean                              0x0001f8fc   Section        4  QtMultimediaKit.in(.text.clean)
    .text.clean                              0x0001f900   Section        4  QtMultimediaKit.in(.text.clean)
    .text.clean                              0x0001f904   Section        4  QtMultimediaKit.in(.text.clean)
    .text.clean                              0x0001f908   Section        4  QtMultimediaKit.in(.text.clean)
    .text.clean                              0x0001f90c   Section      142  QtMultimediaKit.in(.text.clean)
    .text.clean                              0x0001f99a   Section       14  QtMultimediaKit.in(.text.clean)
    .text.clean                              0x0001f9a8   Section      412  QtMultimediaKit.in(.text.clean)
    .text.clean                              0x0001fb44   Section       30  QtMultimediaKit.in(.text.clean)
    .text.clean                              0x0001fb62   Section       30  QtMultimediaKit.in(.text.clean)
    .text.clean                              0x0001fb80   Section      324  QtMultimediaKit.in(.text.clean)
    .text.clean                              0x0001fcc4   Section      246  QtMultimediaKit.in(.text.clean)
    .text.clean                              0x0001fdba   Section      220  QtMultimediaKit.in(.text.clean)
    .text.clean                              0x0001fe96   Section      180  QtMultimediaKit.in(.text.clean)
    .text.clean                              0x0001ff4a   Section      178  QtMultimediaKit.in(.text.clean)
    .text.clean                              0x0001fffc   Section      144  QtMultimediaKit.in(.text.clean)
    .text.clean                              0x0002008c   Section       90  QtMultimediaKit.in(.text.clean)
    .text.clean                              0x000200e6   Section       46  QtMultimediaKit.in(.text.clean)
    .text.clean                              0x00020114   Section       42  QtMultimediaKit.in(.text.clean)
    .text.clean                              0x0002013e   Section      178  QtMultimediaKit.in(.text.clean)
    .text.clean                              0x000201f0   Section       22  QtMultimediaKit.in(.text.clean)
    .text.clean                              0x00020206   Section       22  QtMultimediaKit.in(.text.clean)
    .text.clean                              0x0002021c   Section      104  QtMultimediaKit.in(.text.clean)
    .text.clean                              0x00020284   Section      220  QtMultimediaKit.in(.text.clean)
    ExportTable                              0x00020360   Section     6488  QtMultimediaKit{00010103}.exp(ExportTable)
    StubCode                                 0x00021cb8   Section        8  MmfDevSound{000a0000}-10.o(StubCode)
    theImportedSymbol                        0x00021cbc   Data           0  MmfDevSound{000a0000}-10.o(StubCode)
    StubCode                                 0x00021cc0   Section        8  MmfDevSound{000a0000}-17.o(StubCode)
    theImportedSymbol                        0x00021cc4   Data           0  MmfDevSound{000a0000}-17.o(StubCode)
    StubCode                                 0x00021cc8   Section        8  MmfDevSound{000a0000}-2.o(StubCode)
    theImportedSymbol                        0x00021ccc   Data           0  MmfDevSound{000a0000}-2.o(StubCode)
    StubCode                                 0x00021cd0   Section        8  MmfDevSound{000a0000}-27.o(StubCode)
    theImportedSymbol                        0x00021cd4   Data           0  MmfDevSound{000a0000}-27.o(StubCode)
    StubCode                                 0x00021cd8   Section        8  MmfDevSound{000a0000}-28.o(StubCode)
    theImportedSymbol                        0x00021cdc   Data           0  MmfDevSound{000a0000}-28.o(StubCode)
    StubCode                                 0x00021ce0   Section        8  MmfDevSound{000a0000}-3.o(StubCode)
    theImportedSymbol                        0x00021ce4   Data           0  MmfDevSound{000a0000}-3.o(StubCode)
    StubCode                                 0x00021ce8   Section        8  MmfDevSound{000a0000}-33.o(StubCode)
    theImportedSymbol                        0x00021cec   Data           0  MmfDevSound{000a0000}-33.o(StubCode)
    StubCode                                 0x00021cf0   Section        8  MmfDevSound{000a0000}-35.o(StubCode)
    theImportedSymbol                        0x00021cf4   Data           0  MmfDevSound{000a0000}-35.o(StubCode)
    StubCode                                 0x00021cf8   Section        8  MmfDevSound{000a0000}-42.o(StubCode)
    theImportedSymbol                        0x00021cfc   Data           0  MmfDevSound{000a0000}-42.o(StubCode)
    StubCode                                 0x00021d00   Section        8  MmfDevSound{000a0000}-5.o(StubCode)
    theImportedSymbol                        0x00021d04   Data           0  MmfDevSound{000a0000}-5.o(StubCode)
    StubCode                                 0x00021d08   Section        8  MmfDevSound{000a0000}-7.o(StubCode)
    theImportedSymbol                        0x00021d0c   Data           0  MmfDevSound{000a0000}-7.o(StubCode)
    StubCode                                 0x00021d10   Section        8  MmfDevSound{000a0000}-8.o(StubCode)
    theImportedSymbol                        0x00021d14   Data           0  MmfDevSound{000a0000}-8.o(StubCode)
    StubCode                                 0x00021d18   Section        8  efsrv{000a0000}-231.o(StubCode)
    theImportedSymbol                        0x00021d1c   Data           0  efsrv{000a0000}-231.o(StubCode)
    StubCode                                 0x00021d20   Section        8  efsrv{000a0000}-68.o(StubCode)
    theImportedSymbol                        0x00021d24   Data           0  efsrv{000a0000}-68.o(StubCode)
    StubCode                                 0x00021d28   Section        8  libstdcpp{00010000}-988.o(StubCode)
    theImportedSymbol                        0x00021d2c   Data           0  libstdcpp{00010000}-988.o(StubCode)
    StubCode                                 0x00021d30   Section        8  libstdcpp{00010000}-992.o(StubCode)
    theImportedSymbol                        0x00021d34   Data           0  libstdcpp{00010000}-992.o(StubCode)
    StubCode                                 0x00021d38   Section        8  QtGui{00040703}-10007.o(StubCode)
    theImportedSymbol                        0x00021d3c   Data           0  QtGui{00040703}-10007.o(StubCode)
    StubCode                                 0x00021d40   Section        8  QtGui{00040703}-10014.o(StubCode)
    theImportedSymbol                        0x00021d44   Data           0  QtGui{00040703}-10014.o(StubCode)
    StubCode                                 0x00021d48   Section        8  QtGui{00040703}-10076.o(StubCode)
    theImportedSymbol                        0x00021d4c   Data           0  QtGui{00040703}-10076.o(StubCode)
    StubCode                                 0x00021d50   Section        8  QtGui{00040703}-10077.o(StubCode)
    theImportedSymbol                        0x00021d54   Data           0  QtGui{00040703}-10077.o(StubCode)
    StubCode                                 0x00021d58   Section        8  QtGui{00040703}-10083.o(StubCode)
    theImportedSymbol                        0x00021d5c   Data           0  QtGui{00040703}-10083.o(StubCode)
    StubCode                                 0x00021d60   Section        8  QtGui{00040703}-10094.o(StubCode)
    theImportedSymbol                        0x00021d64   Data           0  QtGui{00040703}-10094.o(StubCode)
    StubCode                                 0x00021d68   Section        8  QtGui{00040703}-10098.o(StubCode)
    theImportedSymbol                        0x00021d6c   Data           0  QtGui{00040703}-10098.o(StubCode)
    StubCode                                 0x00021d70   Section        8  QtGui{00040703}-10106.o(StubCode)
    theImportedSymbol                        0x00021d74   Data           0  QtGui{00040703}-10106.o(StubCode)
    StubCode                                 0x00021d78   Section        8  QtGui{00040703}-10108.o(StubCode)
    theImportedSymbol                        0x00021d7c   Data           0  QtGui{00040703}-10108.o(StubCode)
    StubCode                                 0x00021d80   Section        8  QtGui{00040703}-10119.o(StubCode)
    theImportedSymbol                        0x00021d84   Data           0  QtGui{00040703}-10119.o(StubCode)
    StubCode                                 0x00021d88   Section        8  QtGui{00040703}-10124.o(StubCode)
    theImportedSymbol                        0x00021d8c   Data           0  QtGui{00040703}-10124.o(StubCode)
    StubCode                                 0x00021d90   Section        8  QtGui{00040703}-10127.o(StubCode)
    theImportedSymbol                        0x00021d94   Data           0  QtGui{00040703}-10127.o(StubCode)
    StubCode                                 0x00021d98   Section        8  QtGui{00040703}-10129.o(StubCode)
    theImportedSymbol                        0x00021d9c   Data           0  QtGui{00040703}-10129.o(StubCode)
    StubCode                                 0x00021da0   Section        8  QtGui{00040703}-10130.o(StubCode)
    theImportedSymbol                        0x00021da4   Data           0  QtGui{00040703}-10130.o(StubCode)
    StubCode                                 0x00021da8   Section        8  QtGui{00040703}-10133.o(StubCode)
    theImportedSymbol                        0x00021dac   Data           0  QtGui{00040703}-10133.o(StubCode)
    StubCode                                 0x00021db0   Section        8  QtGui{00040703}-10135.o(StubCode)
    theImportedSymbol                        0x00021db4   Data           0  QtGui{00040703}-10135.o(StubCode)
    StubCode                                 0x00021db8   Section        8  QtGui{00040703}-10139.o(StubCode)
    theImportedSymbol                        0x00021dbc   Data           0  QtGui{00040703}-10139.o(StubCode)
    StubCode                                 0x00021dc0   Section        8  QtGui{00040703}-10208.o(StubCode)
    theImportedSymbol                        0x00021dc4   Data           0  QtGui{00040703}-10208.o(StubCode)
    StubCode                                 0x00021dc8   Section        8  QtGui{00040703}-10222.o(StubCode)
    theImportedSymbol                        0x00021dcc   Data           0  QtGui{00040703}-10222.o(StubCode)
    StubCode                                 0x00021dd0   Section        8  QtGui{00040703}-10225.o(StubCode)
    theImportedSymbol                        0x00021dd4   Data           0  QtGui{00040703}-10225.o(StubCode)
    StubCode                                 0x00021dd8   Section        8  QtGui{00040703}-11460.o(StubCode)
    theImportedSymbol                        0x00021ddc   Data           0  QtGui{00040703}-11460.o(StubCode)
    StubCode                                 0x00021de0   Section        8  QtGui{00040703}-11461.o(StubCode)
    theImportedSymbol                        0x00021de4   Data           0  QtGui{00040703}-11461.o(StubCode)
    StubCode                                 0x00021de8   Section        8  QtGui{00040703}-11462.o(StubCode)
    theImportedSymbol                        0x00021dec   Data           0  QtGui{00040703}-11462.o(StubCode)
    StubCode                                 0x00021df0   Section        8  QtGui{00040703}-11717.o(StubCode)
    theImportedSymbol                        0x00021df4   Data           0  QtGui{00040703}-11717.o(StubCode)
    StubCode                                 0x00021df8   Section        8  QtGui{00040703}-1436.o(StubCode)
    theImportedSymbol                        0x00021dfc   Data           0  QtGui{00040703}-1436.o(StubCode)
    StubCode                                 0x00021e00   Section        8  QtGui{00040703}-1698.o(StubCode)
    theImportedSymbol                        0x00021e04   Data           0  QtGui{00040703}-1698.o(StubCode)
    StubCode                                 0x00021e08   Section        8  QtGui{00040703}-1702.o(StubCode)
    theImportedSymbol                        0x00021e0c   Data           0  QtGui{00040703}-1702.o(StubCode)
    StubCode                                 0x00021e10   Section        8  QtGui{00040703}-1705.o(StubCode)
    theImportedSymbol                        0x00021e14   Data           0  QtGui{00040703}-1705.o(StubCode)
    StubCode                                 0x00021e18   Section        8  QtGui{00040703}-1711.o(StubCode)
    theImportedSymbol                        0x00021e1c   Data           0  QtGui{00040703}-1711.o(StubCode)
    StubCode                                 0x00021e20   Section        8  QtGui{00040703}-2295.o(StubCode)
    theImportedSymbol                        0x00021e24   Data           0  QtGui{00040703}-2295.o(StubCode)
    StubCode                                 0x00021e28   Section        8  QtGui{00040703}-2296.o(StubCode)
    theImportedSymbol                        0x00021e2c   Data           0  QtGui{00040703}-2296.o(StubCode)
    StubCode                                 0x00021e30   Section        8  QtGui{00040703}-2301.o(StubCode)
    theImportedSymbol                        0x00021e34   Data           0  QtGui{00040703}-2301.o(StubCode)
    StubCode                                 0x00021e38   Section        8  QtGui{00040703}-2308.o(StubCode)
    theImportedSymbol                        0x00021e3c   Data           0  QtGui{00040703}-2308.o(StubCode)
    StubCode                                 0x00021e40   Section        8  QtGui{00040703}-2310.o(StubCode)
    theImportedSymbol                        0x00021e44   Data           0  QtGui{00040703}-2310.o(StubCode)
    StubCode                                 0x00021e48   Section        8  QtGui{00040703}-2311.o(StubCode)
    theImportedSymbol                        0x00021e4c   Data           0  QtGui{00040703}-2311.o(StubCode)
    StubCode                                 0x00021e50   Section        8  QtGui{00040703}-2313.o(StubCode)
    theImportedSymbol                        0x00021e54   Data           0  QtGui{00040703}-2313.o(StubCode)
    StubCode                                 0x00021e58   Section        8  QtGui{00040703}-2315.o(StubCode)
    theImportedSymbol                        0x00021e5c   Data           0  QtGui{00040703}-2315.o(StubCode)
    StubCode                                 0x00021e60   Section        8  QtGui{00040703}-2316.o(StubCode)
    theImportedSymbol                        0x00021e64   Data           0  QtGui{00040703}-2316.o(StubCode)
    StubCode                                 0x00021e68   Section        8  QtGui{00040703}-2319.o(StubCode)
    theImportedSymbol                        0x00021e6c   Data           0  QtGui{00040703}-2319.o(StubCode)
    StubCode                                 0x00021e70   Section        8  QtGui{00040703}-2320.o(StubCode)
    theImportedSymbol                        0x00021e74   Data           0  QtGui{00040703}-2320.o(StubCode)
    StubCode                                 0x00021e78   Section        8  QtGui{00040703}-2321.o(StubCode)
    theImportedSymbol                        0x00021e7c   Data           0  QtGui{00040703}-2321.o(StubCode)
    StubCode                                 0x00021e80   Section        8  QtGui{00040703}-2322.o(StubCode)
    theImportedSymbol                        0x00021e84   Data           0  QtGui{00040703}-2322.o(StubCode)
    StubCode                                 0x00021e88   Section        8  QtGui{00040703}-2326.o(StubCode)
    theImportedSymbol                        0x00021e8c   Data           0  QtGui{00040703}-2326.o(StubCode)
    StubCode                                 0x00021e90   Section        8  QtGui{00040703}-2327.o(StubCode)
    theImportedSymbol                        0x00021e94   Data           0  QtGui{00040703}-2327.o(StubCode)
    StubCode                                 0x00021e98   Section        8  QtGui{00040703}-2328.o(StubCode)
    theImportedSymbol                        0x00021e9c   Data           0  QtGui{00040703}-2328.o(StubCode)
    StubCode                                 0x00021ea0   Section        8  QtGui{00040703}-2329.o(StubCode)
    theImportedSymbol                        0x00021ea4   Data           0  QtGui{00040703}-2329.o(StubCode)
    StubCode                                 0x00021ea8   Section        8  QtGui{00040703}-2331.o(StubCode)
    theImportedSymbol                        0x00021eac   Data           0  QtGui{00040703}-2331.o(StubCode)
    StubCode                                 0x00021eb0   Section        8  QtGui{00040703}-2332.o(StubCode)
    theImportedSymbol                        0x00021eb4   Data           0  QtGui{00040703}-2332.o(StubCode)
    StubCode                                 0x00021eb8   Section        8  QtGui{00040703}-2333.o(StubCode)
    theImportedSymbol                        0x00021ebc   Data           0  QtGui{00040703}-2333.o(StubCode)
    StubCode                                 0x00021ec0   Section        8  QtGui{00040703}-2336.o(StubCode)
    theImportedSymbol                        0x00021ec4   Data           0  QtGui{00040703}-2336.o(StubCode)
    StubCode                                 0x00021ec8   Section        8  QtGui{00040703}-2342.o(StubCode)
    theImportedSymbol                        0x00021ecc   Data           0  QtGui{00040703}-2342.o(StubCode)
    StubCode                                 0x00021ed0   Section        8  QtGui{00040703}-2343.o(StubCode)
    theImportedSymbol                        0x00021ed4   Data           0  QtGui{00040703}-2343.o(StubCode)
    StubCode                                 0x00021ed8   Section        8  QtGui{00040703}-2359.o(StubCode)
    theImportedSymbol                        0x00021edc   Data           0  QtGui{00040703}-2359.o(StubCode)
    StubCode                                 0x00021ee0   Section        8  QtGui{00040703}-2360.o(StubCode)
    theImportedSymbol                        0x00021ee4   Data           0  QtGui{00040703}-2360.o(StubCode)
    StubCode                                 0x00021ee8   Section        8  QtGui{00040703}-2362.o(StubCode)
    theImportedSymbol                        0x00021eec   Data           0  QtGui{00040703}-2362.o(StubCode)
    StubCode                                 0x00021ef0   Section        8  QtGui{00040703}-2367.o(StubCode)
    theImportedSymbol                        0x00021ef4   Data           0  QtGui{00040703}-2367.o(StubCode)
    StubCode                                 0x00021ef8   Section        8  QtGui{00040703}-2378.o(StubCode)
    theImportedSymbol                        0x00021efc   Data           0  QtGui{00040703}-2378.o(StubCode)
    StubCode                                 0x00021f00   Section        8  QtGui{00040703}-2426.o(StubCode)
    theImportedSymbol                        0x00021f04   Data           0  QtGui{00040703}-2426.o(StubCode)
    StubCode                                 0x00021f08   Section        8  QtGui{00040703}-3345.o(StubCode)
    theImportedSymbol                        0x00021f0c   Data           0  QtGui{00040703}-3345.o(StubCode)
    StubCode                                 0x00021f10   Section        8  QtGui{00040703}-3346.o(StubCode)
    theImportedSymbol                        0x00021f14   Data           0  QtGui{00040703}-3346.o(StubCode)
    StubCode                                 0x00021f18   Section        8  QtGui{00040703}-3358.o(StubCode)
    theImportedSymbol                        0x00021f1c   Data           0  QtGui{00040703}-3358.o(StubCode)
    StubCode                                 0x00021f20   Section        8  QtGui{00040703}-47.o(StubCode)
    theImportedSymbol                        0x00021f24   Data           0  QtGui{00040703}-47.o(StubCode)
    StubCode                                 0x00021f28   Section        8  QtGui{00040703}-5620.o(StubCode)
    theImportedSymbol                        0x00021f2c   Data           0  QtGui{00040703}-5620.o(StubCode)
    StubCode                                 0x00021f30   Section        8  QtGui{00040703}-5622.o(StubCode)
    theImportedSymbol                        0x00021f34   Data           0  QtGui{00040703}-5622.o(StubCode)
    StubCode                                 0x00021f38   Section        8  QtGui{00040703}-5627.o(StubCode)
    theImportedSymbol                        0x00021f3c   Data           0  QtGui{00040703}-5627.o(StubCode)
    StubCode                                 0x00021f40   Section        8  QtGui{00040703}-5639.o(StubCode)
    theImportedSymbol                        0x00021f44   Data           0  QtGui{00040703}-5639.o(StubCode)
    StubCode                                 0x00021f48   Section        8  QtGui{00040703}-5643.o(StubCode)
    theImportedSymbol                        0x00021f4c   Data           0  QtGui{00040703}-5643.o(StubCode)
    StubCode                                 0x00021f50   Section        8  QtGui{00040703}-5675.o(StubCode)
    theImportedSymbol                        0x00021f54   Data           0  QtGui{00040703}-5675.o(StubCode)
    StubCode                                 0x00021f58   Section        8  QtGui{00040703}-5682.o(StubCode)
    theImportedSymbol                        0x00021f5c   Data           0  QtGui{00040703}-5682.o(StubCode)
    StubCode                                 0x00021f60   Section        8  QtGui{00040703}-5713.o(StubCode)
    theImportedSymbol                        0x00021f64   Data           0  QtGui{00040703}-5713.o(StubCode)
    StubCode                                 0x00021f68   Section        8  QtGui{00040703}-5730.o(StubCode)
    theImportedSymbol                        0x00021f6c   Data           0  QtGui{00040703}-5730.o(StubCode)
    StubCode                                 0x00021f70   Section        8  QtGui{00040703}-5735.o(StubCode)
    theImportedSymbol                        0x00021f74   Data           0  QtGui{00040703}-5735.o(StubCode)
    StubCode                                 0x00021f78   Section        8  QtGui{00040703}-5748.o(StubCode)
    theImportedSymbol                        0x00021f7c   Data           0  QtGui{00040703}-5748.o(StubCode)
    StubCode                                 0x00021f80   Section        8  QtGui{00040703}-5750.o(StubCode)
    theImportedSymbol                        0x00021f84   Data           0  QtGui{00040703}-5750.o(StubCode)
    StubCode                                 0x00021f88   Section        8  QtGui{00040703}-5826.o(StubCode)
    theImportedSymbol                        0x00021f8c   Data           0  QtGui{00040703}-5826.o(StubCode)
    StubCode                                 0x00021f90   Section        8  QtGui{00040703}-5832.o(StubCode)
    theImportedSymbol                        0x00021f94   Data           0  QtGui{00040703}-5832.o(StubCode)
    StubCode                                 0x00021f98   Section        8  QtGui{00040703}-5833.o(StubCode)
    theImportedSymbol                        0x00021f9c   Data           0  QtGui{00040703}-5833.o(StubCode)
    StubCode                                 0x00021fa0   Section        8  QtGui{00040703}-5834.o(StubCode)
    theImportedSymbol                        0x00021fa4   Data           0  QtGui{00040703}-5834.o(StubCode)
    StubCode                                 0x00021fa8   Section        8  QtGui{00040703}-5835.o(StubCode)
    theImportedSymbol                        0x00021fac   Data           0  QtGui{00040703}-5835.o(StubCode)
    StubCode                                 0x00021fb0   Section        8  QtGui{00040703}-6004.o(StubCode)
    theImportedSymbol                        0x00021fb4   Data           0  QtGui{00040703}-6004.o(StubCode)
    StubCode                                 0x00021fb8   Section        8  QtGui{00040703}-6017.o(StubCode)
    theImportedSymbol                        0x00021fbc   Data           0  QtGui{00040703}-6017.o(StubCode)
    StubCode                                 0x00021fc0   Section        8  QtGui{00040703}-6050.o(StubCode)
    theImportedSymbol                        0x00021fc4   Data           0  QtGui{00040703}-6050.o(StubCode)
    StubCode                                 0x00021fc8   Section        8  QtGui{00040703}-6052.o(StubCode)
    theImportedSymbol                        0x00021fcc   Data           0  QtGui{00040703}-6052.o(StubCode)
    StubCode                                 0x00021fd0   Section        8  QtGui{00040703}-6063.o(StubCode)
    theImportedSymbol                        0x00021fd4   Data           0  QtGui{00040703}-6063.o(StubCode)
    StubCode                                 0x00021fd8   Section        8  QtGui{00040703}-6072.o(StubCode)
    theImportedSymbol                        0x00021fdc   Data           0  QtGui{00040703}-6072.o(StubCode)
    StubCode                                 0x00021fe0   Section        8  QtGui{00040703}-6075.o(StubCode)
    theImportedSymbol                        0x00021fe4   Data           0  QtGui{00040703}-6075.o(StubCode)
    StubCode                                 0x00021fe8   Section        8  QtGui{00040703}-6084.o(StubCode)
    theImportedSymbol                        0x00021fec   Data           0  QtGui{00040703}-6084.o(StubCode)
    StubCode                                 0x00021ff0   Section        8  QtGui{00040703}-6088.o(StubCode)
    theImportedSymbol                        0x00021ff4   Data           0  QtGui{00040703}-6088.o(StubCode)
    StubCode                                 0x00021ff8   Section        8  QtGui{00040703}-6166.o(StubCode)
    theImportedSymbol                        0x00021ffc   Data           0  QtGui{00040703}-6166.o(StubCode)
    StubCode                                 0x00022000   Section        8  QtGui{00040703}-6167.o(StubCode)
    theImportedSymbol                        0x00022004   Data           0  QtGui{00040703}-6167.o(StubCode)
    StubCode                                 0x00022008   Section        8  QtGui{00040703}-6168.o(StubCode)
    theImportedSymbol                        0x0002200c   Data           0  QtGui{00040703}-6168.o(StubCode)
    StubCode                                 0x00022010   Section        8  QtGui{00040703}-6169.o(StubCode)
    theImportedSymbol                        0x00022014   Data           0  QtGui{00040703}-6169.o(StubCode)
    StubCode                                 0x00022018   Section        8  QtGui{00040703}-6172.o(StubCode)
    theImportedSymbol                        0x0002201c   Data           0  QtGui{00040703}-6172.o(StubCode)
    StubCode                                 0x00022020   Section        8  QtGui{00040703}-6174.o(StubCode)
    theImportedSymbol                        0x00022024   Data           0  QtGui{00040703}-6174.o(StubCode)
    StubCode                                 0x00022028   Section        8  QtGui{00040703}-6175.o(StubCode)
    theImportedSymbol                        0x0002202c   Data           0  QtGui{00040703}-6175.o(StubCode)
    StubCode                                 0x00022030   Section        8  QtGui{00040703}-6178.o(StubCode)
    theImportedSymbol                        0x00022034   Data           0  QtGui{00040703}-6178.o(StubCode)
    StubCode                                 0x00022038   Section        8  QtGui{00040703}-6179.o(StubCode)
    theImportedSymbol                        0x0002203c   Data           0  QtGui{00040703}-6179.o(StubCode)
    StubCode                                 0x00022040   Section        8  QtGui{00040703}-6180.o(StubCode)
    theImportedSymbol                        0x00022044   Data           0  QtGui{00040703}-6180.o(StubCode)
    StubCode                                 0x00022048   Section        8  QtGui{00040703}-6183.o(StubCode)
    theImportedSymbol                        0x0002204c   Data           0  QtGui{00040703}-6183.o(StubCode)
    StubCode                                 0x00022050   Section        8  QtGui{00040703}-6184.o(StubCode)
    theImportedSymbol                        0x00022054   Data           0  QtGui{00040703}-6184.o(StubCode)
    StubCode                                 0x00022058   Section        8  QtGui{00040703}-6185.o(StubCode)
    theImportedSymbol                        0x0002205c   Data           0  QtGui{00040703}-6185.o(StubCode)
    StubCode                                 0x00022060   Section        8  QtGui{00040703}-6190.o(StubCode)
    theImportedSymbol                        0x00022064   Data           0  QtGui{00040703}-6190.o(StubCode)
    StubCode                                 0x00022068   Section        8  QtGui{00040703}-6191.o(StubCode)
    theImportedSymbol                        0x0002206c   Data           0  QtGui{00040703}-6191.o(StubCode)
    StubCode                                 0x00022070   Section        8  QtGui{00040703}-6194.o(StubCode)
    theImportedSymbol                        0x00022074   Data           0  QtGui{00040703}-6194.o(StubCode)
    StubCode                                 0x00022078   Section        8  QtGui{00040703}-6208.o(StubCode)
    theImportedSymbol                        0x0002207c   Data           0  QtGui{00040703}-6208.o(StubCode)
    StubCode                                 0x00022080   Section        8  QtGui{00040703}-6209.o(StubCode)
    theImportedSymbol                        0x00022084   Data           0  QtGui{00040703}-6209.o(StubCode)
    StubCode                                 0x00022088   Section        8  QtGui{00040703}-6210.o(StubCode)
    theImportedSymbol                        0x0002208c   Data           0  QtGui{00040703}-6210.o(StubCode)
    StubCode                                 0x00022090   Section        8  QtGui{00040703}-6212.o(StubCode)
    theImportedSymbol                        0x00022094   Data           0  QtGui{00040703}-6212.o(StubCode)
    StubCode                                 0x00022098   Section        8  QtGui{00040703}-6213.o(StubCode)
    theImportedSymbol                        0x0002209c   Data           0  QtGui{00040703}-6213.o(StubCode)
    StubCode                                 0x000220a0   Section        8  QtGui{00040703}-6223.o(StubCode)
    theImportedSymbol                        0x000220a4   Data           0  QtGui{00040703}-6223.o(StubCode)
    StubCode                                 0x000220a8   Section        8  QtGui{00040703}-6224.o(StubCode)
    theImportedSymbol                        0x000220ac   Data           0  QtGui{00040703}-6224.o(StubCode)
    StubCode                                 0x000220b0   Section        8  QtGui{00040703}-6225.o(StubCode)
    theImportedSymbol                        0x000220b4   Data           0  QtGui{00040703}-6225.o(StubCode)
    StubCode                                 0x000220b8   Section        8  QtGui{00040703}-6226.o(StubCode)
    theImportedSymbol                        0x000220bc   Data           0  QtGui{00040703}-6226.o(StubCode)
    StubCode                                 0x000220c0   Section        8  QtGui{00040703}-6232.o(StubCode)
    theImportedSymbol                        0x000220c4   Data           0  QtGui{00040703}-6232.o(StubCode)
    StubCode                                 0x000220c8   Section        8  QtGui{00040703}-6235.o(StubCode)
    theImportedSymbol                        0x000220cc   Data           0  QtGui{00040703}-6235.o(StubCode)
    StubCode                                 0x000220d0   Section        8  QtGui{00040703}-6236.o(StubCode)
    theImportedSymbol                        0x000220d4   Data           0  QtGui{00040703}-6236.o(StubCode)
    StubCode                                 0x000220d8   Section        8  QtGui{00040703}-6237.o(StubCode)
    theImportedSymbol                        0x000220dc   Data           0  QtGui{00040703}-6237.o(StubCode)
    StubCode                                 0x000220e0   Section        8  QtGui{00040703}-6239.o(StubCode)
    theImportedSymbol                        0x000220e4   Data           0  QtGui{00040703}-6239.o(StubCode)
    StubCode                                 0x000220e8   Section        8  QtGui{00040703}-6246.o(StubCode)
    theImportedSymbol                        0x000220ec   Data           0  QtGui{00040703}-6246.o(StubCode)
    StubCode                                 0x000220f0   Section        8  QtGui{00040703}-6247.o(StubCode)
    theImportedSymbol                        0x000220f4   Data           0  QtGui{00040703}-6247.o(StubCode)
    StubCode                                 0x000220f8   Section        8  QtGui{00040703}-6255.o(StubCode)
    theImportedSymbol                        0x000220fc   Data           0  QtGui{00040703}-6255.o(StubCode)
    StubCode                                 0x00022100   Section        8  QtGui{00040703}-6265.o(StubCode)
    theImportedSymbol                        0x00022104   Data           0  QtGui{00040703}-6265.o(StubCode)
    StubCode                                 0x00022108   Section        8  QtGui{00040703}-6276.o(StubCode)
    theImportedSymbol                        0x0002210c   Data           0  QtGui{00040703}-6276.o(StubCode)
    StubCode                                 0x00022110   Section        8  QtGui{00040703}-6279.o(StubCode)
    theImportedSymbol                        0x00022114   Data           0  QtGui{00040703}-6279.o(StubCode)
    StubCode                                 0x00022118   Section        8  QtGui{00040703}-6284.o(StubCode)
    theImportedSymbol                        0x0002211c   Data           0  QtGui{00040703}-6284.o(StubCode)
    StubCode                                 0x00022120   Section        8  QtGui{00040703}-6293.o(StubCode)
    theImportedSymbol                        0x00022124   Data           0  QtGui{00040703}-6293.o(StubCode)
    StubCode                                 0x00022128   Section        8  QtGui{00040703}-6295.o(StubCode)
    theImportedSymbol                        0x0002212c   Data           0  QtGui{00040703}-6295.o(StubCode)
    StubCode                                 0x00022130   Section        8  QtGui{00040703}-6308.o(StubCode)
    theImportedSymbol                        0x00022134   Data           0  QtGui{00040703}-6308.o(StubCode)
    StubCode                                 0x00022138   Section        8  QtGui{00040703}-6311.o(StubCode)
    theImportedSymbol                        0x0002213c   Data           0  QtGui{00040703}-6311.o(StubCode)
    StubCode                                 0x00022140   Section        8  QtGui{00040703}-6314.o(StubCode)
    theImportedSymbol                        0x00022144   Data           0  QtGui{00040703}-6314.o(StubCode)
    StubCode                                 0x00022148   Section        8  QtGui{00040703}-6316.o(StubCode)
    theImportedSymbol                        0x0002214c   Data           0  QtGui{00040703}-6316.o(StubCode)
    StubCode                                 0x00022150   Section        8  QtGui{00040703}-6318.o(StubCode)
    theImportedSymbol                        0x00022154   Data           0  QtGui{00040703}-6318.o(StubCode)
    StubCode                                 0x00022158   Section        8  QtGui{00040703}-6319.o(StubCode)
    theImportedSymbol                        0x0002215c   Data           0  QtGui{00040703}-6319.o(StubCode)
    StubCode                                 0x00022160   Section        8  QtGui{00040703}-6324.o(StubCode)
    theImportedSymbol                        0x00022164   Data           0  QtGui{00040703}-6324.o(StubCode)
    StubCode                                 0x00022168   Section        8  QtGui{00040703}-6455.o(StubCode)
    theImportedSymbol                        0x0002216c   Data           0  QtGui{00040703}-6455.o(StubCode)
    StubCode                                 0x00022170   Section        8  QtGui{00040703}-6479.o(StubCode)
    theImportedSymbol                        0x00022174   Data           0  QtGui{00040703}-6479.o(StubCode)
    StubCode                                 0x00022178   Section        8  QtGui{00040703}-6499.o(StubCode)
    theImportedSymbol                        0x0002217c   Data           0  QtGui{00040703}-6499.o(StubCode)
    StubCode                                 0x00022180   Section        8  QtGui{00040703}-6508.o(StubCode)
    theImportedSymbol                        0x00022184   Data           0  QtGui{00040703}-6508.o(StubCode)
    StubCode                                 0x00022188   Section        8  QtGui{00040703}-6525.o(StubCode)
    theImportedSymbol                        0x0002218c   Data           0  QtGui{00040703}-6525.o(StubCode)
    StubCode                                 0x00022190   Section        8  QtGui{00040703}-6527.o(StubCode)
    theImportedSymbol                        0x00022194   Data           0  QtGui{00040703}-6527.o(StubCode)
    StubCode                                 0x00022198   Section        8  QtGui{00040703}-6528.o(StubCode)
    theImportedSymbol                        0x0002219c   Data           0  QtGui{00040703}-6528.o(StubCode)
    StubCode                                 0x000221a0   Section        8  QtGui{00040703}-6533.o(StubCode)
    theImportedSymbol                        0x000221a4   Data           0  QtGui{00040703}-6533.o(StubCode)
    StubCode                                 0x000221a8   Section        8  QtGui{00040703}-6544.o(StubCode)
    theImportedSymbol                        0x000221ac   Data           0  QtGui{00040703}-6544.o(StubCode)
    StubCode                                 0x000221b0   Section        8  QtGui{00040703}-6545.o(StubCode)
    theImportedSymbol                        0x000221b4   Data           0  QtGui{00040703}-6545.o(StubCode)
    StubCode                                 0x000221b8   Section        8  QtGui{00040703}-6549.o(StubCode)
    theImportedSymbol                        0x000221bc   Data           0  QtGui{00040703}-6549.o(StubCode)
    StubCode                                 0x000221c0   Section        8  QtGui{00040703}-6558.o(StubCode)
    theImportedSymbol                        0x000221c4   Data           0  QtGui{00040703}-6558.o(StubCode)
    StubCode                                 0x000221c8   Section        8  QtGui{00040703}-6564.o(StubCode)
    theImportedSymbol                        0x000221cc   Data           0  QtGui{00040703}-6564.o(StubCode)
    StubCode                                 0x000221d0   Section        8  QtGui{00040703}-6573.o(StubCode)
    theImportedSymbol                        0x000221d4   Data           0  QtGui{00040703}-6573.o(StubCode)
    StubCode                                 0x000221d8   Section        8  QtGui{00040703}-67.o(StubCode)
    theImportedSymbol                        0x000221dc   Data           0  QtGui{00040703}-67.o(StubCode)
    StubCode                                 0x000221e0   Section        8  QtGui{00040703}-7523.o(StubCode)
    theImportedSymbol                        0x000221e4   Data           0  QtGui{00040703}-7523.o(StubCode)
    StubCode                                 0x000221e8   Section        8  QtGui{00040703}-8128.o(StubCode)
    theImportedSymbol                        0x000221ec   Data           0  QtGui{00040703}-8128.o(StubCode)
    StubCode                                 0x000221f0   Section        8  QtGui{00040703}-8408.o(StubCode)
    theImportedSymbol                        0x000221f4   Data           0  QtGui{00040703}-8408.o(StubCode)
    StubCode                                 0x000221f8   Section        8  QtGui{00040703}-8422.o(StubCode)
    theImportedSymbol                        0x000221fc   Data           0  QtGui{00040703}-8422.o(StubCode)
    StubCode                                 0x00022200   Section        8  QtGui{00040703}-8449.o(StubCode)
    theImportedSymbol                        0x00022204   Data           0  QtGui{00040703}-8449.o(StubCode)
    StubCode                                 0x00022208   Section        8  QtGui{00040703}-8450.o(StubCode)
    theImportedSymbol                        0x0002220c   Data           0  QtGui{00040703}-8450.o(StubCode)
    StubCode                                 0x00022210   Section        8  QtGui{00040703}-8453.o(StubCode)
    theImportedSymbol                        0x00022214   Data           0  QtGui{00040703}-8453.o(StubCode)
    StubCode                                 0x00022218   Section        8  QtGui{00040703}-8460.o(StubCode)
    theImportedSymbol                        0x0002221c   Data           0  QtGui{00040703}-8460.o(StubCode)
    StubCode                                 0x00022220   Section        8  QtGui{00040703}-8472.o(StubCode)
    theImportedSymbol                        0x00022224   Data           0  QtGui{00040703}-8472.o(StubCode)
    StubCode                                 0x00022228   Section        8  QtGui{00040703}-8477.o(StubCode)
    theImportedSymbol                        0x0002222c   Data           0  QtGui{00040703}-8477.o(StubCode)
    StubCode                                 0x00022230   Section        8  QtGui{00040703}-8478.o(StubCode)
    theImportedSymbol                        0x00022234   Data           0  QtGui{00040703}-8478.o(StubCode)
    StubCode                                 0x00022238   Section        8  QtGui{00040703}-8488.o(StubCode)
    theImportedSymbol                        0x0002223c   Data           0  QtGui{00040703}-8488.o(StubCode)
    StubCode                                 0x00022240   Section        8  QtGui{00040703}-8496.o(StubCode)
    theImportedSymbol                        0x00022244   Data           0  QtGui{00040703}-8496.o(StubCode)
    StubCode                                 0x00022248   Section        8  QtGui{00040703}-8525.o(StubCode)
    theImportedSymbol                        0x0002224c   Data           0  QtGui{00040703}-8525.o(StubCode)
    StubCode                                 0x00022250   Section        8  QtGui{00040703}-8743.o(StubCode)
    theImportedSymbol                        0x00022254   Data           0  QtGui{00040703}-8743.o(StubCode)
    StubCode                                 0x00022258   Section        8  QtGui{00040703}-9726.o(StubCode)
    theImportedSymbol                        0x0002225c   Data           0  QtGui{00040703}-9726.o(StubCode)
    StubCode                                 0x00022260   Section        8  QtGui{00040703}-9778.o(StubCode)
    theImportedSymbol                        0x00022264   Data           0  QtGui{00040703}-9778.o(StubCode)
    StubCode                                 0x00022268   Section        8  QtGui{00040703}-9785.o(StubCode)
    theImportedSymbol                        0x0002226c   Data           0  QtGui{00040703}-9785.o(StubCode)
    StubCode                                 0x00022270   Section        8  QtGui{00040703}-9796.o(StubCode)
    theImportedSymbol                        0x00022274   Data           0  QtGui{00040703}-9796.o(StubCode)
    StubCode                                 0x00022278   Section        8  QtGui{00040703}-9805.o(StubCode)
    theImportedSymbol                        0x0002227c   Data           0  QtGui{00040703}-9805.o(StubCode)
    StubCode                                 0x00022280   Section        8  QtGui{00040703}-9807.o(StubCode)
    theImportedSymbol                        0x00022284   Data           0  QtGui{00040703}-9807.o(StubCode)
    StubCode                                 0x00022288   Section        8  QtGui{00040703}-9856.o(StubCode)
    theImportedSymbol                        0x0002228c   Data           0  QtGui{00040703}-9856.o(StubCode)
    StubCode                                 0x00022290   Section        8  QtNetwork{00040703}-322.o(StubCode)
    theImportedSymbol                        0x00022294   Data           0  QtNetwork{00040703}-322.o(StubCode)
    StubCode                                 0x00022298   Section        8  QtNetwork{00040703}-323.o(StubCode)
    theImportedSymbol                        0x0002229c   Data           0  QtNetwork{00040703}-323.o(StubCode)
    StubCode                                 0x000222a0   Section        8  QtNetwork{00040703}-326.o(StubCode)
    theImportedSymbol                        0x000222a4   Data           0  QtNetwork{00040703}-326.o(StubCode)
    StubCode                                 0x000222a8   Section        8  QtNetwork{00040703}-478.o(StubCode)
    theImportedSymbol                        0x000222ac   Data           0  QtNetwork{00040703}-478.o(StubCode)
    StubCode                                 0x000222b0   Section        8  QtNetwork{00040703}-481.o(StubCode)
    theImportedSymbol                        0x000222b4   Data           0  QtNetwork{00040703}-481.o(StubCode)
    StubCode                                 0x000222b8   Section        8  QtNetwork{00040703}-488.o(StubCode)
    theImportedSymbol                        0x000222bc   Data           0  QtNetwork{00040703}-488.o(StubCode)
    StubCode                                 0x000222c0   Section        8  QtNetwork{00040703}-754.o(StubCode)
    theImportedSymbol                        0x000222c4   Data           0  QtNetwork{00040703}-754.o(StubCode)
    StubCode                                 0x000222c8   Section        8  QtNetwork{00040703}-756.o(StubCode)
    theImportedSymbol                        0x000222cc   Data           0  QtNetwork{00040703}-756.o(StubCode)
    StubCode                                 0x000222d0   Section        8  QtNetwork{00040703}-758.o(StubCode)
    theImportedSymbol                        0x000222d4   Data           0  QtNetwork{00040703}-758.o(StubCode)
    StubCode                                 0x000222d8   Section        8  QtNetwork{00040703}-799.o(StubCode)
    theImportedSymbol                        0x000222dc   Data           0  QtNetwork{00040703}-799.o(StubCode)
    StubCode                                 0x000222e0   Section        8  QtNetwork{00040703}-803.o(StubCode)
    theImportedSymbol                        0x000222e4   Data           0  QtNetwork{00040703}-803.o(StubCode)
    StubCode                                 0x000222e8   Section        8  QtCore{00040703}-104.o(StubCode)
    theImportedSymbol                        0x000222ec   Data           0  QtCore{00040703}-104.o(StubCode)
    StubCode                                 0x000222f0   Section        8  QtCore{00040703}-109.o(StubCode)
    theImportedSymbol                        0x000222f4   Data           0  QtCore{00040703}-109.o(StubCode)
    StubCode                                 0x000222f8   Section        8  QtCore{00040703}-141.o(StubCode)
    theImportedSymbol                        0x000222fc   Data           0  QtCore{00040703}-141.o(StubCode)
    StubCode                                 0x00022300   Section        8  QtCore{00040703}-1453.o(StubCode)
    theImportedSymbol                        0x00022304   Data           0  QtCore{00040703}-1453.o(StubCode)
    StubCode                                 0x00022308   Section        8  QtCore{00040703}-1471.o(StubCode)
    theImportedSymbol                        0x0002230c   Data           0  QtCore{00040703}-1471.o(StubCode)
    StubCode                                 0x00022310   Section        8  QtCore{00040703}-1477.o(StubCode)
    theImportedSymbol                        0x00022314   Data           0  QtCore{00040703}-1477.o(StubCode)
    StubCode                                 0x00022318   Section        8  QtCore{00040703}-150.o(StubCode)
    theImportedSymbol                        0x0002231c   Data           0  QtCore{00040703}-150.o(StubCode)
    StubCode                                 0x00022320   Section        8  QtCore{00040703}-1525.o(StubCode)
    theImportedSymbol                        0x00022324   Data           0  QtCore{00040703}-1525.o(StubCode)
    StubCode                                 0x00022328   Section        8  QtCore{00040703}-1526.o(StubCode)
    theImportedSymbol                        0x0002232c   Data           0  QtCore{00040703}-1526.o(StubCode)
    StubCode                                 0x00022330   Section        8  QtCore{00040703}-1531.o(StubCode)
    theImportedSymbol                        0x00022334   Data           0  QtCore{00040703}-1531.o(StubCode)
    StubCode                                 0x00022338   Section        8  QtCore{00040703}-1534.o(StubCode)
    theImportedSymbol                        0x0002233c   Data           0  QtCore{00040703}-1534.o(StubCode)
    StubCode                                 0x00022340   Section        8  QtCore{00040703}-159.o(StubCode)
    theImportedSymbol                        0x00022344   Data           0  QtCore{00040703}-159.o(StubCode)
    StubCode                                 0x00022348   Section        8  QtCore{00040703}-1603.o(StubCode)
    theImportedSymbol                        0x0002234c   Data           0  QtCore{00040703}-1603.o(StubCode)
    StubCode                                 0x00022350   Section        8  QtCore{00040703}-1622.o(StubCode)
    theImportedSymbol                        0x00022354   Data           0  QtCore{00040703}-1622.o(StubCode)
    StubCode                                 0x00022358   Section        8  QtCore{00040703}-1631.o(StubCode)
    theImportedSymbol                        0x0002235c   Data           0  QtCore{00040703}-1631.o(StubCode)
    StubCode                                 0x00022360   Section        8  QtCore{00040703}-1633.o(StubCode)
    theImportedSymbol                        0x00022364   Data           0  QtCore{00040703}-1633.o(StubCode)
    StubCode                                 0x00022368   Section        8  QtCore{00040703}-1634.o(StubCode)
    theImportedSymbol                        0x0002236c   Data           0  QtCore{00040703}-1634.o(StubCode)
    StubCode                                 0x00022370   Section        8  QtCore{00040703}-1639.o(StubCode)
    theImportedSymbol                        0x00022374   Data           0  QtCore{00040703}-1639.o(StubCode)
    StubCode                                 0x00022378   Section        8  QtCore{00040703}-1642.o(StubCode)
    theImportedSymbol                        0x0002237c   Data           0  QtCore{00040703}-1642.o(StubCode)
    StubCode                                 0x00022380   Section        8  QtCore{00040703}-1670.o(StubCode)
    theImportedSymbol                        0x00022384   Data           0  QtCore{00040703}-1670.o(StubCode)
    StubCode                                 0x00022388   Section        8  QtCore{00040703}-1671.o(StubCode)
    theImportedSymbol                        0x0002238c   Data           0  QtCore{00040703}-1671.o(StubCode)
    StubCode                                 0x00022390   Section        8  QtCore{00040703}-1674.o(StubCode)
    theImportedSymbol                        0x00022394   Data           0  QtCore{00040703}-1674.o(StubCode)
    StubCode                                 0x00022398   Section        8  QtCore{00040703}-1676.o(StubCode)
    theImportedSymbol                        0x0002239c   Data           0  QtCore{00040703}-1676.o(StubCode)
    StubCode                                 0x000223a0   Section        8  QtCore{00040703}-1678.o(StubCode)
    theImportedSymbol                        0x000223a4   Data           0  QtCore{00040703}-1678.o(StubCode)
    StubCode                                 0x000223a8   Section        8  QtCore{00040703}-168.o(StubCode)
    theImportedSymbol                        0x000223ac   Data           0  QtCore{00040703}-168.o(StubCode)
    StubCode                                 0x000223b0   Section        8  QtCore{00040703}-1706.o(StubCode)
    theImportedSymbol                        0x000223b4   Data           0  QtCore{00040703}-1706.o(StubCode)
    StubCode                                 0x000223b8   Section        8  QtCore{00040703}-1710.o(StubCode)
    theImportedSymbol                        0x000223bc   Data           0  QtCore{00040703}-1710.o(StubCode)
    StubCode                                 0x000223c0   Section        8  QtCore{00040703}-1713.o(StubCode)
    theImportedSymbol                        0x000223c4   Data           0  QtCore{00040703}-1713.o(StubCode)
    StubCode                                 0x000223c8   Section        8  QtCore{00040703}-1714.o(StubCode)
    theImportedSymbol                        0x000223cc   Data           0  QtCore{00040703}-1714.o(StubCode)
    StubCode                                 0x000223d0   Section        8  QtCore{00040703}-1715.o(StubCode)
    theImportedSymbol                        0x000223d4   Data           0  QtCore{00040703}-1715.o(StubCode)
    StubCode                                 0x000223d8   Section        8  QtCore{00040703}-1717.o(StubCode)
    theImportedSymbol                        0x000223dc   Data           0  QtCore{00040703}-1717.o(StubCode)
    StubCode                                 0x000223e0   Section        8  QtCore{00040703}-1760.o(StubCode)
    theImportedSymbol                        0x000223e4   Data           0  QtCore{00040703}-1760.o(StubCode)
    StubCode                                 0x000223e8   Section        8  QtCore{00040703}-1761.o(StubCode)
    theImportedSymbol                        0x000223ec   Data           0  QtCore{00040703}-1761.o(StubCode)
    StubCode                                 0x000223f0   Section        8  QtCore{00040703}-1762.o(StubCode)
    theImportedSymbol                        0x000223f4   Data           0  QtCore{00040703}-1762.o(StubCode)
    StubCode                                 0x000223f8   Section        8  QtCore{00040703}-1763.o(StubCode)
    theImportedSymbol                        0x000223fc   Data           0  QtCore{00040703}-1763.o(StubCode)
    StubCode                                 0x00022400   Section        8  QtCore{00040703}-1764.o(StubCode)
    theImportedSymbol                        0x00022404   Data           0  QtCore{00040703}-1764.o(StubCode)
    StubCode                                 0x00022408   Section        8  QtCore{00040703}-1765.o(StubCode)
    theImportedSymbol                        0x0002240c   Data           0  QtCore{00040703}-1765.o(StubCode)
    StubCode                                 0x00022410   Section        8  QtCore{00040703}-1766.o(StubCode)
    theImportedSymbol                        0x00022414   Data           0  QtCore{00040703}-1766.o(StubCode)
    StubCode                                 0x00022418   Section        8  QtCore{00040703}-1767.o(StubCode)
    theImportedSymbol                        0x0002241c   Data           0  QtCore{00040703}-1767.o(StubCode)
    StubCode                                 0x00022420   Section        8  QtCore{00040703}-1768.o(StubCode)
    theImportedSymbol                        0x00022424   Data           0  QtCore{00040703}-1768.o(StubCode)
    StubCode                                 0x00022428   Section        8  QtCore{00040703}-1769.o(StubCode)
    theImportedSymbol                        0x0002242c   Data           0  QtCore{00040703}-1769.o(StubCode)
    StubCode                                 0x00022430   Section        8  QtCore{00040703}-1773.o(StubCode)
    theImportedSymbol                        0x00022434   Data           0  QtCore{00040703}-1773.o(StubCode)
    StubCode                                 0x00022438   Section        8  QtCore{00040703}-1777.o(StubCode)
    theImportedSymbol                        0x0002243c   Data           0  QtCore{00040703}-1777.o(StubCode)
    StubCode                                 0x00022440   Section        8  QtCore{00040703}-1780.o(StubCode)
    theImportedSymbol                        0x00022444   Data           0  QtCore{00040703}-1780.o(StubCode)
    StubCode                                 0x00022448   Section        8  QtCore{00040703}-1781.o(StubCode)
    theImportedSymbol                        0x0002244c   Data           0  QtCore{00040703}-1781.o(StubCode)
    StubCode                                 0x00022450   Section        8  QtCore{00040703}-1784.o(StubCode)
    theImportedSymbol                        0x00022454   Data           0  QtCore{00040703}-1784.o(StubCode)
    StubCode                                 0x00022458   Section        8  QtCore{00040703}-1785.o(StubCode)
    theImportedSymbol                        0x0002245c   Data           0  QtCore{00040703}-1785.o(StubCode)
    StubCode                                 0x00022460   Section        8  QtCore{00040703}-1787.o(StubCode)
    theImportedSymbol                        0x00022464   Data           0  QtCore{00040703}-1787.o(StubCode)
    StubCode                                 0x00022468   Section        8  QtCore{00040703}-1789.o(StubCode)
    theImportedSymbol                        0x0002246c   Data           0  QtCore{00040703}-1789.o(StubCode)
    StubCode                                 0x00022470   Section        8  QtCore{00040703}-1794.o(StubCode)
    theImportedSymbol                        0x00022474   Data           0  QtCore{00040703}-1794.o(StubCode)
    StubCode                                 0x00022478   Section        8  QtCore{00040703}-1814.o(StubCode)
    theImportedSymbol                        0x0002247c   Data           0  QtCore{00040703}-1814.o(StubCode)
    StubCode                                 0x00022480   Section        8  QtCore{00040703}-1825.o(StubCode)
    theImportedSymbol                        0x00022484   Data           0  QtCore{00040703}-1825.o(StubCode)
    StubCode                                 0x00022488   Section        8  QtCore{00040703}-1826.o(StubCode)
    theImportedSymbol                        0x0002248c   Data           0  QtCore{00040703}-1826.o(StubCode)
    StubCode                                 0x00022490   Section        8  QtCore{00040703}-1830.o(StubCode)
    theImportedSymbol                        0x00022494   Data           0  QtCore{00040703}-1830.o(StubCode)
    StubCode                                 0x00022498   Section        8  QtCore{00040703}-1836.o(StubCode)
    theImportedSymbol                        0x0002249c   Data           0  QtCore{00040703}-1836.o(StubCode)
    StubCode                                 0x000224a0   Section        8  QtCore{00040703}-1874.o(StubCode)
    theImportedSymbol                        0x000224a4   Data           0  QtCore{00040703}-1874.o(StubCode)
    StubCode                                 0x000224a8   Section        8  QtCore{00040703}-1876.o(StubCode)
    theImportedSymbol                        0x000224ac   Data           0  QtCore{00040703}-1876.o(StubCode)
    StubCode                                 0x000224b0   Section        8  QtCore{00040703}-1885.o(StubCode)
    theImportedSymbol                        0x000224b4   Data           0  QtCore{00040703}-1885.o(StubCode)
    StubCode                                 0x000224b8   Section        8  QtCore{00040703}-1947.o(StubCode)
    theImportedSymbol                        0x000224bc   Data           0  QtCore{00040703}-1947.o(StubCode)
    StubCode                                 0x000224c0   Section        8  QtCore{00040703}-1949.o(StubCode)
    theImportedSymbol                        0x000224c4   Data           0  QtCore{00040703}-1949.o(StubCode)
    StubCode                                 0x000224c8   Section        8  QtCore{00040703}-2003.o(StubCode)
    theImportedSymbol                        0x000224cc   Data           0  QtCore{00040703}-2003.o(StubCode)
    StubCode                                 0x000224d0   Section        8  QtCore{00040703}-2018.o(StubCode)
    theImportedSymbol                        0x000224d4   Data           0  QtCore{00040703}-2018.o(StubCode)
    StubCode                                 0x000224d8   Section        8  QtCore{00040703}-2024.o(StubCode)
    theImportedSymbol                        0x000224dc   Data           0  QtCore{00040703}-2024.o(StubCode)
    StubCode                                 0x000224e0   Section        8  QtCore{00040703}-2025.o(StubCode)
    theImportedSymbol                        0x000224e4   Data           0  QtCore{00040703}-2025.o(StubCode)
    StubCode                                 0x000224e8   Section        8  QtCore{00040703}-2034.o(StubCode)
    theImportedSymbol                        0x000224ec   Data           0  QtCore{00040703}-2034.o(StubCode)
    StubCode                                 0x000224f0   Section        8  QtCore{00040703}-2037.o(StubCode)
    theImportedSymbol                        0x000224f4   Data           0  QtCore{00040703}-2037.o(StubCode)
    StubCode                                 0x000224f8   Section        8  QtCore{00040703}-2038.o(StubCode)
    theImportedSymbol                        0x000224fc   Data           0  QtCore{00040703}-2038.o(StubCode)
    StubCode                                 0x00022500   Section        8  QtCore{00040703}-2040.o(StubCode)
    theImportedSymbol                        0x00022504   Data           0  QtCore{00040703}-2040.o(StubCode)
    StubCode                                 0x00022508   Section        8  QtCore{00040703}-2042.o(StubCode)
    theImportedSymbol                        0x0002250c   Data           0  QtCore{00040703}-2042.o(StubCode)
    StubCode                                 0x00022510   Section        8  QtCore{00040703}-2044.o(StubCode)
    theImportedSymbol                        0x00022514   Data           0  QtCore{00040703}-2044.o(StubCode)
    StubCode                                 0x00022518   Section        8  QtCore{00040703}-2082.o(StubCode)
    theImportedSymbol                        0x0002251c   Data           0  QtCore{00040703}-2082.o(StubCode)
    StubCode                                 0x00022520   Section        8  QtCore{00040703}-2084.o(StubCode)
    theImportedSymbol                        0x00022524   Data           0  QtCore{00040703}-2084.o(StubCode)
    StubCode                                 0x00022528   Section        8  QtCore{00040703}-2134.o(StubCode)
    theImportedSymbol                        0x0002252c   Data           0  QtCore{00040703}-2134.o(StubCode)
    StubCode                                 0x00022530   Section        8  QtCore{00040703}-2141.o(StubCode)
    theImportedSymbol                        0x00022534   Data           0  QtCore{00040703}-2141.o(StubCode)
    StubCode                                 0x00022538   Section        8  QtCore{00040703}-2142.o(StubCode)
    theImportedSymbol                        0x0002253c   Data           0  QtCore{00040703}-2142.o(StubCode)
    StubCode                                 0x00022540   Section        8  QtCore{00040703}-2143.o(StubCode)
    theImportedSymbol                        0x00022544   Data           0  QtCore{00040703}-2143.o(StubCode)
    StubCode                                 0x00022548   Section        8  QtCore{00040703}-2144.o(StubCode)
    theImportedSymbol                        0x0002254c   Data           0  QtCore{00040703}-2144.o(StubCode)
    StubCode                                 0x00022550   Section        8  QtCore{00040703}-2145.o(StubCode)
    theImportedSymbol                        0x00022554   Data           0  QtCore{00040703}-2145.o(StubCode)
    StubCode                                 0x00022558   Section        8  QtCore{00040703}-2149.o(StubCode)
    theImportedSymbol                        0x0002255c   Data           0  QtCore{00040703}-2149.o(StubCode)
    StubCode                                 0x00022560   Section        8  QtCore{00040703}-2152.o(StubCode)
    theImportedSymbol                        0x00022564   Data           0  QtCore{00040703}-2152.o(StubCode)
    StubCode                                 0x00022568   Section        8  QtCore{00040703}-2156.o(StubCode)
    theImportedSymbol                        0x0002256c   Data           0  QtCore{00040703}-2156.o(StubCode)
    StubCode                                 0x00022570   Section        8  QtCore{00040703}-2157.o(StubCode)
    theImportedSymbol                        0x00022574   Data           0  QtCore{00040703}-2157.o(StubCode)
    StubCode                                 0x00022578   Section        8  QtCore{00040703}-2158.o(StubCode)
    theImportedSymbol                        0x0002257c   Data           0  QtCore{00040703}-2158.o(StubCode)
    StubCode                                 0x00022580   Section        8  QtCore{00040703}-216.o(StubCode)
    theImportedSymbol                        0x00022584   Data           0  QtCore{00040703}-216.o(StubCode)
    StubCode                                 0x00022588   Section        8  QtCore{00040703}-2160.o(StubCode)
    theImportedSymbol                        0x0002258c   Data           0  QtCore{00040703}-2160.o(StubCode)
    StubCode                                 0x00022590   Section        8  QtCore{00040703}-2161.o(StubCode)
    theImportedSymbol                        0x00022594   Data           0  QtCore{00040703}-2161.o(StubCode)
    StubCode                                 0x00022598   Section        8  QtCore{00040703}-2162.o(StubCode)
    theImportedSymbol                        0x0002259c   Data           0  QtCore{00040703}-2162.o(StubCode)
    StubCode                                 0x000225a0   Section        8  QtCore{00040703}-2163.o(StubCode)
    theImportedSymbol                        0x000225a4   Data           0  QtCore{00040703}-2163.o(StubCode)
    StubCode                                 0x000225a8   Section        8  QtCore{00040703}-2164.o(StubCode)
    theImportedSymbol                        0x000225ac   Data           0  QtCore{00040703}-2164.o(StubCode)
    StubCode                                 0x000225b0   Section        8  QtCore{00040703}-2166.o(StubCode)
    theImportedSymbol                        0x000225b4   Data           0  QtCore{00040703}-2166.o(StubCode)
    StubCode                                 0x000225b8   Section        8  QtCore{00040703}-217.o(StubCode)
    theImportedSymbol                        0x000225bc   Data           0  QtCore{00040703}-217.o(StubCode)
    StubCode                                 0x000225c0   Section        8  QtCore{00040703}-2172.o(StubCode)
    theImportedSymbol                        0x000225c4   Data           0  QtCore{00040703}-2172.o(StubCode)
    StubCode                                 0x000225c8   Section        8  QtCore{00040703}-2174.o(StubCode)
    theImportedSymbol                        0x000225cc   Data           0  QtCore{00040703}-2174.o(StubCode)
    StubCode                                 0x000225d0   Section        8  QtCore{00040703}-2176.o(StubCode)
    theImportedSymbol                        0x000225d4   Data           0  QtCore{00040703}-2176.o(StubCode)
    StubCode                                 0x000225d8   Section        8  QtCore{00040703}-2179.o(StubCode)
    theImportedSymbol                        0x000225dc   Data           0  QtCore{00040703}-2179.o(StubCode)
    StubCode                                 0x000225e0   Section        8  QtCore{00040703}-2186.o(StubCode)
    theImportedSymbol                        0x000225e4   Data           0  QtCore{00040703}-2186.o(StubCode)
    StubCode                                 0x000225e8   Section        8  QtCore{00040703}-2188.o(StubCode)
    theImportedSymbol                        0x000225ec   Data           0  QtCore{00040703}-2188.o(StubCode)
    StubCode                                 0x000225f0   Section        8  QtCore{00040703}-2190.o(StubCode)
    theImportedSymbol                        0x000225f4   Data           0  QtCore{00040703}-2190.o(StubCode)
    StubCode                                 0x000225f8   Section        8  QtCore{00040703}-2191.o(StubCode)
    theImportedSymbol                        0x000225fc   Data           0  QtCore{00040703}-2191.o(StubCode)
    StubCode                                 0x00022600   Section        8  QtCore{00040703}-2192.o(StubCode)
    theImportedSymbol                        0x00022604   Data           0  QtCore{00040703}-2192.o(StubCode)
    StubCode                                 0x00022608   Section        8  QtCore{00040703}-2193.o(StubCode)
    theImportedSymbol                        0x0002260c   Data           0  QtCore{00040703}-2193.o(StubCode)
    StubCode                                 0x00022610   Section        8  QtCore{00040703}-2196.o(StubCode)
    theImportedSymbol                        0x00022614   Data           0  QtCore{00040703}-2196.o(StubCode)
    StubCode                                 0x00022618   Section        8  QtCore{00040703}-2197.o(StubCode)
    theImportedSymbol                        0x0002261c   Data           0  QtCore{00040703}-2197.o(StubCode)
    StubCode                                 0x00022620   Section        8  QtCore{00040703}-2199.o(StubCode)
    theImportedSymbol                        0x00022624   Data           0  QtCore{00040703}-2199.o(StubCode)
    StubCode                                 0x00022628   Section        8  QtCore{00040703}-2206.o(StubCode)
    theImportedSymbol                        0x0002262c   Data           0  QtCore{00040703}-2206.o(StubCode)
    StubCode                                 0x00022630   Section        8  QtCore{00040703}-2321.o(StubCode)
    theImportedSymbol                        0x00022634   Data           0  QtCore{00040703}-2321.o(StubCode)
    StubCode                                 0x00022638   Section        8  QtCore{00040703}-2324.o(StubCode)
    theImportedSymbol                        0x0002263c   Data           0  QtCore{00040703}-2324.o(StubCode)
    StubCode                                 0x00022640   Section        8  QtCore{00040703}-2392.o(StubCode)
    theImportedSymbol                        0x00022644   Data           0  QtCore{00040703}-2392.o(StubCode)
    StubCode                                 0x00022648   Section        8  QtCore{00040703}-2409.o(StubCode)
    theImportedSymbol                        0x0002264c   Data           0  QtCore{00040703}-2409.o(StubCode)
    StubCode                                 0x00022650   Section        8  QtCore{00040703}-2416.o(StubCode)
    theImportedSymbol                        0x00022654   Data           0  QtCore{00040703}-2416.o(StubCode)
    StubCode                                 0x00022658   Section        8  QtCore{00040703}-2418.o(StubCode)
    theImportedSymbol                        0x0002265c   Data           0  QtCore{00040703}-2418.o(StubCode)
    StubCode                                 0x00022660   Section        8  QtCore{00040703}-2422.o(StubCode)
    theImportedSymbol                        0x00022664   Data           0  QtCore{00040703}-2422.o(StubCode)
    StubCode                                 0x00022668   Section        8  QtCore{00040703}-2495.o(StubCode)
    theImportedSymbol                        0x0002266c   Data           0  QtCore{00040703}-2495.o(StubCode)
    StubCode                                 0x00022670   Section        8  QtCore{00040703}-2497.o(StubCode)
    theImportedSymbol                        0x00022674   Data           0  QtCore{00040703}-2497.o(StubCode)
    StubCode                                 0x00022678   Section        8  QtCore{00040703}-2500.o(StubCode)
    theImportedSymbol                        0x0002267c   Data           0  QtCore{00040703}-2500.o(StubCode)
    StubCode                                 0x00022680   Section        8  QtCore{00040703}-2508.o(StubCode)
    theImportedSymbol                        0x00022684   Data           0  QtCore{00040703}-2508.o(StubCode)
    StubCode                                 0x00022688   Section        8  QtCore{00040703}-274.o(StubCode)
    theImportedSymbol                        0x0002268c   Data           0  QtCore{00040703}-274.o(StubCode)
    StubCode                                 0x00022690   Section        8  QtCore{00040703}-275.o(StubCode)
    theImportedSymbol                        0x00022694   Data           0  QtCore{00040703}-275.o(StubCode)
    StubCode                                 0x00022698   Section        8  QtCore{00040703}-276.o(StubCode)
    theImportedSymbol                        0x0002269c   Data           0  QtCore{00040703}-276.o(StubCode)
    StubCode                                 0x000226a0   Section        8  QtCore{00040703}-2791.o(StubCode)
    theImportedSymbol                        0x000226a4   Data           0  QtCore{00040703}-2791.o(StubCode)
    StubCode                                 0x000226a8   Section        8  QtCore{00040703}-2795.o(StubCode)
    theImportedSymbol                        0x000226ac   Data           0  QtCore{00040703}-2795.o(StubCode)
    StubCode                                 0x000226b0   Section        8  QtCore{00040703}-2802.o(StubCode)
    theImportedSymbol                        0x000226b4   Data           0  QtCore{00040703}-2802.o(StubCode)
    StubCode                                 0x000226b8   Section        8  QtCore{00040703}-2811.o(StubCode)
    theImportedSymbol                        0x000226bc   Data           0  QtCore{00040703}-2811.o(StubCode)
    StubCode                                 0x000226c0   Section        8  QtCore{00040703}-282.o(StubCode)
    theImportedSymbol                        0x000226c4   Data           0  QtCore{00040703}-282.o(StubCode)
    StubCode                                 0x000226c8   Section        8  QtCore{00040703}-2823.o(StubCode)
    theImportedSymbol                        0x000226cc   Data           0  QtCore{00040703}-2823.o(StubCode)
    StubCode                                 0x000226d0   Section        8  QtCore{00040703}-2838.o(StubCode)
    theImportedSymbol                        0x000226d4   Data           0  QtCore{00040703}-2838.o(StubCode)
    StubCode                                 0x000226d8   Section        8  QtCore{00040703}-2841.o(StubCode)
    theImportedSymbol                        0x000226dc   Data           0  QtCore{00040703}-2841.o(StubCode)
    StubCode                                 0x000226e0   Section        8  QtCore{00040703}-2842.o(StubCode)
    theImportedSymbol                        0x000226e4   Data           0  QtCore{00040703}-2842.o(StubCode)
    StubCode                                 0x000226e8   Section        8  QtCore{00040703}-2853.o(StubCode)
    theImportedSymbol                        0x000226ec   Data           0  QtCore{00040703}-2853.o(StubCode)
    StubCode                                 0x000226f0   Section        8  QtCore{00040703}-286.o(StubCode)
    theImportedSymbol                        0x000226f4   Data           0  QtCore{00040703}-286.o(StubCode)
    StubCode                                 0x000226f8   Section        8  QtCore{00040703}-2907.o(StubCode)
    theImportedSymbol                        0x000226fc   Data           0  QtCore{00040703}-2907.o(StubCode)
    StubCode                                 0x00022700   Section        8  QtCore{00040703}-2919.o(StubCode)
    theImportedSymbol                        0x00022704   Data           0  QtCore{00040703}-2919.o(StubCode)
    StubCode                                 0x00022708   Section        8  QtCore{00040703}-2944.o(StubCode)
    theImportedSymbol                        0x0002270c   Data           0  QtCore{00040703}-2944.o(StubCode)
    StubCode                                 0x00022710   Section        8  QtCore{00040703}-3003.o(StubCode)
    theImportedSymbol                        0x00022714   Data           0  QtCore{00040703}-3003.o(StubCode)
    StubCode                                 0x00022718   Section        8  QtCore{00040703}-3006.o(StubCode)
    theImportedSymbol                        0x0002271c   Data           0  QtCore{00040703}-3006.o(StubCode)
    StubCode                                 0x00022720   Section        8  QtCore{00040703}-3008.o(StubCode)
    theImportedSymbol                        0x00022724   Data           0  QtCore{00040703}-3008.o(StubCode)
    StubCode                                 0x00022728   Section        8  QtCore{00040703}-3031.o(StubCode)
    theImportedSymbol                        0x0002272c   Data           0  QtCore{00040703}-3031.o(StubCode)
    StubCode                                 0x00022730   Section        8  QtCore{00040703}-3040.o(StubCode)
    theImportedSymbol                        0x00022734   Data           0  QtCore{00040703}-3040.o(StubCode)
    StubCode                                 0x00022738   Section        8  QtCore{00040703}-3049.o(StubCode)
    theImportedSymbol                        0x0002273c   Data           0  QtCore{00040703}-3049.o(StubCode)
    StubCode                                 0x00022740   Section        8  QtCore{00040703}-3052.o(StubCode)
    theImportedSymbol                        0x00022744   Data           0  QtCore{00040703}-3052.o(StubCode)
    StubCode                                 0x00022748   Section        8  QtCore{00040703}-3064.o(StubCode)
    theImportedSymbol                        0x0002274c   Data           0  QtCore{00040703}-3064.o(StubCode)
    StubCode                                 0x00022750   Section        8  QtCore{00040703}-3080.o(StubCode)
    theImportedSymbol                        0x00022754   Data           0  QtCore{00040703}-3080.o(StubCode)
    StubCode                                 0x00022758   Section        8  QtCore{00040703}-3088.o(StubCode)
    theImportedSymbol                        0x0002275c   Data           0  QtCore{00040703}-3088.o(StubCode)
    StubCode                                 0x00022760   Section        8  QtCore{00040703}-3090.o(StubCode)
    theImportedSymbol                        0x00022764   Data           0  QtCore{00040703}-3090.o(StubCode)
    StubCode                                 0x00022768   Section        8  QtCore{00040703}-3097.o(StubCode)
    theImportedSymbol                        0x0002276c   Data           0  QtCore{00040703}-3097.o(StubCode)
    StubCode                                 0x00022770   Section        8  QtCore{00040703}-3098.o(StubCode)
    theImportedSymbol                        0x00022774   Data           0  QtCore{00040703}-3098.o(StubCode)
    StubCode                                 0x00022778   Section        8  QtCore{00040703}-3101.o(StubCode)
    theImportedSymbol                        0x0002277c   Data           0  QtCore{00040703}-3101.o(StubCode)
    StubCode                                 0x00022780   Section        8  QtCore{00040703}-312.o(StubCode)
    theImportedSymbol                        0x00022784   Data           0  QtCore{00040703}-312.o(StubCode)
    StubCode                                 0x00022788   Section        8  QtCore{00040703}-3129.o(StubCode)
    theImportedSymbol                        0x0002278c   Data           0  QtCore{00040703}-3129.o(StubCode)
    StubCode                                 0x00022790   Section        8  QtCore{00040703}-3136.o(StubCode)
    theImportedSymbol                        0x00022794   Data           0  QtCore{00040703}-3136.o(StubCode)
    StubCode                                 0x00022798   Section        8  QtCore{00040703}-3139.o(StubCode)
    theImportedSymbol                        0x0002279c   Data           0  QtCore{00040703}-3139.o(StubCode)
    StubCode                                 0x000227a0   Section        8  QtCore{00040703}-3142.o(StubCode)
    theImportedSymbol                        0x000227a4   Data           0  QtCore{00040703}-3142.o(StubCode)
    StubCode                                 0x000227a8   Section        8  QtCore{00040703}-3143.o(StubCode)
    theImportedSymbol                        0x000227ac   Data           0  QtCore{00040703}-3143.o(StubCode)
    StubCode                                 0x000227b0   Section        8  QtCore{00040703}-3149.o(StubCode)
    theImportedSymbol                        0x000227b4   Data           0  QtCore{00040703}-3149.o(StubCode)
    StubCode                                 0x000227b8   Section        8  QtCore{00040703}-3151.o(StubCode)
    theImportedSymbol                        0x000227bc   Data           0  QtCore{00040703}-3151.o(StubCode)
    StubCode                                 0x000227c0   Section        8  QtCore{00040703}-3163.o(StubCode)
    theImportedSymbol                        0x000227c4   Data           0  QtCore{00040703}-3163.o(StubCode)
    StubCode                                 0x000227c8   Section        8  QtCore{00040703}-3165.o(StubCode)
    theImportedSymbol                        0x000227cc   Data           0  QtCore{00040703}-3165.o(StubCode)
    StubCode                                 0x000227d0   Section        8  QtCore{00040703}-3166.o(StubCode)
    theImportedSymbol                        0x000227d4   Data           0  QtCore{00040703}-3166.o(StubCode)
    StubCode                                 0x000227d8   Section        8  QtCore{00040703}-32.o(StubCode)
    theImportedSymbol                        0x000227dc   Data           0  QtCore{00040703}-32.o(StubCode)
    StubCode                                 0x000227e0   Section        8  QtCore{00040703}-3229.o(StubCode)
    theImportedSymbol                        0x000227e4   Data           0  QtCore{00040703}-3229.o(StubCode)
    StubCode                                 0x000227e8   Section        8  QtCore{00040703}-3231.o(StubCode)
    theImportedSymbol                        0x000227ec   Data           0  QtCore{00040703}-3231.o(StubCode)
    StubCode                                 0x000227f0   Section        8  QtCore{00040703}-3232.o(StubCode)
    theImportedSymbol                        0x000227f4   Data           0  QtCore{00040703}-3232.o(StubCode)
    StubCode                                 0x000227f8   Section        8  QtCore{00040703}-3233.o(StubCode)
    theImportedSymbol                        0x000227fc   Data           0  QtCore{00040703}-3233.o(StubCode)
    StubCode                                 0x00022800   Section        8  QtCore{00040703}-3235.o(StubCode)
    theImportedSymbol                        0x00022804   Data           0  QtCore{00040703}-3235.o(StubCode)
    StubCode                                 0x00022808   Section        8  QtCore{00040703}-3236.o(StubCode)
    theImportedSymbol                        0x0002280c   Data           0  QtCore{00040703}-3236.o(StubCode)
    StubCode                                 0x00022810   Section        8  QtCore{00040703}-3237.o(StubCode)
    theImportedSymbol                        0x00022814   Data           0  QtCore{00040703}-3237.o(StubCode)
    StubCode                                 0x00022818   Section        8  QtCore{00040703}-324.o(StubCode)
    theImportedSymbol                        0x0002281c   Data           0  QtCore{00040703}-324.o(StubCode)
    StubCode                                 0x00022820   Section        8  QtCore{00040703}-331.o(StubCode)
    theImportedSymbol                        0x00022824   Data           0  QtCore{00040703}-331.o(StubCode)
    StubCode                                 0x00022828   Section        8  QtCore{00040703}-332.o(StubCode)
    theImportedSymbol                        0x0002282c   Data           0  QtCore{00040703}-332.o(StubCode)
    StubCode                                 0x00022830   Section        8  QtCore{00040703}-335.o(StubCode)
    theImportedSymbol                        0x00022834   Data           0  QtCore{00040703}-335.o(StubCode)
    StubCode                                 0x00022838   Section        8  QtCore{00040703}-3474.o(StubCode)
    theImportedSymbol                        0x0002283c   Data           0  QtCore{00040703}-3474.o(StubCode)
    StubCode                                 0x00022840   Section        8  QtCore{00040703}-3475.o(StubCode)
    theImportedSymbol                        0x00022844   Data           0  QtCore{00040703}-3475.o(StubCode)
    StubCode                                 0x00022848   Section        8  QtCore{00040703}-3483.o(StubCode)
    theImportedSymbol                        0x0002284c   Data           0  QtCore{00040703}-3483.o(StubCode)
    StubCode                                 0x00022850   Section        8  QtCore{00040703}-3583.o(StubCode)
    theImportedSymbol                        0x00022854   Data           0  QtCore{00040703}-3583.o(StubCode)
    StubCode                                 0x00022858   Section        8  QtCore{00040703}-3584.o(StubCode)
    theImportedSymbol                        0x0002285c   Data           0  QtCore{00040703}-3584.o(StubCode)
    StubCode                                 0x00022860   Section        8  QtCore{00040703}-3585.o(StubCode)
    theImportedSymbol                        0x00022864   Data           0  QtCore{00040703}-3585.o(StubCode)
    StubCode                                 0x00022868   Section        8  QtCore{00040703}-3607.o(StubCode)
    theImportedSymbol                        0x0002286c   Data           0  QtCore{00040703}-3607.o(StubCode)
    StubCode                                 0x00022870   Section        8  QtCore{00040703}-3608.o(StubCode)
    theImportedSymbol                        0x00022874   Data           0  QtCore{00040703}-3608.o(StubCode)
    StubCode                                 0x00022878   Section        8  QtCore{00040703}-3609.o(StubCode)
    theImportedSymbol                        0x0002287c   Data           0  QtCore{00040703}-3609.o(StubCode)
    StubCode                                 0x00022880   Section        8  QtCore{00040703}-3610.o(StubCode)
    theImportedSymbol                        0x00022884   Data           0  QtCore{00040703}-3610.o(StubCode)
    StubCode                                 0x00022888   Section        8  QtCore{00040703}-3689.o(StubCode)
    theImportedSymbol                        0x0002288c   Data           0  QtCore{00040703}-3689.o(StubCode)
    StubCode                                 0x00022890   Section        8  QtCore{00040703}-3691.o(StubCode)
    theImportedSymbol                        0x00022894   Data           0  QtCore{00040703}-3691.o(StubCode)
    StubCode                                 0x00022898   Section        8  QtCore{00040703}-3692.o(StubCode)
    theImportedSymbol                        0x0002289c   Data           0  QtCore{00040703}-3692.o(StubCode)
    StubCode                                 0x000228a0   Section        8  QtCore{00040703}-46.o(StubCode)
    theImportedSymbol                        0x000228a4   Data           0  QtCore{00040703}-46.o(StubCode)
    StubCode                                 0x000228a8   Section        8  QtCore{00040703}-499.o(StubCode)
    theImportedSymbol                        0x000228ac   Data           0  QtCore{00040703}-499.o(StubCode)
    StubCode                                 0x000228b0   Section        8  QtCore{00040703}-501.o(StubCode)
    theImportedSymbol                        0x000228b4   Data           0  QtCore{00040703}-501.o(StubCode)
    StubCode                                 0x000228b8   Section        8  QtCore{00040703}-505.o(StubCode)
    theImportedSymbol                        0x000228bc   Data           0  QtCore{00040703}-505.o(StubCode)
    StubCode                                 0x000228c0   Section        8  QtCore{00040703}-56.o(StubCode)
    theImportedSymbol                        0x000228c4   Data           0  QtCore{00040703}-56.o(StubCode)
    StubCode                                 0x000228c8   Section        8  QtCore{00040703}-70.o(StubCode)
    theImportedSymbol                        0x000228cc   Data           0  QtCore{00040703}-70.o(StubCode)
    StubCode                                 0x000228d0   Section        8  QtCore{00040703}-73.o(StubCode)
    theImportedSymbol                        0x000228d4   Data           0  QtCore{00040703}-73.o(StubCode)
    StubCode                                 0x000228d8   Section        8  QtCore{00040703}-753.o(StubCode)
    theImportedSymbol                        0x000228dc   Data           0  QtCore{00040703}-753.o(StubCode)
    StubCode                                 0x000228e0   Section        8  QtCore{00040703}-756.o(StubCode)
    theImportedSymbol                        0x000228e4   Data           0  QtCore{00040703}-756.o(StubCode)
    StubCode                                 0x000228e8   Section        8  QtCore{00040703}-78.o(StubCode)
    theImportedSymbol                        0x000228ec   Data           0  QtCore{00040703}-78.o(StubCode)
    StubCode                                 0x000228f0   Section        8  QtCore{00040703}-94.o(StubCode)
    theImportedSymbol                        0x000228f4   Data           0  QtCore{00040703}-94.o(StubCode)
    StubCode                                 0x000228f8   Section        8  QtCore{00040703}-95.o(StubCode)
    theImportedSymbol                        0x000228fc   Data           0  QtCore{00040703}-95.o(StubCode)
    StubCode                                 0x00022900   Section        8  libc{00010000}-232.o(StubCode)
    theImportedSymbol                        0x00022904   Data           0  libc{00010000}-232.o(StubCode)
    StubCode                                 0x00022908   Section        8  libc{00010000}-350.o(StubCode)
    theImportedSymbol                        0x0002290c   Data           0  libc{00010000}-350.o(StubCode)
    StubCode                                 0x00022910   Section        8  libc{00010000}-364.o(StubCode)
    theImportedSymbol                        0x00022914   Data           0  libc{00010000}-364.o(StubCode)
    StubCode                                 0x00022918   Section        8  euser{000a0000}-1170.o(StubCode)
    theImportedSymbol                        0x0002291c   Data           0  euser{000a0000}-1170.o(StubCode)
    StubCode                                 0x00022920   Section        8  euser{000a0000}-120.o(StubCode)
    theImportedSymbol                        0x00022924   Data           0  euser{000a0000}-120.o(StubCode)
    StubCode                                 0x00022928   Section        8  euser{000a0000}-1719.o(StubCode)
    theImportedSymbol                        0x0002292c   Data           0  euser{000a0000}-1719.o(StubCode)
    StubCode                                 0x00022930   Section        8  euser{000a0000}-1951.o(StubCode)
    theImportedSymbol                        0x00022934   Data           0  euser{000a0000}-1951.o(StubCode)
    StubCode                                 0x00022938   Section        8  euser{000a0000}-2060.o(StubCode)
    theImportedSymbol                        0x0002293c   Data           0  euser{000a0000}-2060.o(StubCode)
    StubCode                                 0x00022940   Section        8  euser{000a0000}-2061.o(StubCode)
    theImportedSymbol                        0x00022944   Data           0  euser{000a0000}-2061.o(StubCode)
    StubCode                                 0x00022948   Section        8  euser{000a0000}-2082.o(StubCode)
    theImportedSymbol                        0x0002294c   Data           0  euser{000a0000}-2082.o(StubCode)
    StubCode                                 0x00022950   Section        8  euser{000a0000}-669.o(StubCode)
    theImportedSymbol                        0x00022954   Data           0  euser{000a0000}-669.o(StubCode)
    StubCode                                 0x00022958   Section        8  euser{000a0000}-670.o(StubCode)
    theImportedSymbol                        0x0002295c   Data           0  euser{000a0000}-670.o(StubCode)
    StubCode                                 0x00022960   Section        8  euser{000a0000}-671.o(StubCode)
    theImportedSymbol                        0x00022964   Data           0  euser{000a0000}-671.o(StubCode)
    StubCode                                 0x00022968   Section        8  euser{000a0000}-759.o(StubCode)
    theImportedSymbol                        0x0002296c   Data           0  euser{000a0000}-759.o(StubCode)
    StubCode                                 0x00022970   Section        8  euser{000a0000}-782.o(StubCode)
    theImportedSymbol                        0x00022974   Data           0  euser{000a0000}-782.o(StubCode)
    StubCode                                 0x00022978   Section        8  dfpaeabi{000a0000}-12.o(StubCode)
    theImportedSymbol                        0x0002297c   Data           0  dfpaeabi{000a0000}-12.o(StubCode)
    StubCode                                 0x00022980   Section        8  dfpaeabi{000a0000}-2.o(StubCode)
    theImportedSymbol                        0x00022984   Data           0  dfpaeabi{000a0000}-2.o(StubCode)
    StubCode                                 0x00022988   Section        8  dfpaeabi{000a0000}-20.o(StubCode)
    theImportedSymbol                        0x0002298c   Data           0  dfpaeabi{000a0000}-20.o(StubCode)
    StubCode                                 0x00022990   Section        8  dfpaeabi{000a0000}-24.o(StubCode)
    theImportedSymbol                        0x00022994   Data           0  dfpaeabi{000a0000}-24.o(StubCode)
    StubCode                                 0x00022998   Section        8  dfpaeabi{000a0000}-25.o(StubCode)
    theImportedSymbol                        0x0002299c   Data           0  dfpaeabi{000a0000}-25.o(StubCode)
    StubCode                                 0x000229a0   Section        8  dfpaeabi{000a0000}-29.o(StubCode)
    theImportedSymbol                        0x000229a4   Data           0  dfpaeabi{000a0000}-29.o(StubCode)
    StubCode                                 0x000229a8   Section        8  dfpaeabi{000a0000}-36.o(StubCode)
    theImportedSymbol                        0x000229ac   Data           0  dfpaeabi{000a0000}-36.o(StubCode)
    StubCode                                 0x000229b0   Section        8  dfpaeabi{000a0000}-37.o(StubCode)
    theImportedSymbol                        0x000229b4   Data           0  dfpaeabi{000a0000}-37.o(StubCode)
    StubCode                                 0x000229b8   Section        8  dfpaeabi{000a0000}-39.o(StubCode)
    theImportedSymbol                        0x000229bc   Data           0  dfpaeabi{000a0000}-39.o(StubCode)
    StubCode                                 0x000229c0   Section        8  dfpaeabi{000a0000}-40.o(StubCode)
    theImportedSymbol                        0x000229c4   Data           0  dfpaeabi{000a0000}-40.o(StubCode)
    StubCode                                 0x000229c8   Section        8  dfpaeabi{000a0000}-42.o(StubCode)
    theImportedSymbol                        0x000229cc   Data           0  dfpaeabi{000a0000}-42.o(StubCode)
    StubCode                                 0x000229d0   Section        8  dfpaeabi{000a0000}-5.o(StubCode)
    theImportedSymbol                        0x000229d4   Data           0  dfpaeabi{000a0000}-5.o(StubCode)
    StubCode                                 0x000229d8   Section        8  dfpaeabi{000a0000}-6.o(StubCode)
    theImportedSymbol                        0x000229dc   Data           0  dfpaeabi{000a0000}-6.o(StubCode)
    StubCode                                 0x000229e0   Section        8  dfpaeabi{000a0000}-7.o(StubCode)
    theImportedSymbol                        0x000229e4   Data           0  dfpaeabi{000a0000}-7.o(StubCode)
    StubCode                                 0x000229e8   Section        8  dfpaeabi{000a0000}-8.o(StubCode)
    theImportedSymbol                        0x000229ec   Data           0  dfpaeabi{000a0000}-8.o(StubCode)
    StubCode                                 0x000229f0   Section        8  drtaeabi{000a0000}-135.o(StubCode)
    theImportedSymbol                        0x000229f4   Data           0  drtaeabi{000a0000}-135.o(StubCode)
    StubCode                                 0x000229f8   Section        8  drtaeabi{000a0000}-139.o(StubCode)
    theImportedSymbol                        0x000229fc   Data           0  drtaeabi{000a0000}-139.o(StubCode)
    StubCode                                 0x00022a00   Section        8  drtaeabi{000a0000}-144.o(StubCode)
    theImportedSymbol                        0x00022a04   Data           0  drtaeabi{000a0000}-144.o(StubCode)
    StubCode                                 0x00022a08   Section        8  drtaeabi{000a0000}-146.o(StubCode)
    theImportedSymbol                        0x00022a0c   Data           0  drtaeabi{000a0000}-146.o(StubCode)
    StubCode                                 0x00022a10   Section        8  drtaeabi{000a0000}-147.o(StubCode)
    theImportedSymbol                        0x00022a14   Data           0  drtaeabi{000a0000}-147.o(StubCode)
    StubCode                                 0x00022a18   Section        8  drtaeabi{000a0000}-155.o(StubCode)
    theImportedSymbol                        0x00022a1c   Data           0  drtaeabi{000a0000}-155.o(StubCode)
    StubCode                                 0x00022a20   Section        8  drtaeabi{000a0000}-158.o(StubCode)
    theImportedSymbol                        0x00022a24   Data           0  drtaeabi{000a0000}-158.o(StubCode)
    StubCode                                 0x00022a28   Section        8  drtaeabi{000a0000}-180.o(StubCode)
    theImportedSymbol                        0x00022a2c   Data           0  drtaeabi{000a0000}-180.o(StubCode)
    StubCode                                 0x00022a30   Section        8  drtaeabi{000a0000}-183.o(StubCode)
    theImportedSymbol                        0x00022a34   Data           0  drtaeabi{000a0000}-183.o(StubCode)
    StubCode                                 0x00022a38   Section        8  drtaeabi{000a0000}-184.o(StubCode)
    theImportedSymbol                        0x00022a3c   Data           0  drtaeabi{000a0000}-184.o(StubCode)
    StubCode                                 0x00022a40   Section        8  drtaeabi{000a0000}-186.o(StubCode)
    theImportedSymbol                        0x00022a44   Data           0  drtaeabi{000a0000}-186.o(StubCode)
    StubCode                                 0x00022a48   Section        8  drtaeabi{000a0000}-187.o(StubCode)
    theImportedSymbol                        0x00022a4c   Data           0  drtaeabi{000a0000}-187.o(StubCode)
    StubCode                                 0x00022a50   Section        8  drtaeabi{000a0000}-188.o(StubCode)
    theImportedSymbol                        0x00022a54   Data           0  drtaeabi{000a0000}-188.o(StubCode)
    StubCode                                 0x00022a58   Section        8  drtaeabi{000a0000}-189.o(StubCode)
    theImportedSymbol                        0x00022a5c   Data           0  drtaeabi{000a0000}-189.o(StubCode)
    StubCode                                 0x00022a60   Section        8  drtaeabi{000a0000}-190.o(StubCode)
    theImportedSymbol                        0x00022a64   Data           0  drtaeabi{000a0000}-190.o(StubCode)
    StubCode                                 0x00022a68   Section        8  drtrvct2_2{000a0000}-28.o(StubCode)
    theImportedSymbol                        0x00022a6c   Data           0  drtrvct2_2{000a0000}-28.o(StubCode)
    StubCode                                 0x00022a70   Section        8  drtrvct2_2{000a0000}-44.o(StubCode)
    theImportedSymbol                        0x00022a74   Data           0  drtrvct2_2{000a0000}-44.o(StubCode)
    StubCode                                 0x00022a78   Section        8  drtrvct2_2{000a0000}-45.o(StubCode)
    theImportedSymbol                        0x00022a7c   Data           0  drtrvct2_2{000a0000}-45.o(StubCode)
    StubCode                                 0x00022a80   Section        8  drtrvct2_2{000a0000}-49.o(StubCode)
    theImportedSymbol                        0x00022a84   Data           0  drtrvct2_2{000a0000}-49.o(StubCode)
    StubCode                                 0x00022a88   Section        8  drtrvct2_2{000a0000}-50.o(StubCode)
    theImportedSymbol                        0x00022a8c   Data           0  drtrvct2_2{000a0000}-50.o(StubCode)
    StubCode                                 0x00022a90   Section        8  drtrvct2_2{000a0000}-51.o(StubCode)
    theImportedSymbol                        0x00022a94   Data           0  drtrvct2_2{000a0000}-51.o(StubCode)
    StubCode                                 0x00022a98   Section        8  drtrvct2_2{000a0000}-56.o(StubCode)
    theImportedSymbol                        0x00022a9c   Data           0  drtrvct2_2{000a0000}-56.o(StubCode)
    StubCode                                 0x00022aa0   Section        8  drtrvct2_2{000a0000}-57.o(StubCode)
    theImportedSymbol                        0x00022aa4   Data           0  drtrvct2_2{000a0000}-57.o(StubCode)
    StubCode                                 0x00022aa8   Section        8  drtrvct2_2{000a0000}-59.o(StubCode)
    theImportedSymbol                        0x00022aac   Data           0  drtrvct2_2{000a0000}-59.o(StubCode)
    StubCode                                 0x00022ab0   Section        8  drtrvct2_2{000a0000}-64.o(StubCode)
    theImportedSymbol                        0x00022ab4   Data           0  drtrvct2_2{000a0000}-64.o(StubCode)
    StubCode                                 0x00022ab8   Section        8  drtrvct2_2{000a0000}-65.o(StubCode)
    theImportedSymbol                        0x00022abc   Data           0  drtrvct2_2{000a0000}-65.o(StubCode)
    i._Z20qvariant_cast_helperRK8QVariantNS_4TypeEPv 0x00022ac0   Section       20  QtMultimediaKit.in(i._Z20qvariant_cast_helperRK8QVariantNS_4TypeEPv)
    i._Z6qRoundf                             0x00022ad4   Section       84  QtMultimediaKit.in(i._Z6qRoundf)
    i._Z8qWarningv                           0x00022b28   Section       58  QtMultimediaKit.in(i._Z8qWarningv)
    i._Z8qWarningv.clean                     0x00022b62   Section       18  QtMultimediaKit.in(i._Z8qWarningv.clean)
    i._Z8qstrncmpPKcS0_j                     0x00022b74   Section       36  QtMultimediaKit.in(i._Z8qstrncmpPKcS0_j)
    i._ZN10QByteArray4dataEv                 0x00022b98   Section       36  QtMultimediaKit.in(i._ZN10QByteArray4dataEv)
    i._ZN10QByteArrayC1ERKS_                 0x00022bbc   Section       16  QtMultimediaKit.in(i._ZN10QByteArrayC1ERKS_)
    i._ZN10QByteArrayD1Ev                    0x00022bcc   Section       24  QtMultimediaKit.in(i._ZN10QByteArrayD1Ev)
    i._ZN11QBasicTimerD1Ev                   0x00022be4   Section       20  QtMultimediaKit.in(i._ZN11QBasicTimerD1Ev)
    i._ZN11QStringListC1ERKS_                0x00022bf8   Section       30  QtMultimediaKit.in(i._ZN11QStringListC1ERKS_)
    i._ZN11QStringListC1Ev                   0x00022c16   Section        8  QtMultimediaKit.in(i._ZN11QStringListC1Ev)
    i._ZN11QStringListD1Ev                   0x00022c1e   Section        8  QtMultimediaKit.in(i._ZN11QStringListD1Ev)
    i._ZN12QMapIteratorIiiED1Ev              0x00022c26   Section        8  QtMultimediaKit.in(i._ZN12QMapIteratorIiiED1Ev)
    i._ZN12QMutexLockerC1EP6QMutex           0x00022c2e   Section       28  QtMultimediaKit.in(i._ZN12QMutexLockerC1EP6QMutex)
    i._ZN12QMutexLockerD1Ev                  0x00022c4a   Section       28  QtMultimediaKit.in(i._ZN12QMutexLockerD1Ev)
    i._ZN14QCameraPrivateC1Ev                0x00022c68   Section       84  QtMultimediaKit.in(i._ZN14QCameraPrivateC1Ev)
    i._ZN14QCameraPrivateC1Ev.clean          0x00022cbc   Section       10  QtMultimediaKit.in(i._ZN14QCameraPrivateC1Ev.clean)
    i._ZN14QCameraPrivateD0Ev                0x00022cc6   Section       16  QtMultimediaKit.in(i._ZN14QCameraPrivateD0Ev)
    i._ZN14QCameraPrivateD1Ev                0x00022cd8   Section       28  QtMultimediaKit.in(i._ZN14QCameraPrivateD1Ev)
    i._ZN14QCameraPrivateD1Ev.clean          0x00022cf4   Section       10  QtMultimediaKit.in(i._ZN14QCameraPrivateD1Ev.clean)
    i._ZN14QMediaPlaylist2trEPKcS1_          0x00022d00   Section       20  QtMultimediaKit.in(i._ZN14QMediaPlaylist2trEPKcS1_)
    i._ZN15QBasicAtomicInt3refEv             0x00022d14   Section       18  QtMultimediaKit.in(i._ZN15QBasicAtomicInt3refEv)
    i._ZN15QBasicAtomicInt5derefEv           0x00022d26   Section       18  QtMultimediaKit.in(i._ZN15QBasicAtomicInt5derefEv)
    i._ZN15QGraphicsObjectD2Ev               0x00022d38   Section       18  QtMultimediaKit.in(i._ZN15QGraphicsObjectD2Ev)
    i._ZN15QGraphicsObjectD2Ev.clean         0x00022d4a   Section       10  QtMultimediaKit.in(i._ZN15QGraphicsObjectD2Ev.clean)
    i._ZN15QNullDeviceInfo15supportedCodecsEv 0x00022d54   Section       20  QtMultimediaKit.in(i._ZN15QNullDeviceInfo15supportedCodecsEv)
    i._ZN15QNullDeviceInfo19supportedByteOrdersEv 0x00022d68   Section       20  QtMultimediaKit.in(i._ZN15QNullDeviceInfo19supportedByteOrdersEv)
    i._ZN15QNullDeviceInfo20supportedSampleRatesEv 0x00022d7c   Section        8  QtMultimediaKit.in(i._ZN15QNullDeviceInfo20supportedSampleRatesEv)
    i._ZN15QNullDeviceInfo20supportedSampleSizesEv 0x00022d84   Section        8  QtMultimediaKit.in(i._ZN15QNullDeviceInfo20supportedSampleSizesEv)
    i._ZN15QNullDeviceInfo20supportedSampleTypesEv 0x00022d8c   Section       20  QtMultimediaKit.in(i._ZN15QNullDeviceInfo20supportedSampleTypesEv)
    i._ZN15QNullDeviceInfo22supportedChannelCountsEv 0x00022da0   Section        8  QtMultimediaKit.in(i._ZN15QNullDeviceInfo22supportedChannelCountsEv)
    i._ZN15QNullDeviceInfoD0Ev               0x00022da8   Section       16  QtMultimediaKit.in(i._ZN15QNullDeviceInfoD0Ev)
    i._ZN15QNullDeviceInfoD1Ev               0x00022db8   Section        8  QtMultimediaKit.in(i._ZN15QNullDeviceInfoD1Ev)
    i._ZN16QNullInputDevice13setBufferSizeEi 0x00022dc0   Section        2  QtMultimediaKit.in(i._ZN16QNullInputDevice13setBufferSizeEi)
    i._ZN16QNullInputDevice17setNotifyIntervalEi 0x00022dc2   Section        2  QtMultimediaKit.in(i._ZN16QNullInputDevice17setNotifyIntervalEi)
    i._ZN16QNullInputDevice4stopEv           0x00022dc4   Section        2  QtMultimediaKit.in(i._ZN16QNullInputDevice4stopEv)
    i._ZN16QNullInputDevice5resetEv          0x00022dc6   Section        2  QtMultimediaKit.in(i._ZN16QNullInputDevice5resetEv)
    i._ZN16QNullInputDevice5startEP9QIODevice 0x00022dc8   Section       64  QtMultimediaKit.in(i._ZN16QNullInputDevice5startEP9QIODevice)
    i._ZN16QNullInputDevice5startEP9QIODevice.clean 0x00022e08   Section       10  QtMultimediaKit.in(i._ZN16QNullInputDevice5startEP9QIODevice.clean)
    i._ZN16QNullInputDevice5startEv          0x00022e14   Section       68  QtMultimediaKit.in(i._ZN16QNullInputDevice5startEv)
    i._ZN16QNullInputDevice5startEv.clean    0x00022e58   Section       10  QtMultimediaKit.in(i._ZN16QNullInputDevice5startEv.clean)
    i._ZN16QNullInputDevice6resumeEv         0x00022e62   Section        2  QtMultimediaKit.in(i._ZN16QNullInputDevice6resumeEv)
    i._ZN16QNullInputDevice7suspendEv        0x00022e64   Section        2  QtMultimediaKit.in(i._ZN16QNullInputDevice7suspendEv)
    i._ZN16QNullInputDevice9setFormatERK12QAudioFormat 0x00022e66   Section        2  QtMultimediaKit.in(i._ZN16QNullInputDevice9setFormatERK12QAudioFormat)
    i._ZN16QNullInputDeviceC1Ev              0x00022e68   Section       20  QtMultimediaKit.in(i._ZN16QNullInputDeviceC1Ev)
    i._ZN16QNullInputDeviceD0Ev              0x00022e7c   Section       16  QtMultimediaKit.in(i._ZN16QNullInputDeviceD0Ev)
    i._ZN16QNullInputDeviceD1Ev              0x00022e8c   Section        8  QtMultimediaKit.in(i._ZN16QNullInputDeviceD1Ev)
    i._ZN17MDevSoundObserver17SendEventToClientERK9TMMFEvent 0x00022e94   Section        2  QtMultimediaKit.in(i._ZN17MDevSoundObserver17SendEventToClientERK9TMMFEvent)
    i._ZN17QForeachContainerI11QStringListED1Ev 0x00022e96   Section        8  QtMultimediaKit.in(i._ZN17QForeachContainerI11QStringListED1Ev)
    i._ZN17QForeachContainerI4QSetIiEED1Ev   0x00022e9e   Section        8  QtMultimediaKit.in(i._ZN17QForeachContainerI4QSetIiEED1Ev)
    i._ZN17QForeachContainerI5QListI10QByteArrayEED1Ev 0x00022ea6   Section        8  QtMultimediaKit.in(i._ZN17QForeachContainerI5QListI10QByteArrayEED1Ev)
    i._ZN17QForeachContainerI5QListI13QMediaContentEED1Ev 0x00022eae   Section        8  QtMultimediaKit.in(i._ZN17QForeachContainerI5QListI13QMediaContentEED1Ev)
    i._ZN17QForeachContainerI5QListI18QMediaTimeIntervalEED1Ev 0x00022eb6   Section        8  QtMultimediaKit.in(i._ZN17QForeachContainerI5QListI18QMediaTimeIntervalEED1Ev)
    i._ZN17QForeachContainerI5QListI7QStringEED1Ev 0x00022ebe   Section        8  QtMultimediaKit.in(i._ZN17QForeachContainerI5QListI7QStringEED1Ev)
    i._ZN17QForeachContainerI5QListI8QPointerI7QObjectEEED1Ev 0x00022ec6   Section        8  QtMultimediaKit.in(i._ZN17QForeachContainerI5QListI8QPointerI7QObjectEEED1Ev)
    i._ZN17QForeachContainerI5QListI8QVariantEED1Ev 0x00022ece   Section        8  QtMultimediaKit.in(i._ZN17QForeachContainerI5QListI8QVariantEED1Ev)
    i._ZN17QForeachContainerI5QListIN11QVideoFrame11PixelFormatEEED1Ev 0x00022ed6   Section        8  QtMultimediaKit.in(i._ZN17QForeachContainerI5QListIN11QVideoFrame11PixelFormatEEED1Ev)
    i._ZN17QForeachContainerI5QListIN12QAudioFormat10SampleTypeEEED1Ev 0x00022ede   Section        8  QtMultimediaKit.in(i._ZN17QForeachContainerI5QListIN12QAudioFormat10SampleTypeEEED1Ev)
    i._ZN17QForeachContainerI5QListIN12QAudioFormat6EndianEEED1Ev 0x00022ee6   Section        8  QtMultimediaKit.in(i._ZN17QForeachContainerI5QListIN12QAudioFormat6EndianEEED1Ev)
    i._ZN17QForeachContainerI5QListIN7QCamera10LockStatusEEED1Ev 0x00022eee   Section        8  QtMultimediaKit.in(i._ZN17QForeachContainerI5QListIN7QCamera10LockStatusEEED1Ev)
    i._ZN17QForeachContainerI5QListIP27QMediaServiceProviderPluginEED1Ev 0x00022ef6   Section        8  QtMultimediaKit.in(i._ZN17QForeachContainerI5QListIP27QMediaServiceProviderPluginEED1Ev)
    i._ZN17QForeachContainerI5QListIP7QObjectEED1Ev 0x00022efe   Section        8  QtMultimediaKit.in(i._ZN17QForeachContainerI5QListIP7QObjectEED1Ev)
    i._ZN17QForeachContainerI5QListIiEED1Ev  0x00022f06   Section        8  QtMultimediaKit.in(i._ZN17QForeachContainerI5QListIiEED1Ev)
    i._ZN17QNullOutputDevice13setBufferSizeEi 0x00022f0e   Section        2  QtMultimediaKit.in(i._ZN17QNullOutputDevice13setBufferSizeEi)
    i._ZN17QNullOutputDevice17setNotifyIntervalEi 0x00022f10   Section        2  QtMultimediaKit.in(i._ZN17QNullOutputDevice17setNotifyIntervalEi)
    i._ZN17QNullOutputDevice4stopEv          0x00022f12   Section        2  QtMultimediaKit.in(i._ZN17QNullOutputDevice4stopEv)
    i._ZN17QNullOutputDevice5resetEv         0x00022f14   Section        2  QtMultimediaKit.in(i._ZN17QNullOutputDevice5resetEv)
    i._ZN17QNullOutputDevice5startEP9QIODevice 0x00022f18   Section       68  QtMultimediaKit.in(i._ZN17QNullOutputDevice5startEP9QIODevice)
    i._ZN17QNullOutputDevice5startEP9QIODevice.clean 0x00022f5c   Section       10  QtMultimediaKit.in(i._ZN17QNullOutputDevice5startEP9QIODevice.clean)
    i._ZN17QNullOutputDevice5startEv         0x00022f68   Section       72  QtMultimediaKit.in(i._ZN17QNullOutputDevice5startEv)
    i._ZN17QNullOutputDevice5startEv.clean   0x00022fb0   Section       10  QtMultimediaKit.in(i._ZN17QNullOutputDevice5startEv.clean)
    i._ZN17QNullOutputDevice6resumeEv        0x00022fba   Section        2  QtMultimediaKit.in(i._ZN17QNullOutputDevice6resumeEv)
    i._ZN17QNullOutputDevice7suspendEv       0x00022fbc   Section        2  QtMultimediaKit.in(i._ZN17QNullOutputDevice7suspendEv)
    i._ZN17QNullOutputDevice9setFormatERK12QAudioFormat 0x00022fbe   Section        2  QtMultimediaKit.in(i._ZN17QNullOutputDevice9setFormatERK12QAudioFormat)
    i._ZN17QNullOutputDeviceC1Ev             0x00022fc0   Section       20  QtMultimediaKit.in(i._ZN17QNullOutputDeviceC1Ev)
    i._ZN17QNullOutputDeviceD0Ev             0x00022fd4   Section       16  QtMultimediaKit.in(i._ZN17QNullOutputDeviceD0Ev)
    i._ZN17QNullOutputDeviceD1Ev             0x00022fe4   Section        8  QtMultimediaKit.in(i._ZN17QNullOutputDeviceD1Ev)
    i._ZN18QMediaPluginLoaderD1Ev            0x00022fec   Section       28  QtMultimediaKit.in(i._ZN18QMediaPluginLoaderD1Ev)
    i._ZN18QMediaPluginLoaderD1Ev.clean      0x00023008   Section       18  QtMultimediaKit.in(i._ZN18QMediaPluginLoaderD1Ev.clean)
    i._ZN18QRadioTunerPrivateD0Ev            0x0002301a   Section       16  QtMultimediaKit.in(i._ZN18QRadioTunerPrivateD0Ev)
    i._ZN18QRadioTunerPrivateD1Ev            0x0002302a   Section        8  QtMultimediaKit.in(i._ZN18QRadioTunerPrivateD1Ev)
    i._ZN18QVideoFramePrivateC1ERK5QSizeN11QVideoFrame11PixelFormatE 0x00023032   Section       38  QtMultimediaKit.in(i._ZN18QVideoFramePrivateC1ERK5QSizeN11QVideoFrame11PixelFormatE)
    i._ZN18QVideoFramePrivateD1Ev            0x00023058   Section       20  QtMultimediaKit.in(i._ZN18QVideoFramePrivateD1Ev)
    i._ZN19QAbstractAudioInputD0Ev           0x0002306c   Section       16  QtMultimediaKit.in(i._ZN19QAbstractAudioInputD0Ev)
    i._ZN19QAbstractAudioInputD2Ev           0x0002307c   Section        8  QtMultimediaKit.in(i._ZN19QAbstractAudioInputD2Ev)
    i._ZN19QAudioFormatPrivateD1Ev           0x00023084   Section       12  QtMultimediaKit.in(i._ZN19QAudioFormatPrivateD1Ev)
    i._ZN19QCameraFocusPrivateD0Ev           0x00023090   Section       16  QtMultimediaKit.in(i._ZN19QCameraFocusPrivateD0Ev)
    i._ZN19QCameraFocusPrivateD1Ev           0x000230a0   Section        8  QtMultimediaKit.in(i._ZN19QCameraFocusPrivateD1Ev)
    i._ZN19QMediaObjectPrivateD0Ev           0x000230a8   Section       16  QtMultimediaKit.in(i._ZN19QMediaObjectPrivateD0Ev)
    i._ZN19QMediaObjectPrivateD1Ev           0x000230b8   Section       20  QtMultimediaKit.in(i._ZN19QMediaObjectPrivateD1Ev)
    i._ZN19QMediaPlayerPrivateC1Ev           0x000230cc   Section       72  QtMultimediaKit.in(i._ZN19QMediaPlayerPrivateC1Ev)
    i._ZN19QMediaPlayerPrivateC1Ev.clean     0x00023114   Section       10  QtMultimediaKit.in(i._ZN19QMediaPlayerPrivateC1Ev.clean)
    i._ZN19QMediaPlayerPrivateD0Ev           0x0002311e   Section       16  QtMultimediaKit.in(i._ZN19QMediaPlayerPrivateD0Ev)
    i._ZN19QMediaPlayerPrivateD1Ev           0x00023130   Section       44  QtMultimediaKit.in(i._ZN19QMediaPlayerPrivateD1Ev)
    i._ZN19QMediaPlayerPrivateD1Ev.clean     0x0002315c   Section       22  QtMultimediaKit.in(i._ZN19QMediaPlayerPrivateD1Ev.clean)
    i._ZN19QVideoWidgetBackendC2Ev           0x00023174   Section       24  QtMultimediaKit.in(i._ZN19QVideoWidgetBackendC2Ev)
    i._ZN19QVideoWidgetBackendD0Ev           0x0002318c   Section       16  QtMultimediaKit.in(i._ZN19QVideoWidgetBackendD0Ev)
    i._ZN19QVideoWidgetBackendD2Ev           0x0002319c   Section        8  QtMultimediaKit.in(i._ZN19QVideoWidgetBackendD2Ev)
    i._ZN20QAbstractAudioOutputD0Ev          0x000231a4   Section       16  QtMultimediaKit.in(i._ZN20QAbstractAudioOutputD0Ev)
    i._ZN20QAbstractAudioOutputD2Ev          0x000231b4   Section        8  QtMultimediaKit.in(i._ZN20QAbstractAudioOutputD2Ev)
    i._ZN20QMediaContentPrivateC1Ev          0x000231bc   Section       16  QtMultimediaKit.in(i._ZN20QMediaContentPrivateC1Ev)
    i._ZN20QMediaContentPrivateD1Ev          0x000231cc   Section       12  QtMultimediaKit.in(i._ZN20QMediaContentPrivateD1Ev)
    i._ZN20QMediaControlPrivateD0Ev          0x000231d8   Section       12  QtMultimediaKit.in(i._ZN20QMediaControlPrivateD0Ev)
    i._ZN20QMediaControlPrivateD1Ev          0x000231e4   Section        2  QtMultimediaKit.in(i._ZN20QMediaControlPrivateD1Ev)
    i._ZN20QMediaServicePrivateD0Ev          0x000231e6   Section       12  QtMultimediaKit.in(i._ZN20QMediaServicePrivateD0Ev)
    i._ZN20QMediaServicePrivateD1Ev          0x000231f2   Section        2  QtMultimediaKit.in(i._ZN20QMediaServicePrivateD1Ev)
    i._ZN20QVideoSurfacePainter17viewportDestroyedEv 0x000231f4   Section        2  QtMultimediaKit.in(i._ZN20QVideoSurfacePainter17viewportDestroyedEv)
    i._ZN21QMediaPlaylistPrivateD0Ev         0x000231f6   Section       16  QtMultimediaKit.in(i._ZN21QMediaPlaylistPrivateD0Ev)
    i._ZN21QMediaPlaylistPrivateD1Ev         0x00023208   Section       20  QtMultimediaKit.in(i._ZN21QMediaPlaylistPrivateD1Ev)
    i._ZN21QMediaServiceProviderD0Ev         0x0002321c   Section       16  QtMultimediaKit.in(i._ZN21QMediaServiceProviderD0Ev)
    i._ZN21QMediaServiceProviderD2Ev         0x0002322c   Section        8  QtMultimediaKit.in(i._ZN21QMediaServiceProviderD2Ev)
    i._ZN22QMediaTimeRangePrivateD1Ev        0x00023234   Section       12  QtMultimediaKit.in(i._ZN22QMediaTimeRangePrivateD1Ev)
    i._ZN22QPluginServiceProvider14releaseServiceEP13QMediaService 0x00023240   Section       30  QtMultimediaKit.in(i._ZN22QPluginServiceProvider14releaseServiceEP13QMediaService)
    i._ZN22QPluginServiceProvider14requestServiceERK10QByteArrayRK25QMediaServiceProviderHint 0x00023260   Section     1056  QtMultimediaKit.in(i._ZN22QPluginServiceProvider14requestServiceERK10QByteArrayRK25QMediaServiceProviderHint)
    i._ZN22QPluginServiceProvider14requestServiceERK10QByteArrayRK25QMediaServiceProviderHint.clean 0x00023680   Section      108  QtMultimediaKit.in(i._ZN22QPluginServiceProvider14requestServiceERK10QByteArrayRK25QMediaServiceProviderHint.clean)
    i._ZN22QPluginServiceProvider17deviceDescriptionERK10QByteArrayS2_ 0x000236ec   Section      196  QtMultimediaKit.in(i._ZN22QPluginServiceProvider17deviceDescriptionERK10QByteArrayS2_)
    i._ZN22QPluginServiceProvider17deviceDescriptionERK10QByteArrayS2_.clean 0x000237b0   Section       30  QtMultimediaKit.in(i._ZN22QPluginServiceProvider17deviceDescriptionERK10QByteArrayS2_.clean)
    i._ZN22QPluginServiceProviderD0Ev        0x000237ce   Section       16  QtMultimediaKit.in(i._ZN22QPluginServiceProviderD0Ev)
    i._ZN22QPluginServiceProviderD1Ev        0x000237e0   Section       28  QtMultimediaKit.in(i._ZN22QPluginServiceProviderD1Ev)
    i._ZN22QPluginServiceProviderD1Ev.clean  0x000237fc   Section       10  QtMultimediaKit.in(i._ZN22QPluginServiceProviderD1Ev.clean)
    i._ZN23QAudioDeviceInfoPrivateD1Ev       0x00023806   Section       36  QtMultimediaKit.in(i._ZN23QAudioDeviceInfoPrivateD1Ev)
    i._ZN23QAudioDeviceInfoPrivateD1Ev.clean 0x0002382a   Section       20  QtMultimediaKit.in(i._ZN23QAudioDeviceInfoPrivateD1Ev.clean)
    i._ZN24QAbstractAudioDeviceInfoD0Ev      0x0002383e   Section       16  QtMultimediaKit.in(i._ZN24QAbstractAudioDeviceInfoD0Ev)
    i._ZN24QAbstractAudioDeviceInfoD2Ev      0x0002384e   Section        8  QtMultimediaKit.in(i._ZN24QAbstractAudioDeviceInfoD2Ev)
    i._ZN24QAudioDeviceInfoInternal12CapabilitiesC1Ev 0x00023858   Section       68  QtMultimediaKit.in(i._ZN24QAudioDeviceInfoInternal12CapabilitiesC1Ev)
    i._ZN24QAudioDeviceInfoInternal12CapabilitiesC1Ev.clean 0x0002389c   Section       42  QtMultimediaKit.in(i._ZN24QAudioDeviceInfoInternal12CapabilitiesC1Ev.clean)
    i._ZN24QAudioDeviceInfoInternal12CapabilitiesD1Ev 0x000238c6   Section       52  QtMultimediaKit.in(i._ZN24QAudioDeviceInfoInternal12CapabilitiesD1Ev)
    i._ZN24QAudioDeviceInfoInternal12CapabilitiesD1Ev.clean 0x000238fa   Section       42  QtMultimediaKit.in(i._ZN24QAudioDeviceInfoInternal12CapabilitiesD1Ev.clean)
    i._ZN24QImageVideoBufferPrivateD0Ev      0x00023924   Section       16  QtMultimediaKit.in(i._ZN24QImageVideoBufferPrivateD0Ev)
    i._ZN24QImageVideoBufferPrivateD1Ev      0x00023934   Section       24  QtMultimediaKit.in(i._ZN24QImageVideoBufferPrivateD1Ev)
    i._ZN24QImageVideoBufferPrivateD1Ev.clean 0x0002394c   Section       10  QtMultimediaKit.in(i._ZN24QImageVideoBufferPrivateD1Ev.clean)
    i._ZN24QMediaImageViewerPrivateC1Ev      0x00023958   Section       84  QtMultimediaKit.in(i._ZN24QMediaImageViewerPrivateC1Ev)
    i._ZN24QMediaImageViewerPrivateC1Ev.clean 0x000239ac   Section       24  QtMultimediaKit.in(i._ZN24QMediaImageViewerPrivateC1Ev.clean)
    i._ZN24QMediaImageViewerPrivateD0Ev      0x000239c4   Section       16  QtMultimediaKit.in(i._ZN24QMediaImageViewerPrivateD0Ev)
    i._ZN24QMediaImageViewerPrivateD1Ev      0x000239d4   Section       56  QtMultimediaKit.in(i._ZN24QMediaImageViewerPrivateD1Ev)
    i._ZN24QMediaImageViewerPrivateD1Ev.clean 0x00023a0c   Section       34  QtMultimediaKit.in(i._ZN24QMediaImageViewerPrivateD1Ev.clean)
    i._ZN25QGraphicsVideoItemPrivateC1Ev     0x00023a30   Section      104  QtMultimediaKit.in(i._ZN25QGraphicsVideoItemPrivateC1Ev)
    i._ZN25QGraphicsVideoItemPrivateC1Ev.clean 0x00023a98   Section       30  QtMultimediaKit.in(i._ZN25QGraphicsVideoItemPrivateC1Ev.clean)
    i._ZN25QGraphicsVideoItemPrivateD0Ev     0x00023ab6   Section       16  QtMultimediaKit.in(i._ZN25QGraphicsVideoItemPrivateD0Ev)
    i._ZN25QGraphicsVideoItemPrivateD1Ev     0x00023ac8   Section       44  QtMultimediaKit.in(i._ZN25QGraphicsVideoItemPrivateD1Ev)
    i._ZN25QGraphicsVideoItemPrivateD1Ev.clean 0x00023af4   Section       22  QtMultimediaKit.in(i._ZN25QGraphicsVideoItemPrivateD1Ev.clean)
    i._ZN25QMemoryVideoBufferPrivateD0Ev     0x00023b0a   Section       16  QtMultimediaKit.in(i._ZN25QMemoryVideoBufferPrivateD0Ev)
    i._ZN25QMemoryVideoBufferPrivateD1Ev     0x00023b1c   Section       24  QtMultimediaKit.in(i._ZN25QMemoryVideoBufferPrivateD1Ev)
    i._ZN25QMemoryVideoBufferPrivateD1Ev.clean 0x00023b34   Section       10  QtMultimediaKit.in(i._ZN25QMemoryVideoBufferPrivateD1Ev.clean)
    i._ZN26QAudioCaptureSourcePrivate12initControlsEv 0x00023b40   Section      300  QtMultimediaKit.in(i._ZN26QAudioCaptureSourcePrivate12initControlsEv)
    i._ZN26QAudioCaptureSourcePrivateD0Ev    0x00023c6c   Section       16  QtMultimediaKit.in(i._ZN26QAudioCaptureSourcePrivateD0Ev)
    i._ZN26QAudioCaptureSourcePrivateD1Ev    0x00023c7c   Section        8  QtMultimediaKit.in(i._ZN26QAudioCaptureSourcePrivateD1Ev)
    i._ZN26QCameraImageCapturePrivate10unsetErrorEv 0x00023c84   Section       44  QtMultimediaKit.in(i._ZN26QCameraImageCapturePrivate10unsetErrorEv)
    i._ZN26QCameraImageCapturePrivate10unsetErrorEv.clean 0x00023cb0   Section       10  QtMultimediaKit.in(i._ZN26QCameraImageCapturePrivate10unsetErrorEv.clean)
    i._ZN26QLocalMediaPlaylistControl15setCurrentIndexEi 0x00023cba   Section       10  QtMultimediaKit.in(i._ZN26QLocalMediaPlaylistControl15setCurrentIndexEi)
    i._ZN26QLocalMediaPlaylistControl15setPlaybackModeEN14QMediaPlaylist12PlaybackModeE 0x00023cc4   Section       10  QtMultimediaKit.in(i._ZN26QLocalMediaPlaylistControl15setPlaybackModeEN14QMediaPlaylist12PlaybackModeE)
    i._ZN26QLocalMediaPlaylistControl19setPlaylistProviderEP22QMediaPlaylistProvider 0x00023cce   Section       20  QtMultimediaKit.in(i._ZN26QLocalMediaPlaylistControl19setPlaylistProviderEP22QMediaPlaylistProvider)
    i._ZN26QLocalMediaPlaylistControl4nextEv 0x00023ce2   Section       10  QtMultimediaKit.in(i._ZN26QLocalMediaPlaylistControl4nextEv)
    i._ZN26QLocalMediaPlaylistControl8previousEv 0x00023cec   Section       10  QtMultimediaKit.in(i._ZN26QLocalMediaPlaylistControl8previousEv)
    i._ZN26QLocalMediaPlaylistControlC1EP7QObject 0x00023cf8   Section      200  QtMultimediaKit.in(i._ZN26QLocalMediaPlaylistControlC1EP7QObject)
    i._ZN26QLocalMediaPlaylistControlC1EP7QObject.clean 0x00023dc0   Section       20  QtMultimediaKit.in(i._ZN26QLocalMediaPlaylistControlC1EP7QObject.clean)
    i._ZN26QLocalMediaPlaylistControlD0Ev    0x00023dd4   Section       16  QtMultimediaKit.in(i._ZN26QLocalMediaPlaylistControlD0Ev)
    i._ZN26QLocalMediaPlaylistControlD1Ev    0x00023de4   Section        8  QtMultimediaKit.in(i._ZN26QLocalMediaPlaylistControlD1Ev)
    i._ZN26QMediaPlaylistNullProviderD0Ev    0x00023dec   Section       16  QtMultimediaKit.in(i._ZN26QMediaPlaylistNullProviderD0Ev)
    i._ZN26QMediaPlaylistNullProviderD1Ev    0x00023dfc   Section        8  QtMultimediaKit.in(i._ZN26QMediaPlaylistNullProviderD1Ev)
    i._ZN26QVideoSurfaceFormatPrivateC1ERKS_ 0x00023e04   Section      106  QtMultimediaKit.in(i._ZN26QVideoSurfaceFormatPrivateC1ERKS_)
    i._ZN26QVideoSurfaceFormatPrivateC1ERKS_.clean 0x00023e6e   Section       12  QtMultimediaKit.in(i._ZN26QVideoSurfaceFormatPrivateC1ERKS_.clean)
    i._ZN26QVideoSurfaceFormatPrivateD1Ev    0x00023e7a   Section       20  QtMultimediaKit.in(i._ZN26QVideoSurfaceFormatPrivateD1Ev)
    i._ZN26QVideoSurfaceFormatPrivateD1Ev.clean 0x00023e8e   Section       12  QtMultimediaKit.in(i._ZN26QVideoSurfaceFormatPrivateD1Ev.clean)
    i._ZN26QVideoWidgetControlBackendD0Ev    0x00023e9a   Section       16  QtMultimediaKit.in(i._ZN26QVideoWidgetControlBackendD0Ev)
    i._ZN26QVideoWidgetControlBackendD1Ev    0x00023eaa   Section        8  QtMultimediaKit.in(i._ZN26QVideoWidgetControlBackendD1Ev)
    i._ZN27QAbstractVideoBufferPrivateD0Ev   0x00023eb2   Section       12  QtMultimediaKit.in(i._ZN27QAbstractVideoBufferPrivateD0Ev)
    i._ZN27QAbstractVideoBufferPrivateD1Ev   0x00023ebe   Section        2  QtMultimediaKit.in(i._ZN27QAbstractVideoBufferPrivateD1Ev)
    i._ZN27QMediaServiceProviderPluginD0Ev   0x00023ec0   Section       16  QtMultimediaKit.in(i._ZN27QMediaServiceProviderPluginD0Ev)
    i._ZN27QMediaServiceProviderPluginD2Ev   0x00023ed0   Section        8  QtMultimediaKit.in(i._ZN27QMediaServiceProviderPluginD2Ev)
    i._ZN27QVideoSurfaceGenericPainterD0Ev   0x00023ed8   Section       16  QtMultimediaKit.in(i._ZN27QVideoSurfaceGenericPainterD0Ev)
    i._ZN27QVideoSurfaceGenericPainterD1Ev   0x00023ee8   Section       36  QtMultimediaKit.in(i._ZN27QVideoSurfaceGenericPainterD1Ev)
    i._ZN27QVideoSurfaceGenericPainterD1Ev.clean 0x00023f0c   Section       18  QtMultimediaKit.in(i._ZN27QVideoSurfaceGenericPainterD1Ev.clean)
    i._ZN28QAudioEncoderSettingsPrivateD1Ev  0x00023f1e   Section       12  QtMultimediaKit.in(i._ZN28QAudioEncoderSettingsPrivateD1Ev)
    i._ZN28QImageEncoderSettingsPrivateD1Ev  0x00023f2a   Section       12  QtMultimediaKit.in(i._ZN28QImageEncoderSettingsPrivateD1Ev)
    i._ZN28QVideoEncoderSettingsPrivateD1Ev  0x00023f36   Section       12  QtMultimediaKit.in(i._ZN28QVideoEncoderSettingsPrivateD1Ev)
    i._ZN28QVideoWidgetControlInterfaceD2Ev  0x00023f42   Section        2  QtMultimediaKit.in(i._ZN28QVideoWidgetControlInterfaceD2Ev)
    i._ZN29QCameraImageProcessingPrivateD0Ev 0x00023f44   Section       16  QtMultimediaKit.in(i._ZN29QCameraImageProcessingPrivateD0Ev)
    i._ZN29QCameraImageProcessingPrivateD1Ev 0x00023f54   Section        8  QtMultimediaKit.in(i._ZN29QCameraImageProcessingPrivateD1Ev)
    i._ZN29QMediaPlaylistProviderPrivateD0Ev 0x00023f5c   Section       12  QtMultimediaKit.in(i._ZN29QMediaPlaylistProviderPrivateD0Ev)
    i._ZN29QMediaPlaylistProviderPrivateD1Ev 0x00023f68   Section        2  QtMultimediaKit.in(i._ZN29QMediaPlaylistProviderPrivateD1Ev)
    i._ZN31QMediaImageViewerControlPrivateC1Ev 0x00023f6c   Section      300  QtMultimediaKit.in(i._ZN31QMediaImageViewerControlPrivateC1Ev)
    i._ZN31QMediaImageViewerControlPrivateC1Ev.clean 0x00024098   Section      100  QtMultimediaKit.in(i._ZN31QMediaImageViewerControlPrivateC1Ev.clean)
    i._ZN31QMediaImageViewerControlPrivateD0Ev 0x000240fc   Section       16  QtMultimediaKit.in(i._ZN31QMediaImageViewerControlPrivateD0Ev)
    i._ZN31QMediaImageViewerControlPrivateD1Ev 0x0002410c   Section       60  QtMultimediaKit.in(i._ZN31QMediaImageViewerControlPrivateD1Ev)
    i._ZN31QMediaImageViewerControlPrivateD1Ev.clean 0x00024148   Section       46  QtMultimediaKit.in(i._ZN31QMediaImageViewerControlPrivateD1Ev.clean)
    i._ZN31QMediaImageViewerServicePrivateD0Ev 0x00024176   Section       16  QtMultimediaKit.in(i._ZN31QMediaImageViewerServicePrivateD0Ev)
    i._ZN31QMediaImageViewerServicePrivateD1Ev 0x00024188   Section       24  QtMultimediaKit.in(i._ZN31QMediaImageViewerServicePrivateD1Ev)
    i._ZN31QMediaImageViewerServicePrivateD1Ev.clean 0x000241a0   Section       10  QtMultimediaKit.in(i._ZN31QMediaImageViewerServicePrivateD1Ev.clean)
    i._ZN32QMediaServiceProviderHintPrivateC1EN25QMediaServiceProviderHint4TypeE 0x000241ac   Section       48  QtMultimediaKit.in(i._ZN32QMediaServiceProviderHintPrivateC1EN25QMediaServiceProviderHint4TypeE)
    i._ZN32QMediaServiceProviderHintPrivateC1EN25QMediaServiceProviderHint4TypeE.clean 0x000241dc   Section       24  QtMultimediaKit.in(i._ZN32QMediaServiceProviderHintPrivateC1EN25QMediaServiceProviderHint4TypeE.clean)
    i._ZN32QMediaServiceProviderHintPrivateD1Ev 0x000241f4   Section       32  QtMultimediaKit.in(i._ZN32QMediaServiceProviderHintPrivateD1Ev)
    i._ZN32QMediaServiceProviderHintPrivateD1Ev.clean 0x00024214   Section       24  QtMultimediaKit.in(i._ZN32QMediaServiceProviderHintPrivateD1Ev.clean)
    i._ZN34QLocalMediaPlaylistProviderPrivateD0Ev 0x0002422c   Section       16  QtMultimediaKit.in(i._ZN34QLocalMediaPlaylistProviderPrivateD0Ev)
    i._ZN34QLocalMediaPlaylistProviderPrivateD1Ev 0x0002423c   Section       24  QtMultimediaKit.in(i._ZN34QLocalMediaPlaylistProviderPrivateD1Ev)
    i._ZN34QLocalMediaPlaylistProviderPrivateD1Ev.clean 0x00024254   Section       10  QtMultimediaKit.in(i._ZN34QLocalMediaPlaylistProviderPrivateD1Ev.clean)
    i._ZN4QSetI7QStringED1Ev                 0x0002425e   Section        8  QtMultimediaKit.in(i._ZN4QSetI7QStringED1Ev)
    i._ZN4QSetIiED1Ev                        0x00024266   Section        8  QtMultimediaKit.in(i._ZN4QSetIiED1Ev)
    i._ZN5QRectC1ERK6QPointRK5QSize          0x0002426e   Section       28  QtMultimediaKit.in(i._ZN5QRectC1ERK6QPointRK5QSize)
    i._ZN5QRectC1Eiiii                       0x0002428a   Section       22  QtMultimediaKit.in(i._ZN5QRectC1Eiiii)
    i._ZN5QRectC1Ev                          0x000242a0   Section       14  QtMultimediaKit.in(i._ZN5QRectC1Ev)
    i._ZN6QColorC1ERKS_                      0x000242ae   Section       20  QtMultimediaKit.in(i._ZN6QColorC1ERKS_)
    i._ZN6QDebug10maybeSpaceEv               0x000242c2   Section       22  QtMultimediaKit.in(i._ZN6QDebug10maybeSpaceEv)
    i._ZN6QDebugC1E9QtMsgType                0x000242d8   Section       62  QtMultimediaKit.in(i._ZN6QDebugC1E9QtMsgType)
    i._ZN6QDebugC1E9QtMsgType.clean          0x00024316   Section       18  QtMultimediaKit.in(i._ZN6QDebugC1E9QtMsgType.clean)
    i._ZN6QDebugC1ERKS_                      0x00024328   Section       12  QtMultimediaKit.in(i._ZN6QDebugC1ERKS_)
    i._ZN6QDebugD1Ev                         0x00024334   Section      122  QtMultimediaKit.in(i._ZN6QDebugD1Ev)
    i._ZN6QDebugD1Ev.clean                   0x000243ae   Section       20  QtMultimediaKit.in(i._ZN6QDebugD1Ev.clean)
    i._ZN6QDebuglsEPKc                       0x000243c2   Section       36  QtMultimediaKit.in(i._ZN6QDebuglsEPKc)
    i._ZN6QDebuglsEPKc.clean                 0x000243e6   Section       10  QtMultimediaKit.in(i._ZN6QDebuglsEPKc.clean)
    i._ZN6QRectFC1ERKS_                      0x000243f0   Section       18  QtMultimediaKit.in(i._ZN6QRectFC1ERKS_)
    i._ZN6QRectFC1Ev                         0x00024402   Section       12  QtMultimediaKit.in(i._ZN6QRectFC1Ev)
    i._ZN6QSizeFC1ERK5QSize                  0x0002440e   Section       26  QtMultimediaKit.in(i._ZN6QSizeFC1ERK5QSize)
    i._ZN7QObject10disconnectEPKcPKS_S1_     0x00024428   Section        8  QtMultimediaKit.in(i._ZN7QObject10disconnectEPKcPKS_S1_)
    i._ZN7QString5clearEv                    0x00024430   Section       40  QtMultimediaKit.in(i._ZN7QString5clearEv)
    i._ZN7QString5clearEv.clean              0x00024458   Section       10  QtMultimediaKit.in(i._ZN7QString5clearEv.clean)
    i._ZN7QStringC1ERK10QByteArray           0x00024462   Section       46  QtMultimediaKit.in(i._ZN7QStringC1ERK10QByteArray)
    i._ZN7QStringC1ERK13QLatin1String        0x00024490   Section       20  QtMultimediaKit.in(i._ZN7QStringC1ERK13QLatin1String)
    i._ZN7QStringC1ERKS_                     0x000244a4   Section       16  QtMultimediaKit.in(i._ZN7QStringC1ERKS_)
    i._ZN7QStringC1Ev                        0x000244b4   Section       20  QtMultimediaKit.in(i._ZN7QStringC1Ev)
    i._ZN7QStringD1Ev                        0x000244c8   Section       24  QtMultimediaKit.in(i._ZN7QStringD1Ev)
    i._ZN7QStringaSERK13QLatin1String        0x000244e0   Section       34  QtMultimediaKit.in(i._ZN7QStringaSERK13QLatin1String)
    i._ZN7QStringaSERK13QLatin1String.clean  0x00024502   Section       10  QtMultimediaKit.in(i._ZN7QStringaSERK13QLatin1String.clean)
    i._ZN8QVariant7PrivateC1Ev               0x0002450c   Section       24  QtMultimediaKit.in(i._ZN8QVariant7PrivateC1Ev)
    i._ZN8QVariantC1Ef                       0x00024524   Section       26  QtMultimediaKit.in(i._ZN8QVariantC1Ef)
    i._ZN8QVariantC1Ev                       0x0002453e   Section       24  QtMultimediaKit.in(i._ZN8QVariantC1Ev)
    i._ZNK11QBasicTimer8isActiveEv           0x00024556   Section       14  QtMultimediaKit.in(i._ZNK11QBasicTimer8isActiveEv)
    i._ZNK15QBasicAtomicInteqEi              0x00024564   Section       14  QtMultimediaKit.in(i._ZNK15QBasicAtomicInteqEi)
    i._ZNK15QBasicAtomicIntneEi              0x00024572   Section       14  QtMultimediaKit.in(i._ZNK15QBasicAtomicIntneEi)
    i._ZNK15QBasicAtomicIntntEv              0x00024580   Section       14  QtMultimediaKit.in(i._ZNK15QBasicAtomicIntntEv)
    i._ZNK15QNullDeviceInfo10deviceNameEv    0x0002458e   Section        8  QtMultimediaKit.in(i._ZNK15QNullDeviceInfo10deviceNameEv)
    i._ZNK15QNullDeviceInfo15preferredFormatEv 0x00024598   Section       72  QtMultimediaKit.in(i._ZNK15QNullDeviceInfo15preferredFormatEv)
    i._ZNK15QNullDeviceInfo15preferredFormatEv.clean 0x000245e0   Section       10  QtMultimediaKit.in(i._ZNK15QNullDeviceInfo15preferredFormatEv.clean)
    i._ZNK15QNullDeviceInfo17isFormatSupportedERK12QAudioFormat 0x000245ea   Section        4  QtMultimediaKit.in(i._ZNK15QNullDeviceInfo17isFormatSupportedERK12QAudioFormat)
    i._ZNK16QNullInputDevice10bufferSizeEv   0x000245ee   Section        4  QtMultimediaKit.in(i._ZNK16QNullInputDevice10bufferSizeEv)
    i._ZNK16QNullInputDevice10bytesReadyEv   0x000245f2   Section        4  QtMultimediaKit.in(i._ZNK16QNullInputDevice10bytesReadyEv)
    i._ZNK16QNullInputDevice10periodSizeEv   0x000245f6   Section        4  QtMultimediaKit.in(i._ZNK16QNullInputDevice10periodSizeEv)
    i._ZNK16QNullInputDevice12elapsedUSecsEv 0x000245fa   Section        6  QtMultimediaKit.in(i._ZNK16QNullInputDevice12elapsedUSecsEv)
    i._ZNK16QNullInputDevice14notifyIntervalEv 0x00024600   Section        4  QtMultimediaKit.in(i._ZNK16QNullInputDevice14notifyIntervalEv)
    i._ZNK16QNullInputDevice14processedUSecsEv 0x00024604   Section        6  QtMultimediaKit.in(i._ZNK16QNullInputDevice14processedUSecsEv)
    i._ZNK16QNullInputDevice5errorEv         0x0002460a   Section        4  QtMultimediaKit.in(i._ZNK16QNullInputDevice5errorEv)
    i._ZNK16QNullInputDevice5stateEv         0x0002460e   Section        4  QtMultimediaKit.in(i._ZNK16QNullInputDevice5stateEv)
    i._ZNK16QNullInputDevice6formatEv        0x00024612   Section        8  QtMultimediaKit.in(i._ZNK16QNullInputDevice6formatEv)
    i._ZNK17QNullOutputDevice10bufferSizeEv  0x0002461a   Section        4  QtMultimediaKit.in(i._ZNK17QNullOutputDevice10bufferSizeEv)
    i._ZNK17QNullOutputDevice10periodSizeEv  0x0002461e   Section        4  QtMultimediaKit.in(i._ZNK17QNullOutputDevice10periodSizeEv)
    i._ZNK17QNullOutputDevice12elapsedUSecsEv 0x00024622   Section        6  QtMultimediaKit.in(i._ZNK17QNullOutputDevice12elapsedUSecsEv)
    i._ZNK17QNullOutputDevice14notifyIntervalEv 0x00024628   Section        4  QtMultimediaKit.in(i._ZNK17QNullOutputDevice14notifyIntervalEv)
    i._ZNK17QNullOutputDevice14processedUSecsEv 0x0002462c   Section        6  QtMultimediaKit.in(i._ZNK17QNullOutputDevice14processedUSecsEv)
    i._ZNK17QNullOutputDevice5errorEv        0x00024632   Section        4  QtMultimediaKit.in(i._ZNK17QNullOutputDevice5errorEv)
    i._ZNK17QNullOutputDevice5stateEv        0x00024636   Section        4  QtMultimediaKit.in(i._ZNK17QNullOutputDevice5stateEv)
    i._ZNK17QNullOutputDevice6formatEv       0x0002463a   Section        8  QtMultimediaKit.in(i._ZNK17QNullOutputDevice6formatEv)
    i._ZNK17QNullOutputDevice9bytesFreeEv    0x00024642   Section        4  QtMultimediaKit.in(i._ZNK17QNullOutputDevice9bytesFreeEv)
    i._ZNK21QMediaPlaylistPrivate8playlistEv 0x00024646   Section        8  QtMultimediaKit.in(i._ZNK21QMediaPlaylistPrivate8playlistEv)
    i._ZNK22QPluginServiceProvider10hasSupportERK10QByteArrayRK7QStringRK11QStringListi 0x0002464e   Section      298  QtMultimediaKit.in(i._ZNK22QPluginServiceProvider10hasSupportERK10QByteArrayRK7QStringRK11QStringListi)
    i._ZNK22QPluginServiceProvider10hasSupportERK10QByteArrayRK7QStringRK11QStringListi.clean 0x00024778   Section       24  QtMultimediaKit.in(i._ZNK22QPluginServiceProvider10hasSupportERK10QByteArrayRK7QStringRK11QStringListi.clean)
    i._ZNK22QPluginServiceProvider18supportedMimeTypesERK10QByteArrayi 0x00024790   Section      222  QtMultimediaKit.in(i._ZNK22QPluginServiceProvider18supportedMimeTypesERK10QByteArrayi)
    i._ZNK22QPluginServiceProvider18supportedMimeTypesERK10QByteArrayi.clean 0x0002486e   Section       36  QtMultimediaKit.in(i._ZNK22QPluginServiceProvider18supportedMimeTypesERK10QByteArrayi.clean)
    i._ZNK22QPluginServiceProvider7devicesERK10QByteArray 0x00024892   Section      144  QtMultimediaKit.in(i._ZNK22QPluginServiceProvider7devicesERK10QByteArray)
    i._ZNK22QPluginServiceProvider7devicesERK10QByteArray.clean 0x00024922   Section       36  QtMultimediaKit.in(i._ZNK22QPluginServiceProvider7devicesERK10QByteArray.clean)
    i._ZNK26QLocalMediaPlaylistControl12currentIndexEv 0x00024946   Section       10  QtMultimediaKit.in(i._ZNK26QLocalMediaPlaylistControl12currentIndexEv)
    i._ZNK26QLocalMediaPlaylistControl12playbackModeEv 0x00024950   Section       10  QtMultimediaKit.in(i._ZNK26QLocalMediaPlaylistControl12playbackModeEv)
    i._ZNK26QLocalMediaPlaylistControl13previousIndexEi 0x0002495a   Section       10  QtMultimediaKit.in(i._ZNK26QLocalMediaPlaylistControl13previousIndexEi)
    i._ZNK26QLocalMediaPlaylistControl16playlistProviderEv 0x00024964   Section       10  QtMultimediaKit.in(i._ZNK26QLocalMediaPlaylistControl16playlistProviderEv)
    i._ZNK26QLocalMediaPlaylistControl9nextIndexEi 0x0002496e   Section       10  QtMultimediaKit.in(i._ZNK26QLocalMediaPlaylistControl9nextIndexEi)
    i._ZNK26QMediaPlaylistNullProvider10mediaCountEv 0x00024978   Section        4  QtMultimediaKit.in(i._ZNK26QMediaPlaylistNullProvider10mediaCountEv)
    i._ZNK26QMediaPlaylistNullProvider5mediaEi 0x0002497c   Section        8  QtMultimediaKit.in(i._ZNK26QMediaPlaylistNullProvider5mediaEi)
    i._ZNK26QVideoSurfaceFormatPrivateeqERKS_ 0x00024984   Section      332  QtMultimediaKit.in(i._ZNK26QVideoSurfaceFormatPrivateeqERKS_)
    i._ZNK5QBoolcvPKvEv                      0x00024ad0   Section       14  QtMultimediaKit.in(i._ZNK5QBoolcvPKvEv)
    i._ZNK5QRect4sizeEv                      0x00024ade   Section       22  QtMultimediaKit.in(i._ZNK5QRect4sizeEv)
    i._ZNK5QSize7isEmptyEv                   0x00024af4   Section       20  QtMultimediaKit.in(i._ZNK5QSize7isEmptyEv)
    i._ZNK7QObject7connectEPKS_PKcS3_N2Qt14ConnectionTypeE 0x00024b08   Section       20  QtMultimediaKit.in(i._ZNK7QObject7connectEPKS_PKcS3_N2Qt14ConnectionTypeE)
    i._ZNK7QString6isNullEv                  0x00024b1c   Section       20  QtMultimediaKit.in(i._ZNK7QString6isNullEv)
    i._ZNK7QString7isEmptyEv                 0x00024b30   Section       16  QtMultimediaKit.in(i._ZNK7QString7isEmptyEv)
    i._ZNK7QWidget13testAttributeEN2Qt15WidgetAttributeE 0x00024b40   Section       32  QtMultimediaKit.in(i._ZNK7QWidget13testAttributeEN2Qt15WidgetAttributeE)
    i._ZNK7QWidget4rectEv                    0x00024b60   Section       48  QtMultimediaKit.in(i._ZNK7QWidget4rectEv)
    i._ZNK7TFourCCeqERKm                     0x00024b90   Section       16  QtMultimediaKit.in(i._ZNK7TFourCCeqERKm)
    i._ZNK8QPalette6windowEv                 0x00024ba0   Section       12  QtMultimediaKit.in(i._ZNK8QPalette6windowEv)
    i._ZNK9QListData2atEi                    0x00024bac   Section       16  QtMultimediaKit.in(i._ZNK9QListData2atEi)
    i._ZNK9QListData3endEv                   0x00024bbc   Section       12  QtMultimediaKit.in(i._ZNK9QListData3endEv)
    i._ZNK9QListData4sizeEv                  0x00024bc8   Section       10  QtMultimediaKit.in(i._ZNK9QListData4sizeEv)
    i._ZNK9QListData5beginEv                 0x00024bd2   Section       12  QtMultimediaKit.in(i._ZNK9QListData5beginEv)
    i._ZNK9QListData7isEmptyEv               0x00024bde   Section       18  QtMultimediaKit.in(i._ZNK9QListData7isEmptyEv)
    i._ZThn8_N19QVideoWidgetBackendD0Ev      0x00024bf0   Section       10  QtMultimediaKit.in(i._ZThn8_N19QVideoWidgetBackendD0Ev)
    i._ZThn8_N19QVideoWidgetBackendD1Ev      0x00024bfa   Section       10  QtMultimediaKit.in(i._ZThn8_N19QVideoWidgetBackendD1Ev)
    i._ZThn8_N26QVideoWidgetControlBackendD0Ev 0x00024c04   Section       10  QtMultimediaKit.in(i._ZThn8_N26QVideoWidgetControlBackendD0Ev)
    i._ZThn8_N26QVideoWidgetControlBackendD1Ev 0x00024c0e   Section       10  QtMultimediaKit.in(i._ZThn8_N26QVideoWidgetControlBackendD1Ev)
    i._ZThn8_N27QMediaServiceProviderPluginD0Ev 0x00024c18   Section       10  QtMultimediaKit.in(i._ZThn8_N27QMediaServiceProviderPluginD0Ev)
    i._ZThn8_N27QMediaServiceProviderPluginD1Ev 0x00024c22   Section       10  QtMultimediaKit.in(i._ZThn8_N27QMediaServiceProviderPluginD1Ev)
    i._ZdlPvS_                               0x00024c2c   Section        2  QtMultimediaKit.in(i._ZdlPvS_)
    i._ZeqRK10QByteArrayS1_                  0x00024c2e   Section       34  QtMultimediaKit.in(i._ZeqRK10QByteArrayS1_)
    i._ZeqRK5QSizeS1_                        0x00024c50   Section       24  QtMultimediaKit.in(i._ZeqRK5QSizeS1_)
    i._ZneRK10QByteArrayPKc                  0x00024c68   Section       42  QtMultimediaKit.in(i._ZneRK10QByteArrayPKc)
    i._ZnwjPv                                0x00024c92   Section        4  QtMultimediaKit.in(i._ZnwjPv)
    t._Z12appendUniqueIN12QAudioFormat10SampleTypeEEvR5QListIT_ERKS4_ 0x00024c96   Section      138  QtMultimediaKit.in(t._Z12appendUniqueIN12QAudioFormat10SampleTypeEEvR5QListIT_ERKS4_)
    t._Z12appendUniqueIN12QAudioFormat10SampleTypeEEvR5QListIT_ERKS4_.clean 0x00024d20   Section       18  QtMultimediaKit.in(t._Z12appendUniqueIN12QAudioFormat10SampleTypeEEvR5QListIT_ERKS4_.clean)
    t._Z12appendUniqueIN12QAudioFormat6EndianEEvR5QListIT_ERKS4_ 0x00024d32   Section      138  QtMultimediaKit.in(t._Z12appendUniqueIN12QAudioFormat6EndianEEvR5QListIT_ERKS4_)
    t._Z12appendUniqueIN12QAudioFormat6EndianEEvR5QListIT_ERKS4_.clean 0x00024dbc   Section       18  QtMultimediaKit.in(t._Z12appendUniqueIN12QAudioFormat6EndianEEvR5QListIT_ERKS4_.clean)
    t._Z12appendUniqueIiEvR5QListIT_ERKS2_   0x00024dd0   Section      180  QtMultimediaKit.in(t._Z12appendUniqueIiEvR5QListIT_ERKS2_)
    t._Z12appendUniqueIiEvR5QListIT_ERKS2_.clean 0x00024e84   Section       24  QtMultimediaKit.in(t._Z12appendUniqueIiEvR5QListIT_ERKS2_.clean)
    t._Z12qobject_castIP17QFactoryInterfaceET_P7QObject 0x00024e9c   Section       28  QtMultimediaKit.in(t._Z12qobject_castIP17QFactoryInterfaceET_P7QObject)
    t._Z12qobject_castIP18QAudioSystemPluginET_P7QObject 0x00024eb8   Section       16  QtMultimediaKit.in(t._Z12qobject_castIP18QAudioSystemPluginET_P7QObject)
    t._Z12qobject_castIP23QMediaBindableInterfaceET_P7QObject 0x00024ec8   Section       28  QtMultimediaKit.in(t._Z12qobject_castIP23QMediaBindableInterfaceET_P7QObject)
    t._Z12qobject_castIP25QMediaPlaylistIOInterfaceET_P7QObject 0x00024ee4   Section       28  QtMultimediaKit.in(t._Z12qobject_castIP25QMediaPlaylistIOInterfaceET_P7QObject)
    t._Z12qobject_castIP28QAudioSystemFactoryInterfaceET_P7QObject 0x00024f00   Section       28  QtMultimediaKit.in(t._Z12qobject_castIP28QAudioSystemFactoryInterfaceET_P7QObject)
    t._Z12qobject_castIP30QMediaServiceFeaturesInterfaceET_P7QObject 0x00024f1c   Section       28  QtMultimediaKit.in(t._Z12qobject_castIP30QMediaServiceFeaturesInterfaceET_P7QObject)
    t._Z12qobject_castIP38QMediaServiceSupportedDevicesInterfaceET_P7QObject 0x00024f38   Section       28  QtMultimediaKit.in(t._Z12qobject_castIP38QMediaServiceSupportedDevicesInterfaceET_P7QObject)
    t._Z12qobject_castIP38QMediaServiceSupportedFormatsInterfaceET_P7QObject 0x00024f54   Section       28  QtMultimediaKit.in(t._Z12qobject_castIP38QMediaServiceSupportedFormatsInterfaceET_P7QObject)
    t._Z13qvariant_castI15QNetworkRequestET_RK8QVariant 0x00024f70   Section      120  QtMultimediaKit.in(t._Z13qvariant_castI15QNetworkRequestET_RK8QVariant)
    t._Z13qvariant_castI15QNetworkRequestET_RK8QVariant.clean 0x00024fe8   Section       22  QtMultimediaKit.in(t._Z13qvariant_castI15QNetworkRequestET_RK8QVariant.clean)
    t._Z13qvariant_castI5QSizeET_RK8QVariant 0x00024ffe   Section       66  QtMultimediaKit.in(t._Z13qvariant_castI5QSizeET_RK8QVariant)
    t._Z13qvariant_castI7QStringET_RK8QVariant 0x00025040   Section       84  QtMultimediaKit.in(t._Z13qvariant_castI7QStringET_RK8QVariant)
    t._Z13qvariant_castI7QStringET_RK8QVariant.clean 0x00025094   Section       10  QtMultimediaKit.in(t._Z13qvariant_castI7QStringET_RK8QVariant.clean)
    t._Z13qvariant_castIiET_RK8QVariant      0x0002509e   Section       46  QtMultimediaKit.in(t._Z13qvariant_castIiET_RK8QVariant)
    t._Z15qMapLessThanKeyI7QStringEbRKT_S3_  0x000250cc   Section        8  QtMultimediaKit.in(t._Z15qMapLessThanKeyI7QStringEbRKT_S3_)
    t._Z15qMapLessThanKeyIN7QCamera10LockStatusEEbRKT_S4_ 0x000250d4   Section       16  QtMultimediaKit.in(t._Z15qMapLessThanKeyIN7QCamera10LockStatusEEbRKT_S4_)
    t._Z15qMapLessThanKeyIP13QMediaServiceEbRKT_S4_ 0x000250e4   Section       16  QtMultimediaKit.in(t._Z15qMapLessThanKeyIP13QMediaServiceEbRKT_S4_)
    t._Z15qMapLessThanKeyIiEbRKT_S2_         0x000250f4   Section       16  QtMultimediaKit.in(t._Z15qMapLessThanKeyIiEbRKT_S2_)
    t._Z17qRegisterMetaTypeI15QNetworkRequestEiPKcPT_ 0x00025104   Section       52  QtMultimediaKit.in(t._Z17qRegisterMetaTypeI15QNetworkRequestEiPKcPT_)
    t._Z17qRegisterMetaTypeI19QVideoSurfaceFormatEiPKcPT_ 0x00025138   Section       52  QtMultimediaKit.in(t._Z17qRegisterMetaTypeI19QVideoSurfaceFormatEiPKcPT_)
    t._Z17qRegisterMetaTypeI6QFlagsIN12QCameraFocus9FocusModeEEEiPKcPT_ 0x0002516c   Section      104  QtMultimediaKit.in(t._Z17qRegisterMetaTypeI6QFlagsIN12QCameraFocus9FocusModeEEEiPKcPT_)
    t._Z17qRegisterMetaTypeI6QFlagsIN15QCameraExposure9FlashModeEEEiPKcPT_ 0x000251d4   Section      104  QtMultimediaKit.in(t._Z17qRegisterMetaTypeI6QFlagsIN15QCameraExposure9FlashModeEEEiPKcPT_)
    t._Z17qRegisterMetaTypeIN11QVideoFrame11PixelFormatEEiPKcPT_ 0x0002523c   Section       52  QtMultimediaKit.in(t._Z17qRegisterMetaTypeIN11QVideoFrame11PixelFormatEEiPKcPT_)
    t._Z17qRegisterMetaTypeIN12QCameraFocus14FocusPointModeEEiPKcPT_ 0x00025270   Section      108  QtMultimediaKit.in(t._Z17qRegisterMetaTypeIN12QCameraFocus14FocusPointModeEEiPKcPT_)
    t._Z17qRegisterMetaTypeIN12QMediaPlayer11MediaStatusEEiPKcPT_ 0x000252dc   Section      104  QtMultimediaKit.in(t._Z17qRegisterMetaTypeIN12QMediaPlayer11MediaStatusEEiPKcPT_)
    t._Z17qRegisterMetaTypeIN12QMediaPlayer5ErrorEEiPKcPT_ 0x00025344   Section       96  QtMultimediaKit.in(t._Z17qRegisterMetaTypeIN12QMediaPlayer5ErrorEEiPKcPT_)
    t._Z17qRegisterMetaTypeIN12QMediaPlayer5StateEEiPKcPT_ 0x000253a4   Section       96  QtMultimediaKit.in(t._Z17qRegisterMetaTypeIN12QMediaPlayer5StateEEiPKcPT_)
    t._Z17qRegisterMetaTypeIN14QMediaRecorder5ErrorEEiPKcPT_ 0x00025404   Section      100  QtMultimediaKit.in(t._Z17qRegisterMetaTypeIN14QMediaRecorder5ErrorEEiPKcPT_)
    t._Z17qRegisterMetaTypeIN14QMediaRecorder5StateEEiPKcPT_ 0x00025468   Section      100  QtMultimediaKit.in(t._Z17qRegisterMetaTypeIN14QMediaRecorder5StateEEiPKcPT_)
    t._Z17qRegisterMetaTypeIN15QCameraExposure12ExposureModeEEiPKcPT_ 0x000254cc   Section      108  QtMultimediaKit.in(t._Z17qRegisterMetaTypeIN15QCameraExposure12ExposureModeEEiPKcPT_)
    t._Z17qRegisterMetaTypeIN15QCameraExposure12MeteringModeEEiPKcPT_ 0x00025538   Section      108  QtMultimediaKit.in(t._Z17qRegisterMetaTypeIN15QCameraExposure12MeteringModeEEiPKcPT_)
    t._Z17qRegisterMetaTypeIN19QCameraImageCapture5ErrorEEiPKcPT_ 0x000255a4   Section      100  QtMultimediaKit.in(t._Z17qRegisterMetaTypeIN19QCameraImageCapture5ErrorEEiPKcPT_)
    t._Z17qRegisterMetaTypeIN19QVideoSurfaceFormat15YCbCrColorSpaceEEiPKcPT_ 0x00025608   Section       52  QtMultimediaKit.in(t._Z17qRegisterMetaTypeIN19QVideoSurfaceFormat15YCbCrColorSpaceEEiPKcPT_)
    t._Z17qRegisterMetaTypeIN19QVideoSurfaceFormat9DirectionEEiPKcPT_ 0x0002563c   Section       52  QtMultimediaKit.in(t._Z17qRegisterMetaTypeIN19QVideoSurfaceFormat9DirectionEEiPKcPT_)
    t._Z17qRegisterMetaTypeIN20QAbstractVideoBuffer10HandleTypeEEiPKcPT_ 0x00025670   Section       52  QtMultimediaKit.in(t._Z17qRegisterMetaTypeIN20QAbstractVideoBuffer10HandleTypeEEiPKcPT_)
    t._Z17qRegisterMetaTypeIN21QAbstractVideoSurface5ErrorEEiPKcPT_ 0x000256a4   Section       52  QtMultimediaKit.in(t._Z17qRegisterMetaTypeIN21QAbstractVideoSurface5ErrorEEiPKcPT_)
    t._Z17qRegisterMetaTypeIN6QAudio4ModeEEiPKcPT_ 0x000256d8   Section       52  QtMultimediaKit.in(t._Z17qRegisterMetaTypeIN6QAudio4ModeEEiPKcPT_)
    t._Z17qRegisterMetaTypeIN6QAudio5ErrorEEiPKcPT_ 0x0002570c   Section       52  QtMultimediaKit.in(t._Z17qRegisterMetaTypeIN6QAudio5ErrorEEiPKcPT_)
    t._Z17qRegisterMetaTypeIN6QAudio5StateEEiPKcPT_ 0x00025740   Section       52  QtMultimediaKit.in(t._Z17qRegisterMetaTypeIN6QAudio5StateEEiPKcPT_)
    t._Z17qRegisterMetaTypeIN7QCamera10LockStatusEEiPKcPT_ 0x00025774   Section       96  QtMultimediaKit.in(t._Z17qRegisterMetaTypeIN7QCamera10LockStatusEEiPKcPT_)
    t._Z17qRegisterMetaTypeIN7QCamera16LockChangeReasonEEiPKcPT_ 0x000257d4   Section      104  QtMultimediaKit.in(t._Z17qRegisterMetaTypeIN7QCamera16LockChangeReasonEEiPKcPT_)
    t._Z17qRegisterMetaTypeIN7QCamera5ErrorEEiPKcPT_ 0x0002583c   Section       92  QtMultimediaKit.in(t._Z17qRegisterMetaTypeIN7QCamera5ErrorEEiPKcPT_)
    t._Z17qRegisterMetaTypeIN7QCamera5StateEEiPKcPT_ 0x00025898   Section       92  QtMultimediaKit.in(t._Z17qRegisterMetaTypeIN7QCamera5StateEEiPKcPT_)
    t._Z17qRegisterMetaTypeIN7QCamera6StatusEEiPKcPT_ 0x000258f4   Section       92  QtMultimediaKit.in(t._Z17qRegisterMetaTypeIN7QCamera6StatusEEiPKcPT_)
    t._Z17qRegisterMetaTypeIN7QCamera8LockTypeEEiPKcPT_ 0x00025950   Section       96  QtMultimediaKit.in(t._Z17qRegisterMetaTypeIN7QCamera8LockTypeEEiPKcPT_)
    t._Z17qVariantFromValueIN20QAbstractVideoBuffer10HandleTypeEE8QVariantRKT_ 0x000259b0   Section       24  QtMultimediaKit.in(t._Z17qVariantFromValueIN20QAbstractVideoBuffer10HandleTypeEE8QVariantRKT_)
    t._Z18qVariantCanConvertI5QSizeEbRK8QVariant 0x000259c8   Section       10  QtMultimediaKit.in(t._Z18qVariantCanConvertI5QSizeEbRK8QVariant)
    t._Z20qForeachContainerNewI11QStringListE17QForeachContainerIT_ERKS2_ 0x000259d2   Section       40  QtMultimediaKit.in(t._Z20qForeachContainerNewI11QStringListE17QForeachContainerIT_ERKS2_)
    t._Z20qForeachContainerNewI11QStringListE17QForeachContainerIT_ERKS2_.clean 0x000259fa   Section       10  QtMultimediaKit.in(t._Z20qForeachContainerNewI11QStringListE17QForeachContainerIT_ERKS2_.clean)
    t._Z20qForeachContainerNewI5QListI10QByteArrayEE17QForeachContainerIT_ERKS4_ 0x00025a04   Section       62  QtMultimediaKit.in(t._Z20qForeachContainerNewI5QListI10QByteArrayEE17QForeachContainerIT_ERKS4_)
    t._Z20qForeachContainerNewI5QListI10QByteArrayEE17QForeachContainerIT_ERKS4_.clean 0x00025a42   Section       10  QtMultimediaKit.in(t._Z20qForeachContainerNewI5QListI10QByteArrayEE17QForeachContainerIT_ERKS4_.clean)
    t._Z20qForeachContainerNewI5QListI18QMediaTimeIntervalEE17QForeachContainerIT_ERKS4_ 0x00025a4c   Section       46  QtMultimediaKit.in(t._Z20qForeachContainerNewI5QListI18QMediaTimeIntervalEE17QForeachContainerIT_ERKS4_)
    t._Z20qForeachContainerNewI5QListI18QMediaTimeIntervalEE17QForeachContainerIT_ERKS4_.clean 0x00025a7a   Section       10  QtMultimediaKit.in(t._Z20qForeachContainerNewI5QListI18QMediaTimeIntervalEE17QForeachContainerIT_ERKS4_.clean)
    t._Z20qForeachContainerNewI5QListI8QPointerI7QObjectEEE17QForeachContainerIT_ERKS6_ 0x00025a84   Section       60  QtMultimediaKit.in(t._Z20qForeachContainerNewI5QListI8QPointerI7QObjectEEE17QForeachContainerIT_ERKS6_)
    t._Z20qForeachContainerNewI5QListI8QPointerI7QObjectEEE17QForeachContainerIT_ERKS6_.clean 0x00025ac0   Section       10  QtMultimediaKit.in(t._Z20qForeachContainerNewI5QListI8QPointerI7QObjectEEE17QForeachContainerIT_ERKS6_.clean)
    t._Z20qForeachContainerNewI5QListI8QVariantEE17QForeachContainerIT_ERKS4_ 0x00025aca   Section       62  QtMultimediaKit.in(t._Z20qForeachContainerNewI5QListI8QVariantEE17QForeachContainerIT_ERKS4_)
    t._Z20qForeachContainerNewI5QListI8QVariantEE17QForeachContainerIT_ERKS4_.clean 0x00025b08   Section       10  QtMultimediaKit.in(t._Z20qForeachContainerNewI5QListI8QVariantEE17QForeachContainerIT_ERKS4_.clean)
    t._Z20qForeachContainerNewI5QListIP27QMediaServiceProviderPluginEE17QForeachContainerIT_ERKS5_ 0x00025b12   Section       60  QtMultimediaKit.in(t._Z20qForeachContainerNewI5QListIP27QMediaServiceProviderPluginEE17QForeachContainerIT_ERKS5_)
    t._Z20qForeachContainerNewI5QListIP27QMediaServiceProviderPluginEE17QForeachContainerIT_ERKS5_.clean 0x00025b4e   Section       10  QtMultimediaKit.in(t._Z20qForeachContainerNewI5QListIP27QMediaServiceProviderPluginEE17QForeachContainerIT_ERKS5_.clean)
    t._Z20qForeachContainerNewI5QListIP7QObjectEE17QForeachContainerIT_ERKS5_ 0x00025b58   Section       62  QtMultimediaKit.in(t._Z20qForeachContainerNewI5QListIP7QObjectEE17QForeachContainerIT_ERKS5_)
    t._Z20qForeachContainerNewI5QListIP7QObjectEE17QForeachContainerIT_ERKS5_.clean 0x00025b96   Section       10  QtMultimediaKit.in(t._Z20qForeachContainerNewI5QListIP7QObjectEE17QForeachContainerIT_ERKS5_.clean)
    t._Z20qForeachContainerNewI5QListIiEE17QForeachContainerIT_ERKS3_ 0x00025ba0   Section       46  QtMultimediaKit.in(t._Z20qForeachContainerNewI5QListIiEE17QForeachContainerIT_ERKS3_)
    t._Z20qForeachContainerNewI5QListIiEE17QForeachContainerIT_ERKS3_.clean 0x00025bce   Section       10  QtMultimediaKit.in(t._Z20qForeachContainerNewI5QListIiEE17QForeachContainerIT_ERKS3_.clean)
    t._Z21qMetaTypeDeleteHelperI15QNetworkRequestEvPT_ 0x00025bd8   Section       16  QtMultimediaKit.in(t._Z21qMetaTypeDeleteHelperI15QNetworkRequestEvPT_)
    t._Z21qMetaTypeDeleteHelperI19QVideoSurfaceFormatEvPT_ 0x00025be8   Section       16  QtMultimediaKit.in(t._Z21qMetaTypeDeleteHelperI19QVideoSurfaceFormatEvPT_)
    t._Z21qMetaTypeDeleteHelperI6QFlagsIN12QCameraFocus9FocusModeEEEvPT_ 0x00025bf8   Section        8  QtMultimediaKit.in(t._Z21qMetaTypeDeleteHelperI6QFlagsIN12QCameraFocus9FocusModeEEEvPT_)
    t._Z21qMetaTypeDeleteHelperI6QFlagsIN15QCameraExposure9FlashModeEEEvPT_ 0x00025c00   Section        8  QtMultimediaKit.in(t._Z21qMetaTypeDeleteHelperI6QFlagsIN15QCameraExposure9FlashModeEEEvPT_)
    t._Z21qMetaTypeDeleteHelperIN11QVideoFrame11PixelFormatEEvPT_ 0x00025c08   Section        8  QtMultimediaKit.in(t._Z21qMetaTypeDeleteHelperIN11QVideoFrame11PixelFormatEEvPT_)
    t._Z21qMetaTypeDeleteHelperIN12QCameraFocus14FocusPointModeEEvPT_ 0x00025c10   Section        8  QtMultimediaKit.in(t._Z21qMetaTypeDeleteHelperIN12QCameraFocus14FocusPointModeEEvPT_)
    t._Z21qMetaTypeDeleteHelperIN12QMediaPlayer11MediaStatusEEvPT_ 0x00025c18   Section        8  QtMultimediaKit.in(t._Z21qMetaTypeDeleteHelperIN12QMediaPlayer11MediaStatusEEvPT_)
    t._Z21qMetaTypeDeleteHelperIN12QMediaPlayer5ErrorEEvPT_ 0x00025c20   Section        8  QtMultimediaKit.in(t._Z21qMetaTypeDeleteHelperIN12QMediaPlayer5ErrorEEvPT_)
    t._Z21qMetaTypeDeleteHelperIN12QMediaPlayer5StateEEvPT_ 0x00025c28   Section        8  QtMultimediaKit.in(t._Z21qMetaTypeDeleteHelperIN12QMediaPlayer5StateEEvPT_)
    t._Z21qMetaTypeDeleteHelperIN14QMediaRecorder5ErrorEEvPT_ 0x00025c30   Section        8  QtMultimediaKit.in(t._Z21qMetaTypeDeleteHelperIN14QMediaRecorder5ErrorEEvPT_)
    t._Z21qMetaTypeDeleteHelperIN14QMediaRecorder5StateEEvPT_ 0x00025c38   Section        8  QtMultimediaKit.in(t._Z21qMetaTypeDeleteHelperIN14QMediaRecorder5StateEEvPT_)
    t._Z21qMetaTypeDeleteHelperIN15QCameraExposure12ExposureModeEEvPT_ 0x00025c40   Section        8  QtMultimediaKit.in(t._Z21qMetaTypeDeleteHelperIN15QCameraExposure12ExposureModeEEvPT_)
    t._Z21qMetaTypeDeleteHelperIN15QCameraExposure12MeteringModeEEvPT_ 0x00025c48   Section        8  QtMultimediaKit.in(t._Z21qMetaTypeDeleteHelperIN15QCameraExposure12MeteringModeEEvPT_)
    t._Z21qMetaTypeDeleteHelperIN19QCameraImageCapture5ErrorEEvPT_ 0x00025c50   Section        8  QtMultimediaKit.in(t._Z21qMetaTypeDeleteHelperIN19QCameraImageCapture5ErrorEEvPT_)
    t._Z21qMetaTypeDeleteHelperIN19QVideoSurfaceFormat15YCbCrColorSpaceEEvPT_ 0x00025c58   Section        8  QtMultimediaKit.in(t._Z21qMetaTypeDeleteHelperIN19QVideoSurfaceFormat15YCbCrColorSpaceEEvPT_)
    t._Z21qMetaTypeDeleteHelperIN19QVideoSurfaceFormat9DirectionEEvPT_ 0x00025c60   Section        8  QtMultimediaKit.in(t._Z21qMetaTypeDeleteHelperIN19QVideoSurfaceFormat9DirectionEEvPT_)
    t._Z21qMetaTypeDeleteHelperIN20QAbstractVideoBuffer10HandleTypeEEvPT_ 0x00025c68   Section        8  QtMultimediaKit.in(t._Z21qMetaTypeDeleteHelperIN20QAbstractVideoBuffer10HandleTypeEEvPT_)
    t._Z21qMetaTypeDeleteHelperIN21QAbstractVideoSurface5ErrorEEvPT_ 0x00025c70   Section        8  QtMultimediaKit.in(t._Z21qMetaTypeDeleteHelperIN21QAbstractVideoSurface5ErrorEEvPT_)
    t._Z21qMetaTypeDeleteHelperIN6QAudio4ModeEEvPT_ 0x00025c78   Section        8  QtMultimediaKit.in(t._Z21qMetaTypeDeleteHelperIN6QAudio4ModeEEvPT_)
    t._Z21qMetaTypeDeleteHelperIN6QAudio5ErrorEEvPT_ 0x00025c80   Section        8  QtMultimediaKit.in(t._Z21qMetaTypeDeleteHelperIN6QAudio5ErrorEEvPT_)
    t._Z21qMetaTypeDeleteHelperIN6QAudio5StateEEvPT_ 0x00025c88   Section        8  QtMultimediaKit.in(t._Z21qMetaTypeDeleteHelperIN6QAudio5StateEEvPT_)
    t._Z21qMetaTypeDeleteHelperIN7QCamera10LockStatusEEvPT_ 0x00025c90   Section        8  QtMultimediaKit.in(t._Z21qMetaTypeDeleteHelperIN7QCamera10LockStatusEEvPT_)
    t._Z21qMetaTypeDeleteHelperIN7QCamera16LockChangeReasonEEvPT_ 0x00025c98   Section        8  QtMultimediaKit.in(t._Z21qMetaTypeDeleteHelperIN7QCamera16LockChangeReasonEEvPT_)
    t._Z21qMetaTypeDeleteHelperIN7QCamera5ErrorEEvPT_ 0x00025ca0   Section        8  QtMultimediaKit.in(t._Z21qMetaTypeDeleteHelperIN7QCamera5ErrorEEvPT_)
    t._Z21qMetaTypeDeleteHelperIN7QCamera5StateEEvPT_ 0x00025ca8   Section        8  QtMultimediaKit.in(t._Z21qMetaTypeDeleteHelperIN7QCamera5StateEEvPT_)
    t._Z21qMetaTypeDeleteHelperIN7QCamera6StatusEEvPT_ 0x00025cb0   Section        8  QtMultimediaKit.in(t._Z21qMetaTypeDeleteHelperIN7QCamera6StatusEEvPT_)
    t._Z21qMetaTypeDeleteHelperIN7QCamera8LockTypeEEvPT_ 0x00025cb8   Section        8  QtMultimediaKit.in(t._Z21qMetaTypeDeleteHelperIN7QCamera8LockTypeEEvPT_)
    t._Z21qMetaTypeDeleteHelperIP10CMMFBufferEvPT_ 0x00025cc0   Section        8  QtMultimediaKit.in(t._Z21qMetaTypeDeleteHelperIP10CMMFBufferEvPT_)
    t._Z24qMetaTypeConstructHelperI15QNetworkRequestEPvPKT_ 0x00025cc8   Section       84  QtMultimediaKit.in(t._Z24qMetaTypeConstructHelperI15QNetworkRequestEPvPKT_)
    t._Z24qMetaTypeConstructHelperI15QNetworkRequestEPvPKT_.clean 0x00025d1c   Section       26  QtMultimediaKit.in(t._Z24qMetaTypeConstructHelperI15QNetworkRequestEPvPKT_.clean)
    t._Z24qMetaTypeConstructHelperI19QVideoSurfaceFormatEPvPKT_ 0x00025d36   Section       48  QtMultimediaKit.in(t._Z24qMetaTypeConstructHelperI19QVideoSurfaceFormatEPvPKT_)
    t._Z24qMetaTypeConstructHelperI19QVideoSurfaceFormatEPvPKT_.clean 0x00025d66   Section       16  QtMultimediaKit.in(t._Z24qMetaTypeConstructHelperI19QVideoSurfaceFormatEPvPKT_.clean)
    t._Z24qMetaTypeConstructHelperI6QFlagsIN12QCameraFocus9FocusModeEEEPvPKT_ 0x00025d76   Section       40  QtMultimediaKit.in(t._Z24qMetaTypeConstructHelperI6QFlagsIN12QCameraFocus9FocusModeEEEPvPKT_)
    t._Z24qMetaTypeConstructHelperI6QFlagsIN15QCameraExposure9FlashModeEEEPvPKT_ 0x00025d9e   Section       40  QtMultimediaKit.in(t._Z24qMetaTypeConstructHelperI6QFlagsIN15QCameraExposure9FlashModeEEEPvPKT_)
    t._Z24qMetaTypeConstructHelperIN11QVideoFrame11PixelFormatEEPvPKT_ 0x00025dc6   Section       34  QtMultimediaKit.in(t._Z24qMetaTypeConstructHelperIN11QVideoFrame11PixelFormatEEPvPKT_)
    t._Z24qMetaTypeConstructHelperIN12QCameraFocus14FocusPointModeEEPvPKT_ 0x00025de8   Section       34  QtMultimediaKit.in(t._Z24qMetaTypeConstructHelperIN12QCameraFocus14FocusPointModeEEPvPKT_)
    t._Z24qMetaTypeConstructHelperIN12QMediaPlayer11MediaStatusEEPvPKT_ 0x00025e0a   Section       34  QtMultimediaKit.in(t._Z24qMetaTypeConstructHelperIN12QMediaPlayer11MediaStatusEEPvPKT_)
    t._Z24qMetaTypeConstructHelperIN12QMediaPlayer5ErrorEEPvPKT_ 0x00025e2c   Section       34  QtMultimediaKit.in(t._Z24qMetaTypeConstructHelperIN12QMediaPlayer5ErrorEEPvPKT_)
    t._Z24qMetaTypeConstructHelperIN12QMediaPlayer5StateEEPvPKT_ 0x00025e4e   Section       34  QtMultimediaKit.in(t._Z24qMetaTypeConstructHelperIN12QMediaPlayer5StateEEPvPKT_)
    t._Z24qMetaTypeConstructHelperIN14QMediaRecorder5ErrorEEPvPKT_ 0x00025e70   Section       34  QtMultimediaKit.in(t._Z24qMetaTypeConstructHelperIN14QMediaRecorder5ErrorEEPvPKT_)
    t._Z24qMetaTypeConstructHelperIN14QMediaRecorder5StateEEPvPKT_ 0x00025e92   Section       34  QtMultimediaKit.in(t._Z24qMetaTypeConstructHelperIN14QMediaRecorder5StateEEPvPKT_)
    t._Z24qMetaTypeConstructHelperIN15QCameraExposure12ExposureModeEEPvPKT_ 0x00025eb4   Section       34  QtMultimediaKit.in(t._Z24qMetaTypeConstructHelperIN15QCameraExposure12ExposureModeEEPvPKT_)
    t._Z24qMetaTypeConstructHelperIN15QCameraExposure12MeteringModeEEPvPKT_ 0x00025ed6   Section       34  QtMultimediaKit.in(t._Z24qMetaTypeConstructHelperIN15QCameraExposure12MeteringModeEEPvPKT_)
    t._Z24qMetaTypeConstructHelperIN19QCameraImageCapture5ErrorEEPvPKT_ 0x00025ef8   Section       34  QtMultimediaKit.in(t._Z24qMetaTypeConstructHelperIN19QCameraImageCapture5ErrorEEPvPKT_)
    t._Z24qMetaTypeConstructHelperIN19QVideoSurfaceFormat15YCbCrColorSpaceEEPvPKT_ 0x00025f1a   Section       34  QtMultimediaKit.in(t._Z24qMetaTypeConstructHelperIN19QVideoSurfaceFormat15YCbCrColorSpaceEEPvPKT_)
    t._Z24qMetaTypeConstructHelperIN19QVideoSurfaceFormat9DirectionEEPvPKT_ 0x00025f3c   Section       34  QtMultimediaKit.in(t._Z24qMetaTypeConstructHelperIN19QVideoSurfaceFormat9DirectionEEPvPKT_)
    t._Z24qMetaTypeConstructHelperIN20QAbstractVideoBuffer10HandleTypeEEPvPKT_ 0x00025f5e   Section       34  QtMultimediaKit.in(t._Z24qMetaTypeConstructHelperIN20QAbstractVideoBuffer10HandleTypeEEPvPKT_)
    t._Z24qMetaTypeConstructHelperIN21QAbstractVideoSurface5ErrorEEPvPKT_ 0x00025f80   Section       34  QtMultimediaKit.in(t._Z24qMetaTypeConstructHelperIN21QAbstractVideoSurface5ErrorEEPvPKT_)
    t._Z24qMetaTypeConstructHelperIN6QAudio4ModeEEPvPKT_ 0x00025fa2   Section       34  QtMultimediaKit.in(t._Z24qMetaTypeConstructHelperIN6QAudio4ModeEEPvPKT_)
    t._Z24qMetaTypeConstructHelperIN6QAudio5ErrorEEPvPKT_ 0x00025fc4   Section       34  QtMultimediaKit.in(t._Z24qMetaTypeConstructHelperIN6QAudio5ErrorEEPvPKT_)
    t._Z24qMetaTypeConstructHelperIN6QAudio5StateEEPvPKT_ 0x00025fe6   Section       34  QtMultimediaKit.in(t._Z24qMetaTypeConstructHelperIN6QAudio5StateEEPvPKT_)
    t._Z24qMetaTypeConstructHelperIN7QCamera10LockStatusEEPvPKT_ 0x00026008   Section       34  QtMultimediaKit.in(t._Z24qMetaTypeConstructHelperIN7QCamera10LockStatusEEPvPKT_)
    t._Z24qMetaTypeConstructHelperIN7QCamera16LockChangeReasonEEPvPKT_ 0x0002602a   Section       34  QtMultimediaKit.in(t._Z24qMetaTypeConstructHelperIN7QCamera16LockChangeReasonEEPvPKT_)
    t._Z24qMetaTypeConstructHelperIN7QCamera5ErrorEEPvPKT_ 0x0002604c   Section       34  QtMultimediaKit.in(t._Z24qMetaTypeConstructHelperIN7QCamera5ErrorEEPvPKT_)
    t._Z24qMetaTypeConstructHelperIN7QCamera5StateEEPvPKT_ 0x0002606e   Section       34  QtMultimediaKit.in(t._Z24qMetaTypeConstructHelperIN7QCamera5StateEEPvPKT_)
    t._Z24qMetaTypeConstructHelperIN7QCamera6StatusEEPvPKT_ 0x00026090   Section       34  QtMultimediaKit.in(t._Z24qMetaTypeConstructHelperIN7QCamera6StatusEEPvPKT_)
    t._Z24qMetaTypeConstructHelperIN7QCamera8LockTypeEEPvPKT_ 0x000260b2   Section       34  QtMultimediaKit.in(t._Z24qMetaTypeConstructHelperIN7QCamera8LockTypeEEPvPKT_)
    t._Z24qMetaTypeConstructHelperIP10CMMFBufferEPvPKT_ 0x000260d4   Section       34  QtMultimediaKit.in(t._Z24qMetaTypeConstructHelperIP10CMMFBufferEPvPKT_)
    t._Z4qAbsIfET_RKS0_                      0x000260f6   Section       26  QtMultimediaKit.in(t._Z4qAbsIfET_RKS0_)
    t._Z4qMaxIiERKT_S2_S2_                   0x00026110   Section       12  QtMultimediaKit.in(t._Z4qMaxIiERKT_S2_S2_)
    t._Z6qBoundIiERKT_S2_S2_S2_              0x0002611c   Section       24  QtMultimediaKit.in(t._Z6qBoundIiERKT_S2_S2_S2_)
    t._ZN12QMapIteratorIiiEC1ERK4QMapIiiE    0x00026134   Section       42  QtMultimediaKit.in(t._ZN12QMapIteratorIiiEC1ERK4QMapIiiE)
    t._ZN12QMetaTypeId2I15QNetworkRequestE14qt_metatype_idEv 0x00026160   Section       44  QtMultimediaKit.in(t._ZN12QMetaTypeId2I15QNetworkRequestE14qt_metatype_idEv)
    t._ZN12QMetaTypeId2I19QVideoSurfaceFormatE14qt_metatype_idEv 0x0002618c   Section       56  QtMultimediaKit.in(t._ZN12QMetaTypeId2I19QVideoSurfaceFormatE14qt_metatype_idEv)
    t._ZN12QMetaTypeId2IN11QVideoFrame11PixelFormatEE14qt_metatype_idEv 0x000261c4   Section       64  QtMultimediaKit.in(t._ZN12QMetaTypeId2IN11QVideoFrame11PixelFormatEE14qt_metatype_idEv)
    t._ZN12QMetaTypeId2IN19QVideoSurfaceFormat15YCbCrColorSpaceEE14qt_metatype_idEv 0x00026204   Section       76  QtMultimediaKit.in(t._ZN12QMetaTypeId2IN19QVideoSurfaceFormat15YCbCrColorSpaceEE14qt_metatype_idEv)
    t._ZN12QMetaTypeId2IN19QVideoSurfaceFormat9DirectionEE14qt_metatype_idEv 0x00026250   Section       68  QtMultimediaKit.in(t._ZN12QMetaTypeId2IN19QVideoSurfaceFormat9DirectionEE14qt_metatype_idEv)
    t._ZN12QMetaTypeId2IN20QAbstractVideoBuffer10HandleTypeEE14qt_metatype_idEv 0x00026294   Section       72  QtMultimediaKit.in(t._ZN12QMetaTypeId2IN20QAbstractVideoBuffer10HandleTypeEE14qt_metatype_idEv)
    t._ZN12QMetaTypeId2IN21QAbstractVideoSurface5ErrorEE14qt_metatype_idEv 0x000262dc   Section       68  QtMultimediaKit.in(t._ZN12QMetaTypeId2IN21QAbstractVideoSurface5ErrorEE14qt_metatype_idEv)
    t._ZN12QMetaTypeId2IN6QAudio4ModeEE14qt_metatype_idEv 0x00026320   Section       52  QtMultimediaKit.in(t._ZN12QMetaTypeId2IN6QAudio4ModeEE14qt_metatype_idEv)
    t._ZN12QMetaTypeId2IN6QAudio5ErrorEE14qt_metatype_idEv 0x00026354   Section       52  QtMultimediaKit.in(t._ZN12QMetaTypeId2IN6QAudio5ErrorEE14qt_metatype_idEv)
    t._ZN12QMetaTypeId2IN6QAudio5StateEE14qt_metatype_idEv 0x00026388   Section       52  QtMultimediaKit.in(t._ZN12QMetaTypeId2IN6QAudio5StateEE14qt_metatype_idEv)
    t._ZN12SymbianAudio5Utils9findValueIiEEbPKT_iS2_Ri 0x000263bc   Section       34  QtMultimediaKit.in(t._ZN12SymbianAudio5Utils9findValueIiEEbPKT_iS2_Ri)
    t._ZN14QHashDummyNodeI7QString15QHashDummyValueEC1ERKS0_ 0x000263de   Section       12  QtMultimediaKit.in(t._ZN14QHashDummyNodeI7QString15QHashDummyValueEC1ERKS0_)
    t._ZN14QScopedPointerI6QTimer21QScopedPointerDeleterIS0_EED1Ev 0x000263ea   Section       24  QtMultimediaKit.in(t._ZN14QScopedPointerI6QTimer21QScopedPointerDeleterIS0_EED1Ev)
    t._ZN14QScopedPointerIN12SymbianAudio15DevSoundWrapperE21QScopedPointerDeleterIS1_EED1Ev 0x00026402   Section       24  QtMultimediaKit.in(t._ZN14QScopedPointerIN12SymbianAudio15DevSoundWrapperE21QScopedPointerDeleterIS1_EED1Ev)
    t._ZN18QSharedDataPointerI19QAudioFormatPrivateE13detach_helperEv 0x0002641a   Section       90  QtMultimediaKit.in(t._ZN18QSharedDataPointerI19QAudioFormatPrivateE13detach_helperEv)
    t._ZN18QSharedDataPointerI19QAudioFormatPrivateE13detach_helperEv.clean 0x00026474   Section       10  QtMultimediaKit.in(t._ZN18QSharedDataPointerI19QAudioFormatPrivateE13detach_helperEv.clean)
    t._ZN18QSharedDataPointerI19QAudioFormatPrivateED1Ev 0x0002647e   Section       36  QtMultimediaKit.in(t._ZN18QSharedDataPointerI19QAudioFormatPrivateED1Ev)
    t._ZN18QSharedDataPointerI19QAudioFormatPrivateEptEv 0x000264a2   Section       26  QtMultimediaKit.in(t._ZN18QSharedDataPointerI19QAudioFormatPrivateEptEv)
    t._ZN18QSharedDataPointerI20QCameraFocusZoneDataE13detach_helperEv 0x000264bc   Section       64  QtMultimediaKit.in(t._ZN18QSharedDataPointerI20QCameraFocusZoneDataE13detach_helperEv)
    t._ZN18QSharedDataPointerI20QCameraFocusZoneDataE13detach_helperEv.clean 0x000264fc   Section       10  QtMultimediaKit.in(t._ZN18QSharedDataPointerI20QCameraFocusZoneDataE13detach_helperEv.clean)
    t._ZN18QSharedDataPointerI20QCameraFocusZoneDataEC1EPS0_ 0x00026506   Section       18  QtMultimediaKit.in(t._ZN18QSharedDataPointerI20QCameraFocusZoneDataEC1EPS0_)
    t._ZN18QSharedDataPointerI20QCameraFocusZoneDataED1Ev 0x00026518   Section       28  QtMultimediaKit.in(t._ZN18QSharedDataPointerI20QCameraFocusZoneDataED1Ev)
    t._ZN18QSharedDataPointerI20QMediaContentPrivateE13detach_helperEv 0x00026534   Section       70  QtMultimediaKit.in(t._ZN18QSharedDataPointerI20QMediaContentPrivateE13detach_helperEv)
    t._ZN18QSharedDataPointerI20QMediaContentPrivateE13detach_helperEv.clean 0x0002657a   Section       10  QtMultimediaKit.in(t._ZN18QSharedDataPointerI20QMediaContentPrivateE13detach_helperEv.clean)
    t._ZN18QSharedDataPointerI20QMediaContentPrivateEC1EPS0_ 0x00026584   Section       18  QtMultimediaKit.in(t._ZN18QSharedDataPointerI20QMediaContentPrivateEC1EPS0_)
    t._ZN18QSharedDataPointerI20QMediaContentPrivateED1Ev 0x00026596   Section       36  QtMultimediaKit.in(t._ZN18QSharedDataPointerI20QMediaContentPrivateED1Ev)
    t._ZN18QSharedDataPointerI20QMediaContentPrivateEptEv 0x000265ba   Section       30  QtMultimediaKit.in(t._ZN18QSharedDataPointerI20QMediaContentPrivateEptEv)
    t._ZN18QSharedDataPointerI22QMediaTimeRangePrivateEC1EPS0_ 0x000265d8   Section       18  QtMultimediaKit.in(t._ZN18QSharedDataPointerI22QMediaTimeRangePrivateEC1EPS0_)
    t._ZN18QSharedDataPointerI22QMediaTimeRangePrivateED1Ev 0x000265ea   Section       36  QtMultimediaKit.in(t._ZN18QSharedDataPointerI22QMediaTimeRangePrivateED1Ev)
    t._ZN18QSharedDataPointerI22QMediaTimeRangePrivateEptEv 0x0002660e   Section       78  QtMultimediaKit.in(t._ZN18QSharedDataPointerI22QMediaTimeRangePrivateEptEv)
    t._ZN18QSharedDataPointerI22QMediaTimeRangePrivateEptEv.clean 0x0002665c   Section       10  QtMultimediaKit.in(t._ZN18QSharedDataPointerI22QMediaTimeRangePrivateEptEv.clean)
    t._ZN18QSharedDataPointerI23QAudioDeviceInfoPrivateEC1EPS0_ 0x00026666   Section       18  QtMultimediaKit.in(t._ZN18QSharedDataPointerI23QAudioDeviceInfoPrivateEC1EPS0_)
    t._ZN18QSharedDataPointerI23QAudioDeviceInfoPrivateED1Ev 0x00026678   Section       36  QtMultimediaKit.in(t._ZN18QSharedDataPointerI23QAudioDeviceInfoPrivateED1Ev)
    t._ZN18QSharedDataPointerI26QVideoSurfaceFormatPrivateEC1EPS0_ 0x0002669c   Section       18  QtMultimediaKit.in(t._ZN18QSharedDataPointerI26QVideoSurfaceFormatPrivateEC1EPS0_)
    t._ZN18QSharedDataPointerI26QVideoSurfaceFormatPrivateED1Ev 0x000266ae   Section       36  QtMultimediaKit.in(t._ZN18QSharedDataPointerI26QVideoSurfaceFormatPrivateED1Ev)
    t._ZN18QSharedDataPointerI26QVideoSurfaceFormatPrivateEptEv 0x000266d2   Section       78  QtMultimediaKit.in(t._ZN18QSharedDataPointerI26QVideoSurfaceFormatPrivateEptEv)
    t._ZN18QSharedDataPointerI26QVideoSurfaceFormatPrivateEptEv.clean 0x00026720   Section       10  QtMultimediaKit.in(t._ZN18QSharedDataPointerI26QVideoSurfaceFormatPrivateEptEv.clean)
    t._ZN18QSharedDataPointerI28QAudioEncoderSettingsPrivateE13detach_helperEv 0x0002672a   Section       98  QtMultimediaKit.in(t._ZN18QSharedDataPointerI28QAudioEncoderSettingsPrivateE13detach_helperEv)
    t._ZN18QSharedDataPointerI28QAudioEncoderSettingsPrivateE13detach_helperEv.clean 0x0002678c   Section       10  QtMultimediaKit.in(t._ZN18QSharedDataPointerI28QAudioEncoderSettingsPrivateE13detach_helperEv.clean)
    t._ZN18QSharedDataPointerI28QAudioEncoderSettingsPrivateED1Ev 0x00026796   Section       36  QtMultimediaKit.in(t._ZN18QSharedDataPointerI28QAudioEncoderSettingsPrivateED1Ev)
    t._ZN18QSharedDataPointerI28QAudioEncoderSettingsPrivateEptEv 0x000267ba   Section       30  QtMultimediaKit.in(t._ZN18QSharedDataPointerI28QAudioEncoderSettingsPrivateEptEv)
    t._ZN18QSharedDataPointerI28QImageEncoderSettingsPrivateE13detach_helperEv 0x000267d8   Section       90  QtMultimediaKit.in(t._ZN18QSharedDataPointerI28QImageEncoderSettingsPrivateE13detach_helperEv)
    t._ZN18QSharedDataPointerI28QImageEncoderSettingsPrivateE13detach_helperEv.clean 0x00026832   Section       12  QtMultimediaKit.in(t._ZN18QSharedDataPointerI28QImageEncoderSettingsPrivateE13detach_helperEv.clean)
    t._ZN18QSharedDataPointerI28QImageEncoderSettingsPrivateED1Ev 0x0002683e   Section       36  QtMultimediaKit.in(t._ZN18QSharedDataPointerI28QImageEncoderSettingsPrivateED1Ev)
    t._ZN18QSharedDataPointerI28QImageEncoderSettingsPrivateEptEv 0x00026862   Section       30  QtMultimediaKit.in(t._ZN18QSharedDataPointerI28QImageEncoderSettingsPrivateEptEv)
    t._ZN18QSharedDataPointerI28QVideoEncoderSettingsPrivateE13detach_helperEv 0x00026880   Section      102  QtMultimediaKit.in(t._ZN18QSharedDataPointerI28QVideoEncoderSettingsPrivateE13detach_helperEv)
    t._ZN18QSharedDataPointerI28QVideoEncoderSettingsPrivateE13detach_helperEv.clean 0x000268e6   Section       12  QtMultimediaKit.in(t._ZN18QSharedDataPointerI28QVideoEncoderSettingsPrivateE13detach_helperEv.clean)
    t._ZN18QSharedDataPointerI28QVideoEncoderSettingsPrivateED1Ev 0x000268f2   Section       36  QtMultimediaKit.in(t._ZN18QSharedDataPointerI28QVideoEncoderSettingsPrivateED1Ev)
    t._ZN18QSharedDataPointerI28QVideoEncoderSettingsPrivateEptEv 0x00026916   Section       30  QtMultimediaKit.in(t._ZN18QSharedDataPointerI28QVideoEncoderSettingsPrivateEptEv)
    t._ZN18QSharedDataPointerI32QMediaServiceProviderHintPrivateE5cloneEv 0x00026934   Section       82  QtMultimediaKit.in(t._ZN18QSharedDataPointerI32QMediaServiceProviderHintPrivateE5cloneEv)
    t._ZN18QSharedDataPointerI32QMediaServiceProviderHintPrivateE5cloneEv.clean 0x00026986   Section       32  QtMultimediaKit.in(t._ZN18QSharedDataPointerI32QMediaServiceProviderHintPrivateE5cloneEv.clean)
    t._ZN18QSharedDataPointerI32QMediaServiceProviderHintPrivateEC1EPS0_ 0x000269a6   Section       18  QtMultimediaKit.in(t._ZN18QSharedDataPointerI32QMediaServiceProviderHintPrivateEC1EPS0_)
    t._ZN18QSharedDataPointerI32QMediaServiceProviderHintPrivateED1Ev 0x000269b8   Section       36  QtMultimediaKit.in(t._ZN18QSharedDataPointerI32QMediaServiceProviderHintPrivateED1Ev)
    t._ZN18QSharedDataPointerI32QMediaServiceProviderHintPrivateEptEv 0x000269dc   Section       62  QtMultimediaKit.in(t._ZN18QSharedDataPointerI32QMediaServiceProviderHintPrivateEptEv)
    t._ZN20QGlobalStaticDeleterI18QAudioPluginLoaderED1Ev 0x00026a1a   Section       36  QtMultimediaKit.in(t._ZN20QGlobalStaticDeleterI18QAudioPluginLoaderED1Ev)
    t._ZN20QGlobalStaticDeleterI18QMediaPluginLoaderED1Ev 0x00026a3e   Section       36  QtMultimediaKit.in(t._ZN20QGlobalStaticDeleterI18QMediaPluginLoaderED1Ev)
    t._ZN20QGlobalStaticDeleterI22QPluginServiceProviderED1Ev 0x00026a62   Section       34  QtMultimediaKit.in(t._ZN20QGlobalStaticDeleterI22QPluginServiceProviderED1Ev)
    t._ZN20QGlobalStaticDeleterI26QMediaPlaylistNullProviderED1Ev 0x00026a84   Section       34  QtMultimediaKit.in(t._ZN20QGlobalStaticDeleterI26QMediaPlaylistNullProviderED1Ev)
    t._ZN20QGlobalStaticDeleterI4QMapI7QString5QListIP7QObjectEEED1Ev 0x00026aa6   Section       36  QtMultimediaKit.in(t._ZN20QGlobalStaticDeleterI4QMapI7QString5QListIP7QObjectEEED1Ev)
    t._ZN28QExplicitlySharedDataPointerI18QVideoFramePrivateEC1EPS0_ 0x00026aca   Section       18  QtMultimediaKit.in(t._ZN28QExplicitlySharedDataPointerI18QVideoFramePrivateEC1EPS0_)
    t._ZN28QExplicitlySharedDataPointerI18QVideoFramePrivateED1Ev 0x00026adc   Section       36  QtMultimediaKit.in(t._ZN28QExplicitlySharedDataPointerI18QVideoFramePrivateED1Ev)
    t._ZN4QMapI7QString5QListIP7QObjectEE11node_createEP8QMapDataPPNS6_4NodeERKS0_RKS4_ 0x00026b00   Section      106  QtMultimediaKit.in(t._ZN4QMapI7QString5QListIP7QObjectEE11node_createEP8QMapDataPPNS6_4NodeERKS0_RKS4_)
    t._ZN4QMapI7QString5QListIP7QObjectEE11node_createEP8QMapDataPPNS6_4NodeERKS0_RKS4_.clean 0x00026b6a   Section       38  QtMultimediaKit.in(t._ZN4QMapI7QString5QListIP7QObjectEE11node_createEP8QMapDataPPNS6_4NodeERKS0_RKS4_.clean)
    t._ZN4QMapI7QString5QListIP7QObjectEE13detach_helperEv 0x00026b90   Section      114  QtMultimediaKit.in(t._ZN4QMapI7QString5QListIP7QObjectEE13detach_helperEv)
    t._ZN4QMapI7QString5QListIP7QObjectEE13detach_helperEv.clean 0x00026c02   Section        8  QtMultimediaKit.in(t._ZN4QMapI7QString5QListIP7QObjectEE13detach_helperEv.clean)
    t._ZN4QMapI7QString5QListIP7QObjectEE6insertERKS0_RKS4_ 0x00026c0a   Section      182  QtMultimediaKit.in(t._ZN4QMapI7QString5QListIP7QObjectEE6insertERKS0_RKS4_)
    t._ZN4QMapI7QString5QListIP7QObjectEE8freeDataEP8QMapData 0x00026cc0   Section       42  QtMultimediaKit.in(t._ZN4QMapI7QString5QListIP7QObjectEE8freeDataEP8QMapData)
    t._ZN4QMapI7QString5QListIP7QObjectEED1Ev 0x00026cea   Section       32  QtMultimediaKit.in(t._ZN4QMapI7QString5QListIP7QObjectEED1Ev)
    t._ZN4QMapI7QStringN24QAudioDeviceInfoInternal12CapabilitiesEE11node_createEP8QMapDataPPNS4_4NodeERKS0_RKS2_ 0x00026d0a   Section      164  QtMultimediaKit.in(t._ZN4QMapI7QStringN24QAudioDeviceInfoInternal12CapabilitiesEE11node_createEP8QMapDataPPNS4_4NodeERKS0_RKS2_)
    t._ZN4QMapI7QStringN24QAudioDeviceInfoInternal12CapabilitiesEE11node_createEP8QMapDataPPNS4_4NodeERKS0_RKS2_.clean 0x00026dae   Section       78  QtMultimediaKit.in(t._ZN4QMapI7QStringN24QAudioDeviceInfoInternal12CapabilitiesEE11node_createEP8QMapDataPPNS4_4NodeERKS0_RKS2_.clean)
    t._ZN4QMapI7QStringN24QAudioDeviceInfoInternal12CapabilitiesEE13detach_helperEv 0x00026dfc   Section      114  QtMultimediaKit.in(t._ZN4QMapI7QStringN24QAudioDeviceInfoInternal12CapabilitiesEE13detach_helperEv)
    t._ZN4QMapI7QStringN24QAudioDeviceInfoInternal12CapabilitiesEE13detach_helperEv.clean 0x00026e6e   Section        8  QtMultimediaKit.in(t._ZN4QMapI7QStringN24QAudioDeviceInfoInternal12CapabilitiesEE13detach_helperEv.clean)
    t._ZN4QMapI7QStringN24QAudioDeviceInfoInternal12CapabilitiesEE8freeDataEP8QMapData 0x00026e76   Section       42  QtMultimediaKit.in(t._ZN4QMapI7QStringN24QAudioDeviceInfoInternal12CapabilitiesEE8freeDataEP8QMapData)
    t._ZN4QMapI7QStringN24QAudioDeviceInfoInternal12CapabilitiesEED1Ev 0x00026ea0   Section       32  QtMultimediaKit.in(t._ZN4QMapI7QStringN24QAudioDeviceInfoInternal12CapabilitiesEED1Ev)
    t._ZN4QMapI7QStringN24QAudioDeviceInfoInternal12CapabilitiesEEixERKS0_ 0x00026ec0   Section      154  QtMultimediaKit.in(t._ZN4QMapI7QStringN24QAudioDeviceInfoInternal12CapabilitiesEEixERKS0_)
    t._ZN4QMapI7QStringN24QAudioDeviceInfoInternal12CapabilitiesEEixERKS0_.clean 0x00026f5a   Section       10  QtMultimediaKit.in(t._ZN4QMapI7QStringN24QAudioDeviceInfoInternal12CapabilitiesEEixERKS0_.clean)
    t._ZN4QMapI7QStringP7QObjectE11insertMultiERKS0_RKS2_ 0x00026f64   Section      116  QtMultimediaKit.in(t._ZN4QMapI7QStringP7QObjectE11insertMultiERKS0_RKS2_)
    t._ZN4QMapI7QStringP7QObjectE11node_createEP8QMapDataPPNS4_4NodeERKS0_RKS2_ 0x00026fd8   Section       86  QtMultimediaKit.in(t._ZN4QMapI7QStringP7QObjectE11node_createEP8QMapDataPPNS4_4NodeERKS0_RKS2_)
    t._ZN4QMapI7QStringP7QObjectE11node_createEP8QMapDataPPNS4_4NodeERKS0_RKS2_.clean 0x0002702e   Section       20  QtMultimediaKit.in(t._ZN4QMapI7QStringP7QObjectE11node_createEP8QMapDataPPNS4_4NodeERKS0_RKS2_.clean)
    t._ZN4QMapI7QStringP7QObjectE13detach_helperEv 0x00027042   Section      114  QtMultimediaKit.in(t._ZN4QMapI7QStringP7QObjectE13detach_helperEv)
    t._ZN4QMapI7QStringP7QObjectE13detach_helperEv.clean 0x000270b4   Section        8  QtMultimediaKit.in(t._ZN4QMapI7QStringP7QObjectE13detach_helperEv.clean)
    t._ZN4QMapI7QStringP7QObjectE8freeDataEP8QMapData 0x000270bc   Section       32  QtMultimediaKit.in(t._ZN4QMapI7QStringP7QObjectE8freeDataEP8QMapData)
    t._ZN4QMapI7QStringP7QObjectED1Ev        0x000270dc   Section       32  QtMultimediaKit.in(t._ZN4QMapI7QStringP7QObjectED1Ev)
    t._ZN4QMapIN7QCamera10LockStatusEiE11node_createEP8QMapDataPPNS3_4NodeERKS1_RKi 0x000270fc   Section       60  QtMultimediaKit.in(t._ZN4QMapIN7QCamera10LockStatusEiE11node_createEP8QMapDataPPNS3_4NodeERKS1_RKi)
    t._ZN4QMapIN7QCamera10LockStatusEiE13detach_helperEv 0x00027138   Section      114  QtMultimediaKit.in(t._ZN4QMapIN7QCamera10LockStatusEiE13detach_helperEv)
    t._ZN4QMapIN7QCamera10LockStatusEiE13detach_helperEv.clean 0x000271aa   Section        8  QtMultimediaKit.in(t._ZN4QMapIN7QCamera10LockStatusEiE13detach_helperEv.clean)
    t._ZN4QMapIN7QCamera10LockStatusEiE6insertERKS1_RKi 0x000271b2   Section      142  QtMultimediaKit.in(t._ZN4QMapIN7QCamera10LockStatusEiE6insertERKS1_RKi)
    t._ZN4QMapIN7QCamera10LockStatusEiE8freeDataEP8QMapData 0x00027240   Section       22  QtMultimediaKit.in(t._ZN4QMapIN7QCamera10LockStatusEiE8freeDataEP8QMapData)
    t._ZN4QMapIN7QCamera10LockStatusEiED1Ev  0x00027256   Section       32  QtMultimediaKit.in(t._ZN4QMapIN7QCamera10LockStatusEiED1Ev)
    t._ZN4QMapIP13QMediaServiceP27QMediaServiceProviderPluginE11node_createEP8QMapDataPPNS5_4NodeERKS1_RKS3_ 0x00027276   Section       60  QtMultimediaKit.in(t._ZN4QMapIP13QMediaServiceP27QMediaServiceProviderPluginE11node_createEP8QMapDataPPNS5_4NodeERKS1_RKS3_)
    t._ZN4QMapIP13QMediaServiceP27QMediaServiceProviderPluginE13detach_helperEv 0x000272b2   Section      114  QtMultimediaKit.in(t._ZN4QMapIP13QMediaServiceP27QMediaServiceProviderPluginE13detach_helperEv)
    t._ZN4QMapIP13QMediaServiceP27QMediaServiceProviderPluginE13detach_helperEv.clean 0x00027324   Section        8  QtMultimediaKit.in(t._ZN4QMapIP13QMediaServiceP27QMediaServiceProviderPluginE13detach_helperEv.clean)
    t._ZN4QMapIP13QMediaServiceP27QMediaServiceProviderPluginE4takeERKS1_ 0x0002732c   Section      114  QtMultimediaKit.in(t._ZN4QMapIP13QMediaServiceP27QMediaServiceProviderPluginE4takeERKS1_)
    t._ZN4QMapIP13QMediaServiceP27QMediaServiceProviderPluginE6detachEv 0x0002739e   Section       26  QtMultimediaKit.in(t._ZN4QMapIP13QMediaServiceP27QMediaServiceProviderPluginE6detachEv)
    t._ZN4QMapIP13QMediaServiceP27QMediaServiceProviderPluginE8freeDataEP8QMapData 0x000273b8   Section       12  QtMultimediaKit.in(t._ZN4QMapIP13QMediaServiceP27QMediaServiceProviderPluginE8freeDataEP8QMapData)
    t._ZN4QMapIP13QMediaServiceP27QMediaServiceProviderPluginED1Ev 0x000273c4   Section       32  QtMultimediaKit.in(t._ZN4QMapIP13QMediaServiceP27QMediaServiceProviderPluginED1Ev)
    t._ZN4QMapIi8QVariantE11node_createEP8QMapDataPPNS2_4NodeERKiRKS0_ 0x000273e4   Section      100  QtMultimediaKit.in(t._ZN4QMapIi8QVariantE11node_createEP8QMapDataPPNS2_4NodeERKiRKS0_)
    t._ZN4QMapIi8QVariantE11node_createEP8QMapDataPPNS2_4NodeERKiRKS0_.clean 0x00027448   Section       28  QtMultimediaKit.in(t._ZN4QMapIi8QVariantE11node_createEP8QMapDataPPNS2_4NodeERKiRKS0_.clean)
    t._ZN4QMapIi8QVariantE13detach_helperEv  0x00027464   Section      116  QtMultimediaKit.in(t._ZN4QMapIi8QVariantE13detach_helperEv)
    t._ZN4QMapIi8QVariantE13detach_helperEv.clean 0x000274d8   Section        8  QtMultimediaKit.in(t._ZN4QMapIi8QVariantE13detach_helperEv.clean)
    t._ZN4QMapIi8QVariantE6detachEv          0x000274e0   Section       26  QtMultimediaKit.in(t._ZN4QMapIi8QVariantE6detachEv)
    t._ZN4QMapIi8QVariantE6insertERKiRKS0_   0x000274fa   Section      130  QtMultimediaKit.in(t._ZN4QMapIi8QVariantE6insertERKiRKS0_)
    t._ZN4QMapIi8QVariantE6removeERKi        0x0002757c   Section      156  QtMultimediaKit.in(t._ZN4QMapIi8QVariantE6removeERKi)
    t._ZN4QMapIi8QVariantE8freeDataEP8QMapData 0x00027618   Section       32  QtMultimediaKit.in(t._ZN4QMapIi8QVariantE8freeDataEP8QMapData)
    t._ZN4QMapIi8QVariantEC1Ev               0x00027638   Section       24  QtMultimediaKit.in(t._ZN4QMapIi8QVariantEC1Ev)
    t._ZN4QMapIi8QVariantED1Ev               0x00027650   Section       32  QtMultimediaKit.in(t._ZN4QMapIi8QVariantED1Ev)
    t._ZN4QMapIiiE11node_createEP8QMapDataPPNS1_4NodeERKiS7_ 0x00027670   Section       60  QtMultimediaKit.in(t._ZN4QMapIiiE11node_createEP8QMapDataPPNS1_4NodeERKiS7_)
    t._ZN4QMapIiiE13detach_helperEv          0x000276ac   Section      114  QtMultimediaKit.in(t._ZN4QMapIiiE13detach_helperEv)
    t._ZN4QMapIiiE13detach_helperEv.clean    0x0002771e   Section        8  QtMultimediaKit.in(t._ZN4QMapIiiE13detach_helperEv.clean)
    t._ZN4QMapIiiE6detachEv                  0x00027726   Section       26  QtMultimediaKit.in(t._ZN4QMapIiiE6detachEv)
    t._ZN4QMapIiiE6insertERKiS2_             0x00027740   Section      130  QtMultimediaKit.in(t._ZN4QMapIiiE6insertERKiS2_)
    t._ZN4QMapIiiE8freeDataEP8QMapData       0x000277c2   Section       12  QtMultimediaKit.in(t._ZN4QMapIiiE8freeDataEP8QMapData)
    t._ZN4QMapIiiEC1Ev                       0x000277d0   Section       24  QtMultimediaKit.in(t._ZN4QMapIiiEC1Ev)
    t._ZN4QMapIiiED1Ev                       0x000277e8   Section       32  QtMultimediaKit.in(t._ZN4QMapIiiED1Ev)
    t._ZN5QHashI7QString15QHashDummyValueE11deleteNode2EPN9QHashData4NodeE 0x00027808   Section       10  QtMultimediaKit.in(t._ZN5QHashI7QString15QHashDummyValueE11deleteNode2EPN9QHashData4NodeE)
    t._ZN5QHashI7QString15QHashDummyValueE13duplicateNodeEPN9QHashData4NodeEPv 0x00027812   Section       28  QtMultimediaKit.in(t._ZN5QHashI7QString15QHashDummyValueE13duplicateNodeEPN9QHashData4NodeEPv)
    t._ZN5QHashI7QString15QHashDummyValueE13duplicateNodeEPN9QHashData4NodeEPv.clean 0x0002782e   Section       12  QtMultimediaKit.in(t._ZN5QHashI7QString15QHashDummyValueE13duplicateNodeEPN9QHashData4NodeEPv.clean)
    t._ZN5QHashI7QString15QHashDummyValueE6insertERKS0_RKS1_ 0x0002783c   Section      180  QtMultimediaKit.in(t._ZN5QHashI7QString15QHashDummyValueE6insertERKS0_RKS1_)
    t._ZN5QHashI7QString15QHashDummyValueE6insertERKS0_RKS1_.clean 0x000278f0   Section       12  QtMultimediaKit.in(t._ZN5QHashI7QString15QHashDummyValueE6insertERKS0_RKS1_.clean)
    t._ZN5QHashI7QString15QHashDummyValueE8freeDataEP9QHashData 0x000278fc   Section       16  QtMultimediaKit.in(t._ZN5QHashI7QString15QHashDummyValueE8freeDataEP9QHashData)
    t._ZN5QHashI7QString15QHashDummyValueED1Ev 0x0002790c   Section       28  QtMultimediaKit.in(t._ZN5QHashI7QString15QHashDummyValueED1Ev)
    t._ZN5QHashIi15QHashDummyValueE11deleteNode2EPN9QHashData4NodeE 0x00027928   Section        2  QtMultimediaKit.in(t._ZN5QHashIi15QHashDummyValueE11deleteNode2EPN9QHashData4NodeE)
    t._ZN5QHashIi15QHashDummyValueE13duplicateNodeEPN9QHashData4NodeEPv 0x0002792a   Section       10  QtMultimediaKit.in(t._ZN5QHashIi15QHashDummyValueE13duplicateNodeEPN9QHashData4NodeEPv)
    t._ZN5QHashIi15QHashDummyValueE6detachEv 0x00027934   Section       68  QtMultimediaKit.in(t._ZN5QHashIi15QHashDummyValueE6detachEv)
    t._ZN5QHashIi15QHashDummyValueE6insertERKiRKS0_ 0x00027978   Section      104  QtMultimediaKit.in(t._ZN5QHashIi15QHashDummyValueE6insertERKiRKS0_)
    t._ZN5QHashIi15QHashDummyValueE6removeERKi 0x000279e0   Section      164  QtMultimediaKit.in(t._ZN5QHashIi15QHashDummyValueE6removeERKi)
    t._ZN5QHashIi15QHashDummyValueE8freeDataEP9QHashData 0x00027a84   Section       16  QtMultimediaKit.in(t._ZN5QHashIi15QHashDummyValueE8freeDataEP9QHashData)
    t._ZN5QHashIi15QHashDummyValueED1Ev      0x00027a94   Section       28  QtMultimediaKit.in(t._ZN5QHashIi15QHashDummyValueED1Ev)
    t._ZN5QListI10QByteArrayE13detach_helperEi 0x00027ab0   Section      142  QtMultimediaKit.in(t._ZN5QListI10QByteArrayE13detach_helperEi)
    t._ZN5QListI10QByteArrayE13detach_helperEi.clean 0x00027b3e   Section       20  QtMultimediaKit.in(t._ZN5QListI10QByteArrayE13detach_helperEi.clean)
    t._ZN5QListI10QByteArrayE13detach_helperEv 0x00027b52   Section       88  QtMultimediaKit.in(t._ZN5QListI10QByteArrayE13detach_helperEv)
    t._ZN5QListI10QByteArrayE13detach_helperEv.clean 0x00027baa   Section        8  QtMultimediaKit.in(t._ZN5QListI10QByteArrayE13detach_helperEv.clean)
    t._ZN5QListI10QByteArrayE14node_constructEPNS1_4NodeERKS0_ 0x00027bb2   Section       26  QtMultimediaKit.in(t._ZN5QListI10QByteArrayE14node_constructEPNS1_4NodeERKS0_)
    t._ZN5QListI10QByteArrayE14node_constructEPNS1_4NodeERKS0_.clean 0x00027bcc   Section       12  QtMultimediaKit.in(t._ZN5QListI10QByteArrayE14node_constructEPNS1_4NodeERKS0_.clean)
    t._ZN5QListI10QByteArrayE18detach_helper_growEii 0x00027bd8   Section      186  QtMultimediaKit.in(t._ZN5QListI10QByteArrayE18detach_helper_growEii)
    t._ZN5QListI10QByteArrayE18detach_helper_growEii.clean 0x00027c92   Section        8  QtMultimediaKit.in(t._ZN5QListI10QByteArrayE18detach_helper_growEii.clean)
    t._ZN5QListI10QByteArrayE4freeEPN9QListData4DataE 0x00027c9a   Section       48  QtMultimediaKit.in(t._ZN5QListI10QByteArrayE4freeEPN9QListData4DataE)
    t._ZN5QListI10QByteArrayE6appendERKS0_   0x00027ccc   Section      100  QtMultimediaKit.in(t._ZN5QListI10QByteArrayE6appendERKS0_)
    t._ZN5QListI10QByteArrayE6appendERKS0_.clean 0x00027d30   Section        8  QtMultimediaKit.in(t._ZN5QListI10QByteArrayE6appendERKS0_.clean)
    t._ZN5QListI10QByteArrayE9node_copyEPNS1_4NodeES3_S3_ 0x00027d38   Section       70  QtMultimediaKit.in(t._ZN5QListI10QByteArrayE9node_copyEPNS1_4NodeES3_S3_)
    t._ZN5QListI10QByteArrayE9node_copyEPNS1_4NodeES3_S3_.clean 0x00027d7e   Section       22  QtMultimediaKit.in(t._ZN5QListI10QByteArrayE9node_copyEPNS1_4NodeES3_S3_.clean)
    t._ZN5QListI10QByteArrayEC1ERKS1_        0x00027d94   Section       30  QtMultimediaKit.in(t._ZN5QListI10QByteArrayEC1ERKS1_)
    t._ZN5QListI10QByteArrayEC1Ev            0x00027db4   Section       20  QtMultimediaKit.in(t._ZN5QListI10QByteArrayEC1Ev)
    t._ZN5QListI10QByteArrayED1Ev            0x00027dc8   Section       30  QtMultimediaKit.in(t._ZN5QListI10QByteArrayED1Ev)
    t._ZN5QListI10QByteArrayElsERKS0_        0x00027de6   Section       12  QtMultimediaKit.in(t._ZN5QListI10QByteArrayElsERKS0_)
    t._ZN5QListI10QByteArrayEpLERKS1_        0x00027df4   Section      172  QtMultimediaKit.in(t._ZN5QListI10QByteArrayEpLERKS1_)
    t._ZN5QListI10QByteArrayEpLERKS1_.clean  0x00027ea0   Section        8  QtMultimediaKit.in(t._ZN5QListI10QByteArrayEpLERKS1_.clean)
    t._ZN5QListI13QMediaContentE13detach_helperEi 0x00027ea8   Section      152  QtMultimediaKit.in(t._ZN5QListI13QMediaContentE13detach_helperEi)
    t._ZN5QListI13QMediaContentE13detach_helperEi.clean 0x00027f40   Section       18  QtMultimediaKit.in(t._ZN5QListI13QMediaContentE13detach_helperEi.clean)
    t._ZN5QListI13QMediaContentE13detach_helperEv 0x00027f52   Section       88  QtMultimediaKit.in(t._ZN5QListI13QMediaContentE13detach_helperEv)
    t._ZN5QListI13QMediaContentE13detach_helperEv.clean 0x00027faa   Section        8  QtMultimediaKit.in(t._ZN5QListI13QMediaContentE13detach_helperEv.clean)
    t._ZN5QListI13QMediaContentE13node_destructEPNS1_4NodeE 0x00027fb2   Section       18  QtMultimediaKit.in(t._ZN5QListI13QMediaContentE13node_destructEPNS1_4NodeE)
    t._ZN5QListI13QMediaContentE13node_destructEPNS1_4NodeES3_ 0x00027fc4   Section       30  QtMultimediaKit.in(t._ZN5QListI13QMediaContentE13node_destructEPNS1_4NodeES3_)
    t._ZN5QListI13QMediaContentE14node_constructEPNS1_4NodeERKS0_ 0x00027fe2   Section       32  QtMultimediaKit.in(t._ZN5QListI13QMediaContentE14node_constructEPNS1_4NodeERKS0_)
    t._ZN5QListI13QMediaContentE14node_constructEPNS1_4NodeERKS0_.clean 0x00028002   Section       10  QtMultimediaKit.in(t._ZN5QListI13QMediaContentE14node_constructEPNS1_4NodeERKS0_.clean)
    t._ZN5QListI13QMediaContentE18detach_helper_growEii 0x0002800c   Section      180  QtMultimediaKit.in(t._ZN5QListI13QMediaContentE18detach_helper_growEii)
    t._ZN5QListI13QMediaContentE18detach_helper_growEii.clean 0x000280c0   Section        8  QtMultimediaKit.in(t._ZN5QListI13QMediaContentE18detach_helper_growEii.clean)
    t._ZN5QListI13QMediaContentE4freeEPN9QListData4DataE 0x000280c8   Section       38  QtMultimediaKit.in(t._ZN5QListI13QMediaContentE4freeEPN9QListData4DataE)
    t._ZN5QListI13QMediaContentE5beginEv     0x000280ee   Section       22  QtMultimediaKit.in(t._ZN5QListI13QMediaContentE5beginEv)
    t._ZN5QListI13QMediaContentE6appendERKS0_ 0x00028104   Section       96  QtMultimediaKit.in(t._ZN5QListI13QMediaContentE6appendERKS0_)
    t._ZN5QListI13QMediaContentE6appendERKS0_.clean 0x00028164   Section        8  QtMultimediaKit.in(t._ZN5QListI13QMediaContentE6appendERKS0_.clean)
    t._ZN5QListI13QMediaContentE6detachEv    0x0002816c   Section       24  QtMultimediaKit.in(t._ZN5QListI13QMediaContentE6detachEv)
    t._ZN5QListI13QMediaContentE6insertEiRKS0_ 0x00028184   Section       94  QtMultimediaKit.in(t._ZN5QListI13QMediaContentE6insertEiRKS0_)
    t._ZN5QListI13QMediaContentE6insertEiRKS0_.clean 0x000281e2   Section        8  QtMultimediaKit.in(t._ZN5QListI13QMediaContentE6insertEiRKS0_.clean)
    t._ZN5QListI13QMediaContentE9node_copyEPNS1_4NodeES3_S3_ 0x000281ea   Section       80  QtMultimediaKit.in(t._ZN5QListI13QMediaContentE9node_copyEPNS1_4NodeES3_S3_)
    t._ZN5QListI13QMediaContentE9node_copyEPNS1_4NodeES3_S3_.clean 0x0002823a   Section       18  QtMultimediaKit.in(t._ZN5QListI13QMediaContentE9node_copyEPNS1_4NodeES3_S3_.clean)
    t._ZN5QListI13QMediaContentEC1Ev         0x0002824c   Section       20  QtMultimediaKit.in(t._ZN5QListI13QMediaContentEC1Ev)
    t._ZN5QListI13QMediaContentED1Ev         0x00028260   Section       30  QtMultimediaKit.in(t._ZN5QListI13QMediaContentED1Ev)
    t._ZN5QListI13QMediaContentEaSERKS1_     0x0002827e   Section       54  QtMultimediaKit.in(t._ZN5QListI13QMediaContentEaSERKS1_)
    t._ZN5QListI13QMediaContentEpLERKS1_     0x000282b4   Section      136  QtMultimediaKit.in(t._ZN5QListI13QMediaContentEpLERKS1_)
    t._ZN5QListI13QMediaContentEpLERKS1_.clean 0x0002833c   Section        8  QtMultimediaKit.in(t._ZN5QListI13QMediaContentEpLERKS1_.clean)
    t._ZN5QListI14QMediaResourceE13detach_helperEi 0x00028344   Section      152  QtMultimediaKit.in(t._ZN5QListI14QMediaResourceE13detach_helperEi)
    t._ZN5QListI14QMediaResourceE13detach_helperEi.clean 0x000283dc   Section       18  QtMultimediaKit.in(t._ZN5QListI14QMediaResourceE13detach_helperEi.clean)
    t._ZN5QListI14QMediaResourceE13detach_helperEv 0x000283ee   Section       12  QtMultimediaKit.in(t._ZN5QListI14QMediaResourceE13detach_helperEv)
    t._ZN5QListI14QMediaResourceE13node_destructEPNS1_4NodeES3_ 0x000283fa   Section       30  QtMultimediaKit.in(t._ZN5QListI14QMediaResourceE13node_destructEPNS1_4NodeES3_)
    t._ZN5QListI14QMediaResourceE14node_constructEPNS1_4NodeERKS0_ 0x00028418   Section       32  QtMultimediaKit.in(t._ZN5QListI14QMediaResourceE14node_constructEPNS1_4NodeERKS0_)
    t._ZN5QListI14QMediaResourceE14node_constructEPNS1_4NodeERKS0_.clean 0x00028438   Section       10  QtMultimediaKit.in(t._ZN5QListI14QMediaResourceE14node_constructEPNS1_4NodeERKS0_.clean)
    t._ZN5QListI14QMediaResourceE18detach_helper_growEii 0x00028442   Section      180  QtMultimediaKit.in(t._ZN5QListI14QMediaResourceE18detach_helper_growEii)
    t._ZN5QListI14QMediaResourceE18detach_helper_growEii.clean 0x000284f6   Section        8  QtMultimediaKit.in(t._ZN5QListI14QMediaResourceE18detach_helper_growEii.clean)
    t._ZN5QListI14QMediaResourceE4freeEPN9QListData4DataE 0x000284fe   Section       38  QtMultimediaKit.in(t._ZN5QListI14QMediaResourceE4freeEPN9QListData4DataE)
    t._ZN5QListI14QMediaResourceE5beginEv    0x00028524   Section       34  QtMultimediaKit.in(t._ZN5QListI14QMediaResourceE5beginEv)
    t._ZN5QListI14QMediaResourceE6appendERKS0_ 0x00028548   Section       96  QtMultimediaKit.in(t._ZN5QListI14QMediaResourceE6appendERKS0_)
    t._ZN5QListI14QMediaResourceE6appendERKS0_.clean 0x000285a8   Section        8  QtMultimediaKit.in(t._ZN5QListI14QMediaResourceE6appendERKS0_.clean)
    t._ZN5QListI14QMediaResourceE9node_copyEPNS1_4NodeES3_S3_ 0x000285b0   Section       80  QtMultimediaKit.in(t._ZN5QListI14QMediaResourceE9node_copyEPNS1_4NodeES3_S3_)
    t._ZN5QListI14QMediaResourceE9node_copyEPNS1_4NodeES3_S3_.clean 0x00028600   Section       18  QtMultimediaKit.in(t._ZN5QListI14QMediaResourceE9node_copyEPNS1_4NodeES3_S3_.clean)
    t._ZN5QListI14QMediaResourceEC1ERKS1_    0x00028612   Section       30  QtMultimediaKit.in(t._ZN5QListI14QMediaResourceEC1ERKS1_)
    t._ZN5QListI14QMediaResourceEC1Ev        0x00028630   Section       20  QtMultimediaKit.in(t._ZN5QListI14QMediaResourceEC1Ev)
    t._ZN5QListI14QMediaResourceED1Ev        0x00028644   Section       30  QtMultimediaKit.in(t._ZN5QListI14QMediaResourceED1Ev)
    t._ZN5QListI14QMediaResourceEaSERKS1_    0x00028662   Section       54  QtMultimediaKit.in(t._ZN5QListI14QMediaResourceEaSERKS1_)
    t._ZN5QListI16QAudioDeviceInfoE13node_destructEPNS1_4NodeES3_ 0x00028698   Section       30  QtMultimediaKit.in(t._ZN5QListI16QAudioDeviceInfoE13node_destructEPNS1_4NodeES3_)
    t._ZN5QListI16QAudioDeviceInfoE14node_constructEPNS1_4NodeERKS0_ 0x000286b6   Section       32  QtMultimediaKit.in(t._ZN5QListI16QAudioDeviceInfoE14node_constructEPNS1_4NodeERKS0_)
    t._ZN5QListI16QAudioDeviceInfoE14node_constructEPNS1_4NodeERKS0_.clean 0x000286d6   Section       10  QtMultimediaKit.in(t._ZN5QListI16QAudioDeviceInfoE14node_constructEPNS1_4NodeERKS0_.clean)
    t._ZN5QListI16QAudioDeviceInfoE18detach_helper_growEii 0x000286e0   Section      180  QtMultimediaKit.in(t._ZN5QListI16QAudioDeviceInfoE18detach_helper_growEii)
    t._ZN5QListI16QAudioDeviceInfoE18detach_helper_growEii.clean 0x00028794   Section        8  QtMultimediaKit.in(t._ZN5QListI16QAudioDeviceInfoE18detach_helper_growEii.clean)
    t._ZN5QListI16QAudioDeviceInfoE4freeEPN9QListData4DataE 0x0002879c   Section       38  QtMultimediaKit.in(t._ZN5QListI16QAudioDeviceInfoE4freeEPN9QListData4DataE)
    t._ZN5QListI16QAudioDeviceInfoE6appendERKS0_ 0x000287c4   Section       96  QtMultimediaKit.in(t._ZN5QListI16QAudioDeviceInfoE6appendERKS0_)
    t._ZN5QListI16QAudioDeviceInfoE6appendERKS0_.clean 0x00028824   Section        8  QtMultimediaKit.in(t._ZN5QListI16QAudioDeviceInfoE6appendERKS0_.clean)
    t._ZN5QListI16QAudioDeviceInfoE9node_copyEPNS1_4NodeES3_S3_ 0x0002882c   Section       80  QtMultimediaKit.in(t._ZN5QListI16QAudioDeviceInfoE9node_copyEPNS1_4NodeES3_S3_)
    t._ZN5QListI16QAudioDeviceInfoE9node_copyEPNS1_4NodeES3_S3_.clean 0x0002887c   Section       18  QtMultimediaKit.in(t._ZN5QListI16QAudioDeviceInfoE9node_copyEPNS1_4NodeES3_S3_.clean)
    t._ZN5QListI16QAudioDeviceInfoED1Ev      0x0002888e   Section       30  QtMultimediaKit.in(t._ZN5QListI16QAudioDeviceInfoED1Ev)
    t._ZN5QListI16QCameraFocusZoneE13detach_helperEi 0x000288ac   Section      154  QtMultimediaKit.in(t._ZN5QListI16QCameraFocusZoneE13detach_helperEi)
    t._ZN5QListI16QCameraFocusZoneE13detach_helperEi.clean 0x00028946   Section       18  QtMultimediaKit.in(t._ZN5QListI16QCameraFocusZoneE13detach_helperEi.clean)
    t._ZN5QListI16QCameraFocusZoneE13detach_helperEv 0x00028958   Section       12  QtMultimediaKit.in(t._ZN5QListI16QCameraFocusZoneE13detach_helperEv)
    t._ZN5QListI16QCameraFocusZoneE4freeEPN9QListData4DataE 0x00028964   Section       56  QtMultimediaKit.in(t._ZN5QListI16QCameraFocusZoneE4freeEPN9QListData4DataE)
    t._ZN5QListI16QCameraFocusZoneED1Ev      0x0002899c   Section       30  QtMultimediaKit.in(t._ZN5QListI16QCameraFocusZoneED1Ev)
    t._ZN5QListI18QMediaTimeIntervalE13detach_helperEv 0x000289ba   Section       88  QtMultimediaKit.in(t._ZN5QListI18QMediaTimeIntervalE13detach_helperEv)
    t._ZN5QListI18QMediaTimeIntervalE13detach_helperEv.clean 0x00028a12   Section        8  QtMultimediaKit.in(t._ZN5QListI18QMediaTimeIntervalE13detach_helperEv.clean)
    t._ZN5QListI18QMediaTimeIntervalE13node_destructEPNS1_4NodeES3_ 0x00028a1a   Section       22  QtMultimediaKit.in(t._ZN5QListI18QMediaTimeIntervalE13node_destructEPNS1_4NodeES3_)
    t._ZN5QListI18QMediaTimeIntervalE14node_constructEPNS1_4NodeERKS0_ 0x00028a30   Section       32  QtMultimediaKit.in(t._ZN5QListI18QMediaTimeIntervalE14node_constructEPNS1_4NodeERKS0_)
    t._ZN5QListI18QMediaTimeIntervalE14node_constructEPNS1_4NodeERKS0_.clean 0x00028a50   Section       10  QtMultimediaKit.in(t._ZN5QListI18QMediaTimeIntervalE14node_constructEPNS1_4NodeERKS0_.clean)
    t._ZN5QListI18QMediaTimeIntervalE18detach_helper_growEii 0x00028a5a   Section      180  QtMultimediaKit.in(t._ZN5QListI18QMediaTimeIntervalE18detach_helper_growEii)
    t._ZN5QListI18QMediaTimeIntervalE18detach_helper_growEii.clean 0x00028b0e   Section        8  QtMultimediaKit.in(t._ZN5QListI18QMediaTimeIntervalE18detach_helper_growEii.clean)
    t._ZN5QListI18QMediaTimeIntervalE4freeEPN9QListData4DataE 0x00028b16   Section       38  QtMultimediaKit.in(t._ZN5QListI18QMediaTimeIntervalE4freeEPN9QListData4DataE)
    t._ZN5QListI18QMediaTimeIntervalE6appendERKS0_ 0x00028b3c   Section       96  QtMultimediaKit.in(t._ZN5QListI18QMediaTimeIntervalE6appendERKS0_)
    t._ZN5QListI18QMediaTimeIntervalE6appendERKS0_.clean 0x00028b9c   Section        8  QtMultimediaKit.in(t._ZN5QListI18QMediaTimeIntervalE6appendERKS0_.clean)
    t._ZN5QListI18QMediaTimeIntervalE6detachEv 0x00028ba4   Section       24  QtMultimediaKit.in(t._ZN5QListI18QMediaTimeIntervalE6detachEv)
    t._ZN5QListI18QMediaTimeIntervalE8removeAtEi 0x00028bbc   Section       50  QtMultimediaKit.in(t._ZN5QListI18QMediaTimeIntervalE8removeAtEi)
    t._ZN5QListI18QMediaTimeIntervalE9node_copyEPNS1_4NodeES3_S3_ 0x00028bee   Section       72  QtMultimediaKit.in(t._ZN5QListI18QMediaTimeIntervalE9node_copyEPNS1_4NodeES3_S3_)
    t._ZN5QListI18QMediaTimeIntervalE9node_copyEPNS1_4NodeES3_S3_.clean 0x00028c36   Section       18  QtMultimediaKit.in(t._ZN5QListI18QMediaTimeIntervalE9node_copyEPNS1_4NodeES3_S3_.clean)
    t._ZN5QListI18QMediaTimeIntervalEC1ERKS1_ 0x00028c48   Section       30  QtMultimediaKit.in(t._ZN5QListI18QMediaTimeIntervalEC1ERKS1_)
    t._ZN5QListI18QMediaTimeIntervalEC1Ev    0x00028c68   Section       20  QtMultimediaKit.in(t._ZN5QListI18QMediaTimeIntervalEC1Ev)
    t._ZN5QListI18QMediaTimeIntervalED1Ev    0x00028c7c   Section       30  QtMultimediaKit.in(t._ZN5QListI18QMediaTimeIntervalED1Ev)
    t._ZN5QListI18QMediaTimeIntervalEixEi    0x00028c9a   Section       22  QtMultimediaKit.in(t._ZN5QListI18QMediaTimeIntervalEixEi)
    t._ZN5QListI5QSizeE13detach_helperEi     0x00028cb0   Section      112  QtMultimediaKit.in(t._ZN5QListI5QSizeE13detach_helperEi)
    t._ZN5QListI5QSizeE13detach_helperEi.clean 0x00028d20   Section        8  QtMultimediaKit.in(t._ZN5QListI5QSizeE13detach_helperEi.clean)
    t._ZN5QListI5QSizeE4freeEPN9QListData4DataE 0x00028d28   Section       48  QtMultimediaKit.in(t._ZN5QListI5QSizeE4freeEPN9QListData4DataE)
    t._ZN5QListI5QSizeED1Ev                  0x00028d58   Section       30  QtMultimediaKit.in(t._ZN5QListI5QSizeED1Ev)
    t._ZN5QListI7QStringE13detach_helperEi   0x00028d76   Section       86  QtMultimediaKit.in(t._ZN5QListI7QStringE13detach_helperEi)
    t._ZN5QListI7QStringE13detach_helperEi.clean 0x00028dcc   Section        8  QtMultimediaKit.in(t._ZN5QListI7QStringE13detach_helperEi.clean)
    t._ZN5QListI7QStringE13detach_helperEv   0x00028dd4   Section       12  QtMultimediaKit.in(t._ZN5QListI7QStringE13detach_helperEv)
    t._ZN5QListI7QStringE14node_constructEPNS1_4NodeERKS0_ 0x00028de0   Section       26  QtMultimediaKit.in(t._ZN5QListI7QStringE14node_constructEPNS1_4NodeERKS0_)
    t._ZN5QListI7QStringE14node_constructEPNS1_4NodeERKS0_.clean 0x00028dfa   Section       12  QtMultimediaKit.in(t._ZN5QListI7QStringE14node_constructEPNS1_4NodeERKS0_.clean)
    t._ZN5QListI7QStringE18detach_helper_growEii 0x00028e06   Section      186  QtMultimediaKit.in(t._ZN5QListI7QStringE18detach_helper_growEii)
    t._ZN5QListI7QStringE18detach_helper_growEii.clean 0x00028ec0   Section        8  QtMultimediaKit.in(t._ZN5QListI7QStringE18detach_helper_growEii.clean)
    t._ZN5QListI7QStringE4freeEPN9QListData4DataE 0x00028ec8   Section       48  QtMultimediaKit.in(t._ZN5QListI7QStringE4freeEPN9QListData4DataE)
    t._ZN5QListI7QStringE6appendERKS0_       0x00028ef8   Section       96  QtMultimediaKit.in(t._ZN5QListI7QStringE6appendERKS0_)
    t._ZN5QListI7QStringE6appendERKS0_.clean 0x00028f58   Section        8  QtMultimediaKit.in(t._ZN5QListI7QStringE6appendERKS0_.clean)
    t._ZN5QListI7QStringE9node_copyEPNS1_4NodeES3_S3_ 0x00028f60   Section       70  QtMultimediaKit.in(t._ZN5QListI7QStringE9node_copyEPNS1_4NodeES3_S3_)
    t._ZN5QListI7QStringE9node_copyEPNS1_4NodeES3_S3_.clean 0x00028fa6   Section       22  QtMultimediaKit.in(t._ZN5QListI7QStringE9node_copyEPNS1_4NodeES3_S3_.clean)
    t._ZN5QListI7QStringE9removeAllERKS0_    0x00028fbc   Section      112  QtMultimediaKit.in(t._ZN5QListI7QStringE9removeAllERKS0_)
    t._ZN5QListI7QStringE9removeAllERKS0_.clean 0x0002902c   Section       10  QtMultimediaKit.in(t._ZN5QListI7QStringE9removeAllERKS0_.clean)
    t._ZN5QListI7QStringEC1ERKS1_            0x00029036   Section       30  QtMultimediaKit.in(t._ZN5QListI7QStringEC1ERKS1_)
    t._ZN5QListI7QStringEC1Ev                0x00029054   Section       20  QtMultimediaKit.in(t._ZN5QListI7QStringEC1Ev)
    t._ZN5QListI7QStringED1Ev                0x00029068   Section       30  QtMultimediaKit.in(t._ZN5QListI7QStringED1Ev)
    t._ZN5QListI7QStringEaSERKS1_            0x00029086   Section       54  QtMultimediaKit.in(t._ZN5QListI7QStringEaSERKS1_)
    t._ZN5QListI7QStringEpLERKS1_            0x000290bc   Section      136  QtMultimediaKit.in(t._ZN5QListI7QStringEpLERKS1_)
    t._ZN5QListI7QStringEpLERKS1_.clean      0x00029144   Section        8  QtMultimediaKit.in(t._ZN5QListI7QStringEpLERKS1_.clean)
    t._ZN5QListI8QPointerI7QObjectEE13detach_helperEv 0x0002914c   Section       88  QtMultimediaKit.in(t._ZN5QListI8QPointerI7QObjectEE13detach_helperEv)
    t._ZN5QListI8QPointerI7QObjectEE13detach_helperEv.clean 0x000291a4   Section        8  QtMultimediaKit.in(t._ZN5QListI8QPointerI7QObjectEE13detach_helperEv.clean)
    t._ZN5QListI8QPointerI7QObjectEE13node_destructEPNS3_4NodeES5_ 0x000291ac   Section       30  QtMultimediaKit.in(t._ZN5QListI8QPointerI7QObjectEE13node_destructEPNS3_4NodeES5_)
    t._ZN5QListI8QPointerI7QObjectEE14node_constructEPNS3_4NodeERKS2_ 0x000291ca   Section       32  QtMultimediaKit.in(t._ZN5QListI8QPointerI7QObjectEE14node_constructEPNS3_4NodeERKS2_)
    t._ZN5QListI8QPointerI7QObjectEE14node_constructEPNS3_4NodeERKS2_.clean 0x000291ea   Section       10  QtMultimediaKit.in(t._ZN5QListI8QPointerI7QObjectEE14node_constructEPNS3_4NodeERKS2_.clean)
    t._ZN5QListI8QPointerI7QObjectEE18detach_helper_growEii 0x000291f4   Section      180  QtMultimediaKit.in(t._ZN5QListI8QPointerI7QObjectEE18detach_helper_growEii)
    t._ZN5QListI8QPointerI7QObjectEE18detach_helper_growEii.clean 0x000292a8   Section        8  QtMultimediaKit.in(t._ZN5QListI8QPointerI7QObjectEE18detach_helper_growEii.clean)
    t._ZN5QListI8QPointerI7QObjectEE4freeEPN9QListData4DataE 0x000292b0   Section       38  QtMultimediaKit.in(t._ZN5QListI8QPointerI7QObjectEE4freeEPN9QListData4DataE)
    t._ZN5QListI8QPointerI7QObjectEE6appendERKS2_ 0x000292d8   Section       96  QtMultimediaKit.in(t._ZN5QListI8QPointerI7QObjectEE6appendERKS2_)
    t._ZN5QListI8QPointerI7QObjectEE6appendERKS2_.clean 0x00029338   Section        8  QtMultimediaKit.in(t._ZN5QListI8QPointerI7QObjectEE6appendERKS2_.clean)
    t._ZN5QListI8QPointerI7QObjectEE9node_copyEPNS3_4NodeES5_S5_ 0x00029340   Section       80  QtMultimediaKit.in(t._ZN5QListI8QPointerI7QObjectEE9node_copyEPNS3_4NodeES5_S5_)
    t._ZN5QListI8QPointerI7QObjectEE9node_copyEPNS3_4NodeES5_S5_.clean 0x00029390   Section       18  QtMultimediaKit.in(t._ZN5QListI8QPointerI7QObjectEE9node_copyEPNS3_4NodeES5_S5_.clean)
    t._ZN5QListI8QPointerI7QObjectEEC1Ev     0x000293a4   Section       20  QtMultimediaKit.in(t._ZN5QListI8QPointerI7QObjectEEC1Ev)
    t._ZN5QListI8QPointerI7QObjectEED1Ev     0x000293b8   Section       30  QtMultimediaKit.in(t._ZN5QListI8QPointerI7QObjectEED1Ev)
    t._ZN5QListI8QVariantE13detach_helperEi  0x000293d6   Section      152  QtMultimediaKit.in(t._ZN5QListI8QVariantE13detach_helperEi)
    t._ZN5QListI8QVariantE13detach_helperEi.clean 0x0002946e   Section       18  QtMultimediaKit.in(t._ZN5QListI8QVariantE13detach_helperEi.clean)
    t._ZN5QListI8QVariantE13detach_helperEv  0x00029480   Section       88  QtMultimediaKit.in(t._ZN5QListI8QVariantE13detach_helperEv)
    t._ZN5QListI8QVariantE13detach_helperEv.clean 0x000294d8   Section        8  QtMultimediaKit.in(t._ZN5QListI8QVariantE13detach_helperEv.clean)
    t._ZN5QListI8QVariantE13node_destructEPNS1_4NodeE 0x000294e0   Section       18  QtMultimediaKit.in(t._ZN5QListI8QVariantE13node_destructEPNS1_4NodeE)
    t._ZN5QListI8QVariantE13node_destructEPNS1_4NodeES3_ 0x000294f2   Section       30  QtMultimediaKit.in(t._ZN5QListI8QVariantE13node_destructEPNS1_4NodeES3_)
    t._ZN5QListI8QVariantE14node_constructEPNS1_4NodeERKS0_ 0x00029510   Section       32  QtMultimediaKit.in(t._ZN5QListI8QVariantE14node_constructEPNS1_4NodeERKS0_)
    t._ZN5QListI8QVariantE14node_constructEPNS1_4NodeERKS0_.clean 0x00029530   Section       10  QtMultimediaKit.in(t._ZN5QListI8QVariantE14node_constructEPNS1_4NodeERKS0_.clean)
    t._ZN5QListI8QVariantE18detach_helper_growEii 0x0002953a   Section      180  QtMultimediaKit.in(t._ZN5QListI8QVariantE18detach_helper_growEii)
    t._ZN5QListI8QVariantE18detach_helper_growEii.clean 0x000295ee   Section        8  QtMultimediaKit.in(t._ZN5QListI8QVariantE18detach_helper_growEii.clean)
    t._ZN5QListI8QVariantE4freeEPN9QListData4DataE 0x000295f6   Section       38  QtMultimediaKit.in(t._ZN5QListI8QVariantE4freeEPN9QListData4DataE)
    t._ZN5QListI8QVariantE6appendERKS0_      0x0002961c   Section       96  QtMultimediaKit.in(t._ZN5QListI8QVariantE6appendERKS0_)
    t._ZN5QListI8QVariantE6appendERKS0_.clean 0x0002967c   Section        8  QtMultimediaKit.in(t._ZN5QListI8QVariantE6appendERKS0_.clean)
    t._ZN5QListI8QVariantE6detachEv          0x00029684   Section       24  QtMultimediaKit.in(t._ZN5QListI8QVariantE6detachEv)
    t._ZN5QListI8QVariantE9node_copyEPNS1_4NodeES3_S3_ 0x0002969c   Section       80  QtMultimediaKit.in(t._ZN5QListI8QVariantE9node_copyEPNS1_4NodeES3_S3_)
    t._ZN5QListI8QVariantE9node_copyEPNS1_4NodeES3_S3_.clean 0x000296ec   Section       18  QtMultimediaKit.in(t._ZN5QListI8QVariantE9node_copyEPNS1_4NodeES3_S3_.clean)
    t._ZN5QListI8QVariantEC1Ev               0x00029700   Section       20  QtMultimediaKit.in(t._ZN5QListI8QVariantEC1Ev)
    t._ZN5QListI8QVariantED1Ev               0x00029714   Section       30  QtMultimediaKit.in(t._ZN5QListI8QVariantED1Ev)
    t._ZN5QListIN11QVideoFrame11PixelFormatEE13detach_helperEi 0x00029732   Section      108  QtMultimediaKit.in(t._ZN5QListIN11QVideoFrame11PixelFormatEE13detach_helperEi)
    t._ZN5QListIN11QVideoFrame11PixelFormatEE13detach_helperEi.clean 0x0002979e   Section        8  QtMultimediaKit.in(t._ZN5QListIN11QVideoFrame11PixelFormatEE13detach_helperEi.clean)
    t._ZN5QListIN11QVideoFrame11PixelFormatEE13detach_helperEv 0x000297a6   Section       88  QtMultimediaKit.in(t._ZN5QListIN11QVideoFrame11PixelFormatEE13detach_helperEv)
    t._ZN5QListIN11QVideoFrame11PixelFormatEE13detach_helperEv.clean 0x000297fe   Section        8  QtMultimediaKit.in(t._ZN5QListIN11QVideoFrame11PixelFormatEE13detach_helperEv.clean)
    t._ZN5QListIN11QVideoFrame11PixelFormatEE13node_destructEPNS2_4NodeES4_ 0x00029806   Section       22  QtMultimediaKit.in(t._ZN5QListIN11QVideoFrame11PixelFormatEE13node_destructEPNS2_4NodeES4_)
    t._ZN5QListIN11QVideoFrame11PixelFormatEE14node_constructEPNS2_4NodeERKS1_ 0x0002981c   Section       28  QtMultimediaKit.in(t._ZN5QListIN11QVideoFrame11PixelFormatEE14node_constructEPNS2_4NodeERKS1_)
    t._ZN5QListIN11QVideoFrame11PixelFormatEE18detach_helper_growEii 0x00029838   Section      180  QtMultimediaKit.in(t._ZN5QListIN11QVideoFrame11PixelFormatEE18detach_helper_growEii)
    t._ZN5QListIN11QVideoFrame11PixelFormatEE18detach_helper_growEii.clean 0x000298ec   Section        8  QtMultimediaKit.in(t._ZN5QListIN11QVideoFrame11PixelFormatEE18detach_helper_growEii.clean)
    t._ZN5QListIN11QVideoFrame11PixelFormatEE4freeEPN9QListData4DataE 0x000298f4   Section       38  QtMultimediaKit.in(t._ZN5QListIN11QVideoFrame11PixelFormatEE4freeEPN9QListData4DataE)
    t._ZN5QListIN11QVideoFrame11PixelFormatEE6appendERKS1_ 0x0002991c   Section       92  QtMultimediaKit.in(t._ZN5QListIN11QVideoFrame11PixelFormatEE6appendERKS1_)
    t._ZN5QListIN11QVideoFrame11PixelFormatEE6appendERKS1_.clean 0x00029978   Section        8  QtMultimediaKit.in(t._ZN5QListIN11QVideoFrame11PixelFormatEE6appendERKS1_.clean)
    t._ZN5QListIN11QVideoFrame11PixelFormatEE9node_copyEPNS2_4NodeES4_S4_ 0x00029980   Section       40  QtMultimediaKit.in(t._ZN5QListIN11QVideoFrame11PixelFormatEE9node_copyEPNS2_4NodeES4_S4_)
    t._ZN5QListIN11QVideoFrame11PixelFormatEEC1Ev 0x000299a8   Section       20  QtMultimediaKit.in(t._ZN5QListIN11QVideoFrame11PixelFormatEEC1Ev)
    t._ZN5QListIN11QVideoFrame11PixelFormatEED1Ev 0x000299bc   Section       30  QtMultimediaKit.in(t._ZN5QListIN11QVideoFrame11PixelFormatEED1Ev)
    t._ZN5QListIN11QVideoFrame11PixelFormatEElsERKS1_ 0x000299da   Section       12  QtMultimediaKit.in(t._ZN5QListIN11QVideoFrame11PixelFormatEElsERKS1_)
    t._ZN5QListIN12QAudioFormat10SampleTypeEE13detach_helperEv 0x000299e6   Section       88  QtMultimediaKit.in(t._ZN5QListIN12QAudioFormat10SampleTypeEE13detach_helperEv)
    t._ZN5QListIN12QAudioFormat10SampleTypeEE13detach_helperEv.clean 0x00029a3e   Section        8  QtMultimediaKit.in(t._ZN5QListIN12QAudioFormat10SampleTypeEE13detach_helperEv.clean)
    t._ZN5QListIN12QAudioFormat10SampleTypeEE13node_destructEPNS2_4NodeES4_ 0x00029a46   Section       22  QtMultimediaKit.in(t._ZN5QListIN12QAudioFormat10SampleTypeEE13node_destructEPNS2_4NodeES4_)
    t._ZN5QListIN12QAudioFormat10SampleTypeEE14node_constructEPNS2_4NodeERKS1_ 0x00029a5c   Section       28  QtMultimediaKit.in(t._ZN5QListIN12QAudioFormat10SampleTypeEE14node_constructEPNS2_4NodeERKS1_)
    t._ZN5QListIN12QAudioFormat10SampleTypeEE18detach_helper_growEii 0x00029a78   Section      180  QtMultimediaKit.in(t._ZN5QListIN12QAudioFormat10SampleTypeEE18detach_helper_growEii)
    t._ZN5QListIN12QAudioFormat10SampleTypeEE18detach_helper_growEii.clean 0x00029b2c   Section        8  QtMultimediaKit.in(t._ZN5QListIN12QAudioFormat10SampleTypeEE18detach_helper_growEii.clean)
    t._ZN5QListIN12QAudioFormat10SampleTypeEE4freeEPN9QListData4DataE 0x00029b34   Section       44  QtMultimediaKit.in(t._ZN5QListIN12QAudioFormat10SampleTypeEE4freeEPN9QListData4DataE)
    t._ZN5QListIN12QAudioFormat10SampleTypeEE5clearEv 0x00029b60   Section       64  QtMultimediaKit.in(t._ZN5QListIN12QAudioFormat10SampleTypeEE5clearEv)
    t._ZN5QListIN12QAudioFormat10SampleTypeEE5clearEv.clean 0x00029ba0   Section       10  QtMultimediaKit.in(t._ZN5QListIN12QAudioFormat10SampleTypeEE5clearEv.clean)
    t._ZN5QListIN12QAudioFormat10SampleTypeEE6appendERKS1_ 0x00029bac   Section       96  QtMultimediaKit.in(t._ZN5QListIN12QAudioFormat10SampleTypeEE6appendERKS1_)
    t._ZN5QListIN12QAudioFormat10SampleTypeEE6appendERKS1_.clean 0x00029c0c   Section        8  QtMultimediaKit.in(t._ZN5QListIN12QAudioFormat10SampleTypeEE6appendERKS1_.clean)
    t._ZN5QListIN12QAudioFormat10SampleTypeEE9node_copyEPNS2_4NodeES4_S4_ 0x00029c14   Section       40  QtMultimediaKit.in(t._ZN5QListIN12QAudioFormat10SampleTypeEE9node_copyEPNS2_4NodeES4_S4_)
    t._ZN5QListIN12QAudioFormat10SampleTypeEEC1ERKS2_ 0x00029c3c   Section       30  QtMultimediaKit.in(t._ZN5QListIN12QAudioFormat10SampleTypeEEC1ERKS2_)
    t._ZN5QListIN12QAudioFormat10SampleTypeEEC1Ev 0x00029c5c   Section       20  QtMultimediaKit.in(t._ZN5QListIN12QAudioFormat10SampleTypeEEC1Ev)
    t._ZN5QListIN12QAudioFormat10SampleTypeEED1Ev 0x00029c70   Section       30  QtMultimediaKit.in(t._ZN5QListIN12QAudioFormat10SampleTypeEED1Ev)
    t._ZN5QListIN12QAudioFormat6EndianEE13detach_helperEv 0x00029c8e   Section       88  QtMultimediaKit.in(t._ZN5QListIN12QAudioFormat6EndianEE13detach_helperEv)
    t._ZN5QListIN12QAudioFormat6EndianEE13detach_helperEv.clean 0x00029ce6   Section        8  QtMultimediaKit.in(t._ZN5QListIN12QAudioFormat6EndianEE13detach_helperEv.clean)
    t._ZN5QListIN12QAudioFormat6EndianEE13node_destructEPNS2_4NodeES4_ 0x00029cee   Section       22  QtMultimediaKit.in(t._ZN5QListIN12QAudioFormat6EndianEE13node_destructEPNS2_4NodeES4_)
    t._ZN5QListIN12QAudioFormat6EndianEE14node_constructEPNS2_4NodeERKS1_ 0x00029d04   Section       28  QtMultimediaKit.in(t._ZN5QListIN12QAudioFormat6EndianEE14node_constructEPNS2_4NodeERKS1_)
    t._ZN5QListIN12QAudioFormat6EndianEE18detach_helper_growEii 0x00029d20   Section      180  QtMultimediaKit.in(t._ZN5QListIN12QAudioFormat6EndianEE18detach_helper_growEii)
    t._ZN5QListIN12QAudioFormat6EndianEE18detach_helper_growEii.clean 0x00029dd4   Section        8  QtMultimediaKit.in(t._ZN5QListIN12QAudioFormat6EndianEE18detach_helper_growEii.clean)
    t._ZN5QListIN12QAudioFormat6EndianEE4freeEPN9QListData4DataE 0x00029ddc   Section       44  QtMultimediaKit.in(t._ZN5QListIN12QAudioFormat6EndianEE4freeEPN9QListData4DataE)
    t._ZN5QListIN12QAudioFormat6EndianEE5clearEv 0x00029e08   Section       64  QtMultimediaKit.in(t._ZN5QListIN12QAudioFormat6EndianEE5clearEv)
    t._ZN5QListIN12QAudioFormat6EndianEE5clearEv.clean 0x00029e48   Section       10  QtMultimediaKit.in(t._ZN5QListIN12QAudioFormat6EndianEE5clearEv.clean)
    t._ZN5QListIN12QAudioFormat6EndianEE6appendERKS1_ 0x00029e54   Section       96  QtMultimediaKit.in(t._ZN5QListIN12QAudioFormat6EndianEE6appendERKS1_)
    t._ZN5QListIN12QAudioFormat6EndianEE6appendERKS1_.clean 0x00029eb4   Section        8  QtMultimediaKit.in(t._ZN5QListIN12QAudioFormat6EndianEE6appendERKS1_.clean)
    t._ZN5QListIN12QAudioFormat6EndianEE9node_copyEPNS2_4NodeES4_S4_ 0x00029ebc   Section       40  QtMultimediaKit.in(t._ZN5QListIN12QAudioFormat6EndianEE9node_copyEPNS2_4NodeES4_S4_)
    t._ZN5QListIN12QAudioFormat6EndianEEC1ERKS2_ 0x00029ee4   Section       30  QtMultimediaKit.in(t._ZN5QListIN12QAudioFormat6EndianEEC1ERKS2_)
    t._ZN5QListIN12QAudioFormat6EndianEEC1Ev 0x00029f04   Section       20  QtMultimediaKit.in(t._ZN5QListIN12QAudioFormat6EndianEEC1Ev)
    t._ZN5QListIN12QAudioFormat6EndianEED1Ev 0x00029f18   Section       30  QtMultimediaKit.in(t._ZN5QListIN12QAudioFormat6EndianEED1Ev)
    t._ZN5QListIN15QtMultimediaKit8MetaDataEE13detach_helperEi 0x00029f36   Section      108  QtMultimediaKit.in(t._ZN5QListIN15QtMultimediaKit8MetaDataEE13detach_helperEi)
    t._ZN5QListIN15QtMultimediaKit8MetaDataEE13detach_helperEi.clean 0x00029fa2   Section        8  QtMultimediaKit.in(t._ZN5QListIN15QtMultimediaKit8MetaDataEE13detach_helperEi.clean)
    t._ZN5QListIN15QtMultimediaKit8MetaDataEE4freeEPN9QListData4DataE 0x00029faa   Section       48  QtMultimediaKit.in(t._ZN5QListIN15QtMultimediaKit8MetaDataEE4freeEPN9QListData4DataE)
    t._ZN5QListIN15QtMultimediaKit8MetaDataEED1Ev 0x00029fda   Section       30  QtMultimediaKit.in(t._ZN5QListIN15QtMultimediaKit8MetaDataEED1Ev)
    t._ZN5QListIN7QCamera10LockStatusEE13detach_helperEv 0x00029ff8   Section       88  QtMultimediaKit.in(t._ZN5QListIN7QCamera10LockStatusEE13detach_helperEv)
    t._ZN5QListIN7QCamera10LockStatusEE13detach_helperEv.clean 0x0002a050   Section        8  QtMultimediaKit.in(t._ZN5QListIN7QCamera10LockStatusEE13detach_helperEv.clean)
    t._ZN5QListIN7QCamera10LockStatusEE13node_destructEPNS2_4NodeES4_ 0x0002a058   Section       22  QtMultimediaKit.in(t._ZN5QListIN7QCamera10LockStatusEE13node_destructEPNS2_4NodeES4_)
    t._ZN5QListIN7QCamera10LockStatusEE14node_constructEPNS2_4NodeERKS1_ 0x0002a06e   Section       28  QtMultimediaKit.in(t._ZN5QListIN7QCamera10LockStatusEE14node_constructEPNS2_4NodeERKS1_)
    t._ZN5QListIN7QCamera10LockStatusEE18detach_helper_growEii 0x0002a08a   Section      180  QtMultimediaKit.in(t._ZN5QListIN7QCamera10LockStatusEE18detach_helper_growEii)
    t._ZN5QListIN7QCamera10LockStatusEE18detach_helper_growEii.clean 0x0002a13e   Section        8  QtMultimediaKit.in(t._ZN5QListIN7QCamera10LockStatusEE18detach_helper_growEii.clean)
    t._ZN5QListIN7QCamera10LockStatusEE4freeEPN9QListData4DataE 0x0002a146   Section       38  QtMultimediaKit.in(t._ZN5QListIN7QCamera10LockStatusEE4freeEPN9QListData4DataE)
    t._ZN5QListIN7QCamera10LockStatusEE6appendERKS1_ 0x0002a16c   Section       96  QtMultimediaKit.in(t._ZN5QListIN7QCamera10LockStatusEE6appendERKS1_)
    t._ZN5QListIN7QCamera10LockStatusEE6appendERKS1_.clean 0x0002a1cc   Section        8  QtMultimediaKit.in(t._ZN5QListIN7QCamera10LockStatusEE6appendERKS1_.clean)
    t._ZN5QListIN7QCamera10LockStatusEE9node_copyEPNS2_4NodeES4_S4_ 0x0002a1d4   Section       40  QtMultimediaKit.in(t._ZN5QListIN7QCamera10LockStatusEE9node_copyEPNS2_4NodeES4_S4_)
    t._ZN5QListIN7QCamera10LockStatusEED1Ev  0x0002a1fc   Section       30  QtMultimediaKit.in(t._ZN5QListIN7QCamera10LockStatusEED1Ev)
    t._ZN5QListIP13QGraphicsViewE13detach_helperEi 0x0002a21a   Section       98  QtMultimediaKit.in(t._ZN5QListIP13QGraphicsViewE13detach_helperEi)
    t._ZN5QListIP13QGraphicsViewE13detach_helperEi.clean 0x0002a27c   Section        8  QtMultimediaKit.in(t._ZN5QListIP13QGraphicsViewE13detach_helperEi.clean)
    t._ZN5QListIP13QGraphicsViewE4freeEPN9QListData4DataE 0x0002a284   Section       16  QtMultimediaKit.in(t._ZN5QListIP13QGraphicsViewE4freeEPN9QListData4DataE)
    t._ZN5QListIP13QGraphicsViewED1Ev        0x0002a294   Section       30  QtMultimediaKit.in(t._ZN5QListIP13QGraphicsViewED1Ev)
    t._ZN5QListIP13QPluginLoaderE18detach_helper_growEii 0x0002a2b2   Section      164  QtMultimediaKit.in(t._ZN5QListIP13QPluginLoaderE18detach_helper_growEii)
    t._ZN5QListIP13QPluginLoaderE18detach_helper_growEii.clean 0x0002a356   Section        8  QtMultimediaKit.in(t._ZN5QListIP13QPluginLoaderE18detach_helper_growEii.clean)
    t._ZN5QListIP13QPluginLoaderE4freeEPN9QListData4DataE 0x0002a35e   Section       16  QtMultimediaKit.in(t._ZN5QListIP13QPluginLoaderE4freeEPN9QListData4DataE)
    t._ZN5QListIP13QPluginLoaderE9node_copyEPNS2_4NodeES4_S4_ 0x0002a36e   Section       28  QtMultimediaKit.in(t._ZN5QListIP13QPluginLoaderE9node_copyEPNS2_4NodeES4_S4_)
    t._ZN5QListIP13QPluginLoaderED1Ev        0x0002a38a   Section       30  QtMultimediaKit.in(t._ZN5QListIP13QPluginLoaderED1Ev)
    t._ZN5QListIP14CMMFDataBufferE13detach_helperEv 0x0002a3a8   Section       88  QtMultimediaKit.in(t._ZN5QListIP14CMMFDataBufferE13detach_helperEv)
    t._ZN5QListIP14CMMFDataBufferE13detach_helperEv.clean 0x0002a400   Section        8  QtMultimediaKit.in(t._ZN5QListIP14CMMFDataBufferE13detach_helperEv.clean)
    t._ZN5QListIP14CMMFDataBufferE18detach_helper_growEii 0x0002a408   Section      164  QtMultimediaKit.in(t._ZN5QListIP14CMMFDataBufferE18detach_helper_growEii)
    t._ZN5QListIP14CMMFDataBufferE18detach_helper_growEii.clean 0x0002a4ac   Section        8  QtMultimediaKit.in(t._ZN5QListIP14CMMFDataBufferE18detach_helper_growEii.clean)
    t._ZN5QListIP14CMMFDataBufferE4freeEPN9QListData4DataE 0x0002a4b4   Section       16  QtMultimediaKit.in(t._ZN5QListIP14CMMFDataBufferE4freeEPN9QListData4DataE)
    t._ZN5QListIP14CMMFDataBufferE5beginEv   0x0002a4c4   Section       34  QtMultimediaKit.in(t._ZN5QListIP14CMMFDataBufferE5beginEv)
    t._ZN5QListIP14CMMFDataBufferE5clearEv   0x0002a4e6   Section       64  QtMultimediaKit.in(t._ZN5QListIP14CMMFDataBufferE5clearEv)
    t._ZN5QListIP14CMMFDataBufferE5clearEv.clean 0x0002a526   Section       10  QtMultimediaKit.in(t._ZN5QListIP14CMMFDataBufferE5clearEv.clean)
    t._ZN5QListIP14CMMFDataBufferE6appendERKS1_ 0x0002a530   Section       60  QtMultimediaKit.in(t._ZN5QListIP14CMMFDataBufferE6appendERKS1_)
    t._ZN5QListIP14CMMFDataBufferE6appendERKS1_.clean 0x0002a56c   Section       10  QtMultimediaKit.in(t._ZN5QListIP14CMMFDataBufferE6appendERKS1_.clean)
    t._ZN5QListIP14CMMFDataBufferE9node_copyEPNS2_4NodeES4_S4_ 0x0002a576   Section       28  QtMultimediaKit.in(t._ZN5QListIP14CMMFDataBufferE9node_copyEPNS2_4NodeES4_S4_)
    t._ZN5QListIP14CMMFDataBufferEC1Ev       0x0002a594   Section       20  QtMultimediaKit.in(t._ZN5QListIP14CMMFDataBufferEC1Ev)
    t._ZN5QListIP14CMMFDataBufferED1Ev       0x0002a5a8   Section       30  QtMultimediaKit.in(t._ZN5QListIP14CMMFDataBufferED1Ev)
    t._ZN5QListIP27QMediaServiceProviderPluginE13detach_helperEv 0x0002a5c6   Section       88  QtMultimediaKit.in(t._ZN5QListIP27QMediaServiceProviderPluginE13detach_helperEv)
    t._ZN5QListIP27QMediaServiceProviderPluginE13detach_helperEv.clean 0x0002a61e   Section        8  QtMultimediaKit.in(t._ZN5QListIP27QMediaServiceProviderPluginE13detach_helperEv.clean)
    t._ZN5QListIP27QMediaServiceProviderPluginE18detach_helper_growEii 0x0002a626   Section      164  QtMultimediaKit.in(t._ZN5QListIP27QMediaServiceProviderPluginE18detach_helper_growEii)
    t._ZN5QListIP27QMediaServiceProviderPluginE18detach_helper_growEii.clean 0x0002a6ca   Section        8  QtMultimediaKit.in(t._ZN5QListIP27QMediaServiceProviderPluginE18detach_helper_growEii.clean)
    t._ZN5QListIP27QMediaServiceProviderPluginE4freeEPN9QListData4DataE 0x0002a6d2   Section       24  QtMultimediaKit.in(t._ZN5QListIP27QMediaServiceProviderPluginE4freeEPN9QListData4DataE)
    t._ZN5QListIP27QMediaServiceProviderPluginE9node_copyEPNS2_4NodeES4_S4_ 0x0002a6ea   Section       28  QtMultimediaKit.in(t._ZN5QListIP27QMediaServiceProviderPluginE9node_copyEPNS2_4NodeES4_S4_)
    t._ZN5QListIP27QMediaServiceProviderPluginED1Ev 0x0002a706   Section       30  QtMultimediaKit.in(t._ZN5QListIP27QMediaServiceProviderPluginED1Ev)
    t._ZN5QListIP27QMediaServiceProviderPluginEixEi 0x0002a724   Section       40  QtMultimediaKit.in(t._ZN5QListIP27QMediaServiceProviderPluginEixEi)
    t._ZN5QListIP7QObjectE13detach_helperEi  0x0002a74c   Section       98  QtMultimediaKit.in(t._ZN5QListIP7QObjectE13detach_helperEi)
    t._ZN5QListIP7QObjectE13detach_helperEi.clean 0x0002a7ae   Section        8  QtMultimediaKit.in(t._ZN5QListIP7QObjectE13detach_helperEi.clean)
    t._ZN5QListIP7QObjectE13detach_helperEv  0x0002a7b6   Section       88  QtMultimediaKit.in(t._ZN5QListIP7QObjectE13detach_helperEv)
    t._ZN5QListIP7QObjectE13detach_helperEv.clean 0x0002a80e   Section        8  QtMultimediaKit.in(t._ZN5QListIP7QObjectE13detach_helperEv.clean)
    t._ZN5QListIP7QObjectE18detach_helper_growEii 0x0002a816   Section      164  QtMultimediaKit.in(t._ZN5QListIP7QObjectE18detach_helper_growEii)
    t._ZN5QListIP7QObjectE18detach_helper_growEii.clean 0x0002a8ba   Section        8  QtMultimediaKit.in(t._ZN5QListIP7QObjectE18detach_helper_growEii.clean)
    t._ZN5QListIP7QObjectE4freeEPN9QListData4DataE 0x0002a8c2   Section       16  QtMultimediaKit.in(t._ZN5QListIP7QObjectE4freeEPN9QListData4DataE)
    t._ZN5QListIP7QObjectE9node_copyEPNS2_4NodeES4_S4_ 0x0002a8d2   Section       28  QtMultimediaKit.in(t._ZN5QListIP7QObjectE9node_copyEPNS2_4NodeES4_S4_)
    t._ZN5QListIP7QObjectEC1ERKS2_           0x0002a8ee   Section       30  QtMultimediaKit.in(t._ZN5QListIP7QObjectEC1ERKS2_)
    t._ZN5QListIP7QObjectEC1Ev               0x0002a90c   Section       20  QtMultimediaKit.in(t._ZN5QListIP7QObjectEC1Ev)
    t._ZN5QListIP7QObjectED1Ev               0x0002a920   Section       30  QtMultimediaKit.in(t._ZN5QListIP7QObjectED1Ev)
    t._ZN5QListIfE13detach_helperEi          0x0002a93e   Section       98  QtMultimediaKit.in(t._ZN5QListIfE13detach_helperEi)
    t._ZN5QListIfE13detach_helperEi.clean    0x0002a9a0   Section        8  QtMultimediaKit.in(t._ZN5QListIfE13detach_helperEi.clean)
    t._ZN5QListIfE18detach_helper_growEii    0x0002a9a8   Section      164  QtMultimediaKit.in(t._ZN5QListIfE18detach_helper_growEii)
    t._ZN5QListIfE18detach_helper_growEii.clean 0x0002aa4c   Section        8  QtMultimediaKit.in(t._ZN5QListIfE18detach_helper_growEii.clean)
    t._ZN5QListIfE4freeEPN9QListData4DataE   0x0002aa54   Section       16  QtMultimediaKit.in(t._ZN5QListIfE4freeEPN9QListData4DataE)
    t._ZN5QListIfE6appendERKf                0x0002aa64   Section       60  QtMultimediaKit.in(t._ZN5QListIfE6appendERKf)
    t._ZN5QListIfE6appendERKf.clean          0x0002aaa0   Section       10  QtMultimediaKit.in(t._ZN5QListIfE6appendERKf.clean)
    t._ZN5QListIfE9node_copyEPNS0_4NodeES2_S2_ 0x0002aaaa   Section       28  QtMultimediaKit.in(t._ZN5QListIfE9node_copyEPNS0_4NodeES2_S2_)
    t._ZN5QListIfEC1Ev                       0x0002aac8   Section       20  QtMultimediaKit.in(t._ZN5QListIfEC1Ev)
    t._ZN5QListIfED1Ev                       0x0002aadc   Section       30  QtMultimediaKit.in(t._ZN5QListIfED1Ev)
    t._ZN5QListIiE13detach_helperEi          0x0002aafa   Section       86  QtMultimediaKit.in(t._ZN5QListIiE13detach_helperEi)
    t._ZN5QListIiE13detach_helperEi.clean    0x0002ab50   Section        8  QtMultimediaKit.in(t._ZN5QListIiE13detach_helperEi.clean)
    t._ZN5QListIiE13detach_helperEv          0x0002ab58   Section       88  QtMultimediaKit.in(t._ZN5QListIiE13detach_helperEv)
    t._ZN5QListIiE13detach_helperEv.clean    0x0002abb0   Section        8  QtMultimediaKit.in(t._ZN5QListIiE13detach_helperEv.clean)
    t._ZN5QListIiE18detach_helper_growEii    0x0002abb8   Section      164  QtMultimediaKit.in(t._ZN5QListIiE18detach_helper_growEii)
    t._ZN5QListIiE18detach_helper_growEii.clean 0x0002ac5c   Section        8  QtMultimediaKit.in(t._ZN5QListIiE18detach_helper_growEii.clean)
    t._ZN5QListIiE4freeEPN9QListData4DataE   0x0002ac64   Section       16  QtMultimediaKit.in(t._ZN5QListIiE4freeEPN9QListData4DataE)
    t._ZN5QListIiE5clearEv                   0x0002ac74   Section       64  QtMultimediaKit.in(t._ZN5QListIiE5clearEv)
    t._ZN5QListIiE5clearEv.clean             0x0002acb4   Section       10  QtMultimediaKit.in(t._ZN5QListIiE5clearEv.clean)
    t._ZN5QListIiE6appendERKi                0x0002acc0   Section       60  QtMultimediaKit.in(t._ZN5QListIiE6appendERKi)
    t._ZN5QListIiE6appendERKi.clean          0x0002acfc   Section       10  QtMultimediaKit.in(t._ZN5QListIiE6appendERKi.clean)
    t._ZN5QListIiE9node_copyEPNS0_4NodeES2_S2_ 0x0002ad06   Section       28  QtMultimediaKit.in(t._ZN5QListIiE9node_copyEPNS0_4NodeES2_S2_)
    t._ZN5QListIiE9removeAllERKi             0x0002ad24   Section       88  QtMultimediaKit.in(t._ZN5QListIiE9removeAllERKi)
    t._ZN5QListIiEC1ERKS0_                   0x0002ad7c   Section       30  QtMultimediaKit.in(t._ZN5QListIiEC1ERKS0_)
    t._ZN5QListIiEC1Ev                       0x0002ad9c   Section       20  QtMultimediaKit.in(t._ZN5QListIiEC1Ev)
    t._ZN5QListIiED1Ev                       0x0002adb0   Section       30  QtMultimediaKit.in(t._ZN5QListIiED1Ev)
    t._ZN5QListIiEaSERKS0_                   0x0002adce   Section       54  QtMultimediaKit.in(t._ZN5QListIiEaSERKS0_)
    t._ZN5QListIiEixEi                       0x0002ae04   Section       40  QtMultimediaKit.in(t._ZN5QListIiEixEi)
    t._ZN5QListIiEpLERKi                     0x0002ae2c   Section       60  QtMultimediaKit.in(t._ZN5QListIiEpLERKi)
    t._ZN5QListIiEpLERKi.clean               0x0002ae68   Section       10  QtMultimediaKit.in(t._ZN5QListIiEpLERKi.clean)
    t._ZN7QVectorI5QRectE4freeEP16QVectorTypedDataIS0_E 0x0002ae72   Section       30  QtMultimediaKit.in(t._ZN7QVectorI5QRectE4freeEP16QVectorTypedDataIS0_E)
    t._ZN7QVectorI5QRectE6detachEv           0x0002ae90   Section       30  QtMultimediaKit.in(t._ZN7QVectorI5QRectE6detachEv)
    t._ZN7QVectorI5QRectE7reallocEii         0x0002aeae   Section      352  QtMultimediaKit.in(t._ZN7QVectorI5QRectE7reallocEii)
    t._ZN7QVectorI5QRectE7reallocEii.clean   0x0002b00e   Section       22  QtMultimediaKit.in(t._ZN7QVectorI5QRectE7reallocEii.clean)
    t._ZN7QVectorI5QRectED1Ev                0x0002b024   Section       30  QtMultimediaKit.in(t._ZN7QVectorI5QRectED1Ev)
    t._ZN8QPointerI12QMediaObjectEaSEPS0_    0x0002b042   Section       20  QtMultimediaKit.in(t._ZN8QPointerI12QMediaObjectEaSEPS0_)
    t._ZN8QPointerI13QGraphicsViewED1Ev      0x0002b056   Section       12  QtMultimediaKit.in(t._ZN8QPointerI13QGraphicsViewED1Ev)
    t._ZN8QPointerI7QObjectEC1ERKS1_         0x0002b062   Section       18  QtMultimediaKit.in(t._ZN8QPointerI7QObjectEC1ERKS1_)
    t._ZN8QPointerI7QObjectED1Ev             0x0002b074   Section       12  QtMultimediaKit.in(t._ZN8QPointerI7QObjectED1Ev)
    t._ZN8QPointerI7QObjectEaSEPS0_          0x0002b080   Section       20  QtMultimediaKit.in(t._ZN8QPointerI7QObjectEaSEPS0_)
    t._ZN8QVariant9fromValueI19QVideoSurfaceFormatEES_RKT_ 0x0002b094   Section       24  QtMultimediaKit.in(t._ZN8QVariant9fromValueI19QVideoSurfaceFormatEES_RKT_)
    t._ZN8QVariant9fromValueIN21QAbstractVideoSurface5ErrorEEES_RKT_ 0x0002b0ac   Section       24  QtMultimediaKit.in(t._ZN8QVariant9fromValueIN21QAbstractVideoSurface5ErrorEEES_RKT_)
    t._ZNK12QMapIteratorIiiE7hasNextEv       0x0002b0c4   Section       20  QtMultimediaKit.in(t._ZNK12QMapIteratorIiiE7hasNextEv)
    t._ZNK17QForeachContainerI11QStringListE9conditionEv 0x0002b0d8   Section       26  QtMultimediaKit.in(t._ZNK17QForeachContainerI11QStringListE9conditionEv)
    t._ZNK17QForeachContainerI5QListI10QByteArrayEE9conditionEv 0x0002b0f2   Section       26  QtMultimediaKit.in(t._ZNK17QForeachContainerI5QListI10QByteArrayEE9conditionEv)
    t._ZNK17QForeachContainerI5QListI18QMediaTimeIntervalEE9conditionEv 0x0002b10c   Section       26  QtMultimediaKit.in(t._ZNK17QForeachContainerI5QListI18QMediaTimeIntervalEE9conditionEv)
    t._ZNK17QForeachContainerI5QListI8QPointerI7QObjectEEE9conditionEv 0x0002b126   Section       26  QtMultimediaKit.in(t._ZNK17QForeachContainerI5QListI8QPointerI7QObjectEEE9conditionEv)
    t._ZNK17QForeachContainerI5QListI8QVariantEE9conditionEv 0x0002b140   Section       26  QtMultimediaKit.in(t._ZNK17QForeachContainerI5QListI8QVariantEE9conditionEv)
    t._ZNK17QForeachContainerI5QListIP27QMediaServiceProviderPluginEE9conditionEv 0x0002b15a   Section       26  QtMultimediaKit.in(t._ZNK17QForeachContainerI5QListIP27QMediaServiceProviderPluginEE9conditionEv)
    t._ZNK17QForeachContainerI5QListIP7QObjectEE9conditionEv 0x0002b174   Section       26  QtMultimediaKit.in(t._ZNK17QForeachContainerI5QListIP7QObjectEE9conditionEv)
    t._ZNK17QForeachContainerI5QListIiEE9conditionEv 0x0002b18e   Section       26  QtMultimediaKit.in(t._ZNK17QForeachContainerI5QListIiEE9conditionEv)
    t._ZNK4QMapI7QString5QListIP7QObjectEE8findNodeERKS0_ 0x0002b1a8   Section       82  QtMultimediaKit.in(t._ZNK4QMapI7QString5QListIP7QObjectEE8findNodeERKS0_)
    t._ZNK4QMapI7QStringN24QAudioDeviceInfoInternal12CapabilitiesEE4keysEv 0x0002b1fc   Section       88  QtMultimediaKit.in(t._ZNK4QMapI7QStringN24QAudioDeviceInfoInternal12CapabilitiesEE4keysEv)
    t._ZNK4QMapI7QStringN24QAudioDeviceInfoInternal12CapabilitiesEE4keysEv.clean 0x0002b254   Section       10  QtMultimediaKit.in(t._ZNK4QMapI7QStringN24QAudioDeviceInfoInternal12CapabilitiesEE4keysEv.clean)
    t._ZNK4QMapI7QStringN24QAudioDeviceInfoInternal12CapabilitiesEE8containsERKS0_ 0x0002b25e   Section       90  QtMultimediaKit.in(t._ZNK4QMapI7QStringN24QAudioDeviceInfoInternal12CapabilitiesEE8containsERKS0_)
    t._ZNK4QMapI7QStringP7QObjectE4keysEv    0x0002b2b8   Section       80  QtMultimediaKit.in(t._ZNK4QMapI7QStringP7QObjectE4keysEv)
    t._ZNK4QMapI7QStringP7QObjectE4keysEv.clean 0x0002b308   Section       10  QtMultimediaKit.in(t._ZNK4QMapI7QStringP7QObjectE4keysEv.clean)
    t._ZNK4QMapI7QStringP7QObjectE6valuesERKS0_ 0x0002b314   Section      104  QtMultimediaKit.in(t._ZNK4QMapI7QStringP7QObjectE6valuesERKS0_)
    t._ZNK4QMapI7QStringP7QObjectE6valuesERKS0_.clean 0x0002b37c   Section       16  QtMultimediaKit.in(t._ZNK4QMapI7QStringP7QObjectE6valuesERKS0_.clean)
    t._ZNK4QMapI7QStringP7QObjectE8findNodeERKS0_ 0x0002b38c   Section       82  QtMultimediaKit.in(t._ZNK4QMapI7QStringP7QObjectE8findNodeERKS0_)
    t._ZNK4QMapIi8QVariantE4keysEv           0x0002b3e0   Section      140  QtMultimediaKit.in(t._ZNK4QMapIi8QVariantE4keysEv)
    t._ZNK4QMapIi8QVariantE4keysEv.clean     0x0002b46c   Section       16  QtMultimediaKit.in(t._ZNK4QMapIi8QVariantE4keysEv.clean)
    t._ZNK4QMapIi8QVariantE5valueERKi        0x0002b47c   Section       64  QtMultimediaKit.in(t._ZNK4QMapIi8QVariantE5valueERKi)
    t._ZNK4QMapIi8QVariantE8findNodeERKi     0x0002b4bc   Section       82  QtMultimediaKit.in(t._ZNK4QMapIi8QVariantE8findNodeERKi)
    t._ZNK5QHashI7QString15QHashDummyValueE8findNodeERKS0_Pj 0x0002b50e   Section       90  QtMultimediaKit.in(t._ZNK5QHashI7QString15QHashDummyValueE8findNodeERKS0_Pj)
    t._ZNK5QHashIi15QHashDummyValueE7isEmptyEv 0x0002b568   Section       16  QtMultimediaKit.in(t._ZNK5QHashIi15QHashDummyValueE7isEmptyEv)
    t._ZNK5QHashIi15QHashDummyValueE8findNodeERKiPj 0x0002b578   Section       50  QtMultimediaKit.in(t._ZNK5QHashIi15QHashDummyValueE8findNodeERKiPj)
    t._ZNK5QListI10QByteArrayE2atEi          0x0002b5aa   Section       16  QtMultimediaKit.in(t._ZNK5QListI10QByteArrayE2atEi)
    t._ZNK5QListI10QByteArrayE5countEv       0x0002b5ba   Section        8  QtMultimediaKit.in(t._ZNK5QListI10QByteArrayE5countEv)
    t._ZNK5QListI10QByteArrayE7indexOfERKS0_i 0x0002b5c2   Section      124  QtMultimediaKit.in(t._ZNK5QListI10QByteArrayE7indexOfERKS0_i)
    t._ZNK5QListI10QByteArrayE8containsERKS0_ 0x0002b63e   Section       54  QtMultimediaKit.in(t._ZNK5QListI10QByteArrayE8containsERKS0_)
    t._ZNK5QListI13QMediaContentE5countEv    0x0002b674   Section        8  QtMultimediaKit.in(t._ZNK5QListI13QMediaContentE5countEv)
    t._ZNK5QListI13QMediaContentE7isEmptyEv  0x0002b67c   Section       18  QtMultimediaKit.in(t._ZNK5QListI13QMediaContentE7isEmptyEv)
    t._ZNK5QListI18QMediaTimeIntervalE5countEv 0x0002b68e   Section       10  QtMultimediaKit.in(t._ZNK5QListI18QMediaTimeIntervalE5countEv)
    t._ZNK5QListI18QMediaTimeIntervalE7isEmptyEv 0x0002b698   Section       18  QtMultimediaKit.in(t._ZNK5QListI18QMediaTimeIntervalE7isEmptyEv)
    t._ZNK5QListI18QMediaTimeIntervalEixEi   0x0002b6aa   Section       10  QtMultimediaKit.in(t._ZNK5QListI18QMediaTimeIntervalEixEi)
    t._ZNK5QListI7QStringE2atEi              0x0002b6b4   Section        8  QtMultimediaKit.in(t._ZNK5QListI7QStringE2atEi)
    t._ZNK5QListI8QVariantE2atEi             0x0002b6bc   Section       10  QtMultimediaKit.in(t._ZNK5QListI8QVariantE2atEi)
    t._ZNK5QListIN12QAudioFormat10SampleTypeEE8containsERKS1_ 0x0002b6c6   Section       50  QtMultimediaKit.in(t._ZNK5QListIN12QAudioFormat10SampleTypeEE8containsERKS1_)
    t._ZNK5QListIN12QAudioFormat6EndianEE8containsERKS1_ 0x0002b6f8   Section       50  QtMultimediaKit.in(t._ZNK5QListIN12QAudioFormat6EndianEE8containsERKS1_)
    t._ZNK5QListIP13QPluginLoaderE2atEi      0x0002b72a   Section        8  QtMultimediaKit.in(t._ZNK5QListIP13QPluginLoaderE2atEi)
    t._ZNK5QListIP13QPluginLoaderE5countEv   0x0002b732   Section       10  QtMultimediaKit.in(t._ZNK5QListIP13QPluginLoaderE5countEv)
    t._ZNK5QListIP14CMMFDataBufferE5emptyEv  0x0002b73c   Section       18  QtMultimediaKit.in(t._ZNK5QListIP14CMMFDataBufferE5emptyEv)
    t._ZNK5QListIiE4sizeEv                   0x0002b74e   Section       10  QtMultimediaKit.in(t._ZNK5QListIiE4sizeEv)
    t._ZNK5QListIiE8containsERKi             0x0002b758   Section       48  QtMultimediaKit.in(t._ZNK5QListIiE8containsERKi)
    t._ZNK6QFlagsIN25QMediaServiceProviderHint7FeatureEEntEv 0x0002b788   Section       14  QtMultimediaKit.in(t._ZNK6QFlagsIN25QMediaServiceProviderHint7FeatureEEntEv)
    .extab._ZN13QMediaControlD1Ev            0x0002b798   Data           0  QtMultimediaKit.in(.ARM.extab)
    .extab._ZN19QMediaObjectPrivate9_q_notifyEv 0x0002b7a8   Data           0  QtMultimediaKit.in(.ARM.extab)
    .extab._ZN12QMediaObjectD1Ev             0x0002b7c8   Data           0  QtMultimediaKit.in(.ARM.extab)
    .extab._ZN12QMediaObject6unbindEP7QObject 0x0002b7d8   Data           0  QtMultimediaKit.in(.ARM.extab)
    .extab._ZNK12QMediaObject8metaDataEN15QtMultimediaKit8MetaDataE 0x0002b800   Data           0  QtMultimediaKit.in(.ARM.extab)
    .extab._ZNK12QMediaObject17availableMetaDataEv 0x0002b820   Data           0  QtMultimediaKit.in(.ARM.extab)
    .extab._ZNK12QMediaObject16extendedMetaDataERK7QString 0x0002b840   Data           0  QtMultimediaKit.in(.ARM.extab)
    .extab._ZNK12QMediaObject25availableExtendedMetaDataEv 0x0002b860   Data           0  QtMultimediaKit.in(.ARM.extab)
    .extab._ZN12QMediaObjectC1EP7QObjectP13QMediaService 0x0002b880   Data           0  QtMultimediaKit.in(.ARM.extab)
    .extab._ZN12QMediaObjectC1ER19QMediaObjectPrivateP7QObjectP13QMediaService 0x0002b8a0   Data           0  QtMultimediaKit.in(.ARM.extab)
    .extab._ZN5QListIN15QtMultimediaKit8MetaDataEE13detach_helperEi 0x0002b8b8   Data           0  QtMultimediaKit.in(.ARM.extab)
    .extab._ZN5QHashIi15QHashDummyValueE6removeERKi 0x0002b8d4   Data           0  QtMultimediaKit.in(.ARM.extab)
    .extab._ZN13QMediaServiceD2Ev            0x0002b8e8   Data           0  QtMultimediaKit.in(.ARM.extab)
    .extab._ZN27QLocalMediaPlaylistProviderC1EP7QObject 0x0002b8f8   Data           0  QtMultimediaKit.in(.ARM.extab)
    .extab._ZN27QLocalMediaPlaylistProvider5clearEv 0x0002b910   Data           0  QtMultimediaKit.in(.ARM.extab)
    .extab._ZN27QLocalMediaPlaylistProvider7shuffleEv 0x0002b920   Data           0  QtMultimediaKit.in(.ARM.extab)
    .extab._ZN5QListI13QMediaContentE14node_constructEPNS1_4NodeERKS0_ 0x0002b948   Data           0  QtMultimediaKit.in(.ARM.extab)
    .extab._ZN5QListI13QMediaContentE9node_copyEPNS1_4NodeES3_S3_ 0x0002b958   Data           0  QtMultimediaKit.in(.ARM.extab)
    .extab._ZN5QListI13QMediaContentE18detach_helper_growEii 0x0002b97c   Data           0  QtMultimediaKit.in(.ARM.extab)
    .extab._ZN5QListI13QMediaContentE6appendERKS0_ 0x0002b9ac   Data           0  QtMultimediaKit.in(.ARM.extab)
    .extab._ZN5QListI13QMediaContentE13detach_helperEv 0x0002b9dc   Data           0  QtMultimediaKit.in(.ARM.extab)
    .extab._ZN5QListI13QMediaContentE6insertEiRKS0_ 0x0002b9f8   Data           0  QtMultimediaKit.in(.ARM.extab)
    .extab._ZN5QListI13QMediaContentEpLERKS1_ 0x0002ba28   Data           0  QtMultimediaKit.in(.ARM.extab)
    .extab._ZN34QLocalMediaPlaylistProviderPrivateD1Ev 0x0002ba44   Data           0  QtMultimediaKit.in(.ARM.extab)
    .extab._ZN17QMediaImageViewer8setMediaERK13QMediaContent 0x0002ba54   Data           0  QtMultimediaKit.in(.ARM.extab)
    .extab._ZN24QMediaImageViewerPrivate20_q_playlistDestroyedEv 0x0002ba6c   Data           0  QtMultimediaKit.in(.ARM.extab)
    .extab._ZN24QMediaImageViewerPrivate21_q_mediaStatusChangedEN17QMediaImageViewer11MediaStatusE 0x0002ba7c   Data           0  QtMultimediaKit.in(.ARM.extab)
    .extab._ZN17QMediaImageViewer4stopEv     0x0002ba8c   Data           0  QtMultimediaKit.in(.ARM.extab)
    .extab._ZN17QMediaImageViewer5pauseEv    0x0002ba9c   Data           0  QtMultimediaKit.in(.ARM.extab)
    .extab._ZN17QMediaImageViewer11setPlaylistEP14QMediaPlaylist 0x0002baac   Data           0  QtMultimediaKit.in(.ARM.extab)
    .extab._ZN17QMediaImageViewer11qt_metacallEN11QMetaObject4CallEiPPv 0x0002bac4   Data           0  QtMultimediaKit.in(.ARM.extab)
    .extab._ZN17QMediaImageViewerC1EP7QObject 0x0002bad4   Data           0  QtMultimediaKit.in(.ARM.extab)
    .extab._ZN17QMediaImageViewerD1Ev        0x0002baf4   Data           0  QtMultimediaKit.in(.ARM.extab)
    .extab._ZN17QMediaImageViewer10timerEventEP11QTimerEvent 0x0002bb04   Data           0  QtMultimediaKit.in(.ARM.extab)
    .extab._ZN24QMediaImageViewerPrivateD1Ev 0x0002bb14   Data           0  QtMultimediaKit.in(.ARM.extab)
    .extab._ZN24QMediaImageViewerPrivateC1Ev 0x0002bb34   Data           0  QtMultimediaKit.in(.ARM.extab)
    .extab._ZN24QMediaImageViewerControlC1EP24QMediaImageViewerService 0x0002bb44   Data           0  QtMultimediaKit.in(.ARM.extab)
    .extab._ZN24QMediaImageViewerServiceC1EP7QObject 0x0002bb54   Data           0  QtMultimediaKit.in(.ARM.extab)
    .extab._ZN24QMediaImageViewerServiceD1Ev 0x0002bb74   Data           0  QtMultimediaKit.in(.ARM.extab)
    .extab._ZN25QMediaImageViewerRenderer9showImageERK6QImage 0x0002bb84   Data           0  QtMultimediaKit.in(.ARM.extab)
    .extab._ZN25QMediaImageViewerRendererC1EP7QObject 0x0002bc04   Data           0  QtMultimediaKit.in(.ARM.extab)
    .extab._ZN24QMediaImageViewerService14requestControlEPKc 0x0002bc14   Data           0  QtMultimediaKit.in(.ARM.extab)
    .extab._ZNK24QMediaImageViewerService14networkManagerEv 0x0002bc24   Data           0  QtMultimediaKit.in(.ARM.extab)
    .extab._ZNK31QMediaImageViewerControlPrivate11isImageTypeERK4QUrlRK7QString 0x0002bc34   Data           0  QtMultimediaKit.in(.ARM.extab)
    .extab._ZN31QMediaImageViewerControlPrivate9loadImageEv 0x0002bc6c   Data           0  QtMultimediaKit.in(.ARM.extab)
    .extab._ZN31QMediaImageViewerServicePrivate4loadEP9QIODevice 0x0002bce4   Data           0  QtMultimediaKit.in(.ARM.extab)
    .extab._ZN31QMediaImageViewerControlPrivate14_q_getFinishedEv 0x0002bd1c   Data           0  QtMultimediaKit.in(.ARM.extab)
    .extab._ZN31QMediaImageViewerControlPrivate15_q_headFinishedEv 0x0002bd34   Data           0  QtMultimediaKit.in(.ARM.extab)
    .extab._ZN24QMediaImageViewerControlD1Ev 0x0002bda4   Data           0  QtMultimediaKit.in(.ARM.extab)
    .extab._ZN31QMediaImageViewerServicePrivate5clearEv 0x0002bdb4   Data           0  QtMultimediaKit.in(.ARM.extab)
    .extab._ZN24QMediaImageViewerControl9showMediaERK13QMediaContent 0x0002bdc4   Data           0  QtMultimediaKit.in(.ARM.extab)
    .extab._ZN25QMediaImageViewerRendererD1Ev 0x0002bddc   Data           0  QtMultimediaKit.in(.ARM.extab)
    .extab._ZN5QListI7QStringE9node_copyEPNS1_4NodeES3_S3_ 0x0002bdf4   Data           0  QtMultimediaKit.in(.ARM.extab)
    .extab._ZN5QListI7QStringE18detach_helper_growEii 0x0002be18   Data           0  QtMultimediaKit.in(.ARM.extab)
    .extab._ZN5QListI14QMediaResourceE13detach_helperEi 0x0002be48   Data           0  QtMultimediaKit.in(.ARM.extab)
    .extab._ZN31QMediaImageViewerControlPrivateC1Ev 0x0002be8c   Data           0  QtMultimediaKit.in(.ARM.extab)
    .extab._ZN31QMediaImageViewerControlPrivateD1Ev 0x0002bf0c   Data           0  QtMultimediaKit.in(.ARM.extab)
    .extab._ZN5QListIN11QVideoFrame11PixelFormatEE13detach_helperEi 0x0002bf34   Data           0  QtMultimediaKit.in(.ARM.extab)
    .extab._ZN5QListI10QByteArrayE13detach_helperEi 0x0002bf50   Data           0  QtMultimediaKit.in(.ARM.extab)
    .extab._ZN5QListI7QStringE14node_constructEPNS1_4NodeERKS0_ 0x0002bf94   Data           0  QtMultimediaKit.in(.ARM.extab)
    .extab._ZN31QMediaImageViewerServicePrivateD1Ev 0x0002bfa4   Data           0  QtMultimediaKit.in(.ARM.extab)
    .extab._Z13playerService6QFlagsIN12QMediaPlayer4FlagEEP21QMediaServiceProvider 0x0002bfb4   Data           0  QtMultimediaKit.in(.ARM.extab)
    .extab._ZN12QMediaPlayer8setMediaERK13QMediaContentP9QIODevice 0x0002bfec   Data           0  QtMultimediaKit.in(.ARM.extab)
    .extab._ZN12QMediaPlayer11setPlaylistEP14QMediaPlaylist 0x0002bffc   Data           0  QtMultimediaKit.in(.ARM.extab)
    .extab._ZN19QMediaPlayerPrivate20_q_playlistDestroyedEv 0x0002c014   Data           0  QtMultimediaKit.in(.ARM.extab)
    .extab._ZN19QMediaPlayerPrivate14_q_updateMediaERK13QMediaContent 0x0002c024   Data           0  QtMultimediaKit.in(.ARM.extab)
    .extab._ZN19QMediaPlayerPrivate21_q_mediaStatusChangedEN12QMediaPlayer11MediaStatusE 0x0002c03c   Data           0  QtMultimediaKit.in(.ARM.extab)
    .extab._ZN19QMediaPlayerPrivate15_q_stateChangedEN12QMediaPlayer5StateE 0x0002c054   Data           0  QtMultimediaKit.in(.ARM.extab)
    .extab._ZN12QMediaPlayer4playEv          0x0002c06c   Data           0  QtMultimediaKit.in(.ARM.extab)
    .extab._ZN12QMediaPlayer11qt_metacallEN11QMetaObject4CallEiPPv 0x0002c084   Data           0  QtMultimediaKit.in(.ARM.extab)
    .extab._ZN12QMediaPlayerC1EP7QObject6QFlagsINS_4FlagEEP21QMediaServiceProvider 0x0002c09c   Data           0  QtMultimediaKit.in(.ARM.extab)
    .extab._ZN12QMediaPlayerD1Ev             0x0002c0bc   Data           0  QtMultimediaKit.in(.ARM.extab)
    .extab._ZN12QMediaPlayer10hasSupportERK7QStringRK11QStringList6QFlagsINS_4FlagEE 0x0002c0cc   Data           0  QtMultimediaKit.in(.ARM.extab)
    .extab._ZN12QMediaPlayer18supportedMimeTypesE6QFlagsINS_4FlagEE 0x0002c0dc   Data           0  QtMultimediaKit.in(.ARM.extab)
    .extab._ZN19QMediaPlayerPrivateD1Ev      0x0002c0ec   Data           0  QtMultimediaKit.in(.ARM.extab)
    .extab._ZN19QMediaPlayerPrivateC1Ev      0x0002c104   Data           0  QtMultimediaKit.in(.ARM.extab)
    .extab._ZN19QMediaPlayerControlC2EP7QObject 0x0002c114   Data           0  QtMultimediaKit.in(.ARM.extab)
    .extab._Z16playlistIOLoaderv             0x0002c124   Data           0  QtMultimediaKit.in(.ARM.extab)
    .extab._ZN14QMediaPlaylist11qt_metacallEN11QMetaObject4CallEiPPv 0x0002c14c   Data           0  QtMultimediaKit.in(.ARM.extab)
    .extab._ZN14QMediaPlaylistC1EP7QObject   0x0002c15c   Data           0  QtMultimediaKit.in(.ARM.extab)
    .extab._ZN14QMediaPlaylistD1Ev           0x0002c17c   Data           0  QtMultimediaKit.in(.ARM.extab)
    .extab._ZN21QMediaPlaylistPrivate9readItemsEP20QMediaPlaylistReader 0x0002c194   Data           0  QtMultimediaKit.in(.ARM.extab)
    .extab._ZN14QMediaPlaylist4loadERK4QUrlPKc 0x0002c1a4   Data           0  QtMultimediaKit.in(.ARM.extab)
    .extab._ZN14QMediaPlaylist4loadEP9QIODevicePKc 0x0002c1f4   Data           0  QtMultimediaKit.in(.ARM.extab)
    .extab._ZN21QMediaPlaylistPrivate10writeItemsEP20QMediaPlaylistWriter 0x0002c244   Data           0  QtMultimediaKit.in(.ARM.extab)
    .extab._ZN14QMediaPlaylist4saveEP9QIODevicePKc 0x0002c254   Data           0  QtMultimediaKit.in(.ARM.extab)
    .extab._ZN14QMediaPlaylist4saveERK4QUrlPKc 0x0002c29c   Data           0  QtMultimediaKit.in(.ARM.extab)
    .extab._ZN18QMediaPluginLoaderD1Ev       0x0002c2cc   Data           0  QtMultimediaKit.in(.ARM.extab)
    .extab._ZN7QString5clearEv               0x0002c2e4   Data           0  QtMultimediaKit.in(.ARM.extab)
    .extab._ZN26QLocalMediaPlaylistControlC1EP7QObject 0x0002c2f4   Data           0  QtMultimediaKit.in(.ARM.extab)
    .extab._Z20_q_nullMediaPlaylistv         0x0002c314   Data           0  QtMultimediaKit.in(.ARM.extab)
    .extab._ZN23QMediaPlaylistNavigator4jumpEi 0x0002c32c   Data           0  QtMultimediaKit.in(.ARM.extab)
    .extab._ZN30QMediaPlaylistNavigatorPrivate15_q_mediaChangedEii 0x0002c364   Data           0  QtMultimediaKit.in(.ARM.extab)
    .extab._ZNK30QMediaPlaylistNavigatorPrivate15previousItemPosEi 0x0002c374   Data           0  QtMultimediaKit.in(.ARM.extab)
    .extab._ZN23QMediaPlaylistNavigator11qt_metacallEN11QMetaObject4CallEiPPv 0x0002c390   Data           0  QtMultimediaKit.in(.ARM.extab)
    .extab._ZN23QMediaPlaylistNavigator11setPlaylistEP22QMediaPlaylistProvider 0x0002c3a0   Data           0  QtMultimediaKit.in(.ARM.extab)
    .extab._ZN23QMediaPlaylistNavigatorC1EP22QMediaPlaylistProviderP7QObject 0x0002c3b0   Data           0  QtMultimediaKit.in(.ARM.extab)
    .extab._ZN23QMediaPlaylistNavigatorD1Ev  0x0002c3d0   Data           0  QtMultimediaKit.in(.ARM.extab)
    .extab._ZN5QListIiE18detach_helper_growEii 0x0002c3e8   Data           0  QtMultimediaKit.in(.ARM.extab)
    .extab._ZN5QListIiE6appendERKi           0x0002c418   Data           0  QtMultimediaKit.in(.ARM.extab)
    .extab._ZN5QListIiE13detach_helperEv     0x0002c434   Data           0  QtMultimediaKit.in(.ARM.extab)
    .extab._ZN5QListIiE5clearEv              0x0002c450   Data           0  QtMultimediaKit.in(.ARM.extab)
    .extab._ZN22QMediaPlaylistProviderD2Ev   0x0002c460   Data           0  QtMultimediaKit.in(.ARM.extab)
    .extab._ZN22QMediaPlaylistProvider8addMediaERK5QListI13QMediaContentE 0x0002c470   Data           0  QtMultimediaKit.in(.ARM.extab)
    .extab._ZN5QListI13QMediaContentE13detach_helperEi 0x0002c488   Data           0  QtMultimediaKit.in(.ARM.extab)
    .extab._ZNK14QMediaRecorder14outputLocationEv 0x0002c4cc   Data           0  QtMultimediaKit.in(.ARM.extab)
    .extab._ZN14QMediaRecorder6recordEv      0x0002c4ec   Data           0  QtMultimediaKit.in(.ARM.extab)
    .extab._ZN14QMediaRecorder11qt_metacallEN11QMetaObject4CallEiPPv 0x0002c4fc   Data           0  QtMultimediaKit.in(.ARM.extab)
    .extab._ZN14QMediaRecorderC1EP12QMediaObjectP7QObject 0x0002c50c   Data           0  QtMultimediaKit.in(.ARM.extab)
    .extab._ZN14QMediaRecorderD1Ev           0x0002c534   Data           0  QtMultimediaKit.in(.ARM.extab)
    .extab._ZNK14QMediaRecorder19supportedContainersEv 0x0002c544   Data           0  QtMultimediaKit.in(.ARM.extab)
    .extab._ZNK14QMediaRecorder20containerDescriptionERK7QString 0x0002c564   Data           0  QtMultimediaKit.in(.ARM.extab)
    .extab._ZNK14QMediaRecorder20supportedAudioCodecsEv 0x0002c584   Data           0  QtMultimediaKit.in(.ARM.extab)
    .extab._ZNK14QMediaRecorder21audioCodecDescriptionERK7QString 0x0002c5a4   Data           0  QtMultimediaKit.in(.ARM.extab)
    .extab._ZNK14QMediaRecorder25supportedAudioSampleRatesERK21QAudioEncoderSettingsPb 0x0002c5c4   Data           0  QtMultimediaKit.in(.ARM.extab)
    .extab._ZNK14QMediaRecorder20supportedVideoCodecsEv 0x0002c5e4   Data           0  QtMultimediaKit.in(.ARM.extab)
    .extab._ZNK14QMediaRecorder21videoCodecDescriptionERK7QString 0x0002c604   Data           0  QtMultimediaKit.in(.ARM.extab)
    .extab._ZNK14QMediaRecorder20supportedResolutionsERK21QVideoEncoderSettingsPb 0x0002c624   Data           0  QtMultimediaKit.in(.ARM.extab)
    .extab._ZNK14QMediaRecorder19supportedFrameRatesERK21QVideoEncoderSettingsPb 0x0002c644   Data           0  QtMultimediaKit.in(.ARM.extab)
    .extab._ZNK14QMediaRecorder13audioSettingsEv 0x0002c664   Data           0  QtMultimediaKit.in(.ARM.extab)
    .extab._ZNK14QMediaRecorder13videoSettingsEv 0x0002c684   Data           0  QtMultimediaKit.in(.ARM.extab)
    .extab._ZNK14QMediaRecorder17containerMimeTypeEv 0x0002c6a4   Data           0  QtMultimediaKit.in(.ARM.extab)
    .extab._ZNK14QMediaRecorder8metaDataEN15QtMultimediaKit8MetaDataE 0x0002c6c4   Data           0  QtMultimediaKit.in(.ARM.extab)
    .extab._ZNK14QMediaRecorder17availableMetaDataEv 0x0002c6e4   Data           0  QtMultimediaKit.in(.ARM.extab)
    .extab._ZNK14QMediaRecorder16extendedMetaDataERK7QString 0x0002c704   Data           0  QtMultimediaKit.in(.ARM.extab)
    .extab._ZNK14QMediaRecorder25availableExtendedMetaDataEv 0x0002c724   Data           0  QtMultimediaKit.in(.ARM.extab)
    .extab._ZN5QListI5QSizeE13detach_helperEi 0x0002c744   Data           0  QtMultimediaKit.in(.ARM.extab)
    .extab._ZN5QListIfE13detach_helperEi     0x0002c760   Data           0  QtMultimediaKit.in(.ARM.extab)
    .extab._ZN21QAudioEncoderSettingsC1Ev    0x0002c77c   Data           0  QtMultimediaKit.in(.ARM.extab)
    .extab._ZN21QVideoEncoderSettingsC1Ev    0x0002c78c   Data           0  QtMultimediaKit.in(.ARM.extab)
    .extab._ZN21QImageEncoderSettingsC1Ev    0x0002c79c   Data           0  QtMultimediaKit.in(.ARM.extab)
    .extab._ZN18QSharedDataPointerI28QAudioEncoderSettingsPrivateE13detach_helperEv 0x0002c7ac   Data           0  QtMultimediaKit.in(.ARM.extab)
    .extab._ZN18QSharedDataPointerI28QVideoEncoderSettingsPrivateE13detach_helperEv 0x0002c7bc   Data           0  QtMultimediaKit.in(.ARM.extab)
    .extab._ZN18QSharedDataPointerI28QImageEncoderSettingsPrivateE13detach_helperEv 0x0002c7cc   Data           0  QtMultimediaKit.in(.ARM.extab)
    .extab._ZN13QMediaContentC1ERK4QUrl      0x0002c7dc   Data           0  QtMultimediaKit.in(.ARM.extab)
    .extab._ZN13QMediaContentC1ERK15QNetworkRequest 0x0002c804   Data           0  QtMultimediaKit.in(.ARM.extab)
    .extab._ZN13QMediaContentC1ERK14QMediaResource 0x0002c82c   Data           0  QtMultimediaKit.in(.ARM.extab)
    .extab._ZN13QMediaContentC1ERK5QListI14QMediaResourceE 0x0002c83c   Data           0  QtMultimediaKit.in(.ARM.extab)
    .extab._ZNK13QMediaContent17canonicalResourceEv 0x0002c84c   Data           0  QtMultimediaKit.in(.ARM.extab)
    .extab._ZNK13QMediaContent12canonicalUrlEv 0x0002c86c   Data           0  QtMultimediaKit.in(.ARM.extab)
    .extab._ZNK13QMediaContent16canonicalRequestEv 0x0002c87c   Data           0  QtMultimediaKit.in(.ARM.extab)
    .extab._ZNK13QMediaContent9resourcesEv   0x0002c88c   Data           0  QtMultimediaKit.in(.ARM.extab)
    .extab._ZN5QListI14QMediaResourceE9node_copyEPNS1_4NodeES3_S3_ 0x0002c89c   Data           0  QtMultimediaKit.in(.ARM.extab)
    .extab._ZN5QListI14QMediaResourceE14node_constructEPNS1_4NodeERKS0_ 0x0002c8c0   Data           0  QtMultimediaKit.in(.ARM.extab)
    .extab._ZN5QListI14QMediaResourceE18detach_helper_growEii 0x0002c8d0   Data           0  QtMultimediaKit.in(.ARM.extab)
    .extab._ZN5QListI14QMediaResourceE6appendERKS0_ 0x0002c900   Data           0  QtMultimediaKit.in(.ARM.extab)
    .extab._ZN18QSharedDataPointerI20QMediaContentPrivateE13detach_helperEv 0x0002c930   Data           0  QtMultimediaKit.in(.ARM.extab)
    .extab._ZN14QMediaResourceC1ERK4QUrlRK7QString 0x0002c940   Data           0  QtMultimediaKit.in(.ARM.extab)
    .extab._ZN14QMediaResourceC1ERK15QNetworkRequestRK7QString 0x0002c970   Data           0  QtMultimediaKit.in(.ARM.extab)
    .extab._ZNK14QMediaResource3urlEv        0x0002c9c0   Data           0  QtMultimediaKit.in(.ARM.extab)
    .extab._ZNK14QMediaResource7requestEv    0x0002c9d8   Data           0  QtMultimediaKit.in(.ARM.extab)
    .extab._ZNK14QMediaResourceeqERKS_       0x0002c9f0   Data           0  QtMultimediaKit.in(.ARM.extab)
    .extab._ZNK14QMediaResource8mimeTypeEv   0x0002ca58   Data           0  QtMultimediaKit.in(.ARM.extab)
    .extab._ZNK14QMediaResource8languageEv   0x0002ca68   Data           0  QtMultimediaKit.in(.ARM.extab)
    .extab._ZN14QMediaResource11setLanguageERK7QString 0x0002ca78   Data           0  QtMultimediaKit.in(.ARM.extab)
    .extab._ZNK14QMediaResource10audioCodecEv 0x0002ca88   Data           0  QtMultimediaKit.in(.ARM.extab)
    .extab._ZN14QMediaResource13setAudioCodecERK7QString 0x0002ca98   Data           0  QtMultimediaKit.in(.ARM.extab)
    .extab._ZNK14QMediaResource10videoCodecEv 0x0002caa8   Data           0  QtMultimediaKit.in(.ARM.extab)
    .extab._ZN14QMediaResource13setVideoCodecERK7QString 0x0002cab8   Data           0  QtMultimediaKit.in(.ARM.extab)
    .extab._ZNK14QMediaResource8dataSizeEv   0x0002cac8   Data           0  QtMultimediaKit.in(.ARM.extab)
    .extab._ZN14QMediaResource11setDataSizeEx 0x0002cad8   Data           0  QtMultimediaKit.in(.ARM.extab)
    .extab._ZNK14QMediaResource12audioBitRateEv 0x0002cae8   Data           0  QtMultimediaKit.in(.ARM.extab)
    .extab._ZN14QMediaResource15setAudioBitRateEi 0x0002caf8   Data           0  QtMultimediaKit.in(.ARM.extab)
    .extab._ZNK14QMediaResource10sampleRateEv 0x0002cb08   Data           0  QtMultimediaKit.in(.ARM.extab)
    .extab._ZN14QMediaResource13setSampleRateEi 0x0002cb18   Data           0  QtMultimediaKit.in(.ARM.extab)
    .extab._ZNK14QMediaResource12channelCountEv 0x0002cb28   Data           0  QtMultimediaKit.in(.ARM.extab)
    .extab._ZN14QMediaResource15setChannelCountEi 0x0002cb38   Data           0  QtMultimediaKit.in(.ARM.extab)
    .extab._ZNK14QMediaResource12videoBitRateEv 0x0002cb48   Data           0  QtMultimediaKit.in(.ARM.extab)
    .extab._ZN14QMediaResource15setVideoBitRateEi 0x0002cb58   Data           0  QtMultimediaKit.in(.ARM.extab)
    .extab._ZNK14QMediaResource10resolutionEv 0x0002cb68   Data           0  QtMultimediaKit.in(.ARM.extab)
    .extab._ZN14QMediaResource13setResolutionERK5QSize 0x0002cb78   Data           0  QtMultimediaKit.in(.ARM.extab)
    .extab._ZN14QMediaResource13setResolutionEii 0x0002cb88   Data           0  QtMultimediaKit.in(.ARM.extab)
    .extab._Z24qMetaTypeConstructHelperI15QNetworkRequestEPvPKT_ 0x0002cb98   Data           0  QtMultimediaKit.in(.ARM.extab)
    .extab._ZN5QListIiE13detach_helperEi     0x0002cbc0   Data           0  QtMultimediaKit.in(.ARM.extab)
    .extab._Z13qvariant_castI7QStringET_RK8QVariant 0x0002cbdc   Data           0  QtMultimediaKit.in(.ARM.extab)
    .extab._ZN4QMapIi8QVariantE11node_createEP8QMapDataPPNS2_4NodeERKiRKS0_ 0x0002cbec   Data           0  QtMultimediaKit.in(.ARM.extab)
    .extab._ZN4QMapIi8QVariantE13detach_helperEv 0x0002cc24   Data           0  QtMultimediaKit.in(.ARM.extab)
    .extab._ZNK4QMapIi8QVariantE4keysEv      0x0002cc40   Data           0  QtMultimediaKit.in(.ARM.extab)
    .extab._Z13qvariant_castI15QNetworkRequestET_RK8QVariant 0x0002cc6c   Data           0  QtMultimediaKit.in(.ARM.extab)
    .extab._Z6loaderv                        0x0002cc8c   Data           0  QtMultimediaKit.in(.ARM.extab)
    .extab._Z14pluginProviderv               0x0002ccb4   Data           0  QtMultimediaKit.in(.ARM.extab)
    .extab._ZN25QMediaServiceProviderHintC1Ev 0x0002ccd4   Data           0  QtMultimediaKit.in(.ARM.extab)
    .extab._ZN25QMediaServiceProviderHintC1ERK7QStringRK11QStringList 0x0002cce4   Data           0  QtMultimediaKit.in(.ARM.extab)
    .extab._ZN25QMediaServiceProviderHintC1ERK10QByteArray 0x0002ccf4   Data           0  QtMultimediaKit.in(.ARM.extab)
    .extab._ZN25QMediaServiceProviderHintC1E6QFlagsINS_7FeatureEE 0x0002cd04   Data           0  QtMultimediaKit.in(.ARM.extab)
    .extab._Z20qForeachContainerNewI5QListIP7QObjectEE17QForeachContainerIT_ERKS5_ 0x0002cd14   Data           0  QtMultimediaKit.in(.ARM.extab)
    .extab._ZN5QListIP27QMediaServiceProviderPluginE13detach_helperEv 0x0002cd24   Data           0  QtMultimediaKit.in(.ARM.extab)
    .extab._Z20qForeachContainerNewI5QListIP27QMediaServiceProviderPluginEE17QForeachContainerIT_ERKS5_ 0x0002cd40   Data           0  QtMultimediaKit.in(.ARM.extab)
    .extab._ZN32QMediaServiceProviderHintPrivateD1Ev 0x0002cd50   Data           0  QtMultimediaKit.in(.ARM.extab)
    .extab._ZN32QMediaServiceProviderHintPrivateC1EN25QMediaServiceProviderHint4TypeE 0x0002cd68   Data           0  QtMultimediaKit.in(.ARM.extab)
    .extab._ZN5QListIP27QMediaServiceProviderPluginE18detach_helper_growEii 0x0002cd80   Data           0  QtMultimediaKit.in(.ARM.extab)
    .extab._ZN5QListI10QByteArrayE9node_copyEPNS1_4NodeES3_S3_ 0x0002cdb0   Data           0  QtMultimediaKit.in(.ARM.extab)
    .extab._ZN5QListI10QByteArrayE18detach_helper_growEii 0x0002cdd4   Data           0  QtMultimediaKit.in(.ARM.extab)
    .extab._ZN5QListI10QByteArrayEpLERKS1_   0x0002ce04   Data           0  QtMultimediaKit.in(.ARM.extab)
    .extab._ZN5QListIP7QObjectE13detach_helperEi 0x0002ce20   Data           0  QtMultimediaKit.in(.ARM.extab)
    .extab._ZN18QSharedDataPointerI32QMediaServiceProviderHintPrivateE5cloneEv 0x0002ce3c   Data           0  QtMultimediaKit.in(.ARM.extab)
    .extab._ZN5QListI10QByteArrayE13detach_helperEv 0x0002ce5c   Data           0  QtMultimediaKit.in(.ARM.extab)
    .extab._ZN22QPluginServiceProvider14requestServiceERK10QByteArrayRK25QMediaServiceProviderHint 0x0002ce78   Data           0  QtMultimediaKit.in(.ARM.extab)
    .extab._ZNK22QPluginServiceProvider10hasSupportERK10QByteArrayRK7QStringRK11QStringListi 0x0002cfa4   Data           0  QtMultimediaKit.in(.ARM.extab)
    .extab._ZNK22QPluginServiceProvider18supportedMimeTypesERK10QByteArrayi 0x0002cfd4   Data           0  QtMultimediaKit.in(.ARM.extab)
    .extab._ZNK22QPluginServiceProvider7devicesERK10QByteArray 0x0002d014   Data           0  QtMultimediaKit.in(.ARM.extab)
    .extab._ZN22QPluginServiceProvider17deviceDescriptionERK10QByteArrayS2_ 0x0002d064   Data           0  QtMultimediaKit.in(.ARM.extab)
    .extab._ZN22QPluginServiceProviderD1Ev   0x0002d0a4   Data           0  QtMultimediaKit.in(.ARM.extab)
    .extab._ZN6QDebugD1Ev                    0x0002d0b4   Data           0  QtMultimediaKit.in(.ARM.extab)
    .extab._ZN5QListI7QStringEpLERKS1_       0x0002d0d8   Data           0  QtMultimediaKit.in(.ARM.extab)
    .extab._ZN4QMapIP13QMediaServiceP27QMediaServiceProviderPluginE13detach_helperEv 0x0002d0f4   Data           0  QtMultimediaKit.in(.ARM.extab)
    .extab._ZN22QMetaDataReaderControlC2EP7QObject 0x0002d110   Data           0  QtMultimediaKit.in(.ARM.extab)
    .extab._ZN22QMetaDataWriterControlC2EP7QObject 0x0002d120   Data           0  QtMultimediaKit.in(.ARM.extab)
    .extab._ZN20QMediaStreamsControlC2EP7QObject 0x0002d130   Data           0  QtMultimediaKit.in(.ARM.extab)
    .extab._ZN11QRadioTunerC1EP7QObjectP21QMediaServiceProvider 0x0002d140   Data           0  QtMultimediaKit.in(.ARM.extab)
    .extab._ZN11QRadioTunerD1Ev              0x0002d170   Data           0  QtMultimediaKit.in(.ARM.extab)
    .extab._ZN18QRadioTunerControlC2EP7QObject 0x0002d180   Data           0  QtMultimediaKit.in(.ARM.extab)
    .extab._ZN12QVideoWidgetC1EP7QWidget     0x0002d190   Data           0  QtMultimediaKit.in(.ARM.extab)
    .extab._ZN12QVideoWidgetD1Ev             0x0002d1a0   Data           0  QtMultimediaKit.in(.ARM.extab)
    .extab._ZN27QRendererVideoWidgetBackendC1EP13QMediaServiceP21QVideoRendererControlP7QWidget 0x0002d1b8   Data           0  QtMultimediaKit.in(.ARM.extab)
    .extab._ZN19QVideoWidgetPrivate21createRendererBackendEv 0x0002d1d0   Data           0  QtMultimediaKit.in(.ARM.extab)
    .extab._ZN12QVideoWidget10paintEventEP11QPaintEvent 0x0002d1e0   Data           0  QtMultimediaKit.in(.ARM.extab)
    .extab._ZN25QWindowVideoWidgetBackendC1EP13QMediaServiceP19QVideoWindowControlP7QWidget 0x0002d1f0   Data           0  QtMultimediaKit.in(.ARM.extab)
    .extab._ZN19QVideoWidgetPrivate19createWindowBackendEv 0x0002d200   Data           0  QtMultimediaKit.in(.ARM.extab)
    .extab._ZN26QVideoWidgetControlBackendC1EP13QMediaServiceP19QVideoWidgetControlP7QWidget 0x0002d210   Data           0  QtMultimediaKit.in(.ARM.extab)
    .extab._ZN19QVideoWidgetPrivate19createWidgetBackendEv 0x0002d230   Data           0  QtMultimediaKit.in(.ARM.extab)
    .extab._ZN12QVideoWidgetC1ER19QVideoWidgetPrivateP7QWidget 0x0002d240   Data           0  QtMultimediaKit.in(.ARM.extab)
    .extab._ZN27QRendererVideoWidgetBackendD1Ev 0x0002d268   Data           0  QtMultimediaKit.in(.ARM.extab)
    .extab._ZNK27QRendererVideoWidgetBackend8sizeHintEv 0x0002d278   Data           0  QtMultimediaKit.in(.ARM.extab)
    .extab._ZN27QRendererVideoWidgetBackend10paintEventEP11QPaintEvent 0x0002d288   Data           0  QtMultimediaKit.in(.ARM.extab)
    .extab._ZN25QWindowVideoWidgetBackend10paintEventEP11QPaintEvent 0x0002d2e8   Data           0  QtMultimediaKit.in(.ARM.extab)
    .extab._ZN7QVectorI5QRectE7reallocEii    0x0002d2f8   Data           0  QtMultimediaKit.in(.ARM.extab)
    .extab._ZN19QAudioCaptureSourceC1EP7QObjectP21QMediaServiceProvider 0x0002d330   Data           0  QtMultimediaKit.in(.ARM.extab)
    .extab._ZN19QAudioCaptureSourceD1Ev      0x0002d360   Data           0  QtMultimediaKit.in(.ARM.extab)
    .extab._ZNK19QAudioCaptureSource11audioInputsEv 0x0002d370   Data           0  QtMultimediaKit.in(.ARM.extab)
    .extab._ZN21QMediaPlaylistControlC2EP7QObject 0x0002d390   Data           0  QtMultimediaKit.in(.ARM.extab)
    .extab._ZN27QMediaPlaylistSourceControlC2EP7QObject 0x0002d3a0   Data           0  QtMultimediaKit.in(.ARM.extab)
    .extab._Z18staticMediaPluginsv           0x0002d3b0   Data           0  QtMultimediaKit.in(.ARM.extab)
    .extab._ZN10DirChecker8checkDirERK4QDir  0x0002d3c8   Data           0  QtMultimediaKit.in(.ARM.extab)
    .extab._ZNK18QMediaPluginLoader16availablePluginsEv 0x0002d3e0   Data           0  QtMultimediaKit.in(.ARM.extab)
    .extab._ZN18QMediaPluginLoader4loadEv    0x0002d480   Data           0  QtMultimediaKit.in(.ARM.extab)
    .extab._ZN18QMediaPluginLoaderC1EPKcRK7QStringN2Qt15CaseSensitivityE 0x0002d500   Data           0  QtMultimediaKit.in(.ARM.extab)
    .extab._ZNK18QMediaPluginLoader4keysEv   0x0002d540   Data           0  QtMultimediaKit.in(.ARM.extab)
    .extab._ZN18QMediaPluginLoader16setStaticPluginsERK7QStringRK5QListIP7QObjectE 0x0002d550   Data           0  QtMultimediaKit.in(.ARM.extab)
    .extab._ZN5QListI7QStringE13detach_helperEi 0x0002d570   Data           0  QtMultimediaKit.in(.ARM.extab)
    .extab._Z20qForeachContainerNewI11QStringListE17QForeachContainerIT_ERKS2_ 0x0002d58c   Data           0  QtMultimediaKit.in(.ARM.extab)
    .extab._ZN5QListIP7QObjectE13detach_helperEv 0x0002d59c   Data           0  QtMultimediaKit.in(.ARM.extab)
    .extab._ZN5QListIP7QObjectE18detach_helper_growEii 0x0002d5b8   Data           0  QtMultimediaKit.in(.ARM.extab)
    .extab._ZN4QMapI7QStringP7QObjectE11node_createEP8QMapDataPPNS4_4NodeERKS0_RKS2_ 0x0002d5e8   Data           0  QtMultimediaKit.in(.ARM.extab)
    .extab._ZN4QMapI7QString5QListIP7QObjectEE11node_createEP8QMapDataPPNS6_4NodeERKS0_RKS4_ 0x0002d60c   Data           0  QtMultimediaKit.in(.ARM.extab)
    .extab._ZN4QMapI7QStringP7QObjectE13detach_helperEv 0x0002d658   Data           0  QtMultimediaKit.in(.ARM.extab)
    .extab._ZNK4QMapI7QStringP7QObjectE4keysEv 0x0002d674   Data           0  QtMultimediaKit.in(.ARM.extab)
    .extab._ZNK4QMapI7QStringP7QObjectE6valuesERKS0_ 0x0002d684   Data           0  QtMultimediaKit.in(.ARM.extab)
    .extab._ZN4QMapI7QString5QListIP7QObjectEE13detach_helperEv 0x0002d6b0   Data           0  QtMultimediaKit.in(.ARM.extab)
    .extab._ZN20QPainterVideoSurfaceD1Ev     0x0002d6cc   Data           0  QtMultimediaKit.in(.ARM.extab)
    .extab._ZN27QVideoSurfaceGenericPainterC1Ev 0x0002d6dc   Data           0  QtMultimediaKit.in(.ARM.extab)
    .extab._ZN20QPainterVideoSurface13createPainterEv 0x0002d6fc   Data           0  QtMultimediaKit.in(.ARM.extab)
    .extab._ZN20QPainterVideoSurface5paintEP8QPainterRK6QRectFS4_ 0x0002d70c   Data           0  QtMultimediaKit.in(.ARM.extab)
    .extab._ZN27QVideoSurfaceGenericPainter5startERK19QVideoSurfaceFormat 0x0002d71c   Data           0  QtMultimediaKit.in(.ARM.extab)
    .extab._ZN27QVideoSurfaceGenericPainter4stopEv 0x0002d72c   Data           0  QtMultimediaKit.in(.ARM.extab)
    .extab._ZN27QVideoSurfaceGenericPainter5paintERK6QRectFP8QPainterS2_ 0x0002d73c   Data           0  QtMultimediaKit.in(.ARM.extab)
    .extab._ZN5QListIN11QVideoFrame11PixelFormatEE18detach_helper_growEii 0x0002d76c   Data           0  QtMultimediaKit.in(.ARM.extab)
    .extab._ZN27QVideoSurfaceGenericPainterD1Ev 0x0002d79c   Data           0  QtMultimediaKit.in(.ARM.extab)
    .extab._ZN5QListIN11QVideoFrame11PixelFormatEE13detach_helperEv 0x0002d7b4   Data           0  QtMultimediaKit.in(.ARM.extab)
    .extab._ZN5QListIN11QVideoFrame11PixelFormatEE6appendERKS1_ 0x0002d7d0   Data           0  QtMultimediaKit.in(.ARM.extab)
    .extab._ZeqRK15QMediaTimeRangeS1_        0x0002d800   Data           0  QtMultimediaKit.in(.ARM.extab)
    .extab._ZN22QMediaTimeRangePrivate11addIntervalERK18QMediaTimeInterval 0x0002d840   Data           0  QtMultimediaKit.in(.ARM.extab)
    .extab._ZN15QMediaTimeRange12addTimeRangeERKS_ 0x0002d870   Data           0  QtMultimediaKit.in(.ARM.extab)
    .extab._ZplRK15QMediaTimeRangeS1_        0x0002d888   Data           0  QtMultimediaKit.in(.ARM.extab)
    .extab._ZN15QMediaTimeRange15removeTimeRangeERKS_ 0x0002d898   Data           0  QtMultimediaKit.in(.ARM.extab)
    .extab._ZmiRK15QMediaTimeRangeS1_        0x0002d8b0   Data           0  QtMultimediaKit.in(.ARM.extab)
    .extab._ZN15QMediaTimeRangeC1Ev          0x0002d8c0   Data           0  QtMultimediaKit.in(.ARM.extab)
    .extab._ZN22QMediaTimeRangePrivateC1ERK18QMediaTimeInterval 0x0002d8d0   Data           0  QtMultimediaKit.in(.ARM.extab)
    .extab._ZN15QMediaTimeRangeC1Exx         0x0002d8e0   Data           0  QtMultimediaKit.in(.ARM.extab)
    .extab._ZN15QMediaTimeRangeC1ERK18QMediaTimeInterval 0x0002d8f0   Data           0  QtMultimediaKit.in(.ARM.extab)
    .extab._ZN15QMediaTimeRangeaSERK18QMediaTimeInterval 0x0002d900   Data           0  QtMultimediaKit.in(.ARM.extab)
    .extab._ZN15QMediaTimeRange5clearEv      0x0002d910   Data           0  QtMultimediaKit.in(.ARM.extab)
    .extab._ZN5QListI18QMediaTimeIntervalE9node_copyEPNS1_4NodeES3_S3_ 0x0002d920   Data           0  QtMultimediaKit.in(.ARM.extab)
    .extab._ZN5QListI18QMediaTimeIntervalE13detach_helperEv 0x0002d944   Data           0  QtMultimediaKit.in(.ARM.extab)
    .extab._Z20qForeachContainerNewI5QListI18QMediaTimeIntervalEE17QForeachContainerIT_ERKS4_ 0x0002d960   Data           0  QtMultimediaKit.in(.ARM.extab)
    .extab._ZN18QSharedDataPointerI22QMediaTimeRangePrivateEptEv 0x0002d970   Data           0  QtMultimediaKit.in(.ARM.extab)
    .extab._ZN5QListI18QMediaTimeIntervalE14node_constructEPNS1_4NodeERKS0_ 0x0002d980   Data           0  QtMultimediaKit.in(.ARM.extab)
    .extab._ZN5QListI18QMediaTimeIntervalE18detach_helper_growEii 0x0002d990   Data           0  QtMultimediaKit.in(.ARM.extab)
    .extab._ZN5QListI18QMediaTimeIntervalE6appendERKS0_ 0x0002d9c0   Data           0  QtMultimediaKit.in(.ARM.extab)
    .extab._ZN14QCameraPrivate14_q_updateStateEN7QCamera5StateE 0x0002d9f0   Data           0  QtMultimediaKit.in(.ARM.extab)
    .extab._ZN14QCameraPrivate16updateLockStatusEv 0x0002da00   Data           0  QtMultimediaKit.in(.ARM.extab)
    .extab._ZN14QCameraPrivate8_q_errorEiRK7QString 0x0002da38   Data           0  QtMultimediaKit.in(.ARM.extab)
    .extab._ZN14QCameraPrivate8setStateEN7QCamera5StateE 0x0002da48   Data           0  QtMultimediaKit.in(.ARM.extab)
    .extab._ZN14QCameraPrivate12initControlsEv 0x0002da60   Data           0  QtMultimediaKit.in(.ARM.extab)
    .extab._ZN7QCameraC1EP7QObjectP21QMediaServiceProvider 0x0002da70   Data           0  QtMultimediaKit.in(.ARM.extab)
    .extab._ZN7QCameraC1ERK10QByteArrayP7QObject 0x0002dab8   Data           0  QtMultimediaKit.in(.ARM.extab)
    .extab._ZN7QCameraD1Ev                   0x0002db20   Data           0  QtMultimediaKit.in(.ARM.extab)
    .extab._ZN7QCamera16availableDevicesEv   0x0002db30   Data           0  QtMultimediaKit.in(.ARM.extab)
    .extab._ZN7QCamera17deviceDescriptionERK10QByteArray 0x0002db40   Data           0  QtMultimediaKit.in(.ARM.extab)
    .extab._ZN6QDebugC1E9QtMsgType           0x0002db50   Data           0  QtMultimediaKit.in(.ARM.extab)
    .extab._ZN6QDebuglsEPKc                  0x0002db68   Data           0  QtMultimediaKit.in(.ARM.extab)
    .extab._ZN5QListIN7QCamera10LockStatusEE18detach_helper_growEii 0x0002db78   Data           0  QtMultimediaKit.in(.ARM.extab)
    .extab._ZN14QCameraPrivateC1Ev           0x0002dba8   Data           0  QtMultimediaKit.in(.ARM.extab)
    .extab._ZN5QListIN7QCamera10LockStatusEE13detach_helperEv 0x0002dbb8   Data           0  QtMultimediaKit.in(.ARM.extab)
    .extab._ZN5QListIN7QCamera10LockStatusEE6appendERKS1_ 0x0002dbd4   Data           0  QtMultimediaKit.in(.ARM.extab)
    .extab._ZN4QMapIN7QCamera10LockStatusEiE13detach_helperEv 0x0002dc04   Data           0  QtMultimediaKit.in(.ARM.extab)
    .extab._ZN14QCameraPrivateD1Ev           0x0002dc20   Data           0  QtMultimediaKit.in(.ARM.extab)
    .extab._ZN17QCameraViewfinderC1EP7QWidget 0x0002dc30   Data           0  QtMultimediaKit.in(.ARM.extab)
    .extab._ZN15QCameraExposure23setExposureCompensationEf 0x0002dc40   Data           0  QtMultimediaKit.in(.ARM.extab)
    .extab._ZNK15QCameraExposure20exposureCompensationEv 0x0002dc50   Data           0  QtMultimediaKit.in(.ARM.extab)
    .extab._ZNK15QCameraExposure14isoSensitivityEv 0x0002dc60   Data           0  QtMultimediaKit.in(.ARM.extab)
    .extab._ZNK15QCameraExposure12shutterSpeedEv 0x0002dc70   Data           0  QtMultimediaKit.in(.ARM.extab)
    .extab._ZNK15QCameraExposure8apertureEv  0x0002dc80   Data           0  QtMultimediaKit.in(.ARM.extab)
    .extab._ZN15QCameraExposure19setAutoShutterSpeedEv 0x0002dc90   Data           0  QtMultimediaKit.in(.ARM.extab)
    .extab._ZN15QCameraExposure21setManualShutterSpeedEf 0x0002dca0   Data           0  QtMultimediaKit.in(.ARM.extab)
    .extab._ZN15QCameraExposure15setAutoApertureEv 0x0002dcb0   Data           0  QtMultimediaKit.in(.ARM.extab)
    .extab._ZN15QCameraExposure17setManualApertureEf 0x0002dcc0   Data           0  QtMultimediaKit.in(.ARM.extab)
    .extab._ZN15QCameraExposure21setAutoIsoSensitivityEv 0x0002dcd0   Data           0  QtMultimediaKit.in(.ARM.extab)
    .extab._ZN15QCameraExposure23setManualIsoSensitivityEi 0x0002dce0   Data           0  QtMultimediaKit.in(.ARM.extab)
    .extab._ZNK15QCameraExposure25supportedIsoSensitivitiesEPb 0x0002dcf0   Data           0  QtMultimediaKit.in(.ARM.extab)
    .extab._ZNK15QCameraExposure18supportedAperturesEPb 0x0002dd4c   Data           0  QtMultimediaKit.in(.ARM.extab)
    .extab._ZNK15QCameraExposure22supportedShutterSpeedsEPb 0x0002dd8c   Data           0  QtMultimediaKit.in(.ARM.extab)
    .extab._ZN15QCameraExposureC1EP7QCamera  0x0002ddcc   Data           0  QtMultimediaKit.in(.ARM.extab)
    .extab._ZN15QCameraExposureD1Ev          0x0002dddc   Data           0  QtMultimediaKit.in(.ARM.extab)
    .extab._ZN5QListI8QVariantE13detach_helperEi 0x0002ddec   Data           0  QtMultimediaKit.in(.ARM.extab)
    .extab._Z20qForeachContainerNewI5QListI8QVariantEE17QForeachContainerIT_ERKS4_ 0x0002de30   Data           0  QtMultimediaKit.in(.ARM.extab)
    .extab._ZN5QListIfE18detach_helper_growEii 0x0002de40   Data           0  QtMultimediaKit.in(.ARM.extab)
    .extab._ZN5QListIfE6appendERKf           0x0002de70   Data           0  QtMultimediaKit.in(.ARM.extab)
    .extab._ZN16QCameraFocusZoneC1Ev         0x0002de8c   Data           0  QtMultimediaKit.in(.ARM.extab)
    .extab._ZN16QCameraFocusZoneC1ERK6QRectFNS_15FocusZoneStatusE 0x0002de9c   Data           0  QtMultimediaKit.in(.ARM.extab)
    .extab._ZNK12QCameraFocus10focusZonesEv  0x0002deac   Data           0  QtMultimediaKit.in(.ARM.extab)
    .extab._ZN12QCameraFocus11qt_metacallEN11QMetaObject4CallEiPPv 0x0002decc   Data           0  QtMultimediaKit.in(.ARM.extab)
    .extab._ZN12QCameraFocusC1EP7QCamera     0x0002dedc   Data           0  QtMultimediaKit.in(.ARM.extab)
    .extab._ZN5QListI16QCameraFocusZoneE13detach_helperEi 0x0002def4   Data           0  QtMultimediaKit.in(.ARM.extab)
    .extab._ZN18QSharedDataPointerI20QCameraFocusZoneDataE13detach_helperEv 0x0002df38   Data           0  QtMultimediaKit.in(.ARM.extab)
    .extab._ZNK22QCameraImageProcessing18manualWhiteBalanceEv 0x0002df48   Data           0  QtMultimediaKit.in(.ARM.extab)
    .extab._ZN22QCameraImageProcessing21setManualWhiteBalanceEi 0x0002df68   Data           0  QtMultimediaKit.in(.ARM.extab)
    .extab._ZNK22QCameraImageProcessing8contrastEv 0x0002df78   Data           0  QtMultimediaKit.in(.ARM.extab)
    .extab._ZN22QCameraImageProcessing11setContrastEi 0x0002df98   Data           0  QtMultimediaKit.in(.ARM.extab)
    .extab._ZNK22QCameraImageProcessing10saturationEv 0x0002dfa8   Data           0  QtMultimediaKit.in(.ARM.extab)
    .extab._ZN22QCameraImageProcessing13setSaturationEi 0x0002dfc8   Data           0  QtMultimediaKit.in(.ARM.extab)
    .extab._ZNK22QCameraImageProcessing15sharpeningLevelEv 0x0002dfd8   Data           0  QtMultimediaKit.in(.ARM.extab)
    .extab._ZN22QCameraImageProcessing18setSharpeningLevelEi 0x0002e000   Data           0  QtMultimediaKit.in(.ARM.extab)
    .extab._ZNK22QCameraImageProcessing14denoisingLevelEv 0x0002e030   Data           0  QtMultimediaKit.in(.ARM.extab)
    .extab._ZN22QCameraImageProcessing17setDenoisingLevelEi 0x0002e058   Data           0  QtMultimediaKit.in(.ARM.extab)
    .extab._ZN22QCameraImageProcessingC1EP7QCamera 0x0002e088   Data           0  QtMultimediaKit.in(.ARM.extab)
    .extab._ZN19QCameraImageCapture13cancelCaptureEv 0x0002e0a0   Data           0  QtMultimediaKit.in(.ARM.extab)
    .extab._ZN19QCameraImageCapture7captureERK7QString 0x0002e0b0   Data           0  QtMultimediaKit.in(.ARM.extab)
    .extab._ZN19QCameraImageCapture11qt_metacallEN11QMetaObject4CallEiPPv 0x0002e0c0   Data           0  QtMultimediaKit.in(.ARM.extab)
    .extab._ZN19QCameraImageCaptureC1EP12QMediaObjectP7QObject 0x0002e0d0   Data           0  QtMultimediaKit.in(.ARM.extab)
    .extab._ZN19QCameraImageCaptureD1Ev      0x0002e0e8   Data           0  QtMultimediaKit.in(.ARM.extab)
    .extab._ZNK19QCameraImageCapture20supportedImageCodecsEv 0x0002e100   Data           0  QtMultimediaKit.in(.ARM.extab)
    .extab._ZNK19QCameraImageCapture21imageCodecDescriptionERK7QString 0x0002e120   Data           0  QtMultimediaKit.in(.ARM.extab)
    .extab._ZNK19QCameraImageCapture20supportedResolutionsERK21QImageEncoderSettingsPb 0x0002e140   Data           0  QtMultimediaKit.in(.ARM.extab)
    .extab._ZNK19QCameraImageCapture16encodingSettingsEv 0x0002e160   Data           0  QtMultimediaKit.in(.ARM.extab)
    .extab._ZN26QCameraImageCapturePrivate10unsetErrorEv 0x0002e180   Data           0  QtMultimediaKit.in(.ARM.extab)
    .extab._ZN14QCameraControlC2EP7QObject   0x0002e190   Data           0  QtMultimediaKit.in(.ARM.extab)
    .extab._ZN19QCameraLocksControlC2EP7QObject 0x0002e1a0   Data           0  QtMultimediaKit.in(.ARM.extab)
    .extab._ZN22QCameraExposureControlC2EP7QObject 0x0002e1b0   Data           0  QtMultimediaKit.in(.ARM.extab)
    .extab._ZN19QCameraFocusControlC2EP7QObject 0x0002e1c0   Data           0  QtMultimediaKit.in(.ARM.extab)
    .extab._ZN19QCameraFlashControlC2EP7QObject 0x0002e1d0   Data           0  QtMultimediaKit.in(.ARM.extab)
    .extab._ZN29QCameraImageProcessingControlC2EP7QObject 0x0002e1e0   Data           0  QtMultimediaKit.in(.ARM.extab)
    .extab._ZN18QGraphicsVideoItemC1EP13QGraphicsItem 0x0002e1f0   Data           0  QtMultimediaKit.in(.ARM.extab)
    .extab._ZN18QGraphicsVideoItemD1Ev       0x0002e208   Data           0  QtMultimediaKit.in(.ARM.extab)
    .extab._ZN25QGraphicsVideoItemPrivate18updateEventFiltersEv 0x0002e220   Data           0  QtMultimediaKit.in(.ARM.extab)
    .extab._ZN18QGraphicsVideoItem5paintEP8QPainterPK24QStyleOptionGraphicsItemP7QWidget 0x0002e250   Data           0  QtMultimediaKit.in(.ARM.extab)
    .extab._ZN18QGraphicsVideoItem14setMediaObjectEP12QMediaObject 0x0002e288   Data           0  QtMultimediaKit.in(.ARM.extab)
    .extab._ZN25QGraphicsVideoItemPrivate11eventFilterEP7QObjectP6QEvent 0x0002e2a0   Data           0  QtMultimediaKit.in(.ARM.extab)
    .extab._ZN5QListI8QPointerI7QObjectEE9node_copyEPNS3_4NodeES5_S5_ 0x0002e2b0   Data           0  QtMultimediaKit.in(.ARM.extab)
    .extab._ZN5QListI8QPointerI7QObjectEE13detach_helperEv 0x0002e2d4   Data           0  QtMultimediaKit.in(.ARM.extab)
    .extab._Z20qForeachContainerNewI5QListI8QPointerI7QObjectEEE17QForeachContainerIT_ERKS6_ 0x0002e2f0   Data           0  QtMultimediaKit.in(.ARM.extab)
    .extab._ZN5QListI8QPointerI7QObjectEE14node_constructEPNS3_4NodeERKS2_ 0x0002e300   Data           0  QtMultimediaKit.in(.ARM.extab)
    .extab._ZN5QListI8QPointerI7QObjectEE18detach_helper_growEii 0x0002e310   Data           0  QtMultimediaKit.in(.ARM.extab)
    .extab._ZN25QGraphicsVideoItemPrivateD1Ev 0x0002e340   Data           0  QtMultimediaKit.in(.ARM.extab)
    .extab._ZN15QGraphicsObjectD2Ev          0x0002e358   Data           0  QtMultimediaKit.in(.ARM.extab)
    .extab._ZN25QGraphicsVideoItemPrivateC1Ev 0x0002e368   Data           0  QtMultimediaKit.in(.ARM.extab)
    .extab._ZN5QListI8QPointerI7QObjectEE6appendERKS2_ 0x0002e380   Data           0  QtMultimediaKit.in(.ARM.extab)
    .extab._ZN5QListIP13QGraphicsViewE13detach_helperEi 0x0002e3b0   Data           0  QtMultimediaKit.in(.ARM.extab)
    .extab._ZN12QAudioFormatC1Ev             0x0002e3cc   Data           0  QtMultimediaKit.in(.ARM.extab)
    .extab._ZN18QSharedDataPointerI19QAudioFormatPrivateE13detach_helperEv 0x0002e3dc   Data           0  QtMultimediaKit.in(.ARM.extab)
    .extab._ZN16QAudioDeviceInfoC1Ev         0x0002e3ec   Data           0  QtMultimediaKit.in(.ARM.extab)
    .extab._ZNK16QAudioDeviceInfo10deviceNameEv 0x0002e404   Data           0  QtMultimediaKit.in(.ARM.extab)
    .extab._ZNK16QAudioDeviceInfo15preferredFormatEv 0x0002e424   Data           0  QtMultimediaKit.in(.ARM.extab)
    .extab._ZNK16QAudioDeviceInfo20supportedSampleSizesEv 0x0002e444   Data           0  QtMultimediaKit.in(.ARM.extab)
    .extab._ZNK16QAudioDeviceInfo20supportedFrequenciesEv 0x0002e464   Data           0  QtMultimediaKit.in(.ARM.extab)
    .extab._ZNK16QAudioDeviceInfo20supportedSampleTypesEv 0x0002e484   Data           0  QtMultimediaKit.in(.ARM.extab)
    .extab._ZNK16QAudioDeviceInfo19supportedByteOrdersEv 0x0002e4a4   Data           0  QtMultimediaKit.in(.ARM.extab)
    .extab._ZNK16QAudioDeviceInfo17supportedChannelsEv 0x0002e4c4   Data           0  QtMultimediaKit.in(.ARM.extab)
    .extab._ZNK16QAudioDeviceInfo15supportedCodecsEv 0x0002e4e4   Data           0  QtMultimediaKit.in(.ARM.extab)
    .extab._ZNK16QAudioDeviceInfo13nearestFormatERK12QAudioFormat 0x0002e504   Data           0  QtMultimediaKit.in(.ARM.extab)
    .extab._ZN16QAudioDeviceInfoC1ERK7QStringRK10QByteArrayN6QAudio4ModeE 0x0002e758   Data           0  QtMultimediaKit.in(.ARM.extab)
    .extab._Z20qForeachContainerNewI5QListIiEE17QForeachContainerIT_ERKS3_ 0x0002e778   Data           0  QtMultimediaKit.in(.ARM.extab)
    .extab._ZN5QListIN12QAudioFormat6EndianEE13detach_helperEv 0x0002e788   Data           0  QtMultimediaKit.in(.ARM.extab)
    .extab._ZN23QAudioDeviceInfoPrivateD1Ev  0x0002e7a4   Data           0  QtMultimediaKit.in(.ARM.extab)
    .extab._ZN5QListIN12QAudioFormat10SampleTypeEE18detach_helper_growEii 0x0002e7bc   Data           0  QtMultimediaKit.in(.ARM.extab)
    .extab._ZN5QListIN12QAudioFormat10SampleTypeEE6appendERKS1_ 0x0002e7ec   Data           0  QtMultimediaKit.in(.ARM.extab)
    .extab._ZN5QListIN12QAudioFormat6EndianEE18detach_helper_growEii 0x0002e81c   Data           0  QtMultimediaKit.in(.ARM.extab)
    .extab._ZN5QListI7QStringE9removeAllERKS0_ 0x0002e84c   Data           0  QtMultimediaKit.in(.ARM.extab)
    .extab._ZN5QListIN12QAudioFormat10SampleTypeEE13detach_helperEv 0x0002e85c   Data           0  QtMultimediaKit.in(.ARM.extab)
    .extab._ZN4QMapIiiE13detach_helperEv     0x0002e878   Data           0  QtMultimediaKit.in(.ARM.extab)
    .extab._ZN12QAudioOutputC1ERK12QAudioFormatP7QObject 0x0002e894   Data           0  QtMultimediaKit.in(.ARM.extab)
    .extab._ZN12QAudioOutputC1ERK16QAudioDeviceInfoRK12QAudioFormatP7QObject 0x0002e8a4   Data           0  QtMultimediaKit.in(.ARM.extab)
    .extab._ZN12QAudioOutputD1Ev             0x0002e8b4   Data           0  QtMultimediaKit.in(.ARM.extab)
    .extab._ZN11QAudioInputC1ERK12QAudioFormatP7QObject 0x0002e8c4   Data           0  QtMultimediaKit.in(.ARM.extab)
    .extab._ZN11QAudioInputC1ERK16QAudioDeviceInfoRK12QAudioFormatP7QObject 0x0002e8d4   Data           0  QtMultimediaKit.in(.ARM.extab)
    .extab._ZN11QAudioInputD1Ev              0x0002e8e4   Data           0  QtMultimediaKit.in(.ARM.extab)
    .extab._Z11audioLoaderv                  0x0002e8f4   Data           0  QtMultimediaKit.in(.ARM.extab)
    .extab._ZN19QAudioDeviceFactory16availableDevicesEN6QAudio4ModeE 0x0002e91c   Data           0  QtMultimediaKit.in(.ARM.extab)
    .extab._ZN19QAudioDeviceFactory18defaultInputDeviceEv 0x0002e9c4   Data           0  QtMultimediaKit.in(.ARM.extab)
    .extab._ZN19QAudioDeviceFactory19defaultOutputDeviceEv 0x0002ea04   Data           0  QtMultimediaKit.in(.ARM.extab)
    .extab._ZN19QAudioDeviceFactory15audioDeviceInfoERK7QStringRK10QByteArrayN6QAudio4ModeE 0x0002ea44   Data           0  QtMultimediaKit.in(.ARM.extab)
    .extab._ZN19QAudioDeviceFactory17createInputDeviceERK16QAudioDeviceInfoRK12QAudioFormat 0x0002ea6c   Data           0  QtMultimediaKit.in(.ARM.extab)
    .extab._ZN19QAudioDeviceFactory24createDefaultInputDeviceERK12QAudioFormat 0x0002eab4   Data           0  QtMultimediaKit.in(.ARM.extab)
    .extab._ZN19QAudioDeviceFactory18createOutputDeviceERK16QAudioDeviceInfoRK12QAudioFormat 0x0002eac4   Data           0  QtMultimediaKit.in(.ARM.extab)
    .extab._ZN19QAudioDeviceFactory25createDefaultOutputDeviceERK12QAudioFormat 0x0002eb0c   Data           0  QtMultimediaKit.in(.ARM.extab)
    .extab._Z8qWarningv                      0x0002eb1c   Data           0  QtMultimediaKit.in(.ARM.extab)
    .extab._Z20qForeachContainerNewI5QListI10QByteArrayEE17QForeachContainerIT_ERKS4_ 0x0002eb34   Data           0  QtMultimediaKit.in(.ARM.extab)
    .extab._ZN5QListI16QAudioDeviceInfoE14node_constructEPNS1_4NodeERKS0_ 0x0002eb44   Data           0  QtMultimediaKit.in(.ARM.extab)
    .extab._ZN5QListI16QAudioDeviceInfoE9node_copyEPNS1_4NodeES3_S3_ 0x0002eb54   Data           0  QtMultimediaKit.in(.ARM.extab)
    .extab._ZN5QListI16QAudioDeviceInfoE18detach_helper_growEii 0x0002eb78   Data           0  QtMultimediaKit.in(.ARM.extab)
    .extab._ZN5QListI16QAudioDeviceInfoE6appendERKS0_ 0x0002eba8   Data           0  QtMultimediaKit.in(.ARM.extab)
    .extab._ZNK15QNullDeviceInfo15preferredFormatEv 0x0002ebd8   Data           0  QtMultimediaKit.in(.ARM.extab)
    .extab._ZN16QNullInputDevice5startEP9QIODevice 0x0002ebe8   Data           0  QtMultimediaKit.in(.ARM.extab)
    .extab._ZN16QNullInputDevice5startEv     0x0002ebf8   Data           0  QtMultimediaKit.in(.ARM.extab)
    .extab._ZN17QNullOutputDevice5startEP9QIODevice 0x0002ec08   Data           0  QtMultimediaKit.in(.ARM.extab)
    .extab._ZN17QNullOutputDevice5startEv    0x0002ec18   Data           0  QtMultimediaKit.in(.ARM.extab)
    .extab._ZNK18QAudioPluginLoader10pluginListEv 0x0002ec28   Data           0  QtMultimediaKit.in(.ARM.extab)
    .extab._ZN18QAudioPluginLoader4loadEv    0x0002ec98   Data           0  QtMultimediaKit.in(.ARM.extab)
    .extab._ZN18QAudioPluginLoaderC1EPKcRK7QStringN2Qt15CaseSensitivityE 0x0002eccc   Data           0  QtMultimediaKit.in(.ARM.extab)
    .extab._ZN18QAudioPluginLoaderD1Ev       0x0002ed1c   Data           0  QtMultimediaKit.in(.ARM.extab)
    .extab._ZNK18QAudioPluginLoader4keysEv   0x0002ed44   Data           0  QtMultimediaKit.in(.ARM.extab)
    .extab._ZN18QAudioPluginLoader8instanceERK7QString 0x0002ed6c   Data           0  QtMultimediaKit.in(.ARM.extab)
    .extab._ZN18QAudioPluginLoader9instancesERK7QString 0x0002ed94   Data           0  QtMultimediaKit.in(.ARM.extab)
    .extab._ZN5QListIP13QPluginLoaderE18detach_helper_growEii 0x0002ede0   Data           0  QtMultimediaKit.in(.ARM.extab)
    .extab._ZN5QHashI7QString15QHashDummyValueE6insertERKS0_RKS1_ 0x0002ee10   Data           0  QtMultimediaKit.in(.ARM.extab)
    .extab._ZN5QHashI7QString15QHashDummyValueE13duplicateNodeEPN9QHashData4NodeEPv 0x0002ee20   Data           0  QtMultimediaKit.in(.ARM.extab)
    .extab._ZN12SymbianAudio15DevSoundWrapper18getSupportedCodecsEv 0x0002ee30   Data           0  QtMultimediaKit.in(.ARM.extab)
    .extab._ZN12SymbianAudio15DevSoundWrapperC1EN6QAudio4ModeEP7QObject 0x0002ee40   Data           0  QtMultimediaKit.in(.ARM.extab)
    .extab._ZN12SymbianAudio15DevSoundWrapperD1Ev 0x0002eea0   Data           0  QtMultimediaKit.in(.ARM.extab)
    .extab._ZN12SymbianAudio15DevSoundWrapper10initializeERK7QString 0x0002eee0   Data           0  QtMultimediaKit.in(.ARM.extab)
    .extab._ZNK12SymbianAudio15DevSoundWrapper17isFormatSupportedERK12QAudioFormat 0x0002ef08   Data           0  QtMultimediaKit.in(.ARM.extab)
    .extab._ZN12SymbianAudio5Utils16formatQtToNativeERK12QAudioFormatRmR16TMMFCapabilities 0x0002ef18   Data           0  QtMultimediaKit.in(.ARM.extab)
    .extab._ZN12SymbianAudio15DevSoundWrapper9setFormatERK12QAudioFormat 0x0002ef28   Data           0  QtMultimediaKit.in(.ARM.extab)
    .extab._ZN12SymbianAudio15DevSoundWrapper5startEv 0x0002ef50   Data           0  QtMultimediaKit.in(.ARM.extab)
    .extab._ZN5QListIiEpLERKi                0x0002ef98   Data           0  QtMultimediaKit.in(.ARM.extab)
    .extab._ZN5QListIN12QAudioFormat10SampleTypeEE5clearEv 0x0002efb4   Data           0  QtMultimediaKit.in(.ARM.extab)
    .extab._ZN5QListIN12QAudioFormat6EndianEE5clearEv 0x0002efc4   Data           0  QtMultimediaKit.in(.ARM.extab)
    .extab._ZN5QListIN12QAudioFormat6EndianEE6appendERKS1_ 0x0002efd4   Data           0  QtMultimediaKit.in(.ARM.extab)
    .extab._ZN24QAudioDeviceInfoInternalC1E10QByteArrayN6QAudio4ModeE 0x0002f004   Data           0  QtMultimediaKit.in(.ARM.extab)
    .extab._ZN24QAudioDeviceInfoInternalD1Ev 0x0002f024   Data           0  QtMultimediaKit.in(.ARM.extab)
    .extab._ZNK24QAudioDeviceInfoInternal15preferredFormatEv 0x0002f044   Data           0  QtMultimediaKit.in(.ARM.extab)
    .extab._ZNK24QAudioDeviceInfoInternal19getSupportedFormatsEv 0x0002f0b4   Data           0  QtMultimediaKit.in(.ARM.extab)
    .extab._ZNK24QAudioDeviceInfoInternal17isFormatSupportedERK12QAudioFormat 0x0002f0dc   Data           0  QtMultimediaKit.in(.ARM.extab)
    .extab._ZN24QAudioDeviceInfoInternal15supportedCodecsEv 0x0002f0f4   Data           0  QtMultimediaKit.in(.ARM.extab)
    .extab._ZN24QAudioDeviceInfoInternal16availableDevicesEN6QAudio4ModeE 0x0002f104   Data           0  QtMultimediaKit.in(.ARM.extab)
    .extab._Z12appendUniqueIiEvR5QListIT_ERKS2_ 0x0002f124   Data           0  QtMultimediaKit.in(.ARM.extab)
    .extab._Z12appendUniqueIN12QAudioFormat6EndianEEvR5QListIT_ERKS4_ 0x0002f158   Data           0  QtMultimediaKit.in(.ARM.extab)
    .extab._Z12appendUniqueIN12QAudioFormat10SampleTypeEEvR5QListIT_ERKS4_ 0x0002f170   Data           0  QtMultimediaKit.in(.ARM.extab)
    .extab._ZN24QAudioDeviceInfoInternal12CapabilitiesD1Ev 0x0002f188   Data           0  QtMultimediaKit.in(.ARM.extab)
    .extab._ZN24QAudioDeviceInfoInternal12CapabilitiesC1Ev 0x0002f1b0   Data           0  QtMultimediaKit.in(.ARM.extab)
    .extab._ZN4QMapI7QStringN24QAudioDeviceInfoInternal12CapabilitiesEE11node_createEP8QMapDataPPNS4_4NodeERKS0_RKS2_ 0x0002f1d8   Data           0  QtMultimediaKit.in(.ARM.extab)
    .extab._ZN4QMapI7QStringN24QAudioDeviceInfoInternal12CapabilitiesEEixERKS0_ 0x0002f244   Data           0  QtMultimediaKit.in(.ARM.extab)
    .extab._ZN4QMapI7QStringN24QAudioDeviceInfoInternal12CapabilitiesEE13detach_helperEv 0x0002f254   Data           0  QtMultimediaKit.in(.ARM.extab)
    .extab._ZNK4QMapI7QStringN24QAudioDeviceInfoInternal12CapabilitiesEE4keysEv 0x0002f270   Data           0  QtMultimediaKit.in(.ARM.extab)
    .extab._ZN5QListI10QByteArrayE6appendERKS0_ 0x0002f280   Data           0  QtMultimediaKit.in(.ARM.extab)
    .extab._ZN5QListI10QByteArrayE14node_constructEPNS1_4NodeERKS0_ 0x0002f2b0   Data           0  QtMultimediaKit.in(.ARM.extab)
    .extab._ZN18QAudioInputPrivateC1ERK10QByteArray 0x0002f2c0   Data           0  QtMultimediaKit.in(.ARM.extab)
    .extab._ZN18QAudioInputPrivateD1Ev       0x0002f2f8   Data           0  QtMultimediaKit.in(.ARM.extab)
    .extab._ZN18QAudioInputPrivate4openEv    0x0002f330   Data           0  QtMultimediaKit.in(.ARM.extab)
    .extab._ZN18QAudioInputPrivate5startEv   0x0002f348   Data           0  QtMultimediaKit.in(.ARM.extab)
    .extab._ZN5QListIP14CMMFDataBufferE13detach_helperEv 0x0002f358   Data           0  QtMultimediaKit.in(.ARM.extab)
    .extab._ZN5QListIP14CMMFDataBufferE5clearEv 0x0002f374   Data           0  QtMultimediaKit.in(.ARM.extab)
    .extab._ZN5QListIP14CMMFDataBufferE18detach_helper_growEii 0x0002f384   Data           0  QtMultimediaKit.in(.ARM.extab)
    .extab._ZN5QListIP14CMMFDataBufferE6appendERKS1_ 0x0002f3b4   Data           0  QtMultimediaKit.in(.ARM.extab)
    .extab._ZN19QAudioOutputPrivateC1ERK10QByteArray 0x0002f3d0   Data           0  QtMultimediaKit.in(.ARM.extab)
    .extab._ZN19QAudioOutputPrivateD1Ev      0x0002f400   Data           0  QtMultimediaKit.in(.ARM.extab)
    .extab._ZN19QAudioOutputPrivate4openEv   0x0002f430   Data           0  QtMultimediaKit.in(.ARM.extab)
    .extab._ZN19QAudioOutputPrivate5startEv  0x0002f448   Data           0  QtMultimediaKit.in(.ARM.extab)
    .extab._ZN19QSoundEffectPrivateC1EP7QObject 0x0002f458   Data           0  QtMultimediaKit.in(.ARM.extab)
    .extab._ZN19QSoundEffectPrivateD1Ev      0x0002f470   Data           0  QtMultimediaKit.in(.ARM.extab)
    .extab._ZN19QSoundEffectPrivate18supportedMimeTypesEv 0x0002f480   Data           0  QtMultimediaKit.in(.ARM.extab)
    .extab._ZN19QSoundEffectPrivate9setSourceERK4QUrl 0x0002f4b0   Data           0  QtMultimediaKit.in(.ARM.extab)
    .extab._ZN5QListI7QStringE6appendERKS0_  0x0002f4e0   Data           0  QtMultimediaKit.in(.ARM.extab)
    .extab._ZN12QSoundEffect9setSourceERK4QUrl 0x0002f510   Data           0  QtMultimediaKit.in(.ARM.extab)
    .extab._ZN12QSoundEffect11qt_metacallEN11QMetaObject4CallEiPPv 0x0002f520   Data           0  QtMultimediaKit.in(.ARM.extab)
    .extab._ZN12QSoundEffectC1EP7QObject     0x0002f530   Data           0  QtMultimediaKit.in(.ARM.extab)
    .extab._ZN12QSoundEffectD1Ev             0x0002f548   Data           0  QtMultimediaKit.in(.ARM.extab)
    .extab._ZN12QWaveDecoder10handleDataEv   0x0002f558   Data           0  QtMultimediaKit.in(.ARM.extab)
    .extab._ZN12QWaveDecoderC1EP9QIODeviceP7QObject 0x0002f568   Data           0  QtMultimediaKit.in(.ARM.extab)
    .extab._ZN12QWaveDecoderD1Ev             0x0002f580   Data           0  QtMultimediaKit.in(.ARM.extab)
    .extab._ZNK21QAbstractVideoSurface16nativeResolutionEv 0x0002f590   Data           0  QtMultimediaKit.in(.ARM.extab)
    .extab._ZN21QAbstractVideoSurfaceC2EP7QObject 0x0002f5a0   Data           0  QtMultimediaKit.in(.ARM.extab)
    .extab._ZNK21QAbstractVideoSurface17isFormatSupportedERK19QVideoSurfaceFormat 0x0002f600   Data           0  QtMultimediaKit.in(.ARM.extab)
    .extab._ZNK21QAbstractVideoSurface13nearestFormatERK19QVideoSurfaceFormat 0x0002f610   Data           0  QtMultimediaKit.in(.ARM.extab)
    .extab._ZNK21QAbstractVideoSurface13surfaceFormatEv 0x0002f620   Data           0  QtMultimediaKit.in(.ARM.extab)
    .extab._ZN21QAbstractVideoSurface5startERK19QVideoSurfaceFormat 0x0002f638   Data           0  QtMultimediaKit.in(.ARM.extab)
    .extab._ZN21QAbstractVideoSurface4stopEv 0x0002f660   Data           0  QtMultimediaKit.in(.ARM.extab)
    .extab._ZNK21QAbstractVideoSurface8isActiveEv 0x0002f698   Data           0  QtMultimediaKit.in(.ARM.extab)
    .extab._ZNK21QAbstractVideoSurface5errorEv 0x0002f6a8   Data           0  QtMultimediaKit.in(.ARM.extab)
    .extab._ZN21QAbstractVideoSurface8setErrorENS_5ErrorE 0x0002f6b8   Data           0  QtMultimediaKit.in(.ARM.extab)
    .extab._ZN21QAbstractVideoSurface19setNativeResolutionERK5QSize 0x0002f6c8   Data           0  QtMultimediaKit.in(.ARM.extab)
    .extab._Z24qMetaTypeConstructHelperI19QVideoSurfaceFormatEPvPKT_ 0x0002f6e0   Data           0  QtMultimediaKit.in(.ARM.extab)
    .extab._ZN17QImageVideoBufferC1ERK6QImage 0x0002f6f8   Data           0  QtMultimediaKit.in(.ARM.extab)
    .extab._ZN24QImageVideoBufferPrivateD1Ev 0x0002f710   Data           0  QtMultimediaKit.in(.ARM.extab)
    .extab._ZN18QMemoryVideoBufferC1ERK10QByteArrayi 0x0002f720   Data           0  QtMultimediaKit.in(.ARM.extab)
    .extab._ZN25QMemoryVideoBufferPrivateD1Ev 0x0002f738   Data           0  QtMultimediaKit.in(.ARM.extab)
    .extab._ZN11QVideoFrameC1Ev              0x0002f748   Data           0  QtMultimediaKit.in(.ARM.extab)
    .extab._ZN11QVideoFrameC1EP20QAbstractVideoBufferRK5QSizeNS_11PixelFormatE 0x0002f758   Data           0  QtMultimediaKit.in(.ARM.extab)
    .extab._ZN11QVideoFrameC1EiRK5QSizeiNS_11PixelFormatE 0x0002f768   Data           0  QtMultimediaKit.in(.ARM.extab)
    .extab._ZN11QVideoFrameC1ERK6QImage      0x0002f790   Data           0  QtMultimediaKit.in(.ARM.extab)
    .extab._ZNK11QVideoFrame6handleEv        0x0002f7a8   Data           0  QtMultimediaKit.in(.ARM.extab)
    .extab._ZNK19QVideoSurfaceFormat8propertyEPKc 0x0002f7c0   Data           0  QtMultimediaKit.in(.ARM.extab)
    .extab._ZNK19QVideoSurfaceFormat13propertyNamesEv 0x0002f7d0   Data           0  QtMultimediaKit.in(.ARM.extab)
    .extab._Zls6QDebugRK19QVideoSurfaceFormat 0x0002f888   Data           0  QtMultimediaKit.in(.ARM.extab)
    .extab._ZN19QVideoSurfaceFormatC1Ev      0x0002f930   Data           0  QtMultimediaKit.in(.ARM.extab)
    .extab._ZN19QVideoSurfaceFormatC1ERK5QSizeN11QVideoFrame11PixelFormatEN20QAbstractVideoBuffer10HandleTypeE 0x0002f948   Data           0  QtMultimediaKit.in(.ARM.extab)
    .extab._ZN19QVideoSurfaceFormat11setPropertyEPKcRK8QVariant 0x0002f960   Data           0  QtMultimediaKit.in(.ARM.extab)
    .extab._ZN7QStringaSERK13QLatin1String   0x0002f970   Data           0  QtMultimediaKit.in(.ARM.extab)
    .extab._ZN5QListI8QVariantE9node_copyEPNS1_4NodeES3_S3_ 0x0002f980   Data           0  QtMultimediaKit.in(.ARM.extab)
    .extab._ZN5QListI8QVariantE13detach_helperEv 0x0002f9a4   Data           0  QtMultimediaKit.in(.ARM.extab)
    .extab._ZN18QSharedDataPointerI26QVideoSurfaceFormatPrivateEptEv 0x0002f9c0   Data           0  QtMultimediaKit.in(.ARM.extab)
    .extab._ZN5QListI8QVariantE14node_constructEPNS1_4NodeERKS0_ 0x0002f9d0   Data           0  QtMultimediaKit.in(.ARM.extab)
    .extab._ZN5QListI8QVariantE18detach_helper_growEii 0x0002f9e0   Data           0  QtMultimediaKit.in(.ARM.extab)
    .extab._ZN26QVideoSurfaceFormatPrivateD1Ev 0x0002fa10   Data           0  QtMultimediaKit.in(.ARM.extab)
    .extab._ZN26QVideoSurfaceFormatPrivateC1ERKS_ 0x0002fa20   Data           0  QtMultimediaKit.in(.ARM.extab)
    .extab._ZN5QListI8QVariantE6appendERKS0_ 0x0002fa30   Data           0  QtMultimediaKit.in(.ARM.extab)
    .constdata$1                             0x0002fa60   Data           0  QtMultimediaKit.in(.constdata)
    qt_meta_stringdata_SymbianAudio__DevSoundWrapper 0x0002fa60   Data         123  QtMultimediaKit.in(.constdata)
    .constdata                               0x0002fa60   Section      140  QtMultimediaKit.in(.constdata)
    .constdata$10                            0x0002faec   Data           0  QtMultimediaKit.in(.constdata)
    qt_meta_data_SymbianAudio__DevSoundWrapper 0x0002faec   Data         120  QtMultimediaKit.in(.constdata)
    .constdata                               0x0002faec   Section      120  QtMultimediaKit.in(.constdata)
    .constdata$1                             0x0002fb64   Data           0  QtMultimediaKit.in(.constdata)
    qt_meta_stringdata_QMediaControl         0x0002fb64   Data          15  QtMultimediaKit.in(.constdata)
    .constdata                               0x0002fb64   Section       32  QtMultimediaKit.in(.constdata)
    .constdata$10                            0x0002fb84   Data           0  QtMultimediaKit.in(.constdata)
    qt_meta_data_QMediaControl               0x0002fb84   Data          60  QtMultimediaKit.in(.constdata)
    .constdata                               0x0002fb84   Section       60  QtMultimediaKit.in(.constdata)
    .constdata$1                             0x0002fbc0   Data           0  QtMultimediaKit.in(.constdata)
    qt_meta_stringdata_QMediaObject          0x0002fbc0   Data         171  QtMultimediaKit.in(.constdata)
    .constdata                               0x0002fbc0   Section      229  QtMultimediaKit.in(.constdata)
    .constdata$10                            0x0002fca8   Data           0  QtMultimediaKit.in(.constdata)
    qt_meta_data_QMediaObject                0x0002fca8   Data         176  QtMultimediaKit.in(.constdata)
    .constdata                               0x0002fca8   Section      176  QtMultimediaKit.in(.constdata)
    .constdata$1                             0x0002fd58   Data           0  QtMultimediaKit.in(.constdata)
    qt_meta_stringdata_QMediaService         0x0002fd58   Data          15  QtMultimediaKit.in(.constdata)
    .constdata                               0x0002fd58   Section       32  QtMultimediaKit.in(.constdata)
    .constdata$10                            0x0002fd78   Data           0  QtMultimediaKit.in(.constdata)
    qt_meta_data_QMediaService               0x0002fd78   Data          60  QtMultimediaKit.in(.constdata)
    .constdata                               0x0002fd78   Section       60  QtMultimediaKit.in(.constdata)
    .constdata$1                             0x0002fdb4   Data           0  QtMultimediaKit.in(.constdata)
    qt_meta_stringdata_QLocalMediaPlaylistProvider 0x0002fdb4   Data          40  QtMultimediaKit.in(.constdata)
    .constdata                               0x0002fdb4   Section       56  QtMultimediaKit.in(.constdata)
    .constdata$10                            0x0002fdec   Data           0  QtMultimediaKit.in(.constdata)
    qt_meta_data_QLocalMediaPlaylistProvider 0x0002fdec   Data          80  QtMultimediaKit.in(.constdata)
    .constdata                               0x0002fdec   Section       80  QtMultimediaKit.in(.constdata)
    .constdata$1                             0x0002fe3c   Data           0  QtMultimediaKit.in(.constdata)
    qt_meta_stringdata_QMediaImageViewer     0x0002fe3c   Data         554  QtMultimediaKit.in(.constdata)
    .constdata                               0x0002fe3c   Section      572  QtMultimediaKit.in(.constdata)
    .constdata$10                            0x00030078   Data           0  QtMultimediaKit.in(.constdata)
    qt_meta_data_QMediaImageViewer           0x00030078   Data         488  QtMultimediaKit.in(.constdata)
    .constdata                               0x00030078   Section      488  QtMultimediaKit.in(.constdata)
    .constdata$1                             0x00030260   Data           0  QtMultimediaKit.in(.constdata)
    qt_meta_stringdata_QMediaImageViewerService 0x00030260   Data          26  QtMultimediaKit.in(.constdata)
    .constdata                               0x00030260   Section      340  QtMultimediaKit.in(.constdata)
    qt_meta_stringdata_QMediaImageViewerControl 0x0003027a   Data         120  QtMultimediaKit.in(.constdata)
    qt_meta_stringdata_QMediaImageViewerRenderer 0x000302f2   Data          75  QtMultimediaKit.in(.constdata)
    .constdata$16                            0x000303b4   Data           0  QtMultimediaKit.in(.constdata)
    qt_meta_data_QMediaImageViewerService    0x000303b4   Data          60  QtMultimediaKit.in(.constdata)
    .constdata                               0x000303b4   Section       60  QtMultimediaKit.in(.constdata)
    .constdata$22                            0x000303f0   Data           0  QtMultimediaKit.in(.constdata)
    qt_meta_data_QMediaImageViewerControl    0x000303f0   Data         120  QtMultimediaKit.in(.constdata)
    .constdata                               0x000303f0   Section      120  QtMultimediaKit.in(.constdata)
    .constdata$28                            0x00030468   Data           0  QtMultimediaKit.in(.constdata)
    qt_meta_data_QMediaImageViewerRenderer   0x00030468   Data          80  QtMultimediaKit.in(.constdata)
    .constdata                               0x00030468   Section       80  QtMultimediaKit.in(.constdata)
    .constdata$1                             0x000304b8   Data           0  QtMultimediaKit.in(.constdata)
    qt_meta_stringdata_QMediaPlayer          0x000304b8   Data        1139  QtMultimediaKit.in(.constdata)
    .constdata                               0x000304b8   Section     1156  QtMultimediaKit.in(.constdata)
    .constdata$10                            0x0003093c   Data           0  QtMultimediaKit.in(.constdata)
    qt_meta_data_QMediaPlayer                0x0003093c   Data         972  QtMultimediaKit.in(.constdata)
    .constdata                               0x0003093c   Section      972  QtMultimediaKit.in(.constdata)
    .constdata$1                             0x00030d08   Data           0  QtMultimediaKit.in(.constdata)
    qt_meta_stringdata_QMediaPlayerControl   0x00030d08   Data         535  QtMultimediaKit.in(.constdata)
    .constdata                               0x00030d08   Section      552  QtMultimediaKit.in(.constdata)
    .constdata$10                            0x00030f30   Data           0  QtMultimediaKit.in(.constdata)
    qt_meta_data_QMediaPlayerControl         0x00030f30   Data         340  QtMultimediaKit.in(.constdata)
    .constdata                               0x00030f30   Section      340  QtMultimediaKit.in(.constdata)
    .constdata$1                             0x00031084   Data           0  QtMultimediaKit.in(.constdata)
    qt_meta_stringdata_QMediaPlaylist        0x00031084   Data         633  QtMultimediaKit.in(.constdata)
    .constdata                               0x00031084   Section      735  QtMultimediaKit.in(.constdata)
    qt_meta_stringdata_QLocalMediaPlaylistControl 0x000312fd   Data          28  QtMultimediaKit.in(.constdata)
    .constdata$13                            0x00031364   Data           0  QtMultimediaKit.in(.constdata)
    qt_meta_data_QMediaPlaylist              0x00031364   Data         520  QtMultimediaKit.in(.constdata)
    .constdata                               0x00031364   Section      520  QtMultimediaKit.in(.constdata)
    .constdata$19                            0x0003156c   Data           0  QtMultimediaKit.in(.constdata)
    qt_meta_data_QLocalMediaPlaylistControl  0x0003156c   Data          60  QtMultimediaKit.in(.constdata)
    .constdata                               0x0003156c   Section       60  QtMultimediaKit.in(.constdata)
    .constdata$1                             0x000315a8   Data           0  QtMultimediaKit.in(.constdata)
    qt_meta_stringdata_QMediaPlaylistIOPlugin 0x000315a8   Data          24  QtMultimediaKit.in(.constdata)
    .constdata                               0x000315a8   Section       40  QtMultimediaKit.in(.constdata)
    .constdata$16                            0x000315d0   Data           0  QtMultimediaKit.in(.constdata)
    qt_meta_data_QMediaPlaylistIOPlugin      0x000315d0   Data          60  QtMultimediaKit.in(.constdata)
    .constdata                               0x000315d0   Section       60  QtMultimediaKit.in(.constdata)
    .constdata$1                             0x0003160c   Data           0  QtMultimediaKit.in(.constdata)
    qt_meta_stringdata_QMediaPlaylistNavigator 0x0003160c   Data         410  QtMultimediaKit.in(.constdata)
    .constdata                               0x0003160c   Section      428  QtMultimediaKit.in(.constdata)
    .constdata$10                            0x000317b8   Data           0  QtMultimediaKit.in(.constdata)
    qt_meta_data_QMediaPlaylistNavigator     0x000317b8   Data         328  QtMultimediaKit.in(.constdata)
    .constdata                               0x000317b8   Section      328  QtMultimediaKit.in(.constdata)
    .constdata$1                             0x00031900   Data           0  QtMultimediaKit.in(.constdata)
    qt_meta_stringdata_QMediaPlaylistProvider 0x00031900   Data         240  QtMultimediaKit.in(.constdata)
    .constdata                               0x00031900   Section      256  QtMultimediaKit.in(.constdata)
    .constdata$10                            0x00031a00   Data           0  QtMultimediaKit.in(.constdata)
    qt_meta_data_QMediaPlaylistProvider      0x00031a00   Data         220  QtMultimediaKit.in(.constdata)
    .constdata                               0x00031a00   Section      220  QtMultimediaKit.in(.constdata)
    .constdata$1                             0x00031adc   Data           0  QtMultimediaKit.in(.constdata)
    qt_meta_stringdata_QMediaRecorder        0x00031adc   Data         568  QtMultimediaKit.in(.constdata)
    .constdata                               0x00031adc   Section      584  QtMultimediaKit.in(.constdata)
    .constdata$10                            0x00031d24   Data           0  QtMultimediaKit.in(.constdata)
    qt_meta_data_QMediaRecorder              0x00031d24   Data         540  QtMultimediaKit.in(.constdata)
    .constdata                               0x00031d24   Section      540  QtMultimediaKit.in(.constdata)
    .constdata$1                             0x00031f40   Data           0  QtMultimediaKit.in(.constdata)
    qt_meta_stringdata_QMediaRecorderControl 0x00031f40   Data         200  QtMultimediaKit.in(.constdata)
    .constdata                               0x00031f40   Section      216  QtMultimediaKit.in(.constdata)
    .constdata$10                            0x00032018   Data           0  QtMultimediaKit.in(.constdata)
    qt_meta_data_QMediaRecorderControl       0x00032018   Data         220  QtMultimediaKit.in(.constdata)
    .constdata                               0x00032018   Section      220  QtMultimediaKit.in(.constdata)
    .constdata$1                             0x000320f4   Data           0  QtMultimediaKit.in(.constdata)
    qt_meta_stringdata_QMediaServiceProvider 0x000320f4   Data          23  QtMultimediaKit.in(.constdata)
    .constdata                               0x000320f4   Section      312  QtMultimediaKit.in(.constdata)
    qt_meta_stringdata_QMediaServiceProviderPlugin 0x0003210b   Data          29  QtMultimediaKit.in(.constdata)
    .constdata$13                            0x0003222c   Data           0  QtMultimediaKit.in(.constdata)
    qt_meta_data_QMediaServiceProvider       0x0003222c   Data          60  QtMultimediaKit.in(.constdata)
    .constdata                               0x0003222c   Section       60  QtMultimediaKit.in(.constdata)
    .constdata$19                            0x00032268   Data           0  QtMultimediaKit.in(.constdata)
    qt_meta_data_QMediaServiceProviderPlugin 0x00032268   Data          60  QtMultimediaKit.in(.constdata)
    .constdata                               0x00032268   Section       60  QtMultimediaKit.in(.constdata)
    .constdata$1                             0x000322a4   Data           0  QtMultimediaKit.in(.constdata)
    qt_meta_stringdata_QMetaDataReaderControl 0x000322a4   Data          84  QtMultimediaKit.in(.constdata)
    .constdata                               0x000322a4   Section      100  QtMultimediaKit.in(.constdata)
    .constdata$10                            0x00032308   Data           0  QtMultimediaKit.in(.constdata)
    qt_meta_data_QMetaDataReaderControl      0x00032308   Data         100  QtMultimediaKit.in(.constdata)
    .constdata                               0x00032308   Section      100  QtMultimediaKit.in(.constdata)
    .constdata$1                             0x0003236c   Data           0  QtMultimediaKit.in(.constdata)
    qt_meta_stringdata_QMetaDataWriterControl 0x0003236c   Data         115  QtMultimediaKit.in(.constdata)
    .constdata                               0x0003236c   Section      132  QtMultimediaKit.in(.constdata)
    .constdata$10                            0x000323f0   Data           0  QtMultimediaKit.in(.constdata)
    qt_meta_data_QMetaDataWriterControl      0x000323f0   Data         120  QtMultimediaKit.in(.constdata)
    .constdata                               0x000323f0   Section      120  QtMultimediaKit.in(.constdata)
    .constdata$1                             0x00032468   Data           0  QtMultimediaKit.in(.constdata)
    qt_meta_stringdata_QMediaStreamsControl  0x00032468   Data          63  QtMultimediaKit.in(.constdata)
    .constdata                               0x00032468   Section       80  QtMultimediaKit.in(.constdata)
    .constdata$10                            0x000324b8   Data           0  QtMultimediaKit.in(.constdata)
    qt_meta_data_QMediaStreamsControl        0x000324b8   Data         100  QtMultimediaKit.in(.constdata)
    .constdata                               0x000324b8   Section      100  QtMultimediaKit.in(.constdata)
    .constdata$1                             0x0003251c   Data           0  QtMultimediaKit.in(.constdata)
    qt_meta_stringdata_QRadioTuner           0x0003251c   Data         601  QtMultimediaKit.in(.constdata)
    .constdata                               0x0003251c   Section      620  QtMultimediaKit.in(.constdata)
    .constdata$10                            0x00032788   Data           0  QtMultimediaKit.in(.constdata)
    qt_meta_data_QRadioTuner                 0x00032788   Data         740  QtMultimediaKit.in(.constdata)
    .constdata                               0x00032788   Section      740  QtMultimediaKit.in(.constdata)
    .constdata$1                             0x00032a6c   Data           0  QtMultimediaKit.in(.constdata)
    qt_meta_stringdata_QRadioTunerControl    0x00032a6c   Data         307  QtMultimediaKit.in(.constdata)
    .constdata                               0x00032a6c   Section      324  QtMultimediaKit.in(.constdata)
    .constdata$10                            0x00032bb0   Data           0  QtMultimediaKit.in(.constdata)
    qt_meta_data_QRadioTunerControl          0x00032bb0   Data         240  QtMultimediaKit.in(.constdata)
    .constdata                               0x00032bb0   Section      240  QtMultimediaKit.in(.constdata)
    .constdata$1                             0x00032ca0   Data           0  QtMultimediaKit.in(.constdata)
    qt_meta_stringdata_QVideoWidget          0x00032ca0   Data         538  QtMultimediaKit.in(.constdata)
    .constdata                               0x00032ca0   Section      936  QtMultimediaKit.in(.constdata)
    qt_meta_stringdata_QVideoWidgetBackend   0x00032eba   Data          21  QtMultimediaKit.in(.constdata)
    qt_meta_stringdata_QVideoWidgetControlBackend 0x00032ecf   Data          28  QtMultimediaKit.in(.constdata)
    qt_meta_stringdata_QRendererVideoWidgetBackend 0x00032eeb   Data         240  QtMultimediaKit.in(.constdata)
    qt_meta_stringdata_QWindowVideoWidgetBackend 0x00032fdb   Data          27  QtMultimediaKit.in(.constdata)
    .constdata$22                            0x00033048   Data           0  QtMultimediaKit.in(.constdata)
    qt_meta_data_QVideoWidget                0x00033048   Data         532  QtMultimediaKit.in(.constdata)
    .constdata                               0x00033048   Section      532  QtMultimediaKit.in(.constdata)
    .constdata$28                            0x0003325c   Data           0  QtMultimediaKit.in(.constdata)
    qt_meta_data_QVideoWidgetBackend         0x0003325c   Data          60  QtMultimediaKit.in(.constdata)
    .constdata                               0x0003325c   Section       60  QtMultimediaKit.in(.constdata)
    .constdata$34                            0x00033298   Data           0  QtMultimediaKit.in(.constdata)
    qt_meta_data_QVideoWidgetControlBackend  0x00033298   Data          60  QtMultimediaKit.in(.constdata)
    .constdata                               0x00033298   Section       60  QtMultimediaKit.in(.constdata)
    .constdata$40                            0x000332d4   Data           0  QtMultimediaKit.in(.constdata)
    qt_meta_data_QRendererVideoWidgetBackend 0x000332d4   Data         200  QtMultimediaKit.in(.constdata)
    .constdata                               0x000332d4   Section      200  QtMultimediaKit.in(.constdata)
    .constdata$46                            0x0003339c   Data           0  QtMultimediaKit.in(.constdata)
    qt_meta_data_QWindowVideoWidgetBackend   0x0003339c   Data          60  QtMultimediaKit.in(.constdata)
    .constdata                               0x0003339c   Section       60  QtMultimediaKit.in(.constdata)
    .constdata$1                             0x000333d8   Data           0  QtMultimediaKit.in(.constdata)
    qt_meta_stringdata_QVideoWindowControl   0x000333d8   Data         195  QtMultimediaKit.in(.constdata)
    .constdata                               0x000333d8   Section      212  QtMultimediaKit.in(.constdata)
    .constdata$10                            0x000334ac   Data           0  QtMultimediaKit.in(.constdata)
    qt_meta_data_QVideoWindowControl         0x000334ac   Data         180  QtMultimediaKit.in(.constdata)
    .constdata                               0x000334ac   Section      180  QtMultimediaKit.in(.constdata)
    .constdata$1                             0x00033560   Data           0  QtMultimediaKit.in(.constdata)
    qt_meta_stringdata_QVideoWidgetControl   0x00033560   Data         175  QtMultimediaKit.in(.constdata)
    .constdata                               0x00033560   Section      192  QtMultimediaKit.in(.constdata)
    .constdata$10                            0x00033620   Data           0  QtMultimediaKit.in(.constdata)
    qt_meta_data_QVideoWidgetControl         0x00033620   Data         160  QtMultimediaKit.in(.constdata)
    .constdata                               0x00033620   Section      160  QtMultimediaKit.in(.constdata)
    .constdata$1                             0x000336c0   Data           0  QtMultimediaKit.in(.constdata)
    qt_meta_stringdata_QAudioEncoderControl  0x000336c0   Data          22  QtMultimediaKit.in(.constdata)
    .constdata                               0x000336c0   Section       40  QtMultimediaKit.in(.constdata)
    .constdata$10                            0x000336e8   Data           0  QtMultimediaKit.in(.constdata)
    qt_meta_data_QAudioEncoderControl        0x000336e8   Data          60  QtMultimediaKit.in(.constdata)
    .constdata                               0x000336e8   Section       60  QtMultimediaKit.in(.constdata)
    .constdata$1                             0x00033724   Data           0  QtMultimediaKit.in(.constdata)
    qt_meta_stringdata_QVideoEncoderControl  0x00033724   Data          22  QtMultimediaKit.in(.constdata)
    .constdata                               0x00033724   Section       40  QtMultimediaKit.in(.constdata)
    .constdata$10                            0x0003374c   Data           0  QtMultimediaKit.in(.constdata)
    qt_meta_data_QVideoEncoderControl        0x0003374c   Data          60  QtMultimediaKit.in(.constdata)
    .constdata                               0x0003374c   Section       60  QtMultimediaKit.in(.constdata)
    .constdata$1                             0x00033788   Data           0  QtMultimediaKit.in(.constdata)
    qt_meta_stringdata_QImageEncoderControl  0x00033788   Data          22  QtMultimediaKit.in(.constdata)
    .constdata                               0x00033788   Section       40  QtMultimediaKit.in(.constdata)
    .constdata$10                            0x000337b0   Data           0  QtMultimediaKit.in(.constdata)
    qt_meta_data_QImageEncoderControl        0x000337b0   Data          60  QtMultimediaKit.in(.constdata)
    .constdata                               0x000337b0   Section       60  QtMultimediaKit.in(.constdata)
    .constdata$1                             0x000337ec   Data           0  QtMultimediaKit.in(.constdata)
    qt_meta_stringdata_QAudioCaptureSource   0x000337ec   Data         129  QtMultimediaKit.in(.constdata)
    .constdata                               0x000337ec   Section      148  QtMultimediaKit.in(.constdata)
    .constdata$10                            0x00033880   Data           0  QtMultimediaKit.in(.constdata)
    qt_meta_data_QAudioCaptureSource         0x00033880   Data         140  QtMultimediaKit.in(.constdata)
    .constdata                               0x00033880   Section      140  QtMultimediaKit.in(.constdata)
    .constdata$1                             0x0003390c   Data           0  QtMultimediaKit.in(.constdata)
    qt_meta_stringdata_QMediaContainerControl 0x0003390c   Data          24  QtMultimediaKit.in(.constdata)
    .constdata                               0x0003390c   Section       40  QtMultimediaKit.in(.constdata)
    .constdata$10                            0x00033934   Data           0  QtMultimediaKit.in(.constdata)
    qt_meta_data_QMediaContainerControl      0x00033934   Data          60  QtMultimediaKit.in(.constdata)
    .constdata                               0x00033934   Section       60  QtMultimediaKit.in(.constdata)
    .constdata$1                             0x00033970   Data           0  QtMultimediaKit.in(.constdata)
    qt_meta_stringdata_QMediaPlaylistControl 0x00033970   Data         174  QtMultimediaKit.in(.constdata)
    .constdata                               0x00033970   Section      192  QtMultimediaKit.in(.constdata)
    .constdata$10                            0x00033a30   Data           0  QtMultimediaKit.in(.constdata)
    qt_meta_data_QMediaPlaylistControl       0x00033a30   Data         140  QtMultimediaKit.in(.constdata)
    .constdata                               0x00033a30   Section      140  QtMultimediaKit.in(.constdata)
    .constdata$1                             0x00033abc   Data           0  QtMultimediaKit.in(.constdata)
    qt_meta_stringdata_QMediaPlaylistSourceControl 0x00033abc   Data          72  QtMultimediaKit.in(.constdata)
    .constdata                               0x00033abc   Section       88  QtMultimediaKit.in(.constdata)
    .constdata$10                            0x00033b14   Data           0  QtMultimediaKit.in(.constdata)
    qt_meta_data_QMediaPlaylistSourceControl 0x00033b14   Data          80  QtMultimediaKit.in(.constdata)
    .constdata                               0x00033b14   Section       80  QtMultimediaKit.in(.constdata)
    .constdata$1                             0x00033b64   Data           0  QtMultimediaKit.in(.constdata)
    qt_meta_stringdata_QAudioEndpointSelector 0x00033b64   Data         116  QtMultimediaKit.in(.constdata)
    .constdata                               0x00033b64   Section      132  QtMultimediaKit.in(.constdata)
    .constdata$10                            0x00033be8   Data           0  QtMultimediaKit.in(.constdata)
    qt_meta_data_QAudioEndpointSelector      0x00033be8   Data         120  QtMultimediaKit.in(.constdata)
    .constdata                               0x00033be8   Section      120  QtMultimediaKit.in(.constdata)
    .constdata$1                             0x00033c60   Data           0  QtMultimediaKit.in(.constdata)
    qt_meta_stringdata_QVideoDeviceControl   0x00033c60   Data         137  QtMultimediaKit.in(.constdata)
    .constdata                               0x00033c60   Section      156  QtMultimediaKit.in(.constdata)
    .constdata$10                            0x00033cfc   Data           0  QtMultimediaKit.in(.constdata)
    qt_meta_data_QVideoDeviceControl         0x00033cfc   Data         140  QtMultimediaKit.in(.constdata)
    .constdata                               0x00033cfc   Section      140  QtMultimediaKit.in(.constdata)
    .constdata$1                             0x00033d88   Data           0  QtMultimediaKit.in(.constdata)
    .constdata                               0x00033d88   Section       35  QtMultimediaKit.in(.constdata)
    .constdata$1                             0x00033dac   Data           0  QtMultimediaKit.in(.constdata)
    qt_meta_stringdata_QPainterVideoSurface  0x00033dac   Data          58  QtMultimediaKit.in(.constdata)
    .constdata                               0x00033dac   Section       76  QtMultimediaKit.in(.constdata)
    .constdata$16                            0x00033df8   Data           0  QtMultimediaKit.in(.constdata)
    qt_meta_data_QPainterVideoSurface        0x00033df8   Data         100  QtMultimediaKit.in(.constdata)
    .constdata                               0x00033df8   Section      100  QtMultimediaKit.in(.constdata)
    .constdata$1                             0x00033e5c   Data           0  QtMultimediaKit.in(.constdata)
    qt_meta_stringdata_QVideoRendererControl 0x00033e5c   Data          23  QtMultimediaKit.in(.constdata)
    .constdata                               0x00033e5c   Section       40  QtMultimediaKit.in(.constdata)
    .constdata$10                            0x00033e84   Data           0  QtMultimediaKit.in(.constdata)
    qt_meta_data_QVideoRendererControl       0x00033e84   Data          60  QtMultimediaKit.in(.constdata)
    .constdata                               0x00033e84   Section       60  QtMultimediaKit.in(.constdata)
    .constdata$1                             0x00033ec0   Data           0  QtMultimediaKit.in(.constdata)
    qt_meta_stringdata_QCamera               0x00033ec0   Data        1228  QtMultimediaKit.in(.constdata)
    .constdata                               0x00033ec0   Section     1416  QtMultimediaKit.in(.constdata)
    .constdata$10                            0x00034448   Data           0  QtMultimediaKit.in(.constdata)
    qt_meta_data_QCamera                     0x00034448   Data         908  QtMultimediaKit.in(.constdata)
    .constdata                               0x00034448   Section      908  QtMultimediaKit.in(.constdata)
    .constdata$1                             0x000347d4   Data           0  QtMultimediaKit.in(.constdata)
    qt_meta_stringdata_QCameraViewfinder     0x000347d4   Data          19  QtMultimediaKit.in(.constdata)
    .constdata                               0x000347d4   Section       36  QtMultimediaKit.in(.constdata)
    .constdata$10                            0x000347f8   Data           0  QtMultimediaKit.in(.constdata)
    qt_meta_data_QCameraViewfinder           0x000347f8   Data          60  QtMultimediaKit.in(.constdata)
    .constdata                               0x000347f8   Section       60  QtMultimediaKit.in(.constdata)
    .constdata$1                             0x00034834   Data           0  QtMultimediaKit.in(.constdata)
    qt_meta_stringdata_QCameraExposure       0x00034834   Data        1171  QtMultimediaKit.in(.constdata)
    .constdata                               0x00034834   Section     1188  QtMultimediaKit.in(.constdata)
    .constdata$10                            0x00034cd8   Data           0  QtMultimediaKit.in(.constdata)
    qt_meta_data_QCameraExposure             0x00034cd8   Data         808  QtMultimediaKit.in(.constdata)
    .constdata                               0x00034cd8   Section      808  QtMultimediaKit.in(.constdata)
    .constdata$1                             0x00035000   Data           0  QtMultimediaKit.in(.constdata)
    qt_meta_stringdata_QCameraFocus          0x00035000   Data         442  QtMultimediaKit.in(.constdata)
    .constdata                               0x00035000   Section      460  QtMultimediaKit.in(.constdata)
    .constdata$10                            0x000351cc   Data           0  QtMultimediaKit.in(.constdata)
    qt_meta_data_QCameraFocus                0x000351cc   Data         368  QtMultimediaKit.in(.constdata)
    .constdata                               0x000351cc   Section      368  QtMultimediaKit.in(.constdata)
    .constdata$1                             0x0003533c   Data           0  QtMultimediaKit.in(.constdata)
    qt_meta_stringdata_QCameraImageProcessing 0x0003533c   Data          24  QtMultimediaKit.in(.constdata)
    .constdata                               0x0003533c   Section       40  QtMultimediaKit.in(.constdata)
    .constdata$10                            0x00035364   Data           0  QtMultimediaKit.in(.constdata)
    qt_meta_data_QCameraImageProcessing      0x00035364   Data          60  QtMultimediaKit.in(.constdata)
    .constdata                               0x00035364   Section       60  QtMultimediaKit.in(.constdata)
    .constdata$1                             0x000353a0   Data           0  QtMultimediaKit.in(.constdata)
    qt_meta_stringdata_QCameraImageCapture   0x000353a0   Data         435  QtMultimediaKit.in(.constdata)
    .constdata                               0x000353a0   Section      452  QtMultimediaKit.in(.constdata)
    .constdata$10                            0x00035564   Data           0  QtMultimediaKit.in(.constdata)
    qt_meta_data_QCameraImageCapture         0x00035564   Data         340  QtMultimediaKit.in(.constdata)
    .constdata                               0x00035564   Section      340  QtMultimediaKit.in(.constdata)
    .constdata$1                             0x000356b8   Data           0  QtMultimediaKit.in(.constdata)
    qt_meta_stringdata_QCameraImageCaptureControl 0x000356b8   Data         196  QtMultimediaKit.in(.constdata)
    .constdata                               0x000356b8   Section      212  QtMultimediaKit.in(.constdata)
    .constdata$10                            0x0003578c   Data           0  QtMultimediaKit.in(.constdata)
    qt_meta_data_QCameraImageCaptureControl  0x0003578c   Data         160  QtMultimediaKit.in(.constdata)
    .constdata                               0x0003578c   Section      160  QtMultimediaKit.in(.constdata)
    .constdata$1                             0x0003582c   Data           0  QtMultimediaKit.in(.constdata)
    qt_meta_stringdata_QCameraControl        0x0003582c   Data         155  QtMultimediaKit.in(.constdata)
    .constdata                               0x0003582c   Section      172  QtMultimediaKit.in(.constdata)
    .constdata$10                            0x000358d8   Data           0  QtMultimediaKit.in(.constdata)
    qt_meta_data_QCameraControl              0x000358d8   Data         140  QtMultimediaKit.in(.constdata)
    .constdata                               0x000358d8   Section      140  QtMultimediaKit.in(.constdata)
    .constdata$1                             0x00035964   Data           0  QtMultimediaKit.in(.constdata)
    qt_meta_stringdata_QCameraLocksControl   0x00035964   Data         124  QtMultimediaKit.in(.constdata)
    .constdata                               0x00035964   Section      140  QtMultimediaKit.in(.constdata)
    .constdata$10                            0x000359f0   Data           0  QtMultimediaKit.in(.constdata)
    qt_meta_data_QCameraLocksControl         0x000359f0   Data          80  QtMultimediaKit.in(.constdata)
    .constdata                               0x000359f0   Section       80  QtMultimediaKit.in(.constdata)
    .constdata$1                             0x00035a40   Data           0  QtMultimediaKit.in(.constdata)
    qt_meta_stringdata_QCameraExposureControl 0x00035a40   Data         254  QtMultimediaKit.in(.constdata)
    .constdata                               0x00035a40   Section      272  QtMultimediaKit.in(.constdata)
    .constdata$10                            0x00035b50   Data           0  QtMultimediaKit.in(.constdata)
    qt_meta_data_QCameraExposureControl      0x00035b50   Data         200  QtMultimediaKit.in(.constdata)
    .constdata                               0x00035b50   Section      200  QtMultimediaKit.in(.constdata)
    .constdata$1                             0x00035c18   Data           0  QtMultimediaKit.in(.constdata)
    qt_meta_stringdata_QCameraFocusControl   0x00035c18   Data         184  QtMultimediaKit.in(.constdata)
    .constdata                               0x00035c18   Section      200  QtMultimediaKit.in(.constdata)
    .constdata$10                            0x00035ce0   Data           0  QtMultimediaKit.in(.constdata)
    qt_meta_data_QCameraFocusControl         0x00035ce0   Data         160  QtMultimediaKit.in(.constdata)
    .constdata                               0x00035ce0   Section      160  QtMultimediaKit.in(.constdata)
    .constdata$1                             0x00035d80   Data           0  QtMultimediaKit.in(.constdata)
    qt_meta_stringdata_QCameraFlashControl   0x00035d80   Data          39  QtMultimediaKit.in(.constdata)
    .constdata                               0x00035d80   Section       56  QtMultimediaKit.in(.constdata)
    .constdata$10                            0x00035db8   Data           0  QtMultimediaKit.in(.constdata)
    qt_meta_data_QCameraFlashControl         0x00035db8   Data          80  QtMultimediaKit.in(.constdata)
    .constdata                               0x00035db8   Section       80  QtMultimediaKit.in(.constdata)
    .constdata$1                             0x00035e08   Data           0  QtMultimediaKit.in(.constdata)
    qt_meta_stringdata_QCameraImageProcessingControl 0x00035e08   Data          31  QtMultimediaKit.in(.constdata)
    .constdata                               0x00035e08   Section       48  QtMultimediaKit.in(.constdata)
    .constdata$10                            0x00035e38   Data           0  QtMultimediaKit.in(.constdata)
    qt_meta_data_QCameraImageProcessingControl 0x00035e38   Data          60  QtMultimediaKit.in(.constdata)
    .constdata                               0x00035e38   Section       60  QtMultimediaKit.in(.constdata)
    .constdata$1                             0x00035e74   Data           0  QtMultimediaKit.in(.constdata)
    qt_meta_stringdata_QGraphicsVideoItem    0x00035e74   Data         204  QtMultimediaKit.in(.constdata)
    .constdata                               0x00035e74   Section      288  QtMultimediaKit.in(.constdata)
    .constdata$13                            0x00035f94   Data           0  QtMultimediaKit.in(.constdata)
    qt_meta_data_QGraphicsVideoItem          0x00035f94   Data         220  QtMultimediaKit.in(.constdata)
    .constdata                               0x00035f94   Section      220  QtMultimediaKit.in(.constdata)
    .constdata$1                             0x00036070   Data           0  QtMultimediaKit.in(.constdata)
    qt_meta_stringdata_QAudioOutput          0x00036070   Data          52  QtMultimediaKit.in(.constdata)
    .constdata                               0x00036070   Section       68  QtMultimediaKit.in(.constdata)
    .constdata$10                            0x000360b4   Data           0  QtMultimediaKit.in(.constdata)
    qt_meta_data_QAudioOutput                0x000360b4   Data         100  QtMultimediaKit.in(.constdata)
    .constdata                               0x000360b4   Section      100  QtMultimediaKit.in(.constdata)
    .constdata$1                             0x00036118   Data           0  QtMultimediaKit.in(.constdata)
    qt_meta_stringdata_QAudioInput           0x00036118   Data          51  QtMultimediaKit.in(.constdata)
    .constdata                               0x00036118   Section       68  QtMultimediaKit.in(.constdata)
    .constdata$10                            0x0003615c   Data           0  QtMultimediaKit.in(.constdata)
    qt_meta_data_QAudioInput                 0x0003615c   Data         100  QtMultimediaKit.in(.constdata)
    .constdata                               0x0003615c   Section      100  QtMultimediaKit.in(.constdata)
    .constdata$1                             0x000361c0   Data           0  QtMultimediaKit.in(.constdata)
    qt_meta_stringdata_QAudioSystemPlugin    0x000361c0   Data          20  QtMultimediaKit.in(.constdata)
    .constdata                               0x000361c0   Section       36  QtMultimediaKit.in(.constdata)
    .constdata$10                            0x000361e4   Data           0  QtMultimediaKit.in(.constdata)
    qt_meta_data_QAudioSystemPlugin          0x000361e4   Data          60  QtMultimediaKit.in(.constdata)
    .constdata                               0x000361e4   Section       60  QtMultimediaKit.in(.constdata)
    .constdata$1                             0x00036220   Data           0  QtMultimediaKit.in(.constdata)
    qt_meta_stringdata_QAbstractAudioDeviceInfo 0x00036220   Data          26  QtMultimediaKit.in(.constdata)
    .constdata                               0x00036220   Section      252  QtMultimediaKit.in(.constdata)
    qt_meta_stringdata_QAbstractAudioOutput  0x0003623a   Data          88  QtMultimediaKit.in(.constdata)
    qt_meta_stringdata_QAbstractAudioInput   0x00036292   Data          87  QtMultimediaKit.in(.constdata)
    .constdata$16                            0x0003631c   Data           0  QtMultimediaKit.in(.constdata)
    qt_meta_data_QAbstractAudioDeviceInfo    0x0003631c   Data          60  QtMultimediaKit.in(.constdata)
    .constdata                               0x0003631c   Section       60  QtMultimediaKit.in(.constdata)
    .constdata$22                            0x00036358   Data           0  QtMultimediaKit.in(.constdata)
    qt_meta_data_QAbstractAudioOutput        0x00036358   Data         120  QtMultimediaKit.in(.constdata)
    .constdata                               0x00036358   Section      120  QtMultimediaKit.in(.constdata)
    .constdata$28                            0x000363d0   Data           0  QtMultimediaKit.in(.constdata)
    qt_meta_data_QAbstractAudioInput         0x000363d0   Data         120  QtMultimediaKit.in(.constdata)
    .constdata                               0x000363d0   Section      120  QtMultimediaKit.in(.constdata)
    .constdata$1                             0x00036448   Data           0  QtMultimediaKit.in(.constdata)
    .constdata                               0x00036448   Section       42  QtMultimediaKit.in(.constdata)
    .constdata$1                             0x00036474   Data           0  QtMultimediaKit.in(.constdata)
    SymbianAudio::Utils::ChannelsListNative  0x00036474   Data           8  QtMultimediaKit.in(.constdata)
    .constdata                               0x00036474   Section      232  QtMultimediaKit.in(.constdata)
    SymbianAudio::Utils::ChannelsListQt      0x0003647c   Data           8  QtMultimediaKit.in(.constdata)
    SymbianAudio::Utils::SampleRateListNative 0x00036484   Data          48  QtMultimediaKit.in(.constdata)
    SymbianAudio::Utils::SampleRateListQt    0x000364b4   Data          48  QtMultimediaKit.in(.constdata)
    SymbianAudio::Utils::EncodingFourCC      0x000364e4   Data          24  QtMultimediaKit.in(.constdata)
    SymbianAudio::Utils::EncodingNative      0x000364fc   Data          24  QtMultimediaKit.in(.constdata)
    SymbianAudio::Utils::EncodingSampleSize  0x00036514   Data          24  QtMultimediaKit.in(.constdata)
    SymbianAudio::Utils::EncodingByteOrder   0x0003652c   Data          24  QtMultimediaKit.in(.constdata)
    SymbianAudio::Utils::EncodingSampleType  0x00036544   Data          24  QtMultimediaKit.in(.constdata)
    .constdata$1                             0x0003655c   Data           0  QtMultimediaKit.in(.constdata)
    qt_meta_stringdata_QAudioDeviceInfoInternal 0x0003655c   Data          63  QtMultimediaKit.in(.constdata)
    .constdata                               0x0003655c   Section       80  QtMultimediaKit.in(.constdata)
    .constdata$10                            0x000365ac   Data           0  QtMultimediaKit.in(.constdata)
    qt_meta_data_QAudioDeviceInfoInternal    0x000365ac   Data          80  QtMultimediaKit.in(.constdata)
    .constdata                               0x000365ac   Section       80  QtMultimediaKit.in(.constdata)
    .constdata$1                             0x000365fc   Data           0  QtMultimediaKit.in(.constdata)
    qt_meta_stringdata_SymbianAudioInputPrivate 0x000365fc   Data          26  QtMultimediaKit.in(.constdata)
    .constdata                               0x000365fc   Section      220  QtMultimediaKit.in(.constdata)
    qt_meta_stringdata_QAudioInputPrivate    0x00036616   Data         161  QtMultimediaKit.in(.constdata)
    .constdata$13                            0x000366d8   Data           0  QtMultimediaKit.in(.constdata)
    qt_meta_data_SymbianAudioInputPrivate    0x000366d8   Data          60  QtMultimediaKit.in(.constdata)
    .constdata                               0x000366d8   Section       60  QtMultimediaKit.in(.constdata)
    .constdata$19                            0x00036714   Data           0  QtMultimediaKit.in(.constdata)
    qt_meta_data_QAudioInputPrivate          0x00036714   Data         180  QtMultimediaKit.in(.constdata)
    .constdata                               0x00036714   Section      180  QtMultimediaKit.in(.constdata)
    .constdata$1                             0x000367c8   Data           0  QtMultimediaKit.in(.constdata)
    qt_meta_stringdata_SymbianAudioOutputPrivate 0x000367c8   Data          27  QtMultimediaKit.in(.constdata)
    .constdata                               0x000367c8   Section      244  QtMultimediaKit.in(.constdata)
    qt_meta_stringdata_QAudioOutputPrivate   0x000367e3   Data         184  QtMultimediaKit.in(.constdata)
    .constdata$13                            0x000368bc   Data           0  QtMultimediaKit.in(.constdata)
    qt_meta_data_SymbianAudioOutputPrivate   0x000368bc   Data          60  QtMultimediaKit.in(.constdata)
    .constdata                               0x000368bc   Section       60  QtMultimediaKit.in(.constdata)
    .constdata$19                            0x000368f8   Data           0  QtMultimediaKit.in(.constdata)
    qt_meta_data_QAudioOutputPrivate         0x000368f8   Data         200  QtMultimediaKit.in(.constdata)
    .constdata                               0x000368f8   Section      200  QtMultimediaKit.in(.constdata)
    .constdata$1                             0x000369c0   Data           0  QtMultimediaKit.in(.constdata)
    qt_meta_stringdata_QSoundEffectPrivate   0x000369c0   Data         116  QtMultimediaKit.in(.constdata)
    .constdata                               0x000369c0   Section      132  QtMultimediaKit.in(.constdata)
    .constdata$10                            0x00036a44   Data           0  QtMultimediaKit.in(.constdata)
    qt_meta_data_QSoundEffectPrivate         0x00036a44   Data         200  QtMultimediaKit.in(.constdata)
    .constdata                               0x00036a44   Section      200  QtMultimediaKit.in(.constdata)
    .constdata$1                             0x00036b0c   Data           0  QtMultimediaKit.in(.constdata)
    qt_meta_stringdata_QSoundEffect          0x00036b0c   Data         265  QtMultimediaKit.in(.constdata)
    .constdata                               0x00036b0c   Section      360  QtMultimediaKit.in(.constdata)
    .constdata$10                            0x00036c74   Data           0  QtMultimediaKit.in(.constdata)
    qt_meta_data_QSoundEffect                0x00036c74   Data         416  QtMultimediaKit.in(.constdata)
    .constdata                               0x00036c74   Section      416  QtMultimediaKit.in(.constdata)
    .constdata$1                             0x00036e14   Data           0  QtMultimediaKit.in(.constdata)
    qt_meta_stringdata_QWaveDecoder          0x00036e14   Data          58  QtMultimediaKit.in(.constdata)
    .constdata                               0x00036e14   Section       76  QtMultimediaKit.in(.constdata)
    .constdata$10                            0x00036e60   Data           0  QtMultimediaKit.in(.constdata)
    qt_meta_data_QWaveDecoder                0x00036e60   Data         120  QtMultimediaKit.in(.constdata)
    .constdata                               0x00036e60   Section      120  QtMultimediaKit.in(.constdata)
    .constdata$1                             0x00036ed8   Data           0  QtMultimediaKit.in(.constdata)
    qt_meta_stringdata_QAbstractVideoSurface 0x00036ed8   Data         180  QtMultimediaKit.in(.constdata)
    .constdata                               0x00036ed8   Section      196  QtMultimediaKit.in(.constdata)
    .constdata$10                            0x00036f9c   Data           0  QtMultimediaKit.in(.constdata)
    qt_meta_data_QAbstractVideoSurface       0x00036f9c   Data         156  QtMultimediaKit.in(.constdata)
    .constdata                               0x00036f9c   Section      156  QtMultimediaKit.in(.constdata)
    .constdata__ZTI11QAudioInput             0x00037038   Section       12  QtMultimediaKit.in(.constdata__ZTI11QAudioInput)
    .constdata__ZTI11QRadioTuner             0x00037044   Section       12  QtMultimediaKit.in(.constdata__ZTI11QRadioTuner)
    .constdata__ZTI12QAudioOutput            0x00037050   Section       12  QtMultimediaKit.in(.constdata__ZTI12QAudioOutput)
    .constdata__ZTI12QCameraFocus            0x0003705c   Section       12  QtMultimediaKit.in(.constdata__ZTI12QCameraFocus)
    .constdata__ZTI12QMediaObject            0x00037068   Section       12  QtMultimediaKit.in(.constdata__ZTI12QMediaObject)
    .constdata__ZTI12QMediaPlayer            0x00037074   Section       12  QtMultimediaKit.in(.constdata__ZTI12QMediaPlayer)
    .constdata__ZTI12QSoundEffect            0x00037080   Section       12  QtMultimediaKit.in(.constdata__ZTI12QSoundEffect)
    .constdata__ZTI12QVideoWidget            0x0003708c   Section       32  QtMultimediaKit.in(.constdata__ZTI12QVideoWidget)
    .constdata__ZTI12QWaveDecoder            0x000370ac   Section       12  QtMultimediaKit.in(.constdata__ZTI12QWaveDecoder)
    .constdata__ZTI13QMediaControl           0x000370b8   Section       12  QtMultimediaKit.in(.constdata__ZTI13QMediaControl)
    .constdata__ZTI13QMediaService           0x000370c4   Section       12  QtMultimediaKit.in(.constdata__ZTI13QMediaService)
    .constdata__ZTI14QCameraControl          0x000370d0   Section       12  QtMultimediaKit.in(.constdata__ZTI14QCameraControl)
    .constdata__ZTI14QCameraPrivate          0x000370dc   Section       12  QtMultimediaKit.in(.constdata__ZTI14QCameraPrivate)
    .constdata__ZTI14QMediaPlaylist          0x000370e8   Section       32  QtMultimediaKit.in(.constdata__ZTI14QMediaPlaylist)
    .constdata__ZTI14QMediaRecorder          0x00037108   Section       32  QtMultimediaKit.in(.constdata__ZTI14QMediaRecorder)
    .constdata__ZTI15QCameraExposure         0x00037128   Section       12  QtMultimediaKit.in(.constdata__ZTI15QCameraExposure)
    .constdata__ZTI15QNullDeviceInfo         0x00037134   Section       12  QtMultimediaKit.in(.constdata__ZTI15QNullDeviceInfo)
    .constdata__ZTI16QNullInputDevice        0x00037140   Section       12  QtMultimediaKit.in(.constdata__ZTI16QNullInputDevice)
    .constdata__ZTI17MDevSoundObserver       0x0003714c   Section        8  QtMultimediaKit.in(.constdata__ZTI17MDevSoundObserver)
    .constdata__ZTI17QCameraViewfinder       0x00037154   Section       12  QtMultimediaKit.in(.constdata__ZTI17QCameraViewfinder)
    .constdata__ZTI17QFactoryInterface       0x00037160   Section        8  QtMultimediaKit.in(.constdata__ZTI17QFactoryInterface)
    .constdata__ZTI17QImageVideoBuffer       0x00037168   Section       12  QtMultimediaKit.in(.constdata__ZTI17QImageVideoBuffer)
    .constdata__ZTI17QMediaImageViewer       0x00037174   Section       12  QtMultimediaKit.in(.constdata__ZTI17QMediaImageViewer)
    .constdata__ZTI17QNullOutputDevice       0x00037180   Section       12  QtMultimediaKit.in(.constdata__ZTI17QNullOutputDevice)
    .constdata__ZTI18QAudioInputPrivate      0x0003718c   Section       12  QtMultimediaKit.in(.constdata__ZTI18QAudioInputPrivate)
    .constdata__ZTI18QAudioSystemPlugin      0x00037198   Section       32  QtMultimediaKit.in(.constdata__ZTI18QAudioSystemPlugin)
    .constdata__ZTI18QGraphicsVideoItem      0x000371b8   Section       32  QtMultimediaKit.in(.constdata__ZTI18QGraphicsVideoItem)
    .constdata__ZTI18QMemoryVideoBuffer      0x000371d8   Section       12  QtMultimediaKit.in(.constdata__ZTI18QMemoryVideoBuffer)
    .constdata__ZTI18QRadioTunerControl      0x000371e4   Section       12  QtMultimediaKit.in(.constdata__ZTI18QRadioTunerControl)
    .constdata__ZTI18QRadioTunerPrivate      0x000371f0   Section       12  QtMultimediaKit.in(.constdata__ZTI18QRadioTunerPrivate)
    .constdata__ZTI19QAbstractAudioInput     0x000371fc   Section       12  QtMultimediaKit.in(.constdata__ZTI19QAbstractAudioInput)
    .constdata__ZTI19QAudioCaptureSource     0x00037208   Section       12  QtMultimediaKit.in(.constdata__ZTI19QAudioCaptureSource)
    .constdata__ZTI19QAudioOutputPrivate     0x00037214   Section       12  QtMultimediaKit.in(.constdata__ZTI19QAudioOutputPrivate)
    .constdata__ZTI19QCameraFlashControl     0x00037220   Section       12  QtMultimediaKit.in(.constdata__ZTI19QCameraFlashControl)
    .constdata__ZTI19QCameraFocusControl     0x0003722c   Section       12  QtMultimediaKit.in(.constdata__ZTI19QCameraFocusControl)
    .constdata__ZTI19QCameraFocusPrivate     0x00037238   Section       12  QtMultimediaKit.in(.constdata__ZTI19QCameraFocusPrivate)
    .constdata__ZTI19QCameraImageCapture     0x00037244   Section       32  QtMultimediaKit.in(.constdata__ZTI19QCameraImageCapture)
    .constdata__ZTI19QCameraLocksControl     0x00037264   Section       12  QtMultimediaKit.in(.constdata__ZTI19QCameraLocksControl)
    .constdata__ZTI19QMediaObjectPrivate     0x00037270   Section        8  QtMultimediaKit.in(.constdata__ZTI19QMediaObjectPrivate)
    .constdata__ZTI19QMediaPlayerControl     0x00037278   Section       12  QtMultimediaKit.in(.constdata__ZTI19QMediaPlayerControl)
    .constdata__ZTI19QMediaPlayerPrivate     0x00037284   Section       12  QtMultimediaKit.in(.constdata__ZTI19QMediaPlayerPrivate)
    .constdata__ZTI19QSoundEffectPrivate     0x00037290   Section       12  QtMultimediaKit.in(.constdata__ZTI19QSoundEffectPrivate)
    .constdata__ZTI19QVideoDeviceControl     0x0003729c   Section       12  QtMultimediaKit.in(.constdata__ZTI19QVideoDeviceControl)
    .constdata__ZTI19QVideoWidgetBackend     0x000372a8   Section       32  QtMultimediaKit.in(.constdata__ZTI19QVideoWidgetBackend)
    .constdata__ZTI19QVideoWidgetControl     0x000372c8   Section       12  QtMultimediaKit.in(.constdata__ZTI19QVideoWidgetControl)
    .constdata__ZTI19QVideoWindowControl     0x000372d4   Section       12  QtMultimediaKit.in(.constdata__ZTI19QVideoWindowControl)
    .constdata__ZTI20QAbstractAudioOutput    0x000372e0   Section       12  QtMultimediaKit.in(.constdata__ZTI20QAbstractAudioOutput)
    .constdata__ZTI20QAbstractVideoBuffer    0x000372ec   Section        8  QtMultimediaKit.in(.constdata__ZTI20QAbstractVideoBuffer)
    .constdata__ZTI20QAudioEncoderControl    0x000372f4   Section       12  QtMultimediaKit.in(.constdata__ZTI20QAudioEncoderControl)
    .constdata__ZTI20QImageEncoderControl    0x00037300   Section       12  QtMultimediaKit.in(.constdata__ZTI20QImageEncoderControl)
    .constdata__ZTI20QMediaControlPrivate    0x0003730c   Section        8  QtMultimediaKit.in(.constdata__ZTI20QMediaControlPrivate)
    .constdata__ZTI20QMediaPlaylistReader    0x00037314   Section        8  QtMultimediaKit.in(.constdata__ZTI20QMediaPlaylistReader)
    .constdata__ZTI20QMediaPlaylistWriter    0x0003731c   Section        8  QtMultimediaKit.in(.constdata__ZTI20QMediaPlaylistWriter)
    .constdata__ZTI20QMediaServicePrivate    0x00037324   Section        8  QtMultimediaKit.in(.constdata__ZTI20QMediaServicePrivate)
    .constdata__ZTI20QMediaStreamsControl    0x0003732c   Section       12  QtMultimediaKit.in(.constdata__ZTI20QMediaStreamsControl)
    .constdata__ZTI20QPainterVideoSurface    0x00037338   Section       12  QtMultimediaKit.in(.constdata__ZTI20QPainterVideoSurface)
    .constdata__ZTI20QVideoEncoderControl    0x00037344   Section       12  QtMultimediaKit.in(.constdata__ZTI20QVideoEncoderControl)
    .constdata__ZTI20QVideoSurfacePainter    0x00037350   Section        8  QtMultimediaKit.in(.constdata__ZTI20QVideoSurfacePainter)
    .constdata__ZTI21QAbstractVideoSurface   0x00037358   Section       12  QtMultimediaKit.in(.constdata__ZTI21QAbstractVideoSurface)
    .constdata__ZTI21QMediaPlaylistControl   0x00037364   Section       12  QtMultimediaKit.in(.constdata__ZTI21QMediaPlaylistControl)
    .constdata__ZTI21QMediaPlaylistPrivate   0x00037370   Section        8  QtMultimediaKit.in(.constdata__ZTI21QMediaPlaylistPrivate)
    .constdata__ZTI21QMediaRecorderControl   0x00037378   Section       12  QtMultimediaKit.in(.constdata__ZTI21QMediaRecorderControl)
    .constdata__ZTI21QMediaServiceProvider   0x00037384   Section       12  QtMultimediaKit.in(.constdata__ZTI21QMediaServiceProvider)
    .constdata__ZTI21QVideoRendererControl   0x00037390   Section       12  QtMultimediaKit.in(.constdata__ZTI21QVideoRendererControl)
    .constdata__ZTI22QAudioEndpointSelector  0x0003739c   Section       12  QtMultimediaKit.in(.constdata__ZTI22QAudioEndpointSelector)
    .constdata__ZTI22QCameraExposureControl  0x000373a8   Section       12  QtMultimediaKit.in(.constdata__ZTI22QCameraExposureControl)
    .constdata__ZTI22QCameraImageProcessing  0x000373b4   Section       12  QtMultimediaKit.in(.constdata__ZTI22QCameraImageProcessing)
    .constdata__ZTI22QMediaContainerControl  0x000373c0   Section       12  QtMultimediaKit.in(.constdata__ZTI22QMediaContainerControl)
    .constdata__ZTI22QMediaPlaylistIOPlugin  0x000373cc   Section       32  QtMultimediaKit.in(.constdata__ZTI22QMediaPlaylistIOPlugin)
    .constdata__ZTI22QMediaPlaylistProvider  0x000373ec   Section       12  QtMultimediaKit.in(.constdata__ZTI22QMediaPlaylistProvider)
    .constdata__ZTI22QMetaDataReaderControl  0x000373f8   Section       12  QtMultimediaKit.in(.constdata__ZTI22QMetaDataReaderControl)
    .constdata__ZTI22QMetaDataWriterControl  0x00037404   Section       12  QtMultimediaKit.in(.constdata__ZTI22QMetaDataWriterControl)
    .constdata__ZTI22QPluginServiceProvider  0x00037410   Section       12  QtMultimediaKit.in(.constdata__ZTI22QPluginServiceProvider)
    .constdata__ZTI23QMediaBindableInterface 0x0003741c   Section        8  QtMultimediaKit.in(.constdata__ZTI23QMediaBindableInterface)
    .constdata__ZTI23QMediaPlaylistNavigator 0x00037424   Section       12  QtMultimediaKit.in(.constdata__ZTI23QMediaPlaylistNavigator)
    .constdata__ZTI24QAbstractAudioDeviceInfo 0x00037430   Section       12  QtMultimediaKit.in(.constdata__ZTI24QAbstractAudioDeviceInfo)
    .constdata__ZTI24QAudioDeviceInfoInternal 0x0003743c   Section       12  QtMultimediaKit.in(.constdata__ZTI24QAudioDeviceInfoInternal)
    .constdata__ZTI24QImageVideoBufferPrivate 0x00037448   Section       12  QtMultimediaKit.in(.constdata__ZTI24QImageVideoBufferPrivate)
    .constdata__ZTI24QMediaImageViewerControl 0x00037454   Section       12  QtMultimediaKit.in(.constdata__ZTI24QMediaImageViewerControl)
    .constdata__ZTI24QMediaImageViewerPrivate 0x00037460   Section       12  QtMultimediaKit.in(.constdata__ZTI24QMediaImageViewerPrivate)
    .constdata__ZTI24QMediaImageViewerService 0x0003746c   Section       12  QtMultimediaKit.in(.constdata__ZTI24QMediaImageViewerService)
    .constdata__ZTI24SymbianAudioInputPrivate 0x00037478   Section       12  QtMultimediaKit.in(.constdata__ZTI24SymbianAudioInputPrivate)
    .constdata__ZTI25QGraphicsVideoItemPrivate 0x00037484   Section       12  QtMultimediaKit.in(.constdata__ZTI25QGraphicsVideoItemPrivate)
    .constdata__ZTI25QMediaImageViewerRenderer 0x00037490   Section       12  QtMultimediaKit.in(.constdata__ZTI25QMediaImageViewerRenderer)
    .constdata__ZTI25QMediaPlaylistIOInterface 0x0003749c   Section       12  QtMultimediaKit.in(.constdata__ZTI25QMediaPlaylistIOInterface)
    .constdata__ZTI25QMemoryVideoBufferPrivate 0x000374a8   Section       12  QtMultimediaKit.in(.constdata__ZTI25QMemoryVideoBufferPrivate)
    .constdata__ZTI25QWindowVideoWidgetBackend 0x000374b4   Section       12  QtMultimediaKit.in(.constdata__ZTI25QWindowVideoWidgetBackend)
    .constdata__ZTI25SymbianAudioOutputPrivate 0x000374c0   Section       12  QtMultimediaKit.in(.constdata__ZTI25SymbianAudioOutputPrivate)
    .constdata__ZTI26QAudioCaptureSourcePrivate 0x000374cc   Section       12  QtMultimediaKit.in(.constdata__ZTI26QAudioCaptureSourcePrivate)
    .constdata__ZTI26QCameraImageCaptureControl 0x000374d8   Section       12  QtMultimediaKit.in(.constdata__ZTI26QCameraImageCaptureControl)
    .constdata__ZTI26QLocalMediaPlaylistControl 0x000374e4   Section       12  QtMultimediaKit.in(.constdata__ZTI26QLocalMediaPlaylistControl)
    .constdata__ZTI26QMediaPlaylistNullProvider 0x000374f0   Section       12  QtMultimediaKit.in(.constdata__ZTI26QMediaPlaylistNullProvider)
    .constdata__ZTI26QVideoWidgetControlBackend 0x000374fc   Section       32  QtMultimediaKit.in(.constdata__ZTI26QVideoWidgetControlBackend)
    .constdata__ZTI27QAbstractVideoBufferPrivate 0x0003751c   Section        8  QtMultimediaKit.in(.constdata__ZTI27QAbstractVideoBufferPrivate)
    .constdata__ZTI27QLocalMediaPlaylistProvider 0x00037524   Section       12  QtMultimediaKit.in(.constdata__ZTI27QLocalMediaPlaylistProvider)
    .constdata__ZTI27QMediaPlaylistSourceControl 0x00037530   Section       12  QtMultimediaKit.in(.constdata__ZTI27QMediaPlaylistSourceControl)
    .constdata__ZTI27QMediaServiceProviderPlugin 0x0003753c   Section       32  QtMultimediaKit.in(.constdata__ZTI27QMediaServiceProviderPlugin)
    .constdata__ZTI27QRendererVideoWidgetBackend 0x0003755c   Section       12  QtMultimediaKit.in(.constdata__ZTI27QRendererVideoWidgetBackend)
    .constdata__ZTI27QVideoSurfaceGenericPainter 0x00037568   Section       12  QtMultimediaKit.in(.constdata__ZTI27QVideoSurfaceGenericPainter)
    .constdata__ZTI28QAudioSystemFactoryInterface 0x00037574   Section       12  QtMultimediaKit.in(.constdata__ZTI28QAudioSystemFactoryInterface)
    .constdata__ZTI28QVideoWidgetControlInterface 0x00037580   Section        8  QtMultimediaKit.in(.constdata__ZTI28QVideoWidgetControlInterface)
    .constdata__ZTI29QCameraImageProcessingControl 0x00037588   Section       12  QtMultimediaKit.in(.constdata__ZTI29QCameraImageProcessingControl)
    .constdata__ZTI29QCameraImageProcessingPrivate 0x00037594   Section       12  QtMultimediaKit.in(.constdata__ZTI29QCameraImageProcessingPrivate)
    .constdata__ZTI29QMediaPlaylistProviderPrivate 0x000375a0   Section        8  QtMultimediaKit.in(.constdata__ZTI29QMediaPlaylistProviderPrivate)
    .constdata__ZTI31QMediaImageViewerControlPrivate 0x000375a8   Section       12  QtMultimediaKit.in(.constdata__ZTI31QMediaImageViewerControlPrivate)
    .constdata__ZTI31QMediaImageViewerServicePrivate 0x000375b4   Section       12  QtMultimediaKit.in(.constdata__ZTI31QMediaImageViewerServicePrivate)
    .constdata__ZTI34QLocalMediaPlaylistProviderPrivate 0x000375c0   Section       12  QtMultimediaKit.in(.constdata__ZTI34QLocalMediaPlaylistProviderPrivate)
    .constdata__ZTI37QMediaServiceProviderFactoryInterface 0x000375cc   Section       12  QtMultimediaKit.in(.constdata__ZTI37QMediaServiceProviderFactoryInterface)
    .constdata__ZTI7QCamera                  0x000375d8   Section       12  QtMultimediaKit.in(.constdata__ZTI7QCamera)
    .constdata__ZTIN12SymbianAudio15DevSoundWrapperE 0x000375e4   Section       32  QtMultimediaKit.in(.constdata__ZTIN12SymbianAudio15DevSoundWrapperE)
    .constdata__ZTISt9bad_alloc              0x00037604   Section       12  QtMultimediaKit.in(.constdata__ZTISt9bad_alloc)
    .constdata__ZTS11QAudioInput             0x00037610   Section       14  QtMultimediaKit.in(.constdata__ZTS11QAudioInput)
    .constdata__ZTS11QRadioTuner             0x0003761e   Section       14  QtMultimediaKit.in(.constdata__ZTS11QRadioTuner)
    .constdata__ZTS12QAudioOutput            0x0003762c   Section       15  QtMultimediaKit.in(.constdata__ZTS12QAudioOutput)
    .constdata__ZTS12QCameraFocus            0x0003763b   Section       15  QtMultimediaKit.in(.constdata__ZTS12QCameraFocus)
    .constdata__ZTS12QMediaObject            0x0003764a   Section       15  QtMultimediaKit.in(.constdata__ZTS12QMediaObject)
    .constdata__ZTS12QMediaPlayer            0x00037659   Section       15  QtMultimediaKit.in(.constdata__ZTS12QMediaPlayer)
    .constdata__ZTS12QSoundEffect            0x00037668   Section       15  QtMultimediaKit.in(.constdata__ZTS12QSoundEffect)
    .constdata__ZTS12QVideoWidget            0x00037677   Section       15  QtMultimediaKit.in(.constdata__ZTS12QVideoWidget)
    .constdata__ZTS12QWaveDecoder            0x00037686   Section       15  QtMultimediaKit.in(.constdata__ZTS12QWaveDecoder)
    .constdata__ZTS13QMediaControl           0x00037695   Section       16  QtMultimediaKit.in(.constdata__ZTS13QMediaControl)
    .constdata__ZTS13QMediaService           0x000376a5   Section       16  QtMultimediaKit.in(.constdata__ZTS13QMediaService)
    .constdata__ZTS14QCameraControl          0x000376b5   Section       17  QtMultimediaKit.in(.constdata__ZTS14QCameraControl)
    .constdata__ZTS14QCameraPrivate          0x000376c6   Section       17  QtMultimediaKit.in(.constdata__ZTS14QCameraPrivate)
    .constdata__ZTS14QMediaPlaylist          0x000376d7   Section       17  QtMultimediaKit.in(.constdata__ZTS14QMediaPlaylist)
    .constdata__ZTS14QMediaRecorder          0x000376e8   Section       17  QtMultimediaKit.in(.constdata__ZTS14QMediaRecorder)
    .constdata__ZTS15QCameraExposure         0x000376f9   Section       18  QtMultimediaKit.in(.constdata__ZTS15QCameraExposure)
    .constdata__ZTS15QNullDeviceInfo         0x0003770b   Section       18  QtMultimediaKit.in(.constdata__ZTS15QNullDeviceInfo)
    .constdata__ZTS16QNullInputDevice        0x0003771d   Section       19  QtMultimediaKit.in(.constdata__ZTS16QNullInputDevice)
    .constdata__ZTS17MDevSoundObserver       0x00037730   Section       20  QtMultimediaKit.in(.constdata__ZTS17MDevSoundObserver)
    .constdata__ZTS17QCameraViewfinder       0x00037744   Section       20  QtMultimediaKit.in(.constdata__ZTS17QCameraViewfinder)
    .constdata__ZTS17QFactoryInterface       0x00037758   Section       20  QtMultimediaKit.in(.constdata__ZTS17QFactoryInterface)
    .constdata__ZTS17QImageVideoBuffer       0x0003776c   Section       20  QtMultimediaKit.in(.constdata__ZTS17QImageVideoBuffer)
    .constdata__ZTS17QMediaImageViewer       0x00037780   Section       20  QtMultimediaKit.in(.constdata__ZTS17QMediaImageViewer)
    .constdata__ZTS17QNullOutputDevice       0x00037794   Section       20  QtMultimediaKit.in(.constdata__ZTS17QNullOutputDevice)
    .constdata__ZTS18QAudioInputPrivate      0x000377a8   Section       21  QtMultimediaKit.in(.constdata__ZTS18QAudioInputPrivate)
    .constdata__ZTS18QAudioSystemPlugin      0x000377bd   Section       21  QtMultimediaKit.in(.constdata__ZTS18QAudioSystemPlugin)
    .constdata__ZTS18QGraphicsVideoItem      0x000377d2   Section       21  QtMultimediaKit.in(.constdata__ZTS18QGraphicsVideoItem)
    .constdata__ZTS18QMemoryVideoBuffer      0x000377e7   Section       21  QtMultimediaKit.in(.constdata__ZTS18QMemoryVideoBuffer)
    .constdata__ZTS18QRadioTunerControl      0x000377fc   Section       21  QtMultimediaKit.in(.constdata__ZTS18QRadioTunerControl)
    .constdata__ZTS18QRadioTunerPrivate      0x00037811   Section       21  QtMultimediaKit.in(.constdata__ZTS18QRadioTunerPrivate)
    .constdata__ZTS19QAbstractAudioInput     0x00037826   Section       22  QtMultimediaKit.in(.constdata__ZTS19QAbstractAudioInput)
    .constdata__ZTS19QAudioCaptureSource     0x0003783c   Section       22  QtMultimediaKit.in(.constdata__ZTS19QAudioCaptureSource)
    .constdata__ZTS19QAudioOutputPrivate     0x00037852   Section       22  QtMultimediaKit.in(.constdata__ZTS19QAudioOutputPrivate)
    .constdata__ZTS19QCameraFlashControl     0x00037868   Section       22  QtMultimediaKit.in(.constdata__ZTS19QCameraFlashControl)
    .constdata__ZTS19QCameraFocusControl     0x0003787e   Section       22  QtMultimediaKit.in(.constdata__ZTS19QCameraFocusControl)
    .constdata__ZTS19QCameraFocusPrivate     0x00037894   Section       22  QtMultimediaKit.in(.constdata__ZTS19QCameraFocusPrivate)
    .constdata__ZTS19QCameraImageCapture     0x000378aa   Section       22  QtMultimediaKit.in(.constdata__ZTS19QCameraImageCapture)
    .constdata__ZTS19QCameraLocksControl     0x000378c0   Section       22  QtMultimediaKit.in(.constdata__ZTS19QCameraLocksControl)
    .constdata__ZTS19QMediaObjectPrivate     0x000378d6   Section       22  QtMultimediaKit.in(.constdata__ZTS19QMediaObjectPrivate)
    .constdata__ZTS19QMediaPlayerControl     0x000378ec   Section       22  QtMultimediaKit.in(.constdata__ZTS19QMediaPlayerControl)
    .constdata__ZTS19QMediaPlayerPrivate     0x00037902   Section       22  QtMultimediaKit.in(.constdata__ZTS19QMediaPlayerPrivate)
    .constdata__ZTS19QSoundEffectPrivate     0x00037918   Section       22  QtMultimediaKit.in(.constdata__ZTS19QSoundEffectPrivate)
    .constdata__ZTS19QVideoDeviceControl     0x0003792e   Section       22  QtMultimediaKit.in(.constdata__ZTS19QVideoDeviceControl)
    .constdata__ZTS19QVideoWidgetBackend     0x00037944   Section       22  QtMultimediaKit.in(.constdata__ZTS19QVideoWidgetBackend)
    .constdata__ZTS19QVideoWidgetControl     0x0003795a   Section       22  QtMultimediaKit.in(.constdata__ZTS19QVideoWidgetControl)
    .constdata__ZTS19QVideoWindowControl     0x00037970   Section       22  QtMultimediaKit.in(.constdata__ZTS19QVideoWindowControl)
    .constdata__ZTS20QAbstractAudioOutput    0x00037986   Section       23  QtMultimediaKit.in(.constdata__ZTS20QAbstractAudioOutput)
    .constdata__ZTS20QAbstractVideoBuffer    0x0003799d   Section       23  QtMultimediaKit.in(.constdata__ZTS20QAbstractVideoBuffer)
    .constdata__ZTS20QAudioEncoderControl    0x000379b4   Section       23  QtMultimediaKit.in(.constdata__ZTS20QAudioEncoderControl)
    .constdata__ZTS20QImageEncoderControl    0x000379cb   Section       23  QtMultimediaKit.in(.constdata__ZTS20QImageEncoderControl)
    .constdata__ZTS20QMediaControlPrivate    0x000379e2   Section       23  QtMultimediaKit.in(.constdata__ZTS20QMediaControlPrivate)
    .constdata__ZTS20QMediaPlaylistReader    0x000379f9   Section       23  QtMultimediaKit.in(.constdata__ZTS20QMediaPlaylistReader)
    .constdata__ZTS20QMediaPlaylistWriter    0x00037a10   Section       23  QtMultimediaKit.in(.constdata__ZTS20QMediaPlaylistWriter)
    .constdata__ZTS20QMediaServicePrivate    0x00037a27   Section       23  QtMultimediaKit.in(.constdata__ZTS20QMediaServicePrivate)
    .constdata__ZTS20QMediaStreamsControl    0x00037a3e   Section       23  QtMultimediaKit.in(.constdata__ZTS20QMediaStreamsControl)
    .constdata__ZTS20QPainterVideoSurface    0x00037a55   Section       23  QtMultimediaKit.in(.constdata__ZTS20QPainterVideoSurface)
    .constdata__ZTS20QVideoEncoderControl    0x00037a6c   Section       23  QtMultimediaKit.in(.constdata__ZTS20QVideoEncoderControl)
    .constdata__ZTS20QVideoSurfacePainter    0x00037a83   Section       23  QtMultimediaKit.in(.constdata__ZTS20QVideoSurfacePainter)
    .constdata__ZTS21QAbstractVideoSurface   0x00037a9a   Section       24  QtMultimediaKit.in(.constdata__ZTS21QAbstractVideoSurface)
    .constdata__ZTS21QMediaPlaylistControl   0x00037ab2   Section       24  QtMultimediaKit.in(.constdata__ZTS21QMediaPlaylistControl)
    .constdata__ZTS21QMediaPlaylistPrivate   0x00037aca   Section       24  QtMultimediaKit.in(.constdata__ZTS21QMediaPlaylistPrivate)
    .constdata__ZTS21QMediaRecorderControl   0x00037ae2   Section       24  QtMultimediaKit.in(.constdata__ZTS21QMediaRecorderControl)
    .constdata__ZTS21QMediaServiceProvider   0x00037afa   Section       24  QtMultimediaKit.in(.constdata__ZTS21QMediaServiceProvider)
    .constdata__ZTS21QVideoRendererControl   0x00037b12   Section       24  QtMultimediaKit.in(.constdata__ZTS21QVideoRendererControl)
    .constdata__ZTS22QAudioEndpointSelector  0x00037b2a   Section       25  QtMultimediaKit.in(.constdata__ZTS22QAudioEndpointSelector)
    .constdata__ZTS22QCameraExposureControl  0x00037b43   Section       25  QtMultimediaKit.in(.constdata__ZTS22QCameraExposureControl)
    .constdata__ZTS22QCameraImageProcessing  0x00037b5c   Section       25  QtMultimediaKit.in(.constdata__ZTS22QCameraImageProcessing)
    .constdata__ZTS22QMediaContainerControl  0x00037b75   Section       25  QtMultimediaKit.in(.constdata__ZTS22QMediaContainerControl)
    .constdata__ZTS22QMediaPlaylistIOPlugin  0x00037b8e   Section       25  QtMultimediaKit.in(.constdata__ZTS22QMediaPlaylistIOPlugin)
    .constdata__ZTS22QMediaPlaylistProvider  0x00037ba7   Section       25  QtMultimediaKit.in(.constdata__ZTS22QMediaPlaylistProvider)
    .constdata__ZTS22QMetaDataReaderControl  0x00037bc0   Section       25  QtMultimediaKit.in(.constdata__ZTS22QMetaDataReaderControl)
    .constdata__ZTS22QMetaDataWriterControl  0x00037bd9   Section       25  QtMultimediaKit.in(.constdata__ZTS22QMetaDataWriterControl)
    .constdata__ZTS22QPluginServiceProvider  0x00037bf2   Section       25  QtMultimediaKit.in(.constdata__ZTS22QPluginServiceProvider)
    .constdata__ZTS23QMediaBindableInterface 0x00037c0b   Section       26  QtMultimediaKit.in(.constdata__ZTS23QMediaBindableInterface)
    .constdata__ZTS23QMediaPlaylistNavigator 0x00037c25   Section       26  QtMultimediaKit.in(.constdata__ZTS23QMediaPlaylistNavigator)
    .constdata__ZTS24QAbstractAudioDeviceInfo 0x00037c3f   Section       27  QtMultimediaKit.in(.constdata__ZTS24QAbstractAudioDeviceInfo)
    .constdata__ZTS24QAudioDeviceInfoInternal 0x00037c5a   Section       27  QtMultimediaKit.in(.constdata__ZTS24QAudioDeviceInfoInternal)
    .constdata__ZTS24QImageVideoBufferPrivate 0x00037c75   Section       27  QtMultimediaKit.in(.constdata__ZTS24QImageVideoBufferPrivate)
    .constdata__ZTS24QMediaImageViewerControl 0x00037c90   Section       27  QtMultimediaKit.in(.constdata__ZTS24QMediaImageViewerControl)
    .constdata__ZTS24QMediaImageViewerPrivate 0x00037cab   Section       27  QtMultimediaKit.in(.constdata__ZTS24QMediaImageViewerPrivate)
    .constdata__ZTS24QMediaImageViewerService 0x00037cc6   Section       27  QtMultimediaKit.in(.constdata__ZTS24QMediaImageViewerService)
    .constdata__ZTS24SymbianAudioInputPrivate 0x00037ce1   Section       27  QtMultimediaKit.in(.constdata__ZTS24SymbianAudioInputPrivate)
    .constdata__ZTS25QGraphicsVideoItemPrivate 0x00037cfc   Section       28  QtMultimediaKit.in(.constdata__ZTS25QGraphicsVideoItemPrivate)
    .constdata__ZTS25QMediaImageViewerRenderer 0x00037d18   Section       28  QtMultimediaKit.in(.constdata__ZTS25QMediaImageViewerRenderer)
    .constdata__ZTS25QMediaPlaylistIOInterface 0x00037d34   Section       28  QtMultimediaKit.in(.constdata__ZTS25QMediaPlaylistIOInterface)
    .constdata__ZTS25QMemoryVideoBufferPrivate 0x00037d50   Section       28  QtMultimediaKit.in(.constdata__ZTS25QMemoryVideoBufferPrivate)
    .constdata__ZTS25QWindowVideoWidgetBackend 0x00037d6c   Section       28  QtMultimediaKit.in(.constdata__ZTS25QWindowVideoWidgetBackend)
    .constdata__ZTS25SymbianAudioOutputPrivate 0x00037d88   Section       28  QtMultimediaKit.in(.constdata__ZTS25SymbianAudioOutputPrivate)
    .constdata__ZTS26QAudioCaptureSourcePrivate 0x00037da4   Section       29  QtMultimediaKit.in(.constdata__ZTS26QAudioCaptureSourcePrivate)
    .constdata__ZTS26QCameraImageCaptureControl 0x00037dc1   Section       29  QtMultimediaKit.in(.constdata__ZTS26QCameraImageCaptureControl)
    .constdata__ZTS26QLocalMediaPlaylistControl 0x00037dde   Section       29  QtMultimediaKit.in(.constdata__ZTS26QLocalMediaPlaylistControl)
    .constdata__ZTS26QMediaPlaylistNullProvider 0x00037dfb   Section       29  QtMultimediaKit.in(.constdata__ZTS26QMediaPlaylistNullProvider)
    .constdata__ZTS26QVideoWidgetControlBackend 0x00037e18   Section       29  QtMultimediaKit.in(.constdata__ZTS26QVideoWidgetControlBackend)
    .constdata__ZTS27QAbstractVideoBufferPrivate 0x00037e35   Section       30  QtMultimediaKit.in(.constdata__ZTS27QAbstractVideoBufferPrivate)
    .constdata__ZTS27QLocalMediaPlaylistProvider 0x00037e53   Section       30  QtMultimediaKit.in(.constdata__ZTS27QLocalMediaPlaylistProvider)
    .constdata__ZTS27QMediaPlaylistSourceControl 0x00037e71   Section       30  QtMultimediaKit.in(.constdata__ZTS27QMediaPlaylistSourceControl)
    .constdata__ZTS27QMediaServiceProviderPlugin 0x00037e8f   Section       30  QtMultimediaKit.in(.constdata__ZTS27QMediaServiceProviderPlugin)
    .constdata__ZTS27QRendererVideoWidgetBackend 0x00037ead   Section       30  QtMultimediaKit.in(.constdata__ZTS27QRendererVideoWidgetBackend)
    .constdata__ZTS27QVideoSurfaceGenericPainter 0x00037ecb   Section       30  QtMultimediaKit.in(.constdata__ZTS27QVideoSurfaceGenericPainter)
    .constdata__ZTS28QAudioSystemFactoryInterface 0x00037ee9   Section       31  QtMultimediaKit.in(.constdata__ZTS28QAudioSystemFactoryInterface)
    .constdata__ZTS28QVideoWidgetControlInterface 0x00037f08   Section       31  QtMultimediaKit.in(.constdata__ZTS28QVideoWidgetControlInterface)
    .constdata__ZTS29QCameraImageProcessingControl 0x00037f27   Section       32  QtMultimediaKit.in(.constdata__ZTS29QCameraImageProcessingControl)
    .constdata__ZTS29QCameraImageProcessingPrivate 0x00037f47   Section       32  QtMultimediaKit.in(.constdata__ZTS29QCameraImageProcessingPrivate)
    .constdata__ZTS29QMediaPlaylistProviderPrivate 0x00037f67   Section       32  QtMultimediaKit.in(.constdata__ZTS29QMediaPlaylistProviderPrivate)
    .constdata__ZTS31QMediaImageViewerControlPrivate 0x00037f87   Section       34  QtMultimediaKit.in(.constdata__ZTS31QMediaImageViewerControlPrivate)
    .constdata__ZTS31QMediaImageViewerServicePrivate 0x00037fa9   Section       34  QtMultimediaKit.in(.constdata__ZTS31QMediaImageViewerServicePrivate)
    .constdata__ZTS34QLocalMediaPlaylistProviderPrivate 0x00037fcb   Section       37  QtMultimediaKit.in(.constdata__ZTS34QLocalMediaPlaylistProviderPrivate)
    .constdata__ZTS37QMediaServiceProviderFactoryInterface 0x00037ff0   Section       40  QtMultimediaKit.in(.constdata__ZTS37QMediaServiceProviderFactoryInterface)
    .constdata__ZTS7QCamera                  0x00038018   Section        9  QtMultimediaKit.in(.constdata__ZTS7QCamera)
    .constdata__ZTSN12SymbianAudio15DevSoundWrapperE 0x00038021   Section       34  QtMultimediaKit.in(.constdata__ZTSN12SymbianAudio15DevSoundWrapperE)
    .constdata__ZTSSt9bad_alloc              0x00038043   Section       13  QtMultimediaKit.in(.constdata__ZTSSt9bad_alloc)
    .constdata__ZTV11QAudioInput             0x00038050   Section       56  QtMultimediaKit.in(.constdata__ZTV11QAudioInput)
    .constdata__ZTV11QRadioTuner             0x00038088   Section       76  QtMultimediaKit.in(.constdata__ZTV11QRadioTuner)
    .constdata__ZTV12QAudioOutput            0x000380d4   Section       56  QtMultimediaKit.in(.constdata__ZTV12QAudioOutput)
    .constdata__ZTV12QCameraFocus            0x0003810c   Section       56  QtMultimediaKit.in(.constdata__ZTV12QCameraFocus)
    .constdata__ZTV12QMediaObject            0x00038144   Section       76  QtMultimediaKit.in(.constdata__ZTV12QMediaObject)
    .constdata__ZTV12QMediaPlayer            0x00038190   Section       76  QtMultimediaKit.in(.constdata__ZTV12QMediaPlayer)
    .constdata__ZTV12QSoundEffect            0x000381dc   Section       56  QtMultimediaKit.in(.constdata__ZTV12QSoundEffect)
    .constdata__ZTV12QVideoWidget            0x00038214   Section      280  QtMultimediaKit.in(.constdata__ZTV12QVideoWidget)
    .constdata__ZTV12QWaveDecoder            0x0003832c   Section      120  QtMultimediaKit.in(.constdata__ZTV12QWaveDecoder)
    .constdata__ZTV13QMediaControl           0x000383a4   Section       56  QtMultimediaKit.in(.constdata__ZTV13QMediaControl)
    .constdata__ZTV13QMediaService           0x000383dc   Section       64  QtMultimediaKit.in(.constdata__ZTV13QMediaService)
    .constdata__ZTV14QCameraControl          0x0003841c   Section       84  QtMultimediaKit.in(.constdata__ZTV14QCameraControl)
    .constdata__ZTV14QCameraPrivate          0x00038470   Section       16  QtMultimediaKit.in(.constdata__ZTV14QCameraPrivate)
    .constdata__ZTV14QMediaPlaylist          0x00038480   Section       88  QtMultimediaKit.in(.constdata__ZTV14QMediaPlaylist)
    .constdata__ZTV14QMediaRecorder          0x000384d8   Section       88  QtMultimediaKit.in(.constdata__ZTV14QMediaRecorder)
    .constdata__ZTV15QCameraExposure         0x00038530   Section       56  QtMultimediaKit.in(.constdata__ZTV15QCameraExposure)
    .constdata__ZTV15QNullDeviceInfo         0x00038568   Section       92  QtMultimediaKit.in(.constdata__ZTV15QNullDeviceInfo)
    .constdata__ZTV16QNullInputDevice        0x000385c4   Section      128  QtMultimediaKit.in(.constdata__ZTV16QNullInputDevice)
    .constdata__ZTV17QCameraViewfinder       0x00038644   Section      280  QtMultimediaKit.in(.constdata__ZTV17QCameraViewfinder)
    .constdata__ZTV17QImageVideoBuffer       0x0003875c   Section       32  QtMultimediaKit.in(.constdata__ZTV17QImageVideoBuffer)
    .constdata__ZTV17QMediaImageViewer       0x0003877c   Section       76  QtMultimediaKit.in(.constdata__ZTV17QMediaImageViewer)
    .constdata__ZTV17QNullOutputDevice       0x000387c8   Section      128  QtMultimediaKit.in(.constdata__ZTV17QNullOutputDevice)
    .constdata__ZTV18QAudioInputPrivate      0x00038848   Section      128  QtMultimediaKit.in(.constdata__ZTV18QAudioInputPrivate)
    .constdata__ZTV18QAudioSystemPlugin      0x000388c8   Section      112  QtMultimediaKit.in(.constdata__ZTV18QAudioSystemPlugin)
    .constdata__ZTV18QGraphicsVideoItem      0x00038938   Section      256  QtMultimediaKit.in(.constdata__ZTV18QGraphicsVideoItem)
    .constdata__ZTV18QMemoryVideoBuffer      0x00038a38   Section       32  QtMultimediaKit.in(.constdata__ZTV18QMemoryVideoBuffer)
    .constdata__ZTV18QRadioTunerControl      0x00038a58   Section      160  QtMultimediaKit.in(.constdata__ZTV18QRadioTunerControl)
    .constdata__ZTV18QRadioTunerPrivate      0x00038af8   Section       16  QtMultimediaKit.in(.constdata__ZTV18QRadioTunerPrivate)
    .constdata__ZTV19QAbstractAudioInput     0x00038b08   Section      128  QtMultimediaKit.in(.constdata__ZTV19QAbstractAudioInput)
    .constdata__ZTV19QAudioCaptureSource     0x00038b88   Section       76  QtMultimediaKit.in(.constdata__ZTV19QAudioCaptureSource)
    .constdata__ZTV19QAudioOutputPrivate     0x00038bd4   Section      128  QtMultimediaKit.in(.constdata__ZTV19QAudioOutputPrivate)
    .constdata__ZTV19QCameraFlashControl     0x00038c54   Section       72  QtMultimediaKit.in(.constdata__ZTV19QCameraFlashControl)
    .constdata__ZTV19QCameraFocusControl     0x00038c9c   Section      112  QtMultimediaKit.in(.constdata__ZTV19QCameraFocusControl)
    .constdata__ZTV19QCameraFocusPrivate     0x00038d0c   Section       16  QtMultimediaKit.in(.constdata__ZTV19QCameraFocusPrivate)
    .constdata__ZTV19QCameraImageCapture     0x00038d1c   Section       88  QtMultimediaKit.in(.constdata__ZTV19QCameraImageCapture)
    .constdata__ZTV19QCameraLocksControl     0x00038d74   Section       72  QtMultimediaKit.in(.constdata__ZTV19QCameraLocksControl)
    .constdata__ZTV19QMediaObjectPrivate     0x00038dbc   Section       16  QtMultimediaKit.in(.constdata__ZTV19QMediaObjectPrivate)
    .constdata__ZTV19QMediaPlayerControl     0x00038dcc   Section      144  QtMultimediaKit.in(.constdata__ZTV19QMediaPlayerControl)
    .constdata__ZTV19QMediaPlayerPrivate     0x00038e5c   Section       16  QtMultimediaKit.in(.constdata__ZTV19QMediaPlayerPrivate)
    .constdata__ZTV19QSoundEffectPrivate     0x00038e6c   Section       56  QtMultimediaKit.in(.constdata__ZTV19QSoundEffectPrivate)
    .constdata__ZTV19QVideoDeviceControl     0x00038ea4   Section       84  QtMultimediaKit.in(.constdata__ZTV19QVideoDeviceControl)
    .constdata__ZTV19QVideoWidgetBackend     0x00038ef8   Section      124  QtMultimediaKit.in(.constdata__ZTV19QVideoWidgetBackend)
    .constdata__ZTV19QVideoWidgetControl     0x00038f74   Section      108  QtMultimediaKit.in(.constdata__ZTV19QVideoWidgetControl)
    .constdata__ZTV19QVideoWindowControl     0x00038fe0   Section      128  QtMultimediaKit.in(.constdata__ZTV19QVideoWindowControl)
    .constdata__ZTV20QAbstractAudioOutput    0x00039060   Section      128  QtMultimediaKit.in(.constdata__ZTV20QAbstractAudioOutput)
    .constdata__ZTV20QAbstractVideoBuffer    0x000390e0   Section       32  QtMultimediaKit.in(.constdata__ZTV20QAbstractVideoBuffer)
    .constdata__ZTV20QAudioEncoderControl    0x00039100   Section       88  QtMultimediaKit.in(.constdata__ZTV20QAudioEncoderControl)
    .constdata__ZTV20QImageEncoderControl    0x00039158   Section       76  QtMultimediaKit.in(.constdata__ZTV20QImageEncoderControl)
    .constdata__ZTV20QMediaControlPrivate    0x000391a4   Section       16  QtMultimediaKit.in(.constdata__ZTV20QMediaControlPrivate)
    .constdata__ZTV20QMediaPlaylistReader    0x000391b4   Section       28  QtMultimediaKit.in(.constdata__ZTV20QMediaPlaylistReader)
    .constdata__ZTV20QMediaPlaylistWriter    0x000391d0   Section       24  QtMultimediaKit.in(.constdata__ZTV20QMediaPlaylistWriter)
    .constdata__ZTV20QMediaServicePrivate    0x000391e8   Section       16  QtMultimediaKit.in(.constdata__ZTV20QMediaServicePrivate)
    .constdata__ZTV20QMediaStreamsControl    0x000391f8   Section       76  QtMultimediaKit.in(.constdata__ZTV20QMediaStreamsControl)
    .constdata__ZTV20QPainterVideoSurface    0x00039244   Section       80  QtMultimediaKit.in(.constdata__ZTV20QPainterVideoSurface)
    .constdata__ZTV20QVideoEncoderControl    0x00039294   Section       92  QtMultimediaKit.in(.constdata__ZTV20QVideoEncoderControl)
    .constdata__ZTV21QAbstractVideoSurface   0x000392f0   Section       80  QtMultimediaKit.in(.constdata__ZTV21QAbstractVideoSurface)
    .constdata__ZTV21QMediaPlaylistControl   0x00039340   Section       96  QtMultimediaKit.in(.constdata__ZTV21QMediaPlaylistControl)
    .constdata__ZTV21QMediaPlaylistPrivate   0x000393a0   Section       16  QtMultimediaKit.in(.constdata__ZTV21QMediaPlaylistPrivate)
    .constdata__ZTV21QMediaRecorderControl   0x000393b0   Section       96  QtMultimediaKit.in(.constdata__ZTV21QMediaRecorderControl)
    .constdata__ZTV21QMediaServiceProvider   0x00039410   Section       80  QtMultimediaKit.in(.constdata__ZTV21QMediaServiceProvider)
    .constdata__ZTV21QVideoRendererControl   0x00039460   Section       64  QtMultimediaKit.in(.constdata__ZTV21QVideoRendererControl)
    .constdata__ZTV22QAudioEndpointSelector  0x000394a0   Section       76  QtMultimediaKit.in(.constdata__ZTV22QAudioEndpointSelector)
    .constdata__ZTV22QCameraExposureControl  0x000394ec   Section      104  QtMultimediaKit.in(.constdata__ZTV22QCameraExposureControl)
    .constdata__ZTV22QCameraImageProcessing  0x00039554   Section       56  QtMultimediaKit.in(.constdata__ZTV22QCameraImageProcessing)
    .constdata__ZTV22QMediaContainerControl  0x0003958c   Section       72  QtMultimediaKit.in(.constdata__ZTV22QMediaContainerControl)
    .constdata__ZTV22QMediaPlaylistIOPlugin  0x000395d4   Section      128  QtMultimediaKit.in(.constdata__ZTV22QMediaPlaylistIOPlugin)
    .constdata__ZTV22QMediaPlaylistProvider  0x00039654   Section      116  QtMultimediaKit.in(.constdata__ZTV22QMediaPlaylistProvider)
    .constdata__ZTV22QMetaDataReaderControl  0x000396c8   Section       76  QtMultimediaKit.in(.constdata__ZTV22QMetaDataReaderControl)
    .constdata__ZTV22QMetaDataWriterControl  0x00039714   Section       88  QtMultimediaKit.in(.constdata__ZTV22QMetaDataWriterControl)
    .constdata__ZTV22QPluginServiceProvider  0x0003976c   Section       80  QtMultimediaKit.in(.constdata__ZTV22QPluginServiceProvider)
    .constdata__ZTV23QMediaBindableInterface 0x000397bc   Section       24  QtMultimediaKit.in(.constdata__ZTV23QMediaBindableInterface)
    .constdata__ZTV23QMediaPlaylistNavigator 0x000397d4   Section       56  QtMultimediaKit.in(.constdata__ZTV23QMediaPlaylistNavigator)
    .constdata__ZTV24QAbstractAudioDeviceInfo 0x0003980c   Section       92  QtMultimediaKit.in(.constdata__ZTV24QAbstractAudioDeviceInfo)
    .constdata__ZTV24QAudioDeviceInfoInternal 0x00039868   Section       92  QtMultimediaKit.in(.constdata__ZTV24QAudioDeviceInfoInternal)
    .constdata__ZTV24QImageVideoBufferPrivate 0x000398c4   Section       16  QtMultimediaKit.in(.constdata__ZTV24QImageVideoBufferPrivate)
    .constdata__ZTV24QMediaImageViewerControl 0x000398d4   Section       56  QtMultimediaKit.in(.constdata__ZTV24QMediaImageViewerControl)
    .constdata__ZTV24QMediaImageViewerPrivate 0x0003990c   Section       16  QtMultimediaKit.in(.constdata__ZTV24QMediaImageViewerPrivate)
    .constdata__ZTV24QMediaImageViewerService 0x0003991c   Section       64  QtMultimediaKit.in(.constdata__ZTV24QMediaImageViewerService)
    .constdata__ZTV24SymbianAudioInputPrivate 0x0003995c   Section      120  QtMultimediaKit.in(.constdata__ZTV24SymbianAudioInputPrivate)
    .constdata__ZTV25QGraphicsVideoItemPrivate 0x000399d4   Section       56  QtMultimediaKit.in(.constdata__ZTV25QGraphicsVideoItemPrivate)
    .constdata__ZTV25QMediaImageViewerRenderer 0x00039a0c   Section       64  QtMultimediaKit.in(.constdata__ZTV25QMediaImageViewerRenderer)
    .constdata__ZTV25QMemoryVideoBufferPrivate 0x00039a4c   Section       16  QtMultimediaKit.in(.constdata__ZTV25QMemoryVideoBufferPrivate)
    .constdata__ZTV25QWindowVideoWidgetBackend 0x00039a5c   Section      152  QtMultimediaKit.in(.constdata__ZTV25QWindowVideoWidgetBackend)
    .constdata__ZTV25SymbianAudioOutputPrivate 0x00039af4   Section      120  QtMultimediaKit.in(.constdata__ZTV25SymbianAudioOutputPrivate)
    .constdata__ZTV26QAudioCaptureSourcePrivate 0x00039b6c   Section       16  QtMultimediaKit.in(.constdata__ZTV26QAudioCaptureSourcePrivate)
    .constdata__ZTV26QCameraImageCaptureControl 0x00039b7c   Section       76  QtMultimediaKit.in(.constdata__ZTV26QCameraImageCaptureControl)
    .constdata__ZTV26QLocalMediaPlaylistControl 0x00039bc8   Section       96  QtMultimediaKit.in(.constdata__ZTV26QLocalMediaPlaylistControl)
    .constdata__ZTV26QMediaPlaylistNullProvider 0x00039c28   Section      116  QtMultimediaKit.in(.constdata__ZTV26QMediaPlaylistNullProvider)
    .constdata__ZTV26QVideoWidgetControlBackend 0x00039c9c   Section      128  QtMultimediaKit.in(.constdata__ZTV26QVideoWidgetControlBackend)
    .constdata__ZTV27QAbstractVideoBufferPrivate 0x00039d1c   Section       16  QtMultimediaKit.in(.constdata__ZTV27QAbstractVideoBufferPrivate)
    .constdata__ZTV27QLocalMediaPlaylistProvider 0x00039d2c   Section      116  QtMultimediaKit.in(.constdata__ZTV27QLocalMediaPlaylistProvider)
    .constdata__ZTV27QMediaPlaylistSourceControl 0x00039da0   Section       64  QtMultimediaKit.in(.constdata__ZTV27QMediaPlaylistSourceControl)
    .constdata__ZTV27QMediaServiceProviderPlugin 0x00039de0   Section       96  QtMultimediaKit.in(.constdata__ZTV27QMediaServiceProviderPlugin)
    .constdata__ZTV27QRendererVideoWidgetBackend 0x00039e40   Section      152  QtMultimediaKit.in(.constdata__ZTV27QRendererVideoWidgetBackend)
    .constdata__ZTV27QVideoSurfaceGenericPainter 0x00039ed8   Section       48  QtMultimediaKit.in(.constdata__ZTV27QVideoSurfaceGenericPainter)
    .constdata__ZTV29QCameraImageProcessingControl 0x00039f08   Section       80  QtMultimediaKit.in(.constdata__ZTV29QCameraImageProcessingControl)
    .constdata__ZTV29QCameraImageProcessingPrivate 0x00039f58   Section       16  QtMultimediaKit.in(.constdata__ZTV29QCameraImageProcessingPrivate)
    .constdata__ZTV29QMediaPlaylistProviderPrivate 0x00039f68   Section       16  QtMultimediaKit.in(.constdata__ZTV29QMediaPlaylistProviderPrivate)
    .constdata__ZTV31QMediaImageViewerControlPrivate 0x00039f78   Section       16  QtMultimediaKit.in(.constdata__ZTV31QMediaImageViewerControlPrivate)
    .constdata__ZTV31QMediaImageViewerServicePrivate 0x00039f88   Section       16  QtMultimediaKit.in(.constdata__ZTV31QMediaImageViewerServicePrivate)
    .constdata__ZTV34QLocalMediaPlaylistProviderPrivate 0x00039f98   Section       16  QtMultimediaKit.in(.constdata__ZTV34QLocalMediaPlaylistProviderPrivate)
    .constdata__ZTV7QCamera                  0x00039fa8   Section       76  QtMultimediaKit.in(.constdata__ZTV7QCamera)
    .constdata__ZTVN12SymbianAudio15DevSoundWrapperE 0x00039ff4   Section      132  QtMultimediaKit.in(.constdata__ZTVN12SymbianAudio15DevSoundWrapperE)
    .init_array                              0x0003a078   Section        4  QtMultimediaKit.in(.init_array)
    .init_array                              0x0003a07c   Section        4  QtMultimediaKit.in(.init_array)
    .init_array                              0x0003a080   Section        4  QtMultimediaKit.in(.init_array)
    .init_array                              0x0003a084   Section        4  QtMultimediaKit.in(.init_array)
    .init_array                              0x0003a088   Section        4  QtMultimediaKit.in(.init_array)
    .init_array                              0x0003a08c   Section        4  QtMultimediaKit.in(.init_array)
    .init_array                              0x0003a090   Section        4  QtMultimediaKit.in(.init_array)
    .ARM.exidx                               0x0003a094   Section        8  ucppinit_aeabi.o(.ARM.exidx)
    .data$0                                  0x00400000   Data           0  QtMultimediaKit.in(.data)
    _ZGVcleanup@_Z16playlistIOLoaderv_0      0x00400000   Data           4  QtMultimediaKit.in(.data)
    .data                                    0x00400000   Section       16  QtMultimediaKit.in(.data)
    cleanup@_Z16playlistIOLoaderv_1          0x00400004   Data           4  QtMultimediaKit.in(.data)
    this_playlistIOLoader                    0x00400008   Data           8  QtMultimediaKit.in(.data)
    .data$0                                  0x00400010   Data           0  QtMultimediaKit.in(.data)
    _ZGVcleanup@_Z20_q_nullMediaPlaylistv_0  0x00400010   Data           4  QtMultimediaKit.in(.data)
    .data                                    0x00400010   Section       16  QtMultimediaKit.in(.data)
    cleanup@_Z20_q_nullMediaPlaylistv_1      0x00400014   Data           4  QtMultimediaKit.in(.data)
    this__q_nullMediaPlaylist                0x00400018   Data           8  QtMultimediaKit.in(.data)
    .data$0                                  0x00400020   Data           0  QtMultimediaKit.in(.data)
    _ZGVcleanup@_Z6loaderv_0                 0x00400020   Data           4  QtMultimediaKit.in(.data)
    .data                                    0x00400020   Section       32  QtMultimediaKit.in(.data)
    cleanup@_Z6loaderv_1                     0x00400024   Data           4  QtMultimediaKit.in(.data)
    _ZGVcleanup@_Z14pluginProviderv_0        0x00400028   Data           4  QtMultimediaKit.in(.data)
    cleanup@_Z14pluginProviderv_1            0x0040002c   Data           4  QtMultimediaKit.in(.data)
    this_loader                              0x00400030   Data           8  QtMultimediaKit.in(.data)
    this_pluginProvider                      0x00400038   Data           8  QtMultimediaKit.in(.data)
    .data$0                                  0x00400040   Data           0  QtMultimediaKit.in(.data)
    _ZGVcleanup@_Z18staticMediaPluginsv_0    0x00400040   Data           4  QtMultimediaKit.in(.data)
    .data                                    0x00400040   Section       16  QtMultimediaKit.in(.data)
    cleanup@_Z18staticMediaPluginsv_1        0x00400044   Data           4  QtMultimediaKit.in(.data)
    this_staticMediaPlugins                  0x00400048   Data           8  QtMultimediaKit.in(.data)
    .data$0                                  0x00400050   Data           0  QtMultimediaKit.in(.data)
    .data                                    0x00400050   Section        1  QtMultimediaKit.in(.data)
    .data$0                                  0x00400054   Data           0  QtMultimediaKit.in(.data)
    _ZGVcleanup@_Z11audioLoaderv_0           0x00400054   Data           4  QtMultimediaKit.in(.data)
    .data                                    0x00400054   Section       16  QtMultimediaKit.in(.data)
    cleanup@_Z11audioLoaderv_1               0x00400058   Data           4  QtMultimediaKit.in(.data)
    this_audioLoader                         0x0040005c   Data           8  QtMultimediaKit.in(.data)
    .data$0                                  0x00400064   Data           0  ucppfini.o(.data)
    .data                                    0x00400064   Section        4  ucppfini.o(.data)
    .data__ZZN11QMetaTypeIdI15QNetworkRequestE14qt_metatype_idEvE11metatype_id 0x00400068   Section        4  QtMultimediaKit.in(.data__ZZN11QMetaTypeIdI15QNetworkRequestE14qt_metatype_idEvE11metatype_id)
    .data__ZZN11QMetaTypeIdI19QVideoSurfaceFormatE14qt_metatype_idEvE11metatype_id 0x0040006c   Section        4  QtMultimediaKit.in(.data__ZZN11QMetaTypeIdI19QVideoSurfaceFormatE14qt_metatype_idEvE11metatype_id)
    .data__ZZN11QMetaTypeIdI6QFlagsIN12QCameraFocus9FocusModeEEE14qt_metatype_idEvE11metatype_id 0x00400070   Section        4  QtMultimediaKit.in(.data__ZZN11QMetaTypeIdI6QFlagsIN12QCameraFocus9FocusModeEEE14qt_metatype_idEvE11metatype_id)
    .data__ZZN11QMetaTypeIdI6QFlagsIN15QCameraExposure9FlashModeEEE14qt_metatype_idEvE11metatype_id 0x00400074   Section        4  QtMultimediaKit.in(.data__ZZN11QMetaTypeIdI6QFlagsIN15QCameraExposure9FlashModeEEE14qt_metatype_idEvE11metatype_id)
    .data__ZZN11QMetaTypeIdIN11QVideoFrame11PixelFormatEE14qt_metatype_idEvE11metatype_id 0x00400078   Section        4  QtMultimediaKit.in(.data__ZZN11QMetaTypeIdIN11QVideoFrame11PixelFormatEE14qt_metatype_idEvE11metatype_id)
    .data__ZZN11QMetaTypeIdIN12QCameraFocus14FocusPointModeEE14qt_metatype_idEvE11metatype_id 0x0040007c   Section        4  QtMultimediaKit.in(.data__ZZN11QMetaTypeIdIN12QCameraFocus14FocusPointModeEE14qt_metatype_idEvE11metatype_id)
    .data__ZZN11QMetaTypeIdIN12QMediaPlayer11MediaStatusEE14qt_metatype_idEvE11metatype_id 0x00400080   Section        4  QtMultimediaKit.in(.data__ZZN11QMetaTypeIdIN12QMediaPlayer11MediaStatusEE14qt_metatype_idEvE11metatype_id)
    .data__ZZN11QMetaTypeIdIN12QMediaPlayer5ErrorEE14qt_metatype_idEvE11metatype_id 0x00400084   Section        4  QtMultimediaKit.in(.data__ZZN11QMetaTypeIdIN12QMediaPlayer5ErrorEE14qt_metatype_idEvE11metatype_id)
    .data__ZZN11QMetaTypeIdIN12QMediaPlayer5StateEE14qt_metatype_idEvE11metatype_id 0x00400088   Section        4  QtMultimediaKit.in(.data__ZZN11QMetaTypeIdIN12QMediaPlayer5StateEE14qt_metatype_idEvE11metatype_id)
    .data__ZZN11QMetaTypeIdIN14QMediaRecorder5ErrorEE14qt_metatype_idEvE11metatype_id 0x0040008c   Section        4  QtMultimediaKit.in(.data__ZZN11QMetaTypeIdIN14QMediaRecorder5ErrorEE14qt_metatype_idEvE11metatype_id)
    .data__ZZN11QMetaTypeIdIN14QMediaRecorder5StateEE14qt_metatype_idEvE11metatype_id 0x00400090   Section        4  QtMultimediaKit.in(.data__ZZN11QMetaTypeIdIN14QMediaRecorder5StateEE14qt_metatype_idEvE11metatype_id)
    .data__ZZN11QMetaTypeIdIN15QCameraExposure12ExposureModeEE14qt_metatype_idEvE11metatype_id 0x00400094   Section        4  QtMultimediaKit.in(.data__ZZN11QMetaTypeIdIN15QCameraExposure12ExposureModeEE14qt_metatype_idEvE11metatype_id)
    .data__ZZN11QMetaTypeIdIN15QCameraExposure12MeteringModeEE14qt_metatype_idEvE11metatype_id 0x00400098   Section        4  QtMultimediaKit.in(.data__ZZN11QMetaTypeIdIN15QCameraExposure12MeteringModeEE14qt_metatype_idEvE11metatype_id)
    .data__ZZN11QMetaTypeIdIN19QCameraImageCapture5ErrorEE14qt_metatype_idEvE11metatype_id 0x0040009c   Section        4  QtMultimediaKit.in(.data__ZZN11QMetaTypeIdIN19QCameraImageCapture5ErrorEE14qt_metatype_idEvE11metatype_id)
    .data__ZZN11QMetaTypeIdIN19QVideoSurfaceFormat15YCbCrColorSpaceEE14qt_metatype_idEvE11metatype_id 0x004000a0   Section        4  QtMultimediaKit.in(.data__ZZN11QMetaTypeIdIN19QVideoSurfaceFormat15YCbCrColorSpaceEE14qt_metatype_idEvE11metatype_id)
    .data__ZZN11QMetaTypeIdIN19QVideoSurfaceFormat9DirectionEE14qt_metatype_idEvE11metatype_id 0x004000a4   Section        4  QtMultimediaKit.in(.data__ZZN11QMetaTypeIdIN19QVideoSurfaceFormat9DirectionEE14qt_metatype_idEvE11metatype_id)
    .data__ZZN11QMetaTypeIdIN20QAbstractVideoBuffer10HandleTypeEE14qt_metatype_idEvE11metatype_id 0x004000a8   Section        4  QtMultimediaKit.in(.data__ZZN11QMetaTypeIdIN20QAbstractVideoBuffer10HandleTypeEE14qt_metatype_idEvE11metatype_id)
    .data__ZZN11QMetaTypeIdIN21QAbstractVideoSurface5ErrorEE14qt_metatype_idEvE11metatype_id 0x004000ac   Section        4  QtMultimediaKit.in(.data__ZZN11QMetaTypeIdIN21QAbstractVideoSurface5ErrorEE14qt_metatype_idEvE11metatype_id)
    .data__ZZN11QMetaTypeIdIN6QAudio4ModeEE14qt_metatype_idEvE11metatype_id 0x004000b0   Section        4  QtMultimediaKit.in(.data__ZZN11QMetaTypeIdIN6QAudio4ModeEE14qt_metatype_idEvE11metatype_id)
    .data__ZZN11QMetaTypeIdIN6QAudio5ErrorEE14qt_metatype_idEvE11metatype_id 0x004000b4   Section        4  QtMultimediaKit.in(.data__ZZN11QMetaTypeIdIN6QAudio5ErrorEE14qt_metatype_idEvE11metatype_id)
    .data__ZZN11QMetaTypeIdIN6QAudio5StateEE14qt_metatype_idEvE11metatype_id 0x004000b8   Section        4  QtMultimediaKit.in(.data__ZZN11QMetaTypeIdIN6QAudio5StateEE14qt_metatype_idEvE11metatype_id)
    .data__ZZN11QMetaTypeIdIN7QCamera10LockStatusEE14qt_metatype_idEvE11metatype_id 0x004000bc   Section        4  QtMultimediaKit.in(.data__ZZN11QMetaTypeIdIN7QCamera10LockStatusEE14qt_metatype_idEvE11metatype_id)
    .data__ZZN11QMetaTypeIdIN7QCamera16LockChangeReasonEE14qt_metatype_idEvE11metatype_id 0x004000c0   Section        4  QtMultimediaKit.in(.data__ZZN11QMetaTypeIdIN7QCamera16LockChangeReasonEE14qt_metatype_idEvE11metatype_id)
    .data__ZZN11QMetaTypeIdIN7QCamera5ErrorEE14qt_metatype_idEvE11metatype_id 0x004000c4   Section        4  QtMultimediaKit.in(.data__ZZN11QMetaTypeIdIN7QCamera5ErrorEE14qt_metatype_idEvE11metatype_id)
    .data__ZZN11QMetaTypeIdIN7QCamera5StateEE14qt_metatype_idEvE11metatype_id 0x004000c8   Section        4  QtMultimediaKit.in(.data__ZZN11QMetaTypeIdIN7QCamera5StateEE14qt_metatype_idEvE11metatype_id)
    .data__ZZN11QMetaTypeIdIN7QCamera6StatusEE14qt_metatype_idEvE11metatype_id 0x004000cc   Section        4  QtMultimediaKit.in(.data__ZZN11QMetaTypeIdIN7QCamera6StatusEE14qt_metatype_idEvE11metatype_id)
    .data__ZZN11QMetaTypeIdIN7QCamera8LockTypeEE14qt_metatype_idEvE11metatype_id 0x004000d0   Section        4  QtMultimediaKit.in(.data__ZZN11QMetaTypeIdIN7QCamera8LockTypeEE14qt_metatype_idEvE11metatype_id)
    .bss$5                                   0x004000d4   Data           0  ucppfini.o(.bss)
    dtor_rec                                 0x004000d4   Data        2048  ucppfini.o(.bss)
    .bss                                     0x004000d4   Section     2048  ucppfini.o(.bss)

    Global Symbols

    Symbol Name                              Value     Ov Type        Size  Object(Section)

    BuildAttributes$$THUMB_ISAv2$ARM_ISAv5$M$PE$A:L22$X:L11$S22$IEEE1$IW$USESV6$~STKCKD$USESV7$~SHL$OSPACE$IEEEJ$EBA8$UX$REQ8$PRES8$EABIv2 0x00000000   Number         0  anon$$obj.o ABSOLUTE
    #<DLL>MmfDevSound{000a0000}[100058cc].dll#<\DLL>11  - Undefined Reference
    #<DLL>MmfDevSound{000a0000}[100058cc].dll#<\DLL>1b  - Undefined Reference
    #<DLL>MmfDevSound{000a0000}[100058cc].dll#<\DLL>1c  - Undefined Reference
    #<DLL>MmfDevSound{000a0000}[100058cc].dll#<\DLL>2  - Undefined Reference
    #<DLL>MmfDevSound{000a0000}[100058cc].dll#<\DLL>21  - Undefined Reference
    #<DLL>MmfDevSound{000a0000}[100058cc].dll#<\DLL>23  - Undefined Reference
    #<DLL>MmfDevSound{000a0000}[100058cc].dll#<\DLL>2a  - Undefined Reference
    #<DLL>MmfDevSound{000a0000}[100058cc].dll#<\DLL>3  - Undefined Reference
    #<DLL>MmfDevSound{000a0000}[100058cc].dll#<\DLL>5  - Undefined Reference
    #<DLL>MmfDevSound{000a0000}[100058cc].dll#<\DLL>7  - Undefined Reference
    #<DLL>MmfDevSound{000a0000}[100058cc].dll#<\DLL>8  - Undefined Reference
    #<DLL>MmfDevSound{000a0000}[100058cc].dll#<\DLL>a  - Undefined Reference
    #<DLL>QtCore{00040703}[2001b2dc].dll#<\DLL>112  - Undefined Reference
    #<DLL>QtCore{00040703}[2001b2dc].dll#<\DLL>113  - Undefined Reference
    #<DLL>QtCore{00040703}[2001b2dc].dll#<\DLL>114  - Undefined Reference
    #<DLL>QtCore{00040703}[2001b2dc].dll#<\DLL>11a  - Undefined Reference
    #<DLL>QtCore{00040703}[2001b2dc].dll#<\DLL>11e  - Undefined Reference
    #<DLL>QtCore{00040703}[2001b2dc].dll#<\DLL>138  - Undefined Reference
    #<DLL>QtCore{00040703}[2001b2dc].dll#<\DLL>144  - Undefined Reference
    #<DLL>QtCore{00040703}[2001b2dc].dll#<\DLL>14b  - Undefined Reference
    #<DLL>QtCore{00040703}[2001b2dc].dll#<\DLL>14c  - Undefined Reference
    #<DLL>QtCore{00040703}[2001b2dc].dll#<\DLL>14f  - Undefined Reference
    #<DLL>QtCore{00040703}[2001b2dc].dll#<\DLL>1f3  - Undefined Reference
    #<DLL>QtCore{00040703}[2001b2dc].dll#<\DLL>1f5  - Undefined Reference
    #<DLL>QtCore{00040703}[2001b2dc].dll#<\DLL>1f9  - Undefined Reference
    #<DLL>QtCore{00040703}[2001b2dc].dll#<\DLL>20  - Undefined Reference
    #<DLL>QtCore{00040703}[2001b2dc].dll#<\DLL>2e  - Undefined Reference
    #<DLL>QtCore{00040703}[2001b2dc].dll#<\DLL>2f1  - Undefined Reference
    #<DLL>QtCore{00040703}[2001b2dc].dll#<\DLL>2f4  - Undefined Reference
    #<DLL>QtCore{00040703}[2001b2dc].dll#<\DLL>38  - Undefined Reference
    #<DLL>QtCore{00040703}[2001b2dc].dll#<\DLL>46  - Undefined Reference
    #<DLL>QtCore{00040703}[2001b2dc].dll#<\DLL>49  - Undefined Reference
    #<DLL>QtCore{00040703}[2001b2dc].dll#<\DLL>4e  - Undefined Reference
    #<DLL>QtCore{00040703}[2001b2dc].dll#<\DLL>5ad  - Undefined Reference
    #<DLL>QtCore{00040703}[2001b2dc].dll#<\DLL>5bf  - Undefined Reference
    #<DLL>QtCore{00040703}[2001b2dc].dll#<\DLL>5c5  - Undefined Reference
    #<DLL>QtCore{00040703}[2001b2dc].dll#<\DLL>5e  - Undefined Reference
    #<DLL>QtCore{00040703}[2001b2dc].dll#<\DLL>5f  - Undefined Reference
    #<DLL>QtCore{00040703}[2001b2dc].dll#<\DLL>5f5  - Undefined Reference
    #<DLL>QtCore{00040703}[2001b2dc].dll#<\DLL>5f6  - Undefined Reference
    #<DLL>QtCore{00040703}[2001b2dc].dll#<\DLL>5fb  - Undefined Reference
    #<DLL>QtCore{00040703}[2001b2dc].dll#<\DLL>5fe  - Undefined Reference
    #<DLL>QtCore{00040703}[2001b2dc].dll#<\DLL>643  - Undefined Reference
    #<DLL>QtCore{00040703}[2001b2dc].dll#<\DLL>656  - Undefined Reference
    #<DLL>QtCore{00040703}[2001b2dc].dll#<\DLL>65f  - Undefined Reference
    #<DLL>QtCore{00040703}[2001b2dc].dll#<\DLL>661  - Undefined Reference
    #<DLL>QtCore{00040703}[2001b2dc].dll#<\DLL>662  - Undefined Reference
    #<DLL>QtCore{00040703}[2001b2dc].dll#<\DLL>667  - Undefined Reference
    #<DLL>QtCore{00040703}[2001b2dc].dll#<\DLL>66a  - Undefined Reference
    #<DLL>QtCore{00040703}[2001b2dc].dll#<\DLL>68  - Undefined Reference
    #<DLL>QtCore{00040703}[2001b2dc].dll#<\DLL>686  - Undefined Reference
    #<DLL>QtCore{00040703}[2001b2dc].dll#<\DLL>687  - Undefined Reference
    #<DLL>QtCore{00040703}[2001b2dc].dll#<\DLL>68a  - Undefined Reference
    #<DLL>QtCore{00040703}[2001b2dc].dll#<\DLL>68c  - Undefined Reference
    #<DLL>QtCore{00040703}[2001b2dc].dll#<\DLL>68e  - Undefined Reference
    #<DLL>QtCore{00040703}[2001b2dc].dll#<\DLL>6aa  - Undefined Reference
    #<DLL>QtCore{00040703}[2001b2dc].dll#<\DLL>6ae  - Undefined Reference
    #<DLL>QtCore{00040703}[2001b2dc].dll#<\DLL>6b1  - Undefined Reference
    #<DLL>QtCore{00040703}[2001b2dc].dll#<\DLL>6b2  - Undefined Reference
    #<DLL>QtCore{00040703}[2001b2dc].dll#<\DLL>6b3  - Undefined Reference
    #<DLL>QtCore{00040703}[2001b2dc].dll#<\DLL>6b5  - Undefined Reference
    #<DLL>QtCore{00040703}[2001b2dc].dll#<\DLL>6d  - Undefined Reference
    #<DLL>QtCore{00040703}[2001b2dc].dll#<\DLL>6e0  - Undefined Reference
    #<DLL>QtCore{00040703}[2001b2dc].dll#<\DLL>6e1  - Undefined Reference
    #<DLL>QtCore{00040703}[2001b2dc].dll#<\DLL>6e2  - Undefined Reference
    #<DLL>QtCore{00040703}[2001b2dc].dll#<\DLL>6e3  - Undefined Reference
    #<DLL>QtCore{00040703}[2001b2dc].dll#<\DLL>6e4  - Undefined Reference
    #<DLL>QtCore{00040703}[2001b2dc].dll#<\DLL>6e5  - Undefined Reference
    #<DLL>QtCore{00040703}[2001b2dc].dll#<\DLL>6e6  - Undefined Reference
    #<DLL>QtCore{00040703}[2001b2dc].dll#<\DLL>6e7  - Undefined Reference
    #<DLL>QtCore{00040703}[2001b2dc].dll#<\DLL>6e8  - Undefined Reference
    #<DLL>QtCore{00040703}[2001b2dc].dll#<\DLL>6e9  - Undefined Reference
    #<DLL>QtCore{00040703}[2001b2dc].dll#<\DLL>6ed  - Undefined Reference
    #<DLL>QtCore{00040703}[2001b2dc].dll#<\DLL>6f1  - Undefined Reference
    #<DLL>QtCore{00040703}[2001b2dc].dll#<\DLL>6f4  - Undefined Reference
    #<DLL>QtCore{00040703}[2001b2dc].dll#<\DLL>6f5  - Undefined Reference
    #<DLL>QtCore{00040703}[2001b2dc].dll#<\DLL>6f8  - Undefined Reference
    #<DLL>QtCore{00040703}[2001b2dc].dll#<\DLL>6f9  - Undefined Reference
    #<DLL>QtCore{00040703}[2001b2dc].dll#<\DLL>6fb  - Undefined Reference
    #<DLL>QtCore{00040703}[2001b2dc].dll#<\DLL>6fd  - Undefined Reference
    #<DLL>QtCore{00040703}[2001b2dc].dll#<\DLL>702  - Undefined Reference
    #<DLL>QtCore{00040703}[2001b2dc].dll#<\DLL>716  - Undefined Reference
    #<DLL>QtCore{00040703}[2001b2dc].dll#<\DLL>721  - Undefined Reference
    #<DLL>QtCore{00040703}[2001b2dc].dll#<\DLL>722  - Undefined Reference
    #<DLL>QtCore{00040703}[2001b2dc].dll#<\DLL>726  - Undefined Reference
    #<DLL>QtCore{00040703}[2001b2dc].dll#<\DLL>72c  - Undefined Reference
    #<DLL>QtCore{00040703}[2001b2dc].dll#<\DLL>752  - Undefined Reference
    #<DLL>QtCore{00040703}[2001b2dc].dll#<\DLL>754  - Undefined Reference
    #<DLL>QtCore{00040703}[2001b2dc].dll#<\DLL>75d  - Undefined Reference
    #<DLL>QtCore{00040703}[2001b2dc].dll#<\DLL>79b  - Undefined Reference
    #<DLL>QtCore{00040703}[2001b2dc].dll#<\DLL>79d  - Undefined Reference
    #<DLL>QtCore{00040703}[2001b2dc].dll#<\DLL>7d3  - Undefined Reference
    #<DLL>QtCore{00040703}[2001b2dc].dll#<\DLL>7e2  - Undefined Reference
    #<DLL>QtCore{00040703}[2001b2dc].dll#<\DLL>7e8  - Undefined Reference
    #<DLL>QtCore{00040703}[2001b2dc].dll#<\DLL>7e9  - Undefined Reference
    #<DLL>QtCore{00040703}[2001b2dc].dll#<\DLL>7f2  - Undefined Reference
    #<DLL>QtCore{00040703}[2001b2dc].dll#<\DLL>7f5  - Undefined Reference
    #<DLL>QtCore{00040703}[2001b2dc].dll#<\DLL>7f6  - Undefined Reference
    #<DLL>QtCore{00040703}[2001b2dc].dll#<\DLL>7f8  - Undefined Reference
    #<DLL>QtCore{00040703}[2001b2dc].dll#<\DLL>7fa  - Undefined Reference
    #<DLL>QtCore{00040703}[2001b2dc].dll#<\DLL>7fc  - Undefined Reference
    #<DLL>QtCore{00040703}[2001b2dc].dll#<\DLL>822  - Undefined Reference
    #<DLL>QtCore{00040703}[2001b2dc].dll#<\DLL>824  - Undefined Reference
    #<DLL>QtCore{00040703}[2001b2dc].dll#<\DLL>856  - Undefined Reference
    #<DLL>QtCore{00040703}[2001b2dc].dll#<\DLL>85d  - Undefined Reference
    #<DLL>QtCore{00040703}[2001b2dc].dll#<\DLL>85e  - Undefined Reference
    #<DLL>QtCore{00040703}[2001b2dc].dll#<\DLL>85f  - Undefined Reference
    #<DLL>QtCore{00040703}[2001b2dc].dll#<\DLL>860  - Undefined Reference
    #<DLL>QtCore{00040703}[2001b2dc].dll#<\DLL>861  - Undefined Reference
    #<DLL>QtCore{00040703}[2001b2dc].dll#<\DLL>865  - Undefined Reference
    #<DLL>QtCore{00040703}[2001b2dc].dll#<\DLL>868  - Undefined Reference
    #<DLL>QtCore{00040703}[2001b2dc].dll#<\DLL>86c  - Undefined Reference
    #<DLL>QtCore{00040703}[2001b2dc].dll#<\DLL>86d  - Undefined Reference
    #<DLL>QtCore{00040703}[2001b2dc].dll#<\DLL>86e  - Undefined Reference
    #<DLL>QtCore{00040703}[2001b2dc].dll#<\DLL>870  - Undefined Reference
    #<DLL>QtCore{00040703}[2001b2dc].dll#<\DLL>871  - Undefined Reference
    #<DLL>QtCore{00040703}[2001b2dc].dll#<\DLL>872  - Undefined Reference
    #<DLL>QtCore{00040703}[2001b2dc].dll#<\DLL>873  - Undefined Reference
    #<DLL>QtCore{00040703}[2001b2dc].dll#<\DLL>874  - Undefined Reference
    #<DLL>QtCore{00040703}[2001b2dc].dll#<\DLL>876  - Undefined Reference
    #<DLL>QtCore{00040703}[2001b2dc].dll#<\DLL>87c  - Undefined Reference
    #<DLL>QtCore{00040703}[2001b2dc].dll#<\DLL>87e  - Undefined Reference
    #<DLL>QtCore{00040703}[2001b2dc].dll#<\DLL>880  - Undefined Reference
    #<DLL>QtCore{00040703}[2001b2dc].dll#<\DLL>883  - Undefined Reference
    #<DLL>QtCore{00040703}[2001b2dc].dll#<\DLL>88a  - Undefined Reference
    #<DLL>QtCore{00040703}[2001b2dc].dll#<\DLL>88c  - Undefined Reference
    #<DLL>QtCore{00040703}[2001b2dc].dll#<\DLL>88e  - Undefined Reference
    #<DLL>QtCore{00040703}[2001b2dc].dll#<\DLL>88f  - Undefined Reference
    #<DLL>QtCore{00040703}[2001b2dc].dll#<\DLL>890  - Undefined Reference
    #<DLL>QtCore{00040703}[2001b2dc].dll#<\DLL>891  - Undefined Reference
    #<DLL>QtCore{00040703}[2001b2dc].dll#<\DLL>894  - Undefined Reference
    #<DLL>QtCore{00040703}[2001b2dc].dll#<\DLL>895  - Undefined Reference
    #<DLL>QtCore{00040703}[2001b2dc].dll#<\DLL>897  - Undefined Reference
    #<DLL>QtCore{00040703}[2001b2dc].dll#<\DLL>89e  - Undefined Reference
    #<DLL>QtCore{00040703}[2001b2dc].dll#<\DLL>8d  - Undefined Reference
    #<DLL>QtCore{00040703}[2001b2dc].dll#<\DLL>911  - Undefined Reference
    #<DLL>QtCore{00040703}[2001b2dc].dll#<\DLL>914  - Undefined Reference
    #<DLL>QtCore{00040703}[2001b2dc].dll#<\DLL>958  - Undefined Reference
    #<DLL>QtCore{00040703}[2001b2dc].dll#<\DLL>96  - Undefined Reference
    #<DLL>QtCore{00040703}[2001b2dc].dll#<\DLL>969  - Undefined Reference
    #<DLL>QtCore{00040703}[2001b2dc].dll#<\DLL>970  - Undefined Reference
    #<DLL>QtCore{00040703}[2001b2dc].dll#<\DLL>972  - Undefined Reference
    #<DLL>QtCore{00040703}[2001b2dc].dll#<\DLL>976  - Undefined Reference
    #<DLL>QtCore{00040703}[2001b2dc].dll#<\DLL>9bf  - Undefined Reference
    #<DLL>QtCore{00040703}[2001b2dc].dll#<\DLL>9c1  - Undefined Reference
    #<DLL>QtCore{00040703}[2001b2dc].dll#<\DLL>9c4  - Undefined Reference
    #<DLL>QtCore{00040703}[2001b2dc].dll#<\DLL>9cc  - Undefined Reference
    #<DLL>QtCore{00040703}[2001b2dc].dll#<\DLL>9f  - Undefined Reference
    #<DLL>QtCore{00040703}[2001b2dc].dll#<\DLL>a8  - Undefined Reference
    #<DLL>QtCore{00040703}[2001b2dc].dll#<\DLL>ae7  - Undefined Reference
    #<DLL>QtCore{00040703}[2001b2dc].dll#<\DLL>aeb  - Undefined Reference
    #<DLL>QtCore{00040703}[2001b2dc].dll#<\DLL>af2  - Undefined Reference
    #<DLL>QtCore{00040703}[2001b2dc].dll#<\DLL>afb  - Undefined Reference
    #<DLL>QtCore{00040703}[2001b2dc].dll#<\DLL>b07  - Undefined Reference
    #<DLL>QtCore{00040703}[2001b2dc].dll#<\DLL>b16  - Undefined Reference
    #<DLL>QtCore{00040703}[2001b2dc].dll#<\DLL>b19  - Undefined Reference
    #<DLL>QtCore{00040703}[2001b2dc].dll#<\DLL>b1a  - Undefined Reference
    #<DLL>QtCore{00040703}[2001b2dc].dll#<\DLL>b25  - Undefined Reference
    #<DLL>QtCore{00040703}[2001b2dc].dll#<\DLL>b5b  - Undefined Reference
    #<DLL>QtCore{00040703}[2001b2dc].dll#<\DLL>b67  - Undefined Reference
    #<DLL>QtCore{00040703}[2001b2dc].dll#<\DLL>b80  - Undefined Reference
    #<DLL>QtCore{00040703}[2001b2dc].dll#<\DLL>bbb  - Undefined Reference
    #<DLL>QtCore{00040703}[2001b2dc].dll#<\DLL>bbe  - Undefined Reference
    #<DLL>QtCore{00040703}[2001b2dc].dll#<\DLL>bc0  - Undefined Reference
    #<DLL>QtCore{00040703}[2001b2dc].dll#<\DLL>bd7  - Undefined Reference
    #<DLL>QtCore{00040703}[2001b2dc].dll#<\DLL>be0  - Undefined Reference
    #<DLL>QtCore{00040703}[2001b2dc].dll#<\DLL>be9  - Undefined Reference
    #<DLL>QtCore{00040703}[2001b2dc].dll#<\DLL>bec  - Undefined Reference
    #<DLL>QtCore{00040703}[2001b2dc].dll#<\DLL>bf8  - Undefined Reference
    #<DLL>QtCore{00040703}[2001b2dc].dll#<\DLL>c08  - Undefined Reference
    #<DLL>QtCore{00040703}[2001b2dc].dll#<\DLL>c10  - Undefined Reference
    #<DLL>QtCore{00040703}[2001b2dc].dll#<\DLL>c12  - Undefined Reference
    #<DLL>QtCore{00040703}[2001b2dc].dll#<\DLL>c19  - Undefined Reference
    #<DLL>QtCore{00040703}[2001b2dc].dll#<\DLL>c1a  - Undefined Reference
    #<DLL>QtCore{00040703}[2001b2dc].dll#<\DLL>c1d  - Undefined Reference
    #<DLL>QtCore{00040703}[2001b2dc].dll#<\DLL>c39  - Undefined Reference
    #<DLL>QtCore{00040703}[2001b2dc].dll#<\DLL>c40  - Undefined Reference
    #<DLL>QtCore{00040703}[2001b2dc].dll#<\DLL>c43  - Undefined Reference
    #<DLL>QtCore{00040703}[2001b2dc].dll#<\DLL>c46  - Undefined Reference
    #<DLL>QtCore{00040703}[2001b2dc].dll#<\DLL>c47  - Undefined Reference
    #<DLL>QtCore{00040703}[2001b2dc].dll#<\DLL>c4d  - Undefined Reference
    #<DLL>QtCore{00040703}[2001b2dc].dll#<\DLL>c4f  - Undefined Reference
    #<DLL>QtCore{00040703}[2001b2dc].dll#<\DLL>c5b  - Undefined Reference
    #<DLL>QtCore{00040703}[2001b2dc].dll#<\DLL>c5d  - Undefined Reference
    #<DLL>QtCore{00040703}[2001b2dc].dll#<\DLL>c5e  - Undefined Reference
    #<DLL>QtCore{00040703}[2001b2dc].dll#<\DLL>c9d  - Undefined Reference
    #<DLL>QtCore{00040703}[2001b2dc].dll#<\DLL>c9f  - Undefined Reference
    #<DLL>QtCore{00040703}[2001b2dc].dll#<\DLL>ca0  - Undefined Reference
    #<DLL>QtCore{00040703}[2001b2dc].dll#<\DLL>ca1  - Undefined Reference
    #<DLL>QtCore{00040703}[2001b2dc].dll#<\DLL>ca3  - Undefined Reference
    #<DLL>QtCore{00040703}[2001b2dc].dll#<\DLL>ca4  - Undefined Reference
    #<DLL>QtCore{00040703}[2001b2dc].dll#<\DLL>ca5  - Undefined Reference
    #<DLL>QtCore{00040703}[2001b2dc].dll#<\DLL>d8  - Undefined Reference
    #<DLL>QtCore{00040703}[2001b2dc].dll#<\DLL>d9  - Undefined Reference
    #<DLL>QtCore{00040703}[2001b2dc].dll#<\DLL>d92  - Undefined Reference
    #<DLL>QtCore{00040703}[2001b2dc].dll#<\DLL>d93  - Undefined Reference
    #<DLL>QtCore{00040703}[2001b2dc].dll#<\DLL>d9b  - Undefined Reference
    #<DLL>QtCore{00040703}[2001b2dc].dll#<\DLL>dff  - Undefined Reference
    #<DLL>QtCore{00040703}[2001b2dc].dll#<\DLL>e00  - Undefined Reference
    #<DLL>QtCore{00040703}[2001b2dc].dll#<\DLL>e01  - Undefined Reference
    #<DLL>QtCore{00040703}[2001b2dc].dll#<\DLL>e17  - Undefined Reference
    #<DLL>QtCore{00040703}[2001b2dc].dll#<\DLL>e18  - Undefined Reference
    #<DLL>QtCore{00040703}[2001b2dc].dll#<\DLL>e19  - Undefined Reference
    #<DLL>QtCore{00040703}[2001b2dc].dll#<\DLL>e1a  - Undefined Reference
    #<DLL>QtCore{00040703}[2001b2dc].dll#<\DLL>e69  - Undefined Reference
    #<DLL>QtCore{00040703}[2001b2dc].dll#<\DLL>e6b  - Undefined Reference
    #<DLL>QtCore{00040703}[2001b2dc].dll#<\DLL>e6c  - Undefined Reference
    #<DLL>QtGui{00040703}[2001b2dd].dll#<\DLL>15f4  - Undefined Reference
    #<DLL>QtGui{00040703}[2001b2dd].dll#<\DLL>15f6  - Undefined Reference
    #<DLL>QtGui{00040703}[2001b2dd].dll#<\DLL>15fb  - Undefined Reference
    #<DLL>QtGui{00040703}[2001b2dd].dll#<\DLL>1607  - Undefined Reference
    #<DLL>QtGui{00040703}[2001b2dd].dll#<\DLL>160b  - Undefined Reference
    #<DLL>QtGui{00040703}[2001b2dd].dll#<\DLL>162b  - Undefined Reference
    #<DLL>QtGui{00040703}[2001b2dd].dll#<\DLL>1632  - Undefined Reference
    #<DLL>QtGui{00040703}[2001b2dd].dll#<\DLL>1651  - Undefined Reference
    #<DLL>QtGui{00040703}[2001b2dd].dll#<\DLL>1662  - Undefined Reference
    #<DLL>QtGui{00040703}[2001b2dd].dll#<\DLL>1667  - Undefined Reference
    #<DLL>QtGui{00040703}[2001b2dd].dll#<\DLL>1674  - Undefined Reference
    #<DLL>QtGui{00040703}[2001b2dd].dll#<\DLL>1676  - Undefined Reference
    #<DLL>QtGui{00040703}[2001b2dd].dll#<\DLL>16c2  - Undefined Reference
    #<DLL>QtGui{00040703}[2001b2dd].dll#<\DLL>16c8  - Undefined Reference
    #<DLL>QtGui{00040703}[2001b2dd].dll#<\DLL>16c9  - Undefined Reference
    #<DLL>QtGui{00040703}[2001b2dd].dll#<\DLL>16ca  - Undefined Reference
    #<DLL>QtGui{00040703}[2001b2dd].dll#<\DLL>16cb  - Undefined Reference
    #<DLL>QtGui{00040703}[2001b2dd].dll#<\DLL>1774  - Undefined Reference
    #<DLL>QtGui{00040703}[2001b2dd].dll#<\DLL>1781  - Undefined Reference
    #<DLL>QtGui{00040703}[2001b2dd].dll#<\DLL>17a2  - Undefined Reference
    #<DLL>QtGui{00040703}[2001b2dd].dll#<\DLL>17a4  - Undefined Reference
    #<DLL>QtGui{00040703}[2001b2dd].dll#<\DLL>17af  - Undefined Reference
    #<DLL>QtGui{00040703}[2001b2dd].dll#<\DLL>17b8  - Undefined Reference
    #<DLL>QtGui{00040703}[2001b2dd].dll#<\DLL>17bb  - Undefined Reference
    #<DLL>QtGui{00040703}[2001b2dd].dll#<\DLL>17c4  - Undefined Reference
    #<DLL>QtGui{00040703}[2001b2dd].dll#<\DLL>17c8  - Undefined Reference
    #<DLL>QtGui{00040703}[2001b2dd].dll#<\DLL>1816  - Undefined Reference
    #<DLL>QtGui{00040703}[2001b2dd].dll#<\DLL>1817  - Undefined Reference
    #<DLL>QtGui{00040703}[2001b2dd].dll#<\DLL>1818  - Undefined Reference
    #<DLL>QtGui{00040703}[2001b2dd].dll#<\DLL>1819  - Undefined Reference
    #<DLL>QtGui{00040703}[2001b2dd].dll#<\DLL>181c  - Undefined Reference
    #<DLL>QtGui{00040703}[2001b2dd].dll#<\DLL>181e  - Undefined Reference
    #<DLL>QtGui{00040703}[2001b2dd].dll#<\DLL>181f  - Undefined Reference
    #<DLL>QtGui{00040703}[2001b2dd].dll#<\DLL>1822  - Undefined Reference
    #<DLL>QtGui{00040703}[2001b2dd].dll#<\DLL>1823  - Undefined Reference
    #<DLL>QtGui{00040703}[2001b2dd].dll#<\DLL>1824  - Undefined Reference
    #<DLL>QtGui{00040703}[2001b2dd].dll#<\DLL>1827  - Undefined Reference
    #<DLL>QtGui{00040703}[2001b2dd].dll#<\DLL>1828  - Undefined Reference
    #<DLL>QtGui{00040703}[2001b2dd].dll#<\DLL>1829  - Undefined Reference
    #<DLL>QtGui{00040703}[2001b2dd].dll#<\DLL>182e  - Undefined Reference
    #<DLL>QtGui{00040703}[2001b2dd].dll#<\DLL>182f  - Undefined Reference
    #<DLL>QtGui{00040703}[2001b2dd].dll#<\DLL>1832  - Undefined Reference
    #<DLL>QtGui{00040703}[2001b2dd].dll#<\DLL>1840  - Undefined Reference
    #<DLL>QtGui{00040703}[2001b2dd].dll#<\DLL>1841  - Undefined Reference
    #<DLL>QtGui{00040703}[2001b2dd].dll#<\DLL>1842  - Undefined Reference
    #<DLL>QtGui{00040703}[2001b2dd].dll#<\DLL>1844  - Undefined Reference
    #<DLL>QtGui{00040703}[2001b2dd].dll#<\DLL>1845  - Undefined Reference
    #<DLL>QtGui{00040703}[2001b2dd].dll#<\DLL>184f  - Undefined Reference
    #<DLL>QtGui{00040703}[2001b2dd].dll#<\DLL>1850  - Undefined Reference
    #<DLL>QtGui{00040703}[2001b2dd].dll#<\DLL>1851  - Undefined Reference
    #<DLL>QtGui{00040703}[2001b2dd].dll#<\DLL>1852  - Undefined Reference
    #<DLL>QtGui{00040703}[2001b2dd].dll#<\DLL>1858  - Undefined Reference
    #<DLL>QtGui{00040703}[2001b2dd].dll#<\DLL>185b  - Undefined Reference
    #<DLL>QtGui{00040703}[2001b2dd].dll#<\DLL>185c  - Undefined Reference
    #<DLL>QtGui{00040703}[2001b2dd].dll#<\DLL>185d  - Undefined Reference
    #<DLL>QtGui{00040703}[2001b2dd].dll#<\DLL>185f  - Undefined Reference
    #<DLL>QtGui{00040703}[2001b2dd].dll#<\DLL>1866  - Undefined Reference
    #<DLL>QtGui{00040703}[2001b2dd].dll#<\DLL>1867  - Undefined Reference
    #<DLL>QtGui{00040703}[2001b2dd].dll#<\DLL>186f  - Undefined Reference
    #<DLL>QtGui{00040703}[2001b2dd].dll#<\DLL>1879  - Undefined Reference
    #<DLL>QtGui{00040703}[2001b2dd].dll#<\DLL>1884  - Undefined Reference
    #<DLL>QtGui{00040703}[2001b2dd].dll#<\DLL>1887  - Undefined Reference
    #<DLL>QtGui{00040703}[2001b2dd].dll#<\DLL>188c  - Undefined Reference
    #<DLL>QtGui{00040703}[2001b2dd].dll#<\DLL>1895  - Undefined Reference
    #<DLL>QtGui{00040703}[2001b2dd].dll#<\DLL>1897  - Undefined Reference
    #<DLL>QtGui{00040703}[2001b2dd].dll#<\DLL>18a4  - Undefined Reference
    #<DLL>QtGui{00040703}[2001b2dd].dll#<\DLL>18a7  - Undefined Reference
    #<DLL>QtGui{00040703}[2001b2dd].dll#<\DLL>18aa  - Undefined Reference
    #<DLL>QtGui{00040703}[2001b2dd].dll#<\DLL>18ac  - Undefined Reference
    #<DLL>QtGui{00040703}[2001b2dd].dll#<\DLL>18ae  - Undefined Reference
    #<DLL>QtGui{00040703}[2001b2dd].dll#<\DLL>18af  - Undefined Reference
    #<DLL>QtGui{00040703}[2001b2dd].dll#<\DLL>18b4  - Undefined Reference
    #<DLL>QtGui{00040703}[2001b2dd].dll#<\DLL>1937  - Undefined Reference
    #<DLL>QtGui{00040703}[2001b2dd].dll#<\DLL>194f  - Undefined Reference
    #<DLL>QtGui{00040703}[2001b2dd].dll#<\DLL>1963  - Undefined Reference
    #<DLL>QtGui{00040703}[2001b2dd].dll#<\DLL>196c  - Undefined Reference
    #<DLL>QtGui{00040703}[2001b2dd].dll#<\DLL>197d  - Undefined Reference
    #<DLL>QtGui{00040703}[2001b2dd].dll#<\DLL>197f  - Undefined Reference
    #<DLL>QtGui{00040703}[2001b2dd].dll#<\DLL>1980  - Undefined Reference
    #<DLL>QtGui{00040703}[2001b2dd].dll#<\DLL>1985  - Undefined Reference
    #<DLL>QtGui{00040703}[2001b2dd].dll#<\DLL>1990  - Undefined Reference
    #<DLL>QtGui{00040703}[2001b2dd].dll#<\DLL>1991  - Undefined Reference
    #<DLL>QtGui{00040703}[2001b2dd].dll#<\DLL>1995  - Undefined Reference
    #<DLL>QtGui{00040703}[2001b2dd].dll#<\DLL>199e  - Undefined Reference
    #<DLL>QtGui{00040703}[2001b2dd].dll#<\DLL>19a4  - Undefined Reference
    #<DLL>QtGui{00040703}[2001b2dd].dll#<\DLL>19ad  - Undefined Reference
    #<DLL>QtGui{00040703}[2001b2dd].dll#<\DLL>1d63  - Undefined Reference
    #<DLL>QtGui{00040703}[2001b2dd].dll#<\DLL>1fc0  - Undefined Reference
    #<DLL>QtGui{00040703}[2001b2dd].dll#<\DLL>20d8  - Undefined Reference
    #<DLL>QtGui{00040703}[2001b2dd].dll#<\DLL>20e6  - Undefined Reference
    #<DLL>QtGui{00040703}[2001b2dd].dll#<\DLL>2101  - Undefined Reference
    #<DLL>QtGui{00040703}[2001b2dd].dll#<\DLL>2102  - Undefined Reference
    #<DLL>QtGui{00040703}[2001b2dd].dll#<\DLL>2105  - Undefined Reference
    #<DLL>QtGui{00040703}[2001b2dd].dll#<\DLL>210c  - Undefined Reference
    #<DLL>QtGui{00040703}[2001b2dd].dll#<\DLL>2118  - Undefined Reference
    #<DLL>QtGui{00040703}[2001b2dd].dll#<\DLL>211d  - Undefined Reference
    #<DLL>QtGui{00040703}[2001b2dd].dll#<\DLL>211e  - Undefined Reference
    #<DLL>QtGui{00040703}[2001b2dd].dll#<\DLL>2128  - Undefined Reference
    #<DLL>QtGui{00040703}[2001b2dd].dll#<\DLL>2130  - Undefined Reference
    #<DLL>QtGui{00040703}[2001b2dd].dll#<\DLL>214d  - Undefined Reference
    #<DLL>QtGui{00040703}[2001b2dd].dll#<\DLL>2227  - Undefined Reference
    #<DLL>QtGui{00040703}[2001b2dd].dll#<\DLL>25fe  - Undefined Reference
    #<DLL>QtGui{00040703}[2001b2dd].dll#<\DLL>2632  - Undefined Reference
    #<DLL>QtGui{00040703}[2001b2dd].dll#<\DLL>2639  - Undefined Reference
    #<DLL>QtGui{00040703}[2001b2dd].dll#<\DLL>2644  - Undefined Reference
    #<DLL>QtGui{00040703}[2001b2dd].dll#<\DLL>264d  - Undefined Reference
    #<DLL>QtGui{00040703}[2001b2dd].dll#<\DLL>264f  - Undefined Reference
    #<DLL>QtGui{00040703}[2001b2dd].dll#<\DLL>2680  - Undefined Reference
    #<DLL>QtGui{00040703}[2001b2dd].dll#<\DLL>2717  - Undefined Reference
    #<DLL>QtGui{00040703}[2001b2dd].dll#<\DLL>271e  - Undefined Reference
    #<DLL>QtGui{00040703}[2001b2dd].dll#<\DLL>275c  - Undefined Reference
    #<DLL>QtGui{00040703}[2001b2dd].dll#<\DLL>275d  - Undefined Reference
    #<DLL>QtGui{00040703}[2001b2dd].dll#<\DLL>2763  - Undefined Reference
    #<DLL>QtGui{00040703}[2001b2dd].dll#<\DLL>276e  - Undefined Reference
    #<DLL>QtGui{00040703}[2001b2dd].dll#<\DLL>2772  - Undefined Reference
    #<DLL>QtGui{00040703}[2001b2dd].dll#<\DLL>277a  - Undefined Reference
    #<DLL>QtGui{00040703}[2001b2dd].dll#<\DLL>277c  - Undefined Reference
    #<DLL>QtGui{00040703}[2001b2dd].dll#<\DLL>2787  - Undefined Reference
    #<DLL>QtGui{00040703}[2001b2dd].dll#<\DLL>278c  - Undefined Reference
    #<DLL>QtGui{00040703}[2001b2dd].dll#<\DLL>278f  - Undefined Reference
    #<DLL>QtGui{00040703}[2001b2dd].dll#<\DLL>2791  - Undefined Reference
    #<DLL>QtGui{00040703}[2001b2dd].dll#<\DLL>2792  - Undefined Reference
    #<DLL>QtGui{00040703}[2001b2dd].dll#<\DLL>2795  - Undefined Reference
    #<DLL>QtGui{00040703}[2001b2dd].dll#<\DLL>2797  - Undefined Reference
    #<DLL>QtGui{00040703}[2001b2dd].dll#<\DLL>279b  - Undefined Reference
    #<DLL>QtGui{00040703}[2001b2dd].dll#<\DLL>27e0  - Undefined Reference
    #<DLL>QtGui{00040703}[2001b2dd].dll#<\DLL>27ee  - Undefined Reference
    #<DLL>QtGui{00040703}[2001b2dd].dll#<\DLL>27f1  - Undefined Reference
    #<DLL>QtGui{00040703}[2001b2dd].dll#<\DLL>2cc4  - Undefined Reference
    #<DLL>QtGui{00040703}[2001b2dd].dll#<\DLL>2cc5  - Undefined Reference
    #<DLL>QtGui{00040703}[2001b2dd].dll#<\DLL>2cc6  - Undefined Reference
    #<DLL>QtGui{00040703}[2001b2dd].dll#<\DLL>2dc5  - Undefined Reference
    #<DLL>QtGui{00040703}[2001b2dd].dll#<\DLL>2f  - Undefined Reference
    #<DLL>QtGui{00040703}[2001b2dd].dll#<\DLL>43  - Undefined Reference
    #<DLL>QtGui{00040703}[2001b2dd].dll#<\DLL>59c  - Undefined Reference
    #<DLL>QtGui{00040703}[2001b2dd].dll#<\DLL>6a2  - Undefined Reference
    #<DLL>QtGui{00040703}[2001b2dd].dll#<\DLL>6a6  - Undefined Reference
    #<DLL>QtGui{00040703}[2001b2dd].dll#<\DLL>6a9  - Undefined Reference
    #<DLL>QtGui{00040703}[2001b2dd].dll#<\DLL>6af  - Undefined Reference
    #<DLL>QtGui{00040703}[2001b2dd].dll#<\DLL>8f7  - Undefined Reference
    #<DLL>QtGui{00040703}[2001b2dd].dll#<\DLL>8f8  - Undefined Reference
    #<DLL>QtGui{00040703}[2001b2dd].dll#<\DLL>8fd  - Undefined Reference
    #<DLL>QtGui{00040703}[2001b2dd].dll#<\DLL>904  - Undefined Reference
    #<DLL>QtGui{00040703}[2001b2dd].dll#<\DLL>906  - Undefined Reference
    #<DLL>QtGui{00040703}[2001b2dd].dll#<\DLL>907  - Undefined Reference
    #<DLL>QtGui{00040703}[2001b2dd].dll#<\DLL>909  - Undefined Reference
    #<DLL>QtGui{00040703}[2001b2dd].dll#<\DLL>90b  - Undefined Reference
    #<DLL>QtGui{00040703}[2001b2dd].dll#<\DLL>90c  - Undefined Reference
    #<DLL>QtGui{00040703}[2001b2dd].dll#<\DLL>90f  - Undefined Reference
    #<DLL>QtGui{00040703}[2001b2dd].dll#<\DLL>910  - Undefined Reference
    #<DLL>QtGui{00040703}[2001b2dd].dll#<\DLL>911  - Undefined Reference
    #<DLL>QtGui{00040703}[2001b2dd].dll#<\DLL>912  - Undefined Reference
    #<DLL>QtGui{00040703}[2001b2dd].dll#<\DLL>916  - Undefined Reference
    #<DLL>QtGui{00040703}[2001b2dd].dll#<\DLL>917  - Undefined Reference
    #<DLL>QtGui{00040703}[2001b2dd].dll#<\DLL>918  - Undefined Reference
    #<DLL>QtGui{00040703}[2001b2dd].dll#<\DLL>919  - Undefined Reference
    #<DLL>QtGui{00040703}[2001b2dd].dll#<\DLL>91b  - Undefined Reference
    #<DLL>QtGui{00040703}[2001b2dd].dll#<\DLL>91c  - Undefined Reference
    #<DLL>QtGui{00040703}[2001b2dd].dll#<\DLL>91d  - Undefined Reference
    #<DLL>QtGui{00040703}[2001b2dd].dll#<\DLL>920  - Undefined Reference
    #<DLL>QtGui{00040703}[2001b2dd].dll#<\DLL>926  - Undefined Reference
    #<DLL>QtGui{00040703}[2001b2dd].dll#<\DLL>927  - Undefined Reference
    #<DLL>QtGui{00040703}[2001b2dd].dll#<\DLL>937  - Undefined Reference
    #<DLL>QtGui{00040703}[2001b2dd].dll#<\DLL>938  - Undefined Reference
    #<DLL>QtGui{00040703}[2001b2dd].dll#<\DLL>93a  - Undefined Reference
    #<DLL>QtGui{00040703}[2001b2dd].dll#<\DLL>93f  - Undefined Reference
    #<DLL>QtGui{00040703}[2001b2dd].dll#<\DLL>94a  - Undefined Reference
    #<DLL>QtGui{00040703}[2001b2dd].dll#<\DLL>97a  - Undefined Reference
    #<DLL>QtGui{00040703}[2001b2dd].dll#<\DLL>d11  - Undefined Reference
    #<DLL>QtGui{00040703}[2001b2dd].dll#<\DLL>d12  - Undefined Reference
    #<DLL>QtGui{00040703}[2001b2dd].dll#<\DLL>d1e  - Undefined Reference
    #<DLL>QtNetwork{00040703}[2001b2de].dll#<\DLL>142  - Undefined Reference
    #<DLL>QtNetwork{00040703}[2001b2de].dll#<\DLL>143  - Undefined Reference
    #<DLL>QtNetwork{00040703}[2001b2de].dll#<\DLL>146  - Undefined Reference
    #<DLL>QtNetwork{00040703}[2001b2de].dll#<\DLL>1de  - Undefined Reference
    #<DLL>QtNetwork{00040703}[2001b2de].dll#<\DLL>1e1  - Undefined Reference
    #<DLL>QtNetwork{00040703}[2001b2de].dll#<\DLL>1e8  - Undefined Reference
    #<DLL>QtNetwork{00040703}[2001b2de].dll#<\DLL>2f2  - Undefined Reference
    #<DLL>QtNetwork{00040703}[2001b2de].dll#<\DLL>2f4  - Undefined Reference
    #<DLL>QtNetwork{00040703}[2001b2de].dll#<\DLL>2f6  - Undefined Reference
    #<DLL>QtNetwork{00040703}[2001b2de].dll#<\DLL>31f  - Undefined Reference
    #<DLL>QtNetwork{00040703}[2001b2de].dll#<\DLL>323  - Undefined Reference
    #<DLL>dfpaeabi{000a0000}.dll#<\DLL>14     - Undefined Reference
    #<DLL>dfpaeabi{000a0000}.dll#<\DLL>18     - Undefined Reference
    #<DLL>dfpaeabi{000a0000}.dll#<\DLL>19     - Undefined Reference
    #<DLL>dfpaeabi{000a0000}.dll#<\DLL>1d     - Undefined Reference
    #<DLL>dfpaeabi{000a0000}.dll#<\DLL>2      - Undefined Reference
    #<DLL>dfpaeabi{000a0000}.dll#<\DLL>24     - Undefined Reference
    #<DLL>dfpaeabi{000a0000}.dll#<\DLL>25     - Undefined Reference
    #<DLL>dfpaeabi{000a0000}.dll#<\DLL>27     - Undefined Reference
    #<DLL>dfpaeabi{000a0000}.dll#<\DLL>28     - Undefined Reference
    #<DLL>dfpaeabi{000a0000}.dll#<\DLL>2a     - Undefined Reference
    #<DLL>dfpaeabi{000a0000}.dll#<\DLL>5      - Undefined Reference
    #<DLL>dfpaeabi{000a0000}.dll#<\DLL>6      - Undefined Reference
    #<DLL>dfpaeabi{000a0000}.dll#<\DLL>7      - Undefined Reference
    #<DLL>dfpaeabi{000a0000}.dll#<\DLL>8      - Undefined Reference
    #<DLL>dfpaeabi{000a0000}.dll#<\DLL>c      - Undefined Reference
    #<DLL>drtaeabi{000a0000}.dll#<\DLL>87     - Undefined Reference
    #<DLL>drtaeabi{000a0000}.dll#<\DLL>8b     - Undefined Reference
    #<DLL>drtaeabi{000a0000}.dll#<\DLL>90     - Undefined Reference
    #<DLL>drtaeabi{000a0000}.dll#<\DLL>92     - Undefined Reference
    #<DLL>drtaeabi{000a0000}.dll#<\DLL>93     - Undefined Reference
    #<DLL>drtaeabi{000a0000}.dll#<\DLL>9b     - Undefined Reference
    #<DLL>drtaeabi{000a0000}.dll#<\DLL>9e     - Undefined Reference
    #<DLL>drtaeabi{000a0000}.dll#<\DLL>b4     - Undefined Reference
    #<DLL>drtaeabi{000a0000}.dll#<\DLL>b7     - Undefined Reference
    #<DLL>drtaeabi{000a0000}.dll#<\DLL>b8     - Undefined Reference
    #<DLL>drtaeabi{000a0000}.dll#<\DLL>ba     - Undefined Reference
    #<DLL>drtaeabi{000a0000}.dll#<\DLL>bb     - Undefined Reference
    #<DLL>drtaeabi{000a0000}.dll#<\DLL>bc     - Undefined Reference
    #<DLL>drtaeabi{000a0000}.dll#<\DLL>bd     - Undefined Reference
    #<DLL>drtaeabi{000a0000}.dll#<\DLL>be     - Undefined Reference
    #<DLL>drtrvct2_2{000a0000}.dll#<\DLL>1c   - Undefined Reference
    #<DLL>drtrvct2_2{000a0000}.dll#<\DLL>2c   - Undefined Reference
    #<DLL>drtrvct2_2{000a0000}.dll#<\DLL>2d   - Undefined Reference
    #<DLL>drtrvct2_2{000a0000}.dll#<\DLL>31   - Undefined Reference
    #<DLL>drtrvct2_2{000a0000}.dll#<\DLL>32   - Undefined Reference
    #<DLL>drtrvct2_2{000a0000}.dll#<\DLL>33   - Undefined Reference
    #<DLL>drtrvct2_2{000a0000}.dll#<\DLL>38   - Undefined Reference
    #<DLL>drtrvct2_2{000a0000}.dll#<\DLL>39   - Undefined Reference
    #<DLL>drtrvct2_2{000a0000}.dll#<\DLL>3b   - Undefined Reference
    #<DLL>drtrvct2_2{000a0000}.dll#<\DLL>40   - Undefined Reference
    #<DLL>drtrvct2_2{000a0000}.dll#<\DLL>41   - Undefined Reference
    #<DLL>efsrv{000a0000}[100039e4].dll#<\DLL>44  - Undefined Reference
    #<DLL>efsrv{000a0000}[100039e4].dll#<\DLL>e7  - Undefined Reference
    #<DLL>euser{000a0000}[100039e5].dll#<\DLL>29d  - Undefined Reference
    #<DLL>euser{000a0000}[100039e5].dll#<\DLL>29e  - Undefined Reference
    #<DLL>euser{000a0000}[100039e5].dll#<\DLL>29f  - Undefined Reference
    #<DLL>euser{000a0000}[100039e5].dll#<\DLL>2f7  - Undefined Reference
    #<DLL>euser{000a0000}[100039e5].dll#<\DLL>30e  - Undefined Reference
    #<DLL>euser{000a0000}[100039e5].dll#<\DLL>492  - Undefined Reference
    #<DLL>euser{000a0000}[100039e5].dll#<\DLL>6b7  - Undefined Reference
    #<DLL>euser{000a0000}[100039e5].dll#<\DLL>78  - Undefined Reference
    #<DLL>euser{000a0000}[100039e5].dll#<\DLL>79f  - Undefined Reference
    #<DLL>euser{000a0000}[100039e5].dll#<\DLL>80c  - Undefined Reference
    #<DLL>euser{000a0000}[100039e5].dll#<\DLL>80d  - Undefined Reference
    #<DLL>euser{000a0000}[100039e5].dll#<\DLL>822  - Undefined Reference
    #<DLL>libc{00010000}[10207369].dll#<\DLL>15e  - Undefined Reference
    #<DLL>libc{00010000}[10207369].dll#<\DLL>16c  - Undefined Reference
    #<DLL>libc{00010000}[10207369].dll#<\DLL>e8  - Undefined Reference
    #<DLL>libstdcpp{00010000}[10282872].dll#<\DLL>3dc  - Undefined Reference
    #<DLL>libstdcpp{00010000}[10282872].dll#<\DLL>3e0  - Undefined Reference
    QByteArray::shared_null                   - Undefined Reference
    QGraphicsObject::staticMetaObject         - Undefined Reference
    QObject::staticMetaObject                 - Undefined Reference
    QString::shared_null                      - Undefined Reference
    QWidget::staticMetaObject                 - Undefined Reference
    QMapData::shared_null                     - Undefined Reference
    QVariant::handler                         - Undefined Reference
    QHashData::shared_null                    - Undefined Reference
    QIODevice::staticMetaObject               - Undefined Reference
    QListData::shared_null                    - Undefined Reference
    typeinfo for QGraphicsObject              - Undefined Reference
    typeinfo for XLeaveException              - Undefined Reference
    typeinfo for QObject                      - Undefined Reference
    typeinfo for QWidget                      - Undefined Reference
    typeinfo for QIODevice                    - Undefined Reference
    typeinfo for std::exception               - Undefined Reference
    vtable for __cxxabiv1::__class_type_info  - Undefined Reference
    vtable for __cxxabiv1::__si_class_type_info  - Undefined Reference
    vtable for __cxxabiv1::__vmi_class_type_info  - Undefined Reference
    _fp_init                                  - Undefined Weak Reference
    Image$$ER_RO$$Base                       0x00008000   Number         0  anon$$obj.o(linker$$defined$$symbols)
    _E32Dll                                  0x00008000   ARM Code      40  uc_dll_.o(.emb_text)
    Symbian$$CPP$$Exception$$Descriptor      0x00008014   Data           0  uc_dll_.o(.emb_text)
    __cpp_initialize__aeabi_                 0x00008028   ARM Code      72  ucppinit_aeabi.o(.emb_text)
    SymbianAudio::DevSoundWrapper::getStaticMetaObject() 0x00008071   Thumb Code     4  QtMultimediaKit.in(.text)
    std::nothrow                             0x00008071   Thumb Code     0  ucppinit_aeabi.o(.emb_text)
    SymbianAudio::DevSoundWrapper::metaObject() const 0x00008075   Thumb Code    12  QtMultimediaKit.in(.text)
    SymbianAudio::DevSoundWrapper::qt_metacast(const char*) 0x00008081   Thumb Code    58  QtMultimediaKit.in(.text)
    SymbianAudio::DevSoundWrapper::processingError(int) 0x000080bb   Thumb Code    30  QtMultimediaKit.in(.text)
    SymbianAudio::DevSoundWrapper::bufferToBeProcessed(CMMFBuffer*) 0x000080d9   Thumb Code    28  QtMultimediaKit.in(.text)
    SymbianAudio::DevSoundWrapper::initializeComplete(int) 0x000080f5   Thumb Code    26  QtMultimediaKit.in(.text)
    SymbianAudio::DevSoundWrapper::qt_metacall(QMetaObject::Call, int, void**) 0x0000810f   Thumb Code    72  QtMultimediaKit.in(.text)
    QMediaControl::getStaticMetaObject()     0x00008171   Thumb Code     4  QtMultimediaKit.in(.text)
    QMediaControl::metaObject() const        0x00008175   Thumb Code    12  QtMultimediaKit.in(.text)
    QMediaControl::qt_metacast(const char*)  0x00008181   Thumb Code    40  QtMultimediaKit.in(.text)
    QMediaControl::qt_metacall(QMetaObject::Call, int, void**) 0x000081a9   Thumb Code     8  QtMultimediaKit.in(.text)
    QMediaControl::~QMediaControl()          0x000081b1   Thumb Code    28  QtMultimediaKit.in(.text)
    QMediaControl::~QMediaControl__sub_object() 0x000081b1   Thumb Code     0  QtMultimediaKit.in(.text)
    QMediaControl::~QMediaControl__deallocating() 0x000081cd   Thumb Code    16  QtMultimediaKit.in(.text)
    QMediaControl::QMediaControl(QObject*)   0x000081dd   Thumb Code    38  QtMultimediaKit.in(.text)
    QMediaControl::QMediaControl__sub_object(QObject*) 0x000081dd   Thumb Code     0  QtMultimediaKit.in(.text)
    QMediaControl::QMediaControl(QMediaControlPrivate&, QObject*) 0x00008203   Thumb Code    20  QtMultimediaKit.in(.text)
    QMediaControl::QMediaControl__sub_object(QMediaControlPrivate&, QObject*) 0x00008203   Thumb Code     0  QtMultimediaKit.in(.text)
    QMediaObject::getStaticMetaObject()      0x00008225   Thumb Code     4  QtMultimediaKit.in(.text)
    QMediaObject::metaObject() const         0x00008229   Thumb Code    12  QtMultimediaKit.in(.text)
    QMediaObject::qt_metacast(const char*)   0x00008235   Thumb Code    40  QtMultimediaKit.in(.text)
    QMediaObject::notifyIntervalChanged(int) 0x0000825d   Thumb Code    28  QtMultimediaKit.in(.text)
    QMediaObject::setNotifyInterval(int)     0x00008279   Thumb Code    32  QtMultimediaKit.in(.text)
    QMediaObject::notifyInterval() const     0x00008299   Thumb Code     8  QtMultimediaKit.in(.text)
    QMediaObjectPrivate::_q_notify()         0x000082a1   Thumb Code   272  QtMultimediaKit.in(.text)
    QMediaObject::availabilityChanged(bool)  0x000083b1   Thumb Code    28  QtMultimediaKit.in(.text)
    QMediaObject::metaDataChanged()          0x000083cd   Thumb Code    14  QtMultimediaKit.in(.text)
    QMediaObject::metaDataAvailableChanged(bool) 0x000083db   Thumb Code    28  QtMultimediaKit.in(.text)
    QMediaObject::qt_metacall(QMetaObject::Call, int, void**) 0x000083f7   Thumb Code   158  QtMultimediaKit.in(.text)
    QMediaObject::~QMediaObject()            0x00008495   Thumb Code    28  QtMultimediaKit.in(.text)
    QMediaObject::~QMediaObject__sub_object() 0x00008495   Thumb Code     0  QtMultimediaKit.in(.text)
    QMediaObject::~QMediaObject__deallocating() 0x000084b1   Thumb Code    16  QtMultimediaKit.in(.text)
    QMediaObject::isAvailable() const        0x000084c1   Thumb Code    16  QtMultimediaKit.in(.text)
    QMediaObject::availabilityError() const  0x000084d1   Thumb Code    16  QtMultimediaKit.in(.text)
    QMediaObject::service() const            0x000084e1   Thumb Code     6  QtMultimediaKit.in(.text)
    QMediaObject::bind(QObject*)             0x000084e7   Thumb Code    60  QtMultimediaKit.in(.text)
    QMediaObject::unbind(QObject*)           0x00008523   Thumb Code   146  QtMultimediaKit.in(.text)
    QMediaObject::isMetaDataAvailable() const 0x000085b5   Thumb Code    96  QtMultimediaKit.in(.text)
    QMediaObject::metaData(QtMultimediaKit::MetaData) const 0x00008615   Thumb Code    72  QtMultimediaKit.in(.text)
    QMediaObject::availableMetaData() const  0x0000865d   Thumb Code    88  QtMultimediaKit.in(.text)
    QMediaObject::extendedMetaData(const QString&) const 0x000086b5   Thumb Code    70  QtMultimediaKit.in(.text)
    QMediaObject::availableExtendedMetaData() const 0x000086fb   Thumb Code    88  QtMultimediaKit.in(.text)
    QMediaObject::setupMetaData()            0x00008753   Thumb Code    66  QtMultimediaKit.in(.text)
    QMediaObject::QMediaObject(QObject*, QMediaService*) 0x00008795   Thumb Code   114  QtMultimediaKit.in(.text)
    QMediaObject::QMediaObject__sub_object(QObject*, QMediaService*) 0x00008795   Thumb Code     0  QtMultimediaKit.in(.text)
    QMediaObject::QMediaObject(QMediaObjectPrivate&, QObject*, QMediaService*) 0x00008807   Thumb Code    82  QtMultimediaKit.in(.text)
    QMediaObject::QMediaObject__sub_object(QMediaObjectPrivate&, QObject*, QMediaService*) 0x00008807   Thumb Code     0  QtMultimediaKit.in(.text)
    QMediaObject::addPropertyWatch(const QByteArray&) 0x00008859   Thumb Code    86  QtMultimediaKit.in(.text)
    QMediaObject::removePropertyWatch(const QByteArray&) 0x000088af   Thumb Code    56  QtMultimediaKit.in(.text)
    QMediaService::getStaticMetaObject()     0x00008975   Thumb Code     4  QtMultimediaKit.in(.text)
    QMediaService::metaObject() const        0x00008979   Thumb Code    12  QtMultimediaKit.in(.text)
    QMediaService::qt_metacast(const char*)  0x00008985   Thumb Code    40  QtMultimediaKit.in(.text)
    QMediaService::qt_metacall(QMetaObject::Call, int, void**) 0x000089ad   Thumb Code     8  QtMultimediaKit.in(.text)
    QMediaService::~QMediaService()          0x000089b5   Thumb Code     0  QtMultimediaKit.in(.text)
    QMediaService::~QMediaService__sub_object() 0x000089b5   Thumb Code    28  QtMultimediaKit.in(.text)
    QMediaService::~QMediaService__deallocating() 0x000089d1   Thumb Code    16  QtMultimediaKit.in(.text)
    QMediaService::QMediaService__sub_object(QObject*) 0x000089e1   Thumb Code    42  QtMultimediaKit.in(.text)
    QMediaService::QMediaService__sub_object(QMediaServicePrivate&, QObject*) 0x00008a0b   Thumb Code    20  QtMultimediaKit.in(.text)
    QMediaBindableInterface::~QMediaBindableInterface() 0x00008a2d   Thumb Code     0  QtMultimediaKit.in(.text)
    QMediaBindableInterface::~QMediaBindableInterface__sub_object() 0x00008a2d   Thumb Code     2  QtMultimediaKit.in(.text)
    QMediaBindableInterface::~QMediaBindableInterface__deallocating() 0x00008a2f   Thumb Code    12  QtMultimediaKit.in(.text)
    QLocalMediaPlaylistProvider::getStaticMetaObject() 0x00008a3d   Thumb Code     4  QtMultimediaKit.in(.text)
    QLocalMediaPlaylistProvider::metaObject() const 0x00008a41   Thumb Code    12  QtMultimediaKit.in(.text)
    QLocalMediaPlaylistProvider::qt_metacast(const char*) 0x00008a4d   Thumb Code    40  QtMultimediaKit.in(.text)
    QLocalMediaPlaylistProvider::qt_metacall(QMetaObject::Call, int, void**) 0x00008a75   Thumb Code    36  QtMultimediaKit.in(.text)
    QLocalMediaPlaylistProvider::QLocalMediaPlaylistProvider(QObject*) 0x00008a99   Thumb Code    54  QtMultimediaKit.in(.text)
    QLocalMediaPlaylistProvider::QLocalMediaPlaylistProvider__sub_object(QObject*) 0x00008a99   Thumb Code     0  QtMultimediaKit.in(.text)
    QLocalMediaPlaylistProvider::~QLocalMediaPlaylistProvider() 0x00008acf   Thumb Code     8  QtMultimediaKit.in(.text)
    QLocalMediaPlaylistProvider::~QLocalMediaPlaylistProvider__sub_object() 0x00008acf   Thumb Code     0  QtMultimediaKit.in(.text)
    QLocalMediaPlaylistProvider::~QLocalMediaPlaylistProvider__deallocating() 0x00008ad7   Thumb Code    16  QtMultimediaKit.in(.text)
    QLocalMediaPlaylistProvider::mediaCount() const 0x00008ae7   Thumb Code    12  QtMultimediaKit.in(.text)
    QLocalMediaPlaylistProvider::media(int) const 0x00008af3   Thumb Code    50  QtMultimediaKit.in(.text)
    QLocalMediaPlaylistProvider::isReadOnly() const 0x00008b25   Thumb Code     4  QtMultimediaKit.in(.text)
    QLocalMediaPlaylistProvider::addMedia(const QMediaContent&) 0x00008b29   Thumb Code    48  QtMultimediaKit.in(.text)
    QLocalMediaPlaylistProvider::addMedia(const QList<QMediaContent>&) 0x00008b59   Thumb Code    68  QtMultimediaKit.in(.text)
    QLocalMediaPlaylistProvider::insertMedia(int, const QMediaContent&) 0x00008b9d   Thumb Code    40  QtMultimediaKit.in(.text)
    QLocalMediaPlaylistProvider::insertMedia(int, const QList<QMediaContent>&) 0x00008bc5   Thumb Code    86  QtMultimediaKit.in(.text)
    QLocalMediaPlaylistProvider::removeMedia(int) 0x00008c1b   Thumb Code    74  QtMultimediaKit.in(.text)
    QLocalMediaPlaylistProvider::removeMedia(int, int) 0x00008c65   Thumb Code   140  QtMultimediaKit.in(.text)
    QLocalMediaPlaylistProvider::clear()     0x00008cf1   Thumb Code    72  QtMultimediaKit.in(.text)
    QLocalMediaPlaylistProvider::shuffle()   0x00008d39   Thumb Code   152  QtMultimediaKit.in(.text)
    QMediaImageViewer::getStaticMetaObject() 0x00008ddd   Thumb Code     4  QtMultimediaKit.in(.text)
    QMediaImageViewer::metaObject() const    0x00008de1   Thumb Code    12  QtMultimediaKit.in(.text)
    QMediaImageViewer::qt_metacast(const char*) 0x00008ded   Thumb Code    38  QtMultimediaKit.in(.text)
    QMediaImageViewer::setTimeout(int)       0x00008e13   Thumb Code    80  QtMultimediaKit.in(.text)
    QMediaImageViewer::mediaChanged(const QMediaContent&) 0x00008e63   Thumb Code    24  QtMultimediaKit.in(.text)
    QMediaImageViewer::stateChanged(QMediaImageViewer::State) 0x00008e7b   Thumb Code    28  QtMultimediaKit.in(.text)
    QMediaImageViewer::elapsedTimeChanged(int) 0x00008e97   Thumb Code    28  QtMultimediaKit.in(.text)
    QMediaImageViewer::setMedia(const QMediaContent&) 0x00008eb3   Thumb Code   182  QtMultimediaKit.in(.text)
    QMediaImageViewer::elapsedTime() const   0x00008f69   Thumb Code    32  QtMultimediaKit.in(.text)
    QMediaImageViewer::timeout() const       0x00008f89   Thumb Code     6  QtMultimediaKit.in(.text)
    QMediaImageViewer::media() const         0x00008f8f   Thumb Code    12  QtMultimediaKit.in(.text)
    QMediaImageViewer::mediaStatus() const   0x00008f9b   Thumb Code    12  QtMultimediaKit.in(.text)
    QMediaImageViewer::state() const         0x00008fa7   Thumb Code     6  QtMultimediaKit.in(.text)
    QMediaImageViewerPrivate::_q_playlistDestroyed() 0x00008fad   Thumb Code    52  QtMultimediaKit.in(.text)
    QMediaImageViewerPrivate::_q_playlistMediaChanged(const QMediaContent&) 0x00008fe1   Thumb Code    36  QtMultimediaKit.in(.text)
    QMediaImageViewer::mediaStatusChanged(QMediaImageViewer::MediaStatus) 0x00009005   Thumb Code    28  QtMultimediaKit.in(.text)
    QMediaImageViewerPrivate::_q_mediaStatusChanged(QMediaImageViewer::MediaStatus) 0x00009021   Thumb Code   154  QtMultimediaKit.in(.text)
    QMediaImageViewer::stop()                0x000090bb   Thumb Code    74  QtMultimediaKit.in(.text)
    QMediaImageViewer::pause()               0x00009105   Thumb Code    90  QtMultimediaKit.in(.text)
    QMediaImageViewer::play()                0x0000915f   Thumb Code   264  QtMultimediaKit.in(.text)
    QMediaImageViewer::setPlaylist(QMediaPlaylist*) 0x00009267   Thumb Code   128  QtMultimediaKit.in(.text)
    QMediaImageViewer::qt_metacall(QMetaObject::Call, int, void**) 0x000092e7   Thumb Code   314  QtMultimediaKit.in(.text)
    QMediaImageViewer::QMediaImageViewer(QObject*) 0x00009421   Thumb Code   124  QtMultimediaKit.in(.text)
    QMediaImageViewer::QMediaImageViewer__sub_object(QObject*) 0x00009421   Thumb Code     0  QtMultimediaKit.in(.text)
    QMediaImageViewer::~QMediaImageViewer()  0x0000949d   Thumb Code    30  QtMultimediaKit.in(.text)
    QMediaImageViewer::~QMediaImageViewer__sub_object() 0x0000949d   Thumb Code     0  QtMultimediaKit.in(.text)
    QMediaImageViewer::~QMediaImageViewer__deallocating() 0x000094bb   Thumb Code    16  QtMultimediaKit.in(.text)
    QMediaImageViewer::playlist() const      0x000094cb   Thumb Code     6  QtMultimediaKit.in(.text)
    QMediaImageViewer::setVideoOutput(QVideoWidget*) 0x000094d1   Thumb Code    50  QtMultimediaKit.in(.text)
    QMediaImageViewer::setVideoOutput(QGraphicsVideoItem*) 0x00009503   Thumb Code    50  QtMultimediaKit.in(.text)
    QMediaImageViewer::bind(QObject*)        0x00009535   Thumb Code    36  QtMultimediaKit.in(.text)
    QMediaImageViewer::unbind(QObject*)      0x00009559   Thumb Code    24  QtMultimediaKit.in(.text)
    QMediaImageViewer::timerEvent(QTimerEvent*) 0x00009571   Thumb Code   102  QtMultimediaKit.in(.text)
    QMediaImageViewerService::getStaticMetaObject() 0x00009691   Thumb Code     4  QtMultimediaKit.in(.text)
    QMediaImageViewerService::metaObject() const 0x00009695   Thumb Code    12  QtMultimediaKit.in(.text)
    QMediaImageViewerService::qt_metacast(const char*) 0x000096a1   Thumb Code    40  QtMultimediaKit.in(.text)
    QMediaImageViewerService::qt_metacall(QMetaObject::Call, int, void**) 0x000096c9   Thumb Code     8  QtMultimediaKit.in(.text)
    QMediaImageViewerControl::QMediaImageViewerControl(QMediaImageViewerService*) 0x000096d1   Thumb Code    54  QtMultimediaKit.in(.text)
    QMediaImageViewerControl::QMediaImageViewerControl__sub_object(QMediaImageViewerService*) 0x000096d1   Thumb Code     0  QtMultimediaKit.in(.text)
    QMediaImageViewerService::QMediaImageViewerService(QObject*) 0x00009707   Thumb Code   102  QtMultimediaKit.in(.text)
    QMediaImageViewerService::QMediaImageViewerService__sub_object(QObject*) 0x00009707   Thumb Code     0  QtMultimediaKit.in(.text)
    QMediaImageViewerService::~QMediaImageViewerService() 0x0000976d   Thumb Code    42  QtMultimediaKit.in(.text)
    QMediaImageViewerService::~QMediaImageViewerService__sub_object() 0x0000976d   Thumb Code     0  QtMultimediaKit.in(.text)
    QMediaImageViewerService::~QMediaImageViewerService__deallocating() 0x00009797   Thumb Code    16  QtMultimediaKit.in(.text)
    QMediaImageViewerRenderer::showImage(const QImage&) 0x000097a7   Thumb Code   418  QtMultimediaKit.in(.text)
    QMediaImageViewerRenderer::QMediaImageViewerRenderer(QObject*) 0x00009949   Thumb Code    28  QtMultimediaKit.in(.text)
    QMediaImageViewerRenderer::QMediaImageViewerRenderer__sub_object(QObject*) 0x00009949   Thumb Code     0  QtMultimediaKit.in(.text)
    QMediaImageViewerService::requestControl(const char*) 0x00009965   Thumb Code    80  QtMultimediaKit.in(.text)
    QMediaImageViewerService::releaseControl(QMediaControl*) 0x000099b5   Thumb Code    44  QtMultimediaKit.in(.text)
    QMediaImageViewerService::networkManager() const 0x000099e1   Thumb Code    50  QtMultimediaKit.in(.text)
    QMediaImageViewerService::setNetworkManager(QNetworkAccessManager*) 0x00009a13   Thumb Code     6  QtMultimediaKit.in(.text)
    QMediaImageViewerControl::getStaticMetaObject() 0x00009a19   Thumb Code     6  QtMultimediaKit.in(.text)
    QMediaImageViewerControl::metaObject() const 0x00009a1f   Thumb Code    14  QtMultimediaKit.in(.text)
    QMediaImageViewerControl::qt_metacast(const char*) 0x00009a2d   Thumb Code   144  QtMultimediaKit.in(.text)
    QMediaImageViewerControl::mediaStatusChanged(QMediaImageViewer::MediaStatus) 0x00009abd   Thumb Code    28  QtMultimediaKit.in(.text)
    QMediaImageViewerControlPrivate::isImageType(const QUrl&, const QString&) const 0x00009ad9   Thumb Code   244  QtMultimediaKit.in(.text)
    QMediaImageViewerControlPrivate::cancelRequests() 0x00009bcd   Thumb Code    48  QtMultimediaKit.in(.text)
    QMediaImageViewerControlPrivate::loadImage() 0x00009bfd   Thumb Code   372  QtMultimediaKit.in(.text)
    QMediaImageViewerServicePrivate::load(QIODevice*) 0x00009d71   Thumb Code   118  QtMultimediaKit.in(.text)
    QMediaImageViewerControlPrivate::_q_getFinished() 0x00009de7   Thumb Code    86  QtMultimediaKit.in(.text)
    QMediaImageViewerControlPrivate::_q_headFinished() 0x00009e3d   Thumb Code   358  QtMultimediaKit.in(.text)
    QMediaImageViewerControl::qt_metacall(QMetaObject::Call, int, void**) 0x00009fa3   Thumb Code    64  QtMultimediaKit.in(.text)
    QMediaImageViewerControl::~QMediaImageViewerControl() 0x00009fe3   Thumb Code    30  QtMultimediaKit.in(.text)
    QMediaImageViewerControl::~QMediaImageViewerControl__sub_object() 0x00009fe3   Thumb Code     0  QtMultimediaKit.in(.text)
    QMediaImageViewerControl::~QMediaImageViewerControl__deallocating() 0x0000a001   Thumb Code    16  QtMultimediaKit.in(.text)
    QMediaImageViewerControl::mediaStatus() const 0x0000a011   Thumb Code     6  QtMultimediaKit.in(.text)
    QMediaImageViewerServicePrivate::clear() 0x0000a017   Thumb Code    42  QtMultimediaKit.in(.text)
    QMediaImageViewerControl::showMedia(const QMediaContent&) 0x0000a041   Thumb Code   114  QtMultimediaKit.in(.text)
    QMediaImageViewerRenderer::getStaticMetaObject() 0x0000a0b3   Thumb Code     4  QtMultimediaKit.in(.text)
    QMediaImageViewerRenderer::metaObject() const 0x0000a0b7   Thumb Code    12  QtMultimediaKit.in(.text)
    QMediaImageViewerRenderer::qt_metacast(const char*) 0x0000a0c3   Thumb Code    40  QtMultimediaKit.in(.text)
    QMediaImageViewerRenderer::surfaceChanged(QAbstractVideoSurface*) 0x0000a0eb   Thumb Code    26  QtMultimediaKit.in(.text)
    QMediaImageViewerRenderer::qt_metacall(QMetaObject::Call, int, void**) 0x0000a105   Thumb Code    40  QtMultimediaKit.in(.text)
    QMediaImageViewerRenderer::~QMediaImageViewerRenderer() 0x0000a12d   Thumb Code    38  QtMultimediaKit.in(.text)
    QMediaImageViewerRenderer::~QMediaImageViewerRenderer__sub_object() 0x0000a12d   Thumb Code     0  QtMultimediaKit.in(.text)
    QMediaImageViewerRenderer::~QMediaImageViewerRenderer__deallocating() 0x0000a153   Thumb Code    16  QtMultimediaKit.in(.text)
    QMediaImageViewerRenderer::surface() const 0x0000a163   Thumb Code     4  QtMultimediaKit.in(.text)
    QMediaImageViewerRenderer::setSurface(QAbstractVideoSurface*) 0x0000a167   Thumb Code    48  QtMultimediaKit.in(.text)
    QMediaPlayer::getStaticMetaObject()      0x0000a237   Thumb Code     4  QtMultimediaKit.in(.text)
    QMediaPlayer::metaObject() const         0x0000a23b   Thumb Code    12  QtMultimediaKit.in(.text)
    QMediaPlayer::qt_metacast(const char*)   0x0000a247   Thumb Code    38  QtMultimediaKit.in(.text)
    QMediaPlayer::setPlaybackRate(float)     0x0000a26d   Thumb Code    16  QtMultimediaKit.in(.text)
    QMediaPlayer::isMuted() const            0x0000a27d   Thumb Code    18  QtMultimediaKit.in(.text)
    QMediaPlayer::setMuted(bool)             0x0000a28f   Thumb Code    32  QtMultimediaKit.in(.text)
    QMediaPlayer::volume() const             0x0000a2af   Thumb Code    18  QtMultimediaKit.in(.text)
    QMediaPlayer::setVolume(int)             0x0000a2c1   Thumb Code    64  QtMultimediaKit.in(.text)
    QMediaPlayer::duration() const           0x0000a301   Thumb Code    22  QtMultimediaKit.in(.text)
    QMediaPlayer::isSeekable() const         0x0000a317   Thumb Code    18  QtMultimediaKit.in(.text)
    QMediaPlayer::setPosition(long long)     0x0000a329   Thumb Code    88  QtMultimediaKit.in(.text)
    QMediaPlayer::playlist() const           0x0000a381   Thumb Code    18  QtMultimediaKit.in(.text)
    QMediaPlayer::setMedia(const QMediaContent&, QIODevice*) 0x0000a393   Thumb Code    98  QtMultimediaKit.in(.text)
    QMediaPlayer::setPlaylist(QMediaPlaylist*) 0x0000a3f5   Thumb Code   184  QtMultimediaKit.in(.text)
    QMediaPlayer::errorString() const        0x0000a4ad   Thumb Code    16  QtMultimediaKit.in(.text)
    QMediaPlayer::mediaStatus() const        0x0000a4bd   Thumb Code    18  QtMultimediaKit.in(.text)
    QMediaPlayer::state() const              0x0000a4cf   Thumb Code     6  QtMultimediaKit.in(.text)
    QMediaPlayer::playbackRate() const       0x0000a4d5   Thumb Code    18  QtMultimediaKit.in(.text)
    QMediaPlayer::isVideoAvailable() const   0x0000a4e7   Thumb Code    18  QtMultimediaKit.in(.text)
    QMediaPlayer::isAudioAvailable() const   0x0000a4f9   Thumb Code    18  QtMultimediaKit.in(.text)
    QMediaPlayer::bufferStatus() const       0x0000a50b   Thumb Code    18  QtMultimediaKit.in(.text)
    QMediaPlayer::position() const           0x0000a51d   Thumb Code    20  QtMultimediaKit.in(.text)
    QMediaPlayer::media() const              0x0000a531   Thumb Code    24  QtMultimediaKit.in(.text)
    QMediaPlayerPrivate::_q_playlistDestroyed() 0x0000a549   Thumb Code    56  QtMultimediaKit.in(.text)
    QMediaPlayer::stateChanged(QMediaPlayer::State) 0x0000a581   Thumb Code   176  QtMultimediaKit.in(.text)
    QMediaPlayerPrivate::_q_updateMedia(const QMediaContent&) 0x0000a631   Thumb Code   144  QtMultimediaKit.in(.text)
    QMediaPlayer::error(QMediaPlayer::Error) 0x0000a6c1   Thumb Code    28  QtMultimediaKit.in(.text)
    QMediaPlayerPrivate::_q_error(int, const QString&) 0x0000a6dd   Thumb Code    26  QtMultimediaKit.in(.text)
    QMediaPlayer::mediaStatusChanged(QMediaPlayer::MediaStatus) 0x0000a6f7   Thumb Code    28  QtMultimediaKit.in(.text)
    QMediaPlayerPrivate::_q_mediaStatusChanged(QMediaPlayer::MediaStatus) 0x0000a713   Thumb Code    66  QtMultimediaKit.in(.text)
    QMediaPlayerPrivate::_q_stateChanged(QMediaPlayer::State) 0x0000a755   Thumb Code   134  QtMultimediaKit.in(.text)
    QMediaPlayer::stop()                     0x0000a7db   Thumb Code    18  QtMultimediaKit.in(.text)
    QMediaPlayer::pause()                    0x0000a7ed   Thumb Code    18  QtMultimediaKit.in(.text)
    QMediaPlayer::play()                     0x0000a7ff   Thumb Code   188  QtMultimediaKit.in(.text)
    QMediaPlayer::playbackRateChanged(float) 0x0000a8bb   Thumb Code    28  QtMultimediaKit.in(.text)
    QMediaPlayer::seekableChanged(bool)      0x0000a8d7   Thumb Code    28  QtMultimediaKit.in(.text)
    QMediaPlayer::bufferStatusChanged(int)   0x0000a8f3   Thumb Code    28  QtMultimediaKit.in(.text)
    QMediaPlayer::videoAvailableChanged(bool) 0x0000a90f   Thumb Code    28  QtMultimediaKit.in(.text)
    QMediaPlayer::audioAvailableChanged(bool) 0x0000a92b   Thumb Code    28  QtMultimediaKit.in(.text)
    QMediaPlayer::mutedChanged(bool)         0x0000a947   Thumb Code    28  QtMultimediaKit.in(.text)
    QMediaPlayer::volumeChanged(int)         0x0000a963   Thumb Code    28  QtMultimediaKit.in(.text)
    QMediaPlayer::positionChanged(long long) 0x0000a97f   Thumb Code    30  QtMultimediaKit.in(.text)
    QMediaPlayer::durationChanged(long long) 0x0000a99d   Thumb Code    28  QtMultimediaKit.in(.text)
    QMediaPlayer::mediaChanged(const QMediaContent&) 0x0000a9b9   Thumb Code    22  QtMultimediaKit.in(.text)
    QMediaPlayer::qt_metacall(QMetaObject::Call, int, void**) 0x0000a9cf   Thumb Code   780  QtMultimediaKit.in(.text)
    QMediaPlayer::QMediaPlayer(QObject*, QFlags<QMediaPlayer::Flag>, QMediaServiceProvider*) 0x0000acdb   Thumb Code   974  QtMultimediaKit.in(.text)
    QMediaPlayer::QMediaPlayer__sub_object(QObject*, QFlags<QMediaPlayer::Flag>, QMediaServiceProvider*) 0x0000acdb   Thumb Code     0  QtMultimediaKit.in(.text)
    QMediaPlayer::~QMediaPlayer()            0x0000b0a9   Thumb Code    46  QtMultimediaKit.in(.text)
    QMediaPlayer::~QMediaPlayer__sub_object() 0x0000b0a9   Thumb Code     0  QtMultimediaKit.in(.text)
    QMediaPlayer::~QMediaPlayer__deallocating() 0x0000b0d7   Thumb Code    16  QtMultimediaKit.in(.text)
    QMediaPlayer::hasSupport(const QString&, const QStringList&, QFlags<QMediaPlayer::Flag>) 0x0000b0e7   Thumb Code    52  QtMultimediaKit.in(.text)
    QMediaPlayer::supportedMimeTypes(QFlags<QMediaPlayer::Flag>) 0x0000b11b   Thumb Code    44  QtMultimediaKit.in(.text)
    QMediaPlayer::setVideoOutput(QVideoWidget*) 0x0000b147   Thumb Code    54  QtMultimediaKit.in(.text)
    QMediaPlayer::setVideoOutput(QGraphicsVideoItem*) 0x0000b17d   Thumb Code    54  QtMultimediaKit.in(.text)
    QMediaPlayer::mediaStream() const        0x0000b1b3   Thumb Code    18  QtMultimediaKit.in(.text)
    QMediaPlayer::error() const              0x0000b1c5   Thumb Code     6  QtMultimediaKit.in(.text)
    QMediaPlayer::bind(QObject*)             0x0000b1cb   Thumb Code     8  QtMultimediaKit.in(.text)
    QMediaPlayer::unbind(QObject*)           0x0000b1d3   Thumb Code     8  QtMultimediaKit.in(.text)
    QMediaPlayerControl::getStaticMetaObject() 0x0000b245   Thumb Code     4  QtMultimediaKit.in(.text)
    QMediaPlayerControl::metaObject() const  0x0000b249   Thumb Code    12  QtMultimediaKit.in(.text)
    QMediaPlayerControl::qt_metacast(const char*) 0x0000b255   Thumb Code    38  QtMultimediaKit.in(.text)
    QMediaPlayerControl::error(int, const QString&) 0x0000b27b   Thumb Code    36  QtMultimediaKit.in(.text)
    QMediaPlayerControl::playbackRateChanged(float) 0x0000b29f   Thumb Code    30  QtMultimediaKit.in(.text)
    QMediaPlayerControl::availablePlaybackRangesChanged(const QMediaTimeRange&) 0x0000b2bd   Thumb Code    24  QtMultimediaKit.in(.text)
    QMediaPlayerControl::seekableChanged(bool) 0x0000b2d5   Thumb Code    28  QtMultimediaKit.in(.text)
    QMediaPlayerControl::bufferStatusChanged(int) 0x0000b2f1   Thumb Code    28  QtMultimediaKit.in(.text)
    QMediaPlayerControl::videoAvailableChanged(bool) 0x0000b30d   Thumb Code    28  QtMultimediaKit.in(.text)
    QMediaPlayerControl::audioAvailableChanged(bool) 0x0000b329   Thumb Code    28  QtMultimediaKit.in(.text)
    QMediaPlayerControl::mutedChanged(bool)  0x0000b345   Thumb Code    28  QtMultimediaKit.in(.text)
    QMediaPlayerControl::volumeChanged(int)  0x0000b361   Thumb Code    28  QtMultimediaKit.in(.text)
    QMediaPlayerControl::mediaStatusChanged(QMediaPlayer::MediaStatus) 0x0000b37d   Thumb Code    28  QtMultimediaKit.in(.text)
    QMediaPlayerControl::stateChanged(QMediaPlayer::State) 0x0000b399   Thumb Code    28  QtMultimediaKit.in(.text)
    QMediaPlayerControl::positionChanged(long long) 0x0000b3b5   Thumb Code    30  QtMultimediaKit.in(.text)
    QMediaPlayerControl::durationChanged(long long) 0x0000b3d3   Thumb Code    28  QtMultimediaKit.in(.text)
    QMediaPlayerControl::mediaChanged(const QMediaContent&) 0x0000b3ef   Thumb Code    22  QtMultimediaKit.in(.text)
    QMediaPlayerControl::qt_metacall(QMetaObject::Call, int, void**) 0x0000b405   Thumb Code   212  QtMultimediaKit.in(.text)
    QMediaPlayerControl::~QMediaPlayerControl() 0x0000b4d9   Thumb Code     0  QtMultimediaKit.in(.text)
    QMediaPlayerControl::~QMediaPlayerControl__sub_object() 0x0000b4d9   Thumb Code     8  QtMultimediaKit.in(.text)
    QMediaPlayerControl::~QMediaPlayerControl__deallocating() 0x0000b4e1   Thumb Code    16  QtMultimediaKit.in(.text)
    QMediaPlayerControl::QMediaPlayerControl__sub_object(QObject*) 0x0000b4f1   Thumb Code    40  QtMultimediaKit.in(.text)
    QMediaPlaylist::getStaticMetaObject()    0x0000b5c7   Thumb Code     4  QtMultimediaKit.in(.text)
    QMediaPlaylist::metaObject() const       0x0000b5cb   Thumb Code    12  QtMultimediaKit.in(.text)
    QMediaPlaylist::qt_metacast(const char*) 0x0000b5d7   Thumb Code    70  QtMultimediaKit.in(.text)
    QMediaPlaylist::setCurrentIndex(int)     0x0000b61d   Thumb Code    10  QtMultimediaKit.in(.text)
    QMediaPlaylist::setPlaybackMode(QMediaPlaylist::PlaybackMode) 0x0000b627   Thumb Code    10  QtMultimediaKit.in(.text)
    QMediaPlaylist::currentIndex() const     0x0000b631   Thumb Code    10  QtMultimediaKit.in(.text)
    QMediaPlaylist::currentMedia() const     0x0000b63b   Thumb Code    34  QtMultimediaKit.in(.text)
    QMediaPlaylist::playbackMode() const     0x0000b65d   Thumb Code    10  QtMultimediaKit.in(.text)
    QMediaPlaylist::loadFailed()             0x0000b667   Thumb Code    14  QtMultimediaKit.in(.text)
    QMediaPlaylist::previous()               0x0000b675   Thumb Code    10  QtMultimediaKit.in(.text)
    QMediaPlaylist::next()                   0x0000b67f   Thumb Code    10  QtMultimediaKit.in(.text)
    QMediaPlaylist::shuffle()                0x0000b689   Thumb Code    16  QtMultimediaKit.in(.text)
    QMediaPlaylist::loaded()                 0x0000b699   Thumb Code    14  QtMultimediaKit.in(.text)
    QMediaPlaylist::mediaChanged(int, int)   0x0000b6a7   Thumb Code    36  QtMultimediaKit.in(.text)
    QMediaPlaylist::mediaRemoved(int, int)   0x0000b6cb   Thumb Code    34  QtMultimediaKit.in(.text)
    QMediaPlaylist::mediaAboutToBeRemoved(int, int) 0x0000b6ed   Thumb Code    34  QtMultimediaKit.in(.text)
    QMediaPlaylist::mediaInserted(int, int)  0x0000b70f   Thumb Code    34  QtMultimediaKit.in(.text)
    QMediaPlaylist::mediaAboutToBeInserted(int, int) 0x0000b731   Thumb Code    34  QtMultimediaKit.in(.text)
    QMediaPlaylist::currentMediaChanged(const QMediaContent&) 0x0000b753   Thumb Code    24  QtMultimediaKit.in(.text)
    QMediaPlaylist::playbackModeChanged(QMediaPlaylist::PlaybackMode) 0x0000b76b   Thumb Code    30  QtMultimediaKit.in(.text)
    QMediaPlaylist::currentIndexChanged(int) 0x0000b789   Thumb Code    26  QtMultimediaKit.in(.text)
    QMediaPlaylist::qt_metacall(QMetaObject::Call, int, void**) 0x0000b7a3   Thumb Code   510  QtMultimediaKit.in(.text)
    QMediaPlaylist::setMediaObject(QMediaObject*) 0x0000b9a1   Thumb Code   880  QtMultimediaKit.in(.text)
    QMediaPlaylist::QMediaPlaylist(QObject*) 0x0000bd11   Thumb Code    96  QtMultimediaKit.in(.text)
    QMediaPlaylist::QMediaPlaylist__sub_object(QObject*) 0x0000bd11   Thumb Code     0  QtMultimediaKit.in(.text)
    QMediaPlaylist::~QMediaPlaylist()        0x0000bd71   Thumb Code    58  QtMultimediaKit.in(.text)
    QMediaPlaylist::~QMediaPlaylist__sub_object() 0x0000bd71   Thumb Code     0  QtMultimediaKit.in(.text)
    QMediaPlaylist::~QMediaPlaylist__deallocating() 0x0000bdab   Thumb Code    16  QtMultimediaKit.in(.text)
    thunk{-8} to QMediaPlaylist::~QMediaPlaylist__deallocating() 0x0000bdbb   Thumb Code     4  QtMultimediaKit.in(.text)
    thunk{-8} to QMediaPlaylist::~QMediaPlaylist() 0x0000bdbf   Thumb Code     4  QtMultimediaKit.in(.text)
    QMediaPlaylist::mediaObject() const      0x0000bdc3   Thumb Code     6  QtMultimediaKit.in(.text)
    thunk{-8} to QMediaPlaylist::mediaObject() const 0x0000bdc9   Thumb Code     6  QtMultimediaKit.in(.text)
    QMediaPlaylist::nextIndex(int) const     0x0000bdcf   Thumb Code    10  QtMultimediaKit.in(.text)
    QMediaPlaylist::previousIndex(int) const 0x0000bdd9   Thumb Code    10  QtMultimediaKit.in(.text)
    QMediaPlaylist::media(int) const         0x0000bde3   Thumb Code    26  QtMultimediaKit.in(.text)
    QMediaPlaylist::mediaCount() const       0x0000bdfd   Thumb Code    16  QtMultimediaKit.in(.text)
    QMediaPlaylist::isEmpty() const          0x0000be0d   Thumb Code    18  QtMultimediaKit.in(.text)
    QMediaPlaylist::isReadOnly() const       0x0000be1f   Thumb Code    16  QtMultimediaKit.in(.text)
    QMediaPlaylist::addMedia(const QMediaContent&) 0x0000be2f   Thumb Code    24  QtMultimediaKit.in(.text)
    QMediaPlaylist::addMedia(const QList<QMediaContent>&) 0x0000be47   Thumb Code    24  QtMultimediaKit.in(.text)
    QMediaPlaylist::insertMedia(int, const QMediaContent&) 0x0000be5f   Thumb Code    24  QtMultimediaKit.in(.text)
    QMediaPlaylist::insertMedia(int, const QList<QMediaContent>&) 0x0000be77   Thumb Code    24  QtMultimediaKit.in(.text)
    QMediaPlaylist::removeMedia(int)         0x0000be8f   Thumb Code    20  QtMultimediaKit.in(.text)
    QMediaPlaylist::removeMedia(int, int)    0x0000bea3   Thumb Code    24  QtMultimediaKit.in(.text)
    QMediaPlaylist::clear()                  0x0000bebb   Thumb Code    16  QtMultimediaKit.in(.text)
    QMediaPlaylistPrivate::readItems(QMediaPlaylistReader*) 0x0000becb   Thumb Code    58  QtMultimediaKit.in(.text)
    QMediaPlaylist::load(const QUrl&, const char*) 0x0000bf05   Thumb Code   340  QtMultimediaKit.in(.text)
    QMediaPlaylist::load(QIODevice*, const char*) 0x0000c059   Thumb Code   432  QtMultimediaKit.in(.text)
    QMediaPlaylistPrivate::writeItems(QMediaPlaylistWriter*) 0x0000c209   Thumb Code    92  QtMultimediaKit.in(.text)
    QMediaPlaylist::save(QIODevice*, const char*) 0x0000c265   Thumb Code   288  QtMultimediaKit.in(.text)
    QMediaPlaylist::save(const QUrl&, const char*) 0x0000c385   Thumb Code   154  QtMultimediaKit.in(.text)
    QMediaPlaylist::error() const            0x0000c41f   Thumb Code     6  QtMultimediaKit.in(.text)
    QMediaPlaylist::errorString() const      0x0000c425   Thumb Code    12  QtMultimediaKit.in(.text)
    thunk{-8} to QMediaPlaylist::setMediaObject(QMediaObject*) 0x0000c431   Thumb Code    10  QtMultimediaKit.in(.text)
    QLocalMediaPlaylistControl::getStaticMetaObject() 0x0000c43b   Thumb Code     4  QtMultimediaKit.in(.text)
    QLocalMediaPlaylistControl::metaObject() const 0x0000c43f   Thumb Code    12  QtMultimediaKit.in(.text)
    QLocalMediaPlaylistControl::qt_metacast(const char*) 0x0000c44b   Thumb Code    40  QtMultimediaKit.in(.text)
    QLocalMediaPlaylistControl::qt_metacall(QMetaObject::Call, int, void**) 0x0000c473   Thumb Code     8  QtMultimediaKit.in(.text)
    QMediaPlaylistReader::~QMediaPlaylistReader() 0x0000c4c9   Thumb Code     0  QtMultimediaKit.in(.text)
    QMediaPlaylistReader::~QMediaPlaylistReader__sub_object() 0x0000c4c9   Thumb Code     2  QtMultimediaKit.in(.text)
    QMediaPlaylistReader::~QMediaPlaylistReader__deallocating() 0x0000c4cb   Thumb Code    12  QtMultimediaKit.in(.text)
    QMediaPlaylistWriter::~QMediaPlaylistWriter() 0x0000c4d7   Thumb Code     0  QtMultimediaKit.in(.text)
    QMediaPlaylistWriter::~QMediaPlaylistWriter__sub_object() 0x0000c4d7   Thumb Code     2  QtMultimediaKit.in(.text)
    QMediaPlaylistWriter::~QMediaPlaylistWriter__deallocating() 0x0000c4d9   Thumb Code    12  QtMultimediaKit.in(.text)
    QMediaPlaylistIOPlugin::getStaticMetaObject() 0x0000c4e5   Thumb Code     4  QtMultimediaKit.in(.text)
    QMediaPlaylistIOPlugin::metaObject() const 0x0000c4e9   Thumb Code    12  QtMultimediaKit.in(.text)
    QMediaPlaylistIOPlugin::qt_metacast(const char*) 0x0000c4f5   Thumb Code    84  QtMultimediaKit.in(.text)
    QMediaPlaylistIOPlugin::qt_metacall(QMetaObject::Call, int, void**) 0x0000c549   Thumb Code     8  QtMultimediaKit.in(.text)
    QMediaPlaylistIOPlugin::QMediaPlaylistIOPlugin__sub_object(QObject*) 0x0000c551   Thumb Code    16  QtMultimediaKit.in(.text)
    QMediaPlaylistIOPlugin::~QMediaPlaylistIOPlugin() 0x0000c561   Thumb Code     0  QtMultimediaKit.in(.text)
    QMediaPlaylistIOPlugin::~QMediaPlaylistIOPlugin__sub_object() 0x0000c561   Thumb Code     8  QtMultimediaKit.in(.text)
    QMediaPlaylistIOPlugin::~QMediaPlaylistIOPlugin__deallocating() 0x0000c569   Thumb Code    16  QtMultimediaKit.in(.text)
    thunk{-8} to QMediaPlaylistIOPlugin::~QMediaPlaylistIOPlugin__deallocating() 0x0000c579   Thumb Code     4  QtMultimediaKit.in(.text)
    thunk{-8} to QMediaPlaylistIOPlugin::~QMediaPlaylistIOPlugin() 0x0000c57d   Thumb Code     4  QtMultimediaKit.in(.text)
    QMediaPlaylistNavigator::getStaticMetaObject() 0x0000c669   Thumb Code     4  QtMultimediaKit.in(.text)
    QMediaPlaylistNavigator::metaObject() const 0x0000c66d   Thumb Code    12  QtMultimediaKit.in(.text)
    QMediaPlaylistNavigator::qt_metacast(const char*) 0x0000c679   Thumb Code    38  QtMultimediaKit.in(.text)
    QMediaPlaylistNavigator::activated(const QMediaContent&) 0x0000c69f   Thumb Code    22  QtMultimediaKit.in(.text)
    QMediaPlaylistNavigator::surroundingItemsChanged() 0x0000c6b5   Thumb Code    14  QtMultimediaKit.in(.text)
    QMediaPlaylistNavigator::currentIndexChanged(int) 0x0000c6c3   Thumb Code    30  QtMultimediaKit.in(.text)
    QMediaPlaylistNavigator::playbackMode() const 0x0000c6e1   Thumb Code     6  QtMultimediaKit.in(.text)
    QMediaPlaylistNavigator::jump(int)       0x0000c6e7   Thumb Code   280  QtMultimediaKit.in(.text)
    QMediaPlaylistNavigator::playbackModeChanged(QMediaPlaylist::PlaybackMode) 0x0000c7ff   Thumb Code    28  QtMultimediaKit.in(.text)
    QMediaPlaylistNavigator::setPlaybackMode(QMediaPlaylist::PlaybackMode) 0x0000c81b   Thumb Code    68  QtMultimediaKit.in(.text)
    QMediaPlaylistNavigator::itemAt(int) const 0x0000c85f   Thumb Code    10  QtMultimediaKit.in(.text)
    QMediaPlaylistNavigator::currentItem() const 0x0000c869   Thumb Code     6  QtMultimediaKit.in(.text)
    QMediaPlaylistNavigator::currentIndex() const 0x0000c86f   Thumb Code     6  QtMultimediaKit.in(.text)
    QMediaPlaylistNavigatorPrivate::_q_mediaChanged(int, int) 0x0000c875   Thumb Code    72  QtMultimediaKit.in(.text)
    QMediaPlaylistNavigatorPrivate::_q_mediaRemoved(int, int) 0x0000c8bd   Thumb Code    72  QtMultimediaKit.in(.text)
    QMediaPlaylistNavigatorPrivate::_q_mediaInserted(int, int) 0x0000c905   Thumb Code    30  QtMultimediaKit.in(.text)
    QMediaPlaylistNavigatorPrivate::previousItemPos(int) const 0x0000c923   Thumb Code   338  QtMultimediaKit.in(.text)
    QMediaPlaylistNavigator::previous()      0x0000ca75   Thumb Code    38  QtMultimediaKit.in(.text)
    QMediaPlaylistNavigatorPrivate::nextItemPos(int) const 0x0000ca9b   Thumb Code   216  QtMultimediaKit.in(.text)
    QMediaPlaylistNavigator::next()          0x0000cb73   Thumb Code    38  QtMultimediaKit.in(.text)
    QMediaPlaylistNavigator::qt_metacall(QMetaObject::Call, int, void**) 0x0000cb99   Thumb Code   292  QtMultimediaKit.in(.text)
    QMediaPlaylistNavigator::setPlaylist(QMediaPlaylistProvider*) 0x0000ccbd   Thumb Code   164  QtMultimediaKit.in(.text)
    QMediaPlaylistNavigator::QMediaPlaylistNavigator(QMediaPlaylistProvider*, QObject*) 0x0000cd61   Thumb Code   100  QtMultimediaKit.in(.text)
    QMediaPlaylistNavigator::QMediaPlaylistNavigator__sub_object(QMediaPlaylistProvider*, QObject*) 0x0000cd61   Thumb Code     0  QtMultimediaKit.in(.text)
    QMediaPlaylistNavigator::~QMediaPlaylistNavigator() 0x0000cdc5   Thumb Code    42  QtMultimediaKit.in(.text)
    QMediaPlaylistNavigator::~QMediaPlaylistNavigator__sub_object() 0x0000cdc5   Thumb Code     0  QtMultimediaKit.in(.text)
    QMediaPlaylistNavigator::~QMediaPlaylistNavigator__deallocating() 0x0000cdef   Thumb Code    16  QtMultimediaKit.in(.text)
    QMediaPlaylistNavigator::playlist() const 0x0000cdff   Thumb Code     6  QtMultimediaKit.in(.text)
    QMediaPlaylistNavigator::nextIndex(int) const 0x0000ce05   Thumb Code     4  QtMultimediaKit.in(.text)
    QMediaPlaylistNavigator::nextItem(int) const 0x0000ce09   Thumb Code    26  QtMultimediaKit.in(.text)
    QMediaPlaylistNavigator::previousIndex(int) const 0x0000ce23   Thumb Code    10  QtMultimediaKit.in(.text)
    QMediaPlaylistNavigator::previousItem(int) const 0x0000ce2d   Thumb Code    26  QtMultimediaKit.in(.text)
    QMediaPlaylistProvider::getStaticMetaObject() 0x0000cee9   Thumb Code     4  QtMultimediaKit.in(.text)
    QMediaPlaylistProvider::metaObject() const 0x0000ceed   Thumb Code    12  QtMultimediaKit.in(.text)
    QMediaPlaylistProvider::qt_metacast(const char*) 0x0000cef9   Thumb Code    40  QtMultimediaKit.in(.text)
    QMediaPlaylistProvider::loadFailed(QMediaPlaylist::Error, const QString&) 0x0000cf21   Thumb Code    36  QtMultimediaKit.in(.text)
    QMediaPlaylistProvider::loaded()         0x0000cf45   Thumb Code    14  QtMultimediaKit.in(.text)
    QMediaPlaylistProvider::mediaChanged(int, int) 0x0000cf53   Thumb Code    36  QtMultimediaKit.in(.text)
    QMediaPlaylistProvider::mediaRemoved(int, int) 0x0000cf77   Thumb Code    34  QtMultimediaKit.in(.text)
    QMediaPlaylistProvider::mediaAboutToBeRemoved(int, int) 0x0000cf99   Thumb Code    34  QtMultimediaKit.in(.text)
    QMediaPlaylistProvider::mediaInserted(int, int) 0x0000cfbb   Thumb Code    34  QtMultimediaKit.in(.text)
    QMediaPlaylistProvider::mediaAboutToBeInserted(int, int) 0x0000cfdd   Thumb Code    32  QtMultimediaKit.in(.text)
    QMediaPlaylistProvider::qt_metacall(QMetaObject::Call, int, void**) 0x0000cffd   Thumb Code   152  QtMultimediaKit.in(.text)
    QMediaPlaylistProvider::QMediaPlaylistProvider__sub_object(QObject*) 0x0000d095   Thumb Code    36  QtMultimediaKit.in(.text)
    QMediaPlaylistProvider::~QMediaPlaylistProvider() 0x0000d0b9   Thumb Code     0  QtMultimediaKit.in(.text)
    QMediaPlaylistProvider::~QMediaPlaylistProvider__sub_object() 0x0000d0b9   Thumb Code    28  QtMultimediaKit.in(.text)
    QMediaPlaylistProvider::~QMediaPlaylistProvider__deallocating() 0x0000d0d5   Thumb Code    16  QtMultimediaKit.in(.text)
    QMediaPlaylistProvider::load(const QUrl&, const char*) 0x0000d0e5   Thumb Code     4  QtMultimediaKit.in(.text)
    QMediaPlaylistProvider::load(QIODevice*, const char*) 0x0000d0e9   Thumb Code     4  QtMultimediaKit.in(.text)
    QMediaPlaylistProvider::save(const QUrl&, const char*) 0x0000d0ed   Thumb Code     4  QtMultimediaKit.in(.text)
    QMediaPlaylistProvider::save(QIODevice*, const char*) 0x0000d0f1   Thumb Code     4  QtMultimediaKit.in(.text)
    QMediaPlaylistProvider::isReadOnly() const 0x0000d0f5   Thumb Code     4  QtMultimediaKit.in(.text)
    QMediaPlaylistProvider::addMedia(const QMediaContent&) 0x0000d0f9   Thumb Code     4  QtMultimediaKit.in(.text)
    QMediaPlaylistProvider::addMedia(const QList<QMediaContent>&) 0x0000d0fd   Thumb Code   144  QtMultimediaKit.in(.text)
    QMediaPlaylistProvider::insertMedia(int, const QMediaContent&) 0x0000d18d   Thumb Code     4  QtMultimediaKit.in(.text)
    QMediaPlaylistProvider::insertMedia(int, const QList<QMediaContent>&) 0x0000d191   Thumb Code    58  QtMultimediaKit.in(.text)
    QMediaPlaylistProvider::removeMedia(int) 0x0000d1cb   Thumb Code     4  QtMultimediaKit.in(.text)
    QMediaPlaylistProvider::removeMedia(int, int) 0x0000d1cf   Thumb Code    36  QtMultimediaKit.in(.text)
    QMediaPlaylistProvider::clear()          0x0000d1f3   Thumb Code    26  QtMultimediaKit.in(.text)
    QMediaPlaylistProvider::shuffle()        0x0000d20d   Thumb Code     2  QtMultimediaKit.in(.text)
    QMediaPlaylistProvider::QMediaPlaylistProvider__sub_object(QMediaPlaylistProviderPrivate&, QObject*) 0x0000d20f   Thumb Code    18  QtMultimediaKit.in(.text)
    QMediaRecorder::getStaticMetaObject()    0x0000d22d   Thumb Code     4  QtMultimediaKit.in(.text)
    QMediaRecorder::metaObject() const       0x0000d231   Thumb Code    12  QtMultimediaKit.in(.text)
    QMediaRecorder::qt_metacast(const char*) 0x0000d23d   Thumb Code    70  QtMultimediaKit.in(.text)
    QMediaRecorder::setMuted(bool)           0x0000d283   Thumb Code    16  QtMultimediaKit.in(.text)
    QMediaRecorder::setOutputLocation(const QUrl&) 0x0000d293   Thumb Code    24  QtMultimediaKit.in(.text)
    QMediaRecorder::isMetaDataWritable() const 0x0000d2ab   Thumb Code    24  QtMultimediaKit.in(.text)
    QMediaRecorder::isMetaDataAvailable() const 0x0000d2c3   Thumb Code    24  QtMultimediaKit.in(.text)
    QMediaRecorder::isMuted() const          0x0000d2db   Thumb Code    28  QtMultimediaKit.in(.text)
    QMediaRecorder::outputLocation() const   0x0000d2f7   Thumb Code    68  QtMultimediaKit.in(.text)
    QMediaRecorder::duration() const         0x0000d33b   Thumb Code    20  QtMultimediaKit.in(.text)
    QMediaRecorderPrivate::_q_updateNotifyInterval(int) 0x0000d34f   Thumb Code    10  QtMultimediaKit.in(.text)
    QMediaRecorder::durationChanged(long long) 0x0000d359   Thumb Code    30  QtMultimediaKit.in(.text)
    QMediaRecorderPrivate::_q_notify()       0x0000d377   Thumb Code    22  QtMultimediaKit.in(.text)
    QMediaRecorderPrivate::_q_serviceDestroyed() 0x0000d38d   Thumb Code    10  QtMultimediaKit.in(.text)
    QMediaRecorder::error(QMediaRecorder::Error) 0x0000d397   Thumb Code    30  QtMultimediaKit.in(.text)
    QMediaRecorderPrivate::_q_error(int, const QString&) 0x0000d3b5   Thumb Code    26  QtMultimediaKit.in(.text)
    QMediaRecorder::stateChanged(QMediaRecorder::State) 0x0000d3cf   Thumb Code    26  QtMultimediaKit.in(.text)
    QMediaRecorderPrivate::_q_stateChanged(QMediaRecorder::State) 0x0000d3e9   Thumb Code    42  QtMultimediaKit.in(.text)
    QMediaRecorder::stop()                   0x0000d413   Thumb Code    16  QtMultimediaKit.in(.text)
    QMediaRecorder::pause()                  0x0000d423   Thumb Code    16  QtMultimediaKit.in(.text)
    QMediaRecorder::record()                 0x0000d433   Thumb Code    44  QtMultimediaKit.in(.text)
    QMediaRecorder::metaDataChanged()        0x0000d45f   Thumb Code    14  QtMultimediaKit.in(.text)
    QMediaRecorder::metaDataWritableChanged(bool) 0x0000d46d   Thumb Code    28  QtMultimediaKit.in(.text)
    QMediaRecorder::metaDataAvailableChanged(bool) 0x0000d489   Thumb Code    28  QtMultimediaKit.in(.text)
    QMediaRecorder::mutedChanged(bool)       0x0000d4a5   Thumb Code    28  QtMultimediaKit.in(.text)
    QMediaRecorder::qt_metacall(QMetaObject::Call, int, void**) 0x0000d4c1   Thumb Code   434  QtMultimediaKit.in(.text)
    QMediaRecorder::setMediaObject(QMediaObject*) 0x0000d673   Thumb Code  1038  QtMultimediaKit.in(.text)
    QMediaRecorderPrivate::QMediaRecorderPrivate() 0x0000da81   Thumb Code    32  QtMultimediaKit.in(.text)
    QMediaRecorderPrivate::QMediaRecorderPrivate__sub_object() 0x0000da81   Thumb Code     0  QtMultimediaKit.in(.text)
    QMediaRecorder::QMediaRecorder(QMediaObject*, QObject*) 0x0000daa1   Thumb Code   128  QtMultimediaKit.in(.text)
    QMediaRecorder::QMediaRecorder__sub_object(QMediaObject*, QObject*) 0x0000daa1   Thumb Code     0  QtMultimediaKit.in(.text)
    QMediaRecorder::~QMediaRecorder()        0x0000db21   Thumb Code    18  QtMultimediaKit.in(.text)
    QMediaRecorder::~QMediaRecorder__sub_object() 0x0000db21   Thumb Code     0  QtMultimediaKit.in(.text)
    QMediaRecorder::~QMediaRecorder__deallocating() 0x0000db33   Thumb Code    16  QtMultimediaKit.in(.text)
    thunk{-8} to QMediaRecorder::~QMediaRecorder__deallocating() 0x0000db43   Thumb Code     4  QtMultimediaKit.in(.text)
    thunk{-8} to QMediaRecorder::~QMediaRecorder() 0x0000db47   Thumb Code     4  QtMultimediaKit.in(.text)
    QMediaRecorder::mediaObject() const      0x0000db4b   Thumb Code     6  QtMultimediaKit.in(.text)
    thunk{-8} to QMediaRecorder::mediaObject() const 0x0000db51   Thumb Code     6  QtMultimediaKit.in(.text)
    QMediaRecorder::isAvailable() const      0x0000db57   Thumb Code    16  QtMultimediaKit.in(.text)
    QMediaRecorder::availabilityError() const 0x0000db67   Thumb Code    16  QtMultimediaKit.in(.text)
    QMediaRecorder::state() const            0x0000db77   Thumb Code    18  QtMultimediaKit.in(.text)
    QMediaRecorder::error() const            0x0000db89   Thumb Code     6  QtMultimediaKit.in(.text)
    QMediaRecorder::errorString() const      0x0000db8f   Thumb Code    12  QtMultimediaKit.in(.text)
    QMediaRecorder::supportedContainers() const 0x0000db9b   Thumb Code    68  QtMultimediaKit.in(.text)
    QMediaRecorder::containerDescription(const QString&) const 0x0000dbdf   Thumb Code    68  QtMultimediaKit.in(.text)
    QMediaRecorder::supportedAudioCodecs() const 0x0000dc23   Thumb Code    68  QtMultimediaKit.in(.text)
    QMediaRecorder::audioCodecDescription(const QString&) const 0x0000dc67   Thumb Code    68  QtMultimediaKit.in(.text)
    QMediaRecorder::supportedAudioSampleRates(const QAudioEncoderSettings&, bool*) const 0x0000dcab   Thumb Code    96  QtMultimediaKit.in(.text)
    QMediaRecorder::supportedVideoCodecs() const 0x0000dd0b   Thumb Code    68  QtMultimediaKit.in(.text)
    QMediaRecorder::videoCodecDescription(const QString&) const 0x0000dd4f   Thumb Code    68  QtMultimediaKit.in(.text)
    QMediaRecorder::supportedResolutions(const QVideoEncoderSettings&, bool*) const 0x0000dd93   Thumb Code   242  QtMultimediaKit.in(.text)
    QMediaRecorder::supportedFrameRates(const QVideoEncoderSettings&, bool*) const 0x0000de85   Thumb Code    96  QtMultimediaKit.in(.text)
    QMediaRecorder::audioSettings() const    0x0000dee5   Thumb Code    68  QtMultimediaKit.in(.text)
    QMediaRecorder::videoSettings() const    0x0000df29   Thumb Code    68  QtMultimediaKit.in(.text)
    QMediaRecorder::containerMimeType() const 0x0000df6d   Thumb Code    68  QtMultimediaKit.in(.text)
    QMediaRecorder::setEncodingSettings(const QAudioEncoderSettings&, const QVideoEncoderSettings&, const QString&) 0x0000dfb1   Thumb Code   160  QtMultimediaKit.in(.text)
    QMediaRecorder::metaData(QtMultimediaKit::MetaData) const 0x0000e051   Thumb Code    72  QtMultimediaKit.in(.text)
    QMediaRecorder::setMetaData(QtMultimediaKit::MetaData, const QVariant&) 0x0000e099   Thumb Code    16  QtMultimediaKit.in(.text)
    QMediaRecorder::availableMetaData() const 0x0000e0a9   Thumb Code    88  QtMultimediaKit.in(.text)
    QMediaRecorder::extendedMetaData(const QString&) const 0x0000e101   Thumb Code    70  QtMultimediaKit.in(.text)
    QMediaRecorder::setExtendedMetaData(const QString&, const QVariant&) 0x0000e147   Thumb Code    16  QtMultimediaKit.in(.text)
    QMediaRecorder::availableExtendedMetaData() const 0x0000e157   Thumb Code    68  QtMultimediaKit.in(.text)
    thunk{-8} to QMediaRecorder::setMediaObject(QMediaObject*) 0x0000e19b   Thumb Code    10  QtMultimediaKit.in(.text)
    QAudioEncoderSettings::QAudioEncoderSettings() 0x0000e211   Thumb Code    74  QtMultimediaKit.in(.text)
    QAudioEncoderSettings::QAudioEncoderSettings__sub_object() 0x0000e211   Thumb Code     0  QtMultimediaKit.in(.text)
    QAudioEncoderSettings::QAudioEncoderSettings(const QAudioEncoderSettings&) 0x0000e25b   Thumb Code    20  QtMultimediaKit.in(.text)
    QAudioEncoderSettings::QAudioEncoderSettings__sub_object(const QAudioEncoderSettings&) 0x0000e25b   Thumb Code     0  QtMultimediaKit.in(.text)
    QAudioEncoderSettings::~QAudioEncoderSettings() 0x0000e26f   Thumb Code     8  QtMultimediaKit.in(.text)
    QAudioEncoderSettings::~QAudioEncoderSettings__sub_object() 0x0000e26f   Thumb Code     0  QtMultimediaKit.in(.text)
    QAudioEncoderSettings::operator =(const QAudioEncoderSettings&) 0x0000e277   Thumb Code    56  QtMultimediaKit.in(.text)
    QAudioEncoderSettings::operator ==(const QAudioEncoderSettings&) const 0x0000e2af   Thumb Code    78  QtMultimediaKit.in(.text)
    QAudioEncoderSettings::operator !=(const QAudioEncoderSettings&) const 0x0000e2fd   Thumb Code    12  QtMultimediaKit.in(.text)
    QAudioEncoderSettings::isNull() const    0x0000e309   Thumb Code     6  QtMultimediaKit.in(.text)
    QAudioEncoderSettings::encodingMode() const 0x0000e30f   Thumb Code     6  QtMultimediaKit.in(.text)
    QAudioEncoderSettings::setEncodingMode(QtMultimediaKit::EncodingMode) 0x0000e315   Thumb Code    12  QtMultimediaKit.in(.text)
    QAudioEncoderSettings::codec() const     0x0000e321   Thumb Code    12  QtMultimediaKit.in(.text)
    QAudioEncoderSettings::setCodec(const QString&) 0x0000e32d   Thumb Code    30  QtMultimediaKit.in(.text)
    QAudioEncoderSettings::bitRate() const   0x0000e34b   Thumb Code     6  QtMultimediaKit.in(.text)
    QAudioEncoderSettings::setBitRate(int)   0x0000e351   Thumb Code    24  QtMultimediaKit.in(.text)
    QAudioEncoderSettings::channelCount() const 0x0000e369   Thumb Code     6  QtMultimediaKit.in(.text)
    QAudioEncoderSettings::setChannelCount(int) 0x0000e36f   Thumb Code    24  QtMultimediaKit.in(.text)
    QAudioEncoderSettings::sampleRate() const 0x0000e387   Thumb Code     6  QtMultimediaKit.in(.text)
    QAudioEncoderSettings::setSampleRate(int) 0x0000e38d   Thumb Code    24  QtMultimediaKit.in(.text)
    QAudioEncoderSettings::quality() const   0x0000e3a5   Thumb Code     6  QtMultimediaKit.in(.text)
    QAudioEncoderSettings::setQuality(QtMultimediaKit::EncodingQuality) 0x0000e3ab   Thumb Code    24  QtMultimediaKit.in(.text)
    QVideoEncoderSettings::QVideoEncoderSettings() 0x0000e3c3   Thumb Code    82  QtMultimediaKit.in(.text)
    QVideoEncoderSettings::QVideoEncoderSettings__sub_object() 0x0000e3c3   Thumb Code     0  QtMultimediaKit.in(.text)
    QVideoEncoderSettings::QVideoEncoderSettings(const QVideoEncoderSettings&) 0x0000e415   Thumb Code    20  QtMultimediaKit.in(.text)
    QVideoEncoderSettings::QVideoEncoderSettings__sub_object(const QVideoEncoderSettings&) 0x0000e415   Thumb Code     0  QtMultimediaKit.in(.text)
    QVideoEncoderSettings::~QVideoEncoderSettings() 0x0000e429   Thumb Code     8  QtMultimediaKit.in(.text)
    QVideoEncoderSettings::~QVideoEncoderSettings__sub_object() 0x0000e429   Thumb Code     0  QtMultimediaKit.in(.text)
    QVideoEncoderSettings::operator =(const QVideoEncoderSettings&) 0x0000e431   Thumb Code    56  QtMultimediaKit.in(.text)
    QVideoEncoderSettings::operator ==(const QVideoEncoderSettings&) const 0x0000e469   Thumb Code   174  QtMultimediaKit.in(.text)
    QVideoEncoderSettings::operator !=(const QVideoEncoderSettings&) const 0x0000e517   Thumb Code    12  QtMultimediaKit.in(.text)
    QVideoEncoderSettings::isNull() const    0x0000e523   Thumb Code     6  QtMultimediaKit.in(.text)
    QVideoEncoderSettings::encodingMode() const 0x0000e529   Thumb Code     6  QtMultimediaKit.in(.text)
    QVideoEncoderSettings::setEncodingMode(QtMultimediaKit::EncodingMode) 0x0000e52f   Thumb Code    24  QtMultimediaKit.in(.text)
    QVideoEncoderSettings::codec() const     0x0000e547   Thumb Code    12  QtMultimediaKit.in(.text)
    QVideoEncoderSettings::setCodec(const QString&) 0x0000e553   Thumb Code    30  QtMultimediaKit.in(.text)
    QVideoEncoderSettings::resolution() const 0x0000e571   Thumb Code    10  QtMultimediaKit.in(.text)
    QVideoEncoderSettings::setResolution(const QSize&) 0x0000e57b   Thumb Code    28  QtMultimediaKit.in(.text)
    QVideoEncoderSettings::setResolution(int, int) 0x0000e597   Thumb Code    28  QtMultimediaKit.in(.text)
    QVideoEncoderSettings::frameRate() const 0x0000e5b3   Thumb Code     6  QtMultimediaKit.in(.text)
    QVideoEncoderSettings::setFrameRate(float) 0x0000e5b9   Thumb Code    24  QtMultimediaKit.in(.text)
    QVideoEncoderSettings::bitRate() const   0x0000e5d1   Thumb Code     6  QtMultimediaKit.in(.text)
    QVideoEncoderSettings::setBitRate(int)   0x0000e5d7   Thumb Code    24  QtMultimediaKit.in(.text)
    QVideoEncoderSettings::quality() const   0x0000e5ef   Thumb Code     6  QtMultimediaKit.in(.text)
    QVideoEncoderSettings::setQuality(QtMultimediaKit::EncodingQuality) 0x0000e5f5   Thumb Code    24  QtMultimediaKit.in(.text)
    QImageEncoderSettings::QImageEncoderSettings() 0x0000e60d   Thumb Code    70  QtMultimediaKit.in(.text)
    QImageEncoderSettings::QImageEncoderSettings__sub_object() 0x0000e60d   Thumb Code     0  QtMultimediaKit.in(.text)
    QImageEncoderSettings::QImageEncoderSettings(const QImageEncoderSettings&) 0x0000e653   Thumb Code    20  QtMultimediaKit.in(.text)
    QImageEncoderSettings::QImageEncoderSettings__sub_object(const QImageEncoderSettings&) 0x0000e653   Thumb Code     0  QtMultimediaKit.in(.text)
    QImageEncoderSettings::~QImageEncoderSettings() 0x0000e667   Thumb Code     8  QtMultimediaKit.in(.text)
    QImageEncoderSettings::~QImageEncoderSettings__sub_object() 0x0000e667   Thumb Code     0  QtMultimediaKit.in(.text)
    QImageEncoderSettings::operator =(const QImageEncoderSettings&) 0x0000e66f   Thumb Code    56  QtMultimediaKit.in(.text)
    QImageEncoderSettings::operator ==(const QImageEncoderSettings&) const 0x0000e6a7   Thumb Code    66  QtMultimediaKit.in(.text)
    QImageEncoderSettings::operator !=(const QImageEncoderSettings&) const 0x0000e6e9   Thumb Code    12  QtMultimediaKit.in(.text)
    QImageEncoderSettings::isNull() const    0x0000e6f5   Thumb Code     6  QtMultimediaKit.in(.text)
    QImageEncoderSettings::codec() const     0x0000e6fb   Thumb Code    12  QtMultimediaKit.in(.text)
    QImageEncoderSettings::setCodec(const QString&) 0x0000e707   Thumb Code    30  QtMultimediaKit.in(.text)
    QImageEncoderSettings::resolution() const 0x0000e725   Thumb Code    10  QtMultimediaKit.in(.text)
    QImageEncoderSettings::setResolution(const QSize&) 0x0000e72f   Thumb Code    28  QtMultimediaKit.in(.text)
    QImageEncoderSettings::setResolution(int, int) 0x0000e74b   Thumb Code    28  QtMultimediaKit.in(.text)
    QImageEncoderSettings::quality() const   0x0000e767   Thumb Code     6  QtMultimediaKit.in(.text)
    QImageEncoderSettings::setQuality(QtMultimediaKit::EncodingQuality) 0x0000e76d   Thumb Code    24  QtMultimediaKit.in(.text)
    QMediaRecorderControl::getStaticMetaObject() 0x0000e789   Thumb Code     4  QtMultimediaKit.in(.text)
    QMediaRecorderControl::metaObject() const 0x0000e78d   Thumb Code    12  QtMultimediaKit.in(.text)
    QMediaRecorderControl::qt_metacast(const char*) 0x0000e799   Thumb Code    40  QtMultimediaKit.in(.text)
    QMediaRecorderControl::error(int, const QString&) 0x0000e7c1   Thumb Code    36  QtMultimediaKit.in(.text)
    QMediaRecorderControl::mutedChanged(bool) 0x0000e7e5   Thumb Code    30  QtMultimediaKit.in(.text)
    QMediaRecorderControl::durationChanged(long long) 0x0000e803   Thumb Code    30  QtMultimediaKit.in(.text)
    QMediaRecorderControl::stateChanged(QMediaRecorder::State) 0x0000e821   Thumb Code    26  QtMultimediaKit.in(.text)
    QMediaRecorderControl::qt_metacall(QMetaObject::Call, int, void**) 0x0000e83b   Thumb Code   126  QtMultimediaKit.in(.text)
    QMediaRecorderControl::~QMediaRecorderControl() 0x0000e8b9   Thumb Code     0  QtMultimediaKit.in(.text)
    QMediaRecorderControl::~QMediaRecorderControl__sub_object() 0x0000e8b9   Thumb Code     8  QtMultimediaKit.in(.text)
    QMediaRecorderControl::~QMediaRecorderControl__deallocating() 0x0000e8c1   Thumb Code    16  QtMultimediaKit.in(.text)
    QMediaRecorderControl::QMediaRecorderControl__sub_object(QObject*) 0x0000e8d1   Thumb Code    12  QtMultimediaKit.in(.text)
    QMediaContent::QMediaContent()           0x0000e8e5   Thumb Code     6  QtMultimediaKit.in(.text)
    QMediaContent::QMediaContent__sub_object() 0x0000e8e5   Thumb Code     0  QtMultimediaKit.in(.text)
    QMediaContent::QMediaContent(const QUrl&) 0x0000e8eb   Thumb Code    90  QtMultimediaKit.in(.text)
    QMediaContent::QMediaContent__sub_object(const QUrl&) 0x0000e8eb   Thumb Code     0  QtMultimediaKit.in(.text)
    QMediaContent::QMediaContent(const QNetworkRequest&) 0x0000e945   Thumb Code    90  QtMultimediaKit.in(.text)
    QMediaContent::QMediaContent__sub_object(const QNetworkRequest&) 0x0000e945   Thumb Code     0  QtMultimediaKit.in(.text)
    QMediaContent::QMediaContent(const QMediaResource&) 0x0000e99f   Thumb Code    60  QtMultimediaKit.in(.text)
    QMediaContent::QMediaContent__sub_object(const QMediaResource&) 0x0000e99f   Thumb Code     0  QtMultimediaKit.in(.text)
    QMediaContent::QMediaContent(const QList<QMediaResource>&) 0x0000e9db   Thumb Code    52  QtMultimediaKit.in(.text)
    QMediaContent::QMediaContent__sub_object(const QList<QMediaResource>&) 0x0000e9db   Thumb Code     0  QtMultimediaKit.in(.text)
    QMediaContent::QMediaContent(const QMediaContent&) 0x0000ea0f   Thumb Code    20  QtMultimediaKit.in(.text)
    QMediaContent::QMediaContent__sub_object(const QMediaContent&) 0x0000ea0f   Thumb Code     0  QtMultimediaKit.in(.text)
    QMediaContent::~QMediaContent()          0x0000ea23   Thumb Code     8  QtMultimediaKit.in(.text)
    QMediaContent::~QMediaContent__sub_object() 0x0000ea23   Thumb Code     0  QtMultimediaKit.in(.text)
    QMediaContent::operator =(const QMediaContent&) 0x0000ea2b   Thumb Code    56  QtMultimediaKit.in(.text)
    QMediaContent::operator ==(const QMediaContent&) const 0x0000ea63   Thumb Code   118  QtMultimediaKit.in(.text)
    QMediaContent::operator !=(const QMediaContent&) const 0x0000ead9   Thumb Code    12  QtMultimediaKit.in(.text)
    QMediaContent::isNull() const            0x0000eae5   Thumb Code    14  QtMultimediaKit.in(.text)
    QMediaContent::canonicalResource() const 0x0000eaf3   Thumb Code    88  QtMultimediaKit.in(.text)
    QMediaContent::canonicalUrl() const      0x0000eb4b   Thumb Code    26  QtMultimediaKit.in(.text)
    QMediaContent::canonicalRequest() const  0x0000eb65   Thumb Code    26  QtMultimediaKit.in(.text)
    QMediaContent::resources() const         0x0000eb7f   Thumb Code    44  QtMultimediaKit.in(.text)
    QMediaResource::QMediaResource()         0x0000ebab   Thumb Code     8  QtMultimediaKit.in(.text)
    QMediaResource::QMediaResource__sub_object() 0x0000ebab   Thumb Code     0  QtMultimediaKit.in(.text)
    QMediaResource::QMediaResource(const QUrl&, const QString&) 0x0000ebb3   Thumb Code    76  QtMultimediaKit.in(.text)
    QMediaResource::QMediaResource__sub_object(const QUrl&, const QString&) 0x0000ebb3   Thumb Code     0  QtMultimediaKit.in(.text)
    QMediaResource::QMediaResource(const QNetworkRequest&, const QString&) 0x0000ebff   Thumb Code   128  QtMultimediaKit.in(.text)
    QMediaResource::QMediaResource__sub_object(const QNetworkRequest&, const QString&) 0x0000ebff   Thumb Code     0  QtMultimediaKit.in(.text)
    QMediaResource::QMediaResource(const QMediaResource&) 0x0000ec7f   Thumb Code    32  QtMultimediaKit.in(.text)
    QMediaResource::QMediaResource__sub_object(const QMediaResource&) 0x0000ec7f   Thumb Code     0  QtMultimediaKit.in(.text)
    QMediaResource::operator =(const QMediaResource&) 0x0000ec9f   Thumb Code    58  QtMultimediaKit.in(.text)
    QMediaResource::~QMediaResource()        0x0000ecd9   Thumb Code     8  QtMultimediaKit.in(.text)
    QMediaResource::~QMediaResource__sub_object() 0x0000ecd9   Thumb Code     0  QtMultimediaKit.in(.text)
    QMediaResource::isNull() const           0x0000ece1   Thumb Code    16  QtMultimediaKit.in(.text)
    QMediaResource::url() const              0x0000ecf1   Thumb Code   104  QtMultimediaKit.in(.text)
    QMediaResource::request() const          0x0000ed59   Thumb Code    90  QtMultimediaKit.in(.text)
    QMediaResource::operator ==(const QMediaResource&) const 0x0000edb3   Thumb Code   252  QtMultimediaKit.in(.text)
    QMediaResource::operator !=(const QMediaResource&) const 0x0000eeaf   Thumb Code    12  QtMultimediaKit.in(.text)
    QMediaResource::mimeType() const         0x0000eebb   Thumb Code    36  QtMultimediaKit.in(.text)
    QMediaResource::language() const         0x0000eedf   Thumb Code    34  QtMultimediaKit.in(.text)
    QMediaResource::setLanguage(const QString&) 0x0000ef01   Thumb Code    62  QtMultimediaKit.in(.text)
    QMediaResource::audioCodec() const       0x0000ef3f   Thumb Code    34  QtMultimediaKit.in(.text)
    QMediaResource::setAudioCodec(const QString&) 0x0000ef61   Thumb Code    60  QtMultimediaKit.in(.text)
    QMediaResource::videoCodec() const       0x0000ef9d   Thumb Code    34  QtMultimediaKit.in(.text)
    QMediaResource::setVideoCodec(const QString&) 0x0000efbf   Thumb Code    60  QtMultimediaKit.in(.text)
    QMediaResource::dataSize() const         0x0000effb   Thumb Code    78  QtMultimediaKit.in(.text)
    QMediaResource::setDataSize(long long)   0x0000f049   Thumb Code    68  QtMultimediaKit.in(.text)
    QMediaResource::audioBitRate() const     0x0000f08d   Thumb Code    38  QtMultimediaKit.in(.text)
    QMediaResource::setAudioBitRate(int)     0x0000f0b3   Thumb Code    52  QtMultimediaKit.in(.text)
    QMediaResource::sampleRate() const       0x0000f0e7   Thumb Code    36  QtMultimediaKit.in(.text)
    QMediaResource::setSampleRate(int)       0x0000f10b   Thumb Code    50  QtMultimediaKit.in(.text)
    QMediaResource::channelCount() const     0x0000f13d   Thumb Code    36  QtMultimediaKit.in(.text)
    QMediaResource::setChannelCount(int)     0x0000f161   Thumb Code    50  QtMultimediaKit.in(.text)
    QMediaResource::videoBitRate() const     0x0000f193   Thumb Code    38  QtMultimediaKit.in(.text)
    QMediaResource::setVideoBitRate(int)     0x0000f1b9   Thumb Code    50  QtMultimediaKit.in(.text)
    QMediaResource::resolution() const       0x0000f1eb   Thumb Code    80  QtMultimediaKit.in(.text)
    QMediaResource::setResolution(const QSize&) 0x0000f23b   Thumb Code    58  QtMultimediaKit.in(.text)
    QMediaResource::setResolution(int, int)  0x0000f275   Thumb Code    60  QtMultimediaKit.in(.text)
    QMediaServiceProviderHint::QMediaServiceProviderHint() 0x0000f3d7   Thumb Code    44  QtMultimediaKit.in(.text)
    QMediaServiceProviderHint::QMediaServiceProviderHint__sub_object() 0x0000f3d7   Thumb Code     0  QtMultimediaKit.in(.text)
    QMediaServiceProviderHint::QMediaServiceProviderHint(const QString&, const QStringList&) 0x0000f403   Thumb Code    76  QtMultimediaKit.in(.text)
    QMediaServiceProviderHint::QMediaServiceProviderHint__sub_object(const QString&, const QStringList&) 0x0000f403   Thumb Code     0  QtMultimediaKit.in(.text)
    QMediaServiceProviderHint::QMediaServiceProviderHint(const QByteArray&) 0x0000f44f   Thumb Code    62  QtMultimediaKit.in(.text)
    QMediaServiceProviderHint::QMediaServiceProviderHint__sub_object(const QByteArray&) 0x0000f44f   Thumb Code     0  QtMultimediaKit.in(.text)
    QMediaServiceProviderHint::QMediaServiceProviderHint(QFlags<QMediaServiceProviderHint::Feature>) 0x0000f48d   Thumb Code    58  QtMultimediaKit.in(.text)
    QMediaServiceProviderHint::QMediaServiceProviderHint__sub_object(QFlags<QMediaServiceProviderHint::Feature>) 0x0000f48d   Thumb Code     0  QtMultimediaKit.in(.text)
    QMediaServiceProviderHint::QMediaServiceProviderHint(const QMediaServiceProviderHint&) 0x0000f4c7   Thumb Code    20  QtMultimediaKit.in(.text)
    QMediaServiceProviderHint::QMediaServiceProviderHint__sub_object(const QMediaServiceProviderHint&) 0x0000f4c7   Thumb Code     0  QtMultimediaKit.in(.text)
    QMediaServiceProviderHint::~QMediaServiceProviderHint() 0x0000f4db   Thumb Code     8  QtMultimediaKit.in(.text)
    QMediaServiceProviderHint::~QMediaServiceProviderHint__sub_object() 0x0000f4db   Thumb Code     0  QtMultimediaKit.in(.text)
    QMediaServiceProviderHint::operator =(const QMediaServiceProviderHint&) 0x0000f4e3   Thumb Code    56  QtMultimediaKit.in(.text)
    QMediaServiceProviderHint::operator ==(const QMediaServiceProviderHint&) const 0x0000f51b   Thumb Code   154  QtMultimediaKit.in(.text)
    QMediaServiceProviderHint::operator !=(const QMediaServiceProviderHint&) const 0x0000f5b5   Thumb Code    12  QtMultimediaKit.in(.text)
    QMediaServiceProviderHint::isNull() const 0x0000f5c1   Thumb Code    16  QtMultimediaKit.in(.text)
    QMediaServiceProviderHint::type() const  0x0000f5d1   Thumb Code     6  QtMultimediaKit.in(.text)
    QMediaServiceProviderHint::mimeType() const 0x0000f5d7   Thumb Code    12  QtMultimediaKit.in(.text)
    QMediaServiceProviderHint::codecs() const 0x0000f5e3   Thumb Code    12  QtMultimediaKit.in(.text)
    QMediaServiceProviderHint::device() const 0x0000f5ef   Thumb Code    12  QtMultimediaKit.in(.text)
    QMediaServiceProviderHint::features() const 0x0000f5fb   Thumb Code     8  QtMultimediaKit.in(.text)
    QMediaServiceProvider::getStaticMetaObject() 0x0000f603   Thumb Code     4  QtMultimediaKit.in(.text)
    QMediaServiceProvider::metaObject() const 0x0000f607   Thumb Code    12  QtMultimediaKit.in(.text)
    QMediaServiceProvider::qt_metacast(const char*) 0x0000f613   Thumb Code    40  QtMultimediaKit.in(.text)
    QMediaServiceProvider::qt_metacall(QMetaObject::Call, int, void**) 0x0000f63b   Thumb Code     8  QtMultimediaKit.in(.text)
    QMediaServiceProvider::hasSupport(const QByteArray&, const QString&, const QStringList&, int) const 0x0000f643   Thumb Code     4  QtMultimediaKit.in(.text)
    QMediaServiceProvider::supportedMimeTypes(const QByteArray&, int) const 0x0000f647   Thumb Code   110  QtMultimediaKit.in(.text)
    QMediaServiceProvider::devices(const QByteArray&) const 0x0000f6b5   Thumb Code     8  QtMultimediaKit.in(.text)
    QMediaServiceProvider::deviceDescription(const QByteArray&, const QByteArray&) 0x0000f6bd   Thumb Code     8  QtMultimediaKit.in(.text)
    QMediaServiceProvider::defaultServiceProvider() 0x0000f6c5   Thumb Code     2  QtMultimediaKit.in(.text)
    QMediaServiceProviderPlugin::getStaticMetaObject() 0x0000f6c7   Thumb Code     4  QtMultimediaKit.in(.text)
    QMediaServiceProviderPlugin::metaObject() const 0x0000f6cb   Thumb Code    12  QtMultimediaKit.in(.text)
    QMediaServiceProviderPlugin::qt_metacast(const char*) 0x0000f6d7   Thumb Code    84  QtMultimediaKit.in(.text)
    QMediaServiceProviderPlugin::qt_metacall(QMetaObject::Call, int, void**) 0x0000f72b   Thumb Code     8  QtMultimediaKit.in(.text)
    QMetaDataReaderControl::getStaticMetaObject() 0x0000f789   Thumb Code     4  QtMultimediaKit.in(.text)
    QMetaDataReaderControl::metaObject() const 0x0000f78d   Thumb Code    12  QtMultimediaKit.in(.text)
    QMetaDataReaderControl::qt_metacast(const char*) 0x0000f799   Thumb Code    40  QtMultimediaKit.in(.text)
    QMetaDataReaderControl::metaDataAvailableChanged(bool) 0x0000f7c1   Thumb Code    30  QtMultimediaKit.in(.text)
    QMetaDataReaderControl::metaDataChanged() 0x0000f7df   Thumb Code    14  QtMultimediaKit.in(.text)
    QMetaDataReaderControl::qt_metacall(QMetaObject::Call, int, void**) 0x0000f7ed   Thumb Code    52  QtMultimediaKit.in(.text)
    QMetaDataReaderControl::~QMetaDataReaderControl() 0x0000f821   Thumb Code     0  QtMultimediaKit.in(.text)
    QMetaDataReaderControl::~QMetaDataReaderControl__sub_object() 0x0000f821   Thumb Code     8  QtMultimediaKit.in(.text)
    QMetaDataReaderControl::~QMetaDataReaderControl__deallocating() 0x0000f829   Thumb Code    16  QtMultimediaKit.in(.text)
    QMetaDataReaderControl::QMetaDataReaderControl__sub_object(QObject*) 0x0000f839   Thumb Code    40  QtMultimediaKit.in(.text)
    QMetaDataWriterControl::getStaticMetaObject() 0x0000f86d   Thumb Code     4  QtMultimediaKit.in(.text)
    QMetaDataWriterControl::metaObject() const 0x0000f871   Thumb Code    12  QtMultimediaKit.in(.text)
    QMetaDataWriterControl::qt_metacast(const char*) 0x0000f87d   Thumb Code    40  QtMultimediaKit.in(.text)
    QMetaDataWriterControl::metaDataAvailableChanged(bool) 0x0000f8a5   Thumb Code    30  QtMultimediaKit.in(.text)
    QMetaDataWriterControl::writableChanged(bool) 0x0000f8c3   Thumb Code    28  QtMultimediaKit.in(.text)
    QMetaDataWriterControl::metaDataChanged() 0x0000f8df   Thumb Code    14  QtMultimediaKit.in(.text)
    QMetaDataWriterControl::qt_metacall(QMetaObject::Call, int, void**) 0x0000f8ed   Thumb Code    68  QtMultimediaKit.in(.text)
    QMetaDataWriterControl::~QMetaDataWriterControl() 0x0000f931   Thumb Code     0  QtMultimediaKit.in(.text)
    QMetaDataWriterControl::~QMetaDataWriterControl__sub_object() 0x0000f931   Thumb Code     8  QtMultimediaKit.in(.text)
    QMetaDataWriterControl::~QMetaDataWriterControl__deallocating() 0x0000f939   Thumb Code    16  QtMultimediaKit.in(.text)
    QMetaDataWriterControl::QMetaDataWriterControl__sub_object(QObject*) 0x0000f949   Thumb Code    40  QtMultimediaKit.in(.text)
    QMediaStreamsControl::getStaticMetaObject() 0x0000f97d   Thumb Code     4  QtMultimediaKit.in(.text)
    QMediaStreamsControl::metaObject() const 0x0000f981   Thumb Code    12  QtMultimediaKit.in(.text)
    QMediaStreamsControl::qt_metacast(const char*) 0x0000f98d   Thumb Code    40  QtMultimediaKit.in(.text)
    QMediaStreamsControl::activeStreamsChanged() 0x0000f9b5   Thumb Code    14  QtMultimediaKit.in(.text)
    QMediaStreamsControl::streamsChanged()   0x0000f9c3   Thumb Code    14  QtMultimediaKit.in(.text)
    QMediaStreamsControl::qt_metacall(QMetaObject::Call, int, void**) 0x0000f9d1   Thumb Code    46  QtMultimediaKit.in(.text)
    QMediaStreamsControl::~QMediaStreamsControl() 0x0000f9ff   Thumb Code     0  QtMultimediaKit.in(.text)
    QMediaStreamsControl::~QMediaStreamsControl__sub_object() 0x0000f9ff   Thumb Code     8  QtMultimediaKit.in(.text)
    QMediaStreamsControl::~QMediaStreamsControl__deallocating() 0x0000fa07   Thumb Code    16  QtMultimediaKit.in(.text)
    QMediaStreamsControl::QMediaStreamsControl__sub_object(QObject*) 0x0000fa17   Thumb Code    40  QtMultimediaKit.in(.text)
    QRadioTuner::getStaticMetaObject()       0x0000fa4d   Thumb Code     4  QtMultimediaKit.in(.text)
    QRadioTuner::metaObject() const          0x0000fa51   Thumb Code    12  QtMultimediaKit.in(.text)
    QRadioTuner::qt_metacast(const char*)    0x0000fa5d   Thumb Code    38  QtMultimediaKit.in(.text)
    QRadioTuner::setMuted(bool)              0x0000fa83   Thumb Code    16  QtMultimediaKit.in(.text)
    QRadioTuner::setVolume(int)              0x0000fa93   Thumb Code    16  QtMultimediaKit.in(.text)
    QRadioTuner::setStereoMode(QRadioTuner::StereoMode) 0x0000faa3   Thumb Code    16  QtMultimediaKit.in(.text)
    QRadioTuner::setFrequency(int)           0x0000fab3   Thumb Code    16  QtMultimediaKit.in(.text)
    QRadioTuner::setBand(QRadioTuner::Band)  0x0000fac3   Thumb Code    16  QtMultimediaKit.in(.text)
    QRadioTuner::isSearching() const         0x0000fad3   Thumb Code    18  QtMultimediaKit.in(.text)
    QRadioTuner::isMuted() const             0x0000fae5   Thumb Code    18  QtMultimediaKit.in(.text)
    QRadioTuner::volume() const              0x0000faf7   Thumb Code    18  QtMultimediaKit.in(.text)
    QRadioTuner::signalStrength() const      0x0000fb09   Thumb Code    18  QtMultimediaKit.in(.text)
    QRadioTuner::stereoMode() const          0x0000fb1b   Thumb Code    18  QtMultimediaKit.in(.text)
    QRadioTuner::isStereo() const            0x0000fb2d   Thumb Code    18  QtMultimediaKit.in(.text)
    QRadioTuner::frequency() const           0x0000fb3f   Thumb Code    18  QtMultimediaKit.in(.text)
    QRadioTuner::band() const                0x0000fb51   Thumb Code    18  QtMultimediaKit.in(.text)
    QRadioTuner::state() const               0x0000fb63   Thumb Code    18  QtMultimediaKit.in(.text)
    QRadioTuner::stop()                      0x0000fb75   Thumb Code    18  QtMultimediaKit.in(.text)
    QRadioTuner::start()                     0x0000fb87   Thumb Code    18  QtMultimediaKit.in(.text)
    QRadioTuner::cancelSearch()              0x0000fb99   Thumb Code    18  QtMultimediaKit.in(.text)
    QRadioTuner::searchBackward()            0x0000fbab   Thumb Code    18  QtMultimediaKit.in(.text)
    QRadioTuner::searchForward()             0x0000fbbd   Thumb Code    16  QtMultimediaKit.in(.text)
    QRadioTuner::error(QRadioTuner::Error)   0x0000fbcd   Thumb Code    30  QtMultimediaKit.in(.text)
    QRadioTuner::mutedChanged(bool)          0x0000fbeb   Thumb Code    28  QtMultimediaKit.in(.text)
    QRadioTuner::volumeChanged(int)          0x0000fc07   Thumb Code    28  QtMultimediaKit.in(.text)
    QRadioTuner::signalStrengthChanged(int)  0x0000fc23   Thumb Code    28  QtMultimediaKit.in(.text)
    QRadioTuner::searchingChanged(bool)      0x0000fc3f   Thumb Code    28  QtMultimediaKit.in(.text)
    QRadioTuner::stereoStatusChanged(bool)   0x0000fc5b   Thumb Code    28  QtMultimediaKit.in(.text)
    QRadioTuner::frequencyChanged(int)       0x0000fc77   Thumb Code    28  QtMultimediaKit.in(.text)
    QRadioTuner::bandChanged(QRadioTuner::Band) 0x0000fc93   Thumb Code    28  QtMultimediaKit.in(.text)
    QRadioTuner::stateChanged(QRadioTuner::State) 0x0000fcaf   Thumb Code    26  QtMultimediaKit.in(.text)
    QRadioTuner::qt_metacall(QMetaObject::Call, int, void**) 0x0000fcc9   Thumb Code   458  QtMultimediaKit.in(.text)
    QRadioTuner::QRadioTuner(QObject*, QMediaServiceProvider*) 0x0000fe93   Thumb Code   630  QtMultimediaKit.in(.text)
    QRadioTuner::QRadioTuner__sub_object(QObject*, QMediaServiceProvider*) 0x0000fe93   Thumb Code     0  QtMultimediaKit.in(.text)
    QRadioTuner::~QRadioTuner()              0x00010109   Thumb Code    46  QtMultimediaKit.in(.text)
    QRadioTuner::~QRadioTuner__sub_object()  0x00010109   Thumb Code     0  QtMultimediaKit.in(.text)
    QRadioTuner::~QRadioTuner__deallocating() 0x00010137   Thumb Code    16  QtMultimediaKit.in(.text)
    QRadioTuner::isAvailable() const         0x00010147   Thumb Code    18  QtMultimediaKit.in(.text)
    QRadioTuner::availabilityError() const   0x00010159   Thumb Code    18  QtMultimediaKit.in(.text)
    QRadioTuner::isBandSupported(QRadioTuner::Band) const 0x0001016b   Thumb Code    18  QtMultimediaKit.in(.text)
    QRadioTuner::frequencyStep(QRadioTuner::Band) const 0x0001017d   Thumb Code    18  QtMultimediaKit.in(.text)
    QRadioTuner::frequencyRange(QRadioTuner::Band) const 0x0001018f   Thumb Code    22  QtMultimediaKit.in(.text)
    QRadioTuner::error() const               0x000101a5   Thumb Code    20  QtMultimediaKit.in(.text)
    QRadioTuner::errorString() const         0x000101b9   Thumb Code    32  QtMultimediaKit.in(.text)
    QRadioTunerControl::getStaticMetaObject() 0x000101e1   Thumb Code     4  QtMultimediaKit.in(.text)
    QRadioTunerControl::metaObject() const   0x000101e5   Thumb Code    12  QtMultimediaKit.in(.text)
    QRadioTunerControl::qt_metacast(const char*) 0x000101f1   Thumb Code    38  QtMultimediaKit.in(.text)
    QRadioTunerControl::error(QRadioTuner::Error) 0x00010217   Thumb Code    30  QtMultimediaKit.in(.text)
    QRadioTunerControl::mutedChanged(bool)   0x00010235   Thumb Code    28  QtMultimediaKit.in(.text)
    QRadioTunerControl::volumeChanged(int)   0x00010251   Thumb Code    28  QtMultimediaKit.in(.text)
    QRadioTunerControl::signalStrengthChanged(int) 0x0001026d   Thumb Code    28  QtMultimediaKit.in(.text)
    QRadioTunerControl::searchingChanged(bool) 0x00010289   Thumb Code    28  QtMultimediaKit.in(.text)
    QRadioTunerControl::stereoStatusChanged(bool) 0x000102a5   Thumb Code    28  QtMultimediaKit.in(.text)
    QRadioTunerControl::frequencyChanged(int) 0x000102c1   Thumb Code    28  QtMultimediaKit.in(.text)
    QRadioTunerControl::bandChanged(QRadioTuner::Band) 0x000102dd   Thumb Code    28  QtMultimediaKit.in(.text)
    QRadioTunerControl::stateChanged(QRadioTuner::State) 0x000102f9   Thumb Code    26  QtMultimediaKit.in(.text)
    QRadioTunerControl::qt_metacall(QMetaObject::Call, int, void**) 0x00010313   Thumb Code   150  QtMultimediaKit.in(.text)
    QRadioTunerControl::~QRadioTunerControl() 0x000103a9   Thumb Code     0  QtMultimediaKit.in(.text)
    QRadioTunerControl::~QRadioTunerControl__sub_object() 0x000103a9   Thumb Code     8  QtMultimediaKit.in(.text)
    QRadioTunerControl::~QRadioTunerControl__deallocating() 0x000103b1   Thumb Code    16  QtMultimediaKit.in(.text)
    QRadioTunerControl::QRadioTunerControl__sub_object(QObject*) 0x000103c1   Thumb Code    40  QtMultimediaKit.in(.text)
    QVideoWidget::getStaticMetaObject()      0x000103f9   Thumb Code     4  QtMultimediaKit.in(.text)
    QVideoWidget::metaObject() const         0x000103fd   Thumb Code    12  QtMultimediaKit.in(.text)
    QVideoWidget::qt_metacast(const char*)   0x00010409   Thumb Code    70  QtMultimediaKit.in(.text)
    QVideoWidget::saturationChanged(int)     0x0001044f   Thumb Code    30  QtMultimediaKit.in(.text)
    QVideoWidget::setSaturation(int)         0x0001046d   Thumb Code    62  QtMultimediaKit.in(.text)
    QVideoWidget::hueChanged(int)            0x000104ab   Thumb Code    28  QtMultimediaKit.in(.text)
    QVideoWidget::setHue(int)                0x000104c7   Thumb Code    60  QtMultimediaKit.in(.text)
    QVideoWidget::contrastChanged(int)       0x00010503   Thumb Code    28  QtMultimediaKit.in(.text)
    QVideoWidget::setContrast(int)           0x0001051f   Thumb Code    60  QtMultimediaKit.in(.text)
    QVideoWidget::brightnessChanged(int)     0x0001055b   Thumb Code    28  QtMultimediaKit.in(.text)
    QVideoWidget::setBrightness(int)         0x00010577   Thumb Code    60  QtMultimediaKit.in(.text)
    QVideoWidget::setAspectRatioMode(Qt::AspectRatioMode) 0x000105b3   Thumb Code    32  QtMultimediaKit.in(.text)
    QVideoWidget::setFullScreen(bool)        0x000105d3   Thumb Code    70  QtMultimediaKit.in(.text)
    QVideoWidget::saturation() const         0x00010619   Thumb Code     6  QtMultimediaKit.in(.text)
    QVideoWidget::hue() const                0x0001061f   Thumb Code     6  QtMultimediaKit.in(.text)
    QVideoWidget::contrast() const           0x00010625   Thumb Code     6  QtMultimediaKit.in(.text)
    QVideoWidget::brightness() const         0x0001062b   Thumb Code     6  QtMultimediaKit.in(.text)
    QVideoWidget::aspectRatioMode() const    0x00010631   Thumb Code     6  QtMultimediaKit.in(.text)
    QVideoWidgetPrivate::_q_dimensionsChanged() 0x00010637   Thumb Code    18  QtMultimediaKit.in(.text)
    QVideoWidgetPrivate::_q_fullScreenChanged(bool) 0x00010649   Thumb Code    26  QtMultimediaKit.in(.text)
    QVideoWidgetPrivate::_q_saturationChanged(int) 0x00010663   Thumb Code    16  QtMultimediaKit.in(.text)
    QVideoWidgetPrivate::_q_hueChanged(int)  0x00010673   Thumb Code    16  QtMultimediaKit.in(.text)
    QVideoWidgetPrivate::_q_contrastChanged(int) 0x00010683   Thumb Code    16  QtMultimediaKit.in(.text)
    QVideoWidgetPrivate::_q_brightnessChanged(int) 0x00010693   Thumb Code    16  QtMultimediaKit.in(.text)
    QVideoWidgetPrivate::_q_serviceDestroyed() 0x000106a3   Thumb Code    78  QtMultimediaKit.in(.text)
    QVideoWidget::fullScreenChanged(bool)    0x000106f1   Thumb Code    26  QtMultimediaKit.in(.text)
    QVideoWidget::qt_metacall(QMetaObject::Call, int, void**) 0x0001070b   Thumb Code   538  QtMultimediaKit.in(.text)
    QVideoWidget::QVideoWidget(QWidget*)     0x00010925   Thumb Code    90  QtMultimediaKit.in(.text)
    QVideoWidget::QVideoWidget__sub_object(QWidget*) 0x00010925   Thumb Code     0  QtMultimediaKit.in(.text)
    QWindowVideoWidgetBackend::releaseControl() 0x0001097f   Thumb Code    10  QtMultimediaKit.in(.text)
    QRendererVideoWidgetBackend::releaseControl() 0x00010989   Thumb Code    10  QtMultimediaKit.in(.text)
    QRendererVideoWidgetBackend::clearSurface() 0x00010993   Thumb Code    10  QtMultimediaKit.in(.text)
    QVideoWidgetControlBackend::releaseControl() 0x0001099d   Thumb Code    10  QtMultimediaKit.in(.text)
    QVideoWidgetPrivate::clearService()      0x000109a7   Thumb Code   180  QtMultimediaKit.in(.text)
    QVideoWidget::~QVideoWidget()            0x00010a5b   Thumb Code    58  QtMultimediaKit.in(.text)
    QVideoWidget::~QVideoWidget__sub_object() 0x00010a5b   Thumb Code     0  QtMultimediaKit.in(.text)
    QVideoWidget::~QVideoWidget__deallocating() 0x00010a95   Thumb Code    16  QtMultimediaKit.in(.text)
    thunk{-20} to QVideoWidget::~QVideoWidget__deallocating() 0x00010aa5   Thumb Code     4  QtMultimediaKit.in(.text)
    thunk{-8} to QVideoWidget::~QVideoWidget__deallocating() 0x00010aa9   Thumb Code     4  QtMultimediaKit.in(.text)
    thunk{-20} to QVideoWidget::~QVideoWidget() 0x00010aad   Thumb Code     4  QtMultimediaKit.in(.text)
    thunk{-8} to QVideoWidget::~QVideoWidget() 0x00010ab1   Thumb Code     4  QtMultimediaKit.in(.text)
    QVideoWidget::mediaObject() const        0x00010ab5   Thumb Code     6  QtMultimediaKit.in(.text)
    thunk{-20} to QVideoWidget::mediaObject() const 0x00010abb   Thumb Code     6  QtMultimediaKit.in(.text)
    QVideoWidget::sizeHint() const           0x00010ac1   Thumb Code    28  QtMultimediaKit.in(.text)
    QVideoWidget::event(QEvent*)             0x00010add   Thumb Code   154  QtMultimediaKit.in(.text)
    QVideoWidgetPrivate::setCurrentControl(QVideoWidgetControlInterface*) 0x00010b77   Thumb Code    64  QtMultimediaKit.in(.text)
    QRendererVideoWidgetBackend::QRendererVideoWidgetBackend(QMediaService*, QVideoRendererControl*, QWidget*) 0x00010bb7   Thumb Code   562  QtMultimediaKit.in(.text)
    QRendererVideoWidgetBackend::QRendererVideoWidgetBackend__sub_object(QMediaService*, QVideoRendererControl*, QWidget*) 0x00010bb7   Thumb Code     0  QtMultimediaKit.in(.text)
    QVideoWidgetPrivate::createRendererBackend() 0x00010de9   Thumb Code    98  QtMultimediaKit.in(.text)
    QVideoWidget::showEvent(QShowEvent*)     0x00010e4b   Thumb Code    74  QtMultimediaKit.in(.text)
    QVideoWidget::hideEvent(QHideEvent*)     0x00010e95   Thumb Code    32  QtMultimediaKit.in(.text)
    QVideoWidget::resizeEvent(QResizeEvent*) 0x00010eb5   Thumb Code    26  QtMultimediaKit.in(.text)
    QVideoWidget::moveEvent(QMoveEvent*)     0x00010ecf   Thumb Code    16  QtMultimediaKit.in(.text)
    QVideoWidget::paintEvent(QPaintEvent*)   0x00010edf   Thumb Code    76  QtMultimediaKit.in(.text)
    QWindowVideoWidgetBackend::QWindowVideoWidgetBackend(QMediaService*, QVideoWindowControl*, QWidget*) 0x00010f2b   Thumb Code   154  QtMultimediaKit.in(.text)
    QWindowVideoWidgetBackend::QWindowVideoWidgetBackend__sub_object(QMediaService*, QVideoWindowControl*, QWidget*) 0x00010f2b   Thumb Code     0  QtMultimediaKit.in(.text)
    QVideoWidgetPrivate::createWindowBackend() 0x00010fc5   Thumb Code    98  QtMultimediaKit.in(.text)
    QVideoWidgetControlBackend::QVideoWidgetControlBackend(QMediaService*, QVideoWidgetControl*, QWidget*) 0x00011027   Thumb Code   184  QtMultimediaKit.in(.text)
    QVideoWidgetControlBackend::QVideoWidgetControlBackend__sub_object(QMediaService*, QVideoWidgetControl*, QWidget*) 0x00011027   Thumb Code     0  QtMultimediaKit.in(.text)
    QVideoWidgetPrivate::createWidgetBackend() 0x000110df   Thumb Code   380  QtMultimediaKit.in(.text)
    QVideoWidget::setMediaObject(QMediaObject*) 0x0001125b   Thumb Code   176  QtMultimediaKit.in(.text)
    thunk{-20} to QVideoWidget::setMediaObject(QMediaObject*) 0x0001130b   Thumb Code     4  QtMultimediaKit.in(.text)
    QVideoWidget::QVideoWidget(QVideoWidgetPrivate&, QWidget*) 0x0001130f   Thumb Code   106  QtMultimediaKit.in(.text)
    QVideoWidget::QVideoWidget__sub_object(QVideoWidgetPrivate&, QWidget*) 0x0001130f   Thumb Code     0  QtMultimediaKit.in(.text)
    QVideoWidgetBackend::getStaticMetaObject() 0x00011379   Thumb Code     4  QtMultimediaKit.in(.text)
    QVideoWidgetBackend::metaObject() const  0x0001137d   Thumb Code    12  QtMultimediaKit.in(.text)
    QVideoWidgetBackend::qt_metacast(const char*) 0x00011389   Thumb Code    56  QtMultimediaKit.in(.text)
    QVideoWidgetBackend::qt_metacall(QMetaObject::Call, int, void**) 0x000113c1   Thumb Code     8  QtMultimediaKit.in(.text)
    QVideoWidgetControlBackend::getStaticMetaObject() 0x000113c9   Thumb Code     6  QtMultimediaKit.in(.text)
    QVideoWidgetControlBackend::metaObject() const 0x000113cf   Thumb Code    14  QtMultimediaKit.in(.text)
    QVideoWidgetControlBackend::qt_metacast(const char*) 0x000113dd   Thumb Code    58  QtMultimediaKit.in(.text)
    QVideoWidgetControlBackend::qt_metacall(QMetaObject::Call, int, void**) 0x00011417   Thumb Code     8  QtMultimediaKit.in(.text)
    QVideoWidgetControlBackend::setBrightness(int) 0x0001141f   Thumb Code     8  QtMultimediaKit.in(.text)
    thunk{-8} to QVideoWidgetControlBackend::setBrightness(int) 0x00011427   Thumb Code     4  QtMultimediaKit.in(.text)
    QVideoWidgetControlBackend::setContrast(int) 0x0001142b   Thumb Code     8  QtMultimediaKit.in(.text)
    thunk{-8} to QVideoWidgetControlBackend::setContrast(int) 0x00011433   Thumb Code     4  QtMultimediaKit.in(.text)
    QVideoWidgetControlBackend::setHue(int)  0x00011437   Thumb Code     8  QtMultimediaKit.in(.text)
    thunk{-8} to QVideoWidgetControlBackend::setHue(int) 0x0001143f   Thumb Code     4  QtMultimediaKit.in(.text)
    QVideoWidgetControlBackend::setSaturation(int) 0x00011443   Thumb Code     8  QtMultimediaKit.in(.text)
    thunk{-8} to QVideoWidgetControlBackend::setSaturation(int) 0x0001144b   Thumb Code     4  QtMultimediaKit.in(.text)
    QVideoWidgetControlBackend::setFullScreen(bool) 0x0001144f   Thumb Code     8  QtMultimediaKit.in(.text)
    thunk{-8} to QVideoWidgetControlBackend::setFullScreen(bool) 0x00011457   Thumb Code     4  QtMultimediaKit.in(.text)
    QVideoWidgetControlBackend::aspectRatioMode() const 0x0001145b   Thumb Code     8  QtMultimediaKit.in(.text)
    thunk{-8} to QVideoWidgetControlBackend::aspectRatioMode() const 0x00011463   Thumb Code     4  QtMultimediaKit.in(.text)
    QVideoWidgetControlBackend::setAspectRatioMode(Qt::AspectRatioMode) 0x00011467   Thumb Code     8  QtMultimediaKit.in(.text)
    thunk{-8} to QVideoWidgetControlBackend::setAspectRatioMode(Qt::AspectRatioMode) 0x0001146f   Thumb Code     4  QtMultimediaKit.in(.text)
    QRendererVideoWidgetBackend::getStaticMetaObject() 0x00011473   Thumb Code     6  QtMultimediaKit.in(.text)
    QRendererVideoWidgetBackend::metaObject() const 0x00011479   Thumb Code    14  QtMultimediaKit.in(.text)
    QRendererVideoWidgetBackend::qt_metacast(const char*) 0x00011487   Thumb Code    40  QtMultimediaKit.in(.text)
    QRendererVideoWidgetBackend::frameChanged() 0x000114af   Thumb Code    14  QtMultimediaKit.in(.text)
    QRendererVideoWidgetBackend::updateRects() 0x000114bd   Thumb Code   338  QtMultimediaKit.in(.text)
    QRendererVideoWidgetBackend::formatChanged(const QVideoSurfaceFormat&) 0x0001160f   Thumb Code    30  QtMultimediaKit.in(.text)
    QRendererVideoWidgetBackend::saturationChanged(int) 0x0001162d   Thumb Code    32  QtMultimediaKit.in(.text)
    QRendererVideoWidgetBackend::hueChanged(int) 0x0001164d   Thumb Code    30  QtMultimediaKit.in(.text)
    QRendererVideoWidgetBackend::contrastChanged(int) 0x0001166b   Thumb Code    82  QtMultimediaKit.in(.text)
    QRendererVideoWidgetBackend::brightnessChanged(int) 0x000116bd   Thumb Code    28  QtMultimediaKit.in(.text)
    QRendererVideoWidgetBackend::fullScreenChanged(bool) 0x000116d9   Thumb Code    26  QtMultimediaKit.in(.text)
    QRendererVideoWidgetBackend::qt_metacall(QMetaObject::Call, int, void**) 0x000116f3   Thumb Code   118  QtMultimediaKit.in(.text)
    QRendererVideoWidgetBackend::~QRendererVideoWidgetBackend() 0x00011769   Thumb Code    32  QtMultimediaKit.in(.text)
    QRendererVideoWidgetBackend::~QRendererVideoWidgetBackend__sub_object() 0x00011769   Thumb Code     0  QtMultimediaKit.in(.text)
    QRendererVideoWidgetBackend::~QRendererVideoWidgetBackend__deallocating() 0x00011789   Thumb Code    16  QtMultimediaKit.in(.text)
    thunk{-8} to QRendererVideoWidgetBackend::~QRendererVideoWidgetBackend__deallocating() 0x00011799   Thumb Code     4  QtMultimediaKit.in(.text)
    thunk{-8} to QRendererVideoWidgetBackend::~QRendererVideoWidgetBackend() 0x0001179d   Thumb Code     4  QtMultimediaKit.in(.text)
    QRendererVideoWidgetBackend::setBrightness(int) 0x000117a1   Thumb Code    22  QtMultimediaKit.in(.text)
    thunk{-8} to QRendererVideoWidgetBackend::setBrightness(int) 0x000117b7   Thumb Code     4  QtMultimediaKit.in(.text)
    QRendererVideoWidgetBackend::setContrast(int) 0x000117bb   Thumb Code    22  QtMultimediaKit.in(.text)
    thunk{-8} to QRendererVideoWidgetBackend::setContrast(int) 0x000117d1   Thumb Code     4  QtMultimediaKit.in(.text)
    QRendererVideoWidgetBackend::setHue(int) 0x000117d5   Thumb Code    22  QtMultimediaKit.in(.text)
    thunk{-8} to QRendererVideoWidgetBackend::setHue(int) 0x000117eb   Thumb Code     4  QtMultimediaKit.in(.text)
    QRendererVideoWidgetBackend::setSaturation(int) 0x000117ef   Thumb Code    22  QtMultimediaKit.in(.text)
    thunk{-8} to QRendererVideoWidgetBackend::setSaturation(int) 0x00011805   Thumb Code     4  QtMultimediaKit.in(.text)
    QRendererVideoWidgetBackend::setFullScreen(bool) 0x00011809   Thumb Code     2  QtMultimediaKit.in(.text)
    thunk{-8} to QRendererVideoWidgetBackend::setFullScreen(bool) 0x0001180b   Thumb Code     2  QtMultimediaKit.in(.text)
    QRendererVideoWidgetBackend::aspectRatioMode() const 0x0001180d   Thumb Code     4  QtMultimediaKit.in(.text)
    thunk{-8} to QRendererVideoWidgetBackend::aspectRatioMode() const 0x00011811   Thumb Code     4  QtMultimediaKit.in(.text)
    QRendererVideoWidgetBackend::setAspectRatioMode(Qt::AspectRatioMode) 0x00011815   Thumb Code    12  QtMultimediaKit.in(.text)
    thunk{-8} to QRendererVideoWidgetBackend::setAspectRatioMode(Qt::AspectRatioMode) 0x00011821   Thumb Code     4  QtMultimediaKit.in(.text)
    QRendererVideoWidgetBackend::sizeHint() const 0x00011825   Thumb Code    34  QtMultimediaKit.in(.text)
    QRendererVideoWidgetBackend::showEvent() 0x00011847   Thumb Code     2  QtMultimediaKit.in(.text)
    QRendererVideoWidgetBackend::hideEvent(QHideEvent*) 0x00011849   Thumb Code     2  QtMultimediaKit.in(.text)
    QRendererVideoWidgetBackend::resizeEvent(QResizeEvent*) 0x0001184b   Thumb Code     2  QtMultimediaKit.in(.text)
    QRendererVideoWidgetBackend::moveEvent(QMoveEvent*) 0x0001184d   Thumb Code     2  QtMultimediaKit.in(.text)
    QRendererVideoWidgetBackend::paintEvent(QPaintEvent*) 0x0001184f   Thumb Code   284  QtMultimediaKit.in(.text)
    QWindowVideoWidgetBackend::getStaticMetaObject() 0x0001196b   Thumb Code     6  QtMultimediaKit.in(.text)
    QWindowVideoWidgetBackend::metaObject() const 0x00011971   Thumb Code    14  QtMultimediaKit.in(.text)
    QWindowVideoWidgetBackend::qt_metacast(const char*) 0x0001197f   Thumb Code    40  QtMultimediaKit.in(.text)
    QWindowVideoWidgetBackend::qt_metacall(QMetaObject::Call, int, void**) 0x000119a7   Thumb Code     8  QtMultimediaKit.in(.text)
    QWindowVideoWidgetBackend::~QWindowVideoWidgetBackend() 0x000119af   Thumb Code     8  QtMultimediaKit.in(.text)
    QWindowVideoWidgetBackend::~QWindowVideoWidgetBackend__sub_object() 0x000119af   Thumb Code     0  QtMultimediaKit.in(.text)
    QWindowVideoWidgetBackend::~QWindowVideoWidgetBackend__deallocating() 0x000119b7   Thumb Code    16  QtMultimediaKit.in(.text)
    thunk{-8} to QWindowVideoWidgetBackend::~QWindowVideoWidgetBackend__deallocating() 0x000119c7   Thumb Code     4  QtMultimediaKit.in(.text)
    thunk{-8} to QWindowVideoWidgetBackend::~QWindowVideoWidgetBackend() 0x000119cb   Thumb Code     4  QtMultimediaKit.in(.text)
    QWindowVideoWidgetBackend::setBrightness(int) 0x000119cf   Thumb Code     8  QtMultimediaKit.in(.text)
    thunk{-8} to QWindowVideoWidgetBackend::setBrightness(int) 0x000119d7   Thumb Code     4  QtMultimediaKit.in(.text)
    QWindowVideoWidgetBackend::setContrast(int) 0x000119db   Thumb Code     8  QtMultimediaKit.in(.text)
    thunk{-8} to QWindowVideoWidgetBackend::setContrast(int) 0x000119e3   Thumb Code     4  QtMultimediaKit.in(.text)
    QWindowVideoWidgetBackend::setHue(int)   0x000119e7   Thumb Code     8  QtMultimediaKit.in(.text)
    thunk{-8} to QWindowVideoWidgetBackend::setHue(int) 0x000119ef   Thumb Code     4  QtMultimediaKit.in(.text)
    QWindowVideoWidgetBackend::setSaturation(int) 0x000119f3   Thumb Code     8  QtMultimediaKit.in(.text)
    thunk{-8} to QWindowVideoWidgetBackend::setSaturation(int) 0x000119fb   Thumb Code     4  QtMultimediaKit.in(.text)
    QWindowVideoWidgetBackend::setFullScreen(bool) 0x000119ff   Thumb Code     8  QtMultimediaKit.in(.text)
    thunk{-8} to QWindowVideoWidgetBackend::setFullScreen(bool) 0x00011a07   Thumb Code     4  QtMultimediaKit.in(.text)
    QWindowVideoWidgetBackend::aspectRatioMode() const 0x00011a0b   Thumb Code     8  QtMultimediaKit.in(.text)
    thunk{-8} to QWindowVideoWidgetBackend::aspectRatioMode() const 0x00011a13   Thumb Code     4  QtMultimediaKit.in(.text)
    QWindowVideoWidgetBackend::setAspectRatioMode(Qt::AspectRatioMode) 0x00011a17   Thumb Code     8  QtMultimediaKit.in(.text)
    thunk{-8} to QWindowVideoWidgetBackend::setAspectRatioMode(Qt::AspectRatioMode) 0x00011a1f   Thumb Code     4  QtMultimediaKit.in(.text)
    QWindowVideoWidgetBackend::sizeHint() const 0x00011a23   Thumb Code     8  QtMultimediaKit.in(.text)
    QWindowVideoWidgetBackend::showEvent()   0x00011a2b   Thumb Code    44  QtMultimediaKit.in(.text)
    QWindowVideoWidgetBackend::hideEvent(QHideEvent*) 0x00011a57   Thumb Code     2  QtMultimediaKit.in(.text)
    QWindowVideoWidgetBackend::resizeEvent(QResizeEvent*) 0x00011a59   Thumb Code    32  QtMultimediaKit.in(.text)
    QWindowVideoWidgetBackend::moveEvent(QMoveEvent*) 0x00011a79   Thumb Code    24  QtMultimediaKit.in(.text)
    QWindowVideoWidgetBackend::paintEvent(QPaintEvent*) 0x00011a91   Thumb Code    82  QtMultimediaKit.in(.text)
    QVideoWindowControl::getStaticMetaObject() 0x00011ae5   Thumb Code     4  QtMultimediaKit.in(.text)
    QVideoWindowControl::metaObject() const  0x00011ae9   Thumb Code    12  QtMultimediaKit.in(.text)
    QVideoWindowControl::qt_metacast(const char*) 0x00011af5   Thumb Code    40  QtMultimediaKit.in(.text)
    QVideoWindowControl::nativeSizeChanged() 0x00011b1d   Thumb Code    14  QtMultimediaKit.in(.text)
    QVideoWindowControl::saturationChanged(int) 0x00011b2b   Thumb Code    30  QtMultimediaKit.in(.text)
    QVideoWindowControl::hueChanged(int)     0x00011b49   Thumb Code    28  QtMultimediaKit.in(.text)
    QVideoWindowControl::contrastChanged(int) 0x00011b65   Thumb Code    28  QtMultimediaKit.in(.text)
    QVideoWindowControl::brightnessChanged(int) 0x00011b81   Thumb Code    28  QtMultimediaKit.in(.text)
    QVideoWindowControl::fullScreenChanged(bool) 0x00011b9d   Thumb Code    26  QtMultimediaKit.in(.text)
    QVideoWindowControl::qt_metacall(QMetaObject::Call, int, void**) 0x00011bb7   Thumb Code   106  QtMultimediaKit.in(.text)
    QVideoWindowControl::~QVideoWindowControl() 0x00011c21   Thumb Code     0  QtMultimediaKit.in(.text)
    QVideoWindowControl::~QVideoWindowControl__sub_object() 0x00011c21   Thumb Code     8  QtMultimediaKit.in(.text)
    QVideoWindowControl::~QVideoWindowControl__deallocating() 0x00011c29   Thumb Code    16  QtMultimediaKit.in(.text)
    QVideoWindowControl::QVideoWindowControl__sub_object(QObject*) 0x00011c39   Thumb Code    12  QtMultimediaKit.in(.text)
    QVideoWidgetControl::getStaticMetaObject() 0x00011c4d   Thumb Code     4  QtMultimediaKit.in(.text)
    QVideoWidgetControl::metaObject() const  0x00011c51   Thumb Code    12  QtMultimediaKit.in(.text)
    QVideoWidgetControl::qt_metacast(const char*) 0x00011c5d   Thumb Code    40  QtMultimediaKit.in(.text)
    QVideoWidgetControl::saturationChanged(int) 0x00011c85   Thumb Code    30  QtMultimediaKit.in(.text)
    QVideoWidgetControl::hueChanged(int)     0x00011ca3   Thumb Code    28  QtMultimediaKit.in(.text)
    QVideoWidgetControl::contrastChanged(int) 0x00011cbf   Thumb Code    28  QtMultimediaKit.in(.text)
    QVideoWidgetControl::brightnessChanged(int) 0x00011cdb   Thumb Code    28  QtMultimediaKit.in(.text)
    QVideoWidgetControl::fullScreenChanged(bool) 0x00011cf7   Thumb Code    26  QtMultimediaKit.in(.text)
    QVideoWidgetControl::qt_metacall(QMetaObject::Call, int, void**) 0x00011d11   Thumb Code    98  QtMultimediaKit.in(.text)
    QVideoWidgetControl::~QVideoWidgetControl() 0x00011d73   Thumb Code     0  QtMultimediaKit.in(.text)
    QVideoWidgetControl::~QVideoWidgetControl__sub_object() 0x00011d73   Thumb Code     8  QtMultimediaKit.in(.text)
    QVideoWidgetControl::~QVideoWidgetControl__deallocating() 0x00011d7b   Thumb Code    16  QtMultimediaKit.in(.text)
    QVideoWidgetControl::QVideoWidgetControl__sub_object(QObject*) 0x00011d8b   Thumb Code    12  QtMultimediaKit.in(.text)
    QAudioEncoderControl::getStaticMetaObject() 0x00011da1   Thumb Code     4  QtMultimediaKit.in(.text)
    QAudioEncoderControl::metaObject() const 0x00011da5   Thumb Code    12  QtMultimediaKit.in(.text)
    QAudioEncoderControl::qt_metacast(const char*) 0x00011db1   Thumb Code    40  QtMultimediaKit.in(.text)
    QAudioEncoderControl::qt_metacall(QMetaObject::Call, int, void**) 0x00011dd9   Thumb Code     8  QtMultimediaKit.in(.text)
    QAudioEncoderControl::~QAudioEncoderControl() 0x00011de1   Thumb Code     0  QtMultimediaKit.in(.text)
    QAudioEncoderControl::~QAudioEncoderControl__sub_object() 0x00011de1   Thumb Code     8  QtMultimediaKit.in(.text)
    QAudioEncoderControl::~QAudioEncoderControl__deallocating() 0x00011de9   Thumb Code    16  QtMultimediaKit.in(.text)
    QAudioEncoderControl::QAudioEncoderControl__sub_object(QObject*) 0x00011df9   Thumb Code    12  QtMultimediaKit.in(.text)
    QVideoEncoderControl::getStaticMetaObject() 0x00011e0d   Thumb Code     4  QtMultimediaKit.in(.text)
    QVideoEncoderControl::metaObject() const 0x00011e11   Thumb Code    12  QtMultimediaKit.in(.text)
    QVideoEncoderControl::qt_metacast(const char*) 0x00011e1d   Thumb Code    40  QtMultimediaKit.in(.text)
    QVideoEncoderControl::qt_metacall(QMetaObject::Call, int, void**) 0x00011e45   Thumb Code     8  QtMultimediaKit.in(.text)
    QVideoEncoderControl::~QVideoEncoderControl() 0x00011e4d   Thumb Code     0  QtMultimediaKit.in(.text)
    QVideoEncoderControl::~QVideoEncoderControl__sub_object() 0x00011e4d   Thumb Code     8  QtMultimediaKit.in(.text)
    QVideoEncoderControl::~QVideoEncoderControl__deallocating() 0x00011e55   Thumb Code    16  QtMultimediaKit.in(.text)
    QVideoEncoderControl::QVideoEncoderControl__sub_object(QObject*) 0x00011e65   Thumb Code    12  QtMultimediaKit.in(.text)
    QImageEncoderControl::getStaticMetaObject() 0x00011e79   Thumb Code     4  QtMultimediaKit.in(.text)
    QImageEncoderControl::metaObject() const 0x00011e7d   Thumb Code    12  QtMultimediaKit.in(.text)
    QImageEncoderControl::qt_metacast(const char*) 0x00011e89   Thumb Code    40  QtMultimediaKit.in(.text)
    QImageEncoderControl::qt_metacall(QMetaObject::Call, int, void**) 0x00011eb1   Thumb Code     8  QtMultimediaKit.in(.text)
    QImageEncoderControl::~QImageEncoderControl() 0x00011eb9   Thumb Code     0  QtMultimediaKit.in(.text)
    QImageEncoderControl::~QImageEncoderControl__sub_object() 0x00011eb9   Thumb Code     8  QtMultimediaKit.in(.text)
    QImageEncoderControl::~QImageEncoderControl__deallocating() 0x00011ec1   Thumb Code    16  QtMultimediaKit.in(.text)
    QImageEncoderControl::QImageEncoderControl__sub_object(QObject*) 0x00011ed1   Thumb Code    12  QtMultimediaKit.in(.text)
    QAudioCaptureSource::getStaticMetaObject() 0x00011ee5   Thumb Code     4  QtMultimediaKit.in(.text)
    QAudioCaptureSource::metaObject() const  0x00011ee9   Thumb Code    12  QtMultimediaKit.in(.text)
    QAudioCaptureSource::qt_metacast(const char*) 0x00011ef5   Thumb Code    40  QtMultimediaKit.in(.text)
    QAudioCaptureSource::statusChanged()     0x00011f1d   Thumb Code    74  QtMultimediaKit.in(.text)
    QAudioCaptureSource::setAudioInput(const QString&) 0x00011f67   Thumb Code    16  QtMultimediaKit.in(.text)
    QAudioCaptureSource::availableAudioInputsChanged() 0x00011f77   Thumb Code    14  QtMultimediaKit.in(.text)
    QAudioCaptureSource::activeAudioInputChanged(const QString&) 0x00011f85   Thumb Code    22  QtMultimediaKit.in(.text)
    QAudioCaptureSource::qt_metacall(QMetaObject::Call, int, void**) 0x00011f9b   Thumb Code    76  QtMultimediaKit.in(.text)
    QAudioCaptureSource::QAudioCaptureSource(QObject*, QMediaServiceProvider*) 0x00011fe7   Thumb Code   150  QtMultimediaKit.in(.text)
    QAudioCaptureSource::QAudioCaptureSource__sub_object(QObject*, QMediaServiceProvider*) 0x00011fe7   Thumb Code     0  QtMultimediaKit.in(.text)
    QAudioCaptureSource::~QAudioCaptureSource() 0x0001207d   Thumb Code    50  QtMultimediaKit.in(.text)
    QAudioCaptureSource::~QAudioCaptureSource__sub_object() 0x0001207d   Thumb Code     0  QtMultimediaKit.in(.text)
    QAudioCaptureSource::~QAudioCaptureSource__deallocating() 0x000120af   Thumb Code    16  QtMultimediaKit.in(.text)
    QAudioCaptureSource::isAvailable() const 0x000120bf   Thumb Code    68  QtMultimediaKit.in(.text)
    QAudioCaptureSource::availabilityError() const 0x00012103   Thumb Code     6  QtMultimediaKit.in(.text)
    QAudioCaptureSource::audioInputs() const 0x00012109   Thumb Code    48  QtMultimediaKit.in(.text)
    QAudioCaptureSource::audioDescription(const QString&) const 0x00012139   Thumb Code    24  QtMultimediaKit.in(.text)
    QAudioCaptureSource::defaultAudioInput() const 0x00012151   Thumb Code    24  QtMultimediaKit.in(.text)
    QAudioCaptureSource::activeAudioInput() const 0x00012169   Thumb Code    24  QtMultimediaKit.in(.text)
    QMediaContainerControl::getStaticMetaObject() 0x000121b5   Thumb Code     4  QtMultimediaKit.in(.text)
    QMediaContainerControl::metaObject() const 0x000121b9   Thumb Code    12  QtMultimediaKit.in(.text)
    QMediaContainerControl::qt_metacast(const char*) 0x000121c5   Thumb Code    40  QtMultimediaKit.in(.text)
    QMediaContainerControl::qt_metacall(QMetaObject::Call, int, void**) 0x000121ed   Thumb Code     8  QtMultimediaKit.in(.text)
    QMediaContainerControl::~QMediaContainerControl() 0x000121f5   Thumb Code     0  QtMultimediaKit.in(.text)
    QMediaContainerControl::~QMediaContainerControl__sub_object() 0x000121f5   Thumb Code     8  QtMultimediaKit.in(.text)
    QMediaContainerControl::~QMediaContainerControl__deallocating() 0x000121fd   Thumb Code    16  QtMultimediaKit.in(.text)
    QMediaContainerControl::QMediaContainerControl__sub_object(QObject*) 0x0001220d   Thumb Code    12  QtMultimediaKit.in(.text)
    QMediaPlaylistControl::getStaticMetaObject() 0x00012221   Thumb Code     4  QtMultimediaKit.in(.text)
    QMediaPlaylistControl::metaObject() const 0x00012225   Thumb Code    12  QtMultimediaKit.in(.text)
    QMediaPlaylistControl::qt_metacast(const char*) 0x00012231   Thumb Code    40  QtMultimediaKit.in(.text)
    QMediaPlaylistControl::playbackModeChanged(QMediaPlaylist::PlaybackMode) 0x00012259   Thumb Code    30  QtMultimediaKit.in(.text)
    QMediaPlaylistControl::currentMediaChanged(const QMediaContent&) 0x00012277   Thumb Code    24  QtMultimediaKit.in(.text)
    QMediaPlaylistControl::currentIndexChanged(int) 0x0001228f   Thumb Code    28  QtMultimediaKit.in(.text)
    QMediaPlaylistControl::playlistProviderChanged() 0x000122ab   Thumb Code    14  QtMultimediaKit.in(.text)
    QMediaPlaylistControl::qt_metacall(QMetaObject::Call, int, void**) 0x000122b9   Thumb Code    82  QtMultimediaKit.in(.text)
    QMediaPlaylistControl::~QMediaPlaylistControl() 0x0001230b   Thumb Code     0  QtMultimediaKit.in(.text)
    QMediaPlaylistControl::~QMediaPlaylistControl__sub_object() 0x0001230b   Thumb Code     8  QtMultimediaKit.in(.text)
    QMediaPlaylistControl::~QMediaPlaylistControl__deallocating() 0x00012313   Thumb Code    16  QtMultimediaKit.in(.text)
    QMediaPlaylistControl::QMediaPlaylistControl__sub_object(QObject*) 0x00012323   Thumb Code    40  QtMultimediaKit.in(.text)
    QMediaPlaylistSourceControl::getStaticMetaObject() 0x00012359   Thumb Code     4  QtMultimediaKit.in(.text)
    QMediaPlaylistSourceControl::metaObject() const 0x0001235d   Thumb Code    12  QtMultimediaKit.in(.text)
    QMediaPlaylistSourceControl::qt_metacast(const char*) 0x00012369   Thumb Code    40  QtMultimediaKit.in(.text)
    QMediaPlaylistSourceControl::playlistChanged(QMediaPlaylist*) 0x00012391   Thumb Code    28  QtMultimediaKit.in(.text)
    QMediaPlaylistSourceControl::qt_metacall(QMetaObject::Call, int, void**) 0x000123ad   Thumb Code    40  QtMultimediaKit.in(.text)
    QMediaPlaylistSourceControl::~QMediaPlaylistSourceControl() 0x000123d5   Thumb Code     0  QtMultimediaKit.in(.text)
    QMediaPlaylistSourceControl::~QMediaPlaylistSourceControl__sub_object() 0x000123d5   Thumb Code     8  QtMultimediaKit.in(.text)
    QMediaPlaylistSourceControl::~QMediaPlaylistSourceControl__deallocating() 0x000123dd   Thumb Code    16  QtMultimediaKit.in(.text)
    QMediaPlaylistSourceControl::QMediaPlaylistSourceControl__sub_object(QObject*) 0x000123ed   Thumb Code    40  QtMultimediaKit.in(.text)
    QAudioEndpointSelector::getStaticMetaObject() 0x00012421   Thumb Code     4  QtMultimediaKit.in(.text)
    QAudioEndpointSelector::metaObject() const 0x00012425   Thumb Code    12  QtMultimediaKit.in(.text)
    QAudioEndpointSelector::qt_metacast(const char*) 0x00012431   Thumb Code    40  QtMultimediaKit.in(.text)
    QAudioEndpointSelector::availableEndpointsChanged() 0x00012459   Thumb Code    14  QtMultimediaKit.in(.text)
    QAudioEndpointSelector::activeEndpointChanged(const QString&) 0x00012467   Thumb Code    22  QtMultimediaKit.in(.text)
    QAudioEndpointSelector::qt_metacall(QMetaObject::Call, int, void**) 0x0001247d   Thumb Code    66  QtMultimediaKit.in(.text)
    QAudioEndpointSelector::~QAudioEndpointSelector() 0x000124bf   Thumb Code     0  QtMultimediaKit.in(.text)
    QAudioEndpointSelector::~QAudioEndpointSelector__sub_object() 0x000124bf   Thumb Code     8  QtMultimediaKit.in(.text)
    QAudioEndpointSelector::~QAudioEndpointSelector__deallocating() 0x000124c7   Thumb Code    16  QtMultimediaKit.in(.text)
    QAudioEndpointSelector::QAudioEndpointSelector__sub_object(QObject*) 0x000124d7   Thumb Code    12  QtMultimediaKit.in(.text)
    QVideoDeviceControl::getStaticMetaObject() 0x000124ed   Thumb Code     4  QtMultimediaKit.in(.text)
    QVideoDeviceControl::metaObject() const  0x000124f1   Thumb Code    12  QtMultimediaKit.in(.text)
    QVideoDeviceControl::qt_metacast(const char*) 0x000124fd   Thumb Code    40  QtMultimediaKit.in(.text)
    QVideoDeviceControl::devicesChanged()    0x00012525   Thumb Code    14  QtMultimediaKit.in(.text)
    QVideoDeviceControl::selectedDeviceChanged(const QString&) 0x00012533   Thumb Code    24  QtMultimediaKit.in(.text)
    QVideoDeviceControl::selectedDeviceChanged(int) 0x0001254b   Thumb Code    28  QtMultimediaKit.in(.text)
    QVideoDeviceControl::qt_metacall(QMetaObject::Call, int, void**) 0x00012567   Thumb Code    84  QtMultimediaKit.in(.text)
    QVideoDeviceControl::~QVideoDeviceControl() 0x000125bb   Thumb Code     0  QtMultimediaKit.in(.text)
    QVideoDeviceControl::~QVideoDeviceControl__sub_object() 0x000125bb   Thumb Code     8  QtMultimediaKit.in(.text)
    QVideoDeviceControl::~QVideoDeviceControl__deallocating() 0x000125c3   Thumb Code    16  QtMultimediaKit.in(.text)
    QVideoDeviceControl::QVideoDeviceControl__sub_object(QObject*) 0x000125d3   Thumb Code    12  QtMultimediaKit.in(.text)
    DirChecker::~DirChecker()                0x0001265f   Thumb Code    12  QtMultimediaKit.in(.text)
    DirChecker::~DirChecker__sub_object()    0x0001265f   Thumb Code     0  QtMultimediaKit.in(.text)
    DirChecker::checkDir(const QDir&)        0x0001266b   Thumb Code    76  QtMultimediaKit.in(.text)
    DirChecker::DirChecker()                 0x000126b7   Thumb Code    24  QtMultimediaKit.in(.text)
    DirChecker::DirChecker__sub_object()     0x000126b7   Thumb Code     0  QtMultimediaKit.in(.text)
    QMediaPluginLoader::availablePlugins() const 0x000126cf   Thumb Code   312  QtMultimediaKit.in(.text)
    QMediaPluginLoader::load()               0x00012807   Thumb Code   598  QtMultimediaKit.in(.text)
    QMediaPluginLoader::QMediaPluginLoader(const char*, const QString&, Qt::CaseSensitivity) 0x00012a5d   Thumb Code   112  QtMultimediaKit.in(.text)
    QMediaPluginLoader::QMediaPluginLoader__sub_object(const char*, const QString&, Qt::CaseSensitivity) 0x00012a5d   Thumb Code     0  QtMultimediaKit.in(.text)
    QMediaPluginLoader::keys() const         0x00012acd   Thumb Code    28  QtMultimediaKit.in(.text)
    QMediaPluginLoader::instance(const QString&) 0x00012ae9   Thumb Code    36  QtMultimediaKit.in(.text)
    QMediaPluginLoader::instances(const QString&) 0x00012b0d   Thumb Code    10  QtMultimediaKit.in(.text)
    QMediaPluginLoader::setStaticPlugins(const QString&, const QList<QObject*>&) 0x00012b17   Thumb Code    74  QtMultimediaKit.in(.text)
    QVideoSurfacePainter::~QVideoSurfacePainter() 0x00012b6d   Thumb Code     0  QtMultimediaKit.in(.text)
    QVideoSurfacePainter::~QVideoSurfacePainter__sub_object() 0x00012b6d   Thumb Code     2  QtMultimediaKit.in(.text)
    QVideoSurfacePainter::~QVideoSurfacePainter__deallocating() 0x00012b6f   Thumb Code    12  QtMultimediaKit.in(.text)
    QPainterVideoSurface::getStaticMetaObject() 0x00012b7b   Thumb Code     4  QtMultimediaKit.in(.text)
    QPainterVideoSurface::metaObject() const 0x00012b7f   Thumb Code    12  QtMultimediaKit.in(.text)
    QPainterVideoSurface::qt_metacast(const char*) 0x00012b8b   Thumb Code    40  QtMultimediaKit.in(.text)
    QPainterVideoSurface::viewportDestroyed() 0x00012bb3   Thumb Code    50  QtMultimediaKit.in(.text)
    QPainterVideoSurface::frameChanged()     0x00012be5   Thumb Code    14  QtMultimediaKit.in(.text)
    QPainterVideoSurface::qt_metacall(QMetaObject::Call, int, void**) 0x00012bf3   Thumb Code    46  QtMultimediaKit.in(.text)
    QPainterVideoSurface::QPainterVideoSurface(QObject*) 0x00012c21   Thumb Code    50  QtMultimediaKit.in(.text)
    QPainterVideoSurface::QPainterVideoSurface__sub_object(QObject*) 0x00012c21   Thumb Code     0  QtMultimediaKit.in(.text)
    QPainterVideoSurface::~QPainterVideoSurface() 0x00012c53   Thumb Code    46  QtMultimediaKit.in(.text)
    QPainterVideoSurface::~QPainterVideoSurface__sub_object() 0x00012c53   Thumb Code     0  QtMultimediaKit.in(.text)
    QPainterVideoSurface::~QPainterVideoSurface__deallocating() 0x00012c81   Thumb Code    16  QtMultimediaKit.in(.text)
    QVideoSurfaceGenericPainter::QVideoSurfaceGenericPainter() 0x00012c91   Thumb Code    88  QtMultimediaKit.in(.text)
    QVideoSurfaceGenericPainter::QVideoSurfaceGenericPainter__sub_object() 0x00012c91   Thumb Code     0  QtMultimediaKit.in(.text)
    QPainterVideoSurface::createPainter()    0x00012ce9   Thumb Code    28  QtMultimediaKit.in(.text)
    QPainterVideoSurface::supportedPixelFormats(QAbstractVideoBuffer::HandleType) const 0x00012d05   Thumb Code    34  QtMultimediaKit.in(.text)
    QPainterVideoSurface::isFormatSupported(const QVideoSurfaceFormat&, QVideoSurfaceFormat*) const 0x00012d27   Thumb Code    34  QtMultimediaKit.in(.text)
    QPainterVideoSurface::start(const QVideoSurfaceFormat&) 0x00012d49   Thumb Code   134  QtMultimediaKit.in(.text)
    QPainterVideoSurface::stop()             0x00012dcf   Thumb Code    34  QtMultimediaKit.in(.text)
    QPainterVideoSurface::present(const QVideoFrame&) 0x00012df1   Thumb Code   136  QtMultimediaKit.in(.text)
    QPainterVideoSurface::brightness() const 0x00012e79   Thumb Code     4  QtMultimediaKit.in(.text)
    QPainterVideoSurface::setBrightness(int) 0x00012e7d   Thumb Code    10  QtMultimediaKit.in(.text)
    QPainterVideoSurface::contrast() const   0x00012e87   Thumb Code     4  QtMultimediaKit.in(.text)
    QPainterVideoSurface::setContrast(int)   0x00012e8b   Thumb Code    10  QtMultimediaKit.in(.text)
    QPainterVideoSurface::hue() const        0x00012e95   Thumb Code     4  QtMultimediaKit.in(.text)
    QPainterVideoSurface::setHue(int)        0x00012e99   Thumb Code    10  QtMultimediaKit.in(.text)
    QPainterVideoSurface::saturation() const 0x00012ea3   Thumb Code     4  QtMultimediaKit.in(.text)
    QPainterVideoSurface::setSaturation(int) 0x00012ea7   Thumb Code    10  QtMultimediaKit.in(.text)
    QPainterVideoSurface::isReady() const    0x00012eb1   Thumb Code     6  QtMultimediaKit.in(.text)
    QPainterVideoSurface::setReady(bool)     0x00012eb7   Thumb Code     6  QtMultimediaKit.in(.text)
    QPainterVideoSurface::paint(QPainter*, const QRectF&, const QRectF&) 0x00012ebd   Thumb Code   230  QtMultimediaKit.in(.text)
    QVideoSurfaceGenericPainter::supportedPixelFormats(QAbstractVideoBuffer::HandleType) const 0x00012fa3   Thumb Code    44  QtMultimediaKit.in(.text)
    QVideoSurfaceGenericPainter::isFormatSupported(const QVideoSurfaceFormat&, QVideoSurfaceFormat*) const 0x00012fcf   Thumb Code   124  QtMultimediaKit.in(.text)
    QVideoSurfaceGenericPainter::start(const QVideoSurfaceFormat&) 0x0001304b   Thumb Code   100  QtMultimediaKit.in(.text)
    QVideoSurfaceGenericPainter::stop()      0x000130af   Thumb Code    28  QtMultimediaKit.in(.text)
    QVideoSurfaceGenericPainter::setCurrentFrame(const QVideoFrame&) 0x000130cb   Thumb Code    12  QtMultimediaKit.in(.text)
    QVideoSurfaceGenericPainter::paint(const QRectF&, QPainter*, const QRectF&) 0x000130d7   Thumb Code   426  QtMultimediaKit.in(.text)
    QVideoSurfaceGenericPainter::updateColors(int, int, int, int) 0x00013281   Thumb Code     2  QtMultimediaKit.in(.text)
    QVideoRendererControl::getStaticMetaObject() 0x0001328d   Thumb Code     4  QtMultimediaKit.in(.text)
    QVideoRendererControl::metaObject() const 0x00013291   Thumb Code    12  QtMultimediaKit.in(.text)
    QVideoRendererControl::qt_metacast(const char*) 0x0001329d   Thumb Code    40  QtMultimediaKit.in(.text)
    QVideoRendererControl::qt_metacall(QMetaObject::Call, int, void**) 0x000132c5   Thumb Code     8  QtMultimediaKit.in(.text)
    QVideoRendererControl::~QVideoRendererControl() 0x000132cd   Thumb Code     0  QtMultimediaKit.in(.text)
    QVideoRendererControl::~QVideoRendererControl__sub_object() 0x000132cd   Thumb Code     8  QtMultimediaKit.in(.text)
    QVideoRendererControl::~QVideoRendererControl__deallocating() 0x000132d5   Thumb Code    16  QtMultimediaKit.in(.text)
    QVideoRendererControl::QVideoRendererControl__sub_object(QObject*) 0x000132e5   Thumb Code    12  QtMultimediaKit.in(.text)
    QMediaTimeInterval::end() const          0x000132f9   Thumb Code     8  QtMultimediaKit.in(.text)
    QMediaTimeInterval::start() const        0x00013301   Thumb Code     8  QtMultimediaKit.in(.text)
    operator ==(const QMediaTimeInterval&, const QMediaTimeInterval&) 0x00013309   Thumb Code    40  QtMultimediaKit.in(.text)
    operator !=(const QMediaTimeInterval&, const QMediaTimeInterval&) 0x00013331   Thumb Code    40  QtMultimediaKit.in(.text)
    QMediaTimeInterval::QMediaTimeInterval(const QMediaTimeInterval&) 0x00013359   Thumb Code    18  QtMultimediaKit.in(.text)
    QMediaTimeInterval::QMediaTimeInterval__sub_object(const QMediaTimeInterval&) 0x00013359   Thumb Code     0  QtMultimediaKit.in(.text)
    QMediaTimeRange::intervals() const       0x0001336b   Thumb Code    12  QtMultimediaKit.in(.text)
    operator ==(const QMediaTimeRange&, const QMediaTimeRange&) 0x00013377   Thumb Code   170  QtMultimediaKit.in(.text)
    operator !=(const QMediaTimeRange&, const QMediaTimeRange&) 0x00013421   Thumb Code    12  QtMultimediaKit.in(.text)
    QMediaTimeRange::~QMediaTimeRange()      0x0001342d   Thumb Code     8  QtMultimediaKit.in(.text)
    QMediaTimeRange::~QMediaTimeRange__sub_object() 0x0001342d   Thumb Code     0  QtMultimediaKit.in(.text)
    QMediaTimeRange::QMediaTimeRange(const QMediaTimeRange&) 0x00013435   Thumb Code    20  QtMultimediaKit.in(.text)
    QMediaTimeRange::QMediaTimeRange__sub_object(const QMediaTimeRange&) 0x00013435   Thumb Code     0  QtMultimediaKit.in(.text)
    QMediaTimeRangePrivate::QMediaTimeRangePrivate(const QMediaTimeRangePrivate&) 0x00013449   Thumb Code    18  QtMultimediaKit.in(.text)
    QMediaTimeRangePrivate::QMediaTimeRangePrivate__sub_object(const QMediaTimeRangePrivate&) 0x00013449   Thumb Code     0  QtMultimediaKit.in(.text)
    QMediaTimeInterval::isNormal() const     0x0001345b   Thumb Code    18  QtMultimediaKit.in(.text)
    QMediaTimeRangePrivate::addInterval(const QMediaTimeInterval&) 0x0001346d   Thumb Code   318  QtMultimediaKit.in(.text)
    QMediaTimeRange::addTimeRange(const QMediaTimeRange&) 0x000135ab   Thumb Code    88  QtMultimediaKit.in(.text)
    QMediaTimeRange::operator +=(const QMediaTimeRange&) 0x00013603   Thumb Code    12  QtMultimediaKit.in(.text)
    operator +(const QMediaTimeRange&, const QMediaTimeRange&) 0x0001360f   Thumb Code    34  QtMultimediaKit.in(.text)
    QMediaTimeInterval::QMediaTimeInterval(long long, long long) 0x00013631   Thumb Code    16  QtMultimediaKit.in(.text)
    QMediaTimeInterval::QMediaTimeInterval__sub_object(long long, long long) 0x00013631   Thumb Code     0  QtMultimediaKit.in(.text)
    QMediaTimeRangePrivate::removeInterval(const QMediaTimeInterval&) 0x00013641   Thumb Code   264  QtMultimediaKit.in(.text)
    QMediaTimeRange::removeTimeRange(const QMediaTimeRange&) 0x00013749   Thumb Code    88  QtMultimediaKit.in(.text)
    QMediaTimeRange::operator -=(const QMediaTimeRange&) 0x000137a1   Thumb Code    12  QtMultimediaKit.in(.text)
    operator -(const QMediaTimeRange&, const QMediaTimeRange&) 0x000137ad   Thumb Code    34  QtMultimediaKit.in(.text)
    QMediaTimeInterval::QMediaTimeInterval() 0x000137cf   Thumb Code    12  QtMultimediaKit.in(.text)
    QMediaTimeInterval::QMediaTimeInterval__sub_object() 0x000137cf   Thumb Code     0  QtMultimediaKit.in(.text)
    QMediaTimeInterval::contains(long long) const 0x000137db   Thumb Code    72  QtMultimediaKit.in(.text)
    QMediaTimeInterval::normalized() const   0x00013823   Thumb Code    48  QtMultimediaKit.in(.text)
    QMediaTimeInterval::translated(long long) const 0x00013853   Thumb Code    44  QtMultimediaKit.in(.text)
    QMediaTimeRangePrivate::QMediaTimeRangePrivate() 0x0001387f   Thumb Code    16  QtMultimediaKit.in(.text)
    QMediaTimeRangePrivate::QMediaTimeRangePrivate__sub_object() 0x0001387f   Thumb Code     0  QtMultimediaKit.in(.text)
    QMediaTimeRange::QMediaTimeRange()       0x0001388f   Thumb Code    42  QtMultimediaKit.in(.text)
    QMediaTimeRange::QMediaTimeRange__sub_object() 0x0001388f   Thumb Code     0  QtMultimediaKit.in(.text)
    QMediaTimeRangePrivate::QMediaTimeRangePrivate(const QMediaTimeInterval&) 0x000138b9   Thumb Code    38  QtMultimediaKit.in(.text)
    QMediaTimeRangePrivate::QMediaTimeRangePrivate__sub_object(const QMediaTimeInterval&) 0x000138b9   Thumb Code     0  QtMultimediaKit.in(.text)
    QMediaTimeRange::QMediaTimeRange(long long, long long) 0x000138df   Thumb Code    64  QtMultimediaKit.in(.text)
    QMediaTimeRange::QMediaTimeRange__sub_object(long long, long long) 0x000138df   Thumb Code     0  QtMultimediaKit.in(.text)
    QMediaTimeRange::QMediaTimeRange(const QMediaTimeInterval&) 0x0001391f   Thumb Code    46  QtMultimediaKit.in(.text)
    QMediaTimeRange::QMediaTimeRange__sub_object(const QMediaTimeInterval&) 0x0001391f   Thumb Code     0  QtMultimediaKit.in(.text)
    QMediaTimeRange::operator =(const QMediaTimeRange&) 0x0001394d   Thumb Code    56  QtMultimediaKit.in(.text)
    QMediaTimeRange::operator =(const QMediaTimeInterval&) 0x00013985   Thumb Code    90  QtMultimediaKit.in(.text)
    QMediaTimeRange::earliestTime() const    0x000139df   Thumb Code    40  QtMultimediaKit.in(.text)
    QMediaTimeRange::latestTime() const      0x00013a07   Thumb Code    48  QtMultimediaKit.in(.text)
    QMediaTimeRange::isEmpty() const         0x00013a37   Thumb Code    12  QtMultimediaKit.in(.text)
    QMediaTimeRange::isContinuous() const    0x00013a43   Thumb Code    22  QtMultimediaKit.in(.text)
    QMediaTimeRange::contains(long long) const 0x00013a59   Thumb Code    78  QtMultimediaKit.in(.text)
    QMediaTimeRange::addInterval(long long, long long) 0x00013aa7   Thumb Code    38  QtMultimediaKit.in(.text)
    QMediaTimeRange::addInterval(const QMediaTimeInterval&) 0x00013acd   Thumb Code    16  QtMultimediaKit.in(.text)
    QMediaTimeRange::removeInterval(long long, long long) 0x00013add   Thumb Code    36  QtMultimediaKit.in(.text)
    QMediaTimeRange::removeInterval(const QMediaTimeInterval&) 0x00013b01   Thumb Code    16  QtMultimediaKit.in(.text)
    QMediaTimeRange::operator +=(const QMediaTimeInterval&) 0x00013b11   Thumb Code    12  QtMultimediaKit.in(.text)
    QMediaTimeRange::operator -=(const QMediaTimeInterval&) 0x00013b1d   Thumb Code    12  QtMultimediaKit.in(.text)
    QMediaTimeRange::clear()                 0x00013b29   Thumb Code    68  QtMultimediaKit.in(.text)
    QCamera::getStaticMetaObject()           0x00013b6d   Thumb Code     4  QtMultimediaKit.in(.text)
    QCamera::metaObject() const              0x00013b71   Thumb Code    12  QtMultimediaKit.in(.text)
    QCamera::qt_metacast(const char*)        0x00013b7d   Thumb Code    38  QtMultimediaKit.in(.text)
    QCameraPrivate::_q_preparePropertyChange(int) 0x00013ba3   Thumb Code   128  QtMultimediaKit.in(.text)
    QCamera::captureMode() const             0x00013c23   Thumb Code    18  QtMultimediaKit.in(.text)
    QCamera::setCaptureMode(QCamera::CaptureMode) 0x00013c35   Thumb Code    40  QtMultimediaKit.in(.text)
    QCamera::lockStatus() const              0x00013c5d   Thumb Code     6  QtMultimediaKit.in(.text)
    QCamera::status() const                  0x00013c63   Thumb Code    18  QtMultimediaKit.in(.text)
    QCamera::state() const                   0x00013c75   Thumb Code     6  QtMultimediaKit.in(.text)
    QCamera::stateChanged(QCamera::State)    0x00013c7b   Thumb Code    28  QtMultimediaKit.in(.text)
    QCameraPrivate::_q_updateState(QCamera::State) 0x00013c97   Thumb Code    72  QtMultimediaKit.in(.text)
    QCamera::lockStatusChanged(QCamera::LockType, QCamera::LockStatus, QCamera::LockChangeReason) 0x00013cdf   Thumb Code    40  QtMultimediaKit.in(.text)
    QCamera::lockFailed()                    0x00013d07   Thumb Code    14  QtMultimediaKit.in(.text)
    QCamera::locked()                        0x00013d15   Thumb Code    14  QtMultimediaKit.in(.text)
    QCamera::lockStatusChanged(QCamera::LockStatus, QCamera::LockChangeReason) 0x00013d23   Thumb Code    36  QtMultimediaKit.in(.text)
    QCamera::lockStatus(QCamera::LockType) const 0x00013d47   Thumb Code    44  QtMultimediaKit.in(.text)
    QCameraPrivate::updateLockStatus()       0x00013d73   Thumb Code   542  QtMultimediaKit.in(.text)
    QCameraPrivate::_q_updateLockStatus(QCamera::LockType, QCamera::LockStatus, QCamera::LockChangeReason) 0x00013f91   Thumb Code    30  QtMultimediaKit.in(.text)
    QCamera::error(QCamera::Error)           0x00013faf   Thumb Code    28  QtMultimediaKit.in(.text)
    QCameraPrivate::_q_error(int, const QString&) 0x00013fcb   Thumb Code    78  QtMultimediaKit.in(.text)
    QCameraPrivate::_q_restartCamera()       0x00014019   Thumb Code    26  QtMultimediaKit.in(.text)
    QCamera::unlock(QFlags<QCamera::LockType>) 0x00014033   Thumb Code    68  QtMultimediaKit.in(.text)
    QCamera::searchAndLock(QFlags<QCamera::LockType>) 0x00014077   Thumb Code    64  QtMultimediaKit.in(.text)
    QCamera::unlock()                        0x000140b7   Thumb Code    16  QtMultimediaKit.in(.text)
    QCamera::searchAndLock()                 0x000140c7   Thumb Code    22  QtMultimediaKit.in(.text)
    QCameraPrivate::setState(QCamera::State) 0x000140dd   Thumb Code   110  QtMultimediaKit.in(.text)
    QCamera::stop()                          0x0001414b   Thumb Code     6  QtMultimediaKit.in(.text)
    QCamera::start()                         0x00014151   Thumb Code     6  QtMultimediaKit.in(.text)
    QCamera::unload()                        0x00014157   Thumb Code     6  QtMultimediaKit.in(.text)
    QCamera::load()                          0x0001415d   Thumb Code     6  QtMultimediaKit.in(.text)
    QCamera::statusChanged(QCamera::Status)  0x00014163   Thumb Code    28  QtMultimediaKit.in(.text)
    QCamera::captureModeChanged(QCamera::CaptureMode) 0x0001417f   Thumb Code    28  QtMultimediaKit.in(.text)
    QCamera::qt_metacall(QMetaObject::Call, int, void**) 0x0001419b   Thumb Code   414  QtMultimediaKit.in(.text)
    QCameraPrivate::initControls()           0x00014339   Thumb Code   518  QtMultimediaKit.in(.text)
    QCamera::QCamera(QObject*, QMediaServiceProvider*) 0x0001453f   Thumb Code   182  QtMultimediaKit.in(.text)
    QCamera::QCamera__sub_object(QObject*, QMediaServiceProvider*) 0x0001453f   Thumb Code     0  QtMultimediaKit.in(.text)
    QCamera::QCamera(const QByteArray&, QObject*) 0x000145f5   Thumb Code   328  QtMultimediaKit.in(.text)
    QCamera::QCamera__sub_object(const QByteArray&, QObject*) 0x000145f5   Thumb Code     0  QtMultimediaKit.in(.text)
    QCamera::~QCamera()                      0x0001473d   Thumb Code   104  QtMultimediaKit.in(.text)
    QCamera::~QCamera__sub_object()          0x0001473d   Thumb Code     0  QtMultimediaKit.in(.text)
    QCamera::~QCamera__deallocating()        0x000147a5   Thumb Code    16  QtMultimediaKit.in(.text)
    QCamera::availableDevices()              0x000147b5   Thumb Code    38  QtMultimediaKit.in(.text)
    QCamera::deviceDescription(const QByteArray&) 0x000147db   Thumb Code    42  QtMultimediaKit.in(.text)
    QCamera::isAvailable() const             0x00014805   Thumb Code    16  QtMultimediaKit.in(.text)
    QCamera::availabilityError() const       0x00014815   Thumb Code    24  QtMultimediaKit.in(.text)
    QCamera::isCaptureModeSupported(QCamera::CaptureMode) const 0x0001482d   Thumb Code    18  QtMultimediaKit.in(.text)
    QCamera::exposure() const                0x0001483f   Thumb Code     6  QtMultimediaKit.in(.text)
    QCamera::focus() const                   0x00014845   Thumb Code     6  QtMultimediaKit.in(.text)
    QCamera::imageProcessing() const         0x0001484b   Thumb Code     6  QtMultimediaKit.in(.text)
    QCamera::setViewfinder(QVideoWidget*)    0x00014851   Thumb Code   152  QtMultimediaKit.in(.text)
    QCamera::setViewfinder(QGraphicsVideoItem*) 0x000148e9   Thumb Code    54  QtMultimediaKit.in(.text)
    QCamera::error() const                   0x0001491f   Thumb Code     6  QtMultimediaKit.in(.text)
    QCamera::errorString() const             0x00014925   Thumb Code    16  QtMultimediaKit.in(.text)
    QCamera::supportedLocks() const          0x00014935   Thumb Code     8  QtMultimediaKit.in(.text)
    QCamera::requestedLocks() const          0x0001493d   Thumb Code     8  QtMultimediaKit.in(.text)
    QCameraViewfinder::getStaticMetaObject() 0x00014a01   Thumb Code     4  QtMultimediaKit.in(.text)
    QCameraViewfinder::metaObject() const    0x00014a05   Thumb Code    12  QtMultimediaKit.in(.text)
    QCameraViewfinder::qt_metacast(const char*) 0x00014a11   Thumb Code    40  QtMultimediaKit.in(.text)
    QCameraViewfinder::qt_metacall(QMetaObject::Call, int, void**) 0x00014a39   Thumb Code     8  QtMultimediaKit.in(.text)
    QCameraViewfinder::QCameraViewfinder(QWidget*) 0x00014a41   Thumb Code    94  QtMultimediaKit.in(.text)
    QCameraViewfinder::QCameraViewfinder__sub_object(QWidget*) 0x00014a41   Thumb Code     0  QtMultimediaKit.in(.text)
    QCameraViewfinder::~QCameraViewfinder()  0x00014a9f   Thumb Code     8  QtMultimediaKit.in(.text)
    QCameraViewfinder::~QCameraViewfinder__sub_object() 0x00014a9f   Thumb Code     0  QtMultimediaKit.in(.text)
    QCameraViewfinder::~QCameraViewfinder__deallocating() 0x00014aa7   Thumb Code    16  QtMultimediaKit.in(.text)
    thunk{-20} to QCameraViewfinder::~QCameraViewfinder__deallocating() 0x00014ab7   Thumb Code     4  QtMultimediaKit.in(.text)
    thunk{-8} to QCameraViewfinder::~QCameraViewfinder__deallocating() 0x00014abb   Thumb Code     4  QtMultimediaKit.in(.text)
    thunk{-20} to QCameraViewfinder::~QCameraViewfinder() 0x00014abf   Thumb Code     4  QtMultimediaKit.in(.text)
    thunk{-8} to QCameraViewfinder::~QCameraViewfinder() 0x00014ac3   Thumb Code     4  QtMultimediaKit.in(.text)
    QCameraViewfinder::mediaObject() const   0x00014ac7   Thumb Code     8  QtMultimediaKit.in(.text)
    thunk{-20} to QCameraViewfinder::mediaObject() const 0x00014acf   Thumb Code     4  QtMultimediaKit.in(.text)
    QCameraViewfinder::setMediaObject(QMediaObject*) 0x00014ad3   Thumb Code     8  QtMultimediaKit.in(.text)
    thunk{-20} to QCameraViewfinder::setMediaObject(QMediaObject*) 0x00014adb   Thumb Code     4  QtMultimediaKit.in(.text)
    QCameraExposure::getStaticMetaObject()   0x00014ae9   Thumb Code     4  QtMultimediaKit.in(.text)
    QCameraExposure::metaObject() const      0x00014aed   Thumb Code    12  QtMultimediaKit.in(.text)
    QCameraExposure::qt_metacast(const char*) 0x00014af9   Thumb Code    38  QtMultimediaKit.in(.text)
    QCameraExposure::setMeteringMode(QCameraExposure::MeteringMode) 0x00014b1f   Thumb Code    16  QtMultimediaKit.in(.text)
    QCameraExposure::setExposureMode(QCameraExposure::ExposureMode) 0x00014b2f   Thumb Code    16  QtMultimediaKit.in(.text)
    QCameraExposure::setFlashMode(QFlags<QCameraExposure::FlashMode>) 0x00014b3f   Thumb Code    24  QtMultimediaKit.in(.text)
    QCameraExposure::setExposureCompensation(float) 0x00014b57   Thumb Code    36  QtMultimediaKit.in(.text)
    QCameraExposure::meteringMode() const    0x00014b7b   Thumb Code    18  QtMultimediaKit.in(.text)
    QCameraExposure::exposureMode() const    0x00014b8d   Thumb Code    18  QtMultimediaKit.in(.text)
    QCameraExposure::flashMode() const       0x00014b9f   Thumb Code    36  QtMultimediaKit.in(.text)
    QCameraExposure::isFlashReady() const    0x00014bc3   Thumb Code    18  QtMultimediaKit.in(.text)
    QCameraExposure::exposureCompensation() const 0x00014bd5   Thumb Code    46  QtMultimediaKit.in(.text)
    QCameraExposure::isoSensitivity() const  0x00014c03   Thumb Code    46  QtMultimediaKit.in(.text)
    QCameraExposure::shutterSpeed() const    0x00014c31   Thumb Code    44  QtMultimediaKit.in(.text)
    QCameraExposure::aperture() const        0x00014c5d   Thumb Code    44  QtMultimediaKit.in(.text)
    QCameraExposure::shutterSpeedRangeChanged() 0x00014c89   Thumb Code    14  QtMultimediaKit.in(.text)
    QCameraExposure::apertureRangeChanged()  0x00014c97   Thumb Code    14  QtMultimediaKit.in(.text)
    QCameraExposurePrivate::_q_exposureParameterRangeChanged(int) 0x00014ca5   Thumb Code    16  QtMultimediaKit.in(.text)
    QCameraExposure::exposureCompensationChanged(float) 0x00014cb5   Thumb Code    30  QtMultimediaKit.in(.text)
    QCameraExposure::shutterSpeedChanged(float) 0x00014cd3   Thumb Code    28  QtMultimediaKit.in(.text)
    QCameraExposure::apertureChanged(float)  0x00014cef   Thumb Code    28  QtMultimediaKit.in(.text)
    QCameraExposure::isoSensitivityChanged(int) 0x00014d0b   Thumb Code    28  QtMultimediaKit.in(.text)
    QCameraExposurePrivate::_q_exposureParameterChanged(int) 0x00014d27   Thumb Code    84  QtMultimediaKit.in(.text)
    QCameraExposure::setAutoShutterSpeed()   0x00014d7b   Thumb Code    36  QtMultimediaKit.in(.text)
    QCameraExposure::setManualShutterSpeed(float) 0x00014d9f   Thumb Code    36  QtMultimediaKit.in(.text)
    QCameraExposure::setAutoAperture()       0x00014dc3   Thumb Code    36  QtMultimediaKit.in(.text)
    QCameraExposure::setManualAperture(float) 0x00014de7   Thumb Code    36  QtMultimediaKit.in(.text)
    QCameraExposure::setAutoIsoSensitivity() 0x00014e0b   Thumb Code    36  QtMultimediaKit.in(.text)
    QCameraExposure::setManualIsoSensitivity(int) 0x00014e2f   Thumb Code    36  QtMultimediaKit.in(.text)
    QCameraExposure::flashReady(bool)        0x00014e53   Thumb Code    26  QtMultimediaKit.in(.text)
    QCameraExposure::qt_metacall(QMetaObject::Call, int, void**) 0x00014e6d   Thumb Code   468  QtMultimediaKit.in(.text)
    QCameraExposure::isAvailable() const     0x00015041   Thumb Code    16  QtMultimediaKit.in(.text)
    QCameraExposure::isFlashModeSupported(QFlags<QCameraExposure::FlashMode>) const 0x00015051   Thumb Code    28  QtMultimediaKit.in(.text)
    QCameraExposure::isExposureModeSupported(QCameraExposure::ExposureMode) const 0x0001506d   Thumb Code    18  QtMultimediaKit.in(.text)
    QCameraExposure::isMeteringModeSupported(QCameraExposure::MeteringMode) const 0x0001507f   Thumb Code    18  QtMultimediaKit.in(.text)
    QCameraExposure::supportedIsoSensitivities(bool*) const 0x00015091   Thumb Code   230  QtMultimediaKit.in(.text)
    QCameraExposure::supportedApertures(bool*) const 0x00015177   Thumb Code   190  QtMultimediaKit.in(.text)
    QCameraExposure::supportedShutterSpeeds(bool*) const 0x00015235   Thumb Code   188  QtMultimediaKit.in(.text)
    QCameraExposurePrivate::initControls()   0x000152f1   Thumb Code   544  QtMultimediaKit.in(.text)
    QCameraExposure::QCameraExposure(QCamera*) 0x00015511   Thumb Code    34  QtMultimediaKit.in(.text)
    QCameraExposure::QCameraExposure__sub_object(QCamera*) 0x00015511   Thumb Code     0  QtMultimediaKit.in(.text)
    QCameraExposure::~QCameraExposure()      0x00015533   Thumb Code    40  QtMultimediaKit.in(.text)
    QCameraExposure::~QCameraExposure__sub_object() 0x00015533   Thumb Code     0  QtMultimediaKit.in(.text)
    QCameraExposure::~QCameraExposure__deallocating() 0x0001555b   Thumb Code    16  QtMultimediaKit.in(.text)
    QCameraFocusZone::QCameraFocusZone()     0x00015639   Thumb Code    42  QtMultimediaKit.in(.text)
    QCameraFocusZone::QCameraFocusZone__sub_object() 0x00015639   Thumb Code     0  QtMultimediaKit.in(.text)
    QCameraFocusZone::QCameraFocusZone(const QRectF&, QCameraFocusZone::FocusZoneStatus) 0x00015663   Thumb Code    54  QtMultimediaKit.in(.text)
    QCameraFocusZone::QCameraFocusZone__sub_object(const QRectF&, QCameraFocusZone::FocusZoneStatus) 0x00015663   Thumb Code     0  QtMultimediaKit.in(.text)
    QCameraFocusZone::QCameraFocusZone(const QCameraFocusZone&) 0x00015699   Thumb Code    20  QtMultimediaKit.in(.text)
    QCameraFocusZone::QCameraFocusZone__sub_object(const QCameraFocusZone&) 0x00015699   Thumb Code     0  QtMultimediaKit.in(.text)
    QCameraFocusZone::operator =(const QCameraFocusZone&) 0x000156ad   Thumb Code    52  QtMultimediaKit.in(.text)
    QCameraFocusZone::operator ==(const QCameraFocusZone&) const 0x000156e1   Thumb Code    96  QtMultimediaKit.in(.text)
    QCameraFocusZone::operator !=(const QCameraFocusZone&) const 0x00015741   Thumb Code    12  QtMultimediaKit.in(.text)
    QCameraFocusZone::~QCameraFocusZone()    0x0001574d   Thumb Code     8  QtMultimediaKit.in(.text)
    QCameraFocusZone::~QCameraFocusZone__sub_object() 0x0001574d   Thumb Code     0  QtMultimediaKit.in(.text)
    QCameraFocusZone::isValid() const        0x00015755   Thumb Code    40  QtMultimediaKit.in(.text)
    QCameraFocusZone::area() const           0x0001577d   Thumb Code    12  QtMultimediaKit.in(.text)
    QCameraFocusZone::status() const         0x00015789   Thumb Code     6  QtMultimediaKit.in(.text)
    QCameraFocusZone::setStatus(QCameraFocusZone::FocusZoneStatus) 0x0001578f   Thumb Code    30  QtMultimediaKit.in(.text)
    QCameraFocus::getStaticMetaObject()      0x000157ad   Thumb Code     4  QtMultimediaKit.in(.text)
    QCameraFocus::metaObject() const         0x000157b1   Thumb Code    12  QtMultimediaKit.in(.text)
    QCameraFocus::qt_metacast(const char*)   0x000157bd   Thumb Code    38  QtMultimediaKit.in(.text)
    QCameraFocus::setCustomFocusPoint(const QPointF&) 0x000157e3   Thumb Code    26  QtMultimediaKit.in(.text)
    QCameraFocus::setFocusPointMode(QCameraFocus::FocusPointMode) 0x000157fd   Thumb Code    26  QtMultimediaKit.in(.text)
    QCameraFocus::setFocusMode(QCameraFocus::FocusMode) 0x00015817   Thumb Code    16  QtMultimediaKit.in(.text)
    QCameraFocus::digitalZoom() const        0x00015827   Thumb Code    32  QtMultimediaKit.in(.text)
    QCameraFocus::opticalZoom() const        0x00015847   Thumb Code    32  QtMultimediaKit.in(.text)
    QCameraFocus::focusZones() const         0x00015867   Thumb Code    86  QtMultimediaKit.in(.text)
    QCameraFocus::customFocusPoint() const   0x000158bd   Thumb Code    24  QtMultimediaKit.in(.text)
    QCameraFocus::focusPointMode() const     0x000158d5   Thumb Code    18  QtMultimediaKit.in(.text)
    QCameraFocus::focusMode() const          0x000158e7   Thumb Code    18  QtMultimediaKit.in(.text)
    QCameraFocus::maximumDigitalZoomChanged(float) 0x000158f9   Thumb Code    30  QtMultimediaKit.in(.text)
    QCameraFocus::maximumOpticalZoomChanged(float) 0x00015917   Thumb Code    28  QtMultimediaKit.in(.text)
    QCameraFocus::focusZonesChanged()        0x00015933   Thumb Code    14  QtMultimediaKit.in(.text)
    QCameraFocus::digitalZoomChanged(float)  0x00015941   Thumb Code    28  QtMultimediaKit.in(.text)
    QCameraFocus::opticalZoomChanged(float)  0x0001595d   Thumb Code    26  QtMultimediaKit.in(.text)
    QCameraFocus::qt_metacall(QMetaObject::Call, int, void**) 0x00015977   Thumb Code   410  QtMultimediaKit.in(.text)
    QCameraFocus::isAvailable() const        0x00015b11   Thumb Code    16  QtMultimediaKit.in(.text)
    QCameraFocus::isFocusModeSupported(QCameraFocus::FocusMode) const 0x00015b21   Thumb Code    18  QtMultimediaKit.in(.text)
    QCameraFocus::isFocusPointModeSupported(QCameraFocus::FocusPointMode) const 0x00015b33   Thumb Code    18  QtMultimediaKit.in(.text)
    QCameraFocus::maximumOpticalZoom() const 0x00015b45   Thumb Code    32  QtMultimediaKit.in(.text)
    QCameraFocus::maximumDigitalZoom() const 0x00015b65   Thumb Code    32  QtMultimediaKit.in(.text)
    QCameraFocus::zoomTo(float, float)       0x00015b85   Thumb Code    26  QtMultimediaKit.in(.text)
    QCameraFocusPrivate::initControls()      0x00015b9f   Thumb Code   126  QtMultimediaKit.in(.text)
    QCameraFocus::QCameraFocus(QCamera*)     0x00015c1d   Thumb Code    70  QtMultimediaKit.in(.text)
    QCameraFocus::QCameraFocus__sub_object(QCamera*) 0x00015c1d   Thumb Code     0  QtMultimediaKit.in(.text)
    QCameraFocus::~QCameraFocus()            0x00015c63   Thumb Code     8  QtMultimediaKit.in(.text)
    QCameraFocus::~QCameraFocus__sub_object() 0x00015c63   Thumb Code     0  QtMultimediaKit.in(.text)
    QCameraFocus::~QCameraFocus__deallocating() 0x00015c6b   Thumb Code    16  QtMultimediaKit.in(.text)
    QCameraImageProcessing::getStaticMetaObject() 0x00015dc9   Thumb Code     4  QtMultimediaKit.in(.text)
    QCameraImageProcessing::metaObject() const 0x00015dcd   Thumb Code    12  QtMultimediaKit.in(.text)
    QCameraImageProcessing::qt_metacast(const char*) 0x00015dd9   Thumb Code    40  QtMultimediaKit.in(.text)
    QCameraImageProcessing::qt_metacall(QMetaObject::Call, int, void**) 0x00015e01   Thumb Code     8  QtMultimediaKit.in(.text)
    QCameraImageProcessing::isAvailable() const 0x00015e09   Thumb Code    16  QtMultimediaKit.in(.text)
    QCameraImageProcessing::whiteBalanceMode() const 0x00015e19   Thumb Code    18  QtMultimediaKit.in(.text)
    QCameraImageProcessing::setWhiteBalanceMode(QCameraImageProcessing::WhiteBalanceMode) 0x00015e2b   Thumb Code    16  QtMultimediaKit.in(.text)
    QCameraImageProcessing::isWhiteBalanceModeSupported(QCameraImageProcessing::WhiteBalanceMode) const 0x00015e3b   Thumb Code    18  QtMultimediaKit.in(.text)
    QCameraImageProcessing::manualWhiteBalance() const 0x00015e4d   Thumb Code    66  QtMultimediaKit.in(.text)
    QCameraImageProcessing::setManualWhiteBalance(int) 0x00015e8f   Thumb Code    36  QtMultimediaKit.in(.text)
    QCameraImageProcessing::contrast() const 0x00015eb3   Thumb Code    64  QtMultimediaKit.in(.text)
    QCameraImageProcessing::setContrast(int) 0x00015ef3   Thumb Code    36  QtMultimediaKit.in(.text)
    QCameraImageProcessing::saturation() const 0x00015f17   Thumb Code    64  QtMultimediaKit.in(.text)
    QCameraImageProcessing::setSaturation(int) 0x00015f57   Thumb Code    36  QtMultimediaKit.in(.text)
    QCameraImageProcessing::isSharpeningSupported() const 0x00015f7b   Thumb Code    20  QtMultimediaKit.in(.text)
    QCameraImageProcessing::sharpeningLevel() const 0x00015f8f   Thumb Code    86  QtMultimediaKit.in(.text)
    QCameraImageProcessing::setSharpeningLevel(int) 0x00015fe5   Thumb Code    90  QtMultimediaKit.in(.text)
    QCameraImageProcessing::isDenoisingSupported() const 0x0001603f   Thumb Code    20  QtMultimediaKit.in(.text)
    QCameraImageProcessing::denoisingLevel() const 0x00016053   Thumb Code    86  QtMultimediaKit.in(.text)
    QCameraImageProcessing::setDenoisingLevel(int) 0x000160a9   Thumb Code    88  QtMultimediaKit.in(.text)
    QCameraImageProcessingPrivate::initControls() 0x00016101   Thumb Code    40  QtMultimediaKit.in(.text)
    QCameraImageProcessing::QCameraImageProcessing(QCamera*) 0x00016129   Thumb Code   144  QtMultimediaKit.in(.text)
    QCameraImageProcessing::QCameraImageProcessing__sub_object(QCamera*) 0x00016129   Thumb Code     0  QtMultimediaKit.in(.text)
    QCameraImageProcessing::~QCameraImageProcessing() 0x000161b9   Thumb Code     8  QtMultimediaKit.in(.text)
    QCameraImageProcessing::~QCameraImageProcessing__sub_object() 0x000161b9   Thumb Code     0  QtMultimediaKit.in(.text)
    QCameraImageProcessing::~QCameraImageProcessing__deallocating() 0x000161c1   Thumb Code    16  QtMultimediaKit.in(.text)
    QCameraImageCapture::getStaticMetaObject() 0x000161d1   Thumb Code     4  QtMultimediaKit.in(.text)
    QCameraImageCapture::metaObject() const  0x000161d5   Thumb Code    12  QtMultimediaKit.in(.text)
    QCameraImageCapture::qt_metacast(const char*) 0x000161e1   Thumb Code    70  QtMultimediaKit.in(.text)
    QCameraImageCapture::isReadyForCapture() const 0x00016227   Thumb Code    18  QtMultimediaKit.in(.text)
    QCameraImageCapture::readyForCaptureChanged(bool) 0x00016239   Thumb Code    30  QtMultimediaKit.in(.text)
    QCameraImageCapturePrivate::_q_readyChanged(bool) 0x00016257   Thumb Code     4  QtMultimediaKit.in(.text)
    QCameraImageCapture::error(int, QCameraImageCapture::Error, const QString&) 0x0001625b   Thumb Code    38  QtMultimediaKit.in(.text)
    QCameraImageCapturePrivate::_q_error(int, int, const QString&) 0x00016281   Thumb Code    34  QtMultimediaKit.in(.text)
    QCameraImageCapture::cancelCapture()     0x000162a3   Thumb Code    76  QtMultimediaKit.in(.text)
    QCameraImageCapture::capture(const QString&) 0x000162ef   Thumb Code    82  QtMultimediaKit.in(.text)
    QCameraImageCapture::imageSaved(int, const QString&) 0x00016341   Thumb Code    36  QtMultimediaKit.in(.text)
    QCameraImageCapture::imageCaptured(int, const QImage&) 0x00016365   Thumb Code    34  QtMultimediaKit.in(.text)
    QCameraImageCapture::imageExposed(int)   0x00016387   Thumb Code    28  QtMultimediaKit.in(.text)
    QCameraImageCapture::qt_metacall(QMetaObject::Call, int, void**) 0x000163a3   Thumb Code   252  QtMultimediaKit.in(.text)
    QCameraImageCapturePrivate::QCameraImageCapturePrivate() 0x0001649f   Thumb Code    22  QtMultimediaKit.in(.text)
    QCameraImageCapturePrivate::QCameraImageCapturePrivate__sub_object() 0x0001649f   Thumb Code     0  QtMultimediaKit.in(.text)
    QCameraImageCapture::QCameraImageCapture(QMediaObject*, QObject*) 0x000164b5   Thumb Code    62  QtMultimediaKit.in(.text)
    QCameraImageCapture::QCameraImageCapture__sub_object(QMediaObject*, QObject*) 0x000164b5   Thumb Code     0  QtMultimediaKit.in(.text)
    QCameraImageCapture::~QCameraImageCapture() 0x000164f3   Thumb Code    46  QtMultimediaKit.in(.text)
    QCameraImageCapture::~QCameraImageCapture__sub_object() 0x000164f3   Thumb Code     0  QtMultimediaKit.in(.text)
    QCameraImageCapture::~QCameraImageCapture__deallocating() 0x00016521   Thumb Code    16  QtMultimediaKit.in(.text)
    thunk{-8} to QCameraImageCapture::~QCameraImageCapture__deallocating() 0x00016531   Thumb Code     4  QtMultimediaKit.in(.text)
    thunk{-8} to QCameraImageCapture::~QCameraImageCapture() 0x00016535   Thumb Code     4  QtMultimediaKit.in(.text)
    QCameraImageCapture::isAvailable() const 0x00016539   Thumb Code    16  QtMultimediaKit.in(.text)
    QCameraImageCapture::availabilityError() const 0x00016549   Thumb Code    16  QtMultimediaKit.in(.text)
    QCameraImageCapture::mediaObject() const 0x00016559   Thumb Code     6  QtMultimediaKit.in(.text)
    thunk{-8} to QCameraImageCapture::mediaObject() const 0x0001655f   Thumb Code     6  QtMultimediaKit.in(.text)
    QCameraImageCapture::error() const       0x00016565   Thumb Code     6  QtMultimediaKit.in(.text)
    QCameraImageCapture::errorString() const 0x0001656b   Thumb Code   134  QtMultimediaKit.in(.text)
    QCameraImageCapture::supportedImageCodecs() const 0x000165f1   Thumb Code    88  QtMultimediaKit.in(.text)
    QCameraImageCapture::imageCodecDescription(const QString&) const 0x00016649   Thumb Code    68  QtMultimediaKit.in(.text)
    QCameraImageCapture::supportedResolutions(const QImageEncoderSettings&, bool*) const 0x0001668d   Thumb Code    96  QtMultimediaKit.in(.text)
    QCameraImageCapture::encodingSettings() const 0x000166ed   Thumb Code    68  QtMultimediaKit.in(.text)
    QCameraImageCapture::setEncodingSettings(const QImageEncoderSettings&) 0x00016731   Thumb Code   122  QtMultimediaKit.in(.text)
    QCameraImageCapture::setMediaObject(QMediaObject*) 0x000167ab   Thumb Code   616  QtMultimediaKit.in(.text)
    thunk{-8} to QCameraImageCapture::setMediaObject(QMediaObject*) 0x00016a13   Thumb Code     4  QtMultimediaKit.in(.text)
    QCameraImageCaptureControl::getStaticMetaObject() 0x00016a41   Thumb Code     4  QtMultimediaKit.in(.text)
    QCameraImageCaptureControl::metaObject() const 0x00016a45   Thumb Code    12  QtMultimediaKit.in(.text)
    QCameraImageCaptureControl::qt_metacast(const char*) 0x00016a51   Thumb Code    40  QtMultimediaKit.in(.text)
    QCameraImageCaptureControl::error(int, int, const QString&) 0x00016a79   Thumb Code    40  QtMultimediaKit.in(.text)
    QCameraImageCaptureControl::imageSaved(int, const QString&) 0x00016aa1   Thumb Code    36  QtMultimediaKit.in(.text)
    QCameraImageCaptureControl::imageCaptured(int, const QImage&) 0x00016ac5   Thumb Code    34  QtMultimediaKit.in(.text)
    QCameraImageCaptureControl::imageExposed(int) 0x00016ae7   Thumb Code    30  QtMultimediaKit.in(.text)
    QCameraImageCaptureControl::readyForCaptureChanged(bool) 0x00016b05   Thumb Code    26  QtMultimediaKit.in(.text)
    QCameraImageCaptureControl::qt_metacall(QMetaObject::Call, int, void**) 0x00016b1f   Thumb Code   108  QtMultimediaKit.in(.text)
    QCameraImageCaptureControl::~QCameraImageCaptureControl() 0x00016b8b   Thumb Code     0  QtMultimediaKit.in(.text)
    QCameraImageCaptureControl::~QCameraImageCaptureControl__sub_object() 0x00016b8b   Thumb Code     8  QtMultimediaKit.in(.text)
    QCameraImageCaptureControl::~QCameraImageCaptureControl__deallocating() 0x00016b93   Thumb Code    16  QtMultimediaKit.in(.text)
    QCameraImageCaptureControl::QCameraImageCaptureControl__sub_object(QObject*) 0x00016ba3   Thumb Code    12  QtMultimediaKit.in(.text)
    QCameraControl::getStaticMetaObject()    0x00016bb9   Thumb Code     4  QtMultimediaKit.in(.text)
    QCameraControl::metaObject() const       0x00016bbd   Thumb Code    12  QtMultimediaKit.in(.text)
    QCameraControl::qt_metacast(const char*) 0x00016bc9   Thumb Code    40  QtMultimediaKit.in(.text)
    QCameraControl::captureModeChanged(QCamera::CaptureMode) 0x00016bf1   Thumb Code    30  QtMultimediaKit.in(.text)
    QCameraControl::error(int, const QString&) 0x00016c0f   Thumb Code    36  QtMultimediaKit.in(.text)
    QCameraControl::statusChanged(QCamera::Status) 0x00016c33   Thumb Code    28  QtMultimediaKit.in(.text)
    QCameraControl::stateChanged(QCamera::State) 0x00016c4f   Thumb Code    26  QtMultimediaKit.in(.text)
    QCameraControl::qt_metacall(QMetaObject::Call, int, void**) 0x00016c69   Thumb Code    90  QtMultimediaKit.in(.text)
    QCameraControl::~QCameraControl()        0x00016cc3   Thumb Code     0  QtMultimediaKit.in(.text)
    QCameraControl::~QCameraControl__sub_object() 0x00016cc3   Thumb Code     8  QtMultimediaKit.in(.text)
    QCameraControl::~QCameraControl__deallocating() 0x00016ccb   Thumb Code    16  QtMultimediaKit.in(.text)
    QCameraControl::QCameraControl__sub_object(QObject*) 0x00016cdb   Thumb Code    40  QtMultimediaKit.in(.text)
    QCameraLocksControl::getStaticMetaObject() 0x00016d11   Thumb Code     4  QtMultimediaKit.in(.text)
    QCameraLocksControl::metaObject() const  0x00016d15   Thumb Code    12  QtMultimediaKit.in(.text)
    QCameraLocksControl::qt_metacast(const char*) 0x00016d21   Thumb Code    40  QtMultimediaKit.in(.text)
    QCameraLocksControl::lockStatusChanged(QCamera::LockType, QCamera::LockStatus, QCamera::LockChangeReason) 0x00016d49   Thumb Code    38  QtMultimediaKit.in(.text)
    QCameraLocksControl::qt_metacall(QMetaObject::Call, int, void**) 0x00016d6f   Thumb Code    48  QtMultimediaKit.in(.text)
    QCameraLocksControl::~QCameraLocksControl() 0x00016d9f   Thumb Code     0  QtMultimediaKit.in(.text)
    QCameraLocksControl::~QCameraLocksControl__sub_object() 0x00016d9f   Thumb Code     8  QtMultimediaKit.in(.text)
    QCameraLocksControl::~QCameraLocksControl__deallocating() 0x00016da7   Thumb Code    16  QtMultimediaKit.in(.text)
    QCameraLocksControl::QCameraLocksControl__sub_object(QObject*) 0x00016db7   Thumb Code    40  QtMultimediaKit.in(.text)
    QCameraExposureControl::getStaticMetaObject() 0x00016ded   Thumb Code     4  QtMultimediaKit.in(.text)
    QCameraExposureControl::metaObject() const 0x00016df1   Thumb Code    12  QtMultimediaKit.in(.text)
    QCameraExposureControl::qt_metacast(const char*) 0x00016dfd   Thumb Code    38  QtMultimediaKit.in(.text)
    QCameraExposureControl::exposureParameterRangeChanged(int) 0x00016e23   Thumb Code    30  QtMultimediaKit.in(.text)
    QCameraExposureControl::exposureParameterChanged(int) 0x00016e41   Thumb Code    28  QtMultimediaKit.in(.text)
    QCameraExposureControl::flashReady(bool) 0x00016e5d   Thumb Code    26  QtMultimediaKit.in(.text)
    QCameraExposureControl::qt_metacall(QMetaObject::Call, int, void**) 0x00016e77   Thumb Code    72  QtMultimediaKit.in(.text)
    QCameraExposureControl::~QCameraExposureControl() 0x00016ebf   Thumb Code     0  QtMultimediaKit.in(.text)
    QCameraExposureControl::~QCameraExposureControl__sub_object() 0x00016ebf   Thumb Code     8  QtMultimediaKit.in(.text)
    QCameraExposureControl::~QCameraExposureControl__deallocating() 0x00016ec7   Thumb Code    16  QtMultimediaKit.in(.text)
    QCameraExposureControl::QCameraExposureControl__sub_object(QObject*) 0x00016ed7   Thumb Code    40  QtMultimediaKit.in(.text)
    QCameraFocusControl::getStaticMetaObject() 0x00016f11   Thumb Code     4  QtMultimediaKit.in(.text)
    QCameraFocusControl::metaObject() const  0x00016f15   Thumb Code    12  QtMultimediaKit.in(.text)
    QCameraFocusControl::qt_metacast(const char*) 0x00016f21   Thumb Code    40  QtMultimediaKit.in(.text)
    QCameraFocusControl::maximumDigitalZoomChanged(float) 0x00016f49   Thumb Code    30  QtMultimediaKit.in(.text)
    QCameraFocusControl::maximumOpticalZoomChanged(float) 0x00016f67   Thumb Code    28  QtMultimediaKit.in(.text)
    QCameraFocusControl::focusZonesChanged() 0x00016f83   Thumb Code    14  QtMultimediaKit.in(.text)
    QCameraFocusControl::digitalZoomChanged(float) 0x00016f91   Thumb Code    28  QtMultimediaKit.in(.text)
    QCameraFocusControl::opticalZoomChanged(float) 0x00016fad   Thumb Code    26  QtMultimediaKit.in(.text)
    QCameraFocusControl::qt_metacall(QMetaObject::Call, int, void**) 0x00016fc7   Thumb Code    94  QtMultimediaKit.in(.text)
    QCameraFocusControl::~QCameraFocusControl() 0x00017025   Thumb Code     0  QtMultimediaKit.in(.text)
    QCameraFocusControl::~QCameraFocusControl__sub_object() 0x00017025   Thumb Code     8  QtMultimediaKit.in(.text)
    QCameraFocusControl::~QCameraFocusControl__deallocating() 0x0001702d   Thumb Code    16  QtMultimediaKit.in(.text)
    QCameraFocusControl::QCameraFocusControl__sub_object(QObject*) 0x0001703d   Thumb Code    40  QtMultimediaKit.in(.text)
    QCameraFlashControl::getStaticMetaObject() 0x00017071   Thumb Code     4  QtMultimediaKit.in(.text)
    QCameraFlashControl::metaObject() const  0x00017075   Thumb Code    12  QtMultimediaKit.in(.text)
    QCameraFlashControl::qt_metacast(const char*) 0x00017081   Thumb Code    40  QtMultimediaKit.in(.text)
    QCameraFlashControl::flashReady(bool)    0x000170a9   Thumb Code    28  QtMultimediaKit.in(.text)
    QCameraFlashControl::qt_metacall(QMetaObject::Call, int, void**) 0x000170c5   Thumb Code    40  QtMultimediaKit.in(.text)
    QCameraFlashControl::~QCameraFlashControl() 0x000170ed   Thumb Code     0  QtMultimediaKit.in(.text)
    QCameraFlashControl::~QCameraFlashControl__sub_object() 0x000170ed   Thumb Code     8  QtMultimediaKit.in(.text)
    QCameraFlashControl::~QCameraFlashControl__deallocating() 0x000170f5   Thumb Code    16  QtMultimediaKit.in(.text)
    QCameraFlashControl::QCameraFlashControl__sub_object(QObject*) 0x00017105   Thumb Code    40  QtMultimediaKit.in(.text)
    QCameraImageProcessingControl::getStaticMetaObject() 0x00017139   Thumb Code     4  QtMultimediaKit.in(.text)
    QCameraImageProcessingControl::metaObject() const 0x0001713d   Thumb Code    12  QtMultimediaKit.in(.text)
    QCameraImageProcessingControl::qt_metacast(const char*) 0x00017149   Thumb Code    40  QtMultimediaKit.in(.text)
    QCameraImageProcessingControl::qt_metacall(QMetaObject::Call, int, void**) 0x00017171   Thumb Code     8  QtMultimediaKit.in(.text)
    QCameraImageProcessingControl::~QCameraImageProcessingControl() 0x00017179   Thumb Code     0  QtMultimediaKit.in(.text)
    QCameraImageProcessingControl::~QCameraImageProcessingControl__sub_object() 0x00017179   Thumb Code     8  QtMultimediaKit.in(.text)
    QCameraImageProcessingControl::~QCameraImageProcessingControl__deallocating() 0x00017181   Thumb Code    16  QtMultimediaKit.in(.text)
    QCameraImageProcessingControl::QCameraImageProcessingControl__sub_object(QObject*) 0x00017191   Thumb Code    40  QtMultimediaKit.in(.text)
    QGraphicsVideoItem::getStaticMetaObject() 0x00017215   Thumb Code     4  QtMultimediaKit.in(.text)
    QGraphicsVideoItem::metaObject() const   0x00017219   Thumb Code    12  QtMultimediaKit.in(.text)
    QGraphicsVideoItem::qt_metacast(const char*) 0x00017225   Thumb Code    72  QtMultimediaKit.in(.text)
    QGraphicsVideoItemPrivate::updateRects() 0x0001726d   Thumb Code   204  QtMultimediaKit.in(.text)
    QGraphicsVideoItem::setSize(const QSizeF&) 0x00017339   Thumb Code    54  QtMultimediaKit.in(.text)
    QGraphicsVideoItem::setOffset(const QPointF&) 0x0001736f   Thumb Code    12  QtMultimediaKit.in(.text)
    QGraphicsVideoItem::setAspectRatioMode(Qt::AspectRatioMode) 0x0001737b   Thumb Code     6  QtMultimediaKit.in(.text)
    QGraphicsVideoItem::nativeSize() const   0x00017381   Thumb Code    10  QtMultimediaKit.in(.text)
    QGraphicsVideoItem::size() const         0x0001738b   Thumb Code    12  QtMultimediaKit.in(.text)
    QGraphicsVideoItem::offset() const       0x00017397   Thumb Code    10  QtMultimediaKit.in(.text)
    QGraphicsVideoItem::aspectRatioMode() const 0x000173a1   Thumb Code     6  QtMultimediaKit.in(.text)
    QGraphicsVideoItemPrivate::_q_serviceDestroyed() 0x000173a7   Thumb Code     8  QtMultimediaKit.in(.text)
    QGraphicsVideoItem::nativeSizeChanged(const QSizeF&) 0x000173af   Thumb Code    22  QtMultimediaKit.in(.text)
    QGraphicsVideoItemPrivate::_q_updateNativeSize() 0x000173c5   Thumb Code    96  QtMultimediaKit.in(.text)
    QGraphicsVideoItemPrivate::_q_present()  0x00017425   Thumb Code     2  QtMultimediaKit.in(.text)
    QGraphicsVideoItem::qt_metacall(QMetaObject::Call, int, void**) 0x00017427   Thumb Code   222  QtMultimediaKit.in(.text)
    QGraphicsVideoItem::QGraphicsVideoItem(QGraphicsItem*) 0x00017505   Thumb Code   100  QtMultimediaKit.in(.text)
    QGraphicsVideoItem::QGraphicsVideoItem__sub_object(QGraphicsItem*) 0x00017505   Thumb Code     0  QtMultimediaKit.in(.text)
    QGraphicsVideoItem::~QGraphicsVideoItem() 0x00017569   Thumb Code   164  QtMultimediaKit.in(.text)
    QGraphicsVideoItem::~QGraphicsVideoItem__sub_object() 0x00017569   Thumb Code     0  QtMultimediaKit.in(.text)
    QGraphicsVideoItem::~QGraphicsVideoItem__deallocating() 0x0001760d   Thumb Code    16  QtMultimediaKit.in(.text)
    thunk{-16} to QGraphicsVideoItem::~QGraphicsVideoItem__deallocating() 0x0001761d   Thumb Code     4  QtMultimediaKit.in(.text)
    thunk{-8} to QGraphicsVideoItem::~QGraphicsVideoItem__deallocating() 0x00017621   Thumb Code     4  QtMultimediaKit.in(.text)
    thunk{-16} to QGraphicsVideoItem::~QGraphicsVideoItem() 0x00017625   Thumb Code     4  QtMultimediaKit.in(.text)
    thunk{-8} to QGraphicsVideoItem::~QGraphicsVideoItem() 0x00017629   Thumb Code     4  QtMultimediaKit.in(.text)
    QGraphicsVideoItem::mediaObject() const  0x0001762d   Thumb Code     6  QtMultimediaKit.in(.text)
    thunk{-16} to QGraphicsVideoItem::mediaObject() const 0x00017633   Thumb Code     6  QtMultimediaKit.in(.text)
    QGraphicsVideoItem::boundingRect() const 0x00017639   Thumb Code    12  QtMultimediaKit.in(.text)
    thunk{-8} to QGraphicsVideoItem::boundingRect() const 0x00017645   Thumb Code    12  QtMultimediaKit.in(.text)
    QGraphicsVideoItemPrivate::setWidget(QWidget*) 0x00017651   Thumb Code    46  QtMultimediaKit.in(.text)
    QGraphicsVideoItemPrivate::updateEventFilters() 0x0001767f   Thumb Code   194  QtMultimediaKit.in(.text)
    QGraphicsVideoItem::paint(QPainter*, const QStyleOptionGraphicsItem*, QWidget*) 0x00017741   Thumb Code   542  QtMultimediaKit.in(.text)
    thunk{-8} to QGraphicsVideoItem::paint(QPainter*, const QStyleOptionGraphicsItem*, QWidget*) 0x0001795f   Thumb Code     4  QtMultimediaKit.in(.text)
    QGraphicsVideoItem::timerEvent(QTimerEvent*) 0x00017963   Thumb Code     8  QtMultimediaKit.in(.text)
    QGraphicsVideoItem::itemChange(QGraphicsItem::GraphicsItemChange, const QVariant&) 0x0001796b   Thumb Code    94  QtMultimediaKit.in(.text)
    thunk{-8} to QGraphicsVideoItem::itemChange(QGraphicsItem::GraphicsItemChange, const QVariant&) 0x000179c9   Thumb Code     4  QtMultimediaKit.in(.text)
    QGraphicsVideoItemPrivate::clearService() 0x000179cd   Thumb Code    54  QtMultimediaKit.in(.text)
    QGraphicsVideoItem::setMediaObject(QMediaObject*) 0x00017a03   Thumb Code   172  QtMultimediaKit.in(.text)
    thunk{-16} to QGraphicsVideoItem::setMediaObject(QMediaObject*) 0x00017aaf   Thumb Code     4  QtMultimediaKit.in(.text)
    QGraphicsVideoItemPrivate::eventFilter(QObject*, QEvent*) 0x00017ab3   Thumb Code   458  QtMultimediaKit.in(.text)
    QGraphicsVideoItemPrivate::updateLastFrame() 0x00017c7d   Thumb Code     2  QtMultimediaKit.in(.text)
    QGraphicsVideoItemPrivate::_q_mediaObjectDestroyed() 0x00017c7f   Thumb Code     6  QtMultimediaKit.in(.text)
    QAudioFormat::QAudioFormat()             0x00017ca5   Thumb Code    68  QtMultimediaKit.in(.text)
    QAudioFormat::QAudioFormat__sub_object() 0x00017ca5   Thumb Code     0  QtMultimediaKit.in(.text)
    QAudioFormat::QAudioFormat(const QAudioFormat&) 0x00017ce9   Thumb Code    20  QtMultimediaKit.in(.text)
    QAudioFormat::QAudioFormat__sub_object(const QAudioFormat&) 0x00017ce9   Thumb Code     0  QtMultimediaKit.in(.text)
    QAudioFormat::~QAudioFormat()            0x00017cfd   Thumb Code     8  QtMultimediaKit.in(.text)
    QAudioFormat::~QAudioFormat__sub_object() 0x00017cfd   Thumb Code     0  QtMultimediaKit.in(.text)
    QAudioFormat::operator =(const QAudioFormat&) 0x00017d05   Thumb Code    56  QtMultimediaKit.in(.text)
    QAudioFormat::operator ==(const QAudioFormat&) const 0x00017d3d   Thumb Code    74  QtMultimediaKit.in(.text)
    QAudioFormat::operator !=(const QAudioFormat&) const 0x00017d87   Thumb Code    12  QtMultimediaKit.in(.text)
    QAudioFormat::isValid() const            0x00017d93   Thumb Code    42  QtMultimediaKit.in(.text)
    QAudioFormat::setFrequency(int)          0x00017dbd   Thumb Code    12  QtMultimediaKit.in(.text)
    QAudioFormat::frequency() const          0x00017dc9   Thumb Code     6  QtMultimediaKit.in(.text)
    QAudioFormat::setSampleRate(int)         0x00017dcf   Thumb Code    12  QtMultimediaKit.in(.text)
    QAudioFormat::sampleRate() const         0x00017ddb   Thumb Code     6  QtMultimediaKit.in(.text)
    QAudioFormat::setChannels(int)           0x00017de1   Thumb Code    12  QtMultimediaKit.in(.text)
    QAudioFormat::channels() const           0x00017ded   Thumb Code     6  QtMultimediaKit.in(.text)
    QAudioFormat::setChannelCount(int)       0x00017df3   Thumb Code    12  QtMultimediaKit.in(.text)
    QAudioFormat::channelCount() const       0x00017dff   Thumb Code     6  QtMultimediaKit.in(.text)
    QAudioFormat::setSampleSize(int)         0x00017e05   Thumb Code    12  QtMultimediaKit.in(.text)
    QAudioFormat::sampleSize() const         0x00017e11   Thumb Code     6  QtMultimediaKit.in(.text)
    QAudioFormat::setCodec(const QString&)   0x00017e17   Thumb Code    18  QtMultimediaKit.in(.text)
    QAudioFormat::codec() const              0x00017e29   Thumb Code    12  QtMultimediaKit.in(.text)
    QAudioFormat::setByteOrder(QAudioFormat::Endian) 0x00017e35   Thumb Code    12  QtMultimediaKit.in(.text)
    QAudioFormat::byteOrder() const          0x00017e41   Thumb Code     6  QtMultimediaKit.in(.text)
    QAudioFormat::setSampleType(QAudioFormat::SampleType) 0x00017e47   Thumb Code    12  QtMultimediaKit.in(.text)
    QAudioFormat::sampleType() const         0x00017e53   Thumb Code     6  QtMultimediaKit.in(.text)
    QAudioDeviceInfo::QAudioDeviceInfo()     0x00017e5d   Thumb Code    66  QtMultimediaKit.in(.text)
    QAudioDeviceInfo::QAudioDeviceInfo__sub_object() 0x00017e5d   Thumb Code     0  QtMultimediaKit.in(.text)
    QAudioDeviceInfo::QAudioDeviceInfo(const QAudioDeviceInfo&) 0x00017e9f   Thumb Code    20  QtMultimediaKit.in(.text)
    QAudioDeviceInfo::QAudioDeviceInfo__sub_object(const QAudioDeviceInfo&) 0x00017e9f   Thumb Code     0  QtMultimediaKit.in(.text)
    QAudioDeviceInfo::~QAudioDeviceInfo()    0x00017eb3   Thumb Code     8  QtMultimediaKit.in(.text)
    QAudioDeviceInfo::~QAudioDeviceInfo__sub_object() 0x00017eb3   Thumb Code     0  QtMultimediaKit.in(.text)
    QAudioDeviceInfo::operator =(const QAudioDeviceInfo&) 0x00017ebb   Thumb Code    56  QtMultimediaKit.in(.text)
    QAudioDeviceInfo::isNull() const         0x00017ef3   Thumb Code    16  QtMultimediaKit.in(.text)
    QAudioDeviceInfo::deviceName() const     0x00017f03   Thumb Code    74  QtMultimediaKit.in(.text)
    QAudioDeviceInfo::isFormatSupported(const QAudioFormat&) const 0x00017f4d   Thumb Code    28  QtMultimediaKit.in(.text)
    QAudioDeviceInfo::preferredFormat() const 0x00017f69   Thumb Code    74  QtMultimediaKit.in(.text)
    QAudioDeviceInfo::supportedSampleSizes() const 0x00017fb3   Thumb Code    74  QtMultimediaKit.in(.text)
    QAudioDeviceInfo::supportedFrequencies() const 0x00017ffd   Thumb Code    74  QtMultimediaKit.in(.text)
    QAudioDeviceInfo::supportedSampleTypes() const 0x00018047   Thumb Code    74  QtMultimediaKit.in(.text)
    QAudioDeviceInfo::supportedByteOrders() const 0x00018091   Thumb Code    76  QtMultimediaKit.in(.text)
    QAudioDeviceInfo::supportedChannels() const 0x000180dd   Thumb Code    74  QtMultimediaKit.in(.text)
    QAudioDeviceInfo::supportedCodecs() const 0x00018127   Thumb Code    76  QtMultimediaKit.in(.text)
    QAudioDeviceInfo::nearestFormat(const QAudioFormat&) const 0x00018173   Thumb Code  1824  QtMultimediaKit.in(.text)
    QAudioDeviceInfo::supportedSampleRates() const 0x00018893   Thumb Code     8  QtMultimediaKit.in(.text)
    QAudioDeviceInfo::supportedChannelCounts() const 0x0001889b   Thumb Code     8  QtMultimediaKit.in(.text)
    QAudioDeviceInfo::defaultInputDevice()   0x000188a3   Thumb Code     8  QtMultimediaKit.in(.text)
    QAudioDeviceInfo::defaultOutputDevice()  0x000188ab   Thumb Code     8  QtMultimediaKit.in(.text)
    QAudioDeviceInfo::availableDevices(QAudio::Mode) 0x000188b3   Thumb Code     8  QtMultimediaKit.in(.text)
    QAudioDeviceInfo::QAudioDeviceInfo(const QString&, const QByteArray&, QAudio::Mode) 0x000188bb   Thumb Code    98  QtMultimediaKit.in(.text)
    QAudioDeviceInfo::QAudioDeviceInfo__sub_object(const QString&, const QByteArray&, QAudio::Mode) 0x000188bb   Thumb Code     0  QtMultimediaKit.in(.text)
    QAudioDeviceInfo::realm() const          0x0001891d   Thumb Code    12  QtMultimediaKit.in(.text)
    QAudioDeviceInfo::handle() const         0x00018929   Thumb Code    12  QtMultimediaKit.in(.text)
    QAudioDeviceInfo::mode() const           0x00018935   Thumb Code     6  QtMultimediaKit.in(.text)
    QAudioOutput::getStaticMetaObject()      0x0001893d   Thumb Code     4  QtMultimediaKit.in(.text)
    QAudioOutput::metaObject() const         0x00018941   Thumb Code    12  QtMultimediaKit.in(.text)
    QAudioOutput::qt_metacast(const char*)   0x0001894d   Thumb Code    40  QtMultimediaKit.in(.text)
    QAudioOutput::notify()                   0x00018975   Thumb Code    14  QtMultimediaKit.in(.text)
    QAudioOutput::stateChanged(QAudio::State) 0x00018983   Thumb Code    28  QtMultimediaKit.in(.text)
    QAudioOutput::qt_metacall(QMetaObject::Call, int, void**) 0x0001899f   Thumb Code    52  QtMultimediaKit.in(.text)
    QAudioOutput::QAudioOutput(const QAudioFormat&, QObject*) 0x000189d3   Thumb Code    60  QtMultimediaKit.in(.text)
    QAudioOutput::QAudioOutput__sub_object(const QAudioFormat&, QObject*) 0x000189d3   Thumb Code     0  QtMultimediaKit.in(.text)
    QAudioOutput::QAudioOutput(const QAudioDeviceInfo&, const QAudioFormat&, QObject*) 0x00018a0f   Thumb Code    64  QtMultimediaKit.in(.text)
    QAudioOutput::QAudioOutput__sub_object(const QAudioDeviceInfo&, const QAudioFormat&, QObject*) 0x00018a0f   Thumb Code     0  QtMultimediaKit.in(.text)
    QAudioOutput::~QAudioOutput()            0x00018a4f   Thumb Code    28  QtMultimediaKit.in(.text)
    QAudioOutput::~QAudioOutput__sub_object() 0x00018a4f   Thumb Code     0  QtMultimediaKit.in(.text)
    QAudioOutput::~QAudioOutput__deallocating() 0x00018a6b   Thumb Code    16  QtMultimediaKit.in(.text)
    QAudioOutput::format() const             0x00018a7b   Thumb Code     8  QtMultimediaKit.in(.text)
    QAudioOutput::start(QIODevice*)          0x00018a83   Thumb Code     8  QtMultimediaKit.in(.text)
    QAudioOutput::start()                    0x00018a8b   Thumb Code     8  QtMultimediaKit.in(.text)
    QAudioOutput::stop()                     0x00018a93   Thumb Code     8  QtMultimediaKit.in(.text)
    QAudioOutput::reset()                    0x00018a9b   Thumb Code     8  QtMultimediaKit.in(.text)
    QAudioOutput::suspend()                  0x00018aa3   Thumb Code     8  QtMultimediaKit.in(.text)
    QAudioOutput::resume()                   0x00018aab   Thumb Code     8  QtMultimediaKit.in(.text)
    QAudioOutput::setBufferSize(int)         0x00018ab3   Thumb Code     8  QtMultimediaKit.in(.text)
    QAudioOutput::bufferSize() const         0x00018abb   Thumb Code     8  QtMultimediaKit.in(.text)
    QAudioOutput::bytesFree() const          0x00018ac3   Thumb Code     8  QtMultimediaKit.in(.text)
    QAudioOutput::periodSize() const         0x00018acb   Thumb Code     8  QtMultimediaKit.in(.text)
    QAudioOutput::setNotifyInterval(int)     0x00018ad3   Thumb Code     8  QtMultimediaKit.in(.text)
    QAudioOutput::notifyInterval() const     0x00018adb   Thumb Code     8  QtMultimediaKit.in(.text)
    QAudioOutput::processedUSecs() const     0x00018ae3   Thumb Code     8  QtMultimediaKit.in(.text)
    QAudioOutput::elapsedUSecs() const       0x00018aeb   Thumb Code     8  QtMultimediaKit.in(.text)
    QAudioOutput::error() const              0x00018af3   Thumb Code     8  QtMultimediaKit.in(.text)
    QAudioOutput::state() const              0x00018afb   Thumb Code     8  QtMultimediaKit.in(.text)
    QAudioInput::getStaticMetaObject()       0x00018b39   Thumb Code     4  QtMultimediaKit.in(.text)
    QAudioInput::metaObject() const          0x00018b3d   Thumb Code    12  QtMultimediaKit.in(.text)
    QAudioInput::qt_metacast(const char*)    0x00018b49   Thumb Code    40  QtMultimediaKit.in(.text)
    QAudioInput::notify()                    0x00018b71   Thumb Code    14  QtMultimediaKit.in(.text)
    QAudioInput::stateChanged(QAudio::State) 0x00018b7f   Thumb Code    28  QtMultimediaKit.in(.text)
    QAudioInput::qt_metacall(QMetaObject::Call, int, void**) 0x00018b9b   Thumb Code    52  QtMultimediaKit.in(.text)
    QAudioInput::QAudioInput(const QAudioFormat&, QObject*) 0x00018bcf   Thumb Code    60  QtMultimediaKit.in(.text)
    QAudioInput::QAudioInput__sub_object(const QAudioFormat&, QObject*) 0x00018bcf   Thumb Code     0  QtMultimediaKit.in(.text)
    QAudioInput::QAudioInput(const QAudioDeviceInfo&, const QAudioFormat&, QObject*) 0x00018c0b   Thumb Code    64  QtMultimediaKit.in(.text)
    QAudioInput::QAudioInput__sub_object(const QAudioDeviceInfo&, const QAudioFormat&, QObject*) 0x00018c0b   Thumb Code     0  QtMultimediaKit.in(.text)
    QAudioInput::~QAudioInput()              0x00018c4b   Thumb Code    28  QtMultimediaKit.in(.text)
    QAudioInput::~QAudioInput__sub_object()  0x00018c4b   Thumb Code     0  QtMultimediaKit.in(.text)
    QAudioInput::~QAudioInput__deallocating() 0x00018c67   Thumb Code    16  QtMultimediaKit.in(.text)
    QAudioInput::format() const              0x00018c77   Thumb Code     8  QtMultimediaKit.in(.text)
    QAudioInput::start(QIODevice*)           0x00018c7f   Thumb Code     8  QtMultimediaKit.in(.text)
    QAudioInput::start()                     0x00018c87   Thumb Code     8  QtMultimediaKit.in(.text)
    QAudioInput::stop()                      0x00018c8f   Thumb Code     8  QtMultimediaKit.in(.text)
    QAudioInput::reset()                     0x00018c97   Thumb Code     8  QtMultimediaKit.in(.text)
    QAudioInput::suspend()                   0x00018c9f   Thumb Code     8  QtMultimediaKit.in(.text)
    QAudioInput::resume()                    0x00018ca7   Thumb Code     8  QtMultimediaKit.in(.text)
    QAudioInput::setBufferSize(int)          0x00018caf   Thumb Code     8  QtMultimediaKit.in(.text)
    QAudioInput::bufferSize() const          0x00018cb7   Thumb Code     8  QtMultimediaKit.in(.text)
    QAudioInput::bytesReady() const          0x00018cbf   Thumb Code     8  QtMultimediaKit.in(.text)
    QAudioInput::periodSize() const          0x00018cc7   Thumb Code     8  QtMultimediaKit.in(.text)
    QAudioInput::setNotifyInterval(int)      0x00018ccf   Thumb Code     8  QtMultimediaKit.in(.text)
    QAudioInput::notifyInterval() const      0x00018cd7   Thumb Code     8  QtMultimediaKit.in(.text)
    QAudioInput::processedUSecs() const      0x00018cdf   Thumb Code     8  QtMultimediaKit.in(.text)
    QAudioInput::elapsedUSecs() const        0x00018ce7   Thumb Code     8  QtMultimediaKit.in(.text)
    QAudioInput::error() const               0x00018cef   Thumb Code     8  QtMultimediaKit.in(.text)
    QAudioInput::state() const               0x00018cf7   Thumb Code     8  QtMultimediaKit.in(.text)
    QAudioSystemPlugin::getStaticMetaObject() 0x00018d35   Thumb Code     4  QtMultimediaKit.in(.text)
    QAudioSystemPlugin::metaObject() const   0x00018d39   Thumb Code    12  QtMultimediaKit.in(.text)
    QAudioSystemPlugin::qt_metacast(const char*) 0x00018d45   Thumb Code    84  QtMultimediaKit.in(.text)
    QAudioSystemPlugin::qt_metacall(QMetaObject::Call, int, void**) 0x00018d99   Thumb Code     8  QtMultimediaKit.in(.text)
    QAudioSystemPlugin::QAudioSystemPlugin__sub_object(QObject*) 0x00018da1   Thumb Code    16  QtMultimediaKit.in(.text)
    QAudioSystemPlugin::~QAudioSystemPlugin() 0x00018db1   Thumb Code     0  QtMultimediaKit.in(.text)
    QAudioSystemPlugin::~QAudioSystemPlugin__sub_object() 0x00018db1   Thumb Code     8  QtMultimediaKit.in(.text)
    QAudioSystemPlugin::~QAudioSystemPlugin__deallocating() 0x00018db9   Thumb Code    16  QtMultimediaKit.in(.text)
    thunk{-8} to QAudioSystemPlugin::~QAudioSystemPlugin__deallocating() 0x00018dc9   Thumb Code     4  QtMultimediaKit.in(.text)
    thunk{-8} to QAudioSystemPlugin::~QAudioSystemPlugin() 0x00018dcd   Thumb Code     4  QtMultimediaKit.in(.text)
    QAbstractAudioDeviceInfo::getStaticMetaObject() 0x00018e49   Thumb Code     4  QtMultimediaKit.in(.text)
    QAbstractAudioDeviceInfo::metaObject() const 0x00018e4d   Thumb Code    12  QtMultimediaKit.in(.text)
    QAbstractAudioDeviceInfo::qt_metacast(const char*) 0x00018e59   Thumb Code    40  QtMultimediaKit.in(.text)
    QAbstractAudioDeviceInfo::qt_metacall(QMetaObject::Call, int, void**) 0x00018e81   Thumb Code     8  QtMultimediaKit.in(.text)
    QAbstractAudioOutput::getStaticMetaObject() 0x00018e89   Thumb Code     6  QtMultimediaKit.in(.text)
    QAbstractAudioOutput::metaObject() const 0x00018e8f   Thumb Code    14  QtMultimediaKit.in(.text)
    QAbstractAudioOutput::qt_metacast(const char*) 0x00018e9d   Thumb Code    40  QtMultimediaKit.in(.text)
    QAbstractAudioOutput::notify()           0x00018ec5   Thumb Code    16  QtMultimediaKit.in(.text)
    QAbstractAudioOutput::stateChanged(QAudio::State) 0x00018ed5   Thumb Code    32  QtMultimediaKit.in(.text)
    QAbstractAudioOutput::errorChanged(QAudio::Error) 0x00018ef5   Thumb Code    28  QtMultimediaKit.in(.text)
    QAbstractAudioOutput::qt_metacall(QMetaObject::Call, int, void**) 0x00018f11   Thumb Code    68  QtMultimediaKit.in(.text)
    QAbstractAudioInput::getStaticMetaObject() 0x00018f55   Thumb Code     6  QtMultimediaKit.in(.text)
    QAbstractAudioInput::metaObject() const  0x00018f5b   Thumb Code    14  QtMultimediaKit.in(.text)
    QAbstractAudioInput::qt_metacast(const char*) 0x00018f69   Thumb Code    40  QtMultimediaKit.in(.text)
    QAbstractAudioInput::notify()            0x00018f91   Thumb Code    16  QtMultimediaKit.in(.text)
    QAbstractAudioInput::stateChanged(QAudio::State) 0x00018fa1   Thumb Code    30  QtMultimediaKit.in(.text)
    QAbstractAudioInput::errorChanged(QAudio::Error) 0x00018fbf   Thumb Code    28  QtMultimediaKit.in(.text)
    QAbstractAudioInput::qt_metacall(QMetaObject::Call, int, void**) 0x00018fdb   Thumb Code    68  QtMultimediaKit.in(.text)
    QAudioDeviceFactory::availableDevices(QAudio::Mode) 0x000190c3   Thumb Code   400  QtMultimediaKit.in(.text)
    QAudioDeviceFactory::defaultInputDevice() 0x00019253   Thumb Code   172  QtMultimediaKit.in(.text)
    QAudioDeviceFactory::defaultOutputDevice() 0x000192ff   Thumb Code   170  QtMultimediaKit.in(.text)
    QAudioDeviceFactory::audioDeviceInfo(const QString&, const QByteArray&, QAudio::Mode) 0x000193a9   Thumb Code   240  QtMultimediaKit.in(.text)
    QAudioDeviceFactory::createInputDevice(const QAudioDeviceInfo&, const QAudioFormat&) 0x00019499   Thumb Code   238  QtMultimediaKit.in(.text)
    QAudioDeviceFactory::createDefaultInputDevice(const QAudioFormat&) 0x00019587   Thumb Code    30  QtMultimediaKit.in(.text)
    QAudioDeviceFactory::createOutputDevice(const QAudioDeviceInfo&, const QAudioFormat&) 0x000195a5   Thumb Code   238  QtMultimediaKit.in(.text)
    QAudioDeviceFactory::createDefaultOutputDevice(const QAudioFormat&) 0x00019693   Thumb Code    30  QtMultimediaKit.in(.text)
    QAudioPluginLoader::pluginList() const   0x000196b9   Thumb Code   278  QtMultimediaKit.in(.text)
    QAudioPluginLoader::load()               0x000197cf   Thumb Code   174  QtMultimediaKit.in(.text)
    QAudioPluginLoader::QAudioPluginLoader(const char*, const QString&, Qt::CaseSensitivity) 0x0001987d   Thumb Code   134  QtMultimediaKit.in(.text)
    QAudioPluginLoader::QAudioPluginLoader__sub_object(const char*, const QString&, Qt::CaseSensitivity) 0x0001987d   Thumb Code     0  QtMultimediaKit.in(.text)
    QAudioPluginLoader::~QAudioPluginLoader() 0x00019903   Thumb Code    80  QtMultimediaKit.in(.text)
    QAudioPluginLoader::~QAudioPluginLoader__sub_object() 0x00019903   Thumb Code     0  QtMultimediaKit.in(.text)
    QAudioPluginLoader::keys() const         0x00019953   Thumb Code    92  QtMultimediaKit.in(.text)
    QAudioPluginLoader::instance(const QString&) 0x000199af   Thumb Code   158  QtMultimediaKit.in(.text)
    QAudioPluginLoader::instances(const QString&) 0x00019a4d   Thumb Code   212  QtMultimediaKit.in(.text)
    SymbianAudio::DevSoundWrapper::getSupportedCodecs() 0x00019b25   Thumb Code    36  QtMultimediaKit.in(.text)
    SymbianAudio::DevSoundWrapper::DevSoundWrapper(QAudio::Mode, QObject*) 0x00019b49   Thumb Code   184  QtMultimediaKit.in(.text)
    SymbianAudio::DevSoundWrapper::DevSoundWrapper__sub_object(QAudio::Mode, QObject*) 0x00019b49   Thumb Code     0  QtMultimediaKit.in(.text)
    SymbianAudio::DevSoundWrapper::~DevSoundWrapper() 0x00019c01   Thumb Code   102  QtMultimediaKit.in(.text)
    SymbianAudio::DevSoundWrapper::~DevSoundWrapper__sub_object() 0x00019c01   Thumb Code     0  QtMultimediaKit.in(.text)
    SymbianAudio::DevSoundWrapper::~DevSoundWrapper__deallocating() 0x00019c67   Thumb Code    16  QtMultimediaKit.in(.text)
    SymbianAudio::DevSoundWrapper::supportedCodecs() const 0x00019c77   Thumb Code     4  QtMultimediaKit.in(.text)
    SymbianAudio::DevSoundWrapper::initialize(const QString&) 0x00019c7b   Thumb Code   108  QtMultimediaKit.in(.text)
    SymbianAudio::DevSoundWrapper::supportedFrequencies() const 0x00019ce7   Thumb Code     4  QtMultimediaKit.in(.text)
    SymbianAudio::DevSoundWrapper::supportedChannels() const 0x00019ceb   Thumb Code     4  QtMultimediaKit.in(.text)
    SymbianAudio::DevSoundWrapper::supportedSampleSizes() const 0x00019cef   Thumb Code     4  QtMultimediaKit.in(.text)
    SymbianAudio::DevSoundWrapper::supportedByteOrders() const 0x00019cf3   Thumb Code     4  QtMultimediaKit.in(.text)
    SymbianAudio::DevSoundWrapper::supportedSampleTypes() const 0x00019cf7   Thumb Code     4  QtMultimediaKit.in(.text)
    SymbianAudio::DevSoundWrapper::isFormatSupported(const QAudioFormat&) const 0x00019cfb   Thumb Code   332  QtMultimediaKit.in(.text)
    SymbianAudio::DevSoundWrapper::samplesProcessed() const 0x00019e47   Thumb Code    40  QtMultimediaKit.in(.text)
    SymbianAudio::Utils::sampleInfoQtToNative(int, QAudioFormat::Endian, QAudioFormat::SampleType, unsigned long&, TMMFSoundEncoding&) 0x00019e6f   Thumb Code    72  QtMultimediaKit.in(.text)
    SymbianAudio::Utils::channelsQtToNative(int, TMMFMonoStereo&) 0x00019eb7   Thumb Code    66  QtMultimediaKit.in(.text)
    SymbianAudio::Utils::sampleRateQtToNative(int, TMMFSampleRate&) 0x00019ef9   Thumb Code    34  QtMultimediaKit.in(.text)
    SymbianAudio::Utils::formatQtToNative(const QAudioFormat&, unsigned long&, TMMFCapabilities&) 0x00019f1b   Thumb Code   144  QtMultimediaKit.in(.text)
    SymbianAudio::DevSoundWrapper::setFormat(const QAudioFormat&) 0x00019fab   Thumb Code    96  QtMultimediaKit.in(.text)
    SymbianAudio::DevSoundWrapper::start()   0x0001a00b   Thumb Code   128  QtMultimediaKit.in(.text)
    SymbianAudio::DevSoundWrapper::stop()    0x0001a08b   Thumb Code    10  QtMultimediaKit.in(.text)
    SymbianAudio::DevSoundWrapper::isResumeSupported() const 0x0001a095   Thumb Code     4  QtMultimediaKit.in(.text)
    SymbianAudio::DevSoundWrapper::pause()   0x0001a099   Thumb Code    12  QtMultimediaKit.in(.text)
    SymbianAudio::DevSoundWrapper::resume()  0x0001a0a5   Thumb Code     2  QtMultimediaKit.in(.text)
    SymbianAudio::DevSoundWrapper::bufferProcessed() 0x0001a0a7   Thumb Code    28  QtMultimediaKit.in(.text)
    SymbianAudio::DevSoundWrapper::populateCapabilities() 0x0001a0c3   Thumb Code   196  QtMultimediaKit.in(.text)
    SymbianAudio::DevSoundWrapper::InitializeComplete(int) 0x0001a187   Thumb Code    34  QtMultimediaKit.in(.text)
    thunk{-8} to SymbianAudio::DevSoundWrapper::InitializeComplete(int) 0x0001a1a9   Thumb Code     4  QtMultimediaKit.in(.text)
    SymbianAudio::DevSoundWrapper::ToneFinished(int) 0x0001a1ad   Thumb Code     2  QtMultimediaKit.in(.text)
    thunk{-8} to SymbianAudio::DevSoundWrapper::ToneFinished(int) 0x0001a1af   Thumb Code     2  QtMultimediaKit.in(.text)
    SymbianAudio::DevSoundWrapper::BufferToBeFilled(CMMFBuffer*) 0x0001a1b1   Thumb Code     8  QtMultimediaKit.in(.text)
    thunk{-8} to SymbianAudio::DevSoundWrapper::BufferToBeFilled(CMMFBuffer*) 0x0001a1b9   Thumb Code    10  QtMultimediaKit.in(.text)
    SymbianAudio::DevSoundWrapper::PlayError(int) 0x0001a1c3   Thumb Code     8  QtMultimediaKit.in(.text)
    thunk{-8} to SymbianAudio::DevSoundWrapper::PlayError(int) 0x0001a1cb   Thumb Code    10  QtMultimediaKit.in(.text)
    SymbianAudio::DevSoundWrapper::BufferToBeEmptied(CMMFBuffer*) 0x0001a1d5   Thumb Code     8  QtMultimediaKit.in(.text)
    thunk{-8} to SymbianAudio::DevSoundWrapper::BufferToBeEmptied(CMMFBuffer*) 0x0001a1dd   Thumb Code    10  QtMultimediaKit.in(.text)
    SymbianAudio::DevSoundWrapper::RecordError(int) 0x0001a1e7   Thumb Code     8  QtMultimediaKit.in(.text)
    thunk{-8} to SymbianAudio::DevSoundWrapper::RecordError(int) 0x0001a1ef   Thumb Code    10  QtMultimediaKit.in(.text)
    SymbianAudio::DevSoundWrapper::ConvertError(int) 0x0001a1f9   Thumb Code     2  QtMultimediaKit.in(.text)
    thunk{-8} to SymbianAudio::DevSoundWrapper::ConvertError(int) 0x0001a1fb   Thumb Code     2  QtMultimediaKit.in(.text)
    SymbianAudio::DevSoundWrapper::DeviceMessage(TUid, const TDesC8&) 0x0001a1fd   Thumb Code     2  QtMultimediaKit.in(.text)
    thunk{-8} to SymbianAudio::DevSoundWrapper::DeviceMessage(TUid, const TDesC8&) 0x0001a1ff   Thumb Code     2  QtMultimediaKit.in(.text)
    SymbianAudio::Utils::sampleRateNativeToQt(TMMFSampleRate, int&) 0x0001a201   Thumb Code    46  QtMultimediaKit.in(.text)
    SymbianAudio::Utils::channelsNativeToQt(TMMFMonoStereo, int&) 0x0001a22f   Thumb Code    48  QtMultimediaKit.in(.text)
    SymbianAudio::Utils::capabilitiesNativeToQt(const TMMFCapabilities&, const TFourCC&, QList<int>&, QList<int>&, QList<int>&, QList<QAudioFormat::Endian>&, QList<QAudioFormat::SampleType>&) 0x0001a25f   Thumb Code   178  QtMultimediaKit.in(.text)
    SymbianAudio::Utils::stateNativeToQt(SymbianAudio::State) 0x0001a311   Thumb Code    32  QtMultimediaKit.in(.text)
    SymbianAudio::Utils::bytesToSamples(const QAudioFormat&, long long) 0x0001a331   Thumb Code    42  QtMultimediaKit.in(.text)
    SymbianAudio::Utils::samplesToBytes(const QAudioFormat&, long long) 0x0001a35b   Thumb Code    44  QtMultimediaKit.in(.text)
    QAudioDeviceInfoInternal::getStaticMetaObject() 0x0001a389   Thumb Code     4  QtMultimediaKit.in(.text)
    QAudioDeviceInfoInternal::metaObject() const 0x0001a38d   Thumb Code    12  QtMultimediaKit.in(.text)
    QAudioDeviceInfoInternal::qt_metacast(const char*) 0x0001a399   Thumb Code    40  QtMultimediaKit.in(.text)
    QAudioDeviceInfoInternal::devsoundInitializeComplete(int) 0x0001a3c1   Thumb Code     8  QtMultimediaKit.in(.text)
    QAudioDeviceInfoInternal::qt_metacall(QMetaObject::Call, int, void**) 0x0001a3c9   Thumb Code    38  QtMultimediaKit.in(.text)
    QAudioDeviceInfoInternal::QAudioDeviceInfoInternal(QByteArray, QAudio::Mode) 0x0001a3ef   Thumb Code    74  QtMultimediaKit.in(.text)
    QAudioDeviceInfoInternal::QAudioDeviceInfoInternal__sub_object(QByteArray, QAudio::Mode) 0x0001a3ef   Thumb Code     0  QtMultimediaKit.in(.text)
    QAudioDeviceInfoInternal::~QAudioDeviceInfoInternal() 0x0001a439   Thumb Code    48  QtMultimediaKit.in(.text)
    QAudioDeviceInfoInternal::~QAudioDeviceInfoInternal__sub_object() 0x0001a439   Thumb Code     0  QtMultimediaKit.in(.text)
    QAudioDeviceInfoInternal::~QAudioDeviceInfoInternal__deallocating() 0x0001a469   Thumb Code    16  QtMultimediaKit.in(.text)
    QAudioDeviceInfoInternal::preferredFormat() const 0x0001a479   Thumb Code   416  QtMultimediaKit.in(.text)
    QAudioDeviceInfoInternal::getSupportedFormats() const 0x0001a619   Thumb Code   610  QtMultimediaKit.in(.text)
    QAudioDeviceInfoInternal::isFormatSupported(const QAudioFormat&) const 0x0001a87b   Thumb Code   226  QtMultimediaKit.in(.text)
    QAudioDeviceInfoInternal::deviceName() const 0x0001a95d   Thumb Code    10  QtMultimediaKit.in(.text)
    QAudioDeviceInfoInternal::supportedCodecs() 0x0001a967   Thumb Code    38  QtMultimediaKit.in(.text)
    QAudioDeviceInfoInternal::supportedSampleRates() 0x0001a98d   Thumb Code    24  QtMultimediaKit.in(.text)
    QAudioDeviceInfoInternal::supportedChannelCounts() 0x0001a9a5   Thumb Code    24  QtMultimediaKit.in(.text)
    QAudioDeviceInfoInternal::supportedSampleSizes() 0x0001a9bd   Thumb Code    24  QtMultimediaKit.in(.text)
    QAudioDeviceInfoInternal::supportedByteOrders() 0x0001a9d5   Thumb Code    24  QtMultimediaKit.in(.text)
    QAudioDeviceInfoInternal::supportedSampleTypes() 0x0001a9ed   Thumb Code    24  QtMultimediaKit.in(.text)
    QAudioDeviceInfoInternal::defaultInputDevice() 0x0001aa05   Thumb Code    10  QtMultimediaKit.in(.text)
    QAudioDeviceInfoInternal::defaultOutputDevice() 0x0001aa0f   Thumb Code    10  QtMultimediaKit.in(.text)
    QAudioDeviceInfoInternal::availableDevices(QAudio::Mode) 0x0001aa19   Thumb Code    36  QtMultimediaKit.in(.text)
    SymbianAudioInputPrivate::getStaticMetaObject() 0x0001aa49   Thumb Code     4  QtMultimediaKit.in(.text)
    SymbianAudioInputPrivate::metaObject() const 0x0001aa4d   Thumb Code    12  QtMultimediaKit.in(.text)
    SymbianAudioInputPrivate::qt_metacast(const char*) 0x0001aa59   Thumb Code    40  QtMultimediaKit.in(.text)
    SymbianAudioInputPrivate::qt_metacall(QMetaObject::Call, int, void**) 0x0001aa81   Thumb Code     8  QtMultimediaKit.in(.text)
    SymbianAudioInputPrivate::SymbianAudioInputPrivate(QAudioInputPrivate*) 0x0001aa89   Thumb Code    16  QtMultimediaKit.in(.text)
    SymbianAudioInputPrivate::SymbianAudioInputPrivate__sub_object(QAudioInputPrivate*) 0x0001aa89   Thumb Code     0  QtMultimediaKit.in(.text)
    SymbianAudioInputPrivate::~SymbianAudioInputPrivate() 0x0001aa99   Thumb Code     8  QtMultimediaKit.in(.text)
    SymbianAudioInputPrivate::~SymbianAudioInputPrivate__sub_object() 0x0001aa99   Thumb Code     0  QtMultimediaKit.in(.text)
    SymbianAudioInputPrivate::~SymbianAudioInputPrivate__deallocating() 0x0001aaa1   Thumb Code    16  QtMultimediaKit.in(.text)
    QAudioInputPrivate::currentBuffer() const 0x0001aab1   Thumb Code    36  QtMultimediaKit.in(.text)
    QAudioInputPrivate::setState(SymbianAudio::State) 0x0001aad5   Thumb Code    44  QtMultimediaKit.in(.text)
    QAudioInputPrivate::setError(QAudio::Error) 0x0001ab01   Thumb Code    88  QtMultimediaKit.in(.text)
    QAudioInputPrivate::bufferEmptied()      0x0001ab59   Thumb Code   126  QtMultimediaKit.in(.text)
    QAudioInputPrivate::read(char*, long long) 0x0001abd7   Thumb Code   194  QtMultimediaKit.in(.text)
    SymbianAudioInputPrivate::readData(char*, long long) 0x0001ac99   Thumb Code   106  QtMultimediaKit.in(.text)
    SymbianAudioInputPrivate::writeData(const char*, long long) 0x0001ad03   Thumb Code     6  QtMultimediaKit.in(.text)
    SymbianAudioInputPrivate::dataReady()    0x0001ad09   Thumb Code     8  QtMultimediaKit.in(.text)
    QAudioInputPrivate::getStaticMetaObject() 0x0001ad11   Thumb Code     6  QtMultimediaKit.in(.text)
    QAudioInputPrivate::metaObject() const   0x0001ad17   Thumb Code    14  QtMultimediaKit.in(.text)
    QAudioInputPrivate::qt_metacast(const char*) 0x0001ad25   Thumb Code    40  QtMultimediaKit.in(.text)
    QAudioInputPrivate::close()              0x0001ad4d   Thumb Code    98  QtMultimediaKit.in(.text)
    QAudioInputPrivate::devsoundRecordError(int) 0x0001adaf   Thumb Code     4  QtMultimediaKit.in(.text)
    QAudioInputPrivate::pushData()           0x0001adb3   Thumb Code    16  QtMultimediaKit.in(.text)
    QAudioInputPrivate::devsoundBufferToBeEmptied(CMMFBuffer*) 0x0001adc3   Thumb Code   118  QtMultimediaKit.in(.text)
    QAudioInputPrivate::startDataTransfer()  0x0001ae39   Thumb Code    86  QtMultimediaKit.in(.text)
    QAudioInputPrivate::startRecording()     0x0001ae8f   Thumb Code    58  QtMultimediaKit.in(.text)
    QAudioInputPrivate::devsoundInitializeComplete(int) 0x0001aec9   Thumb Code    40  QtMultimediaKit.in(.text)
    QAudioInputPrivate::pullData()           0x0001aef1   Thumb Code   140  QtMultimediaKit.in(.text)
    QAudioInputPrivate::notifyTimerExpired() 0x0001af7d   Thumb Code    90  QtMultimediaKit.in(.text)
    QAudioInputPrivate::qt_metacall(QMetaObject::Call, int, void**) 0x0001afd7   Thumb Code    98  QtMultimediaKit.in(.text)
    QAudioInputPrivate::QAudioInputPrivate(const QByteArray&) 0x0001b039   Thumb Code   216  QtMultimediaKit.in(.text)
    QAudioInputPrivate::QAudioInputPrivate__sub_object(const QByteArray&) 0x0001b039   Thumb Code     0  QtMultimediaKit.in(.text)
    QAudioInputPrivate::~QAudioInputPrivate() 0x0001b111   Thumb Code    80  QtMultimediaKit.in(.text)
    QAudioInputPrivate::~QAudioInputPrivate__sub_object() 0x0001b111   Thumb Code     0  QtMultimediaKit.in(.text)
    QAudioInputPrivate::~QAudioInputPrivate__deallocating() 0x0001b161   Thumb Code    16  QtMultimediaKit.in(.text)
    QAudioInputPrivate::open()               0x0001b171   Thumb Code   392  QtMultimediaKit.in(.text)
    QAudioInputPrivate::start(QIODevice*)    0x0001b2f9   Thumb Code    44  QtMultimediaKit.in(.text)
    QAudioInputPrivate::start()              0x0001b325   Thumb Code    76  QtMultimediaKit.in(.text)
    QAudioInputPrivate::stop()               0x0001b371   Thumb Code     8  QtMultimediaKit.in(.text)
    QAudioInputPrivate::getSamplesRecorded() const 0x0001b379   Thumb Code    24  QtMultimediaKit.in(.text)
    QAudioInputPrivate::reset()              0x0001b391   Thumb Code    30  QtMultimediaKit.in(.text)
    QAudioInputPrivate::suspend()            0x0001b3af   Thumb Code    92  QtMultimediaKit.in(.text)
    QAudioInputPrivate::resume()             0x0001b40b   Thumb Code    36  QtMultimediaKit.in(.text)
    QAudioInputPrivate::bytesReady() const   0x0001b42f   Thumb Code    14  QtMultimediaKit.in(.text)
    QAudioInputPrivate::periodSize() const   0x0001b43d   Thumb Code     6  QtMultimediaKit.in(.text)
    QAudioInputPrivate::setBufferSize(int)   0x0001b443   Thumb Code     8  QtMultimediaKit.in(.text)
    QAudioInputPrivate::bufferSize() const   0x0001b44b   Thumb Code    14  QtMultimediaKit.in(.text)
    QAudioInputPrivate::setNotifyInterval(int) 0x0001b459   Thumb Code    36  QtMultimediaKit.in(.text)
    QAudioInputPrivate::notifyInterval() const 0x0001b47d   Thumb Code     4  QtMultimediaKit.in(.text)
    QAudioInputPrivate::processedUSecs() const 0x0001b481   Thumb Code    58  QtMultimediaKit.in(.text)
    QAudioInputPrivate::elapsedUSecs() const 0x0001b4bb   Thumb Code    38  QtMultimediaKit.in(.text)
    QAudioInputPrivate::error() const        0x0001b4e1   Thumb Code     4  QtMultimediaKit.in(.text)
    QAudioInputPrivate::state() const        0x0001b4e5   Thumb Code     4  QtMultimediaKit.in(.text)
    QAudioInputPrivate::format() const       0x0001b4e9   Thumb Code    10  QtMultimediaKit.in(.text)
    QAudioInputPrivate::setFormat(const QAudioFormat&) 0x0001b4f3   Thumb Code    10  QtMultimediaKit.in(.text)
    SymbianAudioOutputPrivate::getStaticMetaObject() 0x0001b501   Thumb Code     4  QtMultimediaKit.in(.text)
    SymbianAudioOutputPrivate::metaObject() const 0x0001b505   Thumb Code    12  QtMultimediaKit.in(.text)
    SymbianAudioOutputPrivate::qt_metacast(const char*) 0x0001b511   Thumb Code    40  QtMultimediaKit.in(.text)
    SymbianAudioOutputPrivate::qt_metacall(QMetaObject::Call, int, void**) 0x0001b539   Thumb Code     8  QtMultimediaKit.in(.text)
    SymbianAudioOutputPrivate::SymbianAudioOutputPrivate(QAudioOutputPrivate*) 0x0001b541   Thumb Code    16  QtMultimediaKit.in(.text)
    SymbianAudioOutputPrivate::SymbianAudioOutputPrivate__sub_object(QAudioOutputPrivate*) 0x0001b541   Thumb Code     0  QtMultimediaKit.in(.text)
    SymbianAudioOutputPrivate::~SymbianAudioOutputPrivate() 0x0001b551   Thumb Code     8  QtMultimediaKit.in(.text)
    SymbianAudioOutputPrivate::~SymbianAudioOutputPrivate__sub_object() 0x0001b551   Thumb Code     0  QtMultimediaKit.in(.text)
    SymbianAudioOutputPrivate::~SymbianAudioOutputPrivate__deallocating() 0x0001b559   Thumb Code    16  QtMultimediaKit.in(.text)
    SymbianAudioOutputPrivate::readData(char*, long long) 0x0001b569   Thumb Code     6  QtMultimediaKit.in(.text)
    QAudioOutputPrivate::setState(SymbianAudio::State) 0x0001b56f   Thumb Code    44  QtMultimediaKit.in(.text)
    QAudioOutputPrivate::getSamplesPlayed() const 0x0001b59b   Thumb Code    78  QtMultimediaKit.in(.text)
    QAudioOutputPrivate::bufferFilled()      0x0001b5e9   Thumb Code    58  QtMultimediaKit.in(.text)
    QAudioOutputPrivate::pushData(const char*, long long) 0x0001b623   Thumb Code   170  QtMultimediaKit.in(.text)
    SymbianAudioOutputPrivate::writeData(const char*, long long) 0x0001b6cd   Thumb Code   106  QtMultimediaKit.in(.text)
    QAudioOutputPrivate::getStaticMetaObject() 0x0001b737   Thumb Code     6  QtMultimediaKit.in(.text)
    QAudioOutputPrivate::metaObject() const  0x0001b73d   Thumb Code    14  QtMultimediaKit.in(.text)
    QAudioOutputPrivate::qt_metacast(const char*) 0x0001b74b   Thumb Code    40  QtMultimediaKit.in(.text)
    QAudioOutputPrivate::close()             0x0001b773   Thumb Code   100  QtMultimediaKit.in(.text)
    QAudioOutputPrivate::setError(QAudio::Error) 0x0001b7d7   Thumb Code    88  QtMultimediaKit.in(.text)
    QAudioOutputPrivate::devsoundPlayError(int) 0x0001b82f   Thumb Code    44  QtMultimediaKit.in(.text)
    QAudioOutputPrivate::lastBufferFilled()  0x0001b85b   Thumb Code    12  QtMultimediaKit.in(.text)
    QAudioOutputPrivate::pullData()          0x0001b867   Thumb Code   226  QtMultimediaKit.in(.text)
    QAudioOutputPrivate::isDataReady() const 0x0001b949   Thumb Code    48  QtMultimediaKit.in(.text)
    QAudioOutputPrivate::writePaddingData()  0x0001b979   Thumb Code   180  QtMultimediaKit.in(.text)
    QAudioOutputPrivate::devsoundBufferToBeFilled(CMMFBuffer*) 0x0001ba2d   Thumb Code    62  QtMultimediaKit.in(.text)
    QAudioOutputPrivate::dataReady()         0x0001ba6b   Thumb Code    10  QtMultimediaKit.in(.text)
    QAudioOutputPrivate::startPlayback()     0x0001ba75   Thumb Code   130  QtMultimediaKit.in(.text)
    QAudioOutputPrivate::devsoundInitializeComplete(int) 0x0001baf7   Thumb Code    40  QtMultimediaKit.in(.text)
    QAudioOutputPrivate::underflowTimerExpired() 0x0001bb1f   Thumb Code    38  QtMultimediaKit.in(.text)
    QAudioOutputPrivate::notifyTimerExpired() 0x0001bb45   Thumb Code    90  QtMultimediaKit.in(.text)
    QAudioOutputPrivate::qt_metacall(QMetaObject::Call, int, void**) 0x0001bb9f   Thumb Code   108  QtMultimediaKit.in(.text)
    QAudioOutputPrivate::QAudioOutputPrivate(const QByteArray&) 0x0001bc0b   Thumb Code   204  QtMultimediaKit.in(.text)
    QAudioOutputPrivate::QAudioOutputPrivate__sub_object(const QByteArray&) 0x0001bc0b   Thumb Code     0  QtMultimediaKit.in(.text)
    QAudioOutputPrivate::~QAudioOutputPrivate() 0x0001bcd7   Thumb Code    68  QtMultimediaKit.in(.text)
    QAudioOutputPrivate::~QAudioOutputPrivate__sub_object() 0x0001bcd7   Thumb Code     0  QtMultimediaKit.in(.text)
    QAudioOutputPrivate::~QAudioOutputPrivate__deallocating() 0x0001bd1b   Thumb Code    16  QtMultimediaKit.in(.text)
    QAudioOutputPrivate::open()              0x0001bd2b   Thumb Code   378  QtMultimediaKit.in(.text)
    QAudioOutputPrivate::start(QIODevice*)   0x0001bea5   Thumb Code    60  QtMultimediaKit.in(.text)
    QAudioOutputPrivate::start()             0x0001bee1   Thumb Code    76  QtMultimediaKit.in(.text)
    QAudioOutputPrivate::stop()              0x0001bf2d   Thumb Code     8  QtMultimediaKit.in(.text)
    QAudioOutputPrivate::reset()             0x0001bf35   Thumb Code    34  QtMultimediaKit.in(.text)
    QAudioOutputPrivate::suspend()           0x0001bf57   Thumb Code   108  QtMultimediaKit.in(.text)
    QAudioOutputPrivate::resume()            0x0001bfc3   Thumb Code    28  QtMultimediaKit.in(.text)
    QAudioOutputPrivate::bytesFree() const   0x0001bfdf   Thumb Code    28  QtMultimediaKit.in(.text)
    QAudioOutputPrivate::periodSize() const  0x0001bffb   Thumb Code     6  QtMultimediaKit.in(.text)
    QAudioOutputPrivate::setBufferSize(int)  0x0001c001   Thumb Code     8  QtMultimediaKit.in(.text)
    QAudioOutputPrivate::bufferSize() const  0x0001c009   Thumb Code    14  QtMultimediaKit.in(.text)
    QAudioOutputPrivate::setNotifyInterval(int) 0x0001c017   Thumb Code    36  QtMultimediaKit.in(.text)
    QAudioOutputPrivate::notifyInterval() const 0x0001c03b   Thumb Code     4  QtMultimediaKit.in(.text)
    QAudioOutputPrivate::processedUSecs() const 0x0001c03f   Thumb Code    58  QtMultimediaKit.in(.text)
    QAudioOutputPrivate::elapsedUSecs() const 0x0001c079   Thumb Code    38  QtMultimediaKit.in(.text)
    QAudioOutputPrivate::error() const       0x0001c09f   Thumb Code     4  QtMultimediaKit.in(.text)
    QAudioOutputPrivate::state() const       0x0001c0a3   Thumb Code     4  QtMultimediaKit.in(.text)
    QAudioOutputPrivate::format() const      0x0001c0a7   Thumb Code    10  QtMultimediaKit.in(.text)
    QAudioOutputPrivate::setFormat(const QAudioFormat&) 0x0001c0b1   Thumb Code    10  QtMultimediaKit.in(.text)
    QSoundEffectPrivate::getStaticMetaObject() 0x0001c0e1   Thumb Code     4  QtMultimediaKit.in(.text)
    QSoundEffectPrivate::metaObject() const  0x0001c0e5   Thumb Code    12  QtMultimediaKit.in(.text)
    QSoundEffectPrivate::qt_metacast(const char*) 0x0001c0f1   Thumb Code    40  QtMultimediaKit.in(.text)
    QSoundEffectPrivate::playingChanged()    0x0001c119   Thumb Code    14  QtMultimediaKit.in(.text)
    QSoundEffectPrivate::setPlaying(bool)    0x0001c127   Thumb Code    12  QtMultimediaKit.in(.text)
    QSoundEffectPrivate::stop()              0x0001c133   Thumb Code    36  QtMultimediaKit.in(.text)
    QSoundEffectPrivate::play()              0x0001c157   Thumb Code    54  QtMultimediaKit.in(.text)
    QSoundEffectPrivate::statusChanged()     0x0001c18d   Thumb Code    14  QtMultimediaKit.in(.text)
    QSoundEffectPrivate::loadedChanged()     0x0001c19b   Thumb Code    14  QtMultimediaKit.in(.text)
    QSoundEffectPrivate::mutedChanged()      0x0001c1a9   Thumb Code    14  QtMultimediaKit.in(.text)
    QSoundEffectPrivate::volumeChanged()     0x0001c1b7   Thumb Code    14  QtMultimediaKit.in(.text)
    QSoundEffectPrivate::qt_metacall(QMetaObject::Call, int, void**) 0x0001c1c5   Thumb Code    94  QtMultimediaKit.in(.text)
    QSoundEffectPrivate::QSoundEffectPrivate(QObject*) 0x0001c223   Thumb Code    62  QtMultimediaKit.in(.text)
    QSoundEffectPrivate::QSoundEffectPrivate__sub_object(QObject*) 0x0001c223   Thumb Code     0  QtMultimediaKit.in(.text)
    QSoundEffectPrivate::~QSoundEffectPrivate() 0x0001c261   Thumb Code    24  QtMultimediaKit.in(.text)
    QSoundEffectPrivate::~QSoundEffectPrivate__sub_object() 0x0001c261   Thumb Code     0  QtMultimediaKit.in(.text)
    QSoundEffectPrivate::~QSoundEffectPrivate__deallocating() 0x0001c279   Thumb Code    16  QtMultimediaKit.in(.text)
    QSoundEffectPrivate::supportedMimeTypes() 0x0001c289   Thumb Code    68  QtMultimediaKit.in(.text)
    QSoundEffectPrivate::source() const      0x0001c2cd   Thumb Code    10  QtMultimediaKit.in(.text)
    QSoundEffectPrivate::isLoaded() const    0x0001c2d7   Thumb Code    14  QtMultimediaKit.in(.text)
    QSoundEffectPrivate::setStatus(QSoundEffect::Status) 0x0001c2e5   Thumb Code    46  QtMultimediaKit.in(.text)
    QSoundEffectPrivate::setSource(const QUrl&) 0x0001c313   Thumb Code   206  QtMultimediaKit.in(.text)
    QSoundEffectPrivate::loopCount() const   0x0001c3e1   Thumb Code     4  QtMultimediaKit.in(.text)
    QSoundEffectPrivate::setLoopCount(int)   0x0001c3e5   Thumb Code    16  QtMultimediaKit.in(.text)
    QSoundEffectPrivate::volume() const      0x0001c3f5   Thumb Code     4  QtMultimediaKit.in(.text)
    QSoundEffectPrivate::setVolume(int)      0x0001c3f9   Thumb Code     4  QtMultimediaKit.in(.text)
    QSoundEffectPrivate::isMuted() const     0x0001c3fd   Thumb Code     4  QtMultimediaKit.in(.text)
    QSoundEffectPrivate::setMuted(bool)      0x0001c401   Thumb Code     4  QtMultimediaKit.in(.text)
    QSoundEffectPrivate::isPlaying()         0x0001c405   Thumb Code    52  QtMultimediaKit.in(.text)
    QSoundEffectPrivate::status() const      0x0001c439   Thumb Code     4  QtMultimediaKit.in(.text)
    QSoundEffectPrivate::timerEvent(QTimerEvent*) 0x0001c43d   Thumb Code    44  QtMultimediaKit.in(.text)
    QSoundEffect::getStaticMetaObject()      0x0001c4bd   Thumb Code     4  QtMultimediaKit.in(.text)
    QSoundEffect::metaObject() const         0x0001c4c1   Thumb Code    12  QtMultimediaKit.in(.text)
    QSoundEffect::qt_metacast(const char*)   0x0001c4cd   Thumb Code    38  QtMultimediaKit.in(.text)
    QSoundEffect::setMuted(bool)             0x0001c4f3   Thumb Code    26  QtMultimediaKit.in(.text)
    QSoundEffect::setVolume(float)           0x0001c50d   Thumb Code    70  QtMultimediaKit.in(.text)
    QSoundEffect::loopCountChanged()         0x0001c553   Thumb Code    14  QtMultimediaKit.in(.text)
    QSoundEffect::setLoopCount(int)          0x0001c561   Thumb Code    54  QtMultimediaKit.in(.text)
    QSoundEffect::sourceChanged()            0x0001c597   Thumb Code    14  QtMultimediaKit.in(.text)
    QSoundEffect::setSource(const QUrl&)     0x0001c5a5   Thumb Code    50  QtMultimediaKit.in(.text)
    QSoundEffect::status() const             0x0001c5d7   Thumb Code    10  QtMultimediaKit.in(.text)
    QSoundEffect::isPlaying() const          0x0001c5e1   Thumb Code    10  QtMultimediaKit.in(.text)
    QSoundEffect::isMuted() const            0x0001c5eb   Thumb Code    10  QtMultimediaKit.in(.text)
    QSoundEffect::volume() const             0x0001c5f5   Thumb Code    20  QtMultimediaKit.in(.text)
    QSoundEffect::loopCount() const          0x0001c609   Thumb Code    10  QtMultimediaKit.in(.text)
    QSoundEffect::source() const             0x0001c613   Thumb Code    10  QtMultimediaKit.in(.text)
    QSoundEffect::stop()                     0x0001c61d   Thumb Code    10  QtMultimediaKit.in(.text)
    QSoundEffect::play()                     0x0001c627   Thumb Code    10  QtMultimediaKit.in(.text)
    QSoundEffect::statusChanged()            0x0001c631   Thumb Code    14  QtMultimediaKit.in(.text)
    QSoundEffect::playingChanged()           0x0001c63f   Thumb Code    14  QtMultimediaKit.in(.text)
    QSoundEffect::loadedChanged()            0x0001c64d   Thumb Code    14  QtMultimediaKit.in(.text)
    QSoundEffect::mutedChanged()             0x0001c65b   Thumb Code    14  QtMultimediaKit.in(.text)
    QSoundEffect::volumeChanged()            0x0001c669   Thumb Code    14  QtMultimediaKit.in(.text)
    QSoundEffect::qt_metacall(QMetaObject::Call, int, void**) 0x0001c677   Thumb Code   290  QtMultimediaKit.in(.text)
    QSoundEffect::QSoundEffect(QObject*)     0x0001c799   Thumb Code   120  QtMultimediaKit.in(.text)
    QSoundEffect::QSoundEffect__sub_object(QObject*) 0x0001c799   Thumb Code     0  QtMultimediaKit.in(.text)
    QSoundEffect::~QSoundEffect()            0x0001c811   Thumb Code    22  QtMultimediaKit.in(.text)
    QSoundEffect::~QSoundEffect__sub_object() 0x0001c811   Thumb Code     0  QtMultimediaKit.in(.text)
    QSoundEffect::~QSoundEffect__deallocating() 0x0001c827   Thumb Code    16  QtMultimediaKit.in(.text)
    QSoundEffect::supportedMimeTypes()       0x0001c837   Thumb Code     8  QtMultimediaKit.in(.text)
    QSoundEffect::isLoaded() const           0x0001c83f   Thumb Code    10  QtMultimediaKit.in(.text)
    QWaveDecoder::getStaticMetaObject()      0x0001c8ed   Thumb Code     4  QtMultimediaKit.in(.text)
    QWaveDecoder::metaObject() const         0x0001c8f1   Thumb Code    12  QtMultimediaKit.in(.text)
    QWaveDecoder::qt_metacast(const char*)   0x0001c8fd   Thumb Code    40  QtMultimediaKit.in(.text)
    QWaveDecoder::invalidFormat()            0x0001c925   Thumb Code    14  QtMultimediaKit.in(.text)
    QWaveDecoder::formatKnown()              0x0001c933   Thumb Code    14  QtMultimediaKit.in(.text)
    QWaveDecoder::discardBytes(long long)    0x0001c941   Thumb Code    76  QtMultimediaKit.in(.text)
    QWaveDecoder::findChunk(const char*)     0x0001c98d   Thumb Code   100  QtMultimediaKit.in(.text)
    QWaveDecoder::handleData()               0x0001c9f1   Thumb Code   384  QtMultimediaKit.in(.text)
    QWaveDecoder::qt_metacall(QMetaObject::Call, int, void**) 0x0001cb71   Thumb Code    58  QtMultimediaKit.in(.text)
    QWaveDecoder::enoughDataAvailable()      0x0001cbab   Thumb Code    66  QtMultimediaKit.in(.text)
    QWaveDecoder::QWaveDecoder(QIODevice*, QObject*) 0x0001cbed   Thumb Code   102  QtMultimediaKit.in(.text)
    QWaveDecoder::QWaveDecoder__sub_object(QIODevice*, QObject*) 0x0001cbed   Thumb Code     0  QtMultimediaKit.in(.text)
    QWaveDecoder::~QWaveDecoder()            0x0001cc53   Thumb Code    24  QtMultimediaKit.in(.text)
    QWaveDecoder::~QWaveDecoder__sub_object() 0x0001cc53   Thumb Code     0  QtMultimediaKit.in(.text)
    QWaveDecoder::~QWaveDecoder__deallocating() 0x0001cc6b   Thumb Code    16  QtMultimediaKit.in(.text)
    QWaveDecoder::audioFormat() const        0x0001cc7b   Thumb Code    10  QtMultimediaKit.in(.text)
    QWaveDecoder::duration() const           0x0001cc85   Thumb Code   176  QtMultimediaKit.in(.text)
    QWaveDecoder::size() const               0x0001cd35   Thumb Code    20  QtMultimediaKit.in(.text)
    QWaveDecoder::isSequential() const       0x0001cd49   Thumb Code     8  QtMultimediaKit.in(.text)
    QWaveDecoder::bytesAvailable() const     0x0001cd51   Thumb Code    20  QtMultimediaKit.in(.text)
    QWaveDecoder::readData(char*, long long) 0x0001cd65   Thumb Code    22  QtMultimediaKit.in(.text)
    QWaveDecoder::writeData(const char*, long long) 0x0001cd7b   Thumb Code     8  QtMultimediaKit.in(.text)
    QAbstractVideoBuffer::QAbstractVideoBuffer__sub_object(QAbstractVideoBuffer::HandleType) 0x0001cd85   Thumb Code    40  QtMultimediaKit.in(.text)
    QAbstractVideoBuffer::~QAbstractVideoBuffer() 0x0001cdad   Thumb Code     0  QtMultimediaKit.in(.text)
    QAbstractVideoBuffer::~QAbstractVideoBuffer__sub_object() 0x0001cdad   Thumb Code    24  QtMultimediaKit.in(.text)
    QAbstractVideoBuffer::~QAbstractVideoBuffer__deallocating() 0x0001cdc5   Thumb Code    16  QtMultimediaKit.in(.text)
    QAbstractVideoBuffer::handleType() const 0x0001cdd5   Thumb Code     6  QtMultimediaKit.in(.text)
    QAbstractVideoBuffer::handle() const     0x0001cddb   Thumb Code    24  QtMultimediaKit.in(.text)
    QAbstractVideoBuffer::QAbstractVideoBuffer__sub_object(QAbstractVideoBufferPrivate&, QAbstractVideoBuffer::HandleType) 0x0001cdf3   Thumb Code    10  QtMultimediaKit.in(.text)
    QAbstractVideoSurface::getStaticMetaObject() 0x0001ce05   Thumb Code     4  QtMultimediaKit.in(.text)
    QAbstractVideoSurface::metaObject() const 0x0001ce09   Thumb Code    12  QtMultimediaKit.in(.text)
    QAbstractVideoSurface::qt_metacast(const char*) 0x0001ce15   Thumb Code    40  QtMultimediaKit.in(.text)
    QAbstractVideoSurface::nativeResolution() const 0x0001ce3d   Thumb Code    38  QtMultimediaKit.in(.text)
    QAbstractVideoSurface::nativeResolutionChanged(const QSize&) 0x0001ce63   Thumb Code    24  QtMultimediaKit.in(.text)
    QAbstractVideoSurface::supportedFormatsChanged() 0x0001ce7b   Thumb Code    14  QtMultimediaKit.in(.text)
    QAbstractVideoSurface::surfaceFormatChanged(const QVideoSurfaceFormat&) 0x0001ce89   Thumb Code    24  QtMultimediaKit.in(.text)
    QAbstractVideoSurface::activeChanged(bool) 0x0001cea1   Thumb Code    28  QtMultimediaKit.in(.text)
    QAbstractVideoSurface::qt_metacall(QMetaObject::Call, int, void**) 0x0001cebd   Thumb Code   130  QtMultimediaKit.in(.text)
    QAbstractVideoSurface::QAbstractVideoSurface__sub_object(QObject*) 0x0001cf3f   Thumb Code   138  QtMultimediaKit.in(.text)
    QAbstractVideoSurface::~QAbstractVideoSurface() 0x0001cfc9   Thumb Code     0  QtMultimediaKit.in(.text)
    QAbstractVideoSurface::~QAbstractVideoSurface__sub_object() 0x0001cfc9   Thumb Code     8  QtMultimediaKit.in(.text)
    QAbstractVideoSurface::~QAbstractVideoSurface__deallocating() 0x0001cfd1   Thumb Code    16  QtMultimediaKit.in(.text)
    QAbstractVideoSurface::isFormatSupported(const QVideoSurfaceFormat&) const 0x0001cfe1   Thumb Code   180  QtMultimediaKit.in(.text)
    QAbstractVideoSurface::nearestFormat(const QVideoSurfaceFormat&) const 0x0001d095   Thumb Code    52  QtMultimediaKit.in(.text)
    QAbstractVideoSurface::surfaceFormat() const 0x0001d0c9   Thumb Code   108  QtMultimediaKit.in(.text)
    QAbstractVideoSurface::start(const QVideoSurfaceFormat&) 0x0001d135   Thumb Code   220  QtMultimediaKit.in(.text)
    QAbstractVideoSurface::stop()            0x0001d211   Thumb Code   126  QtMultimediaKit.in(.text)
    QAbstractVideoSurface::isActive() const  0x0001d28f   Thumb Code    32  QtMultimediaKit.in(.text)
    QAbstractVideoSurface::error() const     0x0001d2af   Thumb Code    74  QtMultimediaKit.in(.text)
    QAbstractVideoSurface::QAbstractVideoSurface__sub_object(QAbstractVideoSurfacePrivate&, QObject*) 0x0001d2f9   Thumb Code    14  QtMultimediaKit.in(.text)
    QAbstractVideoSurface::setError(QAbstractVideoSurface::Error) 0x0001d307   Thumb Code    34  QtMultimediaKit.in(.text)
    QAbstractVideoSurface::setNativeResolution(const QSize&) 0x0001d329   Thumb Code    84  QtMultimediaKit.in(.text)
    QImageVideoBuffer::QImageVideoBuffer(const QImage&) 0x0001d391   Thumb Code    80  QtMultimediaKit.in(.text)
    QImageVideoBuffer::QImageVideoBuffer__sub_object(const QImage&) 0x0001d391   Thumb Code     0  QtMultimediaKit.in(.text)
    QImageVideoBuffer::~QImageVideoBuffer()  0x0001d3e1   Thumb Code     8  QtMultimediaKit.in(.text)
    QImageVideoBuffer::~QImageVideoBuffer__sub_object() 0x0001d3e1   Thumb Code     0  QtMultimediaKit.in(.text)
    QImageVideoBuffer::~QImageVideoBuffer__deallocating() 0x0001d3e9   Thumb Code    16  QtMultimediaKit.in(.text)
    QImageVideoBuffer::mapMode() const       0x0001d3f9   Thumb Code     6  QtMultimediaKit.in(.text)
    QImageVideoBuffer::map(QAbstractVideoBuffer::MapMode, int*, int*) 0x0001d3ff   Thumb Code    72  QtMultimediaKit.in(.text)
    QImageVideoBuffer::unmap()               0x0001d447   Thumb Code     8  QtMultimediaKit.in(.text)
    QMemoryVideoBuffer::QMemoryVideoBuffer(const QByteArray&, int) 0x0001d459   Thumb Code    82  QtMultimediaKit.in(.text)
    QMemoryVideoBuffer::QMemoryVideoBuffer__sub_object(const QByteArray&, int) 0x0001d459   Thumb Code     0  QtMultimediaKit.in(.text)
    QMemoryVideoBuffer::~QMemoryVideoBuffer() 0x0001d4ab   Thumb Code     8  QtMultimediaKit.in(.text)
    QMemoryVideoBuffer::~QMemoryVideoBuffer__sub_object() 0x0001d4ab   Thumb Code     0  QtMultimediaKit.in(.text)
    QMemoryVideoBuffer::~QMemoryVideoBuffer__deallocating() 0x0001d4b3   Thumb Code    16  QtMultimediaKit.in(.text)
    QMemoryVideoBuffer::mapMode() const      0x0001d4c3   Thumb Code     6  QtMultimediaKit.in(.text)
    QMemoryVideoBuffer::map(QAbstractVideoBuffer::MapMode, int*, int*) 0x0001d4c9   Thumb Code    68  QtMultimediaKit.in(.text)
    QMemoryVideoBuffer::unmap()              0x0001d50d   Thumb Code     8  QtMultimediaKit.in(.text)
    QVideoFrame::QVideoFrame()               0x0001d521   Thumb Code    58  QtMultimediaKit.in(.text)
    QVideoFrame::QVideoFrame__sub_object()   0x0001d521   Thumb Code     0  QtMultimediaKit.in(.text)
    QVideoFrame::QVideoFrame(QAbstractVideoBuffer*, const QSize&, QVideoFrame::PixelFormat) 0x0001d55b   Thumb Code    56  QtMultimediaKit.in(.text)
    QVideoFrame::QVideoFrame__sub_object(QAbstractVideoBuffer*, const QSize&, QVideoFrame::PixelFormat) 0x0001d55b   Thumb Code     0  QtMultimediaKit.in(.text)
    QVideoFrame::QVideoFrame(int, const QSize&, int, QVideoFrame::PixelFormat) 0x0001d593   Thumb Code   116  QtMultimediaKit.in(.text)
    QVideoFrame::QVideoFrame__sub_object(int, const QSize&, int, QVideoFrame::PixelFormat) 0x0001d593   Thumb Code     0  QtMultimediaKit.in(.text)
    QVideoFrame::pixelFormatFromImageFormat(QImage::Format) 0x0001d607   Thumb Code    56  QtMultimediaKit.in(.text)
    QVideoFrame::QVideoFrame(const QImage&)  0x0001d63f   Thumb Code   106  QtMultimediaKit.in(.text)
    QVideoFrame::QVideoFrame__sub_object(const QImage&) 0x0001d63f   Thumb Code     0  QtMultimediaKit.in(.text)
    QVideoFrame::QVideoFrame(const QVideoFrame&) 0x0001d6a9   Thumb Code    20  QtMultimediaKit.in(.text)
    QVideoFrame::QVideoFrame__sub_object(const QVideoFrame&) 0x0001d6a9   Thumb Code     0  QtMultimediaKit.in(.text)
    QVideoFrame::~QVideoFrame()              0x0001d6bd   Thumb Code     8  QtMultimediaKit.in(.text)
    QVideoFrame::~QVideoFrame__sub_object()  0x0001d6bd   Thumb Code     0  QtMultimediaKit.in(.text)
    QVideoFrame::operator =(const QVideoFrame&) 0x0001d6c5   Thumb Code    56  QtMultimediaKit.in(.text)
    QVideoFrame::isValid() const             0x0001d6fd   Thumb Code    16  QtMultimediaKit.in(.text)
    QVideoFrame::pixelFormat() const         0x0001d70d   Thumb Code     6  QtMultimediaKit.in(.text)
    QVideoFrame::handleType() const          0x0001d713   Thumb Code    20  QtMultimediaKit.in(.text)
    QVideoFrame::size() const                0x0001d727   Thumb Code    10  QtMultimediaKit.in(.text)
    QVideoFrame::width() const               0x0001d731   Thumb Code     6  QtMultimediaKit.in(.text)
    QVideoFrame::height() const              0x0001d737   Thumb Code     6  QtMultimediaKit.in(.text)
    QVideoFrame::fieldType() const           0x0001d73d   Thumb Code     6  QtMultimediaKit.in(.text)
    QVideoFrame::setFieldType(QVideoFrame::FieldType) 0x0001d743   Thumb Code     6  QtMultimediaKit.in(.text)
    QVideoFrame::isMapped() const            0x0001d749   Thumb Code    28  QtMultimediaKit.in(.text)
    QVideoFrame::isReadable() const          0x0001d765   Thumb Code    28  QtMultimediaKit.in(.text)
    QVideoFrame::isWritable() const          0x0001d781   Thumb Code    28  QtMultimediaKit.in(.text)
    QVideoFrame::mapMode() const             0x0001d79d   Thumb Code    18  QtMultimediaKit.in(.text)
    QVideoFrame::map(QAbstractVideoBuffer::MapMode) 0x0001d7af   Thumb Code    46  QtMultimediaKit.in(.text)
    QVideoFrame::unmap()                     0x0001d7dd   Thumb Code    32  QtMultimediaKit.in(.text)
    QVideoFrame::bytesPerLine() const        0x0001d7fd   Thumb Code     6  QtMultimediaKit.in(.text)
    QVideoFrame::bits()                      0x0001d803   Thumb Code     6  QtMultimediaKit.in(.text)
    QVideoFrame::bits() const                0x0001d809   Thumb Code     6  QtMultimediaKit.in(.text)
    QVideoFrame::mappedBytes() const         0x0001d80f   Thumb Code     6  QtMultimediaKit.in(.text)
    QVideoFrame::handle() const              0x0001d815   Thumb Code    92  QtMultimediaKit.in(.text)
    QVideoFrame::startTime() const           0x0001d871   Thumb Code     8  QtMultimediaKit.in(.text)
    QVideoFrame::setStartTime(long long)     0x0001d879   Thumb Code     8  QtMultimediaKit.in(.text)
    QVideoFrame::endTime() const             0x0001d881   Thumb Code     8  QtMultimediaKit.in(.text)
    QVideoFrame::setEndTime(long long)       0x0001d889   Thumb Code     8  QtMultimediaKit.in(.text)
    QVideoFrame::imageFormatFromPixelFormat(QVideoFrame::PixelFormat) 0x0001d891   Thumb Code    86  QtMultimediaKit.in(.text)
    QVideoSurfaceFormat::sizeHint() const    0x0001d8ed   Thumb Code    58  QtMultimediaKit.in(.text)
    QVideoSurfaceFormat::property(const char*) const 0x0001d927   Thumb Code   434  QtMultimediaKit.in(.text)
    QVideoSurfaceFormat::propertyNames() const 0x0001dad9   Thumb Code   264  QtMultimediaKit.in(.text)
    QVideoSurfaceFormat::pixelAspectRatio() const 0x0001dbe1   Thumb Code    10  QtMultimediaKit.in(.text)
    QVideoSurfaceFormat::viewport() const    0x0001dbeb   Thumb Code    12  QtMultimediaKit.in(.text)
    QVideoSurfaceFormat::frameSize() const   0x0001dbf7   Thumb Code    10  QtMultimediaKit.in(.text)
    QVideoSurfaceFormat::pixelFormat() const 0x0001dc01   Thumb Code     6  QtMultimediaKit.in(.text)
    operator <<(QDebug, const QVideoSurfaceFormat&) 0x0001dc07   Thumb Code  1266  QtMultimediaKit.in(.text)
    QVideoSurfaceFormat::QVideoSurfaceFormat() 0x0001e0f9   Thumb Code    94  QtMultimediaKit.in(.text)
    QVideoSurfaceFormat::QVideoSurfaceFormat__sub_object() 0x0001e0f9   Thumb Code     0  QtMultimediaKit.in(.text)
    QVideoSurfaceFormat::QVideoSurfaceFormat(const QSize&, QVideoFrame::PixelFormat, QAbstractVideoBuffer::HandleType) 0x0001e157   Thumb Code   112  QtMultimediaKit.in(.text)
    QVideoSurfaceFormat::QVideoSurfaceFormat__sub_object(const QSize&, QVideoFrame::PixelFormat, QAbstractVideoBuffer::HandleType) 0x0001e157   Thumb Code     0  QtMultimediaKit.in(.text)
    QVideoSurfaceFormat::QVideoSurfaceFormat(const QVideoSurfaceFormat&) 0x0001e1c7   Thumb Code    20  QtMultimediaKit.in(.text)
    QVideoSurfaceFormat::QVideoSurfaceFormat__sub_object(const QVideoSurfaceFormat&) 0x0001e1c7   Thumb Code     0  QtMultimediaKit.in(.text)
    QVideoSurfaceFormat::~QVideoSurfaceFormat() 0x0001e1db   Thumb Code     8  QtMultimediaKit.in(.text)
    QVideoSurfaceFormat::~QVideoSurfaceFormat__sub_object() 0x0001e1db   Thumb Code     0  QtMultimediaKit.in(.text)
    QVideoSurfaceFormat::operator =(const QVideoSurfaceFormat&) 0x0001e1e3   Thumb Code   282  QtMultimediaKit.in(.text)
    QVideoSurfaceFormat::operator ==(const QVideoSurfaceFormat&) const 0x0001e2fd   Thumb Code    26  QtMultimediaKit.in(.text)
    QVideoSurfaceFormat::operator !=(const QVideoSurfaceFormat&) const 0x0001e317   Thumb Code    26  QtMultimediaKit.in(.text)
    QVideoSurfaceFormat::isValid() const     0x0001e331   Thumb Code    36  QtMultimediaKit.in(.text)
    QVideoSurfaceFormat::handleType() const  0x0001e355   Thumb Code     6  QtMultimediaKit.in(.text)
    QVideoSurfaceFormat::setFrameSize(const QSize&) 0x0001e35b   Thumb Code    54  QtMultimediaKit.in(.text)
    QVideoSurfaceFormat::setFrameSize(int, int) 0x0001e391   Thumb Code    44  QtMultimediaKit.in(.text)
    QVideoSurfaceFormat::frameWidth() const  0x0001e3bd   Thumb Code     6  QtMultimediaKit.in(.text)
    QVideoSurfaceFormat::frameHeight() const 0x0001e3c3   Thumb Code     6  QtMultimediaKit.in(.text)
    QVideoSurfaceFormat::setViewport(const QRect&) 0x0001e3c9   Thumb Code    16  QtMultimediaKit.in(.text)
    QVideoSurfaceFormat::scanLineDirection() const 0x0001e3d9   Thumb Code     6  QtMultimediaKit.in(.text)
    QVideoSurfaceFormat::setScanLineDirection(QVideoSurfaceFormat::Direction) 0x0001e3df   Thumb Code    12  QtMultimediaKit.in(.text)
    QVideoSurfaceFormat::frameRate() const   0x0001e3eb   Thumb Code     6  QtMultimediaKit.in(.text)
    QVideoSurfaceFormat::setFrameRate(float) 0x0001e3f1   Thumb Code    12  QtMultimediaKit.in(.text)
    QVideoSurfaceFormat::setPixelAspectRatio(const QSize&) 0x0001e3fd   Thumb Code    16  QtMultimediaKit.in(.text)
    QVideoSurfaceFormat::setPixelAspectRatio(int, int) 0x0001e40d   Thumb Code    16  QtMultimediaKit.in(.text)
    QVideoSurfaceFormat::yCbCrColorSpace() const 0x0001e41d   Thumb Code     6  QtMultimediaKit.in(.text)
    QVideoSurfaceFormat::setYCbCrColorSpace(QVideoSurfaceFormat::YCbCrColorSpace) 0x0001e423   Thumb Code    12  QtMultimediaKit.in(.text)
    QVideoSurfaceFormat::setProperty(const char*, const QVariant&) 0x0001e42f   Thumb Code   804  QtMultimediaKit.in(.text)
    _E32Dll_Body                             0x0001e781   Thumb Code    34  uc_dll.o(.text)
    CppBSSInitializationError                0x0001e7a8   ARM Code       4  ucppfini.o(.text)
    __aeabi_atexit                           0x0001e7ac   ARM Code      28  ucppfini.o(.text)
    __cxa_atexit                             0x0001e7c8   ARM Code      48  ucppfini.o(.text)
    __cxa_finalize                           0x0001e7f8   ARM Code      48  ucppfini.o(.text)
    run_static_dtors                         0x0001e828   ARM Code       8  ucppfini.o(.text)
    __DLL_Export_Table__                     0x00020360   ARM Code       0  QtMultimediaKit{00010103}.exp(ExportTable)
    DLL##ExportTableSize                     0x00020364   Data           0  QtMultimediaKit{00010103}.exp(ExportTable)
    DLL##ExportTable                         0x00020368   Data           0  QtMultimediaKit{00010103}.exp(ExportTable)
    CMMFDevSound::SamplesPlayed()            0x00021cb8   ARM Code       0  MmfDevSound{000a0000}-10.o(StubCode)
    CMMFDevSound::SamplesRecorded()          0x00021cc0   ARM Code       0  MmfDevSound{000a0000}-17.o(StubCode)
    CMMFDevSound::RecordData()               0x00021cc8   ARM Code       0  MmfDevSound{000a0000}-2.o(StubCode)
    CMMFDevSound::NewL()                     0x00021cd0   ARM Code       0  MmfDevSound{000a0000}-27.o(StubCode)
    CMMFDevSound::Stop()                     0x00021cd8   ARM Code       0  MmfDevSound{000a0000}-28.o(StubCode)
    CMMFDevSound::SetConfigL(const TMMFCapabilities&) 0x00021ce0   ARM Code       0  MmfDevSound{000a0000}-3.o(StubCode)
    CMMFDevSound::PlayData()                 0x00021ce8   ARM Code       0  MmfDevSound{000a0000}-33.o(StubCode)
    CMMFDevSound::PlayInitL()                0x00021cf0   ARM Code       0  MmfDevSound{000a0000}-35.o(StubCode)
    CMMFDevSound::Config() const             0x00021cf8   ARM Code       0  MmfDevSound{000a0000}-42.o(StubCode)
    CMMFDevSound::InitializeL(MDevSoundObserver&, TFourCC, TMMFState) 0x00021d00   ARM Code       0  MmfDevSound{000a0000}-5.o(StubCode)
    CMMFDevSound::RecordInitL()              0x00021d08   ARM Code       0  MmfDevSound{000a0000}-7.o(StubCode)
    CMMFDevSound::Capabilities()             0x00021d10   ARM Code       0  MmfDevSound{000a0000}-8.o(StubCode)
    RFs::Att(const TDesC16&, unsigned&) const 0x00021d18   ARM Code       0  efsrv{000a0000}-231.o(StubCode)
    RFs::Connect(int)                        0x00021d20   ARM Code       0  efsrv{000a0000}-68.o(StubCode)
    operator delete (void*)                  0x00021d28   ARM Code       0  libstdcpp{00010000}-988.o(StubCode)
    operator new(unsigned)                   0x00021d30   ARM Code       0  libstdcpp{00010000}-992.o(StubCode)
    QRegion::rects() const                   0x00021d38   ARM Code       0  QtGui{00040703}-10007.o(StubCode)
    QRegion::subtract(const QRegion&) const  0x00021d40   ARM Code       0  QtGui{00040703}-10014.o(StubCode)
    QWidget::paintEngine() const             0x00021d48   ARM Code       0  QtGui{00040703}-10076.o(StubCode)
    QWidget::windowState() const             0x00021d50   ARM Code       0  QtGui{00040703}-10077.o(StubCode)
    QWidget::isFullScreen() const            0x00021d58   ARM Code       0  QtGui{00040703}-10083.o(StubCode)
    QWidget::effectiveWinId() const          0x00021d60   ARM Code       0  QtGui{00040703}-10094.o(StubCode)
    QWidget::heightForWidth(int) const       0x00021d68   ARM Code       0  QtGui{00040703}-10098.o(StubCode)
    QWidget::minimumSizeHint() const         0x00021d70   ARM Code       0  QtGui{00040703}-10106.o(StubCode)
    QWidget::inputMethodQuery(Qt::InputMethodQuery) const 0x00021d78   ARM Code       0  QtGui{00040703}-10108.o(StubCode)
    QWidget::testAttribute_helper(Qt::WidgetAttribute) const 0x00021d80   ARM Code       0  QtGui{00040703}-10119.o(StubCode)
    QWidget::winId() const                   0x00021d88   ARM Code       0  QtGui{00040703}-10124.o(StubCode)
    QWidget::layout() const                  0x00021d90   ARM Code       0  QtGui{00040703}-10127.o(StubCode)
    QWidget::metric(QPaintDevice::PaintDeviceMetric) const 0x00021d98   ARM Code       0  QtGui{00040703}-10129.o(StubCode)
    QWidget::window() const                  0x00021da0   ARM Code       0  QtGui{00040703}-10130.o(StubCode)
    QWidget::devType() const                 0x00021da8   ARM Code       0  QtGui{00040703}-10133.o(StubCode)
    QWidget::palette() const                 0x00021db0   ARM Code       0  QtGui{00040703}-10135.o(StubCode)
    QWidget::sizeHint() const                0x00021db8   ARM Code       0  QtGui{00040703}-10139.o(StubCode)
    QPainter::combinedTransform() const      0x00021dc0   ARM Code       0  QtGui{00040703}-10208.o(StubCode)
    QPainter::transform() const              0x00021dc8   ARM Code       0  QtGui{00040703}-10222.o(StubCode)
    QPalette::brush(QPalette::ColorGroup, QPalette::ColorRole) const 0x00021dd0   ARM Code       0  QtGui{00040703}-10225.o(StubCode)
    thunk{-8} to QWidget::paintEngine() const 0x00021dd8   ARM Code       0  QtGui{00040703}-11460.o(StubCode)
    thunk{-8} to QWidget::metric(QPaintDevice::PaintDeviceMetric) const 0x00021de0   ARM Code       0  QtGui{00040703}-11461.o(StubCode)
    thunk{-8} to QWidget::devType() const    0x00021de8   ARM Code       0  QtGui{00040703}-11462.o(StubCode)
    QImage::byteCount() const                0x00021df0   ARM Code       0  QtGui{00040703}-11717.o(StubCode)
    QVBoxLayout::QVBoxLayout()               0x00021df8   ARM Code       0  QtGui{00040703}-1436.o(StubCode)
    QImageReader::supportedImageFormats()    0x00021e00   ARM Code       0  QtGui{00040703}-1698.o(StubCode)
    QImageReader::read()                     0x00021e08   ARM Code       0  QtGui{00040703}-1702.o(StubCode)
    QImageReader::QImageReader(QIODevice*, const QByteArray&) 0x00021e10   ARM Code       0  QtGui{00040703}-1705.o(StubCode)
    QImageReader::~QImageReader()            0x00021e18   ARM Code       0  QtGui{00040703}-1711.o(StubCode)
    QGraphicsItem::itemChange(QGraphicsItem::GraphicsItemChange, const QVariant&) 0x00021e20   ARM Code       0  QtGui{00040703}-2295.o(StubCode)
    QGraphicsItem::sceneEvent(QEvent*)       0x00021e28   ARM Code       0  QtGui{00040703}-2296.o(StubCode)
    QGraphicsItem::wheelEvent(QGraphicsSceneWheelEvent*) 0x00021e30   ARM Code       0  QtGui{00040703}-2301.o(StubCode)
    QGraphicsItem::focusInEvent(QFocusEvent*) 0x00021e38   ARM Code       0  QtGui{00040703}-2308.o(StubCode)
    QGraphicsItem::setCacheMode(QGraphicsItem::CacheMode, const QSize&) 0x00021e40   ARM Code       0  QtGui{00040703}-2310.o(StubCode)
    QGraphicsItem::setExtension(QGraphicsItem::Extension, const QVariant&) 0x00021e48   ARM Code       0  QtGui{00040703}-2311.o(StubCode)
    QGraphicsItem::dragMoveEvent(QGraphicsSceneDragDropEvent*) 0x00021e50   ARM Code       0  QtGui{00040703}-2313.o(StubCode)
    QGraphicsItem::focusOutEvent(QFocusEvent*) 0x00021e58   ARM Code       0  QtGui{00040703}-2315.o(StubCode)
    QGraphicsItem::keyPressEvent(QKeyEvent*) 0x00021e60   ARM Code       0  QtGui{00040703}-2316.o(StubCode)
    QGraphicsItem::dragEnterEvent(QGraphicsSceneDragDropEvent*) 0x00021e68   ARM Code       0  QtGui{00040703}-2319.o(StubCode)
    QGraphicsItem::dragLeaveEvent(QGraphicsSceneDragDropEvent*) 0x00021e70   ARM Code       0  QtGui{00040703}-2320.o(StubCode)
    QGraphicsItem::hoverMoveEvent(QGraphicsSceneHoverEvent*) 0x00021e78   ARM Code       0  QtGui{00040703}-2321.o(StubCode)
    QGraphicsItem::mouseMoveEvent(QGraphicsSceneMouseEvent*) 0x00021e80   ARM Code       0  QtGui{00040703}-2322.o(StubCode)
    QGraphicsItem::hoverEnterEvent(QGraphicsSceneHoverEvent*) 0x00021e88   ARM Code       0  QtGui{00040703}-2326.o(StubCode)
    QGraphicsItem::hoverLeaveEvent(QGraphicsSceneHoverEvent*) 0x00021e90   ARM Code       0  QtGui{00040703}-2327.o(StubCode)
    QGraphicsItem::keyReleaseEvent(QKeyEvent*) 0x00021e98   ARM Code       0  QtGui{00040703}-2328.o(StubCode)
    QGraphicsItem::mousePressEvent(QGraphicsSceneMouseEvent*) 0x00021ea0   ARM Code       0  QtGui{00040703}-2329.o(StubCode)
    QGraphicsItem::contextMenuEvent(QGraphicsSceneContextMenuEvent*) 0x00021ea8   ARM Code       0  QtGui{00040703}-2331.o(StubCode)
    QGraphicsItem::inputMethodEvent(QInputMethodEvent*) 0x00021eb0   ARM Code       0  QtGui{00040703}-2332.o(StubCode)
    QGraphicsItem::sceneEventFilter(QGraphicsItem*, QEvent*) 0x00021eb8   ARM Code       0  QtGui{00040703}-2333.o(StubCode)
    QGraphicsItem::mouseReleaseEvent(QGraphicsSceneMouseEvent*) 0x00021ec0   ARM Code       0  QtGui{00040703}-2336.o(StubCode)
    QGraphicsItem::mouseDoubleClickEvent(QGraphicsSceneMouseEvent*) 0x00021ec8   ARM Code       0  QtGui{00040703}-2342.o(StubCode)
    QGraphicsItem::prepareGeometryChange()   0x00021ed0   ARM Code       0  QtGui{00040703}-2343.o(StubCode)
    QGraphicsItem::update(const QRectF&)     0x00021ed8   ARM Code       0  QtGui{00040703}-2359.o(StubCode)
    QGraphicsItem::advance(int)              0x00021ee0   ARM Code       0  QtGui{00040703}-2360.o(StubCode)
    QGraphicsItem::setFlag(QGraphicsItem::GraphicsItemFlag, bool) 0x00021ee8   ARM Code       0  QtGui{00040703}-2362.o(StubCode)
    QGraphicsItem::dropEvent(QGraphicsSceneDragDropEvent*) 0x00021ef0   ARM Code       0  QtGui{00040703}-2367.o(StubCode)
    QGraphicsItem::~QGraphicsItem__sub_object() 0x00021ef8   ARM Code       0  QtGui{00040703}-2378.o(StubCode)
    QGraphicsView::setViewportUpdateMode(QGraphicsView::ViewportUpdateMode) 0x00021f00   ARM Code       0  QtGui{00040703}-2426.o(StubCode)
    QGraphicsObject::qt_metacall(QMetaObject::Call, int, void**) 0x00021f08   ARM Code       0  QtGui{00040703}-3345.o(StubCode)
    QGraphicsObject::qt_metacast(const char*) 0x00021f10   ARM Code       0  QtGui{00040703}-3346.o(StubCode)
    QGraphicsObject::QGraphicsObject__sub_object(QGraphicsItem*) 0x00021f18   ARM Code       0  QtGui{00040703}-3358.o(StubCode)
    QBoxLayout::setSpacing(int)              0x00021f20   ARM Code       0  QtGui{00040703}-47.o(StubCode)
    QBrush::QBrush(Qt::GlobalColor, Qt::BrushStyle) 0x00021f28   ARM Code       0  QtGui{00040703}-5620.o(StubCode)
    QBrush::QBrush(const QColor&, Qt::BrushStyle) 0x00021f30   ARM Code       0  QtGui{00040703}-5622.o(StubCode)
    QBrush::QBrush(const QBrush&)            0x00021f38   ARM Code       0  QtGui{00040703}-5627.o(StubCode)
    QBrush::~QBrush()                        0x00021f40   ARM Code       0  QtGui{00040703}-5639.o(StubCode)
    QColor::invalidate()                     0x00021f48   ARM Code       0  QtGui{00040703}-5643.o(StubCode)
    QColor::QColor(Qt::GlobalColor)          0x00021f50   ARM Code       0  QtGui{00040703}-5675.o(StubCode)
    QColor::operator =(const QColor&)        0x00021f58   ARM Code       0  QtGui{00040703}-5682.o(StubCode)
    QImage::bits()                           0x00021f60   ARM Code       0  QtGui{00040703}-5713.o(StubCode)
    QImage::QImage(unsigned char*, int, int, int, QImage::Format) 0x00021f68   ARM Code       0  QtGui{00040703}-5730.o(StubCode)
    QImage::QImage()                         0x00021f70   ARM Code       0  QtGui{00040703}-5735.o(StubCode)
    QImage::~QImage()                        0x00021f78   ARM Code       0  QtGui{00040703}-5748.o(StubCode)
    QImage::operator =(const QImage&)        0x00021f80   ARM Code       0  QtGui{00040703}-5750.o(StubCode)
    QSound::isAvailable()                    0x00021f88   ARM Code       0  QtGui{00040703}-5826.o(StubCode)
    QSound::play()                           0x00021f90   ARM Code       0  QtGui{00040703}-5832.o(StubCode)
    QSound::stop()                           0x00021f98   ARM Code       0  QtGui{00040703}-5833.o(StubCode)
    QSound::setLoops(int)                    0x00021fa0   ARM Code       0  QtGui{00040703}-5834.o(StubCode)
    QSound::QSound(const QString&, QObject*) 0x00021fa8   ARM Code       0  QtGui{00040703}-5835.o(StubCode)
    QLayout::setMargin(int)                  0x00021fb0   ARM Code       0  QtGui{00040703}-6004.o(StubCode)
    QMatrix::QMatrix(const QMatrix&)         0x00021fb8   ARM Code       0  QtGui{00040703}-6017.o(StubCode)
    QPixmap::QPixmap(const QPixmap&)         0x00021fc0   ARM Code       0  QtGui{00040703}-6050.o(StubCode)
    QPixmap::QPixmap()                       0x00021fc8   ARM Code       0  QtGui{00040703}-6052.o(StubCode)
    QPixmap::~QPixmap()                      0x00021fd0   ARM Code       0  QtGui{00040703}-6063.o(StubCode)
    QRegion::QRegion(const QRect&, QRegion::RegionType) 0x00021fd8   ARM Code       0  QtGui{00040703}-6072.o(StubCode)
    QRegion::QRegion(const QRegion&)         0x00021fe0   ARM Code       0  QtGui{00040703}-6075.o(StubCode)
    QRegion::~QRegion()                      0x00021fe8   ARM Code       0  QtGui{00040703}-6084.o(StubCode)
    QRegion::operator =(const QRegion&)      0x00021ff0   ARM Code       0  QtGui{00040703}-6088.o(StubCode)
    QWidget::closeEvent(QCloseEvent*)        0x00021ff8   ARM Code       0  QtGui{00040703}-6166.o(StubCode)
    QWidget::enterEvent(QEvent*)             0x00022000   ARM Code       0  QtGui{00040703}-6167.o(StubCode)
    QWidget::fontChange(const QFont&)        0x00022008   ARM Code       0  QtGui{00040703}-6168.o(StubCode)
    QWidget::leaveEvent(QEvent*)             0x00022010   ARM Code       0  QtGui{00040703}-6169.o(StubCode)
    QWidget::setPalette(const QPalette&)     0x00022018   ARM Code       0  QtGui{00040703}-6172.o(StubCode)
    QWidget::setVisible(bool)                0x00022020   ARM Code       0  QtGui{00040703}-6174.o(StubCode)
    QWidget::showNormal()                    0x00022028   ARM Code       0  QtGui{00040703}-6175.o(StubCode)
    QWidget::wheelEvent(QWheelEvent*)        0x00022030   ARM Code       0  QtGui{00040703}-6178.o(StubCode)
    QWidget::actionEvent(QActionEvent*)      0x00022038   ARM Code       0  QtGui{00040703}-6179.o(StubCode)
    QWidget::changeEvent(QEvent*)            0x00022040   ARM Code       0  QtGui{00040703}-6180.o(StubCode)
    QWidget::qt_metacall(QMetaObject::Call, int, void**) 0x00022048   ARM Code       0  QtGui{00040703}-6183.o(StubCode)
    QWidget::qt_metacast(const char*)        0x00022050   ARM Code       0  QtGui{00040703}-6184.o(StubCode)
    QWidget::resizeEvent(QResizeEvent*)      0x00022058   ARM Code       0  QtGui{00040703}-6185.o(StubCode)
    QWidget::styleChange(QStyle&)            0x00022060   ARM Code       0  QtGui{00040703}-6190.o(StubCode)
    QWidget::tabletEvent(QTabletEvent*)      0x00022068   ARM Code       0  QtGui{00040703}-6191.o(StubCode)
    QWidget::focusInEvent(QFocusEvent*)      0x00022070   ARM Code       0  QtGui{00040703}-6194.o(StubCode)
    QWidget::dragMoveEvent(QDragMoveEvent*)  0x00022078   ARM Code       0  QtGui{00040703}-6208.o(StubCode)
    QWidget::enabledChange(bool)             0x00022080   ARM Code       0  QtGui{00040703}-6209.o(StubCode)
    QWidget::focusOutEvent(QFocusEvent*)     0x00022088   ARM Code       0  QtGui{00040703}-6210.o(StubCode)
    QWidget::keyPressEvent(QKeyEvent*)       0x00022090   ARM Code       0  QtGui{00040703}-6212.o(StubCode)
    QWidget::paletteChange(const QPalette&)  0x00022098   ARM Code       0  QtGui{00040703}-6213.o(StubCode)
    QWidget::dragEnterEvent(QDragEnterEvent*) 0x000220a0   ARM Code       0  QtGui{00040703}-6223.o(StubCode)
    QWidget::dragLeaveEvent(QDragLeaveEvent*) 0x000220a8   ARM Code       0  QtGui{00040703}-6224.o(StubCode)
    QWidget::languageChange()                0x000220b0   ARM Code       0  QtGui{00040703}-6225.o(StubCode)
    QWidget::mouseMoveEvent(QMouseEvent*)    0x000220b8   ARM Code       0  QtGui{00040703}-6226.o(StubCode)
    QWidget::setWindowFlags(QFlags<Qt::WindowType>) 0x000220c0   ARM Code       0  QtGui{00040703}-6232.o(StubCode)
    QWidget::showFullScreen()                0x000220c8   ARM Code       0  QtGui{00040703}-6235.o(StubCode)
    QWidget::updateGeometry()                0x000220d0   ARM Code       0  QtGui{00040703}-6236.o(StubCode)
    QWidget::keyReleaseEvent(QKeyEvent*)     0x000220d8   ARM Code       0  QtGui{00040703}-6237.o(StubCode)
    QWidget::mousePressEvent(QMouseEvent*)   0x000220e0   ARM Code       0  QtGui{00040703}-6239.o(StubCode)
    QWidget::contextMenuEvent(QContextMenuEvent*) 0x000220e8   ARM Code       0  QtGui{00040703}-6246.o(StubCode)
    QWidget::inputMethodEvent(QInputMethodEvent*) 0x000220f0   ARM Code       0  QtGui{00040703}-6247.o(StubCode)
    QWidget::mouseReleaseEvent(QMouseEvent*) 0x000220f8   ARM Code       0  QtGui{00040703}-6255.o(StubCode)
    QWidget::focusNextPrevChild(bool)        0x00022100   ARM Code       0  QtGui{00040703}-6265.o(StubCode)
    QWidget::mouseDoubleClickEvent(QMouseEvent*) 0x00022108   ARM Code       0  QtGui{00040703}-6276.o(StubCode)
    QWidget::windowActivationChange(bool)    0x00022110   ARM Code       0  QtGui{00040703}-6279.o(StubCode)
    QWidget::event(QEvent*)                  0x00022118   ARM Code       0  QtGui{00040703}-6284.o(StubCode)
    QWidget::update(const QRect&)            0x00022120   ARM Code       0  QtGui{00040703}-6293.o(StubCode)
    QWidget::update()                        0x00022128   ARM Code       0  QtGui{00040703}-6295.o(StubCode)
    QWidget::dropEvent(QDropEvent*)          0x00022130   ARM Code       0  QtGui{00040703}-6308.o(StubCode)
    QWidget::hideEvent(QHideEvent*)          0x00022138   ARM Code       0  QtGui{00040703}-6311.o(StubCode)
    QWidget::setLayout(QLayout*)             0x00022140   ARM Code       0  QtGui{00040703}-6314.o(StubCode)
    QWidget::setParent(QWidget*)             0x00022148   ARM Code       0  QtGui{00040703}-6316.o(StubCode)
    QWidget::showEvent(QShowEvent*)          0x00022150   ARM Code       0  QtGui{00040703}-6318.o(StubCode)
    QWidget::QWidget(QWidget*, QFlags<Qt::WindowType>) 0x00022158   ARM Code       0  QtGui{00040703}-6319.o(StubCode)
    QWidget::~QWidget()                      0x00022160   ARM Code       0  QtGui{00040703}-6324.o(StubCode)
    QPainter::drawPixmap(const QRectF&, const QPixmap&, const QRectF&) 0x00022168   ARM Code       0  QtGui{00040703}-6455.o(StubCode)
    QPainter::setTransform(const QTransform&, bool) 0x00022170   ARM Code       0  QtGui{00040703}-6479.o(StubCode)
    QPainter::setCompositionMode(QPainter::CompositionMode) 0x00022178   ARM Code       0  QtGui{00040703}-6499.o(StubCode)
    QPainter::scale(float, float)            0x00022180   ARM Code       0  QtGui{00040703}-6508.o(StubCode)
    QPainter::fillRect(const QRect&, const QBrush&) 0x00022188   ARM Code       0  QtGui{00040703}-6525.o(StubCode)
    QPainter::fillRect(const QRectF&, const QBrush&) 0x00022190   ARM Code       0  QtGui{00040703}-6527.o(StubCode)
    QPainter::fillRect(const QRectF&, const QColor&) 0x00022198   ARM Code       0  QtGui{00040703}-6528.o(StubCode)
    QPainter::drawImage(const QRectF&, const QImage&, const QRectF&, QFlags<Qt::ImageConversionFlag>) 0x000221a0   ARM Code       0  QtGui{00040703}-6533.o(StubCode)
    QPainter::translate(const QPointF&)      0x000221a8   ARM Code       0  QtGui{00040703}-6544.o(StubCode)
    QPainter::QPainter(QPaintDevice*)        0x000221b0   ARM Code       0  QtGui{00040703}-6545.o(StubCode)
    QPainter::~QPainter()                    0x000221b8   ARM Code       0  QtGui{00040703}-6549.o(StubCode)
    QPalette::setBrush(QPalette::ColorGroup, QPalette::ColorRole, const QBrush&) 0x000221c0   ARM Code       0  QtGui{00040703}-6558.o(StubCode)
    QPalette::QPalette(const QPalette&)      0x000221c8   ARM Code       0  QtGui{00040703}-6564.o(StubCode)
    QPalette::~QPalette()                    0x000221d0   ARM Code       0  QtGui{00040703}-6573.o(StubCode)
    QBoxLayout::addWidget(QWidget*, int, QFlags<Qt::AlignmentFlag>) 0x000221d8   ARM Code       0  QtGui{00040703}-67.o(StubCode)
    QTransform::mapRect(const QRectF&) const 0x000221e0   ARM Code       0  QtGui{00040703}-7523.o(StubCode)
    QImageReader::canRead() const            0x000221e8   ARM Code       0  QtGui{00040703}-8128.o(StubCode)
    QGraphicsItem::opaqueArea() const        0x000221f0   ARM Code       0  QtGui{00040703}-8408.o(StubCode)
    QGraphicsItem::isObscuredBy(const QGraphicsItem*) const 0x000221f8   ARM Code       0  QtGui{00040703}-8422.o(StubCode)
    QGraphicsItem::collidesWithItem(const QGraphicsItem*, Qt::ItemSelectionMode) const 0x00022200   ARM Code       0  QtGui{00040703}-8449.o(StubCode)
    QGraphicsItem::collidesWithPath(const QPainterPath&, Qt::ItemSelectionMode) const 0x00022208   ARM Code       0  QtGui{00040703}-8450.o(StubCode)
    QGraphicsItem::inputMethodQuery(Qt::InputMethodQuery) const 0x00022210   ARM Code       0  QtGui{00040703}-8453.o(StubCode)
    QGraphicsItem::supportsExtension(QGraphicsItem::Extension) const 0x00022218   ARM Code       0  QtGui{00040703}-8460.o(StubCode)
    QGraphicsItem::type() const              0x00022220   ARM Code       0  QtGui{00040703}-8472.o(StubCode)
    QGraphicsItem::scene() const             0x00022228   ARM Code       0  QtGui{00040703}-8477.o(StubCode)
    QGraphicsItem::shape() const             0x00022230   ARM Code       0  QtGui{00040703}-8478.o(StubCode)
    QGraphicsItem::contains(const QPointF&) const 0x00022238   ARM Code       0  QtGui{00040703}-8488.o(StubCode)
    QGraphicsItem::extension(const QVariant&) const 0x00022240   ARM Code       0  QtGui{00040703}-8496.o(StubCode)
    QGraphicsView::viewportUpdateMode() const 0x00022248   ARM Code       0  QtGui{00040703}-8525.o(StubCode)
    QGraphicsScene::views() const            0x00022250   ARM Code       0  QtGui{00040703}-8743.o(StubCode)
    QColor::alpha() const                    0x00022258   ARM Code       0  QtGui{00040703}-9726.o(StubCode)
    QImage::bytesPerLine() const             0x00022260   ARM Code       0  QtGui{00040703}-9778.o(StubCode)
    QImage::convertToFormat(QImage::Format, QFlags<Qt::ImageConversionFlag>) const 0x00022268   ARM Code       0  QtGui{00040703}-9785.o(StubCode)
    QImage::size() const                     0x00022270   ARM Code       0  QtGui{00040703}-9796.o(StubCode)
    QImage::format() const                   0x00022278   ARM Code       0  QtGui{00040703}-9805.o(StubCode)
    QImage::isNull() const                   0x00022280   ARM Code       0  QtGui{00040703}-9807.o(StubCode)
    QSound::isFinished() const               0x00022288   ARM Code       0  QtGui{00040703}-9856.o(StubCode)
    QNetworkRequest::QNetworkRequest(const QUrl&) 0x00022290   ARM Code       0  QtNetwork{00040703}-322.o(StubCode)
    QNetworkRequest::QNetworkRequest(const QNetworkRequest&) 0x00022298   ARM Code       0  QtNetwork{00040703}-323.o(StubCode)
    QNetworkRequest::~QNetworkRequest()      0x000222a0   ARM Code       0  QtNetwork{00040703}-326.o(StubCode)
    QNetworkAccessManager::get(const QNetworkRequest&) 0x000222a8   ARM Code       0  QtNetwork{00040703}-478.o(StubCode)
    QNetworkAccessManager::head(const QNetworkRequest&) 0x000222b0   ARM Code       0  QtNetwork{00040703}-481.o(StubCode)
    QNetworkAccessManager::QNetworkAccessManager(QObject*) 0x000222b8   ARM Code       0  QtNetwork{00040703}-488.o(StubCode)
    QNetworkReply::url() const               0x000222c0   ARM Code       0  QtNetwork{00040703}-754.o(StubCode)
    QNetworkReply::header(QNetworkRequest::KnownHeaders) const 0x000222c8   ARM Code       0  QtNetwork{00040703}-756.o(StubCode)
    QNetworkReply::request() const           0x000222d0   ARM Code       0  QtNetwork{00040703}-758.o(StubCode)
    QNetworkRequest::url() const             0x000222d8   ARM Code       0  QtNetwork{00040703}-799.o(StubCode)
    QNetworkRequest::operator ==(const QNetworkRequest&) const 0x000222e0   ARM Code       0  QtNetwork{00040703}-803.o(StubCode)
    qWarning(const char*, ...)               0x000222e8   ARM Code       0  QtCore{00040703}-104.o(StubCode)
    qBadAlloc()                              0x000222f0   ARM Code       0  QtCore{00040703}-109.o(StubCode)
    QByteArray::resize(int)                  0x000222f8   ARM Code       0  QtCore{00040703}-141.o(StubCode)
    QDir::toNativeSeparators(const QString&) 0x00022300   ARM Code       0  QtCore{00040703}-1453.o(StubCode)
    QDir::QDir(const QString&)               0x00022308   ARM Code       0  QtCore{00040703}-1471.o(StubCode)
    QDir::~QDir()                            0x00022310   ARM Code       0  QtCore{00040703}-1477.o(StubCode)
    QByteArray::realloc(int)                 0x00022318   ARM Code       0  QtCore{00040703}-150.o(StubCode)
    QUrl::QUrl(const QUrl&)                  0x00022320   ARM Code       0  QtCore{00040703}-1525.o(StubCode)
    QUrl::QUrl()                             0x00022328   ARM Code       0  QtCore{00040703}-1526.o(StubCode)
    QUrl::~QUrl()                            0x00022330   ARM Code       0  QtCore{00040703}-1531.o(StubCode)
    QUrl::operator =(const QUrl&)            0x00022338   ARM Code       0  QtCore{00040703}-1534.o(StubCode)
    QByteArray::QByteArray(const char*)      0x00022340   ARM Code       0  QtCore{00040703}-159.o(StubCode)
    QFile::open(QFlags<QIODevice::OpenModeFlag>) 0x00022348   ARM Code       0  QtCore{00040703}-1603.o(StubCode)
    QFile::QFile(const QString&)             0x00022350   ARM Code       0  QtCore{00040703}-1622.o(StubCode)
    QFile::~QFile()                          0x00022358   ARM Code       0  QtCore{00040703}-1631.o(StubCode)
    QRect::moveCenter(const QPoint&)         0x00022360   ARM Code       0  QtCore{00040703}-1633.o(StubCode)
    QSize::scale(const QSize&, Qt::AspectRatioMode) 0x00022368   ARM Code       0  QtCore{00040703}-1634.o(StubCode)
    QTime::start()                           0x00022370   ARM Code       0  QtCore{00040703}-1639.o(StubCode)
    QTime::restart()                         0x00022378   ARM Code       0  QtCore{00040703}-1642.o(StubCode)
    QMutex::lock()                           0x00022380   ARM Code       0  QtCore{00040703}-1670.o(StubCode)
    QMutex::unlock()                         0x00022388   ARM Code       0  QtCore{00040703}-1671.o(StubCode)
    QMutex::QMutex(QMutex::RecursionMode)    0x00022390   ARM Code       0  QtCore{00040703}-1674.o(StubCode)
    QMutex::~QMutex()                        0x00022398   ARM Code       0  QtCore{00040703}-1676.o(StubCode)
    QSizeF::scale(const QSizeF&, Qt::AspectRatioMode) 0x000223a0   ARM Code       0  QtCore{00040703}-1678.o(StubCode)
    QByteArray::operator =(const QByteArray&) 0x000223a8   ARM Code       0  QtCore{00040703}-168.o(StubCode)
    QTimer::singleShot(int, QObject*, const char*) 0x000223b0   ARM Code       0  QtCore{00040703}-1706.o(StubCode)
    QTimer::setInterval(int)                 0x000223b8   ARM Code       0  QtCore{00040703}-1710.o(StubCode)
    QTimer::stop()                           0x000223c0   ARM Code       0  QtCore{00040703}-1713.o(StubCode)
    QTimer::start(int)                       0x000223c8   ARM Code       0  QtCore{00040703}-1714.o(StubCode)
    QTimer::start()                          0x000223d0   ARM Code       0  QtCore{00040703}-1715.o(StubCode)
    QTimer::QTimer(QObject*)                 0x000223d8   ARM Code       0  QtCore{00040703}-1717.o(StubCode)
    QObject::childEvent(QChildEvent*)        0x000223e0   ARM Code       0  QtCore{00040703}-1760.o(StubCode)
    QObject::disconnect(const QObject*, const char*, const QObject*, const char*) 0x000223e8   ARM Code       0  QtCore{00040703}-1761.o(StubCode)
    QObject::startTimer(int)                 0x000223f0   ARM Code       0  QtCore{00040703}-1762.o(StubCode)
    QObject::timerEvent(QTimerEvent*)        0x000223f8   ARM Code       0  QtCore{00040703}-1763.o(StubCode)
    QObject::customEvent(QEvent*)            0x00022400   ARM Code       0  QtCore{00040703}-1764.o(StubCode)
    QObject::deleteLater()                   0x00022408   ARM Code       0  QtCore{00040703}-1765.o(StubCode)
    QObject::eventFilter(QObject*, QEvent*)  0x00022410   ARM Code       0  QtCore{00040703}-1766.o(StubCode)
    QObject::qt_metacall(QMetaObject::Call, int, void**) 0x00022418   ARM Code       0  QtCore{00040703}-1767.o(StubCode)
    QObject::qt_metacast(const char*)        0x00022420   ARM Code       0  QtCore{00040703}-1768.o(StubCode)
    QObject::setProperty(const char*, const QVariant&) 0x00022428   ARM Code       0  QtCore{00040703}-1769.o(StubCode)
    QObject::connectNotify(const char*)      0x00022430   ARM Code       0  QtCore{00040703}-1773.o(StubCode)
    QObject::disconnectNotify(const char*)   0x00022438   ARM Code       0  QtCore{00040703}-1777.o(StubCode)
    QObject::removeEventFilter(QObject*)     0x00022440   ARM Code       0  QtCore{00040703}-1780.o(StubCode)
    QObject::installEventFilter(QObject*)    0x00022448   ARM Code       0  QtCore{00040703}-1781.o(StubCode)
    QObject::event(QEvent*)                  0x00022450   ARM Code       0  QtCore{00040703}-1784.o(StubCode)
    QObject::connect(const QObject*, const char*, const QObject*, const char*, Qt::ConnectionType) 0x00022458   ARM Code       0  QtCore{00040703}-1785.o(StubCode)
    QObject::killTimer(int)                  0x00022460   ARM Code       0  QtCore{00040703}-1787.o(StubCode)
    QObject::QObject(QObject*)               0x00022468   ARM Code       0  QtCore{00040703}-1789.o(StubCode)
    QObject::~QObject()                      0x00022470   ARM Code       0  QtCore{00040703}-1794.o(StubCode)
    QString::fromLatin1(const char*, int)    0x00022478   ARM Code       0  QtCore{00040703}-1814.o(StubCode)
    QString::fromAscii_helper(const char*, int) 0x00022480   ARM Code       0  QtCore{00040703}-1825.o(StubCode)
    QString::fromLatin1_helper(const char*, int) 0x00022488   ARM Code       0  QtCore{00040703}-1826.o(StubCode)
    QString::free(QString::Data*)            0x00022490   ARM Code       0  QtCore{00040703}-1830.o(StubCode)
    QString::append(const QString&)          0x00022498   ARM Code       0  QtCore{00040703}-1836.o(StubCode)
    QString::fromAscii(const char*, int)     0x000224a0   ARM Code       0  QtCore{00040703}-1874.o(StubCode)
    QString::QString(QChar)                  0x000224a8   ARM Code       0  QtCore{00040703}-1876.o(StubCode)
    QString::operator =(const QString&)      0x000224b0   ARM Code       0  QtCore{00040703}-1885.o(StubCode)
    QMapData::node_delete(QMapData::Node**, int, QMapData::Node*) 0x000224b8   ARM Code       0  QtCore{00040703}-1947.o(StubCode)
    QMapData::continueFreeData(int)          0x000224c0   ARM Code       0  QtCore{00040703}-1949.o(StubCode)
    QVariant::data()                         0x000224c8   ARM Code       0  QtCore{00040703}-2003.o(StubCode)
    QVariant::QVariant(const QUrl&)          0x000224d0   ARM Code       0  QtCore{00040703}-2018.o(StubCode)
    QVariant::QVariant(const QRect&)         0x000224d8   ARM Code       0  QtCore{00040703}-2024.o(StubCode)
    QVariant::QVariant(const QSize&)         0x000224e0   ARM Code       0  QtCore{00040703}-2025.o(StubCode)
    QVariant::QVariant(const QString&)       0x000224e8   ARM Code       0  QtCore{00040703}-2034.o(StubCode)
    QVariant::QVariant(const QVariant&)      0x000224f0   ARM Code       0  QtCore{00040703}-2037.o(StubCode)
    QVariant::QVariant(bool)                 0x000224f8   ARM Code       0  QtCore{00040703}-2038.o(StubCode)
    QVariant::QVariant(int)                  0x00022500   ARM Code       0  QtCore{00040703}-2040.o(StubCode)
    QVariant::QVariant(int, const void*, unsigned) 0x00022508   ARM Code       0  QtCore{00040703}-2042.o(StubCode)
    QVariant::QVariant(long long)            0x00022510   ARM Code       0  QtCore{00040703}-2044.o(StubCode)
    QVariant::~QVariant()                    0x00022518   ARM Code       0  QtCore{00040703}-2082.o(StubCode)
    QVariant::operator =(const QVariant&)    0x00022520   ARM Code       0  QtCore{00040703}-2084.o(StubCode)
    QHashData::free_helper(void(*)(QHashData::Node*)) 0x00022528   ARM Code       0  QtCore{00040703}-2134.o(StubCode)
    QHashData::rehash(int)                   0x00022530   ARM Code       0  QtCore{00040703}-2141.o(StubCode)
    QHashData::freeNode(void*)               0x00022538   ARM Code       0  QtCore{00040703}-2142.o(StubCode)
    QHashData::nextNode(QHashData::Node*)    0x00022540   ARM Code       0  QtCore{00040703}-2143.o(StubCode)
    QIODevice::qt_metacall(QMetaObject::Call, int, void**) 0x00022548   ARM Code       0  QtCore{00040703}-2144.o(StubCode)
    QIODevice::qt_metacast(const char*)      0x00022550   ARM Code       0  QtCore{00040703}-2145.o(StubCode)
    QIODevice::readLineData(char*, long long) 0x00022558   ARM Code       0  QtCore{00040703}-2149.o(StubCode)
    QIODevice::waitForReadyRead(int)         0x00022560   ARM Code       0  QtCore{00040703}-2152.o(StubCode)
    QIODevice::waitForBytesWritten(int)      0x00022568   ARM Code       0  QtCore{00040703}-2156.o(StubCode)
    QIODevice::open(QFlags<QIODevice::OpenModeFlag>) 0x00022570   ARM Code       0  QtCore{00040703}-2157.o(StubCode)
    QIODevice::peek(char*, long long)        0x00022578   ARM Code       0  QtCore{00040703}-2158.o(StubCode)
    QBasicTimer::stop()                      0x00022580   ARM Code       0  QtCore{00040703}-216.o(StubCode)
    QIODevice::read(char*, long long)        0x00022588   ARM Code       0  QtCore{00040703}-2160.o(StubCode)
    QIODevice::read(long long)               0x00022590   ARM Code       0  QtCore{00040703}-2161.o(StubCode)
    QIODevice::seek(long long)               0x00022598   ARM Code       0  QtCore{00040703}-2162.o(StubCode)
    QIODevice::close()                       0x000225a0   ARM Code       0  QtCore{00040703}-2163.o(StubCode)
    QIODevice::reset()                       0x000225a8   ARM Code       0  QtCore{00040703}-2164.o(StubCode)
    QIODevice::write(const char*, long long) 0x000225b0   ARM Code       0  QtCore{00040703}-2166.o(StubCode)
    QBasicTimer::start(int, QObject*)        0x000225b8   ARM Code       0  QtCore{00040703}-217.o(StubCode)
    QIODevice::readyRead()                   0x000225c0   ARM Code       0  QtCore{00040703}-2172.o(StubCode)
    QIODevice::QIODevice__sub_object(QObject*) 0x000225c8   ARM Code       0  QtCore{00040703}-2174.o(StubCode)
    QIODevice::QIODevice__sub_object()       0x000225d0   ARM Code       0  QtCore{00040703}-2176.o(StubCode)
    QIODevice::~QIODevice__sub_object()      0x000225d8   ARM Code       0  QtCore{00040703}-2179.o(StubCode)
    QListData::erase(void**)                 0x000225e0   ARM Code       0  QtCore{00040703}-2186.o(StubCode)
    QListData::append()                      0x000225e8   ARM Code       0  QtCore{00040703}-2188.o(StubCode)
    QListData::insert(int)                   0x000225f0   ARM Code       0  QtCore{00040703}-2190.o(StubCode)
    QListData::remove(int)                   0x000225f8   ARM Code       0  QtCore{00040703}-2191.o(StubCode)
    QListData::remove(int, int)              0x00022600   ARM Code       0  QtCore{00040703}-2192.o(StubCode)
    QListData::append2(const QListData&)     0x00022608   ARM Code       0  QtCore{00040703}-2193.o(StubCode)
    QListData::prepend()                     0x00022610   ARM Code       0  QtCore{00040703}-2196.o(StubCode)
    QListData::realloc(int)                  0x00022618   ARM Code       0  QtCore{00040703}-2197.o(StubCode)
    QMetaType::registerType(const char*, void(*)(void*), void*(*)(const void*)) 0x00022620   ARM Code       0  QtCore{00040703}-2199.o(StubCode)
    QMetaType::typeName(int)                 0x00022628   ARM Code       0  QtCore{00040703}-2206.o(StubCode)
    QtPrivate::QStringList_contains(const QStringList*, const QString&, Qt::CaseSensitivity) 0x00022630   ARM Code       0  QtCore{00040703}-2321.o(StubCode)
    QtPrivate::QStringList_removeDuplicates(QStringList*) 0x00022638   ARM Code       0  QtCore{00040703}-2324.o(StubCode)
    QMetaMethod::invoke(QObject*, Qt::ConnectionType, QGenericReturnArgument, QGenericArgument, QGenericArgument, QGenericArgument, QGenericArgument, QGenericArgument, QGenericArgument, QGenericArgument, QGenericArgument, QGenericArgument, QGenericArgument) const 0x00022640   ARM Code       0  QtCore{00040703}-2392.o(StubCode)
    QMetaObject::indexOfProperty(const char*) const 0x00022648   ARM Code       0  QtCore{00040703}-2409.o(StubCode)
    QMetaObject::tr(const char*, const char*) const 0x00022650   ARM Code       0  QtCore{00040703}-2416.o(StubCode)
    QMetaObject::cast(QObject*) const        0x00022658   ARM Code       0  QtCore{00040703}-2418.o(StubCode)
    QMetaObject::property(int) const         0x00022660   ARM Code       0  QtCore{00040703}-2422.o(StubCode)
    QMetaProperty::notifySignal() const      0x00022668   ARM Code       0  QtCore{00040703}-2495.o(StubCode)
    QMetaProperty::hasNotifySignal() const   0x00022670   ARM Code       0  QtCore{00040703}-2497.o(StubCode)
    QMetaProperty::read(const QObject*) const 0x00022678   ARM Code       0  QtCore{00040703}-2500.o(StubCode)
    QMetaProperty::userType() const          0x00022680   ARM Code       0  QtCore{00040703}-2508.o(StubCode)
    QMetaObject::changeGuard(QObject**, QObject*) 0x00022688   ARM Code       0  QtCore{00040703}-274.o(StubCode)
    QMetaObject::removeGuard(QObject**)      0x00022690   ARM Code       0  QtCore{00040703}-275.o(StubCode)
    QMetaObject::invokeMethod(QObject*, const char*, Qt::ConnectionType, QGenericReturnArgument, QGenericArgument, QGenericArgument, QGenericArgument, QGenericArgument, QGenericArgument, QGenericArgument, QGenericArgument, QGenericArgument, QGenericArgument, QGenericArgument) 0x00022698   ARM Code       0  QtCore{00040703}-276.o(StubCode)
    QDir::absolutePath() const               0x000226a0   ARM Code       0  QtCore{00040703}-2791.o(StubCode)
    QDir::absoluteFilePath(const QString&) const 0x000226a8   ARM Code       0  QtCore{00040703}-2795.o(StubCode)
    QDir::exists() const                     0x000226b0   ARM Code       0  QtCore{00040703}-2802.o(StubCode)
    QDir::entryList(QFlags<QDir::Filter>, QFlags<QDir::SortFlag>) const 0x000226b8   ARM Code       0  QtCore{00040703}-2811.o(StubCode)
    QMetaObject::activate(QObject*, const QMetaObject*, int, void**) 0x000226c0   ARM Code       0  QtCore{00040703}-282.o(StubCode)
    QUrl::toLocalFile() const                0x000226c8   ARM Code       0  QtCore{00040703}-2823.o(StubCode)
    QUrl::path() const                       0x000226d0   ARM Code       0  QtCore{00040703}-2838.o(StubCode)
    QUrl::scheme() const                     0x000226d8   ARM Code       0  QtCore{00040703}-2841.o(StubCode)
    QUrl::isEmpty() const                    0x000226e0   ARM Code       0  QtCore{00040703}-2842.o(StubCode)
    QUrl::operator ==(const QUrl&) const     0x000226e8   ARM Code       0  QtCore{00040703}-2853.o(StubCode)
    QMetaObject::addGuard(QObject**)         0x000226f0   ARM Code       0  QtCore{00040703}-286.o(StubCode)
    QRect::intersects(const QRect&) const    0x000226f8   ARM Code       0  QtCore{00040703}-2907.o(StubCode)
    QTime::elapsed() const                   0x00022700   ARM Code       0  QtCore{00040703}-2919.o(StubCode)
    QRectF::operator &(const QRectF&) const  0x00022708   ARM Code       0  QtCore{00040703}-2944.o(StubCode)
    QObject::metaObject() const              0x00022710   ARM Code       0  QtCore{00040703}-3003.o(StubCode)
    QObject::sender() const                  0x00022718   ARM Code       0  QtCore{00040703}-3006.o(StubCode)
    QObject::property(const char*) const     0x00022720   ARM Code       0  QtCore{00040703}-3008.o(StubCode)
    QString::startsWith(const QLatin1String&, Qt::CaseSensitivity) const 0x00022728   ARM Code       0  QtCore{00040703}-3031.o(StubCode)
    QString::toLocal8Bit() const             0x00022730   ARM Code       0  QtCore{00040703}-3040.o(StubCode)
    QString::arg(const QString&, int, const QChar&) const 0x00022738   ARM Code       0  QtCore{00040703}-3049.o(StubCode)
    QString::arg(long long, int, int, const QChar&) const 0x00022740   ARM Code       0  QtCore{00040703}-3052.o(StubCode)
    QString::utf16() const                   0x00022748   ARM Code       0  QtCore{00040703}-3064.o(StubCode)
    QString::section(const QString&, int, int, QFlags<QString::SectionFlag>) const 0x00022750   ARM Code       0  QtCore{00040703}-3080.o(StubCode)
    QString::endsWith(const QLatin1String&, Qt::CaseSensitivity) const 0x00022758   ARM Code       0  QtCore{00040703}-3088.o(StubCode)
    QString::endsWith(const QString&, Qt::CaseSensitivity) const 0x00022760   ARM Code       0  QtCore{00040703}-3090.o(StubCode)
    QString::operator ==(const QLatin1String&) const 0x00022768   ARM Code       0  QtCore{00040703}-3097.o(StubCode)
    QString::operator ==(const QString&) const 0x00022770   ARM Code       0  QtCore{00040703}-3098.o(StubCode)
    QString::operator <(const QString&) const 0x00022778   ARM Code       0  QtCore{00040703}-3101.o(StubCode)
    QTextStream::QTextStream(QString*, QFlags<QIODevice::OpenModeFlag>) 0x00022780   ARM Code       0  QtCore{00040703}-312.o(StubCode)
    QVariant::canConvert(QVariant::Type) const 0x00022788   ARM Code       0  QtCore{00040703}-3129.o(StubCode)
    QVariant::cmp(const QVariant&) const     0x00022790   ARM Code       0  QtCore{00040703}-3136.o(StubCode)
    QVariant::toInt(bool*) const             0x00022798   ARM Code       0  QtCore{00040703}-3139.o(StubCode)
    QVariant::isNull() const                 0x000227a0   ARM Code       0  QtCore{00040703}-3142.o(StubCode)
    QVariant::toBool() const                 0x000227a8   ARM Code       0  QtCore{00040703}-3143.o(StubCode)
    QVariant::toReal(bool*) const            0x000227b0   ARM Code       0  QtCore{00040703}-3149.o(StubCode)
    QVariant::toSize() const                 0x000227b8   ARM Code       0  QtCore{00040703}-3151.o(StubCode)
    QVariant::toString() const               0x000227c0   ARM Code       0  QtCore{00040703}-3163.o(StubCode)
    QVariant::userType() const               0x000227c8   ARM Code       0  QtCore{00040703}-3165.o(StubCode)
    QVariant::constData() const              0x000227d0   ARM Code       0  QtCore{00040703}-3166.o(StubCode)
    qt_message_output(QtMsgType, const char*) 0x000227d8   ARM Code       0  QtCore{00040703}-32.o(StubCode)
    QIODevice::canReadLine() const           0x000227e0   ARM Code       0  QtCore{00040703}-3229.o(StubCode)
    QIODevice::bytesToWrite() const          0x000227e8   ARM Code       0  QtCore{00040703}-3231.o(StubCode)
    QIODevice::isSequential() const          0x000227f0   ARM Code       0  QtCore{00040703}-3232.o(StubCode)
    QIODevice::bytesAvailable() const        0x000227f8   ARM Code       0  QtCore{00040703}-3233.o(StubCode)
    QIODevice::pos() const                   0x00022800   ARM Code       0  QtCore{00040703}-3235.o(StubCode)
    QIODevice::size() const                  0x00022808   ARM Code       0  QtCore{00040703}-3236.o(StubCode)
    QIODevice::atEnd() const                 0x00022810   ARM Code       0  QtCore{00040703}-3237.o(StubCode)
    QTextStream::~QTextStream()              0x00022818   ARM Code       0  QtCore{00040703}-324.o(StubCode)
    QTextStream::operator <<(const QString&) 0x00022820   ARM Code       0  QtCore{00040703}-331.o(StubCode)
    QTextStream::operator <<(char)           0x00022828   ARM Code       0  QtCore{00040703}-332.o(StubCode)
    QTextStream::operator <<(int)            0x00022830   ARM Code       0  QtCore{00040703}-335.o(StubCode)
    operator <<(QDebug, const QRect&)        0x00022838   ARM Code       0  QtCore{00040703}-3474.o(StubCode)
    operator <<(QDebug, const QSize&)        0x00022840   ARM Code       0  QtCore{00040703}-3475.o(StubCode)
    operator <<(QDebug, const QVariant&)     0x00022848   ARM Code       0  QtCore{00040703}-3483.o(StubCode)
    QVectorData::reallocate(QVectorData*, int, int, int) 0x00022850   ARM Code       0  QtCore{00040703}-3583.o(StubCode)
    QVectorData::free(QVectorData*, int)     0x00022858   ARM Code       0  QtCore{00040703}-3584.o(StubCode)
    QVectorData::allocate(int, int)          0x00022860   ARM Code       0  QtCore{00040703}-3585.o(StubCode)
    QMapData::createData(int)                0x00022868   ARM Code       0  QtCore{00040703}-3607.o(StubCode)
    QMapData::node_create(QMapData::Node**, int, int) 0x00022870   ARM Code       0  QtCore{00040703}-3608.o(StubCode)
    QHashData::allocateNode(int)             0x00022878   ARM Code       0  QtCore{00040703}-3609.o(StubCode)
    QHashData::detach_helper2(void(*)(QHashData::Node*, void*), void(*)(QHashData::Node*), int, int) 0x00022880   ARM Code       0  QtCore{00040703}-3610.o(StubCode)
    QListData::detach_grow(int*, int)        0x00022888   ARM Code       0  QtCore{00040703}-3689.o(StubCode)
    QListData::detach(int)                   0x00022890   ARM Code       0  QtCore{00040703}-3691.o(StubCode)
    QMetaType::registerTypedef(const char*, int) 0x00022898   ARM Code       0  QtCore{00040703}-3692.o(StubCode)
    qt_symbian_throwIfError(int)             0x000228a0   ARM Code       0  QtCore{00040703}-46.o(StubCode)
    QPluginLoader::instance()                0x000228a8   ARM Code       0  QtCore{00040703}-499.o(StubCode)
    QPluginLoader::QPluginLoader(const QString&, QObject*) 0x000228b0   ARM Code       0  QtCore{00040703}-501.o(StubCode)
    QPluginLoader::~QPluginLoader()          0x000228b8   ARM Code       0  QtCore{00040703}-505.o(StubCode)
    QBasicAtomicPointer_testAndSetOrdered(void*volatile *, void*, void*) 0x000228c0   ARM Code       0  QtCore{00040703}-56.o(StubCode)
    qFree(void*)                             0x000228c8   ARM Code       0  QtCore{00040703}-70.o(StubCode)
    qHash(const QString&)                    0x000228d0   ARM Code       0  QtCore{00040703}-73.o(StubCode)
    QCoreApplication::libraryPaths()         0x000228d8   ARM Code       0  QtCore{00040703}-753.o(StubCode)
    QCoreApplication::processEvents(QFlags<QEventLoop::ProcessEventsFlag>) 0x000228e0   ARM Code       0  QtCore{00040703}-756.o(StubCode)
    qrand()                                  0x000228e8   ARM Code       0  QtCore{00040703}-78.o(StubCode)
    qstrcmp(const char*, const char*)        0x000228f0   ARM Code       0  QtCore{00040703}-94.o(StubCode)
    qstrcmp(const QByteArray&, const char*)  0x000228f8   ARM Code       0  QtCore{00040703}-95.o(StubCode)
    memcmp                                   0x00022900   ARM Code       0  libc{00010000}-232.o(StubCode)
    strcmp                                   0x00022908   ARM Code       0  libc{00010000}-350.o(StubCode)
    strncmp                                  0x00022910   ARM Code       0  libc{00010000}-364.o(StubCode)
    TPtrC16::TPtrC16(const unsigned short*, int) 0x00022918   ARM Code       0  euser{000a0000}-1170.o(StubCode)
    RHandleBase::Close()                     0x00022920   ARM Code       0  euser{000a0000}-120.o(StubCode)
    TDesC8::Ptr() const                      0x00022928   ARM Code       0  euser{000a0000}-1719.o(StubCode)
    memclr                                   0x00022930   ARM Code       0  euser{000a0000}-1951.o(StubCode)
    User::MarkCleanupStack()                 0x00022938   ARM Code       0  euser{000a0000}-2060.o(StubCode)
    User::UnMarkCleanupStack(TTrapHandler*)  0x00022940   ARM Code       0  euser{000a0000}-2061.o(StubCode)
    XLeaveException::GetReason() const       0x00022948   ARM Code       0  euser{000a0000}-2082.o(StubCode)
    User::Invariant()                        0x00022950   ARM Code       0  euser{000a0000}-669.o(StubCode)
    User::LockedDec(int&)                    0x00022958   ARM Code       0  euser{000a0000}-670.o(StubCode)
    User::LockedInc(int&)                    0x00022960   ARM Code       0  euser{000a0000}-671.o(StubCode)
    TDes8::Append(const unsigned char*, int) 0x00022968   ARM Code       0  euser{000a0000}-759.o(StubCode)
    TDes8::SetLength(int)                    0x00022970   ARM Code       0  euser{000a0000}-782.o(StubCode)
    __aeabi_dadd                             0x00022978   ARM Code       0  dfpaeabi{000a0000}-12.o(StubCode)
    __aeabi_cdcmple                          0x00022980   ARM Code       0  dfpaeabi{000a0000}-2.o(StubCode)
    __aeabi_dmul                             0x00022988   ARM Code       0  dfpaeabi{000a0000}-20.o(StubCode)
    __aeabi_f2d                              0x00022990   ARM Code       0  dfpaeabi{000a0000}-24.o(StubCode)
    __aeabi_f2iz                             0x00022998   ARM Code       0  dfpaeabi{000a0000}-25.o(StubCode)
    __aeabi_fadd                             0x000229a0   ARM Code       0  dfpaeabi{000a0000}-29.o(StubCode)
    __aeabi_fdiv                             0x000229a8   ARM Code       0  dfpaeabi{000a0000}-36.o(StubCode)
    __aeabi_fmul                             0x000229b0   ARM Code       0  dfpaeabi{000a0000}-37.o(StubCode)
    __aeabi_frsub                            0x000229b8   ARM Code       0  dfpaeabi{000a0000}-39.o(StubCode)
    __aeabi_fsub                             0x000229c0   ARM Code       0  dfpaeabi{000a0000}-40.o(StubCode)
    __aeabi_i2f                              0x000229c8   ARM Code       0  dfpaeabi{000a0000}-42.o(StubCode)
    __aeabi_cfcmple                          0x000229d0   ARM Code       0  dfpaeabi{000a0000}-5.o(StubCode)
    __aeabi_cfrcmple                         0x000229d8   ARM Code       0  dfpaeabi{000a0000}-6.o(StubCode)
    __aeabi_d2f                              0x000229e0   ARM Code       0  dfpaeabi{000a0000}-7.o(StubCode)
    __aeabi_d2iz                             0x000229e8   ARM Code       0  dfpaeabi{000a0000}-8.o(StubCode)
    __aeabi_idivmod                          0x000229f0   ARM Code       0  drtaeabi{000a0000}-135.o(StubCode)
    __aeabi_ldivmod                          0x000229f8   ARM Code       0  drtaeabi{000a0000}-139.o(StubCode)
    __aeabi_memclr4                          0x00022a00   ARM Code       0  drtaeabi{000a0000}-144.o(StubCode)
    __aeabi_memcpy                           0x00022a08   ARM Code       0  drtaeabi{000a0000}-146.o(StubCode)
    __aeabi_memcpy4                          0x00022a10   ARM Code       0  drtaeabi{000a0000}-147.o(StubCode)
    __aeabi_uidivmod                         0x00022a18   ARM Code       0  drtaeabi{000a0000}-155.o(StubCode)
    __aeabi_unwind_cpp_pr0                   0x00022a20   ARM Code       0  drtaeabi{000a0000}-158.o(StubCode)
    __cxa_begin_catch                        0x00022a28   ARM Code       0  drtaeabi{000a0000}-180.o(StubCode)
    __cxa_end_catch                          0x00022a30   ARM Code       0  drtaeabi{000a0000}-183.o(StubCode)
    __cxa_end_cleanup                        0x00022a38   ARM Code       0  drtaeabi{000a0000}-184.o(StubCode)
    __cxa_guard_abort                        0x00022a40   ARM Code       0  drtaeabi{000a0000}-186.o(StubCode)
    __cxa_guard_acquire                      0x00022a48   ARM Code       0  drtaeabi{000a0000}-187.o(StubCode)
    __cxa_guard_release                      0x00022a50   ARM Code       0  drtaeabi{000a0000}-188.o(StubCode)
    __cxa_pure_virtual                       0x00022a58   ARM Code       0  drtaeabi{000a0000}-189.o(StubCode)
    __cxa_rethrow                            0x00022a60   ARM Code       0  drtaeabi{000a0000}-190.o(StubCode)
    __ARM_switch8                            0x00022a68   ARM Code       0  drtrvct2_2{000a0000}-28.o(StubCode)
    __ARM_ll_addls                           0x00022a70   ARM Code       0  drtrvct2_2{000a0000}-44.o(StubCode)
    __ARM_ll_addlu                           0x00022a78   ARM Code       0  drtrvct2_2{000a0000}-45.o(StubCode)
    __ARM_ll_cmpge                           0x00022a80   ARM Code       0  drtrvct2_2{000a0000}-49.o(StubCode)
    __ARM_ll_cmple                           0x00022a88   ARM Code       0  drtrvct2_2{000a0000}-50.o(StubCode)
    __ARM_ll_cmpu                            0x00022a90   ARM Code       0  drtrvct2_2{000a0000}-51.o(StubCode)
    __ARM_ll_mulls                           0x00022a98   ARM Code       0  drtrvct2_2{000a0000}-56.o(StubCode)
    __ARM_ll_mullu                           0x00022aa0   ARM Code       0  drtrvct2_2{000a0000}-57.o(StubCode)
    __ARM_ll_muluu                           0x00022aa8   ARM Code       0  drtrvct2_2{000a0000}-59.o(StubCode)
    __ARM_ll_rsbls                           0x00022ab0   ARM Code       0  drtrvct2_2{000a0000}-64.o(StubCode)
    __ARM_ll_rsblu                           0x00022ab8   ARM Code       0  drtrvct2_2{000a0000}-65.o(StubCode)
    qvariant_cast_helper(const QVariant&, QVariant::Type, void*) 0x00022ac1   Thumb Code    16  QtMultimediaKit.in(i._Z20qvariant_cast_helperRK8QVariantNS_4TypeEPv)
    qRound(float)                            0x00022ad5   Thumb Code    76  QtMultimediaKit.in(i._Z6qRoundf)
    qWarning()                               0x00022b29   Thumb Code    58  QtMultimediaKit.in(i._Z8qWarningv)
    qstrncmp(const char*, const char*, unsigned) 0x00022b75   Thumb Code    36  QtMultimediaKit.in(i._Z8qstrncmpPKcS0_j)
    QByteArray::data()                       0x00022b99   Thumb Code    36  QtMultimediaKit.in(i._ZN10QByteArray4dataEv)
    QByteArray::QByteArray(const QByteArray&) 0x00022bbd   Thumb Code    16  QtMultimediaKit.in(i._ZN10QByteArrayC1ERKS_)
    QByteArray::QByteArray__sub_object(const QByteArray&) 0x00022bbd   Thumb Code     0  QtMultimediaKit.in(i._ZN10QByteArrayC1ERKS_)
    QByteArray::~QByteArray()                0x00022bcd   Thumb Code    24  QtMultimediaKit.in(i._ZN10QByteArrayD1Ev)
    QByteArray::~QByteArray__sub_object()    0x00022bcd   Thumb Code     0  QtMultimediaKit.in(i._ZN10QByteArrayD1Ev)
    QBasicTimer::~QBasicTimer()              0x00022be5   Thumb Code    20  QtMultimediaKit.in(i._ZN11QBasicTimerD1Ev)
    QBasicTimer::~QBasicTimer__sub_object()  0x00022be5   Thumb Code     0  QtMultimediaKit.in(i._ZN11QBasicTimerD1Ev)
    QStringList::QStringList(const QStringList&) 0x00022bf9   Thumb Code    30  QtMultimediaKit.in(i._ZN11QStringListC1ERKS_)
    QStringList::QStringList__sub_object(const QStringList&) 0x00022bf9   Thumb Code     0  QtMultimediaKit.in(i._ZN11QStringListC1ERKS_)
    QStringList::QStringList()               0x00022c17   Thumb Code     8  QtMultimediaKit.in(i._ZN11QStringListC1Ev)
    QStringList::QStringList__sub_object()   0x00022c17   Thumb Code     0  QtMultimediaKit.in(i._ZN11QStringListC1Ev)
    QStringList::~QStringList()              0x00022c1f   Thumb Code     8  QtMultimediaKit.in(i._ZN11QStringListD1Ev)
    QStringList::~QStringList__sub_object()  0x00022c1f   Thumb Code     0  QtMultimediaKit.in(i._ZN11QStringListD1Ev)
    QMapIterator<int, int>::~QMapIterator()  0x00022c27   Thumb Code     8  QtMultimediaKit.in(i._ZN12QMapIteratorIiiED1Ev)
    QMapIterator<int, int>::~QMapIterator__sub_object() 0x00022c27   Thumb Code     0  QtMultimediaKit.in(i._ZN12QMapIteratorIiiED1Ev)
    QMutexLocker::QMutexLocker(QMutex*)      0x00022c2f   Thumb Code    28  QtMultimediaKit.in(i._ZN12QMutexLockerC1EP6QMutex)
    QMutexLocker::QMutexLocker__sub_object(QMutex*) 0x00022c2f   Thumb Code     0  QtMultimediaKit.in(i._ZN12QMutexLockerC1EP6QMutex)
    QMutexLocker::~QMutexLocker()            0x00022c4b   Thumb Code    28  QtMultimediaKit.in(i._ZN12QMutexLockerD1Ev)
    QMutexLocker::~QMutexLocker__sub_object() 0x00022c4b   Thumb Code     0  QtMultimediaKit.in(i._ZN12QMutexLockerD1Ev)
    QCameraPrivate::QCameraPrivate()         0x00022c69   Thumb Code    70  QtMultimediaKit.in(i._ZN14QCameraPrivateC1Ev)
    QCameraPrivate::QCameraPrivate__sub_object() 0x00022c69   Thumb Code     0  QtMultimediaKit.in(i._ZN14QCameraPrivateC1Ev)
    QCameraPrivate::~QCameraPrivate__deallocating() 0x00022cc7   Thumb Code    16  QtMultimediaKit.in(i._ZN14QCameraPrivateD0Ev)
    QCameraPrivate::~QCameraPrivate()        0x00022cd9   Thumb Code    24  QtMultimediaKit.in(i._ZN14QCameraPrivateD1Ev)
    QCameraPrivate::~QCameraPrivate__sub_object() 0x00022cd9   Thumb Code     0  QtMultimediaKit.in(i._ZN14QCameraPrivateD1Ev)
    QMediaPlaylist::tr(const char*, const char*) 0x00022d01   Thumb Code    14  QtMultimediaKit.in(i._ZN14QMediaPlaylist2trEPKcS1_)
    QBasicAtomicInt::ref()                   0x00022d15   Thumb Code    18  QtMultimediaKit.in(i._ZN15QBasicAtomicInt3refEv)
    QBasicAtomicInt::deref()                 0x00022d27   Thumb Code    18  QtMultimediaKit.in(i._ZN15QBasicAtomicInt5derefEv)
    QGraphicsObject::~QGraphicsObject()      0x00022d39   Thumb Code     0  QtMultimediaKit.in(i._ZN15QGraphicsObjectD2Ev)
    QGraphicsObject::~QGraphicsObject__sub_object() 0x00022d39   Thumb Code    18  QtMultimediaKit.in(i._ZN15QGraphicsObjectD2Ev)
    QNullDeviceInfo::supportedCodecs()       0x00022d55   Thumb Code    14  QtMultimediaKit.in(i._ZN15QNullDeviceInfo15supportedCodecsEv)
    QNullDeviceInfo::supportedByteOrders()   0x00022d69   Thumb Code    14  QtMultimediaKit.in(i._ZN15QNullDeviceInfo19supportedByteOrdersEv)
    QNullDeviceInfo::supportedSampleRates()  0x00022d7d   Thumb Code     8  QtMultimediaKit.in(i._ZN15QNullDeviceInfo20supportedSampleRatesEv)
    QNullDeviceInfo::supportedSampleSizes()  0x00022d85   Thumb Code     8  QtMultimediaKit.in(i._ZN15QNullDeviceInfo20supportedSampleSizesEv)
    QNullDeviceInfo::supportedSampleTypes()  0x00022d8d   Thumb Code    14  QtMultimediaKit.in(i._ZN15QNullDeviceInfo20supportedSampleTypesEv)
    QNullDeviceInfo::supportedChannelCounts() 0x00022da1   Thumb Code     8  QtMultimediaKit.in(i._ZN15QNullDeviceInfo22supportedChannelCountsEv)
    QNullDeviceInfo::~QNullDeviceInfo__deallocating() 0x00022da9   Thumb Code    16  QtMultimediaKit.in(i._ZN15QNullDeviceInfoD0Ev)
    QNullDeviceInfo::~QNullDeviceInfo()      0x00022db9   Thumb Code     8  QtMultimediaKit.in(i._ZN15QNullDeviceInfoD1Ev)
    QNullDeviceInfo::~QNullDeviceInfo__sub_object() 0x00022db9   Thumb Code     0  QtMultimediaKit.in(i._ZN15QNullDeviceInfoD1Ev)
    QNullInputDevice::setBufferSize(int)     0x00022dc1   Thumb Code     2  QtMultimediaKit.in(i._ZN16QNullInputDevice13setBufferSizeEi)
    QNullInputDevice::setNotifyInterval(int) 0x00022dc3   Thumb Code     2  QtMultimediaKit.in(i._ZN16QNullInputDevice17setNotifyIntervalEi)
    QNullInputDevice::stop()                 0x00022dc5   Thumb Code     2  QtMultimediaKit.in(i._ZN16QNullInputDevice4stopEv)
    QNullInputDevice::reset()                0x00022dc7   Thumb Code     2  QtMultimediaKit.in(i._ZN16QNullInputDevice5resetEv)
    QNullInputDevice::start(QIODevice*)      0x00022dc9   Thumb Code    24  QtMultimediaKit.in(i._ZN16QNullInputDevice5startEP9QIODevice)
    QNullInputDevice::start()                0x00022e15   Thumb Code    26  QtMultimediaKit.in(i._ZN16QNullInputDevice5startEv)
    QNullInputDevice::resume()               0x00022e63   Thumb Code     2  QtMultimediaKit.in(i._ZN16QNullInputDevice6resumeEv)
    QNullInputDevice::suspend()              0x00022e65   Thumb Code     2  QtMultimediaKit.in(i._ZN16QNullInputDevice7suspendEv)
    QNullInputDevice::setFormat(const QAudioFormat&) 0x00022e67   Thumb Code     2  QtMultimediaKit.in(i._ZN16QNullInputDevice9setFormatERK12QAudioFormat)
    QNullInputDevice::QNullInputDevice()     0x00022e69   Thumb Code    14  QtMultimediaKit.in(i._ZN16QNullInputDeviceC1Ev)
    QNullInputDevice::QNullInputDevice__sub_object() 0x00022e69   Thumb Code     0  QtMultimediaKit.in(i._ZN16QNullInputDeviceC1Ev)
    QNullInputDevice::~QNullInputDevice__deallocating() 0x00022e7d   Thumb Code    16  QtMultimediaKit.in(i._ZN16QNullInputDeviceD0Ev)
    QNullInputDevice::~QNullInputDevice()    0x00022e8d   Thumb Code     8  QtMultimediaKit.in(i._ZN16QNullInputDeviceD1Ev)
    QNullInputDevice::~QNullInputDevice__sub_object() 0x00022e8d   Thumb Code     0  QtMultimediaKit.in(i._ZN16QNullInputDeviceD1Ev)
    MDevSoundObserver::SendEventToClient(const TMMFEvent&) 0x00022e95   Thumb Code     2  QtMultimediaKit.in(i._ZN17MDevSoundObserver17SendEventToClientERK9TMMFEvent)
    QForeachContainer<QStringList>::~QForeachContainer() 0x00022e97   Thumb Code     8  QtMultimediaKit.in(i._ZN17QForeachContainerI11QStringListED1Ev)
    QForeachContainer<QStringList>::~QForeachContainer__sub_object() 0x00022e97   Thumb Code     0  QtMultimediaKit.in(i._ZN17QForeachContainerI11QStringListED1Ev)
    QForeachContainer<QSet<int>>::~QForeachContainer() 0x00022e9f   Thumb Code     8  QtMultimediaKit.in(i._ZN17QForeachContainerI4QSetIiEED1Ev)
    QForeachContainer<QSet<int>>::~QForeachContainer__sub_object() 0x00022e9f   Thumb Code     0  QtMultimediaKit.in(i._ZN17QForeachContainerI4QSetIiEED1Ev)
    QForeachContainer<QList<QByteArray>>::~QForeachContainer() 0x00022ea7   Thumb Code     8  QtMultimediaKit.in(i._ZN17QForeachContainerI5QListI10QByteArrayEED1Ev)
    QForeachContainer<QList<QByteArray>>::~QForeachContainer__sub_object() 0x00022ea7   Thumb Code     0  QtMultimediaKit.in(i._ZN17QForeachContainerI5QListI10QByteArrayEED1Ev)
    QForeachContainer<QList<QMediaContent>>::~QForeachContainer() 0x00022eaf   Thumb Code     8  QtMultimediaKit.in(i._ZN17QForeachContainerI5QListI13QMediaContentEED1Ev)
    QForeachContainer<QList<QMediaContent>>::~QForeachContainer__sub_object() 0x00022eaf   Thumb Code     0  QtMultimediaKit.in(i._ZN17QForeachContainerI5QListI13QMediaContentEED1Ev)
    QForeachContainer<QList<QMediaTimeInterval>>::~QForeachContainer() 0x00022eb7   Thumb Code     8  QtMultimediaKit.in(i._ZN17QForeachContainerI5QListI18QMediaTimeIntervalEED1Ev)
    QForeachContainer<QList<QMediaTimeInterval>>::~QForeachContainer__sub_object() 0x00022eb7   Thumb Code     0  QtMultimediaKit.in(i._ZN17QForeachContainerI5QListI18QMediaTimeIntervalEED1Ev)
    QForeachContainer<QList<QString>>::~QForeachContainer() 0x00022ebf   Thumb Code     8  QtMultimediaKit.in(i._ZN17QForeachContainerI5QListI7QStringEED1Ev)
    QForeachContainer<QList<QString>>::~QForeachContainer__sub_object() 0x00022ebf   Thumb Code     0  QtMultimediaKit.in(i._ZN17QForeachContainerI5QListI7QStringEED1Ev)
    QForeachContainer<QList<QPointer<QObject>>>::~QForeachContainer() 0x00022ec7   Thumb Code     8  QtMultimediaKit.in(i._ZN17QForeachContainerI5QListI8QPointerI7QObjectEEED1Ev)
    QForeachContainer<QList<QPointer<QObject>>>::~QForeachContainer__sub_object() 0x00022ec7   Thumb Code     0  QtMultimediaKit.in(i._ZN17QForeachContainerI5QListI8QPointerI7QObjectEEED1Ev)
    QForeachContainer<QList<QVariant>>::~QForeachContainer() 0x00022ecf   Thumb Code     8  QtMultimediaKit.in(i._ZN17QForeachContainerI5QListI8QVariantEED1Ev)
    QForeachContainer<QList<QVariant>>::~QForeachContainer__sub_object() 0x00022ecf   Thumb Code     0  QtMultimediaKit.in(i._ZN17QForeachContainerI5QListI8QVariantEED1Ev)
    QForeachContainer<QList<QVideoFrame::PixelFormat>>::~QForeachContainer() 0x00022ed7   Thumb Code     8  QtMultimediaKit.in(i._ZN17QForeachContainerI5QListIN11QVideoFrame11PixelFormatEEED1Ev)
    QForeachContainer<QList<QVideoFrame::PixelFormat>>::~QForeachContainer__sub_object() 0x00022ed7   Thumb Code     0  QtMultimediaKit.in(i._ZN17QForeachContainerI5QListIN11QVideoFrame11PixelFormatEEED1Ev)
    QForeachContainer<QList<QAudioFormat::SampleType>>::~QForeachContainer() 0x00022edf   Thumb Code     8  QtMultimediaKit.in(i._ZN17QForeachContainerI5QListIN12QAudioFormat10SampleTypeEEED1Ev)
    QForeachContainer<QList<QAudioFormat::SampleType>>::~QForeachContainer__sub_object() 0x00022edf   Thumb Code     0  QtMultimediaKit.in(i._ZN17QForeachContainerI5QListIN12QAudioFormat10SampleTypeEEED1Ev)
    QForeachContainer<QList<QAudioFormat::Endian>>::~QForeachContainer() 0x00022ee7   Thumb Code     8  QtMultimediaKit.in(i._ZN17QForeachContainerI5QListIN12QAudioFormat6EndianEEED1Ev)
    QForeachContainer<QList<QAudioFormat::Endian>>::~QForeachContainer__sub_object() 0x00022ee7   Thumb Code     0  QtMultimediaKit.in(i._ZN17QForeachContainerI5QListIN12QAudioFormat6EndianEEED1Ev)
    QForeachContainer<QList<QCamera::LockStatus>>::~QForeachContainer() 0x00022eef   Thumb Code     8  QtMultimediaKit.in(i._ZN17QForeachContainerI5QListIN7QCamera10LockStatusEEED1Ev)
    QForeachContainer<QList<QCamera::LockStatus>>::~QForeachContainer__sub_object() 0x00022eef   Thumb Code     0  QtMultimediaKit.in(i._ZN17QForeachContainerI5QListIN7QCamera10LockStatusEEED1Ev)
    QForeachContainer<QList<QMediaServiceProviderPlugin*>>::~QForeachContainer() 0x00022ef7   Thumb Code     8  QtMultimediaKit.in(i._ZN17QForeachContainerI5QListIP27QMediaServiceProviderPluginEED1Ev)
    QForeachContainer<QList<QMediaServiceProviderPlugin*>>::~QForeachContainer__sub_object() 0x00022ef7   Thumb Code     0  QtMultimediaKit.in(i._ZN17QForeachContainerI5QListIP27QMediaServiceProviderPluginEED1Ev)
    QForeachContainer<QList<QObject*>>::~QForeachContainer() 0x00022eff   Thumb Code     8  QtMultimediaKit.in(i._ZN17QForeachContainerI5QListIP7QObjectEED1Ev)
    QForeachContainer<QList<QObject*>>::~QForeachContainer__sub_object() 0x00022eff   Thumb Code     0  QtMultimediaKit.in(i._ZN17QForeachContainerI5QListIP7QObjectEED1Ev)
    QForeachContainer<QList<int>>::~QForeachContainer() 0x00022f07   Thumb Code     8  QtMultimediaKit.in(i._ZN17QForeachContainerI5QListIiEED1Ev)
    QForeachContainer<QList<int>>::~QForeachContainer__sub_object() 0x00022f07   Thumb Code     0  QtMultimediaKit.in(i._ZN17QForeachContainerI5QListIiEED1Ev)
    QNullOutputDevice::setBufferSize(int)    0x00022f0f   Thumb Code     2  QtMultimediaKit.in(i._ZN17QNullOutputDevice13setBufferSizeEi)
    QNullOutputDevice::setNotifyInterval(int) 0x00022f11   Thumb Code     2  QtMultimediaKit.in(i._ZN17QNullOutputDevice17setNotifyIntervalEi)
    QNullOutputDevice::stop()                0x00022f13   Thumb Code     2  QtMultimediaKit.in(i._ZN17QNullOutputDevice4stopEv)
    QNullOutputDevice::reset()               0x00022f15   Thumb Code     2  QtMultimediaKit.in(i._ZN17QNullOutputDevice5resetEv)
    QNullOutputDevice::start(QIODevice*)     0x00022f19   Thumb Code    24  QtMultimediaKit.in(i._ZN17QNullOutputDevice5startEP9QIODevice)
    QNullOutputDevice::start()               0x00022f69   Thumb Code    26  QtMultimediaKit.in(i._ZN17QNullOutputDevice5startEv)
    QNullOutputDevice::resume()              0x00022fbb   Thumb Code     2  QtMultimediaKit.in(i._ZN17QNullOutputDevice6resumeEv)
    QNullOutputDevice::suspend()             0x00022fbd   Thumb Code     2  QtMultimediaKit.in(i._ZN17QNullOutputDevice7suspendEv)
    QNullOutputDevice::setFormat(const QAudioFormat&) 0x00022fbf   Thumb Code     2  QtMultimediaKit.in(i._ZN17QNullOutputDevice9setFormatERK12QAudioFormat)
    QNullOutputDevice::QNullOutputDevice()   0x00022fc1   Thumb Code    14  QtMultimediaKit.in(i._ZN17QNullOutputDeviceC1Ev)
    QNullOutputDevice::QNullOutputDevice__sub_object() 0x00022fc1   Thumb Code     0  QtMultimediaKit.in(i._ZN17QNullOutputDeviceC1Ev)
    QNullOutputDevice::~QNullOutputDevice__deallocating() 0x00022fd5   Thumb Code    16  QtMultimediaKit.in(i._ZN17QNullOutputDeviceD0Ev)
    QNullOutputDevice::~QNullOutputDevice()  0x00022fe5   Thumb Code     8  QtMultimediaKit.in(i._ZN17QNullOutputDeviceD1Ev)
    QNullOutputDevice::~QNullOutputDevice__sub_object() 0x00022fe5   Thumb Code     0  QtMultimediaKit.in(i._ZN17QNullOutputDeviceD1Ev)
    QMediaPluginLoader::~QMediaPluginLoader() 0x00022fed   Thumb Code    28  QtMultimediaKit.in(i._ZN18QMediaPluginLoaderD1Ev)
    QMediaPluginLoader::~QMediaPluginLoader__sub_object() 0x00022fed   Thumb Code     0  QtMultimediaKit.in(i._ZN18QMediaPluginLoaderD1Ev)
    QRadioTunerPrivate::~QRadioTunerPrivate__deallocating() 0x0002301b   Thumb Code    16  QtMultimediaKit.in(i._ZN18QRadioTunerPrivateD0Ev)
    QRadioTunerPrivate::~QRadioTunerPrivate() 0x0002302b   Thumb Code     8  QtMultimediaKit.in(i._ZN18QRadioTunerPrivateD1Ev)
    QRadioTunerPrivate::~QRadioTunerPrivate__sub_object() 0x0002302b   Thumb Code     0  QtMultimediaKit.in(i._ZN18QRadioTunerPrivateD1Ev)
    QVideoFramePrivate::QVideoFramePrivate(const QSize&, QVideoFrame::PixelFormat) 0x00023033   Thumb Code    38  QtMultimediaKit.in(i._ZN18QVideoFramePrivateC1ERK5QSizeN11QVideoFrame11PixelFormatE)
    QVideoFramePrivate::QVideoFramePrivate__sub_object(const QSize&, QVideoFrame::PixelFormat) 0x00023033   Thumb Code     0  QtMultimediaKit.in(i._ZN18QVideoFramePrivateC1ERK5QSizeN11QVideoFrame11PixelFormatE)
    QVideoFramePrivate::~QVideoFramePrivate() 0x00023059   Thumb Code    20  QtMultimediaKit.in(i._ZN18QVideoFramePrivateD1Ev)
    QVideoFramePrivate::~QVideoFramePrivate__sub_object() 0x00023059   Thumb Code     0  QtMultimediaKit.in(i._ZN18QVideoFramePrivateD1Ev)
    QAbstractAudioInput::~QAbstractAudioInput__deallocating() 0x0002306d   Thumb Code    16  QtMultimediaKit.in(i._ZN19QAbstractAudioInputD0Ev)
    QAbstractAudioInput::~QAbstractAudioInput() 0x0002307d   Thumb Code     0  QtMultimediaKit.in(i._ZN19QAbstractAudioInputD2Ev)
    QAbstractAudioInput::~QAbstractAudioInput__sub_object() 0x0002307d   Thumb Code     8  QtMultimediaKit.in(i._ZN19QAbstractAudioInputD2Ev)
    QAudioFormatPrivate::~QAudioFormatPrivate() 0x00023085   Thumb Code    12  QtMultimediaKit.in(i._ZN19QAudioFormatPrivateD1Ev)
    QAudioFormatPrivate::~QAudioFormatPrivate__sub_object() 0x00023085   Thumb Code     0  QtMultimediaKit.in(i._ZN19QAudioFormatPrivateD1Ev)
    QCameraFocusPrivate::~QCameraFocusPrivate__deallocating() 0x00023091   Thumb Code    16  QtMultimediaKit.in(i._ZN19QCameraFocusPrivateD0Ev)
    QCameraFocusPrivate::~QCameraFocusPrivate() 0x000230a1   Thumb Code     8  QtMultimediaKit.in(i._ZN19QCameraFocusPrivateD1Ev)
    QCameraFocusPrivate::~QCameraFocusPrivate__sub_object() 0x000230a1   Thumb Code     0  QtMultimediaKit.in(i._ZN19QCameraFocusPrivateD1Ev)
    QMediaObjectPrivate::~QMediaObjectPrivate__deallocating() 0x000230a9   Thumb Code    16  QtMultimediaKit.in(i._ZN19QMediaObjectPrivateD0Ev)
    QMediaObjectPrivate::~QMediaObjectPrivate() 0x000230b9   Thumb Code    16  QtMultimediaKit.in(i._ZN19QMediaObjectPrivateD1Ev)
    QMediaObjectPrivate::~QMediaObjectPrivate__sub_object() 0x000230b9   Thumb Code     0  QtMultimediaKit.in(i._ZN19QMediaObjectPrivateD1Ev)
    QMediaPlayerPrivate::QMediaPlayerPrivate() 0x000230cd   Thumb Code    60  QtMultimediaKit.in(i._ZN19QMediaPlayerPrivateC1Ev)
    QMediaPlayerPrivate::QMediaPlayerPrivate__sub_object() 0x000230cd   Thumb Code     0  QtMultimediaKit.in(i._ZN19QMediaPlayerPrivateC1Ev)
    QMediaPlayerPrivate::~QMediaPlayerPrivate__deallocating() 0x0002311f   Thumb Code    16  QtMultimediaKit.in(i._ZN19QMediaPlayerPrivateD0Ev)
    QMediaPlayerPrivate::~QMediaPlayerPrivate() 0x00023131   Thumb Code    38  QtMultimediaKit.in(i._ZN19QMediaPlayerPrivateD1Ev)
    QMediaPlayerPrivate::~QMediaPlayerPrivate__sub_object() 0x00023131   Thumb Code     0  QtMultimediaKit.in(i._ZN19QMediaPlayerPrivateD1Ev)
    QVideoWidgetBackend::QVideoWidgetBackend__sub_object() 0x00023175   Thumb Code    18  QtMultimediaKit.in(i._ZN19QVideoWidgetBackendC2Ev)
    QVideoWidgetBackend::~QVideoWidgetBackend__deallocating() 0x0002318d   Thumb Code    16  QtMultimediaKit.in(i._ZN19QVideoWidgetBackendD0Ev)
    QVideoWidgetBackend::~QVideoWidgetBackend() 0x0002319d   Thumb Code     0  QtMultimediaKit.in(i._ZN19QVideoWidgetBackendD2Ev)
    QVideoWidgetBackend::~QVideoWidgetBackend__sub_object() 0x0002319d   Thumb Code     8  QtMultimediaKit.in(i._ZN19QVideoWidgetBackendD2Ev)
    QAbstractAudioOutput::~QAbstractAudioOutput__deallocating() 0x000231a5   Thumb Code    16  QtMultimediaKit.in(i._ZN20QAbstractAudioOutputD0Ev)
    QAbstractAudioOutput::~QAbstractAudioOutput() 0x000231b5   Thumb Code     0  QtMultimediaKit.in(i._ZN20QAbstractAudioOutputD2Ev)
    QAbstractAudioOutput::~QAbstractAudioOutput__sub_object() 0x000231b5   Thumb Code     8  QtMultimediaKit.in(i._ZN20QAbstractAudioOutputD2Ev)
    QMediaContentPrivate::QMediaContentPrivate() 0x000231bd   Thumb Code    16  QtMultimediaKit.in(i._ZN20QMediaContentPrivateC1Ev)
    QMediaContentPrivate::QMediaContentPrivate__sub_object() 0x000231bd   Thumb Code     0  QtMultimediaKit.in(i._ZN20QMediaContentPrivateC1Ev)
    QMediaContentPrivate::~QMediaContentPrivate() 0x000231cd   Thumb Code    12  QtMultimediaKit.in(i._ZN20QMediaContentPrivateD1Ev)
    QMediaContentPrivate::~QMediaContentPrivate__sub_object() 0x000231cd   Thumb Code     0  QtMultimediaKit.in(i._ZN20QMediaContentPrivateD1Ev)
    QMediaControlPrivate::~QMediaControlPrivate__deallocating() 0x000231d9   Thumb Code    12  QtMultimediaKit.in(i._ZN20QMediaControlPrivateD0Ev)
    QMediaControlPrivate::~QMediaControlPrivate() 0x000231e5   Thumb Code     2  QtMultimediaKit.in(i._ZN20QMediaControlPrivateD1Ev)
    QMediaControlPrivate::~QMediaControlPrivate__sub_object() 0x000231e5   Thumb Code     0  QtMultimediaKit.in(i._ZN20QMediaControlPrivateD1Ev)
    QMediaServicePrivate::~QMediaServicePrivate__deallocating() 0x000231e7   Thumb Code    12  QtMultimediaKit.in(i._ZN20QMediaServicePrivateD0Ev)
    QMediaServicePrivate::~QMediaServicePrivate() 0x000231f3   Thumb Code     2  QtMultimediaKit.in(i._ZN20QMediaServicePrivateD1Ev)
    QMediaServicePrivate::~QMediaServicePrivate__sub_object() 0x000231f3   Thumb Code     0  QtMultimediaKit.in(i._ZN20QMediaServicePrivateD1Ev)
    QVideoSurfacePainter::viewportDestroyed() 0x000231f5   Thumb Code     2  QtMultimediaKit.in(i._ZN20QVideoSurfacePainter17viewportDestroyedEv)
    QMediaPlaylistPrivate::~QMediaPlaylistPrivate__deallocating() 0x000231f7   Thumb Code    16  QtMultimediaKit.in(i._ZN21QMediaPlaylistPrivateD0Ev)
    QMediaPlaylistPrivate::~QMediaPlaylistPrivate() 0x00023209   Thumb Code    16  QtMultimediaKit.in(i._ZN21QMediaPlaylistPrivateD1Ev)
    QMediaPlaylistPrivate::~QMediaPlaylistPrivate__sub_object() 0x00023209   Thumb Code     0  QtMultimediaKit.in(i._ZN21QMediaPlaylistPrivateD1Ev)
    QMediaServiceProvider::~QMediaServiceProvider__deallocating() 0x0002321d   Thumb Code    16  QtMultimediaKit.in(i._ZN21QMediaServiceProviderD0Ev)
    QMediaServiceProvider::~QMediaServiceProvider() 0x0002322d   Thumb Code     0  QtMultimediaKit.in(i._ZN21QMediaServiceProviderD2Ev)
    QMediaServiceProvider::~QMediaServiceProvider__sub_object() 0x0002322d   Thumb Code     8  QtMultimediaKit.in(i._ZN21QMediaServiceProviderD2Ev)
    QMediaTimeRangePrivate::~QMediaTimeRangePrivate() 0x00023235   Thumb Code    12  QtMultimediaKit.in(i._ZN22QMediaTimeRangePrivateD1Ev)
    QMediaTimeRangePrivate::~QMediaTimeRangePrivate__sub_object() 0x00023235   Thumb Code     0  QtMultimediaKit.in(i._ZN22QMediaTimeRangePrivateD1Ev)
    QPluginServiceProvider::releaseService(QMediaService*) 0x00023241   Thumb Code    30  QtMultimediaKit.in(i._ZN22QPluginServiceProvider14releaseServiceEP13QMediaService)
    QPluginServiceProvider::requestService(const QByteArray&, const QMediaServiceProviderHint&) 0x00023261   Thumb Code  1056  QtMultimediaKit.in(i._ZN22QPluginServiceProvider14requestServiceERK10QByteArrayRK25QMediaServiceProviderHint)
    QPluginServiceProvider::deviceDescription(const QByteArray&, const QByteArray&) 0x000236ed   Thumb Code   196  QtMultimediaKit.in(i._ZN22QPluginServiceProvider17deviceDescriptionERK10QByteArrayS2_)
    QPluginServiceProvider::~QPluginServiceProvider__deallocating() 0x000237cf   Thumb Code    16  QtMultimediaKit.in(i._ZN22QPluginServiceProviderD0Ev)
    QPluginServiceProvider::~QPluginServiceProvider() 0x000237e1   Thumb Code    24  QtMultimediaKit.in(i._ZN22QPluginServiceProviderD1Ev)
    QPluginServiceProvider::~QPluginServiceProvider__sub_object() 0x000237e1   Thumb Code     0  QtMultimediaKit.in(i._ZN22QPluginServiceProviderD1Ev)
    QAudioDeviceInfoPrivate::~QAudioDeviceInfoPrivate() 0x00023807   Thumb Code    36  QtMultimediaKit.in(i._ZN23QAudioDeviceInfoPrivateD1Ev)
    QAudioDeviceInfoPrivate::~QAudioDeviceInfoPrivate__sub_object() 0x00023807   Thumb Code     0  QtMultimediaKit.in(i._ZN23QAudioDeviceInfoPrivateD1Ev)
    QAbstractAudioDeviceInfo::~QAbstractAudioDeviceInfo__deallocating() 0x0002383f   Thumb Code    16  QtMultimediaKit.in(i._ZN24QAbstractAudioDeviceInfoD0Ev)
    QAbstractAudioDeviceInfo::~QAbstractAudioDeviceInfo() 0x0002384f   Thumb Code     0  QtMultimediaKit.in(i._ZN24QAbstractAudioDeviceInfoD2Ev)
    QAbstractAudioDeviceInfo::~QAbstractAudioDeviceInfo__sub_object() 0x0002384f   Thumb Code     8  QtMultimediaKit.in(i._ZN24QAbstractAudioDeviceInfoD2Ev)
    QAudioDeviceInfoInternal::Capabilities::Capabilities() 0x00023859   Thumb Code    62  QtMultimediaKit.in(i._ZN24QAudioDeviceInfoInternal12CapabilitiesC1Ev)
    QAudioDeviceInfoInternal::Capabilities::Capabilities__sub_object() 0x00023859   Thumb Code     0  QtMultimediaKit.in(i._ZN24QAudioDeviceInfoInternal12CapabilitiesC1Ev)
    QAudioDeviceInfoInternal::Capabilities::~Capabilities() 0x000238c7   Thumb Code    52  QtMultimediaKit.in(i._ZN24QAudioDeviceInfoInternal12CapabilitiesD1Ev)
    QAudioDeviceInfoInternal::Capabilities::~Capabilities__sub_object() 0x000238c7   Thumb Code     0  QtMultimediaKit.in(i._ZN24QAudioDeviceInfoInternal12CapabilitiesD1Ev)
    QImageVideoBufferPrivate::~QImageVideoBufferPrivate__deallocating() 0x00023925   Thumb Code    16  QtMultimediaKit.in(i._ZN24QImageVideoBufferPrivateD0Ev)
    QImageVideoBufferPrivate::~QImageVideoBufferPrivate() 0x00023935   Thumb Code    20  QtMultimediaKit.in(i._ZN24QImageVideoBufferPrivateD1Ev)
    QImageVideoBufferPrivate::~QImageVideoBufferPrivate__sub_object() 0x00023935   Thumb Code     0  QtMultimediaKit.in(i._ZN24QImageVideoBufferPrivateD1Ev)
    QMediaImageViewerPrivate::QMediaImageViewerPrivate() 0x00023959   Thumb Code    68  QtMultimediaKit.in(i._ZN24QMediaImageViewerPrivateC1Ev)
    QMediaImageViewerPrivate::QMediaImageViewerPrivate__sub_object() 0x00023959   Thumb Code     0  QtMultimediaKit.in(i._ZN24QMediaImageViewerPrivateC1Ev)
    QMediaImageViewerPrivate::~QMediaImageViewerPrivate__deallocating() 0x000239c5   Thumb Code    16  QtMultimediaKit.in(i._ZN24QMediaImageViewerPrivateD0Ev)
    QMediaImageViewerPrivate::~QMediaImageViewerPrivate() 0x000239d5   Thumb Code    52  QtMultimediaKit.in(i._ZN24QMediaImageViewerPrivateD1Ev)
    QMediaImageViewerPrivate::~QMediaImageViewerPrivate__sub_object() 0x000239d5   Thumb Code     0  QtMultimediaKit.in(i._ZN24QMediaImageViewerPrivateD1Ev)
    QGraphicsVideoItemPrivate::QGraphicsVideoItemPrivate() 0x00023a31   Thumb Code    88  QtMultimediaKit.in(i._ZN25QGraphicsVideoItemPrivateC1Ev)
    QGraphicsVideoItemPrivate::QGraphicsVideoItemPrivate__sub_object() 0x00023a31   Thumb Code     0  QtMultimediaKit.in(i._ZN25QGraphicsVideoItemPrivateC1Ev)
    QGraphicsVideoItemPrivate::~QGraphicsVideoItemPrivate__deallocating() 0x00023ab7   Thumb Code    16  QtMultimediaKit.in(i._ZN25QGraphicsVideoItemPrivateD0Ev)
    QGraphicsVideoItemPrivate::~QGraphicsVideoItemPrivate() 0x00023ac9   Thumb Code    40  QtMultimediaKit.in(i._ZN25QGraphicsVideoItemPrivateD1Ev)
    QGraphicsVideoItemPrivate::~QGraphicsVideoItemPrivate__sub_object() 0x00023ac9   Thumb Code     0  QtMultimediaKit.in(i._ZN25QGraphicsVideoItemPrivateD1Ev)
    QMemoryVideoBufferPrivate::~QMemoryVideoBufferPrivate__deallocating() 0x00023b0b   Thumb Code    16  QtMultimediaKit.in(i._ZN25QMemoryVideoBufferPrivateD0Ev)
    QMemoryVideoBufferPrivate::~QMemoryVideoBufferPrivate() 0x00023b1d   Thumb Code    20  QtMultimediaKit.in(i._ZN25QMemoryVideoBufferPrivateD1Ev)
    QMemoryVideoBufferPrivate::~QMemoryVideoBufferPrivate__sub_object() 0x00023b1d   Thumb Code     0  QtMultimediaKit.in(i._ZN25QMemoryVideoBufferPrivateD1Ev)
    QAudioCaptureSourcePrivate::initControls() 0x00023b41   Thumb Code    88  QtMultimediaKit.in(i._ZN26QAudioCaptureSourcePrivate12initControlsEv)
    QAudioCaptureSourcePrivate::~QAudioCaptureSourcePrivate__deallocating() 0x00023c6d   Thumb Code    16  QtMultimediaKit.in(i._ZN26QAudioCaptureSourcePrivateD0Ev)
    QAudioCaptureSourcePrivate::~QAudioCaptureSourcePrivate() 0x00023c7d   Thumb Code     8  QtMultimediaKit.in(i._ZN26QAudioCaptureSourcePrivateD1Ev)
    QAudioCaptureSourcePrivate::~QAudioCaptureSourcePrivate__sub_object() 0x00023c7d   Thumb Code     0  QtMultimediaKit.in(i._ZN26QAudioCaptureSourcePrivateD1Ev)
    QCameraImageCapturePrivate::unsetError() 0x00023c85   Thumb Code    40  QtMultimediaKit.in(i._ZN26QCameraImageCapturePrivate10unsetErrorEv)
    QLocalMediaPlaylistControl::setCurrentIndex(int) 0x00023cbb   Thumb Code    10  QtMultimediaKit.in(i._ZN26QLocalMediaPlaylistControl15setCurrentIndexEi)
    QLocalMediaPlaylistControl::setPlaybackMode(QMediaPlaylist::PlaybackMode) 0x00023cc5   Thumb Code    10  QtMultimediaKit.in(i._ZN26QLocalMediaPlaylistControl15setPlaybackModeEN14QMediaPlaylist12PlaybackModeE)
    QLocalMediaPlaylistControl::setPlaylistProvider(QMediaPlaylistProvider*) 0x00023ccf   Thumb Code    20  QtMultimediaKit.in(i._ZN26QLocalMediaPlaylistControl19setPlaylistProviderEP22QMediaPlaylistProvider)
    QLocalMediaPlaylistControl::next()       0x00023ce3   Thumb Code    10  QtMultimediaKit.in(i._ZN26QLocalMediaPlaylistControl4nextEv)
    QLocalMediaPlaylistControl::previous()   0x00023ced   Thumb Code    10  QtMultimediaKit.in(i._ZN26QLocalMediaPlaylistControl8previousEv)
    QLocalMediaPlaylistControl::QLocalMediaPlaylistControl(QObject*) 0x00023cf9   Thumb Code   104  QtMultimediaKit.in(i._ZN26QLocalMediaPlaylistControlC1EP7QObject)
    QLocalMediaPlaylistControl::QLocalMediaPlaylistControl__sub_object(QObject*) 0x00023cf9   Thumb Code     0  QtMultimediaKit.in(i._ZN26QLocalMediaPlaylistControlC1EP7QObject)
    QLocalMediaPlaylistControl::~QLocalMediaPlaylistControl__deallocating() 0x00023dd5   Thumb Code    16  QtMultimediaKit.in(i._ZN26QLocalMediaPlaylistControlD0Ev)
    QLocalMediaPlaylistControl::~QLocalMediaPlaylistControl() 0x00023de5   Thumb Code     8  QtMultimediaKit.in(i._ZN26QLocalMediaPlaylistControlD1Ev)
    QLocalMediaPlaylistControl::~QLocalMediaPlaylistControl__sub_object() 0x00023de5   Thumb Code     0  QtMultimediaKit.in(i._ZN26QLocalMediaPlaylistControlD1Ev)
    QMediaPlaylistNullProvider::~QMediaPlaylistNullProvider__deallocating() 0x00023ded   Thumb Code    16  QtMultimediaKit.in(i._ZN26QMediaPlaylistNullProviderD0Ev)
    QMediaPlaylistNullProvider::~QMediaPlaylistNullProvider() 0x00023dfd   Thumb Code     8  QtMultimediaKit.in(i._ZN26QMediaPlaylistNullProviderD1Ev)
    QMediaPlaylistNullProvider::~QMediaPlaylistNullProvider__sub_object() 0x00023dfd   Thumb Code     0  QtMultimediaKit.in(i._ZN26QMediaPlaylistNullProviderD1Ev)
    QVideoSurfaceFormatPrivate::QVideoSurfaceFormatPrivate(const QVideoSurfaceFormatPrivate&) 0x00023e05   Thumb Code   106  QtMultimediaKit.in(i._ZN26QVideoSurfaceFormatPrivateC1ERKS_)
    QVideoSurfaceFormatPrivate::QVideoSurfaceFormatPrivate__sub_object(const QVideoSurfaceFormatPrivate&) 0x00023e05   Thumb Code     0  QtMultimediaKit.in(i._ZN26QVideoSurfaceFormatPrivateC1ERKS_)
    QVideoSurfaceFormatPrivate::~QVideoSurfaceFormatPrivate() 0x00023e7b   Thumb Code    20  QtMultimediaKit.in(i._ZN26QVideoSurfaceFormatPrivateD1Ev)
    QVideoSurfaceFormatPrivate::~QVideoSurfaceFormatPrivate__sub_object() 0x00023e7b   Thumb Code     0  QtMultimediaKit.in(i._ZN26QVideoSurfaceFormatPrivateD1Ev)
    QVideoWidgetControlBackend::~QVideoWidgetControlBackend__deallocating() 0x00023e9b   Thumb Code    16  QtMultimediaKit.in(i._ZN26QVideoWidgetControlBackendD0Ev)
    QVideoWidgetControlBackend::~QVideoWidgetControlBackend() 0x00023eab   Thumb Code     8  QtMultimediaKit.in(i._ZN26QVideoWidgetControlBackendD1Ev)
    QVideoWidgetControlBackend::~QVideoWidgetControlBackend__sub_object() 0x00023eab   Thumb Code     0  QtMultimediaKit.in(i._ZN26QVideoWidgetControlBackendD1Ev)
    QAbstractVideoBufferPrivate::~QAbstractVideoBufferPrivate__deallocating() 0x00023eb3   Thumb Code    12  QtMultimediaKit.in(i._ZN27QAbstractVideoBufferPrivateD0Ev)
    QAbstractVideoBufferPrivate::~QAbstractVideoBufferPrivate() 0x00023ebf   Thumb Code     2  QtMultimediaKit.in(i._ZN27QAbstractVideoBufferPrivateD1Ev)
    QAbstractVideoBufferPrivate::~QAbstractVideoBufferPrivate__sub_object() 0x00023ebf   Thumb Code     0  QtMultimediaKit.in(i._ZN27QAbstractVideoBufferPrivateD1Ev)
    QMediaServiceProviderPlugin::~QMediaServiceProviderPlugin__deallocating() 0x00023ec1   Thumb Code    16  QtMultimediaKit.in(i._ZN27QMediaServiceProviderPluginD0Ev)
    QMediaServiceProviderPlugin::~QMediaServiceProviderPlugin() 0x00023ed1   Thumb Code     0  QtMultimediaKit.in(i._ZN27QMediaServiceProviderPluginD2Ev)
    QMediaServiceProviderPlugin::~QMediaServiceProviderPlugin__sub_object() 0x00023ed1   Thumb Code     8  QtMultimediaKit.in(i._ZN27QMediaServiceProviderPluginD2Ev)
    QVideoSurfaceGenericPainter::~QVideoSurfaceGenericPainter__deallocating() 0x00023ed9   Thumb Code    16  QtMultimediaKit.in(i._ZN27QVideoSurfaceGenericPainterD0Ev)
    QVideoSurfaceGenericPainter::~QVideoSurfaceGenericPainter() 0x00023ee9   Thumb Code    30  QtMultimediaKit.in(i._ZN27QVideoSurfaceGenericPainterD1Ev)
    QVideoSurfaceGenericPainter::~QVideoSurfaceGenericPainter__sub_object() 0x00023ee9   Thumb Code     0  QtMultimediaKit.in(i._ZN27QVideoSurfaceGenericPainterD1Ev)
    QAudioEncoderSettingsPrivate::~QAudioEncoderSettingsPrivate() 0x00023f1f   Thumb Code    12  QtMultimediaKit.in(i._ZN28QAudioEncoderSettingsPrivateD1Ev)
    QAudioEncoderSettingsPrivate::~QAudioEncoderSettingsPrivate__sub_object() 0x00023f1f   Thumb Code     0  QtMultimediaKit.in(i._ZN28QAudioEncoderSettingsPrivateD1Ev)
    QImageEncoderSettingsPrivate::~QImageEncoderSettingsPrivate() 0x00023f2b   Thumb Code    12  QtMultimediaKit.in(i._ZN28QImageEncoderSettingsPrivateD1Ev)
    QImageEncoderSettingsPrivate::~QImageEncoderSettingsPrivate__sub_object() 0x00023f2b   Thumb Code     0  QtMultimediaKit.in(i._ZN28QImageEncoderSettingsPrivateD1Ev)
    QVideoEncoderSettingsPrivate::~QVideoEncoderSettingsPrivate() 0x00023f37   Thumb Code    12  QtMultimediaKit.in(i._ZN28QVideoEncoderSettingsPrivateD1Ev)
    QVideoEncoderSettingsPrivate::~QVideoEncoderSettingsPrivate__sub_object() 0x00023f37   Thumb Code     0  QtMultimediaKit.in(i._ZN28QVideoEncoderSettingsPrivateD1Ev)
    QVideoWidgetControlInterface::~QVideoWidgetControlInterface() 0x00023f43   Thumb Code     0  QtMultimediaKit.in(i._ZN28QVideoWidgetControlInterfaceD2Ev)
    QVideoWidgetControlInterface::~QVideoWidgetControlInterface__sub_object() 0x00023f43   Thumb Code     2  QtMultimediaKit.in(i._ZN28QVideoWidgetControlInterfaceD2Ev)
    QCameraImageProcessingPrivate::~QCameraImageProcessingPrivate__deallocating() 0x00023f45   Thumb Code    16  QtMultimediaKit.in(i._ZN29QCameraImageProcessingPrivateD0Ev)
    QCameraImageProcessingPrivate::~QCameraImageProcessingPrivate() 0x00023f55   Thumb Code     8  QtMultimediaKit.in(i._ZN29QCameraImageProcessingPrivateD1Ev)
    QCameraImageProcessingPrivate::~QCameraImageProcessingPrivate__sub_object() 0x00023f55   Thumb Code     0  QtMultimediaKit.in(i._ZN29QCameraImageProcessingPrivateD1Ev)
    QMediaPlaylistProviderPrivate::~QMediaPlaylistProviderPrivate__deallocating() 0x00023f5d   Thumb Code    12  QtMultimediaKit.in(i._ZN29QMediaPlaylistProviderPrivateD0Ev)
    QMediaPlaylistProviderPrivate::~QMediaPlaylistProviderPrivate() 0x00023f69   Thumb Code     2  QtMultimediaKit.in(i._ZN29QMediaPlaylistProviderPrivateD1Ev)
    QMediaPlaylistProviderPrivate::~QMediaPlaylistProviderPrivate__sub_object() 0x00023f69   Thumb Code     0  QtMultimediaKit.in(i._ZN29QMediaPlaylistProviderPrivateD1Ev)
    QMediaImageViewerControlPrivate::QMediaImageViewerControlPrivate() 0x00023f6d   Thumb Code   290  QtMultimediaKit.in(i._ZN31QMediaImageViewerControlPrivateC1Ev)
    QMediaImageViewerControlPrivate::QMediaImageViewerControlPrivate__sub_object() 0x00023f6d   Thumb Code     0  QtMultimediaKit.in(i._ZN31QMediaImageViewerControlPrivateC1Ev)
    QMediaImageViewerControlPrivate::~QMediaImageViewerControlPrivate__deallocating() 0x000240fd   Thumb Code    16  QtMultimediaKit.in(i._ZN31QMediaImageViewerControlPrivateD0Ev)
    QMediaImageViewerControlPrivate::~QMediaImageViewerControlPrivate() 0x0002410d   Thumb Code    56  QtMultimediaKit.in(i._ZN31QMediaImageViewerControlPrivateD1Ev)
    QMediaImageViewerControlPrivate::~QMediaImageViewerControlPrivate__sub_object() 0x0002410d   Thumb Code     0  QtMultimediaKit.in(i._ZN31QMediaImageViewerControlPrivateD1Ev)
    QMediaImageViewerServicePrivate::~QMediaImageViewerServicePrivate__deallocating() 0x00024177   Thumb Code    16  QtMultimediaKit.in(i._ZN31QMediaImageViewerServicePrivateD0Ev)
    QMediaImageViewerServicePrivate::~QMediaImageViewerServicePrivate() 0x00024189   Thumb Code    20  QtMultimediaKit.in(i._ZN31QMediaImageViewerServicePrivateD1Ev)
    QMediaImageViewerServicePrivate::~QMediaImageViewerServicePrivate__sub_object() 0x00024189   Thumb Code     0  QtMultimediaKit.in(i._ZN31QMediaImageViewerServicePrivateD1Ev)
    QMediaServiceProviderHintPrivate::QMediaServiceProviderHintPrivate(QMediaServiceProviderHint::Type) 0x000241ad   Thumb Code    44  QtMultimediaKit.in(i._ZN32QMediaServiceProviderHintPrivateC1EN25QMediaServiceProviderHint4TypeE)
    QMediaServiceProviderHintPrivate::QMediaServiceProviderHintPrivate__sub_object(QMediaServiceProviderHint::Type) 0x000241ad   Thumb Code     0  QtMultimediaKit.in(i._ZN32QMediaServiceProviderHintPrivateC1EN25QMediaServiceProviderHint4TypeE)
    QMediaServiceProviderHintPrivate::~QMediaServiceProviderHintPrivate() 0x000241f5   Thumb Code    32  QtMultimediaKit.in(i._ZN32QMediaServiceProviderHintPrivateD1Ev)
    QMediaServiceProviderHintPrivate::~QMediaServiceProviderHintPrivate__sub_object() 0x000241f5   Thumb Code     0  QtMultimediaKit.in(i._ZN32QMediaServiceProviderHintPrivateD1Ev)
    QLocalMediaPlaylistProviderPrivate::~QLocalMediaPlaylistProviderPrivate__deallocating() 0x0002422d   Thumb Code    16  QtMultimediaKit.in(i._ZN34QLocalMediaPlaylistProviderPrivateD0Ev)
    QLocalMediaPlaylistProviderPrivate::~QLocalMediaPlaylistProviderPrivate() 0x0002423d   Thumb Code    18  QtMultimediaKit.in(i._ZN34QLocalMediaPlaylistProviderPrivateD1Ev)
    QLocalMediaPlaylistProviderPrivate::~QLocalMediaPlaylistProviderPrivate__sub_object() 0x0002423d   Thumb Code     0  QtMultimediaKit.in(i._ZN34QLocalMediaPlaylistProviderPrivateD1Ev)
    QSet<QString>::~QSet()                   0x0002425f   Thumb Code     8  QtMultimediaKit.in(i._ZN4QSetI7QStringED1Ev)
    QSet<QString>::~QSet__sub_object()       0x0002425f   Thumb Code     0  QtMultimediaKit.in(i._ZN4QSetI7QStringED1Ev)
    QSet<int>::~QSet()                       0x00024267   Thumb Code     8  QtMultimediaKit.in(i._ZN4QSetIiED1Ev)
    QSet<int>::~QSet__sub_object()           0x00024267   Thumb Code     0  QtMultimediaKit.in(i._ZN4QSetIiED1Ev)
    QRect::QRect(const QPoint&, const QSize&) 0x0002426f   Thumb Code    28  QtMultimediaKit.in(i._ZN5QRectC1ERK6QPointRK5QSize)
    QRect::QRect__sub_object(const QPoint&, const QSize&) 0x0002426f   Thumb Code     0  QtMultimediaKit.in(i._ZN5QRectC1ERK6QPointRK5QSize)
    QRect::QRect(int, int, int, int)         0x0002428b   Thumb Code    22  QtMultimediaKit.in(i._ZN5QRectC1Eiiii)
    QRect::QRect__sub_object(int, int, int, int) 0x0002428b   Thumb Code     0  QtMultimediaKit.in(i._ZN5QRectC1Eiiii)
    QRect::QRect()                           0x000242a1   Thumb Code    14  QtMultimediaKit.in(i._ZN5QRectC1Ev)
    QRect::QRect__sub_object()               0x000242a1   Thumb Code     0  QtMultimediaKit.in(i._ZN5QRectC1Ev)
    QColor::QColor(const QColor&)            0x000242af   Thumb Code    20  QtMultimediaKit.in(i._ZN6QColorC1ERKS_)
    QColor::QColor__sub_object(const QColor&) 0x000242af   Thumb Code     0  QtMultimediaKit.in(i._ZN6QColorC1ERKS_)
    QDebug::maybeSpace()                     0x000242c3   Thumb Code    22  QtMultimediaKit.in(i._ZN6QDebug10maybeSpaceEv)
    QDebug::QDebug(QtMsgType)                0x000242d9   Thumb Code    62  QtMultimediaKit.in(i._ZN6QDebugC1E9QtMsgType)
    QDebug::QDebug__sub_object(QtMsgType)    0x000242d9   Thumb Code     0  QtMultimediaKit.in(i._ZN6QDebugC1E9QtMsgType)
    QDebug::QDebug(const QDebug&)            0x00024329   Thumb Code    12  QtMultimediaKit.in(i._ZN6QDebugC1ERKS_)
    QDebug::QDebug__sub_object(const QDebug&) 0x00024329   Thumb Code     0  QtMultimediaKit.in(i._ZN6QDebugC1ERKS_)
    QDebug::~QDebug()                        0x00024335   Thumb Code   122  QtMultimediaKit.in(i._ZN6QDebugD1Ev)
    QDebug::~QDebug__sub_object()            0x00024335   Thumb Code     0  QtMultimediaKit.in(i._ZN6QDebugD1Ev)
    QDebug::operator <<(const char*)         0x000243c3   Thumb Code    36  QtMultimediaKit.in(i._ZN6QDebuglsEPKc)
    QRectF::QRectF(const QRectF&)            0x000243f1   Thumb Code    18  QtMultimediaKit.in(i._ZN6QRectFC1ERKS_)
    QRectF::QRectF__sub_object(const QRectF&) 0x000243f1   Thumb Code     0  QtMultimediaKit.in(i._ZN6QRectFC1ERKS_)
    QRectF::QRectF()                         0x00024403   Thumb Code    12  QtMultimediaKit.in(i._ZN6QRectFC1Ev)
    QRectF::QRectF__sub_object()             0x00024403   Thumb Code     0  QtMultimediaKit.in(i._ZN6QRectFC1Ev)
    QSizeF::QSizeF(const QSize&)             0x0002440f   Thumb Code    26  QtMultimediaKit.in(i._ZN6QSizeFC1ERK5QSize)
    QSizeF::QSizeF__sub_object(const QSize&) 0x0002440f   Thumb Code     0  QtMultimediaKit.in(i._ZN6QSizeFC1ERK5QSize)
    QObject::disconnect(const char*, const QObject*, const char*) 0x00024429   Thumb Code     8  QtMultimediaKit.in(i._ZN7QObject10disconnectEPKcPKS_S1_)
    QString::clear()                         0x00024431   Thumb Code    34  QtMultimediaKit.in(i._ZN7QString5clearEv)
    QString::QString(const QByteArray&)      0x00024463   Thumb Code    46  QtMultimediaKit.in(i._ZN7QStringC1ERK10QByteArray)
    QString::QString__sub_object(const QByteArray&) 0x00024463   Thumb Code     0  QtMultimediaKit.in(i._ZN7QStringC1ERK10QByteArray)
    QString::QString(const QLatin1String&)   0x00024491   Thumb Code    20  QtMultimediaKit.in(i._ZN7QStringC1ERK13QLatin1String)
    QString::QString__sub_object(const QLatin1String&) 0x00024491   Thumb Code     0  QtMultimediaKit.in(i._ZN7QStringC1ERK13QLatin1String)
    QString::QString(const QString&)         0x000244a5   Thumb Code    16  QtMultimediaKit.in(i._ZN7QStringC1ERKS_)
    QString::QString__sub_object(const QString&) 0x000244a5   Thumb Code     0  QtMultimediaKit.in(i._ZN7QStringC1ERKS_)
    QString::QString()                       0x000244b5   Thumb Code    16  QtMultimediaKit.in(i._ZN7QStringC1Ev)
    QString::QString__sub_object()           0x000244b5   Thumb Code     0  QtMultimediaKit.in(i._ZN7QStringC1Ev)
    QString::~QString()                      0x000244c9   Thumb Code    24  QtMultimediaKit.in(i._ZN7QStringD1Ev)
    QString::~QString__sub_object()          0x000244c9   Thumb Code     0  QtMultimediaKit.in(i._ZN7QStringD1Ev)
    QString::operator =(const QLatin1String&) 0x000244e1   Thumb Code    34  QtMultimediaKit.in(i._ZN7QStringaSERK13QLatin1String)
    QVariant::Private::Private()             0x0002450d   Thumb Code    24  QtMultimediaKit.in(i._ZN8QVariant7PrivateC1Ev)
    QVariant::Private::Private__sub_object() 0x0002450d   Thumb Code     0  QtMultimediaKit.in(i._ZN8QVariant7PrivateC1Ev)
    QVariant::QVariant(float)                0x00024525   Thumb Code    26  QtMultimediaKit.in(i._ZN8QVariantC1Ef)
    QVariant::QVariant__sub_object(float)    0x00024525   Thumb Code     0  QtMultimediaKit.in(i._ZN8QVariantC1Ef)
    QVariant::QVariant()                     0x0002453f   Thumb Code    24  QtMultimediaKit.in(i._ZN8QVariantC1Ev)
    QVariant::QVariant__sub_object()         0x0002453f   Thumb Code     0  QtMultimediaKit.in(i._ZN8QVariantC1Ev)
    QBasicTimer::isActive() const            0x00024557   Thumb Code    14  QtMultimediaKit.in(i._ZNK11QBasicTimer8isActiveEv)
    QBasicAtomicInt::operator ==(int) const  0x00024565   Thumb Code    14  QtMultimediaKit.in(i._ZNK15QBasicAtomicInteqEi)
    QBasicAtomicInt::operator !=(int) const  0x00024573   Thumb Code    14  QtMultimediaKit.in(i._ZNK15QBasicAtomicIntneEi)
    QBasicAtomicInt::operator !() const      0x00024581   Thumb Code    14  QtMultimediaKit.in(i._ZNK15QBasicAtomicIntntEv)
    QNullDeviceInfo::deviceName() const      0x0002458f   Thumb Code     8  QtMultimediaKit.in(i._ZNK15QNullDeviceInfo10deviceNameEv)
    QNullDeviceInfo::preferredFormat() const 0x00024599   Thumb Code    32  QtMultimediaKit.in(i._ZNK15QNullDeviceInfo15preferredFormatEv)
    QNullDeviceInfo::isFormatSupported(const QAudioFormat&) const 0x000245eb   Thumb Code     4  QtMultimediaKit.in(i._ZNK15QNullDeviceInfo17isFormatSupportedERK12QAudioFormat)
    QNullInputDevice::bufferSize() const     0x000245ef   Thumb Code     4  QtMultimediaKit.in(i._ZNK16QNullInputDevice10bufferSizeEv)
    QNullInputDevice::bytesReady() const     0x000245f3   Thumb Code     4  QtMultimediaKit.in(i._ZNK16QNullInputDevice10bytesReadyEv)
    QNullInputDevice::periodSize() const     0x000245f7   Thumb Code     4  QtMultimediaKit.in(i._ZNK16QNullInputDevice10periodSizeEv)
    QNullInputDevice::elapsedUSecs() const   0x000245fb   Thumb Code     6  QtMultimediaKit.in(i._ZNK16QNullInputDevice12elapsedUSecsEv)
    QNullInputDevice::notifyInterval() const 0x00024601   Thumb Code     4  QtMultimediaKit.in(i._ZNK16QNullInputDevice14notifyIntervalEv)
    QNullInputDevice::processedUSecs() const 0x00024605   Thumb Code     6  QtMultimediaKit.in(i._ZNK16QNullInputDevice14processedUSecsEv)
    QNullInputDevice::error() const          0x0002460b   Thumb Code     4  QtMultimediaKit.in(i._ZNK16QNullInputDevice5errorEv)
    QNullInputDevice::state() const          0x0002460f   Thumb Code     4  QtMultimediaKit.in(i._ZNK16QNullInputDevice5stateEv)
    QNullInputDevice::format() const         0x00024613   Thumb Code     8  QtMultimediaKit.in(i._ZNK16QNullInputDevice6formatEv)
    QNullOutputDevice::bufferSize() const    0x0002461b   Thumb Code     4  QtMultimediaKit.in(i._ZNK17QNullOutputDevice10bufferSizeEv)
    QNullOutputDevice::periodSize() const    0x0002461f   Thumb Code     4  QtMultimediaKit.in(i._ZNK17QNullOutputDevice10periodSizeEv)
    QNullOutputDevice::elapsedUSecs() const  0x00024623   Thumb Code     6  QtMultimediaKit.in(i._ZNK17QNullOutputDevice12elapsedUSecsEv)
    QNullOutputDevice::notifyInterval() const 0x00024629   Thumb Code     4  QtMultimediaKit.in(i._ZNK17QNullOutputDevice14notifyIntervalEv)
    QNullOutputDevice::processedUSecs() const 0x0002462d   Thumb Code     6  QtMultimediaKit.in(i._ZNK17QNullOutputDevice14processedUSecsEv)
    QNullOutputDevice::error() const         0x00024633   Thumb Code     4  QtMultimediaKit.in(i._ZNK17QNullOutputDevice5errorEv)
    QNullOutputDevice::state() const         0x00024637   Thumb Code     4  QtMultimediaKit.in(i._ZNK17QNullOutputDevice5stateEv)
    QNullOutputDevice::format() const        0x0002463b   Thumb Code     8  QtMultimediaKit.in(i._ZNK17QNullOutputDevice6formatEv)
    QNullOutputDevice::bytesFree() const     0x00024643   Thumb Code     4  QtMultimediaKit.in(i._ZNK17QNullOutputDevice9bytesFreeEv)
    QMediaPlaylistPrivate::playlist() const  0x00024647   Thumb Code     8  QtMultimediaKit.in(i._ZNK21QMediaPlaylistPrivate8playlistEv)
    QPluginServiceProvider::hasSupport(const QByteArray&, const QString&, const QStringList&, int) const 0x0002464f   Thumb Code   298  QtMultimediaKit.in(i._ZNK22QPluginServiceProvider10hasSupportERK10QByteArrayRK7QStringRK11QStringListi)
    QPluginServiceProvider::supportedMimeTypes(const QByteArray&, int) const 0x00024791   Thumb Code   222  QtMultimediaKit.in(i._ZNK22QPluginServiceProvider18supportedMimeTypesERK10QByteArrayi)
    QPluginServiceProvider::devices(const QByteArray&) const 0x00024893   Thumb Code   144  QtMultimediaKit.in(i._ZNK22QPluginServiceProvider7devicesERK10QByteArray)
    QLocalMediaPlaylistControl::currentIndex() const 0x00024947   Thumb Code    10  QtMultimediaKit.in(i._ZNK26QLocalMediaPlaylistControl12currentIndexEv)
    QLocalMediaPlaylistControl::playbackMode() const 0x00024951   Thumb Code    10  QtMultimediaKit.in(i._ZNK26QLocalMediaPlaylistControl12playbackModeEv)
    QLocalMediaPlaylistControl::previousIndex(int) const 0x0002495b   Thumb Code    10  QtMultimediaKit.in(i._ZNK26QLocalMediaPlaylistControl13previousIndexEi)
    QLocalMediaPlaylistControl::playlistProvider() const 0x00024965   Thumb Code    10  QtMultimediaKit.in(i._ZNK26QLocalMediaPlaylistControl16playlistProviderEv)
    QLocalMediaPlaylistControl::nextIndex(int) const 0x0002496f   Thumb Code    10  QtMultimediaKit.in(i._ZNK26QLocalMediaPlaylistControl9nextIndexEi)
    QMediaPlaylistNullProvider::mediaCount() const 0x00024979   Thumb Code     4  QtMultimediaKit.in(i._ZNK26QMediaPlaylistNullProvider10mediaCountEv)
    QMediaPlaylistNullProvider::media(int) const 0x0002497d   Thumb Code     8  QtMultimediaKit.in(i._ZNK26QMediaPlaylistNullProvider5mediaEi)
    QVideoSurfaceFormatPrivate::operator ==(const QVideoSurfaceFormatPrivate&) const 0x00024985   Thumb Code   324  QtMultimediaKit.in(i._ZNK26QVideoSurfaceFormatPrivateeqERKS_)
    QBool::operator const void*() const      0x00024ad1   Thumb Code    14  QtMultimediaKit.in(i._ZNK5QBoolcvPKvEv)
    QRect::size() const                      0x00024adf   Thumb Code    22  QtMultimediaKit.in(i._ZNK5QRect4sizeEv)
    QSize::isEmpty() const                   0x00024af5   Thumb Code    20  QtMultimediaKit.in(i._ZNK5QSize7isEmptyEv)
    QObject::connect(const QObject*, const char*, const char*, Qt::ConnectionType) const 0x00024b09   Thumb Code    20  QtMultimediaKit.in(i._ZNK7QObject7connectEPKS_PKcS3_N2Qt14ConnectionTypeE)
    QString::isNull() const                  0x00024b1d   Thumb Code    16  QtMultimediaKit.in(i._ZNK7QString6isNullEv)
    QString::isEmpty() const                 0x00024b31   Thumb Code    16  QtMultimediaKit.in(i._ZNK7QString7isEmptyEv)
    QWidget::testAttribute(Qt::WidgetAttribute) const 0x00024b41   Thumb Code    32  QtMultimediaKit.in(i._ZNK7QWidget13testAttributeEN2Qt15WidgetAttributeE)
    QWidget::rect() const                    0x00024b61   Thumb Code    48  QtMultimediaKit.in(i._ZNK7QWidget4rectEv)
    TFourCC::operator ==(const unsigned long&) const 0x00024b91   Thumb Code    16  QtMultimediaKit.in(i._ZNK7TFourCCeqERKm)
    QPalette::window() const                 0x00024ba1   Thumb Code    12  QtMultimediaKit.in(i._ZNK8QPalette6windowEv)
    QListData::at(int) const                 0x00024bad   Thumb Code    16  QtMultimediaKit.in(i._ZNK9QListData2atEi)
    QListData::end() const                   0x00024bbd   Thumb Code    12  QtMultimediaKit.in(i._ZNK9QListData3endEv)
    QListData::size() const                  0x00024bc9   Thumb Code    10  QtMultimediaKit.in(i._ZNK9QListData4sizeEv)
    QListData::begin() const                 0x00024bd3   Thumb Code    12  QtMultimediaKit.in(i._ZNK9QListData5beginEv)
    QListData::isEmpty() const               0x00024bdf   Thumb Code    18  QtMultimediaKit.in(i._ZNK9QListData7isEmptyEv)
    thunk{-8} to QVideoWidgetBackend::~QVideoWidgetBackend__deallocating() 0x00024bf1   Thumb Code    10  QtMultimediaKit.in(i._ZThn8_N19QVideoWidgetBackendD0Ev)
    thunk{-8} to QVideoWidgetBackend::~QVideoWidgetBackend() 0x00024bfb   Thumb Code    10  QtMultimediaKit.in(i._ZThn8_N19QVideoWidgetBackendD1Ev)
    thunk{-8} to QVideoWidgetControlBackend::~QVideoWidgetControlBackend__deallocating() 0x00024c05   Thumb Code    10  QtMultimediaKit.in(i._ZThn8_N26QVideoWidgetControlBackendD0Ev)
    thunk{-8} to QVideoWidgetControlBackend::~QVideoWidgetControlBackend() 0x00024c0f   Thumb Code    10  QtMultimediaKit.in(i._ZThn8_N26QVideoWidgetControlBackendD1Ev)
    thunk{-8} to QMediaServiceProviderPlugin::~QMediaServiceProviderPlugin__deallocating() 0x00024c19   Thumb Code    10  QtMultimediaKit.in(i._ZThn8_N27QMediaServiceProviderPluginD0Ev)
    thunk{-8} to QMediaServiceProviderPlugin::~QMediaServiceProviderPlugin() 0x00024c23   Thumb Code    10  QtMultimediaKit.in(i._ZThn8_N27QMediaServiceProviderPluginD1Ev)
    operator delete (void*, void*)           0x00024c2d   Thumb Code     2  QtMultimediaKit.in(i._ZdlPvS_)
    operator ==(const QByteArray&, const QByteArray&) 0x00024c2f   Thumb Code    34  QtMultimediaKit.in(i._ZeqRK10QByteArrayS1_)
    operator ==(const QSize&, const QSize&)  0x00024c51   Thumb Code    24  QtMultimediaKit.in(i._ZeqRK5QSizeS1_)
    operator !=(const QByteArray&, const char*) 0x00024c69   Thumb Code    42  QtMultimediaKit.in(i._ZneRK10QByteArrayPKc)
    operator new(unsigned, void*)            0x00024c93   Thumb Code     4  QtMultimediaKit.in(i._ZnwjPv)
    appendUnique<QAudioFormat::SampleType>(QList<T1>&, const QList<T1>&) 0x00024c97   Thumb Code   138  QtMultimediaKit.in(t._Z12appendUniqueIN12QAudioFormat10SampleTypeEEvR5QListIT_ERKS4_)
    appendUnique<QAudioFormat::Endian>(QList<T1>&, const QList<T1>&) 0x00024d33   Thumb Code   138  QtMultimediaKit.in(t._Z12appendUniqueIN12QAudioFormat6EndianEEvR5QListIT_ERKS4_)
    appendUnique<int>(QList<T1>&, const QList<T1>&) 0x00024dd1   Thumb Code   174  QtMultimediaKit.in(t._Z12appendUniqueIiEvR5QListIT_ERKS2_)
    qobject_cast<QFactoryInterface*>(QObject*) 0x00024e9d   Thumb Code    22  QtMultimediaKit.in(t._Z12qobject_castIP17QFactoryInterfaceET_P7QObject)
    qobject_cast<QAudioSystemPlugin*>(QObject*) 0x00024eb9   Thumb Code    12  QtMultimediaKit.in(t._Z12qobject_castIP18QAudioSystemPluginET_P7QObject)
    qobject_cast<QMediaBindableInterface*>(QObject*) 0x00024ec9   Thumb Code    22  QtMultimediaKit.in(t._Z12qobject_castIP23QMediaBindableInterfaceET_P7QObject)
    qobject_cast<QMediaPlaylistIOInterface*>(QObject*) 0x00024ee5   Thumb Code    22  QtMultimediaKit.in(t._Z12qobject_castIP25QMediaPlaylistIOInterfaceET_P7QObject)
    qobject_cast<QAudioSystemFactoryInterface*>(QObject*) 0x00024f01   Thumb Code    22  QtMultimediaKit.in(t._Z12qobject_castIP28QAudioSystemFactoryInterfaceET_P7QObject)
    qobject_cast<QMediaServiceFeaturesInterface*>(QObject*) 0x00024f1d   Thumb Code    22  QtMultimediaKit.in(t._Z12qobject_castIP30QMediaServiceFeaturesInterfaceET_P7QObject)
    qobject_cast<QMediaServiceSupportedDevicesInterface*>(QObject*) 0x00024f39   Thumb Code    22  QtMultimediaKit.in(t._Z12qobject_castIP38QMediaServiceSupportedDevicesInterfaceET_P7QObject)
    qobject_cast<QMediaServiceSupportedFormatsInterface*>(QObject*) 0x00024f55   Thumb Code    22  QtMultimediaKit.in(t._Z12qobject_castIP38QMediaServiceSupportedFormatsInterfaceET_P7QObject)
    qvariant_cast<QNetworkRequest>(const QVariant&) 0x00024f71   Thumb Code   120  QtMultimediaKit.in(t._Z13qvariant_castI15QNetworkRequestET_RK8QVariant)
    qvariant_cast<QSize>(const QVariant&)    0x00024fff   Thumb Code    66  QtMultimediaKit.in(t._Z13qvariant_castI5QSizeET_RK8QVariant)
    qvariant_cast<QString>(const QVariant&)  0x00025041   Thumb Code    84  QtMultimediaKit.in(t._Z13qvariant_castI7QStringET_RK8QVariant)
    qvariant_cast<int>(const QVariant&)      0x0002509f   Thumb Code    46  QtMultimediaKit.in(t._Z13qvariant_castIiET_RK8QVariant)
    qMapLessThanKey<QString>(const T1&, const T1&) 0x000250cd   Thumb Code     8  QtMultimediaKit.in(t._Z15qMapLessThanKeyI7QStringEbRKT_S3_)
    qMapLessThanKey<QCamera::LockStatus>(const T1&, const T1&) 0x000250d5   Thumb Code    16  QtMultimediaKit.in(t._Z15qMapLessThanKeyIN7QCamera10LockStatusEEbRKT_S4_)
    qMapLessThanKey<QMediaService*>(const T1&, const T1&) 0x000250e5   Thumb Code    16  QtMultimediaKit.in(t._Z15qMapLessThanKeyIP13QMediaServiceEbRKT_S4_)
    qMapLessThanKey<int>(const T1&, const T1&) 0x000250f5   Thumb Code    16  QtMultimediaKit.in(t._Z15qMapLessThanKeyIiEbRKT_S2_)
    qRegisterMetaType<QNetworkRequest>(const char*, T1*) 0x00025105   Thumb Code    44  QtMultimediaKit.in(t._Z17qRegisterMetaTypeI15QNetworkRequestEiPKcPT_)
    qRegisterMetaType<QVideoSurfaceFormat>(const char*, T1*) 0x00025139   Thumb Code    44  QtMultimediaKit.in(t._Z17qRegisterMetaTypeI19QVideoSurfaceFormatEiPKcPT_)
    qRegisterMetaType<QFlags<QCameraFocus::FocusMode>>(const char*, T1*) 0x0002516d   Thumb Code    64  QtMultimediaKit.in(t._Z17qRegisterMetaTypeI6QFlagsIN12QCameraFocus9FocusModeEEEiPKcPT_)
    qRegisterMetaType<QFlags<QCameraExposure::FlashMode>>(const char*, T1*) 0x000251d5   Thumb Code    64  QtMultimediaKit.in(t._Z17qRegisterMetaTypeI6QFlagsIN15QCameraExposure9FlashModeEEEiPKcPT_)
    qRegisterMetaType<QVideoFrame::PixelFormat>(const char*, T1*) 0x0002523d   Thumb Code    44  QtMultimediaKit.in(t._Z17qRegisterMetaTypeIN11QVideoFrame11PixelFormatEEiPKcPT_)
    qRegisterMetaType<QCameraFocus::FocusPointMode>(const char*, T1*) 0x00025271   Thumb Code    64  QtMultimediaKit.in(t._Z17qRegisterMetaTypeIN12QCameraFocus14FocusPointModeEEiPKcPT_)
    qRegisterMetaType<QMediaPlayer::MediaStatus>(const char*, T1*) 0x000252dd   Thumb Code    64  QtMultimediaKit.in(t._Z17qRegisterMetaTypeIN12QMediaPlayer11MediaStatusEEiPKcPT_)
    qRegisterMetaType<QMediaPlayer::Error>(const char*, T1*) 0x00025345   Thumb Code    64  QtMultimediaKit.in(t._Z17qRegisterMetaTypeIN12QMediaPlayer5ErrorEEiPKcPT_)
    qRegisterMetaType<QMediaPlayer::State>(const char*, T1*) 0x000253a5   Thumb Code    64  QtMultimediaKit.in(t._Z17qRegisterMetaTypeIN12QMediaPlayer5StateEEiPKcPT_)
    qRegisterMetaType<QMediaRecorder::Error>(const char*, T1*) 0x00025405   Thumb Code    64  QtMultimediaKit.in(t._Z17qRegisterMetaTypeIN14QMediaRecorder5ErrorEEiPKcPT_)
    qRegisterMetaType<QMediaRecorder::State>(const char*, T1*) 0x00025469   Thumb Code    64  QtMultimediaKit.in(t._Z17qRegisterMetaTypeIN14QMediaRecorder5StateEEiPKcPT_)
    qRegisterMetaType<QCameraExposure::ExposureMode>(const char*, T1*) 0x000254cd   Thumb Code    64  QtMultimediaKit.in(t._Z17qRegisterMetaTypeIN15QCameraExposure12ExposureModeEEiPKcPT_)
    qRegisterMetaType<QCameraExposure::MeteringMode>(const char*, T1*) 0x00025539   Thumb Code    64  QtMultimediaKit.in(t._Z17qRegisterMetaTypeIN15QCameraExposure12MeteringModeEEiPKcPT_)
    qRegisterMetaType<QCameraImageCapture::Error>(const char*, T1*) 0x000255a5   Thumb Code    58  QtMultimediaKit.in(t._Z17qRegisterMetaTypeIN19QCameraImageCapture5ErrorEEiPKcPT_)
    qRegisterMetaType<QVideoSurfaceFormat::YCbCrColorSpace>(const char*, T1*) 0x00025609   Thumb Code    44  QtMultimediaKit.in(t._Z17qRegisterMetaTypeIN19QVideoSurfaceFormat15YCbCrColorSpaceEEiPKcPT_)
    qRegisterMetaType<QVideoSurfaceFormat::Direction>(const char*, T1*) 0x0002563d   Thumb Code    44  QtMultimediaKit.in(t._Z17qRegisterMetaTypeIN19QVideoSurfaceFormat9DirectionEEiPKcPT_)
    qRegisterMetaType<QAbstractVideoBuffer::HandleType>(const char*, T1*) 0x00025671   Thumb Code    44  QtMultimediaKit.in(t._Z17qRegisterMetaTypeIN20QAbstractVideoBuffer10HandleTypeEEiPKcPT_)
    qRegisterMetaType<QAbstractVideoSurface::Error>(const char*, T1*) 0x000256a5   Thumb Code    44  QtMultimediaKit.in(t._Z17qRegisterMetaTypeIN21QAbstractVideoSurface5ErrorEEiPKcPT_)
    qRegisterMetaType<QAudio::Mode>(const char*, T1*) 0x000256d9   Thumb Code    44  QtMultimediaKit.in(t._Z17qRegisterMetaTypeIN6QAudio4ModeEEiPKcPT_)
    qRegisterMetaType<QAudio::Error>(const char*, T1*) 0x0002570d   Thumb Code    44  QtMultimediaKit.in(t._Z17qRegisterMetaTypeIN6QAudio5ErrorEEiPKcPT_)
    qRegisterMetaType<QAudio::State>(const char*, T1*) 0x00025741   Thumb Code    44  QtMultimediaKit.in(t._Z17qRegisterMetaTypeIN6QAudio5StateEEiPKcPT_)
    qRegisterMetaType<QCamera::LockStatus>(const char*, T1*) 0x00025775   Thumb Code    64  QtMultimediaKit.in(t._Z17qRegisterMetaTypeIN7QCamera10LockStatusEEiPKcPT_)
    qRegisterMetaType<QCamera::LockChangeReason>(const char*, T1*) 0x000257d5   Thumb Code    64  QtMultimediaKit.in(t._Z17qRegisterMetaTypeIN7QCamera16LockChangeReasonEEiPKcPT_)
    qRegisterMetaType<QCamera::Error>(const char*, T1*) 0x0002583d   Thumb Code    64  QtMultimediaKit.in(t._Z17qRegisterMetaTypeIN7QCamera5ErrorEEiPKcPT_)
    qRegisterMetaType<QCamera::State>(const char*, T1*) 0x00025899   Thumb Code    64  QtMultimediaKit.in(t._Z17qRegisterMetaTypeIN7QCamera5StateEEiPKcPT_)
    qRegisterMetaType<QCamera::Status>(const char*, T1*) 0x000258f5   Thumb Code    64  QtMultimediaKit.in(t._Z17qRegisterMetaTypeIN7QCamera6StatusEEiPKcPT_)
    qRegisterMetaType<QCamera::LockType>(const char*, T1*) 0x00025951   Thumb Code    64  QtMultimediaKit.in(t._Z17qRegisterMetaTypeIN7QCamera8LockTypeEEiPKcPT_)
    qVariantFromValue<QAbstractVideoBuffer::HandleType>(const T1&) 0x000259b1   Thumb Code    24  QtMultimediaKit.in(t._Z17qVariantFromValueIN20QAbstractVideoBuffer10HandleTypeEE8QVariantRKT_)
    qVariantCanConvert<QSize>(const QVariant&) 0x000259c9   Thumb Code    10  QtMultimediaKit.in(t._Z18qVariantCanConvertI5QSizeEbRK8QVariant)
    qForeachContainerNew<QStringList>(const T1&) 0x000259d3   Thumb Code    40  QtMultimediaKit.in(t._Z20qForeachContainerNewI11QStringListE17QForeachContainerIT_ERKS2_)
    qForeachContainerNew<QList<QByteArray>>(const T1&) 0x00025a05   Thumb Code    62  QtMultimediaKit.in(t._Z20qForeachContainerNewI5QListI10QByteArrayEE17QForeachContainerIT_ERKS4_)
    qForeachContainerNew<QList<QMediaTimeInterval>>(const T1&) 0x00025a4d   Thumb Code    46  QtMultimediaKit.in(t._Z20qForeachContainerNewI5QListI18QMediaTimeIntervalEE17QForeachContainerIT_ERKS4_)
    qForeachContainerNew<QList<QPointer<QObject>>>(const T1&) 0x00025a85   Thumb Code    60  QtMultimediaKit.in(t._Z20qForeachContainerNewI5QListI8QPointerI7QObjectEEE17QForeachContainerIT_ERKS6_)
    qForeachContainerNew<QList<QVariant>>(const T1&) 0x00025acb   Thumb Code    62  QtMultimediaKit.in(t._Z20qForeachContainerNewI5QListI8QVariantEE17QForeachContainerIT_ERKS4_)
    qForeachContainerNew<QList<QMediaServiceProviderPlugin*>>(const T1&) 0x00025b13   Thumb Code    60  QtMultimediaKit.in(t._Z20qForeachContainerNewI5QListIP27QMediaServiceProviderPluginEE17QForeachContainerIT_ERKS5_)
    qForeachContainerNew<QList<QObject*>>(const T1&) 0x00025b59   Thumb Code    62  QtMultimediaKit.in(t._Z20qForeachContainerNewI5QListIP7QObjectEE17QForeachContainerIT_ERKS5_)
    qForeachContainerNew<QList<int>>(const T1&) 0x00025ba1   Thumb Code    46  QtMultimediaKit.in(t._Z20qForeachContainerNewI5QListIiEE17QForeachContainerIT_ERKS3_)
    qMetaTypeDeleteHelper<QNetworkRequest>(T1*) 0x00025bd9   Thumb Code    16  QtMultimediaKit.in(t._Z21qMetaTypeDeleteHelperI15QNetworkRequestEvPT_)
    qMetaTypeDeleteHelper<QVideoSurfaceFormat>(T1*) 0x00025be9   Thumb Code    16  QtMultimediaKit.in(t._Z21qMetaTypeDeleteHelperI19QVideoSurfaceFormatEvPT_)
    qMetaTypeDeleteHelper<QFlags<QCameraFocus::FocusMode>>(T1*) 0x00025bf9   Thumb Code     8  QtMultimediaKit.in(t._Z21qMetaTypeDeleteHelperI6QFlagsIN12QCameraFocus9FocusModeEEEvPT_)
    qMetaTypeDeleteHelper<QFlags<QCameraExposure::FlashMode>>(T1*) 0x00025c01   Thumb Code     8  QtMultimediaKit.in(t._Z21qMetaTypeDeleteHelperI6QFlagsIN15QCameraExposure9FlashModeEEEvPT_)
    qMetaTypeDeleteHelper<QVideoFrame::PixelFormat>(T1*) 0x00025c09   Thumb Code     8  QtMultimediaKit.in(t._Z21qMetaTypeDeleteHelperIN11QVideoFrame11PixelFormatEEvPT_)
    qMetaTypeDeleteHelper<QCameraFocus::FocusPointMode>(T1*) 0x00025c11   Thumb Code     8  QtMultimediaKit.in(t._Z21qMetaTypeDeleteHelperIN12QCameraFocus14FocusPointModeEEvPT_)
    qMetaTypeDeleteHelper<QMediaPlayer::MediaStatus>(T1*) 0x00025c19   Thumb Code     8  QtMultimediaKit.in(t._Z21qMetaTypeDeleteHelperIN12QMediaPlayer11MediaStatusEEvPT_)
    qMetaTypeDeleteHelper<QMediaPlayer::Error>(T1*) 0x00025c21   Thumb Code     8  QtMultimediaKit.in(t._Z21qMetaTypeDeleteHelperIN12QMediaPlayer5ErrorEEvPT_)
    qMetaTypeDeleteHelper<QMediaPlayer::State>(T1*) 0x00025c29   Thumb Code     8  QtMultimediaKit.in(t._Z21qMetaTypeDeleteHelperIN12QMediaPlayer5StateEEvPT_)
    qMetaTypeDeleteHelper<QMediaRecorder::Error>(T1*) 0x00025c31   Thumb Code     8  QtMultimediaKit.in(t._Z21qMetaTypeDeleteHelperIN14QMediaRecorder5ErrorEEvPT_)
    qMetaTypeDeleteHelper<QMediaRecorder::State>(T1*) 0x00025c39   Thumb Code     8  QtMultimediaKit.in(t._Z21qMetaTypeDeleteHelperIN14QMediaRecorder5StateEEvPT_)
    qMetaTypeDeleteHelper<QCameraExposure::ExposureMode>(T1*) 0x00025c41   Thumb Code     8  QtMultimediaKit.in(t._Z21qMetaTypeDeleteHelperIN15QCameraExposure12ExposureModeEEvPT_)
    qMetaTypeDeleteHelper<QCameraExposure::MeteringMode>(T1*) 0x00025c49   Thumb Code     8  QtMultimediaKit.in(t._Z21qMetaTypeDeleteHelperIN15QCameraExposure12MeteringModeEEvPT_)
    qMetaTypeDeleteHelper<QCameraImageCapture::Error>(T1*) 0x00025c51   Thumb Code     8  QtMultimediaKit.in(t._Z21qMetaTypeDeleteHelperIN19QCameraImageCapture5ErrorEEvPT_)
    qMetaTypeDeleteHelper<QVideoSurfaceFormat::YCbCrColorSpace>(T1*) 0x00025c59   Thumb Code     8  QtMultimediaKit.in(t._Z21qMetaTypeDeleteHelperIN19QVideoSurfaceFormat15YCbCrColorSpaceEEvPT_)
    qMetaTypeDeleteHelper<QVideoSurfaceFormat::Direction>(T1*) 0x00025c61   Thumb Code     8  QtMultimediaKit.in(t._Z21qMetaTypeDeleteHelperIN19QVideoSurfaceFormat9DirectionEEvPT_)
    qMetaTypeDeleteHelper<QAbstractVideoBuffer::HandleType>(T1*) 0x00025c69   Thumb Code     8  QtMultimediaKit.in(t._Z21qMetaTypeDeleteHelperIN20QAbstractVideoBuffer10HandleTypeEEvPT_)
    qMetaTypeDeleteHelper<QAbstractVideoSurface::Error>(T1*) 0x00025c71   Thumb Code     8  QtMultimediaKit.in(t._Z21qMetaTypeDeleteHelperIN21QAbstractVideoSurface5ErrorEEvPT_)
    qMetaTypeDeleteHelper<QAudio::Mode>(T1*) 0x00025c79   Thumb Code     8  QtMultimediaKit.in(t._Z21qMetaTypeDeleteHelperIN6QAudio4ModeEEvPT_)
    qMetaTypeDeleteHelper<QAudio::Error>(T1*) 0x00025c81   Thumb Code     8  QtMultimediaKit.in(t._Z21qMetaTypeDeleteHelperIN6QAudio5ErrorEEvPT_)
    qMetaTypeDeleteHelper<QAudio::State>(T1*) 0x00025c89   Thumb Code     8  QtMultimediaKit.in(t._Z21qMetaTypeDeleteHelperIN6QAudio5StateEEvPT_)
    qMetaTypeDeleteHelper<QCamera::LockStatus>(T1*) 0x00025c91   Thumb Code     8  QtMultimediaKit.in(t._Z21qMetaTypeDeleteHelperIN7QCamera10LockStatusEEvPT_)
    qMetaTypeDeleteHelper<QCamera::LockChangeReason>(T1*) 0x00025c99   Thumb Code     8  QtMultimediaKit.in(t._Z21qMetaTypeDeleteHelperIN7QCamera16LockChangeReasonEEvPT_)
    qMetaTypeDeleteHelper<QCamera::Error>(T1*) 0x00025ca1   Thumb Code     8  QtMultimediaKit.in(t._Z21qMetaTypeDeleteHelperIN7QCamera5ErrorEEvPT_)
    qMetaTypeDeleteHelper<QCamera::State>(T1*) 0x00025ca9   Thumb Code     8  QtMultimediaKit.in(t._Z21qMetaTypeDeleteHelperIN7QCamera5StateEEvPT_)
    qMetaTypeDeleteHelper<QCamera::Status>(T1*) 0x00025cb1   Thumb Code     8  QtMultimediaKit.in(t._Z21qMetaTypeDeleteHelperIN7QCamera6StatusEEvPT_)
    qMetaTypeDeleteHelper<QCamera::LockType>(T1*) 0x00025cb9   Thumb Code     8  QtMultimediaKit.in(t._Z21qMetaTypeDeleteHelperIN7QCamera8LockTypeEEvPT_)
    qMetaTypeDeleteHelper<CMMFBuffer*>(T1*)  0x00025cc1   Thumb Code     8  QtMultimediaKit.in(t._Z21qMetaTypeDeleteHelperIP10CMMFBufferEvPT_)
    qMetaTypeConstructHelper<QNetworkRequest>(const T1*) 0x00025cc9   Thumb Code    84  QtMultimediaKit.in(t._Z24qMetaTypeConstructHelperI15QNetworkRequestEPvPKT_)
    qMetaTypeConstructHelper<QVideoSurfaceFormat>(const T1*) 0x00025d37   Thumb Code    48  QtMultimediaKit.in(t._Z24qMetaTypeConstructHelperI19QVideoSurfaceFormatEPvPKT_)
    qMetaTypeConstructHelper<QFlags<QCameraFocus::FocusMode>>(const T1*) 0x00025d77   Thumb Code    40  QtMultimediaKit.in(t._Z24qMetaTypeConstructHelperI6QFlagsIN12QCameraFocus9FocusModeEEEPvPKT_)
    qMetaTypeConstructHelper<QFlags<QCameraExposure::FlashMode>>(const T1*) 0x00025d9f   Thumb Code    40  QtMultimediaKit.in(t._Z24qMetaTypeConstructHelperI6QFlagsIN15QCameraExposure9FlashModeEEEPvPKT_)
    qMetaTypeConstructHelper<QVideoFrame::PixelFormat>(const T1*) 0x00025dc7   Thumb Code    34  QtMultimediaKit.in(t._Z24qMetaTypeConstructHelperIN11QVideoFrame11PixelFormatEEPvPKT_)
    qMetaTypeConstructHelper<QCameraFocus::FocusPointMode>(const T1*) 0x00025de9   Thumb Code    34  QtMultimediaKit.in(t._Z24qMetaTypeConstructHelperIN12QCameraFocus14FocusPointModeEEPvPKT_)
    qMetaTypeConstructHelper<QMediaPlayer::MediaStatus>(const T1*) 0x00025e0b   Thumb Code    34  QtMultimediaKit.in(t._Z24qMetaTypeConstructHelperIN12QMediaPlayer11MediaStatusEEPvPKT_)
    qMetaTypeConstructHelper<QMediaPlayer::Error>(const T1*) 0x00025e2d   Thumb Code    34  QtMultimediaKit.in(t._Z24qMetaTypeConstructHelperIN12QMediaPlayer5ErrorEEPvPKT_)
    qMetaTypeConstructHelper<QMediaPlayer::State>(const T1*) 0x00025e4f   Thumb Code    34  QtMultimediaKit.in(t._Z24qMetaTypeConstructHelperIN12QMediaPlayer5StateEEPvPKT_)
    qMetaTypeConstructHelper<QMediaRecorder::Error>(const T1*) 0x00025e71   Thumb Code    34  QtMultimediaKit.in(t._Z24qMetaTypeConstructHelperIN14QMediaRecorder5ErrorEEPvPKT_)
    qMetaTypeConstructHelper<QMediaRecorder::State>(const T1*) 0x00025e93   Thumb Code    34  QtMultimediaKit.in(t._Z24qMetaTypeConstructHelperIN14QMediaRecorder5StateEEPvPKT_)
    qMetaTypeConstructHelper<QCameraExposure::ExposureMode>(const T1*) 0x00025eb5   Thumb Code    34  QtMultimediaKit.in(t._Z24qMetaTypeConstructHelperIN15QCameraExposure12ExposureModeEEPvPKT_)
    qMetaTypeConstructHelper<QCameraExposure::MeteringMode>(const T1*) 0x00025ed7   Thumb Code    34  QtMultimediaKit.in(t._Z24qMetaTypeConstructHelperIN15QCameraExposure12MeteringModeEEPvPKT_)
    qMetaTypeConstructHelper<QCameraImageCapture::Error>(const T1*) 0x00025ef9   Thumb Code    34  QtMultimediaKit.in(t._Z24qMetaTypeConstructHelperIN19QCameraImageCapture5ErrorEEPvPKT_)
    qMetaTypeConstructHelper<QVideoSurfaceFormat::YCbCrColorSpace>(const T1*) 0x00025f1b   Thumb Code    34  QtMultimediaKit.in(t._Z24qMetaTypeConstructHelperIN19QVideoSurfaceFormat15YCbCrColorSpaceEEPvPKT_)
    qMetaTypeConstructHelper<QVideoSurfaceFormat::Direction>(const T1*) 0x00025f3d   Thumb Code    34  QtMultimediaKit.in(t._Z24qMetaTypeConstructHelperIN19QVideoSurfaceFormat9DirectionEEPvPKT_)
    qMetaTypeConstructHelper<QAbstractVideoBuffer::HandleType>(const T1*) 0x00025f5f   Thumb Code    34  QtMultimediaKit.in(t._Z24qMetaTypeConstructHelperIN20QAbstractVideoBuffer10HandleTypeEEPvPKT_)
    qMetaTypeConstructHelper<QAbstractVideoSurface::Error>(const T1*) 0x00025f81   Thumb Code    34  QtMultimediaKit.in(t._Z24qMetaTypeConstructHelperIN21QAbstractVideoSurface5ErrorEEPvPKT_)
    qMetaTypeConstructHelper<QAudio::Mode>(const T1*) 0x00025fa3   Thumb Code    34  QtMultimediaKit.in(t._Z24qMetaTypeConstructHelperIN6QAudio4ModeEEPvPKT_)
    qMetaTypeConstructHelper<QAudio::Error>(const T1*) 0x00025fc5   Thumb Code    34  QtMultimediaKit.in(t._Z24qMetaTypeConstructHelperIN6QAudio5ErrorEEPvPKT_)
    qMetaTypeConstructHelper<QAudio::State>(const T1*) 0x00025fe7   Thumb Code    34  QtMultimediaKit.in(t._Z24qMetaTypeConstructHelperIN6QAudio5StateEEPvPKT_)
    qMetaTypeConstructHelper<QCamera::LockStatus>(const T1*) 0x00026009   Thumb Code    34  QtMultimediaKit.in(t._Z24qMetaTypeConstructHelperIN7QCamera10LockStatusEEPvPKT_)
    qMetaTypeConstructHelper<QCamera::LockChangeReason>(const T1*) 0x0002602b   Thumb Code    34  QtMultimediaKit.in(t._Z24qMetaTypeConstructHelperIN7QCamera16LockChangeReasonEEPvPKT_)
    qMetaTypeConstructHelper<QCamera::Error>(const T1*) 0x0002604d   Thumb Code    34  QtMultimediaKit.in(t._Z24qMetaTypeConstructHelperIN7QCamera5ErrorEEPvPKT_)
    qMetaTypeConstructHelper<QCamera::State>(const T1*) 0x0002606f   Thumb Code    34  QtMultimediaKit.in(t._Z24qMetaTypeConstructHelperIN7QCamera5StateEEPvPKT_)
    qMetaTypeConstructHelper<QCamera::Status>(const T1*) 0x00026091   Thumb Code    34  QtMultimediaKit.in(t._Z24qMetaTypeConstructHelperIN7QCamera6StatusEEPvPKT_)
    qMetaTypeConstructHelper<QCamera::LockType>(const T1*) 0x000260b3   Thumb Code    34  QtMultimediaKit.in(t._Z24qMetaTypeConstructHelperIN7QCamera8LockTypeEEPvPKT_)
    qMetaTypeConstructHelper<CMMFBuffer*>(const T1*) 0x000260d5   Thumb Code    34  QtMultimediaKit.in(t._Z24qMetaTypeConstructHelperIP10CMMFBufferEPvPKT_)
    qAbs<float>(const T1&)                   0x000260f7   Thumb Code    26  QtMultimediaKit.in(t._Z4qAbsIfET_RKS0_)
    qMax<int>(const T1&, const T1&)          0x00026111   Thumb Code    12  QtMultimediaKit.in(t._Z4qMaxIiERKT_S2_S2_)
    qBound<int>(const T1&, const T1&, const T1&) 0x0002611d   Thumb Code    24  QtMultimediaKit.in(t._Z6qBoundIiERKT_S2_S2_S2_)
    QMapIterator<int, int>::QMapIterator(const QMap<int, int>&) 0x00026135   Thumb Code    42  QtMultimediaKit.in(t._ZN12QMapIteratorIiiEC1ERK4QMapIiiE)
    QMapIterator<int, int>::QMapIterator__sub_object(const QMap<int, int>&) 0x00026135   Thumb Code     0  QtMultimediaKit.in(t._ZN12QMapIteratorIiiEC1ERK4QMapIiiE)
    QMetaTypeId2<QNetworkRequest>::qt_metatype_id() 0x00026161   Thumb Code    24  QtMultimediaKit.in(t._ZN12QMetaTypeId2I15QNetworkRequestE14qt_metatype_idEv)
    QMetaTypeId2<QVideoSurfaceFormat>::qt_metatype_id() 0x0002618d   Thumb Code    30  QtMultimediaKit.in(t._ZN12QMetaTypeId2I19QVideoSurfaceFormatE14qt_metatype_idEv)
    QMetaTypeId2<QVideoFrame::PixelFormat>::qt_metatype_id() 0x000261c5   Thumb Code    30  QtMultimediaKit.in(t._ZN12QMetaTypeId2IN11QVideoFrame11PixelFormatEE14qt_metatype_idEv)
    QMetaTypeId2<QVideoSurfaceFormat::YCbCrColorSpace>::qt_metatype_id() 0x00026205   Thumb Code    30  QtMultimediaKit.in(t._ZN12QMetaTypeId2IN19QVideoSurfaceFormat15YCbCrColorSpaceEE14qt_metatype_idEv)
    QMetaTypeId2<QVideoSurfaceFormat::Direction>::qt_metatype_id() 0x00026251   Thumb Code    30  QtMultimediaKit.in(t._ZN12QMetaTypeId2IN19QVideoSurfaceFormat9DirectionEE14qt_metatype_idEv)
    QMetaTypeId2<QAbstractVideoBuffer::HandleType>::qt_metatype_id() 0x00026295   Thumb Code    30  QtMultimediaKit.in(t._ZN12QMetaTypeId2IN20QAbstractVideoBuffer10HandleTypeEE14qt_metatype_idEv)
    QMetaTypeId2<QAbstractVideoSurface::Error>::qt_metatype_id() 0x000262dd   Thumb Code    30  QtMultimediaKit.in(t._ZN12QMetaTypeId2IN21QAbstractVideoSurface5ErrorEE14qt_metatype_idEv)
    QMetaTypeId2<QAudio::Mode>::qt_metatype_id() 0x00026321   Thumb Code    30  QtMultimediaKit.in(t._ZN12QMetaTypeId2IN6QAudio4ModeEE14qt_metatype_idEv)
    QMetaTypeId2<QAudio::Error>::qt_metatype_id() 0x00026355   Thumb Code    30  QtMultimediaKit.in(t._ZN12QMetaTypeId2IN6QAudio5ErrorEE14qt_metatype_idEv)
    QMetaTypeId2<QAudio::State>::qt_metatype_id() 0x00026389   Thumb Code    30  QtMultimediaKit.in(t._ZN12QMetaTypeId2IN6QAudio5StateEE14qt_metatype_idEv)
    SymbianAudio::Utils::findValue<int>(const T1*, int, T1, int&) 0x000263bd   Thumb Code    34  QtMultimediaKit.in(t._ZN12SymbianAudio5Utils9findValueIiEEbPKT_iS2_Ri)
    QHashDummyNode<QString, QHashDummyValue>::QHashDummyNode(const QString&) 0x000263df   Thumb Code    12  QtMultimediaKit.in(t._ZN14QHashDummyNodeI7QString15QHashDummyValueEC1ERKS0_)
    QHashDummyNode<QString, QHashDummyValue>::QHashDummyNode__sub_object(const QString&) 0x000263df   Thumb Code     0  QtMultimediaKit.in(t._ZN14QHashDummyNodeI7QString15QHashDummyValueEC1ERKS0_)
    QScopedPointer<QTimer, QScopedPointerDeleter<QTimer>>::~QScopedPointer() 0x000263eb   Thumb Code    24  QtMultimediaKit.in(t._ZN14QScopedPointerI6QTimer21QScopedPointerDeleterIS0_EED1Ev)
    QScopedPointer<QTimer, QScopedPointerDeleter<QTimer>>::~QScopedPointer__sub_object() 0x000263eb   Thumb Code     0  QtMultimediaKit.in(t._ZN14QScopedPointerI6QTimer21QScopedPointerDeleterIS0_EED1Ev)
    QScopedPointer<SymbianAudio::DevSoundWrapper, QScopedPointerDeleter<SymbianAudio::DevSoundWrapper>>::~QScopedPointer() 0x00026403   Thumb Code    24  QtMultimediaKit.in(t._ZN14QScopedPointerIN12SymbianAudio15DevSoundWrapperE21QScopedPointerDeleterIS1_EED1Ev)
    QScopedPointer<SymbianAudio::DevSoundWrapper, QScopedPointerDeleter<SymbianAudio::DevSoundWrapper>>::~QScopedPointer__sub_object() 0x00026403   Thumb Code     0  QtMultimediaKit.in(t._ZN14QScopedPointerIN12SymbianAudio15DevSoundWrapperE21QScopedPointerDeleterIS1_EED1Ev)
    QSharedDataPointer<QAudioFormatPrivate>::detach_helper() 0x0002641b   Thumb Code    90  QtMultimediaKit.in(t._ZN18QSharedDataPointerI19QAudioFormatPrivateE13detach_helperEv)
    QSharedDataPointer<QAudioFormatPrivate>::~QSharedDataPointer() 0x0002647f   Thumb Code    36  QtMultimediaKit.in(t._ZN18QSharedDataPointerI19QAudioFormatPrivateED1Ev)
    QSharedDataPointer<QAudioFormatPrivate>::~QSharedDataPointer__sub_object() 0x0002647f   Thumb Code     0  QtMultimediaKit.in(t._ZN18QSharedDataPointerI19QAudioFormatPrivateED1Ev)
    QSharedDataPointer<QAudioFormatPrivate>::operator ->() 0x000264a3   Thumb Code    26  QtMultimediaKit.in(t._ZN18QSharedDataPointerI19QAudioFormatPrivateEptEv)
    QSharedDataPointer<QCameraFocusZoneData>::detach_helper() 0x000264bd   Thumb Code    64  QtMultimediaKit.in(t._ZN18QSharedDataPointerI20QCameraFocusZoneDataE13detach_helperEv)
    QSharedDataPointer<QCameraFocusZoneData>::QSharedDataPointer(QCameraFocusZoneData*) 0x00026507   Thumb Code    18  QtMultimediaKit.in(t._ZN18QSharedDataPointerI20QCameraFocusZoneDataEC1EPS0_)
    QSharedDataPointer<QCameraFocusZoneData>::QSharedDataPointer__sub_object(QCameraFocusZoneData*) 0x00026507   Thumb Code     0  QtMultimediaKit.in(t._ZN18QSharedDataPointerI20QCameraFocusZoneDataEC1EPS0_)
    QSharedDataPointer<QCameraFocusZoneData>::~QSharedDataPointer() 0x00026519   Thumb Code    28  QtMultimediaKit.in(t._ZN18QSharedDataPointerI20QCameraFocusZoneDataED1Ev)
    QSharedDataPointer<QCameraFocusZoneData>::~QSharedDataPointer__sub_object() 0x00026519   Thumb Code     0  QtMultimediaKit.in(t._ZN18QSharedDataPointerI20QCameraFocusZoneDataED1Ev)
    QSharedDataPointer<QMediaContentPrivate>::detach_helper() 0x00026535   Thumb Code    70  QtMultimediaKit.in(t._ZN18QSharedDataPointerI20QMediaContentPrivateE13detach_helperEv)
    QSharedDataPointer<QMediaContentPrivate>::QSharedDataPointer(QMediaContentPrivate*) 0x00026585   Thumb Code    18  QtMultimediaKit.in(t._ZN18QSharedDataPointerI20QMediaContentPrivateEC1EPS0_)
    QSharedDataPointer<QMediaContentPrivate>::QSharedDataPointer__sub_object(QMediaContentPrivate*) 0x00026585   Thumb Code     0  QtMultimediaKit.in(t._ZN18QSharedDataPointerI20QMediaContentPrivateEC1EPS0_)
    QSharedDataPointer<QMediaContentPrivate>::~QSharedDataPointer() 0x00026597   Thumb Code    36  QtMultimediaKit.in(t._ZN18QSharedDataPointerI20QMediaContentPrivateED1Ev)
    QSharedDataPointer<QMediaContentPrivate>::~QSharedDataPointer__sub_object() 0x00026597   Thumb Code     0  QtMultimediaKit.in(t._ZN18QSharedDataPointerI20QMediaContentPrivateED1Ev)
    QSharedDataPointer<QMediaContentPrivate>::operator ->() 0x000265bb   Thumb Code    30  QtMultimediaKit.in(t._ZN18QSharedDataPointerI20QMediaContentPrivateEptEv)
    QSharedDataPointer<QMediaTimeRangePrivate>::QSharedDataPointer(QMediaTimeRangePrivate*) 0x000265d9   Thumb Code    18  QtMultimediaKit.in(t._ZN18QSharedDataPointerI22QMediaTimeRangePrivateEC1EPS0_)
    QSharedDataPointer<QMediaTimeRangePrivate>::QSharedDataPointer__sub_object(QMediaTimeRangePrivate*) 0x000265d9   Thumb Code     0  QtMultimediaKit.in(t._ZN18QSharedDataPointerI22QMediaTimeRangePrivateEC1EPS0_)
    QSharedDataPointer<QMediaTimeRangePrivate>::~QSharedDataPointer() 0x000265eb   Thumb Code    36  QtMultimediaKit.in(t._ZN18QSharedDataPointerI22QMediaTimeRangePrivateED1Ev)
    QSharedDataPointer<QMediaTimeRangePrivate>::~QSharedDataPointer__sub_object() 0x000265eb   Thumb Code     0  QtMultimediaKit.in(t._ZN18QSharedDataPointerI22QMediaTimeRangePrivateED1Ev)
    QSharedDataPointer<QMediaTimeRangePrivate>::operator ->() 0x0002660f   Thumb Code    78  QtMultimediaKit.in(t._ZN18QSharedDataPointerI22QMediaTimeRangePrivateEptEv)
    QSharedDataPointer<QAudioDeviceInfoPrivate>::QSharedDataPointer(QAudioDeviceInfoPrivate*) 0x00026667   Thumb Code    18  QtMultimediaKit.in(t._ZN18QSharedDataPointerI23QAudioDeviceInfoPrivateEC1EPS0_)
    QSharedDataPointer<QAudioDeviceInfoPrivate>::QSharedDataPointer__sub_object(QAudioDeviceInfoPrivate*) 0x00026667   Thumb Code     0  QtMultimediaKit.in(t._ZN18QSharedDataPointerI23QAudioDeviceInfoPrivateEC1EPS0_)
    QSharedDataPointer<QAudioDeviceInfoPrivate>::~QSharedDataPointer() 0x00026679   Thumb Code    36  QtMultimediaKit.in(t._ZN18QSharedDataPointerI23QAudioDeviceInfoPrivateED1Ev)
    QSharedDataPointer<QAudioDeviceInfoPrivate>::~QSharedDataPointer__sub_object() 0x00026679   Thumb Code     0  QtMultimediaKit.in(t._ZN18QSharedDataPointerI23QAudioDeviceInfoPrivateED1Ev)
    QSharedDataPointer<QVideoSurfaceFormatPrivate>::QSharedDataPointer(QVideoSurfaceFormatPrivate*) 0x0002669d   Thumb Code    18  QtMultimediaKit.in(t._ZN18QSharedDataPointerI26QVideoSurfaceFormatPrivateEC1EPS0_)
    QSharedDataPointer<QVideoSurfaceFormatPrivate>::QSharedDataPointer__sub_object(QVideoSurfaceFormatPrivate*) 0x0002669d   Thumb Code     0  QtMultimediaKit.in(t._ZN18QSharedDataPointerI26QVideoSurfaceFormatPrivateEC1EPS0_)
    QSharedDataPointer<QVideoSurfaceFormatPrivate>::~QSharedDataPointer() 0x000266af   Thumb Code    36  QtMultimediaKit.in(t._ZN18QSharedDataPointerI26QVideoSurfaceFormatPrivateED1Ev)
    QSharedDataPointer<QVideoSurfaceFormatPrivate>::~QSharedDataPointer__sub_object() 0x000266af   Thumb Code     0  QtMultimediaKit.in(t._ZN18QSharedDataPointerI26QVideoSurfaceFormatPrivateED1Ev)
    QSharedDataPointer<QVideoSurfaceFormatPrivate>::operator ->() 0x000266d3   Thumb Code    78  QtMultimediaKit.in(t._ZN18QSharedDataPointerI26QVideoSurfaceFormatPrivateEptEv)
    QSharedDataPointer<QAudioEncoderSettingsPrivate>::detach_helper() 0x0002672b   Thumb Code    98  QtMultimediaKit.in(t._ZN18QSharedDataPointerI28QAudioEncoderSettingsPrivateE13detach_helperEv)
    QSharedDataPointer<QAudioEncoderSettingsPrivate>::~QSharedDataPointer() 0x00026797   Thumb Code    36  QtMultimediaKit.in(t._ZN18QSharedDataPointerI28QAudioEncoderSettingsPrivateED1Ev)
    QSharedDataPointer<QAudioEncoderSettingsPrivate>::~QSharedDataPointer__sub_object() 0x00026797   Thumb Code     0  QtMultimediaKit.in(t._ZN18QSharedDataPointerI28QAudioEncoderSettingsPrivateED1Ev)
    QSharedDataPointer<QAudioEncoderSettingsPrivate>::operator ->() 0x000267bb   Thumb Code    30  QtMultimediaKit.in(t._ZN18QSharedDataPointerI28QAudioEncoderSettingsPrivateEptEv)
    QSharedDataPointer<QImageEncoderSettingsPrivate>::detach_helper() 0x000267d9   Thumb Code    90  QtMultimediaKit.in(t._ZN18QSharedDataPointerI28QImageEncoderSettingsPrivateE13detach_helperEv)
    QSharedDataPointer<QImageEncoderSettingsPrivate>::~QSharedDataPointer() 0x0002683f   Thumb Code    36  QtMultimediaKit.in(t._ZN18QSharedDataPointerI28QImageEncoderSettingsPrivateED1Ev)
    QSharedDataPointer<QImageEncoderSettingsPrivate>::~QSharedDataPointer__sub_object() 0x0002683f   Thumb Code     0  QtMultimediaKit.in(t._ZN18QSharedDataPointerI28QImageEncoderSettingsPrivateED1Ev)
    QSharedDataPointer<QImageEncoderSettingsPrivate>::operator ->() 0x00026863   Thumb Code    30  QtMultimediaKit.in(t._ZN18QSharedDataPointerI28QImageEncoderSettingsPrivateEptEv)
    QSharedDataPointer<QVideoEncoderSettingsPrivate>::detach_helper() 0x00026881   Thumb Code   102  QtMultimediaKit.in(t._ZN18QSharedDataPointerI28QVideoEncoderSettingsPrivateE13detach_helperEv)
    QSharedDataPointer<QVideoEncoderSettingsPrivate>::~QSharedDataPointer() 0x000268f3   Thumb Code    36  QtMultimediaKit.in(t._ZN18QSharedDataPointerI28QVideoEncoderSettingsPrivateED1Ev)
    QSharedDataPointer<QVideoEncoderSettingsPrivate>::~QSharedDataPointer__sub_object() 0x000268f3   Thumb Code     0  QtMultimediaKit.in(t._ZN18QSharedDataPointerI28QVideoEncoderSettingsPrivateED1Ev)
    QSharedDataPointer<QVideoEncoderSettingsPrivate>::operator ->() 0x00026917   Thumb Code    30  QtMultimediaKit.in(t._ZN18QSharedDataPointerI28QVideoEncoderSettingsPrivateEptEv)
    QSharedDataPointer<QMediaServiceProviderHintPrivate>::clone() 0x00026935   Thumb Code    82  QtMultimediaKit.in(t._ZN18QSharedDataPointerI32QMediaServiceProviderHintPrivateE5cloneEv)
    QSharedDataPointer<QMediaServiceProviderHintPrivate>::QSharedDataPointer(QMediaServiceProviderHintPrivate*) 0x000269a7   Thumb Code    18  QtMultimediaKit.in(t._ZN18QSharedDataPointerI32QMediaServiceProviderHintPrivateEC1EPS0_)
    QSharedDataPointer<QMediaServiceProviderHintPrivate>::QSharedDataPointer__sub_object(QMediaServiceProviderHintPrivate*) 0x000269a7   Thumb Code     0  QtMultimediaKit.in(t._ZN18QSharedDataPointerI32QMediaServiceProviderHintPrivateEC1EPS0_)
    QSharedDataPointer<QMediaServiceProviderHintPrivate>::~QSharedDataPointer() 0x000269b9   Thumb Code    36  QtMultimediaKit.in(t._ZN18QSharedDataPointerI32QMediaServiceProviderHintPrivateED1Ev)
    QSharedDataPointer<QMediaServiceProviderHintPrivate>::~QSharedDataPointer__sub_object() 0x000269b9   Thumb Code     0  QtMultimediaKit.in(t._ZN18QSharedDataPointerI32QMediaServiceProviderHintPrivateED1Ev)
    QSharedDataPointer<QMediaServiceProviderHintPrivate>::operator ->() 0x000269dd   Thumb Code    62  QtMultimediaKit.in(t._ZN18QSharedDataPointerI32QMediaServiceProviderHintPrivateEptEv)
    QGlobalStaticDeleter<QAudioPluginLoader>::~QGlobalStaticDeleter() 0x00026a1b   Thumb Code    36  QtMultimediaKit.in(t._ZN20QGlobalStaticDeleterI18QAudioPluginLoaderED1Ev)
    QGlobalStaticDeleter<QAudioPluginLoader>::~QGlobalStaticDeleter__sub_object() 0x00026a1b   Thumb Code     0  QtMultimediaKit.in(t._ZN20QGlobalStaticDeleterI18QAudioPluginLoaderED1Ev)
    QGlobalStaticDeleter<QMediaPluginLoader>::~QGlobalStaticDeleter() 0x00026a3f   Thumb Code    36  QtMultimediaKit.in(t._ZN20QGlobalStaticDeleterI18QMediaPluginLoaderED1Ev)
    QGlobalStaticDeleter<QMediaPluginLoader>::~QGlobalStaticDeleter__sub_object() 0x00026a3f   Thumb Code     0  QtMultimediaKit.in(t._ZN20QGlobalStaticDeleterI18QMediaPluginLoaderED1Ev)
    QGlobalStaticDeleter<QPluginServiceProvider>::~QGlobalStaticDeleter() 0x00026a63   Thumb Code    34  QtMultimediaKit.in(t._ZN20QGlobalStaticDeleterI22QPluginServiceProviderED1Ev)
    QGlobalStaticDeleter<QPluginServiceProvider>::~QGlobalStaticDeleter__sub_object() 0x00026a63   Thumb Code     0  QtMultimediaKit.in(t._ZN20QGlobalStaticDeleterI22QPluginServiceProviderED1Ev)
    QGlobalStaticDeleter<QMediaPlaylistNullProvider>::~QGlobalStaticDeleter() 0x00026a85   Thumb Code    34  QtMultimediaKit.in(t._ZN20QGlobalStaticDeleterI26QMediaPlaylistNullProviderED1Ev)
    QGlobalStaticDeleter<QMediaPlaylistNullProvider>::~QGlobalStaticDeleter__sub_object() 0x00026a85   Thumb Code     0  QtMultimediaKit.in(t._ZN20QGlobalStaticDeleterI26QMediaPlaylistNullProviderED1Ev)
    QGlobalStaticDeleter<QMap<QString, QList<QObject*>>>::~QGlobalStaticDeleter() 0x00026aa7   Thumb Code    36  QtMultimediaKit.in(t._ZN20QGlobalStaticDeleterI4QMapI7QString5QListIP7QObjectEEED1Ev)
    QGlobalStaticDeleter<QMap<QString, QList<QObject*>>>::~QGlobalStaticDeleter__sub_object() 0x00026aa7   Thumb Code     0  QtMultimediaKit.in(t._ZN20QGlobalStaticDeleterI4QMapI7QString5QListIP7QObjectEEED1Ev)
    QExplicitlySharedDataPointer<QVideoFramePrivate>::QExplicitlySharedDataPointer(QVideoFramePrivate*) 0x00026acb   Thumb Code    18  QtMultimediaKit.in(t._ZN28QExplicitlySharedDataPointerI18QVideoFramePrivateEC1EPS0_)
    QExplicitlySharedDataPointer<QVideoFramePrivate>::QExplicitlySharedDataPointer__sub_object(QVideoFramePrivate*) 0x00026acb   Thumb Code     0  QtMultimediaKit.in(t._ZN28QExplicitlySharedDataPointerI18QVideoFramePrivateEC1EPS0_)
    QExplicitlySharedDataPointer<QVideoFramePrivate>::~QExplicitlySharedDataPointer() 0x00026add   Thumb Code    36  QtMultimediaKit.in(t._ZN28QExplicitlySharedDataPointerI18QVideoFramePrivateED1Ev)
    QExplicitlySharedDataPointer<QVideoFramePrivate>::~QExplicitlySharedDataPointer__sub_object() 0x00026add   Thumb Code     0  QtMultimediaKit.in(t._ZN28QExplicitlySharedDataPointerI18QVideoFramePrivateED1Ev)
    QMap<QString, QList<QObject*>>::node_create(QMapData*, QMapData::Node**, const QString&, const QList<QObject*>&) 0x00026b01   Thumb Code   106  QtMultimediaKit.in(t._ZN4QMapI7QString5QListIP7QObjectEE11node_createEP8QMapDataPPNS6_4NodeERKS0_RKS4_)
    QMap<QString, QList<QObject*>>::detach_helper() 0x00026b91   Thumb Code   114  QtMultimediaKit.in(t._ZN4QMapI7QString5QListIP7QObjectEE13detach_helperEv)
    QMap<QString, QList<QObject*>>::insert(const QString&, const QList<QObject*>&) 0x00026c0b   Thumb Code   182  QtMultimediaKit.in(t._ZN4QMapI7QString5QListIP7QObjectEE6insertERKS0_RKS4_)
    QMap<QString, QList<QObject*>>::freeData(QMapData*) 0x00026cc1   Thumb Code    42  QtMultimediaKit.in(t._ZN4QMapI7QString5QListIP7QObjectEE8freeDataEP8QMapData)
    QMap<QString, QList<QObject*>>::~QMap()  0x00026ceb   Thumb Code    32  QtMultimediaKit.in(t._ZN4QMapI7QString5QListIP7QObjectEED1Ev)
    QMap<QString, QList<QObject*>>::~QMap__sub_object() 0x00026ceb   Thumb Code     0  QtMultimediaKit.in(t._ZN4QMapI7QString5QListIP7QObjectEED1Ev)
    QMap<QString, QAudioDeviceInfoInternal::Capabilities>::node_create(QMapData*, QMapData::Node**, const QString&, const QAudioDeviceInfoInternal::Capabilities&) 0x00026d0b   Thumb Code   164  QtMultimediaKit.in(t._ZN4QMapI7QStringN24QAudioDeviceInfoInternal12CapabilitiesEE11node_createEP8QMapDataPPNS4_4NodeERKS0_RKS2_)
    QMap<QString, QAudioDeviceInfoInternal::Capabilities>::detach_helper() 0x00026dfd   Thumb Code   114  QtMultimediaKit.in(t._ZN4QMapI7QStringN24QAudioDeviceInfoInternal12CapabilitiesEE13detach_helperEv)
    QMap<QString, QAudioDeviceInfoInternal::Capabilities>::freeData(QMapData*) 0x00026e77   Thumb Code    42  QtMultimediaKit.in(t._ZN4QMapI7QStringN24QAudioDeviceInfoInternal12CapabilitiesEE8freeDataEP8QMapData)
    QMap<QString, QAudioDeviceInfoInternal::Capabilities>::~QMap() 0x00026ea1   Thumb Code    32  QtMultimediaKit.in(t._ZN4QMapI7QStringN24QAudioDeviceInfoInternal12CapabilitiesEED1Ev)
    QMap<QString, QAudioDeviceInfoInternal::Capabilities>::~QMap__sub_object() 0x00026ea1   Thumb Code     0  QtMultimediaKit.in(t._ZN4QMapI7QStringN24QAudioDeviceInfoInternal12CapabilitiesEED1Ev)
    QMap<QString, QAudioDeviceInfoInternal::Capabilities>::operator [](const QString&) 0x00026ec1   Thumb Code   154  QtMultimediaKit.in(t._ZN4QMapI7QStringN24QAudioDeviceInfoInternal12CapabilitiesEEixERKS0_)
    QMap<QString, QObject*>::insertMulti(const QString&, QObject*const &) 0x00026f65   Thumb Code   116  QtMultimediaKit.in(t._ZN4QMapI7QStringP7QObjectE11insertMultiERKS0_RKS2_)
    QMap<QString, QObject*>::node_create(QMapData*, QMapData::Node**, const QString&, QObject*const &) 0x00026fd9   Thumb Code    86  QtMultimediaKit.in(t._ZN4QMapI7QStringP7QObjectE11node_createEP8QMapDataPPNS4_4NodeERKS0_RKS2_)
    QMap<QString, QObject*>::detach_helper() 0x00027043   Thumb Code   114  QtMultimediaKit.in(t._ZN4QMapI7QStringP7QObjectE13detach_helperEv)
    QMap<QString, QObject*>::freeData(QMapData*) 0x000270bd   Thumb Code    32  QtMultimediaKit.in(t._ZN4QMapI7QStringP7QObjectE8freeDataEP8QMapData)
    QMap<QString, QObject*>::~QMap()         0x000270dd   Thumb Code    32  QtMultimediaKit.in(t._ZN4QMapI7QStringP7QObjectED1Ev)
    QMap<QString, QObject*>::~QMap__sub_object() 0x000270dd   Thumb Code     0  QtMultimediaKit.in(t._ZN4QMapI7QStringP7QObjectED1Ev)
    QMap<QCamera::LockStatus, int>::node_create(QMapData*, QMapData::Node**, const QCamera::LockStatus&, const int&) 0x000270fd   Thumb Code    60  QtMultimediaKit.in(t._ZN4QMapIN7QCamera10LockStatusEiE11node_createEP8QMapDataPPNS3_4NodeERKS1_RKi)
    QMap<QCamera::LockStatus, int>::detach_helper() 0x00027139   Thumb Code   114  QtMultimediaKit.in(t._ZN4QMapIN7QCamera10LockStatusEiE13detach_helperEv)
    QMap<QCamera::LockStatus, int>::insert(const QCamera::LockStatus&, const int&) 0x000271b3   Thumb Code   142  QtMultimediaKit.in(t._ZN4QMapIN7QCamera10LockStatusEiE6insertERKS1_RKi)
    QMap<QCamera::LockStatus, int>::freeData(QMapData*) 0x00027241   Thumb Code    22  QtMultimediaKit.in(t._ZN4QMapIN7QCamera10LockStatusEiE8freeDataEP8QMapData)
    QMap<QCamera::LockStatus, int>::~QMap()  0x00027257   Thumb Code    32  QtMultimediaKit.in(t._ZN4QMapIN7QCamera10LockStatusEiED1Ev)
    QMap<QCamera::LockStatus, int>::~QMap__sub_object() 0x00027257   Thumb Code     0  QtMultimediaKit.in(t._ZN4QMapIN7QCamera10LockStatusEiED1Ev)
    QMap<QMediaService*, QMediaServiceProviderPlugin*>::node_create(QMapData*, QMapData::Node**, QMediaService*const &, QMediaServiceProviderPlugin*const &) 0x00027277   Thumb Code    60  QtMultimediaKit.in(t._ZN4QMapIP13QMediaServiceP27QMediaServiceProviderPluginE11node_createEP8QMapDataPPNS5_4NodeERKS1_RKS3_)
    QMap<QMediaService*, QMediaServiceProviderPlugin*>::detach_helper() 0x000272b3   Thumb Code   114  QtMultimediaKit.in(t._ZN4QMapIP13QMediaServiceP27QMediaServiceProviderPluginE13detach_helperEv)
    QMap<QMediaService*, QMediaServiceProviderPlugin*>::take(QMediaService*const &) 0x0002732d   Thumb Code   114  QtMultimediaKit.in(t._ZN4QMapIP13QMediaServiceP27QMediaServiceProviderPluginE4takeERKS1_)
    QMap<QMediaService*, QMediaServiceProviderPlugin*>::detach() 0x0002739f   Thumb Code    26  QtMultimediaKit.in(t._ZN4QMapIP13QMediaServiceP27QMediaServiceProviderPluginE6detachEv)
    QMap<QMediaService*, QMediaServiceProviderPlugin*>::freeData(QMapData*) 0x000273b9   Thumb Code    12  QtMultimediaKit.in(t._ZN4QMapIP13QMediaServiceP27QMediaServiceProviderPluginE8freeDataEP8QMapData)
    QMap<QMediaService*, QMediaServiceProviderPlugin*>::~QMap() 0x000273c5   Thumb Code    32  QtMultimediaKit.in(t._ZN4QMapIP13QMediaServiceP27QMediaServiceProviderPluginED1Ev)
    QMap<QMediaService*, QMediaServiceProviderPlugin*>::~QMap__sub_object() 0x000273c5   Thumb Code     0  QtMultimediaKit.in(t._ZN4QMapIP13QMediaServiceP27QMediaServiceProviderPluginED1Ev)
    QMap<int, QVariant>::node_create(QMapData*, QMapData::Node**, const int&, const QVariant&) 0x000273e5   Thumb Code   100  QtMultimediaKit.in(t._ZN4QMapIi8QVariantE11node_createEP8QMapDataPPNS2_4NodeERKiRKS0_)
    QMap<int, QVariant>::detach_helper()     0x00027465   Thumb Code   116  QtMultimediaKit.in(t._ZN4QMapIi8QVariantE13detach_helperEv)
    QMap<int, QVariant>::detach()            0x000274e1   Thumb Code    26  QtMultimediaKit.in(t._ZN4QMapIi8QVariantE6detachEv)
    QMap<int, QVariant>::insert(const int&, const QVariant&) 0x000274fb   Thumb Code   130  QtMultimediaKit.in(t._ZN4QMapIi8QVariantE6insertERKiRKS0_)
    QMap<int, QVariant>::remove(const int&)  0x0002757d   Thumb Code   156  QtMultimediaKit.in(t._ZN4QMapIi8QVariantE6removeERKi)
    QMap<int, QVariant>::freeData(QMapData*) 0x00027619   Thumb Code    32  QtMultimediaKit.in(t._ZN4QMapIi8QVariantE8freeDataEP8QMapData)
    QMap<int, QVariant>::QMap()              0x00027639   Thumb Code    18  QtMultimediaKit.in(t._ZN4QMapIi8QVariantEC1Ev)
    QMap<int, QVariant>::QMap__sub_object()  0x00027639   Thumb Code     0  QtMultimediaKit.in(t._ZN4QMapIi8QVariantEC1Ev)
    QMap<int, QVariant>::~QMap()             0x00027651   Thumb Code    32  QtMultimediaKit.in(t._ZN4QMapIi8QVariantED1Ev)
    QMap<int, QVariant>::~QMap__sub_object() 0x00027651   Thumb Code     0  QtMultimediaKit.in(t._ZN4QMapIi8QVariantED1Ev)
    QMap<int, int>::node_create(QMapData*, QMapData::Node**, const int&, const int&) 0x00027671   Thumb Code    60  QtMultimediaKit.in(t._ZN4QMapIiiE11node_createEP8QMapDataPPNS1_4NodeERKiS7_)
    QMap<int, int>::detach_helper()          0x000276ad   Thumb Code   114  QtMultimediaKit.in(t._ZN4QMapIiiE13detach_helperEv)
    QMap<int, int>::detach()                 0x00027727   Thumb Code    26  QtMultimediaKit.in(t._ZN4QMapIiiE6detachEv)
    QMap<int, int>::insert(const int&, const int&) 0x00027741   Thumb Code   130  QtMultimediaKit.in(t._ZN4QMapIiiE6insertERKiS2_)
    QMap<int, int>::freeData(QMapData*)      0x000277c3   Thumb Code    12  QtMultimediaKit.in(t._ZN4QMapIiiE8freeDataEP8QMapData)
    QMap<int, int>::QMap()                   0x000277d1   Thumb Code    18  QtMultimediaKit.in(t._ZN4QMapIiiEC1Ev)
    QMap<int, int>::QMap__sub_object()       0x000277d1   Thumb Code     0  QtMultimediaKit.in(t._ZN4QMapIiiEC1Ev)
    QMap<int, int>::~QMap()                  0x000277e9   Thumb Code    32  QtMultimediaKit.in(t._ZN4QMapIiiED1Ev)
    QMap<int, int>::~QMap__sub_object()      0x000277e9   Thumb Code     0  QtMultimediaKit.in(t._ZN4QMapIiiED1Ev)
    QHash<QString, QHashDummyValue>::deleteNode2(QHashData::Node*) 0x00027809   Thumb Code    10  QtMultimediaKit.in(t._ZN5QHashI7QString15QHashDummyValueE11deleteNode2EPN9QHashData4NodeE)
    QHash<QString, QHashDummyValue>::duplicateNode(QHashData::Node*, void*) 0x00027813   Thumb Code    28  QtMultimediaKit.in(t._ZN5QHashI7QString15QHashDummyValueE13duplicateNodeEPN9QHashData4NodeEPv)
    QHash<QString, QHashDummyValue>::insert(const QString&, const QHashDummyValue&) 0x0002783d   Thumb Code   170  QtMultimediaKit.in(t._ZN5QHashI7QString15QHashDummyValueE6insertERKS0_RKS1_)
    QHash<QString, QHashDummyValue>::freeData(QHashData*) 0x000278fd   Thumb Code    12  QtMultimediaKit.in(t._ZN5QHashI7QString15QHashDummyValueE8freeDataEP9QHashData)
    QHash<QString, QHashDummyValue>::~QHash() 0x0002790d   Thumb Code    28  QtMultimediaKit.in(t._ZN5QHashI7QString15QHashDummyValueED1Ev)
    QHash<QString, QHashDummyValue>::~QHash__sub_object() 0x0002790d   Thumb Code     0  QtMultimediaKit.in(t._ZN5QHashI7QString15QHashDummyValueED1Ev)
    QHash<int, QHashDummyValue>::deleteNode2(QHashData::Node*) 0x00027929   Thumb Code     2  QtMultimediaKit.in(t._ZN5QHashIi15QHashDummyValueE11deleteNode2EPN9QHashData4NodeE)
    QHash<int, QHashDummyValue>::duplicateNode(QHashData::Node*, void*) 0x0002792b   Thumb Code    10  QtMultimediaKit.in(t._ZN5QHashIi15QHashDummyValueE13duplicateNodeEPN9QHashData4NodeEPv)
    QHash<int, QHashDummyValue>::detach()    0x00027935   Thumb Code    60  QtMultimediaKit.in(t._ZN5QHashIi15QHashDummyValueE6detachEv)
    QHash<int, QHashDummyValue>::insert(const int&, const QHashDummyValue&) 0x00027979   Thumb Code   104  QtMultimediaKit.in(t._ZN5QHashIi15QHashDummyValueE6insertERKiRKS0_)
    QHash<int, QHashDummyValue>::remove(const int&) 0x000279e1   Thumb Code   164  QtMultimediaKit.in(t._ZN5QHashIi15QHashDummyValueE6removeERKi)
    QHash<int, QHashDummyValue>::freeData(QHashData*) 0x00027a85   Thumb Code    12  QtMultimediaKit.in(t._ZN5QHashIi15QHashDummyValueE8freeDataEP9QHashData)
    QHash<int, QHashDummyValue>::~QHash()    0x00027a95   Thumb Code    28  QtMultimediaKit.in(t._ZN5QHashIi15QHashDummyValueED1Ev)
    QHash<int, QHashDummyValue>::~QHash__sub_object() 0x00027a95   Thumb Code     0  QtMultimediaKit.in(t._ZN5QHashIi15QHashDummyValueED1Ev)
    QList<QByteArray>::detach_helper(int)    0x00027ab1   Thumb Code   142  QtMultimediaKit.in(t._ZN5QListI10QByteArrayE13detach_helperEi)
    QList<QByteArray>::detach_helper()       0x00027b53   Thumb Code    88  QtMultimediaKit.in(t._ZN5QListI10QByteArrayE13detach_helperEv)
    QList<QByteArray>::node_construct(QList<QByteArray>::Node*, const QByteArray&) 0x00027bb3   Thumb Code    26  QtMultimediaKit.in(t._ZN5QListI10QByteArrayE14node_constructEPNS1_4NodeERKS0_)
    QList<QByteArray>::detach_helper_grow(int, int) 0x00027bd9   Thumb Code   186  QtMultimediaKit.in(t._ZN5QListI10QByteArrayE18detach_helper_growEii)
    QList<QByteArray>::free(QListData::Data*) 0x00027c9b   Thumb Code    48  QtMultimediaKit.in(t._ZN5QListI10QByteArrayE4freeEPN9QListData4DataE)
    QList<QByteArray>::append(const QByteArray&) 0x00027ccd   Thumb Code    94  QtMultimediaKit.in(t._ZN5QListI10QByteArrayE6appendERKS0_)
    QList<QByteArray>::node_copy(QList<QByteArray>::Node*, QList<QByteArray>::Node*, QList<QByteArray>::Node*) 0x00027d39   Thumb Code    70  QtMultimediaKit.in(t._ZN5QListI10QByteArrayE9node_copyEPNS1_4NodeES3_S3_)
    QList<QByteArray>::QList(const QList<QByteArray>&) 0x00027d95   Thumb Code    30  QtMultimediaKit.in(t._ZN5QListI10QByteArrayEC1ERKS1_)
    QList<QByteArray>::QList__sub_object(const QList<QByteArray>&) 0x00027d95   Thumb Code     0  QtMultimediaKit.in(t._ZN5QListI10QByteArrayEC1ERKS1_)
    QList<QByteArray>::QList()               0x00027db5   Thumb Code    16  QtMultimediaKit.in(t._ZN5QListI10QByteArrayEC1Ev)
    QList<QByteArray>::QList__sub_object()   0x00027db5   Thumb Code     0  QtMultimediaKit.in(t._ZN5QListI10QByteArrayEC1Ev)
    QList<QByteArray>::~QList()              0x00027dc9   Thumb Code    30  QtMultimediaKit.in(t._ZN5QListI10QByteArrayED1Ev)
    QList<QByteArray>::~QList__sub_object()  0x00027dc9   Thumb Code     0  QtMultimediaKit.in(t._ZN5QListI10QByteArrayED1Ev)
    QList<QByteArray>::operator <<(const QByteArray&) 0x00027de7   Thumb Code    12  QtMultimediaKit.in(t._ZN5QListI10QByteArrayElsERKS0_)
    QList<QByteArray>::operator +=(const QList<QByteArray>&) 0x00027df5   Thumb Code   168  QtMultimediaKit.in(t._ZN5QListI10QByteArrayEpLERKS1_)
    QList<QMediaContent>::detach_helper(int) 0x00027ea9   Thumb Code   152  QtMultimediaKit.in(t._ZN5QListI13QMediaContentE13detach_helperEi)
    QList<QMediaContent>::detach_helper()    0x00027f53   Thumb Code    88  QtMultimediaKit.in(t._ZN5QListI13QMediaContentE13detach_helperEv)
    QList<QMediaContent>::node_destruct(QList<QMediaContent>::Node*) 0x00027fb3   Thumb Code    18  QtMultimediaKit.in(t._ZN5QListI13QMediaContentE13node_destructEPNS1_4NodeE)
    QList<QMediaContent>::node_destruct(QList<QMediaContent>::Node*, QList<QMediaContent>::Node*) 0x00027fc5   Thumb Code    30  QtMultimediaKit.in(t._ZN5QListI13QMediaContentE13node_destructEPNS1_4NodeES3_)
    QList<QMediaContent>::node_construct(QList<QMediaContent>::Node*, const QMediaContent&) 0x00027fe3   Thumb Code    32  QtMultimediaKit.in(t._ZN5QListI13QMediaContentE14node_constructEPNS1_4NodeERKS0_)
    QList<QMediaContent>::detach_helper_grow(int, int) 0x0002800d   Thumb Code   180  QtMultimediaKit.in(t._ZN5QListI13QMediaContentE18detach_helper_growEii)
    QList<QMediaContent>::free(QListData::Data*) 0x000280c9   Thumb Code    38  QtMultimediaKit.in(t._ZN5QListI13QMediaContentE4freeEPN9QListData4DataE)
    QList<QMediaContent>::begin()            0x000280ef   Thumb Code    22  QtMultimediaKit.in(t._ZN5QListI13QMediaContentE5beginEv)
    QList<QMediaContent>::append(const QMediaContent&) 0x00028105   Thumb Code    90  QtMultimediaKit.in(t._ZN5QListI13QMediaContentE6appendERKS0_)
    QList<QMediaContent>::detach()           0x0002816d   Thumb Code    24  QtMultimediaKit.in(t._ZN5QListI13QMediaContentE6detachEv)
    QList<QMediaContent>::insert(int, const QMediaContent&) 0x00028185   Thumb Code    94  QtMultimediaKit.in(t._ZN5QListI13QMediaContentE6insertEiRKS0_)
    QList<QMediaContent>::node_copy(QList<QMediaContent>::Node*, QList<QMediaContent>::Node*, QList<QMediaContent>::Node*) 0x000281eb   Thumb Code    80  QtMultimediaKit.in(t._ZN5QListI13QMediaContentE9node_copyEPNS1_4NodeES3_S3_)
    QList<QMediaContent>::QList()            0x0002824d   Thumb Code    16  QtMultimediaKit.in(t._ZN5QListI13QMediaContentEC1Ev)
    QList<QMediaContent>::QList__sub_object() 0x0002824d   Thumb Code     0  QtMultimediaKit.in(t._ZN5QListI13QMediaContentEC1Ev)
    QList<QMediaContent>::~QList()           0x00028261   Thumb Code    30  QtMultimediaKit.in(t._ZN5QListI13QMediaContentED1Ev)
    QList<QMediaContent>::~QList__sub_object() 0x00028261   Thumb Code     0  QtMultimediaKit.in(t._ZN5QListI13QMediaContentED1Ev)
    QList<QMediaContent>::operator =(const QList<QMediaContent>&) 0x0002827f   Thumb Code    54  QtMultimediaKit.in(t._ZN5QListI13QMediaContentEaSERKS1_)
    QList<QMediaContent>::operator +=(const QList<QMediaContent>&) 0x000282b5   Thumb Code   132  QtMultimediaKit.in(t._ZN5QListI13QMediaContentEpLERKS1_)
    QList<QMediaResource>::detach_helper(int) 0x00028345   Thumb Code   152  QtMultimediaKit.in(t._ZN5QListI14QMediaResourceE13detach_helperEi)
    QList<QMediaResource>::detach_helper()   0x000283ef   Thumb Code    12  QtMultimediaKit.in(t._ZN5QListI14QMediaResourceE13detach_helperEv)
    QList<QMediaResource>::node_destruct(QList<QMediaResource>::Node*, QList<QMediaResource>::Node*) 0x000283fb   Thumb Code    30  QtMultimediaKit.in(t._ZN5QListI14QMediaResourceE13node_destructEPNS1_4NodeES3_)
    QList<QMediaResource>::node_construct(QList<QMediaResource>::Node*, const QMediaResource&) 0x00028419   Thumb Code    32  QtMultimediaKit.in(t._ZN5QListI14QMediaResourceE14node_constructEPNS1_4NodeERKS0_)
    QList<QMediaResource>::detach_helper_grow(int, int) 0x00028443   Thumb Code   180  QtMultimediaKit.in(t._ZN5QListI14QMediaResourceE18detach_helper_growEii)
    QList<QMediaResource>::free(QListData::Data*) 0x000284ff   Thumb Code    38  QtMultimediaKit.in(t._ZN5QListI14QMediaResourceE4freeEPN9QListData4DataE)
    QList<QMediaResource>::begin()           0x00028525   Thumb Code    34  QtMultimediaKit.in(t._ZN5QListI14QMediaResourceE5beginEv)
    QList<QMediaResource>::append(const QMediaResource&) 0x00028549   Thumb Code    90  QtMultimediaKit.in(t._ZN5QListI14QMediaResourceE6appendERKS0_)
    QList<QMediaResource>::node_copy(QList<QMediaResource>::Node*, QList<QMediaResource>::Node*, QList<QMediaResource>::Node*) 0x000285b1   Thumb Code    80  QtMultimediaKit.in(t._ZN5QListI14QMediaResourceE9node_copyEPNS1_4NodeES3_S3_)
    QList<QMediaResource>::QList(const QList<QMediaResource>&) 0x00028613   Thumb Code    30  QtMultimediaKit.in(t._ZN5QListI14QMediaResourceEC1ERKS1_)
    QList<QMediaResource>::QList__sub_object(const QList<QMediaResource>&) 0x00028613   Thumb Code     0  QtMultimediaKit.in(t._ZN5QListI14QMediaResourceEC1ERKS1_)
    QList<QMediaResource>::QList()           0x00028631   Thumb Code    16  QtMultimediaKit.in(t._ZN5QListI14QMediaResourceEC1Ev)
    QList<QMediaResource>::QList__sub_object() 0x00028631   Thumb Code     0  QtMultimediaKit.in(t._ZN5QListI14QMediaResourceEC1Ev)
    QList<QMediaResource>::~QList()          0x00028645   Thumb Code    30  QtMultimediaKit.in(t._ZN5QListI14QMediaResourceED1Ev)
    QList<QMediaResource>::~QList__sub_object() 0x00028645   Thumb Code     0  QtMultimediaKit.in(t._ZN5QListI14QMediaResourceED1Ev)
    QList<QMediaResource>::operator =(const QList<QMediaResource>&) 0x00028663   Thumb Code    54  QtMultimediaKit.in(t._ZN5QListI14QMediaResourceEaSERKS1_)
    QList<QAudioDeviceInfo>::node_destruct(QList<QAudioDeviceInfo>::Node*, QList<QAudioDeviceInfo>::Node*) 0x00028699   Thumb Code    30  QtMultimediaKit.in(t._ZN5QListI16QAudioDeviceInfoE13node_destructEPNS1_4NodeES3_)
    QList<QAudioDeviceInfo>::node_construct(QList<QAudioDeviceInfo>::Node*, const QAudioDeviceInfo&) 0x000286b7   Thumb Code    32  QtMultimediaKit.in(t._ZN5QListI16QAudioDeviceInfoE14node_constructEPNS1_4NodeERKS0_)
    QList<QAudioDeviceInfo>::detach_helper_grow(int, int) 0x000286e1   Thumb Code   180  QtMultimediaKit.in(t._ZN5QListI16QAudioDeviceInfoE18detach_helper_growEii)
    QList<QAudioDeviceInfo>::free(QListData::Data*) 0x0002879d   Thumb Code    38  QtMultimediaKit.in(t._ZN5QListI16QAudioDeviceInfoE4freeEPN9QListData4DataE)
    QList<QAudioDeviceInfo>::append(const QAudioDeviceInfo&) 0x000287c5   Thumb Code    90  QtMultimediaKit.in(t._ZN5QListI16QAudioDeviceInfoE6appendERKS0_)
    QList<QAudioDeviceInfo>::node_copy(QList<QAudioDeviceInfo>::Node*, QList<QAudioDeviceInfo>::Node*, QList<QAudioDeviceInfo>::Node*) 0x0002882d   Thumb Code    80  QtMultimediaKit.in(t._ZN5QListI16QAudioDeviceInfoE9node_copyEPNS1_4NodeES3_S3_)
    QList<QAudioDeviceInfo>::~QList()        0x0002888f   Thumb Code    30  QtMultimediaKit.in(t._ZN5QListI16QAudioDeviceInfoED1Ev)
    QList<QAudioDeviceInfo>::~QList__sub_object() 0x0002888f   Thumb Code     0  QtMultimediaKit.in(t._ZN5QListI16QAudioDeviceInfoED1Ev)
    QList<QCameraFocusZone>::detach_helper(int) 0x000288ad   Thumb Code   154  QtMultimediaKit.in(t._ZN5QListI16QCameraFocusZoneE13detach_helperEi)
    QList<QCameraFocusZone>::detach_helper() 0x00028959   Thumb Code    12  QtMultimediaKit.in(t._ZN5QListI16QCameraFocusZoneE13detach_helperEv)
    QList<QCameraFocusZone>::free(QListData::Data*) 0x00028965   Thumb Code    56  QtMultimediaKit.in(t._ZN5QListI16QCameraFocusZoneE4freeEPN9QListData4DataE)
    QList<QCameraFocusZone>::~QList()        0x0002899d   Thumb Code    30  QtMultimediaKit.in(t._ZN5QListI16QCameraFocusZoneED1Ev)
    QList<QCameraFocusZone>::~QList__sub_object() 0x0002899d   Thumb Code     0  QtMultimediaKit.in(t._ZN5QListI16QCameraFocusZoneED1Ev)
    QList<QMediaTimeInterval>::detach_helper() 0x000289bb   Thumb Code    88  QtMultimediaKit.in(t._ZN5QListI18QMediaTimeIntervalE13detach_helperEv)
    QList<QMediaTimeInterval>::node_destruct(QList<QMediaTimeInterval>::Node*, QList<QMediaTimeInterval>::Node*) 0x00028a1b   Thumb Code    22  QtMultimediaKit.in(t._ZN5QListI18QMediaTimeIntervalE13node_destructEPNS1_4NodeES3_)
    QList<QMediaTimeInterval>::node_construct(QList<QMediaTimeInterval>::Node*, const QMediaTimeInterval&) 0x00028a31   Thumb Code    32  QtMultimediaKit.in(t._ZN5QListI18QMediaTimeIntervalE14node_constructEPNS1_4NodeERKS0_)
    QList<QMediaTimeInterval>::detach_helper_grow(int, int) 0x00028a5b   Thumb Code   180  QtMultimediaKit.in(t._ZN5QListI18QMediaTimeIntervalE18detach_helper_growEii)
    QList<QMediaTimeInterval>::free(QListData::Data*) 0x00028b17   Thumb Code    38  QtMultimediaKit.in(t._ZN5QListI18QMediaTimeIntervalE4freeEPN9QListData4DataE)
    QList<QMediaTimeInterval>::append(const QMediaTimeInterval&) 0x00028b3d   Thumb Code    90  QtMultimediaKit.in(t._ZN5QListI18QMediaTimeIntervalE6appendERKS0_)
    QList<QMediaTimeInterval>::detach()      0x00028ba5   Thumb Code    24  QtMultimediaKit.in(t._ZN5QListI18QMediaTimeIntervalE6detachEv)
    QList<QMediaTimeInterval>::removeAt(int) 0x00028bbd   Thumb Code    50  QtMultimediaKit.in(t._ZN5QListI18QMediaTimeIntervalE8removeAtEi)
    QList<QMediaTimeInterval>::node_copy(QList<QMediaTimeInterval>::Node*, QList<QMediaTimeInterval>::Node*, QList<QMediaTimeInterval>::Node*) 0x00028bef   Thumb Code    72  QtMultimediaKit.in(t._ZN5QListI18QMediaTimeIntervalE9node_copyEPNS1_4NodeES3_S3_)
    QList<QMediaTimeInterval>::QList(const QList<QMediaTimeInterval>&) 0x00028c49   Thumb Code    30  QtMultimediaKit.in(t._ZN5QListI18QMediaTimeIntervalEC1ERKS1_)
    QList<QMediaTimeInterval>::QList__sub_object(const QList<QMediaTimeInterval>&) 0x00028c49   Thumb Code     0  QtMultimediaKit.in(t._ZN5QListI18QMediaTimeIntervalEC1ERKS1_)
    QList<QMediaTimeInterval>::QList()       0x00028c69   Thumb Code    16  QtMultimediaKit.in(t._ZN5QListI18QMediaTimeIntervalEC1Ev)
    QList<QMediaTimeInterval>::QList__sub_object() 0x00028c69   Thumb Code     0  QtMultimediaKit.in(t._ZN5QListI18QMediaTimeIntervalEC1Ev)
    QList<QMediaTimeInterval>::~QList()      0x00028c7d   Thumb Code    30  QtMultimediaKit.in(t._ZN5QListI18QMediaTimeIntervalED1Ev)
    QList<QMediaTimeInterval>::~QList__sub_object() 0x00028c7d   Thumb Code     0  QtMultimediaKit.in(t._ZN5QListI18QMediaTimeIntervalED1Ev)
    QList<QMediaTimeInterval>::operator [](int) 0x00028c9b   Thumb Code    22  QtMultimediaKit.in(t._ZN5QListI18QMediaTimeIntervalEixEi)
    QList<QSize>::detach_helper(int)         0x00028cb1   Thumb Code   112  QtMultimediaKit.in(t._ZN5QListI5QSizeE13detach_helperEi)
    QList<QSize>::free(QListData::Data*)     0x00028d29   Thumb Code    48  QtMultimediaKit.in(t._ZN5QListI5QSizeE4freeEPN9QListData4DataE)
    QList<QSize>::~QList()                   0x00028d59   Thumb Code    30  QtMultimediaKit.in(t._ZN5QListI5QSizeED1Ev)
    QList<QSize>::~QList__sub_object()       0x00028d59   Thumb Code     0  QtMultimediaKit.in(t._ZN5QListI5QSizeED1Ev)
    QList<QString>::detach_helper(int)       0x00028d77   Thumb Code    86  QtMultimediaKit.in(t._ZN5QListI7QStringE13detach_helperEi)
    QList<QString>::detach_helper()          0x00028dd5   Thumb Code    12  QtMultimediaKit.in(t._ZN5QListI7QStringE13detach_helperEv)
    QList<QString>::node_construct(QList<QString>::Node*, const QString&) 0x00028de1   Thumb Code    26  QtMultimediaKit.in(t._ZN5QListI7QStringE14node_constructEPNS1_4NodeERKS0_)
    QList<QString>::detach_helper_grow(int, int) 0x00028e07   Thumb Code   186  QtMultimediaKit.in(t._ZN5QListI7QStringE18detach_helper_growEii)
    QList<QString>::free(QListData::Data*)   0x00028ec9   Thumb Code    48  QtMultimediaKit.in(t._ZN5QListI7QStringE4freeEPN9QListData4DataE)
    QList<QString>::append(const QString&)   0x00028ef9   Thumb Code    90  QtMultimediaKit.in(t._ZN5QListI7QStringE6appendERKS0_)
    QList<QString>::node_copy(QList<QString>::Node*, QList<QString>::Node*, QList<QString>::Node*) 0x00028f61   Thumb Code    70  QtMultimediaKit.in(t._ZN5QListI7QStringE9node_copyEPNS1_4NodeES3_S3_)
    QList<QString>::removeAll(const QString&) 0x00028fbd   Thumb Code   108  QtMultimediaKit.in(t._ZN5QListI7QStringE9removeAllERKS0_)
    QList<QString>::QList(const QList<QString>&) 0x00029037   Thumb Code    30  QtMultimediaKit.in(t._ZN5QListI7QStringEC1ERKS1_)
    QList<QString>::QList__sub_object(const QList<QString>&) 0x00029037   Thumb Code     0  QtMultimediaKit.in(t._ZN5QListI7QStringEC1ERKS1_)
    QList<QString>::QList()                  0x00029055   Thumb Code    16  QtMultimediaKit.in(t._ZN5QListI7QStringEC1Ev)
    QList<QString>::QList__sub_object()      0x00029055   Thumb Code     0  QtMultimediaKit.in(t._ZN5QListI7QStringEC1Ev)
    QList<QString>::~QList()                 0x00029069   Thumb Code    30  QtMultimediaKit.in(t._ZN5QListI7QStringED1Ev)
    QList<QString>::~QList__sub_object()     0x00029069   Thumb Code     0  QtMultimediaKit.in(t._ZN5QListI7QStringED1Ev)
    QList<QString>::operator =(const QList<QString>&) 0x00029087   Thumb Code    54  QtMultimediaKit.in(t._ZN5QListI7QStringEaSERKS1_)
    QList<QString>::operator +=(const QList<QString>&) 0x000290bd   Thumb Code   132  QtMultimediaKit.in(t._ZN5QListI7QStringEpLERKS1_)
    QList<QPointer<QObject>>::detach_helper() 0x0002914d   Thumb Code    88  QtMultimediaKit.in(t._ZN5QListI8QPointerI7QObjectEE13detach_helperEv)
    QList<QPointer<QObject>>::node_destruct(QList<QPointer<QObject>>::Node*, QList<QPointer<QObject>>::Node*) 0x000291ad   Thumb Code    30  QtMultimediaKit.in(t._ZN5QListI8QPointerI7QObjectEE13node_destructEPNS3_4NodeES5_)
    QList<QPointer<QObject>>::node_construct(QList<QPointer<QObject>>::Node*, const QPointer<QObject>&) 0x000291cb   Thumb Code    32  QtMultimediaKit.in(t._ZN5QListI8QPointerI7QObjectEE14node_constructEPNS3_4NodeERKS2_)
    QList<QPointer<QObject>>::detach_helper_grow(int, int) 0x000291f5   Thumb Code   180  QtMultimediaKit.in(t._ZN5QListI8QPointerI7QObjectEE18detach_helper_growEii)
    QList<QPointer<QObject>>::free(QListData::Data*) 0x000292b1   Thumb Code    38  QtMultimediaKit.in(t._ZN5QListI8QPointerI7QObjectEE4freeEPN9QListData4DataE)
    QList<QPointer<QObject>>::append(const QPointer<QObject>&) 0x000292d9   Thumb Code    90  QtMultimediaKit.in(t._ZN5QListI8QPointerI7QObjectEE6appendERKS2_)
    QList<QPointer<QObject>>::node_copy(QList<QPointer<QObject>>::Node*, QList<QPointer<QObject>>::Node*, QList<QPointer<QObject>>::Node*) 0x00029341   Thumb Code    80  QtMultimediaKit.in(t._ZN5QListI8QPointerI7QObjectEE9node_copyEPNS3_4NodeES5_S5_)
    QList<QPointer<QObject>>::QList()        0x000293a5   Thumb Code    16  QtMultimediaKit.in(t._ZN5QListI8QPointerI7QObjectEEC1Ev)
    QList<QPointer<QObject>>::QList__sub_object() 0x000293a5   Thumb Code     0  QtMultimediaKit.in(t._ZN5QListI8QPointerI7QObjectEEC1Ev)
    QList<QPointer<QObject>>::~QList()       0x000293b9   Thumb Code    30  QtMultimediaKit.in(t._ZN5QListI8QPointerI7QObjectEED1Ev)
    QList<QPointer<QObject>>::~QList__sub_object() 0x000293b9   Thumb Code     0  QtMultimediaKit.in(t._ZN5QListI8QPointerI7QObjectEED1Ev)
    QList<QVariant>::detach_helper(int)      0x000293d7   Thumb Code   152  QtMultimediaKit.in(t._ZN5QListI8QVariantE13detach_helperEi)
    QList<QVariant>::detach_helper()         0x00029481   Thumb Code    88  QtMultimediaKit.in(t._ZN5QListI8QVariantE13detach_helperEv)
    QList<QVariant>::node_destruct(QList<QVariant>::Node*) 0x000294e1   Thumb Code    18  QtMultimediaKit.in(t._ZN5QListI8QVariantE13node_destructEPNS1_4NodeE)
    QList<QVariant>::node_destruct(QList<QVariant>::Node*, QList<QVariant>::Node*) 0x000294f3   Thumb Code    30  QtMultimediaKit.in(t._ZN5QListI8QVariantE13node_destructEPNS1_4NodeES3_)
    QList<QVariant>::node_construct(QList<QVariant>::Node*, const QVariant&) 0x00029511   Thumb Code    32  QtMultimediaKit.in(t._ZN5QListI8QVariantE14node_constructEPNS1_4NodeERKS0_)
    QList<QVariant>::detach_helper_grow(int, int) 0x0002953b   Thumb Code   180  QtMultimediaKit.in(t._ZN5QListI8QVariantE18detach_helper_growEii)
    QList<QVariant>::free(QListData::Data*)  0x000295f7   Thumb Code    38  QtMultimediaKit.in(t._ZN5QListI8QVariantE4freeEPN9QListData4DataE)
    QList<QVariant>::append(const QVariant&) 0x0002961d   Thumb Code    90  QtMultimediaKit.in(t._ZN5QListI8QVariantE6appendERKS0_)
    QList<QVariant>::detach()                0x00029685   Thumb Code    24  QtMultimediaKit.in(t._ZN5QListI8QVariantE6detachEv)
    QList<QVariant>::node_copy(QList<QVariant>::Node*, QList<QVariant>::Node*, QList<QVariant>::Node*) 0x0002969d   Thumb Code    80  QtMultimediaKit.in(t._ZN5QListI8QVariantE9node_copyEPNS1_4NodeES3_S3_)
    QList<QVariant>::QList()                 0x00029701   Thumb Code    16  QtMultimediaKit.in(t._ZN5QListI8QVariantEC1Ev)
    QList<QVariant>::QList__sub_object()     0x00029701   Thumb Code     0  QtMultimediaKit.in(t._ZN5QListI8QVariantEC1Ev)
    QList<QVariant>::~QList()                0x00029715   Thumb Code    30  QtMultimediaKit.in(t._ZN5QListI8QVariantED1Ev)
    QList<QVariant>::~QList__sub_object()    0x00029715   Thumb Code     0  QtMultimediaKit.in(t._ZN5QListI8QVariantED1Ev)
    QList<QVideoFrame::PixelFormat>::detach_helper(int) 0x00029733   Thumb Code   108  QtMultimediaKit.in(t._ZN5QListIN11QVideoFrame11PixelFormatEE13detach_helperEi)
    QList<QVideoFrame::PixelFormat>::detach_helper() 0x000297a7   Thumb Code    88  QtMultimediaKit.in(t._ZN5QListIN11QVideoFrame11PixelFormatEE13detach_helperEv)
    QList<QVideoFrame::PixelFormat>::node_destruct(QList<QVideoFrame::PixelFormat>::Node*, QList<QVideoFrame::PixelFormat>::Node*) 0x00029807   Thumb Code    22  QtMultimediaKit.in(t._ZN5QListIN11QVideoFrame11PixelFormatEE13node_destructEPNS2_4NodeES4_)
    QList<QVideoFrame::PixelFormat>::node_construct(QList<QVideoFrame::PixelFormat>::Node*, const QVideoFrame::PixelFormat&) 0x0002981d   Thumb Code    28  QtMultimediaKit.in(t._ZN5QListIN11QVideoFrame11PixelFormatEE14node_constructEPNS2_4NodeERKS1_)
    QList<QVideoFrame::PixelFormat>::detach_helper_grow(int, int) 0x00029839   Thumb Code   180  QtMultimediaKit.in(t._ZN5QListIN11QVideoFrame11PixelFormatEE18detach_helper_growEii)
    QList<QVideoFrame::PixelFormat>::free(QListData::Data*) 0x000298f5   Thumb Code    38  QtMultimediaKit.in(t._ZN5QListIN11QVideoFrame11PixelFormatEE4freeEPN9QListData4DataE)
    QList<QVideoFrame::PixelFormat>::append(const QVideoFrame::PixelFormat&) 0x0002991d   Thumb Code    86  QtMultimediaKit.in(t._ZN5QListIN11QVideoFrame11PixelFormatEE6appendERKS1_)
    QList<QVideoFrame::PixelFormat>::node_copy(QList<QVideoFrame::PixelFormat>::Node*, QList<QVideoFrame::PixelFormat>::Node*, QList<QVideoFrame::PixelFormat>::Node*) 0x00029981   Thumb Code    40  QtMultimediaKit.in(t._ZN5QListIN11QVideoFrame11PixelFormatEE9node_copyEPNS2_4NodeES4_S4_)
    QList<QVideoFrame::PixelFormat>::QList() 0x000299a9   Thumb Code    16  QtMultimediaKit.in(t._ZN5QListIN11QVideoFrame11PixelFormatEEC1Ev)
    QList<QVideoFrame::PixelFormat>::QList__sub_object() 0x000299a9   Thumb Code     0  QtMultimediaKit.in(t._ZN5QListIN11QVideoFrame11PixelFormatEEC1Ev)
    QList<QVideoFrame::PixelFormat>::~QList() 0x000299bd   Thumb Code    30  QtMultimediaKit.in(t._ZN5QListIN11QVideoFrame11PixelFormatEED1Ev)
    QList<QVideoFrame::PixelFormat>::~QList__sub_object() 0x000299bd   Thumb Code     0  QtMultimediaKit.in(t._ZN5QListIN11QVideoFrame11PixelFormatEED1Ev)
    QList<QVideoFrame::PixelFormat>::operator <<(const QVideoFrame::PixelFormat&) 0x000299db   Thumb Code    12  QtMultimediaKit.in(t._ZN5QListIN11QVideoFrame11PixelFormatEElsERKS1_)
    QList<QAudioFormat::SampleType>::detach_helper() 0x000299e7   Thumb Code    88  QtMultimediaKit.in(t._ZN5QListIN12QAudioFormat10SampleTypeEE13detach_helperEv)
    QList<QAudioFormat::SampleType>::node_destruct(QList<QAudioFormat::SampleType>::Node*, QList<QAudioFormat::SampleType>::Node*) 0x00029a47   Thumb Code    22  QtMultimediaKit.in(t._ZN5QListIN12QAudioFormat10SampleTypeEE13node_destructEPNS2_4NodeES4_)
    QList<QAudioFormat::SampleType>::node_construct(QList<QAudioFormat::SampleType>::Node*, const QAudioFormat::SampleType&) 0x00029a5d   Thumb Code    28  QtMultimediaKit.in(t._ZN5QListIN12QAudioFormat10SampleTypeEE14node_constructEPNS2_4NodeERKS1_)
    QList<QAudioFormat::SampleType>::detach_helper_grow(int, int) 0x00029a79   Thumb Code   180  QtMultimediaKit.in(t._ZN5QListIN12QAudioFormat10SampleTypeEE18detach_helper_growEii)
    QList<QAudioFormat::SampleType>::free(QListData::Data*) 0x00029b35   Thumb Code    44  QtMultimediaKit.in(t._ZN5QListIN12QAudioFormat10SampleTypeEE4freeEPN9QListData4DataE)
    QList<QAudioFormat::SampleType>::clear() 0x00029b61   Thumb Code    64  QtMultimediaKit.in(t._ZN5QListIN12QAudioFormat10SampleTypeEE5clearEv)
    QList<QAudioFormat::SampleType>::append(const QAudioFormat::SampleType&) 0x00029bad   Thumb Code    90  QtMultimediaKit.in(t._ZN5QListIN12QAudioFormat10SampleTypeEE6appendERKS1_)
    QList<QAudioFormat::SampleType>::node_copy(QList<QAudioFormat::SampleType>::Node*, QList<QAudioFormat::SampleType>::Node*, QList<QAudioFormat::SampleType>::Node*) 0x00029c15   Thumb Code    40  QtMultimediaKit.in(t._ZN5QListIN12QAudioFormat10SampleTypeEE9node_copyEPNS2_4NodeES4_S4_)
    QList<QAudioFormat::SampleType>::QList(const QList<QAudioFormat::SampleType>&) 0x00029c3d   Thumb Code    30  QtMultimediaKit.in(t._ZN5QListIN12QAudioFormat10SampleTypeEEC1ERKS2_)
    QList<QAudioFormat::SampleType>::QList__sub_object(const QList<QAudioFormat::SampleType>&) 0x00029c3d   Thumb Code     0  QtMultimediaKit.in(t._ZN5QListIN12QAudioFormat10SampleTypeEEC1ERKS2_)
    QList<QAudioFormat::SampleType>::QList() 0x00029c5d   Thumb Code    16  QtMultimediaKit.in(t._ZN5QListIN12QAudioFormat10SampleTypeEEC1Ev)
    QList<QAudioFormat::SampleType>::QList__sub_object() 0x00029c5d   Thumb Code     0  QtMultimediaKit.in(t._ZN5QListIN12QAudioFormat10SampleTypeEEC1Ev)
    QList<QAudioFormat::SampleType>::~QList() 0x00029c71   Thumb Code    30  QtMultimediaKit.in(t._ZN5QListIN12QAudioFormat10SampleTypeEED1Ev)
    QList<QAudioFormat::SampleType>::~QList__sub_object() 0x00029c71   Thumb Code     0  QtMultimediaKit.in(t._ZN5QListIN12QAudioFormat10SampleTypeEED1Ev)
    QList<QAudioFormat::Endian>::detach_helper() 0x00029c8f   Thumb Code    88  QtMultimediaKit.in(t._ZN5QListIN12QAudioFormat6EndianEE13detach_helperEv)
    QList<QAudioFormat::Endian>::node_destruct(QList<QAudioFormat::Endian>::Node*, QList<QAudioFormat::Endian>::Node*) 0x00029cef   Thumb Code    22  QtMultimediaKit.in(t._ZN5QListIN12QAudioFormat6EndianEE13node_destructEPNS2_4NodeES4_)
    QList<QAudioFormat::Endian>::node_construct(QList<QAudioFormat::Endian>::Node*, const QAudioFormat::Endian&) 0x00029d05   Thumb Code    28  QtMultimediaKit.in(t._ZN5QListIN12QAudioFormat6EndianEE14node_constructEPNS2_4NodeERKS1_)
    QList<QAudioFormat::Endian>::detach_helper_grow(int, int) 0x00029d21   Thumb Code   180  QtMultimediaKit.in(t._ZN5QListIN12QAudioFormat6EndianEE18detach_helper_growEii)
    QList<QAudioFormat::Endian>::free(QListData::Data*) 0x00029ddd   Thumb Code    44  QtMultimediaKit.in(t._ZN5QListIN12QAudioFormat6EndianEE4freeEPN9QListData4DataE)
    QList<QAudioFormat::Endian>::clear()     0x00029e09   Thumb Code    64  QtMultimediaKit.in(t._ZN5QListIN12QAudioFormat6EndianEE5clearEv)
    QList<QAudioFormat::Endian>::append(const QAudioFormat::Endian&) 0x00029e55   Thumb Code    90  QtMultimediaKit.in(t._ZN5QListIN12QAudioFormat6EndianEE6appendERKS1_)
    QList<QAudioFormat::Endian>::node_copy(QList<QAudioFormat::Endian>::Node*, QList<QAudioFormat::Endian>::Node*, QList<QAudioFormat::Endian>::Node*) 0x00029ebd   Thumb Code    40  QtMultimediaKit.in(t._ZN5QListIN12QAudioFormat6EndianEE9node_copyEPNS2_4NodeES4_S4_)
    QList<QAudioFormat::Endian>::QList(const QList<QAudioFormat::Endian>&) 0x00029ee5   Thumb Code    30  QtMultimediaKit.in(t._ZN5QListIN12QAudioFormat6EndianEEC1ERKS2_)
    QList<QAudioFormat::Endian>::QList__sub_object(const QList<QAudioFormat::Endian>&) 0x00029ee5   Thumb Code     0  QtMultimediaKit.in(t._ZN5QListIN12QAudioFormat6EndianEEC1ERKS2_)
    QList<QAudioFormat::Endian>::QList()     0x00029f05   Thumb Code    16  QtMultimediaKit.in(t._ZN5QListIN12QAudioFormat6EndianEEC1Ev)
    QList<QAudioFormat::Endian>::QList__sub_object() 0x00029f05   Thumb Code     0  QtMultimediaKit.in(t._ZN5QListIN12QAudioFormat6EndianEEC1Ev)
    QList<QAudioFormat::Endian>::~QList()    0x00029f19   Thumb Code    30  QtMultimediaKit.in(t._ZN5QListIN12QAudioFormat6EndianEED1Ev)
    QList<QAudioFormat::Endian>::~QList__sub_object() 0x00029f19   Thumb Code     0  QtMultimediaKit.in(t._ZN5QListIN12QAudioFormat6EndianEED1Ev)
    QList<QtMultimediaKit::MetaData>::detach_helper(int) 0x00029f37   Thumb Code   108  QtMultimediaKit.in(t._ZN5QListIN15QtMultimediaKit8MetaDataEE13detach_helperEi)
    QList<QtMultimediaKit::MetaData>::free(QListData::Data*) 0x00029fab   Thumb Code    48  QtMultimediaKit.in(t._ZN5QListIN15QtMultimediaKit8MetaDataEE4freeEPN9QListData4DataE)
    QList<QtMultimediaKit::MetaData>::~QList() 0x00029fdb   Thumb Code    30  QtMultimediaKit.in(t._ZN5QListIN15QtMultimediaKit8MetaDataEED1Ev)
    QList<QtMultimediaKit::MetaData>::~QList__sub_object() 0x00029fdb   Thumb Code     0  QtMultimediaKit.in(t._ZN5QListIN15QtMultimediaKit8MetaDataEED1Ev)
    QList<QCamera::LockStatus>::detach_helper() 0x00029ff9   Thumb Code    88  QtMultimediaKit.in(t._ZN5QListIN7QCamera10LockStatusEE13detach_helperEv)
    QList<QCamera::LockStatus>::node_destruct(QList<QCamera::LockStatus>::Node*, QList<QCamera::LockStatus>::Node*) 0x0002a059   Thumb Code    22  QtMultimediaKit.in(t._ZN5QListIN7QCamera10LockStatusEE13node_destructEPNS2_4NodeES4_)
    QList<QCamera::LockStatus>::node_construct(QList<QCamera::LockStatus>::Node*, const QCamera::LockStatus&) 0x0002a06f   Thumb Code    28  QtMultimediaKit.in(t._ZN5QListIN7QCamera10LockStatusEE14node_constructEPNS2_4NodeERKS1_)
    QList<QCamera::LockStatus>::detach_helper_grow(int, int) 0x0002a08b   Thumb Code   180  QtMultimediaKit.in(t._ZN5QListIN7QCamera10LockStatusEE18detach_helper_growEii)
    QList<QCamera::LockStatus>::free(QListData::Data*) 0x0002a147   Thumb Code    38  QtMultimediaKit.in(t._ZN5QListIN7QCamera10LockStatusEE4freeEPN9QListData4DataE)
    QList<QCamera::LockStatus>::append(const QCamera::LockStatus&) 0x0002a16d   Thumb Code    90  QtMultimediaKit.in(t._ZN5QListIN7QCamera10LockStatusEE6appendERKS1_)
    QList<QCamera::LockStatus>::node_copy(QList<QCamera::LockStatus>::Node*, QList<QCamera::LockStatus>::Node*, QList<QCamera::LockStatus>::Node*) 0x0002a1d5   Thumb Code    40  QtMultimediaKit.in(t._ZN5QListIN7QCamera10LockStatusEE9node_copyEPNS2_4NodeES4_S4_)
    QList<QCamera::LockStatus>::~QList()     0x0002a1fd   Thumb Code    30  QtMultimediaKit.in(t._ZN5QListIN7QCamera10LockStatusEED1Ev)
    QList<QCamera::LockStatus>::~QList__sub_object() 0x0002a1fd   Thumb Code     0  QtMultimediaKit.in(t._ZN5QListIN7QCamera10LockStatusEED1Ev)
    QList<QGraphicsView*>::detach_helper(int) 0x0002a21b   Thumb Code    98  QtMultimediaKit.in(t._ZN5QListIP13QGraphicsViewE13detach_helperEi)
    QList<QGraphicsView*>::free(QListData::Data*) 0x0002a285   Thumb Code    16  QtMultimediaKit.in(t._ZN5QListIP13QGraphicsViewE4freeEPN9QListData4DataE)
    QList<QGraphicsView*>::~QList()          0x0002a295   Thumb Code    30  QtMultimediaKit.in(t._ZN5QListIP13QGraphicsViewED1Ev)
    QList<QGraphicsView*>::~QList__sub_object() 0x0002a295   Thumb Code     0  QtMultimediaKit.in(t._ZN5QListIP13QGraphicsViewED1Ev)
    QList<QPluginLoader*>::detach_helper_grow(int, int) 0x0002a2b3   Thumb Code   164  QtMultimediaKit.in(t._ZN5QListIP13QPluginLoaderE18detach_helper_growEii)
    QList<QPluginLoader*>::free(QListData::Data*) 0x0002a35f   Thumb Code    16  QtMultimediaKit.in(t._ZN5QListIP13QPluginLoaderE4freeEPN9QListData4DataE)
    QList<QPluginLoader*>::node_copy(QList<QPluginLoader*>::Node*, QList<QPluginLoader*>::Node*, QList<QPluginLoader*>::Node*) 0x0002a36f   Thumb Code    28  QtMultimediaKit.in(t._ZN5QListIP13QPluginLoaderE9node_copyEPNS2_4NodeES4_S4_)
    QList<QPluginLoader*>::~QList()          0x0002a38b   Thumb Code    30  QtMultimediaKit.in(t._ZN5QListIP13QPluginLoaderED1Ev)
    QList<QPluginLoader*>::~QList__sub_object() 0x0002a38b   Thumb Code     0  QtMultimediaKit.in(t._ZN5QListIP13QPluginLoaderED1Ev)
    QList<CMMFDataBuffer*>::detach_helper()  0x0002a3a9   Thumb Code    88  QtMultimediaKit.in(t._ZN5QListIP14CMMFDataBufferE13detach_helperEv)
    QList<CMMFDataBuffer*>::detach_helper_grow(int, int) 0x0002a409   Thumb Code   164  QtMultimediaKit.in(t._ZN5QListIP14CMMFDataBufferE18detach_helper_growEii)
    QList<CMMFDataBuffer*>::free(QListData::Data*) 0x0002a4b5   Thumb Code    16  QtMultimediaKit.in(t._ZN5QListIP14CMMFDataBufferE4freeEPN9QListData4DataE)
    QList<CMMFDataBuffer*>::begin()          0x0002a4c5   Thumb Code    34  QtMultimediaKit.in(t._ZN5QListIP14CMMFDataBufferE5beginEv)
    QList<CMMFDataBuffer*>::clear()          0x0002a4e7   Thumb Code    64  QtMultimediaKit.in(t._ZN5QListIP14CMMFDataBufferE5clearEv)
    QList<CMMFDataBuffer*>::append(CMMFDataBuffer*const &) 0x0002a531   Thumb Code    54  QtMultimediaKit.in(t._ZN5QListIP14CMMFDataBufferE6appendERKS1_)
    QList<CMMFDataBuffer*>::node_copy(QList<CMMFDataBuffer*>::Node*, QList<CMMFDataBuffer*>::Node*, QList<CMMFDataBuffer*>::Node*) 0x0002a577   Thumb Code    28  QtMultimediaKit.in(t._ZN5QListIP14CMMFDataBufferE9node_copyEPNS2_4NodeES4_S4_)
    QList<CMMFDataBuffer*>::QList()          0x0002a595   Thumb Code    16  QtMultimediaKit.in(t._ZN5QListIP14CMMFDataBufferEC1Ev)
    QList<CMMFDataBuffer*>::QList__sub_object() 0x0002a595   Thumb Code     0  QtMultimediaKit.in(t._ZN5QListIP14CMMFDataBufferEC1Ev)
    QList<CMMFDataBuffer*>::~QList()         0x0002a5a9   Thumb Code    30  QtMultimediaKit.in(t._ZN5QListIP14CMMFDataBufferED1Ev)
    QList<CMMFDataBuffer*>::~QList__sub_object() 0x0002a5a9   Thumb Code     0  QtMultimediaKit.in(t._ZN5QListIP14CMMFDataBufferED1Ev)
    QList<QMediaServiceProviderPlugin*>::detach_helper() 0x0002a5c7   Thumb Code    88  QtMultimediaKit.in(t._ZN5QListIP27QMediaServiceProviderPluginE13detach_helperEv)
    QList<QMediaServiceProviderPlugin*>::detach_helper_grow(int, int) 0x0002a627   Thumb Code   164  QtMultimediaKit.in(t._ZN5QListIP27QMediaServiceProviderPluginE18detach_helper_growEii)
    QList<QMediaServiceProviderPlugin*>::free(QListData::Data*) 0x0002a6d3   Thumb Code    24  QtMultimediaKit.in(t._ZN5QListIP27QMediaServiceProviderPluginE4freeEPN9QListData4DataE)
    QList<QMediaServiceProviderPlugin*>::node_copy(QList<QMediaServiceProviderPlugin*>::Node*, QList<QMediaServiceProviderPlugin*>::Node*, QList<QMediaServiceProviderPlugin*>::Node*) 0x0002a6eb   Thumb Code    28  QtMultimediaKit.in(t._ZN5QListIP27QMediaServiceProviderPluginE9node_copyEPNS2_4NodeES4_S4_)
    QList<QMediaServiceProviderPlugin*>::~QList() 0x0002a707   Thumb Code    30  QtMultimediaKit.in(t._ZN5QListIP27QMediaServiceProviderPluginED1Ev)
    QList<QMediaServiceProviderPlugin*>::~QList__sub_object() 0x0002a707   Thumb Code     0  QtMultimediaKit.in(t._ZN5QListIP27QMediaServiceProviderPluginED1Ev)
    QList<QMediaServiceProviderPlugin*>::operator [](int) 0x0002a725   Thumb Code    40  QtMultimediaKit.in(t._ZN5QListIP27QMediaServiceProviderPluginEixEi)
    QList<QObject*>::detach_helper(int)      0x0002a74d   Thumb Code    98  QtMultimediaKit.in(t._ZN5QListIP7QObjectE13detach_helperEi)
    QList<QObject*>::detach_helper()         0x0002a7b7   Thumb Code    88  QtMultimediaKit.in(t._ZN5QListIP7QObjectE13detach_helperEv)
    QList<QObject*>::detach_helper_grow(int, int) 0x0002a817   Thumb Code   164  QtMultimediaKit.in(t._ZN5QListIP7QObjectE18detach_helper_growEii)
    QList<QObject*>::free(QListData::Data*)  0x0002a8c3   Thumb Code    16  QtMultimediaKit.in(t._ZN5QListIP7QObjectE4freeEPN9QListData4DataE)
    QList<QObject*>::node_copy(QList<QObject*>::Node*, QList<QObject*>::Node*, QList<QObject*>::Node*) 0x0002a8d3   Thumb Code    28  QtMultimediaKit.in(t._ZN5QListIP7QObjectE9node_copyEPNS2_4NodeES4_S4_)
    QList<QObject*>::QList(const QList<QObject*>&) 0x0002a8ef   Thumb Code    30  QtMultimediaKit.in(t._ZN5QListIP7QObjectEC1ERKS2_)
    QList<QObject*>::QList__sub_object(const QList<QObject*>&) 0x0002a8ef   Thumb Code     0  QtMultimediaKit.in(t._ZN5QListIP7QObjectEC1ERKS2_)
    QList<QObject*>::QList()                 0x0002a90d   Thumb Code    16  QtMultimediaKit.in(t._ZN5QListIP7QObjectEC1Ev)
    QList<QObject*>::QList__sub_object()     0x0002a90d   Thumb Code     0  QtMultimediaKit.in(t._ZN5QListIP7QObjectEC1Ev)
    QList<QObject*>::~QList()                0x0002a921   Thumb Code    30  QtMultimediaKit.in(t._ZN5QListIP7QObjectED1Ev)
    QList<QObject*>::~QList__sub_object()    0x0002a921   Thumb Code     0  QtMultimediaKit.in(t._ZN5QListIP7QObjectED1Ev)
    QList<float>::detach_helper(int)         0x0002a93f   Thumb Code    98  QtMultimediaKit.in(t._ZN5QListIfE13detach_helperEi)
    QList<float>::detach_helper_grow(int, int) 0x0002a9a9   Thumb Code   164  QtMultimediaKit.in(t._ZN5QListIfE18detach_helper_growEii)
    QList<float>::free(QListData::Data*)     0x0002aa55   Thumb Code    16  QtMultimediaKit.in(t._ZN5QListIfE4freeEPN9QListData4DataE)
    QList<float>::append(const float&)       0x0002aa65   Thumb Code    54  QtMultimediaKit.in(t._ZN5QListIfE6appendERKf)
    QList<float>::node_copy(QList<float>::Node*, QList<float>::Node*, QList<float>::Node*) 0x0002aaab   Thumb Code    28  QtMultimediaKit.in(t._ZN5QListIfE9node_copyEPNS0_4NodeES2_S2_)
    QList<float>::QList()                    0x0002aac9   Thumb Code    16  QtMultimediaKit.in(t._ZN5QListIfEC1Ev)
    QList<float>::QList__sub_object()        0x0002aac9   Thumb Code     0  QtMultimediaKit.in(t._ZN5QListIfEC1Ev)
    QList<float>::~QList()                   0x0002aadd   Thumb Code    30  QtMultimediaKit.in(t._ZN5QListIfED1Ev)
    QList<float>::~QList__sub_object()       0x0002aadd   Thumb Code     0  QtMultimediaKit.in(t._ZN5QListIfED1Ev)
    QList<int>::detach_helper(int)           0x0002aafb   Thumb Code    86  QtMultimediaKit.in(t._ZN5QListIiE13detach_helperEi)
    QList<int>::detach_helper()              0x0002ab59   Thumb Code    88  QtMultimediaKit.in(t._ZN5QListIiE13detach_helperEv)
    QList<int>::detach_helper_grow(int, int) 0x0002abb9   Thumb Code   164  QtMultimediaKit.in(t._ZN5QListIiE18detach_helper_growEii)
    QList<int>::free(QListData::Data*)       0x0002ac65   Thumb Code    16  QtMultimediaKit.in(t._ZN5QListIiE4freeEPN9QListData4DataE)
    QList<int>::clear()                      0x0002ac75   Thumb Code    64  QtMultimediaKit.in(t._ZN5QListIiE5clearEv)
    QList<int>::append(const int&)           0x0002acc1   Thumb Code    54  QtMultimediaKit.in(t._ZN5QListIiE6appendERKi)
    QList<int>::node_copy(QList<int>::Node*, QList<int>::Node*, QList<int>::Node*) 0x0002ad07   Thumb Code    28  QtMultimediaKit.in(t._ZN5QListIiE9node_copyEPNS0_4NodeES2_S2_)
    QList<int>::removeAll(const int&)        0x0002ad25   Thumb Code    84  QtMultimediaKit.in(t._ZN5QListIiE9removeAllERKi)
    QList<int>::QList(const QList<int>&)     0x0002ad7d   Thumb Code    30  QtMultimediaKit.in(t._ZN5QListIiEC1ERKS0_)
    QList<int>::QList__sub_object(const QList<int>&) 0x0002ad7d   Thumb Code     0  QtMultimediaKit.in(t._ZN5QListIiEC1ERKS0_)
    QList<int>::QList()                      0x0002ad9d   Thumb Code    16  QtMultimediaKit.in(t._ZN5QListIiEC1Ev)
    QList<int>::QList__sub_object()          0x0002ad9d   Thumb Code     0  QtMultimediaKit.in(t._ZN5QListIiEC1Ev)
    QList<int>::~QList()                     0x0002adb1   Thumb Code    30  QtMultimediaKit.in(t._ZN5QListIiED1Ev)
    QList<int>::~QList__sub_object()         0x0002adb1   Thumb Code     0  QtMultimediaKit.in(t._ZN5QListIiED1Ev)
    QList<int>::operator =(const QList<int>&) 0x0002adcf   Thumb Code    54  QtMultimediaKit.in(t._ZN5QListIiEaSERKS0_)
    QList<int>::operator [](int)             0x0002ae05   Thumb Code    40  QtMultimediaKit.in(t._ZN5QListIiEixEi)
    QList<int>::operator +=(const int&)      0x0002ae2d   Thumb Code    56  QtMultimediaKit.in(t._ZN5QListIiEpLERKi)
    QVector<QRect>::free(QVectorTypedData<QRect>*) 0x0002ae73   Thumb Code    30  QtMultimediaKit.in(t._ZN7QVectorI5QRectE4freeEP16QVectorTypedDataIS0_E)
    QVector<QRect>::detach()                 0x0002ae91   Thumb Code    30  QtMultimediaKit.in(t._ZN7QVectorI5QRectE6detachEv)
    QVector<QRect>::realloc(int, int)        0x0002aeaf   Thumb Code   352  QtMultimediaKit.in(t._ZN7QVectorI5QRectE7reallocEii)
    QVector<QRect>::~QVector()               0x0002b025   Thumb Code    30  QtMultimediaKit.in(t._ZN7QVectorI5QRectED1Ev)
    QVector<QRect>::~QVector__sub_object()   0x0002b025   Thumb Code     0  QtMultimediaKit.in(t._ZN7QVectorI5QRectED1Ev)
    QPointer<QMediaObject>::operator =(QMediaObject*) 0x0002b043   Thumb Code    20  QtMultimediaKit.in(t._ZN8QPointerI12QMediaObjectEaSEPS0_)
    QPointer<QGraphicsView>::~QPointer()     0x0002b057   Thumb Code    12  QtMultimediaKit.in(t._ZN8QPointerI13QGraphicsViewED1Ev)
    QPointer<QGraphicsView>::~QPointer__sub_object() 0x0002b057   Thumb Code     0  QtMultimediaKit.in(t._ZN8QPointerI13QGraphicsViewED1Ev)
    QPointer<QObject>::QPointer(const QPointer<QObject>&) 0x0002b063   Thumb Code    18  QtMultimediaKit.in(t._ZN8QPointerI7QObjectEC1ERKS1_)
    QPointer<QObject>::QPointer__sub_object(const QPointer<QObject>&) 0x0002b063   Thumb Code     0  QtMultimediaKit.in(t._ZN8QPointerI7QObjectEC1ERKS1_)
    QPointer<QObject>::~QPointer()           0x0002b075   Thumb Code    12  QtMultimediaKit.in(t._ZN8QPointerI7QObjectED1Ev)
    QPointer<QObject>::~QPointer__sub_object() 0x0002b075   Thumb Code     0  QtMultimediaKit.in(t._ZN8QPointerI7QObjectED1Ev)
    QPointer<QObject>::operator =(QObject*)  0x0002b081   Thumb Code    20  QtMultimediaKit.in(t._ZN8QPointerI7QObjectEaSEPS0_)
    QVariant::fromValue<QVideoSurfaceFormat>(const T1&) 0x0002b095   Thumb Code    24  QtMultimediaKit.in(t._ZN8QVariant9fromValueI19QVideoSurfaceFormatEES_RKT_)
    QVariant::fromValue<QAbstractVideoSurface::Error>(const T1&) 0x0002b0ad   Thumb Code    24  QtMultimediaKit.in(t._ZN8QVariant9fromValueIN21QAbstractVideoSurface5ErrorEEES_RKT_)
    QMapIterator<int, int>::hasNext() const  0x0002b0c5   Thumb Code    20  QtMultimediaKit.in(t._ZNK12QMapIteratorIiiE7hasNextEv)
    QForeachContainer<QStringList>::condition() const 0x0002b0d9   Thumb Code    26  QtMultimediaKit.in(t._ZNK17QForeachContainerI11QStringListE9conditionEv)
    QForeachContainer<QList<QByteArray>>::condition() const 0x0002b0f3   Thumb Code    26  QtMultimediaKit.in(t._ZNK17QForeachContainerI5QListI10QByteArrayEE9conditionEv)
    QForeachContainer<QList<QMediaTimeInterval>>::condition() const 0x0002b10d   Thumb Code    26  QtMultimediaKit.in(t._ZNK17QForeachContainerI5QListI18QMediaTimeIntervalEE9conditionEv)
    QForeachContainer<QList<QPointer<QObject>>>::condition() const 0x0002b127   Thumb Code    26  QtMultimediaKit.in(t._ZNK17QForeachContainerI5QListI8QPointerI7QObjectEEE9conditionEv)
    QForeachContainer<QList<QVariant>>::condition() const 0x0002b141   Thumb Code    26  QtMultimediaKit.in(t._ZNK17QForeachContainerI5QListI8QVariantEE9conditionEv)
    QForeachContainer<QList<QMediaServiceProviderPlugin*>>::condition() const 0x0002b15b   Thumb Code    26  QtMultimediaKit.in(t._ZNK17QForeachContainerI5QListIP27QMediaServiceProviderPluginEE9conditionEv)
    QForeachContainer<QList<QObject*>>::condition() const 0x0002b175   Thumb Code    26  QtMultimediaKit.in(t._ZNK17QForeachContainerI5QListIP7QObjectEE9conditionEv)
    QForeachContainer<QList<int>>::condition() const 0x0002b18f   Thumb Code    26  QtMultimediaKit.in(t._ZNK17QForeachContainerI5QListIiEE9conditionEv)
    QMap<QString, QList<QObject*>>::findNode(const QString&) const 0x0002b1a9   Thumb Code    82  QtMultimediaKit.in(t._ZNK4QMapI7QString5QListIP7QObjectEE8findNodeERKS0_)
    QMap<QString, QAudioDeviceInfoInternal::Capabilities>::keys() const 0x0002b1fd   Thumb Code    84  QtMultimediaKit.in(t._ZNK4QMapI7QStringN24QAudioDeviceInfoInternal12CapabilitiesEE4keysEv)
    QMap<QString, QAudioDeviceInfoInternal::Capabilities>::contains(const QString&) const 0x0002b25f   Thumb Code    90  QtMultimediaKit.in(t._ZNK4QMapI7QStringN24QAudioDeviceInfoInternal12CapabilitiesEE8containsERKS0_)
    QMap<QString, QObject*>::keys() const    0x0002b2b9   Thumb Code    80  QtMultimediaKit.in(t._ZNK4QMapI7QStringP7QObjectE4keysEv)
    QMap<QString, QObject*>::values(const QString&) const 0x0002b315   Thumb Code    98  QtMultimediaKit.in(t._ZNK4QMapI7QStringP7QObjectE6valuesERKS0_)
    QMap<QString, QObject*>::findNode(const QString&) const 0x0002b38d   Thumb Code    82  QtMultimediaKit.in(t._ZNK4QMapI7QStringP7QObjectE8findNodeERKS0_)
    QMap<int, QVariant>::keys() const        0x0002b3e1   Thumb Code   130  QtMultimediaKit.in(t._ZNK4QMapIi8QVariantE4keysEv)
    QMap<int, QVariant>::value(const int&) const 0x0002b47d   Thumb Code    64  QtMultimediaKit.in(t._ZNK4QMapIi8QVariantE5valueERKi)
    QMap<int, QVariant>::findNode(const int&) const 0x0002b4bd   Thumb Code    82  QtMultimediaKit.in(t._ZNK4QMapIi8QVariantE8findNodeERKi)
    QHash<QString, QHashDummyValue>::findNode(const QString&, unsigned*) const 0x0002b50f   Thumb Code    90  QtMultimediaKit.in(t._ZNK5QHashI7QString15QHashDummyValueE8findNodeERKS0_Pj)
    QHash<int, QHashDummyValue>::isEmpty() const 0x0002b569   Thumb Code    16  QtMultimediaKit.in(t._ZNK5QHashIi15QHashDummyValueE7isEmptyEv)
    QHash<int, QHashDummyValue>::findNode(const int&, unsigned*) const 0x0002b579   Thumb Code    50  QtMultimediaKit.in(t._ZNK5QHashIi15QHashDummyValueE8findNodeERKiPj)
    QList<QByteArray>::at(int) const         0x0002b5ab   Thumb Code    16  QtMultimediaKit.in(t._ZNK5QListI10QByteArrayE2atEi)
    QList<QByteArray>::count() const         0x0002b5bb   Thumb Code     8  QtMultimediaKit.in(t._ZNK5QListI10QByteArrayE5countEv)
    QList<QByteArray>::indexOf(const QByteArray&, int) const 0x0002b5c3   Thumb Code   124  QtMultimediaKit.in(t._ZNK5QListI10QByteArrayE7indexOfERKS0_i)
    QList<QByteArray>::contains(const QByteArray&) const 0x0002b63f   Thumb Code    54  QtMultimediaKit.in(t._ZNK5QListI10QByteArrayE8containsERKS0_)
    QList<QMediaContent>::count() const      0x0002b675   Thumb Code     8  QtMultimediaKit.in(t._ZNK5QListI13QMediaContentE5countEv)
    QList<QMediaContent>::isEmpty() const    0x0002b67d   Thumb Code    18  QtMultimediaKit.in(t._ZNK5QListI13QMediaContentE7isEmptyEv)
    QList<QMediaTimeInterval>::count() const 0x0002b68f   Thumb Code    10  QtMultimediaKit.in(t._ZNK5QListI18QMediaTimeIntervalE5countEv)
    QList<QMediaTimeInterval>::isEmpty() const 0x0002b699   Thumb Code    18  QtMultimediaKit.in(t._ZNK5QListI18QMediaTimeIntervalE7isEmptyEv)
    QList<QMediaTimeInterval>::operator [](int) const 0x0002b6ab   Thumb Code    10  QtMultimediaKit.in(t._ZNK5QListI18QMediaTimeIntervalEixEi)
    QList<QString>::at(int) const            0x0002b6b5   Thumb Code     8  QtMultimediaKit.in(t._ZNK5QListI7QStringE2atEi)
    QList<QVariant>::at(int) const           0x0002b6bd   Thumb Code    10  QtMultimediaKit.in(t._ZNK5QListI8QVariantE2atEi)
    QList<QAudioFormat::SampleType>::contains(const QAudioFormat::SampleType&) const 0x0002b6c7   Thumb Code    50  QtMultimediaKit.in(t._ZNK5QListIN12QAudioFormat10SampleTypeEE8containsERKS1_)
    QList<QAudioFormat::Endian>::contains(const QAudioFormat::Endian&) const 0x0002b6f9   Thumb Code    50  QtMultimediaKit.in(t._ZNK5QListIN12QAudioFormat6EndianEE8containsERKS1_)
    QList<QPluginLoader*>::at(int) const     0x0002b72b   Thumb Code     8  QtMultimediaKit.in(t._ZNK5QListIP13QPluginLoaderE2atEi)
    QList<QPluginLoader*>::count() const     0x0002b733   Thumb Code    10  QtMultimediaKit.in(t._ZNK5QListIP13QPluginLoaderE5countEv)
    QList<CMMFDataBuffer*>::empty() const    0x0002b73d   Thumb Code    18  QtMultimediaKit.in(t._ZNK5QListIP14CMMFDataBufferE5emptyEv)
    QList<int>::size() const                 0x0002b74f   Thumb Code    10  QtMultimediaKit.in(t._ZNK5QListIiE4sizeEv)
    QList<int>::contains(const int&) const   0x0002b759   Thumb Code    48  QtMultimediaKit.in(t._ZNK5QListIiE8containsERKi)
    QFlags<QMediaServiceProviderHint::Feature>::operator !() const 0x0002b789   Thumb Code    14  QtMultimediaKit.in(t._ZNK6QFlagsIN25QMediaServiceProviderHint7FeatureEEntEv)
    SymbianAudio::DevSoundWrapper::staticMetaObject 0x0002fadc   Data          16  QtMultimediaKit.in(.constdata)
    QMediaControl::staticMetaObject          0x0002fb74   Data          16  QtMultimediaKit.in(.constdata)
    QMediaObject::staticMetaObject           0x0002fc6c   Data          16  QtMultimediaKit.in(.constdata)
    QMediaService::staticMetaObject          0x0002fd68   Data          16  QtMultimediaKit.in(.constdata)
    QLocalMediaPlaylistProvider::staticMetaObject 0x0002fddc   Data          16  QtMultimediaKit.in(.constdata)
    QMediaImageViewer::staticMetaObject      0x00030068   Data          16  QtMultimediaKit.in(.constdata)
    QMediaImageViewerService::staticMetaObject 0x00030340   Data          16  QtMultimediaKit.in(.constdata)
    QMediaImageViewerControl::staticMetaObject 0x00030350   Data          16  QtMultimediaKit.in(.constdata)
    QMediaImageViewerRenderer::staticMetaObject 0x00030360   Data          16  QtMultimediaKit.in(.constdata)
    QMediaPlayer::staticMetaObject           0x0003092c   Data          16  QtMultimediaKit.in(.constdata)
    QMediaPlayerControl::staticMetaObject    0x00030f20   Data          16  QtMultimediaKit.in(.constdata)
    QMediaPlaylist::staticMetaObject         0x0003131c   Data          16  QtMultimediaKit.in(.constdata)
    QLocalMediaPlaylistControl::staticMetaObject 0x0003132c   Data          16  QtMultimediaKit.in(.constdata)
    QMediaPlaylistIOPlugin::staticMetaObject 0x000315c0   Data          16  QtMultimediaKit.in(.constdata)
    QMediaPlaylistNavigator::staticMetaObject 0x000317a8   Data          16  QtMultimediaKit.in(.constdata)
    QMediaPlaylistProvider::staticMetaObject 0x000319f0   Data          16  QtMultimediaKit.in(.constdata)
    QMediaRecorder::staticMetaObject         0x00031d14   Data          16  QtMultimediaKit.in(.constdata)
    QMediaRecorderControl::staticMetaObject  0x00032008   Data          16  QtMultimediaKit.in(.constdata)
    QMediaServiceProvider::staticMetaObject  0x00032128   Data          16  QtMultimediaKit.in(.constdata)
    QMediaServiceProviderPlugin::staticMetaObject 0x00032138   Data          16  QtMultimediaKit.in(.constdata)
    QMetaDataReaderControl::staticMetaObject 0x000322f8   Data          16  QtMultimediaKit.in(.constdata)
    QMetaDataWriterControl::staticMetaObject 0x000323e0   Data          16  QtMultimediaKit.in(.constdata)
    QMediaStreamsControl::staticMetaObject   0x000324a8   Data          16  QtMultimediaKit.in(.constdata)
    QRadioTuner::staticMetaObject            0x00032778   Data          16  QtMultimediaKit.in(.constdata)
    QRadioTunerControl::staticMetaObject     0x00032ba0   Data          16  QtMultimediaKit.in(.constdata)
    QVideoWidget::staticMetaObject           0x00032ff8   Data          16  QtMultimediaKit.in(.constdata)
    QVideoWidgetBackend::staticMetaObject    0x00033008   Data          16  QtMultimediaKit.in(.constdata)
    QVideoWidgetControlBackend::staticMetaObject 0x00033018   Data          16  QtMultimediaKit.in(.constdata)
    QRendererVideoWidgetBackend::staticMetaObject 0x00033028   Data          16  QtMultimediaKit.in(.constdata)
    QWindowVideoWidgetBackend::staticMetaObject 0x00033038   Data          16  QtMultimediaKit.in(.constdata)
    QVideoWindowControl::staticMetaObject    0x0003349c   Data          16  QtMultimediaKit.in(.constdata)
    QVideoWidgetControl::staticMetaObject    0x00033610   Data          16  QtMultimediaKit.in(.constdata)
    QAudioEncoderControl::staticMetaObject   0x000336d8   Data          16  QtMultimediaKit.in(.constdata)
    QVideoEncoderControl::staticMetaObject   0x0003373c   Data          16  QtMultimediaKit.in(.constdata)
    QImageEncoderControl::staticMetaObject   0x000337a0   Data          16  QtMultimediaKit.in(.constdata)
    QAudioCaptureSource::staticMetaObject    0x00033870   Data          16  QtMultimediaKit.in(.constdata)
    QMediaContainerControl::staticMetaObject 0x00033924   Data          16  QtMultimediaKit.in(.constdata)
    QMediaPlaylistControl::staticMetaObject  0x00033a20   Data          16  QtMultimediaKit.in(.constdata)
    QMediaPlaylistSourceControl::staticMetaObject 0x00033b04   Data          16  QtMultimediaKit.in(.constdata)
    QAudioEndpointSelector::staticMetaObject 0x00033bd8   Data          16  QtMultimediaKit.in(.constdata)
    QVideoDeviceControl::staticMetaObject    0x00033cec   Data          16  QtMultimediaKit.in(.constdata)
    QPainterVideoSurface::staticMetaObject   0x00033de8   Data          16  QtMultimediaKit.in(.constdata)
    QVideoRendererControl::staticMetaObject  0x00033e74   Data          16  QtMultimediaKit.in(.constdata)
    QCamera::staticMetaObject                0x0003438c   Data          16  QtMultimediaKit.in(.constdata)
    QCameraViewfinder::staticMetaObject      0x000347e8   Data          16  QtMultimediaKit.in(.constdata)
    QCameraExposure::staticMetaObject        0x00034cc8   Data          16  QtMultimediaKit.in(.constdata)
    QCameraFocus::staticMetaObject           0x000351bc   Data          16  QtMultimediaKit.in(.constdata)
    QCameraImageProcessing::staticMetaObject 0x00035354   Data          16  QtMultimediaKit.in(.constdata)
    QCameraImageCapture::staticMetaObject    0x00035554   Data          16  QtMultimediaKit.in(.constdata)
    QCameraImageCaptureControl::staticMetaObject 0x0003577c   Data          16  QtMultimediaKit.in(.constdata)
    QCameraControl::staticMetaObject         0x000358c8   Data          16  QtMultimediaKit.in(.constdata)
    QCameraLocksControl::staticMetaObject    0x000359e0   Data          16  QtMultimediaKit.in(.constdata)
    QCameraExposureControl::staticMetaObject 0x00035b40   Data          16  QtMultimediaKit.in(.constdata)
    QCameraFocusControl::staticMetaObject    0x00035cd0   Data          16  QtMultimediaKit.in(.constdata)
    QCameraFlashControl::staticMetaObject    0x00035da8   Data          16  QtMultimediaKit.in(.constdata)
    QCameraImageProcessingControl::staticMetaObject 0x00035e28   Data          16  QtMultimediaKit.in(.constdata)
    QGraphicsVideoItem::staticMetaObject     0x00035f40   Data          16  QtMultimediaKit.in(.constdata)
    QAudioOutput::staticMetaObject           0x000360a4   Data          16  QtMultimediaKit.in(.constdata)
    QAudioInput::staticMetaObject            0x0003614c   Data          16  QtMultimediaKit.in(.constdata)
    QAudioSystemPlugin::staticMetaObject     0x000361d4   Data          16  QtMultimediaKit.in(.constdata)
    QAbstractAudioDeviceInfo::staticMetaObject 0x000362ec   Data          16  QtMultimediaKit.in(.constdata)
    QAbstractAudioOutput::staticMetaObject   0x000362fc   Data          16  QtMultimediaKit.in(.constdata)
    QAbstractAudioInput::staticMetaObject    0x0003630c   Data          16  QtMultimediaKit.in(.constdata)
    QAudioDeviceInfoInternal::staticMetaObject 0x0003659c   Data          16  QtMultimediaKit.in(.constdata)
    SymbianAudioInputPrivate::staticMetaObject 0x000366b8   Data          16  QtMultimediaKit.in(.constdata)
    QAudioInputPrivate::staticMetaObject     0x000366c8   Data          16  QtMultimediaKit.in(.constdata)
    SymbianAudioOutputPrivate::staticMetaObject 0x0003689c   Data          16  QtMultimediaKit.in(.constdata)
    QAudioOutputPrivate::staticMetaObject    0x000368ac   Data          16  QtMultimediaKit.in(.constdata)
    QSoundEffectPrivate::staticMetaObject    0x00036a34   Data          16  QtMultimediaKit.in(.constdata)
    QSoundEffect::staticMetaObject           0x00036c18   Data          16  QtMultimediaKit.in(.constdata)
    QWaveDecoder::staticMetaObject           0x00036e50   Data          16  QtMultimediaKit.in(.constdata)
    QAbstractVideoSurface::staticMetaObject  0x00036f8c   Data          16  QtMultimediaKit.in(.constdata)
    typeinfo for QAudioInput                 0x00037038   Data          12  QtMultimediaKit.in(.constdata__ZTI11QAudioInput)
    typeinfo for QRadioTuner                 0x00037044   Data          12  QtMultimediaKit.in(.constdata__ZTI11QRadioTuner)
    typeinfo for QAudioOutput                0x00037050   Data          12  QtMultimediaKit.in(.constdata__ZTI12QAudioOutput)
    typeinfo for QCameraFocus                0x0003705c   Data          12  QtMultimediaKit.in(.constdata__ZTI12QCameraFocus)
    typeinfo for QMediaObject                0x00037068   Data          12  QtMultimediaKit.in(.constdata__ZTI12QMediaObject)
    typeinfo for QMediaPlayer                0x00037074   Data          12  QtMultimediaKit.in(.constdata__ZTI12QMediaPlayer)
    typeinfo for QSoundEffect                0x00037080   Data          12  QtMultimediaKit.in(.constdata__ZTI12QSoundEffect)
    typeinfo for QVideoWidget                0x0003708c   Data          32  QtMultimediaKit.in(.constdata__ZTI12QVideoWidget)
    typeinfo for QWaveDecoder                0x000370ac   Data          12  QtMultimediaKit.in(.constdata__ZTI12QWaveDecoder)
    typeinfo for QMediaControl               0x000370b8   Data          12  QtMultimediaKit.in(.constdata__ZTI13QMediaControl)
    typeinfo for QMediaService               0x000370c4   Data          12  QtMultimediaKit.in(.constdata__ZTI13QMediaService)
    typeinfo for QCameraControl              0x000370d0   Data          12  QtMultimediaKit.in(.constdata__ZTI14QCameraControl)
    typeinfo for QCameraPrivate              0x000370dc   Data          12  QtMultimediaKit.in(.constdata__ZTI14QCameraPrivate)
    typeinfo for QMediaPlaylist              0x000370e8   Data          32  QtMultimediaKit.in(.constdata__ZTI14QMediaPlaylist)
    typeinfo for QMediaRecorder              0x00037108   Data          32  QtMultimediaKit.in(.constdata__ZTI14QMediaRecorder)
    typeinfo for QCameraExposure             0x00037128   Data          12  QtMultimediaKit.in(.constdata__ZTI15QCameraExposure)
    typeinfo for QNullDeviceInfo             0x00037134   Data          12  QtMultimediaKit.in(.constdata__ZTI15QNullDeviceInfo)
    typeinfo for QNullInputDevice            0x00037140   Data          12  QtMultimediaKit.in(.constdata__ZTI16QNullInputDevice)
    typeinfo for MDevSoundObserver           0x0003714c   Data           8  QtMultimediaKit.in(.constdata__ZTI17MDevSoundObserver)
    typeinfo for QCameraViewfinder           0x00037154   Data          12  QtMultimediaKit.in(.constdata__ZTI17QCameraViewfinder)
    typeinfo for QFactoryInterface           0x00037160   Data           8  QtMultimediaKit.in(.constdata__ZTI17QFactoryInterface)
    typeinfo for QImageVideoBuffer           0x00037168   Data          12  QtMultimediaKit.in(.constdata__ZTI17QImageVideoBuffer)
    typeinfo for QMediaImageViewer           0x00037174   Data          12  QtMultimediaKit.in(.constdata__ZTI17QMediaImageViewer)
    typeinfo for QNullOutputDevice           0x00037180   Data          12  QtMultimediaKit.in(.constdata__ZTI17QNullOutputDevice)
    typeinfo for QAudioInputPrivate          0x0003718c   Data          12  QtMultimediaKit.in(.constdata__ZTI18QAudioInputPrivate)
    typeinfo for QAudioSystemPlugin          0x00037198   Data          32  QtMultimediaKit.in(.constdata__ZTI18QAudioSystemPlugin)
    typeinfo for QGraphicsVideoItem          0x000371b8   Data          32  QtMultimediaKit.in(.constdata__ZTI18QGraphicsVideoItem)
    typeinfo for QMemoryVideoBuffer          0x000371d8   Data          12  QtMultimediaKit.in(.constdata__ZTI18QMemoryVideoBuffer)
    typeinfo for QRadioTunerControl          0x000371e4   Data          12  QtMultimediaKit.in(.constdata__ZTI18QRadioTunerControl)
    typeinfo for QRadioTunerPrivate          0x000371f0   Data          12  QtMultimediaKit.in(.constdata__ZTI18QRadioTunerPrivate)
    typeinfo for QAbstractAudioInput         0x000371fc   Data          12  QtMultimediaKit.in(.constdata__ZTI19QAbstractAudioInput)
    typeinfo for QAudioCaptureSource         0x00037208   Data          12  QtMultimediaKit.in(.constdata__ZTI19QAudioCaptureSource)
    typeinfo for QAudioOutputPrivate         0x00037214   Data          12  QtMultimediaKit.in(.constdata__ZTI19QAudioOutputPrivate)
    typeinfo for QCameraFlashControl         0x00037220   Data          12  QtMultimediaKit.in(.constdata__ZTI19QCameraFlashControl)
    typeinfo for QCameraFocusControl         0x0003722c   Data          12  QtMultimediaKit.in(.constdata__ZTI19QCameraFocusControl)
    typeinfo for QCameraFocusPrivate         0x00037238   Data          12  QtMultimediaKit.in(.constdata__ZTI19QCameraFocusPrivate)
    typeinfo for QCameraImageCapture         0x00037244   Data          32  QtMultimediaKit.in(.constdata__ZTI19QCameraImageCapture)
    typeinfo for QCameraLocksControl         0x00037264   Data          12  QtMultimediaKit.in(.constdata__ZTI19QCameraLocksControl)
    typeinfo for QMediaObjectPrivate         0x00037270   Data           8  QtMultimediaKit.in(.constdata__ZTI19QMediaObjectPrivate)
    typeinfo for QMediaPlayerControl         0x00037278   Data          12  QtMultimediaKit.in(.constdata__ZTI19QMediaPlayerControl)
    typeinfo for QMediaPlayerPrivate         0x00037284   Data          12  QtMultimediaKit.in(.constdata__ZTI19QMediaPlayerPrivate)
    typeinfo for QSoundEffectPrivate         0x00037290   Data          12  QtMultimediaKit.in(.constdata__ZTI19QSoundEffectPrivate)
    typeinfo for QVideoDeviceControl         0x0003729c   Data          12  QtMultimediaKit.in(.constdata__ZTI19QVideoDeviceControl)
    typeinfo for QVideoWidgetBackend         0x000372a8   Data          32  QtMultimediaKit.in(.constdata__ZTI19QVideoWidgetBackend)
    typeinfo for QVideoWidgetControl         0x000372c8   Data          12  QtMultimediaKit.in(.constdata__ZTI19QVideoWidgetControl)
    typeinfo for QVideoWindowControl         0x000372d4   Data          12  QtMultimediaKit.in(.constdata__ZTI19QVideoWindowControl)
    typeinfo for QAbstractAudioOutput        0x000372e0   Data          12  QtMultimediaKit.in(.constdata__ZTI20QAbstractAudioOutput)
    typeinfo for QAbstractVideoBuffer        0x000372ec   Data           8  QtMultimediaKit.in(.constdata__ZTI20QAbstractVideoBuffer)
    typeinfo for QAudioEncoderControl        0x000372f4   Data          12  QtMultimediaKit.in(.constdata__ZTI20QAudioEncoderControl)
    typeinfo for QImageEncoderControl        0x00037300   Data          12  QtMultimediaKit.in(.constdata__ZTI20QImageEncoderControl)
    typeinfo for QMediaControlPrivate        0x0003730c   Data           8  QtMultimediaKit.in(.constdata__ZTI20QMediaControlPrivate)
    typeinfo for QMediaPlaylistReader        0x00037314   Data           8  QtMultimediaKit.in(.constdata__ZTI20QMediaPlaylistReader)
    typeinfo for QMediaPlaylistWriter        0x0003731c   Data           8  QtMultimediaKit.in(.constdata__ZTI20QMediaPlaylistWriter)
    typeinfo for QMediaServicePrivate        0x00037324   Data           8  QtMultimediaKit.in(.constdata__ZTI20QMediaServicePrivate)
    typeinfo for QMediaStreamsControl        0x0003732c   Data          12  QtMultimediaKit.in(.constdata__ZTI20QMediaStreamsControl)
    typeinfo for QPainterVideoSurface        0x00037338   Data          12  QtMultimediaKit.in(.constdata__ZTI20QPainterVideoSurface)
    typeinfo for QVideoEncoderControl        0x00037344   Data          12  QtMultimediaKit.in(.constdata__ZTI20QVideoEncoderControl)
    typeinfo for QVideoSurfacePainter        0x00037350   Data           8  QtMultimediaKit.in(.constdata__ZTI20QVideoSurfacePainter)
    typeinfo for QAbstractVideoSurface       0x00037358   Data          12  QtMultimediaKit.in(.constdata__ZTI21QAbstractVideoSurface)
    typeinfo for QMediaPlaylistControl       0x00037364   Data          12  QtMultimediaKit.in(.constdata__ZTI21QMediaPlaylistControl)
    typeinfo for QMediaPlaylistPrivate       0x00037370   Data           8  QtMultimediaKit.in(.constdata__ZTI21QMediaPlaylistPrivate)
    typeinfo for QMediaRecorderControl       0x00037378   Data          12  QtMultimediaKit.in(.constdata__ZTI21QMediaRecorderControl)
    typeinfo for QMediaServiceProvider       0x00037384   Data          12  QtMultimediaKit.in(.constdata__ZTI21QMediaServiceProvider)
    typeinfo for QVideoRendererControl       0x00037390   Data          12  QtMultimediaKit.in(.constdata__ZTI21QVideoRendererControl)
    typeinfo for QAudioEndpointSelector      0x0003739c   Data          12  QtMultimediaKit.in(.constdata__ZTI22QAudioEndpointSelector)
    typeinfo for QCameraExposureControl      0x000373a8   Data          12  QtMultimediaKit.in(.constdata__ZTI22QCameraExposureControl)
    typeinfo for QCameraImageProcessing      0x000373b4   Data          12  QtMultimediaKit.in(.constdata__ZTI22QCameraImageProcessing)
    typeinfo for QMediaContainerControl      0x000373c0   Data          12  QtMultimediaKit.in(.constdata__ZTI22QMediaContainerControl)
    typeinfo for QMediaPlaylistIOPlugin      0x000373cc   Data          32  QtMultimediaKit.in(.constdata__ZTI22QMediaPlaylistIOPlugin)
    typeinfo for QMediaPlaylistProvider      0x000373ec   Data          12  QtMultimediaKit.in(.constdata__ZTI22QMediaPlaylistProvider)
    typeinfo for QMetaDataReaderControl      0x000373f8   Data          12  QtMultimediaKit.in(.constdata__ZTI22QMetaDataReaderControl)
    typeinfo for QMetaDataWriterControl      0x00037404   Data          12  QtMultimediaKit.in(.constdata__ZTI22QMetaDataWriterControl)
    typeinfo for QPluginServiceProvider      0x00037410   Data          12  QtMultimediaKit.in(.constdata__ZTI22QPluginServiceProvider)
    typeinfo for QMediaBindableInterface     0x0003741c   Data           8  QtMultimediaKit.in(.constdata__ZTI23QMediaBindableInterface)
    typeinfo for QMediaPlaylistNavigator     0x00037424   Data          12  QtMultimediaKit.in(.constdata__ZTI23QMediaPlaylistNavigator)
    typeinfo for QAbstractAudioDeviceInfo    0x00037430   Data          12  QtMultimediaKit.in(.constdata__ZTI24QAbstractAudioDeviceInfo)
    typeinfo for QAudioDeviceInfoInternal    0x0003743c   Data          12  QtMultimediaKit.in(.constdata__ZTI24QAudioDeviceInfoInternal)
    typeinfo for QImageVideoBufferPrivate    0x00037448   Data          12  QtMultimediaKit.in(.constdata__ZTI24QImageVideoBufferPrivate)
    typeinfo for QMediaImageViewerControl    0x00037454   Data          12  QtMultimediaKit.in(.constdata__ZTI24QMediaImageViewerControl)
    typeinfo for QMediaImageViewerPrivate    0x00037460   Data          12  QtMultimediaKit.in(.constdata__ZTI24QMediaImageViewerPrivate)
    typeinfo for QMediaImageViewerService    0x0003746c   Data          12  QtMultimediaKit.in(.constdata__ZTI24QMediaImageViewerService)
    typeinfo for SymbianAudioInputPrivate    0x00037478   Data          12  QtMultimediaKit.in(.constdata__ZTI24SymbianAudioInputPrivate)
    typeinfo for QGraphicsVideoItemPrivate   0x00037484   Data          12  QtMultimediaKit.in(.constdata__ZTI25QGraphicsVideoItemPrivate)
    typeinfo for QMediaImageViewerRenderer   0x00037490   Data          12  QtMultimediaKit.in(.constdata__ZTI25QMediaImageViewerRenderer)
    typeinfo for QMediaPlaylistIOInterface   0x0003749c   Data          12  QtMultimediaKit.in(.constdata__ZTI25QMediaPlaylistIOInterface)
    typeinfo for QMemoryVideoBufferPrivate   0x000374a8   Data          12  QtMultimediaKit.in(.constdata__ZTI25QMemoryVideoBufferPrivate)
    typeinfo for QWindowVideoWidgetBackend   0x000374b4   Data          12  QtMultimediaKit.in(.constdata__ZTI25QWindowVideoWidgetBackend)
    typeinfo for SymbianAudioOutputPrivate   0x000374c0   Data          12  QtMultimediaKit.in(.constdata__ZTI25SymbianAudioOutputPrivate)
    typeinfo for QAudioCaptureSourcePrivate  0x000374cc   Data          12  QtMultimediaKit.in(.constdata__ZTI26QAudioCaptureSourcePrivate)
    typeinfo for QCameraImageCaptureControl  0x000374d8   Data          12  QtMultimediaKit.in(.constdata__ZTI26QCameraImageCaptureControl)
    typeinfo for QLocalMediaPlaylistControl  0x000374e4   Data          12  QtMultimediaKit.in(.constdata__ZTI26QLocalMediaPlaylistControl)
    typeinfo for QMediaPlaylistNullProvider  0x000374f0   Data          12  QtMultimediaKit.in(.constdata__ZTI26QMediaPlaylistNullProvider)
    typeinfo for QVideoWidgetControlBackend  0x000374fc   Data          32  QtMultimediaKit.in(.constdata__ZTI26QVideoWidgetControlBackend)
    typeinfo for QAbstractVideoBufferPrivate 0x0003751c   Data           8  QtMultimediaKit.in(.constdata__ZTI27QAbstractVideoBufferPrivate)
    typeinfo for QLocalMediaPlaylistProvider 0x00037524   Data          12  QtMultimediaKit.in(.constdata__ZTI27QLocalMediaPlaylistProvider)
    typeinfo for QMediaPlaylistSourceControl 0x00037530   Data          12  QtMultimediaKit.in(.constdata__ZTI27QMediaPlaylistSourceControl)
    typeinfo for QMediaServiceProviderPlugin 0x0003753c   Data          32  QtMultimediaKit.in(.constdata__ZTI27QMediaServiceProviderPlugin)
    typeinfo for QRendererVideoWidgetBackend 0x0003755c   Data          12  QtMultimediaKit.in(.constdata__ZTI27QRendererVideoWidgetBackend)
    typeinfo for QVideoSurfaceGenericPainter 0x00037568   Data          12  QtMultimediaKit.in(.constdata__ZTI27QVideoSurfaceGenericPainter)
    typeinfo for QAudioSystemFactoryInterface 0x00037574   Data          12  QtMultimediaKit.in(.constdata__ZTI28QAudioSystemFactoryInterface)
    typeinfo for QVideoWidgetControlInterface 0x00037580   Data           8  QtMultimediaKit.in(.constdata__ZTI28QVideoWidgetControlInterface)
    typeinfo for QCameraImageProcessingControl 0x00037588   Data          12  QtMultimediaKit.in(.constdata__ZTI29QCameraImageProcessingControl)
    typeinfo for QCameraImageProcessingPrivate 0x00037594   Data          12  QtMultimediaKit.in(.constdata__ZTI29QCameraImageProcessingPrivate)
    typeinfo for QMediaPlaylistProviderPrivate 0x000375a0   Data           8  QtMultimediaKit.in(.constdata__ZTI29QMediaPlaylistProviderPrivate)
    typeinfo for QMediaImageViewerControlPrivate 0x000375a8   Data          12  QtMultimediaKit.in(.constdata__ZTI31QMediaImageViewerControlPrivate)
    typeinfo for QMediaImageViewerServicePrivate 0x000375b4   Data          12  QtMultimediaKit.in(.constdata__ZTI31QMediaImageViewerServicePrivate)
    typeinfo for QLocalMediaPlaylistProviderPrivate 0x000375c0   Data          12  QtMultimediaKit.in(.constdata__ZTI34QLocalMediaPlaylistProviderPrivate)
    typeinfo for QMediaServiceProviderFactoryInterface 0x000375cc   Data          12  QtMultimediaKit.in(.constdata__ZTI37QMediaServiceProviderFactoryInterface)
    typeinfo for QCamera                     0x000375d8   Data          12  QtMultimediaKit.in(.constdata__ZTI7QCamera)
    typeinfo for SymbianAudio::DevSoundWrapper 0x000375e4   Data          32  QtMultimediaKit.in(.constdata__ZTIN12SymbianAudio15DevSoundWrapperE)
    typeinfo for std::bad_alloc              0x00037604   Data          12  QtMultimediaKit.in(.constdata__ZTISt9bad_alloc)
    typeinfo name for QAudioInput            0x00037610   Data          14  QtMultimediaKit.in(.constdata__ZTS11QAudioInput)
    typeinfo name for QRadioTuner            0x0003761e   Data          14  QtMultimediaKit.in(.constdata__ZTS11QRadioTuner)
    typeinfo name for QAudioOutput           0x0003762c   Data          15  QtMultimediaKit.in(.constdata__ZTS12QAudioOutput)
    typeinfo name for QCameraFocus           0x0003763b   Data          15  QtMultimediaKit.in(.constdata__ZTS12QCameraFocus)
    typeinfo name for QMediaObject           0x0003764a   Data          15  QtMultimediaKit.in(.constdata__ZTS12QMediaObject)
    typeinfo name for QMediaPlayer           0x00037659   Data          15  QtMultimediaKit.in(.constdata__ZTS12QMediaPlayer)
    typeinfo name for QSoundEffect           0x00037668   Data          15  QtMultimediaKit.in(.constdata__ZTS12QSoundEffect)
    typeinfo name for QVideoWidget           0x00037677   Data          15  QtMultimediaKit.in(.constdata__ZTS12QVideoWidget)
    typeinfo name for QWaveDecoder           0x00037686   Data          15  QtMultimediaKit.in(.constdata__ZTS12QWaveDecoder)
    typeinfo name for QMediaControl          0x00037695   Data          16  QtMultimediaKit.in(.constdata__ZTS13QMediaControl)
    typeinfo name for QMediaService          0x000376a5   Data          16  QtMultimediaKit.in(.constdata__ZTS13QMediaService)
    typeinfo name for QCameraControl         0x000376b5   Data          17  QtMultimediaKit.in(.constdata__ZTS14QCameraControl)
    typeinfo name for QCameraPrivate         0x000376c6   Data          17  QtMultimediaKit.in(.constdata__ZTS14QCameraPrivate)
    typeinfo name for QMediaPlaylist         0x000376d7   Data          17  QtMultimediaKit.in(.constdata__ZTS14QMediaPlaylist)
    typeinfo name for QMediaRecorder         0x000376e8   Data          17  QtMultimediaKit.in(.constdata__ZTS14QMediaRecorder)
    typeinfo name for QCameraExposure        0x000376f9   Data          18  QtMultimediaKit.in(.constdata__ZTS15QCameraExposure)
    typeinfo name for QNullDeviceInfo        0x0003770b   Data          18  QtMultimediaKit.in(.constdata__ZTS15QNullDeviceInfo)
    typeinfo name for QNullInputDevice       0x0003771d   Data          19  QtMultimediaKit.in(.constdata__ZTS16QNullInputDevice)
    typeinfo name for MDevSoundObserver      0x00037730   Data          20  QtMultimediaKit.in(.constdata__ZTS17MDevSoundObserver)
    typeinfo name for QCameraViewfinder      0x00037744   Data          20  QtMultimediaKit.in(.constdata__ZTS17QCameraViewfinder)
    typeinfo name for QFactoryInterface      0x00037758   Data          20  QtMultimediaKit.in(.constdata__ZTS17QFactoryInterface)
    typeinfo name for QImageVideoBuffer      0x0003776c   Data          20  QtMultimediaKit.in(.constdata__ZTS17QImageVideoBuffer)
    typeinfo name for QMediaImageViewer      0x00037780   Data          20  QtMultimediaKit.in(.constdata__ZTS17QMediaImageViewer)
    typeinfo name for QNullOutputDevice      0x00037794   Data          20  QtMultimediaKit.in(.constdata__ZTS17QNullOutputDevice)
    typeinfo name for QAudioInputPrivate     0x000377a8   Data          21  QtMultimediaKit.in(.constdata__ZTS18QAudioInputPrivate)
    typeinfo name for QAudioSystemPlugin     0x000377bd   Data          21  QtMultimediaKit.in(.constdata__ZTS18QAudioSystemPlugin)
    typeinfo name for QGraphicsVideoItem     0x000377d2   Data          21  QtMultimediaKit.in(.constdata__ZTS18QGraphicsVideoItem)
    typeinfo name for QMemoryVideoBuffer     0x000377e7   Data          21  QtMultimediaKit.in(.constdata__ZTS18QMemoryVideoBuffer)
    typeinfo name for QRadioTunerControl     0x000377fc   Data          21  QtMultimediaKit.in(.constdata__ZTS18QRadioTunerControl)
    typeinfo name for QRadioTunerPrivate     0x00037811   Data          21  QtMultimediaKit.in(.constdata__ZTS18QRadioTunerPrivate)
    typeinfo name for QAbstractAudioInput    0x00037826   Data          22  QtMultimediaKit.in(.constdata__ZTS19QAbstractAudioInput)
    typeinfo name for QAudioCaptureSource    0x0003783c   Data          22  QtMultimediaKit.in(.constdata__ZTS19QAudioCaptureSource)
    typeinfo name for QAudioOutputPrivate    0x00037852   Data          22  QtMultimediaKit.in(.constdata__ZTS19QAudioOutputPrivate)
    typeinfo name for QCameraFlashControl    0x00037868   Data          22  QtMultimediaKit.in(.constdata__ZTS19QCameraFlashControl)
    typeinfo name for QCameraFocusControl    0x0003787e   Data          22  QtMultimediaKit.in(.constdata__ZTS19QCameraFocusControl)
    typeinfo name for QCameraFocusPrivate    0x00037894   Data          22  QtMultimediaKit.in(.constdata__ZTS19QCameraFocusPrivate)
    typeinfo name for QCameraImageCapture    0x000378aa   Data          22  QtMultimediaKit.in(.constdata__ZTS19QCameraImageCapture)
    typeinfo name for QCameraLocksControl    0x000378c0   Data          22  QtMultimediaKit.in(.constdata__ZTS19QCameraLocksControl)
    typeinfo name for QMediaObjectPrivate    0x000378d6   Data          22  QtMultimediaKit.in(.constdata__ZTS19QMediaObjectPrivate)
    typeinfo name for QMediaPlayerControl    0x000378ec   Data          22  QtMultimediaKit.in(.constdata__ZTS19QMediaPlayerControl)
    typeinfo name for QMediaPlayerPrivate    0x00037902   Data          22  QtMultimediaKit.in(.constdata__ZTS19QMediaPlayerPrivate)
    typeinfo name for QSoundEffectPrivate    0x00037918   Data          22  QtMultimediaKit.in(.constdata__ZTS19QSoundEffectPrivate)
    typeinfo name for QVideoDeviceControl    0x0003792e   Data          22  QtMultimediaKit.in(.constdata__ZTS19QVideoDeviceControl)
    typeinfo name for QVideoWidgetBackend    0x00037944   Data          22  QtMultimediaKit.in(.constdata__ZTS19QVideoWidgetBackend)
    typeinfo name for QVideoWidgetControl    0x0003795a   Data          22  QtMultimediaKit.in(.constdata__ZTS19QVideoWidgetControl)
    typeinfo name for QVideoWindowControl    0x00037970   Data          22  QtMultimediaKit.in(.constdata__ZTS19QVideoWindowControl)
    typeinfo name for QAbstractAudioOutput   0x00037986   Data          23  QtMultimediaKit.in(.constdata__ZTS20QAbstractAudioOutput)
    typeinfo name for QAbstractVideoBuffer   0x0003799d   Data          23  QtMultimediaKit.in(.constdata__ZTS20QAbstractVideoBuffer)
    typeinfo name for QAudioEncoderControl   0x000379b4   Data          23  QtMultimediaKit.in(.constdata__ZTS20QAudioEncoderControl)
    typeinfo name for QImageEncoderControl   0x000379cb   Data          23  QtMultimediaKit.in(.constdata__ZTS20QImageEncoderControl)
    typeinfo name for QMediaControlPrivate   0x000379e2   Data          23  QtMultimediaKit.in(.constdata__ZTS20QMediaControlPrivate)
    typeinfo name for QMediaPlaylistReader   0x000379f9   Data          23  QtMultimediaKit.in(.constdata__ZTS20QMediaPlaylistReader)
    typeinfo name for QMediaPlaylistWriter   0x00037a10   Data          23  QtMultimediaKit.in(.constdata__ZTS20QMediaPlaylistWriter)
    typeinfo name for QMediaServicePrivate   0x00037a27   Data          23  QtMultimediaKit.in(.constdata__ZTS20QMediaServicePrivate)
    typeinfo name for QMediaStreamsControl   0x00037a3e   Data          23  QtMultimediaKit.in(.constdata__ZTS20QMediaStreamsControl)
    typeinfo name for QPainterVideoSurface   0x00037a55   Data          23  QtMultimediaKit.in(.constdata__ZTS20QPainterVideoSurface)
    typeinfo name for QVideoEncoderControl   0x00037a6c   Data          23  QtMultimediaKit.in(.constdata__ZTS20QVideoEncoderControl)
    typeinfo name for QVideoSurfacePainter   0x00037a83   Data          23  QtMultimediaKit.in(.constdata__ZTS20QVideoSurfacePainter)
    typeinfo name for QAbstractVideoSurface  0x00037a9a   Data          24  QtMultimediaKit.in(.constdata__ZTS21QAbstractVideoSurface)
    typeinfo name for QMediaPlaylistControl  0x00037ab2   Data          24  QtMultimediaKit.in(.constdata__ZTS21QMediaPlaylistControl)
    typeinfo name for QMediaPlaylistPrivate  0x00037aca   Data          24  QtMultimediaKit.in(.constdata__ZTS21QMediaPlaylistPrivate)
    typeinfo name for QMediaRecorderControl  0x00037ae2   Data          24  QtMultimediaKit.in(.constdata__ZTS21QMediaRecorderControl)
    typeinfo name for QMediaServiceProvider  0x00037afa   Data          24  QtMultimediaKit.in(.constdata__ZTS21QMediaServiceProvider)
    typeinfo name for QVideoRendererControl  0x00037b12   Data          24  QtMultimediaKit.in(.constdata__ZTS21QVideoRendererControl)
    typeinfo name for QAudioEndpointSelector 0x00037b2a   Data          25  QtMultimediaKit.in(.constdata__ZTS22QAudioEndpointSelector)
    typeinfo name for QCameraExposureControl 0x00037b43   Data          25  QtMultimediaKit.in(.constdata__ZTS22QCameraExposureControl)
    typeinfo name for QCameraImageProcessing 0x00037b5c   Data          25  QtMultimediaKit.in(.constdata__ZTS22QCameraImageProcessing)
    typeinfo name for QMediaContainerControl 0x00037b75   Data          25  QtMultimediaKit.in(.constdata__ZTS22QMediaContainerControl)
    typeinfo name for QMediaPlaylistIOPlugin 0x00037b8e   Data          25  QtMultimediaKit.in(.constdata__ZTS22QMediaPlaylistIOPlugin)
    typeinfo name for QMediaPlaylistProvider 0x00037ba7   Data          25  QtMultimediaKit.in(.constdata__ZTS22QMediaPlaylistProvider)
    typeinfo name for QMetaDataReaderControl 0x00037bc0   Data          25  QtMultimediaKit.in(.constdata__ZTS22QMetaDataReaderControl)
    typeinfo name for QMetaDataWriterControl 0x00037bd9   Data          25  QtMultimediaKit.in(.constdata__ZTS22QMetaDataWriterControl)
    typeinfo name for QPluginServiceProvider 0x00037bf2   Data          25  QtMultimediaKit.in(.constdata__ZTS22QPluginServiceProvider)
    typeinfo name for QMediaBindableInterface 0x00037c0b   Data          26  QtMultimediaKit.in(.constdata__ZTS23QMediaBindableInterface)
    typeinfo name for QMediaPlaylistNavigator 0x00037c25   Data          26  QtMultimediaKit.in(.constdata__ZTS23QMediaPlaylistNavigator)
    typeinfo name for QAbstractAudioDeviceInfo 0x00037c3f   Data          27  QtMultimediaKit.in(.constdata__ZTS24QAbstractAudioDeviceInfo)
    typeinfo name for QAudioDeviceInfoInternal 0x00037c5a   Data          27  QtMultimediaKit.in(.constdata__ZTS24QAudioDeviceInfoInternal)
    typeinfo name for QImageVideoBufferPrivate 0x00037c75   Data          27  QtMultimediaKit.in(.constdata__ZTS24QImageVideoBufferPrivate)
    typeinfo name for QMediaImageViewerControl 0x00037c90   Data          27  QtMultimediaKit.in(.constdata__ZTS24QMediaImageViewerControl)
    typeinfo name for QMediaImageViewerPrivate 0x00037cab   Data          27  QtMultimediaKit.in(.constdata__ZTS24QMediaImageViewerPrivate)
    typeinfo name for QMediaImageViewerService 0x00037cc6   Data          27  QtMultimediaKit.in(.constdata__ZTS24QMediaImageViewerService)
    typeinfo name for SymbianAudioInputPrivate 0x00037ce1   Data          27  QtMultimediaKit.in(.constdata__ZTS24SymbianAudioInputPrivate)
    typeinfo name for QGraphicsVideoItemPrivate 0x00037cfc   Data          28  QtMultimediaKit.in(.constdata__ZTS25QGraphicsVideoItemPrivate)
    typeinfo name for QMediaImageViewerRenderer 0x00037d18   Data          28  QtMultimediaKit.in(.constdata__ZTS25QMediaImageViewerRenderer)
    typeinfo name for QMediaPlaylistIOInterface 0x00037d34   Data          28  QtMultimediaKit.in(.constdata__ZTS25QMediaPlaylistIOInterface)
    typeinfo name for QMemoryVideoBufferPrivate 0x00037d50   Data          28  QtMultimediaKit.in(.constdata__ZTS25QMemoryVideoBufferPrivate)
    typeinfo name for QWindowVideoWidgetBackend 0x00037d6c   Data          28  QtMultimediaKit.in(.constdata__ZTS25QWindowVideoWidgetBackend)
    typeinfo name for SymbianAudioOutputPrivate 0x00037d88   Data          28  QtMultimediaKit.in(.constdata__ZTS25SymbianAudioOutputPrivate)
    typeinfo name for QAudioCaptureSourcePrivate 0x00037da4   Data          29  QtMultimediaKit.in(.constdata__ZTS26QAudioCaptureSourcePrivate)
    typeinfo name for QCameraImageCaptureControl 0x00037dc1   Data          29  QtMultimediaKit.in(.constdata__ZTS26QCameraImageCaptureControl)
    typeinfo name for QLocalMediaPlaylistControl 0x00037dde   Data          29  QtMultimediaKit.in(.constdata__ZTS26QLocalMediaPlaylistControl)
    typeinfo name for QMediaPlaylistNullProvider 0x00037dfb   Data          29  QtMultimediaKit.in(.constdata__ZTS26QMediaPlaylistNullProvider)
    typeinfo name for QVideoWidgetControlBackend 0x00037e18   Data          29  QtMultimediaKit.in(.constdata__ZTS26QVideoWidgetControlBackend)
    typeinfo name for QAbstractVideoBufferPrivate 0x00037e35   Data          30  QtMultimediaKit.in(.constdata__ZTS27QAbstractVideoBufferPrivate)
    typeinfo name for QLocalMediaPlaylistProvider 0x00037e53   Data          30  QtMultimediaKit.in(.constdata__ZTS27QLocalMediaPlaylistProvider)
    typeinfo name for QMediaPlaylistSourceControl 0x00037e71   Data          30  QtMultimediaKit.in(.constdata__ZTS27QMediaPlaylistSourceControl)
    typeinfo name for QMediaServiceProviderPlugin 0x00037e8f   Data          30  QtMultimediaKit.in(.constdata__ZTS27QMediaServiceProviderPlugin)
    typeinfo name for QRendererVideoWidgetBackend 0x00037ead   Data          30  QtMultimediaKit.in(.constdata__ZTS27QRendererVideoWidgetBackend)
    typeinfo name for QVideoSurfaceGenericPainter 0x00037ecb   Data          30  QtMultimediaKit.in(.constdata__ZTS27QVideoSurfaceGenericPainter)
    typeinfo name for QAudioSystemFactoryInterface 0x00037ee9   Data          31  QtMultimediaKit.in(.constdata__ZTS28QAudioSystemFactoryInterface)
    typeinfo name for QVideoWidgetControlInterface 0x00037f08   Data          31  QtMultimediaKit.in(.constdata__ZTS28QVideoWidgetControlInterface)
    typeinfo name for QCameraImageProcessingControl 0x00037f27   Data          32  QtMultimediaKit.in(.constdata__ZTS29QCameraImageProcessingControl)
    typeinfo name for QCameraImageProcessingPrivate 0x00037f47   Data          32  QtMultimediaKit.in(.constdata__ZTS29QCameraImageProcessingPrivate)
    typeinfo name for QMediaPlaylistProviderPrivate 0x00037f67   Data          32  QtMultimediaKit.in(.constdata__ZTS29QMediaPlaylistProviderPrivate)
    typeinfo name for QMediaImageViewerControlPrivate 0x00037f87   Data          34  QtMultimediaKit.in(.constdata__ZTS31QMediaImageViewerControlPrivate)
    typeinfo name for QMediaImageViewerServicePrivate 0x00037fa9   Data          34  QtMultimediaKit.in(.constdata__ZTS31QMediaImageViewerServicePrivate)
    typeinfo name for QLocalMediaPlaylistProviderPrivate 0x00037fcb   Data          37  QtMultimediaKit.in(.constdata__ZTS34QLocalMediaPlaylistProviderPrivate)
    typeinfo name for QMediaServiceProviderFactoryInterface 0x00037ff0   Data          40  QtMultimediaKit.in(.constdata__ZTS37QMediaServiceProviderFactoryInterface)
    typeinfo name for QCamera                0x00038018   Data           9  QtMultimediaKit.in(.constdata__ZTS7QCamera)
    typeinfo name for SymbianAudio::DevSoundWrapper 0x00038021   Data          34  QtMultimediaKit.in(.constdata__ZTSN12SymbianAudio15DevSoundWrapperE)
    typeinfo name for std::bad_alloc         0x00038043   Data          13  QtMultimediaKit.in(.constdata__ZTSSt9bad_alloc)
    vtable for QAudioInput                   0x00038050   Data          56  QtMultimediaKit.in(.constdata__ZTV11QAudioInput)
    vtable for QRadioTuner                   0x00038088   Data          76  QtMultimediaKit.in(.constdata__ZTV11QRadioTuner)
    vtable for QAudioOutput                  0x000380d4   Data          56  QtMultimediaKit.in(.constdata__ZTV12QAudioOutput)
    vtable for QCameraFocus                  0x0003810c   Data          56  QtMultimediaKit.in(.constdata__ZTV12QCameraFocus)
    vtable for QMediaObject                  0x00038144   Data          76  QtMultimediaKit.in(.constdata__ZTV12QMediaObject)
    vtable for QMediaPlayer                  0x00038190   Data          76  QtMultimediaKit.in(.constdata__ZTV12QMediaPlayer)
    vtable for QSoundEffect                  0x000381dc   Data          56  QtMultimediaKit.in(.constdata__ZTV12QSoundEffect)
    vtable for QVideoWidget                  0x00038214   Data         280  QtMultimediaKit.in(.constdata__ZTV12QVideoWidget)
    vtable for QWaveDecoder                  0x0003832c   Data         120  QtMultimediaKit.in(.constdata__ZTV12QWaveDecoder)
    vtable for QMediaControl                 0x000383a4   Data          56  QtMultimediaKit.in(.constdata__ZTV13QMediaControl)
    vtable for QMediaService                 0x000383dc   Data          64  QtMultimediaKit.in(.constdata__ZTV13QMediaService)
    vtable for QCameraControl                0x0003841c   Data          84  QtMultimediaKit.in(.constdata__ZTV14QCameraControl)
    vtable for QCameraPrivate                0x00038470   Data          16  QtMultimediaKit.in(.constdata__ZTV14QCameraPrivate)
    vtable for QMediaPlaylist                0x00038480   Data          88  QtMultimediaKit.in(.constdata__ZTV14QMediaPlaylist)
    vtable for QMediaRecorder                0x000384d8   Data          88  QtMultimediaKit.in(.constdata__ZTV14QMediaRecorder)
    vtable for QCameraExposure               0x00038530   Data          56  QtMultimediaKit.in(.constdata__ZTV15QCameraExposure)
    vtable for QNullDeviceInfo               0x00038568   Data          92  QtMultimediaKit.in(.constdata__ZTV15QNullDeviceInfo)
    vtable for QNullInputDevice              0x000385c4   Data         128  QtMultimediaKit.in(.constdata__ZTV16QNullInputDevice)
    vtable for QCameraViewfinder             0x00038644   Data         280  QtMultimediaKit.in(.constdata__ZTV17QCameraViewfinder)
    vtable for QImageVideoBuffer             0x0003875c   Data          32  QtMultimediaKit.in(.constdata__ZTV17QImageVideoBuffer)
    vtable for QMediaImageViewer             0x0003877c   Data          76  QtMultimediaKit.in(.constdata__ZTV17QMediaImageViewer)
    vtable for QNullOutputDevice             0x000387c8   Data         128  QtMultimediaKit.in(.constdata__ZTV17QNullOutputDevice)
    vtable for QAudioInputPrivate            0x00038848   Data         128  QtMultimediaKit.in(.constdata__ZTV18QAudioInputPrivate)
    vtable for QAudioSystemPlugin            0x000388c8   Data         112  QtMultimediaKit.in(.constdata__ZTV18QAudioSystemPlugin)
    vtable for QGraphicsVideoItem            0x00038938   Data         256  QtMultimediaKit.in(.constdata__ZTV18QGraphicsVideoItem)
    vtable for QMemoryVideoBuffer            0x00038a38   Data          32  QtMultimediaKit.in(.constdata__ZTV18QMemoryVideoBuffer)
    vtable for QRadioTunerControl            0x00038a58   Data         160  QtMultimediaKit.in(.constdata__ZTV18QRadioTunerControl)
    vtable for QRadioTunerPrivate            0x00038af8   Data          16  QtMultimediaKit.in(.constdata__ZTV18QRadioTunerPrivate)
    vtable for QAbstractAudioInput           0x00038b08   Data         128  QtMultimediaKit.in(.constdata__ZTV19QAbstractAudioInput)
    vtable for QAudioCaptureSource           0x00038b88   Data          76  QtMultimediaKit.in(.constdata__ZTV19QAudioCaptureSource)
    vtable for QAudioOutputPrivate           0x00038bd4   Data         128  QtMultimediaKit.in(.constdata__ZTV19QAudioOutputPrivate)
    vtable for QCameraFlashControl           0x00038c54   Data          72  QtMultimediaKit.in(.constdata__ZTV19QCameraFlashControl)
    vtable for QCameraFocusControl           0x00038c9c   Data         112  QtMultimediaKit.in(.constdata__ZTV19QCameraFocusControl)
    vtable for QCameraFocusPrivate           0x00038d0c   Data          16  QtMultimediaKit.in(.constdata__ZTV19QCameraFocusPrivate)
    vtable for QCameraImageCapture           0x00038d1c   Data          88  QtMultimediaKit.in(.constdata__ZTV19QCameraImageCapture)
    vtable for QCameraLocksControl           0x00038d74   Data          72  QtMultimediaKit.in(.constdata__ZTV19QCameraLocksControl)
    vtable for QMediaObjectPrivate           0x00038dbc   Data          16  QtMultimediaKit.in(.constdata__ZTV19QMediaObjectPrivate)
    vtable for QMediaPlayerControl           0x00038dcc   Data         144  QtMultimediaKit.in(.constdata__ZTV19QMediaPlayerControl)
    vtable for QMediaPlayerPrivate           0x00038e5c   Data          16  QtMultimediaKit.in(.constdata__ZTV19QMediaPlayerPrivate)
    vtable for QSoundEffectPrivate           0x00038e6c   Data          56  QtMultimediaKit.in(.constdata__ZTV19QSoundEffectPrivate)
    vtable for QVideoDeviceControl           0x00038ea4   Data          84  QtMultimediaKit.in(.constdata__ZTV19QVideoDeviceControl)
    vtable for QVideoWidgetBackend           0x00038ef8   Data         124  QtMultimediaKit.in(.constdata__ZTV19QVideoWidgetBackend)
    vtable for QVideoWidgetControl           0x00038f74   Data         108  QtMultimediaKit.in(.constdata__ZTV19QVideoWidgetControl)
    vtable for QVideoWindowControl           0x00038fe0   Data         128  QtMultimediaKit.in(.constdata__ZTV19QVideoWindowControl)
    vtable for QAbstractAudioOutput          0x00039060   Data         128  QtMultimediaKit.in(.constdata__ZTV20QAbstractAudioOutput)
    vtable for QAbstractVideoBuffer          0x000390e0   Data          32  QtMultimediaKit.in(.constdata__ZTV20QAbstractVideoBuffer)
    vtable for QAudioEncoderControl          0x00039100   Data          88  QtMultimediaKit.in(.constdata__ZTV20QAudioEncoderControl)
    vtable for QImageEncoderControl          0x00039158   Data          76  QtMultimediaKit.in(.constdata__ZTV20QImageEncoderControl)
    vtable for QMediaControlPrivate          0x000391a4   Data          16  QtMultimediaKit.in(.constdata__ZTV20QMediaControlPrivate)
    vtable for QMediaPlaylistReader          0x000391b4   Data          28  QtMultimediaKit.in(.constdata__ZTV20QMediaPlaylistReader)
    vtable for QMediaPlaylistWriter          0x000391d0   Data          24  QtMultimediaKit.in(.constdata__ZTV20QMediaPlaylistWriter)
    vtable for QMediaServicePrivate          0x000391e8   Data          16  QtMultimediaKit.in(.constdata__ZTV20QMediaServicePrivate)
    vtable for QMediaStreamsControl          0x000391f8   Data          76  QtMultimediaKit.in(.constdata__ZTV20QMediaStreamsControl)
    vtable for QPainterVideoSurface          0x00039244   Data          80  QtMultimediaKit.in(.constdata__ZTV20QPainterVideoSurface)
    vtable for QVideoEncoderControl          0x00039294   Data          92  QtMultimediaKit.in(.constdata__ZTV20QVideoEncoderControl)
    vtable for QAbstractVideoSurface         0x000392f0   Data          80  QtMultimediaKit.in(.constdata__ZTV21QAbstractVideoSurface)
    vtable for QMediaPlaylistControl         0x00039340   Data          96  QtMultimediaKit.in(.constdata__ZTV21QMediaPlaylistControl)
    vtable for QMediaPlaylistPrivate         0x000393a0   Data          16  QtMultimediaKit.in(.constdata__ZTV21QMediaPlaylistPrivate)
    vtable for QMediaRecorderControl         0x000393b0   Data          96  QtMultimediaKit.in(.constdata__ZTV21QMediaRecorderControl)
    vtable for QMediaServiceProvider         0x00039410   Data          80  QtMultimediaKit.in(.constdata__ZTV21QMediaServiceProvider)
    vtable for QVideoRendererControl         0x00039460   Data          64  QtMultimediaKit.in(.constdata__ZTV21QVideoRendererControl)
    vtable for QAudioEndpointSelector        0x000394a0   Data          76  QtMultimediaKit.in(.constdata__ZTV22QAudioEndpointSelector)
    vtable for QCameraExposureControl        0x000394ec   Data         104  QtMultimediaKit.in(.constdata__ZTV22QCameraExposureControl)
    vtable for QCameraImageProcessing        0x00039554   Data          56  QtMultimediaKit.in(.constdata__ZTV22QCameraImageProcessing)
    vtable for QMediaContainerControl        0x0003958c   Data          72  QtMultimediaKit.in(.constdata__ZTV22QMediaContainerControl)
    vtable for QMediaPlaylistIOPlugin        0x000395d4   Data         128  QtMultimediaKit.in(.constdata__ZTV22QMediaPlaylistIOPlugin)
    vtable for QMediaPlaylistProvider        0x00039654   Data         116  QtMultimediaKit.in(.constdata__ZTV22QMediaPlaylistProvider)
    vtable for QMetaDataReaderControl        0x000396c8   Data          76  QtMultimediaKit.in(.constdata__ZTV22QMetaDataReaderControl)
    vtable for QMetaDataWriterControl        0x00039714   Data          88  QtMultimediaKit.in(.constdata__ZTV22QMetaDataWriterControl)
    vtable for QPluginServiceProvider        0x0003976c   Data          80  QtMultimediaKit.in(.constdata__ZTV22QPluginServiceProvider)
    vtable for QMediaBindableInterface       0x000397bc   Data          24  QtMultimediaKit.in(.constdata__ZTV23QMediaBindableInterface)
    vtable for QMediaPlaylistNavigator       0x000397d4   Data          56  QtMultimediaKit.in(.constdata__ZTV23QMediaPlaylistNavigator)
    vtable for QAbstractAudioDeviceInfo      0x0003980c   Data          92  QtMultimediaKit.in(.constdata__ZTV24QAbstractAudioDeviceInfo)
    vtable for QAudioDeviceInfoInternal      0x00039868   Data          92  QtMultimediaKit.in(.constdata__ZTV24QAudioDeviceInfoInternal)
    vtable for QImageVideoBufferPrivate      0x000398c4   Data          16  QtMultimediaKit.in(.constdata__ZTV24QImageVideoBufferPrivate)
    vtable for QMediaImageViewerControl      0x000398d4   Data          56  QtMultimediaKit.in(.constdata__ZTV24QMediaImageViewerControl)
    vtable for QMediaImageViewerPrivate      0x0003990c   Data          16  QtMultimediaKit.in(.constdata__ZTV24QMediaImageViewerPrivate)
    vtable for QMediaImageViewerService      0x0003991c   Data          64  QtMultimediaKit.in(.constdata__ZTV24QMediaImageViewerService)
    vtable for SymbianAudioInputPrivate      0x0003995c   Data         120  QtMultimediaKit.in(.constdata__ZTV24SymbianAudioInputPrivate)
    vtable for QGraphicsVideoItemPrivate     0x000399d4   Data          56  QtMultimediaKit.in(.constdata__ZTV25QGraphicsVideoItemPrivate)
    vtable for QMediaImageViewerRenderer     0x00039a0c   Data          64  QtMultimediaKit.in(.constdata__ZTV25QMediaImageViewerRenderer)
    vtable for QMemoryVideoBufferPrivate     0x00039a4c   Data          16  QtMultimediaKit.in(.constdata__ZTV25QMemoryVideoBufferPrivate)
    vtable for QWindowVideoWidgetBackend     0x00039a5c   Data         152  QtMultimediaKit.in(.constdata__ZTV25QWindowVideoWidgetBackend)
    vtable for SymbianAudioOutputPrivate     0x00039af4   Data         120  QtMultimediaKit.in(.constdata__ZTV25SymbianAudioOutputPrivate)
    vtable for QAudioCaptureSourcePrivate    0x00039b6c   Data          16  QtMultimediaKit.in(.constdata__ZTV26QAudioCaptureSourcePrivate)
    vtable for QCameraImageCaptureControl    0x00039b7c   Data          76  QtMultimediaKit.in(.constdata__ZTV26QCameraImageCaptureControl)
    vtable for QLocalMediaPlaylistControl    0x00039bc8   Data          96  QtMultimediaKit.in(.constdata__ZTV26QLocalMediaPlaylistControl)
    vtable for QMediaPlaylistNullProvider    0x00039c28   Data         116  QtMultimediaKit.in(.constdata__ZTV26QMediaPlaylistNullProvider)
    vtable for QVideoWidgetControlBackend    0x00039c9c   Data         128  QtMultimediaKit.in(.constdata__ZTV26QVideoWidgetControlBackend)
    vtable for QAbstractVideoBufferPrivate   0x00039d1c   Data          16  QtMultimediaKit.in(.constdata__ZTV27QAbstractVideoBufferPrivate)
    vtable for QLocalMediaPlaylistProvider   0x00039d2c   Data         116  QtMultimediaKit.in(.constdata__ZTV27QLocalMediaPlaylistProvider)
    vtable for QMediaPlaylistSourceControl   0x00039da0   Data          64  QtMultimediaKit.in(.constdata__ZTV27QMediaPlaylistSourceControl)
    vtable for QMediaServiceProviderPlugin   0x00039de0   Data          96  QtMultimediaKit.in(.constdata__ZTV27QMediaServiceProviderPlugin)
    vtable for QRendererVideoWidgetBackend   0x00039e40   Data         152  QtMultimediaKit.in(.constdata__ZTV27QRendererVideoWidgetBackend)
    vtable for QVideoSurfaceGenericPainter   0x00039ed8   Data          48  QtMultimediaKit.in(.constdata__ZTV27QVideoSurfaceGenericPainter)
    vtable for QCameraImageProcessingControl 0x00039f08   Data          80  QtMultimediaKit.in(.constdata__ZTV29QCameraImageProcessingControl)
    vtable for QCameraImageProcessingPrivate 0x00039f58   Data          16  QtMultimediaKit.in(.constdata__ZTV29QCameraImageProcessingPrivate)
    vtable for QMediaPlaylistProviderPrivate 0x00039f68   Data          16  QtMultimediaKit.in(.constdata__ZTV29QMediaPlaylistProviderPrivate)
    vtable for QMediaImageViewerControlPrivate 0x00039f78   Data          16  QtMultimediaKit.in(.constdata__ZTV31QMediaImageViewerControlPrivate)
    vtable for QMediaImageViewerServicePrivate 0x00039f88   Data          16  QtMultimediaKit.in(.constdata__ZTV31QMediaImageViewerServicePrivate)
    vtable for QLocalMediaPlaylistProviderPrivate 0x00039f98   Data          16  QtMultimediaKit.in(.constdata__ZTV34QLocalMediaPlaylistProviderPrivate)
    vtable for QCamera                       0x00039fa8   Data          76  QtMultimediaKit.in(.constdata__ZTV7QCamera)
    vtable for SymbianAudio::DevSoundWrapper 0x00039ff4   Data         132  QtMultimediaKit.in(.constdata__ZTVN12SymbianAudio15DevSoundWrapperE)
    SHT$$INIT_ARRAY$$Base                    0x0003a078   Number         0  QtMultimediaKit.in(.init_array)
    .ARM.exidx$$Base                         0x0003a094   Number         0  ucppinit_aeabi.o(.ARM.exidx)
    SHT$$INIT_ARRAY$$Limit                   0x0003a094   Data           0  QtMultimediaKit.in(.init_array)
    .ARM.exidx$$Limit                        0x0003ce74   Number         0  QtMultimediaKit.in(.ARM.exidx)
    Image$$ER_RO$$Limit                      0x0003ce74   Number         0  anon$$obj.o(linker$$defined$$symbols)
    <unnamed>::_registerCameraMetaTypes      0x00400050   Data           1  QtMultimediaKit.in(.data)
    __dso_handle                             0x00400064   Data           4  ucppfini.o(.data)
    QMetaTypeId<QNetworkRequest>::qt_metatype_id()::metatype_id 0x00400068   Data           4  QtMultimediaKit.in(.data__ZZN11QMetaTypeIdI15QNetworkRequestE14qt_metatype_idEvE11metatype_id)
    QMetaTypeId<QVideoSurfaceFormat>::qt_metatype_id()::metatype_id 0x0040006c   Data           4  QtMultimediaKit.in(.data__ZZN11QMetaTypeIdI19QVideoSurfaceFormatE14qt_metatype_idEvE11metatype_id)
    QMetaTypeId<QFlags<QCameraFocus::FocusMode>>::qt_metatype_id()::metatype_id 0x00400070   Data           4  QtMultimediaKit.in(.data__ZZN11QMetaTypeIdI6QFlagsIN12QCameraFocus9FocusModeEEE14qt_metatype_idEvE11metatype_id)
    QMetaTypeId<QFlags<QCameraExposure::FlashMode>>::qt_metatype_id()::metatype_id 0x00400074   Data           4  QtMultimediaKit.in(.data__ZZN11QMetaTypeIdI6QFlagsIN15QCameraExposure9FlashModeEEE14qt_metatype_idEvE11metatype_id)
    QMetaTypeId<QVideoFrame::PixelFormat>::qt_metatype_id()::metatype_id 0x00400078   Data           4  QtMultimediaKit.in(.data__ZZN11QMetaTypeIdIN11QVideoFrame11PixelFormatEE14qt_metatype_idEvE11metatype_id)
    QMetaTypeId<QCameraFocus::FocusPointMode>::qt_metatype_id()::metatype_id 0x0040007c   Data           4  QtMultimediaKit.in(.data__ZZN11QMetaTypeIdIN12QCameraFocus14FocusPointModeEE14qt_metatype_idEvE11metatype_id)
    QMetaTypeId<QMediaPlayer::MediaStatus>::qt_metatype_id()::metatype_id 0x00400080   Data           4  QtMultimediaKit.in(.data__ZZN11QMetaTypeIdIN12QMediaPlayer11MediaStatusEE14qt_metatype_idEvE11metatype_id)
    QMetaTypeId<QMediaPlayer::Error>::qt_metatype_id()::metatype_id 0x00400084   Data           4  QtMultimediaKit.in(.data__ZZN11QMetaTypeIdIN12QMediaPlayer5ErrorEE14qt_metatype_idEvE11metatype_id)
    QMetaTypeId<QMediaPlayer::State>::qt_metatype_id()::metatype_id 0x00400088   Data           4  QtMultimediaKit.in(.data__ZZN11QMetaTypeIdIN12QMediaPlayer5StateEE14qt_metatype_idEvE11metatype_id)
    QMetaTypeId<QMediaRecorder::Error>::qt_metatype_id()::metatype_id 0x0040008c   Data           4  QtMultimediaKit.in(.data__ZZN11QMetaTypeIdIN14QMediaRecorder5ErrorEE14qt_metatype_idEvE11metatype_id)
    QMetaTypeId<QMediaRecorder::State>::qt_metatype_id()::metatype_id 0x00400090   Data           4  QtMultimediaKit.in(.data__ZZN11QMetaTypeIdIN14QMediaRecorder5StateEE14qt_metatype_idEvE11metatype_id)
    QMetaTypeId<QCameraExposure::ExposureMode>::qt_metatype_id()::metatype_id 0x00400094   Data           4  QtMultimediaKit.in(.data__ZZN11QMetaTypeIdIN15QCameraExposure12ExposureModeEE14qt_metatype_idEvE11metatype_id)
    QMetaTypeId<QCameraExposure::MeteringMode>::qt_metatype_id()::metatype_id 0x00400098   Data           4  QtMultimediaKit.in(.data__ZZN11QMetaTypeIdIN15QCameraExposure12MeteringModeEE14qt_metatype_idEvE11metatype_id)
    QMetaTypeId<QCameraImageCapture::Error>::qt_metatype_id()::metatype_id 0x0040009c   Data           4  QtMultimediaKit.in(.data__ZZN11QMetaTypeIdIN19QCameraImageCapture5ErrorEE14qt_metatype_idEvE11metatype_id)
    QMetaTypeId<QVideoSurfaceFormat::YCbCrColorSpace>::qt_metatype_id()::metatype_id 0x004000a0   Data           4  QtMultimediaKit.in(.data__ZZN11QMetaTypeIdIN19QVideoSurfaceFormat15YCbCrColorSpaceEE14qt_metatype_idEvE11metatype_id)
    QMetaTypeId<QVideoSurfaceFormat::Direction>::qt_metatype_id()::metatype_id 0x004000a4   Data           4  QtMultimediaKit.in(.data__ZZN11QMetaTypeIdIN19QVideoSurfaceFormat9DirectionEE14qt_metatype_idEvE11metatype_id)
    QMetaTypeId<QAbstractVideoBuffer::HandleType>::qt_metatype_id()::metatype_id 0x004000a8   Data           4  QtMultimediaKit.in(.data__ZZN11QMetaTypeIdIN20QAbstractVideoBuffer10HandleTypeEE14qt_metatype_idEvE11metatype_id)
    QMetaTypeId<QAbstractVideoSurface::Error>::qt_metatype_id()::metatype_id 0x004000ac   Data           4  QtMultimediaKit.in(.data__ZZN11QMetaTypeIdIN21QAbstractVideoSurface5ErrorEE14qt_metatype_idEvE11metatype_id)
    QMetaTypeId<QAudio::Mode>::qt_metatype_id()::metatype_id 0x004000b0   Data           4  QtMultimediaKit.in(.data__ZZN11QMetaTypeIdIN6QAudio4ModeEE14qt_metatype_idEvE11metatype_id)
    QMetaTypeId<QAudio::Error>::qt_metatype_id()::metatype_id 0x004000b4   Data           4  QtMultimediaKit.in(.data__ZZN11QMetaTypeIdIN6QAudio5ErrorEE14qt_metatype_idEvE11metatype_id)
    QMetaTypeId<QAudio::State>::qt_metatype_id()::metatype_id 0x004000b8   Data           4  QtMultimediaKit.in(.data__ZZN11QMetaTypeIdIN6QAudio5StateEE14qt_metatype_idEvE11metatype_id)
    QMetaTypeId<QCamera::LockStatus>::qt_metatype_id()::metatype_id 0x004000bc   Data           4  QtMultimediaKit.in(.data__ZZN11QMetaTypeIdIN7QCamera10LockStatusEE14qt_metatype_idEvE11metatype_id)
    QMetaTypeId<QCamera::LockChangeReason>::qt_metatype_id()::metatype_id 0x004000c0   Data           4  QtMultimediaKit.in(.data__ZZN11QMetaTypeIdIN7QCamera16LockChangeReasonEE14qt_metatype_idEvE11metatype_id)
    QMetaTypeId<QCamera::Error>::qt_metatype_id()::metatype_id 0x004000c4   Data           4  QtMultimediaKit.in(.data__ZZN11QMetaTypeIdIN7QCamera5ErrorEE14qt_metatype_idEvE11metatype_id)
    QMetaTypeId<QCamera::State>::qt_metatype_id()::metatype_id 0x004000c8   Data           4  QtMultimediaKit.in(.data__ZZN11QMetaTypeIdIN7QCamera5StateEE14qt_metatype_idEvE11metatype_id)
    QMetaTypeId<QCamera::Status>::qt_metatype_id()::metatype_id 0x004000cc   Data           4  QtMultimediaKit.in(.data__ZZN11QMetaTypeIdIN7QCamera6StatusEE14qt_metatype_idEvE11metatype_id)
    QMetaTypeId<QCamera::LockType>::qt_metatype_id()::metatype_id 0x004000d0   Data           4  QtMultimediaKit.in(.data__ZZN11QMetaTypeIdIN7QCamera8LockTypeEE14qt_metatype_idEvE11metatype_id)

