ARM Linker, RVCT2.2 [Build 686]

================================================================================

Image Symbol Table

    Local Symbols

    Symbol Name                              Value     Ov Type        Size  Object(Section)

    ../../unhosted.s                         0x00000000   Number         0  switch8.o ABSOLUTE
    M:\\epoc32\\build\\euser\\c_e18a23aea4fd210f\\edll_lib\\armv5\\urel\\uc_dll_.cpp 0x00000000   Number         0  uc_dll_.o ABSOLUTE
    M:\\sf\\os\\kernelhwsrv\\kernel\\eka\\compsupp\\rvct\\ucppinit.cpp 0x00000000   Number         0  ucppinit.o ABSOLUTE
    M:\epoc32\build\euser\c_e18a23aea4fd210f\edll_lib\armv5\urel\uc_dll_.cpp 0x00000000   Number         0  uc_dll_.o ABSOLUTE
    M:\sf\os\kernelhwsrv\kernel\eka\compsupp\rvct\dllexp.cpp 0x00000000   Number         0  dllexp.o ABSOLUTE
    M:\sf\os\kernelhwsrv\kernel\eka\compsupp\rvct\ucppfini.cpp 0x00000000   Number         0  ucppfini.o ABSOLUTE
    M:\sf\os\kernelhwsrv\kernel\eka\compsupp\rvct\ucppinit.cpp 0x00000000   Number         0  ucppinit.o ABSOLUTE
    M:\sf\os\kernelhwsrv\kernel\eka\euser\epoc\arm\uc_dll.cpp 0x00000000   Number         0  uc_dll.o ABSOLUTE
    S:\sf\mw\qt\src\opengl\gl2paintengineex\qgl2pexvertexarray.cpp 0x00000000   Number         0  qgl2pexvertexarray.o ABSOLUTE
    S:\sf\mw\qt\src\opengl\gl2paintengineex\qglcustomshaderstage.cpp 0x00000000   Number         0  qglcustomshaderstage.o ABSOLUTE
    S:\sf\mw\qt\src\opengl\gl2paintengineex\qglengineshadermanager.cpp 0x00000000   Number         0  qglengineshadermanager.o ABSOLUTE
    S:\sf\mw\qt\src\opengl\gl2paintengineex\qglgradientcache.cpp 0x00000000   Number         0  qglgradientcache.o ABSOLUTE
    S:\sf\mw\qt\src\opengl\gl2paintengineex\qpaintengineex_opengl2.cpp 0x00000000   Number         0  qpaintengineex_opengl2.o ABSOLUTE
    S:\sf\mw\qt\src\opengl\gl2paintengineex\qtextureglyphcache_gl.cpp 0x00000000   Number         0  qtextureglyphcache_gl.o ABSOLUTE
    S:\sf\mw\qt\src\opengl\gl2paintengineex\qtriangulatingstroker.cpp 0x00000000   Number         0  qtriangulatingstroker.o ABSOLUTE
    S:\sf\mw\qt\src\opengl\gl2paintengineex\qtriangulator.cpp 0x00000000   Number         0  qtriangulator.o ABSOLUTE
    S:\sf\mw\qt\src\opengl\qgl.cpp           0x00000000   Number         0  qgl.o ABSOLUTE
    S:\sf\mw\qt\src\opengl\qgl_egl.cpp       0x00000000   Number         0  qgl_egl.o ABSOLUTE
    S:\sf\mw\qt\src\opengl\qgl_symbian.cpp   0x00000000   Number         0  qgl_symbian.o ABSOLUTE
    S:\sf\mw\qt\src\opengl\qglbuffer.cpp     0x00000000   Number         0  qglbuffer.o ABSOLUTE
    S:\sf\mw\qt\src\opengl\qglcolormap.cpp   0x00000000   Number         0  qglcolormap.o ABSOLUTE
    S:\sf\mw\qt\src\opengl\qglextensions.cpp 0x00000000   Number         0  qglextensions.o ABSOLUTE
    S:\sf\mw\qt\src\opengl\qglframebufferobject.cpp 0x00000000   Number         0  qglframebufferobject.o ABSOLUTE
    S:\sf\mw\qt\src\opengl\qglpaintdevice.cpp 0x00000000   Number         0  qglpaintdevice.o ABSOLUTE
    S:\sf\mw\qt\src\opengl\qglpixelbuffer.cpp 0x00000000   Number         0  qglpixelbuffer.o ABSOLUTE
    S:\sf\mw\qt\src\opengl\qglpixelbuffer_egl.cpp 0x00000000   Number         0  qglpixelbuffer_egl.o ABSOLUTE
    S:\sf\mw\qt\src\opengl\qglpixmapfilter.cpp 0x00000000   Number         0  qglpixmapfilter.o ABSOLUTE
    S:\sf\mw\qt\src\opengl\qglshaderprogram.cpp 0x00000000   Number         0  qglshaderprogram.o ABSOLUTE
    S:\sf\mw\qt\src\opengl\qgraphicsshadereffect.cpp 0x00000000   Number         0  qgraphicsshadereffect.o ABSOLUTE
    S:\sf\mw\qt\src\opengl\qgraphicssystem_gl.cpp 0x00000000   Number         0  qgraphicssystem_gl.o ABSOLUTE
    S:\sf\mw\qt\src\opengl\qpixmapdata_gl.cpp 0x00000000   Number         0  qpixmapdata_gl.o ABSOLUTE
    S:\sf\mw\qt\src\opengl\qwindowsurface_gl.cpp 0x00000000   Number         0  qwindowsurface_gl.o ABSOLUTE
    S:\sf\mw\qt\src\opengl\tmp\moc\debug_shared\moc_qgl.cpp 0x00000000   Number         0  moc_qgl.o ABSOLUTE
    S:\sf\mw\qt\src\opengl\tmp\moc\debug_shared\moc_qgl_p.cpp 0x00000000   Number         0  moc_qgl_p.o ABSOLUTE
    S:\sf\mw\qt\src\opengl\tmp\moc\debug_shared\moc_qglengineshadermanager_p.cpp 0x00000000   Number         0  moc_qglengineshadermanager_p.o ABSOLUTE
    S:\sf\mw\qt\src\opengl\tmp\moc\debug_shared\moc_qglshaderprogram.cpp 0x00000000   Number         0  moc_qglshaderprogram.o ABSOLUTE
    S:\sf\mw\qt\src\opengl\tmp\moc\debug_shared\moc_qgraphicsshadereffect_p.cpp 0x00000000   Number         0  moc_qgraphicsshadereffect_p.o ABSOLUTE
    S:\sf\mw\qt\src\opengl\tmp\moc\debug_shared\moc_qtextureglyphcache_gl_p.cpp 0x00000000   Number         0  moc_qtextureglyphcache_gl_p.o ABSOLUTE
    S:\sf\mw\qt\src\opengl\tmp\moc\debug_shared\moc_qwindowsurface_gl_p.cpp 0x00000000   Number         0  moc_qwindowsurface_gl_p.o ABSOLUTE
    .emb_text                                0x00008000   Section       40  uc_dll_.o(.emb_text)
    .emb_text                                0x00008028   Section       52  ucppinit.o(.emb_text)
    loop                                     0x0000803c   ARM Code       0  ucppinit.o(.emb_text)
    base                                     0x00008054   Data           0  ucppinit.o(.emb_text)
    limit                                    0x00008058   Data           0  ucppinit.o(.emb_text)
    .text                                    0x0000917c   Section    14816  qgl.o(.text)
    qgl_default_format()                     0x000091ab   Thumb Code   108  qgl.o(.text)
    defaultOverlayFormatInstance()           0x000092c7   Thumb Code   144  qgl.o(.text)
    theSignalProxy()                         0x00009357   Thumb Code   114  qgl.o(.text)
    qgl_engine_selector()                    0x000093c9   Thumb Code   100  qgl.o(.text)
    qt_context_groups()                      0x000099c9   Thumb Code   120  qgl.o(.text)
    convertFromGLImage(QImage&, int, int, bool, bool) 0x00009aa1   Thumb Code   120  qgl.o(.text)
    qt_gl_texture_cache()                    0x00009cb5   Thumb Code   110  qgl.o(.text)
    convertToGLFormatHelper(QImage&, const QImage&, unsigned) 0x00009d2b   Thumb Code   480  qgl.o(.text)
    qtDefaultExtensions()                    0x0000a425   Thumb Code   124  qgl.o(.text)
    |L1.11488|                               0x0000be5c   Data           0  qgl.o(.text)
    |L1.11496|                               0x0000be64   Data           0  qgl.o(.text)
    |L1.11504|                               0x0000be6c   Data           0  qgl.o(.text)
    |L1.11508|                               0x0000be70   Data           0  qgl.o(.text)
    |L1.11512|                               0x0000be74   Data           0  qgl.o(.text)
    __sti___7_qgl_cpp                        0x0000c9f3   Thumb Code    26  qgl.o(.text)
    qt_gl_convertToGLFormatHelper(unsigned, unsigned) 0x0000ca0d   Thumb Code    24  qgl.o(.text)
    qgl_byteSwapImage(QImage&, unsigned)     0x0000ca25   Thumb Code   130  qgl.o(.text)
    qt_gl_2_engine()                         0x0000caa7   Thumb Code   176  qgl.o(.text)
    .text                                    0x0000cb5c   Section      732  qglcolormap.o(.text)
    .text                                    0x0000ce38   Section     1064  qglpixelbuffer.o(.text)
    qt_buffer_2_engine()                     0x0000d199   Thumb Code   106  qglpixelbuffer.o(.text)
    .text                                    0x0000d260   Section     3976  qglframebufferobject.o(.text)
    qt_buffer_2_engine()                     0x0000e125   Thumb Code   106  qglframebufferobject.o(.text)
    qt_gl_getProcAddress_search(QGLContext*, const char*, const char*, const char*, const char*) 0x0000e1e9   Thumb Code   142  qglextensions.o(.text)
    .text                                    0x0000e1e8   Section     1020  qglextensions.o(.text)
    .text                                    0x0000e5e4   Section      876  qglpaintdevice.o(.text)
    .text                                    0x0000e950   Section      656  qglbuffer.o(.text)
    .text                                    0x0000ebe0   Section     7112  qglshaderprogram.o(.text)
    |L1.3616|                                0x0000fa00   Data           0  qglshaderprogram.o(.text)
    |L1.3692|                                0x0000fa4c   Data           0  qglshaderprogram.o(.text)
    QGLBlurTextureCache_free(void*)          0x000107a9   Thumb Code    12  qglpixmapfilter.o(.text)
    .text                                    0x000107a8   Section     6380  qglpixmapfilter.o(.text)
    qt_blur_texture_caches()                 0x000107b5   Thumb Code   110  qglpixmapfilter.o(.text)
    generateBlurTexture(const QSize&, unsigned) 0x00010823   Thumb Code    62  qglpixmapfilter.o(.text)
    __sti___19_qglpixmapfilter_cpp           0x00012045   Thumb Code    24  qglpixmapfilter.o(.text)
    nextMultiple(unsigned, unsigned)         0x0001205d   Thumb Code    24  qglpixmapfilter.o(.text)
    .text                                    0x00012094   Section      508  qgraphicsshadereffect.o(.text)
    .text                                    0x00012290   Section       50  qgraphicssystem_gl.o(.text)
    qt_cleanup_gl_share_widget()             0x000122c5   Thumb Code    32  qwindowsurface_gl.o(.text)
    .text                                    0x000122c4   Section     5112  qwindowsurface_gl.o(.text)
    _qt_gl_share_widget()                    0x000122e5   Thumb Code   108  qwindowsurface_gl.o(.text)
    drawTexture(const QRectF&, unsigned, const QSize&, const QRectF&) 0x00012391   Thumb Code   340  qwindowsurface_gl.o(.text)
    blitTexture(QGLContext*, unsigned, const QSize&, const QSize&, const QRect&, const QRect&) 0x000124e5   Thumb Code   280  qwindowsurface_gl.o(.text)
    __sti___21_qwindowsurface_gl_cpp         0x0001369b   Thumb Code    18  qwindowsurface_gl.o(.text)
    areaDiff(const QSize&, const QGLFramebufferObject*) 0x000136bd   Thumb Code    44  qpixmapdata_gl.o(.text)
    .text                                    0x000136bc   Section     5176  qpixmapdata_gl.o(.text)
    maybeRoundToNextPowerOfTwo(const QSize&) 0x000136e9   Thumb Code    94  qpixmapdata_gl.o(.text)
    _qgl_fbo_pool()                          0x00013747   Thumb Code   110  qpixmapdata_gl.o(.text)
    .text                                    0x00014af4   Section     1584  qgl_symbian.o(.text)
    .text                                    0x00015124   Section     1054  qglpixelbuffer_egl.o(.text)
    .text                                    0x00015544   Section     1348  qgl_egl.o(.text)
    .text                                    0x00015a88   Section     1032  qglgradientcache.o(.text)
    QGL2GradientCache_free(void*)            0x00015af9   Thumb Code    24  qglgradientcache.o(.text)
    qt_gradient_caches()                     0x00015b11   Thumb Code   110  qglgradientcache.o(.text)
    qtToGlColor(unsigned)                    0x00015e4f   Thumb Code    18  qglgradientcache.o(.text)
    qt_shared_shaders_free(void*)            0x00015e91   Thumb Code    12  qglengineshadermanager.o(.text)
    .text                                    0x00015e90   Section     3932  qglengineshadermanager.o(.text)
    qt_shared_shaders()                      0x00015e9d   Thumb Code   110  qglengineshadermanager.o(.text)
    |L1.984|                                 0x00016268   Data           0  qglengineshadermanager.o(.text)
    |L1.1004|                                0x0001627c   Data           0  qglengineshadermanager.o(.text)
    |L1.1016|                                0x00016288   Data           0  qglengineshadermanager.o(.text)
    |L1.1028|                                0x00016294   Data           0  qglengineshadermanager.o(.text)
    |L1.1076|                                0x000162c4   Data           0  qglengineshadermanager.o(.text)
    __sti___26_qglengineshadermanager_cpp    0x00016dc9   Thumb Code    26  qglengineshadermanager.o(.text)
    .text                                    0x00016dec   Section      844  qgl2pexvertexarray.o(.text)
    qFuzzyIsNull(float)                      0x0001710f   Thumb Code    28  qgl2pexvertexarray.o(.text)
    scaleRect(const QRectF&, float, float)   0x00017139   Thumb Code    72  qpaintengineex_opengl2.o(.text)
    .text                                    0x00017138   Section    15036  qpaintengineex_opengl2.o(.text)
    <unnamed>::QOpenGLStaticTextUserData::~QOpenGLStaticTextUserData() 0x0001ab9d   Thumb Code    32  qpaintengineex_opengl2.o(.text)
    <unnamed>::QOpenGLStaticTextUserData::~QOpenGLStaticTextUserData__sub_object() 0x0001ab9d   Thumb Code     0  qpaintengineex_opengl2.o(.text)
    setCoords(float*, const QGLRect&)        0x0001abbd   Thumb Code    34  qpaintengineex_opengl2.o(.text)
    <unnamed>::QOpenGLStaticTextUserData::~QOpenGLStaticTextUserData__deallocating() 0x0001abdf   Thumb Code    16  qpaintengineex_opengl2.o(.text)
    .text                                    0x0001abf4   Section      396  qglcustomshaderstage.o(.text)
    qdashprocessor_moveTo(float, float, void*) 0x0001ad81   Thumb Code    18  qtriangulatingstroker.o(.text)
    .text                                    0x0001ad80   Section     3892  qtriangulatingstroker.o(.text)
    qdashprocessor_lineTo(float, float, void*) 0x0001ad93   Thumb Code    18  qtriangulatingstroker.o(.text)
    qdashprocessor_cubicTo(float, float, float, float, float, float, void*) 0x0001ada5   Thumb Code     2  qtriangulatingstroker.o(.text)
    compare(unsigned long long, unsigned long long) 0x0001bcb5   Thumb Code    50  qtriangulator.o(.text)
    .text                                    0x0001bcb4   Section     2656  qtriangulator.o(.text)
    qCompareFractions(unsigned long long, unsigned long long, unsigned long long, unsigned long long) 0x0001bce7   Thumb Code   236  qtriangulator.o(.text)
    qFraction(unsigned long long, unsigned long long) 0x0001bdd3   Thumb Code   118  qtriangulator.o(.text)
    qCross(const QPodPoint&, const QPodPoint&) 0x0001be49   Thumb Code    32  qtriangulator.o(.text)
    qPointIsLeftOfLine(const QPodPoint&, const QPodPoint&, const QPodPoint&) 0x0001be69   Thumb Code    24  qtriangulator.o(.text)
    qIntersectionPoint(const QPodPoint&, const QPodPoint&, const QPodPoint&, const QPodPoint&) 0x0001be81   Thumb Code   484  qtriangulator.o(.text)
    primeForCount(int)                       0x0001c065   Thumb Code    48  qtriangulator.o(.text)
    qPointDistanceFromLine(const QPodPoint&, const QPodPoint&, const QPodPoint&) 0x0001c6c1   Thumb Code    38  qtriangulator.o(.text)
    qIntersectionPoint(const QPodPoint&)     0x0001c6e7   Thumb Code    40  qtriangulator.o(.text)
    .text                                    0x0001c714   Section     1808  qtextureglyphcache_gl.o(.text)
    .text                                    0x0001ce24   Section      112  moc_qgl.o(.text)
    .text                                    0x0001ce94   Section      348  moc_qgl_p.o(.text)
    .text                                    0x0001cff0   Section      164  moc_qglshaderprogram.o(.text)
    .text                                    0x0001d094   Section       68  moc_qgraphicsshadereffect_p.o(.text)
    .text                                    0x0001d0d8   Section      136  moc_qwindowsurface_gl_p.o(.text)
    .text                                    0x0001d160   Section      200  moc_qglengineshadermanager_p.o(.text)
    .text                                    0x0001d228   Section      196  moc_qtextureglyphcache_gl_p.o(.text)
    .text                                    0x0001d2ec   Section       24  switch8.o(.text)
    .text                                    0x0001d304   Section       60  uc_dll.o(.text)
    .text                                    0x0001d340   Section      144  ucppfini.o(.text)
    .text                                    0x0001d3d0   Section        4  dllexp.o(.text)
    .text.clean                              0x0001d3d4   Section      948  qgl.o(.text.clean)
    .text.clean                              0x0001d788   Section       30  qglcolormap.o(.text.clean)
    .text.clean                              0x0001d7a8   Section       84  qglpixelbuffer.o(.text.clean)
    .text.clean                              0x0001d7fc   Section      236  qglframebufferobject.o(.text.clean)
    .text.clean                              0x0001d8e8   Section       36  qglextensions.o(.text.clean)
    .text.clean                              0x0001d90c   Section       10  qglpaintdevice.o(.text.clean)
    .text.clean                              0x0001d916   Section       30  qglbuffer.o(.text.clean)
    .text.clean                              0x0001d934   Section      486  qglshaderprogram.o(.text.clean)
    .text.clean                              0x0001db1c   Section      544  qglpixmapfilter.o(.text.clean)
    .text.clean                              0x0001dd3c   Section       62  qgraphicsshadereffect.o(.text.clean)
    .text.clean                              0x0001dd7a   Section       20  qgraphicssystem_gl.o(.text.clean)
    .text.clean                              0x0001dd90   Section      332  qwindowsurface_gl.o(.text.clean)
    .text.clean                              0x0001dedc   Section      428  qpixmapdata_gl.o(.text.clean)
    .text.clean                              0x0001e088   Section       54  qgl_symbian.o(.text.clean)
    .text.clean                              0x0001e0be   Section       72  qglpixelbuffer_egl.o(.text.clean)
    .text.clean                              0x0001e106   Section       10  qgl_egl.o(.text.clean)
    .text.clean                              0x0001e110   Section      104  qglgradientcache.o(.text.clean)
    .text.clean                              0x0001e178   Section      292  qglengineshadermanager.o(.text.clean)
    .text.clean                              0x0001e29c   Section      652  qpaintengineex_opengl2.o(.text.clean)
    .text.clean                              0x0001e528   Section       18  qglcustomshaderstage.o(.text.clean)
    .text.clean                              0x0001e53a   Section       56  qtriangulatingstroker.o(.text.clean)
    .text.clean                              0x0001e572   Section      180  qtriangulator.o(.text.clean)
    .text.clean                              0x0001e626   Section       92  qtextureglyphcache_gl.o(.text.clean)
    .text.clean                              0x0001e682   Section       10  moc_qgl_p.o(.text.clean)
    i._Z10qpen_brushRK4QPen                  0x0001e68c   Section       12  qpaintengineex_opengl2.o(i._Z10qpen_brushRK4QPen)
    i._Z19qt_premultiplyColor6QColorf        0x0001e698   Section      100  qpaintengineex_opengl2.o(i._Z19qt_premultiplyColor6QColorf)
    i._Z5qCeilf                              0x0001e6fc   Section       12  qglpixmapfilter.o(i._Z5qCeilf)
    i._Z6qDebugv                             0x0001e708   Section       10  qwindowsurface_gl.o(i._Z6qDebugv)
    i._Z6qRoundf                             0x0001e712   Section       70  qglpixelbuffer.o(i._Z6qRoundf)
    i._Z7qstrlenPKc                          0x0001e758   Section       18  qgl.o(i._Z7qstrlenPKc)
    i._Z8qWarningv                           0x0001e76a   Section       50  qglshaderprogram.o(i._Z8qWarningv)
    i._Z8qWarningv.clean                     0x0001e79c   Section       18  qglshaderprogram.o(i._Z8qWarningv.clean)
    i._Z8qstrncmpPKcS0_j                     0x0001e7ae   Section       36  qgl.o(i._Z8qstrncmpPKcS0_j)
    i._ZN10QByteArrayC1Ev                    0x0001e7d4   Section       20  qglshaderprogram.o(i._ZN10QByteArrayC1Ev)
    i._ZN10QByteArrayD1Ev                    0x0001e7e8   Section       24  qgl.o(i._ZN10QByteArrayD1Ev)
    i._ZN10QGLTextureC1EP10QGLContextjj6QFlagsINS0_10BindOptionEE 0x0001e800   Section       14  qgl.o(i._ZN10QGLTextureC1EP10QGLContextjj6QFlagsINS0_10BindOptionEE)
    i._ZN10QGLTextureD1Ev                    0x0001e80e   Section       38  qgl.o(i._ZN10QGLTextureD1Ev)
    i._ZN10QMultiHashIyN17QGL2GradientCache9CacheInfoEED1Ev 0x0001e834   Section        8  qglgradientcache.o(i._ZN10QMultiHashIyN17QGL2GradientCache9CacheInfoEED1Ev)
    i._ZN10QTransformC1ERKS_                 0x0001e83c   Section       60  qpaintengineex_opengl2.o(i._ZN10QTransformC1ERKS_)
    i._ZN10QVertexSetIjED1Ev                 0x0001e878   Section       18  qtriangulator.o(i._ZN10QVertexSetIjED1Ev)
    i._ZN10QVertexSetIjED1Ev.clean           0x0001e88a   Section       10  qtriangulator.o(i._ZN10QVertexSetIjED1Ev.clean)
    i._ZN10QVertexSetItED1Ev                 0x0001e894   Section       18  qtriangulator.o(i._ZN10QVertexSetItED1Ev)
    i._ZN10QVertexSetItED1Ev.clean           0x0001e8a6   Section       10  qtriangulator.o(i._ZN10QVertexSetItED1Ev.clean)
    i._ZN11QEglContext7displayEv             0x0001e8b0   Section        8  qglpixelbuffer_egl.o(i._ZN11QEglContext7displayEv)
    i._ZN11QGLColormap6detachEv              0x0001e8b8   Section       24  qglcolormap.o(i._ZN11QGLColormap6detachEv)
    i._ZN11QReadLockerC1EP14QReadWriteLock   0x0001e8d0   Section       34  qgl.o(i._ZN11QReadLockerC1EP14QReadWriteLock)
    i._ZN11QReadLockerD1Ev                   0x0001e8f2   Section       32  qgl.o(i._ZN11QReadLockerD1Ev)
    i._ZN11QStringListD1Ev                   0x0001e912   Section        8  qgl.o(i._ZN11QStringListD1Ev)
    i._ZN11QStrokerOps6lineToEff             0x0001e91c   Section       32  qtriangulatingstroker.o(i._ZN11QStrokerOps6lineToEff)
    i._ZN11QStrokerOps6moveToEff             0x0001e93c   Section       50  qtriangulatingstroker.o(i._ZN11QStrokerOps6moveToEff)
    i._ZN12QDashStrokerD1Ev                  0x0001e970   Section       28  qpaintengineex_opengl2.o(i._ZN12QDashStrokerD1Ev)
    i._ZN12QDashStrokerD1Ev.clean            0x0001e98c   Section       10  qpaintengineex_opengl2.o(i._ZN12QDashStrokerD1Ev.clean)
    i._ZN12QMutexLockerC1EP6QMutex           0x0001e996   Section       28  qgl.o(i._ZN12QMutexLockerC1EP6QMutex)
    i._ZN12QMutexLockerD1Ev                  0x0001e9b2   Section       28  qgl.o(i._ZN12QMutexLockerD1Ev)
    i._ZN12QPolylineSetC1Ev                  0x0001e9ce   Section       18  qtriangulator.o(i._ZN12QPolylineSetC1Ev)
    i._ZN12QPolylineSetC1Ev.clean            0x0001e9e0   Section       10  qtriangulator.o(i._ZN12QPolylineSetC1Ev.clean)
    i._ZN12QPolylineSetD1Ev                  0x0001e9ea   Section       18  qtriangulator.o(i._ZN12QPolylineSetD1Ev)
    i._ZN12QPolylineSetD1Ev.clean            0x0001e9fc   Section       10  qtriangulator.o(i._ZN12QPolylineSetD1Ev.clean)
    i._ZN12QTriangleSetC1Ev                  0x0001ea06   Section       18  qtriangulator.o(i._ZN12QTriangleSetC1Ev)
    i._ZN12QTriangleSetC1Ev.clean            0x0001ea18   Section       10  qtriangulator.o(i._ZN12QTriangleSetC1Ev.clean)
    i._ZN12QTriangleSetD1Ev                  0x0001ea22   Section       18  qpaintengineex_opengl2.o(i._ZN12QTriangleSetD1Ev)
    i._ZN12QTriangleSetD1Ev.clean            0x0001ea34   Section       10  qpaintengineex_opengl2.o(i._ZN12QTriangleSetD1Ev.clean)
    i._ZN12QWriteLockerC1EP14QReadWriteLock  0x0001ea3e   Section       34  qgl.o(i._ZN12QWriteLockerC1EP14QReadWriteLock)
    i._ZN12QWriteLockerD1Ev                  0x0001ea60   Section       32  qgl.o(i._ZN12QWriteLockerD1Ev)
    i._ZN13QConcatenableI13QLatin1StringE4sizeERKS0_ 0x0001ea80   Section       20  qglengineshadermanager.o(i._ZN13QConcatenableI13QLatin1StringE4sizeERKS0_)
    i._ZN13QConcatenableI13QLatin1StringE8appendToERKS0_RP5QChar 0x0001ea94   Section       38  qglengineshadermanager.o(i._ZN13QConcatenableI13QLatin1StringE8appendToERKS0_RP5QChar)
    i._ZN13QPainterStateC1ERKS_              0x0001eabc   Section      344  qpaintengineex_opengl2.o(i._ZN13QPainterStateC1ERKS_)
    i._ZN13QPainterStateC1ERKS_.clean        0x0001ec14   Section       96  qpaintengineex_opengl2.o(i._ZN13QPainterStateC1ERKS_.clean)
    i._ZN13QTriangulatorIjE15ComplexToSimpleD1Ev 0x0001ec74   Section       68  qtriangulator.o(i._ZN13QTriangulatorIjE15ComplexToSimpleD1Ev)
    i._ZN13QTriangulatorIjE15ComplexToSimpleD1Ev.clean 0x0001ecb8   Section       58  qtriangulator.o(i._ZN13QTriangulatorIjE15ComplexToSimpleD1Ev.clean)
    i._ZN13QTriangulatorIjE16SimpleToMonotoneD1Ev 0x0001ecf2   Section       32  qtriangulator.o(i._ZN13QTriangulatorIjE16SimpleToMonotoneD1Ev)
    i._ZN13QTriangulatorIjE16SimpleToMonotoneD1Ev.clean 0x0001ed12   Section       22  qtriangulator.o(i._ZN13QTriangulatorIjE16SimpleToMonotoneD1Ev.clean)
    i._ZN13QTriangulatorIjED1Ev              0x0001ed28   Section       18  qtriangulator.o(i._ZN13QTriangulatorIjED1Ev)
    i._ZN13QTriangulatorIjED1Ev.clean        0x0001ed3a   Section       10  qtriangulator.o(i._ZN13QTriangulatorIjED1Ev.clean)
    i._ZN13QTriangulatorItE15ComplexToSimpleD1Ev 0x0001ed44   Section       68  qtriangulator.o(i._ZN13QTriangulatorItE15ComplexToSimpleD1Ev)
    i._ZN13QTriangulatorItE15ComplexToSimpleD1Ev.clean 0x0001ed88   Section       58  qtriangulator.o(i._ZN13QTriangulatorItE15ComplexToSimpleD1Ev.clean)
    i._ZN13QTriangulatorItE16SimpleToMonotoneD1Ev 0x0001edc2   Section       32  qtriangulator.o(i._ZN13QTriangulatorItE16SimpleToMonotoneD1Ev)
    i._ZN13QTriangulatorItE16SimpleToMonotoneD1Ev.clean 0x0001ede2   Section       22  qtriangulator.o(i._ZN13QTriangulatorItE16SimpleToMonotoneD1Ev.clean)
    i._ZN13QTriangulatorItED1Ev              0x0001edf8   Section       18  qtriangulator.o(i._ZN13QTriangulatorItED1Ev)
    i._ZN13QTriangulatorItED1Ev.clean        0x0001ee0a   Section       10  qtriangulator.o(i._ZN13QTriangulatorItED1Ev.clean)
    i._ZN14QEglPropertiesD1Ev                0x0001ee14   Section        8  qgl_symbian.o(i._ZN14QEglPropertiesD1Ev)
    i._ZN14QGLSignalProxyD0Ev                0x0001ee1c   Section       16  moc_qgl_p.o(i._ZN14QGLSignalProxyD0Ev)
    i._ZN14QGLSignalProxyD1Ev                0x0001ee2c   Section        8  moc_qgl_p.o(i._ZN14QGLSignalProxyD1Ev)
    i._ZN14QPaintEngineEx4syncEv             0x0001ee34   Section        2  qpaintengineex_opengl2.o(i._ZN14QPaintEngineEx4syncEv)
    i._ZN15QBasicAtomicInt3refEv             0x0001ee36   Section       18  qgl.o(i._ZN15QBasicAtomicInt3refEv)
    i._ZN15QBasicAtomicInt5derefEv           0x0001ee48   Section       18  qgl.o(i._ZN15QBasicAtomicInt5derefEv)
    i._ZN15QGLPixmapFilterI17QPixmapBlurFilterED2Ev 0x0001ee5a   Section        8  qglpixmapfilter.o(i._ZN15QGLPixmapFilterI17QPixmapBlurFilterED2Ev)
    i._ZN15QGLPixmapFilterI17QPixmapBlurFilterED2Ev.clean 0x0001ee62   Section        4  qglpixmapfilter.o(i._ZN15QGLPixmapFilterI17QPixmapBlurFilterED2Ev.clean)
    i._ZN15QGLPixmapFilterI21QPixmapColorizeFilterED2Ev 0x0001ee66   Section        8  qglpixmapfilter.o(i._ZN15QGLPixmapFilterI21QPixmapColorizeFilterED2Ev)
    i._ZN15QGLPixmapFilterI21QPixmapColorizeFilterED2Ev.clean 0x0001ee6e   Section        4  qglpixmapfilter.o(i._ZN15QGLPixmapFilterI21QPixmapColorizeFilterED2Ev.clean)
    i._ZN15QGLPixmapFilterI23QPixmapDropShadowFilterED2Ev 0x0001ee72   Section        8  qglpixmapfilter.o(i._ZN15QGLPixmapFilterI23QPixmapDropShadowFilterED2Ev)
    i._ZN15QGLPixmapFilterI23QPixmapDropShadowFilterED2Ev.clean 0x0001ee7a   Section        4  qglpixmapfilter.o(i._ZN15QGLPixmapFilterI23QPixmapDropShadowFilterED2Ev.clean)
    i._ZN15QGLPixmapFilterI24QPixmapConvolutionFilterED2Ev 0x0001ee7e   Section        8  qglpixmapfilter.o(i._ZN15QGLPixmapFilterI24QPixmapConvolutionFilterED2Ev)
    i._ZN15QGLPixmapFilterI24QPixmapConvolutionFilterED2Ev.clean 0x0001ee86   Section        4  qglpixmapfilter.o(i._ZN15QGLPixmapFilterI24QPixmapConvolutionFilterED2Ev.clean)
    i._ZN16QGLBufferPrivateC1EN9QGLBuffer4TypeE 0x0001ee8c   Section       44  qglbuffer.o(i._ZN16QGLBufferPrivateC1EN9QGLBuffer4TypeE)
    i._ZN16QGLFormatPrivateC1Ev              0x0001eeb8   Section       90  qgl.o(i._ZN16QGLFormatPrivateC1Ev)
    i._ZN16QGLShaderPrivateC1EPK10QGLContext6QFlagsIN9QGLShader13ShaderTypeBitEE 0x0001ef14   Section       64  qglshaderprogram.o(i._ZN16QGLShaderPrivateC1EPK10QGLContext6QFlagsIN9QGLShader13ShaderTypeBitEE)
    i._ZN16QGLShaderPrivateC1EPK10QGLContext6QFlagsIN9QGLShader13ShaderTypeBitEE.clean 0x0001ef54   Section       22  qglshaderprogram.o(i._ZN16QGLShaderPrivateC1EPK10QGLContext6QFlagsIN9QGLShader13ShaderTypeBitEE.clean)
    i._ZN16QGLWidgetPrivate14aboutToDestroyEv 0x0001ef6a   Section       18  qgl.o(i._ZN16QGLWidgetPrivate14aboutToDestroyEv)
    i._ZN16QGLWidgetPrivateC1Ev              0x0001ef7c   Section       80  qgl.o(i._ZN16QGLWidgetPrivateC1Ev)
    i._ZN16QGLWidgetPrivateC1Ev.clean        0x0001efcc   Section       26  qgl.o(i._ZN16QGLWidgetPrivateC1Ev.clean)
    i._ZN16QGLWidgetPrivateD0Ev              0x0001efe6   Section       16  qgl.o(i._ZN16QGLWidgetPrivateD0Ev)
    i._ZN16QGLWidgetPrivateD1Ev              0x0001eff8   Section       48  qgl.o(i._ZN16QGLWidgetPrivateD1Ev)
    i._ZN16QGLWidgetPrivateD1Ev.clean        0x0001f028   Section       26  qgl.o(i._ZN16QGLWidgetPrivateD1Ev.clean)
    i._ZN16QPainterClipInfoC1ERKS_           0x0001f042   Section       70  qpaintengineex_opengl2.o(i._ZN16QPainterClipInfoC1ERKS_)
    i._ZN16QPainterClipInfoC1ERKS_.clean     0x0001f088   Section       12  qpaintengineex_opengl2.o(i._ZN16QPainterClipInfoC1ERKS_.clean)
    i._ZN16QPainterClipInfoD1Ev              0x0001f094   Section       20  qpaintengineex_opengl2.o(i._ZN16QPainterClipInfoD1Ev)
    i._ZN16QPainterClipInfoD1Ev.clean        0x0001f0a8   Section       12  qpaintengineex_opengl2.o(i._ZN16QPainterClipInfoD1Ev.clean)
    i._ZN17QForeachContainerI5QListIP19QGLBlurTextureCacheEED1Ev 0x0001f0b4   Section        8  qglpixmapfilter.o(i._ZN17QForeachContainerI5QListIP19QGLBlurTextureCacheEED1Ev)
    i._ZN17QForeachContainerI5QListIP9QGLShaderEED1Ev 0x0001f0bc   Section        8  qglshaderprogram.o(i._ZN17QForeachContainerI5QListIP9QGLShaderEED1Ev)
    i._ZN17QForeachContainerI5QListIPP10QGLContextEED1Ev 0x0001f0c4   Section        8  qwindowsurface_gl.o(i._ZN17QForeachContainerI5QListIPP10QGLContextEED1Ev)
    i._ZN17QGL2GradientCache9CacheInfoD1Ev   0x0001f0cc   Section       12  qglgradientcache.o(i._ZN17QGL2GradientCache9CacheInfoD1Ev)
    i._ZN17QGL2PaintEngineEx5stateEv         0x0001f0d8   Section       14  qpaintengineex_opengl2.o(i._ZN17QGL2PaintEngineEx5stateEv)
    i._ZN17QGLExtensionFuncsC1Ev             0x0001f0e6   Section       30  qgl.o(i._ZN17QGLExtensionFuncsC1Ev)
    i._ZN17QGLGraphicsSystemD0Ev             0x0001f104   Section       16  qgraphicssystem_gl.o(i._ZN17QGLGraphicsSystemD0Ev)
    i._ZN17QGLGraphicsSystemD1Ev             0x0001f114   Section        8  qgraphicssystem_gl.o(i._ZN17QGLGraphicsSystemD1Ev)
    i._ZN18QGL2PEXVertexArray7addQuadERK6QRectF 0x0001f11c   Section       76  qpaintengineex_opengl2.o(i._ZN18QGL2PEXVertexArray7addQuadERK6QRectF)
    i._ZN18QGL2PEXVertexArray9addVertexEff   0x0001f168   Section       14  qpaintengineex_opengl2.o(i._ZN18QGL2PEXVertexArray9addVertexEff)
    i._ZN18QGL2PEXVertexArrayC1Ev            0x0001f178   Section       44  qpaintengineex_opengl2.o(i._ZN18QGL2PEXVertexArrayC1Ev)
    i._ZN18QGL2PEXVertexArrayD1Ev            0x0001f1a4   Section       18  qpaintengineex_opengl2.o(i._ZN18QGL2PEXVertexArrayD1Ev)
    i._ZN18QGL2PEXVertexArrayD1Ev.clean      0x0001f1b6   Section       10  qpaintengineex_opengl2.o(i._ZN18QGL2PEXVertexArrayD1Ev.clean)
    i._ZN18QGLBlurTextureInfoC1ERK6QImagejf  0x0001f1c0   Section       40  qglpixmapfilter.o(i._ZN18QGLBlurTextureInfoC1ERK6QImagejf)
    i._ZN18QGLBlurTextureInfoC1ERK6QImagejf.clean 0x0001f1e8   Section       10  qglpixmapfilter.o(i._ZN18QGLBlurTextureInfoC1ERK6QImagejf.clean)
    i._ZN18QGLBlurTextureInfoD1Ev            0x0001f1f2   Section       20  qglpixmapfilter.o(i._ZN18QGLBlurTextureInfoD1Ev)
    i._ZN18QGLBlurTextureInfoD1Ev.clean      0x0001f206   Section       10  qglpixmapfilter.o(i._ZN18QGLBlurTextureInfoD1Ev.clean)
    i._ZN18QTextureGlyphCacheC2EN21QFontEngineGlyphCache4TypeERK10QTransform 0x0001f210   Section      108  qtextureglyphcache_gl.o(i._ZN18QTextureGlyphCacheC2EN21QFontEngineGlyphCache4TypeERK10QTransform)
    i._ZN18QTextureGlyphCacheC2EN21QFontEngineGlyphCache4TypeERK10QTransform.clean 0x0001f27c   Section       10  qtextureglyphcache_gl.o(i._ZN18QTextureGlyphCacheC2EN21QFontEngineGlyphCache4TypeERK10QTransform.clean)
    i._ZN18QTextureGlyphCacheD0Ev            0x0001f286   Section       16  qtextureglyphcache_gl.o(i._ZN18QTextureGlyphCacheD0Ev)
    i._ZN18QTextureGlyphCacheD2Ev            0x0001f298   Section       24  qtextureglyphcache_gl.o(i._ZN18QTextureGlyphCacheD2Ev)
    i._ZN18QTextureGlyphCacheD2Ev.clean      0x0001f2b0   Section       10  qtextureglyphcache_gl.o(i._ZN18QTextureGlyphCacheD2Ev.clean)
    i._ZN18QVertexIndexVector11setDataUintERK7QVectorIjE 0x0001f2ba   Section       12  qtriangulator.o(i._ZN18QVertexIndexVector11setDataUintERK7QVectorIjE)
    i._ZN18QVertexIndexVector13setDataUshortERK7QVectorItE 0x0001f2c6   Section       14  qtriangulator.o(i._ZN18QVertexIndexVector13setDataUshortERK7QVectorItE)
    i._ZN18QVertexIndexVectorC1Ev            0x0001f2d4   Section       22  qtriangulator.o(i._ZN18QVertexIndexVectorC1Ev)
    i._ZN18QVertexIndexVectorC1Ev.clean      0x0001f2ea   Section       10  qtriangulator.o(i._ZN18QVertexIndexVectorC1Ev.clean)
    i._ZN18QVertexIndexVectorD1Ev            0x0001f2f4   Section       20  qpaintengineex_opengl2.o(i._ZN18QVertexIndexVectorD1Ev)
    i._ZN18QVertexIndexVectorD1Ev.clean      0x0001f308   Section       10  qpaintengineex_opengl2.o(i._ZN18QVertexIndexVectorD1Ev.clean)
    i._ZN19QGLContextGroupListD1Ev           0x0001f312   Section       18  qgl.o(i._ZN19QGLContextGroupListD1Ev)
    i._ZN19QGLContextGroupListD1Ev.clean     0x0001f324   Section       10  qgl.o(i._ZN19QGLContextGroupListD1Ev.clean)
    i._ZN19QGLEngineShaderProgC1ERKS_        0x0001f32e   Section      100  qglengineshadermanager.o(i._ZN19QGLEngineShaderProgC1ERKS_)
    i._ZN19QGLEngineShaderProgC1ERKS_.clean  0x0001f392   Section       12  qglengineshadermanager.o(i._ZN19QGLEngineShaderProgC1ERKS_.clean)
    i._ZN19QGLEngineShaderProgD1Ev           0x0001f39e   Section       36  qglengineshadermanager.o(i._ZN19QGLEngineShaderProgD1Ev)
    i._ZN19QGLEngineShaderProgD1Ev.clean     0x0001f3c2   Section       22  qglengineshadermanager.o(i._ZN19QGLEngineShaderProgD1Ev.clean)
    i._ZN19QGLExtensionMatcher5matchEPKc     0x0001f3d8   Section       74  qgl.o(i._ZN19QGLExtensionMatcher5matchEPKc)
    i._ZN19QGLFBOGLPaintDeviceD0Ev           0x0001f422   Section       16  qglframebufferobject.o(i._ZN19QGLFBOGLPaintDeviceD0Ev)
    i._ZN19QGLFBOGLPaintDeviceD1Ev           0x0001f434   Section       28  qglframebufferobject.o(i._ZN19QGLFBOGLPaintDeviceD1Ev)
    i._ZN19QGLFBOGLPaintDeviceD1Ev.clean     0x0001f450   Section       10  qglframebufferobject.o(i._ZN19QGLFBOGLPaintDeviceD1Ev.clean)
    i._ZN19QGLPixmapBlurFilterD0Ev           0x0001f45a   Section       16  qglpixmapfilter.o(i._ZN19QGLPixmapBlurFilterD0Ev)
    i._ZN19QGLPixmapBlurFilterD1Ev           0x0001f46a   Section       18  qglpixmapfilter.o(i._ZN19QGLPixmapBlurFilterD1Ev)
    i._ZN19QGLPixmapBlurFilterD1Ev.clean     0x0001f47c   Section       10  qglpixmapfilter.o(i._ZN19QGLPixmapBlurFilterD1Ev.clean)
    i._ZN19QGLPixmapFilterBaseC2Ev           0x0001f488   Section       12  qglpixmapfilter.o(i._ZN19QGLPixmapFilterBaseC2Ev)
    i._ZN19QGLPixmapFilterBaseD0Ev           0x0001f494   Section       12  qglpixmapfilter.o(i._ZN19QGLPixmapFilterBaseD0Ev)
    i._ZN19QGLPixmapFilterBaseD2Ev           0x0001f4a0   Section        2  qglpixmapfilter.o(i._ZN19QGLPixmapFilterBaseD2Ev)
    i._ZN19QGLTextureDestroyerC1Ev           0x0001f4a4   Section      164  qgl.o(i._ZN19QGLTextureDestroyerC1Ev)
    i._ZN19QGLTextureDestroyerC1Ev.clean     0x0001f548   Section       10  qgl.o(i._ZN19QGLTextureDestroyerC1Ev.clean)
    i._ZN19QGLTextureDestroyerD0Ev           0x0001f552   Section       16  moc_qgl_p.o(i._ZN19QGLTextureDestroyerD0Ev)
    i._ZN19QGLTextureDestroyerD1Ev           0x0001f562   Section        8  moc_qgl_p.o(i._ZN19QGLTextureDestroyerD1Ev)
    i._ZN19QPaintEnginePrivate18systemStateChangedEv 0x0001f56a   Section        2  qgl.o(i._ZN19QPaintEnginePrivate18systemStateChangedEv)
    i._ZN19QPaintEnginePrivateD0Ev           0x0001f56c   Section       16  qgl.o(i._ZN19QPaintEnginePrivateD0Ev)
    i._ZN19QPaintEnginePrivateD1Ev           0x0001f57c   Section       32  qgl.o(i._ZN19QPaintEnginePrivateD1Ev)
    i._ZN19QPaintEnginePrivateD1Ev.clean     0x0001f59c   Section       12  qgl.o(i._ZN19QPaintEnginePrivateD1Ev.clean)
    i._ZN19QStaticTextUserDataD1Ev           0x0001f5a8   Section        2  qpaintengineex_opengl2.o(i._ZN19QStaticTextUserDataD1Ev)
    i._ZN20QGLCustomShaderStage11setUniformsEP16QGLShaderProgram 0x0001f5aa   Section        2  qglpixmapfilter.o(i._ZN20QGLCustomShaderStage11setUniformsEP16QGLShaderProgram)
    i._ZN20QGLGlobalShareWidget11shareWidgetEv 0x0001f5ac   Section      152  qwindowsurface_gl.o(i._ZN20QGLGlobalShareWidget11shareWidgetEv)
    i._ZN20QGLGlobalShareWidget11shareWidgetEv.clean 0x0001f644   Section       20  qwindowsurface_gl.o(i._ZN20QGLGlobalShareWidget11shareWidgetEv.clean)
    i._ZN20QGLShareContextScopeC1EPK10QGLContext 0x0001f658   Section       52  qglshaderprogram.o(i._ZN20QGLShareContextScopeC1EPK10QGLContext)
    i._ZN20QGLShareContextScopeD1Ev          0x0001f68c   Section       20  qgl.o(i._ZN20QGLShareContextScopeD1Ev)
    i._ZN21QFontEngineGlyphCacheD0Ev         0x0001f6a0   Section       12  qtextureglyphcache_gl.o(i._ZN21QFontEngineGlyphCacheD0Ev)
    i._ZN21QFontEngineGlyphCacheD1Ev         0x0001f6ac   Section        2  qtextureglyphcache_gl.o(i._ZN21QFontEngineGlyphCacheD1Ev)
    i._ZN21QGLPixelBufferPrivateC1EP14QGLPixelBuffer 0x0001f6b0   Section       68  qglpixelbuffer.o(i._ZN21QGLPixelBufferPrivateC1EP14QGLPixelBuffer)
    i._ZN21QGLPixelBufferPrivateC1EP14QGLPixelBuffer.clean 0x0001f6f4   Section       24  qglpixelbuffer.o(i._ZN21QGLPixelBufferPrivateC1EP14QGLPixelBuffer.clean)
    i._ZN21QPixmapColorizeFilterD1Ev         0x0001f70c   Section        8  qglpixmapfilter.o(i._ZN21QPixmapColorizeFilterD1Ev)
    i._ZN21QTriangulatingStroker12normalVectorEffffPfS0_ 0x0001f714   Section      114  qtriangulatingstroker.o(i._ZN21QTriangulatingStroker12normalVectorEffffPfS0_)
    i._ZN21QTriangulatingStroker15emitLineSegmentEffff 0x0001f786   Section       88  qtriangulatingstroker.o(i._ZN21QTriangulatingStroker15emitLineSegmentEffff)
    i._ZN21QTriangulatingStroker6lineToEPKf  0x0001f7de   Section       28  qtriangulatingstroker.o(i._ZN21QTriangulatingStroker6lineToEPKf)
    i._ZN21QTriangulatingStrokerD1Ev         0x0001f7fa   Section        8  qpaintengineex_opengl2.o(i._ZN21QTriangulatingStrokerD1Ev)
    i._ZN22QDashedStrokeProcessor10addElementEN12QPainterPath11ElementTypeEff 0x0001f802   Section       48  qtriangulatingstroker.o(i._ZN22QDashedStrokeProcessor10addElementEN12QPainterPath11ElementTypeEff)
    i._ZN22QDashedStrokeProcessorD1Ev        0x0001f832   Section       30  qpaintengineex_opengl2.o(i._ZN22QDashedStrokeProcessorD1Ev)
    i._ZN22QDashedStrokeProcessorD1Ev.clean  0x0001f850   Section       22  qpaintengineex_opengl2.o(i._ZN22QDashedStrokeProcessorD1Ev.clean)
    i._ZN22QGLPixmapGLPaintDeviceD0Ev        0x0001f866   Section       16  qpixmapdata_gl.o(i._ZN22QGLPixmapGLPaintDeviceD0Ev)
    i._ZN22QGLPixmapGLPaintDeviceD1Ev        0x0001f876   Section        8  qpixmapdata_gl.o(i._ZN22QGLPixmapGLPaintDeviceD1Ev)
    i._ZN22QGLSharedResourceGuardC1EPK10QGLContext 0x0001f87e   Section       24  qglshaderprogram.o(i._ZN22QGLSharedResourceGuardC1EPK10QGLContext)
    i._ZN22QGLWidgetGLPaintDeviceD0Ev        0x0001f896   Section       16  qglpaintdevice.o(i._ZN22QGLWidgetGLPaintDeviceD0Ev)
    i._ZN22QGLWidgetGLPaintDeviceD1Ev        0x0001f8a6   Section        8  qgl.o(i._ZN22QGLWidgetGLPaintDeviceD1Ev)
    i._ZN22QGraphicsEffectPrivateD1Ev        0x0001f8ae   Section        8  qgl.o(i._ZN22QGraphicsEffectPrivateD1Ev)
    i._ZN23QGLPBufferGLPaintDeviceD0Ev       0x0001f8b6   Section       16  qglpixelbuffer.o(i._ZN23QGLPBufferGLPaintDeviceD0Ev)
    i._ZN23QGLPBufferGLPaintDeviceD1Ev       0x0001f8c6   Section        8  qglpixelbuffer.o(i._ZN23QGLPBufferGLPaintDeviceD1Ev)
    i._ZN23QGLPixmapColorizeFilterD0Ev       0x0001f8ce   Section       16  qglpixmapfilter.o(i._ZN23QGLPixmapColorizeFilterD0Ev)
    i._ZN23QGLPixmapColorizeFilterD1Ev       0x0001f8de   Section       18  qglpixmapfilter.o(i._ZN23QGLPixmapColorizeFilterD1Ev)
    i._ZN23QGLPixmapColorizeFilterD1Ev.clean 0x0001f8f0   Section       10  qglpixmapfilter.o(i._ZN23QGLPixmapColorizeFilterD1Ev.clean)
    i._ZN23QGLShaderProgramPrivateC1EPK10QGLContext 0x0001f8fc   Section       96  qglshaderprogram.o(i._ZN23QGLShaderProgramPrivateC1EPK10QGLContext)
    i._ZN23QGLShaderProgramPrivateC1EPK10QGLContext.clean 0x0001f95c   Section       46  qglshaderprogram.o(i._ZN23QGLShaderProgramPrivateC1EPK10QGLContext.clean)
    i._ZN23QGLWindowSurfacePrivateC1Ev       0x0001f98c   Section       80  qwindowsurface_gl.o(i._ZN23QGLWindowSurfacePrivateC1Ev)
    i._ZN23QGLWindowSurfacePrivateC1Ev.clean 0x0001f9dc   Section       36  qwindowsurface_gl.o(i._ZN23QGLWindowSurfacePrivateC1Ev.clean)
    i._ZN23QImageTextureGlyphCacheD1Ev       0x0001fa00   Section       28  qtextureglyphcache_gl.o(i._ZN23QImageTextureGlyphCacheD1Ev)
    i._ZN23QImageTextureGlyphCacheD1Ev.clean 0x0001fa1c   Section       10  qtextureglyphcache_gl.o(i._ZN23QImageTextureGlyphCacheD1Ev.clean)
    i._ZN24QGL2PaintEngineExPrivate15useSimpleShaderEv 0x0001fa26   Section       32  qpaintengineex_opengl2.o(i._ZN24QGL2PaintEngineExPrivate15useSimpleShaderEv)
    i._ZN24QGL2PaintEngineExPrivate16drawVertexArraysER18QGL2PEXVertexArrayj 0x0001fa46   Section       18  qpaintengineex_opengl2.o(i._ZN24QGL2PaintEngineExPrivate16drawVertexArraysER18QGL2PEXVertexArrayj)
    i._ZN24QGL2PaintEngineExPrivate25setVertexAttributePointerEjPKf 0x0001fa58   Section       64  qpaintengineex_opengl2.o(i._ZN24QGL2PaintEngineExPrivate25setVertexAttributePointerEjPKf)
    i._ZN24QGL2PaintEngineExPrivate26fillStencilWithVertexArrayER18QGL2PEXVertexArrayb 0x0001fa98   Section       44  qpaintengineex_opengl2.o(i._ZN24QGL2PaintEngineExPrivate26fillStencilWithVertexArrayER18QGL2PEXVertexArrayb)
    i._ZN24QGL2PaintEngineExPrivate8locationEN22QGLEngineShaderManager7UniformE 0x0001fac4   Section       14  qpaintengineex_opengl2.o(i._ZN24QGL2PaintEngineExPrivate8locationEN22QGLEngineShaderManager7UniformE)
    i._ZN24QGL2PaintEngineExPrivateC1EP17QGL2PaintEngineEx 0x0001fad4   Section      344  qpaintengineex_opengl2.o(i._ZN24QGL2PaintEngineExPrivateC1EP17QGL2PaintEngineEx)
    i._ZN24QGL2PaintEngineExPrivateC1EP17QGL2PaintEngineEx.clean 0x0001fc2c   Section      222  qpaintengineex_opengl2.o(i._ZN24QGL2PaintEngineExPrivateC1EP17QGL2PaintEngineEx.clean)
    i._ZN25QGLPixmapDropShadowFilterD0Ev     0x0001fd0a   Section       16  qglpixmapfilter.o(i._ZN25QGLPixmapDropShadowFilterD0Ev)
    i._ZN25QGLPixmapDropShadowFilterD1Ev     0x0001fd1a   Section       18  qglpixmapfilter.o(i._ZN25QGLPixmapDropShadowFilterD1Ev)
    i._ZN25QGLPixmapDropShadowFilterD1Ev.clean 0x0001fd2c   Section       10  qglpixmapfilter.o(i._ZN25QGLPixmapDropShadowFilterD1Ev.clean)
    i._ZN26QGLCustomShaderEffectStageD0Ev    0x0001fd36   Section       16  qgraphicsshadereffect.o(i._ZN26QGLCustomShaderEffectStageD0Ev)
    i._ZN26QGLCustomShaderEffectStageD1Ev    0x0001fd46   Section        8  qgraphicsshadereffect.o(i._ZN26QGLCustomShaderEffectStageD1Ev)
    i._ZN26QGraphicsBlurEffectPrivateD0Ev    0x0001fd4e   Section       16  qgl.o(i._ZN26QGraphicsBlurEffectPrivateD0Ev)
    i._ZN26QGraphicsBlurEffectPrivateD1Ev    0x0001fd60   Section       32  qgl.o(i._ZN26QGraphicsBlurEffectPrivateD1Ev)
    i._ZN26QGraphicsBlurEffectPrivateD1Ev.clean 0x0001fd80   Section       10  qgl.o(i._ZN26QGraphicsBlurEffectPrivateD1Ev.clean)
    i._ZN27QGLFramebufferObjectPrivateC1Ev   0x0001fd8c   Section       80  qglframebufferobject.o(i._ZN27QGLFramebufferObjectPrivateC1Ev)
    i._ZN27QGLFramebufferObjectPrivateC1Ev.clean 0x0001fddc   Section       30  qglframebufferobject.o(i._ZN27QGLFramebufferObjectPrivateC1Ev.clean)
    i._ZN28QGraphicsShaderEffectPrivateD0Ev  0x0001fdfa   Section       16  qgraphicsshadereffect.o(i._ZN28QGraphicsShaderEffectPrivateD0Ev)
    i._ZN28QGraphicsShaderEffectPrivateD1Ev  0x0001fe0c   Section       28  qgraphicsshadereffect.o(i._ZN28QGraphicsShaderEffectPrivateD1Ev)
    i._ZN28QGraphicsShaderEffectPrivateD1Ev.clean 0x0001fe28   Section       10  qgraphicsshadereffect.o(i._ZN28QGraphicsShaderEffectPrivateD1Ev.clean)
    i._ZN29QGLWindowSurfaceGLPaintDeviceD0Ev 0x0001fe32   Section       16  qwindowsurface_gl.o(i._ZN29QGLWindowSurfaceGLPaintDeviceD0Ev)
    i._ZN29QGLWindowSurfaceGLPaintDeviceD1Ev 0x0001fe42   Section        8  qwindowsurface_gl.o(i._ZN29QGLWindowSurfaceGLPaintDeviceD1Ev)
    i._ZN30QGraphicsColorizeEffectPrivateD0Ev 0x0001fe4a   Section       16  qgl.o(i._ZN30QGraphicsColorizeEffectPrivateD0Ev)
    i._ZN30QGraphicsColorizeEffectPrivateD1Ev 0x0001fe5c   Section       32  qgl.o(i._ZN30QGraphicsColorizeEffectPrivateD1Ev)
    i._ZN30QGraphicsColorizeEffectPrivateD1Ev.clean 0x0001fe7c   Section       10  qgl.o(i._ZN30QGraphicsColorizeEffectPrivateD1Ev.clean)
    i._ZN32QGraphicsDropShadowEffectPrivateD0Ev 0x0001fe86   Section       16  qgl.o(i._ZN32QGraphicsDropShadowEffectPrivateD0Ev)
    i._ZN32QGraphicsDropShadowEffectPrivateD1Ev 0x0001fe98   Section       32  qgl.o(i._ZN32QGraphicsDropShadowEffectPrivateD1Ev)
    i._ZN32QGraphicsDropShadowEffectPrivateD1Ev.clean 0x0001feb8   Section       10  qgl.o(i._ZN32QGraphicsDropShadowEffectPrivateD1Ev.clean)
    i._ZN4QSetIPN11QVectorPath10CacheEntryEED1Ev 0x0001fec2   Section        8  qpaintengineex_opengl2.o(i._ZN4QSetIPN11QVectorPath10CacheEntryEED1Ev)
    i._ZN5QRectC1ERK6QPointS2_               0x0001feca   Section       18  qwindowsurface_gl.o(i._ZN5QRectC1ERK6QPointS2_)
    i._ZN5QRectC1Eiiii                       0x0001fedc   Section       22  qglpixmapfilter.o(i._ZN5QRectC1Eiiii)
    i._ZN5QRectC1Ev                          0x0001fef2   Section       14  qpaintengineex_opengl2.o(i._ZN5QRectC1Ev)
    i._ZN6QColorC1ERKS_                      0x0001ff00   Section       20  qglgradientcache.o(i._ZN6QColorC1ERKS_)
    i._ZN6QDebug10maybeSpaceEv               0x0001ff14   Section       22  qgl.o(i._ZN6QDebug10maybeSpaceEv)
    i._ZN6QDebug5spaceEv                     0x0001ff2a   Section       22  qgl.o(i._ZN6QDebug5spaceEv)
    i._ZN6QDebugC1E9QtMsgType                0x0001ff40   Section       54  qglengineshadermanager.o(i._ZN6QDebugC1E9QtMsgType)
    i._ZN6QDebugC1E9QtMsgType.clean          0x0001ff76   Section       18  qglengineshadermanager.o(i._ZN6QDebugC1E9QtMsgType.clean)
    i._ZN6QDebugC1ERKS_                      0x0001ff88   Section       12  qgl.o(i._ZN6QDebugC1ERKS_)
    i._ZN6QDebugD1Ev                         0x0001ff94   Section      122  qgl.o(i._ZN6QDebugD1Ev)
    i._ZN6QDebugD1Ev.clean                   0x0002000e   Section       20  qgl.o(i._ZN6QDebugD1Ev.clean)
    i._ZN6QDebuglsEPKc                       0x00020022   Section       36  qgl.o(i._ZN6QDebuglsEPKc)
    i._ZN6QDebuglsEPKc.clean                 0x00020046   Section       10  qgl.o(i._ZN6QDebuglsEPKc.clean)
    i._ZN6QDebuglsERK10QByteArray            0x00020050   Section       34  qglengineshadermanager.o(i._ZN6QDebuglsERK10QByteArray)
    i._ZN6QDebuglsERK7QString                0x00020072   Section       34  qglshaderprogram.o(i._ZN6QDebuglsERK7QString)
    i._ZN6QDebuglsEc                         0x00020094   Section       18  qgl.o(i._ZN6QDebuglsEc)
    i._ZN6QDebuglsEi                         0x000200a6   Section       18  qgl.o(i._ZN6QDebuglsEi)
    i._ZN6QRectF6setTopEf                    0x000200b8   Section       38  qwindowsurface_gl.o(i._ZN6QRectF6setTopEf)
    i._ZN6QRectF7setLeftEf                   0x000200de   Section       38  qwindowsurface_gl.o(i._ZN6QRectF7setLeftEf)
    i._ZN6QRectFC1ERK5QRect                  0x00020104   Section       54  qglpixmapfilter.o(i._ZN6QRectFC1ERK5QRect)
    i._ZN6QRectFC1ERK7QPointFRK6QSizeF       0x0002013a   Section       18  qwindowsurface_gl.o(i._ZN6QRectFC1ERK7QPointFRK6QSizeF)
    i._ZN6QRectFC1Effff                      0x0002014c   Section       10  qglpixmapfilter.o(i._ZN6QRectFC1Effff)
    i._ZN7QGLRectC1ERK6QRectF                0x00020156   Section       34  qpaintengineex_opengl2.o(i._ZN7QGLRectC1ERK6QRectF)
    i._ZN7QGLRectC1Effff                     0x00020178   Section       10  qpaintengineex_opengl2.o(i._ZN7QGLRectC1Effff)
    i._ZN7QStringC1ERK13QLatin1String        0x00020182   Section       20  qglextensions.o(i._ZN7QStringC1ERK13QLatin1String)
    i._ZN7QStringC1ERKS_                     0x00020196   Section       16  qgl.o(i._ZN7QStringC1ERKS_)
    i._ZN7QStringC1Ev                        0x000201a8   Section       20  qglshaderprogram.o(i._ZN7QStringC1Ev)
    i._ZN7QStringD1Ev                        0x000201bc   Section       24  qgl.o(i._ZN7QStringD1Ev)
    i._ZN8QMaxHeapIN13QTriangulatorIjE15ComplexToSimple12IntersectionEED1Ev 0x000201d4   Section        8  qtriangulator.o(i._ZN8QMaxHeapIN13QTriangulatorIjE15ComplexToSimple12IntersectionEED1Ev)
    i._ZN8QMaxHeapIN13QTriangulatorItE15ComplexToSimple12IntersectionEED1Ev 0x000201dc   Section        8  qtriangulator.o(i._ZN8QMaxHeapIN13QTriangulatorItE15ComplexToSimple12IntersectionEED1Ev)
    i._ZN8QPainter10drawPixmapERK6QPointRK7QPixmap 0x000201e4   Section       38  qgraphicsshadereffect.o(i._ZN8QPainter10drawPixmapERK6QPointRK7QPixmap)
    i._ZN8QPainter10drawPixmapERK7QPointFRK7QPixmapRK6QRectF 0x0002020c   Section       28  qglpixmapfilter.o(i._ZN8QPainter10drawPixmapERK7QPointFRK7QPixmapRK6QRectF)
    i._ZN8QPainter9drawImageEiiRK6QImageiiii6QFlagsIN2Qt19ImageConversionFlagEE 0x00020228   Section      160  qglpixmapfilter.o(i._ZN8QPainter9drawImageEiiRK6QImageiiii6QFlagsIN2Qt19ImageConversionFlagEE)
    i._ZN9QBitArray6setBitEi                 0x000202c8   Section       64  qtriangulator.o(i._ZN9QBitArray6setBitEi)
    i._ZN9QBitArrayD1Ev                      0x00020308   Section        8  qtriangulator.o(i._ZN9QBitArrayD1Ev)
    i._ZN9QHashData8willGrowEv               0x00020310   Section       28  qgl.o(i._ZN9QHashData8willGrowEv)
    i._ZN9QHashData9firstNodeEv              0x0002032c   Section       24  qgl.o(i._ZN9QHashData9firstNodeEv)
    i._ZN9QHashData9hasShrunkEv              0x00020344   Section       60  qgl.o(i._ZN9QHashData9hasShrunkEv)
    i._ZN9QInt64Set5clearEv                  0x00020380   Section       32  qtriangulator.o(i._ZN9QInt64Set5clearEv)
    i._ZN9QInt64SetC1Ei                      0x000203a0   Section       40  qtriangulator.o(i._ZN9QInt64SetC1Ei)
    i._ZN9QInt64SetD1Ev                      0x000203c8   Section       18  qtriangulator.o(i._ZN9QInt64SetD1Ev)
    i._ZN9QPolygonFD1Ev                      0x000203da   Section        8  qtriangulator.o(i._ZN9QPolygonFD1Ev)
    i._ZNK10QTransform11determinantEv        0x000203e2   Section      128  qpaintengineex_opengl2.o(i._ZNK10QTransform11determinantEv)
    i._ZNK11QPixmapData11runtimeDataEv       0x00020462   Section        4  qpixmapdata_gl.o(i._ZNK11QPixmapData11runtimeDataEv)
    i._ZNK11QPixmapData8cacheKeyEv           0x00020466   Section       32  qglpixmapfilter.o(i._ZNK11QPixmapData8cacheKeyEv)
    i._ZNK11QVectorPath15lookupCacheDataEP14QPaintEngineEx 0x00020486   Section       18  qpaintengineex_opengl2.o(i._ZNK11QVectorPath15lookupCacheDataEP14QPaintEngineEx)
    i._ZNK12QPaintDevice5widthEv             0x00020498   Section        8  qwindowsurface_gl.o(i._ZNK12QPaintDevice5widthEv)
    i._ZNK12QPaintDevice6heightEv            0x000204a0   Section        8  qglframebufferobject.o(i._ZNK12QPaintDevice6heightEv)
    i._ZNK14QGLPaintDevice7devTypeEv         0x000204a8   Section        4  qglpixelbuffer.o(i._ZNK14QGLPaintDevice7devTypeEv)
    i._ZNK14QGLPixelBuffer7devTypeEv         0x000204ac   Section        4  qglpixelbuffer.o(i._ZNK14QGLPixelBuffer7devTypeEv)
    i._ZNK14QPaintEngineEx5flagsEv           0x000204b0   Section        4  qpaintengineex_opengl2.o(i._ZNK14QPaintEngineEx5flagsEv)
    i._ZNK15QBasicAtomicInteqEi              0x000204b4   Section       14  qgl.o(i._ZNK15QBasicAtomicInteqEi)
    i._ZNK15QBasicAtomicIntneEi              0x000204c2   Section       14  qgl.o(i._ZNK15QBasicAtomicIntneEi)
    i._ZNK17QGL2GradientCache26generateGradientColorTableERK9QGradientPjif 0x000204d0   Section      956  qglgradientcache.o(i._ZNK17QGL2GradientCache26generateGradientColorTableERK9QGradientPjif)
    i._ZNK17QGL2GradientCache26generateGradientColorTableERK9QGradientPjif.clean 0x0002088c   Section       16  qglgradientcache.o(i._ZNK17QGL2GradientCache26generateGradientColorTableERK9QGradientPjif.clean)
    i._ZNK17QGL2PaintEngineEx4typeEv         0x0002089c   Section        4  qpaintengineex_opengl2.o(i._ZNK17QGL2PaintEngineEx4typeEv)
    i._ZNK18QIntersectionPoint10isAccurateEv 0x000208a0   Section       42  qtriangulator.o(i._ZNK18QIntersectionPoint10isAccurateEv)
    i._ZNK18QIntersectionPoint7isValidEv     0x000208ca   Section       34  qtriangulator.o(i._ZNK18QIntersectionPoint7isValidEv)
    i._ZNK18QIntersectionPointleERKS_        0x000208ec   Section       18  qtriangulator.o(i._ZNK18QIntersectionPointleERKS_)
    i._ZNK18QTextureGlyphCache11glyphMarginEv 0x000208fe   Section        4  qtextureglyphcache_gl.o(i._ZNK18QTextureGlyphCache11glyphMarginEv)
    i._ZNK18QTextureGlyphCache12glyphPaddingEv 0x00020902   Section        4  qtextureglyphcache_gl.o(i._ZNK18QTextureGlyphCache12glyphPaddingEv)
    i._ZNK18QTextureGlyphCache15maxTextureWidthEv 0x00020906   Section        6  qtextureglyphcache_gl.o(i._ZNK18QTextureGlyphCache15maxTextureWidthEv)
    i._ZNK18QTextureGlyphCache16maxTextureHeightEv 0x0002090c   Section        6  qtextureglyphcache_gl.o(i._ZNK18QTextureGlyphCache16maxTextureHeightEv)
    i._ZNK18QVertexIndexVector4dataEv        0x00020912   Section       16  qpaintengineex_opengl2.o(i._ZNK18QVertexIndexVector4dataEv)
    i._ZNK18QVertexIndexVector4sizeEv        0x00020922   Section       16  qpaintengineex_opengl2.o(i._ZNK18QVertexIndexVector4sizeEv)
    i._ZNK19QGLFBOGLPaintDevice11paintEngineEv 0x00020932   Section        8  qglframebufferobject.o(i._ZNK19QGLFBOGLPaintDevice11paintEngineEv)
    i._ZNK19QGLFBOGLPaintDevice14alphaRequestedEv 0x0002093a   Section        4  qglframebufferobject.o(i._ZNK19QGLFBOGLPaintDevice14alphaRequestedEv)
    i._ZNK19QGLFBOGLPaintDevice4sizeEv       0x0002093e   Section       10  qglframebufferobject.o(i._ZNK19QGLFBOGLPaintDevice4sizeEv)
    i._ZNK19QGLFBOGLPaintDevice6formatEv     0x00020948   Section       10  qglframebufferobject.o(i._ZNK19QGLFBOGLPaintDevice6formatEv)
    i._ZNK20QGLFramebufferObject7devTypeEv   0x00020952   Section        4  qglframebufferobject.o(i._ZNK20QGLFramebufferObject7devTypeEv)
    i._ZNK22QGLSharedResourceGuard7contextEv 0x00020956   Section       14  qglframebufferobject.o(i._ZNK22QGLSharedResourceGuard7contextEv)
    i._ZNK23QGLPBufferGLPaintDevice11paintEngineEv 0x00020964   Section        8  qglpixelbuffer.o(i._ZNK23QGLPBufferGLPaintDevice11paintEngineEv)
    i._ZNK23QGLPBufferGLPaintDevice4sizeEv   0x0002096c   Section       10  qglpixelbuffer.o(i._ZNK23QGLPBufferGLPaintDevice4sizeEv)
    i._ZNK5QRect10translatedERK6QPoint       0x00020976   Section       60  qwindowsurface_gl.o(i._ZNK5QRect10translatedERK6QPoint)
    i._ZNK5QRect4sizeEv                      0x000209b2   Section       22  qglpixmapfilter.o(i._ZNK5QRect4sizeEv)
    i._ZNK5QRect5widthEv                     0x000209c8   Section       10  qwindowsurface_gl.o(i._ZNK5QRect5widthEv)
    i._ZNK5QRect6heightEv                    0x000209d2   Section       10  qwindowsurface_gl.o(i._ZNK5QRect6heightEv)
    i._ZNK5QRect8adjustedEiiii               0x000209dc   Section       58  qglpixmapfilter.o(i._ZNK5QRect8adjustedEiiii)
    i._ZNK5QSize7isEmptyEv                   0x00020a16   Section       20  qpixmapdata_gl.o(i._ZNK5QSize7isEmptyEv)
    i._ZNK6QBrush9transformEv                0x00020a2a   Section       12  qpaintengineex_opengl2.o(i._ZNK6QBrush9transformEv)
    i._ZNK6QRectF10translatedERK7QPointF     0x00020a36   Section       54  qglpixmapfilter.o(i._ZNK6QRectF10translatedERK7QPointF)
    i._ZNK6QRectF5rightEv                    0x00020a6c   Section       12  qwindowsurface_gl.o(i._ZNK6QRectF5rightEv)
    i._ZNK6QRectF6bottomEv                   0x00020a78   Section       12  qglpixmapfilter.o(i._ZNK6QRectF6bottomEv)
    i._ZNK6QRectF6isNullEv                   0x00020a84   Section       20  qglpixmapfilter.o(i._ZNK6QRectF6isNullEv)
    i._ZNK6QRectF8adjustedEffff              0x00020a98   Section       86  qglpixmapfilter.o(i._ZNK6QRectF8adjustedEffff)
    i._ZNK7QBezier7pointAtEf                 0x00020af0   Section      220  qgl2pexvertexarray.o(i._ZNK7QBezier7pointAtEf)
    i._ZNK7QPixmap6scaledEiiN2Qt15AspectRatioModeENS0_18TransformationModeE 0x00020bcc   Section       22  qpaintengineex_opengl2.o(i._ZNK7QPixmap6scaledEiiN2Qt15AspectRatioModeENS0_18TransformationModeE)
    i._ZNK7QString7isEmptyEv                 0x00020be2   Section       16  qglshaderprogram.o(i._ZNK7QString7isEmptyEv)
    i._ZNK7QWidget13testAttributeEN2Qt15WidgetAttributeE 0x00020bf2   Section       32  qgl.o(i._ZNK7QWidget13testAttributeEN2Qt15WidgetAttributeE)
    i._ZNK7QWidget14updatesEnabledEv         0x00020c12   Section       14  qgl.o(i._ZNK7QWidget14updatesEnabledEv)
    i._ZNK7QWidget4rectEv                    0x00020c20   Section       46  qwindowsurface_gl.o(i._ZNK7QWidget4rectEv)
    i._ZNK7QWidget4sizeEv                    0x00020c4e   Section       12  qwindowsurface_gl.o(i._ZNK7QWidget4sizeEv)
    i._ZNK7QWidget6heightEv                  0x00020c5a   Section       12  qwindowsurface_gl.o(i._ZNK7QWidget6heightEv)
    i._ZNK9QBitArray2atEi                    0x00020c66   Section       30  qtriangulator.o(i._ZNK9QBitArray2atEi)
    i._ZNK9QFraction7isValidEv               0x00020c84   Section       24  qtriangulator.o(i._ZNK9QFraction7isValidEv)
    i._ZNK9QFractioneqERKS_                  0x00020c9c   Section       38  qtriangulator.o(i._ZNK9QFractioneqERKS_)
    i._ZNK9QFractionltERKS_                  0x00020cc2   Section       28  qtriangulator.o(i._ZNK9QFractionltERKS_)
    i._ZNK9QGLFormat12doubleBufferEv         0x00020cde   Section       14  qwindowsurface_gl.o(i._ZNK9QGLFormat12doubleBufferEv)
    i._ZNK9QListData2atEi                    0x00020cec   Section       16  qgl.o(i._ZNK9QListData2atEi)
    i._ZNK9QListData3endEv                   0x00020cfc   Section       12  qgl.o(i._ZNK9QListData3endEv)
    i._ZNK9QListData4sizeEv                  0x00020d08   Section       10  qgl.o(i._ZNK9QListData4sizeEv)
    i._ZNK9QListData5beginEv                 0x00020d12   Section       12  qgl.o(i._ZNK9QListData5beginEv)
    i._ZNK9QPodPointeqERKS_                  0x00020d1e   Section       24  qtriangulator.o(i._ZNK9QPodPointeqERKS_)
    i._ZNK9QPodPointgtERKS_                  0x00020d36   Section       14  qtriangulator.o(i._ZNK9QPodPointgtERKS_)
    i._ZNK9QPodPointltERKS_                  0x00020d44   Section       36  qtriangulator.o(i._ZNK9QPodPointltERKS_)
    i._ZNK9QPodPointmiERKS_                  0x00020d68   Section       20  qtriangulator.o(i._ZNK9QPodPointmiERKS_)
    i._ZNK9QPodPointneERKS_                  0x00020d7c   Section       24  qtriangulator.o(i._ZNK9QPodPointneERKS_)
    i._ZThn16_N19QGLPixmapBlurFilterD0Ev     0x00020d94   Section       10  qglpixmapfilter.o(i._ZThn16_N19QGLPixmapBlurFilterD0Ev)
    i._ZThn16_N19QGLPixmapBlurFilterD1Ev     0x00020d9e   Section       10  qglpixmapfilter.o(i._ZThn16_N19QGLPixmapBlurFilterD1Ev)
    i._ZThn16_N23QGLPixmapColorizeFilterD0Ev 0x00020da8   Section       10  qglpixmapfilter.o(i._ZThn16_N23QGLPixmapColorizeFilterD0Ev)
    i._ZThn16_N23QGLPixmapColorizeFilterD1Ev 0x00020db2   Section       10  qglpixmapfilter.o(i._ZThn16_N23QGLPixmapColorizeFilterD1Ev)
    i._ZThn16_N25QGLPixmapDropShadowFilterD0Ev 0x00020dbc   Section       10  qglpixmapfilter.o(i._ZThn16_N25QGLPixmapDropShadowFilterD0Ev)
    i._ZThn16_N25QGLPixmapDropShadowFilterD1Ev 0x00020dc6   Section       10  qglpixmapfilter.o(i._ZThn16_N25QGLPixmapDropShadowFilterD1Ev)
    i._ZThn8_N19QGLPixmapBlurFilterD0Ev      0x00020dd0   Section       10  qglpixmapfilter.o(i._ZThn8_N19QGLPixmapBlurFilterD0Ev)
    i._ZThn8_N19QGLPixmapBlurFilterD1Ev      0x00020dda   Section       10  qglpixmapfilter.o(i._ZThn8_N19QGLPixmapBlurFilterD1Ev)
    i._ZThn8_N23QGLPixmapColorizeFilterD0Ev  0x00020de4   Section       10  qglpixmapfilter.o(i._ZThn8_N23QGLPixmapColorizeFilterD0Ev)
    i._ZThn8_N23QGLPixmapColorizeFilterD1Ev  0x00020dee   Section       10  qglpixmapfilter.o(i._ZThn8_N23QGLPixmapColorizeFilterD1Ev)
    i._ZThn8_N25QGLPixmapDropShadowFilterD0Ev 0x00020df8   Section       10  qglpixmapfilter.o(i._ZThn8_N25QGLPixmapDropShadowFilterD0Ev)
    i._ZThn8_N25QGLPixmapDropShadowFilterD1Ev 0x00020e02   Section       10  qglpixmapfilter.o(i._ZThn8_N25QGLPixmapDropShadowFilterD1Ev)
    i._ZdlPvS_                               0x00020e0c   Section        2  qgl.o(i._ZdlPvS_)
    i._ZdvRK5QSizef                          0x00020e0e   Section       48  qglpixmapfilter.o(i._ZdvRK5QSizef)
    i._ZeqRK10QByteArrayS1_                  0x00020e3e   Section       34  qglengineshadermanager.o(i._ZeqRK10QByteArrayS1_)
    i._ZeqRK18QGLTextureCacheKeyS1_          0x00020e60   Section       32  qgl.o(i._ZeqRK18QGLTextureCacheKeyS1_)
    i._ZeqRK5QSizeS1_                        0x00020e80   Section       24  qwindowsurface_gl.o(i._ZeqRK5QSizeS1_)
    i._ZmiRK7QPointFS1_                      0x00020e98   Section       32  qpaintengineex_opengl2.o(i._ZmiRK7QPointFS1_)
    i._ZneRK5QSizeS1_                        0x00020eb8   Section       24  qpixmapdata_gl.o(i._ZneRK5QSizeS1_)
    i._ZnwjPv                                0x00020ed0   Section        4  qgl.o(i._ZnwjPv)
    i._ZorN9QGLFormat17OpenGLVersionFlagES0_ 0x00020ed4   Section       12  qgl.o(i._ZorN9QGLFormat17OpenGLVersionFlagES0_)
    i._ZplRK7QPointFS1_                      0x00020ee0   Section       32  qglpixmapfilter.o(i._ZplRK7QPointFS1_)
    t._Z11qt_rectcopyIhEvPT_PKS0_iiiiii      0x00020f00   Section       42  qglpixmapfilter.o(t._Z11qt_rectcopyIhEvPT_PKS0_iiiiii)
    t._Z11qt_rectcopyIjEvPT_PKS0_iiiiii      0x00020f2a   Section       52  qglpixmapfilter.o(t._Z11qt_rectcopyIjEvPT_PKS0_iiiiii)
    t._Z20qForeachContainerNewI5QListIP9QGLShaderEE17QForeachContainerIT_ERKS5_ 0x00020f5e   Section       46  qglshaderprogram.o(t._Z20qForeachContainerNewI5QListIP9QGLShaderEE17QForeachContainerIT_ERKS5_)
    t._Z20qForeachContainerNewI5QListIP9QGLShaderEE17QForeachContainerIT_ERKS5_.clean 0x00020f8c   Section       10  qglshaderprogram.o(t._Z20qForeachContainerNewI5QListIP9QGLShaderEE17QForeachContainerIT_ERKS5_.clean)
    t._Z21qMetaTypeDeleteHelperIjEvPT_       0x00020f96   Section        8  qgl.o(t._Z21qMetaTypeDeleteHelperIjEvPT_)
    t._Z24qMetaTypeConstructHelperIjEPvPKT_  0x00020f9e   Section       26  qgl.o(t._Z24qMetaTypeConstructHelperIjEPvPKT_)
    t._Z4qAbsIfET_RKS0_                      0x00020fb8   Section       14  qpaintengineex_opengl2.o(t._Z4qAbsIfET_RKS0_)
    t._Z4qAbsIiET_RKS0_                      0x00020fc6   Section       10  qtriangulator.o(t._Z4qAbsIiET_RKS0_)
    t._Z4qMaxIfERKT_S2_S2_                   0x00020fd0   Section       24  qpaintengineex_opengl2.o(t._Z4qMaxIfERKT_S2_S2_)
    t._Z4qMaxIiERKT_S2_S2_                   0x00020fe8   Section       12  qtriangulatingstroker.o(t._Z4qMaxIiERKT_S2_S2_)
    t._Z4qMinIfERKT_S2_S2_                   0x00020ff4   Section       24  qtriangulatingstroker.o(t._Z4qMinIfERKT_S2_S2_)
    t._Z4qMinIiERKT_S2_S2_                   0x0002100c   Section       12  qtriangulator.o(t._Z4qMinIiERKT_S2_S2_)
    t._Z4sortIN13QTriangulatorIjE15ComplexToSimple5EventEEvPT_i 0x00021018   Section      304  qtriangulator.o(t._Z4sortIN13QTriangulatorIjE15ComplexToSimple5EventEEvPT_i)
    t._Z4sortIN13QTriangulatorItE15ComplexToSimple5EventEEvPT_i 0x00021148   Section      304  qtriangulator.o(t._Z4sortIN13QTriangulatorItE15ComplexToSimple5EventEEvPT_i)
    t._Z4sortIiN13QTriangulatorIjE16SimpleToMonotone15CompareVerticesEEvPT_iT0_ 0x00021278   Section      320  qtriangulator.o(t._Z4sortIiN13QTriangulatorIjE16SimpleToMonotone15CompareVerticesEEvPT_iT0_)
    t._Z4sortIiN13QTriangulatorItE16SimpleToMonotone15CompareVerticesEEvPT_iT0_ 0x000213b8   Section      320  qtriangulator.o(t._Z4sortIiN13QTriangulatorItE16SimpleToMonotone15CompareVerticesEEvPT_iT0_)
    t._Z5qSwapIN13QTriangulatorIjE15ComplexToSimple5EventEEvRT_S5_ 0x000214f8   Section       30  qtriangulator.o(t._Z5qSwapIN13QTriangulatorIjE15ComplexToSimple5EventEEvRT_S5_)
    t._Z5qSwapIN13QTriangulatorItE15ComplexToSimple5EventEEvRT_S5_ 0x00021516   Section       30  qtriangulator.o(t._Z5qSwapIN13QTriangulatorItE15ComplexToSimple5EventEEvRT_S5_)
    t._Z5qSwapIPN7QRBTreeIiE4NodeEEvRT_S5_   0x00021534   Section       10  qtriangulator.o(t._Z5qSwapIPN7QRBTreeIiE4NodeEEvRT_S5_)
    t._Z5qSwapIiEvRT_S1_                     0x0002153e   Section       10  qtriangulator.o(t._Z5qSwapIiEvRT_S1_)
    t._Z5qSwapIyEvRT_S1_                     0x00021548   Section       16  qtriangulator.o(t._Z5qSwapIyEvRT_S1_)
    t._ZN10QVertexSetIjEC1Ev                 0x00021558   Section       18  qtriangulator.o(t._ZN10QVertexSetIjEC1Ev)
    t._ZN10QVertexSetIjEC1Ev.clean           0x0002156a   Section       10  qtriangulator.o(t._ZN10QVertexSetIjEC1Ev.clean)
    t._ZN11QDataBufferI5QPairIiiEE3addERKS1_ 0x00021574   Section       70  qtriangulator.o(t._ZN11QDataBufferI5QPairIiiEE3addERKS1_)
    t._ZN11QDataBufferI5QPairIiiEEC1Ei       0x000215ba   Section       30  qtriangulator.o(t._ZN11QDataBufferI5QPairIiiEEC1Ei)
    t._ZN11QDataBufferI5QPairIiiEED1Ev       0x000215d8   Section       18  qtriangulator.o(t._ZN11QDataBufferI5QPairIiiEED1Ev)
    t._ZN11QDataBufferI8QGLPointE3addERKS0_  0x000215ea   Section       66  qgl2pexvertexarray.o(t._ZN11QDataBufferI8QGLPointE3addERKS0_)
    t._ZN11QDataBufferI8QGLPointED1Ev        0x0002162c   Section       18  qpaintengineex_opengl2.o(t._ZN11QDataBufferI8QGLPointED1Ev)
    t._ZN11QDataBufferI8QGLPointElsERKS0_    0x0002163e   Section       12  qpaintengineex_opengl2.o(t._ZN11QDataBufferI8QGLPointElsERKS0_)
    t._ZN11QDataBufferI9QPodPointE2atEi      0x0002164a   Section        8  qtriangulator.o(t._ZN11QDataBufferI9QPodPointE2atEi)
    t._ZN11QDataBufferI9QPodPointE3addERKS0_ 0x00021652   Section       34  qtriangulator.o(t._ZN11QDataBufferI9QPodPointE3addERKS0_)
    t._ZN11QDataBufferI9QPodPointE4lastEv    0x00021674   Section       12  qtriangulator.o(t._ZN11QDataBufferI9QPodPointE4lastEv)
    t._ZN11QDataBufferI9QPodPointE6resizeEi  0x00021680   Section       14  qtriangulator.o(t._ZN11QDataBufferI9QPodPointE6resizeEi)
    t._ZN11QDataBufferI9QPodPointE7reserveEi 0x0002168e   Section       42  qtriangulator.o(t._ZN11QDataBufferI9QPodPointE7reserveEi)
    t._ZN11QDataBufferI9QPodPointEC1Ei       0x000216b8   Section       30  qtriangulator.o(t._ZN11QDataBufferI9QPodPointEC1Ei)
    t._ZN11QDataBufferI9QPodPointED1Ev       0x000216d6   Section       18  qtriangulator.o(t._ZN11QDataBufferI9QPodPointED1Ev)
    t._ZN11QDataBufferIN11QStrokerOps7ElementEE3addERKS1_ 0x000216e8   Section       70  qtriangulatingstroker.o(t._ZN11QDataBufferIN11QStrokerOps7ElementEE3addERKS1_)
    t._ZN11QDataBufferIN12QPainterPath11ElementTypeEE7reserveEi 0x0002172e   Section       42  qtriangulatingstroker.o(t._ZN11QDataBufferIN12QPainterPath11ElementTypeEE7reserveEi)
    t._ZN11QDataBufferIN12QPainterPath11ElementTypeEED1Ev 0x00021758   Section       18  qpaintengineex_opengl2.o(t._ZN11QDataBufferIN12QPainterPath11ElementTypeEED1Ev)
    t._ZN11QDataBufferIN13QTriangulatorIjE15ComplexToSimple12IntersectionEED1Ev 0x0002176a   Section       18  qtriangulator.o(t._ZN11QDataBufferIN13QTriangulatorIjE15ComplexToSimple12IntersectionEED1Ev)
    t._ZN11QDataBufferIN13QTriangulatorIjE15ComplexToSimple4EdgeEE3addERKS3_ 0x0002177c   Section       74  qtriangulator.o(t._ZN11QDataBufferIN13QTriangulatorIjE15ComplexToSimple4EdgeEE3addERKS3_)
    t._ZN11QDataBufferIN13QTriangulatorIjE15ComplexToSimple4EdgeEED1Ev 0x000217c6   Section       18  qtriangulator.o(t._ZN11QDataBufferIN13QTriangulatorIjE15ComplexToSimple4EdgeEED1Ev)
    t._ZN11QDataBufferIN13QTriangulatorIjE15ComplexToSimple5EventEE3addERKS3_ 0x000217d8   Section       34  qtriangulator.o(t._ZN11QDataBufferIN13QTriangulatorIjE15ComplexToSimple5EventEE3addERKS3_)
    t._ZN11QDataBufferIN13QTriangulatorIjE15ComplexToSimple5EventEE4lastEv 0x000217fa   Section       12  qtriangulator.o(t._ZN11QDataBufferIN13QTriangulatorIjE15ComplexToSimple5EventEE4lastEv)
    t._ZN11QDataBufferIN13QTriangulatorIjE15ComplexToSimple5EventEE7reserveEi 0x00021806   Section       42  qtriangulator.o(t._ZN11QDataBufferIN13QTriangulatorIjE15ComplexToSimple5EventEE7reserveEi)
    t._ZN11QDataBufferIN13QTriangulatorIjE15ComplexToSimple5EventEED1Ev 0x00021830   Section       18  qtriangulator.o(t._ZN11QDataBufferIN13QTriangulatorIjE15ComplexToSimple5EventEED1Ev)
    t._ZN11QDataBufferIN13QTriangulatorIjE15ComplexToSimple5SplitEED1Ev 0x00021842   Section       18  qtriangulator.o(t._ZN11QDataBufferIN13QTriangulatorIjE15ComplexToSimple5SplitEED1Ev)
    t._ZN11QDataBufferIN13QTriangulatorIjE16SimpleToMonotone4EdgeEE3addERKS3_ 0x00021854   Section       40  qtriangulator.o(t._ZN11QDataBufferIN13QTriangulatorIjE16SimpleToMonotone4EdgeEE3addERKS3_)
    t._ZN11QDataBufferIN13QTriangulatorIjE16SimpleToMonotone4EdgeEE7reserveEi 0x0002187c   Section       44  qtriangulator.o(t._ZN11QDataBufferIN13QTriangulatorIjE16SimpleToMonotone4EdgeEE7reserveEi)
    t._ZN11QDataBufferIN13QTriangulatorIjE16SimpleToMonotone4EdgeEED1Ev 0x000218a8   Section       18  qtriangulator.o(t._ZN11QDataBufferIN13QTriangulatorIjE16SimpleToMonotone4EdgeEED1Ev)
    t._ZN11QDataBufferIN13QTriangulatorItE15ComplexToSimple12IntersectionEED1Ev 0x000218ba   Section       18  qtriangulator.o(t._ZN11QDataBufferIN13QTriangulatorItE15ComplexToSimple12IntersectionEED1Ev)
    t._ZN11QDataBufferIN13QTriangulatorItE15ComplexToSimple4EdgeEE3addERKS3_ 0x000218cc   Section       74  qtriangulator.o(t._ZN11QDataBufferIN13QTriangulatorItE15ComplexToSimple4EdgeEE3addERKS3_)
    t._ZN11QDataBufferIN13QTriangulatorItE15ComplexToSimple4EdgeEED1Ev 0x00021916   Section       18  qtriangulator.o(t._ZN11QDataBufferIN13QTriangulatorItE15ComplexToSimple4EdgeEED1Ev)
    t._ZN11QDataBufferIN13QTriangulatorItE15ComplexToSimple5EventEE3addERKS3_ 0x00021928   Section       34  qtriangulator.o(t._ZN11QDataBufferIN13QTriangulatorItE15ComplexToSimple5EventEE3addERKS3_)
    t._ZN11QDataBufferIN13QTriangulatorItE15ComplexToSimple5EventEE4lastEv 0x0002194a   Section       12  qtriangulator.o(t._ZN11QDataBufferIN13QTriangulatorItE15ComplexToSimple5EventEE4lastEv)
    t._ZN11QDataBufferIN13QTriangulatorItE15ComplexToSimple5EventEE7reserveEi 0x00021956   Section       42  qtriangulator.o(t._ZN11QDataBufferIN13QTriangulatorItE15ComplexToSimple5EventEE7reserveEi)
    t._ZN11QDataBufferIN13QTriangulatorItE15ComplexToSimple5EventEED1Ev 0x00021980   Section       18  qtriangulator.o(t._ZN11QDataBufferIN13QTriangulatorItE15ComplexToSimple5EventEED1Ev)
    t._ZN11QDataBufferIN13QTriangulatorItE15ComplexToSimple5SplitEED1Ev 0x00021992   Section       18  qtriangulator.o(t._ZN11QDataBufferIN13QTriangulatorItE15ComplexToSimple5SplitEED1Ev)
    t._ZN11QDataBufferIN13QTriangulatorItE16SimpleToMonotone4EdgeEE3addERKS3_ 0x000219a4   Section       38  qtriangulator.o(t._ZN11QDataBufferIN13QTriangulatorItE16SimpleToMonotone4EdgeEE3addERKS3_)
    t._ZN11QDataBufferIN13QTriangulatorItE16SimpleToMonotone4EdgeEE7reserveEi 0x000219ca   Section       42  qtriangulator.o(t._ZN11QDataBufferIN13QTriangulatorItE16SimpleToMonotone4EdgeEE7reserveEi)
    t._ZN11QDataBufferIN13QTriangulatorItE16SimpleToMonotone4EdgeEED1Ev 0x000219f4   Section       18  qtriangulator.o(t._ZN11QDataBufferIN13QTriangulatorItE16SimpleToMonotone4EdgeEED1Ev)
    t._ZN11QDataBufferIfE3addERKf            0x00021a06   Section       32  qtriangulatingstroker.o(t._ZN11QDataBufferIfE3addERKf)
    t._ZN11QDataBufferIfE7reserveEi          0x00021a26   Section       42  qtriangulatingstroker.o(t._ZN11QDataBufferIfE7reserveEi)
    t._ZN11QDataBufferIfEC1Ei                0x00021a50   Section       30  qpaintengineex_opengl2.o(t._ZN11QDataBufferIfEC1Ei)
    t._ZN11QDataBufferIfED1Ev                0x00021a6e   Section       18  qpaintengineex_opengl2.o(t._ZN11QDataBufferIfED1Ev)
    t._ZN11QDataBufferIfElsERKf              0x00021a80   Section       66  qpaintengineex_opengl2.o(t._ZN11QDataBufferIfElsERKf)
    t._ZN11QDataBufferIiE3addERKi            0x00021ac2   Section       32  qtriangulator.o(t._ZN11QDataBufferIiE3addERKi)
    t._ZN11QDataBufferIiE4lastEv             0x00021ae2   Section       12  qtriangulator.o(t._ZN11QDataBufferIiE4lastEv)
    t._ZN11QDataBufferIiE6resizeEi           0x00021aee   Section       14  qtriangulator.o(t._ZN11QDataBufferIiE6resizeEi)
    t._ZN11QDataBufferIiE7reserveEi          0x00021afc   Section       42  qtriangulator.o(t._ZN11QDataBufferIiE7reserveEi)
    t._ZN11QDataBufferIiEC1Ei                0x00021b26   Section       30  qtriangulator.o(t._ZN11QDataBufferIiEC1Ei)
    t._ZN11QDataBufferIiED1Ev                0x00021b44   Section       18  qpaintengineex_opengl2.o(t._ZN11QDataBufferIiED1Ev)
    t._ZN11QDataBufferIjE6resizeEi           0x00021b56   Section       46  qtriangulator.o(t._ZN11QDataBufferIjE6resizeEi)
    t._ZN11QDataBufferIjEC1Ei                0x00021b84   Section       30  qtriangulator.o(t._ZN11QDataBufferIjEC1Ei)
    t._ZN11QDataBufferIjED1Ev                0x00021ba2   Section       18  qtriangulator.o(t._ZN11QDataBufferIjED1Ev)
    t._ZN13QTriangulatorIjE10initializeEPKfijRK10QTransform 0x00021bb4   Section      174  qtriangulator.o(t._ZN13QTriangulatorIjE10initializeEPKfijRK10QTransform)
    t._ZN13QTriangulatorIjE10initializeERK11QVectorPathRK10QTransformf 0x00021c62   Section      570  qtriangulator.o(t._ZN13QTriangulatorIjE10initializeERK11QVectorPathRK10QTransformf)
    t._ZN13QTriangulatorIjE10initializeERK11QVectorPathRK10QTransformf.clean 0x00021e9c   Section       10  qtriangulator.o(t._ZN13QTriangulatorIjE10initializeERK11QVectorPathRK10QTransformf.clean)
    t._ZN13QTriangulatorIjE10initializeERK12QPainterPathRK10QTransformf 0x00021ea6   Section       28  qtriangulator.o(t._ZN13QTriangulatorIjE10initializeERK12QPainterPathRK10QTransformf)
    t._ZN13QTriangulatorIjE11triangulateEv   0x00021ec2   Section      224  qtriangulator.o(t._ZN13QTriangulatorIjE11triangulateEv)
    t._ZN13QTriangulatorIjE11triangulateEv.clean 0x00021fa2   Section       42  qtriangulator.o(t._ZN13QTriangulatorIjE11triangulateEv.clean)
    t._ZN13QTriangulatorIjE15ComplexToSimple12sortEdgeListE9QPodPoint 0x00021fcc   Section      270  qtriangulator.o(t._ZN13QTriangulatorIjE15ComplexToSimple12sortEdgeListE9QPodPoint)
    t._ZN13QTriangulatorIjE15ComplexToSimple17fillPriorityQueueEv 0x000220dc   Section      188  qtriangulator.o(t._ZN13QTriangulatorIjE15ComplexToSimple17fillPriorityQueueEv)
    t._ZN13QTriangulatorIjE15ComplexToSimple18removeUnusedPointsEv 0x00022198   Section      194  qtriangulator.o(t._ZN13QTriangulatorIjE15ComplexToSimple18removeUnusedPointsEv)
    t._ZN13QTriangulatorIjE15ComplexToSimple18removeUnusedPointsEv.clean 0x0002225a   Section       16  qtriangulator.o(t._ZN13QTriangulatorIjE15ComplexToSimple18removeUnusedPointsEv.clean)
    t._ZN13QTriangulatorIjE15ComplexToSimple18splitEdgeListRangeEPN7QRBTreeIiE4NodeES5_iRK18QIntersectionPoint 0x0002226a   Section      210  qtriangulator.o(t._ZN13QTriangulatorIjE15ComplexToSimple18splitEdgeListRangeEPN7QRBTreeIiE4NodeES5_iRK18QIntersectionPoint)
    t._ZN13QTriangulatorIjE15ComplexToSimple20reorderEdgeListRangeEPN7QRBTreeIiE4NodeES5_ 0x0002233c   Section      128  qtriangulator.o(t._ZN13QTriangulatorIjE15ComplexToSimple20reorderEdgeListRangeEPN7QRBTreeIiE4NodeES5_)
    t._ZN13QTriangulatorIjE15ComplexToSimple21calculateIntersectionEii 0x000223bc   Section      228  qtriangulator.o(t._ZN13QTriangulatorIjE15ComplexToSimple21calculateIntersectionEii)
    t._ZN13QTriangulatorIjE15ComplexToSimple22calculateIntersectionsEv 0x000224a0   Section      398  qtriangulator.o(t._ZN13QTriangulatorIjE15ComplexToSimple22calculateIntersectionsEv)
    t._ZN13QTriangulatorIjE15ComplexToSimple25splitEdgesAtIntersectionsEv 0x0002262e   Section      142  qtriangulator.o(t._ZN13QTriangulatorIjE15ComplexToSimple25splitEdgesAtIntersectionsEv)
    t._ZN13QTriangulatorIjE15ComplexToSimple28insertEdgeIntoVectorIfWantedER15QVarLengthArrayIiLi6EEi 0x000226bc   Section      182  qtriangulator.o(t._ZN13QTriangulatorIjE15ComplexToSimple28insertEdgeIntoVectorIfWantedER15QVarLengthArrayIiLi6EEi)
    t._ZN13QTriangulatorIjE15ComplexToSimple29removeUnwantedEdgesAndConnectEv 0x00022774   Section      652  qtriangulator.o(t._ZN13QTriangulatorIjE15ComplexToSimple29removeUnwantedEdgesAndConnectEv)
    t._ZN13QTriangulatorIjE15ComplexToSimple29removeUnwantedEdgesAndConnectEv.clean 0x00022a00   Section       10  qtriangulator.o(t._ZN13QTriangulatorIjE15ComplexToSimple29removeUnwantedEdgesAndConnectEv.clean)
    t._ZN13QTriangulatorIjE15ComplexToSimple4Edge5lowerEv 0x00022a0a   Section       14  qtriangulator.o(t._ZN13QTriangulatorIjE15ComplexToSimple4Edge5lowerEv)
    t._ZN13QTriangulatorIjE15ComplexToSimple4Edge5upperEv 0x00022a18   Section       16  qtriangulator.o(t._ZN13QTriangulatorIjE15ComplexToSimple4Edge5upperEv)
    t._ZN13QTriangulatorIjE15ComplexToSimple9decomposeEv 0x00022a28   Section      166  qtriangulator.o(t._ZN13QTriangulatorIjE15ComplexToSimple9decomposeEv)
    t._ZN13QTriangulatorIjE15ComplexToSimple9decomposeEv.clean 0x00022ace   Section       10  qtriangulator.o(t._ZN13QTriangulatorIjE15ComplexToSimple9decomposeEv.clean)
    t._ZN13QTriangulatorIjE15ComplexToSimple9initEdgesEv 0x00022ad8   Section      208  qtriangulator.o(t._ZN13QTriangulatorIjE15ComplexToSimple9initEdgesEv)
    t._ZN13QTriangulatorIjE15ComplexToSimple9splitEdgeEi 0x00022ba8   Section      134  qtriangulator.o(t._ZN13QTriangulatorIjE15ComplexToSimple9splitEdgeEi)
    t._ZN13QTriangulatorIjE15ComplexToSimpleC1EPS0_ 0x00022c2e   Section       60  qtriangulator.o(t._ZN13QTriangulatorIjE15ComplexToSimpleC1EPS0_)
    t._ZN13QTriangulatorIjE15ComplexToSimpleC1EPS0_.clean 0x00022c6a   Section       46  qtriangulator.o(t._ZN13QTriangulatorIjE15ComplexToSimpleC1EPS0_.clean)
    t._ZN13QTriangulatorIjE16SimpleToMonotone10findSectorEii 0x00022c98   Section       46  qtriangulator.o(t._ZN13QTriangulatorIjE16SimpleToMonotone10findSectorEii)
    t._ZN13QTriangulatorIjE16SimpleToMonotone14classifyVertexEi 0x00022cc6   Section      192  qtriangulator.o(t._ZN13QTriangulatorIjE16SimpleToMonotone14classifyVertexEi)
    t._ZN13QTriangulatorIjE16SimpleToMonotone14createDiagonalEii 0x00022d86   Section      162  qtriangulator.o(t._ZN13QTriangulatorIjE16SimpleToMonotone14createDiagonalEii)
    t._ZN13QTriangulatorIjE16SimpleToMonotone15pointIsInSectorERK9QPodPointS4_S4_S4_ 0x00022e28   Section       64  qtriangulator.o(t._ZN13QTriangulatorIjE16SimpleToMonotone15pointIsInSectorERK9QPodPointS4_S4_S4_)
    t._ZN13QTriangulatorIjE16SimpleToMonotone15pointIsInSectorEii 0x00022e68   Section      230  qtriangulator.o(t._ZN13QTriangulatorIjE16SimpleToMonotone15pointIsInSectorEii)
    t._ZN13QTriangulatorIjE16SimpleToMonotone19setupDataStructuresEv 0x00022f4e   Section      208  qtriangulator.o(t._ZN13QTriangulatorIjE16SimpleToMonotone19setupDataStructuresEv)
    t._ZN13QTriangulatorIjE16SimpleToMonotone21monotoneDecompositionEv 0x00023020   Section     1040  qtriangulator.o(t._ZN13QTriangulatorIjE16SimpleToMonotone21monotoneDecompositionEv)
    t._ZN13QTriangulatorIjE16SimpleToMonotone21monotoneDecompositionEv.clean 0x00023430   Section       10  qtriangulator.o(t._ZN13QTriangulatorIjE16SimpleToMonotone21monotoneDecompositionEv.clean)
    t._ZN13QTriangulatorIjE16SimpleToMonotone21removeZeroLengthEdgesEv 0x0002343a   Section      246  qtriangulator.o(t._ZN13QTriangulatorIjE16SimpleToMonotone21removeZeroLengthEdgesEv)
    t._ZN13QTriangulatorIjE16SimpleToMonotone21removeZeroLengthEdgesEv.clean 0x00023530   Section       10  qtriangulator.o(t._ZN13QTriangulatorIjE16SimpleToMonotone21removeZeroLengthEdgesEv.clean)
    t._ZN13QTriangulatorIjE16SimpleToMonotone9decomposeEv 0x0002353a   Section      160  qtriangulator.o(t._ZN13QTriangulatorIjE16SimpleToMonotone9decomposeEv)
    t._ZN13QTriangulatorIjE16SimpleToMonotone9decomposeEv.clean 0x000235da   Section       10  qtriangulator.o(t._ZN13QTriangulatorIjE16SimpleToMonotone9decomposeEv.clean)
    t._ZN13QTriangulatorIjE19MonotoneToTriangles9decomposeEv 0x000235e4   Section      822  qtriangulator.o(t._ZN13QTriangulatorIjE19MonotoneToTriangles9decomposeEv)
    t._ZN13QTriangulatorIjE19MonotoneToTriangles9decomposeEv.clean 0x0002391a   Section       16  qtriangulator.o(t._ZN13QTriangulatorIjE19MonotoneToTriangles9decomposeEv.clean)
    t._ZN13QTriangulatorIjE8polylineEv       0x0002392a   Section      114  qtriangulator.o(t._ZN13QTriangulatorIjE8polylineEv)
    t._ZN13QTriangulatorIjE8polylineEv.clean 0x0002399c   Section       10  qtriangulator.o(t._ZN13QTriangulatorIjE8polylineEv.clean)
    t._ZN13QTriangulatorIjEC1Ev              0x000239a6   Section       20  qtriangulator.o(t._ZN13QTriangulatorIjEC1Ev)
    t._ZN13QTriangulatorIjEC1Ev.clean        0x000239ba   Section       10  qtriangulator.o(t._ZN13QTriangulatorIjEC1Ev.clean)
    t._ZN13QTriangulatorItE10initializeEPKfijRK10QTransform 0x000239c4   Section      174  qtriangulator.o(t._ZN13QTriangulatorItE10initializeEPKfijRK10QTransform)
    t._ZN13QTriangulatorItE10initializeERK11QVectorPathRK10QTransformf 0x00023a72   Section      570  qtriangulator.o(t._ZN13QTriangulatorItE10initializeERK11QVectorPathRK10QTransformf)
    t._ZN13QTriangulatorItE10initializeERK11QVectorPathRK10QTransformf.clean 0x00023cac   Section       10  qtriangulator.o(t._ZN13QTriangulatorItE10initializeERK11QVectorPathRK10QTransformf.clean)
    t._ZN13QTriangulatorItE10initializeERK12QPainterPathRK10QTransformf 0x00023cb6   Section       28  qtriangulator.o(t._ZN13QTriangulatorItE10initializeERK12QPainterPathRK10QTransformf)
    t._ZN13QTriangulatorItE11triangulateEv   0x00023cd2   Section      234  qtriangulator.o(t._ZN13QTriangulatorItE11triangulateEv)
    t._ZN13QTriangulatorItE11triangulateEv.clean 0x00023dbc   Section       50  qtriangulator.o(t._ZN13QTriangulatorItE11triangulateEv.clean)
    t._ZN13QTriangulatorItE15ComplexToSimple12sortEdgeListE9QPodPoint 0x00023dee   Section      270  qtriangulator.o(t._ZN13QTriangulatorItE15ComplexToSimple12sortEdgeListE9QPodPoint)
    t._ZN13QTriangulatorItE15ComplexToSimple17fillPriorityQueueEv 0x00023efc   Section      188  qtriangulator.o(t._ZN13QTriangulatorItE15ComplexToSimple17fillPriorityQueueEv)
    t._ZN13QTriangulatorItE15ComplexToSimple18removeUnusedPointsEv 0x00023fb8   Section      194  qtriangulator.o(t._ZN13QTriangulatorItE15ComplexToSimple18removeUnusedPointsEv)
    t._ZN13QTriangulatorItE15ComplexToSimple18removeUnusedPointsEv.clean 0x0002407a   Section       16  qtriangulator.o(t._ZN13QTriangulatorItE15ComplexToSimple18removeUnusedPointsEv.clean)
    t._ZN13QTriangulatorItE15ComplexToSimple18splitEdgeListRangeEPN7QRBTreeIiE4NodeES5_iRK18QIntersectionPoint 0x0002408a   Section      210  qtriangulator.o(t._ZN13QTriangulatorItE15ComplexToSimple18splitEdgeListRangeEPN7QRBTreeIiE4NodeES5_iRK18QIntersectionPoint)
    t._ZN13QTriangulatorItE15ComplexToSimple20reorderEdgeListRangeEPN7QRBTreeIiE4NodeES5_ 0x0002415c   Section      128  qtriangulator.o(t._ZN13QTriangulatorItE15ComplexToSimple20reorderEdgeListRangeEPN7QRBTreeIiE4NodeES5_)
    t._ZN13QTriangulatorItE15ComplexToSimple21calculateIntersectionEii 0x000241dc   Section      228  qtriangulator.o(t._ZN13QTriangulatorItE15ComplexToSimple21calculateIntersectionEii)
    t._ZN13QTriangulatorItE15ComplexToSimple22calculateIntersectionsEv 0x000242c0   Section      398  qtriangulator.o(t._ZN13QTriangulatorItE15ComplexToSimple22calculateIntersectionsEv)
    t._ZN13QTriangulatorItE15ComplexToSimple25splitEdgesAtIntersectionsEv 0x0002444e   Section      142  qtriangulator.o(t._ZN13QTriangulatorItE15ComplexToSimple25splitEdgesAtIntersectionsEv)
    t._ZN13QTriangulatorItE15ComplexToSimple28insertEdgeIntoVectorIfWantedER15QVarLengthArrayIiLi6EEi 0x000244dc   Section      182  qtriangulator.o(t._ZN13QTriangulatorItE15ComplexToSimple28insertEdgeIntoVectorIfWantedER15QVarLengthArrayIiLi6EEi)
    t._ZN13QTriangulatorItE15ComplexToSimple29removeUnwantedEdgesAndConnectEv 0x00024594   Section      652  qtriangulator.o(t._ZN13QTriangulatorItE15ComplexToSimple29removeUnwantedEdgesAndConnectEv)
    t._ZN13QTriangulatorItE15ComplexToSimple29removeUnwantedEdgesAndConnectEv.clean 0x00024820   Section       10  qtriangulator.o(t._ZN13QTriangulatorItE15ComplexToSimple29removeUnwantedEdgesAndConnectEv.clean)
    t._ZN13QTriangulatorItE15ComplexToSimple4Edge5lowerEv 0x0002482a   Section       14  qtriangulator.o(t._ZN13QTriangulatorItE15ComplexToSimple4Edge5lowerEv)
    t._ZN13QTriangulatorItE15ComplexToSimple4Edge5upperEv 0x00024838   Section       16  qtriangulator.o(t._ZN13QTriangulatorItE15ComplexToSimple4Edge5upperEv)
    t._ZN13QTriangulatorItE15ComplexToSimple9decomposeEv 0x00024848   Section      166  qtriangulator.o(t._ZN13QTriangulatorItE15ComplexToSimple9decomposeEv)
    t._ZN13QTriangulatorItE15ComplexToSimple9decomposeEv.clean 0x000248ee   Section       10  qtriangulator.o(t._ZN13QTriangulatorItE15ComplexToSimple9decomposeEv.clean)
    t._ZN13QTriangulatorItE15ComplexToSimple9initEdgesEv 0x000248f8   Section      216  qtriangulator.o(t._ZN13QTriangulatorItE15ComplexToSimple9initEdgesEv)
    t._ZN13QTriangulatorItE15ComplexToSimple9splitEdgeEi 0x000249d0   Section      134  qtriangulator.o(t._ZN13QTriangulatorItE15ComplexToSimple9splitEdgeEi)
    t._ZN13QTriangulatorItE15ComplexToSimpleC1EPS0_ 0x00024a56   Section       60  qtriangulator.o(t._ZN13QTriangulatorItE15ComplexToSimpleC1EPS0_)
    t._ZN13QTriangulatorItE15ComplexToSimpleC1EPS0_.clean 0x00024a92   Section       46  qtriangulator.o(t._ZN13QTriangulatorItE15ComplexToSimpleC1EPS0_.clean)
    t._ZN13QTriangulatorItE16SimpleToMonotone10findSectorEii 0x00024ac0   Section       42  qtriangulator.o(t._ZN13QTriangulatorItE16SimpleToMonotone10findSectorEii)
    t._ZN13QTriangulatorItE16SimpleToMonotone14classifyVertexEi 0x00024aea   Section      184  qtriangulator.o(t._ZN13QTriangulatorItE16SimpleToMonotone14classifyVertexEi)
    t._ZN13QTriangulatorItE16SimpleToMonotone14createDiagonalEii 0x00024ba2   Section      158  qtriangulator.o(t._ZN13QTriangulatorItE16SimpleToMonotone14createDiagonalEii)
    t._ZN13QTriangulatorItE16SimpleToMonotone15pointIsInSectorERK9QPodPointS4_S4_S4_ 0x00024c40   Section       64  qtriangulator.o(t._ZN13QTriangulatorItE16SimpleToMonotone15pointIsInSectorERK9QPodPointS4_S4_S4_)
    t._ZN13QTriangulatorItE16SimpleToMonotone15pointIsInSectorEii 0x00024c80   Section      216  qtriangulator.o(t._ZN13QTriangulatorItE16SimpleToMonotone15pointIsInSectorEii)
    t._ZN13QTriangulatorItE16SimpleToMonotone19setupDataStructuresEv 0x00024d58   Section      208  qtriangulator.o(t._ZN13QTriangulatorItE16SimpleToMonotone19setupDataStructuresEv)
    t._ZN13QTriangulatorItE16SimpleToMonotone21monotoneDecompositionEv 0x00024e28   Section     1000  qtriangulator.o(t._ZN13QTriangulatorItE16SimpleToMonotone21monotoneDecompositionEv)
    t._ZN13QTriangulatorItE16SimpleToMonotone21monotoneDecompositionEv.clean 0x00025210   Section       10  qtriangulator.o(t._ZN13QTriangulatorItE16SimpleToMonotone21monotoneDecompositionEv.clean)
    t._ZN13QTriangulatorItE16SimpleToMonotone21removeZeroLengthEdgesEv 0x0002521a   Section      236  qtriangulator.o(t._ZN13QTriangulatorItE16SimpleToMonotone21removeZeroLengthEdgesEv)
    t._ZN13QTriangulatorItE16SimpleToMonotone21removeZeroLengthEdgesEv.clean 0x00025306   Section       10  qtriangulator.o(t._ZN13QTriangulatorItE16SimpleToMonotone21removeZeroLengthEdgesEv.clean)
    t._ZN13QTriangulatorItE16SimpleToMonotone9decomposeEv 0x00025310   Section      160  qtriangulator.o(t._ZN13QTriangulatorItE16SimpleToMonotone9decomposeEv)
    t._ZN13QTriangulatorItE16SimpleToMonotone9decomposeEv.clean 0x000253b0   Section       10  qtriangulator.o(t._ZN13QTriangulatorItE16SimpleToMonotone9decomposeEv.clean)
    t._ZN13QTriangulatorItE19MonotoneToTriangles9decomposeEv 0x000253bc   Section      828  qtriangulator.o(t._ZN13QTriangulatorItE19MonotoneToTriangles9decomposeEv)
    t._ZN13QTriangulatorItE19MonotoneToTriangles9decomposeEv.clean 0x000256f8   Section       16  qtriangulator.o(t._ZN13QTriangulatorItE19MonotoneToTriangles9decomposeEv.clean)
    t._ZN13QTriangulatorItEC1Ev              0x00025708   Section       20  qtriangulator.o(t._ZN13QTriangulatorItEC1Ev)
    t._ZN13QTriangulatorItEC1Ev.clean        0x0002571c   Section       10  qtriangulator.o(t._ZN13QTriangulatorItEC1Ev.clean)
    t._ZN14QScopedPointerI13QPixmapFilter21QScopedPointerDeleterIS0_EE5resetEPS0_ 0x00025726   Section       24  qglpixmapfilter.o(t._ZN14QScopedPointerI13QPixmapFilter21QScopedPointerDeleterIS0_EE5resetEPS0_)
    t._ZN14QScopedPointerI13QPixmapFilter21QScopedPointerDeleterIS0_EED1Ev 0x0002573e   Section       24  qpaintengineex_opengl2.o(t._ZN14QScopedPointerI13QPixmapFilter21QScopedPointerDeleterIS0_EED1Ev)
    t._ZN14QScopedPointerI17QGLContextPrivate21QScopedPointerDeleterIS0_EED1Ev 0x00025756   Section       26  qgl.o(t._ZN14QScopedPointerI17QGLContextPrivate21QScopedPointerDeleterIS0_EED1Ev)
    t._ZN14QScopedPointerI20QGLGlobalShareWidget21QScopedPointerDeleterIS0_EED1Ev 0x00025770   Section       18  qwindowsurface_gl.o(t._ZN14QScopedPointerI20QGLGlobalShareWidget21QScopedPointerDeleterIS0_EED1Ev)
    t._ZN14QScopedPointerI21QGLPixelBufferPrivate21QScopedPointerDeleterIS0_EED1Ev 0x00025782   Section       58  qglpixelbuffer.o(t._ZN14QScopedPointerI21QGLPixelBufferPrivate21QScopedPointerDeleterIS0_EED1Ev)
    t._ZN14QScopedPointerI21QGLPixelBufferPrivate21QScopedPointerDeleterIS0_EED1Ev.clean 0x000257bc   Section       36  qglpixelbuffer.o(t._ZN14QScopedPointerI21QGLPixelBufferPrivate21QScopedPointerDeleterIS0_EED1Ev.clean)
    t._ZN14QScopedPointerI26QGLTemporaryContextPrivate21QScopedPointerDeleterIS0_EED1Ev 0x000257e0   Section       18  qgl_symbian.o(t._ZN14QScopedPointerI26QGLTemporaryContextPrivate21QScopedPointerDeleterIS0_EED1Ev)
    t._ZN14QScopedPointerI27QGLFramebufferObjectPrivate21QScopedPointerDeleterIS0_EED1Ev 0x000257f2   Section       48  qglframebufferobject.o(t._ZN14QScopedPointerI27QGLFramebufferObjectPrivate21QScopedPointerDeleterIS0_EED1Ev)
    t._ZN14QScopedPointerI27QGLFramebufferObjectPrivate21QScopedPointerDeleterIS0_EED1Ev.clean 0x00025822   Section       22  qglframebufferobject.o(t._ZN14QScopedPointerI27QGLFramebufferObjectPrivate21QScopedPointerDeleterIS0_EED1Ev.clean)
    t._ZN14QThreadStorageIP16QGLThreadContextE10deleteDataEPv 0x00025838   Section        8  qgl.o(t._ZN14QThreadStorageIP16QGLThreadContextE10deleteDataEPv)
    t._ZN14QThreadStorageIP16QGLThreadContextE9localDataEv 0x00025840   Section       22  qgl.o(t._ZN14QThreadStorageIP16QGLThreadContextE9localDataEv)
    t._ZN14QThreadStorageIP16QGLThreadContextED1Ev 0x00025856   Section        8  qgl.o(t._ZN14QThreadStorageIP16QGLThreadContextED1Ev)
    t._ZN15QVarLengthArrayI11QFixedPointLi256EED1Ev 0x0002585e   Section       22  qpaintengineex_opengl2.o(t._ZN15QVarLengthArrayI11QFixedPointLi256EED1Ev)
    t._ZN15QVarLengthArrayIPKcLi4EE6appendERKS1_ 0x00025874   Section       36  qglshaderprogram.o(t._ZN15QVarLengthArrayIPKcLi4EE6appendERKS1_)
    t._ZN15QVarLengthArrayIPKcLi4EE7reallocEii 0x00025898   Section      106  qglshaderprogram.o(t._ZN15QVarLengthArrayIPKcLi4EE7reallocEii)
    t._ZN15QVarLengthArrayIPKcLi4EE7reallocEii.clean 0x00025902   Section        4  qglshaderprogram.o(t._ZN15QVarLengthArrayIPKcLi4EE7reallocEii.clean)
    t._ZN15QVarLengthArrayIPKcLi4EED1Ev      0x00025906   Section       22  qglshaderprogram.o(t._ZN15QVarLengthArrayIPKcLi4EED1Ev)
    t._ZN15QVarLengthArrayIfLi256EE6appendERKf 0x0002591c   Section       36  qtriangulatingstroker.o(t._ZN15QVarLengthArrayIfLi256EE6appendERKf)
    t._ZN15QVarLengthArrayIfLi256EE7reallocEii 0x00025940   Section      106  qtriangulatingstroker.o(t._ZN15QVarLengthArrayIfLi256EE7reallocEii)
    t._ZN15QVarLengthArrayIfLi256EE7reallocEii.clean 0x000259aa   Section        4  qtriangulatingstroker.o(t._ZN15QVarLengthArrayIfLi256EE7reallocEii.clean)
    t._ZN15QVarLengthArrayIfLi256EEC1Ei      0x000259ae   Section       46  qglshaderprogram.o(t._ZN15QVarLengthArrayIfLi256EEC1Ei)
    t._ZN15QVarLengthArrayIfLi256EED1Ev      0x000259dc   Section       22  qglshaderprogram.o(t._ZN15QVarLengthArrayIfLi256EED1Ev)
    t._ZN15QVarLengthArrayIhLi256EEC1Ei      0x000259f2   Section       48  qtextureglyphcache_gl.o(t._ZN15QVarLengthArrayIhLi256EEC1Ei)
    t._ZN15QVarLengthArrayIhLi256EED1Ev      0x00025a22   Section       22  qtextureglyphcache_gl.o(t._ZN15QVarLengthArrayIhLi256EED1Ev)
    t._ZN15QVarLengthArrayIiLi256EED1Ev      0x00025a38   Section       22  qgl_symbian.o(t._ZN15QVarLengthArrayIiLi256EED1Ev)
    t._ZN15QVarLengthArrayIiLi4EE6appendERKi 0x00025a4e   Section       36  qglshaderprogram.o(t._ZN15QVarLengthArrayIiLi4EE6appendERKi)
    t._ZN15QVarLengthArrayIiLi4EE7reallocEii 0x00025a72   Section      106  qglshaderprogram.o(t._ZN15QVarLengthArrayIiLi4EE7reallocEii)
    t._ZN15QVarLengthArrayIiLi4EE7reallocEii.clean 0x00025adc   Section        4  qglshaderprogram.o(t._ZN15QVarLengthArrayIiLi4EE7reallocEii.clean)
    t._ZN15QVarLengthArrayIiLi4EED1Ev        0x00025ae0   Section       22  qglshaderprogram.o(t._ZN15QVarLengthArrayIiLi4EED1Ev)
    t._ZN15QVarLengthArrayIiLi6EE10removeLastEv 0x00025af6   Section       14  qtriangulator.o(t._ZN15QVarLengthArrayIiLi6EE10removeLastEv)
    t._ZN15QVarLengthArrayIiLi6EE5clearEv    0x00025b04   Section       28  qtriangulator.o(t._ZN15QVarLengthArrayIiLi6EE5clearEv)
    t._ZN15QVarLengthArrayIiLi6EE6appendERKi 0x00025b20   Section       36  qtriangulator.o(t._ZN15QVarLengthArrayIiLi6EE6appendERKi)
    t._ZN15QVarLengthArrayIiLi6EE7reallocEii 0x00025b44   Section      102  qtriangulator.o(t._ZN15QVarLengthArrayIiLi6EE7reallocEii)
    t._ZN15QVarLengthArrayIiLi6EE7reallocEii.clean 0x00025baa   Section        4  qtriangulator.o(t._ZN15QVarLengthArrayIiLi6EE7reallocEii.clean)
    t._ZN15QVarLengthArrayIiLi6EEC1Ei        0x00025bae   Section       44  qtriangulator.o(t._ZN15QVarLengthArrayIiLi6EEC1Ei)
    t._ZN15QVarLengthArrayIiLi6EED1Ev        0x00025bda   Section       22  qtriangulator.o(t._ZN15QVarLengthArrayIiLi6EED1Ev)
    t._ZN15QVarLengthArrayIjLi256EED1Ev      0x00025bf0   Section       22  qpaintengineex_opengl2.o(t._ZN15QVarLengthArrayIjLi256EED1Ev)
    t._ZN20QGlobalStaticDeleterI14QGLSignalProxyED1Ev 0x00025c06   Section       34  qgl.o(t._ZN20QGlobalStaticDeleterI14QGLSignalProxyED1Ev)
    t._ZN20QGlobalStaticDeleterI15QGLTextureCacheED1Ev 0x00025c28   Section       36  qgl.o(t._ZN20QGlobalStaticDeleterI15QGLTextureCacheED1Ev)
    t._ZN20QGlobalStaticDeleterI17QGL2PaintEngineExED1Ev 0x00025c4c   Section       34  qgl.o(t._ZN20QGlobalStaticDeleterI17QGL2PaintEngineExED1Ev)
    t._ZN20QGlobalStaticDeleterI17QGLEngineSelectorED1Ev 0x00025c6e   Section       28  qgl.o(t._ZN20QGlobalStaticDeleterI17QGLEngineSelectorED1Ev)
    t._ZN20QGlobalStaticDeleterI18QGLContextResourceED1Ev 0x00025c8a   Section       36  qglpixmapfilter.o(t._ZN20QGlobalStaticDeleterI18QGLContextResourceED1Ev)
    t._ZN20QGlobalStaticDeleterI19QGLContextGroupListED1Ev 0x00025cae   Section       36  qgl.o(t._ZN20QGlobalStaticDeleterI19QGLContextGroupListED1Ev)
    t._ZN20QGlobalStaticDeleterI20QGLDefaultExtensionsED1Ev 0x00025cd2   Section       28  qgl.o(t._ZN20QGlobalStaticDeleterI20QGLDefaultExtensionsED1Ev)
    t._ZN20QGlobalStaticDeleterI20QGLGlobalShareWidgetED1Ev 0x00025cee   Section       28  qwindowsurface_gl.o(t._ZN20QGlobalStaticDeleterI20QGLGlobalShareWidgetED1Ev)
    t._ZN20QGlobalStaticDeleterI23QGLDefaultOverlayFormatED1Ev 0x00025d0a   Section       36  qgl.o(t._ZN20QGlobalStaticDeleterI23QGLDefaultOverlayFormatED1Ev)
    t._ZN20QGlobalStaticDeleterI24QGLFramebufferObjectPoolED1Ev 0x00025d2e   Section       36  qpixmapdata_gl.o(t._ZN20QGlobalStaticDeleterI24QGLFramebufferObjectPoolED1Ev)
    t._ZN20QGlobalStaticDeleterI9QGLFormatED1Ev 0x00025d52   Section       36  qgl.o(t._ZN20QGlobalStaticDeleterI9QGLFormatED1Ev)
    t._ZN5QHashI18QGLTextureCacheKeyN6QCacheIS0_10QGLTextureE4NodeEE11deleteNode2EPN9QHashData4NodeE 0x00025d76   Section        2  qgl.o(t._ZN5QHashI18QGLTextureCacheKeyN6QCacheIS0_10QGLTextureE4NodeEE11deleteNode2EPN9QHashData4NodeE)
    t._ZN5QHashI18QGLTextureCacheKeyN6QCacheIS0_10QGLTextureE4NodeEE13detach_helperEv 0x00025d78   Section       56  qgl.o(t._ZN5QHashI18QGLTextureCacheKeyN6QCacheIS0_10QGLTextureE4NodeEE13detach_helperEv)
    t._ZN5QHashI18QGLTextureCacheKeyN6QCacheIS0_10QGLTextureE4NodeEE13duplicateNodeEPN9QHashData4NodeEPv 0x00025db0   Section       32  qgl.o(t._ZN5QHashI18QGLTextureCacheKeyN6QCacheIS0_10QGLTextureE4NodeEE13duplicateNodeEPN9QHashData4NodeEPv)
    t._ZN5QHashI18QGLTextureCacheKeyN6QCacheIS0_10QGLTextureE4NodeEE13duplicateNodeEPN9QHashData4NodeEPv.clean 0x00025dd0   Section       12  qgl.o(t._ZN5QHashI18QGLTextureCacheKeyN6QCacheIS0_10QGLTextureE4NodeEE13duplicateNodeEPN9QHashData4NodeEPv.clean)
    t._ZN5QHashI18QGLTextureCacheKeyN6QCacheIS0_10QGLTextureE4NodeEE4findERKS0_ 0x00025ddc   Section       24  qgl.o(t._ZN5QHashI18QGLTextureCacheKeyN6QCacheIS0_10QGLTextureE4NodeEE4findERKS0_)
    t._ZN5QHashI18QGLTextureCacheKeyN6QCacheIS0_10QGLTextureE4NodeEE6detachEv 0x00025df4   Section       26  qgl.o(t._ZN5QHashI18QGLTextureCacheKeyN6QCacheIS0_10QGLTextureE4NodeEE6detachEv)
    t._ZN5QHashI18QGLTextureCacheKeyN6QCacheIS0_10QGLTextureE4NodeEE6insertERKS0_RKS4_ 0x00025e0e   Section      124  qgl.o(t._ZN5QHashI18QGLTextureCacheKeyN6QCacheIS0_10QGLTextureE4NodeEE6insertERKS0_RKS4_)
    t._ZN5QHashI18QGLTextureCacheKeyN6QCacheIS0_10QGLTextureE4NodeEE6insertERKS0_RKS4_.clean 0x00025e8a   Section       12  qgl.o(t._ZN5QHashI18QGLTextureCacheKeyN6QCacheIS0_10QGLTextureE4NodeEE6insertERKS0_RKS4_.clean)
    t._ZN5QHashI18QGLTextureCacheKeyN6QCacheIS0_10QGLTextureE4NodeEE6removeERKS0_ 0x00025e96   Section      118  qgl.o(t._ZN5QHashI18QGLTextureCacheKeyN6QCacheIS0_10QGLTextureE4NodeEE6removeERKS0_)
    t._ZN5QHashI18QGLTextureCacheKeyN6QCacheIS0_10QGLTextureE4NodeEE8freeDataEP9QHashData 0x00025f0c   Section       16  qgl.o(t._ZN5QHashI18QGLTextureCacheKeyN6QCacheIS0_10QGLTextureE4NodeEE8freeDataEP9QHashData)
    t._ZN5QHashI18QGLTextureCacheKeyN6QCacheIS0_10QGLTextureE4NodeEEC1Ev 0x00025f1c   Section       24  qgl.o(t._ZN5QHashI18QGLTextureCacheKeyN6QCacheIS0_10QGLTextureE4NodeEEC1Ev)
    t._ZN5QHashI18QGLTextureCacheKeyN6QCacheIS0_10QGLTextureE4NodeEED1Ev 0x00025f34   Section       28  qgl.o(t._ZN5QHashI18QGLTextureCacheKeyN6QCacheIS0_10QGLTextureE4NodeEED1Ev)
    t._ZN5QHashI7QStringjE11deleteNode2EPN9QHashData4NodeE 0x00025f50   Section       10  qgl.o(t._ZN5QHashI7QStringjE11deleteNode2EPN9QHashData4NodeE)
    t._ZN5QHashI7QStringjE13duplicateNodeEPN9QHashData4NodeEPv 0x00025f5a   Section       30  qgl.o(t._ZN5QHashI7QStringjE13duplicateNodeEPN9QHashData4NodeEPv)
    t._ZN5QHashI7QStringjE13duplicateNodeEPN9QHashData4NodeEPv.clean 0x00025f78   Section       12  qgl.o(t._ZN5QHashI7QStringjE13duplicateNodeEPN9QHashData4NodeEPv.clean)
    t._ZN5QHashI7QStringjE6detachEv          0x00025f84   Section       68  qgl.o(t._ZN5QHashI7QStringjE6detachEv)
    t._ZN5QHashI7QStringjE6insertERKS0_RKj   0x00025fc8   Section      118  qgl.o(t._ZN5QHashI7QStringjE6insertERKS0_RKj)
    t._ZN5QHashI7QStringjE6insertERKS0_RKj.clean 0x0002603e   Section       12  qgl.o(t._ZN5QHashI7QStringjE6insertERKS0_RKj.clean)
    t._ZN5QHashI7QStringjE6removeERKS0_      0x0002604a   Section      128  qgl.o(t._ZN5QHashI7QStringjE6removeERKS0_)
    t._ZN5QHashI7QStringjE8freeDataEP9QHashData 0x000260cc   Section       16  qgl.o(t._ZN5QHashI7QStringjE8freeDataEP9QHashData)
    t._ZN5QHashI7QStringjED1Ev               0x000260dc   Section       28  qgl.o(t._ZN5QHashI7QStringjED1Ev)
    t._ZN5QHashIP18QGLContextResourcePvE11deleteNode2EPN9QHashData4NodeE 0x000260f8   Section        2  qgl.o(t._ZN5QHashIP18QGLContextResourcePvE11deleteNode2EPN9QHashData4NodeE)
    t._ZN5QHashIP18QGLContextResourcePvE13duplicateNodeEPN9QHashData4NodeES2_ 0x000260fa   Section       24  qgl.o(t._ZN5QHashIP18QGLContextResourcePvE13duplicateNodeEPN9QHashData4NodeES2_)
    t._ZN5QHashIP18QGLContextResourcePvE6detachEv 0x00026114   Section       68  qgl.o(t._ZN5QHashIP18QGLContextResourcePvE6detachEv)
    t._ZN5QHashIP18QGLContextResourcePvE6insertERKS1_RKS2_ 0x00026158   Section      116  qgl.o(t._ZN5QHashIP18QGLContextResourcePvE6insertERKS1_RKS2_)
    t._ZN5QHashIP18QGLContextResourcePvE6insertERKS1_RKS2_.clean 0x000261cc   Section        4  qgl.o(t._ZN5QHashIP18QGLContextResourcePvE6insertERKS1_RKS2_.clean)
    t._ZN5QHashIP18QGLContextResourcePvE8freeDataEP9QHashData 0x000261d0   Section       16  qgl.o(t._ZN5QHashIP18QGLContextResourcePvE8freeDataEP9QHashData)
    t._ZN5QHashIP18QGLContextResourcePvED1Ev 0x000261e0   Section       28  qgl.o(t._ZN5QHashIP18QGLContextResourcePvED1Ev)
    t._ZN5QHashIP7QWidget15QHashDummyValueE11deleteNode2EPN9QHashData4NodeE 0x000261fc   Section        2  qwindowsurface_gl.o(t._ZN5QHashIP7QWidget15QHashDummyValueE11deleteNode2EPN9QHashData4NodeE)
    t._ZN5QHashIP7QWidget15QHashDummyValueE13duplicateNodeEPN9QHashData4NodeEPv 0x000261fe   Section       20  qwindowsurface_gl.o(t._ZN5QHashIP7QWidget15QHashDummyValueE13duplicateNodeEPN9QHashData4NodeEPv)
    t._ZN5QHashIP7QWidget15QHashDummyValueE6removeERKS1_ 0x00026214   Section      260  qwindowsurface_gl.o(t._ZN5QHashIP7QWidget15QHashDummyValueE6removeERKS1_)
    t._ZN5QHashIPN11QVectorPath10CacheEntryE15QHashDummyValueE11deleteNode2EPN9QHashData4NodeE 0x00026318   Section        2  qpaintengineex_opengl2.o(t._ZN5QHashIPN11QVectorPath10CacheEntryE15QHashDummyValueE11deleteNode2EPN9QHashData4NodeE)
    t._ZN5QHashIPN11QVectorPath10CacheEntryE15QHashDummyValueED1Ev 0x0002631c   Section       32  qpaintengineex_opengl2.o(t._ZN5QHashIPN11QVectorPath10CacheEntryE15QHashDummyValueED1Ev)
    t._ZN5QHashIjN18QTextureGlyphCache5CoordEE11deleteNode2EPN9QHashData4NodeE 0x0002633c   Section        2  qtextureglyphcache_gl.o(t._ZN5QHashIjN18QTextureGlyphCache5CoordEE11deleteNode2EPN9QHashData4NodeE)
    t._ZN5QHashIjN18QTextureGlyphCache5CoordEE13duplicateNodeEPN9QHashData4NodeEPv 0x0002633e   Section       28  qtextureglyphcache_gl.o(t._ZN5QHashIjN18QTextureGlyphCache5CoordEE13duplicateNodeEPN9QHashData4NodeEPv)
    t._ZN5QHashIjN18QTextureGlyphCache5CoordEE5clearEv 0x0002635c   Section      112  qtextureglyphcache_gl.o(t._ZN5QHashIjN18QTextureGlyphCache5CoordEE5clearEv)
    t._ZN5QHashIjN18QTextureGlyphCache5CoordEE5clearEv.clean 0x000263cc   Section       10  qtextureglyphcache_gl.o(t._ZN5QHashIjN18QTextureGlyphCache5CoordEE5clearEv.clean)
    t._ZN5QHashIjN18QTextureGlyphCache5CoordEE8freeDataEP9QHashData 0x000263d8   Section       16  qtextureglyphcache_gl.o(t._ZN5QHashIjN18QTextureGlyphCache5CoordEE8freeDataEP9QHashData)
    t._ZN5QHashIjN18QTextureGlyphCache5CoordEEC1Ev 0x000263e8   Section       24  qtextureglyphcache_gl.o(t._ZN5QHashIjN18QTextureGlyphCache5CoordEEC1Ev)
    t._ZN5QHashIjN18QTextureGlyphCache5CoordEED1Ev 0x00026400   Section       28  qtextureglyphcache_gl.o(t._ZN5QHashIjN18QTextureGlyphCache5CoordEED1Ev)
    t._ZN5QHashIyN17QGL2GradientCache9CacheInfoEE11deleteNode2EPN9QHashData4NodeE 0x0002641c   Section       10  qglgradientcache.o(t._ZN5QHashIyN17QGL2GradientCache9CacheInfoEE11deleteNode2EPN9QHashData4NodeE)
    t._ZN5QHashIyN17QGL2GradientCache9CacheInfoEE13detach_helperEv 0x00026428   Section       56  qglgradientcache.o(t._ZN5QHashIyN17QGL2GradientCache9CacheInfoEE13detach_helperEv)
    t._ZN5QHashIyN17QGL2GradientCache9CacheInfoEE13duplicateNodeEPN9QHashData4NodeEPv 0x00026460   Section       32  qglgradientcache.o(t._ZN5QHashIyN17QGL2GradientCache9CacheInfoEE13duplicateNodeEPN9QHashData4NodeEPv)
    t._ZN5QHashIyN17QGL2GradientCache9CacheInfoEE13duplicateNodeEPN9QHashData4NodeEPv.clean 0x00026480   Section       12  qglgradientcache.o(t._ZN5QHashIyN17QGL2GradientCache9CacheInfoEE13duplicateNodeEPN9QHashData4NodeEPv.clean)
    t._ZN5QHashIyN17QGL2GradientCache9CacheInfoEE14const_iteratorppEv 0x0002648c   Section       16  qglgradientcache.o(t._ZN5QHashIyN17QGL2GradientCache9CacheInfoEE14const_iteratorppEv)
    t._ZN5QHashIyN17QGL2GradientCache9CacheInfoEE6detachEv 0x0002649c   Section       26  qglgradientcache.o(t._ZN5QHashIyN17QGL2GradientCache9CacheInfoEE6detachEv)
    t._ZN5QHashIyN17QGL2GradientCache9CacheInfoEE6removeERKy 0x000264b6   Section      184  qglgradientcache.o(t._ZN5QHashIyN17QGL2GradientCache9CacheInfoEE6removeERKy)
    t._ZN5QHashIyN17QGL2GradientCache9CacheInfoEE8freeDataEP9QHashData 0x00026570   Section       16  qglgradientcache.o(t._ZN5QHashIyN17QGL2GradientCache9CacheInfoEE8freeDataEP9QHashData)
    t._ZN5QHashIyN17QGL2GradientCache9CacheInfoEEC1Ev 0x00026580   Section       24  qglgradientcache.o(t._ZN5QHashIyN17QGL2GradientCache9CacheInfoEEC1Ev)
    t._ZN5QHashIyN17QGL2GradientCache9CacheInfoEED1Ev 0x00026598   Section       28  qglgradientcache.o(t._ZN5QHashIyN17QGL2GradientCache9CacheInfoEED1Ev)
    t._ZN5QHashIyN6QCacheIy18QGLBlurTextureInfoE4NodeEE11deleteNode2EPN9QHashData4NodeE 0x000265b4   Section        2  qglpixmapfilter.o(t._ZN5QHashIyN6QCacheIy18QGLBlurTextureInfoE4NodeEE11deleteNode2EPN9QHashData4NodeE)
    t._ZN5QHashIyN6QCacheIy18QGLBlurTextureInfoE4NodeEE13detach_helperEv 0x000265b8   Section       56  qglpixmapfilter.o(t._ZN5QHashIyN6QCacheIy18QGLBlurTextureInfoE4NodeEE13detach_helperEv)
    t._ZN5QHashIyN6QCacheIy18QGLBlurTextureInfoE4NodeEE13duplicateNodeEPN9QHashData4NodeEPv 0x000265f0   Section       32  qglpixmapfilter.o(t._ZN5QHashIyN6QCacheIy18QGLBlurTextureInfoE4NodeEE13duplicateNodeEPN9QHashData4NodeEPv)
    t._ZN5QHashIyN6QCacheIy18QGLBlurTextureInfoE4NodeEE13duplicateNodeEPN9QHashData4NodeEPv.clean 0x00026610   Section       12  qglpixmapfilter.o(t._ZN5QHashIyN6QCacheIy18QGLBlurTextureInfoE4NodeEE13duplicateNodeEPN9QHashData4NodeEPv.clean)
    t._ZN5QHashIyN6QCacheIy18QGLBlurTextureInfoE4NodeEE4findERKy 0x0002661c   Section       24  qglpixmapfilter.o(t._ZN5QHashIyN6QCacheIy18QGLBlurTextureInfoE4NodeEE4findERKy)
    t._ZN5QHashIyN6QCacheIy18QGLBlurTextureInfoE4NodeEE6detachEv 0x00026634   Section       26  qglpixmapfilter.o(t._ZN5QHashIyN6QCacheIy18QGLBlurTextureInfoE4NodeEE6detachEv)
    t._ZN5QHashIyN6QCacheIy18QGLBlurTextureInfoE4NodeEE6insertERKyRKS3_ 0x0002664e   Section      134  qglpixmapfilter.o(t._ZN5QHashIyN6QCacheIy18QGLBlurTextureInfoE4NodeEE6insertERKyRKS3_)
    t._ZN5QHashIyN6QCacheIy18QGLBlurTextureInfoE4NodeEE6insertERKyRKS3_.clean 0x000266d4   Section       12  qglpixmapfilter.o(t._ZN5QHashIyN6QCacheIy18QGLBlurTextureInfoE4NodeEE6insertERKyRKS3_.clean)
    t._ZN5QHashIyN6QCacheIy18QGLBlurTextureInfoE4NodeEE6removeERKy 0x000266e0   Section      174  qglpixmapfilter.o(t._ZN5QHashIyN6QCacheIy18QGLBlurTextureInfoE4NodeEE6removeERKy)
    t._ZN5QHashIyN6QCacheIy18QGLBlurTextureInfoE4NodeEE8freeDataEP9QHashData 0x00026790   Section       16  qglpixmapfilter.o(t._ZN5QHashIyN6QCacheIy18QGLBlurTextureInfoE4NodeEE8freeDataEP9QHashData)
    t._ZN5QHashIyN6QCacheIy18QGLBlurTextureInfoE4NodeEEC1Ev 0x000267a0   Section       24  qglpixmapfilter.o(t._ZN5QHashIyN6QCacheIy18QGLBlurTextureInfoE4NodeEEC1Ev)
    t._ZN5QHashIyN6QCacheIy18QGLBlurTextureInfoE4NodeEED1Ev 0x000267b8   Section       28  qglpixmapfilter.o(t._ZN5QHashIyN6QCacheIy18QGLBlurTextureInfoE4NodeEED1Ev)
    t._ZN5QListI16QPainterClipInfoE13detach_helperEi 0x000267d4   Section      144  qpaintengineex_opengl2.o(t._ZN5QListI16QPainterClipInfoE13detach_helperEi)
    t._ZN5QListI16QPainterClipInfoE13detach_helperEi.clean 0x00026864   Section       18  qpaintengineex_opengl2.o(t._ZN5QListI16QPainterClipInfoE13detach_helperEi.clean)
    t._ZN5QListI16QPainterClipInfoE4freeEPN9QListData4DataE 0x00026876   Section       56  qpaintengineex_opengl2.o(t._ZN5QListI16QPainterClipInfoE4freeEPN9QListData4DataE)
    t._ZN5QListI16QPainterClipInfoED1Ev      0x000268ae   Section       30  qpaintengineex_opengl2.o(t._ZN5QListI16QPainterClipInfoED1Ev)
    t._ZN5QListI18QGLTextureCacheKeyE13node_destructEPNS1_4NodeES3_ 0x000268cc   Section       22  qgl.o(t._ZN5QListI18QGLTextureCacheKeyE13node_destructEPNS1_4NodeES3_)
    t._ZN5QListI18QGLTextureCacheKeyE14node_constructEPNS1_4NodeERKS0_ 0x000268e2   Section       22  qgl.o(t._ZN5QListI18QGLTextureCacheKeyE14node_constructEPNS1_4NodeERKS0_)
    t._ZN5QListI18QGLTextureCacheKeyE18detach_helper_growEii 0x000268f8   Section      180  qgl.o(t._ZN5QListI18QGLTextureCacheKeyE18detach_helper_growEii)
    t._ZN5QListI18QGLTextureCacheKeyE18detach_helper_growEii.clean 0x000269ac   Section        8  qgl.o(t._ZN5QListI18QGLTextureCacheKeyE18detach_helper_growEii.clean)
    t._ZN5QListI18QGLTextureCacheKeyE4freeEPN9QListData4DataE 0x000269b4   Section       44  qgl.o(t._ZN5QListI18QGLTextureCacheKeyE4freeEPN9QListData4DataE)
    t._ZN5QListI18QGLTextureCacheKeyE6appendERKS0_ 0x000269e0   Section       96  qgl.o(t._ZN5QListI18QGLTextureCacheKeyE6appendERKS0_)
    t._ZN5QListI18QGLTextureCacheKeyE6appendERKS0_.clean 0x00026a40   Section        8  qgl.o(t._ZN5QListI18QGLTextureCacheKeyE6appendERKS0_.clean)
    t._ZN5QListI18QGLTextureCacheKeyE7reserveEi 0x00026a48   Section      116  qgl.o(t._ZN5QListI18QGLTextureCacheKeyE7reserveEi)
    t._ZN5QListI18QGLTextureCacheKeyE7reserveEi.clean 0x00026abc   Section        8  qgl.o(t._ZN5QListI18QGLTextureCacheKeyE7reserveEi.clean)
    t._ZN5QListI18QGLTextureCacheKeyE9node_copyEPNS1_4NodeES3_S3_ 0x00026ac4   Section       62  qgl.o(t._ZN5QListI18QGLTextureCacheKeyE9node_copyEPNS1_4NodeES3_S3_)
    t._ZN5QListI18QGLTextureCacheKeyE9node_copyEPNS1_4NodeES3_S3_.clean 0x00026b02   Section        8  qgl.o(t._ZN5QListI18QGLTextureCacheKeyE9node_copyEPNS1_4NodeES3_S3_.clean)
    t._ZN5QListI18QGLTextureCacheKeyED1Ev    0x00026b0a   Section       30  qgl.o(t._ZN5QListI18QGLTextureCacheKeyED1Ev)
    t._ZN5QListI6QImageE13detach_helperEv    0x00026b28   Section       88  qwindowsurface_gl.o(t._ZN5QListI6QImageE13detach_helperEv)
    t._ZN5QListI6QImageE13detach_helperEv.clean 0x00026b80   Section        8  qwindowsurface_gl.o(t._ZN5QListI6QImageE13detach_helperEv.clean)
    t._ZN5QListI6QImageE13node_destructEPNS1_4NodeES3_ 0x00026b88   Section       28  qglpixmapfilter.o(t._ZN5QListI6QImageE13node_destructEPNS1_4NodeES3_)
    t._ZN5QListI6QImageE14node_constructEPNS1_4NodeERKS0_ 0x00026ba4   Section       24  qglpixmapfilter.o(t._ZN5QListI6QImageE14node_constructEPNS1_4NodeERKS0_)
    t._ZN5QListI6QImageE14node_constructEPNS1_4NodeERKS0_.clean 0x00026bbc   Section       10  qglpixmapfilter.o(t._ZN5QListI6QImageE14node_constructEPNS1_4NodeERKS0_.clean)
    t._ZN5QListI6QImageE18detach_helper_growEii 0x00026bc6   Section      180  qglpixmapfilter.o(t._ZN5QListI6QImageE18detach_helper_growEii)
    t._ZN5QListI6QImageE18detach_helper_growEii.clean 0x00026c7a   Section        8  qglpixmapfilter.o(t._ZN5QListI6QImageE18detach_helper_growEii.clean)
    t._ZN5QListI6QImageE4freeEPN9QListData4DataE 0x00026c82   Section       38  qglpixmapfilter.o(t._ZN5QListI6QImageE4freeEPN9QListData4DataE)
    t._ZN5QListI6QImageE6appendERKS0_        0x00026ca8   Section       96  qglpixmapfilter.o(t._ZN5QListI6QImageE6appendERKS0_)
    t._ZN5QListI6QImageE6appendERKS0_.clean  0x00026d08   Section        8  qglpixmapfilter.o(t._ZN5QListI6QImageE6appendERKS0_.clean)
    t._ZN5QListI6QImageE9node_copyEPNS1_4NodeES3_S3_ 0x00026d10   Section       70  qglpixmapfilter.o(t._ZN5QListI6QImageE9node_copyEPNS1_4NodeES3_S3_)
    t._ZN5QListI6QImageE9node_copyEPNS1_4NodeES3_S3_.clean 0x00026d56   Section       18  qglpixmapfilter.o(t._ZN5QListI6QImageE9node_copyEPNS1_4NodeES3_S3_.clean)
    t._ZN5QListI6QImageEC1Ev                 0x00026d68   Section       20  qwindowsurface_gl.o(t._ZN5QListI6QImageEC1Ev)
    t._ZN5QListI6QImageED1Ev                 0x00026d7c   Section       30  qglpixmapfilter.o(t._ZN5QListI6QImageED1Ev)
    t._ZN5QListI7QStringE13detach_helperEi   0x00026d9a   Section       86  qgl.o(t._ZN5QListI7QStringE13detach_helperEi)
    t._ZN5QListI7QStringE13detach_helperEi.clean 0x00026df0   Section        8  qgl.o(t._ZN5QListI7QStringE13detach_helperEi.clean)
    t._ZN5QListI7QStringE14node_constructEPNS1_4NodeERKS0_ 0x00026df8   Section       26  qgl.o(t._ZN5QListI7QStringE14node_constructEPNS1_4NodeERKS0_)
    t._ZN5QListI7QStringE14node_constructEPNS1_4NodeERKS0_.clean 0x00026e12   Section       12  qgl.o(t._ZN5QListI7QStringE14node_constructEPNS1_4NodeERKS0_.clean)
    t._ZN5QListI7QStringE18detach_helper_growEii 0x00026e1e   Section      186  qgl.o(t._ZN5QListI7QStringE18detach_helper_growEii)
    t._ZN5QListI7QStringE18detach_helper_growEii.clean 0x00026ed8   Section        8  qgl.o(t._ZN5QListI7QStringE18detach_helper_growEii.clean)
    t._ZN5QListI7QStringE4freeEPN9QListData4DataE 0x00026ee0   Section       54  qgl.o(t._ZN5QListI7QStringE4freeEPN9QListData4DataE)
    t._ZN5QListI7QStringE6appendERKS0_       0x00026f18   Section      100  qgl.o(t._ZN5QListI7QStringE6appendERKS0_)
    t._ZN5QListI7QStringE6appendERKS0_.clean 0x00026f7c   Section        8  qgl.o(t._ZN5QListI7QStringE6appendERKS0_.clean)
    t._ZN5QListI7QStringE9node_copyEPNS1_4NodeES3_S3_ 0x00026f84   Section       70  qgl.o(t._ZN5QListI7QStringE9node_copyEPNS1_4NodeES3_S3_)
    t._ZN5QListI7QStringE9node_copyEPNS1_4NodeES3_S3_.clean 0x00026fca   Section       22  qgl.o(t._ZN5QListI7QStringE9node_copyEPNS1_4NodeES3_S3_.clean)
    t._ZN5QListI7QStringED1Ev                0x00026fe0   Section       30  qgl.o(t._ZN5QListI7QStringED1Ev)
    t._ZN5QListI7QStringEixEi                0x00026ffe   Section       38  qgl.o(t._ZN5QListI7QStringEixEi)
    t._ZN5QListIP15QGLContextGroupE13detach_helperEv 0x00027024   Section       88  qgl.o(t._ZN5QListIP15QGLContextGroupE13detach_helperEv)
    t._ZN5QListIP15QGLContextGroupE13detach_helperEv.clean 0x0002707c   Section        8  qgl.o(t._ZN5QListIP15QGLContextGroupE13detach_helperEv.clean)
    t._ZN5QListIP15QGLContextGroupE18detach_helper_growEii 0x00027084   Section      164  qgl.o(t._ZN5QListIP15QGLContextGroupE18detach_helper_growEii)
    t._ZN5QListIP15QGLContextGroupE18detach_helper_growEii.clean 0x00027128   Section        8  qgl.o(t._ZN5QListIP15QGLContextGroupE18detach_helper_growEii.clean)
    t._ZN5QListIP15QGLContextGroupE4freeEPN9QListData4DataE 0x00027130   Section       24  qgl.o(t._ZN5QListIP15QGLContextGroupE4freeEPN9QListData4DataE)
    t._ZN5QListIP15QGLContextGroupE9node_copyEPNS2_4NodeES4_S4_ 0x00027148   Section       28  qgl.o(t._ZN5QListIP15QGLContextGroupE9node_copyEPNS2_4NodeES4_S4_)
    t._ZN5QListIP15QGLContextGroupE9removeOneERKS1_ 0x00027164   Section      156  qgl.o(t._ZN5QListIP15QGLContextGroupE9removeOneERKS1_)
    t._ZN5QListIP15QGLContextGroupED1Ev      0x00027200   Section       30  qgl.o(t._ZN5QListIP15QGLContextGroupED1Ev)
    t._ZN5QListIP19QGLBlurTextureCacheE13detach_helperEv 0x0002721e   Section       88  qglpixmapfilter.o(t._ZN5QListIP19QGLBlurTextureCacheE13detach_helperEv)
    t._ZN5QListIP19QGLBlurTextureCacheE13detach_helperEv.clean 0x00027276   Section        8  qglpixmapfilter.o(t._ZN5QListIP19QGLBlurTextureCacheE13detach_helperEv.clean)
    t._ZN5QListIP19QGLBlurTextureCacheE18detach_helper_growEii 0x0002727e   Section      164  qglpixmapfilter.o(t._ZN5QListIP19QGLBlurTextureCacheE18detach_helper_growEii)
    t._ZN5QListIP19QGLBlurTextureCacheE18detach_helper_growEii.clean 0x00027322   Section        8  qglpixmapfilter.o(t._ZN5QListIP19QGLBlurTextureCacheE18detach_helper_growEii.clean)
    t._ZN5QListIP19QGLBlurTextureCacheE4freeEPN9QListData4DataE 0x0002732a   Section       16  qglpixmapfilter.o(t._ZN5QListIP19QGLBlurTextureCacheE4freeEPN9QListData4DataE)
    t._ZN5QListIP19QGLBlurTextureCacheE9node_copyEPNS2_4NodeES4_S4_ 0x0002733a   Section       28  qglpixmapfilter.o(t._ZN5QListIP19QGLBlurTextureCacheE9node_copyEPNS2_4NodeES4_S4_)
    t._ZN5QListIP19QGLBlurTextureCacheED1Ev  0x00027356   Section       30  qglpixmapfilter.o(t._ZN5QListIP19QGLBlurTextureCacheED1Ev)
    t._ZN5QListIP19QGLEngineShaderProgE13detach_helperEv 0x00027374   Section       88  qglengineshadermanager.o(t._ZN5QListIP19QGLEngineShaderProgE13detach_helperEv)
    t._ZN5QListIP19QGLEngineShaderProgE13detach_helperEv.clean 0x000273cc   Section        8  qglengineshadermanager.o(t._ZN5QListIP19QGLEngineShaderProgE13detach_helperEv.clean)
    t._ZN5QListIP19QGLEngineShaderProgE18detach_helper_growEii 0x000273d4   Section      164  qglengineshadermanager.o(t._ZN5QListIP19QGLEngineShaderProgE18detach_helper_growEii)
    t._ZN5QListIP19QGLEngineShaderProgE18detach_helper_growEii.clean 0x00027478   Section        8  qglengineshadermanager.o(t._ZN5QListIP19QGLEngineShaderProgE18detach_helper_growEii.clean)
    t._ZN5QListIP19QGLEngineShaderProgE3endEv 0x00027480   Section       22  qglengineshadermanager.o(t._ZN5QListIP19QGLEngineShaderProgE3endEv)
    t._ZN5QListIP19QGLEngineShaderProgE4freeEPN9QListData4DataE 0x00027496   Section       16  qglengineshadermanager.o(t._ZN5QListIP19QGLEngineShaderProgE4freeEPN9QListData4DataE)
    t._ZN5QListIP19QGLEngineShaderProgE6detachEv 0x000274a6   Section       24  qglengineshadermanager.o(t._ZN5QListIP19QGLEngineShaderProgE6detachEv)
    t._ZN5QListIP19QGLEngineShaderProgE9node_copyEPNS2_4NodeES4_S4_ 0x000274be   Section       28  qglengineshadermanager.o(t._ZN5QListIP19QGLEngineShaderProgE9node_copyEPNS2_4NodeES4_S4_)
    t._ZN5QListIP19QGLEngineShaderProgED1Ev  0x000274da   Section       30  qglengineshadermanager.o(t._ZN5QListIP19QGLEngineShaderProgED1Ev)
    t._ZN5QListIP19QGLEngineShaderProgEixEi  0x000274f8   Section       20  qglengineshadermanager.o(t._ZN5QListIP19QGLEngineShaderProgEixEi)
    t._ZN5QListIP20QGLFramebufferObjectE13detach_helperEv 0x0002750c   Section       88  qpixmapdata_gl.o(t._ZN5QListIP20QGLFramebufferObjectE13detach_helperEv)
    t._ZN5QListIP20QGLFramebufferObjectE13detach_helperEv.clean 0x00027564   Section        8  qpixmapdata_gl.o(t._ZN5QListIP20QGLFramebufferObjectE13detach_helperEv.clean)
    t._ZN5QListIP20QGLFramebufferObjectE18detach_helper_growEii 0x0002756c   Section      164  qpixmapdata_gl.o(t._ZN5QListIP20QGLFramebufferObjectE18detach_helper_growEii)
    t._ZN5QListIP20QGLFramebufferObjectE18detach_helper_growEii.clean 0x00027610   Section        8  qpixmapdata_gl.o(t._ZN5QListIP20QGLFramebufferObjectE18detach_helper_growEii.clean)
    t._ZN5QListIP20QGLFramebufferObjectE4freeEPN9QListData4DataE 0x00027618   Section       16  qpixmapdata_gl.o(t._ZN5QListIP20QGLFramebufferObjectE4freeEPN9QListData4DataE)
    t._ZN5QListIP20QGLFramebufferObjectE9node_copyEPNS2_4NodeES4_S4_ 0x00027628   Section       28  qpixmapdata_gl.o(t._ZN5QListIP20QGLFramebufferObjectE9node_copyEPNS2_4NodeES4_S4_)
    t._ZN5QListIP20QGLFramebufferObjectE9removeOneERKS1_ 0x00027644   Section      156  qpixmapdata_gl.o(t._ZN5QListIP20QGLFramebufferObjectE9removeOneERKS1_)
    t._ZN5QListIP20QGLFramebufferObjectED1Ev 0x000276e0   Section       30  qpixmapdata_gl.o(t._ZN5QListIP20QGLFramebufferObjectED1Ev)
    t._ZN5QListIP9QGLShaderE13detach_helperEv 0x000276fe   Section       88  qglshaderprogram.o(t._ZN5QListIP9QGLShaderE13detach_helperEv)
    t._ZN5QListIP9QGLShaderE13detach_helperEv.clean 0x00027756   Section        8  qglshaderprogram.o(t._ZN5QListIP9QGLShaderE13detach_helperEv.clean)
    t._ZN5QListIP9QGLShaderE18detach_helper_growEii 0x0002775e   Section      164  qglshaderprogram.o(t._ZN5QListIP9QGLShaderE18detach_helper_growEii)
    t._ZN5QListIP9QGLShaderE18detach_helper_growEii.clean 0x00027802   Section        8  qglshaderprogram.o(t._ZN5QListIP9QGLShaderE18detach_helper_growEii.clean)
    t._ZN5QListIP9QGLShaderE4freeEPN9QListData4DataE 0x0002780a   Section       16  qglshaderprogram.o(t._ZN5QListIP9QGLShaderE4freeEPN9QListData4DataE)
    t._ZN5QListIP9QGLShaderE5clearEv         0x0002781a   Section       64  qglshaderprogram.o(t._ZN5QListIP9QGLShaderE5clearEv)
    t._ZN5QListIP9QGLShaderE5clearEv.clean   0x0002785a   Section       10  qglshaderprogram.o(t._ZN5QListIP9QGLShaderE5clearEv.clean)
    t._ZN5QListIP9QGLShaderE6appendERKS1_    0x00027864   Section       60  qglshaderprogram.o(t._ZN5QListIP9QGLShaderE6appendERKS1_)
    t._ZN5QListIP9QGLShaderE6appendERKS1_.clean 0x000278a0   Section       10  qglshaderprogram.o(t._ZN5QListIP9QGLShaderE6appendERKS1_.clean)
    t._ZN5QListIP9QGLShaderE9node_copyEPNS2_4NodeES4_S4_ 0x000278aa   Section       28  qglshaderprogram.o(t._ZN5QListIP9QGLShaderE9node_copyEPNS2_4NodeES4_S4_)
    t._ZN5QListIP9QGLShaderE9removeAllERKS1_ 0x000278c8   Section       92  qglshaderprogram.o(t._ZN5QListIP9QGLShaderE9removeAllERKS1_)
    t._ZN5QListIP9QGLShaderEC1ERKS2_         0x00027924   Section       30  qglshaderprogram.o(t._ZN5QListIP9QGLShaderEC1ERKS2_)
    t._ZN5QListIP9QGLShaderEC1Ev             0x00027944   Section       20  qglshaderprogram.o(t._ZN5QListIP9QGLShaderEC1Ev)
    t._ZN5QListIP9QGLShaderED1Ev             0x00027958   Section       30  qglshaderprogram.o(t._ZN5QListIP9QGLShaderED1Ev)
    t._ZN5QListIPK10QGLContextE13detach_helperEv 0x00027976   Section       88  qgl.o(t._ZN5QListIPK10QGLContextE13detach_helperEv)
    t._ZN5QListIPK10QGLContextE13detach_helperEv.clean 0x000279ce   Section        8  qgl.o(t._ZN5QListIPK10QGLContextE13detach_helperEv.clean)
    t._ZN5QListIPK10QGLContextE18detach_helper_growEii 0x000279d6   Section      164  qgl.o(t._ZN5QListIPK10QGLContextE18detach_helper_growEii)
    t._ZN5QListIPK10QGLContextE18detach_helper_growEii.clean 0x00027a7a   Section        8  qgl.o(t._ZN5QListIPK10QGLContextE18detach_helper_growEii.clean)
    t._ZN5QListIPK10QGLContextE4freeEPN9QListData4DataE 0x00027a82   Section       24  qgl.o(t._ZN5QListIPK10QGLContextE4freeEPN9QListData4DataE)
    t._ZN5QListIPK10QGLContextE6appendERKS2_ 0x00027a9c   Section       60  qgl.o(t._ZN5QListIPK10QGLContextE6appendERKS2_)
    t._ZN5QListIPK10QGLContextE6appendERKS2_.clean 0x00027ad8   Section       10  qgl.o(t._ZN5QListIPK10QGLContextE6appendERKS2_.clean)
    t._ZN5QListIPK10QGLContextE9node_copyEPNS3_4NodeES5_S5_ 0x00027ae2   Section       28  qgl.o(t._ZN5QListIPK10QGLContextE9node_copyEPNS3_4NodeES5_S5_)
    t._ZN5QListIPK10QGLContextEC1ERKS3_      0x00027afe   Section       30  qgl.o(t._ZN5QListIPK10QGLContextEC1ERKS3_)
    t._ZN5QListIPK10QGLContextEC1Ev          0x00027b1c   Section       20  qgl.o(t._ZN5QListIPK10QGLContextEC1Ev)
    t._ZN5QListIPK10QGLContextED1Ev          0x00027b30   Section       30  qgl.o(t._ZN5QListIPK10QGLContextED1Ev)
    t._ZN5QListIPP10QGLContextE13detach_helperEv 0x00027b4e   Section       88  qwindowsurface_gl.o(t._ZN5QListIPP10QGLContextE13detach_helperEv)
    t._ZN5QListIPP10QGLContextE13detach_helperEv.clean 0x00027ba6   Section        8  qwindowsurface_gl.o(t._ZN5QListIPP10QGLContextE13detach_helperEv.clean)
    t._ZN5QListIPP10QGLContextE18detach_helper_growEii 0x00027bae   Section      164  qwindowsurface_gl.o(t._ZN5QListIPP10QGLContextE18detach_helper_growEii)
    t._ZN5QListIPP10QGLContextE18detach_helper_growEii.clean 0x00027c52   Section        8  qwindowsurface_gl.o(t._ZN5QListIPP10QGLContextE18detach_helper_growEii.clean)
    t._ZN5QListIPP10QGLContextE4freeEPN9QListData4DataE 0x00027c5a   Section       16  qwindowsurface_gl.o(t._ZN5QListIPP10QGLContextE4freeEPN9QListData4DataE)
    t._ZN5QListIPP10QGLContextE9node_copyEPNS3_4NodeES5_S5_ 0x00027c6a   Section       28  qwindowsurface_gl.o(t._ZN5QListIPP10QGLContextE9node_copyEPNS3_4NodeES5_S5_)
    t._ZN5QListIPP10QGLContextED1Ev          0x00027c86   Section       30  qwindowsurface_gl.o(t._ZN5QListIPP10QGLContextED1Ev)
    t._ZN5QListIyE13detach_helperEi          0x00027ca4   Section       86  qglgradientcache.o(t._ZN5QListIyE13detach_helperEi)
    t._ZN5QListIyE13detach_helperEi.clean    0x00027cfa   Section        8  qglgradientcache.o(t._ZN5QListIyE13detach_helperEi.clean)
    t._ZN5QListIyE13node_destructEPNS0_4NodeES2_ 0x00027d02   Section       22  qglgradientcache.o(t._ZN5QListIyE13node_destructEPNS0_4NodeES2_)
    t._ZN5QListIyE14node_constructEPNS0_4NodeERKy 0x00027d18   Section       22  qglgradientcache.o(t._ZN5QListIyE14node_constructEPNS0_4NodeERKy)
    t._ZN5QListIyE18detach_helper_growEii    0x00027d2e   Section      180  qglgradientcache.o(t._ZN5QListIyE18detach_helper_growEii)
    t._ZN5QListIyE18detach_helper_growEii.clean 0x00027de2   Section        8  qglgradientcache.o(t._ZN5QListIyE18detach_helper_growEii.clean)
    t._ZN5QListIyE4freeEPN9QListData4DataE   0x00027dea   Section       38  qglgradientcache.o(t._ZN5QListIyE4freeEPN9QListData4DataE)
    t._ZN5QListIyE6appendERKy                0x00027e10   Section       96  qglgradientcache.o(t._ZN5QListIyE6appendERKy)
    t._ZN5QListIyE6appendERKy.clean          0x00027e70   Section        8  qglgradientcache.o(t._ZN5QListIyE6appendERKy.clean)
    t._ZN5QListIyE9node_copyEPNS0_4NodeES2_S2_ 0x00027e78   Section       62  qglgradientcache.o(t._ZN5QListIyE9node_copyEPNS0_4NodeES2_S2_)
    t._ZN5QListIyE9node_copyEPNS0_4NodeES2_S2_.clean 0x00027eb6   Section        8  qglgradientcache.o(t._ZN5QListIyE9node_copyEPNS0_4NodeES2_S2_.clean)
    t._ZN5QListIyED1Ev                       0x00027ebe   Section       30  qglgradientcache.o(t._ZN5QListIyED1Ev)
    t._ZN6QCacheI18QGLTextureCacheKey10QGLTextureE4trimEi 0x00027edc   Section       32  qgl.o(t._ZN6QCacheI18QGLTextureCacheKey10QGLTextureE4trimEi)
    t._ZN6QCacheI18QGLTextureCacheKey10QGLTextureE5clearEv 0x00027efc   Section      106  qgl.o(t._ZN6QCacheI18QGLTextureCacheKey10QGLTextureE5clearEv)
    t._ZN6QCacheI18QGLTextureCacheKey10QGLTextureE5clearEv.clean 0x00027f66   Section       10  qgl.o(t._ZN6QCacheI18QGLTextureCacheKey10QGLTextureE5clearEv.clean)
    t._ZN6QCacheI18QGLTextureCacheKey10QGLTextureE6insertERKS0_PS1_i 0x00027f70   Section      118  qgl.o(t._ZN6QCacheI18QGLTextureCacheKey10QGLTextureE6insertERKS0_PS1_i)
    t._ZN6QCacheI18QGLTextureCacheKey10QGLTextureE6removeERKS0_ 0x00027fe6   Section       50  qgl.o(t._ZN6QCacheI18QGLTextureCacheKey10QGLTextureE6removeERKS0_)
    t._ZN6QCacheI18QGLTextureCacheKey10QGLTextureE6unlinkERNS2_4NodeE 0x00028018   Section       74  qgl.o(t._ZN6QCacheI18QGLTextureCacheKey10QGLTextureE6unlinkERNS2_4NodeE)
    t._ZN6QCacheI18QGLTextureCacheKey10QGLTextureED1Ev 0x00028062   Section       20  qgl.o(t._ZN6QCacheI18QGLTextureCacheKey10QGLTextureED1Ev)
    t._ZN6QCacheI18QGLTextureCacheKey10QGLTextureED1Ev.clean 0x00028076   Section       10  qgl.o(t._ZN6QCacheI18QGLTextureCacheKey10QGLTextureED1Ev.clean)
    t._ZN6QCacheIy18QGLBlurTextureInfoE4trimEi 0x00028080   Section       32  qglpixmapfilter.o(t._ZN6QCacheIy18QGLBlurTextureInfoE4trimEi)
    t._ZN6QCacheIy18QGLBlurTextureInfoE5clearEv 0x000280a0   Section      106  qglpixmapfilter.o(t._ZN6QCacheIy18QGLBlurTextureInfoE5clearEv)
    t._ZN6QCacheIy18QGLBlurTextureInfoE5clearEv.clean 0x0002810a   Section       10  qglpixmapfilter.o(t._ZN6QCacheIy18QGLBlurTextureInfoE5clearEv.clean)
    t._ZN6QCacheIy18QGLBlurTextureInfoE6insertERKyPS0_i 0x00028114   Section      118  qglpixmapfilter.o(t._ZN6QCacheIy18QGLBlurTextureInfoE6insertERKyPS0_i)
    t._ZN6QCacheIy18QGLBlurTextureInfoE6removeERKy 0x0002818a   Section       40  qglpixmapfilter.o(t._ZN6QCacheIy18QGLBlurTextureInfoE6removeERKy)
    t._ZN6QCacheIy18QGLBlurTextureInfoE6unlinkERNS1_4NodeE 0x000281b2   Section       74  qglpixmapfilter.o(t._ZN6QCacheIy18QGLBlurTextureInfoE6unlinkERNS1_4NodeE)
    t._ZN6QCacheIy18QGLBlurTextureInfoED1Ev  0x000281fc   Section       20  qglpixmapfilter.o(t._ZN6QCacheIy18QGLBlurTextureInfoED1Ev)
    t._ZN6QCacheIy18QGLBlurTextureInfoED1Ev.clean 0x00028210   Section       10  qglpixmapfilter.o(t._ZN6QCacheIy18QGLBlurTextureInfoED1Ev.clean)
    t._ZN7QRBTreeIiE10deleteNodeERPNS0_4NodeE 0x0002821a   Section       28  qtriangulator.o(t._ZN7QRBTreeIiE10deleteNodeERPNS0_4NodeE)
    t._ZN7QRBTreeIiE10rotateLeftEPNS0_4NodeE 0x00028236   Section       58  qtriangulator.o(t._ZN7QRBTreeIiE10rotateLeftEPNS0_4NodeE)
    t._ZN7QRBTreeIiE11attachAfterEPNS0_4NodeES2_ 0x00028270   Section       90  qtriangulator.o(t._ZN7QRBTreeIiE11attachAfterEPNS0_4NodeES2_)
    t._ZN7QRBTreeIiE11rotateRightEPNS0_4NodeE 0x000282ca   Section       58  qtriangulator.o(t._ZN7QRBTreeIiE11rotateRightEPNS0_4NodeE)
    t._ZN7QRBTreeIiE4NodeD1Ev                0x00028304   Section       36  qtriangulator.o(t._ZN7QRBTreeIiE4NodeD1Ev)
    t._ZN7QRBTreeIiE6detachEPNS0_4NodeE      0x00028328   Section      106  qtriangulator.o(t._ZN7QRBTreeIiE6detachEPNS0_4NodeE)
    t._ZN7QRBTreeIiE6updateEPNS0_4NodeE      0x00028392   Section      128  qtriangulator.o(t._ZN7QRBTreeIiE6updateEPNS0_4NodeE)
    t._ZN7QRBTreeIiE7newNodeEv               0x00028412   Section       42  qtriangulator.o(t._ZN7QRBTreeIiE7newNodeEv)
    t._ZN7QRBTreeIiE7newNodeEv.clean         0x0002843c   Section        4  qtriangulator.o(t._ZN7QRBTreeIiE7newNodeEv.clean)
    t._ZN7QRBTreeIiE9rebalanceEPNS0_4NodeE   0x00028440   Section      224  qtriangulator.o(t._ZN7QRBTreeIiE9rebalanceEPNS0_4NodeE)
    t._ZN7QRBTreeIiE9swapNodesEPNS0_4NodeES2_ 0x00028520   Section      150  qtriangulator.o(t._ZN7QRBTreeIiE9swapNodesEPNS0_4NodeES2_)
    t._ZN7QRBTreeIiEC1Ev                     0x000285b6   Section        8  qtriangulator.o(t._ZN7QRBTreeIiEC1Ev)
    t._ZN7QRBTreeIiED1Ev                     0x000285be   Section       54  qtriangulator.o(t._ZN7QRBTreeIiED1Ev)
    t._ZN7QVectorI5QPairIf6QColorEE13detach_helperEv 0x000285f4   Section       14  qglgradientcache.o(t._ZN7QVectorI5QPairIf6QColorEE13detach_helperEv)
    t._ZN7QVectorI5QPairIf6QColorEE4freeEP16QVectorTypedDataIS2_E 0x00028602   Section       30  qglgradientcache.o(t._ZN7QVectorI5QPairIf6QColorEE4freeEP16QVectorTypedDataIS2_E)
    t._ZN7QVectorI5QPairIf6QColorEE6detachEv 0x00028620   Section       24  qglgradientcache.o(t._ZN7QVectorI5QPairIf6QColorEE6detachEv)
    t._ZN7QVectorI5QPairIf6QColorEE7reallocEii 0x00028638   Section      306  qglgradientcache.o(t._ZN7QVectorI5QPairIf6QColorEE7reallocEii)
    t._ZN7QVectorI5QPairIf6QColorEE7reallocEii.clean 0x0002876a   Section       30  qglgradientcache.o(t._ZN7QVectorI5QPairIf6QColorEE7reallocEii.clean)
    t._ZN7QVectorI5QPairIf6QColorEEC1ERKS3_  0x00028788   Section       30  qglgradientcache.o(t._ZN7QVectorI5QPairIf6QColorEEC1ERKS3_)
    t._ZN7QVectorI5QPairIf6QColorEED1Ev      0x000287a6   Section       30  qglgradientcache.o(t._ZN7QVectorI5QPairIf6QColorEED1Ev)
    t._ZN7QVectorI5QPairIf6QColorEEixEi      0x000287c4   Section       22  qglgradientcache.o(t._ZN7QVectorI5QPairIf6QColorEEixEi)
    t._ZN7QVectorI5QRectED1Ev                0x000287da   Section       48  qpaintengineex_opengl2.o(t._ZN7QVectorI5QRectED1Ev)
    t._ZN7QVectorI7QPointFED1Ev              0x0002880a   Section       48  qtriangulator.o(t._ZN7QVectorI7QPointFED1Ev)
    t._ZN7QVectorIfE13detach_helperEv        0x0002883a   Section       14  qtriangulator.o(t._ZN7QVectorIfE13detach_helperEv)
    t._ZN7QVectorIfE4freeEP16QVectorTypedDataIfE 0x00028848   Section       12  qtriangulatingstroker.o(t._ZN7QVectorIfE4freeEP16QVectorTypedDataIfE)
    t._ZN7QVectorIfE6resizeEi                0x00028854   Section       56  qtriangulator.o(t._ZN7QVectorIfE6resizeEi)
    t._ZN7QVectorIfE7reallocEii              0x0002888c   Section      246  qtriangulator.o(t._ZN7QVectorIfE7reallocEii)
    t._ZN7QVectorIfE7reallocEii.clean        0x00028982   Section        8  qtriangulator.o(t._ZN7QVectorIfE7reallocEii.clean)
    t._ZN7QVectorIfEC1Ev                     0x0002898c   Section       20  qtriangulator.o(t._ZN7QVectorIfEC1Ev)
    t._ZN7QVectorIfED1Ev                     0x000289a0   Section       30  qpaintengineex_opengl2.o(t._ZN7QVectorIfED1Ev)
    t._ZN7QVectorIfEaSERKS0_                 0x000289be   Section       48  qtriangulator.o(t._ZN7QVectorIfEaSERKS0_)
    t._ZN7QVectorIfEixEi                     0x000289ee   Section       34  qtriangulator.o(t._ZN7QVectorIfEixEi)
    t._ZN7QVectorIjE13detach_helperEv        0x00028a10   Section       14  qglcolormap.o(t._ZN7QVectorIjE13detach_helperEv)
    t._ZN7QVectorIjE4fillERKji               0x00028a1e   Section       94  qglengineshadermanager.o(t._ZN7QVectorIjE4fillERKji)
    t._ZN7QVectorIjE4freeEP16QVectorTypedDataIjE 0x00028a7c   Section       12  qglcolormap.o(t._ZN7QVectorIjE4freeEP16QVectorTypedDataIjE)
    t._ZN7QVectorIjE5clearEv                 0x00028a88   Section       26  qtriangulator.o(t._ZN7QVectorIjE5clearEv)
    t._ZN7QVectorIjE5clearEv.clean           0x00028aa2   Section       10  qtriangulator.o(t._ZN7QVectorIjE5clearEv.clean)
    t._ZN7QVectorIjE6appendERKj              0x00028aac   Section       90  qtriangulator.o(t._ZN7QVectorIjE6appendERKj)
    t._ZN7QVectorIjE6detachEv                0x00028b06   Section       24  qtriangulator.o(t._ZN7QVectorIjE6detachEv)
    t._ZN7QVectorIjE6mallocEi                0x00028b1e   Section       26  qglcolormap.o(t._ZN7QVectorIjE6mallocEi)
    t._ZN7QVectorIjE7reallocEii              0x00028b38   Section      238  qglcolormap.o(t._ZN7QVectorIjE7reallocEii)
    t._ZN7QVectorIjE7reallocEii.clean        0x00028c26   Section        8  qglcolormap.o(t._ZN7QVectorIjE7reallocEii.clean)
    t._ZN7QVectorIjE9push_backERKj           0x00028c2e   Section        8  qtriangulator.o(t._ZN7QVectorIjE9push_backERKj)
    t._ZN7QVectorIjEC1Ei                     0x00028c36   Section       56  qglcolormap.o(t._ZN7QVectorIjEC1Ei)
    t._ZN7QVectorIjEC1Ev                     0x00028c70   Section       20  qpaintengineex_opengl2.o(t._ZN7QVectorIjEC1Ev)
    t._ZN7QVectorIjED1Ev                     0x00028c84   Section       30  qglpixmapfilter.o(t._ZN7QVectorIjED1Ev)
    t._ZN7QVectorIjEaSERKS0_                 0x00028ca2   Section       48  qtriangulator.o(t._ZN7QVectorIjEaSERKS0_)
    t._ZN7QVectorIjEixEi                     0x00028cd2   Section       20  qtriangulator.o(t._ZN7QVectorIjEixEi)
    t._ZN7QVectorItE13detach_helperEv        0x00028ce6   Section       14  qtriangulator.o(t._ZN7QVectorItE13detach_helperEv)
    t._ZN7QVectorItE4dataEv                  0x00028cf4   Section       34  qpaintengineex_opengl2.o(t._ZN7QVectorItE4dataEv)
    t._ZN7QVectorItE4freeEP16QVectorTypedDataItE 0x00028d16   Section       12  qpaintengineex_opengl2.o(t._ZN7QVectorItE4freeEP16QVectorTypedDataItE)
    t._ZN7QVectorItE5clearEv                 0x00028d22   Section       26  qtriangulator.o(t._ZN7QVectorItE5clearEv)
    t._ZN7QVectorItE5clearEv.clean           0x00028d3c   Section       10  qtriangulator.o(t._ZN7QVectorItE5clearEv.clean)
    t._ZN7QVectorItE6appendERKt              0x00028d46   Section       90  qpaintengineex_opengl2.o(t._ZN7QVectorItE6appendERKt)
    t._ZN7QVectorItE6detachEv                0x00028da0   Section       24  qtriangulator.o(t._ZN7QVectorItE6detachEv)
    t._ZN7QVectorItE7reallocEii              0x00028db8   Section      246  qtriangulator.o(t._ZN7QVectorItE7reallocEii)
    t._ZN7QVectorItE7reallocEii.clean        0x00028eae   Section        8  qtriangulator.o(t._ZN7QVectorItE7reallocEii.clean)
    t._ZN7QVectorItE9push_backERKt           0x00028eb6   Section        8  qtriangulator.o(t._ZN7QVectorItE9push_backERKt)
    t._ZN7QVectorItEC1Ev                     0x00028ec0   Section       20  qtriangulator.o(t._ZN7QVectorItEC1Ev)
    t._ZN7QVectorItED1Ev                     0x00028ed4   Section       30  qpaintengineex_opengl2.o(t._ZN7QVectorItED1Ev)
    t._ZN7QVectorItEaSERKS0_                 0x00028ef2   Section       48  qtriangulator.o(t._ZN7QVectorItEaSERKS0_)
    t._ZN7QVectorItEixEi                     0x00028f22   Section       20  qtriangulator.o(t._ZN7QVectorItEixEi)
    t._ZN8QMaxHeapIN13QTriangulatorIjE15ComplexToSimple12IntersectionEE3popEv 0x00028f36   Section      152  qtriangulator.o(t._ZN8QMaxHeapIN13QTriangulatorIjE15ComplexToSimple12IntersectionEE3popEv)
    t._ZN8QMaxHeapIN13QTriangulatorIjE15ComplexToSimple12IntersectionEE4pushERKS3_ 0x00028fce   Section      150  qtriangulator.o(t._ZN8QMaxHeapIN13QTriangulatorIjE15ComplexToSimple12IntersectionEE4pushERKS3_)
    t._ZN8QMaxHeapIN13QTriangulatorItE15ComplexToSimple12IntersectionEE3popEv 0x00029064   Section      152  qtriangulator.o(t._ZN8QMaxHeapIN13QTriangulatorItE15ComplexToSimple12IntersectionEE3popEv)
    t._ZN8QMaxHeapIN13QTriangulatorItE15ComplexToSimple12IntersectionEE4pushERKS3_ 0x000290fc   Section      150  qtriangulator.o(t._ZN8QMaxHeapIN13QTriangulatorItE15ComplexToSimple12IntersectionEE4pushERKS3_)
    t._ZN8QPointerI22QGLEngineShaderManagerED1Ev 0x00029192   Section       12  qglcustomshaderstage.o(t._ZN8QPointerI22QGLEngineShaderManagerED1Ev)
    t._ZN8QPointerI22QGLEngineShaderManagerEaSEPS0_ 0x0002919e   Section       20  qglcustomshaderstage.o(t._ZN8QPointerI22QGLEngineShaderManagerEaSEPS0_)
    t._ZN9QHashNodeI18QGLTextureCacheKeyN6QCacheIS0_10QGLTextureE4NodeEEC1ERKS0_RKS4_ 0x000291b2   Section       36  qgl.o(t._ZN9QHashNodeI18QGLTextureCacheKeyN6QCacheIS0_10QGLTextureE4NodeEEC1ERKS0_RKS4_)
    t._ZN9QHashNodeI7QStringjEC1ERKS0_RKj    0x000291d6   Section       18  qgl.o(t._ZN9QHashNodeI7QStringjEC1ERKS0_RKj)
    t._ZN9QHashNodeIyN17QGL2GradientCache9CacheInfoEEC1ERKyRKS1_ 0x000291e8   Section       36  qglgradientcache.o(t._ZN9QHashNodeIyN17QGL2GradientCache9CacheInfoEEC1ERKyRKS1_)
    t._ZN9QHashNodeIyN6QCacheIy18QGLBlurTextureInfoE4NodeEEC1ERKyRKS3_ 0x0002920c   Section       28  qglpixmapfilter.o(t._ZN9QHashNodeIyN6QCacheIy18QGLBlurTextureInfoE4NodeEEC1ERKyRKS3_)
    t._ZNK10QMultiHashIyN17QGL2GradientCache9CacheInfoEE9constFindERKy 0x00029228   Section       12  qglgradientcache.o(t._ZNK10QMultiHashIyN17QGL2GradientCache9CacheInfoEE9constFindERKy)
    t._ZNK11QDataBufferIN13QTriangulatorIjE15ComplexToSimple4EdgeEE2atEi 0x00029234   Section       10  qtriangulator.o(t._ZNK11QDataBufferIN13QTriangulatorIjE15ComplexToSimple4EdgeEE2atEi)
    t._ZNK11QDataBufferIN13QTriangulatorIjE15ComplexToSimple5EventEE7isEmptyEv 0x0002923e   Section       14  qtriangulator.o(t._ZNK11QDataBufferIN13QTriangulatorIjE15ComplexToSimple5EventEE7isEmptyEv)
    t._ZNK11QDataBufferIN13QTriangulatorItE15ComplexToSimple4EdgeEE2atEi 0x0002924c   Section       10  qtriangulator.o(t._ZNK11QDataBufferIN13QTriangulatorItE15ComplexToSimple4EdgeEE2atEi)
    t._ZNK11QDataBufferIN13QTriangulatorItE15ComplexToSimple5EventEE7isEmptyEv 0x00029256   Section       14  qtriangulator.o(t._ZNK11QDataBufferIN13QTriangulatorItE15ComplexToSimple5EventEE7isEmptyEv)
    t._ZNK13QTriangulatorIjE15ComplexToSimple11outerBoundsERK9QPodPoint 0x00029264   Section      278  qtriangulator.o(t._ZNK13QTriangulatorIjE15ComplexToSimple11outerBoundsERK9QPodPoint)
    t._ZNK13QTriangulatorIjE15ComplexToSimple12IntersectionltERKS2_ 0x0002937a   Section       14  qtriangulator.o(t._ZNK13QTriangulatorIjE15ComplexToSimple12IntersectionltERKS2_)
    t._ZNK13QTriangulatorIjE15ComplexToSimple16edgeIsLeftOfEdgeEii 0x00029388   Section      174  qtriangulator.o(t._ZNK13QTriangulatorIjE15ComplexToSimple16edgeIsLeftOfEdgeEii)
    t._ZNK13QTriangulatorIjE15ComplexToSimple16searchEdgeLeftOfEiPN7QRBTreeIiE4NodeE 0x00029436   Section       70  qtriangulator.o(t._ZNK13QTriangulatorIjE15ComplexToSimple16searchEdgeLeftOfEiPN7QRBTreeIiE4NodeE)
    t._ZNK13QTriangulatorIjE15ComplexToSimple4Edge5lowerEv 0x0002947c   Section       14  qtriangulator.o(t._ZNK13QTriangulatorIjE15ComplexToSimple4Edge5lowerEv)
    t._ZNK13QTriangulatorIjE15ComplexToSimple4Edge5upperEv 0x0002948a   Section       14  qtriangulator.o(t._ZNK13QTriangulatorIjE15ComplexToSimple4Edge5upperEv)
    t._ZNK13QTriangulatorIjE15ComplexToSimple5EventltERKS2_ 0x00029498   Section       38  qtriangulator.o(t._ZNK13QTriangulatorIjE15ComplexToSimple5EventltERKS2_)
    t._ZNK13QTriangulatorIjE15ComplexToSimple6boundsERK9QPodPoint 0x000294be   Section      276  qtriangulator.o(t._ZNK13QTriangulatorIjE15ComplexToSimple6boundsERK9QPodPoint)
    t._ZNK13QTriangulatorIjE16SimpleToMonotone15CompareVerticesclEii 0x000295d2   Section       78  qtriangulator.o(t._ZNK13QTriangulatorIjE16SimpleToMonotone15CompareVerticesclEii)
    t._ZNK13QTriangulatorIjE16SimpleToMonotone16edgeIsLeftOfEdgeEii 0x00029620   Section      138  qtriangulator.o(t._ZNK13QTriangulatorIjE16SimpleToMonotone16edgeIsLeftOfEdgeEii)
    t._ZNK13QTriangulatorIjE16SimpleToMonotone20searchEdgeLeftOfEdgeEi 0x000296aa   Section       42  qtriangulator.o(t._ZNK13QTriangulatorIjE16SimpleToMonotone20searchEdgeLeftOfEdgeEi)
    t._ZNK13QTriangulatorIjE16SimpleToMonotone21searchEdgeLeftOfPointEi 0x000296d4   Section      102  qtriangulator.o(t._ZNK13QTriangulatorIjE16SimpleToMonotone21searchEdgeLeftOfPointEi)
    t._ZNK13QTriangulatorIjE16SimpleToMonotone4Edge5lowerEv 0x0002973a   Section       16  qtriangulator.o(t._ZNK13QTriangulatorIjE16SimpleToMonotone4Edge5lowerEv)
    t._ZNK13QTriangulatorIjE16SimpleToMonotone4Edge5upperEv 0x0002974a   Section       16  qtriangulator.o(t._ZNK13QTriangulatorIjE16SimpleToMonotone4Edge5upperEv)
    t._ZNK13QTriangulatorIjE19MonotoneToTriangles10leftOfEdgeEiii 0x0002975a   Section       68  qtriangulator.o(t._ZNK13QTriangulatorIjE19MonotoneToTriangles10leftOfEdgeEiii)
    t._ZNK13QTriangulatorIjE19MonotoneToTriangles4lessEii 0x0002979e   Section       46  qtriangulator.o(t._ZNK13QTriangulatorIjE19MonotoneToTriangles4lessEii)
    t._ZNK13QTriangulatorIjE19MonotoneToTriangles4nextEi 0x000297cc   Section       16  qtriangulator.o(t._ZNK13QTriangulatorIjE19MonotoneToTriangles4nextEi)
    t._ZNK13QTriangulatorIjE19MonotoneToTriangles7indicesEi 0x000297dc   Section       18  qtriangulator.o(t._ZNK13QTriangulatorIjE19MonotoneToTriangles7indicesEi)
    t._ZNK13QTriangulatorIjE19MonotoneToTriangles8previousEi 0x000297ee   Section       20  qtriangulator.o(t._ZNK13QTriangulatorIjE19MonotoneToTriangles8previousEi)
    t._ZNK13QTriangulatorItE15ComplexToSimple11outerBoundsERK9QPodPoint 0x00029802   Section      278  qtriangulator.o(t._ZNK13QTriangulatorItE15ComplexToSimple11outerBoundsERK9QPodPoint)
    t._ZNK13QTriangulatorItE15ComplexToSimple12IntersectionltERKS2_ 0x00029918   Section       14  qtriangulator.o(t._ZNK13QTriangulatorItE15ComplexToSimple12IntersectionltERKS2_)
    t._ZNK13QTriangulatorItE15ComplexToSimple16edgeIsLeftOfEdgeEii 0x00029926   Section      174  qtriangulator.o(t._ZNK13QTriangulatorItE15ComplexToSimple16edgeIsLeftOfEdgeEii)
    t._ZNK13QTriangulatorItE15ComplexToSimple16searchEdgeLeftOfEiPN7QRBTreeIiE4NodeE 0x000299d4   Section       70  qtriangulator.o(t._ZNK13QTriangulatorItE15ComplexToSimple16searchEdgeLeftOfEiPN7QRBTreeIiE4NodeE)
    t._ZNK13QTriangulatorItE15ComplexToSimple4Edge5lowerEv 0x00029a1a   Section       14  qtriangulator.o(t._ZNK13QTriangulatorItE15ComplexToSimple4Edge5lowerEv)
    t._ZNK13QTriangulatorItE15ComplexToSimple4Edge5upperEv 0x00029a28   Section       14  qtriangulator.o(t._ZNK13QTriangulatorItE15ComplexToSimple4Edge5upperEv)
    t._ZNK13QTriangulatorItE15ComplexToSimple5EventltERKS2_ 0x00029a36   Section       38  qtriangulator.o(t._ZNK13QTriangulatorItE15ComplexToSimple5EventltERKS2_)
    t._ZNK13QTriangulatorItE15ComplexToSimple6boundsERK9QPodPoint 0x00029a5c   Section      276  qtriangulator.o(t._ZNK13QTriangulatorItE15ComplexToSimple6boundsERK9QPodPoint)
    t._ZNK13QTriangulatorItE16SimpleToMonotone15CompareVerticesclEii 0x00029b70   Section       76  qtriangulator.o(t._ZNK13QTriangulatorItE16SimpleToMonotone15CompareVerticesclEii)
    t._ZNK13QTriangulatorItE16SimpleToMonotone16edgeIsLeftOfEdgeEii 0x00029bbc   Section      134  qtriangulator.o(t._ZNK13QTriangulatorItE16SimpleToMonotone16edgeIsLeftOfEdgeEii)
    t._ZNK13QTriangulatorItE16SimpleToMonotone20searchEdgeLeftOfEdgeEi 0x00029c42   Section       42  qtriangulator.o(t._ZNK13QTriangulatorItE16SimpleToMonotone20searchEdgeLeftOfEdgeEi)
    t._ZNK13QTriangulatorItE16SimpleToMonotone21searchEdgeLeftOfPointEi 0x00029c6c   Section       98  qtriangulator.o(t._ZNK13QTriangulatorItE16SimpleToMonotone21searchEdgeLeftOfPointEi)
    t._ZNK13QTriangulatorItE16SimpleToMonotone4Edge5lowerEv 0x00029cce   Section       14  qtriangulator.o(t._ZNK13QTriangulatorItE16SimpleToMonotone4Edge5lowerEv)
    t._ZNK13QTriangulatorItE16SimpleToMonotone4Edge5upperEv 0x00029cdc   Section       14  qtriangulator.o(t._ZNK13QTriangulatorItE16SimpleToMonotone4Edge5upperEv)
    t._ZNK13QTriangulatorItE19MonotoneToTriangles10leftOfEdgeEiii 0x00029cea   Section       68  qtriangulator.o(t._ZNK13QTriangulatorItE19MonotoneToTriangles10leftOfEdgeEiii)
    t._ZNK13QTriangulatorItE19MonotoneToTriangles4lessEii 0x00029d2e   Section       46  qtriangulator.o(t._ZNK13QTriangulatorItE19MonotoneToTriangles4lessEii)
    t._ZNK13QTriangulatorItE19MonotoneToTriangles4nextEi 0x00029d5c   Section       16  qtriangulator.o(t._ZNK13QTriangulatorItE19MonotoneToTriangles4nextEi)
    t._ZNK13QTriangulatorItE19MonotoneToTriangles7indicesEi 0x00029d6c   Section       18  qtriangulator.o(t._ZNK13QTriangulatorItE19MonotoneToTriangles7indicesEi)
    t._ZNK13QTriangulatorItE19MonotoneToTriangles8previousEi 0x00029d7e   Section       20  qtriangulator.o(t._ZNK13QTriangulatorItE19MonotoneToTriangles8previousEi)
    t._ZNK14QScopedPointerI13QPixmapFilter21QScopedPointerDeleterIS0_EEntEv 0x00029d92   Section       14  qglpixmapfilter.o(t._ZNK14QScopedPointerI13QPixmapFilter21QScopedPointerDeleterIS0_EEntEv)
    t._ZNK14QStringBuilderIS_IS_I13QLatin1StringS0_ES0_E7QStringEcvS3_Ev 0x00029da0   Section      140  qglengineshadermanager.o(t._ZNK14QStringBuilderIS_IS_I13QLatin1StringS0_ES0_E7QStringEcvS3_Ev)
    t._ZNK14QStringBuilderIS_IS_I13QLatin1StringS0_ES0_E7QStringEcvS3_Ev.clean 0x00029e2c   Section       10  qglengineshadermanager.o(t._ZNK14QStringBuilderIS_IS_I13QLatin1StringS0_ES0_E7QStringEcvS3_Ev.clean)
    t._ZNK15QGLPixmapFilterI17QPixmapBlurFilterE4drawEP8QPainterRK7QPointFRK7QPixmapRK6QRectF 0x00029e36   Section       76  qglpixmapfilter.o(t._ZNK15QGLPixmapFilterI17QPixmapBlurFilterE4drawEP8QPainterRK7QPointFRK7QPixmapRK6QRectF)
    t._ZNK15QGLPixmapFilterI21QPixmapColorizeFilterE4drawEP8QPainterRK7QPointFRK7QPixmapRK6QRectF 0x00029e82   Section       76  qglpixmapfilter.o(t._ZNK15QGLPixmapFilterI21QPixmapColorizeFilterE4drawEP8QPainterRK7QPointFRK7QPixmapRK6QRectF)
    t._ZNK15QGLPixmapFilterI23QPixmapDropShadowFilterE4drawEP8QPainterRK7QPointFRK7QPixmapRK6QRectF 0x00029ece   Section       76  qglpixmapfilter.o(t._ZNK15QGLPixmapFilterI23QPixmapDropShadowFilterE4drawEP8QPainterRK7QPointFRK7QPixmapRK6QRectF)
    t._ZNK15QGLPixmapFilterI24QPixmapConvolutionFilterE4drawEP8QPainterRK7QPointFRK7QPixmapRK6QRectF 0x00029f1a   Section       76  qglpixmapfilter.o(t._ZNK15QGLPixmapFilterI24QPixmapConvolutionFilterE4drawEP8QPainterRK7QPointFRK7QPixmapRK6QRectF)
    t._ZNK15QVarLengthArrayIiLi6EE7isEmptyEv 0x00029f66   Section       14  qtriangulator.o(t._ZNK15QVarLengthArrayIiLi6EE7isEmptyEv)
    t._ZNK17QForeachContainerI5QListIP9QGLShaderEE9conditionEv 0x00029f74   Section       26  qglshaderprogram.o(t._ZNK17QForeachContainerI5QListIP9QGLShaderEE9conditionEv)
    t._ZNK5QHashI18QGLTextureCacheKeyN6QCacheIS0_10QGLTextureE4NodeEE14const_iteratoreqERKS6_ 0x00029f8e   Section       16  qgl.o(t._ZNK5QHashI18QGLTextureCacheKeyN6QCacheIS0_10QGLTextureE4NodeEE14const_iteratoreqERKS6_)
    t._ZNK5QHashI18QGLTextureCacheKeyN6QCacheIS0_10QGLTextureE4NodeEE4keysEv 0x00029fa0   Section       68  qgl.o(t._ZNK5QHashI18QGLTextureCacheKeyN6QCacheIS0_10QGLTextureE4NodeEE4keysEv)
    t._ZNK5QHashI18QGLTextureCacheKeyN6QCacheIS0_10QGLTextureE4NodeEE4keysEv.clean 0x00029fe4   Section       10  qgl.o(t._ZNK5QHashI18QGLTextureCacheKeyN6QCacheIS0_10QGLTextureE4NodeEE4keysEv.clean)
    t._ZNK5QHashI18QGLTextureCacheKeyN6QCacheIS0_10QGLTextureE4NodeEE8findNodeERKS0_Pj 0x00029fee   Section      102  qgl.o(t._ZNK5QHashI18QGLTextureCacheKeyN6QCacheIS0_10QGLTextureE4NodeEE8findNodeERKS0_Pj)
    t._ZNK5QHashI7QStringjE4keysEv           0x0002a054   Section      100  qgl.o(t._ZNK5QHashI7QStringjE4keysEv)
    t._ZNK5QHashI7QStringjE4keysEv.clean     0x0002a0b8   Section       10  qgl.o(t._ZNK5QHashI7QStringjE4keysEv.clean)
    t._ZNK5QHashI7QStringjE8findNodeERKS0_Pj 0x0002a0c2   Section       90  qgl.o(t._ZNK5QHashI7QStringjE8findNodeERKS0_Pj)
    t._ZNK5QHashIP18QGLContextResourcePvE8findNodeERKS1_Pj 0x0002a11c   Section       62  qgl.o(t._ZNK5QHashIP18QGLContextResourcePvE8findNodeERKS1_Pj)
    t._ZNK5QHashIyN17QGL2GradientCache9CacheInfoEE14const_iteratorneERKS3_ 0x0002a15a   Section       16  qglgradientcache.o(t._ZNK5QHashIyN17QGL2GradientCache9CacheInfoEE14const_iteratorneERKS3_)
    t._ZNK5QHashIyN17QGL2GradientCache9CacheInfoEE4keysEv 0x0002a16c   Section      104  qglgradientcache.o(t._ZNK5QHashIyN17QGL2GradientCache9CacheInfoEE4keysEv)
    t._ZNK5QHashIyN17QGL2GradientCache9CacheInfoEE4keysEv.clean 0x0002a1d4   Section       10  qglgradientcache.o(t._ZNK5QHashIyN17QGL2GradientCache9CacheInfoEE4keysEv.clean)
    t._ZNK5QHashIyN17QGL2GradientCache9CacheInfoEE8findNodeERKyPj 0x0002a1de   Section       88  qglgradientcache.o(t._ZNK5QHashIyN17QGL2GradientCache9CacheInfoEE8findNodeERKyPj)
    t._ZNK5QHashIyN6QCacheIy18QGLBlurTextureInfoE4NodeEE8findNodeERKyPj 0x0002a236   Section       88  qglpixmapfilter.o(t._ZNK5QHashIyN6QCacheIy18QGLBlurTextureInfoE4NodeEE8findNodeERKyPj)
    t._ZNK5QListI18QGLTextureCacheKeyE2atEi  0x0002a28e   Section       10  qgl.o(t._ZNK5QListI18QGLTextureCacheKeyE2atEi)
    t._ZNK5QListIPK10QGLContextE4sizeEv      0x0002a298   Section        8  qgl.o(t._ZNK5QListIPK10QGLContextE4sizeEv)
    t._ZNK5QListIPK10QGLContextE7isEmptyEv   0x0002a2a0   Section       18  qgl.o(t._ZNK5QListIPK10QGLContextE7isEmptyEv)
    t._ZNK6QCacheI18QGLTextureCacheKey10QGLTextureE6objectERKS0_ 0x0002a2b2   Section       92  qgl.o(t._ZNK6QCacheI18QGLTextureCacheKey10QGLTextureE6objectERKS0_)
    t._ZNK6QFlagsIN10QGLContext10BindOptionEEanES1_ 0x0002a30e   Section       12  qgl.o(t._ZNK6QFlagsIN10QGLContext10BindOptionEEanES1_)
    t._ZNK6QFlagsIN13QGLExtensions9ExtensionEEntEv 0x0002a31a   Section       14  qgl.o(t._ZNK6QFlagsIN13QGLExtensions9ExtensionEEntEv)
    t._ZNK6QFlagsIN3QGL12FormatOptionEEanEi  0x0002a328   Section       12  qgl.o(t._ZNK6QFlagsIN3QGL12FormatOptionEEanEi)
    t._ZNK6QFlagsIN3QGL12FormatOptionEEorES1_ 0x0002a334   Section       12  qgl.o(t._ZNK6QFlagsIN3QGL12FormatOptionEEorES1_)
    t._ZNK6QFlagsIN8QPainter10RenderHintEEanES1_ 0x0002a340   Section       12  qpaintengineex_opengl2.o(t._ZNK6QFlagsIN8QPainter10RenderHintEEanES1_)
    t._ZNK6QFlagsIN9QGLFormat17OpenGLVersionFlagEEorES1_ 0x0002a34c   Section       12  qgl.o(t._ZNK6QFlagsIN9QGLFormat17OpenGLVersionFlagEEorES1_)
    t._ZNK7QRBTreeIiE4nextEPNS0_4NodeE       0x0002a358   Section       34  qtriangulator.o(t._ZNK7QRBTreeIiE4nextEPNS0_4NodeE)
    t._ZNK7QRBTreeIiE5frontEPNS0_4NodeE      0x0002a37a   Section       14  qtriangulator.o(t._ZNK7QRBTreeIiE5frontEPNS0_4NodeE)
    t._ZNK7QRBTreeIiE8previousEPNS0_4NodeE   0x0002a388   Section       36  qtriangulator.o(t._ZNK7QRBTreeIiE8previousEPNS0_4NodeE)
    t._ZNK7QVectorI5QPairIf6QColorEEeqERKS3_ 0x0002a3ac   Section       92  qglgradientcache.o(t._ZNK7QVectorI5QPairIf6QColorEEeqERKS3_)
    t._ZNK7QVectorIjE2atEi                   0x0002a408   Section       10  qtriangulator.o(t._ZNK7QVectorIjE2atEi)
    t._ZNK7QVectorItE2atEi                   0x0002a412   Section       10  qtriangulator.o(t._ZNK7QVectorItE2atEi)
    t._ZNK8QMaxHeapIN13QTriangulatorIjE15ComplexToSimple12IntersectionEE7isEmptyEv 0x0002a41c   Section       14  qtriangulator.o(t._ZNK8QMaxHeapIN13QTriangulatorIjE15ComplexToSimple12IntersectionEE7isEmptyEv)
    t._ZNK8QMaxHeapIN13QTriangulatorItE15ComplexToSimple12IntersectionEE7isEmptyEv 0x0002a42a   Section       14  qtriangulator.o(t._ZNK8QMaxHeapIN13QTriangulatorItE15ComplexToSimple12IntersectionEE7isEmptyEv)
    t._ZlsIN3QGL12FormatOptionEE6QDebugS2_RK6QFlagsIT_E 0x0002a438   Section      156  qgl.o(t._ZlsIN3QGL12FormatOptionEE6QDebugS2_RK6QFlagsIT_E)
    t._ZlsIN3QGL12FormatOptionEE6QDebugS2_RK6QFlagsIT_E.clean 0x0002a4d4   Section       10  qgl.o(t._ZlsIN3QGL12FormatOptionEE6QDebugS2_RK6QFlagsIT_E.clean)
    .extab._ZN9QGLFormatC1Ev                 0x0002a4e0   Data           0  qgl.o(.ARM.extab)
    .extab._Z18qgl_default_formatv           0x0002a4f0   Data           0  qgl.o(.ARM.extab)
    .extab._Z28defaultOverlayFormatInstancev 0x0002a508   Data           0  qgl.o(.ARM.extab)
    .extab._Z14theSignalProxyv               0x0002a528   Data           0  qgl.o(.ARM.extab)
    .extab._Z19qgl_engine_selectorv          0x0002a540   Data           0  qgl.o(.ARM.extab)
    .extab._Z29qOpenGLVersionFlagsFromStringRK7QString 0x0002a550   Data           0  qgl.o(.ARM.extab)
    .extab._Zls6QDebugRK9QGLFormat           0x0002a560   Data           0  qgl.o(.ARM.extab)
    .extab._Z17qt_context_groupsv            0x0002a580   Data           0  qgl.o(.ARM.extab)
    .extab._Z22qt_gl_transfer_contextPK10QGLContext 0x0002a5a0   Data           0  qgl.o(.ARM.extab)
    .extab._Z18convertFromGLImageR6QImageiibb 0x0002a5b8   Data           0  qgl.o(.ARM.extab)
    .extab._Z22qt_gl_read_framebufferRK5QSizebb 0x0002a5c8   Data           0  qgl.o(.ARM.extab)
    .extab._Z18qt_gl_read_textureRK5QSizebb  0x0002a5d8   Data           0  qgl.o(.ARM.extab)
    .extab._ZN15QGLTextureCache6removeEx     0x0002a5e8   Data           0  qgl.o(.ARM.extab)
    .extab._ZN15QGLTextureCacheD1Ev          0x0002a608   Data           0  qgl.o(.ARM.extab)
    .extab._ZN15QGLTextureCacheC1Ev          0x0002a620   Data           0  qgl.o(.ARM.extab)
    .extab._Z19qt_gl_texture_cachev          0x0002a638   Data           0  qgl.o(.ARM.extab)
    .extab._Z19qtDefaultExtensionsv          0x0002a650   Data           0  qgl.o(.ARM.extab)
    .extab._ZN9QGLFormatC1E6QFlagsIN3QGL12FormatOptionEEi 0x0002a670   Data           0  qgl.o(.ARM.extab)
    .extab._ZN9QGLFormat18openGLVersionFlagsEv 0x0002a680   Data           0  qgl.o(.ARM.extab)
    .extab._ZN15QGLContextGroupD1Ev          0x0002a698   Data           0  qgl.o(.ARM.extab)
    .extab._ZN17QGLContextPrivateD1Ev        0x0002a6c0   Data           0  qgl.o(.ARM.extab)
    .extab._ZN15QGLContextGroupC1EPK10QGLContext 0x0002a6d8   Data           0  qgl.o(.ARM.extab)
    .extab._ZN17QGLContextPrivateC1EP10QGLContext 0x0002a724   Data           0  qgl.o(.ARM.extab)
    .extab._ZN10QGLContextC1ERK9QGLFormatP12QPaintDevice 0x0002a75c   Data           0  qgl.o(.ARM.extab)
    .extab._ZN10QGLContextC1ERK9QGLFormat    0x0002a76c   Data           0  qgl.o(.ARM.extab)
    .extab._ZN18QGLContextResource7cleanupEPK10QGLContextPv 0x0002a77c   Data           0  qgl.o(.ARM.extab)
    .extab._ZN15QGLTextureCache21removeContextTexturesEP10QGLContext 0x0002a78c   Data           0  qgl.o(.ARM.extab)
    .extab._ZN10QGLContextD1Ev               0x0002a7ac   Data           0  qgl.o(.ARM.extab)
    .extab._ZN15QGLTextureCache6insertEP10QGLContextxP10QGLTexturei 0x0002a7bc   Data           0  qgl.o(.ARM.extab)
    .extab._ZN17QGLContextPrivate11bindTextureERK6QImagejix6QFlagsIN10QGLContext10BindOptionEE 0x0002a7dc   Data           0  qgl.o(.ARM.extab)
    .extab._ZN15QGLTextureCache6removeEP10QGLContextj 0x0002a85c   Data           0  qgl.o(.ARM.extab)
    .extab._ZN10QGLContext13deleteTextureEj  0x0002a88c   Data           0  qgl.o(.ARM.extab)
    .extab._ZN17QGLContextPrivate18textureCacheLookupExj 0x0002a89c   Data           0  qgl.o(.ARM.extab)
    .extab._ZN17QGLContextPrivate11bindTextureERK7QPixmapji6QFlagsIN10QGLContext10BindOptionEE 0x0002a8ac   Data           0  qgl.o(.ARM.extab)
    .extab._ZN10QGLTexture21bindCompressedTextureERK7QStringPKc 0x0002a8cc   Data           0  qgl.o(.ARM.extab)
    .extab._ZN10QGLContext11bindTextureERK7QString 0x0002a8f4   Data           0  qgl.o(.ARM.extab)
    .extab._ZN10QGLContext20setTextureCacheLimitEi 0x0002a90c   Data           0  qgl.o(.ARM.extab)
    .extab._ZN9QGLWidgetC1EP7QWidgetPKS_6QFlagsIN2Qt10WindowTypeEE 0x0002a91c   Data           0  qgl.o(.ARM.extab)
    .extab._ZN9QGLWidgetC1EP10QGLContextP7QWidgetPKS_6QFlagsIN2Qt10WindowTypeEE 0x0002a944   Data           0  qgl.o(.ARM.extab)
    .extab._ZN9QGLWidgetC1ERK9QGLFormatP7QWidgetPKS_6QFlagsIN2Qt10WindowTypeEE 0x0002a954   Data           0  qgl.o(.ARM.extab)
    .extab._ZN9QGLWidgetD1Ev                 0x0002a96c   Data           0  qgl.o(.ARM.extab)
    .extab._ZN9QGLWidget9setFormatERK9QGLFormat 0x0002a97c   Data           0  qgl.o(.ARM.extab)
    .extab._ZN9QGLWidget12renderPixmapEiib   0x0002a98c   Data           0  qgl.o(.ARM.extab)
    .extab._ZN9QGLWidget15grabFrameBufferEb  0x0002a9c4   Data           0  qgl.o(.ARM.extab)
    .extab._ZN9QGLWidget17convertToGLFormatERK6QImage 0x0002aa04   Data           0  qgl.o(.ARM.extab)
    .extab._ZN9QGLWidget5eventEP6QEvent      0x0002aa24   Data           0  qgl.o(.ARM.extab)
    .extab._ZN16QGLWidgetPrivate11initContextEP10QGLContextPK9QGLWidget 0x0002aa5c   Data           0  qgl.o(.ARM.extab)
    .extab._ZN15QGLContextGroup11removeShareEPK10QGLContext 0x0002aa7c   Data           0  qgl.o(.ARM.extab)
    .extab._ZN17QGLContextPrivate17convertToGLFormatERK6QImagebj 0x0002aa8c   Data           0  qgl.o(.ARM.extab)
    .extab.__sti___7_qgl_cpp                 0x0002aaac   Data           0  qgl.o(.ARM.extab)
    .extab._Z14qt_gl_2_enginev               0x0002aabc   Data           0  qgl.o(.ARM.extab)
    .extab._ZN5QListI7QStringE9node_copyEPNS1_4NodeES3_S3_ 0x0002aad4   Data           0  qgl.o(.ARM.extab)
    .extab._ZN5QListI7QStringE13detach_helperEi 0x0002aaf8   Data           0  qgl.o(.ARM.extab)
    .extab._ZN6QDebugD1Ev                    0x0002ab14   Data           0  qgl.o(.ARM.extab)
    .extab._ZN6QDebuglsEPKc                  0x0002ab38   Data           0  qgl.o(.ARM.extab)
    .extab._ZN5QListIPK10QGLContextE13detach_helperEv 0x0002ab48   Data           0  qgl.o(.ARM.extab)
    .extab._ZN9QHashData9hasShrunkEv         0x0002ab64   Data           0  qgl.o(.ARM.extab)
    .extab._ZN5QListI7QStringE18detach_helper_growEii 0x0002ab78   Data           0  qgl.o(.ARM.extab)
    .extab._ZN5QListIP15QGLContextGroupE13detach_helperEv 0x0002aba8   Data           0  qgl.o(.ARM.extab)
    .extab._ZN5QListIP15QGLContextGroupE18detach_helper_growEii 0x0002abc4   Data           0  qgl.o(.ARM.extab)
    .extab._ZN5QListI18QGLTextureCacheKeyE9node_copyEPNS1_4NodeES3_S3_ 0x0002abf4   Data           0  qgl.o(.ARM.extab)
    .extab._ZN5QListI18QGLTextureCacheKeyE18detach_helper_growEii 0x0002ac10   Data           0  qgl.o(.ARM.extab)
    .extab._ZN5QListIPK10QGLContextE18detach_helper_growEii 0x0002ac40   Data           0  qgl.o(.ARM.extab)
    .extab._ZN5QListIPK10QGLContextE6appendERKS2_ 0x0002ac70   Data           0  qgl.o(.ARM.extab)
    .extab._ZN16QGLWidgetPrivateC1Ev         0x0002ac8c   Data           0  qgl.o(.ARM.extab)
    .extab._ZN30QGraphicsColorizeEffectPrivateD1Ev 0x0002aca4   Data           0  qgl.o(.ARM.extab)
    .extab._ZN26QGraphicsBlurEffectPrivateD1Ev 0x0002acb4   Data           0  qgl.o(.ARM.extab)
    .extab._ZN32QGraphicsDropShadowEffectPrivateD1Ev 0x0002acc4   Data           0  qgl.o(.ARM.extab)
    .extab._ZN16QGLWidgetPrivateD1Ev         0x0002acd4   Data           0  qgl.o(.ARM.extab)
    .extab._ZN19QPaintEnginePrivateD1Ev      0x0002acec   Data           0  qgl.o(.ARM.extab)
    .extab._ZlsIN3QGL12FormatOptionEE6QDebugS2_RK6QFlagsIT_E 0x0002acfc   Data           0  qgl.o(.ARM.extab)
    .extab._ZN19QGLContextGroupListD1Ev      0x0002ad0c   Data           0  qgl.o(.ARM.extab)
    .extab._ZN5QHashI18QGLTextureCacheKeyN6QCacheIS0_10QGLTextureE4NodeEE13duplicateNodeEPN9QHashData4NodeEPv 0x0002ad1c   Data           0  qgl.o(.ARM.extab)
    .extab._ZN6QCacheI18QGLTextureCacheKey10QGLTextureED1Ev 0x0002ad2c   Data           0  qgl.o(.ARM.extab)
    .extab._ZN19QGLTextureDestroyerC1Ev      0x0002ad3c   Data           0  qgl.o(.ARM.extab)
    .extab._ZNK5QHashI18QGLTextureCacheKeyN6QCacheIS0_10QGLTextureE4NodeEE4keysEv 0x0002ad4c   Data           0  qgl.o(.ARM.extab)
    .extab._ZN5QHashI7QStringjE13duplicateNodeEPN9QHashData4NodeEPv 0x0002ad5c   Data           0  qgl.o(.ARM.extab)
    .extab._ZNK5QHashI7QStringjE4keysEv      0x0002ad6c   Data           0  qgl.o(.ARM.extab)
    .extab._ZN5QHashI7QStringjE6insertERKS0_RKj 0x0002ad7c   Data           0  qgl.o(.ARM.extab)
    .extab._ZN6QCacheI18QGLTextureCacheKey10QGLTextureE5clearEv 0x0002ad8c   Data           0  qgl.o(.ARM.extab)
    .extab._ZN5QListI7QStringE6appendERKS0_  0x0002ad9c   Data           0  qgl.o(.ARM.extab)
    .extab._ZN5QListI18QGLTextureCacheKeyE6appendERKS0_ 0x0002adcc   Data           0  qgl.o(.ARM.extab)
    .extab._ZN5QListI18QGLTextureCacheKeyE7reserveEi 0x0002adfc   Data           0  qgl.o(.ARM.extab)
    .extab._ZN5QHashI18QGLTextureCacheKeyN6QCacheIS0_10QGLTextureE4NodeEE6insertERKS0_RKS4_ 0x0002ae18   Data           0  qgl.o(.ARM.extab)
    .extab._ZN5QListI7QStringE14node_constructEPNS1_4NodeERKS0_ 0x0002ae28   Data           0  qgl.o(.ARM.extab)
    .extab._ZN11QGLColormap13detach_helperEv 0x0002ae38   Data           0  qglcolormap.o(.ARM.extab)
    .extab._ZN11QGLColormap8setEntryEij      0x0002ae48   Data           0  qglcolormap.o(.ARM.extab)
    .extab._ZN11QGLColormap10setEntriesEiPKji 0x0002ae58   Data           0  qglcolormap.o(.ARM.extab)
    .extab._ZN7QVectorIjE7reallocEii         0x0002ae68   Data           0  qglcolormap.o(.ARM.extab)
    .extab._ZN21QGLPixelBufferPrivate11common_initERK5QSizeRK9QGLFormatP9QGLWidget 0x0002ae84   Data           0  qglpixelbuffer.o(.ARM.extab)
    .extab._ZN14QGLPixelBufferC1ERK5QSizeRK9QGLFormatP9QGLWidget 0x0002ae94   Data           0  qglpixelbuffer.o(.ARM.extab)
    .extab._ZN14QGLPixelBufferC1EiiRK9QGLFormatP9QGLWidget 0x0002aeb4   Data           0  qglpixelbuffer.o(.ARM.extab)
    .extab._ZN14QGLPixelBufferD1Ev           0x0002aed4   Data           0  qglpixelbuffer.o(.ARM.extab)
    .extab._Z18qt_buffer_2_enginev           0x0002aeec   Data           0  qglpixelbuffer.o(.ARM.extab)
    .extab._ZN14QScopedPointerI21QGLPixelBufferPrivate21QScopedPointerDeleterIS0_EED1Ev 0x0002af04   Data           0  qglpixelbuffer.o(.ARM.extab)
    .extab._ZN21QGLPixelBufferPrivateC1EP14QGLPixelBuffer 0x0002af24   Data           0  qglpixelbuffer.o(.ARM.extab)
    .extab._ZNK27QGLFramebufferObjectPrivate22checkFramebufferStatusEv 0x0002af3c   Data           0  qglframebufferobject.o(.ARM.extab)
    .extab._ZN19QGLFBOGLPaintDevice6setFBOEP20QGLFramebufferObjectNS0_10AttachmentE 0x0002af64   Data           0  qglframebufferobject.o(.ARM.extab)
    .extab._ZN20QGLFramebufferObjectC1ERK5QSizej 0x0002af74   Data           0  qglframebufferobject.o(.ARM.extab)
    .extab._ZN20QGLFramebufferObjectC1Eiij   0x0002af94   Data           0  qglframebufferobject.o(.ARM.extab)
    .extab._ZN20QGLFramebufferObjectC1ERK5QSizeNS_10AttachmentEjj 0x0002afb4   Data           0  qglframebufferobject.o(.ARM.extab)
    .extab._ZN20QGLFramebufferObjectC1EiiNS_10AttachmentEjj 0x0002afd4   Data           0  qglframebufferobject.o(.ARM.extab)
    .extab._ZN20QGLFramebufferObjectC1ERK5QSizeRK26QGLFramebufferObjectFormat 0x0002aff4   Data           0  qglframebufferobject.o(.ARM.extab)
    .extab._ZN20QGLFramebufferObjectC1EiiRK26QGLFramebufferObjectFormat 0x0002b014   Data           0  qglframebufferobject.o(.ARM.extab)
    .extab._ZN20QGLFramebufferObjectD1Ev     0x0002b034   Data           0  qglframebufferobject.o(.ARM.extab)
    .extab._ZNK20QGLFramebufferObject7toImageEv 0x0002b05c   Data           0  qglframebufferobject.o(.ARM.extab)
    .extab._ZNK20QGLFramebufferObject11paintEngineEv 0x0002b084   Data           0  qglframebufferobject.o(.ARM.extab)
    .extab._Z18qt_buffer_2_enginev           0x0002b094   Data           0  qglframebufferobject.o(.ARM.extab)
    .extab._ZN19QGLFBOGLPaintDeviceD1Ev      0x0002b0ac   Data           0  qglframebufferobject.o(.ARM.extab)
    .extab._ZN14QScopedPointerI27QGLFramebufferObjectPrivate21QScopedPointerDeleterIS0_EED1Ev 0x0002b0bc   Data           0  qglframebufferobject.o(.ARM.extab)
    .extab._ZN27QGLFramebufferObjectPrivateC1Ev 0x0002b0d4   Data           0  qglframebufferobject.o(.ARM.extab)
    .extab._Z27qt_gl_getProcAddress_searchP10QGLContextPKcS2_S2_S2_ 0x0002b0f4   Data           0  qglextensions.o(.ARM.extab)
    .extab._Z33qt_resolve_eglimage_gl_extensionsP10QGLContext 0x0002b11c   Data           0  qglextensions.o(.ARM.extab)
    .extab._Z26qt_resolve_glsl_extensionsP10QGLContext 0x0002b134   Data           0  qglextensions.o(.ARM.extab)
    .extab._ZNK14QGLPaintDevice6metricEN12QPaintDevice17PaintDeviceMetricE 0x0002b14c   Data           0  qglpaintdevice.o(.ARM.extab)
    .extab._ZN9QGLBufferC1Ev                 0x0002b15c   Data           0  qglbuffer.o(.ARM.extab)
    .extab._ZN9QGLBufferC1ENS_4TypeE         0x0002b16c   Data           0  qglbuffer.o(.ARM.extab)
    .extab._ZN9QGLBuffer7destroyEv           0x0002b17c   Data           0  qglbuffer.o(.ARM.extab)
    .extab._ZN16QGLShaderPrivate6createEv    0x0002b18c   Data           0  qglshaderprogram.o(.ARM.extab)
    .extab._ZN9QGLShaderC1E6QFlagsINS_13ShaderTypeBitEEP7QObject 0x0002b19c   Data           0  qglshaderprogram.o(.ARM.extab)
    .extab._ZN9QGLShaderC1E6QFlagsINS_13ShaderTypeBitEEPK10QGLContextP7QObject 0x0002b1ac   Data           0  qglshaderprogram.o(.ARM.extab)
    .extab._ZN16QGLShaderPrivate7compileEP9QGLShader 0x0002b1bc   Data           0  qglshaderprogram.o(.ARM.extab)
    .extab._ZN9QGLShader17compileSourceCodeEPKc 0x0002b1f4   Data           0  qglshaderprogram.o(.ARM.extab)
    .extab._ZN9QGLShader17compileSourceCodeERK7QString 0x0002b20c   Data           0  qglshaderprogram.o(.ARM.extab)
    .extab._ZN9QGLShader17compileSourceFileERK7QString 0x0002b21c   Data           0  qglshaderprogram.o(.ARM.extab)
    .extab._ZNK9QGLShader10sourceCodeEv      0x0002b254   Data           0  qglshaderprogram.o(.ARM.extab)
    .extab._ZN9QGLShader16hasOpenGLShadersE6QFlagsINS_13ShaderTypeBitEEPK10QGLContext 0x0002b264   Data           0  qglshaderprogram.o(.ARM.extab)
    .extab._ZN16QGLShaderProgramC1EP7QObject 0x0002b274   Data           0  qglshaderprogram.o(.ARM.extab)
    .extab._ZN16QGLShaderProgramC1EPK10QGLContextP7QObject 0x0002b284   Data           0  qglshaderprogram.o(.ARM.extab)
    .extab._ZN16QGLShaderProgram4initEv      0x0002b294   Data           0  qglshaderprogram.o(.ARM.extab)
    .extab._ZN16QGLShaderProgram12removeShaderEP9QGLShader 0x0002b2ac   Data           0  qglshaderprogram.o(.ARM.extab)
    .extab._ZN16QGLShaderProgram23addShaderFromSourceCodeE6QFlagsIN9QGLShader13ShaderTypeBitEEPKc 0x0002b2bc   Data           0  qglshaderprogram.o(.ARM.extab)
    .extab._ZN16QGLShaderProgram23addShaderFromSourceCodeE6QFlagsIN9QGLShader13ShaderTypeBitEERK7QString 0x0002b2d4   Data           0  qglshaderprogram.o(.ARM.extab)
    .extab._ZN16QGLShaderProgram23addShaderFromSourceFileE6QFlagsIN9QGLShader13ShaderTypeBitEERK7QString 0x0002b2e4   Data           0  qglshaderprogram.o(.ARM.extab)
    .extab._ZN16QGLShaderProgram16removeAllShadersEv 0x0002b2fc   Data           0  qglshaderprogram.o(.ARM.extab)
    .extab._ZN16QGLShaderProgram4linkEv      0x0002b314   Data           0  qglshaderprogram.o(.ARM.extab)
    .extab._ZN16QGLShaderProgram21bindAttributeLocationERK7QStringi 0x0002b35c   Data           0  qglshaderprogram.o(.ARM.extab)
    .extab._ZNK16QGLShaderProgram17attributeLocationEPKc 0x0002b36c   Data           0  qglshaderprogram.o(.ARM.extab)
    .extab._ZNK16QGLShaderProgram17attributeLocationERK7QString 0x0002b37c   Data           0  qglshaderprogram.o(.ARM.extab)
    .extab._ZN16QGLShaderProgram17setAttributeValueEiPKfii 0x0002b38c   Data           0  qglshaderprogram.o(.ARM.extab)
    .extab._ZNK16QGLShaderProgram15uniformLocationEPKc 0x0002b39c   Data           0  qglshaderprogram.o(.ARM.extab)
    .extab._ZNK16QGLShaderProgram15uniformLocationERK7QString 0x0002b3ac   Data           0  qglshaderprogram.o(.ARM.extab)
    .extab._ZN16QGLShaderProgram20setUniformValueArrayEiPKfii 0x0002b3bc   Data           0  qglshaderprogram.o(.ARM.extab)
    .extab._ZN16QGLShaderProgram20setUniformValueArrayEiPK10QMatrix4x4i 0x0002b3cc   Data           0  qglshaderprogram.o(.ARM.extab)
    .extab._ZN16QGLShaderPrivateD1Ev         0x0002b3e0   Data           0  qglshaderprogram.o(.ARM.extab)
    .extab._ZN23QGLShaderProgramPrivateD1Ev  0x0002b410   Data           0  qglshaderprogram.o(.ARM.extab)
    .extab._ZNK23QGLShaderProgramPrivate9hasShaderE6QFlagsIN9QGLShader13ShaderTypeBitEE 0x0002b450   Data           0  qglshaderprogram.o(.ARM.extab)
    .extab._Z8qWarningv                      0x0002b460   Data           0  qglshaderprogram.o(.ARM.extab)
    .extab._ZN5QListIP9QGLShaderE13detach_helperEv 0x0002b478   Data           0  qglshaderprogram.o(.ARM.extab)
    .extab._Z20qForeachContainerNewI5QListIP9QGLShaderEE17QForeachContainerIT_ERKS5_ 0x0002b494   Data           0  qglshaderprogram.o(.ARM.extab)
    .extab._ZN16QGLShaderPrivateC1EPK10QGLContext6QFlagsIN9QGLShader13ShaderTypeBitEE 0x0002b4a4   Data           0  qglshaderprogram.o(.ARM.extab)
    .extab._ZN23QGLShaderProgramPrivateC1EPK10QGLContext 0x0002b4bc   Data           0  qglshaderprogram.o(.ARM.extab)
    .extab._ZN5QListIP9QGLShaderE18detach_helper_growEii 0x0002b4e4   Data           0  qglshaderprogram.o(.ARM.extab)
    .extab._ZN5QListIP9QGLShaderE6appendERKS1_ 0x0002b514   Data           0  qglshaderprogram.o(.ARM.extab)
    .extab._ZN5QListIP9QGLShaderE5clearEv    0x0002b530   Data           0  qglshaderprogram.o(.ARM.extab)
    .extab._Z22qt_blur_texture_cachesv       0x0002b540   Data           0  qglpixmapfilter.o(.ARM.extab)
    .extab._ZN26QGLPixmapConvolutionFilterC1Ev 0x0002b558   Data           0  qglpixmapfilter.o(.ARM.extab)
    .extab._ZN25QGLPixmapDropShadowFilterC1Ev 0x0002b570   Data           0  qglpixmapfilter.o(.ARM.extab)
    .extab._ZN19QGLPixmapBlurFilterC1Ev      0x0002b5a0   Data           0  qglpixmapfilter.o(.ARM.extab)
    .extab._ZN23QGLPixmapColorizeFilterC1Ev  0x0002b5b8   Data           0  qglpixmapfilter.o(.ARM.extab)
    .extab._ZN17QGL2PaintEngineEx12pixmapFilterEiPK13QPixmapFilter 0x0002b5e8   Data           0  qglpixmapfilter.o(.ARM.extab)
    .extab._ZN26QGLPixmapConvolutionFilterD1Ev 0x0002b618   Data           0  qglpixmapfilter.o(.ARM.extab)
    .extab._ZN26QGLPixmapConvolutionFilter11setUniformsEP16QGLShaderProgram 0x0002b628   Data           0  qglpixmapfilter.o(.ARM.extab)
    .extab._ZNK26QGLPixmapConvolutionFilter25generateConvolutionShaderEv 0x0002b64c   Data           0  qglpixmapfilter.o(.ARM.extab)
    .extab._ZNK26QGLPixmapConvolutionFilter9processGLEP8QPainterRK7QPointFRK7QPixmapRK6QRectF 0x0002b68c   Data           0  qglpixmapfilter.o(.ARM.extab)
    .extab._ZThn16_NK26QGLPixmapConvolutionFilter9processGLEP8QPainterRK7QPointFRK7QPixmapRK6QRectF 0x0002b69c   Data           0  qglpixmapfilter.o(.ARM.extab)
    .extab._ZN19QGLBlurTextureCache15pixmapDestroyedEP11QPixmapData 0x0002b6ac   Data           0  qglpixmapfilter.o(.ARM.extab)
    .extab._ZNK18QGLBlurTextureInfo11paddedImageEi 0x0002b6c4   Data           0  qglpixmapfilter.o(.ARM.extab)
    .extab._ZN19QGLBlurTextureCacheC1Ev      0x0002b6d4   Data           0  qglpixmapfilter.o(.ARM.extab)
    .extab._ZN19QGLBlurTextureCache15cacheForContextEPK10QGLContext 0x0002b708   Data           0  qglpixmapfilter.o(.ARM.extab)
    .extab._ZNK19QGLPixmapBlurFilter9processGLEP8QPainterRK7QPointFRK7QPixmapRK6QRectF 0x0002b718   Data           0  qglpixmapfilter.o(.ARM.extab)
    .extab._ZThn16_NK19QGLPixmapBlurFilter9processGLEP8QPainterRK7QPointFRK7QPixmapRK6QRectF 0x0002b7b8   Data           0  qglpixmapfilter.o(.ARM.extab)
    .extab._ZNK25QGLPixmapDropShadowFilter9processGLEP8QPainterRK7QPointFRK7QPixmapRK6QRectF 0x0002b858   Data           0  qglpixmapfilter.o(.ARM.extab)
    .extab._ZThn16_NK25QGLPixmapDropShadowFilter9processGLEP8QPainterRK7QPointFRK7QPixmapRK6QRectF 0x0002b8c0   Data           0  qglpixmapfilter.o(.ARM.extab)
    .extab._ZN19QGLBlurTextureCacheD1Ev      0x0002b928   Data           0  qglpixmapfilter.o(.ARM.extab)
    .extab.__sti___19_qglpixmapfilter_cpp    0x0002b940   Data           0  qglpixmapfilter.o(.ARM.extab)
    .extab._ZN5QListIP19QGLBlurTextureCacheE13detach_helperEv 0x0002b950   Data           0  qglpixmapfilter.o(.ARM.extab)
    .extab._ZN23QGLPixmapColorizeFilterD1Ev  0x0002b96c   Data           0  qglpixmapfilter.o(.ARM.extab)
    .extab._ZN5QListI6QImageE14node_constructEPNS1_4NodeERKS0_ 0x0002b97c   Data           0  qglpixmapfilter.o(.ARM.extab)
    .extab._ZN5QListI6QImageE9node_copyEPNS1_4NodeES3_S3_ 0x0002b98c   Data           0  qglpixmapfilter.o(.ARM.extab)
    .extab._ZN5QListI6QImageE18detach_helper_growEii 0x0002b9b0   Data           0  qglpixmapfilter.o(.ARM.extab)
    .extab._ZN18QGLBlurTextureInfoC1ERK6QImagejf 0x0002b9e0   Data           0  qglpixmapfilter.o(.ARM.extab)
    .extab._ZN6QCacheIy18QGLBlurTextureInfoE5clearEv 0x0002b9f0   Data           0  qglpixmapfilter.o(.ARM.extab)
    .extab._ZN5QListIP19QGLBlurTextureCacheE18detach_helper_growEii 0x0002ba00   Data           0  qglpixmapfilter.o(.ARM.extab)
    .extab._ZN19QGLPixmapBlurFilterD1Ev      0x0002ba30   Data           0  qglpixmapfilter.o(.ARM.extab)
    .extab._ZN25QGLPixmapDropShadowFilterD1Ev 0x0002ba40   Data           0  qglpixmapfilter.o(.ARM.extab)
    .extab._ZN5QHashIyN6QCacheIy18QGLBlurTextureInfoE4NodeEE13duplicateNodeEPN9QHashData4NodeEPv 0x0002ba50   Data           0  qglpixmapfilter.o(.ARM.extab)
    .extab._ZN18QGLBlurTextureInfoD1Ev       0x0002ba60   Data           0  qglpixmapfilter.o(.ARM.extab)
    .extab._ZN5QHashIyN6QCacheIy18QGLBlurTextureInfoE4NodeEE6removeERKy 0x0002ba70   Data           0  qglpixmapfilter.o(.ARM.extab)
    .extab._ZN5QListI6QImageE6appendERKS0_   0x0002ba84   Data           0  qglpixmapfilter.o(.ARM.extab)
    .extab._ZN6QCacheIy18QGLBlurTextureInfoED1Ev 0x0002bab4   Data           0  qglpixmapfilter.o(.ARM.extab)
    .extab._ZN5QHashIyN6QCacheIy18QGLBlurTextureInfoE4NodeEE6insertERKyRKS3_ 0x0002bac4   Data           0  qglpixmapfilter.o(.ARM.extab)
    .extab._ZN21QGraphicsShaderEffectC1EP7QObject 0x0002bad4   Data           0  qgraphicsshadereffect.o(.ARM.extab)
    .extab._ZN21QGraphicsShaderEffectD1Ev    0x0002baec   Data           0  qgraphicsshadereffect.o(.ARM.extab)
    .extab._ZN21QGraphicsShaderEffect4drawEP8QPainter 0x0002bafc   Data           0  qgraphicsshadereffect.o(.ARM.extab)
    .extab._ZN28QGraphicsShaderEffectPrivateD1Ev 0x0002bb24   Data           0  qgraphicsshadereffect.o(.ARM.extab)
    .extab._ZNK17QGLGraphicsSystem16createPixmapDataEN11QPixmapData9PixelTypeE 0x0002bb34   Data           0  qgraphicssystem_gl.o(.ARM.extab)
    .extab._ZNK17QGLGraphicsSystem19createWindowSurfaceEP7QWidget 0x0002bb44   Data           0  qgraphicssystem_gl.o(.ARM.extab)
    .extab._Z19_qt_gl_share_widgetv          0x0002bb54   Data           0  qwindowsurface_gl.o(.ARM.extab)
    .extab._ZN16QGLWindowSurfaceC1EP7QWidget 0x0002bb6c   Data           0  qwindowsurface_gl.o(.ARM.extab)
    .extab._ZN16QGLWindowSurfaceD1Ev         0x0002bba4   Data           0  qwindowsurface_gl.o(.ARM.extab)
    .extab._ZN16QGLWindowSurface12hijackWindowEP7QWidget 0x0002bbec   Data           0  qwindowsurface_gl.o(.ARM.extab)
    .extab._ZN16QGLWindowSurface14updateGeometryEv 0x0002bc50   Data           0  qwindowsurface_gl.o(.ARM.extab)
    .extab._ZN16QGLWindowSurface5flushEP7QWidgetRK7QRegionRK6QPoint 0x0002bce0   Data           0  qwindowsurface_gl.o(.ARM.extab)
    .extab._ZN16QGLWindowSurface10beginPaintERK7QRegion 0x0002bd28   Data           0  qwindowsurface_gl.o(.ARM.extab)
    .extab._ZN16QGLWindowSurface8endPaintERK7QRegion 0x0002bd38   Data           0  qwindowsurface_gl.o(.ARM.extab)
    .extab._ZN16QGLWindowSurface6bufferEPK7QWidget 0x0002bd48   Data           0  qwindowsurface_gl.o(.ARM.extab)
    .extab.__sti___21_qwindowsurface_gl_cpp  0x0002bd90   Data           0  qwindowsurface_gl.o(.ARM.extab)
    .extab._ZN5QHashIP7QWidget15QHashDummyValueE6removeERKS1_ 0x0002bda0   Data           0  qwindowsurface_gl.o(.ARM.extab)
    .extab._ZN5QListIPP10QGLContextE13detach_helperEv 0x0002bdb4   Data           0  qwindowsurface_gl.o(.ARM.extab)
    .extab._ZN5QListIPP10QGLContextE18detach_helper_growEii 0x0002bdd0   Data           0  qwindowsurface_gl.o(.ARM.extab)
    .extab._ZN5QListI6QImageE13detach_helperEv 0x0002be00   Data           0  qwindowsurface_gl.o(.ARM.extab)
    .extab._ZN20QGLGlobalShareWidget11shareWidgetEv 0x0002be1c   Data           0  qwindowsurface_gl.o(.ARM.extab)
    .extab._ZN23QGLWindowSurfacePrivateC1Ev  0x0002be3c   Data           0  qwindowsurface_gl.o(.ARM.extab)
    .extab._Z13_qgl_fbo_poolv                0x0002be5c   Data           0  qpixmapdata_gl.o(.ARM.extab)
    .extab._ZN24QGLFramebufferObjectPool7acquireERK5QSizeRK26QGLFramebufferObjectFormatb 0x0002be74   Data           0  qpixmapdata_gl.o(.ARM.extab)
    .extab._ZN24QGLFramebufferObjectPool7releaseEP20QGLFramebufferObject 0x0002bea4   Data           0  qpixmapdata_gl.o(.ARM.extab)
    .extab._ZNK13QGLPixmapData13ensureCreatedEv 0x0002bec0   Data           0  qpixmapdata_gl.o(.ARM.extab)
    .extab._ZNK13QGLPixmapData21copyBackFromRenderFboEb 0x0002bf10   Data           0  qpixmapdata_gl.o(.ARM.extab)
    .extab._ZNK13QGLPixmapData4bindEb        0x0002bf20   Data           0  qpixmapdata_gl.o(.ARM.extab)
    .extab._ZN13QGLPixmapDataC1EN11QPixmapData9PixelTypeE 0x0002bf38   Data           0  qpixmapdata_gl.o(.ARM.extab)
    .extab._ZN13QGLPixmapDataD1Ev            0x0002bf58   Data           0  qpixmapdata_gl.o(.ARM.extab)
    .extab._ZNK13QGLPixmapData26createCompatiblePixmapDataEv 0x0002bf90   Data           0  qpixmapdata_gl.o(.ARM.extab)
    .extab._ZN13QGLPixmapData6resizeEii      0x0002bfa0   Data           0  qpixmapdata_gl.o(.ARM.extab)
    .extab._ZN13QGLPixmapData9fromImageERK6QImage6QFlagsIN2Qt19ImageConversionFlagEE 0x0002bfb8   Data           0  qpixmapdata_gl.o(.ARM.extab)
    .extab._ZN13QGLPixmapData8fromFileERK7QStringPKc6QFlagsIN2Qt19ImageConversionFlagEE 0x0002bfd8   Data           0  qpixmapdata_gl.o(.ARM.extab)
    .extab._ZN13QGLPixmapData8fromDataEPKhjPKc6QFlagsIN2Qt19ImageConversionFlagEE 0x0002c080   Data           0  qpixmapdata_gl.o(.ARM.extab)
    .extab._ZN13QGLPixmapData4copyEPK11QPixmapDataRK5QRect 0x0002c0a0   Data           0  qpixmapdata_gl.o(.ARM.extab)
    .extab._ZN13QGLPixmapData4fillERK6QColor 0x0002c0b0   Data           0  qpixmapdata_gl.o(.ARM.extab)
    .extab._ZNK13QGLPixmapData9fillImageERK6QColor 0x0002c0c0   Data           0  qpixmapdata_gl.o(.ARM.extab)
    .extab._ZNK13QGLPixmapData7toImageEv     0x0002c0f0   Data           0  qpixmapdata_gl.o(.ARM.extab)
    .extab._ZNK13QGLPixmapData11paintEngineEv 0x0002c100   Data           0  qpixmapdata_gl.o(.ARM.extab)
    .extab._ZN5QListIP20QGLFramebufferObjectE13detach_helperEv 0x0002c180   Data           0  qpixmapdata_gl.o(.ARM.extab)
    .extab._ZN5QListIP20QGLFramebufferObjectE18detach_helper_growEii 0x0002c19c   Data           0  qpixmapdata_gl.o(.ARM.extab)
    .extab._ZN10QGLContext13chooseContextEPKS_ 0x0002c1cc   Data           0  qgl_symbian.o(.ARM.extab)
    .extab._ZN16QGLWidgetPrivate4initEP10QGLContextPK9QGLWidget 0x0002c1e8   Data           0  qgl_symbian.o(.ARM.extab)
    .extab._ZN19QGLTemporaryContextC1EbP7QWidget 0x0002c1f8   Data           0  qgl_symbian.o(.ARM.extab)
    .extab._ZN19QGLTemporaryContextD1Ev      0x0002c218   Data           0  qgl_symbian.o(.ARM.extab)
    .extab._ZN14QGLPixelBuffer17hasOpenGLPbuffersEv 0x0002c228   Data           0  qglpixelbuffer_egl.o(.ARM.extab)
    .extab._ZN21QGLPixelBufferPrivate4initERK5QSizeRK9QGLFormatP9QGLWidget 0x0002c254   Data           0  qglpixelbuffer_egl.o(.ARM.extab)
    .extab._ZNK10QGLContext14getProcAddressERK7QString 0x0002c2b8   Data           0  qgl_egl.o(.ARM.extab)
    .extab._ZN17QGL2GradientCache10cleanCacheEv 0x0002c2c8   Data           0  qglgradientcache.o(.ARM.extab)
    .extab._Z22QGL2GradientCache_freePv      0x0002c2d8   Data           0  qglgradientcache.o(.ARM.extab)
    .extab._Z18qt_gradient_cachesv           0x0002c2e8   Data           0  qglgradientcache.o(.ARM.extab)
    .extab._ZN17QGL2GradientCache15cacheForContextEPK10QGLContext 0x0002c300   Data           0  qglgradientcache.o(.ARM.extab)
    .extab._ZN17QGL2GradientCache15addCacheElementEyRK9QGradientf 0x0002c320   Data           0  qglgradientcache.o(.ARM.extab)
    .extab._ZN17QGL2GradientCache9getBufferERK9QGradientf 0x0002c34c   Data           0  qglgradientcache.o(.ARM.extab)
    .extab._ZN7QVectorI5QPairIf6QColorEE7reallocEii 0x0002c364   Data           0  qglgradientcache.o(.ARM.extab)
    .extab._ZNK17QGL2GradientCache26generateGradientColorTableERK9QGradientPjif 0x0002c390   Data           0  qglgradientcache.o(.ARM.extab)
    .extab._ZN5QHashIyN17QGL2GradientCache9CacheInfoEE6removeERKy 0x0002c3b0   Data           0  qglgradientcache.o(.ARM.extab)
    .extab._ZN5QListIyE9node_copyEPNS0_4NodeES2_S2_ 0x0002c3c4   Data           0  qglgradientcache.o(.ARM.extab)
    .extab._ZN5QListIyE18detach_helper_growEii 0x0002c3e0   Data           0  qglgradientcache.o(.ARM.extab)
    .extab._ZN5QListIyE13detach_helperEi     0x0002c410   Data           0  qglgradientcache.o(.ARM.extab)
    .extab._ZN5QHashIyN17QGL2GradientCache9CacheInfoEE13duplicateNodeEPN9QHashData4NodeEPv 0x0002c42c   Data           0  qglgradientcache.o(.ARM.extab)
    .extab._ZNK5QHashIyN17QGL2GradientCache9CacheInfoEE4keysEv 0x0002c43c   Data           0  qglgradientcache.o(.ARM.extab)
    .extab._ZN5QListIyE6appendERKy           0x0002c44c   Data           0  qglgradientcache.o(.ARM.extab)
    .extab._Z17qt_shared_shadersv            0x0002c47c   Data           0  qglengineshadermanager.o(.ARM.extab)
    .extab._ZN22QGLEngineSharedShadersC1EPK10QGLContext 0x0002c494   Data           0  qglengineshadermanager.o(.ARM.extab)
    .extab._ZN22QGLEngineSharedShadersD1Ev   0x0002c564   Data           0  qglengineshadermanager.o(.ARM.extab)
    .extab._ZN22QGLEngineSharedShaders18findProgramInCacheERK19QGLEngineShaderProg 0x0002c584   Data           0  qglengineshadermanager.o(.ARM.extab)
    .extab._ZN22QGLEngineSharedShaders17shadersForContextEPK10QGLContext 0x0002c690   Data           0  qglengineshadermanager.o(.ARM.extab)
    .extab._ZN22QGLEngineSharedShaders18cleanupCustomStageEP20QGLCustomShaderStage 0x0002c6b8   Data           0  qglengineshadermanager.o(.ARM.extab)
    .extab._ZN22QGLEngineShaderManagerC1EP10QGLContext 0x0002c6c8   Data           0  qglengineshadermanager.o(.ARM.extab)
    .extab._ZN22QGLEngineShaderManagerD1Ev   0x0002c6d8   Data           0  qglengineshadermanager.o(.ARM.extab)
    .extab._ZN22QGLEngineShaderManager20useCorrectShaderProgEv 0x0002c6e8   Data           0  qglengineshadermanager.o(.ARM.extab)
    .extab._ZN6QDebugC1E9QtMsgType           0x0002c710   Data           0  qglengineshadermanager.o(.ARM.extab)
    .extab._ZN19QGLEngineShaderProgD1Ev      0x0002c728   Data           0  qglengineshadermanager.o(.ARM.extab)
    .extab._ZN5QListIP19QGLEngineShaderProgE18detach_helper_growEii 0x0002c740   Data           0  qglengineshadermanager.o(.ARM.extab)
    .extab._ZNK14QStringBuilderIS_IS_I13QLatin1StringS0_ES0_E7QStringEcvS3_Ev 0x0002c770   Data           0  qglengineshadermanager.o(.ARM.extab)
    .extab._ZN19QGLEngineShaderProgC1ERKS_   0x0002c780   Data           0  qglengineshadermanager.o(.ARM.extab)
    .extab._ZN5QListIP19QGLEngineShaderProgE13detach_helperEv 0x0002c790   Data           0  qglengineshadermanager.o(.ARM.extab)
    .extab._ZN24QOpenGL2PaintEngineStateC1ERS_ 0x0002c7ac   Data           0  qpaintengineex_opengl2.o(.ARM.extab)
    .extab._ZN24QOpenGL2PaintEngineStateC1Ev 0x0002c7bc   Data           0  qpaintengineex_opengl2.o(.ARM.extab)
    .extab._ZN17QGL2PaintEngineExC1Ev        0x0002c7cc   Data           0  qpaintengineex_opengl2.o(.ARM.extab)
    .extab._ZN17QGL2PaintEngineEx5beginEP12QPaintDevice 0x0002c7dc   Data           0  qpaintengineex_opengl2.o(.ARM.extab)
    .extab._ZN17QGL2PaintEngineEx3endEv      0x0002c80c   Data           0  qpaintengineex_opengl2.o(.ARM.extab)
    .extab._ZN24QGL2PaintEngineExPrivate19updateBrushUniformsEv 0x0002c81c   Data           0  qpaintengineex_opengl2.o(.ARM.extab)
    .extab._ZN24QGL2PaintEngineExPrivate18updateBrushTextureEv 0x0002c844   Data           0  qpaintengineex_opengl2.o(.ARM.extab)
    .extab._ZN17QGL2PaintEngineEx10drawPixmapERK6QRectFRK7QPixmapS2_ 0x0002c864   Data           0  qpaintengineex_opengl2.o(.ARM.extab)
    .extab._ZN17QGL2PaintEngineEx19drawPixmapFragmentsEPKN8QPainter14PixmapFragmentEiRK7QPixmap6QFlagsINS0_18PixmapFragmentHintEE 0x0002c874   Data           0  qpaintengineex_opengl2.o(.ARM.extab)
    .extab._ZN17QGL2PaintEngineEx9drawImageERK6QRectFRK6QImageS2_6QFlagsIN2Qt19ImageConversionFlagEE 0x0002c884   Data           0  qpaintengineex_opengl2.o(.ARM.extab)
    .extab._ZN24QGL2PaintEngineExPrivate8setBrushERK6QBrush 0x0002c894   Data           0  qpaintengineex_opengl2.o(.ARM.extab)
    .extab._ZN24QGL2PaintEngineExPrivate16drawCachedGlyphsEN21QFontEngineGlyphCache4TypeEP15QStaticTextItem 0x0002c8ac   Data           0  qpaintengineex_opengl2.o(.ARM.extab)
    .extab._ZN17QGL2PaintEngineEx12drawTextItemERK7QPointFRK9QTextItem 0x0002c8fc   Data           0  qpaintengineex_opengl2.o(.ARM.extab)
    .extab._ZN24QGL2PaintEngineExPrivate26fillStencilWithVertexArrayEPKfiPiiRK7QGLRectNS_15StencilFillModeE 0x0002c930   Data           0  qpaintengineex_opengl2.o(.ARM.extab)
    .extab._ZN24QGL2PaintEngineExPrivate4fillERK11QVectorPath 0x0002c958   Data           0  qpaintengineex_opengl2.o(.ARM.extab)
    .extab._ZN24QGL2PaintEngineExPrivate6strokeERK11QVectorPathRK4QPen 0x0002c968   Data           0  qpaintengineex_opengl2.o(.ARM.extab)
    .extab._ZN17QGL2PaintEngineEx6strokeERK11QVectorPathRK4QPen 0x0002c988   Data           0  qpaintengineex_opengl2.o(.ARM.extab)
    .extab._ZN24QGL2PaintEngineExPrivate9clearClipEj 0x0002c998   Data           0  qpaintengineex_opengl2.o(.ARM.extab)
    .extab._ZN17QGL2PaintEngineEx4clipERK11QVectorPathN2Qt13ClipOperationE 0x0002c9a8   Data           0  qpaintengineex_opengl2.o(.ARM.extab)
    .extab._ZNK17QGL2PaintEngineEx11createStateEP13QPainterState 0x0002c9c8   Data           0  qpaintengineex_opengl2.o(.ARM.extab)
    .extab._ZN17QGL2PaintEngineEx19beginNativePaintingEv 0x0002c9e0   Data           0  qpaintengineex_opengl2.o(.ARM.extab)
    .extab._ZN24QGL2PaintEngineExPrivateD1Ev 0x0002c9f0   Data           0  qpaintengineex_opengl2.o(.ARM.extab)
    .extab._ZN24QGL2PaintEngineExPrivate18systemStateChangedEv 0x0002ca88   Data           0  qpaintengineex_opengl2.o(.ARM.extab)
    .extab._ZN50_GLOBAL__N__26_qpaintengineex_opengl2_cpp_0babbb5225QOpenGLStaticTextUserDataD1Ev 0x0002caa8   Data           0  qpaintengineex_opengl2.o(.ARM.extab)
    .extab._ZN16QPainterClipInfoC1ERKS_      0x0002cac0   Data           0  qpaintengineex_opengl2.o(.ARM.extab)
    .extab._ZN5QListI16QPainterClipInfoE13detach_helperEi 0x0002cad0   Data           0  qpaintengineex_opengl2.o(.ARM.extab)
    .extab._ZN13QPainterStateC1ERKS_         0x0002cb14   Data           0  qpaintengineex_opengl2.o(.ARM.extab)
    .extab._ZN22QDashedStrokeProcessorD1Ev   0x0002cb5c   Data           0  qpaintengineex_opengl2.o(.ARM.extab)
    .extab._ZN24QGL2PaintEngineExPrivateC1EP17QGL2PaintEngineEx 0x0002cb74   Data           0  qpaintengineex_opengl2.o(.ARM.extab)
    .extab._ZN12QDashStrokerD1Ev             0x0002cbe4   Data           0  qpaintengineex_opengl2.o(.ARM.extab)
    .extab._ZN16QPainterClipInfoD1Ev         0x0002cbf4   Data           0  qpaintengineex_opengl2.o(.ARM.extab)
    .extab._ZN18QGL2PEXVertexArrayD1Ev       0x0002cc04   Data           0  qpaintengineex_opengl2.o(.ARM.extab)
    .extab._ZN12QTriangleSetD1Ev             0x0002cc14   Data           0  qpaintengineex_opengl2.o(.ARM.extab)
    .extab._ZN18QVertexIndexVectorD1Ev       0x0002cc24   Data           0  qpaintengineex_opengl2.o(.ARM.extab)
    .extab._ZN20QGLCustomShaderStageC1Ev     0x0002cc34   Data           0  qglcustomshaderstage.o(.ARM.extab)
    .extab._ZN21QTriangulatingStroker6endCapEPKf 0x0002cc4c   Data           0  qtriangulatingstroker.o(.ARM.extab)
    .extab._ZN21QTriangulatingStroker4joinEPKf 0x0002cc68   Data           0  qtriangulatingstroker.o(.ARM.extab)
    .extab._ZN21QTriangulatingStroker6moveToEPKf 0x0002cc7c   Data           0  qtriangulatingstroker.o(.ARM.extab)
    .extab._ZN22QDashedStrokeProcessorC1Ev   0x0002cc90   Data           0  qtriangulatingstroker.o(.ARM.extab)
    .extab._ZN22QDashedStrokeProcessor7processERK11QVectorPathRK4QPenRK6QRectF 0x0002cca0   Data           0  qtriangulatingstroker.o(.ARM.extab)
    .extab._Z12qTriangulatePKfijRK10QTransform 0x0002ccb0   Data           0  qtriangulator.o(.ARM.extab)
    .extab._Z12qTriangulateRK11QVectorPathRK10QTransformf 0x0002cd00   Data           0  qtriangulator.o(.ARM.extab)
    .extab._Z12qTriangulateRK12QPainterPathRK10QTransformf 0x0002cd50   Data           0  qtriangulator.o(.ARM.extab)
    .extab._Z9qPolylineRK11QVectorPathRK10QTransformf 0x0002cda0   Data           0  qtriangulator.o(.ARM.extab)
    .extab._Z9qPolylineRK12QPainterPathRK10QTransformf 0x0002cdf0   Data           0  qtriangulator.o(.ARM.extab)
    .extab._ZN7QVectorItE7reallocEii         0x0002ce40   Data           0  qtriangulator.o(.ARM.extab)
    .extab._ZN7QVectorIfE7reallocEii         0x0002ce5c   Data           0  qtriangulator.o(.ARM.extab)
    .extab._ZN13QTriangulatorItE16SimpleToMonotoneD1Ev 0x0002ce78   Data           0  qtriangulator.o(.ARM.extab)
    .extab._ZN13QTriangulatorItE15ComplexToSimpleD1Ev 0x0002ce90   Data           0  qtriangulator.o(.ARM.extab)
    .extab._ZN13QTriangulatorItE19MonotoneToTriangles9decomposeEv 0x0002cec0   Data           0  qtriangulator.o(.ARM.extab)
    .extab._ZN7QVectorItE5clearEv            0x0002cee0   Data           0  qtriangulator.o(.ARM.extab)
    .extab._ZN13QTriangulatorItE16SimpleToMonotone21monotoneDecompositionEv 0x0002cef0   Data           0  qtriangulator.o(.ARM.extab)
    .extab._ZN13QTriangulatorItE16SimpleToMonotone21removeZeroLengthEdgesEv 0x0002cf00   Data           0  qtriangulator.o(.ARM.extab)
    .extab._ZN13QTriangulatorItE16SimpleToMonotone9decomposeEv 0x0002cf10   Data           0  qtriangulator.o(.ARM.extab)
    .extab._ZN13QTriangulatorItE15ComplexToSimple18removeUnusedPointsEv 0x0002cf20   Data           0  qtriangulator.o(.ARM.extab)
    .extab._ZN13QTriangulatorItE15ComplexToSimple29removeUnwantedEdgesAndConnectEv 0x0002cf40   Data           0  qtriangulator.o(.ARM.extab)
    .extab._ZN13QTriangulatorItE15ComplexToSimple9decomposeEv 0x0002cf50   Data           0  qtriangulator.o(.ARM.extab)
    .extab._ZN13QTriangulatorItE15ComplexToSimpleC1EPS0_ 0x0002cf60   Data           0  qtriangulator.o(.ARM.extab)
    .extab._ZN13QTriangulatorItE11triangulateEv 0x0002cf78   Data           0  qtriangulator.o(.ARM.extab)
    .extab._ZN13QTriangulatorIjE16SimpleToMonotoneD1Ev 0x0002cfb0   Data           0  qtriangulator.o(.ARM.extab)
    .extab._ZN13QTriangulatorIjE15ComplexToSimpleD1Ev 0x0002cfc8   Data           0  qtriangulator.o(.ARM.extab)
    .extab._ZN13QTriangulatorIjE19MonotoneToTriangles9decomposeEv 0x0002cff8   Data           0  qtriangulator.o(.ARM.extab)
    .extab._ZN7QVectorIjE5clearEv            0x0002d018   Data           0  qtriangulator.o(.ARM.extab)
    .extab._ZN13QTriangulatorIjE16SimpleToMonotone21monotoneDecompositionEv 0x0002d028   Data           0  qtriangulator.o(.ARM.extab)
    .extab._ZN13QTriangulatorIjE16SimpleToMonotone21removeZeroLengthEdgesEv 0x0002d038   Data           0  qtriangulator.o(.ARM.extab)
    .extab._ZN13QTriangulatorIjE16SimpleToMonotone9decomposeEv 0x0002d048   Data           0  qtriangulator.o(.ARM.extab)
    .extab._ZN13QTriangulatorIjE15ComplexToSimple18removeUnusedPointsEv 0x0002d058   Data           0  qtriangulator.o(.ARM.extab)
    .extab._ZN13QTriangulatorIjE15ComplexToSimple29removeUnwantedEdgesAndConnectEv 0x0002d078   Data           0  qtriangulator.o(.ARM.extab)
    .extab._ZN13QTriangulatorIjE15ComplexToSimpleC1EPS0_ 0x0002d088   Data           0  qtriangulator.o(.ARM.extab)
    .extab._ZN13QTriangulatorIjE11triangulateEv 0x0002d0a0   Data           0  qtriangulator.o(.ARM.extab)
    .extab._ZN18QVertexIndexVectorC1Ev       0x0002d0d0   Data           0  qtriangulator.o(.ARM.extab)
    .extab._ZN13QTriangulatorItE10initializeERK11QVectorPathRK10QTransformf 0x0002d0e0   Data           0  qtriangulator.o(.ARM.extab)
    .extab._ZN13QTriangulatorIjE10initializeERK11QVectorPathRK10QTransformf 0x0002d0f0   Data           0  qtriangulator.o(.ARM.extab)
    .extab._ZN13QTriangulatorIjE8polylineEv  0x0002d100   Data           0  qtriangulator.o(.ARM.extab)
    .extab._ZN10QVertexSetItED1Ev            0x0002d110   Data           0  qtriangulator.o(.ARM.extab)
    .extab._ZN13QTriangulatorItED1Ev         0x0002d120   Data           0  qtriangulator.o(.ARM.extab)
    .extab._ZN10QVertexSetIjED1Ev            0x0002d130   Data           0  qtriangulator.o(.ARM.extab)
    .extab._ZN13QTriangulatorIjED1Ev         0x0002d140   Data           0  qtriangulator.o(.ARM.extab)
    .extab._ZN13QTriangulatorItEC1Ev         0x0002d150   Data           0  qtriangulator.o(.ARM.extab)
    .extab._ZN10QVertexSetIjEC1Ev            0x0002d160   Data           0  qtriangulator.o(.ARM.extab)
    .extab._ZN13QTriangulatorIjE15ComplexToSimple9decomposeEv 0x0002d170   Data           0  qtriangulator.o(.ARM.extab)
    .extab._ZN13QTriangulatorIjEC1Ev         0x0002d180   Data           0  qtriangulator.o(.ARM.extab)
    .extab._ZN12QTriangleSetC1Ev             0x0002d190   Data           0  qtriangulator.o(.ARM.extab)
    .extab._ZN12QPolylineSetD1Ev             0x0002d1a0   Data           0  qtriangulator.o(.ARM.extab)
    .extab._ZN12QPolylineSetC1Ev             0x0002d1b0   Data           0  qtriangulator.o(.ARM.extab)
    .extab._ZN20QGLTextureGlyphCacheC1EP10QGLContextN21QFontEngineGlyphCache4TypeERK10QTransform 0x0002d1c0   Data           0  qtextureglyphcache_gl.o(.ARM.extab)
    .extab._ZN20QGLTextureGlyphCache5clearEv 0x0002d1e0   Data           0  qtextureglyphcache_gl.o(.ARM.extab)
    .extab._ZN20QGLTextureGlyphCacheD1Ev     0x0002d1f0   Data           0  qtextureglyphcache_gl.o(.ARM.extab)
    .extab._ZN20QGLTextureGlyphCache17createTextureDataEii 0x0002d218   Data           0  qtextureglyphcache_gl.o(.ARM.extab)
    .extab._ZN20QGLTextureGlyphCache11fillTextureERKN18QTextureGlyphCache5CoordEj 0x0002d230   Data           0  qtextureglyphcache_gl.o(.ARM.extab)
    .extab._ZN18QTextureGlyphCacheC2EN21QFontEngineGlyphCache4TypeERK10QTransform 0x0002d250   Data           0  qtextureglyphcache_gl.o(.ARM.extab)
    .extab._ZN18QTextureGlyphCacheD2Ev       0x0002d260   Data           0  qtextureglyphcache_gl.o(.ARM.extab)
    .extab._ZN5QHashIjN18QTextureGlyphCache5CoordEE5clearEv 0x0002d270   Data           0  qtextureglyphcache_gl.o(.ARM.extab)
    .extab._ZN23QImageTextureGlyphCacheD1Ev  0x0002d280   Data           0  qtextureglyphcache_gl.o(.ARM.extab)
    .extab._ZN19QGLTextureDestroyer11qt_metacallEN11QMetaObject4CallEiPPv 0x0002d290   Data           0  moc_qgl_p.o(.ARM.extab)
    .constdata$1                             0x0002d2a0   Data           0  qgl.o(.constdata)
    .constdata                               0x0002d2a0   Section     1084  qgl.o(.constdata)
    .constdata$1                             0x0002d6dc   Data           0  qglframebufferobject.o(.constdata)
    .constdata                               0x0002d6dc   Section      556  qglframebufferobject.o(.constdata)
    .constdata$1                             0x0002d908   Data           0  qglextensions.o(.constdata)
    .constdata                               0x0002d908   Section      148  qglextensions.o(.constdata)
    .constdata$1                             0x0002d99c   Data           0  qglshaderprogram.o(.constdata)
    redefineHighp                            0x0002d99c   Data          65  qglshaderprogram.o(.constdata)
    .constdata                               0x0002d99c   Section      156  qglshaderprogram.o(.constdata)
    .constdata$1                             0x0002da38   Data           0  qglpixmapfilter.o(.constdata)
    .constdata                               0x0002da38   Section      244  qglpixmapfilter.o(.constdata)
    .constdata$1                             0x0002db2c   Data           0  qgraphicsshadereffect.o(.constdata)
    qglslDefaultImageFragmentShader          0x0002db2c   Data         146  qgraphicsshadereffect.o(.constdata)
    .constdata                               0x0002db2c   Section      146  qgraphicsshadereffect.o(.constdata)
    .constdata$1                             0x0002dbc0   Data           0  qwindowsurface_gl.o(.constdata)
    .constdata                               0x0002dbc0   Section       92  qwindowsurface_gl.o(.constdata)
    .constdata$1                             0x0002dc1c   Data           0  qgl_symbian.o(.constdata)
    .constdata                               0x0002dc1c   Section       32  qgl_symbian.o(.constdata)
    .constdata$1                             0x0002dc3c   Data           0  qglpixelbuffer_egl.o(.constdata)
    .constdata                               0x0002dc3c   Section       72  qglpixelbuffer_egl.o(.constdata)
    .constdata$1                             0x0002dc84   Data           0  qglengineshadermanager.o(.constdata)
    qglslMainVertexShader                    0x0002dc84   Data           4  qglengineshadermanager.o(.constdata)
    .constdata                               0x0002dc84   Section      864  qglengineshadermanager.o(.constdata)
    qglslMainWithTexCoordsVertexShader       0x0002dc88   Data           4  qglengineshadermanager.o(.constdata)
    qglslMainWithTexCoordsAndOpacityVertexShader 0x0002dc8c   Data           4  qglengineshadermanager.o(.constdata)
    qglslPositionOnlyVertexShader            0x0002dc90   Data           4  qglengineshadermanager.o(.constdata)
    qglslComplexGeometryPositionOnlyVertexShader 0x0002dc94   Data           4  qglengineshadermanager.o(.constdata)
    qglslUntransformedPositionVertexShader   0x0002dc98   Data           4  qglengineshadermanager.o(.constdata)
    qglslPositionWithPatternBrushVertexShader 0x0002dc9c   Data           4  qglengineshadermanager.o(.constdata)
    qglslPatternBrushSrcFragmentShader       0x0002dca0   Data           4  qglengineshadermanager.o(.constdata)
    qglslPositionWithLinearGradientBrushVertexShader 0x0002dca4   Data           4  qglengineshadermanager.o(.constdata)
    qglslLinearGradientBrushSrcFragmentShader 0x0002dca8   Data           4  qglengineshadermanager.o(.constdata)
    qglslPositionWithConicalGradientBrushVertexShader 0x0002dcac   Data           4  qglengineshadermanager.o(.constdata)
    qglslConicalGradientBrushSrcFragmentShader 0x0002dcb0   Data           4  qglengineshadermanager.o(.constdata)
    qglslPositionWithRadialGradientBrushVertexShader 0x0002dcb4   Data           4  qglengineshadermanager.o(.constdata)
    qglslRadialGradientBrushSrcFragmentShader 0x0002dcb8   Data           4  qglengineshadermanager.o(.constdata)
    qglslPositionWithTextureBrushVertexShader 0x0002dcbc   Data           4  qglengineshadermanager.o(.constdata)
    qglslTextureBrushSrcFragmentShader       0x0002dcc0   Data           4  qglengineshadermanager.o(.constdata)
    qglslTextureBrushSrcWithPatternFragmentShader 0x0002dcc4   Data           4  qglengineshadermanager.o(.constdata)
    qglslSolidBrushSrcFragmentShader         0x0002dcc8   Data           4  qglengineshadermanager.o(.constdata)
    qglslImageSrcFragmentShader              0x0002dccc   Data           4  qglengineshadermanager.o(.constdata)
    qglslCustomSrcFragmentShader             0x0002dcd0   Data           4  qglengineshadermanager.o(.constdata)
    qglslImageSrcWithPatternFragmentShader   0x0002dcd4   Data           4  qglengineshadermanager.o(.constdata)
    qglslNonPremultipliedImageSrcFragmentShader 0x0002dcd8   Data           4  qglengineshadermanager.o(.constdata)
    qglslShockingPinkSrcFragmentShader       0x0002dcdc   Data           4  qglengineshadermanager.o(.constdata)
    qglslMainFragmentShader_ImageArrays      0x0002dce0   Data           4  qglengineshadermanager.o(.constdata)
    qglslMainFragmentShader_CMO              0x0002dce4   Data           4  qglengineshadermanager.o(.constdata)
    qglslMainFragmentShader_CM               0x0002dce8   Data           4  qglengineshadermanager.o(.constdata)
    qglslMainFragmentShader_MO               0x0002dcec   Data           4  qglengineshadermanager.o(.constdata)
    qglslMainFragmentShader_M                0x0002dcf0   Data           4  qglengineshadermanager.o(.constdata)
    qglslMainFragmentShader_CO               0x0002dcf4   Data           4  qglengineshadermanager.o(.constdata)
    qglslMainFragmentShader_C                0x0002dcf8   Data           4  qglengineshadermanager.o(.constdata)
    qglslMainFragmentShader_O                0x0002dcfc   Data           4  qglengineshadermanager.o(.constdata)
    qglslMainFragmentShader                  0x0002dd00   Data           4  qglengineshadermanager.o(.constdata)
    qglslMaskFragmentShader                  0x0002dd04   Data           4  qglengineshadermanager.o(.constdata)
    qglslRgbMaskFragmentShaderPass1          0x0002dd08   Data           4  qglengineshadermanager.o(.constdata)
    qglslRgbMaskFragmentShaderPass2          0x0002dd0c   Data           4  qglengineshadermanager.o(.constdata)
    .constdata$1                             0x0002dfe8   Data           0  qtriangulator.o(.constdata)
    prime_deltas                             0x0002dfe8   Data          32  qtriangulator.o(.constdata)
    .constdata                               0x0002dfe8   Section       72  qtriangulator.o(.constdata)
    .constdata$7                             0x0002e030   Data           0  qtriangulator.o(.constdata)
    .constdata                               0x0002e030   Section        8  qtriangulator.o(.constdata)
    .constdata$1                             0x0002e038   Data           0  moc_qgl.o(.constdata)
    qt_meta_stringdata_QGLWidget             0x0002e038   Data          41  moc_qgl.o(.constdata)
    .constdata                               0x0002e038   Section       60  moc_qgl.o(.constdata)
    .constdata$10                            0x0002e074   Data           0  moc_qgl.o(.constdata)
    qt_meta_data_QGLWidget                   0x0002e074   Data         100  moc_qgl.o(.constdata)
    .constdata                               0x0002e074   Section      100  moc_qgl.o(.constdata)
    .constdata$1                             0x0002e0d8   Data           0  moc_qgl_p.o(.constdata)
    qt_meta_stringdata_QGLTextureDestroyer   0x0002e0d8   Data         140  moc_qgl_p.o(.constdata)
    .constdata                               0x0002e0d8   Section      240  moc_qgl_p.o(.constdata)
    qt_meta_stringdata_QGLSignalProxy        0x0002e164   Data          66  moc_qgl_p.o(.constdata)
    .constdata$13                            0x0002e1c8   Data           0  moc_qgl_p.o(.constdata)
    qt_meta_data_QGLTextureDestroyer         0x0002e1c8   Data         100  moc_qgl_p.o(.constdata)
    .constdata                               0x0002e1c8   Section      100  moc_qgl_p.o(.constdata)
    .constdata$19                            0x0002e22c   Data           0  moc_qgl_p.o(.constdata)
    qt_meta_data_QGLSignalProxy              0x0002e22c   Data          80  moc_qgl_p.o(.constdata)
    .constdata                               0x0002e22c   Section       80  moc_qgl_p.o(.constdata)
    .constdata$1                             0x0002e27c   Data           0  moc_qglshaderprogram.o(.constdata)
    qt_meta_stringdata_QGLShader             0x0002e27c   Data          11  moc_qglshaderprogram.o(.constdata)
    .constdata                               0x0002e27c   Section       80  moc_qglshaderprogram.o(.constdata)
    qt_meta_stringdata_QGLShaderProgram      0x0002e287   Data          37  moc_qglshaderprogram.o(.constdata)
    .constdata$13                            0x0002e2cc   Data           0  moc_qglshaderprogram.o(.constdata)
    qt_meta_data_QGLShader                   0x0002e2cc   Data          60  moc_qglshaderprogram.o(.constdata)
    .constdata                               0x0002e2cc   Section       60  moc_qglshaderprogram.o(.constdata)
    .constdata$19                            0x0002e308   Data           0  moc_qglshaderprogram.o(.constdata)
    qt_meta_data_QGLShaderProgram            0x0002e308   Data          80  moc_qglshaderprogram.o(.constdata)
    .constdata                               0x0002e308   Section       80  moc_qglshaderprogram.o(.constdata)
    .constdata$1                             0x0002e358   Data           0  moc_qgraphicsshadereffect_p.o(.constdata)
    qt_meta_stringdata_QGraphicsShaderEffect 0x0002e358   Data          23  moc_qgraphicsshadereffect_p.o(.constdata)
    .constdata                               0x0002e358   Section       40  moc_qgraphicsshadereffect_p.o(.constdata)
    .constdata$10                            0x0002e380   Data           0  moc_qgraphicsshadereffect_p.o(.constdata)
    qt_meta_data_QGraphicsShaderEffect       0x0002e380   Data          60  moc_qgraphicsshadereffect_p.o(.constdata)
    .constdata                               0x0002e380   Section       60  moc_qgraphicsshadereffect_p.o(.constdata)
    .constdata$1                             0x0002e3bc   Data           0  moc_qwindowsurface_gl_p.o(.constdata)
    qt_meta_stringdata_QGLWindowSurface      0x0002e3bc   Data          44  moc_qwindowsurface_gl_p.o(.constdata)
    .constdata                               0x0002e3bc   Section       60  moc_qwindowsurface_gl_p.o(.constdata)
    .constdata$10                            0x0002e3f8   Data           0  moc_qwindowsurface_gl_p.o(.constdata)
    qt_meta_data_QGLWindowSurface            0x0002e3f8   Data          80  moc_qwindowsurface_gl_p.o(.constdata)
    .constdata                               0x0002e3f8   Section       80  moc_qwindowsurface_gl_p.o(.constdata)
    .constdata$1                             0x0002e448   Data           0  moc_qglengineshadermanager_p.o(.constdata)
    qt_meta_stringdata_QGLEngineSharedShaders 0x0002e448   Data        1905  moc_qglengineshadermanager_p.o(.constdata)
    .constdata                               0x0002e448   Section     1992  moc_qglengineshadermanager_p.o(.constdata)
    qt_meta_stringdata_QGLEngineShaderManager 0x0002ebb9   Data          55  moc_qglengineshadermanager_p.o(.constdata)
    .constdata$13                            0x0002ec10   Data           0  moc_qglengineshadermanager_p.o(.constdata)
    qt_meta_data_QGLEngineSharedShaders      0x0002ec10   Data         544  moc_qglengineshadermanager_p.o(.constdata)
    .constdata                               0x0002ec10   Section      544  moc_qglengineshadermanager_p.o(.constdata)
    .constdata$19                            0x0002ee30   Data           0  moc_qglengineshadermanager_p.o(.constdata)
    qt_meta_data_QGLEngineShaderManager      0x0002ee30   Data          80  moc_qglengineshadermanager_p.o(.constdata)
    .constdata                               0x0002ee30   Section       80  moc_qglengineshadermanager_p.o(.constdata)
    .constdata$1                             0x0002ee80   Data           0  moc_qtextureglyphcache_gl_p.o(.constdata)
    qt_meta_stringdata_QGLTextureGlyphCache  0x0002ee80   Data          75  moc_qtextureglyphcache_gl_p.o(.constdata)
    .constdata                               0x0002ee80   Section       92  moc_qtextureglyphcache_gl_p.o(.constdata)
    .constdata$10                            0x0002eedc   Data           0  moc_qtextureglyphcache_gl_p.o(.constdata)
    qt_meta_data_QGLTextureGlyphCache        0x0002eedc   Data         100  moc_qtextureglyphcache_gl_p.o(.constdata)
    .constdata                               0x0002eedc   Section      100  moc_qtextureglyphcache_gl_p.o(.constdata)
    .constdata__ZN9stlp_priv15_Integer_limitsIaLan128ELa127ELin1ELb1EE6digitsE 0x0002ef40   Section        4  qgl.o(.constdata__ZN9stlp_priv15_Integer_limitsIaLan128ELa127ELin1ELb1EE6digitsE)
    .constdata__ZN9stlp_priv15_Integer_limitsIbLb0ELb1ELi1ELb0EE6digitsE 0x0002ef44   Section        4  qgl.o(.constdata__ZN9stlp_priv15_Integer_limitsIbLb0ELb1ELi1ELb0EE6digitsE)
    .constdata__ZN9stlp_priv15_Integer_limitsIcLc128ELc127ELin1ELb1EE6digitsE 0x0002ef48   Section        4  qgl.o(.constdata__ZN9stlp_priv15_Integer_limitsIcLc128ELc127ELin1ELb1EE6digitsE)
    .constdata__ZN9stlp_priv15_Integer_limitsIhLh0ELh255ELin1ELb1EE6digitsE 0x0002ef4c   Section        4  qgl.o(.constdata__ZN9stlp_priv15_Integer_limitsIhLh0ELh255ELin1ELb1EE6digitsE)
    .constdata__ZN9stlp_priv15_Integer_limitsIiLin2147483648ELi2147483647ELin1ELb1EE6digitsE 0x0002ef50   Section        4  qgl.o(.constdata__ZN9stlp_priv15_Integer_limitsIiLin2147483648ELi2147483647ELin1ELb1EE6digitsE)
    .constdata__ZN9stlp_priv15_Integer_limitsIiLin2147483648ELi2147483647ELin1ELb1EE9is_signedE 0x0002ef54   Section        1  qgl.o(.constdata__ZN9stlp_priv15_Integer_limitsIiLin2147483648ELi2147483647ELin1ELb1EE9is_signedE)
    .constdata__ZN9stlp_priv15_Integer_limitsIjLj0ELj4294967295ELin1ELb1EE6digitsE 0x0002ef58   Section        4  qgl.o(.constdata__ZN9stlp_priv15_Integer_limitsIjLj0ELj4294967295ELin1ELb1EE6digitsE)
    .constdata__ZN9stlp_priv15_Integer_limitsIlLln2147483648ELl2147483647ELin1ELb1EE6digitsE 0x0002ef5c   Section        4  qgl.o(.constdata__ZN9stlp_priv15_Integer_limitsIlLln2147483648ELl2147483647ELin1ELb1EE6digitsE)
    .constdata__ZN9stlp_priv15_Integer_limitsImLm0ELm4294967295ELin1ELb1EE6digitsE 0x0002ef60   Section        4  qgl.o(.constdata__ZN9stlp_priv15_Integer_limitsImLm0ELm4294967295ELin1ELb1EE6digitsE)
    .constdata__ZN9stlp_priv15_Integer_limitsIsLsn32768ELs32767ELin1ELb1EE6digitsE 0x0002ef64   Section        4  qgl.o(.constdata__ZN9stlp_priv15_Integer_limitsIsLsn32768ELs32767ELin1ELb1EE6digitsE)
    .constdata__ZN9stlp_priv15_Integer_limitsItLt0ELt65535ELin1ELb1EE6digitsE 0x0002ef68   Section        4  qgl.o(.constdata__ZN9stlp_priv15_Integer_limitsItLt0ELt65535ELin1ELb1EE6digitsE)
    .constdata__ZN9stlp_priv15_Integer_limitsIwLw0ELw65535ELin1ELb1EE6digitsE 0x0002ef6c   Section        4  qgl.o(.constdata__ZN9stlp_priv15_Integer_limitsIwLw0ELw65535ELin1ELb1EE6digitsE)
    .constdata__ZN9stlp_priv15_Integer_limitsIxLxn9223372036854775808ELx9223372036854775807ELin1ELb1EE6digitsE 0x0002ef70   Section        4  qgl.o(.constdata__ZN9stlp_priv15_Integer_limitsIxLxn9223372036854775808ELx9223372036854775807ELin1ELb1EE6digitsE)
    .constdata__ZN9stlp_priv15_Integer_limitsIyLy0ELy18446744073709551615ELin1ELb1EE6digitsE 0x0002ef74   Section        4  qgl.o(.constdata__ZN9stlp_priv15_Integer_limitsIyLy0ELy18446744073709551615ELin1ELb1EE6digitsE)
    .constdata__ZTI10QGLContext              0x0002ef78   Section        8  qgl.o(.constdata__ZTI10QGLContext)
    .constdata__ZTI13QGLPixmapData           0x0002ef80   Section       12  qpixmapdata_gl.o(.constdata__ZTI13QGLPixmapData)
    .constdata__ZTI14QGLPaintDevice          0x0002ef8c   Section       12  qglpaintdevice.o(.constdata__ZTI14QGLPaintDevice)
    .constdata__ZTI14QGLPixelBuffer          0x0002ef98   Section       12  qglpixelbuffer.o(.constdata__ZTI14QGLPixelBuffer)
    .constdata__ZTI14QGLSignalProxy          0x0002efa4   Section       12  moc_qgl_p.o(.constdata__ZTI14QGLSignalProxy)
    .constdata__ZTI15QGLPixmapFilterI17QPixmapBlurFilterE 0x0002efb0   Section       32  qglpixmapfilter.o(.constdata__ZTI15QGLPixmapFilterI17QPixmapBlurFilterE)
    .constdata__ZTI15QGLPixmapFilterI21QPixmapColorizeFilterE 0x0002efd0   Section       32  qglpixmapfilter.o(.constdata__ZTI15QGLPixmapFilterI21QPixmapColorizeFilterE)
    .constdata__ZTI15QGLPixmapFilterI23QPixmapDropShadowFilterE 0x0002eff0   Section       32  qglpixmapfilter.o(.constdata__ZTI15QGLPixmapFilterI23QPixmapDropShadowFilterE)
    .constdata__ZTI15QGLPixmapFilterI24QPixmapConvolutionFilterE 0x0002f010   Section       32  qglpixmapfilter.o(.constdata__ZTI15QGLPixmapFilterI24QPixmapConvolutionFilterE)
    .constdata__ZTI16QGLShaderPrivate        0x0002f030   Section       12  qglshaderprogram.o(.constdata__ZTI16QGLShaderPrivate)
    .constdata__ZTI16QGLShaderProgram        0x0002f03c   Section       12  moc_qglshaderprogram.o(.constdata__ZTI16QGLShaderProgram)
    .constdata__ZTI16QGLWidgetPrivate        0x0002f048   Section       12  qgl.o(.constdata__ZTI16QGLWidgetPrivate)
    .constdata__ZTI16QGLWindowSurface        0x0002f054   Section       32  moc_qwindowsurface_gl_p.o(.constdata__ZTI16QGLWindowSurface)
    .constdata__ZTI17QGL2PaintEngineEx       0x0002f074   Section       12  qpaintengineex_opengl2.o(.constdata__ZTI17QGL2PaintEngineEx)
    .constdata__ZTI17QGLGraphicsSystem       0x0002f080   Section       12  qgraphicssystem_gl.o(.constdata__ZTI17QGLGraphicsSystem)
    .constdata__ZTI18QTextureGlyphCache      0x0002f08c   Section       12  qtextureglyphcache_gl.o(.constdata__ZTI18QTextureGlyphCache)
    .constdata__ZTI19QGLBlurTextureCache     0x0002f098   Section       12  qglpixmapfilter.o(.constdata__ZTI19QGLBlurTextureCache)
    .constdata__ZTI19QGLFBOGLPaintDevice     0x0002f0a4   Section       12  qglframebufferobject.o(.constdata__ZTI19QGLFBOGLPaintDevice)
    .constdata__ZTI19QGLPixmapBlurFilter     0x0002f0b0   Section       32  qglpixmapfilter.o(.constdata__ZTI19QGLPixmapBlurFilter)
    .constdata__ZTI19QGLPixmapFilterBase     0x0002f0d0   Section        8  qglpixmapfilter.o(.constdata__ZTI19QGLPixmapFilterBase)
    .constdata__ZTI19QGLTextureDestroyer     0x0002f0d8   Section       12  moc_qgl_p.o(.constdata__ZTI19QGLTextureDestroyer)
    .constdata__ZTI19QPaintEnginePrivate     0x0002f0e4   Section        8  qgl.o(.constdata__ZTI19QPaintEnginePrivate)
    .constdata__ZTI19QStaticTextUserData     0x0002f0ec   Section        8  qpaintengineex_opengl2.o(.constdata__ZTI19QStaticTextUserData)
    .constdata__ZTI20QGLCustomShaderStage    0x0002f0f4   Section        8  qglcustomshaderstage.o(.constdata__ZTI20QGLCustomShaderStage)
    .constdata__ZTI20QGLFramebufferObject    0x0002f0fc   Section       12  qglframebufferobject.o(.constdata__ZTI20QGLFramebufferObject)
    .constdata__ZTI20QGLTextureGlyphCache    0x0002f108   Section       32  moc_qtextureglyphcache_gl_p.o(.constdata__ZTI20QGLTextureGlyphCache)
    .constdata__ZTI21QFontEngineGlyphCache   0x0002f128   Section        8  qtextureglyphcache_gl.o(.constdata__ZTI21QFontEngineGlyphCache)
    .constdata__ZTI21QGraphicsShaderEffect   0x0002f130   Section       12  moc_qgraphicsshadereffect_p.o(.constdata__ZTI21QGraphicsShaderEffect)
    .constdata__ZTI22QGLEngineShaderManager  0x0002f13c   Section       12  moc_qglengineshadermanager_p.o(.constdata__ZTI22QGLEngineShaderManager)
    .constdata__ZTI22QGLEngineSharedShaders  0x0002f148   Section       12  moc_qglengineshadermanager_p.o(.constdata__ZTI22QGLEngineSharedShaders)
    .constdata__ZTI22QGLPixmapGLPaintDevice  0x0002f154   Section       12  qpixmapdata_gl.o(.constdata__ZTI22QGLPixmapGLPaintDevice)
    .constdata__ZTI22QGLWidgetGLPaintDevice  0x0002f160   Section       12  qglpaintdevice.o(.constdata__ZTI22QGLWidgetGLPaintDevice)
    .constdata__ZTI22QGraphicsEffectPrivate  0x0002f16c   Section       12  qgl.o(.constdata__ZTI22QGraphicsEffectPrivate)
    .constdata__ZTI23QGLPBufferGLPaintDevice 0x0002f178   Section       12  qglpixelbuffer.o(.constdata__ZTI23QGLPBufferGLPaintDevice)
    .constdata__ZTI23QGLPixmapColorizeFilter 0x0002f184   Section       32  qglpixmapfilter.o(.constdata__ZTI23QGLPixmapColorizeFilter)
    .constdata__ZTI23QGLShaderProgramPrivate 0x0002f1a4   Section       12  qglshaderprogram.o(.constdata__ZTI23QGLShaderProgramPrivate)
    .constdata__ZTI24QGL2PaintEngineExPrivate 0x0002f1b0   Section       12  qpaintengineex_opengl2.o(.constdata__ZTI24QGL2PaintEngineExPrivate)
    .constdata__ZTI24QOpenGL2PaintEngineState 0x0002f1bc   Section       12  qpaintengineex_opengl2.o(.constdata__ZTI24QOpenGL2PaintEngineState)
    .constdata__ZTI25QGLPixmapDropShadowFilter 0x0002f1c8   Section       32  qglpixmapfilter.o(.constdata__ZTI25QGLPixmapDropShadowFilter)
    .constdata__ZTI26QGLCustomShaderEffectStage 0x0002f1e8   Section       12  qgraphicsshadereffect.o(.constdata__ZTI26QGLCustomShaderEffectStage)
    .constdata__ZTI26QGLPixmapConvolutionFilter 0x0002f1f4   Section       32  qglpixmapfilter.o(.constdata__ZTI26QGLPixmapConvolutionFilter)
    .constdata__ZTI26QGraphicsBlurEffectPrivate 0x0002f214   Section       12  qgl.o(.constdata__ZTI26QGraphicsBlurEffectPrivate)
    .constdata__ZTI28QGraphicsShaderEffectPrivate 0x0002f220   Section       12  qgraphicsshadereffect.o(.constdata__ZTI28QGraphicsShaderEffectPrivate)
    .constdata__ZTI29QGLWindowSurfaceGLPaintDevice 0x0002f22c   Section       12  qwindowsurface_gl.o(.constdata__ZTI29QGLWindowSurfaceGLPaintDevice)
    .constdata__ZTI30QGraphicsColorizeEffectPrivate 0x0002f238   Section       12  qgl.o(.constdata__ZTI30QGraphicsColorizeEffectPrivate)
    .constdata__ZTI32QGraphicsDropShadowEffectPrivate 0x0002f244   Section       12  qgl.o(.constdata__ZTI32QGraphicsDropShadowEffectPrivate)
    .constdata__ZTI9QGLShader                0x0002f250   Section       12  moc_qglshaderprogram.o(.constdata__ZTI9QGLShader)
    .constdata__ZTI9QGLWidget                0x0002f25c   Section       12  moc_qgl.o(.constdata__ZTI9QGLWidget)
    .constdata__ZTIN50_GLOBAL__N__26_qpaintengineex_opengl2_cpp_0babbb5225QOpenGLStaticTextUserDataE 0x0002f268   Section       12  qpaintengineex_opengl2.o(.constdata__ZTIN50_GLOBAL__N__26_qpaintengineex_opengl2_cpp_0babbb5225QOpenGLStaticTextUserDataE)
    .constdata__ZTS10QGLContext              0x0002f274   Section       13  qgl.o(.constdata__ZTS10QGLContext)
    .constdata__ZTS13QGLPixmapData           0x0002f281   Section       16  qpixmapdata_gl.o(.constdata__ZTS13QGLPixmapData)
    .constdata__ZTS14QGLPaintDevice          0x0002f291   Section       17  qglpaintdevice.o(.constdata__ZTS14QGLPaintDevice)
    .constdata__ZTS14QGLPixelBuffer          0x0002f2a2   Section       17  qglpixelbuffer.o(.constdata__ZTS14QGLPixelBuffer)
    .constdata__ZTS14QGLSignalProxy          0x0002f2b3   Section       17  moc_qgl_p.o(.constdata__ZTS14QGLSignalProxy)
    .constdata__ZTS15QGLPixmapFilterI17QPixmapBlurFilterE 0x0002f2c4   Section       39  qglpixmapfilter.o(.constdata__ZTS15QGLPixmapFilterI17QPixmapBlurFilterE)
    .constdata__ZTS15QGLPixmapFilterI21QPixmapColorizeFilterE 0x0002f2eb   Section       43  qglpixmapfilter.o(.constdata__ZTS15QGLPixmapFilterI21QPixmapColorizeFilterE)
    .constdata__ZTS15QGLPixmapFilterI23QPixmapDropShadowFilterE 0x0002f316   Section       45  qglpixmapfilter.o(.constdata__ZTS15QGLPixmapFilterI23QPixmapDropShadowFilterE)
    .constdata__ZTS15QGLPixmapFilterI24QPixmapConvolutionFilterE 0x0002f343   Section       46  qglpixmapfilter.o(.constdata__ZTS15QGLPixmapFilterI24QPixmapConvolutionFilterE)
    .constdata__ZTS16QGLShaderPrivate        0x0002f371   Section       19  qglshaderprogram.o(.constdata__ZTS16QGLShaderPrivate)
    .constdata__ZTS16QGLShaderProgram        0x0002f384   Section       19  moc_qglshaderprogram.o(.constdata__ZTS16QGLShaderProgram)
    .constdata__ZTS16QGLWidgetPrivate        0x0002f397   Section       19  qgl.o(.constdata__ZTS16QGLWidgetPrivate)
    .constdata__ZTS16QGLWindowSurface        0x0002f3aa   Section       19  moc_qwindowsurface_gl_p.o(.constdata__ZTS16QGLWindowSurface)
    .constdata__ZTS17QGL2PaintEngineEx       0x0002f3bd   Section       20  qpaintengineex_opengl2.o(.constdata__ZTS17QGL2PaintEngineEx)
    .constdata__ZTS17QGLGraphicsSystem       0x0002f3d1   Section       20  qgraphicssystem_gl.o(.constdata__ZTS17QGLGraphicsSystem)
    .constdata__ZTS18QTextureGlyphCache      0x0002f3e5   Section       21  qtextureglyphcache_gl.o(.constdata__ZTS18QTextureGlyphCache)
    .constdata__ZTS19QGLBlurTextureCache     0x0002f3fa   Section       22  qglpixmapfilter.o(.constdata__ZTS19QGLBlurTextureCache)
    .constdata__ZTS19QGLFBOGLPaintDevice     0x0002f410   Section       22  qglframebufferobject.o(.constdata__ZTS19QGLFBOGLPaintDevice)
    .constdata__ZTS19QGLPixmapBlurFilter     0x0002f426   Section       22  qglpixmapfilter.o(.constdata__ZTS19QGLPixmapBlurFilter)
    .constdata__ZTS19QGLPixmapFilterBase     0x0002f43c   Section       22  qglpixmapfilter.o(.constdata__ZTS19QGLPixmapFilterBase)
    .constdata__ZTS19QGLTextureDestroyer     0x0002f452   Section       22  moc_qgl_p.o(.constdata__ZTS19QGLTextureDestroyer)
    .constdata__ZTS19QPaintEnginePrivate     0x0002f468   Section       22  qgl.o(.constdata__ZTS19QPaintEnginePrivate)
    .constdata__ZTS19QStaticTextUserData     0x0002f47e   Section       22  qpaintengineex_opengl2.o(.constdata__ZTS19QStaticTextUserData)
    .constdata__ZTS20QGLCustomShaderStage    0x0002f494   Section       23  qglcustomshaderstage.o(.constdata__ZTS20QGLCustomShaderStage)
    .constdata__ZTS20QGLFramebufferObject    0x0002f4ab   Section       23  qglframebufferobject.o(.constdata__ZTS20QGLFramebufferObject)
    .constdata__ZTS20QGLTextureGlyphCache    0x0002f4c2   Section       23  moc_qtextureglyphcache_gl_p.o(.constdata__ZTS20QGLTextureGlyphCache)
    .constdata__ZTS21QFontEngineGlyphCache   0x0002f4d9   Section       24  qtextureglyphcache_gl.o(.constdata__ZTS21QFontEngineGlyphCache)
    .constdata__ZTS21QGraphicsShaderEffect   0x0002f4f1   Section       24  moc_qgraphicsshadereffect_p.o(.constdata__ZTS21QGraphicsShaderEffect)
    .constdata__ZTS22QGLEngineShaderManager  0x0002f509   Section       25  moc_qglengineshadermanager_p.o(.constdata__ZTS22QGLEngineShaderManager)
    .constdata__ZTS22QGLEngineSharedShaders  0x0002f522   Section       25  moc_qglengineshadermanager_p.o(.constdata__ZTS22QGLEngineSharedShaders)
    .constdata__ZTS22QGLPixmapGLPaintDevice  0x0002f53b   Section       25  qpixmapdata_gl.o(.constdata__ZTS22QGLPixmapGLPaintDevice)
    .constdata__ZTS22QGLWidgetGLPaintDevice  0x0002f554   Section       25  qglpaintdevice.o(.constdata__ZTS22QGLWidgetGLPaintDevice)
    .constdata__ZTS22QGraphicsEffectPrivate  0x0002f56d   Section       25  qgl.o(.constdata__ZTS22QGraphicsEffectPrivate)
    .constdata__ZTS23QGLPBufferGLPaintDevice 0x0002f586   Section       26  qglpixelbuffer.o(.constdata__ZTS23QGLPBufferGLPaintDevice)
    .constdata__ZTS23QGLPixmapColorizeFilter 0x0002f5a0   Section       26  qglpixmapfilter.o(.constdata__ZTS23QGLPixmapColorizeFilter)
    .constdata__ZTS23QGLShaderProgramPrivate 0x0002f5ba   Section       26  qglshaderprogram.o(.constdata__ZTS23QGLShaderProgramPrivate)
    .constdata__ZTS24QGL2PaintEngineExPrivate 0x0002f5d4   Section       27  qpaintengineex_opengl2.o(.constdata__ZTS24QGL2PaintEngineExPrivate)
    .constdata__ZTS24QOpenGL2PaintEngineState 0x0002f5ef   Section       27  qpaintengineex_opengl2.o(.constdata__ZTS24QOpenGL2PaintEngineState)
    .constdata__ZTS25QGLPixmapDropShadowFilter 0x0002f60a   Section       28  qglpixmapfilter.o(.constdata__ZTS25QGLPixmapDropShadowFilter)
    .constdata__ZTS26QGLCustomShaderEffectStage 0x0002f626   Section       29  qgraphicsshadereffect.o(.constdata__ZTS26QGLCustomShaderEffectStage)
    .constdata__ZTS26QGLPixmapConvolutionFilter 0x0002f643   Section       29  qglpixmapfilter.o(.constdata__ZTS26QGLPixmapConvolutionFilter)
    .constdata__ZTS26QGraphicsBlurEffectPrivate 0x0002f660   Section       29  qgl.o(.constdata__ZTS26QGraphicsBlurEffectPrivate)
    .constdata__ZTS28QGraphicsShaderEffectPrivate 0x0002f67d   Section       31  qgraphicsshadereffect.o(.constdata__ZTS28QGraphicsShaderEffectPrivate)
    .constdata__ZTS29QGLWindowSurfaceGLPaintDevice 0x0002f69c   Section       32  qwindowsurface_gl.o(.constdata__ZTS29QGLWindowSurfaceGLPaintDevice)
    .constdata__ZTS30QGraphicsColorizeEffectPrivate 0x0002f6bc   Section       33  qgl.o(.constdata__ZTS30QGraphicsColorizeEffectPrivate)
    .constdata__ZTS32QGraphicsDropShadowEffectPrivate 0x0002f6dd   Section       35  qgl.o(.constdata__ZTS32QGraphicsDropShadowEffectPrivate)
    .constdata__ZTS9QGLShader                0x0002f700   Section       11  moc_qglshaderprogram.o(.constdata__ZTS9QGLShader)
    .constdata__ZTS9QGLWidget                0x0002f70b   Section       11  moc_qgl.o(.constdata__ZTS9QGLWidget)
    .constdata__ZTSN50_GLOBAL__N__26_qpaintengineex_opengl2_cpp_0babbb5225QOpenGLStaticTextUserDataE 0x0002f716   Section       82  qpaintengineex_opengl2.o(.constdata__ZTSN50_GLOBAL__N__26_qpaintengineex_opengl2_cpp_0babbb5225QOpenGLStaticTextUserDataE)
    .constdata__ZTV10QGLContext              0x0002f768   Section       36  qgl.o(.constdata__ZTV10QGLContext)
    .constdata__ZTV13QGLPixmapData           0x0002f78c   Section      108  qpixmapdata_gl.o(.constdata__ZTV13QGLPixmapData)
    .constdata__ZTV14QGLPaintDevice          0x0002f7f8   Section       56  qglpaintdevice.o(.constdata__ZTV14QGLPaintDevice)
    .constdata__ZTV14QGLPixelBuffer          0x0002f830   Section       28  qglpixelbuffer.o(.constdata__ZTV14QGLPixelBuffer)
    .constdata__ZTV14QGLSignalProxy          0x0002f84c   Section       56  moc_qgl_p.o(.constdata__ZTV14QGLSignalProxy)
    .constdata__ZTV16QGLShaderPrivate        0x0002f884   Section       16  qglshaderprogram.o(.constdata__ZTV16QGLShaderPrivate)
    .constdata__ZTV16QGLShaderProgram        0x0002f894   Section       60  moc_qglshaderprogram.o(.constdata__ZTV16QGLShaderProgram)
    .constdata__ZTV16QGLWidgetPrivate        0x0002f8d0   Section       20  qgl.o(.constdata__ZTV16QGLWidgetPrivate)
    .constdata__ZTV16QGLWindowSurface        0x0002f8e4   Section      136  moc_qwindowsurface_gl_p.o(.constdata__ZTV16QGLWindowSurface)
    .constdata__ZTV17QGL2PaintEngineEx       0x0002f96c   Section      212  qpaintengineex_opengl2.o(.constdata__ZTV17QGL2PaintEngineEx)
    .constdata__ZTV17QGLGraphicsSystem       0x0002fa40   Section       28  qgraphicssystem_gl.o(.constdata__ZTV17QGLGraphicsSystem)
    .constdata__ZTV18QTextureGlyphCache      0x0002fa5c   Section       44  qtextureglyphcache_gl.o(.constdata__ZTV18QTextureGlyphCache)
    .constdata__ZTV19QGLBlurTextureCache     0x0002fa88   Section       56  qglpixmapfilter.o(.constdata__ZTV19QGLBlurTextureCache)
    .constdata__ZTV19QGLFBOGLPaintDevice     0x0002fac0   Section       56  qglframebufferobject.o(.constdata__ZTV19QGLFBOGLPaintDevice)
    .constdata__ZTV19QGLPixmapBlurFilter     0x0002faf8   Section      108  qglpixmapfilter.o(.constdata__ZTV19QGLPixmapBlurFilter)
    .constdata__ZTV19QGLPixmapFilterBase     0x0002fb64   Section       20  qglpixmapfilter.o(.constdata__ZTV19QGLPixmapFilterBase)
    .constdata__ZTV19QGLTextureDestroyer     0x0002fb78   Section       56  moc_qgl_p.o(.constdata__ZTV19QGLTextureDestroyer)
    .constdata__ZTV19QPaintEnginePrivate     0x0002fbb0   Section       20  qgl.o(.constdata__ZTV19QPaintEnginePrivate)
    .constdata__ZTV20QGLCustomShaderStage    0x0002fbc4   Section       20  qglcustomshaderstage.o(.constdata__ZTV20QGLCustomShaderStage)
    .constdata__ZTV20QGLFramebufferObject    0x0002fbd8   Section       28  qglframebufferobject.o(.constdata__ZTV20QGLFramebufferObject)
    .constdata__ZTV20QGLTextureGlyphCache    0x0002fbf4   Section      124  moc_qtextureglyphcache_gl_p.o(.constdata__ZTV20QGLTextureGlyphCache)
    .constdata__ZTV21QFontEngineGlyphCache   0x0002fc70   Section       16  qtextureglyphcache_gl.o(.constdata__ZTV21QFontEngineGlyphCache)
    .constdata__ZTV21QGraphicsShaderEffect   0x0002fc80   Section       72  moc_qgraphicsshadereffect_p.o(.constdata__ZTV21QGraphicsShaderEffect)
    .constdata__ZTV22QGLEngineShaderManager  0x0002fcc8   Section       56  moc_qglengineshadermanager_p.o(.constdata__ZTV22QGLEngineShaderManager)
    .constdata__ZTV22QGLEngineSharedShaders  0x0002fd00   Section       56  moc_qglengineshadermanager_p.o(.constdata__ZTV22QGLEngineSharedShaders)
    .constdata__ZTV22QGLPixmapGLPaintDevice  0x0002fd38   Section       56  qpixmapdata_gl.o(.constdata__ZTV22QGLPixmapGLPaintDevice)
    .constdata__ZTV22QGLWidgetGLPaintDevice  0x0002fd70   Section       56  qglpaintdevice.o(.constdata__ZTV22QGLWidgetGLPaintDevice)
    .constdata__ZTV23QGLPBufferGLPaintDevice 0x0002fda8   Section       56  qglpixelbuffer.o(.constdata__ZTV23QGLPBufferGLPaintDevice)
    .constdata__ZTV23QGLPixmapColorizeFilter 0x0002fde0   Section      108  qglpixmapfilter.o(.constdata__ZTV23QGLPixmapColorizeFilter)
    .constdata__ZTV23QGLShaderProgramPrivate 0x0002fe4c   Section       16  qglshaderprogram.o(.constdata__ZTV23QGLShaderProgramPrivate)
    .constdata__ZTV24QGL2PaintEngineExPrivate 0x0002fe5c   Section       20  qpaintengineex_opengl2.o(.constdata__ZTV24QGL2PaintEngineExPrivate)
    .constdata__ZTV24QOpenGL2PaintEngineState 0x0002fe70   Section       16  qpaintengineex_opengl2.o(.constdata__ZTV24QOpenGL2PaintEngineState)
    .constdata__ZTV25QGLPixmapDropShadowFilter 0x0002fe80   Section      108  qglpixmapfilter.o(.constdata__ZTV25QGLPixmapDropShadowFilter)
    .constdata__ZTV26QGLCustomShaderEffectStage 0x0002feec   Section       20  qgraphicsshadereffect.o(.constdata__ZTV26QGLCustomShaderEffectStage)
    .constdata__ZTV26QGLPixmapConvolutionFilter 0x0002ff00   Section      108  qglpixmapfilter.o(.constdata__ZTV26QGLPixmapConvolutionFilter)
    .constdata__ZTV26QGraphicsBlurEffectPrivate 0x0002ff6c   Section       16  qgl.o(.constdata__ZTV26QGraphicsBlurEffectPrivate)
    .constdata__ZTV28QGraphicsShaderEffectPrivate 0x0002ff7c   Section       16  qgraphicsshadereffect.o(.constdata__ZTV28QGraphicsShaderEffectPrivate)
    .constdata__ZTV29QGLWindowSurfaceGLPaintDevice 0x0002ff8c   Section       56  qwindowsurface_gl.o(.constdata__ZTV29QGLWindowSurfaceGLPaintDevice)
    .constdata__ZTV30QGraphicsColorizeEffectPrivate 0x0002ffc4   Section       16  qgl.o(.constdata__ZTV30QGraphicsColorizeEffectPrivate)
    .constdata__ZTV32QGraphicsDropShadowEffectPrivate 0x0002ffd4   Section       16  qgl.o(.constdata__ZTV32QGraphicsDropShadowEffectPrivate)
    .constdata__ZTV9QGLShader                0x0002ffe4   Section       56  moc_qglshaderprogram.o(.constdata__ZTV9QGLShader)
    .constdata__ZTV9QGLWidget                0x0003001c   Section      288  moc_qgl.o(.constdata__ZTV9QGLWidget)
    .constdata__ZTVN50_GLOBAL__N__26_qpaintengineex_opengl2_cpp_0babbb5225QOpenGLStaticTextUserDataE 0x0003013c   Section       16  qpaintengineex_opengl2.o(.constdata__ZTVN50_GLOBAL__N__26_qpaintengineex_opengl2_cpp_0babbb5225QOpenGLStaticTextUserDataE)
    .constdata___ARM__ZN11QStrokerOps6lineToEff_anon0 0x0003014c   Section       12  qtriangulatingstroker.o(.constdata___ARM__ZN11QStrokerOps6lineToEff_anon0)
    .conststring$3                           0x00030158   Data           0  qglpixmapfilter.o(.conststring)
    .conststring                             0x00030158   Section      587  qglpixmapfilter.o(.conststring)
    .conststring$3                           0x000303a3   Data           0  qglengineshadermanager.o(.conststring)
    .conststring                             0x000303a3   Section    12037  qglengineshadermanager.o(.conststring)
    __ARM_d__ZN13QTriangulatorIjE15ComplexToSimple17fillPriorityQueueEv$58 0x0003329c   Data           0  qtriangulator.o(__ARM_d__ZN13QTriangulatorIjE15ComplexToSimple17fillPriorityQueueEv)
    __ARM_d__ZN13QTriangulatorIjE15ComplexToSimple17fillPriorityQueueEv 0x0003329c   Section       16  qtriangulator.o(__ARM_d__ZN13QTriangulatorIjE15ComplexToSimple17fillPriorityQueueEv)
    __ARM_d__ZN13QTriangulatorIjE15ComplexToSimple9initEdgesEv$55 0x000332ac   Data           0  qtriangulator.o(__ARM_d__ZN13QTriangulatorIjE15ComplexToSimple9initEdgesEv)
    __ARM_d__ZN13QTriangulatorIjE15ComplexToSimple9initEdgesEv 0x000332ac   Section       28  qtriangulator.o(__ARM_d__ZN13QTriangulatorIjE15ComplexToSimple9initEdgesEv)
    __ARM_d__ZN13QTriangulatorItE15ComplexToSimple17fillPriorityQueueEv$64 0x000332c8   Data           0  qtriangulator.o(__ARM_d__ZN13QTriangulatorItE15ComplexToSimple17fillPriorityQueueEv)
    __ARM_d__ZN13QTriangulatorItE15ComplexToSimple17fillPriorityQueueEv 0x000332c8   Section       16  qtriangulator.o(__ARM_d__ZN13QTriangulatorItE15ComplexToSimple17fillPriorityQueueEv)
    __ARM_d__ZN13QTriangulatorItE15ComplexToSimple9initEdgesEv$61 0x000332d8   Data           0  qtriangulator.o(__ARM_d__ZN13QTriangulatorItE15ComplexToSimple9initEdgesEv)
    __ARM_d__ZN13QTriangulatorItE15ComplexToSimple9initEdgesEv 0x000332d8   Section       28  qtriangulator.o(__ARM_d__ZN13QTriangulatorItE15ComplexToSimple9initEdgesEv)
    .init_array                              0x000332f4   Section        4  qgl.o(.init_array)
    .init_array                              0x000332f8   Section        4  qglpixmapfilter.o(.init_array)
    .init_array                              0x000332fc   Section        4  qwindowsurface_gl.o(.init_array)
    .init_array                              0x00033300   Section        4  qglengineshadermanager.o(.init_array)
    .ARM.exidx                               0x00033304   Section        8  ucppinit.o(.ARM.exidx)
    .data$0                                  0x00400000   Data           0  qgl.o(.data)
    cachedDefault@_ZN9QGLFormat18openGLVersionFlagsEv_1 0x00400000   Data           1  qgl.o(.data)
    .data                                    0x00400000   Section      148  qgl.o(.data)
    _ZGVcleanup@_Z18qgl_default_formatv_0    0x00400008   Data           4  qgl.o(.data)
    cleanup@_Z18qgl_default_formatv_1        0x0040000c   Data           4  qgl.o(.data)
    _ZGVcleanup@_Z28defaultOverlayFormatInstancev_0 0x00400010   Data           4  qgl.o(.data)
    cleanup@_Z28defaultOverlayFormatInstancev_1 0x00400014   Data           4  qgl.o(.data)
    _ZGVcleanup@_Z14theSignalProxyv_0        0x00400018   Data           4  qgl.o(.data)
    cleanup@_Z14theSignalProxyv_1            0x0040001c   Data           4  qgl.o(.data)
    _ZGVcleanup@_Z19qgl_engine_selectorv_0   0x00400020   Data           4  qgl.o(.data)
    cleanup@_Z19qgl_engine_selectorv_1       0x00400024   Data           4  qgl.o(.data)
    _ZGVcleanup@_Z17qt_context_groupsv_0     0x00400028   Data           4  qgl.o(.data)
    cleanup@_Z17qt_context_groupsv_1         0x0040002c   Data           4  qgl.o(.data)
    _ZGVcleanup@_Z19qt_gl_texture_cachev_0   0x00400030   Data           4  qgl.o(.data)
    cleanup@_Z19qt_gl_texture_cachev_1       0x00400034   Data           4  qgl.o(.data)
    _ZGVcleanup@_Z14qt_gl_2_enginev_0        0x00400038   Data           4  qgl.o(.data)
    cleanup@_Z14qt_gl_2_enginev_1            0x0040003c   Data           4  qgl.o(.data)
    _ZGVcleanup@_Z19qtDefaultExtensionsv_0   0x00400040   Data           4  qgl.o(.data)
    cleanup@_Z19qtDefaultExtensionsv_1       0x00400044   Data           4  qgl.o(.data)
    _ZGVdefaultVersionFlags@_ZN9QGLFormat18openGLVersionFlagsEv_0 0x00400048   Data           4  qgl.o(.data)
    defaultVersionFlags@_ZN9QGLFormat18openGLVersionFlagsEv_2 0x0040004c   Data           4  qgl.o(.data)
    qgl_context_storage                      0x00400050   Data           4  qgl.o(.data)
    this_qgl_default_format                  0x00400054   Data           8  qgl.o(.data)
    this_defaultOverlayFormatInstance        0x0040005c   Data           8  qgl.o(.data)
    this_theSignalProxy                      0x00400064   Data           8  qgl.o(.data)
    this_qgl_engine_selector                 0x0040006c   Data           8  qgl.o(.data)
    this_qt_context_groups                   0x00400074   Data           8  qgl.o(.data)
    this_qt_gl_texture_cache                 0x0040007c   Data           8  qgl.o(.data)
    this_qt_gl_2_engine                      0x00400084   Data           8  qgl.o(.data)
    this_qtDefaultExtensions                 0x0040008c   Data           8  qgl.o(.data)
    .data$0                                  0x00400094   Data           0  qglcolormap.o(.data)
    .data                                    0x00400094   Section       12  qglcolormap.o(.data)
    .data$0                                  0x004000a0   Data           0  qglpixelbuffer.o(.data)
    _ZGVcleanup@_Z18qt_buffer_2_enginev_0    0x004000a0   Data           4  qglpixelbuffer.o(.data)
    .data                                    0x004000a0   Section       16  qglpixelbuffer.o(.data)
    cleanup@_Z18qt_buffer_2_enginev_1        0x004000a4   Data           4  qglpixelbuffer.o(.data)
    this_qt_buffer_2_engine                  0x004000a8   Data           8  qglpixelbuffer.o(.data)
    .data$0                                  0x004000b0   Data           0  qglframebufferobject.o(.data)
    _ZGVcleanup@_Z18qt_buffer_2_enginev_0    0x004000b0   Data           4  qglframebufferobject.o(.data)
    .data                                    0x004000b0   Section       16  qglframebufferobject.o(.data)
    cleanup@_Z18qt_buffer_2_enginev_1        0x004000b4   Data           4  qglframebufferobject.o(.data)
    this_qt_buffer_2_engine                  0x004000b8   Data           8  qglframebufferobject.o(.data)
    .data$0                                  0x004000c0   Data           0  qglextensions.o(.data)
    have_resolved@_Z39qt_resolve_framebufferobject_extensionsP10QGLContext_0 0x004000c0   Data           1  qglextensions.o(.data)
    .data                                    0x004000c0   Section        1  qglextensions.o(.data)
    .data$0                                  0x004000c4   Data           0  qglpixmapfilter.o(.data)
    hookAdded@_ZN19QGLBlurTextureCache21insertBlurTextureInfoERK7QPixmapP18QGLBlurTextureInfo_0 0x004000c4   Data           1  qglpixmapfilter.o(.data)
    .data                                    0x004000c4   Section       32  qglpixmapfilter.o(.data)
    qt_gl_colorize_filter                    0x004000c8   Data           4  qglpixmapfilter.o(.data)
    qt_gl_drop_shadow_filter                 0x004000cc   Data           4  qglpixmapfilter.o(.data)
    _ZGVcleanup@_Z22qt_blur_texture_cachesv_0 0x004000d0   Data           4  qglpixmapfilter.o(.data)
    cleanup@_Z22qt_blur_texture_cachesv_1    0x004000d4   Data           4  qglpixmapfilter.o(.data)
    this_qt_blur_texture_caches              0x004000dc   Data           8  qglpixmapfilter.o(.data)
    .data$0                                  0x004000e4   Data           0  qwindowsurface_gl.o(.data)
    .data                                    0x004000e4   Section       28  qwindowsurface_gl.o(.data)
    checkedForNOKSwapRegion@_ZN16QGLWindowSurface12hijackWindowEP7QWidget_0 0x004000e5   Data           1  qwindowsurface_gl.o(.data)
    haveNOKSwapRegion@_ZN16QGLWindowSurface12hijackWindowEP7QWidget_1 0x004000e6   Data           1  qwindowsurface_gl.o(.data)
    _ZGVcleanup@_Z19_qt_gl_share_widgetv_0   0x004000ec   Data           4  qwindowsurface_gl.o(.data)
    cleanup@_Z19_qt_gl_share_widgetv_1       0x004000f0   Data           4  qwindowsurface_gl.o(.data)
    this__qt_gl_share_widget                 0x004000f8   Data           8  qwindowsurface_gl.o(.data)
    .data$0                                  0x00400100   Data           0  qpixmapdata_gl.o(.data)
    qt_gl_pixmap_serial                      0x00400100   Data           4  qpixmapdata_gl.o(.data)
    .data                                    0x00400100   Section       20  qpixmapdata_gl.o(.data)
    _ZGVcleanup@_Z13_qgl_fbo_poolv_0         0x00400104   Data           4  qpixmapdata_gl.o(.data)
    cleanup@_Z13_qgl_fbo_poolv_1             0x00400108   Data           4  qpixmapdata_gl.o(.data)
    this__qgl_fbo_pool                       0x0040010c   Data           8  qpixmapdata_gl.o(.data)
    .data$0                                  0x00400114   Data           0  qglgradientcache.o(.data)
    _ZGVcleanup@_Z18qt_gradient_cachesv_0    0x00400114   Data           4  qglgradientcache.o(.data)
    .data                                    0x00400114   Section       16  qglgradientcache.o(.data)
    cleanup@_Z18qt_gradient_cachesv_1        0x00400118   Data           4  qglgradientcache.o(.data)
    this_qt_gradient_caches                  0x0040011c   Data           8  qglgradientcache.o(.data)
    .data$0                                  0x00400124   Data           0  qglengineshadermanager.o(.data)
    snippetsPopulated@_ZN22QGLEngineSharedShadersC1EPK10QGLContext_0 0x00400124   Data           1  qglengineshadermanager.o(.data)
    .data                                    0x00400124   Section      104  qglengineshadermanager.o(.data)
    _ZGVcleanup@_Z17qt_shared_shadersv_0     0x00400128   Data           4  qglengineshadermanager.o(.data)
    cleanup@_Z17qt_shared_shadersv_1         0x0040012c   Data           4  qglengineshadermanager.o(.data)
    qglslAffinePositionWithPatternBrushVertexShader 0x00400130   Data           4  qglengineshadermanager.o(.data)
    qglslAffinePositionWithLinearGradientBrushVertexShader 0x00400134   Data           4  qglengineshadermanager.o(.data)
    qglslAffinePositionWithConicalGradientBrushVertexShader 0x00400138   Data           4  qglengineshadermanager.o(.data)
    qglslAffinePositionWithRadialGradientBrushVertexShader 0x0040013c   Data           4  qglengineshadermanager.o(.data)
    qglslAffinePositionWithTextureBrushVertexShader 0x00400140   Data           4  qglengineshadermanager.o(.data)
    this_qt_shared_shaders                   0x00400144   Data           8  qglengineshadermanager.o(.data)
    uniformNames@_ZN22QGLEngineShaderManager18getUniformLocationENS_7UniformE_0 0x0040014c   Data          64  qglengineshadermanager.o(.data)
    .data$0                                  0x0040018c   Data           0  ucppfini.o(.data)
    .data                                    0x0040018c   Section        4  ucppfini.o(.data)
    .data__ZNSt19_Atomic_swap_structILi1EE12_S_swap_lockE 0x00400190   Section       12  qgl.o(.data__ZNSt19_Atomic_swap_structILi1EE12_S_swap_lockE)
    .bss$5                                   0x0040019c   Data           0  qgl.o(.bss)
    .bss                                     0x0040019c   Section       60  qgl.o(.bss)
    .bss$5                                   0x004001d8   Data           0  qglengineshadermanager.o(.bss)
    .bss                                     0x004001d8   Section      216  qglengineshadermanager.o(.bss)
    .bss$5                                   0x004002b0   Data           0  ucppfini.o(.bss)
    .bss                                     0x004002b0   Section     2048  ucppfini.o(.bss)

    Global Symbols

    Symbol Name                              Value     Ov Type        Size  Object(Section)

    BuildAttributes$$THUMB_ISAv2$ARM_ISAv5$M$VFPv2$PE$A:L22$X:L11$S22$IEEE1$IW$USESV6$~STKCKD$USESV7$~SHL$OSPACE$ROPI$IEEEJ$EBA8$UX$FPIC$INDIRECT$REQ8$PRES8$EABIv2 0x00000000   Number         0  anon$$obj.o ABSOLUTE
    QtCore{00040703}[2001b2dc].dll           0x00000000   Data           0  anon$$obj.o ABSOLUTE
    QtGui{00040703}[2001b2dd].dll            0x00000000   Data           0  anon$$obj.o ABSOLUTE
    QtOpenGL{00040703}[2002131a].dll         0x00000000   Data           0  anon$$obj.o ABSOLUTE
    cone{000a0000}[10003a41].dll             0x00000000   Data           0  anon$$obj.o ABSOLUTE
    dfpaeabi{000a0000}.dll                   0x00000000   Data           0  anon$$obj.o ABSOLUTE
    drtaeabi{000a0000}.dll                   0x00000000   Data           0  anon$$obj.o ABSOLUTE
    drtrvct2_2{000a0000}.dll                 0x00000000   Data           0  anon$$obj.o ABSOLUTE
    euser{000a0000}[100039e5].dll            0x00000000   Data           0  anon$$obj.o ABSOLUTE
    libEGL{000a0000}.dll                     0x00000000   Data           0  anon$$obj.o ABSOLUTE
    libGLESv2{000a0000}.dll                  0x00000000   Data           0  anon$$obj.o ABSOLUTE
    libc{00010001}[10207369].dll             0x00000000   Data           0  anon$$obj.o ABSOLUTE
    libm{00010001}[102750d2].dll             0x00000000   Data           0  anon$$obj.o ABSOLUTE
    stdnew{000a0000}[20022178].dll           0x00000000   Data           0  anon$$obj.o ABSOLUTE
    ws32{000a0000}[10003b21].dll             0x00000000   Data           0  anon$$obj.o ABSOLUTE
    qt_blurImage(QImage&, float, bool, int)   - Undefined Reference
    _Z12qt_blurImageR6QImagefbi@QtGui{00040703}[2001b2dd].dll  - Undefined Reference
    qt_halfScaled(const QImage&)              - Undefined Reference
    _Z13qt_halfScaledRK6QImage@QtGui{00040703}[2001b2dd].dll  - Undefined Reference
    qt_defaultDpiX()                          - Undefined Reference
    _Z14qt_defaultDpiXv@QtGui{00040703}[2001b2dd].dll  - Undefined Reference
    qt_defaultDpiY()                          - Undefined Reference
    _Z14qt_defaultDpiYv@QtGui{00040703}[2001b2dd].dll  - Undefined Reference
    qAddPostRoutine(void(*)())                - Undefined Reference
    _Z15qAddPostRoutinePFvvE@QtCore{00040703}[2001b2dc].dll  - Undefined Reference
    qt_qwidget_data(QWidget*)                 - Undefined Reference
    _Z15qt_qwidget_dataP7QWidget@QtGui{00040703}[2001b2dd].dll  - Undefined Reference
    qt_imageForBrush(int, bool)               - Undefined Reference
    _Z16qt_imageForBrushib@QtGui{00040703}[2001b2dd].dll  - Undefined Reference
    qHasPixmapTexture(const QBrush&)          - Undefined Reference
    _Z17qHasPixmapTextureRK6QBrush@QtGui{00040703}[2001b2dd].dll  - Undefined Reference
    qt_memrotate90_gl(const unsigned*, int, int, int, unsigned*, int)  - Undefined Reference
    _Z17qt_memrotate90_glPKjiiiPji@QtGui{00040703}[2001b2dd].dll  - Undefined Reference
    qt_message_output(QtMsgType, const char*)  - Undefined Reference
    _Z17qt_message_output9QtMsgTypePKc@QtCore{00040703}[2001b2dc].dll  - Undefined Reference
    qt_widget_private(QWidget*)               - Undefined Reference
    _Z17qt_widget_privateP7QWidget@QtGui{00040703}[2001b2dd].dll  - Undefined Reference
    qtVectorPathForPath(const QPainterPath&)  - Undefined Reference
    _Z19qtVectorPathForPathRK12QPainterPath@QtGui{00040703}[2001b2dd].dll  - Undefined Reference
    qt_scaleForTransform(const QTransform&, float*)  - Undefined Reference
    _Z20qt_scaleForTransformRK10QTransformPf@QtGui{00040703}[2001b2dd].dll  - Undefined Reference
    qt_paint_device_metric(const QPaintDevice*, QPaintDevice::PaintDeviceMetric)  - Undefined Reference
    _Z22qt_paint_device_metricPK12QPaintDeviceNS_17PaintDeviceMetricE@QtGui{00040703}[2001b2dd].dll  - Undefined Reference
    QBasicAtomicPointer_testAndSetOrdered(void*volatile *, void*, void*)  - Undefined Reference
    _Z37QBasicAtomicPointer_testAndSetOrderedPVPvS_S_@QtCore{00040703}[2001b2dc].dll  - Undefined Reference
    qFree(void*)                              - Undefined Reference
    _Z5qFreePv@QtCore{00040703}[2001b2dc].dll  - Undefined Reference
    qHash(const QString&)                     - Undefined Reference
    _Z5qHashRK7QString@QtCore{00040703}[2001b2dc].dll  - Undefined Reference
    qrand()                                   - Undefined Reference
    _Z5qrandv@QtCore{00040703}[2001b2dc].dll  - Undefined Reference
    qDebug(const char*, ...)                  - Undefined Reference
    _Z6qDebugPKcz@QtCore{00040703}[2001b2dc].dll  - Undefined Reference
    qFatal(const char*, ...)                  - Undefined Reference
    _Z6qFatalPKcz@QtCore{00040703}[2001b2dc].dll  - Undefined Reference
    qMalloc(unsigned)                         - Undefined Reference
    _Z7qMallocj@QtCore{00040703}[2001b2dc].dll  - Undefined Reference
    qMemSet(void*, int, unsigned)             - Undefined Reference
    _Z7qMemSetPvij@QtCore{00040703}[2001b2dc].dll  - Undefined Reference
    qgetenv(const char*)                      - Undefined Reference
    _Z7qgetenvPKc@QtCore{00040703}[2001b2dc].dll  - Undefined Reference
    qMemCopy(void*, const void*, unsigned)    - Undefined Reference
    _Z8qMemCopyPvPKvj@QtCore{00040703}[2001b2dc].dll  - Undefined Reference
    qRealloc(void*, unsigned)                 - Undefined Reference
    _Z8qReallocPvj@QtCore{00040703}[2001b2dc].dll  - Undefined Reference
    qWarning(const char*, ...)                - Undefined Reference
    _Z8qWarningPKcz@QtCore{00040703}[2001b2dc].dll  - Undefined Reference
    qstricmp(const char*, const char*)        - Undefined Reference
    _Z8qstricmpPKcS0_@QtCore{00040703}[2001b2dc].dll  - Undefined Reference
    qBadAlloc()                               - Undefined Reference
    _Z9qBadAllocv@QtCore{00040703}[2001b2dc].dll  - Undefined Reference
    qCritical(const char*, ...)               - Undefined Reference
    _Z9qCriticalPKcz@QtCore{00040703}[2001b2dc].dll  - Undefined Reference
    QByteArray::shared_null                   - Undefined Reference
    _ZN10QByteArray11shared_nullE@QtCore{00040703}[2001b2dc].dll  - Undefined Reference
    QByteArray::clear()                       - Undefined Reference
    _ZN10QByteArray5clearEv@QtCore{00040703}[2001b2dc].dll  - Undefined Reference
    QByteArray::append(const char*)           - Undefined Reference
    _ZN10QByteArray6appendEPKc@QtCore{00040703}[2001b2dc].dll  - Undefined Reference
    QByteArray::append(const QByteArray&)     - Undefined Reference
    _ZN10QByteArray6appendERKS_@QtCore{00040703}[2001b2dc].dll  - Undefined Reference
    QByteArray::number(int, int)              - Undefined Reference
    _ZN10QByteArray6numberEii@QtCore{00040703}[2001b2dc].dll  - Undefined Reference
    QByteArray::realloc(int)                  - Undefined Reference
    _ZN10QByteArray7reallocEi@QtCore{00040703}[2001b2dc].dll  - Undefined Reference
    QByteArray::QByteArray(const char*)       - Undefined Reference
    _ZN10QByteArrayC1EPKc@QtCore{00040703}[2001b2dc].dll  - Undefined Reference
    QByteArray::operator =(const QByteArray&)  - Undefined Reference
    _ZN10QByteArrayaSERKS_@QtCore{00040703}[2001b2dc].dll  - Undefined Reference
    QTransform::fromTranslate(float, float)   - Undefined Reference
    _ZN10QTransform13fromTranslateEff@QtGui{00040703}[2001b2dd].dll  - Undefined Reference
    QTransform::scale(float, float)           - Undefined Reference
    _ZN10QTransform5scaleEff@QtGui{00040703}[2001b2dd].dll  - Undefined Reference
    QTransform::translate(float, float)       - Undefined Reference
    _ZN10QTransform9translateEff@QtGui{00040703}[2001b2dd].dll  - Undefined Reference
    QTransform::QTransform(float, float, float, float, float, float)  - Undefined Reference
    _ZN10QTransformC1Effffff@QtGui{00040703}[2001b2dd].dll  - Undefined Reference
    QTransform::QTransform()                  - Undefined Reference
    _ZN10QTransformC1Ev@QtGui{00040703}[2001b2dd].dll  - Undefined Reference
    QTransform::operator =(const QTransform&)  - Undefined Reference
    _ZN10QTransformaSERKS_@QtGui{00040703}[2001b2dd].dll  - Undefined Reference
    QEglContext::doneCurrent()                - Undefined Reference
    _ZN11QEglContext11doneCurrentEv@QtGui{00040703}[2001b2dd].dll  - Undefined Reference
    QEglContext::makeCurrent(int)             - Undefined Reference
    _ZN11QEglContext11makeCurrentEi@QtGui{00040703}[2001b2dd].dll  - Undefined Reference
    QEglContext::swapBuffers(int)             - Undefined Reference
    _ZN11QEglContext11swapBuffersEi@QtGui{00040703}[2001b2dd].dll  - Undefined Reference
    QEglContext::chooseConfig(const QEglProperties&, QEgl::PixelFormatMatch)  - Undefined Reference
    _ZN11QEglContext12chooseConfigERK14QEglPropertiesN4QEgl16PixelFormatMatchE@QtGui{00040703}[2001b2dd].dll  - Undefined Reference
    QEglContext::createContext(QEglContext*, const QEglProperties*)  - Undefined Reference
    _ZN11QEglContext13createContextEPS_PK14QEglProperties@QtGui{00040703}[2001b2dd].dll  - Undefined Reference
    QEglContext::swapBuffersRegion2NOK(int, const QRegion*)  - Undefined Reference
    _ZN11QEglContext21swapBuffersRegion2NOKEiPK7QRegion@QtGui{00040703}[2001b2dd].dll  - Undefined Reference
    QEglContext::QEglContext()                - Undefined Reference
    _ZN11QEglContextC1Ev@QtGui{00040703}[2001b2dd].dll  - Undefined Reference
    QEglContext::~QEglContext()               - Undefined Reference
    _ZN11QEglContextD1Ev@QtGui{00040703}[2001b2dd].dll  - Undefined Reference
    QFontEngine::setGlyphCache(void*, QFontEngineGlyphCache*)  - Undefined Reference
    _ZN11QFontEngine13setGlyphCacheEPvP21QFontEngineGlyphCache@QtGui{00040703}[2001b2dd].dll  - Undefined Reference
    QFontEngine::getGlyphPositions(const QGlyphLayout&, const QTransform&, QFlags<QTextItem::RenderFlag>, QVarLengthArray<unsigned, (int)256>&, QVarLengthArray<QFixedPoint, (int)256>&)  - Undefined Reference
    _ZN11QFontEngine17getGlyphPositionsERK12QGlyphLayoutRK10QTransform6QFlagsIN9QTextItem10RenderFlagEER15QVarLengthArrayIjLi256EERSA_I11QFixedPointLi256EE@QtGui{00040703}[2001b2dd].dll  - Undefined Reference
    QMetaObject::changeGuard(QObject**, QObject*)  - Undefined Reference
    _ZN11QMetaObject11changeGuardEPP7QObjectS1_@QtCore{00040703}[2001b2dc].dll  - Undefined Reference
    QMetaObject::removeGuard(QObject**)       - Undefined Reference
    _ZN11QMetaObject11removeGuardEPP7QObject@QtCore{00040703}[2001b2dc].dll  - Undefined Reference
    QMetaObject::activate(QObject*, const QMetaObject*, int, void**)  - Undefined Reference
    _ZN11QMetaObject8activateEP7QObjectPKS_iPPv@QtCore{00040703}[2001b2dc].dll  - Undefined Reference
    QMetaObject::addGuard(QObject**)          - Undefined Reference
    _ZN11QMetaObject8addGuardEPP7QObject@QtCore{00040703}[2001b2dc].dll  - Undefined Reference
    QPixmapData::toNativeType(QPixmapData::NativeType)  - Undefined Reference
    _ZN11QPixmapData12toNativeTypeENS_10NativeTypeE@QtGui{00040703}[2001b2dd].dll  - Undefined Reference
    QPixmapData::fromNativeType(void*, QPixmapData::NativeType)  - Undefined Reference
    _ZN11QPixmapData14fromNativeTypeEPvNS_10NativeTypeE@QtGui{00040703}[2001b2dd].dll  - Undefined Reference
    QPixmapData::fromImageReader(QImageReader*, QFlags<Qt::ImageConversionFlag>)  - Undefined Reference
    _ZN11QPixmapData15fromImageReaderEP12QImageReader6QFlagsIN2Qt19ImageConversionFlagEE@QtGui{00040703}[2001b2dd].dll  - Undefined Reference
    QPixmapData::setAlphaChannel(const QPixmap&)  - Undefined Reference
    _ZN11QPixmapData15setAlphaChannelERK7QPixmap@QtGui{00040703}[2001b2dd].dll  - Undefined Reference
    QPixmapData::setSerialNumber(int)         - Undefined Reference
    _ZN11QPixmapData15setSerialNumberEi@QtGui{00040703}[2001b2dd].dll  - Undefined Reference
    QPixmapData::copy(const QPixmapData*, const QRect&)  - Undefined Reference
    _ZN11QPixmapData4copyEPKS_RK5QRect@QtGui{00040703}[2001b2dd].dll  - Undefined Reference
    QPixmapData::buffer()                     - Undefined Reference
    _ZN11QPixmapData6bufferEv@QtGui{00040703}[2001b2dd].dll  - Undefined Reference
    QPixmapData::setMask(const QBitmap&)      - Undefined Reference
    _ZN11QPixmapData7setMaskERK7QBitmap@QtGui{00040703}[2001b2dd].dll  - Undefined Reference
    QPixmapData::fromData(const unsigned char*, unsigned, const char*, QFlags<Qt::ImageConversionFlag>)  - Undefined Reference
    _ZN11QPixmapData8fromDataEPKhjPKc6QFlagsIN2Qt19ImageConversionFlagEE@QtGui{00040703}[2001b2dd].dll  - Undefined Reference
    QPixmapData::fromFile(const QString&, const char*, QFlags<Qt::ImageConversionFlag>)  - Undefined Reference
    _ZN11QPixmapData8fromFileERK7QStringPKc6QFlagsIN2Qt19ImageConversionFlagEE@QtGui{00040703}[2001b2dd].dll  - Undefined Reference
    QPixmapData::QPixmapData__sub_object(QPixmapData::PixelType, int)  - Undefined Reference
    _ZN11QPixmapDataC2ENS_9PixelTypeEi@QtGui{00040703}[2001b2dd].dll  - Undefined Reference
    QPixmapData::~QPixmapData__sub_object()   - Undefined Reference
    _ZN11QPixmapDataD2Ev@QtGui{00040703}[2001b2dd].dll  - Undefined Reference
    QStrokerOps::end()                        - Undefined Reference
    _ZN11QStrokerOps3endEv@QtGui{00040703}[2001b2dd].dll  - Undefined Reference
    QStrokerOps::begin(void*)                 - Undefined Reference
    _ZN11QStrokerOps5beginEPv@QtGui{00040703}[2001b2dd].dll  - Undefined Reference
    QStrokerOps::~QStrokerOps__sub_object()   - Undefined Reference
    _ZN11QStrokerOpsD2Ev@QtGui{00040703}[2001b2dd].dll  - Undefined Reference
    QTextStream::QTextStream(QString*, QFlags<QIODevice::OpenModeFlag>)  - Undefined Reference
    _ZN11QTextStreamC1EP7QString6QFlagsIN9QIODevice12OpenModeFlagEE@QtCore{00040703}[2001b2dc].dll  - Undefined Reference
    QTextStream::~QTextStream()               - Undefined Reference
    _ZN11QTextStreamD1Ev@QtCore{00040703}[2001b2dc].dll  - Undefined Reference
    QTextStream::operator <<(const QByteArray&)  - Undefined Reference
    _ZN11QTextStreamlsERK10QByteArray@QtCore{00040703}[2001b2dc].dll  - Undefined Reference
    QTextStream::operator <<(const QString&)  - Undefined Reference
    _ZN11QTextStreamlsERK7QString@QtCore{00040703}[2001b2dc].dll  - Undefined Reference
    QTextStream::operator <<(char)            - Undefined Reference
    _ZN11QTextStreamlsEc@QtCore{00040703}[2001b2dc].dll  - Undefined Reference
    QTextStream::operator <<(int)             - Undefined Reference
    _ZN11QTextStreamlsEi@QtCore{00040703}[2001b2dc].dll  - Undefined Reference
    QTextStream::operator <<(unsigned)        - Undefined Reference
    _ZN11QTextStreamlsEj@QtCore{00040703}[2001b2dc].dll  - Undefined Reference
    QVectorData::reallocate(QVectorData*, int, int, int)  - Undefined Reference
    _ZN11QVectorData10reallocateEPS_iii@QtCore{00040703}[2001b2dc].dll  - Undefined Reference
    QVectorData::shared_null                  - Undefined Reference
    _ZN11QVectorData11shared_nullE@QtCore{00040703}[2001b2dc].dll  - Undefined Reference
    QVectorData::free(QVectorData*, int)      - Undefined Reference
    _ZN11QVectorData4freeEPS_i@QtCore{00040703}[2001b2dc].dll  - Undefined Reference
    QVectorData::grow(int, int, int, bool)    - Undefined Reference
    _ZN11QVectorData4growEiiib@QtCore{00040703}[2001b2dc].dll  - Undefined Reference
    QVectorData::allocate(int, int)           - Undefined Reference
    _ZN11QVectorData8allocateEii@QtCore{00040703}[2001b2dc].dll  - Undefined Reference
    QVectorPath::~QVectorPath()               - Undefined Reference
    _ZN11QVectorPathD1Ev@QtGui{00040703}[2001b2dd].dll  - Undefined Reference
    QApplication::desktop()                   - Undefined Reference
    _ZN12QApplication7desktopEv@QtGui{00040703}[2001b2dd].dll  - Undefined Reference
    QDashStroker::QDashStroker(QStroker*)     - Undefined Reference
    _ZN12QDashStrokerC1EP8QStroker@QtGui{00040703}[2001b2dd].dll  - Undefined Reference
    QImageReader::read()                      - Undefined Reference
    _ZN12QImageReader4readEv@QtGui{00040703}[2001b2dd].dll  - Undefined Reference
    QImageReader::QImageReader(QIODevice*, const QByteArray&)  - Undefined Reference
    _ZN12QImageReaderC1EP9QIODeviceRK10QByteArray@QtGui{00040703}[2001b2dd].dll  - Undefined Reference
    QImageReader::~QImageReader()             - Undefined Reference
    _ZN12QImageReaderD1Ev@QtGui{00040703}[2001b2dd].dll  - Undefined Reference
    QPaintDevice::QPaintDevice__sub_object()  - Undefined Reference
    _ZN12QPaintDeviceC2Ev@QtGui{00040703}[2001b2dd].dll  - Undefined Reference
    QPaintDevice::~QPaintDevice__sub_object()  - Undefined Reference
    _ZN12QPaintDeviceD2Ev@QtGui{00040703}[2001b2dd].dll  - Undefined Reference
    QPaintEngine::drawTextItem(const QPointF&, const QTextItem&)  - Undefined Reference
    _ZN12QPaintEngine12drawTextItemERK7QPointFRK9QTextItem@QtGui{00040703}[2001b2dd].dll  - Undefined Reference
    QPaintEngine::~QPaintEngine__sub_object()  - Undefined Reference
    _ZN12QPaintEngineD2Ev@QtGui{00040703}[2001b2dd].dll  - Undefined Reference
    QPainterPath::addRect(const QRectF&)      - Undefined Reference
    _ZN12QPainterPath7addRectERK6QRectF@QtGui{00040703}[2001b2dd].dll  - Undefined Reference
    QPainterPath::addRegion(const QRegion&)   - Undefined Reference
    _ZN12QPainterPath9addRegionERK7QRegion@QtGui{00040703}[2001b2dd].dll  - Undefined Reference
    QPainterPath::QPainterPath(const QPainterPath&)  - Undefined Reference
    _ZN12QPainterPathC1ERKS_@QtGui{00040703}[2001b2dd].dll  - Undefined Reference
    QPainterPath::QPainterPath()              - Undefined Reference
    _ZN12QPainterPathC1Ev@QtGui{00040703}[2001b2dd].dll  - Undefined Reference
    QPainterPath::~QPainterPath()             - Undefined Reference
    _ZN12QPainterPathD1Ev@QtGui{00040703}[2001b2dd].dll  - Undefined Reference
    QPainterState::QPainterState()            - Undefined Reference
    _ZN13QPainterStateC1Ev@QtGui{00040703}[2001b2dd].dll  - Undefined Reference
    QPainterState::~QPainterState()           - Undefined Reference
    _ZN13QPainterStateD1Ev@QtGui{00040703}[2001b2dd].dll  - Undefined Reference
    QPixmapFilter::~QPixmapFilter__sub_object()  - Undefined Reference
    _ZN13QPixmapFilterD2Ev@QtGui{00040703}[2001b2dd].dll  - Undefined Reference
    QEglProperties::removeValue(int)          - Undefined Reference
    _ZN14QEglProperties11removeValueEi@QtGui{00040703}[2001b2dd].dll  - Undefined Reference
    QEglProperties::setDeviceType(int)        - Undefined Reference
    _ZN14QEglProperties13setDeviceTypeEi@QtGui{00040703}[2001b2dd].dll  - Undefined Reference
    QEglProperties::setRenderableType(QEgl::API)  - Undefined Reference
    _ZN14QEglProperties17setRenderableTypeEN4QEgl3APIE@QtGui{00040703}[2001b2dd].dll  - Undefined Reference
    QEglProperties::reduceConfiguration()     - Undefined Reference
    _ZN14QEglProperties19reduceConfigurationEv@QtGui{00040703}[2001b2dd].dll  - Undefined Reference
    QEglProperties::setPaintDeviceFormat(QPaintDevice*)  - Undefined Reference
    _ZN14QEglProperties20setPaintDeviceFormatEP12QPaintDevice@QtGui{00040703}[2001b2dd].dll  - Undefined Reference
    QEglProperties::setValue(int, int)        - Undefined Reference
    _ZN14QEglProperties8setValueEii@QtGui{00040703}[2001b2dd].dll  - Undefined Reference
    QEglProperties::QEglProperties()          - Undefined Reference
    _ZN14QEglPropertiesC1Ev@QtGui{00040703}[2001b2dd].dll  - Undefined Reference
    QObjectPrivate::QObjectPrivate(int)       - Undefined Reference
    _ZN14QObjectPrivateC1Ei@QtCore{00040703}[2001b2dc].dll  - Undefined Reference
    QObjectPrivate::~QObjectPrivate()         - Undefined Reference
    _ZN14QObjectPrivateD1Ev@QtCore{00040703}[2001b2dc].dll  - Undefined Reference
    QPaintEngineEx::drawPixmap(const QPointF&, const QPixmap&)  - Undefined Reference
    _ZN14QPaintEngineEx10drawPixmapERK7QPointFRK7QPixmap@QtGui{00040703}[2001b2dd].dll  - Undefined Reference
    QPaintEngineEx::drawPoints(const QPoint*, int)  - Undefined Reference
    _ZN14QPaintEngineEx10drawPointsEPK6QPointi@QtGui{00040703}[2001b2dd].dll  - Undefined Reference
    QPaintEngineEx::drawPoints(const QPointF*, int)  - Undefined Reference
    _ZN14QPaintEngineEx10drawPointsEPK7QPointFi@QtGui{00040703}[2001b2dd].dll  - Undefined Reference
    QPaintEngineEx::drawEllipse(const QRect&)  - Undefined Reference
    _ZN14QPaintEngineEx11drawEllipseERK5QRect@QtGui{00040703}[2001b2dd].dll  - Undefined Reference
    QPaintEngineEx::drawEllipse(const QRectF&)  - Undefined Reference
    _ZN14QPaintEngineEx11drawEllipseERK6QRectF@QtGui{00040703}[2001b2dd].dll  - Undefined Reference
    QPaintEngineEx::drawPolygon(const QPoint*, int, QPaintEngine::PolygonDrawMode)  - Undefined Reference
    _ZN14QPaintEngineEx11drawPolygonEPK6QPointiN12QPaintEngine15PolygonDrawModeE@QtGui{00040703}[2001b2dd].dll  - Undefined Reference
    QPaintEngineEx::drawPolygon(const QPointF*, int, QPaintEngine::PolygonDrawMode)  - Undefined Reference
    _ZN14QPaintEngineEx11drawPolygonEPK7QPointFiN12QPaintEngine15PolygonDrawModeE@QtGui{00040703}[2001b2dd].dll  - Undefined Reference
    QPaintEngineEx::updateState(const QPaintEngineState&)  - Undefined Reference
    _ZN14QPaintEngineEx11updateStateERK17QPaintEngineState@QtGui{00040703}[2001b2dd].dll  - Undefined Reference
    QPaintEngineEx::drawRoundedRect(const QRectF&, float, float, Qt::SizeMode)  - Undefined Reference
    _ZN14QPaintEngineEx15drawRoundedRectERK6QRectFffN2Qt8SizeModeE@QtGui{00040703}[2001b2dd].dll  - Undefined Reference
    QPaintEngineEx::drawTiledPixmap(const QRectF&, const QPixmap&, const QPointF&)  - Undefined Reference
    _ZN14QPaintEngineEx15drawTiledPixmapERK6QRectFRK7QPixmapRK7QPointF@QtGui{00040703}[2001b2dd].dll  - Undefined Reference
    QPaintEngineEx::drawPixmapFragments(const QPainter::PixmapFragment*, int, const QPixmap&, QFlags<QPainter::PixmapFragmentHint>)  - Undefined Reference
    _ZN14QPaintEngineEx19drawPixmapFragmentsEPKN8QPainter14PixmapFragmentEiRK7QPixmap6QFlagsINS0_18PixmapFragmentHintEE@QtGui{00040703}[2001b2dd].dll  - Undefined Reference
    QPaintEngineEx::clip(const QPainterPath&, Qt::ClipOperation)  - Undefined Reference
    _ZN14QPaintEngineEx4clipERK12QPainterPathN2Qt13ClipOperationE@QtGui{00040703}[2001b2dd].dll  - Undefined Reference
    QPaintEngineEx::clip(const QRect&, Qt::ClipOperation)  - Undefined Reference
    _ZN14QPaintEngineEx4clipERK5QRectN2Qt13ClipOperationE@QtGui{00040703}[2001b2dd].dll  - Undefined Reference
    QPaintEngineEx::clip(const QRegion&, Qt::ClipOperation)  - Undefined Reference
    _ZN14QPaintEngineEx4clipERK7QRegionN2Qt13ClipOperationE@QtGui{00040703}[2001b2dd].dll  - Undefined Reference
    QPaintEngineEx::draw(const QVectorPath&)  - Undefined Reference
    _ZN14QPaintEngineEx4drawERK11QVectorPath@QtGui{00040703}[2001b2dd].dll  - Undefined Reference
    QPaintEngineEx::stroke(const QVectorPath&, const QPen&)  - Undefined Reference
    _ZN14QPaintEngineEx6strokeERK11QVectorPathRK4QPen@QtGui{00040703}[2001b2dd].dll  - Undefined Reference
    QPaintEngineEx::drawPath(const QPainterPath&)  - Undefined Reference
    _ZN14QPaintEngineEx8drawPathERK12QPainterPath@QtGui{00040703}[2001b2dd].dll  - Undefined Reference
    QPaintEngineEx::fillRect(const QRectF&, const QBrush&)  - Undefined Reference
    _ZN14QPaintEngineEx8fillRectERK6QRectFRK6QBrush@QtGui{00040703}[2001b2dd].dll  - Undefined Reference
    QPaintEngineEx::fillRect(const QRectF&, const QColor&)  - Undefined Reference
    _ZN14QPaintEngineEx8fillRectERK6QRectFRK6QColor@QtGui{00040703}[2001b2dd].dll  - Undefined Reference
    QPaintEngineEx::setState(QPainterState*)  - Undefined Reference
    _ZN14QPaintEngineEx8setStateEP13QPainterState@QtGui{00040703}[2001b2dd].dll  - Undefined Reference
    QPaintEngineEx::drawImage(const QPointF&, const QImage&)  - Undefined Reference
    _ZN14QPaintEngineEx9drawImageERK7QPointFRK6QImage@QtGui{00040703}[2001b2dd].dll  - Undefined Reference
    QPaintEngineEx::drawLines(const QLine*, int)  - Undefined Reference
    _ZN14QPaintEngineEx9drawLinesEPK5QLinei@QtGui{00040703}[2001b2dd].dll  - Undefined Reference
    QPaintEngineEx::drawLines(const QLineF*, int)  - Undefined Reference
    _ZN14QPaintEngineEx9drawLinesEPK6QLineFi@QtGui{00040703}[2001b2dd].dll  - Undefined Reference
    QPaintEngineEx::drawRects(const QRect*, int)  - Undefined Reference
    _ZN14QPaintEngineEx9drawRectsEPK5QRecti@QtGui{00040703}[2001b2dd].dll  - Undefined Reference
    QPaintEngineEx::drawRects(const QRectF*, int)  - Undefined Reference
    _ZN14QPaintEngineEx9drawRectsEPK6QRectFi@QtGui{00040703}[2001b2dd].dll  - Undefined Reference
    QPaintEngineEx::QPaintEngineEx__sub_object(QPaintEngineExPrivate&)  - Undefined Reference
    _ZN14QPaintEngineExC2ER21QPaintEngineExPrivate@QtGui{00040703}[2001b2dd].dll  - Undefined Reference
    QReadWriteLock::lockForRead()             - Undefined Reference
    _ZN14QReadWriteLock11lockForReadEv@QtCore{00040703}[2001b2dc].dll  - Undefined Reference
    QReadWriteLock::lockForWrite()            - Undefined Reference
    _ZN14QReadWriteLock12lockForWriteEv@QtCore{00040703}[2001b2dc].dll  - Undefined Reference
    QReadWriteLock::unlock()                  - Undefined Reference
    _ZN14QReadWriteLock6unlockEv@QtCore{00040703}[2001b2dc].dll  - Undefined Reference
    QReadWriteLock::QReadWriteLock()          - Undefined Reference
    _ZN14QReadWriteLockC1Ev@QtCore{00040703}[2001b2dc].dll  - Undefined Reference
    QReadWriteLock::~QReadWriteLock()         - Undefined Reference
    _ZN14QReadWriteLockD1Ev@QtCore{00040703}[2001b2dc].dll  - Undefined Reference
    QWidgetPrivate::allWidgets                - Undefined Reference
    _ZN14QWidgetPrivate10allWidgetsE@QtGui{00040703}[2001b2dd].dll  - Undefined Reference
    QWidgetPrivate::createExtra()             - Undefined Reference
    _ZN14QWidgetPrivate11createExtraEv@QtGui{00040703}[2001b2dd].dll  - Undefined Reference
    QWidgetPrivate::QWidgetPrivate(int)       - Undefined Reference
    _ZN14QWidgetPrivateC1Ei@QtGui{00040703}[2001b2dd].dll  - Undefined Reference
    QWidgetPrivate::~QWidgetPrivate()         - Undefined Reference
    _ZN14QWidgetPrivateD1Ev@QtGui{00040703}[2001b2dd].dll  - Undefined Reference
    QWindowSurface::setGeometry(const QRect&)  - Undefined Reference
    _ZN14QWindowSurface11setGeometryERK5QRect@QtGui{00040703}[2001b2dd].dll  - Undefined Reference
    QWindowSurface::setPartialUpdateSupport(bool)  - Undefined Reference
    _ZN14QWindowSurface23setPartialUpdateSupportEb@QtGui{00040703}[2001b2dd].dll  - Undefined Reference
    QWindowSurface::QWindowSurface__sub_object(QWidget*)  - Undefined Reference
    _ZN14QWindowSurfaceC2EP7QWidget@QtGui{00040703}[2001b2dd].dll  - Undefined Reference
    QWindowSurface::~QWindowSurface__sub_object()  - Undefined Reference
    _ZN14QWindowSurfaceD2Ev@QtGui{00040703}[2001b2dd].dll  - Undefined Reference
    QGraphicsEffect::qt_metacall(QMetaObject::Call, int, void**)  - Undefined Reference
    _ZN15QGraphicsEffect11qt_metacallEN11QMetaObject4CallEiPPv@QtGui{00040703}[2001b2dd].dll  - Undefined Reference
    QGraphicsEffect::qt_metacast(const char*)  - Undefined Reference
    _ZN15QGraphicsEffect11qt_metacastEPKc@QtGui{00040703}[2001b2dd].dll  - Undefined Reference
    QGraphicsEffect::sourceChanged(QFlags<QGraphicsEffect::ChangeFlag>)  - Undefined Reference
    _ZN15QGraphicsEffect13sourceChangedE6QFlagsINS_10ChangeFlagEE@QtGui{00040703}[2001b2dd].dll  - Undefined Reference
    QGraphicsEffect::staticMetaObject         - Undefined Reference
    _ZN15QGraphicsEffect16staticMetaObjectE@QtGui{00040703}[2001b2dd].dll  - Undefined Reference
    QGraphicsEffect::QGraphicsEffect__sub_object(QGraphicsEffectPrivate&, QObject*)  - Undefined Reference
    _ZN15QGraphicsEffectC2ER22QGraphicsEffectPrivateP7QObject@QtGui{00040703}[2001b2dd].dll  - Undefined Reference
    QGraphicsEffect::~QGraphicsEffect__sub_object()  - Undefined Reference
    _ZN15QGraphicsEffectD2Ev@QtGui{00040703}[2001b2dd].dll  - Undefined Reference
    QGraphicsSystem::createPixmapData(QPixmapData*)  - Undefined Reference
    _ZN15QGraphicsSystem16createPixmapDataEP11QPixmapData@QtGui{00040703}[2001b2dd].dll  - Undefined Reference
    QGraphicsSystem::~QGraphicsSystem__sub_object()  - Undefined Reference
    _ZN15QGraphicsSystemD2Ev@QtGui{00040703}[2001b2dd].dll  - Undefined Reference
    QStaticTextItem::setFontEngine(QFontEngine*)  - Undefined Reference
    _ZN15QStaticTextItem13setFontEngineEP11QFontEngine@QtGui{00040703}[2001b2dd].dll  - Undefined Reference
    QStaticTextItem::~QStaticTextItem()       - Undefined Reference
    _ZN15QStaticTextItemD1Ev@QtGui{00040703}[2001b2dd].dll  - Undefined Reference
    QCoreApplication::self                    - Undefined Reference
    _ZN16QCoreApplication4selfE@QtCore{00040703}[2001b2dc].dll  - Undefined Reference
    QPixmapBlurFilter::qt_metacall(QMetaObject::Call, int, void**)  - Undefined Reference
    _ZN17QPixmapBlurFilter11qt_metacallEN11QMetaObject4CallEiPPv@QtGui{00040703}[2001b2dd].dll  - Undefined Reference
    QPixmapBlurFilter::qt_metacast(const char*)  - Undefined Reference
    _ZN17QPixmapBlurFilter11qt_metacastEPKc@QtGui{00040703}[2001b2dd].dll  - Undefined Reference
    QPixmapBlurFilter::QPixmapBlurFilter(QObject*)  - Undefined Reference
    _ZN17QPixmapBlurFilterC1EP7QObject@QtGui{00040703}[2001b2dd].dll  - Undefined Reference
    QPixmapBlurFilter::~QPixmapBlurFilter()   - Undefined Reference
    _ZN17QPixmapBlurFilterD1Ev@QtGui{00040703}[2001b2dd].dll  - Undefined Reference
    QTextureGlyphCache::populate(QFontEngine*, int, const unsigned*, const QFixedPoint*)  - Undefined Reference
    _ZN18QTextureGlyphCache8populateEP11QFontEngineiPKjPK11QFixedPoint@QtGui{00040703}[2001b2dd].dll  - Undefined Reference
    QThreadStorageData::set(void*)            - Undefined Reference
    _ZN18QThreadStorageData3setEPv@QtCore{00040703}[2001b2dc].dll  - Undefined Reference
    QThreadStorageData::QThreadStorageData(void(*)(void*))  - Undefined Reference
    _ZN18QThreadStorageDataC1EPFvPvE@QtCore{00040703}[2001b2dc].dll  - Undefined Reference
    QThreadStorageData::~QThreadStorageData()  - Undefined Reference
    _ZN18QThreadStorageDataD1Ev@QtCore{00040703}[2001b2dc].dll  - Undefined Reference
    QPaintEngineExPrivate::replayClipOperations()  - Undefined Reference
    _ZN21QPaintEngineExPrivate20replayClipOperationsEv@QtGui{00040703}[2001b2dd].dll  - Undefined Reference
    QPaintEngineExPrivate::QPaintEngineExPrivate()  - Undefined Reference
    _ZN21QPaintEngineExPrivateC1Ev@QtGui{00040703}[2001b2dd].dll  - Undefined Reference
    QPaintEngineExPrivate::~QPaintEngineExPrivate()  - Undefined Reference
    _ZN21QPaintEngineExPrivateD1Ev@QtGui{00040703}[2001b2dd].dll  - Undefined Reference
    QPixmapColorizeFilter::qt_metacall(QMetaObject::Call, int, void**)  - Undefined Reference
    _ZN21QPixmapColorizeFilter11qt_metacallEN11QMetaObject4CallEiPPv@QtGui{00040703}[2001b2dd].dll  - Undefined Reference
    QPixmapColorizeFilter::qt_metacast(const char*)  - Undefined Reference
    _ZN21QPixmapColorizeFilter11qt_metacastEPKc@QtGui{00040703}[2001b2dd].dll  - Undefined Reference
    QPixmapColorizeFilter::QPixmapColorizeFilter(QObject*)  - Undefined Reference
    _ZN21QPixmapColorizeFilterC1EP7QObject@QtGui{00040703}[2001b2dd].dll  - Undefined Reference
    QImageTextureGlyphCache::fillTexture(const QTextureGlyphCache::Coord&, unsigned)  - Undefined Reference
    _ZN23QImageTextureGlyphCache11fillTextureERKN18QTextureGlyphCache5CoordEj@QtGui{00040703}[2001b2dd].dll  - Undefined Reference
    QImageTextureGlyphCache::createTextureData(int, int)  - Undefined Reference
    _ZN23QImageTextureGlyphCache17createTextureDataEii@QtGui{00040703}[2001b2dd].dll  - Undefined Reference
    QImageTextureGlyphCache::resizeTextureData(int, int)  - Undefined Reference
    _ZN23QImageTextureGlyphCache17resizeTextureDataEii@QtGui{00040703}[2001b2dd].dll  - Undefined Reference
    QPixmapDropShadowFilter::qt_metacall(QMetaObject::Call, int, void**)  - Undefined Reference
    _ZN23QPixmapDropShadowFilter11qt_metacallEN11QMetaObject4CallEiPPv@QtGui{00040703}[2001b2dd].dll  - Undefined Reference
    QPixmapDropShadowFilter::qt_metacast(const char*)  - Undefined Reference
    _ZN23QPixmapDropShadowFilter11qt_metacastEPKc@QtGui{00040703}[2001b2dd].dll  - Undefined Reference
    QPixmapDropShadowFilter::QPixmapDropShadowFilter(QObject*)  - Undefined Reference
    _ZN23QPixmapDropShadowFilterC1EP7QObject@QtGui{00040703}[2001b2dd].dll  - Undefined Reference
    QPixmapDropShadowFilter::~QPixmapDropShadowFilter()  - Undefined Reference
    _ZN23QPixmapDropShadowFilterD1Ev@QtGui{00040703}[2001b2dd].dll  - Undefined Reference
    QImagePixmapCleanupHooks::addImageHook(void(*)(long long))  - Undefined Reference
    _ZN24QImagePixmapCleanupHooks12addImageHookEPFvxE@QtGui{00040703}[2001b2dd].dll  - Undefined Reference
    QImagePixmapCleanupHooks::removeImageHook(void(*)(long long))  - Undefined Reference
    _ZN24QImagePixmapCleanupHooks15removeImageHookEPFvxE@QtGui{00040703}[2001b2dd].dll  - Undefined Reference
    QImagePixmapCleanupHooks::enableCleanupHooks(const QImage&)  - Undefined Reference
    _ZN24QImagePixmapCleanupHooks18enableCleanupHooksERK6QImage@QtGui{00040703}[2001b2dd].dll  - Undefined Reference
    QImagePixmapCleanupHooks::enableCleanupHooks(const QPixmap&)  - Undefined Reference
    _ZN24QImagePixmapCleanupHooks18enableCleanupHooksERK7QPixmap@QtGui{00040703}[2001b2dd].dll  - Undefined Reference
    QImagePixmapCleanupHooks::addPixmapDataDestructionHook(void(*)(QPixmapData*))  - Undefined Reference
    _ZN24QImagePixmapCleanupHooks28addPixmapDataDestructionHookEPFvP11QPixmapDataE@QtGui{00040703}[2001b2dd].dll  - Undefined Reference
    QImagePixmapCleanupHooks::addPixmapDataModificationHook(void(*)(QPixmapData*))  - Undefined Reference
    _ZN24QImagePixmapCleanupHooks29addPixmapDataModificationHookEPFvP11QPixmapDataE@QtGui{00040703}[2001b2dd].dll  - Undefined Reference
    QImagePixmapCleanupHooks::removePixmapDataDestructionHook(void(*)(QPixmapData*))  - Undefined Reference
    _ZN24QImagePixmapCleanupHooks31removePixmapDataDestructionHookEPFvP11QPixmapDataE@QtGui{00040703}[2001b2dd].dll  - Undefined Reference
    QImagePixmapCleanupHooks::removePixmapDataModificationHook(void(*)(QPixmapData*))  - Undefined Reference
    _ZN24QImagePixmapCleanupHooks32removePixmapDataModificationHookEPFvP11QPixmapDataE@QtGui{00040703}[2001b2dd].dll  - Undefined Reference
    QImagePixmapCleanupHooks::instance()      - Undefined Reference
    _ZN24QImagePixmapCleanupHooks8instanceEv@QtGui{00040703}[2001b2dd].dll  - Undefined Reference
    QPixmapConvolutionFilter::qt_metacall(QMetaObject::Call, int, void**)  - Undefined Reference
    _ZN24QPixmapConvolutionFilter11qt_metacallEN11QMetaObject4CallEiPPv@QtGui{00040703}[2001b2dd].dll  - Undefined Reference
    QPixmapConvolutionFilter::qt_metacast(const char*)  - Undefined Reference
    _ZN24QPixmapConvolutionFilter11qt_metacastEPKc@QtGui{00040703}[2001b2dd].dll  - Undefined Reference
    QPixmapConvolutionFilter::QPixmapConvolutionFilter(QObject*)  - Undefined Reference
    _ZN24QPixmapConvolutionFilterC1EP7QObject@QtGui{00040703}[2001b2dd].dll  - Undefined Reference
    QPixmapConvolutionFilter::~QPixmapConvolutionFilter()  - Undefined Reference
    _ZN24QPixmapConvolutionFilterD1Ev@QtGui{00040703}[2001b2dd].dll  - Undefined Reference
    QEgl::errorString(int)                    - Undefined Reference
    _ZN4QEgl11errorStringEi@QtGui{00040703}[2001b2dd].dll  - Undefined Reference
    QEgl::hasExtension(const char*)           - Undefined Reference
    _ZN4QEgl12hasExtensionEPKc@QtGui{00040703}[2001b2dd].dll  - Undefined Reference
    QEgl::createSurface(QPaintDevice*, int, const QEglProperties*)  - Undefined Reference
    _ZN4QEgl13createSurfaceEP12QPaintDeviceiPK14QEglProperties@QtGui{00040703}[2001b2dd].dll  - Undefined Reference
    QEgl::display()                           - Undefined Reference
    _ZN4QEgl7displayEv@QtGui{00040703}[2001b2dd].dll  - Undefined Reference
    QPen::QPen(const QPen&)                   - Undefined Reference
    _ZN4QPenC1ERKS_@QtGui{00040703}[2001b2dd].dll  - Undefined Reference
    QPen::~QPen()                             - Undefined Reference
    _ZN4QPenD1Ev@QtGui{00040703}[2001b2dd].dll  - Undefined Reference
    User::LockedDec(int&)                     - Undefined Reference
    _ZN4User9LockedDecERi@euser{000a0000}[100039e5].dll  - Undefined Reference
    User::LockedInc(int&)                     - Undefined Reference
    _ZN4User9LockedIncERi@euser{000a0000}[100039e5].dll  - Undefined Reference
    QFile::open(QFlags<QIODevice::OpenModeFlag>)  - Undefined Reference
    _ZN5QFile4openE6QFlagsIN9QIODevice12OpenModeFlagEE@QtCore{00040703}[2001b2dc].dll  - Undefined Reference
    QFile::close()                            - Undefined Reference
    _ZN5QFile5closeEv@QtCore{00040703}[2001b2dc].dll  - Undefined Reference
    QFile::QFile(const QString&)              - Undefined Reference
    _ZN5QFileC1ERK7QString@QtCore{00040703}[2001b2dc].dll  - Undefined Reference
    QFile::~QFile()                           - Undefined Reference
    _ZN5QFileD1Ev@QtCore{00040703}[2001b2dc].dll  - Undefined Reference
    QFont::QFont(const QFont&)                - Undefined Reference
    _ZN5QFontC1ERKS_@QtGui{00040703}[2001b2dd].dll  - Undefined Reference
    QFont::QFont()                            - Undefined Reference
    _ZN5QFontC1Ev@QtGui{00040703}[2001b2dd].dll  - Undefined Reference
    QFont::~QFont()                           - Undefined Reference
    _ZN5QFontD1Ev@QtGui{00040703}[2001b2dd].dll  - Undefined Reference
    QBrush::QBrush(Qt::GlobalColor, Qt::BrushStyle)  - Undefined Reference
    _ZN6QBrushC1EN2Qt11GlobalColorENS0_10BrushStyleE@QtGui{00040703}[2001b2dd].dll  - Undefined Reference
    QBrush::QBrush(const QBrush&)             - Undefined Reference
    _ZN6QBrushC1ERKS_@QtGui{00040703}[2001b2dd].dll  - Undefined Reference
    QBrush::QBrush()                          - Undefined Reference
    _ZN6QBrushC1Ev@QtGui{00040703}[2001b2dd].dll  - Undefined Reference
    QBrush::~QBrush()                         - Undefined Reference
    _ZN6QBrushD1Ev@QtGui{00040703}[2001b2dd].dll  - Undefined Reference
    QBrush::operator =(const QBrush&)         - Undefined Reference
    _ZN6QBrushaSERKS_@QtGui{00040703}[2001b2dd].dll  - Undefined Reference
    QColor::invalidate()                      - Undefined Reference
    _ZN6QColor10invalidateEv@QtGui{00040703}[2001b2dd].dll  - Undefined Reference
    QColor::setRedF(float)                    - Undefined Reference
    _ZN6QColor7setRedFEf@QtGui{00040703}[2001b2dd].dll  - Undefined Reference
    QColor::setBlueF(float)                   - Undefined Reference
    _ZN6QColor8setBlueFEf@QtGui{00040703}[2001b2dd].dll  - Undefined Reference
    QColor::setAlphaF(float)                  - Undefined Reference
    _ZN6QColor9setAlphaFEf@QtGui{00040703}[2001b2dd].dll  - Undefined Reference
    QColor::setGreenF(float)                  - Undefined Reference
    _ZN6QColor9setGreenFEf@QtGui{00040703}[2001b2dd].dll  - Undefined Reference
    QColor::QColor(Qt::GlobalColor)           - Undefined Reference
    _ZN6QColorC1EN2Qt11GlobalColorE@QtGui{00040703}[2001b2dd].dll  - Undefined Reference
    QColor::QColor(unsigned)                  - Undefined Reference
    _ZN6QColorC1Ej@QtGui{00040703}[2001b2dd].dll  - Undefined Reference
    QColor::operator =(const QColor&)         - Undefined Reference
    _ZN6QColoraSERKS_@QtGui{00040703}[2001b2dd].dll  - Undefined Reference
    QImage::setColorCount(int)                - Undefined Reference
    _ZN6QImage13setColorCountEi@QtGui{00040703}[2001b2dd].dll  - Undefined Reference
    QImage::setColorTable(QVector<unsigned>)  - Undefined Reference
    _ZN6QImage13setColorTableE7QVectorIjE@QtGui{00040703}[2001b2dd].dll  - Undefined Reference
    QImage::bits()                            - Undefined Reference
    _ZN6QImage4bitsEv@QtGui{00040703}[2001b2dd].dll  - Undefined Reference
    QImage::fill(unsigned)                    - Undefined Reference
    _ZN6QImage4fillEj@QtGui{00040703}[2001b2dd].dll  - Undefined Reference
    QImage::scanLine(int)                     - Undefined Reference
    _ZN6QImage8scanLineEi@QtGui{00040703}[2001b2dd].dll  - Undefined Reference
    QImage::setColor(int, unsigned)           - Undefined Reference
    _ZN6QImage8setColorEij@QtGui{00040703}[2001b2dd].dll  - Undefined Reference
    QImage::QImage(const QSize&, QImage::Format)  - Undefined Reference
    _ZN6QImageC1ERK5QSizeNS_6FormatE@QtGui{00040703}[2001b2dd].dll  - Undefined Reference
    QImage::QImage(const QImage&)             - Undefined Reference
    _ZN6QImageC1ERKS_@QtGui{00040703}[2001b2dd].dll  - Undefined Reference
    QImage::QImage(int, int, QImage::Format)  - Undefined Reference
    _ZN6QImageC1EiiNS_6FormatE@QtGui{00040703}[2001b2dd].dll  - Undefined Reference
    QImage::QImage()                          - Undefined Reference
    _ZN6QImageC1Ev@QtGui{00040703}[2001b2dd].dll  - Undefined Reference
    QImage::~QImage()                         - Undefined Reference
    _ZN6QImageD1Ev@QtGui{00040703}[2001b2dd].dll  - Undefined Reference
    QImage::operator =(const QImage&)         - Undefined Reference
    _ZN6QImageaSERKS_@QtGui{00040703}[2001b2dd].dll  - Undefined Reference
    QMutex::lock()                            - Undefined Reference
    _ZN6QMutex4lockEv@QtCore{00040703}[2001b2dc].dll  - Undefined Reference
    QMutex::unlock()                          - Undefined Reference
    _ZN6QMutex6unlockEv@QtCore{00040703}[2001b2dc].dll  - Undefined Reference
    QMutex::QMutex(QMutex::RecursionMode)     - Undefined Reference
    _ZN6QMutexC1ENS_13RecursionModeE@QtCore{00040703}[2001b2dc].dll  - Undefined Reference
    QMutex::~QMutex()                         - Undefined Reference
    _ZN6QMutexD1Ev@QtCore{00040703}[2001b2dc].dll  - Undefined Reference
    CCoeEnv::Static()                         - Undefined Reference
    _ZN7CCoeEnv6StaticEv@cone{000a0000}[10003a41].dll  - Undefined Reference
    QBezier::fromPoints(const QPointF&, const QPointF&, const QPointF&, const QPointF&)  - Undefined Reference
    _ZN7QBezier10fromPointsERK7QPointFS2_S2_S2_@QtGui{00040703}[2001b2dd].dll  - Undefined Reference
    QMatrix::QMatrix(const QMatrix&)          - Undefined Reference
    _ZN7QMatrixC1ERKS_@QtGui{00040703}[2001b2dd].dll  - Undefined Reference
    QObject::childEvent(QChildEvent*)         - Undefined Reference
    _ZN7QObject10childEventEP11QChildEvent@QtCore{00040703}[2001b2dc].dll  - Undefined Reference
    QObject::disconnect(const QObject*, const char*, const QObject*, const char*)  - Undefined Reference
    _ZN7QObject10disconnectEPKS_PKcS1_S3_@QtCore{00040703}[2001b2dc].dll  - Undefined Reference
    QObject::startTimer(int)                  - Undefined Reference
    _ZN7QObject10startTimerEi@QtCore{00040703}[2001b2dc].dll  - Undefined Reference
    QObject::timerEvent(QTimerEvent*)         - Undefined Reference
    _ZN7QObject10timerEventEP11QTimerEvent@QtCore{00040703}[2001b2dc].dll  - Undefined Reference
    QObject::customEvent(QEvent*)             - Undefined Reference
    _ZN7QObject11customEventEP6QEvent@QtCore{00040703}[2001b2dc].dll  - Undefined Reference
    QObject::eventFilter(QObject*, QEvent*)   - Undefined Reference
    _ZN7QObject11eventFilterEPS_P6QEvent@QtCore{00040703}[2001b2dc].dll  - Undefined Reference
    QObject::qt_metacall(QMetaObject::Call, int, void**)  - Undefined Reference
    _ZN7QObject11qt_metacallEN11QMetaObject4CallEiPPv@QtCore{00040703}[2001b2dc].dll  - Undefined Reference
    QObject::qt_metacast(const char*)         - Undefined Reference
    _ZN7QObject11qt_metacastEPKc@QtCore{00040703}[2001b2dc].dll  - Undefined Reference
    QObject::moveToThread(QThread*)           - Undefined Reference
    _ZN7QObject12moveToThreadEP7QThread@QtCore{00040703}[2001b2dc].dll  - Undefined Reference
    QObject::connectNotify(const char*)       - Undefined Reference
    _ZN7QObject13connectNotifyEPKc@QtCore{00040703}[2001b2dc].dll  - Undefined Reference
    QObject::disconnectNotify(const char*)    - Undefined Reference
    _ZN7QObject16disconnectNotifyEPKc@QtCore{00040703}[2001b2dc].dll  - Undefined Reference
    QObject::staticMetaObject                 - Undefined Reference
    _ZN7QObject16staticMetaObjectE@QtCore{00040703}[2001b2dc].dll  - Undefined Reference
    QObject::event(QEvent*)                   - Undefined Reference
    _ZN7QObject5eventEP6QEvent@QtCore{00040703}[2001b2dc].dll  - Undefined Reference
    QObject::connect(const QObject*, const char*, const QObject*, const char*, Qt::ConnectionType)  - Undefined Reference
    _ZN7QObject7connectEPKS_PKcS1_S3_N2Qt14ConnectionTypeE@QtCore{00040703}[2001b2dc].dll  - Undefined Reference
    QObject::killTimer(int)                   - Undefined Reference
    _ZN7QObject9killTimerEi@QtCore{00040703}[2001b2dc].dll  - Undefined Reference
    QObject::QObject(QObject*)                - Undefined Reference
    _ZN7QObjectC1EPS_@QtCore{00040703}[2001b2dc].dll  - Undefined Reference
    QObject::QObject(QObjectPrivate&, QObject*)  - Undefined Reference
    _ZN7QObjectC1ER14QObjectPrivatePS_@QtCore{00040703}[2001b2dc].dll  - Undefined Reference
    QObject::~QObject()                       - Undefined Reference
    _ZN7QObjectD1Ev@QtCore{00040703}[2001b2dc].dll  - Undefined Reference
    QPixmap::QPixmap(const QSize&)            - Undefined Reference
    _ZN7QPixmapC1ERK5QSize@QtGui{00040703}[2001b2dd].dll  - Undefined Reference
    QPixmap::QPixmap(const QPixmap&)          - Undefined Reference
    _ZN7QPixmapC1ERKS_@QtGui{00040703}[2001b2dd].dll  - Undefined Reference
    QPixmap::QPixmap()                        - Undefined Reference
    _ZN7QPixmapC1Ev@QtGui{00040703}[2001b2dd].dll  - Undefined Reference
    QPixmap::~QPixmap()                       - Undefined Reference
    _ZN7QPixmapD1Ev@QtGui{00040703}[2001b2dd].dll  - Undefined Reference
    QPixmap::operator =(const QPixmap&)       - Undefined Reference
    _ZN7QPixmapaSERKS_@QtGui{00040703}[2001b2dd].dll  - Undefined Reference
    QRegion::QRegion(const QRect&, QRegion::RegionType)  - Undefined Reference
    _ZN7QRegionC1ERK5QRectNS_10RegionTypeE@QtGui{00040703}[2001b2dd].dll  - Undefined Reference
    QRegion::QRegion(const QRegion&)          - Undefined Reference
    _ZN7QRegionC1ERKS_@QtGui{00040703}[2001b2dd].dll  - Undefined Reference
    QRegion::QRegion()                        - Undefined Reference
    _ZN7QRegionC1Ev@QtGui{00040703}[2001b2dd].dll  - Undefined Reference
    QRegion::~QRegion()                       - Undefined Reference
    _ZN7QRegionD1Ev@QtGui{00040703}[2001b2dd].dll  - Undefined Reference
    QRegion::operator =(const QRegion&)       - Undefined Reference
    _ZN7QRegionaSERKS_@QtGui{00040703}[2001b2dd].dll  - Undefined Reference
    QRegion::operator -=(const QRegion&)      - Undefined Reference
    _ZN7QRegionmIERKS_@QtGui{00040703}[2001b2dd].dll  - Undefined Reference
    QRegion::operator |=(const QRegion&)      - Undefined Reference
    _ZN7QRegionoRERKS_@QtGui{00040703}[2001b2dd].dll  - Undefined Reference
    QString::fromLatin1(const char*, int)     - Undefined Reference
    _ZN7QString10fromLatin1EPKci@QtCore{00040703}[2001b2dc].dll  - Undefined Reference
    QString::shared_null                      - Undefined Reference
    _ZN7QString11shared_nullE@QtCore{00040703}[2001b2dc].dll  - Undefined Reference
    QString::fromLatin1_helper(const char*, int)  - Undefined Reference
    _ZN7QString17fromLatin1_helperEPKci@QtCore{00040703}[2001b2dc].dll  - Undefined Reference
    QString::free(QString::Data*)             - Undefined Reference
    _ZN7QString4freeEPNS_4DataE@QtCore{00040703}[2001b2dc].dll  - Undefined Reference
    QString::realloc()                        - Undefined Reference
    _ZN7QString7reallocEv@QtCore{00040703}[2001b2dc].dll  - Undefined Reference
    QString::fromAscii(const char*, int)      - Undefined Reference
    _ZN7QString9fromAsciiEPKci@QtCore{00040703}[2001b2dc].dll  - Undefined Reference
    QString::QString(int, Qt::Initialization)  - Undefined Reference
    _ZN7QStringC1EiN2Qt14InitializationE@QtCore{00040703}[2001b2dc].dll  - Undefined Reference
    QString::operator =(const QString&)       - Undefined Reference
    _ZN7QStringaSERKS_@QtCore{00040703}[2001b2dc].dll  - Undefined Reference
    QThread::currentThread()                  - Undefined Reference
    _ZN7QThread13currentThreadEv@QtCore{00040703}[2001b2dc].dll  - Undefined Reference
    QWidget::closeEvent(QCloseEvent*)         - Undefined Reference
    _ZN7QWidget10closeEventEP11QCloseEvent@QtGui{00040703}[2001b2dd].dll  - Undefined Reference
    QWidget::enterEvent(QEvent*)              - Undefined Reference
    _ZN7QWidget10enterEventEP6QEvent@QtGui{00040703}[2001b2dd].dll  - Undefined Reference
    QWidget::fontChange(const QFont&)         - Undefined Reference
    _ZN7QWidget10fontChangeERK5QFont@QtGui{00040703}[2001b2dd].dll  - Undefined Reference
    QWidget::leaveEvent(QEvent*)              - Undefined Reference
    _ZN7QWidget10leaveEventEP6QEvent@QtGui{00040703}[2001b2dd].dll  - Undefined Reference
    QWidget::setVisible(bool)                 - Undefined Reference
    _ZN7QWidget10setVisibleEb@QtGui{00040703}[2001b2dd].dll  - Undefined Reference
    QWidget::wheelEvent(QWheelEvent*)         - Undefined Reference
    _ZN7QWidget10wheelEventEP11QWheelEvent@QtGui{00040703}[2001b2dd].dll  - Undefined Reference
    QWidget::actionEvent(QActionEvent*)       - Undefined Reference
    _ZN7QWidget11actionEventEP12QActionEvent@QtGui{00040703}[2001b2dd].dll  - Undefined Reference
    QWidget::changeEvent(QEvent*)             - Undefined Reference
    _ZN7QWidget11changeEventEP6QEvent@QtGui{00040703}[2001b2dd].dll  - Undefined Reference
    QWidget::qt_metacall(QMetaObject::Call, int, void**)  - Undefined Reference
    _ZN7QWidget11qt_metacallEN11QMetaObject4CallEiPPv@QtGui{00040703}[2001b2dd].dll  - Undefined Reference
    QWidget::qt_metacast(const char*)         - Undefined Reference
    _ZN7QWidget11qt_metacastEPKc@QtGui{00040703}[2001b2dd].dll  - Undefined Reference
    QWidget::styleChange(QStyle&)             - Undefined Reference
    _ZN7QWidget11styleChangeER6QStyle@QtGui{00040703}[2001b2dd].dll  - Undefined Reference
    QWidget::tabletEvent(QTabletEvent*)       - Undefined Reference
    _ZN7QWidget11tabletEventEP12QTabletEvent@QtGui{00040703}[2001b2dd].dll  - Undefined Reference
    QWidget::focusInEvent(QFocusEvent*)       - Undefined Reference
    _ZN7QWidget12focusInEventEP11QFocusEvent@QtGui{00040703}[2001b2dd].dll  - Undefined Reference
    QWidget::setAttribute(Qt::WidgetAttribute, bool)  - Undefined Reference
    _ZN7QWidget12setAttributeEN2Qt15WidgetAttributeEb@QtGui{00040703}[2001b2dd].dll  - Undefined Reference
    QWidget::dragMoveEvent(QDragMoveEvent*)   - Undefined Reference
    _ZN7QWidget13dragMoveEventEP14QDragMoveEvent@QtGui{00040703}[2001b2dd].dll  - Undefined Reference
    QWidget::enabledChange(bool)              - Undefined Reference
    _ZN7QWidget13enabledChangeEb@QtGui{00040703}[2001b2dd].dll  - Undefined Reference
    QWidget::focusOutEvent(QFocusEvent*)      - Undefined Reference
    _ZN7QWidget13focusOutEventEP11QFocusEvent@QtGui{00040703}[2001b2dd].dll  - Undefined Reference
    QWidget::keyPressEvent(QKeyEvent*)        - Undefined Reference
    _ZN7QWidget13keyPressEventEP9QKeyEvent@QtGui{00040703}[2001b2dd].dll  - Undefined Reference
    QWidget::paletteChange(const QPalette&)   - Undefined Reference
    _ZN7QWidget13paletteChangeERK8QPalette@QtGui{00040703}[2001b2dd].dll  - Undefined Reference
    QWidget::dragEnterEvent(QDragEnterEvent*)  - Undefined Reference
    _ZN7QWidget14dragEnterEventEP15QDragEnterEvent@QtGui{00040703}[2001b2dd].dll  - Undefined Reference
    QWidget::dragLeaveEvent(QDragLeaveEvent*)  - Undefined Reference
    _ZN7QWidget14dragLeaveEventEP15QDragLeaveEvent@QtGui{00040703}[2001b2dd].dll  - Undefined Reference
    QWidget::languageChange()                 - Undefined Reference
    _ZN7QWidget14languageChangeEv@QtGui{00040703}[2001b2dd].dll  - Undefined Reference
    QWidget::mouseMoveEvent(QMouseEvent*)     - Undefined Reference
    _ZN7QWidget14mouseMoveEventEP11QMouseEvent@QtGui{00040703}[2001b2dd].dll  - Undefined Reference
    QWidget::keyReleaseEvent(QKeyEvent*)      - Undefined Reference
    _ZN7QWidget15keyReleaseEventEP9QKeyEvent@QtGui{00040703}[2001b2dd].dll  - Undefined Reference
    QWidget::mousePressEvent(QMouseEvent*)    - Undefined Reference
    _ZN7QWidget15mousePressEventEP11QMouseEvent@QtGui{00040703}[2001b2dd].dll  - Undefined Reference
    QWidget::contextMenuEvent(QContextMenuEvent*)  - Undefined Reference
    _ZN7QWidget16contextMenuEventEP17QContextMenuEvent@QtGui{00040703}[2001b2dd].dll  - Undefined Reference
    QWidget::inputMethodEvent(QInputMethodEvent*)  - Undefined Reference
    _ZN7QWidget16inputMethodEventEP17QInputMethodEvent@QtGui{00040703}[2001b2dd].dll  - Undefined Reference
    QWidget::staticMetaObject                 - Undefined Reference
    _ZN7QWidget16staticMetaObjectE@QtGui{00040703}[2001b2dd].dll  - Undefined Reference
    QWidget::mouseReleaseEvent(QMouseEvent*)  - Undefined Reference
    _ZN7QWidget17mouseReleaseEventEP11QMouseEvent@QtGui{00040703}[2001b2dd].dll  - Undefined Reference
    QWidget::focusNextPrevChild(bool)         - Undefined Reference
    _ZN7QWidget18focusNextPrevChildEb@QtGui{00040703}[2001b2dd].dll  - Undefined Reference
    QWidget::mouseDoubleClickEvent(QMouseEvent*)  - Undefined Reference
    _ZN7QWidget21mouseDoubleClickEventEP11QMouseEvent@QtGui{00040703}[2001b2dd].dll  - Undefined Reference
    QWidget::setAutoFillBackground(bool)      - Undefined Reference
    _ZN7QWidget21setAutoFillBackgroundEb@QtGui{00040703}[2001b2dd].dll  - Undefined Reference
    QWidget::windowActivationChange(bool)     - Undefined Reference
    _ZN7QWidget22windowActivationChangeEb@QtGui{00040703}[2001b2dd].dll  - Undefined Reference
    QWidget::event(QEvent*)                   - Undefined Reference
    _ZN7QWidget5eventEP6QEvent@QtGui{00040703}[2001b2dd].dll  - Undefined Reference
    QWidget::resize(const QSize&)             - Undefined Reference
    _ZN7QWidget6resizeERK5QSize@QtGui{00040703}[2001b2dd].dll  - Undefined Reference
    QWidget::dropEvent(QDropEvent*)           - Undefined Reference
    _ZN7QWidget9dropEventEP10QDropEvent@QtGui{00040703}[2001b2dd].dll  - Undefined Reference
    QWidget::hideEvent(QHideEvent*)           - Undefined Reference
    _ZN7QWidget9hideEventEP10QHideEvent@QtGui{00040703}[2001b2dd].dll  - Undefined Reference
    QWidget::moveEvent(QMoveEvent*)           - Undefined Reference
    _ZN7QWidget9moveEventEP10QMoveEvent@QtGui{00040703}[2001b2dd].dll  - Undefined Reference
    QWidget::showEvent(QShowEvent*)           - Undefined Reference
    _ZN7QWidget9showEventEP10QShowEvent@QtGui{00040703}[2001b2dd].dll  - Undefined Reference
    QWidget::QWidget(QWidgetPrivate&, QWidget*, QFlags<Qt::WindowType>)  - Undefined Reference
    _ZN7QWidgetC1ER14QWidgetPrivatePS_6QFlagsIN2Qt10WindowTypeEE@QtGui{00040703}[2001b2dd].dll  - Undefined Reference
    QWidget::~QWidget()                       - Undefined Reference
    _ZN7QWidgetD1Ev@QtGui{00040703}[2001b2dd].dll  - Undefined Reference
    RWindow::Construct(const RWindowTreeNode&, unsigned long)  - Undefined Reference
    _ZN7RWindow9ConstructERK15RWindowTreeNodem@ws32{000a0000}[10003b21].dll  - Undefined Reference
    RWindow::RWindow(RWsSession&)             - Undefined Reference
    _ZN7RWindowC1ER10RWsSession@ws32{000a0000}[10003b21].dll  - Undefined Reference
    QPainter::drawPixmap(const QRectF&, const QPixmap&, const QRectF&)  - Undefined Reference
    _ZN8QPainter10drawPixmapERK6QRectFRK7QPixmapS2_@QtGui{00040703}[2001b2dd].dll  - Undefined Reference
    QPainter::drawPixmap(const QPointF&, const QPixmap&)  - Undefined Reference
    _ZN8QPainter10drawPixmapERK7QPointFRK7QPixmap@QtGui{00040703}[2001b2dd].dll  - Undefined Reference
    QPainter::setRenderHint(QPainter::RenderHint, bool)  - Undefined Reference
    _ZN8QPainter13setRenderHintENS_10RenderHintEb@QtGui{00040703}[2001b2dd].dll  - Undefined Reference
    QPainter::setWorldTransform(const QTransform&, bool)  - Undefined Reference
    _ZN8QPainter17setWorldTransformERK10QTransformb@QtGui{00040703}[2001b2dd].dll  - Undefined Reference
    QPainter::setCompositionMode(QPainter::CompositionMode)  - Undefined Reference
    _ZN8QPainter18setCompositionModeENS_15CompositionModeE@QtGui{00040703}[2001b2dd].dll  - Undefined Reference
    QPainter::end()                           - Undefined Reference
    _ZN8QPainter3endEv@QtGui{00040703}[2001b2dd].dll  - Undefined Reference
    QPainter::drawImage(const QRectF&, const QImage&, const QRectF&, QFlags<Qt::ImageConversionFlag>)  - Undefined Reference
    _ZN8QPainter9drawImageERK6QRectFRK6QImageS2_6QFlagsIN2Qt19ImageConversionFlagEE@QtGui{00040703}[2001b2dd].dll  - Undefined Reference
    QPainter::drawImage(const QPointF&, const QImage&)  - Undefined Reference
    _ZN8QPainter9drawImageERK7QPointFRK6QImage@QtGui{00040703}[2001b2dd].dll  - Undefined Reference
    QPainter::QPainter(QPaintDevice*)         - Undefined Reference
    _ZN8QPainterC1EP12QPaintDevice@QtGui{00040703}[2001b2dd].dll  - Undefined Reference
    QPainter::~QPainter()                     - Undefined Reference
    _ZN8QPainterD1Ev@QtGui{00040703}[2001b2dd].dll  - Undefined Reference
    QBitArray::QBitArray(int, bool)           - Undefined Reference
    _ZN9QBitArrayC1Eib@QtCore{00040703}[2001b2dc].dll  - Undefined Reference
    QHashData::free_helper(void(*)(QHashData::Node*))  - Undefined Reference
    _ZN9QHashData11free_helperEPFvPNS_4NodeEE@QtCore{00040703}[2001b2dc].dll  - Undefined Reference
    QHashData::shared_null                    - Undefined Reference
    _ZN9QHashData11shared_nullE@QtCore{00040703}[2001b2dc].dll  - Undefined Reference
    QHashData::allocateNode(int)              - Undefined Reference
    _ZN9QHashData12allocateNodeEi@QtCore{00040703}[2001b2dc].dll  - Undefined Reference
    QHashData::detach_helper2(void(*)(QHashData::Node*, void*), void(*)(QHashData::Node*), int, int)  - Undefined Reference
    _ZN9QHashData14detach_helper2EPFvPNS_4NodeEPvEPFvS1_Eii@QtCore{00040703}[2001b2dc].dll  - Undefined Reference
    QHashData::rehash(int)                    - Undefined Reference
    _ZN9QHashData6rehashEi@QtCore{00040703}[2001b2dc].dll  - Undefined Reference
    QHashData::freeNode(void*)                - Undefined Reference
    _ZN9QHashData8freeNodeEPv@QtCore{00040703}[2001b2dc].dll  - Undefined Reference
    QHashData::nextNode(QHashData::Node*)     - Undefined Reference
    _ZN9QHashData8nextNodeEPNS_4NodeE@QtCore{00040703}[2001b2dc].dll  - Undefined Reference
    QIODevice::peek(long long)                - Undefined Reference
    _ZN9QIODevice4peekEx@QtCore{00040703}[2001b2dc].dll  - Undefined Reference
    QIODevice::readAll()                      - Undefined Reference
    _ZN9QIODevice7readAllEv@QtCore{00040703}[2001b2dc].dll  - Undefined Reference
    QListData::detach_grow(int*, int)         - Undefined Reference
    _ZN9QListData11detach_growEPii@QtCore{00040703}[2001b2dc].dll  - Undefined Reference
    QListData::shared_null                    - Undefined Reference
    _ZN9QListData11shared_nullE@QtCore{00040703}[2001b2dc].dll  - Undefined Reference
    QListData::move(int, int)                 - Undefined Reference
    _ZN9QListData4moveEii@QtCore{00040703}[2001b2dc].dll  - Undefined Reference
    QListData::erase(void**)                  - Undefined Reference
    _ZN9QListData5eraseEPPv@QtCore{00040703}[2001b2dc].dll  - Undefined Reference
    QListData::append()                       - Undefined Reference
    _ZN9QListData6appendEv@QtCore{00040703}[2001b2dc].dll  - Undefined Reference
    QListData::detach(int)                    - Undefined Reference
    _ZN9QListData6detachEi@QtCore{00040703}[2001b2dc].dll  - Undefined Reference
    QListData::insert(int)                    - Undefined Reference
    _ZN9QListData6insertEi@QtCore{00040703}[2001b2dc].dll  - Undefined Reference
    QListData::remove(int)                    - Undefined Reference
    _ZN9QListData6removeEi@QtCore{00040703}[2001b2dc].dll  - Undefined Reference
    QListData::realloc(int)                   - Undefined Reference
    _ZN9QListData7reallocEi@QtCore{00040703}[2001b2dc].dll  - Undefined Reference
    QMetaType::registerTypedef(const char*, int)  - Undefined Reference
    _ZN9QMetaType15registerTypedefEPKci@QtCore{00040703}[2001b2dc].dll  - Undefined Reference
    QByteArray::isNull() const                - Undefined Reference
    _ZNK10QByteArray6isNullEv@QtCore{00040703}[2001b2dc].dll  - Undefined Reference
    QByteArray::indexOf(const char*, int) const  - Undefined Reference
    _ZNK10QByteArray7indexOfEPKci@QtCore{00040703}[2001b2dc].dll  - Undefined Reference
    QImageData::checkForAlphaPixels() const   - Undefined Reference
    _ZNK10QImageData19checkForAlphaPixelsEv@QtGui{00040703}[2001b2dd].dll  - Undefined Reference
    QTransform::map(const QPainterPath&) const  - Undefined Reference
    _ZNK10QTransform3mapERK12QPainterPath@QtGui{00040703}[2001b2dd].dll  - Undefined Reference
    QTransform::map(float, float, float*, float*) const  - Undefined Reference
    _ZNK10QTransform3mapEffPfS0_@QtGui{00040703}[2001b2dd].dll  - Undefined Reference
    QTransform::type() const                  - Undefined Reference
    _ZNK10QTransform4typeEv@QtGui{00040703}[2001b2dd].dll  - Undefined Reference
    QTransform::mapRect(const QRectF&) const  - Undefined Reference
    _ZNK10QTransform7mapRectERK6QRectF@QtGui{00040703}[2001b2dd].dll  - Undefined Reference
    QTransform::inverted(bool*) const         - Undefined Reference
    _ZNK10QTransform8invertedEPb@QtGui{00040703}[2001b2dd].dll  - Undefined Reference
    QTransform::operator *(const QTransform&) const  - Undefined Reference
    _ZNK10QTransformmlERKS_@QtGui{00040703}[2001b2dd].dll  - Undefined Reference
    QEglContext::configAttrib(int) const      - Undefined Reference
    _ZNK11QEglContext12configAttribEi@QtGui{00040703}[2001b2dd].dll  - Undefined Reference
    QFontEngine::glyphCache(void*, QFontEngineGlyphCache::Type, const QTransform&) const  - Undefined Reference
    _ZNK11QFontEngine10glyphCacheEPvN21QFontEngineGlyphCache4TypeERK10QTransform@QtGui{00040703}[2001b2dd].dll  - Undefined Reference
    QMetaObject::cast(QObject*) const         - Undefined Reference
    _ZNK11QMetaObject4castEP7QObject@QtCore{00040703}[2001b2dc].dll  - Undefined Reference
    QPixmapData::transformed(const QTransform&, Qt::TransformationMode) const  - Undefined Reference
    _ZNK11QPixmapData11transformedERK10QTransformN2Qt18TransformationModeE@QtGui{00040703}[2001b2dd].dll  - Undefined Reference
    QPixmapData::alphaChannel() const         - Undefined Reference
    _ZNK11QPixmapData12alphaChannelEv@QtGui{00040703}[2001b2dd].dll  - Undefined Reference
    QPixmapData::mask() const                 - Undefined Reference
    _ZNK11QPixmapData4maskEv@QtGui{00040703}[2001b2dd].dll  - Undefined Reference
    QPixmapData::toImage(const QRect&) const  - Undefined Reference
    _ZNK11QPixmapData7toImageERK5QRect@QtGui{00040703}[2001b2dd].dll  - Undefined Reference
    QVectorPath::addCacheData(QPaintEngineEx*, void*, void(*)(QPaintEngineEx*, void*)) const  - Undefined Reference
    _ZNK11QVectorPath12addCacheDataEP14QPaintEngineExPvPFvS1_S2_E@QtGui{00040703}[2001b2dd].dll  - Undefined Reference
    QVectorPath::controlPointRect() const     - Undefined Reference
    _ZNK11QVectorPath16controlPointRectEv@QtGui{00040703}[2001b2dd].dll  - Undefined Reference
    QPaintEngine::systemClip() const          - Undefined Reference
    _ZNK12QPaintEngine10systemClipEv@QtGui{00040703}[2001b2dd].dll  - Undefined Reference
    QPaintEngine::paintDevice() const         - Undefined Reference
    _ZNK12QPaintEngine11paintDeviceEv@QtGui{00040703}[2001b2dd].dll  - Undefined Reference
    QPaintEngine::coordinateOffset() const    - Undefined Reference
    _ZNK12QPaintEngine16coordinateOffsetEv@QtGui{00040703}[2001b2dd].dll  - Undefined Reference
    QPaintEngine::painter() const             - Undefined Reference
    _ZNK12QPaintEngine7painterEv@QtGui{00040703}[2001b2dd].dll  - Undefined Reference
    QPixmapFilter::boundingRectFor(const QRectF&) const  - Undefined Reference
    _ZNK13QPixmapFilter15boundingRectForERK6QRectF@QtGui{00040703}[2001b2dd].dll  - Undefined Reference
    QWindowSurface::grabWidget(const QWidget*, const QRect&) const  - Undefined Reference
    _ZNK14QWindowSurface10grabWidgetEPK7QWidgetRK5QRect@QtGui{00040703}[2001b2dd].dll  - Undefined Reference
    QWindowSurface::hasPartialUpdateSupport() const  - Undefined Reference
    _ZNK14QWindowSurface23hasPartialUpdateSupportEv@QtGui{00040703}[2001b2dd].dll  - Undefined Reference
    QWindowSurface::offset(const QWidget*) const  - Undefined Reference
    _ZNK14QWindowSurface6offsetEPK7QWidget@QtGui{00040703}[2001b2dd].dll  - Undefined Reference
    QWindowSurface::window() const            - Undefined Reference
    _ZNK14QWindowSurface6windowEv@QtGui{00040703}[2001b2dd].dll  - Undefined Reference
    QWindowSurface::geometry() const          - Undefined Reference
    _ZNK14QWindowSurface8geometryEv@QtGui{00040703}[2001b2dd].dll  - Undefined Reference
    QGraphicsEffect::sourcePixmap(Qt::CoordinateSystem, QPoint*, QGraphicsEffect::PixmapPadMode) const  - Undefined Reference
    _ZNK15QGraphicsEffect12sourcePixmapEN2Qt16CoordinateSystemEP6QPointNS_13PixmapPadModeE@QtGui{00040703}[2001b2dd].dll  - Undefined Reference
    QGraphicsEffect::sourceIsPixmap() const   - Undefined Reference
    _ZNK15QGraphicsEffect14sourceIsPixmapEv@QtGui{00040703}[2001b2dd].dll  - Undefined Reference
    QGraphicsEffect::boundingRectFor(const QRectF&) const  - Undefined Reference
    _ZNK15QGraphicsEffect15boundingRectForERK6QRectF@QtGui{00040703}[2001b2dd].dll  - Undefined Reference
    QLinearGradient::start() const            - Undefined Reference
    _ZNK15QLinearGradient5startEv@QtGui{00040703}[2001b2dd].dll  - Undefined Reference
    QLinearGradient::finalStop() const        - Undefined Reference
    _ZNK15QLinearGradient9finalStopEv@QtGui{00040703}[2001b2dd].dll  - Undefined Reference
    QRadialGradient::focalPoint() const       - Undefined Reference
    _ZNK15QRadialGradient10focalPointEv@QtGui{00040703}[2001b2dd].dll  - Undefined Reference
    QRadialGradient::center() const           - Undefined Reference
    _ZNK15QRadialGradient6centerEv@QtGui{00040703}[2001b2dd].dll  - Undefined Reference
    QRadialGradient::radius() const           - Undefined Reference
    _ZNK15QRadialGradient6radiusEv@QtGui{00040703}[2001b2dd].dll  - Undefined Reference
    QConicalGradient::angle() const           - Undefined Reference
    _ZNK16QConicalGradient5angleEv@QtGui{00040703}[2001b2dd].dll  - Undefined Reference
    QConicalGradient::center() const          - Undefined Reference
    _ZNK16QConicalGradient6centerEv@QtGui{00040703}[2001b2dd].dll  - Undefined Reference
    QPaintEngineState::transform() const      - Undefined Reference
    _ZNK17QPaintEngineState9transformEv@QtGui{00040703}[2001b2dd].dll  - Undefined Reference
    QPixmapBlurFilter::metaObject() const     - Undefined Reference
    _ZNK17QPixmapBlurFilter10metaObjectEv@QtGui{00040703}[2001b2dd].dll  - Undefined Reference
    QPixmapBlurFilter::boundingRectFor(const QRectF&) const  - Undefined Reference
    _ZNK17QPixmapBlurFilter15boundingRectForERK6QRectF@QtGui{00040703}[2001b2dd].dll  - Undefined Reference
    QPixmapBlurFilter::radius() const         - Undefined Reference
    _ZNK17QPixmapBlurFilter6radiusEv@QtGui{00040703}[2001b2dd].dll  - Undefined Reference
    QPixmapBlurFilter::blurHints() const      - Undefined Reference
    _ZNK17QPixmapBlurFilter9blurHintsEv@QtGui{00040703}[2001b2dd].dll  - Undefined Reference
    QTextureGlyphCache::textureMapForGlyph(unsigned) const  - Undefined Reference
    _ZNK18QTextureGlyphCache18textureMapForGlyphEj@QtGui{00040703}[2001b2dd].dll  - Undefined Reference
    QThreadStorageData::get() const           - Undefined Reference
    _ZNK18QThreadStorageData3getEv@QtCore{00040703}[2001b2dc].dll  - Undefined Reference
    QPaintEngineExPrivate::hasClipOperations() const  - Undefined Reference
    _ZNK21QPaintEngineExPrivate17hasClipOperationsEv@QtGui{00040703}[2001b2dd].dll  - Undefined Reference
    QPixmapColorizeFilter::metaObject() const  - Undefined Reference
    _ZNK21QPixmapColorizeFilter10metaObjectEv@QtGui{00040703}[2001b2dd].dll  - Undefined Reference
    QPixmapColorizeFilter::color() const      - Undefined Reference
    _ZNK21QPixmapColorizeFilter5colorEv@QtGui{00040703}[2001b2dd].dll  - Undefined Reference
    QPixmapColorizeFilter::strength() const   - Undefined Reference
    _ZNK21QPixmapColorizeFilter8strengthEv@QtGui{00040703}[2001b2dd].dll  - Undefined Reference
    QImageTextureGlyphCache::glyphMargin() const  - Undefined Reference
    _ZNK23QImageTextureGlyphCache11glyphMarginEv@QtGui{00040703}[2001b2dd].dll  - Undefined Reference
    QPixmapDropShadowFilter::blurRadius() const  - Undefined Reference
    _ZNK23QPixmapDropShadowFilter10blurRadiusEv@QtGui{00040703}[2001b2dd].dll  - Undefined Reference
    QPixmapDropShadowFilter::metaObject() const  - Undefined Reference
    _ZNK23QPixmapDropShadowFilter10metaObjectEv@QtGui{00040703}[2001b2dd].dll  - Undefined Reference
    QPixmapDropShadowFilter::boundingRectFor(const QRectF&) const  - Undefined Reference
    _ZNK23QPixmapDropShadowFilter15boundingRectForERK6QRectF@QtGui{00040703}[2001b2dd].dll  - Undefined Reference
    QPixmapDropShadowFilter::color() const    - Undefined Reference
    _ZNK23QPixmapDropShadowFilter5colorEv@QtGui{00040703}[2001b2dd].dll  - Undefined Reference
    QPixmapDropShadowFilter::offset() const   - Undefined Reference
    _ZNK23QPixmapDropShadowFilter6offsetEv@QtGui{00040703}[2001b2dd].dll  - Undefined Reference
    QPixmapConvolutionFilter::metaObject() const  - Undefined Reference
    _ZNK24QPixmapConvolutionFilter10metaObjectEv@QtGui{00040703}[2001b2dd].dll  - Undefined Reference
    QPixmapConvolutionFilter::boundingRectFor(const QRectF&) const  - Undefined Reference
    _ZNK24QPixmapConvolutionFilter15boundingRectForERK6QRectF@QtGui{00040703}[2001b2dd].dll  - Undefined Reference
    QPixmapConvolutionFilter::convolutionKernel() const  - Undefined Reference
    _ZNK24QPixmapConvolutionFilter17convolutionKernelEv@QtGui{00040703}[2001b2dd].dll  - Undefined Reference
    QPixmapConvolutionFilter::rows() const    - Undefined Reference
    _ZNK24QPixmapConvolutionFilter4rowsEv@QtGui{00040703}[2001b2dd].dll  - Undefined Reference
    QPixmapConvolutionFilter::columns() const  - Undefined Reference
    _ZNK24QPixmapConvolutionFilter7columnsEv@QtGui{00040703}[2001b2dd].dll  - Undefined Reference
    QPen::dashOffset() const                  - Undefined Reference
    _ZNK4QPen10dashOffsetEv@QtGui{00040703}[2001b2dd].dll  - Undefined Reference
    QPen::isCosmetic() const                  - Undefined Reference
    _ZNK4QPen10isCosmeticEv@QtGui{00040703}[2001b2dd].dll  - Undefined Reference
    QPen::miterLimit() const                  - Undefined Reference
    _ZNK4QPen10miterLimitEv@QtGui{00040703}[2001b2dd].dll  - Undefined Reference
    QPen::dashPattern() const                 - Undefined Reference
    _ZNK4QPen11dashPatternEv@QtGui{00040703}[2001b2dd].dll  - Undefined Reference
    QPen::brush() const                       - Undefined Reference
    _ZNK4QPen5brushEv@QtGui{00040703}[2001b2dd].dll  - Undefined Reference
    QPen::color() const                       - Undefined Reference
    _ZNK4QPen5colorEv@QtGui{00040703}[2001b2dd].dll  - Undefined Reference
    QPen::joinStyle() const                   - Undefined Reference
    _ZNK4QPen9joinStyleEv@QtGui{00040703}[2001b2dd].dll  - Undefined Reference
    QChar::toAscii() const                    - Undefined Reference
    _ZNK5QChar7toAsciiEv@QtCore{00040703}[2001b2dc].dll  - Undefined Reference
    QRect::operator &(const QRect&) const     - Undefined Reference
    _ZNK5QRectanERKS_@QtCore{00040703}[2001b2dc].dll  - Undefined Reference
    QBrush::texture() const                   - Undefined Reference
    _ZNK6QBrush7textureEv@QtGui{00040703}[2001b2dd].dll  - Undefined Reference
    QBrush::gradient() const                  - Undefined Reference
    _ZNK6QBrush8gradientEv@QtGui{00040703}[2001b2dd].dll  - Undefined Reference
    QBrush::isOpaque() const                  - Undefined Reference
    _ZNK6QBrush8isOpaqueEv@QtGui{00040703}[2001b2dd].dll  - Undefined Reference
    QColor::rgb() const                       - Undefined Reference
    _ZNK6QColor3rgbEv@QtGui{00040703}[2001b2dd].dll  - Undefined Reference
    QColor::redF() const                      - Undefined Reference
    _ZNK6QColor4redFEv@QtGui{00040703}[2001b2dd].dll  - Undefined Reference
    QColor::rgba() const                      - Undefined Reference
    _ZNK6QColor4rgbaEv@QtGui{00040703}[2001b2dd].dll  - Undefined Reference
    QColor::alpha() const                     - Undefined Reference
    _ZNK6QColor5alphaEv@QtGui{00040703}[2001b2dd].dll  - Undefined Reference
    QColor::blueF() const                     - Undefined Reference
    _ZNK6QColor5blueFEv@QtGui{00040703}[2001b2dd].dll  - Undefined Reference
    QColor::alphaF() const                    - Undefined Reference
    _ZNK6QColor6alphaFEv@QtGui{00040703}[2001b2dd].dll  - Undefined Reference
    QColor::greenF() const                    - Undefined Reference
    _ZNK6QColor6greenFEv@QtGui{00040703}[2001b2dd].dll  - Undefined Reference
    QColor::operator ==(const QColor&) const  - Undefined Reference
    _ZNK6QColoreqERKS_@QtGui{00040703}[2001b2dd].dll  - Undefined Reference
    QImage::colorTable() const                - Undefined Reference
    _ZNK6QImage10colorTableEv@QtGui{00040703}[2001b2dd].dll  - Undefined Reference
    QImage::isDetached() const                - Undefined Reference
    _ZNK6QImage10isDetachedEv@QtGui{00040703}[2001b2dd].dll  - Undefined Reference
    QImage::paintEngine() const               - Undefined Reference
    _ZNK6QImage11paintEngineEv@QtGui{00040703}[2001b2dd].dll  - Undefined Reference
    QImage::alphaChannel() const              - Undefined Reference
    _ZNK6QImage12alphaChannelEv@QtGui{00040703}[2001b2dd].dll  - Undefined Reference
    QImage::bytesPerLine() const              - Undefined Reference
    _ZNK6QImage12bytesPerLineEv@QtGui{00040703}[2001b2dd].dll  - Undefined Reference
    QImage::convertToFormat(QImage::Format, QFlags<Qt::ImageConversionFlag>) const  - Undefined Reference
    _ZNK6QImage15convertToFormatENS_6FormatE6QFlagsIN2Qt19ImageConversionFlagEE@QtGui{00040703}[2001b2dd].dll  - Undefined Reference
    QImage::hasAlphaChannel() const           - Undefined Reference
    _ZNK6QImage15hasAlphaChannelEv@QtGui{00040703}[2001b2dd].dll  - Undefined Reference
    QImage::bits() const                      - Undefined Reference
    _ZNK6QImage4bitsEv@QtGui{00040703}[2001b2dd].dll  - Undefined Reference
    QImage::copy(const QRect&) const          - Undefined Reference
    _ZNK6QImage4copyERK5QRect@QtGui{00040703}[2001b2dd].dll  - Undefined Reference
    QImage::rect() const                      - Undefined Reference
    _ZNK6QImage4rectEv@QtGui{00040703}[2001b2dd].dll  - Undefined Reference
    QImage::size() const                      - Undefined Reference
    _ZNK6QImage4sizeEv@QtGui{00040703}[2001b2dd].dll  - Undefined Reference
    QImage::depth() const                     - Undefined Reference
    _ZNK6QImage5depthEv@QtGui{00040703}[2001b2dd].dll  - Undefined Reference
    QImage::width() const                     - Undefined Reference
    _ZNK6QImage5widthEv@QtGui{00040703}[2001b2dd].dll  - Undefined Reference
    QImage::format() const                    - Undefined Reference
    _ZNK6QImage6formatEv@QtGui{00040703}[2001b2dd].dll  - Undefined Reference
    QImage::height() const                    - Undefined Reference
    _ZNK6QImage6heightEv@QtGui{00040703}[2001b2dd].dll  - Undefined Reference
    QImage::isNull() const                    - Undefined Reference
    _ZNK6QImage6isNullEv@QtGui{00040703}[2001b2dd].dll  - Undefined Reference
    QImage::scaled(const QSize&, Qt::AspectRatioMode, Qt::TransformationMode) const  - Undefined Reference
    _ZNK6QImage6scaledERK5QSizeN2Qt15AspectRatioModeENS3_18TransformationModeE@QtGui{00040703}[2001b2dd].dll  - Undefined Reference
    QImage::cacheKey() const                  - Undefined Reference
    _ZNK6QImage8cacheKeyEv@QtGui{00040703}[2001b2dd].dll  - Undefined Reference
    QImage::mirrored(bool, bool) const        - Undefined Reference
    _ZNK6QImage8mirroredEbb@QtGui{00040703}[2001b2dd].dll  - Undefined Reference
    QImage::scanLine(int) const               - Undefined Reference
    _ZNK6QImage8scanLineEi@QtGui{00040703}[2001b2dd].dll  - Undefined Reference
    QImage::constBits() const                 - Undefined Reference
    _ZNK6QImage9constBitsEv@QtGui{00040703}[2001b2dd].dll  - Undefined Reference
    QRectF::toAlignedRect() const             - Undefined Reference
    _ZNK6QRectF13toAlignedRectEv@QtCore{00040703}[2001b2dc].dll  - Undefined Reference
    QBezier::bounds() const                   - Undefined Reference
    _ZNK7QBezier6boundsEv@QtGui{00040703}[2001b2dd].dll  - Undefined Reference
    QBezier::toPolygon(float) const           - Undefined Reference
    _ZNK7QBezier9toPolygonEf@QtGui{00040703}[2001b2dd].dll  - Undefined Reference
    QObject::metaObject() const               - Undefined Reference
    _ZNK7QObject10metaObjectEv@QtCore{00040703}[2001b2dc].dll  - Undefined Reference
    QObject::objectName() const               - Undefined Reference
    _ZNK7QObject10objectNameEv@QtCore{00040703}[2001b2dc].dll  - Undefined Reference
    QObject::sender() const                   - Undefined Reference
    _ZNK7QObject6senderEv@QtCore{00040703}[2001b2dc].dll  - Undefined Reference
    QObject::thread() const                   - Undefined Reference
    _ZNK7QObject6threadEv@QtCore{00040703}[2001b2dc].dll  - Undefined Reference
    QPixmap::pixmapData() const               - Undefined Reference
    _ZNK7QPixmap10pixmapDataEv@QtGui{00040703}[2001b2dd].dll  - Undefined Reference
    QPixmap::rect() const                     - Undefined Reference
    _ZNK7QPixmap4rectEv@QtGui{00040703}[2001b2dd].dll  - Undefined Reference
    QPixmap::size() const                     - Undefined Reference
    _ZNK7QPixmap4sizeEv@QtGui{00040703}[2001b2dd].dll  - Undefined Reference
    QPixmap::depth() const                    - Undefined Reference
    _ZNK7QPixmap5depthEv@QtGui{00040703}[2001b2dd].dll  - Undefined Reference
    QPixmap::width() const                    - Undefined Reference
    _ZNK7QPixmap5widthEv@QtGui{00040703}[2001b2dd].dll  - Undefined Reference
    QPixmap::height() const                   - Undefined Reference
    _ZNK7QPixmap6heightEv@QtGui{00040703}[2001b2dd].dll  - Undefined Reference
    QPixmap::isNull() const                   - Undefined Reference
    _ZNK7QPixmap6isNullEv@QtGui{00040703}[2001b2dd].dll  - Undefined Reference
    QPixmap::scaled(const QSize&, Qt::AspectRatioMode, Qt::TransformationMode) const  - Undefined Reference
    _ZNK7QPixmap6scaledERK5QSizeN2Qt15AspectRatioModeENS3_18TransformationModeE@QtGui{00040703}[2001b2dd].dll  - Undefined Reference
    QPixmap::toImage() const                  - Undefined Reference
    _ZNK7QPixmap7toImageEv@QtGui{00040703}[2001b2dd].dll  - Undefined Reference
    QPixmap::cacheKey() const                 - Undefined Reference
    _ZNK7QPixmap8cacheKeyEv@QtGui{00040703}[2001b2dd].dll  - Undefined Reference
    QPixmap::hasAlpha() const                 - Undefined Reference
    _ZNK7QPixmap8hasAlphaEv@QtGui{00040703}[2001b2dd].dll  - Undefined Reference
    QPixmap::isQBitmap() const                - Undefined Reference
    _ZNK7QPixmap9isQBitmapEv@QtGui{00040703}[2001b2dd].dll  - Undefined Reference
    QRegion::intersects(const QRect&) const   - Undefined Reference
    _ZNK7QRegion10intersectsERK5QRect@QtGui{00040703}[2001b2dd].dll  - Undefined Reference
    QRegion::boundingRect() const             - Undefined Reference
    _ZNK7QRegion12boundingRectEv@QtGui{00040703}[2001b2dd].dll  - Undefined Reference
    QRegion::rects() const                    - Undefined Reference
    _ZNK7QRegion5rectsEv@QtGui{00040703}[2001b2dd].dll  - Undefined Reference
    QRegion::isEmpty() const                  - Undefined Reference
    _ZNK7QRegion7isEmptyEv@QtGui{00040703}[2001b2dd].dll  - Undefined Reference
    QRegion::intersect(const QRect&) const    - Undefined Reference
    _ZNK7QRegion9intersectERK5QRect@QtGui{00040703}[2001b2dd].dll  - Undefined Reference
    QRegion::rectCount() const                - Undefined Reference
    _ZNK7QRegion9rectCountEv@QtGui{00040703}[2001b2dd].dll  - Undefined Reference
    QString::startsWith(const QLatin1String&, Qt::CaseSensitivity) const  - Undefined Reference
    _ZNK7QString10startsWithERK13QLatin1StringN2Qt15CaseSensitivityE@QtCore{00040703}[2001b2dc].dll  - Undefined Reference
    QString::toLocal8Bit() const              - Undefined Reference
    _ZNK7QString11toLocal8BitEv@QtCore{00040703}[2001b2dc].dll  - Undefined Reference
    QString::split(const QChar&, QString::SplitBehavior, Qt::CaseSensitivity) const  - Undefined Reference
    _ZNK7QString5splitERK5QCharNS_13SplitBehaviorEN2Qt15CaseSensitivityE@QtCore{00040703}[2001b2dc].dll  - Undefined Reference
    QString::endsWith(const QLatin1String&, Qt::CaseSensitivity) const  - Undefined Reference
    _ZNK7QString8endsWithERK13QLatin1StringN2Qt15CaseSensitivityE@QtCore{00040703}[2001b2dc].dll  - Undefined Reference
    QString::toLatin1() const                 - Undefined Reference
    _ZNK7QString8toLatin1Ev@QtCore{00040703}[2001b2dc].dll  - Undefined Reference
    QString::operator ==(const QString&) const  - Undefined Reference
    _ZNK7QStringeqERKS_@QtCore{00040703}[2001b2dc].dll  - Undefined Reference
    QWidget::backgroundRole() const           - Undefined Reference
    _ZNK7QWidget14backgroundRoleEv@QtGui{00040703}[2001b2dd].dll  - Undefined Reference
    QWidget::heightForWidth(int) const        - Undefined Reference
    _ZNK7QWidget14heightForWidthEi@QtGui{00040703}[2001b2dd].dll  - Undefined Reference
    QWidget::minimumSizeHint() const          - Undefined Reference
    _ZNK7QWidget15minimumSizeHintEv@QtGui{00040703}[2001b2dd].dll  - Undefined Reference
    QWidget::inputMethodQuery(Qt::InputMethodQuery) const  - Undefined Reference
    _ZNK7QWidget16inputMethodQueryEN2Qt16InputMethodQueryE@QtGui{00040703}[2001b2dd].dll  - Undefined Reference
    QWidget::autoFillBackground() const       - Undefined Reference
    _ZNK7QWidget18autoFillBackgroundEv@QtGui{00040703}[2001b2dd].dll  - Undefined Reference
    QWidget::nativeParentWidget() const       - Undefined Reference
    _ZNK7QWidget18nativeParentWidgetEv@QtGui{00040703}[2001b2dd].dll  - Undefined Reference
    QWidget::testAttribute_helper(Qt::WidgetAttribute) const  - Undefined Reference
    _ZNK7QWidget20testAttribute_helperEN2Qt15WidgetAttributeE@QtGui{00040703}[2001b2dd].dll  - Undefined Reference
    QWidget::mapTo(QWidget*, const QPoint&) const  - Undefined Reference
    _ZNK7QWidget5mapToEPS_RK6QPoint@QtGui{00040703}[2001b2dd].dll  - Undefined Reference
    QWidget::winId() const                    - Undefined Reference
    _ZNK7QWidget5winIdEv@QtGui{00040703}[2001b2dd].dll  - Undefined Reference
    QWidget::metric(QPaintDevice::PaintDeviceMetric) const  - Undefined Reference
    _ZNK7QWidget6metricEN12QPaintDevice17PaintDeviceMetricE@QtGui{00040703}[2001b2dd].dll  - Undefined Reference
    QWidget::window() const                   - Undefined Reference
    _ZNK7QWidget6windowEv@QtGui{00040703}[2001b2dd].dll  - Undefined Reference
    QWidget::devType() const                  - Undefined Reference
    _ZNK7QWidget7devTypeEv@QtGui{00040703}[2001b2dd].dll  - Undefined Reference
    QWidget::palette() const                  - Undefined Reference
    _ZNK7QWidget7paletteEv@QtGui{00040703}[2001b2dd].dll  - Undefined Reference
    QWidget::sizeHint() const                 - Undefined Reference
    _ZNK7QWidget8sizeHintEv@QtGui{00040703}[2001b2dd].dll  - Undefined Reference
    QPainter::hasClipping() const             - Undefined Reference
    _ZNK8QPainter11hasClippingEv@QtGui{00040703}[2001b2dd].dll  - Undefined Reference
    QPainter::paintEngine() const             - Undefined Reference
    _ZNK8QPainter11paintEngineEv@QtGui{00040703}[2001b2dd].dll  - Undefined Reference
    QPainter::worldTransform() const          - Undefined Reference
    _ZNK8QPainter14worldTransformEv@QtGui{00040703}[2001b2dd].dll  - Undefined Reference
    QPalette::brush(QPalette::ColorGroup, QPalette::ColorRole) const  - Undefined Reference
    _ZNK8QPalette5brushENS_10ColorGroupENS_9ColorRoleE@QtGui{00040703}[2001b2dd].dll  - Undefined Reference
    QGradient::interpolationMode() const      - Undefined Reference
    _ZNK9QGradient17interpolationModeEv@QtGui{00040703}[2001b2dd].dll  - Undefined Reference
    QGradient::stops() const                  - Undefined Reference
    _ZNK9QGradient5stopsEv@QtGui{00040703}[2001b2dd].dll  - Undefined Reference
    typeinfo for QPixmapData                  - Undefined Reference
    _ZTI11QPixmapData@QtGui{00040703}[2001b2dd].dll  - Undefined Reference
    typeinfo for QPaintDevice                 - Undefined Reference
    _ZTI12QPaintDevice@QtGui{00040703}[2001b2dd].dll  - Undefined Reference
    typeinfo for QPainterState                - Undefined Reference
    _ZTI13QPainterState@QtGui{00040703}[2001b2dd].dll  - Undefined Reference
    typeinfo for QObjectPrivate               - Undefined Reference
    _ZTI14QObjectPrivate@QtCore{00040703}[2001b2dc].dll  - Undefined Reference
    typeinfo for QPaintEngineEx               - Undefined Reference
    _ZTI14QPaintEngineEx@QtGui{00040703}[2001b2dd].dll  - Undefined Reference
    typeinfo for QWidgetPrivate               - Undefined Reference
    _ZTI14QWidgetPrivate@QtGui{00040703}[2001b2dd].dll  - Undefined Reference
    typeinfo for QWindowSurface               - Undefined Reference
    _ZTI14QWindowSurface@QtGui{00040703}[2001b2dd].dll  - Undefined Reference
    typeinfo for QGraphicsEffect              - Undefined Reference
    _ZTI15QGraphicsEffect@QtGui{00040703}[2001b2dd].dll  - Undefined Reference
    typeinfo for QGraphicsSystem              - Undefined Reference
    _ZTI15QGraphicsSystem@QtGui{00040703}[2001b2dd].dll  - Undefined Reference
    typeinfo for QPixmapBlurFilter            - Undefined Reference
    _ZTI17QPixmapBlurFilter@QtGui{00040703}[2001b2dd].dll  - Undefined Reference
    typeinfo for QPaintEngineExPrivate        - Undefined Reference
    _ZTI21QPaintEngineExPrivate@QtGui{00040703}[2001b2dd].dll  - Undefined Reference
    typeinfo for QPixmapColorizeFilter        - Undefined Reference
    _ZTI21QPixmapColorizeFilter@QtGui{00040703}[2001b2dd].dll  - Undefined Reference
    typeinfo for QImageTextureGlyphCache      - Undefined Reference
    _ZTI23QImageTextureGlyphCache@QtGui{00040703}[2001b2dd].dll  - Undefined Reference
    typeinfo for QPixmapDropShadowFilter      - Undefined Reference
    _ZTI23QPixmapDropShadowFilter@QtGui{00040703}[2001b2dd].dll  - Undefined Reference
    typeinfo for QPixmapConvolutionFilter     - Undefined Reference
    _ZTI24QPixmapConvolutionFilter@QtGui{00040703}[2001b2dd].dll  - Undefined Reference
    typeinfo for QObject                      - Undefined Reference
    _ZTI7QObject@QtCore{00040703}[2001b2dc].dll  - Undefined Reference
    typeinfo for QWidget                      - Undefined Reference
    _ZTI7QWidget@QtGui{00040703}[2001b2dd].dll  - Undefined Reference
    typeinfo for std::bad_alloc               - Undefined Reference
    _ZTISt9bad_alloc@stdnew{000a0000}[20022178].dll  - Undefined Reference
    vtable for QDashStroker                   - Undefined Reference
    _ZTV12QDashStroker@QtGui{00040703}[2001b2dd].dll  - Undefined Reference
    vtable for QPainterState                  - Undefined Reference
    _ZTV13QPainterState@QtGui{00040703}[2001b2dd].dll  - Undefined Reference
    vtable for QImageTextureGlyphCache        - Undefined Reference
    _ZTV23QImageTextureGlyphCache@QtGui{00040703}[2001b2dd].dll  - Undefined Reference
    vtable for __cxxabiv1::__class_type_info  - Undefined Reference
    _ZTVN10__cxxabiv117__class_type_infoE@drtaeabi{000a0000}.dll  - Undefined Reference
    vtable for __cxxabiv1::__si_class_type_info  - Undefined Reference
    _ZTVN10__cxxabiv120__si_class_type_infoE@drtaeabi{000a0000}.dll  - Undefined Reference
    vtable for __cxxabiv1::__vmi_class_type_info  - Undefined Reference
    _ZTVN10__cxxabiv121__vmi_class_type_infoE@drtaeabi{000a0000}.dll  - Undefined Reference
    thunk{-8} to QWidget::metric(QPaintDevice::PaintDeviceMetric) const  - Undefined Reference
    _ZThn8_NK7QWidget6metricEN12QPaintDevice17PaintDeviceMetricE@QtGui{00040703}[2001b2dd].dll  - Undefined Reference
    thunk{-8} to QWidget::devType() const     - Undefined Reference
    _ZThn8_NK7QWidget7devTypeEv@QtGui{00040703}[2001b2dd].dll  - Undefined Reference
    operator delete[] (void*)                 - Undefined Reference
    _ZdaPv@stdnew{000a0000}[20022178].dll     - Undefined Reference
    operator delete (void*)                   - Undefined Reference
    _ZdlPv@stdnew{000a0000}[20022178].dll     - Undefined Reference
    operator <<(QDebug, const QObject*)       - Undefined Reference
    _Zls6QDebugPK7QObject@QtCore{00040703}[2001b2dc].dll  - Undefined Reference
    operator <<(QDebug, const QSize&)         - Undefined Reference
    _Zls6QDebugRK5QSize@QtCore{00040703}[2001b2dc].dll  - Undefined Reference
    operator new[] (unsigned)                 - Undefined Reference
    _Znaj@stdnew{000a0000}[20022178].dll      - Undefined Reference
    operator new(unsigned)                    - Undefined Reference
    _Znwj@stdnew{000a0000}[20022178].dll      - Undefined Reference
    __ARM_ll_addls                            - Undefined Reference
    __ARM_ll_addls@drtrvct2_2{000a0000}.dll   - Undefined Reference
    __ARM_ll_addlu                            - Undefined Reference
    __ARM_ll_addlu@drtrvct2_2{000a0000}.dll   - Undefined Reference
    __ARM_ll_cmpge                            - Undefined Reference
    __ARM_ll_cmpge@drtrvct2_2{000a0000}.dll   - Undefined Reference
    __ARM_ll_cmple                            - Undefined Reference
    __ARM_ll_cmple@drtrvct2_2{000a0000}.dll   - Undefined Reference
    __ARM_ll_cmpu                             - Undefined Reference
    __ARM_ll_cmpu@drtrvct2_2{000a0000}.dll    - Undefined Reference
    __ARM_ll_mulls                            - Undefined Reference
    __ARM_ll_mulls@drtrvct2_2{000a0000}.dll   - Undefined Reference
    __ARM_ll_mulss                            - Undefined Reference
    __ARM_ll_mulss@drtrvct2_2{000a0000}.dll   - Undefined Reference
    __ARM_ll_neg                              - Undefined Reference
    __ARM_ll_neg@drtrvct2_2{000a0000}.dll     - Undefined Reference
    __ARM_ll_rsb                              - Undefined Reference
    __ARM_ll_rsb@drtrvct2_2{000a0000}.dll     - Undefined Reference
    __aeabi_cdcmple                           - Undefined Reference
    __aeabi_cdcmple@dfpaeabi{000a0000}.dll    - Undefined Reference
    __aeabi_cfcmpeq                           - Undefined Reference
    __aeabi_cfcmpeq@dfpaeabi{000a0000}.dll    - Undefined Reference
    __aeabi_cfcmple                           - Undefined Reference
    __aeabi_cfcmple@dfpaeabi{000a0000}.dll    - Undefined Reference
    __aeabi_cfrcmple                          - Undefined Reference
    __aeabi_cfrcmple@dfpaeabi{000a0000}.dll   - Undefined Reference
    __aeabi_dmul                              - Undefined Reference
    __aeabi_dmul@dfpaeabi{000a0000}.dll       - Undefined Reference
    __aeabi_f2iz                              - Undefined Reference
    __aeabi_f2iz@dfpaeabi{000a0000}.dll       - Undefined Reference
    __aeabi_fadd                              - Undefined Reference
    __aeabi_fadd@dfpaeabi{000a0000}.dll       - Undefined Reference
    __aeabi_fdiv                              - Undefined Reference
    __aeabi_fdiv@dfpaeabi{000a0000}.dll       - Undefined Reference
    __aeabi_fmul                              - Undefined Reference
    __aeabi_fmul@dfpaeabi{000a0000}.dll       - Undefined Reference
    __aeabi_frsub                             - Undefined Reference
    __aeabi_frsub@dfpaeabi{000a0000}.dll      - Undefined Reference
    __aeabi_fsub                              - Undefined Reference
    __aeabi_fsub@dfpaeabi{000a0000}.dll       - Undefined Reference
    __aeabi_i2d                               - Undefined Reference
    __aeabi_i2d@dfpaeabi{000a0000}.dll        - Undefined Reference
    __aeabi_i2f                               - Undefined Reference
    __aeabi_i2f@dfpaeabi{000a0000}.dll        - Undefined Reference
    __aeabi_idivmod                           - Undefined Reference
    __aeabi_idivmod@drtaeabi{000a0000}.dll    - Undefined Reference
    __aeabi_ldivmod                           - Undefined Reference
    __aeabi_ldivmod@drtaeabi{000a0000}.dll    - Undefined Reference
    __aeabi_lmul                              - Undefined Reference
    __aeabi_lmul@drtaeabi{000a0000}.dll       - Undefined Reference
    __aeabi_memclr4                           - Undefined Reference
    __aeabi_memclr4@drtaeabi{000a0000}.dll    - Undefined Reference
    __aeabi_memcpy                            - Undefined Reference
    __aeabi_memcpy4                           - Undefined Reference
    __aeabi_memcpy4@drtaeabi{000a0000}.dll    - Undefined Reference
    __aeabi_memcpy@drtaeabi{000a0000}.dll     - Undefined Reference
    __aeabi_ui2f                              - Undefined Reference
    __aeabi_ui2f@dfpaeabi{000a0000}.dll       - Undefined Reference
    __aeabi_uidivmod                          - Undefined Reference
    __aeabi_uidivmod@drtaeabi{000a0000}.dll   - Undefined Reference
    __aeabi_uldivmod                          - Undefined Reference
    __aeabi_uldivmod@drtaeabi{000a0000}.dll   - Undefined Reference
    __aeabi_unwind_cpp_pr0                    - Undefined Reference
    __aeabi_unwind_cpp_pr0@drtaeabi{000a0000}.dll  - Undefined Reference
    __aeabi_unwind_cpp_pr1                    - Undefined Reference
    __aeabi_unwind_cpp_pr1@drtaeabi{000a0000}.dll  - Undefined Reference
    __cxa_begin_catch                         - Undefined Reference
    __cxa_begin_catch@drtaeabi{000a0000}.dll  - Undefined Reference
    __cxa_end_catch                           - Undefined Reference
    __cxa_end_catch@drtaeabi{000a0000}.dll    - Undefined Reference
    __cxa_end_cleanup                         - Undefined Reference
    __cxa_end_cleanup@drtaeabi{000a0000}.dll  - Undefined Reference
    __cxa_guard_abort                         - Undefined Reference
    __cxa_guard_abort@drtaeabi{000a0000}.dll  - Undefined Reference
    __cxa_guard_acquire                       - Undefined Reference
    __cxa_guard_acquire@drtaeabi{000a0000}.dll  - Undefined Reference
    __cxa_guard_release                       - Undefined Reference
    __cxa_guard_release@drtaeabi{000a0000}.dll  - Undefined Reference
    __cxa_pure_virtual                        - Undefined Reference
    __cxa_pure_virtual@drtaeabi{000a0000}.dll  - Undefined Reference
    __cxa_rethrow                             - Undefined Reference
    __cxa_rethrow@drtaeabi{000a0000}.dll      - Undefined Reference
    ceilf                                     - Undefined Reference
    ceilf@libm{00010001}[102750d2].dll        - Undefined Reference
    eglBindTexImage                           - Undefined Reference
    eglBindTexImage@libEGL{000a0000}.dll      - Undefined Reference
    eglChooseConfig                           - Undefined Reference
    eglChooseConfig@libEGL{000a0000}.dll      - Undefined Reference
    eglCreateContext                          - Undefined Reference
    eglCreateContext@libEGL{000a0000}.dll     - Undefined Reference
    eglCreatePbufferSurface                   - Undefined Reference
    eglCreatePbufferSurface@libEGL{000a0000}.dll  - Undefined Reference
    eglCreateWindowSurface                    - Undefined Reference
    eglCreateWindowSurface@libEGL{000a0000}.dll  - Undefined Reference
    eglDestroyContext                         - Undefined Reference
    eglDestroyContext@libEGL{000a0000}.dll    - Undefined Reference
    eglDestroySurface                         - Undefined Reference
    eglDestroySurface@libEGL{000a0000}.dll    - Undefined Reference
    eglGetConfigAttrib                        - Undefined Reference
    eglGetConfigAttrib@libEGL{000a0000}.dll   - Undefined Reference
    eglGetError                               - Undefined Reference
    eglGetError@libEGL{000a0000}.dll          - Undefined Reference
    eglGetProcAddress                         - Undefined Reference
    eglGetProcAddress@libEGL{000a0000}.dll    - Undefined Reference
    eglMakeCurrent                            - Undefined Reference
    eglMakeCurrent@libEGL{000a0000}.dll       - Undefined Reference
    eglQueryString                            - Undefined Reference
    eglQueryString@libEGL{000a0000}.dll       - Undefined Reference
    eglReleaseTexImage                        - Undefined Reference
    eglReleaseTexImage@libEGL{000a0000}.dll   - Undefined Reference
    eglSurfaceAttrib                          - Undefined Reference
    eglSurfaceAttrib@libEGL{000a0000}.dll     - Undefined Reference
    glActiveTexture                           - Undefined Reference
    glActiveTexture@libGLESv2{000a0000}.dll   - Undefined Reference
    glAttachShader                            - Undefined Reference
    glAttachShader@libGLESv2{000a0000}.dll    - Undefined Reference
    glBindAttribLocation                      - Undefined Reference
    glBindAttribLocation@libGLESv2{000a0000}.dll  - Undefined Reference
    glBindBuffer                              - Undefined Reference
    glBindBuffer@libGLESv2{000a0000}.dll      - Undefined Reference
    glBindFramebuffer                         - Undefined Reference
    glBindFramebuffer@libGLESv2{000a0000}.dll  - Undefined Reference
    glBindRenderbuffer                        - Undefined Reference
    glBindRenderbuffer@libGLESv2{000a0000}.dll  - Undefined Reference
    glBindTexture                             - Undefined Reference
    glBindTexture@libGLESv2{000a0000}.dll     - Undefined Reference
    glBlendColor                              - Undefined Reference
    glBlendColor@libGLESv2{000a0000}.dll      - Undefined Reference
    glBlendFunc                               - Undefined Reference
    glBlendFunc@libGLESv2{000a0000}.dll       - Undefined Reference
    glBufferData                              - Undefined Reference
    glBufferData@libGLESv2{000a0000}.dll      - Undefined Reference
    glBufferSubData                           - Undefined Reference
    glBufferSubData@libGLESv2{000a0000}.dll   - Undefined Reference
    glCheckFramebufferStatus                  - Undefined Reference
    glCheckFramebufferStatus@libGLESv2{000a0000}.dll  - Undefined Reference
    glClear                                   - Undefined Reference
    glClear@libGLESv2{000a0000}.dll           - Undefined Reference
    glClearColor                              - Undefined Reference
    glClearColor@libGLESv2{000a0000}.dll      - Undefined Reference
    glClearDepthf                             - Undefined Reference
    glClearDepthf@libGLESv2{000a0000}.dll     - Undefined Reference
    glClearStencil                            - Undefined Reference
    glClearStencil@libGLESv2{000a0000}.dll    - Undefined Reference
    glColorMask                               - Undefined Reference
    glColorMask@libGLESv2{000a0000}.dll       - Undefined Reference
    glCompileShader                           - Undefined Reference
    glCompileShader@libGLESv2{000a0000}.dll   - Undefined Reference
    glCompressedTexImage2D                    - Undefined Reference
    glCompressedTexImage2D@libGLESv2{000a0000}.dll  - Undefined Reference
    glCopyTexImage2D                          - Undefined Reference
    glCopyTexImage2D@libGLESv2{000a0000}.dll  - Undefined Reference
    glCopyTexSubImage2D                       - Undefined Reference
    glCopyTexSubImage2D@libGLESv2{000a0000}.dll  - Undefined Reference
    glCreateProgram                           - Undefined Reference
    glCreateProgram@libGLESv2{000a0000}.dll   - Undefined Reference
    glCreateShader                            - Undefined Reference
    glCreateShader@libGLESv2{000a0000}.dll    - Undefined Reference
    glDeleteBuffers                           - Undefined Reference
    glDeleteBuffers@libGLESv2{000a0000}.dll   - Undefined Reference
    glDeleteFramebuffers                      - Undefined Reference
    glDeleteFramebuffers@libGLESv2{000a0000}.dll  - Undefined Reference
    glDeleteProgram                           - Undefined Reference
    glDeleteProgram@libGLESv2{000a0000}.dll   - Undefined Reference
    glDeleteRenderbuffers                     - Undefined Reference
    glDeleteRenderbuffers@libGLESv2{000a0000}.dll  - Undefined Reference
    glDeleteShader                            - Undefined Reference
    glDeleteShader@libGLESv2{000a0000}.dll    - Undefined Reference
    glDeleteTextures                          - Undefined Reference
    glDeleteTextures@libGLESv2{000a0000}.dll  - Undefined Reference
    glDepthFunc                               - Undefined Reference
    glDepthFunc@libGLESv2{000a0000}.dll       - Undefined Reference
    glDepthMask                               - Undefined Reference
    glDepthMask@libGLESv2{000a0000}.dll       - Undefined Reference
    glDetachShader                            - Undefined Reference
    glDetachShader@libGLESv2{000a0000}.dll    - Undefined Reference
    glDisable                                 - Undefined Reference
    glDisable@libGLESv2{000a0000}.dll         - Undefined Reference
    glDisableVertexAttribArray                - Undefined Reference
    glDisableVertexAttribArray@libGLESv2{000a0000}.dll  - Undefined Reference
    glDrawArrays                              - Undefined Reference
    glDrawArrays@libGLESv2{000a0000}.dll      - Undefined Reference
    glDrawElements                            - Undefined Reference
    glDrawElements@libGLESv2{000a0000}.dll    - Undefined Reference
    glEnable                                  - Undefined Reference
    glEnable@libGLESv2{000a0000}.dll          - Undefined Reference
    glEnableVertexAttribArray                 - Undefined Reference
    glEnableVertexAttribArray@libGLESv2{000a0000}.dll  - Undefined Reference
    glFinish                                  - Undefined Reference
    glFinish@libGLESv2{000a0000}.dll          - Undefined Reference
    glFlush                                   - Undefined Reference
    glFlush@libGLESv2{000a0000}.dll           - Undefined Reference
    glFramebufferRenderbuffer                 - Undefined Reference
    glFramebufferRenderbuffer@libGLESv2{000a0000}.dll  - Undefined Reference
    glFramebufferTexture2D                    - Undefined Reference
    glFramebufferTexture2D@libGLESv2{000a0000}.dll  - Undefined Reference
    glGenBuffers                              - Undefined Reference
    glGenBuffers@libGLESv2{000a0000}.dll      - Undefined Reference
    glGenFramebuffers                         - Undefined Reference
    glGenFramebuffers@libGLESv2{000a0000}.dll  - Undefined Reference
    glGenRenderbuffers                        - Undefined Reference
    glGenRenderbuffers@libGLESv2{000a0000}.dll  - Undefined Reference
    glGenTextures                             - Undefined Reference
    glGenTextures@libGLESv2{000a0000}.dll     - Undefined Reference
    glGenerateMipmap                          - Undefined Reference
    glGenerateMipmap@libGLESv2{000a0000}.dll  - Undefined Reference
    glGetAttribLocation                       - Undefined Reference
    glGetAttribLocation@libGLESv2{000a0000}.dll  - Undefined Reference
    glGetBufferParameteriv                    - Undefined Reference
    glGetBufferParameteriv@libGLESv2{000a0000}.dll  - Undefined Reference
    glGetIntegerv                             - Undefined Reference
    glGetIntegerv@libGLESv2{000a0000}.dll     - Undefined Reference
    glGetProgramInfoLog                       - Undefined Reference
    glGetProgramInfoLog@libGLESv2{000a0000}.dll  - Undefined Reference
    glGetProgramiv                            - Undefined Reference
    glGetProgramiv@libGLESv2{000a0000}.dll    - Undefined Reference
    glGetRenderbufferParameteriv              - Undefined Reference
    glGetRenderbufferParameteriv@libGLESv2{000a0000}.dll  - Undefined Reference
    glGetShaderInfoLog                        - Undefined Reference
    glGetShaderInfoLog@libGLESv2{000a0000}.dll  - Undefined Reference
    glGetShaderSource                         - Undefined Reference
    glGetShaderSource@libGLESv2{000a0000}.dll  - Undefined Reference
    glGetShaderiv                             - Undefined Reference
    glGetShaderiv@libGLESv2{000a0000}.dll     - Undefined Reference
    glGetString                               - Undefined Reference
    glGetString@libGLESv2{000a0000}.dll       - Undefined Reference
    glGetUniformLocation                      - Undefined Reference
    glGetUniformLocation@libGLESv2{000a0000}.dll  - Undefined Reference
    glHint                                    - Undefined Reference
    glHint@libGLESv2{000a0000}.dll            - Undefined Reference
    glLinkProgram                             - Undefined Reference
    glLinkProgram@libGLESv2{000a0000}.dll     - Undefined Reference
    glPixelStorei                             - Undefined Reference
    glPixelStorei@libGLESv2{000a0000}.dll     - Undefined Reference
    glReadPixels                              - Undefined Reference
    glReadPixels@libGLESv2{000a0000}.dll      - Undefined Reference
    glRenderbufferStorage                     - Undefined Reference
    glRenderbufferStorage@libGLESv2{000a0000}.dll  - Undefined Reference
    glScissor                                 - Undefined Reference
    glScissor@libGLESv2{000a0000}.dll         - Undefined Reference
    glShaderSource                            - Undefined Reference
    glShaderSource@libGLESv2{000a0000}.dll    - Undefined Reference
    glStencilFunc                             - Undefined Reference
    glStencilFunc@libGLESv2{000a0000}.dll     - Undefined Reference
    glStencilMask                             - Undefined Reference
    glStencilMask@libGLESv2{000a0000}.dll     - Undefined Reference
    glStencilOp                               - Undefined Reference
    glStencilOp@libGLESv2{000a0000}.dll       - Undefined Reference
    glStencilOpSeparate                       - Undefined Reference
    glStencilOpSeparate@libGLESv2{000a0000}.dll  - Undefined Reference
    glTexImage2D                              - Undefined Reference
    glTexImage2D@libGLESv2{000a0000}.dll      - Undefined Reference
    glTexParameterf                           - Undefined Reference
    glTexParameterf@libGLESv2{000a0000}.dll   - Undefined Reference
    glTexSubImage2D                           - Undefined Reference
    glTexSubImage2D@libGLESv2{000a0000}.dll   - Undefined Reference
    glUniform1fv                              - Undefined Reference
    glUniform1fv@libGLESv2{000a0000}.dll      - Undefined Reference
    glUniform1i                               - Undefined Reference
    glUniform1i@libGLESv2{000a0000}.dll       - Undefined Reference
    glUniform1iv                              - Undefined Reference
    glUniform1iv@libGLESv2{000a0000}.dll      - Undefined Reference
    glUniform2fv                              - Undefined Reference
    glUniform2fv@libGLESv2{000a0000}.dll      - Undefined Reference
    glUniform3fv                              - Undefined Reference
    glUniform3fv@libGLESv2{000a0000}.dll      - Undefined Reference
    glUniform4fv                              - Undefined Reference
    glUniform4fv@libGLESv2{000a0000}.dll      - Undefined Reference
    glUniformMatrix2fv                        - Undefined Reference
    glUniformMatrix2fv@libGLESv2{000a0000}.dll  - Undefined Reference
    glUniformMatrix3fv                        - Undefined Reference
    glUniformMatrix3fv@libGLESv2{000a0000}.dll  - Undefined Reference
    glUniformMatrix4fv                        - Undefined Reference
    glUniformMatrix4fv@libGLESv2{000a0000}.dll  - Undefined Reference
    glUseProgram                              - Undefined Reference
    glUseProgram@libGLESv2{000a0000}.dll      - Undefined Reference
    glVertexAttrib1fv                         - Undefined Reference
    glVertexAttrib1fv@libGLESv2{000a0000}.dll  - Undefined Reference
    glVertexAttrib2fv                         - Undefined Reference
    glVertexAttrib2fv@libGLESv2{000a0000}.dll  - Undefined Reference
    glVertexAttrib3fv                         - Undefined Reference
    glVertexAttrib3fv@libGLESv2{000a0000}.dll  - Undefined Reference
    glVertexAttrib4fv                         - Undefined Reference
    glVertexAttrib4fv@libGLESv2{000a0000}.dll  - Undefined Reference
    glVertexAttribPointer                     - Undefined Reference
    glVertexAttribPointer@libGLESv2{000a0000}.dll  - Undefined Reference
    glViewport                                - Undefined Reference
    glViewport@libGLESv2{000a0000}.dll        - Undefined Reference
    memcmp                                    - Undefined Reference
    memcmp@libc{00010001}[10207369].dll       - Undefined Reference
    qt_sine_table                             - Undefined Reference
    qt_sine_table@QtCore{00040703}[2001b2dc].dll  - Undefined Reference
    sqrtf                                     - Undefined Reference
    sqrtf@libm{00010001}[102750d2].dll        - Undefined Reference
    strcmp                                    - Undefined Reference
    strcmp@libc{00010001}[10207369].dll       - Undefined Reference
    strlen                                    - Undefined Reference
    strlen@libc{00010001}[10207369].dll       - Undefined Reference
    strncmp                                   - Undefined Reference
    strncmp@libc{00010001}[10207369].dll      - Undefined Reference
    strstr                                    - Undefined Reference
    strstr@libc{00010001}[10207369].dll       - Undefined Reference
    Image$$ER_RO$$Base                       0x00008000   Number         0  anon$$obj.o(linker$$defined$$symbols)
    _E32Dll                                  0x00008000   ARM Code      40  uc_dll_.o(.emb_text)
    Symbian$$CPP$$Exception$$Descriptor      0x00008014   Data           0  uc_dll_.o(.emb_text)
    __cpp_initialize__aeabi_                 0x00008028   ARM Code      52  ucppinit.o(.emb_text)
    std::nothrow                             0x0000805c   ARM Code       0  ucppinit.o(.emb_text)
    __PLT                                    0x0000805c   ARM Code       0  anon$$obj.o(.plt)
    QGLFormat::~QGLFormat()                  0x0000917d   Thumb Code    24  qgl.o(.text)
    QGLFormat::~QGLFormat__sub_object()      0x0000917d   Thumb Code     0  qgl.o(.text)
    QGLFormat::QGLFormat()                   0x00009195   Thumb Code    22  qgl.o(.text)
    QGLFormat::QGLFormat__sub_object()       0x00009195   Thumb Code     0  qgl.o(.text)
    QGLFormat::detach()                      0x00009217   Thumb Code   106  qgl.o(.text)
    QGLFormat::setPlane(int)                 0x00009281   Thumb Code    16  qgl.o(.text)
    QGLFormat::setOption(QFlags<QGL::FormatOption>) 0x00009291   Thumb Code    54  qgl.o(.text)
    qt_gl_preferGL2Engine()                  0x0000942d   Thumb Code    30  qgl.o(.text)
    qOpenGLVersionFlagsFromString(const QString&) 0x0000944b   Thumb Code   762  qgl.o(.text)
    operator ==(const QGLFormat&, const QGLFormat&) 0x00009745   Thumb Code   128  qgl.o(.text)
    operator <<(QDebug, const QGLFormat&)    0x000097c5   Thumb Code   504  qgl.o(.text)
    operator !=(const QGLFormat&, const QGLFormat&) 0x000099bd   Thumb Code    12  qgl.o(.text)
    qt_gl_transfer_context(const QGLContext*) 0x00009a41   Thumb Code    96  qgl.o(.text)
    qt_gl_read_framebuffer(const QSize&, bool, bool) 0x00009b19   Thumb Code    74  qgl.o(.text)
    qt_gl_read_texture(const QSize&, bool, bool) 0x00009b63   Thumb Code    36  qgl.o(.text)
    qt_next_power_of_two(int)                0x00009b87   Thumb Code    26  qgl.o(.text)
    QGLTextureCache::remove(long long)       0x00009ba1   Thumb Code    98  qgl.o(.text)
    QGLTextureCache::cleanupTexturesForCacheKey(long long) 0x00009c03   Thumb Code    20  qgl.o(.text)
    QGLTextureCache::cleanupTexturesForPixampData(QPixmapData*) 0x00009c17   Thumb Code    32  qgl.o(.text)
    QGLTextureCache::cleanupBeforePixmapDestruction(QPixmapData*) 0x00009c37   Thumb Code     2  qgl.o(.text)
    QGLTextureCache::~QGLTextureCache()      0x00009c39   Thumb Code    52  qgl.o(.text)
    QGLTextureCache::~QGLTextureCache__sub_object() 0x00009c39   Thumb Code     0  qgl.o(.text)
    QGLTextureCache::QGLTextureCache()       0x00009c6d   Thumb Code    72  qgl.o(.text)
    QGLTextureCache::QGLTextureCache__sub_object() 0x00009c6d   Thumb Code     0  qgl.o(.text)
    qt_gl_convertToGLFormat(unsigned, unsigned) 0x00009d23   Thumb Code     8  qgl.o(.text)
    qt_add_rect_to_array(const QRectF&, float*) 0x00009f0b   Thumb Code    48  qgl.o(.text)
    qt_add_texcoords_to_array(float, float, float, float, float*) 0x00009f3b   Thumb Code    20  qgl.o(.text)
    qt_qgl_paint_engine()                    0x00009f4f   Thumb Code     8  qgl.o(.text)
    QGLExtensions::currentContextExtensions() 0x00009f57   Thumb Code  1230  qgl.o(.text)
    QGLFormat::QGLFormat(const QGLFormat&)   0x0000a4a1   Thumb Code    16  qgl.o(.text)
    QGLFormat::QGLFormat__sub_object(const QGLFormat&) 0x0000a4a1   Thumb Code     0  qgl.o(.text)
    QGLFormat::defaultFormat()               0x0000a4b1   Thumb Code    18  qgl.o(.text)
    QGLFormat::QGLFormat(QFlags<QGL::FormatOption>, int) 0x0000a4c3   Thumb Code    90  qgl.o(.text)
    QGLFormat::QGLFormat__sub_object(QFlags<QGL::FormatOption>, int) 0x0000a4c3   Thumb Code     0  qgl.o(.text)
    QGLFormat::operator =(const QGLFormat&)  0x0000a51d   Thumb Code    42  qgl.o(.text)
    QGLFormat::setDepth(bool)                0x0000a547   Thumb Code    20  qgl.o(.text)
    QGLFormat::setDepthBufferSize(int)       0x0000a55b   Thumb Code    44  qgl.o(.text)
    QGLFormat::depthBufferSize() const       0x0000a587   Thumb Code     6  qgl.o(.text)
    QGLFormat::setAccum(bool)                0x0000a58d   Thumb Code    20  qgl.o(.text)
    QGLFormat::setAccumBufferSize(int)       0x0000a5a1   Thumb Code    46  qgl.o(.text)
    QGLFormat::accumBufferSize() const       0x0000a5cf   Thumb Code     6  qgl.o(.text)
    QGLFormat::setRedBufferSize(int)         0x0000a5d5   Thumb Code    32  qgl.o(.text)
    QGLFormat::redBufferSize() const         0x0000a5f5   Thumb Code     6  qgl.o(.text)
    QGLFormat::setGreenBufferSize(int)       0x0000a5fb   Thumb Code    32  qgl.o(.text)
    QGLFormat::greenBufferSize() const       0x0000a61b   Thumb Code     6  qgl.o(.text)
    QGLFormat::setBlueBufferSize(int)        0x0000a621   Thumb Code    30  qgl.o(.text)
    QGLFormat::blueBufferSize() const        0x0000a63f   Thumb Code     6  qgl.o(.text)
    QGLFormat::setAlpha(bool)                0x0000a645   Thumb Code    20  qgl.o(.text)
    QGLFormat::setAlphaBufferSize(int)       0x0000a659   Thumb Code    46  qgl.o(.text)
    QGLFormat::alphaBufferSize() const       0x0000a687   Thumb Code     6  qgl.o(.text)
    QGLFormat::setStencil(bool)              0x0000a68d   Thumb Code    20  qgl.o(.text)
    QGLFormat::setStencilBufferSize(int)     0x0000a6a1   Thumb Code    46  qgl.o(.text)
    QGLFormat::stencilBufferSize() const     0x0000a6cf   Thumb Code     6  qgl.o(.text)
    QGLFormat::setSampleBuffers(bool)        0x0000a6d5   Thumb Code    22  qgl.o(.text)
    QGLFormat::setSamples(int)               0x0000a6eb   Thumb Code    46  qgl.o(.text)
    QGLFormat::samples() const               0x0000a719   Thumb Code     6  qgl.o(.text)
    QGLFormat::setSwapInterval(int)          0x0000a71f   Thumb Code    16  qgl.o(.text)
    QGLFormat::swapInterval() const          0x0000a72f   Thumb Code     6  qgl.o(.text)
    QGLFormat::testOption(QFlags<QGL::FormatOption>) const 0x0000a735   Thumb Code    64  qgl.o(.text)
    QGLFormat::setDoubleBuffer(bool)         0x0000a775   Thumb Code    20  qgl.o(.text)
    QGLFormat::setRgba(bool)                 0x0000a789   Thumb Code    20  qgl.o(.text)
    QGLFormat::setStereo(bool)               0x0000a79d   Thumb Code    20  qgl.o(.text)
    QGLFormat::setDirectRendering(bool)      0x0000a7b1   Thumb Code    40  qgl.o(.text)
    QGLFormat::setOverlay(bool)              0x0000a7d9   Thumb Code    22  qgl.o(.text)
    QGLFormat::plane() const                 0x0000a7ef   Thumb Code     6  qgl.o(.text)
    QGLFormat::setDefaultFormat(const QGLFormat&) 0x0000a7f5   Thumb Code    16  qgl.o(.text)
    QGLFormat::defaultOverlayFormat()        0x0000a805   Thumb Code    18  qgl.o(.text)
    QGLFormat::setDefaultOverlayFormat(const QGLFormat&) 0x0000a817   Thumb Code    26  qgl.o(.text)
    QGLFormat::setVersion(int, int)          0x0000a831   Thumb Code    44  qgl.o(.text)
    QGLFormat::majorVersion() const          0x0000a85d   Thumb Code     6  qgl.o(.text)
    QGLFormat::minorVersion() const          0x0000a863   Thumb Code     6  qgl.o(.text)
    QGLFormat::setProfile(QGLFormat::OpenGLContextProfile) 0x0000a869   Thumb Code    16  qgl.o(.text)
    QGLFormat::profile() const               0x0000a879   Thumb Code     6  qgl.o(.text)
    QGLContext::currentContext()             0x0000a87f   Thumb Code    22  qgl.o(.text)
    QGLFormat::openGLVersionFlags()          0x0000a895   Thumb Code   192  qgl.o(.text)
    QGLContextGroup::~QGLContextGroup()      0x0000a955   Thumb Code    82  qgl.o(.text)
    QGLContextGroup::~QGLContextGroup__sub_object() 0x0000a955   Thumb Code     0  qgl.o(.text)
    QGLContextPrivate::~QGLContextPrivate()  0x0000a9a7   Thumb Code    62  qgl.o(.text)
    QGLContextPrivate::~QGLContextPrivate__sub_object() 0x0000a9a7   Thumb Code     0  qgl.o(.text)
    QGLContext::isValid() const              0x0000a9e5   Thumb Code    10  qgl.o(.text)
    QGLContext::setDevice(QPaintDevice*)     0x0000a9ef   Thumb Code    70  qgl.o(.text)
    QGLContextPrivate::init(QPaintDevice*, const QGLFormat&) 0x0000aa35   Thumb Code   126  qgl.o(.text)
    QGLContextGroup::QGLContextGroup(const QGLContext*) 0x0000aab3   Thumb Code   130  qgl.o(.text)
    QGLContextGroup::QGLContextGroup__sub_object(const QGLContext*) 0x0000aab3   Thumb Code     0  qgl.o(.text)
    QGLContextPrivate::QGLContextPrivate(QGLContext*) 0x0000ab35   Thumb Code   106  qgl.o(.text)
    QGLContextPrivate::QGLContextPrivate__sub_object(QGLContext*) 0x0000ab35   Thumb Code     0  qgl.o(.text)
    QGLContext::QGLContext(const QGLFormat&, QPaintDevice*) 0x0000ab9f   Thumb Code    46  qgl.o(.text)
    QGLContext::QGLContext__sub_object(const QGLFormat&, QPaintDevice*) 0x0000ab9f   Thumb Code     0  qgl.o(.text)
    QGLContext::QGLContext(const QGLFormat&) 0x0000abcd   Thumb Code   116  qgl.o(.text)
    QGLContext::QGLContext__sub_object(const QGLFormat&) 0x0000abcd   Thumb Code     0  qgl.o(.text)
    QGLSignalProxy::instance()               0x0000ac41   Thumb Code    64  qgl.o(.text)
    QGLContext::areSharing(const QGLContext*, const QGLContext*) 0x0000ac81   Thumb Code    28  qgl.o(.text)
    QGLContextResource::cleanup(const QGLContext*, void*) 0x0000ac9d   Thumb Code    70  qgl.o(.text)
    QGLContextGroup::cleanupResources(const QGLContext*) 0x0000ace3   Thumb Code    74  qgl.o(.text)
    QGLTextureCache::instance()              0x0000ad2d   Thumb Code     8  qgl.o(.text)
    QGLTextureCache::removeContextTextures(QGLContext*) 0x0000ad35   Thumb Code    88  qgl.o(.text)
    QGLContext::~QGLContext()                0x0000ad8d   Thumb Code    54  qgl.o(.text)
    QGLContext::~QGLContext__sub_object()    0x0000ad8d   Thumb Code     0  qgl.o(.text)
    QGLContext::~QGLContext__deallocating()  0x0000adc3   Thumb Code    16  qgl.o(.text)
    QGLContextGroup::addShare(const QGLContext*, const QGLContext*) 0x0000add3   Thumb Code    76  qgl.o(.text)
    QGLContext::create(const QGLContext*)    0x0000ae1f   Thumb Code   130  qgl.o(.text)
    QGLContext::isSharing() const            0x0000aea1   Thumb Code    24  qgl.o(.text)
    QGLContext::format() const               0x0000aeb9   Thumb Code    12  qgl.o(.text)
    QGLContext::requestedFormat() const      0x0000aec5   Thumb Code    12  qgl.o(.text)
    QGLContext::setFormat(const QGLFormat&)  0x0000aed1   Thumb Code    32  qgl.o(.text)
    QGLTextureCache::insert(QGLContext*, long long, QGLTexture*, int) 0x0000aef1   Thumb Code   146  qgl.o(.text)
    QGLExtensions::glExtensions()            0x0000af83   Thumb Code    60  qgl.o(.text)
    QGLContextPrivate::bindTexture(const QImage&, unsigned, int, long long, QFlags<QGLContext::BindOption>) 0x0000afbf   Thumb Code   880  qgl.o(.text)
    QGLTextureCache::remove(QGLContext*, unsigned) 0x0000b32f   Thumb Code   130  qgl.o(.text)
    QGLContext::deleteTexture(unsigned)      0x0000b3b1   Thumb Code   168  qgl.o(.text)
    QGLContextPrivate::textureCacheLookup(long long, unsigned) 0x0000b459   Thumb Code    90  qgl.o(.text)
    QGLContextPrivate::bindTexture(const QImage&, unsigned, int, QFlags<QGLContext::BindOption>) 0x0000b4b3   Thumb Code    96  qgl.o(.text)
    QGLContext::bindTexture(const QImage&, unsigned, int, QFlags<QGLContext::BindOption>) 0x0000b513   Thumb Code    50  qgl.o(.text)
    QGLContextPrivate::bindTexture(const QPixmap&, unsigned, int, QFlags<QGLContext::BindOption>) 0x0000b545   Thumb Code   220  qgl.o(.text)
    QGLContext::bindTexture(const QPixmap&, unsigned, int, QFlags<QGLContext::BindOption>) 0x0000b621   Thumb Code    50  qgl.o(.text)
    QGLContext::bindTexture(const QImage&, unsigned, int) 0x0000b653   Thumb Code    48  qgl.o(.text)
    QGLContext::bindTexture(const QPixmap&, unsigned, int) 0x0000b683   Thumb Code    48  qgl.o(.text)
    QGLTexture::bindCompressedTexturePVR(const char*, int) 0x0000b6b3   Thumb Code   524  qgl.o(.text)
    QGLTexture::bindCompressedTextureDDS(const char*, int) 0x0000b8bf   Thumb Code   556  qgl.o(.text)
    QGLTexture::bindCompressedTexture(const char*, int, const char*) 0x0000baeb   Thumb Code   150  qgl.o(.text)
    QGLTexture::bindCompressedTexture(const QString&, const char*) 0x0000bb81   Thumb Code   100  qgl.o(.text)
    QGLContext::bindTexture(const QString&)  0x0000bbe5   Thumb Code   126  qgl.o(.text)
    QGLContext::drawTexture(const QRectF&, unsigned, unsigned) 0x0000bc63   Thumb Code   102  qgl.o(.text)
    QGLContext::drawTexture(const QPointF&, unsigned, unsigned) 0x0000bcc9   Thumb Code    12  qgl.o(.text)
    QGLContext::setTextureCacheLimit(int)    0x0000bcd5   Thumb Code    38  qgl.o(.text)
    QGLContext::textureCacheLimit()          0x0000bcfb   Thumb Code    30  qgl.o(.text)
    QGLContext::device() const               0x0000bd19   Thumb Code     6  qgl.o(.text)
    QGLContext::deviceIsPixmap() const       0x0000bd1f   Thumb Code    24  qgl.o(.text)
    QGLContext::windowCreated() const        0x0000bd37   Thumb Code    10  qgl.o(.text)
    QGLContext::setWindowCreated(bool)       0x0000bd41   Thumb Code    16  qgl.o(.text)
    QGLContext::initialized() const          0x0000bd51   Thumb Code    10  qgl.o(.text)
    QGLContext::setInitialized(bool)         0x0000bd5b   Thumb Code    16  qgl.o(.text)
    QGLContext::setValid(bool)               0x0000bd6b   Thumb Code    14  qgl.o(.text)
    QGLWidget::QGLWidget(QWidget*, const QGLWidget*, QFlags<Qt::WindowType>) 0x0000bd79   Thumb Code   268  qgl.o(.text)
    QGLWidget::QGLWidget__sub_object(QWidget*, const QGLWidget*, QFlags<Qt::WindowType>) 0x0000bd79   Thumb Code     0  qgl.o(.text)
    QGLWidget::QGLWidget(QGLContext*, QWidget*, const QGLWidget*, QFlags<Qt::WindowType>) 0x0000be85   Thumb Code   114  qgl.o(.text)
    QGLWidget::QGLWidget__sub_object(QGLContext*, QWidget*, const QGLWidget*, QFlags<Qt::WindowType>) 0x0000be85   Thumb Code     0  qgl.o(.text)
    QGLWidget::QGLWidget(const QGLFormat&, QWidget*, const QGLWidget*, QFlags<Qt::WindowType>) 0x0000bef7   Thumb Code   138  qgl.o(.text)
    QGLWidget::QGLWidget__sub_object(const QGLFormat&, QWidget*, const QGLWidget*, QFlags<Qt::WindowType>) 0x0000bef7   Thumb Code     0  qgl.o(.text)
    QGLWidget::~QGLWidget()                  0x0000bf81   Thumb Code    50  qgl.o(.text)
    QGLWidget::~QGLWidget__sub_object()      0x0000bf81   Thumb Code     0  qgl.o(.text)
    QGLWidget::~QGLWidget__deallocating()    0x0000bfb3   Thumb Code    16  qgl.o(.text)
    thunk{-8} to QGLWidget::~QGLWidget__deallocating() 0x0000bfc3   Thumb Code     4  qgl.o(.text)
    thunk{-8} to QGLWidget::~QGLWidget()     0x0000bfc7   Thumb Code     4  qgl.o(.text)
    QGLWidget::qglColor(const QColor&) const 0x0000bfcb   Thumb Code     2  qgl.o(.text)
    QGLWidget::qglClearColor(const QColor&) const 0x0000bfcd   Thumb Code    46  qgl.o(.text)
    QGLWidget::isValid() const               0x0000bffb   Thumb Code    30  qgl.o(.text)
    QGLWidget::isSharing() const             0x0000c019   Thumb Code    16  qgl.o(.text)
    QGLWidget::makeCurrent()                 0x0000c029   Thumb Code    14  qgl.o(.text)
    QGLWidget::doneCurrent()                 0x0000c037   Thumb Code    14  qgl.o(.text)
    QGLWidget::doubleBuffer() const          0x0000c045   Thumb Code    26  qgl.o(.text)
    QGLWidget::swapBuffers()                 0x0000c05f   Thumb Code    14  qgl.o(.text)
    QGLWidget::format() const                0x0000c06d   Thumb Code    16  qgl.o(.text)
    QGLWidget::setFormat(const QGLFormat&)   0x0000c07d   Thumb Code    44  qgl.o(.text)
    QGLWidget::context() const               0x0000c0a9   Thumb Code    10  qgl.o(.text)
    QGLWidget::renderPixmap(int, int, bool)  0x0000c0b3   Thumb Code   246  qgl.o(.text)
    QGLWidget::grabFrameBuffer(bool)         0x0000c1a9   Thumb Code   134  qgl.o(.text)
    QGLWidget::convertToGLFormat(const QImage&) 0x0000c22f   Thumb Code    70  qgl.o(.text)
    QGLWidget::renderText(int, int, const QString&, const QFont&, int) 0x0000c275   Thumb Code    10  qgl.o(.text)
    QGLWidget::renderText(double, double, double, const QString&, const QFont&, int) 0x0000c27f   Thumb Code    10  qgl.o(.text)
    QGLWidget::paintEngine() const           0x0000c289   Thumb Code     8  qgl.o(.text)
    thunk{-8} to QGLWidget::paintEngine() const 0x0000c291   Thumb Code     8  qgl.o(.text)
    QGLWidget::bindTexture(const QImage&, unsigned, int, QFlags<QGLContext::BindOption>) 0x0000c299   Thumb Code    54  qgl.o(.text)
    QGLWidget::bindTexture(const QPixmap&, unsigned, int, QFlags<QGLContext::BindOption>) 0x0000c2cf   Thumb Code    30  qgl.o(.text)
    QGLWidget::bindTexture(const QImage&, unsigned, int) 0x0000c2ed   Thumb Code    52  qgl.o(.text)
    QGLWidget::bindTexture(const QPixmap&, unsigned, int) 0x0000c321   Thumb Code    52  qgl.o(.text)
    QGLWidget::bindTexture(const QString&)   0x0000c355   Thumb Code    16  qgl.o(.text)
    QGLWidget::deleteTexture(unsigned)       0x0000c365   Thumb Code    16  qgl.o(.text)
    QGLWidget::drawTexture(const QRectF&, unsigned, unsigned) 0x0000c375   Thumb Code    16  qgl.o(.text)
    QGLWidget::drawTexture(const QPointF&, unsigned, unsigned) 0x0000c385   Thumb Code    16  qgl.o(.text)
    QGLWidget::updateGL()                    0x0000c395   Thumb Code    24  qgl.o(.text)
    QGLWidget::event(QEvent*)                0x0000c3ad   Thumb Code   306  qgl.o(.text)
    QGLWidget::initializeGL()                0x0000c4df   Thumb Code     2  qgl.o(.text)
    QGLWidget::resizeGL(int, int)            0x0000c4e1   Thumb Code     2  qgl.o(.text)
    QGLWidget::paintGL()                     0x0000c4e3   Thumb Code     2  qgl.o(.text)
    QGLWidget::initializeOverlayGL()         0x0000c4e5   Thumb Code     2  qgl.o(.text)
    QGLWidget::resizeOverlayGL(int, int)     0x0000c4e7   Thumb Code     2  qgl.o(.text)
    QGLWidget::paintOverlayGL()              0x0000c4e9   Thumb Code     2  qgl.o(.text)
    QGLWidget::setAutoBufferSwap(bool)       0x0000c4eb   Thumb Code    10  qgl.o(.text)
    QGLWidget::autoBufferSwap() const        0x0000c4f5   Thumb Code    10  qgl.o(.text)
    QGLWidget::paintEvent(QPaintEvent*)      0x0000c4ff   Thumb Code    34  qgl.o(.text)
    QGLWidget::glInit()                      0x0000c521   Thumb Code    44  qgl.o(.text)
    QGLWidget::glDraw()                      0x0000c54d   Thumb Code   164  qgl.o(.text)
    QGLWidget::fontDisplayListBase(const QFont&, int) 0x0000c5f1   Thumb Code     4  qgl.o(.text)
    QGLWidgetPrivate::initContext(QGLContext*, const QGLWidget*) 0x0000c5f5   Thumb Code   208  qgl.o(.text)
    QGLContextGroup::addGuard(QGLSharedResourceGuard*) 0x0000c6c5   Thumb Code    20  qgl.o(.text)
    QGLContextGroup::removeGuard(QGLSharedResourceGuard*) 0x0000c6d9   Thumb Code    28  qgl.o(.text)
    QGLContextGroup::removeShare(const QGLContext*) 0x0000c6f5   Thumb Code   194  qgl.o(.text)
    QGLContextPrivate::convertToGLFormat(const QImage&, bool, unsigned) 0x0000c7b7   Thumb Code   100  qgl.o(.text)
    QGLContextPrivate::maxTextureSize()      0x0000c81b   Thumb Code    24  qgl.o(.text)
    QGLContextPrivate::cleanup()             0x0000c833   Thumb Code     2  qgl.o(.text)
    QGLContextPrivate::setVertexAttribArrayEnabled(int, bool) 0x0000c835   Thumb Code    46  qgl.o(.text)
    QGLContextPrivate::syncGlState()         0x0000c863   Thumb Code    38  qgl.o(.text)
    QGLContextPrivate::extensionFuncs(const QGLContext*) 0x0000c889   Thumb Code     4  qgl.o(.text)
    QGLContextPrivate::setCurrentContext(QGLContext*) 0x0000c88d   Thumb Code    52  qgl.o(.text)
    QGLTexture::canBindCompressedTexture(const char*, int, const char*, bool*) 0x0000c8c1   Thumb Code   136  qgl.o(.text)
    QGLContextResource::QGLContextResource(void(*)(void*)) 0x0000c949   Thumb Code     8  qgl.o(.text)
    QGLContextResource::QGLContextResource__sub_object(void(*)(void*)) 0x0000c949   Thumb Code     0  qgl.o(.text)
    QGLContextResource::~QGLContextResource() 0x0000c951   Thumb Code     2  qgl.o(.text)
    QGLContextResource::~QGLContextResource__sub_object() 0x0000c951   Thumb Code     0  qgl.o(.text)
    QGLContextResource::insert(const QGLContext*, void*) 0x0000c953   Thumb Code    30  qgl.o(.text)
    QGLContextResource::value(const QGLContext*) 0x0000c971   Thumb Code    48  qgl.o(.text)
    QGLSharedResourceGuard::~QGLSharedResourceGuard() 0x0000c9a1   Thumb Code    20  qgl.o(.text)
    QGLSharedResourceGuard::~QGLSharedResourceGuard__sub_object() 0x0000c9a1   Thumb Code     0  qgl.o(.text)
    QGLSharedResourceGuard::setContext(const QGLContext*) 0x0000c9b5   Thumb Code    42  qgl.o(.text)
    QGL::setPreferredPaintEngine(QPaintEngine::Type) 0x0000c9df   Thumb Code    20  qgl.o(.text)
    QGLColormap::QGLColormap()               0x0000cb5d   Thumb Code    16  qglcolormap.o(.text)
    QGLColormap::QGLColormap__sub_object()   0x0000cb5d   Thumb Code     0  qglcolormap.o(.text)
    QGLColormap::QGLColormap(const QGLColormap&) 0x0000cb6d   Thumb Code    16  qglcolormap.o(.text)
    QGLColormap::QGLColormap__sub_object(const QGLColormap&) 0x0000cb6d   Thumb Code     0  qglcolormap.o(.text)
    QGLColormap::cleanup(QGLColormap::QGLColormapData*) 0x0000cb7d   Thumb Code    50  qglcolormap.o(.text)
    QGLColormap::~QGLColormap()              0x0000cbaf   Thumb Code    24  qglcolormap.o(.text)
    QGLColormap::~QGLColormap__sub_object()  0x0000cbaf   Thumb Code     0  qglcolormap.o(.text)
    QGLColormap::operator =(const QGLColormap&) 0x0000cbc7   Thumb Code    36  qglcolormap.o(.text)
    QGLColormap::isEmpty() const             0x0000cbeb   Thumb Code    36  qglcolormap.o(.text)
    QGLColormap::size() const                0x0000cc0f   Thumb Code    18  qglcolormap.o(.text)
    QGLColormap::detach_helper()             0x0000cc21   Thumb Code   114  qglcolormap.o(.text)
    QGLColormap::setEntry(int, unsigned)     0x0000cc93   Thumb Code    72  qglcolormap.o(.text)
    QGLColormap::setEntries(int, const unsigned*, int) 0x0000ccdb   Thumb Code    74  qglcolormap.o(.text)
    QGLColormap::setEntry(int, const QColor&) 0x0000cd25   Thumb Code    24  qglcolormap.o(.text)
    QGLColormap::entryRgb(int) const         0x0000cd3d   Thumb Code    30  qglcolormap.o(.text)
    QGLColormap::entryColor(int) const       0x0000cd5b   Thumb Code    38  qglcolormap.o(.text)
    QGLColormap::find(unsigned) const        0x0000cd81   Thumb Code    56  qglcolormap.o(.text)
    QGLColormap::findNearest(unsigned) const 0x0000cdb9   Thumb Code   120  qglcolormap.o(.text)
    qgl_cleanup_glyph_cache(QGLContext*)     0x0000ce39   Thumb Code     2  qglpixelbuffer.o(.text)
    QGLPBufferGLPaintDevice::setPBuffer(QGLPixelBuffer*) 0x0000ce3b   Thumb Code     4  qglpixelbuffer.o(.text)
    QGLPixelBufferPrivate::common_init(const QSize&, const QGLFormat&, QGLWidget*) 0x0000ce3f   Thumb Code   176  qglpixelbuffer.o(.text)
    QGLPixelBuffer::QGLPixelBuffer(const QSize&, const QGLFormat&, QGLWidget*) 0x0000ceef   Thumb Code    56  qglpixelbuffer.o(.text)
    QGLPixelBuffer::QGLPixelBuffer__sub_object(const QSize&, const QGLFormat&, QGLWidget*) 0x0000ceef   Thumb Code     0  qglpixelbuffer.o(.text)
    QGLPixelBuffer::QGLPixelBuffer(int, int, const QGLFormat&, QGLWidget*) 0x0000cf27   Thumb Code    64  qglpixelbuffer.o(.text)
    QGLPixelBuffer::QGLPixelBuffer__sub_object(int, int, const QGLFormat&, QGLWidget*) 0x0000cf27   Thumb Code     0  qglpixelbuffer.o(.text)
    QGLPixelBuffer::makeCurrent()            0x0000cf67   Thumb Code    26  qglpixelbuffer.o(.text)
    QGLPixelBuffer::~QGLPixelBuffer()        0x0000cf81   Thumb Code    82  qglpixelbuffer.o(.text)
    QGLPixelBuffer::~QGLPixelBuffer__sub_object() 0x0000cf81   Thumb Code     0  qglpixelbuffer.o(.text)
    QGLPixelBuffer::~QGLPixelBuffer__deallocating() 0x0000cfd3   Thumb Code    16  qglpixelbuffer.o(.text)
    QGLPixelBuffer::isValid() const          0x0000cfe3   Thumb Code    14  qglpixelbuffer.o(.text)
    QGLPixelBuffer::doneCurrent()            0x0000cff1   Thumb Code    26  qglpixelbuffer.o(.text)
    QGLPixelBuffer::updateDynamicTexture(unsigned) const 0x0000d00b   Thumb Code    44  qglpixelbuffer.o(.text)
    QGLPixelBuffer::bindTexture(const QImage&, unsigned) 0x0000d037   Thumb Code    14  qglpixelbuffer.o(.text)
    QGLPixelBuffer::bindTexture(const QPixmap&, unsigned) 0x0000d045   Thumb Code    14  qglpixelbuffer.o(.text)
    QGLPixelBuffer::bindTexture(const QString&) 0x0000d053   Thumb Code    12  qglpixelbuffer.o(.text)
    QGLPixelBuffer::deleteTexture(unsigned)  0x0000d05f   Thumb Code    12  qglpixelbuffer.o(.text)
    QGLPixelBuffer::drawTexture(const QRectF&, unsigned, unsigned) 0x0000d06b   Thumb Code    12  qglpixelbuffer.o(.text)
    QGLPixelBuffer::drawTexture(const QPointF&, unsigned, unsigned) 0x0000d077   Thumb Code    12  qglpixelbuffer.o(.text)
    QGLPixelBuffer::size() const             0x0000d083   Thumb Code    14  qglpixelbuffer.o(.text)
    QGLPixelBuffer::handle() const           0x0000d091   Thumb Code    16  qglpixelbuffer.o(.text)
    QGLPixelBuffer::toImage() const          0x0000d0a1   Thumb Code    56  qglpixelbuffer.o(.text)
    QGLPixelBuffer::paintEngine() const      0x0000d0d9   Thumb Code     8  qglpixelbuffer.o(.text)
    QGLPixelBuffer::format() const           0x0000d0e1   Thumb Code    12  qglpixelbuffer.o(.text)
    QGLPixelBuffer::metric(QPaintDevice::PaintDeviceMetric) const 0x0000d0ed   Thumb Code   148  qglpixelbuffer.o(.text)
    QGLPBufferGLPaintDevice::context() const 0x0000d181   Thumb Code     8  qglpixelbuffer.o(.text)
    QGLPBufferGLPaintDevice::endPaint()      0x0000d189   Thumb Code    16  qglpixelbuffer.o(.text)
    QGLFramebufferObjectFormat::~QGLFramebufferObjectFormat() 0x0000d261   Thumb Code    24  qglframebufferobject.o(.text)
    QGLFramebufferObjectFormat::~QGLFramebufferObjectFormat__sub_object() 0x0000d261   Thumb Code     0  qglframebufferobject.o(.text)
    QGLFramebufferObjectFormat::detach()     0x0000d279   Thumb Code    66  qglframebufferobject.o(.text)
    QGLFramebufferObjectFormat::setInternalTextureFormat(unsigned) 0x0000d2bb   Thumb Code    16  qglframebufferobject.o(.text)
    QGLFramebufferObjectFormat::setAttachment(QGLFramebufferObject::Attachment) 0x0000d2cb   Thumb Code    16  qglframebufferobject.o(.text)
    QGLFramebufferObjectFormat::setSamples(int) 0x0000d2db   Thumb Code    16  qglframebufferobject.o(.text)
    QGLFramebufferObjectFormat::setTextureTarget(unsigned) 0x0000d2eb   Thumb Code    16  qglframebufferobject.o(.text)
    QGLFramebufferObjectPrivate::checkFramebufferStatus() const 0x0000d2fb   Thumb Code   248  qglframebufferobject.o(.text)
    QGLFramebufferObjectFormat::QGLFramebufferObjectFormat(const QGLFramebufferObjectFormat&) 0x0000d3f3   Thumb Code    16  qglframebufferobject.o(.text)
    QGLFramebufferObjectFormat::QGLFramebufferObjectFormat__sub_object(const QGLFramebufferObjectFormat&) 0x0000d3f3   Thumb Code     0  qglframebufferobject.o(.text)
    QGLFramebufferObject::format() const     0x0000d403   Thumb Code     6  qglframebufferobject.o(.text)
    QGLFramebufferObjectFormat::internalTextureFormat() const 0x0000d409   Thumb Code     6  qglframebufferobject.o(.text)
    QGLFBOGLPaintDevice::setFBO(QGLFramebufferObject*, QGLFramebufferObject::Attachment) 0x0000d40f   Thumb Code   112  qglframebufferobject.o(.text)
    QGLFramebufferObjectPrivate::init(QGLFramebufferObject*, const QSize&, QGLFramebufferObject::Attachment, unsigned, unsigned, int) 0x0000d47f   Thumb Code  1294  qglframebufferobject.o(.text)
    QGLFramebufferObjectFormat::QGLFramebufferObjectFormat() 0x0000d98d   Thumb Code    34  qglframebufferobject.o(.text)
    QGLFramebufferObjectFormat::QGLFramebufferObjectFormat__sub_object() 0x0000d98d   Thumb Code     0  qglframebufferobject.o(.text)
    QGLFramebufferObject::QGLFramebufferObject(const QSize&, unsigned) 0x0000d9af   Thumb Code    66  qglframebufferobject.o(.text)
    QGLFramebufferObject::QGLFramebufferObject__sub_object(const QSize&, unsigned) 0x0000d9af   Thumb Code     0  qglframebufferobject.o(.text)
    QGLFramebufferObject::QGLFramebufferObject(int, int, unsigned) 0x0000d9f1   Thumb Code    76  qglframebufferobject.o(.text)
    QGLFramebufferObject::QGLFramebufferObject__sub_object(int, int, unsigned) 0x0000d9f1   Thumb Code     0  qglframebufferobject.o(.text)
    QGLFramebufferObject::QGLFramebufferObject(const QSize&, QGLFramebufferObject::Attachment, unsigned, unsigned) 0x0000da3d   Thumb Code    70  qglframebufferobject.o(.text)
    QGLFramebufferObject::QGLFramebufferObject__sub_object(const QSize&, QGLFramebufferObject::Attachment, unsigned, unsigned) 0x0000da3d   Thumb Code     0  qglframebufferobject.o(.text)
    QGLFramebufferObject::QGLFramebufferObject(int, int, QGLFramebufferObject::Attachment, unsigned, unsigned) 0x0000da83   Thumb Code    76  qglframebufferobject.o(.text)
    QGLFramebufferObject::QGLFramebufferObject__sub_object(int, int, QGLFramebufferObject::Attachment, unsigned, unsigned) 0x0000da83   Thumb Code     0  qglframebufferobject.o(.text)
    QGLFramebufferObjectFormat::samples() const 0x0000dacf   Thumb Code     6  qglframebufferobject.o(.text)
    QGLFramebufferObjectFormat::textureTarget() const 0x0000dad5   Thumb Code     6  qglframebufferobject.o(.text)
    QGLFramebufferObjectFormat::attachment() const 0x0000dadb   Thumb Code     6  qglframebufferobject.o(.text)
    QGLFramebufferObject::QGLFramebufferObject(const QSize&, const QGLFramebufferObjectFormat&) 0x0000dae1   Thumb Code    70  qglframebufferobject.o(.text)
    QGLFramebufferObject::QGLFramebufferObject__sub_object(const QSize&, const QGLFramebufferObjectFormat&) 0x0000dae1   Thumb Code     0  qglframebufferobject.o(.text)
    QGLFramebufferObject::QGLFramebufferObject(int, int, const QGLFramebufferObjectFormat&) 0x0000db27   Thumb Code   102  qglframebufferobject.o(.text)
    QGLFramebufferObject::QGLFramebufferObject__sub_object(int, int, const QGLFramebufferObjectFormat&) 0x0000db27   Thumb Code     0  qglframebufferobject.o(.text)
    QGLFramebufferObject::isValid() const    0x0000db8d   Thumb Code    26  qglframebufferobject.o(.text)
    QGLFramebufferObject::~QGLFramebufferObject() 0x0000dba7   Thumb Code   194  qglframebufferobject.o(.text)
    QGLFramebufferObject::~QGLFramebufferObject__sub_object() 0x0000dba7   Thumb Code     0  qglframebufferobject.o(.text)
    QGLFramebufferObject::~QGLFramebufferObject__deallocating() 0x0000dc69   Thumb Code    16  qglframebufferobject.o(.text)
    QGLFramebufferObject::isBound() const    0x0000dc79   Thumb Code    34  qglframebufferobject.o(.text)
    QGLFramebufferObject::bind()             0x0000dc9b   Thumb Code    72  qglframebufferobject.o(.text)
    QGLFramebufferObject::release()          0x0000dce3   Thumb Code    54  qglframebufferobject.o(.text)
    QGLFramebufferObject::texture() const    0x0000dd19   Thumb Code     6  qglframebufferobject.o(.text)
    QGLFramebufferObject::size() const       0x0000dd1f   Thumb Code    14  qglframebufferobject.o(.text)
    QGLFramebufferObject::handle() const     0x0000dd2d   Thumb Code     6  qglframebufferobject.o(.text)
    QGLFramebufferObject::blitFramebuffer(QGLFramebufferObject*, const QRect&, QGLFramebufferObject*, const QRect&, unsigned, unsigned) 0x0000dd33   Thumb Code   238  qglframebufferobject.o(.text)
    QGLFramebufferObject::toImage() const    0x0000de21   Thumb Code   232  qglframebufferobject.o(.text)
    QGLFramebufferObject::attachment() const 0x0000df09   Thumb Code    16  qglframebufferobject.o(.text)
    QGLFramebufferObject::paintEngine() const 0x0000df19   Thumb Code    68  qglframebufferobject.o(.text)
    QGLFramebufferObject::bindDefault()      0x0000df5d   Thumb Code    72  qglframebufferobject.o(.text)
    QGLFramebufferObject::hasOpenGLFramebufferObjects() 0x0000dfa5   Thumb Code    26  qglframebufferobject.o(.text)
    QGLFramebufferObject::drawTexture(const QRectF&, unsigned, unsigned) 0x0000dfbf   Thumb Code    24  qglframebufferobject.o(.text)
    QGLFramebufferObject::drawTexture(const QPointF&, unsigned, unsigned) 0x0000dfd7   Thumb Code    24  qglframebufferobject.o(.text)
    QGLFramebufferObject::hasOpenGLFramebufferBlit() 0x0000dfef   Thumb Code    28  qglframebufferobject.o(.text)
    QGLFramebufferObject::metric(QPaintDevice::PaintDeviceMetric) const 0x0000e00b   Thumb Code   148  qglframebufferobject.o(.text)
    QGLFramebufferObjectFormat::operator =(const QGLFramebufferObjectFormat&) 0x0000e09f   Thumb Code    42  qglframebufferobject.o(.text)
    QGLFramebufferObjectFormat::operator ==(const QGLFramebufferObjectFormat&) const 0x0000e0c9   Thumb Code    48  qglframebufferobject.o(.text)
    QGLFramebufferObjectFormat::operator !=(const QGLFramebufferObjectFormat&) const 0x0000e0f9   Thumb Code    12  qglframebufferobject.o(.text)
    QGLFBOGLPaintDevice::context() const     0x0000e105   Thumb Code    32  qglframebufferobject.o(.text)
    qt_resolve_framebufferobject_extensions(QGLContext*) 0x0000e277   Thumb Code    88  qglextensions.o(.text)
    qt_resolve_buffer_extensions(QGLContext*) 0x0000e2cf   Thumb Code   438  qglextensions.o(.text)
    qt_resolve_eglimage_gl_extensions(QGLContext*) 0x0000e485   Thumb Code   132  qglextensions.o(.text)
    qt_resolve_glsl_extensions(QGLContext*)  0x0000e509   Thumb Code   102  qglextensions.o(.text)
    QGLPaintDevice::QGLPaintDevice__sub_object() 0x0000e5e5   Thumb Code    16  qglpaintdevice.o(.text)
    QGLPaintDevice::~QGLPaintDevice()        0x0000e5f5   Thumb Code     0  qglpaintdevice.o(.text)
    QGLPaintDevice::~QGLPaintDevice__sub_object() 0x0000e5f5   Thumb Code     8  qglpaintdevice.o(.text)
    QGLPaintDevice::~QGLPaintDevice__deallocating() 0x0000e5fd   Thumb Code    16  qglpaintdevice.o(.text)
    QGLPaintDevice::beginPaint()             0x0000e60d   Thumb Code    62  qglpaintdevice.o(.text)
    QGLPaintDevice::ensureActiveTarget()     0x0000e64b   Thumb Code    58  qglpaintdevice.o(.text)
    QGLPaintDevice::endPaint()               0x0000e685   Thumb Code    42  qglpaintdevice.o(.text)
    QGLPaintDevice::format() const           0x0000e6af   Thumb Code    22  qglpaintdevice.o(.text)
    QGLPaintDevice::alphaRequested() const   0x0000e6c5   Thumb Code    24  qglpaintdevice.o(.text)
    QGLPaintDevice::getDevice(QPaintDevice*) 0x0000e6dd   Thumb Code   102  qglpaintdevice.o(.text)
    QGLPaintDevice::metric(QPaintDevice::PaintDeviceMetric) const 0x0000e743   Thumb Code   104  qglpaintdevice.o(.text)
    QGLWidgetGLPaintDevice::QGLWidgetGLPaintDevice() 0x0000e7ab   Thumb Code    12  qglpaintdevice.o(.text)
    QGLWidgetGLPaintDevice::QGLWidgetGLPaintDevice__sub_object() 0x0000e7ab   Thumb Code     0  qglpaintdevice.o(.text)
    QGLWidgetGLPaintDevice::paintEngine() const 0x0000e7b7   Thumb Code     8  qglpaintdevice.o(.text)
    QGLWidgetGLPaintDevice::beginPaint()     0x0000e7bf   Thumb Code   170  qglpaintdevice.o(.text)
    QGLWidgetGLPaintDevice::endPaint()       0x0000e869   Thumb Code    28  qglpaintdevice.o(.text)
    QGLWidgetGLPaintDevice::size() const     0x0000e885   Thumb Code    28  qglpaintdevice.o(.text)
    QGLWidgetGLPaintDevice::context() const  0x0000e8a1   Thumb Code    10  qglpaintdevice.o(.text)
    QGLWidgetGLPaintDevice::setWidget(QGLWidget*) 0x0000e8ab   Thumb Code     4  qglpaintdevice.o(.text)
    QGLBuffer::QGLBuffer()                   0x0000e951   Thumb Code    24  qglbuffer.o(.text)
    QGLBuffer::QGLBuffer__sub_object()       0x0000e951   Thumb Code     0  qglbuffer.o(.text)
    QGLBuffer::QGLBuffer(QGLBuffer::Type)    0x0000e969   Thumb Code    26  qglbuffer.o(.text)
    QGLBuffer::QGLBuffer__sub_object(QGLBuffer::Type) 0x0000e969   Thumb Code     0  qglbuffer.o(.text)
    QGLBuffer::QGLBuffer(const QGLBuffer&)   0x0000e983   Thumb Code    16  qglbuffer.o(.text)
    QGLBuffer::QGLBuffer__sub_object(const QGLBuffer&) 0x0000e983   Thumb Code     0  qglbuffer.o(.text)
    QGLBuffer::destroy()                     0x0000e993   Thumb Code    90  qglbuffer.o(.text)
    QGLBuffer::~QGLBuffer()                  0x0000e9ed   Thumb Code    42  qglbuffer.o(.text)
    QGLBuffer::~QGLBuffer__sub_object()      0x0000e9ed   Thumb Code     0  qglbuffer.o(.text)
    QGLBuffer::operator =(const QGLBuffer&)  0x0000ea17   Thumb Code    42  qglbuffer.o(.text)
    QGLBuffer::type() const                  0x0000ea41   Thumb Code     6  qglbuffer.o(.text)
    QGLBuffer::usagePattern() const          0x0000ea47   Thumb Code     6  qglbuffer.o(.text)
    QGLBuffer::setUsagePattern(QGLBuffer::UsagePattern) 0x0000ea4d   Thumb Code     8  qglbuffer.o(.text)
    QGLBuffer::create()                      0x0000ea55   Thumb Code    70  qglbuffer.o(.text)
    QGLBuffer::isCreated() const             0x0000ea9b   Thumb Code    16  qglbuffer.o(.text)
    QGLBuffer::bind()                        0x0000eaab   Thumb Code    50  qglbuffer.o(.text)
    QGLBuffer::release()                     0x0000eadd   Thumb Code    20  qglbuffer.o(.text)
    QGLBuffer::release(QGLBuffer::Type)      0x0000eaf1   Thumb Code    30  qglbuffer.o(.text)
    QGLBuffer::bufferId() const              0x0000eb0f   Thumb Code     6  qglbuffer.o(.text)
    QGLBuffer::size() const                  0x0000eb15   Thumb Code    30  qglbuffer.o(.text)
    QGLBuffer::read(int, void*, int)         0x0000eb33   Thumb Code     4  qglbuffer.o(.text)
    QGLBuffer::write(int, const void*, int)  0x0000eb37   Thumb Code    24  qglbuffer.o(.text)
    QGLBuffer::allocate(const void*, int)    0x0000eb4f   Thumb Code    26  qglbuffer.o(.text)
    QGLBuffer::map(QGLBuffer::Access)        0x0000eb69   Thumb Code    56  qglbuffer.o(.text)
    QGLBuffer::unmap()                       0x0000eba1   Thumb Code    56  qglbuffer.o(.text)
    QGLShaderPrivate::create()               0x0000ebe1   Thumb Code    82  qglshaderprogram.o(.text)
    QGLShader::QGLShader(QFlags<QGLShader::ShaderTypeBit>, QObject*) 0x0000ec33   Thumb Code    70  qglshaderprogram.o(.text)
    QGLShader::QGLShader__sub_object(QFlags<QGLShader::ShaderTypeBit>, QObject*) 0x0000ec33   Thumb Code     0  qglshaderprogram.o(.text)
    QGLShader::QGLShader(QFlags<QGLShader::ShaderTypeBit>, const QGLContext*, QObject*) 0x0000ec79   Thumb Code    72  qglshaderprogram.o(.text)
    QGLShader::QGLShader__sub_object(QFlags<QGLShader::ShaderTypeBit>, const QGLContext*, QObject*) 0x0000ec79   Thumb Code     0  qglshaderprogram.o(.text)
    QGLShader::~QGLShader()                  0x0000ecc1   Thumb Code     8  qglshaderprogram.o(.text)
    QGLShader::~QGLShader__sub_object()      0x0000ecc1   Thumb Code     0  qglshaderprogram.o(.text)
    QGLShader::~QGLShader__deallocating()    0x0000ecc9   Thumb Code    16  qglshaderprogram.o(.text)
    QGLShader::shaderType() const            0x0000ecd9   Thumb Code     8  qglshaderprogram.o(.text)
    QGLShaderPrivate::compile(QGLShader*)    0x0000ece1   Thumb Code   224  qglshaderprogram.o(.text)
    QGLShader::compileSourceCode(const char*) 0x0000edc1   Thumb Code   234  qglshaderprogram.o(.text)
    QGLShader::compileSourceCode(const QByteArray&) 0x0000eeab   Thumb Code     6  qglshaderprogram.o(.text)
    QGLShader::compileSourceCode(const QString&) 0x0000eeb1   Thumb Code    32  qglshaderprogram.o(.text)
    QGLShader::compileSourceFile(const QString&) 0x0000eed1   Thumb Code   104  qglshaderprogram.o(.text)
    QGLShader::sourceCode() const            0x0000ef39   Thumb Code    92  qglshaderprogram.o(.text)
    QGLShader::isCompiled() const            0x0000ef95   Thumb Code   160  qglshaderprogram.o(.text)
    QGLShader::log() const                   0x0000f035   Thumb Code    12  qglshaderprogram.o(.text)
    QGLShader::shaderId() const              0x0000f041   Thumb Code     6  qglshaderprogram.o(.text)
    QGLShader::hasOpenGLShaders(QFlags<QGLShader::ShaderTypeBit>, const QGLContext*) 0x0000f047   Thumb Code   156  qglshaderprogram.o(.text)
    QGLShaderProgram::QGLShaderProgram(QObject*) 0x0000f0e3   Thumb Code    48  qglshaderprogram.o(.text)
    QGLShaderProgram::QGLShaderProgram__sub_object(QObject*) 0x0000f0e3   Thumb Code     0  qglshaderprogram.o(.text)
    QGLShaderProgram::QGLShaderProgram(const QGLContext*, QObject*) 0x0000f113   Thumb Code    44  qglshaderprogram.o(.text)
    QGLShaderProgram::QGLShaderProgram__sub_object(const QGLContext*, QObject*) 0x0000f113   Thumb Code     0  qglshaderprogram.o(.text)
    QGLShaderProgram::~QGLShaderProgram()    0x0000f13f   Thumb Code     8  qglshaderprogram.o(.text)
    QGLShaderProgram::~QGLShaderProgram__sub_object() 0x0000f13f   Thumb Code     0  qglshaderprogram.o(.text)
    QGLShaderProgram::~QGLShaderProgram__deallocating() 0x0000f147   Thumb Code    16  qglshaderprogram.o(.text)
    QGLShaderProgram::init()                 0x0000f157   Thumb Code   120  qglshaderprogram.o(.text)
    QGLShaderProgram::addShader(QGLShader*)  0x0000f1cf   Thumb Code   184  qglshaderprogram.o(.text)
    QGLShaderProgram::removeShader(QGLShader*) 0x0000f287   Thumb Code   110  qglshaderprogram.o(.text)
    QGLShaderProgram::shaders() const        0x0000f2f5   Thumb Code    12  qglshaderprogram.o(.text)
    QGLShaderProgram::addShaderFromSourceCode(QFlags<QGLShader::ShaderTypeBit>, const char*) 0x0000f301   Thumb Code   114  qglshaderprogram.o(.text)
    QGLShaderProgram::addShaderFromSourceCode(QFlags<QGLShader::ShaderTypeBit>, const QByteArray&) 0x0000f373   Thumb Code    18  qglshaderprogram.o(.text)
    QGLShaderProgram::addShaderFromSourceCode(QFlags<QGLShader::ShaderTypeBit>, const QString&) 0x0000f385   Thumb Code    42  qglshaderprogram.o(.text)
    QGLShaderProgram::addShaderFromSourceFile(QFlags<QGLShader::ShaderTypeBit>, const QString&) 0x0000f3af   Thumb Code   114  qglshaderprogram.o(.text)
    QGLShaderProgram::removeAllShaders()     0x0000f421   Thumb Code   372  qglshaderprogram.o(.text)
    QGLShaderProgram::link()                 0x0000f595   Thumb Code   448  qglshaderprogram.o(.text)
    QGLShaderProgram::isLinked() const       0x0000f755   Thumb Code     8  qglshaderprogram.o(.text)
    QGLShaderProgram::log() const            0x0000f75d   Thumb Code    12  qglshaderprogram.o(.text)
    QGLShaderProgram::bind()                 0x0000f769   Thumb Code    42  qglshaderprogram.o(.text)
    QGLShaderProgram::release()              0x0000f793   Thumb Code    10  qglshaderprogram.o(.text)
    QGLShaderProgram::programId() const      0x0000f79d   Thumb Code    30  qglshaderprogram.o(.text)
    QGLShaderProgram::maxGeometryOutputVertices() const 0x0000f7bb   Thumb Code    16  qglshaderprogram.o(.text)
    QGLShaderProgram::setGeometryOutputVertexCount(int) 0x0000f7cb   Thumb Code     6  qglshaderprogram.o(.text)
    QGLShaderProgram::geometryOutputVertexCount() const 0x0000f7d1   Thumb Code     6  qglshaderprogram.o(.text)
    QGLShaderProgram::setGeometryInputType(unsigned) 0x0000f7d7   Thumb Code     6  qglshaderprogram.o(.text)
    QGLShaderProgram::geometryInputType() const 0x0000f7dd   Thumb Code     6  qglshaderprogram.o(.text)
    QGLShaderProgram::setGeometryOutputType(unsigned) 0x0000f7e3   Thumb Code     6  qglshaderprogram.o(.text)
    QGLShaderProgram::geometryOutputType() const 0x0000f7e9   Thumb Code     6  qglshaderprogram.o(.text)
    QGLShaderProgram::bindAttributeLocation(const char*, int) 0x0000f7ef   Thumb Code    34  qglshaderprogram.o(.text)
    QGLShaderProgram::bindAttributeLocation(const QByteArray&, int) 0x0000f811   Thumb Code     6  qglshaderprogram.o(.text)
    QGLShaderProgram::bindAttributeLocation(const QString&, int) 0x0000f817   Thumb Code    32  qglshaderprogram.o(.text)
    QGLShaderProgram::attributeLocation(const char*) const 0x0000f837   Thumb Code    62  qglshaderprogram.o(.text)
    QGLShaderProgram::attributeLocation(const QByteArray&) const 0x0000f875   Thumb Code     6  qglshaderprogram.o(.text)
    QGLShaderProgram::attributeLocation(const QString&) const 0x0000f87b   Thumb Code    32  qglshaderprogram.o(.text)
    QGLShaderProgram::setAttributeValue(int, float) 0x0000f89b   Thumb Code    16  qglshaderprogram.o(.text)
    QGLShaderProgram::setAttributeValue(int, float, float) 0x0000f8ab   Thumb Code    22  qglshaderprogram.o(.text)
    QGLShaderProgram::setAttributeValue(int, float, float, float) 0x0000f8c1   Thumb Code    26  qglshaderprogram.o(.text)
    QGLShaderProgram::setAttributeValue(int, float, float, float, float) 0x0000f8db   Thumb Code    28  qglshaderprogram.o(.text)
    QGLShaderProgram::setAttributeValue(int, const QVector2D&) 0x0000f8f7   Thumb Code    16  qglshaderprogram.o(.text)
    QGLShaderProgram::setAttributeValue(int, const QVector3D&) 0x0000f907   Thumb Code    16  qglshaderprogram.o(.text)
    QGLShaderProgram::setAttributeValue(int, const QVector4D&) 0x0000f917   Thumb Code    16  qglshaderprogram.o(.text)
    QGLShaderProgram::setAttributeValue(int, const QColor&) 0x0000f927   Thumb Code    52  qglshaderprogram.o(.text)
    QGLShaderProgram::setAttributeValue(int, const float*, int, int) 0x0000f95b   Thumb Code   310  qglshaderprogram.o(.text)
    QGLShaderProgram::setAttributeValue(const char*, float) 0x0000fa91   Thumb Code    22  qglshaderprogram.o(.text)
    QGLShaderProgram::setAttributeValue(const char*, float, float) 0x0000faa7   Thumb Code    26  qglshaderprogram.o(.text)
    QGLShaderProgram::setAttributeValue(const char*, float, float, float) 0x0000fac1   Thumb Code    30  qglshaderprogram.o(.text)
    QGLShaderProgram::setAttributeValue(const char*, float, float, float, float) 0x0000fadf   Thumb Code    36  qglshaderprogram.o(.text)
    QGLShaderProgram::setAttributeValue(const char*, const QVector2D&) 0x0000fb03   Thumb Code    22  qglshaderprogram.o(.text)
    QGLShaderProgram::setAttributeValue(const char*, const QVector3D&) 0x0000fb19   Thumb Code    22  qglshaderprogram.o(.text)
    QGLShaderProgram::setAttributeValue(const char*, const QVector4D&) 0x0000fb2f   Thumb Code    22  qglshaderprogram.o(.text)
    QGLShaderProgram::setAttributeValue(const char*, const QColor&) 0x0000fb45   Thumb Code    22  qglshaderprogram.o(.text)
    QGLShaderProgram::setAttributeValue(const char*, const float*, int, int) 0x0000fb5b   Thumb Code    30  qglshaderprogram.o(.text)
    QGLShaderProgram::setAttributeArray(int, const float*, int, int) 0x0000fb79   Thumb Code    28  qglshaderprogram.o(.text)
    QGLShaderProgram::setAttributeArray(int, const QVector2D*, int) 0x0000fb95   Thumb Code    26  qglshaderprogram.o(.text)
    QGLShaderProgram::setAttributeArray(int, const QVector3D*, int) 0x0000fbaf   Thumb Code    26  qglshaderprogram.o(.text)
    QGLShaderProgram::setAttributeArray(int, const QVector4D*, int) 0x0000fbc9   Thumb Code    26  qglshaderprogram.o(.text)
    QGLShaderProgram::setAttributeArray(int, unsigned, const void*, int, int) 0x0000fbe3   Thumb Code    32  qglshaderprogram.o(.text)
    QGLShaderProgram::setAttributeArray(const char*, const float*, int, int) 0x0000fc03   Thumb Code    30  qglshaderprogram.o(.text)
    QGLShaderProgram::setAttributeArray(const char*, const QVector2D*, int) 0x0000fc21   Thumb Code    26  qglshaderprogram.o(.text)
    QGLShaderProgram::setAttributeArray(const char*, const QVector3D*, int) 0x0000fc3b   Thumb Code    26  qglshaderprogram.o(.text)
    QGLShaderProgram::setAttributeArray(const char*, const QVector4D*, int) 0x0000fc55   Thumb Code    26  qglshaderprogram.o(.text)
    QGLShaderProgram::setAttributeArray(const char*, unsigned, const void*, int, int) 0x0000fc6f   Thumb Code    36  qglshaderprogram.o(.text)
    QGLShaderProgram::setAttributeBuffer(int, unsigned, int, int, int) 0x0000fc93   Thumb Code    32  qglshaderprogram.o(.text)
    QGLShaderProgram::setAttributeBuffer(const char*, unsigned, int, int, int) 0x0000fcb3   Thumb Code    36  qglshaderprogram.o(.text)
    QGLShaderProgram::enableAttributeArray(int) 0x0000fcd7   Thumb Code    14  qglshaderprogram.o(.text)
    QGLShaderProgram::enableAttributeArray(const char*) 0x0000fce5   Thumb Code    18  qglshaderprogram.o(.text)
    QGLShaderProgram::disableAttributeArray(int) 0x0000fcf7   Thumb Code    14  qglshaderprogram.o(.text)
    QGLShaderProgram::disableAttributeArray(const char*) 0x0000fd05   Thumb Code    18  qglshaderprogram.o(.text)
    QGLShaderProgram::uniformLocation(const char*) const 0x0000fd17   Thumb Code    62  qglshaderprogram.o(.text)
    QGLShaderProgram::uniformLocation(const QByteArray&) const 0x0000fd55   Thumb Code     6  qglshaderprogram.o(.text)
    QGLShaderProgram::uniformLocation(const QString&) const 0x0000fd5b   Thumb Code    32  qglshaderprogram.o(.text)
    QGLShaderProgram::setUniformValue(int, float) 0x0000fd7b   Thumb Code    18  qglshaderprogram.o(.text)
    QGLShaderProgram::setUniformValue(int, int) 0x0000fd8d   Thumb Code    16  qglshaderprogram.o(.text)
    QGLShaderProgram::setUniformValue(int, unsigned) 0x0000fd9d   Thumb Code    16  qglshaderprogram.o(.text)
    QGLShaderProgram::setUniformValue(int, float, float) 0x0000fdad   Thumb Code    24  qglshaderprogram.o(.text)
    QGLShaderProgram::setUniformValue(int, float, float, float) 0x0000fdc5   Thumb Code    28  qglshaderprogram.o(.text)
    QGLShaderProgram::setUniformValue(int, float, float, float, float) 0x0000fde1   Thumb Code    30  qglshaderprogram.o(.text)
    QGLShaderProgram::setUniformValue(int, const QVector2D&) 0x0000fdff   Thumb Code    16  qglshaderprogram.o(.text)
    QGLShaderProgram::setUniformValue(int, const QVector3D&) 0x0000fe0f   Thumb Code    16  qglshaderprogram.o(.text)
    QGLShaderProgram::setUniformValue(int, const QVector4D&) 0x0000fe1f   Thumb Code    16  qglshaderprogram.o(.text)
    QGLShaderProgram::setUniformValue(int, const QColor&) 0x0000fe2f   Thumb Code    54  qglshaderprogram.o(.text)
    QGLShaderProgram::setUniformValue(int, const QPoint&) 0x0000fe65   Thumb Code    48  qglshaderprogram.o(.text)
    QGLShaderProgram::setUniformValue(int, const QPointF&) 0x0000fe95   Thumb Code    38  qglshaderprogram.o(.text)
    QGLShaderProgram::setUniformValue(int, const QSize&) 0x0000febb   Thumb Code    48  qglshaderprogram.o(.text)
    QGLShaderProgram::setUniformValue(int, const QSizeF&) 0x0000feeb   Thumb Code    38  qglshaderprogram.o(.text)
    QGLShaderProgram::setUniformValue(int, const QGenericMatrix<(int)2, (int)2, float>&) 0x0000ff11   Thumb Code    64  qglshaderprogram.o(.text)
    QGLShaderProgram::setUniformValue(int, const QGenericMatrix<(int)2, (int)3, float>&) 0x0000ff51   Thumb Code    16  qglshaderprogram.o(.text)
    QGLShaderProgram::setUniformValue(int, const QGenericMatrix<(int)2, (int)4, float>&) 0x0000ff61   Thumb Code    16  qglshaderprogram.o(.text)
    QGLShaderProgram::setUniformValue(int, const QGenericMatrix<(int)3, (int)2, float>&) 0x0000ff71   Thumb Code    16  qglshaderprogram.o(.text)
    QGLShaderProgram::setUniformValue(int, const QGenericMatrix<(int)3, (int)3, float>&) 0x0000ff81   Thumb Code    20  qglshaderprogram.o(.text)
    QGLShaderProgram::setUniformValue(int, const QGenericMatrix<(int)3, (int)4, float>&) 0x0000ff95   Thumb Code    16  qglshaderprogram.o(.text)
    QGLShaderProgram::setUniformValue(int, const QGenericMatrix<(int)4, (int)2, float>&) 0x0000ffa5   Thumb Code    16  qglshaderprogram.o(.text)
    QGLShaderProgram::setUniformValue(int, const QGenericMatrix<(int)4, (int)3, float>&) 0x0000ffb5   Thumb Code    16  qglshaderprogram.o(.text)
    QGLShaderProgram::setUniformValue(int, const QMatrix4x4&) 0x0000ffc5   Thumb Code    20  qglshaderprogram.o(.text)
    QGLShaderProgram::setUniformValue(int, const float(*)[2]) 0x0000ffd9   Thumb Code    20  qglshaderprogram.o(.text)
    QGLShaderProgram::setUniformValue(int, const float(*)[3]) 0x0000ffed   Thumb Code    20  qglshaderprogram.o(.text)
    QGLShaderProgram::setUniformValue(int, const float(*)[4]) 0x00010001   Thumb Code    20  qglshaderprogram.o(.text)
    QGLShaderProgram::setUniformValue(int, const QTransform&) 0x00010015   Thumb Code    60  qglshaderprogram.o(.text)
    QGLShaderProgram::setUniformValue(const char*, float) 0x00010051   Thumb Code    22  qglshaderprogram.o(.text)
    QGLShaderProgram::setUniformValue(const char*, int) 0x00010067   Thumb Code    22  qglshaderprogram.o(.text)
    QGLShaderProgram::setUniformValue(const char*, unsigned) 0x0001007d   Thumb Code    22  qglshaderprogram.o(.text)
    QGLShaderProgram::setUniformValue(const char*, float, float) 0x00010093   Thumb Code    26  qglshaderprogram.o(.text)
    QGLShaderProgram::setUniformValue(const char*, float, float, float) 0x000100ad   Thumb Code    30  qglshaderprogram.o(.text)
    QGLShaderProgram::setUniformValue(const char*, float, float, float, float) 0x000100cb   Thumb Code    36  qglshaderprogram.o(.text)
    QGLShaderProgram::setUniformValue(const char*, const QVector2D&) 0x000100ef   Thumb Code    22  qglshaderprogram.o(.text)
    QGLShaderProgram::setUniformValue(const char*, const QVector3D&) 0x00010105   Thumb Code    22  qglshaderprogram.o(.text)
    QGLShaderProgram::setUniformValue(const char*, const QVector4D&) 0x0001011b   Thumb Code    22  qglshaderprogram.o(.text)
    QGLShaderProgram::setUniformValue(const char*, const QColor&) 0x00010131   Thumb Code    22  qglshaderprogram.o(.text)
    QGLShaderProgram::setUniformValue(const char*, const QPoint&) 0x00010147   Thumb Code    22  qglshaderprogram.o(.text)
    QGLShaderProgram::setUniformValue(const char*, const QPointF&) 0x0001015d   Thumb Code    22  qglshaderprogram.o(.text)
    QGLShaderProgram::setUniformValue(const char*, const QSize&) 0x00010173   Thumb Code    22  qglshaderprogram.o(.text)
    QGLShaderProgram::setUniformValue(const char*, const QSizeF&) 0x00010189   Thumb Code    22  qglshaderprogram.o(.text)
    QGLShaderProgram::setUniformValue(const char*, const QGenericMatrix<(int)2, (int)2, float>&) 0x0001019f   Thumb Code    22  qglshaderprogram.o(.text)
    QGLShaderProgram::setUniformValue(const char*, const QGenericMatrix<(int)2, (int)3, float>&) 0x000101b5   Thumb Code    22  qglshaderprogram.o(.text)
    QGLShaderProgram::setUniformValue(const char*, const QGenericMatrix<(int)2, (int)4, float>&) 0x000101cb   Thumb Code    22  qglshaderprogram.o(.text)
    QGLShaderProgram::setUniformValue(const char*, const QGenericMatrix<(int)3, (int)2, float>&) 0x000101e1   Thumb Code    22  qglshaderprogram.o(.text)
    QGLShaderProgram::setUniformValue(const char*, const QGenericMatrix<(int)3, (int)3, float>&) 0x000101f7   Thumb Code    22  qglshaderprogram.o(.text)
    QGLShaderProgram::setUniformValue(const char*, const QGenericMatrix<(int)3, (int)4, float>&) 0x0001020d   Thumb Code    22  qglshaderprogram.o(.text)
    QGLShaderProgram::setUniformValue(const char*, const QGenericMatrix<(int)4, (int)2, float>&) 0x00010223   Thumb Code    22  qglshaderprogram.o(.text)
    QGLShaderProgram::setUniformValue(const char*, const QGenericMatrix<(int)4, (int)3, float>&) 0x00010239   Thumb Code    22  qglshaderprogram.o(.text)
    QGLShaderProgram::setUniformValue(const char*, const QMatrix4x4&) 0x0001024f   Thumb Code    22  qglshaderprogram.o(.text)
    QGLShaderProgram::setUniformValue(const char*, const float(*)[2]) 0x00010265   Thumb Code    22  qglshaderprogram.o(.text)
    QGLShaderProgram::setUniformValue(const char*, const float(*)[3]) 0x0001027b   Thumb Code    22  qglshaderprogram.o(.text)
    QGLShaderProgram::setUniformValue(const char*, const float(*)[4]) 0x00010291   Thumb Code    22  qglshaderprogram.o(.text)
    QGLShaderProgram::setUniformValue(const char*, const QTransform&) 0x000102a7   Thumb Code    22  qglshaderprogram.o(.text)
    QGLShaderProgram::setUniformValueArray(int, const float*, int, int) 0x000102bd   Thumb Code    86  qglshaderprogram.o(.text)
    QGLShaderProgram::setUniformValueArray(int, const int*, int) 0x00010313   Thumb Code    16  qglshaderprogram.o(.text)
    QGLShaderProgram::setUniformValueArray(int, const unsigned*, int) 0x00010323   Thumb Code    16  qglshaderprogram.o(.text)
    QGLShaderProgram::setUniformValueArray(int, const QVector2D*, int) 0x00010333   Thumb Code    16  qglshaderprogram.o(.text)
    QGLShaderProgram::setUniformValueArray(int, const QVector3D*, int) 0x00010343   Thumb Code    16  qglshaderprogram.o(.text)
    QGLShaderProgram::setUniformValueArray(int, const QVector4D*, int) 0x00010353   Thumb Code    16  qglshaderprogram.o(.text)
    QGLShaderProgram::setUniformValueArray(int, const QGenericMatrix<(int)2, (int)2, float>*, int) 0x00010363   Thumb Code    24  qglshaderprogram.o(.text)
    QGLShaderProgram::setUniformValueArray(int, const QGenericMatrix<(int)2, (int)3, float>*, int) 0x0001037b   Thumb Code    22  qglshaderprogram.o(.text)
    QGLShaderProgram::setUniformValueArray(int, const QGenericMatrix<(int)2, (int)4, float>*, int) 0x00010391   Thumb Code    22  qglshaderprogram.o(.text)
    QGLShaderProgram::setUniformValueArray(int, const QGenericMatrix<(int)3, (int)2, float>*, int) 0x000103a7   Thumb Code    24  qglshaderprogram.o(.text)
    QGLShaderProgram::setUniformValueArray(int, const QGenericMatrix<(int)3, (int)3, float>*, int) 0x000103bf   Thumb Code    24  qglshaderprogram.o(.text)
    QGLShaderProgram::setUniformValueArray(int, const QGenericMatrix<(int)3, (int)4, float>*, int) 0x000103d7   Thumb Code    24  qglshaderprogram.o(.text)
    QGLShaderProgram::setUniformValueArray(int, const QGenericMatrix<(int)4, (int)2, float>*, int) 0x000103ef   Thumb Code    22  qglshaderprogram.o(.text)
    QGLShaderProgram::setUniformValueArray(int, const QGenericMatrix<(int)4, (int)3, float>*, int) 0x00010405   Thumb Code    22  qglshaderprogram.o(.text)
    QGLShaderProgram::setUniformValueArray(int, const QMatrix4x4*, int) 0x0001041b   Thumb Code   106  qglshaderprogram.o(.text)
    QGLShaderProgram::setUniformValueArray(const char*, const float*, int, int) 0x00010485   Thumb Code    30  qglshaderprogram.o(.text)
    QGLShaderProgram::setUniformValueArray(const char*, const int*, int) 0x000104a3   Thumb Code    26  qglshaderprogram.o(.text)
    QGLShaderProgram::setUniformValueArray(const char*, const unsigned*, int) 0x000104bd   Thumb Code    26  qglshaderprogram.o(.text)
    QGLShaderProgram::setUniformValueArray(const char*, const QVector2D*, int) 0x000104d7   Thumb Code    26  qglshaderprogram.o(.text)
    QGLShaderProgram::setUniformValueArray(const char*, const QVector3D*, int) 0x000104f1   Thumb Code    26  qglshaderprogram.o(.text)
    QGLShaderProgram::setUniformValueArray(const char*, const QVector4D*, int) 0x0001050b   Thumb Code    26  qglshaderprogram.o(.text)
    QGLShaderProgram::setUniformValueArray(const char*, const QGenericMatrix<(int)2, (int)2, float>*, int) 0x00010525   Thumb Code    26  qglshaderprogram.o(.text)
    QGLShaderProgram::setUniformValueArray(const char*, const QGenericMatrix<(int)2, (int)3, float>*, int) 0x0001053f   Thumb Code    26  qglshaderprogram.o(.text)
    QGLShaderProgram::setUniformValueArray(const char*, const QGenericMatrix<(int)2, (int)4, float>*, int) 0x00010559   Thumb Code    26  qglshaderprogram.o(.text)
    QGLShaderProgram::setUniformValueArray(const char*, const QGenericMatrix<(int)3, (int)2, float>*, int) 0x00010573   Thumb Code    26  qglshaderprogram.o(.text)
    QGLShaderProgram::setUniformValueArray(const char*, const QGenericMatrix<(int)3, (int)3, float>*, int) 0x0001058d   Thumb Code    26  qglshaderprogram.o(.text)
    QGLShaderProgram::setUniformValueArray(const char*, const QGenericMatrix<(int)3, (int)4, float>*, int) 0x000105a7   Thumb Code    26  qglshaderprogram.o(.text)
    QGLShaderProgram::setUniformValueArray(const char*, const QGenericMatrix<(int)4, (int)2, float>*, int) 0x000105c1   Thumb Code    26  qglshaderprogram.o(.text)
    QGLShaderProgram::setUniformValueArray(const char*, const QGenericMatrix<(int)4, (int)3, float>*, int) 0x000105db   Thumb Code    26  qglshaderprogram.o(.text)
    QGLShaderProgram::setUniformValueArray(const char*, const QMatrix4x4*, int) 0x000105f5   Thumb Code    26  qglshaderprogram.o(.text)
    QGLShaderProgram::hasOpenGLShaderPrograms(const QGLContext*) 0x0001060f   Thumb Code     4  qglshaderprogram.o(.text)
    QGLShaderProgram::shaderDestroyed()      0x00010613   Thumb Code    38  qglshaderprogram.o(.text)
    QGLShaderPrivate::~QGLShaderPrivate()    0x00010639   Thumb Code   124  qglshaderprogram.o(.text)
    QGLShaderPrivate::~QGLShaderPrivate__sub_object() 0x00010639   Thumb Code     0  qglshaderprogram.o(.text)
    QGLShaderPrivate::~QGLShaderPrivate__deallocating() 0x000106b5   Thumb Code    16  qglshaderprogram.o(.text)
    QGLShaderPrivate::deleteShader()         0x000106c5   Thumb Code    20  qglshaderprogram.o(.text)
    QGLShaderProgramPrivate::~QGLShaderProgramPrivate() 0x000106d9   Thumb Code    96  qglshaderprogram.o(.text)
    QGLShaderProgramPrivate::~QGLShaderProgramPrivate__sub_object() 0x000106d9   Thumb Code     0  qglshaderprogram.o(.text)
    QGLShaderProgramPrivate::~QGLShaderProgramPrivate__deallocating() 0x00010739   Thumb Code    16  qglshaderprogram.o(.text)
    QGLShaderProgramPrivate::hasShader(QFlags<QGLShader::ShaderTypeBit>) const 0x00010749   Thumb Code    92  qglshaderprogram.o(.text)
    QGLPixmapFilterBase::bindTexture(const QPixmap&) const 0x00010861   Thumb Code    36  qglpixmapfilter.o(.text)
    QGLPixmapFilterBase::drawImpl(QPainter*, const QPointF&, const QPixmap&, const QRectF&) const 0x00010885   Thumb Code    18  qglpixmapfilter.o(.text)
    QGLPixmapConvolutionFilter::QGLPixmapConvolutionFilter() 0x00010897   Thumb Code    50  qglpixmapfilter.o(.text)
    QGLPixmapConvolutionFilter::QGLPixmapConvolutionFilter__sub_object() 0x00010897   Thumb Code     0  qglpixmapfilter.o(.text)
    QGLPixmapDropShadowFilter::QGLPixmapDropShadowFilter() 0x000108c9   Thumb Code    70  qglpixmapfilter.o(.text)
    QGLPixmapDropShadowFilter::QGLPixmapDropShadowFilter__sub_object() 0x000108c9   Thumb Code     0  qglpixmapfilter.o(.text)
    QGLPixmapBlurFilter::QGLPixmapBlurFilter() 0x0001090f   Thumb Code    40  qglpixmapfilter.o(.text)
    QGLPixmapBlurFilter::QGLPixmapBlurFilter__sub_object() 0x0001090f   Thumb Code     0  qglpixmapfilter.o(.text)
    QGLPixmapColorizeFilter::QGLPixmapColorizeFilter() 0x00010937   Thumb Code    70  qglpixmapfilter.o(.text)
    QGLPixmapColorizeFilter::QGLPixmapColorizeFilter__sub_object() 0x00010937   Thumb Code     0  qglpixmapfilter.o(.text)
    QGL2PaintEngineEx::pixmapFilter(int, const QPixmapFilter*) 0x0001097d   Thumb Code   238  qglpixmapfilter.o(.text)
    QGLPixmapColorizeFilter::setUniforms(QGLShaderProgram*) 0x00010a6b   Thumb Code    44  qglpixmapfilter.o(.text)
    QGLPixmapColorizeFilter::processGL(QPainter*, const QPointF&, const QPixmap&, const QRectF&) const 0x00010a97   Thumb Code    36  qglpixmapfilter.o(.text)
    thunk{-16} to QGLPixmapColorizeFilter::processGL(QPainter*, const QPointF&, const QPixmap&, const QRectF&) const 0x00010abb   Thumb Code    40  qglpixmapfilter.o(.text)
    QGLPixmapConvolutionFilter::~QGLPixmapConvolutionFilter() 0x00010ae3   Thumb Code    18  qglpixmapfilter.o(.text)
    QGLPixmapConvolutionFilter::~QGLPixmapConvolutionFilter__sub_object() 0x00010ae3   Thumb Code     0  qglpixmapfilter.o(.text)
    QGLPixmapConvolutionFilter::~QGLPixmapConvolutionFilter__deallocating() 0x00010af5   Thumb Code    16  qglpixmapfilter.o(.text)
    thunk{-16} to QGLPixmapConvolutionFilter::~QGLPixmapConvolutionFilter__deallocating() 0x00010b05   Thumb Code     4  qglpixmapfilter.o(.text)
    thunk{-8} to QGLPixmapConvolutionFilter::~QGLPixmapConvolutionFilter__deallocating() 0x00010b09   Thumb Code     4  qglpixmapfilter.o(.text)
    thunk{-16} to QGLPixmapConvolutionFilter::~QGLPixmapConvolutionFilter() 0x00010b0d   Thumb Code     4  qglpixmapfilter.o(.text)
    thunk{-8} to QGLPixmapConvolutionFilter::~QGLPixmapConvolutionFilter() 0x00010b11   Thumb Code     4  qglpixmapfilter.o(.text)
    QGLPixmapConvolutionFilter::setUniforms(QGLShaderProgram*) 0x00010b15   Thumb Code   414  qglpixmapfilter.o(.text)
    QGLPixmapConvolutionFilter::generateConvolutionShader() const 0x00010cb3   Thumb Code   154  qglpixmapfilter.o(.text)
    QGLPixmapConvolutionFilter::processGL(QPainter*, const QPointF&, const QPixmap&, const QRectF&) const 0x00010d4d   Thumb Code   102  qglpixmapfilter.o(.text)
    thunk{-16} to QGLPixmapConvolutionFilter::processGL(QPainter*, const QPointF&, const QPixmap&, const QRectF&) const 0x00010db3   Thumb Code   110  qglpixmapfilter.o(.text)
    QGLBlurTextureCache::clearBlurTextureInfo(unsigned long long) 0x00010e21   Thumb Code    12  qglpixmapfilter.o(.text)
    QGLBlurTextureCache::hasBlurTextureInfo(unsigned long long) const 0x00010e2d   Thumb Code    34  qglpixmapfilter.o(.text)
    QGLBlurTextureCache::pixmapDestroyed(QPixmapData*) 0x00010e4f   Thumb Code   150  qglpixmapfilter.o(.text)
    QGLBlurTextureCache::insertBlurTextureInfo(const QPixmap&, QGLBlurTextureInfo*) 0x00010ee5   Thumb Code   114  qglpixmapfilter.o(.text)
    QGLBlurTextureInfo::paddedImage(int) const 0x00010f57   Thumb Code    72  qglpixmapfilter.o(.text)
    QGLBlurTextureCache::takeBlurTextureInfo(const QPixmap&) 0x00010f9f   Thumb Code   222  qglpixmapfilter.o(.text)
    QGLBlurTextureCache::QGLBlurTextureCache() 0x0001107d   Thumb Code   104  qglpixmapfilter.o(.text)
    QGLBlurTextureCache::QGLBlurTextureCache__sub_object() 0x0001107d   Thumb Code     0  qglpixmapfilter.o(.text)
    QGLBlurTextureCache::cacheForContext(const QGLContext*) 0x000110e5   Thumb Code    48  qglpixmapfilter.o(.text)
    QGLPixmapBlurFilter::processGL(QPainter*, const QPointF&, const QPixmap&, const QRectF&) const 0x00011115   Thumb Code  1128  qglpixmapfilter.o(.text)
    thunk{-16} to QGLPixmapBlurFilter::processGL(QPainter*, const QPointF&, const QPixmap&, const QRectF&) const 0x0001157d   Thumb Code  1116  qglpixmapfilter.o(.text)
    QGLPixmapDropShadowFilter::setUniforms(QGLShaderProgram*) 0x000119d9   Thumb Code    84  qglpixmapfilter.o(.text)
    QGLPixmapDropShadowFilter::processGL(QPainter*, const QPointF&, const QPixmap&, const QRectF&) const 0x00011a2d   Thumb Code   680  qglpixmapfilter.o(.text)
    thunk{-16} to QGLPixmapDropShadowFilter::processGL(QPainter*, const QPointF&, const QPixmap&, const QRectF&) const 0x00011cd5   Thumb Code   704  qglpixmapfilter.o(.text)
    QGLBlurTextureCache::~QGLBlurTextureCache() 0x00011f95   Thumb Code   136  qglpixmapfilter.o(.text)
    QGLBlurTextureCache::~QGLBlurTextureCache__sub_object() 0x00011f95   Thumb Code     0  qglpixmapfilter.o(.text)
    QGLBlurTextureCache::~QGLBlurTextureCache__deallocating() 0x0001201d   Thumb Code    16  qglpixmapfilter.o(.text)
    QGLBlurTextureCache::timerEvent(QTimerEvent*) 0x0001202d   Thumb Code    24  qglpixmapfilter.o(.text)
    QGraphicsShaderEffect::QGraphicsShaderEffect(QObject*) 0x00012095   Thumb Code    80  qgraphicsshadereffect.o(.text)
    QGraphicsShaderEffect::QGraphicsShaderEffect__sub_object(QObject*) 0x00012095   Thumb Code     0  qgraphicsshadereffect.o(.text)
    QGraphicsShaderEffect::~QGraphicsShaderEffect() 0x000120e5   Thumb Code    30  qgraphicsshadereffect.o(.text)
    QGraphicsShaderEffect::~QGraphicsShaderEffect__sub_object() 0x000120e5   Thumb Code     0  qgraphicsshadereffect.o(.text)
    QGraphicsShaderEffect::~QGraphicsShaderEffect__deallocating() 0x00012103   Thumb Code    16  qgraphicsshadereffect.o(.text)
    QGraphicsShaderEffect::pixelShaderFragment() const 0x00012113   Thumb Code    16  qgraphicsshadereffect.o(.text)
    QGraphicsShaderEffect::setPixelShaderFragment(const QByteArray&) 0x00012123   Thumb Code    72  qgraphicsshadereffect.o(.text)
    QGraphicsShaderEffect::draw(QPainter*)   0x0001216b   Thumb Code   248  qgraphicsshadereffect.o(.text)
    QGraphicsShaderEffect::setUniformsDirty() 0x00012263   Thumb Code    16  qgraphicsshadereffect.o(.text)
    QGraphicsShaderEffect::setUniforms(QGLShaderProgram*) 0x00012273   Thumb Code     2  qgraphicsshadereffect.o(.text)
    QGLCustomShaderEffectStage::setUniforms(QGLShaderProgram*) 0x00012275   Thumb Code     8  qgraphicsshadereffect.o(.text)
    QGLGraphicsSystem::createPixmapData(QPixmapData::PixelType) const 0x00012291   Thumb Code    20  qgraphicssystem_gl.o(.text)
    QGLGraphicsSystem::createWindowSurface(QWidget*) const 0x000122a5   Thumb Code    30  qgraphicssystem_gl.o(.text)
    qt_gl_share_widget()                     0x00012351   Thumb Code    24  qwindowsurface_gl.o(.text)
    qt_destroy_gl_share_widget()             0x00012369   Thumb Code    40  qwindowsurface_gl.o(.text)
    QGLWindowSurfaceGLPaintDevice::paintEngine() const 0x000125fd   Thumb Code     8  qwindowsurface_gl.o(.text)
    QGLWindowSurfaceGLPaintDevice::endPaint() 0x00012605   Thumb Code    16  qwindowsurface_gl.o(.text)
    QGLWindowSurfaceGLPaintDevice::size() const 0x00012615   Thumb Code    10  qwindowsurface_gl.o(.text)
    QGLWindowSurfaceGLPaintDevice::metric(QPaintDevice::PaintDeviceMetric) const 0x0001261f   Thumb Code    32  qwindowsurface_gl.o(.text)
    QGLWindowSurfaceGLPaintDevice::context() const 0x0001263f   Thumb Code     6  qwindowsurface_gl.o(.text)
    QGLWindowSurface::QGLWindowSurface(QWidget*) 0x00012645   Thumb Code   222  qwindowsurface_gl.o(.text)
    QGLWindowSurface::QGLWindowSurface__sub_object(QWidget*) 0x00012645   Thumb Code     0  qwindowsurface_gl.o(.text)
    QGLWindowSurface::~QGLWindowSurface()    0x00012723   Thumb Code   254  qwindowsurface_gl.o(.text)
    QGLWindowSurface::~QGLWindowSurface__sub_object() 0x00012723   Thumb Code     0  qwindowsurface_gl.o(.text)
    QGLWindowSurface::~QGLWindowSurface__deallocating() 0x00012821   Thumb Code    16  qwindowsurface_gl.o(.text)
    thunk{-8} to QGLWindowSurface::~QGLWindowSurface__deallocating() 0x00012831   Thumb Code     4  qwindowsurface_gl.o(.text)
    thunk{-8} to QGLWindowSurface::~QGLWindowSurface() 0x00012835   Thumb Code     4  qwindowsurface_gl.o(.text)
    QGLWindowSurface::hijackWindow(QWidget*) 0x00012839   Thumb Code   374  qwindowsurface_gl.o(.text)
    QGLWindowSurface::updateGeometry()       0x000129af   Thumb Code   766  qwindowsurface_gl.o(.text)
    QGLWindowSurface::paintDevice()          0x00012cad   Thumb Code    54  qwindowsurface_gl.o(.text)
    thunk{-8} to QGLWindowSurface::paintDevice() 0x00012ce3   Thumb Code     4  qwindowsurface_gl.o(.text)
    QGLWindowSurface::initializeOffscreenTexture(const QSize&) 0x00012ce7   Thumb Code   128  qwindowsurface_gl.o(.text)
    QGLWindowSurface::context() const        0x00012d67   Thumb Code     6  qwindowsurface_gl.o(.text)
    QGLWindowSurface::flush(QWidget*, const QRegion&, const QPoint&) 0x00012d6d   Thumb Code  1676  qwindowsurface_gl.o(.text)
    thunk{-8} to QGLWindowSurface::flush(QWidget*, const QRegion&, const QPoint&) 0x000133f9   Thumb Code    10  qwindowsurface_gl.o(.text)
    QGLWindowSurface::setGeometry(const QRect&) 0x00013403   Thumb Code    22  qwindowsurface_gl.o(.text)
    thunk{-8} to QGLWindowSurface::setGeometry(const QRect&) 0x00013419   Thumb Code     4  qwindowsurface_gl.o(.text)
    QGLWindowSurface::scroll(const QRegion&, int, int) 0x0001341d   Thumb Code     4  qwindowsurface_gl.o(.text)
    thunk{-8} to QGLWindowSurface::scroll(const QRegion&, int, int) 0x00013421   Thumb Code     4  qwindowsurface_gl.o(.text)
    QGLWindowSurface::beginPaint(const QRegion&) 0x00013425   Thumb Code    90  qwindowsurface_gl.o(.text)
    thunk{-8} to QGLWindowSurface::beginPaint(const QRegion&) 0x0001347f   Thumb Code     4  qwindowsurface_gl.o(.text)
    QGLWindowSurface::endPaint(const QRegion&) 0x00013483   Thumb Code    82  qwindowsurface_gl.o(.text)
    thunk{-8} to QGLWindowSurface::endPaint(const QRegion&) 0x000134d5   Thumb Code     4  qwindowsurface_gl.o(.text)
    QGLWindowSurface::buffer(const QWidget*) 0x000134d9   Thumb Code   234  qwindowsurface_gl.o(.text)
    thunk{-8} to QGLWindowSurface::buffer(const QWidget*) 0x000135c3   Thumb Code     4  qwindowsurface_gl.o(.text)
    QGLWindowSurface::deleted(QObject*)      0x000135c7   Thumb Code   204  qwindowsurface_gl.o(.text)
    QGLGraphicsSystem::QGLGraphicsSystem(bool) 0x00013693   Thumb Code     8  qwindowsurface_gl.o(.text)
    QGLGraphicsSystem::QGLGraphicsSystem__sub_object(bool) 0x00013693   Thumb Code     0  qwindowsurface_gl.o(.text)
    qgl_fbo_pool()                           0x000137b5   Thumb Code     2  qpixmapdata_gl.o(.text)
    QGLFramebufferObjectPool::acquire(const QSize&, const QGLFramebufferObjectFormat&, bool) 0x000137b7   Thumb Code   474  qpixmapdata_gl.o(.text)
    QGLFramebufferObjectPool::release(QGLFramebufferObject*) 0x00013991   Thumb Code    50  qpixmapdata_gl.o(.text)
    QGLPixmapGLPaintDevice::paintEngine() const 0x000139c3   Thumb Code     8  qpixmapdata_gl.o(.text)
    QGLPixmapData::useFramebufferObjects() const 0x000139cb   Thumb Code    50  qpixmapdata_gl.o(.text)
    QGLPixmapData::ensureCreated() const     0x000139fd   Thumb Code   390  qpixmapdata_gl.o(.text)
    QGLPixmapData::isValid() const           0x00013b83   Thumb Code    20  qpixmapdata_gl.o(.text)
    QGLPixmapData::copyBackFromRenderFbo(bool) const 0x00013b97   Thumb Code   234  qpixmapdata_gl.o(.text)
    QGLPixmapData::bind(bool) const          0x00013c81   Thumb Code   268  qpixmapdata_gl.o(.text)
    QGLPixmapGLPaintDevice::beginPaint()     0x00013d8d   Thumb Code   274  qpixmapdata_gl.o(.text)
    QGLPixmapGLPaintDevice::endPaint()       0x00013e9f   Thumb Code    48  qpixmapdata_gl.o(.text)
    QGLPixmapGLPaintDevice::context() const  0x00013ecf   Thumb Code    16  qpixmapdata_gl.o(.text)
    QGLPixmapGLPaintDevice::size() const     0x00013edf   Thumb Code    10  qpixmapdata_gl.o(.text)
    QGLPixmapGLPaintDevice::alphaRequested() const 0x00013ee9   Thumb Code     8  qpixmapdata_gl.o(.text)
    QGLPixmapGLPaintDevice::setPixmapData(QGLPixmapData*) 0x00013ef1   Thumb Code     4  qpixmapdata_gl.o(.text)
    QGLPixmapData::QGLPixmapData(QPixmapData::PixelType) 0x00013ef5   Thumb Code   106  qpixmapdata_gl.o(.text)
    QGLPixmapData::QGLPixmapData__sub_object(QPixmapData::PixelType) 0x00013ef5   Thumb Code     0  qpixmapdata_gl.o(.text)
    QGLPixmapData::~QGLPixmapData()          0x00013f5f   Thumb Code   154  qpixmapdata_gl.o(.text)
    QGLPixmapData::~QGLPixmapData__sub_object() 0x00013f5f   Thumb Code     0  qpixmapdata_gl.o(.text)
    QGLPixmapData::~QGLPixmapData__deallocating() 0x00013ff9   Thumb Code    16  qpixmapdata_gl.o(.text)
    QGLPixmapData::createCompatiblePixmapData() const 0x00014009   Thumb Code    20  qpixmapdata_gl.o(.text)
    QGLPixmapData::resize(int, int)          0x0001401d   Thumb Code   154  qpixmapdata_gl.o(.text)
    QGLPixmapData::fromImage(const QImage&, QFlags<Qt::ImageConversionFlag>) 0x000140b7   Thumb Code   308  qpixmapdata_gl.o(.text)
    QGLPixmapData::fromFile(const QString&, const char*, QFlags<Qt::ImageConversionFlag>) 0x000141eb   Thumb Code   366  qpixmapdata_gl.o(.text)
    QGLPixmapData::fromData(const unsigned char*, unsigned, const char*, QFlags<Qt::ImageConversionFlag>) 0x00014359   Thumb Code   178  qpixmapdata_gl.o(.text)
    QGLPixmapData::copy(const QPixmapData*, const QRect&) 0x0001440b   Thumb Code   316  qpixmapdata_gl.o(.text)
    QGLPixmapData::scroll(int, int, const QRect&) 0x00014547   Thumb Code     4  qpixmapdata_gl.o(.text)
    QGLPixmapData::fill(const QColor&)       0x0001454b   Thumb Code   272  qpixmapdata_gl.o(.text)
    QGLPixmapData::hasAlphaChannel() const   0x0001465b   Thumb Code     6  qpixmapdata_gl.o(.text)
    QGLPixmapData::fillImage(const QColor&) const 0x00014661   Thumb Code   228  qpixmapdata_gl.o(.text)
    QGLPixmapData::toImage() const           0x00014745   Thumb Code   152  qpixmapdata_gl.o(.text)
    QGLPixmapData::paintEngine() const       0x000147dd   Thumb Code   486  qpixmapdata_gl.o(.text)
    QGLPixmapData::metric(QPaintDevice::PaintDeviceMetric) const 0x000149c3   Thumb Code   110  qpixmapdata_gl.o(.text)
    QGLPixmapData::glDevice() const          0x00014a31   Thumb Code     4  qpixmapdata_gl.o(.text)
    QGLPixmapData::isValidContext(const QGLContext*) const 0x00014a35   Thumb Code    42  qpixmapdata_gl.o(.text)
    QGLPixmapData::texture() const           0x00014a5f   Thumb Code     4  qpixmapdata_gl.o(.text)
    QGLFormat::hasOpenGLOverlays()           0x00014af5   Thumb Code     4  qgl_symbian.o(.text)
    QGLContext::chooseContext(const QGLContext*) 0x00014af9   Thumb Code   400  qgl_symbian.o(.text)
    QGLWidget::setContext(QGLContext*, const QGLContext*, bool) 0x00014c89   Thumb Code   136  qgl_symbian.o(.text)
    QGLWidget::makeOverlayCurrent()          0x00014d11   Thumb Code     2  qgl_symbian.o(.text)
    QGLWidget::overlayContext() const        0x00014d13   Thumb Code     4  qgl_symbian.o(.text)
    QGLWidget::colormap() const              0x00014d17   Thumb Code     8  qgl_symbian.o(.text)
    QGLWidget::setColormap(const QGLColormap&) 0x00014d1f   Thumb Code     2  qgl_symbian.o(.text)
    QGLWidget::updateOverlayGL()             0x00014d21   Thumb Code     2  qgl_symbian.o(.text)
    QGLWidgetPrivate::recreateEglSurface()   0x00014d23   Thumb Code   114  qgl_symbian.o(.text)
    QGLWidget::resizeEvent(QResizeEvent*)    0x00014d95   Thumb Code    96  qgl_symbian.o(.text)
    QGLWidgetPrivate::init(QGLContext*, const QGLWidget*) 0x00014df5   Thumb Code   352  qgl_symbian.o(.text)
    QGLWidgetPrivate::cleanupColormaps()     0x00014f55   Thumb Code     2  qgl_symbian.o(.text)
    QGLTemporaryContext::QGLTemporaryContext(bool, QWidget*) 0x00014f57   Thumb Code   236  qgl_symbian.o(.text)
    QGLTemporaryContext::QGLTemporaryContext__sub_object(bool, QWidget*) 0x00014f57   Thumb Code     0  qgl_symbian.o(.text)
    QGLTemporaryContext::~QGLTemporaryContext() 0x00015043   Thumb Code    60  qgl_symbian.o(.text)
    QGLTemporaryContext::~QGLTemporaryContext__sub_object() 0x00015043   Thumb Code     0  qgl_symbian.o(.text)
    QGLPixelBuffer::generateDynamicTexture() const 0x00015125   Thumb Code   108  qglpixelbuffer_egl.o(.text)
    QGLPixelBuffer::bindToDynamicTexture(unsigned) 0x00015191   Thumb Code    60  qglpixelbuffer_egl.o(.text)
    QGLPixelBuffer::releaseFromDynamicTexture() 0x000151cd   Thumb Code    42  qglpixelbuffer_egl.o(.text)
    QGLPixelBuffer::hasOpenGLPbuffers()      0x000151f7   Thumb Code   134  qglpixelbuffer_egl.o(.text)
    QGLPixelBufferPrivate::init(const QSize&, const QGLFormat&, QGLWidget*) 0x0001527d   Thumb Code   706  qglpixelbuffer_egl.o(.text)
    QGLPixelBufferPrivate::cleanup()         0x0001553f   Thumb Code     4  qglpixelbuffer_egl.o(.text)
    qt_eglproperties_set_glformat(QEglProperties&, const QGLFormat&) 0x00015545   Thumb Code   326  qgl_egl.o(.text)
    qt_glformat_from_eglconfig(QGLFormat&, int) 0x0001568b   Thumb Code   252  qgl_egl.o(.text)
    QGLFormat::hasOpenGL()                   0x00015787   Thumb Code     4  qgl_egl.o(.text)
    QGLContextPrivate::destroyEglSurfaceForDevice() 0x0001578b   Thumb Code    88  qgl_egl.o(.text)
    QGLContext::reset()                      0x000157e3   Thumb Code   110  qgl_egl.o(.text)
    QGLContextPrivate::eglSurfaceForDevice() const 0x00015851   Thumb Code    32  qgl_egl.o(.text)
    QGLContext::makeCurrent()                0x00015871   Thumb Code   176  qgl_egl.o(.text)
    QGLContext::doneCurrent()                0x00015921   Thumb Code    22  qgl_egl.o(.text)
    QGLContext::swapBuffers() const          0x00015937   Thumb Code    32  qgl_egl.o(.text)
    QGLContext::getProcAddress(const QString&) const 0x00015957   Thumb Code    72  qgl_egl.o(.text)
    QGLContext::overlayTransparentColor() const 0x0001599f   Thumb Code    18  qgl_egl.o(.text)
    QGLContext::generateFontDisplayLists(const QFont&, int) 0x000159b1   Thumb Code     2  qgl_egl.o(.text)
    QGLContext::colorIndex(const QColor&) const 0x000159b3   Thumb Code     4  qgl_egl.o(.text)
    QGLWidget::setMouseTracking(bool)        0x000159b7   Thumb Code   170  qgl_egl.o(.text)
    QGLWidgetPrivate::renderCxPm(QPixmap*)   0x00015a61   Thumb Code     4  qgl_egl.o(.text)
    QGLContextPrivate::swapRegion(const QRegion&) 0x00015a65   Thumb Code    36  qgl_egl.o(.text)
    QGL2GradientCache::cleanCache()          0x00015a89   Thumb Code   112  qglgradientcache.o(.text)
    QGL2GradientCache::cacheForContext(const QGLContext*) 0x00015b7f   Thumb Code    98  qglgradientcache.o(.text)
    QGL2GradientCache::addCacheElement(unsigned long long, const QGradient&, float) 0x00015be1   Thumb Code   424  qglgradientcache.o(.text)
    QGL2GradientCache::getBuffer(const QGradient&, float) 0x00015d89   Thumb Code   198  qglgradientcache.o(.text)
    QGLEngineSharedShaders::QGLEngineSharedShaders(const QGLContext*) 0x00015f0b   Thumb Code  1002  qglengineshadermanager.o(.text)
    QGLEngineSharedShaders::QGLEngineSharedShaders__sub_object(const QGLContext*) 0x00015f0b   Thumb Code     0  qglengineshadermanager.o(.text)
    QGLEngineSharedShaders::~QGLEngineSharedShaders() 0x000162f5   Thumb Code   124  qglengineshadermanager.o(.text)
    QGLEngineSharedShaders::~QGLEngineSharedShaders__sub_object() 0x000162f5   Thumb Code     0  qglengineshadermanager.o(.text)
    QGLEngineSharedShaders::~QGLEngineSharedShaders__deallocating() 0x00016371   Thumb Code    16  qglengineshadermanager.o(.text)
    QGLEngineSharedShaders::findProgramInCache(const QGLEngineShaderProg&) 0x00016381   Thumb Code  1090  qglengineshadermanager.o(.text)
    QGLEngineSharedShaders::shadersForContext(const QGLContext*) 0x000167c3   Thumb Code   104  qglengineshadermanager.o(.text)
    QGLEngineSharedShaders::cleanupCustomStage(QGLCustomShaderStage*) 0x0001682b   Thumb Code   128  qglengineshadermanager.o(.text)
    QGLEngineShaderManager::QGLEngineShaderManager(QGLContext*) 0x000168ab   Thumb Code    76  qglengineshadermanager.o(.text)
    QGLEngineShaderManager::QGLEngineShaderManager__sub_object(QGLContext*) 0x000168ab   Thumb Code     0  qglengineshadermanager.o(.text)
    QGLEngineShaderManager::removeCustomStage() 0x000168f7   Thumb Code    24  qglengineshadermanager.o(.text)
    QGLEngineShaderManager::~QGLEngineShaderManager() 0x0001690f   Thumb Code    22  qglengineshadermanager.o(.text)
    QGLEngineShaderManager::~QGLEngineShaderManager__sub_object() 0x0001690f   Thumb Code     0  qglengineshadermanager.o(.text)
    QGLEngineShaderManager::~QGLEngineShaderManager__deallocating() 0x00016925   Thumb Code    16  qglengineshadermanager.o(.text)
    QGLEngineShaderManager::optimiseForBrushTransform(QTransform::TransformationType) 0x00016935   Thumb Code     2  qglengineshadermanager.o(.text)
    QGLEngineShaderManager::setSrcPixelType(Qt::BrushStyle) 0x00016937   Thumb Code    14  qglengineshadermanager.o(.text)
    QGLEngineShaderManager::setSrcPixelType(QGLEngineShaderManager::PixelSrcType) 0x00016945   Thumb Code    14  qglengineshadermanager.o(.text)
    QGLEngineShaderManager::setOpacityMode(QGLEngineShaderManager::OpacityMode) 0x00016953   Thumb Code    14  qglengineshadermanager.o(.text)
    QGLEngineShaderManager::setMaskType(QGLEngineShaderManager::MaskType) 0x00016961   Thumb Code    14  qglengineshadermanager.o(.text)
    QGLEngineShaderManager::setCompositionMode(QPainter::CompositionMode) 0x0001696f   Thumb Code    14  qglengineshadermanager.o(.text)
    QGLEngineShaderManager::setCustomStage(QGLCustomShaderStage*) 0x0001697d   Thumb Code    26  qglengineshadermanager.o(.text)
    QGLEngineShaderManager::getUniformLocation(QGLEngineShaderManager::Uniform) 0x00016997   Thumb Code   104  qglengineshadermanager.o(.text)
    QGLEngineShaderManager::setDirty()       0x000169ff   Thumb Code     6  qglengineshadermanager.o(.text)
    QGLEngineShaderManager::useCorrectShaderProg() 0x00016a05   Thumb Code   832  qglengineshadermanager.o(.text)
    QGLEngineShaderManager::useSimpleProgram() 0x00016d45   Thumb Code    52  qglengineshadermanager.o(.text)
    QGLEngineShaderManager::useBlitProgram() 0x00016d79   Thumb Code    52  qglengineshadermanager.o(.text)
    QGLEngineShaderManager::currentProgram() 0x00016dad   Thumb Code    16  qglengineshadermanager.o(.text)
    QGLEngineShaderManager::simpleProgram()  0x00016dbd   Thumb Code     6  qglengineshadermanager.o(.text)
    QGLEngineShaderManager::blitProgram()    0x00016dc3   Thumb Code     6  qglengineshadermanager.o(.text)
    QGL2PEXVertexArray::addClosingLine(int)  0x00016ded   Thumb Code    96  qgl2pexvertexarray.o(.text)
    QGL2PEXVertexArray::lineToArray(float, float) 0x00016e4d   Thumb Code    72  qgl2pexvertexarray.o(.text)
    QGL2PEXVertexArray::addCentroid(const QVectorPath&, int) 0x00016e95   Thumb Code   132  qgl2pexvertexarray.o(.text)
    QGL2PEXVertexArray::addPath(const QVectorPath&, float, bool) 0x00016f19   Thumb Code   446  qgl2pexvertexarray.o(.text)
    QGL2PEXVertexArray::clear()              0x000170d7   Thumb Code    14  qgl2pexvertexarray.o(.text)
    QGL2PEXVertexArray::boundingRect() const 0x000170e5   Thumb Code    42  qgl2pexvertexarray.o(.text)
    QOpenGL2PaintEngineState::QOpenGL2PaintEngineState(QOpenGL2PaintEngineState&) 0x00017181   Thumb Code   122  qpaintengineex_opengl2.o(.text)
    QOpenGL2PaintEngineState::QOpenGL2PaintEngineState__sub_object(QOpenGL2PaintEngineState&) 0x00017181   Thumb Code     0  qpaintengineex_opengl2.o(.text)
    QOpenGL2PaintEngineState::QOpenGL2PaintEngineState() 0x000171fb   Thumb Code    48  qpaintengineex_opengl2.o(.text)
    QOpenGL2PaintEngineState::QOpenGL2PaintEngineState__sub_object() 0x000171fb   Thumb Code     0  qpaintengineex_opengl2.o(.text)
    QOpenGL2PaintEngineState::~QOpenGL2PaintEngineState() 0x0001722b   Thumb Code     8  qpaintengineex_opengl2.o(.text)
    QOpenGL2PaintEngineState::~QOpenGL2PaintEngineState__sub_object() 0x0001722b   Thumb Code     0  qpaintengineex_opengl2.o(.text)
    QOpenGL2PaintEngineState::~QOpenGL2PaintEngineState__deallocating() 0x00017233   Thumb Code    16  qpaintengineex_opengl2.o(.text)
    QGL2PaintEngineEx::QGL2PaintEngineEx()   0x00017243   Thumb Code    40  qpaintengineex_opengl2.o(.text)
    QGL2PaintEngineEx::QGL2PaintEngineEx__sub_object() 0x00017243   Thumb Code     0  qpaintengineex_opengl2.o(.text)
    QGL2PaintEngineEx::~QGL2PaintEngineEx()  0x0001726b   Thumb Code     8  qpaintengineex_opengl2.o(.text)
    QGL2PaintEngineEx::~QGL2PaintEngineEx__sub_object() 0x0001726b   Thumb Code     0  qpaintengineex_opengl2.o(.text)
    QGL2PaintEngineEx::~QGL2PaintEngineEx__deallocating() 0x00017273   Thumb Code    16  qpaintengineex_opengl2.o(.text)
    QGL2PaintEngineEx::begin(QPaintDevice*)  0x00017283   Thumb Code   298  qpaintengineex_opengl2.o(.text)
    QGL2PaintEngineExPrivate::transferMode(EngineMode) 0x000173ad   Thumb Code   150  qpaintengineex_opengl2.o(.text)
    QGL2PaintEngineEx::ensureActive()        0x00017443   Thumb Code   140  qpaintengineex_opengl2.o(.text)
    QGL2PaintEngineExPrivate::resetGLState() 0x000174cf   Thumb Code   150  qpaintengineex_opengl2.o(.text)
    QGL2PaintEngineEx::end()                 0x00017565   Thumb Code    86  qpaintengineex_opengl2.o(.text)
    QGL2PaintEngineExPrivate::regenerateClip() 0x000175bb   Thumb Code    20  qpaintengineex_opengl2.o(.text)
    QGL2PaintEngineEx::clipEnabledChanged()  0x000175cf   Thumb Code    56  qpaintengineex_opengl2.o(.text)
    QGL2PaintEngineEx::penChanged()          0x00017607   Thumb Code     2  qpaintengineex_opengl2.o(.text)
    QGL2PaintEngineEx::brushChanged()        0x00017609   Thumb Code     2  qpaintengineex_opengl2.o(.text)
    QGL2PaintEngineEx::brushOriginChanged()  0x0001760b   Thumb Code     2  qpaintengineex_opengl2.o(.text)
    QGL2PaintEngineEx::opacityChanged()      0x0001760d   Thumb Code    32  qpaintengineex_opengl2.o(.text)
    QGL2PaintEngineEx::compositionModeChanged() 0x0001762d   Thumb Code    30  qpaintengineex_opengl2.o(.text)
    QGL2PaintEngineEx::renderHintsChanged()  0x0001764b   Thumb Code    44  qpaintengineex_opengl2.o(.text)
    QGL2PaintEngineEx::transformChanged()    0x00017677   Thumb Code    30  qpaintengineex_opengl2.o(.text)
    QGL2PaintEngineExPrivate::updateBrushUniforms() 0x00017695   Thumb Code  1472  qpaintengineex_opengl2.o(.text)
    QGL2PaintEngineExPrivate::updateMatrix() 0x00017c55   Thumb Code   430  qpaintengineex_opengl2.o(.text)
    QGL2PaintEngineExPrivate::updateCompositionMode() 0x00017e03   Thumb Code   110  qpaintengineex_opengl2.o(.text)
    QGL2PaintEngineExPrivate::updateTextureFilter(unsigned, unsigned, bool, unsigned) 0x00017e71   Thumb Code    94  qpaintengineex_opengl2.o(.text)
    QGL2PaintEngineExPrivate::updateBrushTexture() 0x00017ecf   Thumb Code   536  qpaintengineex_opengl2.o(.text)
    QGL2PaintEngineExPrivate::prepareForDraw(bool) 0x000180e7   Thumb Code   422  qpaintengineex_opengl2.o(.text)
    QGL2PaintEngineExPrivate::drawTexture(const QGLRect&, const QGLRect&, const QSize&, bool, bool) 0x0001828d   Thumb Code   308  qpaintengineex_opengl2.o(.text)
    QGL2PaintEngineEx::drawPixmap(const QRectF&, const QPixmap&, const QRectF&) 0x000183c1   Thumb Code   428  qpaintengineex_opengl2.o(.text)
    QGL2PaintEngineExPrivate::drawPixmapFragments(const QPainter::PixmapFragment*, int, const QPixmap&, QFlags<QPainter::PixmapFragmentHint>) 0x0001856d   Thumb Code  1228  qpaintengineex_opengl2.o(.text)
    QGL2PaintEngineEx::drawPixmapFragments(const QPainter::PixmapFragment*, int, const QPixmap&, QFlags<QPainter::PixmapFragmentHint>) 0x00018a39   Thumb Code   158  qpaintengineex_opengl2.o(.text)
    QGL2PaintEngineEx::drawImage(const QRectF&, const QImage&, const QRectF&, QFlags<Qt::ImageConversionFlag>) 0x00018ad7   Thumb Code   308  qpaintengineex_opengl2.o(.text)
    QGL2PaintEngineExPrivate::setBrush(const QBrush&) 0x00018c0b   Thumb Code   214  qpaintengineex_opengl2.o(.text)
    QGL2PaintEngineExPrivate::drawCachedGlyphs(QFontEngineGlyphCache::Type, QStaticTextItem*) 0x00018ce1   Thumb Code  1642  qpaintengineex_opengl2.o(.text)
    QGL2PaintEngineEx::drawTextItem(const QPointF&, const QTextItem&) 0x0001934b   Thumb Code   432  qpaintengineex_opengl2.o(.text)
    QGL2PaintEngineExPrivate::updateClipScissorTest() 0x000194fb   Thumb Code   108  qpaintengineex_opengl2.o(.text)
    QGL2PaintEngineExPrivate::composite(const QGLRect&) 0x00019567   Thumb Code    38  qpaintengineex_opengl2.o(.text)
    QGL2PaintEngineExPrivate::drawVertexArrays(const float*, int*, int, unsigned) 0x0001958d   Thumb Code    42  qpaintengineex_opengl2.o(.text)
    QGL2PaintEngineExPrivate::fillStencilWithVertexArray(const float*, int, int*, int, const QGLRect&, QGL2PaintEngineExPrivate::StencilFillMode) 0x000195b7   Thumb Code   596  qpaintengineex_opengl2.o(.text)
    QGL2PaintEngineExPrivate::cleanupVectorPath(QPaintEngineEx*, void*) 0x0001980b   Thumb Code    24  qpaintengineex_opengl2.o(.text)
    QGL2PaintEngineExPrivate::fill(const QVectorPath&) 0x00019823   Thumb Code  1102  qpaintengineex_opengl2.o(.text)
    QGL2PaintEngineEx::fill(const QVectorPath&, const QBrush&) 0x00019c71   Thumb Code    38  qpaintengineex_opengl2.o(.text)
    QGL2PaintEngineExPrivate::stroke(const QVectorPath&, const QPen&) 0x00019c97   Thumb Code   660  qpaintengineex_opengl2.o(.text)
    QGL2PaintEngineEx::stroke(const QVectorPath&, const QPen&) 0x00019f2b   Thumb Code   120  qpaintengineex_opengl2.o(.text)
    QGL2PaintEngineExPrivate::clearClip(unsigned) 0x00019fa3   Thumb Code    88  qpaintengineex_opengl2.o(.text)
    QGL2PaintEngineExPrivate::writeClip(const QVectorPath&, unsigned) 0x00019ffb   Thumb Code   558  qpaintengineex_opengl2.o(.text)
    QGL2PaintEngineExPrivate::resetClipIfNeeded() 0x0001a229   Thumb Code   308  qpaintengineex_opengl2.o(.text)
    QGL2PaintEngineEx::clip(const QVectorPath&, Qt::ClipOperation) 0x0001a35d   Thumb Code   544  qpaintengineex_opengl2.o(.text)
    QGL2PaintEngineEx::drawStaticTextItem(QStaticTextItem*) 0x0001a57d   Thumb Code   104  qpaintengineex_opengl2.o(.text)
    QGL2PaintEngineEx::drawTexture(const QRectF&, unsigned, const QSize&, const QRectF&) 0x0001a5e5   Thumb Code   156  qpaintengineex_opengl2.o(.text)
    QGL2PaintEngineEx::setState(QPainterState*) 0x0001a681   Thumb Code   204  qpaintengineex_opengl2.o(.text)
    QGL2PaintEngineEx::createState(QPainterState*) const 0x0001a74d   Thumb Code    60  qpaintengineex_opengl2.o(.text)
    QGL2PaintEngineEx::beginNativePainting() 0x0001a789   Thumb Code   124  qpaintengineex_opengl2.o(.text)
    QGL2PaintEngineEx::endNativePainting()   0x0001a805   Thumb Code    24  qpaintengineex_opengl2.o(.text)
    QGL2PaintEngineEx::invalidateState()     0x0001a81d   Thumb Code    14  qpaintengineex_opengl2.o(.text)
    QGL2PaintEngineEx::isNativePaintingActive() const 0x0001a82b   Thumb Code    12  qpaintengineex_opengl2.o(.text)
    QGL2PaintEngineExPrivate::~QGL2PaintEngineExPrivate() 0x0001a837   Thumb Code   344  qpaintengineex_opengl2.o(.text)
    QGL2PaintEngineExPrivate::~QGL2PaintEngineExPrivate__sub_object() 0x0001a837   Thumb Code     0  qpaintengineex_opengl2.o(.text)
    QGL2PaintEngineExPrivate::~QGL2PaintEngineExPrivate__deallocating() 0x0001a98f   Thumb Code    16  qpaintengineex_opengl2.o(.text)
    QGL2PaintEngineExPrivate::setScissor(const QRect&) 0x0001a99f   Thumb Code    36  qpaintengineex_opengl2.o(.text)
    QGL2PaintEngineExPrivate::systemStateChanged() 0x0001a9c3   Thumb Code   474  qpaintengineex_opengl2.o(.text)
    QGLCustomShaderStage::QGLCustomShaderStage() 0x0001abf5   Thumb Code    38  qglcustomshaderstage.o(.text)
    QGLCustomShaderStage::QGLCustomShaderStage__sub_object() 0x0001abf5   Thumb Code     0  qglcustomshaderstage.o(.text)
    QGLCustomShaderStage::~QGLCustomShaderStage() 0x0001ac1b   Thumb Code    34  qglcustomshaderstage.o(.text)
    QGLCustomShaderStage::~QGLCustomShaderStage__sub_object() 0x0001ac1b   Thumb Code     0  qglcustomshaderstage.o(.text)
    QGLCustomShaderStage::~QGLCustomShaderStage__deallocating() 0x0001ac3d   Thumb Code    16  qglcustomshaderstage.o(.text)
    QGLCustomShaderStage::setUniformsDirty() 0x0001ac4d   Thumb Code    16  qglcustomshaderstage.o(.text)
    QGLCustomShaderStage::setOnPainter(QPainter*) 0x0001ac5d   Thumb Code    78  qglcustomshaderstage.o(.text)
    QGLCustomShaderStage::removeFromPainter(QPainter*) 0x0001acab   Thumb Code    60  qglcustomshaderstage.o(.text)
    QGLCustomShaderStage::source() const     0x0001ace7   Thumb Code    16  qglcustomshaderstage.o(.text)
    QGLCustomShaderStage::setInactive()      0x0001acf7   Thumb Code    12  qglcustomshaderstage.o(.text)
    QGLCustomShaderStage::setSource(const QByteArray&) 0x0001ad03   Thumb Code    12  qglcustomshaderstage.o(.text)
    QTriangulatingStroker::arcPoints(float, float, float, float, float, float, QVarLengthArray<float, (int)256>&) 0x0001ada7   Thumb Code   464  qtriangulatingstroker.o(.text)
    QTriangulatingStroker::endCap(const float*) 0x0001af77   Thumb Code   224  qtriangulatingstroker.o(.text)
    QTriangulatingStroker::join(const float*) 0x0001b057   Thumb Code   764  qtriangulatingstroker.o(.text)
    QTriangulatingStroker::endCapOrJoinClosed(const float*, const float*, bool, bool) 0x0001b353   Thumb Code    98  qtriangulatingstroker.o(.text)
    QTriangulatingStroker::cubicTo(const float*) 0x0001b3b5   Thumb Code   216  qtriangulatingstroker.o(.text)
    QTriangulatingStroker::moveTo(const float*) 0x0001b48d   Thumb Code   510  qtriangulatingstroker.o(.text)
    QTriangulatingStroker::process(const QVectorPath&, const QPen&, const QRectF&) 0x0001b68b   Thumb Code   884  qtriangulatingstroker.o(.text)
    QDashedStrokeProcessor::QDashedStrokeProcessor() 0x0001b9ff   Thumb Code    50  qtriangulatingstroker.o(.text)
    QDashedStrokeProcessor::QDashedStrokeProcessor__sub_object() 0x0001b9ff   Thumb Code     0  qtriangulatingstroker.o(.text)
    QDashedStrokeProcessor::process(const QVectorPath&, const QPen&, const QRectF&) 0x0001ba31   Thumb Code   640  qtriangulatingstroker.o(.text)
    QIntersectionPoint::operator <(const QIntersectionPoint&) const 0x0001c095   Thumb Code    86  qtriangulator.o(.text)
    QIntersectionPoint::round() const        0x0001c0eb   Thumb Code    62  qtriangulator.o(.text)
    QInt64Set::rehash(int)                   0x0001c129   Thumb Code    94  qtriangulator.o(.text)
    QInt64Set::insert(unsigned long long)    0x0001c187   Thumb Code   132  qtriangulator.o(.text)
    QInt64Set::contains(unsigned long long) const 0x0001c20b   Thumb Code    84  qtriangulator.o(.text)
    QIntersectionPoint::isOnLine(const QPodPoint&, const QPodPoint&) const 0x0001c25f   Thumb Code   324  qtriangulator.o(.text)
    qTriangulate(const float*, int, unsigned, const QTransform&) 0x0001c3a3   Thumb Code   158  qtriangulator.o(.text)
    qTriangulate(const QVectorPath&, const QTransform&, float) 0x0001c441   Thumb Code   148  qtriangulator.o(.text)
    qTriangulate(const QPainterPath&, const QTransform&, float) 0x0001c4d5   Thumb Code   146  qtriangulator.o(.text)
    qPolyline(const QVectorPath&, const QTransform&, float) 0x0001c567   Thumb Code   146  qtriangulator.o(.text)
    qPolyline(const QPainterPath&, const QTransform&, float) 0x0001c5f9   Thumb Code   146  qtriangulator.o(.text)
    QIntersectionPoint::operator ==(const QIntersectionPoint&) const 0x0001c68b   Thumb Code    54  qtriangulator.o(.text)
    QGLTextureGlyphCache::setContext(QGLContext*) 0x0001c715   Thumb Code    44  qtextureglyphcache_gl.o(.text)
    QGLTextureGlyphCache::QGLTextureGlyphCache(QGLContext*, QFontEngineGlyphCache::Type, const QTransform&) 0x0001c741   Thumb Code    78  qtextureglyphcache_gl.o(.text)
    QGLTextureGlyphCache::QGLTextureGlyphCache__sub_object(QGLContext*, QFontEngineGlyphCache::Type, const QTransform&) 0x0001c741   Thumb Code     0  qtextureglyphcache_gl.o(.text)
    QGLTextureGlyphCache::clear()            0x0001c78f   Thumb Code    72  qtextureglyphcache_gl.o(.text)
    QGLTextureGlyphCache::~QGLTextureGlyphCache() 0x0001c7d7   Thumb Code    74  qtextureglyphcache_gl.o(.text)
    QGLTextureGlyphCache::~QGLTextureGlyphCache__sub_object() 0x0001c7d7   Thumb Code     0  qtextureglyphcache_gl.o(.text)
    QGLTextureGlyphCache::~QGLTextureGlyphCache__deallocating() 0x0001c821   Thumb Code    16  qtextureglyphcache_gl.o(.text)
    thunk{-8} to QGLTextureGlyphCache::~QGLTextureGlyphCache__deallocating() 0x0001c831   Thumb Code     4  qtextureglyphcache_gl.o(.text)
    thunk{-8} to QGLTextureGlyphCache::~QGLTextureGlyphCache() 0x0001c835   Thumb Code     4  qtextureglyphcache_gl.o(.text)
    QGLTextureGlyphCache::createTextureData(int, int) 0x0001c839   Thumb Code   280  qtextureglyphcache_gl.o(.text)
    thunk{-8} to QGLTextureGlyphCache::createTextureData(int, int) 0x0001c951   Thumb Code     4  qtextureglyphcache_gl.o(.text)
    QGLTextureGlyphCache::resizeTextureData(int, int) 0x0001c955   Thumb Code   682  qtextureglyphcache_gl.o(.text)
    thunk{-8} to QGLTextureGlyphCache::resizeTextureData(int, int) 0x0001cbff   Thumb Code     4  qtextureglyphcache_gl.o(.text)
    QGLTextureGlyphCache::fillTexture(const QTextureGlyphCache::Coord&, unsigned) 0x0001cc03   Thumb Code   440  qtextureglyphcache_gl.o(.text)
    thunk{-8} to QGLTextureGlyphCache::fillTexture(const QTextureGlyphCache::Coord&, unsigned) 0x0001cdbb   Thumb Code     4  qtextureglyphcache_gl.o(.text)
    QGLTextureGlyphCache::glyphPadding() const 0x0001cdbf   Thumb Code     4  qtextureglyphcache_gl.o(.text)
    thunk{-8} to QGLTextureGlyphCache::glyphPadding() const 0x0001cdc3   Thumb Code     4  qtextureglyphcache_gl.o(.text)
    QGLTextureGlyphCache::maxTextureWidth() const 0x0001cdc7   Thumb Code    12  qtextureglyphcache_gl.o(.text)
    thunk{-8} to QGLTextureGlyphCache::maxTextureWidth() const 0x0001cdd3   Thumb Code     4  qtextureglyphcache_gl.o(.text)
    QGLTextureGlyphCache::maxTextureHeight() const 0x0001cdd7   Thumb Code    52  qtextureglyphcache_gl.o(.text)
    thunk{-8} to QGLTextureGlyphCache::maxTextureHeight() const 0x0001ce0b   Thumb Code     4  qtextureglyphcache_gl.o(.text)
    QGLWidget::getStaticMetaObject()         0x0001ce25   Thumb Code     4  moc_qgl.o(.text)
    QGLWidget::metaObject() const            0x0001ce29   Thumb Code    12  moc_qgl.o(.text)
    QGLWidget::qt_metacast(const char*)      0x0001ce35   Thumb Code    40  moc_qgl.o(.text)
    QGLWidget::qt_metacall(QMetaObject::Call, int, void**) 0x0001ce5d   Thumb Code    50  moc_qgl.o(.text)
    QGLTextureDestroyer::getStaticMetaObject() 0x0001ce95   Thumb Code     4  moc_qgl_p.o(.text)
    QGLTextureDestroyer::metaObject() const  0x0001ce99   Thumb Code    12  moc_qgl_p.o(.text)
    QGLTextureDestroyer::qt_metacast(const char*) 0x0001cea5   Thumb Code    40  moc_qgl_p.o(.text)
    QGLTextureDestroyer::freeTexture(QGLContext*, QPixmapData*, unsigned) 0x0001cecd   Thumb Code    38  moc_qgl_p.o(.text)
    QGLTextureDestroyer::qt_metacall(QMetaObject::Call, int, void**) 0x0001cef3   Thumb Code   120  moc_qgl_p.o(.text)
    QGLSignalProxy::getStaticMetaObject()    0x0001cf6b   Thumb Code     6  moc_qgl_p.o(.text)
    QGLSignalProxy::metaObject() const       0x0001cf71   Thumb Code    14  moc_qgl_p.o(.text)
    QGLSignalProxy::qt_metacast(const char*) 0x0001cf7f   Thumb Code    40  moc_qgl_p.o(.text)
    QGLSignalProxy::aboutToDestroyContext(const QGLContext*) 0x0001cfa7   Thumb Code    30  moc_qgl_p.o(.text)
    QGLSignalProxy::qt_metacall(QMetaObject::Call, int, void**) 0x0001cfc5   Thumb Code    40  moc_qgl_p.o(.text)
    QGLShader::getStaticMetaObject()         0x0001cff1   Thumb Code     4  moc_qglshaderprogram.o(.text)
    QGLShader::metaObject() const            0x0001cff5   Thumb Code    12  moc_qglshaderprogram.o(.text)
    QGLShader::qt_metacast(const char*)      0x0001d001   Thumb Code    40  moc_qglshaderprogram.o(.text)
    QGLShader::qt_metacall(QMetaObject::Call, int, void**) 0x0001d029   Thumb Code     8  moc_qglshaderprogram.o(.text)
    QGLShaderProgram::getStaticMetaObject()  0x0001d031   Thumb Code     6  moc_qglshaderprogram.o(.text)
    QGLShaderProgram::metaObject() const     0x0001d037   Thumb Code    14  moc_qglshaderprogram.o(.text)
    QGLShaderProgram::qt_metacast(const char*) 0x0001d045   Thumb Code    40  moc_qglshaderprogram.o(.text)
    QGLShaderProgram::qt_metacall(QMetaObject::Call, int, void**) 0x0001d06d   Thumb Code    34  moc_qglshaderprogram.o(.text)
    QGraphicsShaderEffect::getStaticMetaObject() 0x0001d095   Thumb Code     4  moc_qgraphicsshadereffect_p.o(.text)
    QGraphicsShaderEffect::metaObject() const 0x0001d099   Thumb Code    12  moc_qgraphicsshadereffect_p.o(.text)
    QGraphicsShaderEffect::qt_metacast(const char*) 0x0001d0a5   Thumb Code    40  moc_qgraphicsshadereffect_p.o(.text)
    QGraphicsShaderEffect::qt_metacall(QMetaObject::Call, int, void**) 0x0001d0cd   Thumb Code     8  moc_qgraphicsshadereffect_p.o(.text)
    QGLWindowSurface::getStaticMetaObject()  0x0001d0d9   Thumb Code     4  moc_qwindowsurface_gl_p.o(.text)
    QGLWindowSurface::metaObject() const     0x0001d0dd   Thumb Code    12  moc_qwindowsurface_gl_p.o(.text)
    QGLWindowSurface::qt_metacast(const char*) 0x0001d0e9   Thumb Code    58  moc_qwindowsurface_gl_p.o(.text)
    QGLWindowSurface::qt_metacall(QMetaObject::Call, int, void**) 0x0001d123   Thumb Code    40  moc_qwindowsurface_gl_p.o(.text)
    QGLEngineSharedShaders::getStaticMetaObject() 0x0001d161   Thumb Code     4  moc_qglengineshadermanager_p.o(.text)
    QGLEngineSharedShaders::metaObject() const 0x0001d165   Thumb Code    12  moc_qglengineshadermanager_p.o(.text)
    QGLEngineSharedShaders::qt_metacast(const char*) 0x0001d171   Thumb Code    38  moc_qglengineshadermanager_p.o(.text)
    QGLEngineSharedShaders::shaderProgNeedsChanging() 0x0001d197   Thumb Code    14  moc_qglengineshadermanager_p.o(.text)
    QGLEngineSharedShaders::qt_metacall(QMetaObject::Call, int, void**) 0x0001d1a5   Thumb Code    34  moc_qglengineshadermanager_p.o(.text)
    QGLEngineShaderManager::getStaticMetaObject() 0x0001d1c7   Thumb Code     6  moc_qglengineshadermanager_p.o(.text)
    QGLEngineShaderManager::metaObject() const 0x0001d1cd   Thumb Code    14  moc_qglengineshadermanager_p.o(.text)
    QGLEngineShaderManager::qt_metacast(const char*) 0x0001d1db   Thumb Code    40  moc_qglengineshadermanager_p.o(.text)
    QGLEngineShaderManager::qt_metacall(QMetaObject::Call, int, void**) 0x0001d203   Thumb Code    30  moc_qglengineshadermanager_p.o(.text)
    QGLTextureGlyphCache::getStaticMetaObject() 0x0001d229   Thumb Code     4  moc_qtextureglyphcache_gl_p.o(.text)
    QGLTextureGlyphCache::metaObject() const 0x0001d22d   Thumb Code    12  moc_qtextureglyphcache_gl_p.o(.text)
    QGLTextureGlyphCache::qt_metacast(const char*) 0x0001d239   Thumb Code    58  moc_qtextureglyphcache_gl_p.o(.text)
    QGLTextureGlyphCache::qt_metacall(QMetaObject::Call, int, void**) 0x0001d273   Thumb Code    92  moc_qtextureglyphcache_gl_p.o(.text)
    __ARM_switch8                            0x0001d2ec   ARM Code      24  switch8.o(.text)
    __rt_switch8                             0x0001d2ec   ARM Code       0  switch8.o(.text)
    _E32Dll_Body                             0x0001d304   ARM Code      56  uc_dll.o(.text)
    __aeabi_atexit                           0x0001d340   ARM Code      28  ucppfini.o(.text)
    __cxa_atexit                             0x0001d35c   ARM Code      48  ucppfini.o(.text)
    __cxa_finalize                           0x0001d38c   ARM Code      48  ucppfini.o(.text)
    run_static_dtors                         0x0001d3bc   ARM Code       8  ucppfini.o(.text)
    __DLL_Export_Table__                     0x0001d3d0   ARM Code       4  dllexp.o(.text)
    qpen_brush(const QPen&)                  0x0001e68d   Thumb Code    12  qpaintengineex_opengl2.o(i._Z10qpen_brushRK4QPen)
    qt_premultiplyColor(QColor, float)       0x0001e699   Thumb Code   100  qpaintengineex_opengl2.o(i._Z19qt_premultiplyColor6QColorf)
    qCeil(float)                             0x0001e6fd   Thumb Code    12  qglpixmapfilter.o(i._Z5qCeilf)
    qDebug()                                 0x0001e709   Thumb Code    10  qwindowsurface_gl.o(i._Z6qDebugv)
    qRound(float)                            0x0001e713   Thumb Code    70  qglpixelbuffer.o(i._Z6qRoundf)
    qstrlen(const char*)                     0x0001e759   Thumb Code    18  qgl.o(i._Z7qstrlenPKc)
    qWarning()                               0x0001e76b   Thumb Code    50  qglshaderprogram.o(i._Z8qWarningv)
    qstrncmp(const char*, const char*, unsigned) 0x0001e7af   Thumb Code    36  qgl.o(i._Z8qstrncmpPKcS0_j)
    QByteArray::QByteArray()                 0x0001e7d5   Thumb Code    16  qglshaderprogram.o(i._ZN10QByteArrayC1Ev)
    QByteArray::QByteArray__sub_object()     0x0001e7d5   Thumb Code     0  qglshaderprogram.o(i._ZN10QByteArrayC1Ev)
    QByteArray::~QByteArray()                0x0001e7e9   Thumb Code    24  qgl.o(i._ZN10QByteArrayD1Ev)
    QByteArray::~QByteArray__sub_object()    0x0001e7e9   Thumb Code     0  qgl.o(i._ZN10QByteArrayD1Ev)
    QGLTexture::QGLTexture(QGLContext*, unsigned, unsigned, QFlags<QGLContext::BindOption>) 0x0001e801   Thumb Code    14  qgl.o(i._ZN10QGLTextureC1EP10QGLContextjj6QFlagsINS0_10BindOptionEE)
    QGLTexture::QGLTexture__sub_object(QGLContext*, unsigned, unsigned, QFlags<QGLContext::BindOption>) 0x0001e801   Thumb Code     0  qgl.o(i._ZN10QGLTextureC1EP10QGLContextjj6QFlagsINS0_10BindOptionEE)
    QGLTexture::~QGLTexture()                0x0001e80f   Thumb Code    38  qgl.o(i._ZN10QGLTextureD1Ev)
    QGLTexture::~QGLTexture__sub_object()    0x0001e80f   Thumb Code     0  qgl.o(i._ZN10QGLTextureD1Ev)
    QMultiHash<unsigned long long, QGL2GradientCache::CacheInfo>::~QMultiHash() 0x0001e835   Thumb Code     8  qglgradientcache.o(i._ZN10QMultiHashIyN17QGL2GradientCache9CacheInfoEED1Ev)
    QMultiHash<unsigned long long, QGL2GradientCache::CacheInfo>::~QMultiHash__sub_object() 0x0001e835   Thumb Code     0  qglgradientcache.o(i._ZN10QMultiHashIyN17QGL2GradientCache9CacheInfoEED1Ev)
    QTransform::QTransform(const QTransform&) 0x0001e83d   Thumb Code    60  qpaintengineex_opengl2.o(i._ZN10QTransformC1ERKS_)
    QTransform::QTransform__sub_object(const QTransform&) 0x0001e83d   Thumb Code     0  qpaintengineex_opengl2.o(i._ZN10QTransformC1ERKS_)
    QVertexSet<unsigned>::~QVertexSet()      0x0001e879   Thumb Code    18  qtriangulator.o(i._ZN10QVertexSetIjED1Ev)
    QVertexSet<unsigned>::~QVertexSet__sub_object() 0x0001e879   Thumb Code     0  qtriangulator.o(i._ZN10QVertexSetIjED1Ev)
    QVertexSet<unsigned short>::~QVertexSet() 0x0001e895   Thumb Code    18  qtriangulator.o(i._ZN10QVertexSetItED1Ev)
    QVertexSet<unsigned short>::~QVertexSet__sub_object() 0x0001e895   Thumb Code     0  qtriangulator.o(i._ZN10QVertexSetItED1Ev)
    QEglContext::display()                   0x0001e8b1   Thumb Code     8  qglpixelbuffer_egl.o(i._ZN11QEglContext7displayEv)
    QGLColormap::detach()                    0x0001e8b9   Thumb Code    24  qglcolormap.o(i._ZN11QGLColormap6detachEv)
    QReadLocker::QReadLocker(QReadWriteLock*) 0x0001e8d1   Thumb Code    34  qgl.o(i._ZN11QReadLockerC1EP14QReadWriteLock)
    QReadLocker::QReadLocker__sub_object(QReadWriteLock*) 0x0001e8d1   Thumb Code     0  qgl.o(i._ZN11QReadLockerC1EP14QReadWriteLock)
    QReadLocker::~QReadLocker()              0x0001e8f3   Thumb Code    32  qgl.o(i._ZN11QReadLockerD1Ev)
    QReadLocker::~QReadLocker__sub_object()  0x0001e8f3   Thumb Code     0  qgl.o(i._ZN11QReadLockerD1Ev)
    QStringList::~QStringList()              0x0001e913   Thumb Code     8  qgl.o(i._ZN11QStringListD1Ev)
    QStringList::~QStringList__sub_object()  0x0001e913   Thumb Code     0  qgl.o(i._ZN11QStringListD1Ev)
    QStrokerOps::lineTo(float, float)        0x0001e91d   Thumb Code    28  qtriangulatingstroker.o(i._ZN11QStrokerOps6lineToEff)
    QStrokerOps::moveTo(float, float)        0x0001e93d   Thumb Code    50  qtriangulatingstroker.o(i._ZN11QStrokerOps6moveToEff)
    QDashStroker::~QDashStroker()            0x0001e971   Thumb Code    24  qpaintengineex_opengl2.o(i._ZN12QDashStrokerD1Ev)
    QDashStroker::~QDashStroker__sub_object() 0x0001e971   Thumb Code     0  qpaintengineex_opengl2.o(i._ZN12QDashStrokerD1Ev)
    QMutexLocker::QMutexLocker(QMutex*)      0x0001e997   Thumb Code    28  qgl.o(i._ZN12QMutexLockerC1EP6QMutex)
    QMutexLocker::QMutexLocker__sub_object(QMutex*) 0x0001e997   Thumb Code     0  qgl.o(i._ZN12QMutexLockerC1EP6QMutex)
    QMutexLocker::~QMutexLocker()            0x0001e9b3   Thumb Code    28  qgl.o(i._ZN12QMutexLockerD1Ev)
    QMutexLocker::~QMutexLocker__sub_object() 0x0001e9b3   Thumb Code     0  qgl.o(i._ZN12QMutexLockerD1Ev)
    QPolylineSet::QPolylineSet()             0x0001e9cf   Thumb Code    18  qtriangulator.o(i._ZN12QPolylineSetC1Ev)
    QPolylineSet::QPolylineSet__sub_object() 0x0001e9cf   Thumb Code     0  qtriangulator.o(i._ZN12QPolylineSetC1Ev)
    QPolylineSet::~QPolylineSet()            0x0001e9eb   Thumb Code    18  qtriangulator.o(i._ZN12QPolylineSetD1Ev)
    QPolylineSet::~QPolylineSet__sub_object() 0x0001e9eb   Thumb Code     0  qtriangulator.o(i._ZN12QPolylineSetD1Ev)
    QTriangleSet::QTriangleSet()             0x0001ea07   Thumb Code    18  qtriangulator.o(i._ZN12QTriangleSetC1Ev)
    QTriangleSet::QTriangleSet__sub_object() 0x0001ea07   Thumb Code     0  qtriangulator.o(i._ZN12QTriangleSetC1Ev)
    QTriangleSet::~QTriangleSet()            0x0001ea23   Thumb Code    18  qpaintengineex_opengl2.o(i._ZN12QTriangleSetD1Ev)
    QTriangleSet::~QTriangleSet__sub_object() 0x0001ea23   Thumb Code     0  qpaintengineex_opengl2.o(i._ZN12QTriangleSetD1Ev)
    QWriteLocker::QWriteLocker(QReadWriteLock*) 0x0001ea3f   Thumb Code    34  qgl.o(i._ZN12QWriteLockerC1EP14QReadWriteLock)
    QWriteLocker::QWriteLocker__sub_object(QReadWriteLock*) 0x0001ea3f   Thumb Code     0  qgl.o(i._ZN12QWriteLockerC1EP14QReadWriteLock)
    QWriteLocker::~QWriteLocker()            0x0001ea61   Thumb Code    32  qgl.o(i._ZN12QWriteLockerD1Ev)
    QWriteLocker::~QWriteLocker__sub_object() 0x0001ea61   Thumb Code     0  qgl.o(i._ZN12QWriteLockerD1Ev)
    QConcatenable<QLatin1String>::size(const QLatin1String&) 0x0001ea81   Thumb Code    20  qglengineshadermanager.o(i._ZN13QConcatenableI13QLatin1StringE4sizeERKS0_)
    QConcatenable<QLatin1String>::appendTo(const QLatin1String&, QChar*&) 0x0001ea95   Thumb Code    38  qglengineshadermanager.o(i._ZN13QConcatenableI13QLatin1StringE8appendToERKS0_RP5QChar)
    QPainterState::QPainterState(const QPainterState&) 0x0001eabd   Thumb Code   338  qpaintengineex_opengl2.o(i._ZN13QPainterStateC1ERKS_)
    QPainterState::QPainterState__sub_object(const QPainterState&) 0x0001eabd   Thumb Code     0  qpaintengineex_opengl2.o(i._ZN13QPainterStateC1ERKS_)
    QTriangulator<unsigned>::ComplexToSimple::~ComplexToSimple() 0x0001ec75   Thumb Code    68  qtriangulator.o(i._ZN13QTriangulatorIjE15ComplexToSimpleD1Ev)
    QTriangulator<unsigned>::ComplexToSimple::~ComplexToSimple__sub_object() 0x0001ec75   Thumb Code     0  qtriangulator.o(i._ZN13QTriangulatorIjE15ComplexToSimpleD1Ev)
    QTriangulator<unsigned>::SimpleToMonotone::~SimpleToMonotone() 0x0001ecf3   Thumb Code    32  qtriangulator.o(i._ZN13QTriangulatorIjE16SimpleToMonotoneD1Ev)
    QTriangulator<unsigned>::SimpleToMonotone::~SimpleToMonotone__sub_object() 0x0001ecf3   Thumb Code     0  qtriangulator.o(i._ZN13QTriangulatorIjE16SimpleToMonotoneD1Ev)
    QTriangulator<unsigned>::~QTriangulator() 0x0001ed29   Thumb Code    18  qtriangulator.o(i._ZN13QTriangulatorIjED1Ev)
    QTriangulator<unsigned>::~QTriangulator__sub_object() 0x0001ed29   Thumb Code     0  qtriangulator.o(i._ZN13QTriangulatorIjED1Ev)
    QTriangulator<unsigned short>::ComplexToSimple::~ComplexToSimple() 0x0001ed45   Thumb Code    68  qtriangulator.o(i._ZN13QTriangulatorItE15ComplexToSimpleD1Ev)
    QTriangulator<unsigned short>::ComplexToSimple::~ComplexToSimple__sub_object() 0x0001ed45   Thumb Code     0  qtriangulator.o(i._ZN13QTriangulatorItE15ComplexToSimpleD1Ev)
    QTriangulator<unsigned short>::SimpleToMonotone::~SimpleToMonotone() 0x0001edc3   Thumb Code    32  qtriangulator.o(i._ZN13QTriangulatorItE16SimpleToMonotoneD1Ev)
    QTriangulator<unsigned short>::SimpleToMonotone::~SimpleToMonotone__sub_object() 0x0001edc3   Thumb Code     0  qtriangulator.o(i._ZN13QTriangulatorItE16SimpleToMonotoneD1Ev)
    QTriangulator<unsigned short>::~QTriangulator() 0x0001edf9   Thumb Code    18  qtriangulator.o(i._ZN13QTriangulatorItED1Ev)
    QTriangulator<unsigned short>::~QTriangulator__sub_object() 0x0001edf9   Thumb Code     0  qtriangulator.o(i._ZN13QTriangulatorItED1Ev)
    QEglProperties::~QEglProperties()        0x0001ee15   Thumb Code     8  qgl_symbian.o(i._ZN14QEglPropertiesD1Ev)
    QEglProperties::~QEglProperties__sub_object() 0x0001ee15   Thumb Code     0  qgl_symbian.o(i._ZN14QEglPropertiesD1Ev)
    QGLSignalProxy::~QGLSignalProxy__deallocating() 0x0001ee1d   Thumb Code    16  moc_qgl_p.o(i._ZN14QGLSignalProxyD0Ev)
    QGLSignalProxy::~QGLSignalProxy()        0x0001ee2d   Thumb Code     8  moc_qgl_p.o(i._ZN14QGLSignalProxyD1Ev)
    QGLSignalProxy::~QGLSignalProxy__sub_object() 0x0001ee2d   Thumb Code     0  moc_qgl_p.o(i._ZN14QGLSignalProxyD1Ev)
    QPaintEngineEx::sync()                   0x0001ee35   Thumb Code     2  qpaintengineex_opengl2.o(i._ZN14QPaintEngineEx4syncEv)
    QBasicAtomicInt::ref()                   0x0001ee37   Thumb Code    18  qgl.o(i._ZN15QBasicAtomicInt3refEv)
    QBasicAtomicInt::deref()                 0x0001ee49   Thumb Code    18  qgl.o(i._ZN15QBasicAtomicInt5derefEv)
    QGLPixmapFilter<QPixmapBlurFilter>::~QGLPixmapFilter() 0x0001ee5b   Thumb Code     0  qglpixmapfilter.o(i._ZN15QGLPixmapFilterI17QPixmapBlurFilterED2Ev)
    QGLPixmapFilter<QPixmapBlurFilter>::~QGLPixmapFilter__sub_object() 0x0001ee5b   Thumb Code     8  qglpixmapfilter.o(i._ZN15QGLPixmapFilterI17QPixmapBlurFilterED2Ev)
    QGLPixmapFilter<QPixmapColorizeFilter>::~QGLPixmapFilter() 0x0001ee67   Thumb Code     0  qglpixmapfilter.o(i._ZN15QGLPixmapFilterI21QPixmapColorizeFilterED2Ev)
    QGLPixmapFilter<QPixmapColorizeFilter>::~QGLPixmapFilter__sub_object() 0x0001ee67   Thumb Code     8  qglpixmapfilter.o(i._ZN15QGLPixmapFilterI21QPixmapColorizeFilterED2Ev)
    QGLPixmapFilter<QPixmapDropShadowFilter>::~QGLPixmapFilter() 0x0001ee73   Thumb Code     0  qglpixmapfilter.o(i._ZN15QGLPixmapFilterI23QPixmapDropShadowFilterED2Ev)
    QGLPixmapFilter<QPixmapDropShadowFilter>::~QGLPixmapFilter__sub_object() 0x0001ee73   Thumb Code     8  qglpixmapfilter.o(i._ZN15QGLPixmapFilterI23QPixmapDropShadowFilterED2Ev)
    QGLPixmapFilter<QPixmapConvolutionFilter>::~QGLPixmapFilter() 0x0001ee7f   Thumb Code     0  qglpixmapfilter.o(i._ZN15QGLPixmapFilterI24QPixmapConvolutionFilterED2Ev)
    QGLPixmapFilter<QPixmapConvolutionFilter>::~QGLPixmapFilter__sub_object() 0x0001ee7f   Thumb Code     8  qglpixmapfilter.o(i._ZN15QGLPixmapFilterI24QPixmapConvolutionFilterED2Ev)
    QGLBufferPrivate::QGLBufferPrivate(QGLBuffer::Type) 0x0001ee8d   Thumb Code    40  qglbuffer.o(i._ZN16QGLBufferPrivateC1EN9QGLBuffer4TypeE)
    QGLBufferPrivate::QGLBufferPrivate__sub_object(QGLBuffer::Type) 0x0001ee8d   Thumb Code     0  qglbuffer.o(i._ZN16QGLBufferPrivateC1EN9QGLBuffer4TypeE)
    QGLFormatPrivate::QGLFormatPrivate()     0x0001eeb9   Thumb Code    90  qgl.o(i._ZN16QGLFormatPrivateC1Ev)
    QGLFormatPrivate::QGLFormatPrivate__sub_object() 0x0001eeb9   Thumb Code     0  qgl.o(i._ZN16QGLFormatPrivateC1Ev)
    QGLShaderPrivate::QGLShaderPrivate(const QGLContext*, QFlags<QGLShader::ShaderTypeBit>) 0x0001ef15   Thumb Code    54  qglshaderprogram.o(i._ZN16QGLShaderPrivateC1EPK10QGLContext6QFlagsIN9QGLShader13ShaderTypeBitEE)
    QGLShaderPrivate::QGLShaderPrivate__sub_object(const QGLContext*, QFlags<QGLShader::ShaderTypeBit>) 0x0001ef15   Thumb Code     0  qglshaderprogram.o(i._ZN16QGLShaderPrivateC1EPK10QGLContext6QFlagsIN9QGLShader13ShaderTypeBitEE)
    QGLWidgetPrivate::aboutToDestroy()       0x0001ef6b   Thumb Code    18  qgl.o(i._ZN16QGLWidgetPrivate14aboutToDestroyEv)
    QGLWidgetPrivate::QGLWidgetPrivate()     0x0001ef7d   Thumb Code    72  qgl.o(i._ZN16QGLWidgetPrivateC1Ev)
    QGLWidgetPrivate::QGLWidgetPrivate__sub_object() 0x0001ef7d   Thumb Code     0  qgl.o(i._ZN16QGLWidgetPrivateC1Ev)
    QGLWidgetPrivate::~QGLWidgetPrivate__deallocating() 0x0001efe7   Thumb Code    16  qgl.o(i._ZN16QGLWidgetPrivateD0Ev)
    QGLWidgetPrivate::~QGLWidgetPrivate()    0x0001eff9   Thumb Code    44  qgl.o(i._ZN16QGLWidgetPrivateD1Ev)
    QGLWidgetPrivate::~QGLWidgetPrivate__sub_object() 0x0001eff9   Thumb Code     0  qgl.o(i._ZN16QGLWidgetPrivateD1Ev)
    QPainterClipInfo::QPainterClipInfo(const QPainterClipInfo&) 0x0001f043   Thumb Code    70  qpaintengineex_opengl2.o(i._ZN16QPainterClipInfoC1ERKS_)
    QPainterClipInfo::QPainterClipInfo__sub_object(const QPainterClipInfo&) 0x0001f043   Thumb Code     0  qpaintengineex_opengl2.o(i._ZN16QPainterClipInfoC1ERKS_)
    QPainterClipInfo::~QPainterClipInfo()    0x0001f095   Thumb Code    20  qpaintengineex_opengl2.o(i._ZN16QPainterClipInfoD1Ev)
    QPainterClipInfo::~QPainterClipInfo__sub_object() 0x0001f095   Thumb Code     0  qpaintengineex_opengl2.o(i._ZN16QPainterClipInfoD1Ev)
    QForeachContainer<QList<QGLBlurTextureCache*>>::~QForeachContainer() 0x0001f0b5   Thumb Code     8  qglpixmapfilter.o(i._ZN17QForeachContainerI5QListIP19QGLBlurTextureCacheEED1Ev)
    QForeachContainer<QList<QGLBlurTextureCache*>>::~QForeachContainer__sub_object() 0x0001f0b5   Thumb Code     0  qglpixmapfilter.o(i._ZN17QForeachContainerI5QListIP19QGLBlurTextureCacheEED1Ev)
    QForeachContainer<QList<QGLShader*>>::~QForeachContainer() 0x0001f0bd   Thumb Code     8  qglshaderprogram.o(i._ZN17QForeachContainerI5QListIP9QGLShaderEED1Ev)
    QForeachContainer<QList<QGLShader*>>::~QForeachContainer__sub_object() 0x0001f0bd   Thumb Code     0  qglshaderprogram.o(i._ZN17QForeachContainerI5QListIP9QGLShaderEED1Ev)
    QForeachContainer<QList<QGLContext**>>::~QForeachContainer() 0x0001f0c5   Thumb Code     8  qwindowsurface_gl.o(i._ZN17QForeachContainerI5QListIPP10QGLContextEED1Ev)
    QForeachContainer<QList<QGLContext**>>::~QForeachContainer__sub_object() 0x0001f0c5   Thumb Code     0  qwindowsurface_gl.o(i._ZN17QForeachContainerI5QListIPP10QGLContextEED1Ev)
    QGL2GradientCache::CacheInfo::~CacheInfo() 0x0001f0cd   Thumb Code    12  qglgradientcache.o(i._ZN17QGL2GradientCache9CacheInfoD1Ev)
    QGL2GradientCache::CacheInfo::~CacheInfo__sub_object() 0x0001f0cd   Thumb Code     0  qglgradientcache.o(i._ZN17QGL2GradientCache9CacheInfoD1Ev)
    QGL2PaintEngineEx::state()               0x0001f0d9   Thumb Code    14  qpaintengineex_opengl2.o(i._ZN17QGL2PaintEngineEx5stateEv)
    QGLExtensionFuncs::QGLExtensionFuncs()   0x0001f0e7   Thumb Code    30  qgl.o(i._ZN17QGLExtensionFuncsC1Ev)
    QGLExtensionFuncs::QGLExtensionFuncs__sub_object() 0x0001f0e7   Thumb Code     0  qgl.o(i._ZN17QGLExtensionFuncsC1Ev)
    QGLGraphicsSystem::~QGLGraphicsSystem__deallocating() 0x0001f105   Thumb Code    16  qgraphicssystem_gl.o(i._ZN17QGLGraphicsSystemD0Ev)
    QGLGraphicsSystem::~QGLGraphicsSystem()  0x0001f115   Thumb Code     8  qgraphicssystem_gl.o(i._ZN17QGLGraphicsSystemD1Ev)
    QGLGraphicsSystem::~QGLGraphicsSystem__sub_object() 0x0001f115   Thumb Code     0  qgraphicssystem_gl.o(i._ZN17QGLGraphicsSystemD1Ev)
    QGL2PEXVertexArray::addQuad(const QRectF&) 0x0001f11d   Thumb Code    76  qpaintengineex_opengl2.o(i._ZN18QGL2PEXVertexArray7addQuadERK6QRectF)
    QGL2PEXVertexArray::addVertex(float, float) 0x0001f169   Thumb Code    14  qpaintengineex_opengl2.o(i._ZN18QGL2PEXVertexArray9addVertexEff)
    QGL2PEXVertexArray::QGL2PEXVertexArray() 0x0001f179   Thumb Code    36  qpaintengineex_opengl2.o(i._ZN18QGL2PEXVertexArrayC1Ev)
    QGL2PEXVertexArray::QGL2PEXVertexArray__sub_object() 0x0001f179   Thumb Code     0  qpaintengineex_opengl2.o(i._ZN18QGL2PEXVertexArrayC1Ev)
    QGL2PEXVertexArray::~QGL2PEXVertexArray() 0x0001f1a5   Thumb Code    18  qpaintengineex_opengl2.o(i._ZN18QGL2PEXVertexArrayD1Ev)
    QGL2PEXVertexArray::~QGL2PEXVertexArray__sub_object() 0x0001f1a5   Thumb Code     0  qpaintengineex_opengl2.o(i._ZN18QGL2PEXVertexArrayD1Ev)
    QGLBlurTextureInfo::QGLBlurTextureInfo(const QImage&, unsigned, float) 0x0001f1c1   Thumb Code    34  qglpixmapfilter.o(i._ZN18QGLBlurTextureInfoC1ERK6QImagejf)
    QGLBlurTextureInfo::QGLBlurTextureInfo__sub_object(const QImage&, unsigned, float) 0x0001f1c1   Thumb Code     0  qglpixmapfilter.o(i._ZN18QGLBlurTextureInfoC1ERK6QImagejf)
    QGLBlurTextureInfo::~QGLBlurTextureInfo() 0x0001f1f3   Thumb Code    20  qglpixmapfilter.o(i._ZN18QGLBlurTextureInfoD1Ev)
    QGLBlurTextureInfo::~QGLBlurTextureInfo__sub_object() 0x0001f1f3   Thumb Code     0  qglpixmapfilter.o(i._ZN18QGLBlurTextureInfoD1Ev)
    QTextureGlyphCache::QTextureGlyphCache__sub_object(QFontEngineGlyphCache::Type, const QTransform&) 0x0001f211   Thumb Code   100  qtextureglyphcache_gl.o(i._ZN18QTextureGlyphCacheC2EN21QFontEngineGlyphCache4TypeERK10QTransform)
    QTextureGlyphCache::~QTextureGlyphCache__deallocating() 0x0001f287   Thumb Code    16  qtextureglyphcache_gl.o(i._ZN18QTextureGlyphCacheD0Ev)
    QTextureGlyphCache::~QTextureGlyphCache() 0x0001f299   Thumb Code     0  qtextureglyphcache_gl.o(i._ZN18QTextureGlyphCacheD2Ev)
    QTextureGlyphCache::~QTextureGlyphCache__sub_object() 0x0001f299   Thumb Code    20  qtextureglyphcache_gl.o(i._ZN18QTextureGlyphCacheD2Ev)
    QVertexIndexVector::setDataUint(const QVector<unsigned>&) 0x0001f2bb   Thumb Code    12  qtriangulator.o(i._ZN18QVertexIndexVector11setDataUintERK7QVectorIjE)
    QVertexIndexVector::setDataUshort(const QVector<unsigned short>&) 0x0001f2c7   Thumb Code    14  qtriangulator.o(i._ZN18QVertexIndexVector13setDataUshortERK7QVectorItE)
    QVertexIndexVector::QVertexIndexVector() 0x0001f2d5   Thumb Code    22  qtriangulator.o(i._ZN18QVertexIndexVectorC1Ev)
    QVertexIndexVector::QVertexIndexVector__sub_object() 0x0001f2d5   Thumb Code     0  qtriangulator.o(i._ZN18QVertexIndexVectorC1Ev)
    QVertexIndexVector::~QVertexIndexVector() 0x0001f2f5   Thumb Code    20  qpaintengineex_opengl2.o(i._ZN18QVertexIndexVectorD1Ev)
    QVertexIndexVector::~QVertexIndexVector__sub_object() 0x0001f2f5   Thumb Code     0  qpaintengineex_opengl2.o(i._ZN18QVertexIndexVectorD1Ev)
    QGLContextGroupList::~QGLContextGroupList() 0x0001f313   Thumb Code    18  qgl.o(i._ZN19QGLContextGroupListD1Ev)
    QGLContextGroupList::~QGLContextGroupList__sub_object() 0x0001f313   Thumb Code     0  qgl.o(i._ZN19QGLContextGroupListD1Ev)
    QGLEngineShaderProg::QGLEngineShaderProg(const QGLEngineShaderProg&) 0x0001f32f   Thumb Code   100  qglengineshadermanager.o(i._ZN19QGLEngineShaderProgC1ERKS_)
    QGLEngineShaderProg::QGLEngineShaderProg__sub_object(const QGLEngineShaderProg&) 0x0001f32f   Thumb Code     0  qglengineshadermanager.o(i._ZN19QGLEngineShaderProgC1ERKS_)
    QGLEngineShaderProg::~QGLEngineShaderProg() 0x0001f39f   Thumb Code    36  qglengineshadermanager.o(i._ZN19QGLEngineShaderProgD1Ev)
    QGLEngineShaderProg::~QGLEngineShaderProg__sub_object() 0x0001f39f   Thumb Code     0  qglengineshadermanager.o(i._ZN19QGLEngineShaderProgD1Ev)
    QGLExtensionMatcher::match(const char*)  0x0001f3d9   Thumb Code    74  qgl.o(i._ZN19QGLExtensionMatcher5matchEPKc)
    QGLFBOGLPaintDevice::~QGLFBOGLPaintDevice__deallocating() 0x0001f423   Thumb Code    16  qglframebufferobject.o(i._ZN19QGLFBOGLPaintDeviceD0Ev)
    QGLFBOGLPaintDevice::~QGLFBOGLPaintDevice() 0x0001f435   Thumb Code    24  qglframebufferobject.o(i._ZN19QGLFBOGLPaintDeviceD1Ev)
    QGLFBOGLPaintDevice::~QGLFBOGLPaintDevice__sub_object() 0x0001f435   Thumb Code     0  qglframebufferobject.o(i._ZN19QGLFBOGLPaintDeviceD1Ev)
    QGLPixmapBlurFilter::~QGLPixmapBlurFilter__deallocating() 0x0001f45b   Thumb Code    16  qglpixmapfilter.o(i._ZN19QGLPixmapBlurFilterD0Ev)
    QGLPixmapBlurFilter::~QGLPixmapBlurFilter() 0x0001f46b   Thumb Code    18  qglpixmapfilter.o(i._ZN19QGLPixmapBlurFilterD1Ev)
    QGLPixmapBlurFilter::~QGLPixmapBlurFilter__sub_object() 0x0001f46b   Thumb Code     0  qglpixmapfilter.o(i._ZN19QGLPixmapBlurFilterD1Ev)
    QGLPixmapFilterBase::QGLPixmapFilterBase__sub_object() 0x0001f489   Thumb Code     6  qglpixmapfilter.o(i._ZN19QGLPixmapFilterBaseC2Ev)
    QGLPixmapFilterBase::~QGLPixmapFilterBase__deallocating() 0x0001f495   Thumb Code    12  qglpixmapfilter.o(i._ZN19QGLPixmapFilterBaseD0Ev)
    QGLPixmapFilterBase::~QGLPixmapFilterBase() 0x0001f4a1   Thumb Code     0  qglpixmapfilter.o(i._ZN19QGLPixmapFilterBaseD2Ev)
    QGLPixmapFilterBase::~QGLPixmapFilterBase__sub_object() 0x0001f4a1   Thumb Code     2  qglpixmapfilter.o(i._ZN19QGLPixmapFilterBaseD2Ev)
    QGLTextureDestroyer::QGLTextureDestroyer() 0x0001f4a5   Thumb Code    42  qgl.o(i._ZN19QGLTextureDestroyerC1Ev)
    QGLTextureDestroyer::QGLTextureDestroyer__sub_object() 0x0001f4a5   Thumb Code     0  qgl.o(i._ZN19QGLTextureDestroyerC1Ev)
    QGLTextureDestroyer::~QGLTextureDestroyer__deallocating() 0x0001f553   Thumb Code    16  moc_qgl_p.o(i._ZN19QGLTextureDestroyerD0Ev)
    QGLTextureDestroyer::~QGLTextureDestroyer() 0x0001f563   Thumb Code     8  moc_qgl_p.o(i._ZN19QGLTextureDestroyerD1Ev)
    QGLTextureDestroyer::~QGLTextureDestroyer__sub_object() 0x0001f563   Thumb Code     0  moc_qgl_p.o(i._ZN19QGLTextureDestroyerD1Ev)
    QPaintEnginePrivate::systemStateChanged() 0x0001f56b   Thumb Code     2  qgl.o(i._ZN19QPaintEnginePrivate18systemStateChangedEv)
    QPaintEnginePrivate::~QPaintEnginePrivate__deallocating() 0x0001f56d   Thumb Code    16  qgl.o(i._ZN19QPaintEnginePrivateD0Ev)
    QPaintEnginePrivate::~QPaintEnginePrivate() 0x0001f57d   Thumb Code    26  qgl.o(i._ZN19QPaintEnginePrivateD1Ev)
    QPaintEnginePrivate::~QPaintEnginePrivate__sub_object() 0x0001f57d   Thumb Code     0  qgl.o(i._ZN19QPaintEnginePrivateD1Ev)
    QStaticTextUserData::~QStaticTextUserData() 0x0001f5a9   Thumb Code     2  qpaintengineex_opengl2.o(i._ZN19QStaticTextUserDataD1Ev)
    QStaticTextUserData::~QStaticTextUserData__sub_object() 0x0001f5a9   Thumb Code     0  qpaintengineex_opengl2.o(i._ZN19QStaticTextUserDataD1Ev)
    QGLCustomShaderStage::setUniforms(QGLShaderProgram*) 0x0001f5ab   Thumb Code     2  qglpixmapfilter.o(i._ZN20QGLCustomShaderStage11setUniformsEP16QGLShaderProgram)
    QGLGlobalShareWidget::shareWidget()      0x0001f5ad   Thumb Code   144  qwindowsurface_gl.o(i._ZN20QGLGlobalShareWidget11shareWidgetEv)
    QGLShareContextScope::QGLShareContextScope(const QGLContext*) 0x0001f659   Thumb Code    52  qglshaderprogram.o(i._ZN20QGLShareContextScopeC1EPK10QGLContext)
    QGLShareContextScope::QGLShareContextScope__sub_object(const QGLContext*) 0x0001f659   Thumb Code     0  qglshaderprogram.o(i._ZN20QGLShareContextScopeC1EPK10QGLContext)
    QGLShareContextScope::~QGLShareContextScope() 0x0001f68d   Thumb Code    20  qgl.o(i._ZN20QGLShareContextScopeD1Ev)
    QGLShareContextScope::~QGLShareContextScope__sub_object() 0x0001f68d   Thumb Code     0  qgl.o(i._ZN20QGLShareContextScopeD1Ev)
    QFontEngineGlyphCache::~QFontEngineGlyphCache__deallocating() 0x0001f6a1   Thumb Code    12  qtextureglyphcache_gl.o(i._ZN21QFontEngineGlyphCacheD0Ev)
    QFontEngineGlyphCache::~QFontEngineGlyphCache() 0x0001f6ad   Thumb Code     2  qtextureglyphcache_gl.o(i._ZN21QFontEngineGlyphCacheD1Ev)
    QFontEngineGlyphCache::~QFontEngineGlyphCache__sub_object() 0x0001f6ad   Thumb Code     0  qtextureglyphcache_gl.o(i._ZN21QFontEngineGlyphCacheD1Ev)
    QGLPixelBufferPrivate::QGLPixelBufferPrivate(QGLPixelBuffer*) 0x0001f6b1   Thumb Code    62  qglpixelbuffer.o(i._ZN21QGLPixelBufferPrivateC1EP14QGLPixelBuffer)
    QGLPixelBufferPrivate::QGLPixelBufferPrivate__sub_object(QGLPixelBuffer*) 0x0001f6b1   Thumb Code     0  qglpixelbuffer.o(i._ZN21QGLPixelBufferPrivateC1EP14QGLPixelBuffer)
    QPixmapColorizeFilter::~QPixmapColorizeFilter() 0x0001f70d   Thumb Code     8  qglpixmapfilter.o(i._ZN21QPixmapColorizeFilterD1Ev)
    QPixmapColorizeFilter::~QPixmapColorizeFilter__sub_object() 0x0001f70d   Thumb Code     0  qglpixmapfilter.o(i._ZN21QPixmapColorizeFilterD1Ev)
    QTriangulatingStroker::normalVector(float, float, float, float, float*, float*) 0x0001f715   Thumb Code   114  qtriangulatingstroker.o(i._ZN21QTriangulatingStroker12normalVectorEffffPfS0_)
    QTriangulatingStroker::emitLineSegment(float, float, float, float) 0x0001f787   Thumb Code    88  qtriangulatingstroker.o(i._ZN21QTriangulatingStroker15emitLineSegmentEffff)
    QTriangulatingStroker::lineTo(const float*) 0x0001f7df   Thumb Code    28  qtriangulatingstroker.o(i._ZN21QTriangulatingStroker6lineToEPKf)
    QTriangulatingStroker::~QTriangulatingStroker() 0x0001f7fb   Thumb Code     8  qpaintengineex_opengl2.o(i._ZN21QTriangulatingStrokerD1Ev)
    QTriangulatingStroker::~QTriangulatingStroker__sub_object() 0x0001f7fb   Thumb Code     0  qpaintengineex_opengl2.o(i._ZN21QTriangulatingStrokerD1Ev)
    QDashedStrokeProcessor::addElement(QPainterPath::ElementType, float, float) 0x0001f803   Thumb Code    48  qtriangulatingstroker.o(i._ZN22QDashedStrokeProcessor10addElementEN12QPainterPath11ElementTypeEff)
    QDashedStrokeProcessor::~QDashedStrokeProcessor() 0x0001f833   Thumb Code    30  qpaintengineex_opengl2.o(i._ZN22QDashedStrokeProcessorD1Ev)
    QDashedStrokeProcessor::~QDashedStrokeProcessor__sub_object() 0x0001f833   Thumb Code     0  qpaintengineex_opengl2.o(i._ZN22QDashedStrokeProcessorD1Ev)
    QGLPixmapGLPaintDevice::~QGLPixmapGLPaintDevice__deallocating() 0x0001f867   Thumb Code    16  qpixmapdata_gl.o(i._ZN22QGLPixmapGLPaintDeviceD0Ev)
    QGLPixmapGLPaintDevice::~QGLPixmapGLPaintDevice() 0x0001f877   Thumb Code     8  qpixmapdata_gl.o(i._ZN22QGLPixmapGLPaintDeviceD1Ev)
    QGLPixmapGLPaintDevice::~QGLPixmapGLPaintDevice__sub_object() 0x0001f877   Thumb Code     0  qpixmapdata_gl.o(i._ZN22QGLPixmapGLPaintDeviceD1Ev)
    QGLSharedResourceGuard::QGLSharedResourceGuard(const QGLContext*) 0x0001f87f   Thumb Code    24  qglshaderprogram.o(i._ZN22QGLSharedResourceGuardC1EPK10QGLContext)
    QGLSharedResourceGuard::QGLSharedResourceGuard__sub_object(const QGLContext*) 0x0001f87f   Thumb Code     0  qglshaderprogram.o(i._ZN22QGLSharedResourceGuardC1EPK10QGLContext)
    QGLWidgetGLPaintDevice::~QGLWidgetGLPaintDevice__deallocating() 0x0001f897   Thumb Code    16  qglpaintdevice.o(i._ZN22QGLWidgetGLPaintDeviceD0Ev)
    QGLWidgetGLPaintDevice::~QGLWidgetGLPaintDevice() 0x0001f8a7   Thumb Code     8  qgl.o(i._ZN22QGLWidgetGLPaintDeviceD1Ev)
    QGLWidgetGLPaintDevice::~QGLWidgetGLPaintDevice__sub_object() 0x0001f8a7   Thumb Code     0  qgl.o(i._ZN22QGLWidgetGLPaintDeviceD1Ev)
    QGraphicsEffectPrivate::~QGraphicsEffectPrivate() 0x0001f8af   Thumb Code     8  qgl.o(i._ZN22QGraphicsEffectPrivateD1Ev)
    QGraphicsEffectPrivate::~QGraphicsEffectPrivate__sub_object() 0x0001f8af   Thumb Code     0  qgl.o(i._ZN22QGraphicsEffectPrivateD1Ev)
    QGLPBufferGLPaintDevice::~QGLPBufferGLPaintDevice__deallocating() 0x0001f8b7   Thumb Code    16  qglpixelbuffer.o(i._ZN23QGLPBufferGLPaintDeviceD0Ev)
    QGLPBufferGLPaintDevice::~QGLPBufferGLPaintDevice() 0x0001f8c7   Thumb Code     8  qglpixelbuffer.o(i._ZN23QGLPBufferGLPaintDeviceD1Ev)
    QGLPBufferGLPaintDevice::~QGLPBufferGLPaintDevice__sub_object() 0x0001f8c7   Thumb Code     0  qglpixelbuffer.o(i._ZN23QGLPBufferGLPaintDeviceD1Ev)
    QGLPixmapColorizeFilter::~QGLPixmapColorizeFilter__deallocating() 0x0001f8cf   Thumb Code    16  qglpixmapfilter.o(i._ZN23QGLPixmapColorizeFilterD0Ev)
    QGLPixmapColorizeFilter::~QGLPixmapColorizeFilter() 0x0001f8df   Thumb Code    18  qglpixmapfilter.o(i._ZN23QGLPixmapColorizeFilterD1Ev)
    QGLPixmapColorizeFilter::~QGLPixmapColorizeFilter__sub_object() 0x0001f8df   Thumb Code     0  qglpixmapfilter.o(i._ZN23QGLPixmapColorizeFilterD1Ev)
    QGLShaderProgramPrivate::QGLShaderProgramPrivate(const QGLContext*) 0x0001f8fd   Thumb Code    86  qglshaderprogram.o(i._ZN23QGLShaderProgramPrivateC1EPK10QGLContext)
    QGLShaderProgramPrivate::QGLShaderProgramPrivate__sub_object(const QGLContext*) 0x0001f8fd   Thumb Code     0  qglshaderprogram.o(i._ZN23QGLShaderProgramPrivateC1EPK10QGLContext)
    QGLWindowSurfacePrivate::QGLWindowSurfacePrivate() 0x0001f98d   Thumb Code    70  qwindowsurface_gl.o(i._ZN23QGLWindowSurfacePrivateC1Ev)
    QGLWindowSurfacePrivate::QGLWindowSurfacePrivate__sub_object() 0x0001f98d   Thumb Code     0  qwindowsurface_gl.o(i._ZN23QGLWindowSurfacePrivateC1Ev)
    QImageTextureGlyphCache::~QImageTextureGlyphCache() 0x0001fa01   Thumb Code    24  qtextureglyphcache_gl.o(i._ZN23QImageTextureGlyphCacheD1Ev)
    QImageTextureGlyphCache::~QImageTextureGlyphCache__sub_object() 0x0001fa01   Thumb Code     0  qtextureglyphcache_gl.o(i._ZN23QImageTextureGlyphCacheD1Ev)
    QGL2PaintEngineExPrivate::useSimpleShader() 0x0001fa27   Thumb Code    32  qpaintengineex_opengl2.o(i._ZN24QGL2PaintEngineExPrivate15useSimpleShaderEv)
    QGL2PaintEngineExPrivate::drawVertexArrays(QGL2PEXVertexArray&, unsigned) 0x0001fa47   Thumb Code    18  qpaintengineex_opengl2.o(i._ZN24QGL2PaintEngineExPrivate16drawVertexArraysER18QGL2PEXVertexArrayj)
    QGL2PaintEngineExPrivate::setVertexAttributePointer(unsigned, const float*) 0x0001fa59   Thumb Code    60  qpaintengineex_opengl2.o(i._ZN24QGL2PaintEngineExPrivate25setVertexAttributePointerEjPKf)
    QGL2PaintEngineExPrivate::fillStencilWithVertexArray(QGL2PEXVertexArray&, bool) 0x0001fa99   Thumb Code    44  qpaintengineex_opengl2.o(i._ZN24QGL2PaintEngineExPrivate26fillStencilWithVertexArrayER18QGL2PEXVertexArrayb)
    QGL2PaintEngineExPrivate::location(QGLEngineShaderManager::Uniform) 0x0001fac5   Thumb Code    14  qpaintengineex_opengl2.o(i._ZN24QGL2PaintEngineExPrivate8locationEN22QGLEngineShaderManager7UniformE)
    QGL2PaintEngineExPrivate::QGL2PaintEngineExPrivate(QGL2PaintEngineEx*) 0x0001fad5   Thumb Code   332  qpaintengineex_opengl2.o(i._ZN24QGL2PaintEngineExPrivateC1EP17QGL2PaintEngineEx)
    QGL2PaintEngineExPrivate::QGL2PaintEngineExPrivate__sub_object(QGL2PaintEngineEx*) 0x0001fad5   Thumb Code     0  qpaintengineex_opengl2.o(i._ZN24QGL2PaintEngineExPrivateC1EP17QGL2PaintEngineEx)
    QGLPixmapDropShadowFilter::~QGLPixmapDropShadowFilter__deallocating() 0x0001fd0b   Thumb Code    16  qglpixmapfilter.o(i._ZN25QGLPixmapDropShadowFilterD0Ev)
    QGLPixmapDropShadowFilter::~QGLPixmapDropShadowFilter() 0x0001fd1b   Thumb Code    18  qglpixmapfilter.o(i._ZN25QGLPixmapDropShadowFilterD1Ev)
    QGLPixmapDropShadowFilter::~QGLPixmapDropShadowFilter__sub_object() 0x0001fd1b   Thumb Code     0  qglpixmapfilter.o(i._ZN25QGLPixmapDropShadowFilterD1Ev)
    QGLCustomShaderEffectStage::~QGLCustomShaderEffectStage__deallocating() 0x0001fd37   Thumb Code    16  qgraphicsshadereffect.o(i._ZN26QGLCustomShaderEffectStageD0Ev)
    QGLCustomShaderEffectStage::~QGLCustomShaderEffectStage() 0x0001fd47   Thumb Code     8  qgraphicsshadereffect.o(i._ZN26QGLCustomShaderEffectStageD1Ev)
    QGLCustomShaderEffectStage::~QGLCustomShaderEffectStage__sub_object() 0x0001fd47   Thumb Code     0  qgraphicsshadereffect.o(i._ZN26QGLCustomShaderEffectStageD1Ev)
    QGraphicsBlurEffectPrivate::~QGraphicsBlurEffectPrivate__deallocating() 0x0001fd4f   Thumb Code    16  qgl.o(i._ZN26QGraphicsBlurEffectPrivateD0Ev)
    QGraphicsBlurEffectPrivate::~QGraphicsBlurEffectPrivate() 0x0001fd61   Thumb Code    28  qgl.o(i._ZN26QGraphicsBlurEffectPrivateD1Ev)
    QGraphicsBlurEffectPrivate::~QGraphicsBlurEffectPrivate__sub_object() 0x0001fd61   Thumb Code     0  qgl.o(i._ZN26QGraphicsBlurEffectPrivateD1Ev)
    QGLFramebufferObjectPrivate::QGLFramebufferObjectPrivate() 0x0001fd8d   Thumb Code    76  qglframebufferobject.o(i._ZN27QGLFramebufferObjectPrivateC1Ev)
    QGLFramebufferObjectPrivate::QGLFramebufferObjectPrivate__sub_object() 0x0001fd8d   Thumb Code     0  qglframebufferobject.o(i._ZN27QGLFramebufferObjectPrivateC1Ev)
    QGraphicsShaderEffectPrivate::~QGraphicsShaderEffectPrivate__deallocating() 0x0001fdfb   Thumb Code    16  qgraphicsshadereffect.o(i._ZN28QGraphicsShaderEffectPrivateD0Ev)
    QGraphicsShaderEffectPrivate::~QGraphicsShaderEffectPrivate() 0x0001fe0d   Thumb Code    24  qgraphicsshadereffect.o(i._ZN28QGraphicsShaderEffectPrivateD1Ev)
    QGraphicsShaderEffectPrivate::~QGraphicsShaderEffectPrivate__sub_object() 0x0001fe0d   Thumb Code     0  qgraphicsshadereffect.o(i._ZN28QGraphicsShaderEffectPrivateD1Ev)
    QGLWindowSurfaceGLPaintDevice::~QGLWindowSurfaceGLPaintDevice__deallocating() 0x0001fe33   Thumb Code    16  qwindowsurface_gl.o(i._ZN29QGLWindowSurfaceGLPaintDeviceD0Ev)
    QGLWindowSurfaceGLPaintDevice::~QGLWindowSurfaceGLPaintDevice() 0x0001fe43   Thumb Code     8  qwindowsurface_gl.o(i._ZN29QGLWindowSurfaceGLPaintDeviceD1Ev)
    QGLWindowSurfaceGLPaintDevice::~QGLWindowSurfaceGLPaintDevice__sub_object() 0x0001fe43   Thumb Code     0  qwindowsurface_gl.o(i._ZN29QGLWindowSurfaceGLPaintDeviceD1Ev)
    QGraphicsColorizeEffectPrivate::~QGraphicsColorizeEffectPrivate__deallocating() 0x0001fe4b   Thumb Code    16  qgl.o(i._ZN30QGraphicsColorizeEffectPrivateD0Ev)
    QGraphicsColorizeEffectPrivate::~QGraphicsColorizeEffectPrivate() 0x0001fe5d   Thumb Code    28  qgl.o(i._ZN30QGraphicsColorizeEffectPrivateD1Ev)
    QGraphicsColorizeEffectPrivate::~QGraphicsColorizeEffectPrivate__sub_object() 0x0001fe5d   Thumb Code     0  qgl.o(i._ZN30QGraphicsColorizeEffectPrivateD1Ev)
    QGraphicsDropShadowEffectPrivate::~QGraphicsDropShadowEffectPrivate__deallocating() 0x0001fe87   Thumb Code    16  qgl.o(i._ZN32QGraphicsDropShadowEffectPrivateD0Ev)
    QGraphicsDropShadowEffectPrivate::~QGraphicsDropShadowEffectPrivate() 0x0001fe99   Thumb Code    28  qgl.o(i._ZN32QGraphicsDropShadowEffectPrivateD1Ev)
    QGraphicsDropShadowEffectPrivate::~QGraphicsDropShadowEffectPrivate__sub_object() 0x0001fe99   Thumb Code     0  qgl.o(i._ZN32QGraphicsDropShadowEffectPrivateD1Ev)
    QSet<QVectorPath::CacheEntry*>::~QSet()  0x0001fec3   Thumb Code     8  qpaintengineex_opengl2.o(i._ZN4QSetIPN11QVectorPath10CacheEntryEED1Ev)
    QSet<QVectorPath::CacheEntry*>::~QSet__sub_object() 0x0001fec3   Thumb Code     0  qpaintengineex_opengl2.o(i._ZN4QSetIPN11QVectorPath10CacheEntryEED1Ev)
    QRect::QRect(const QPoint&, const QPoint&) 0x0001fecb   Thumb Code    18  qwindowsurface_gl.o(i._ZN5QRectC1ERK6QPointS2_)
    QRect::QRect__sub_object(const QPoint&, const QPoint&) 0x0001fecb   Thumb Code     0  qwindowsurface_gl.o(i._ZN5QRectC1ERK6QPointS2_)
    QRect::QRect(int, int, int, int)         0x0001fedd   Thumb Code    22  qglpixmapfilter.o(i._ZN5QRectC1Eiiii)
    QRect::QRect__sub_object(int, int, int, int) 0x0001fedd   Thumb Code     0  qglpixmapfilter.o(i._ZN5QRectC1Eiiii)
    QRect::QRect()                           0x0001fef3   Thumb Code    14  qpaintengineex_opengl2.o(i._ZN5QRectC1Ev)
    QRect::QRect__sub_object()               0x0001fef3   Thumb Code     0  qpaintengineex_opengl2.o(i._ZN5QRectC1Ev)
    QColor::QColor(const QColor&)            0x0001ff01   Thumb Code    20  qglgradientcache.o(i._ZN6QColorC1ERKS_)
    QColor::QColor__sub_object(const QColor&) 0x0001ff01   Thumb Code     0  qglgradientcache.o(i._ZN6QColorC1ERKS_)
    QDebug::maybeSpace()                     0x0001ff15   Thumb Code    22  qgl.o(i._ZN6QDebug10maybeSpaceEv)
    QDebug::space()                          0x0001ff2b   Thumb Code    22  qgl.o(i._ZN6QDebug5spaceEv)
    QDebug::QDebug(QtMsgType)                0x0001ff41   Thumb Code    54  qglengineshadermanager.o(i._ZN6QDebugC1E9QtMsgType)
    QDebug::QDebug__sub_object(QtMsgType)    0x0001ff41   Thumb Code     0  qglengineshadermanager.o(i._ZN6QDebugC1E9QtMsgType)
    QDebug::QDebug(const QDebug&)            0x0001ff89   Thumb Code    12  qgl.o(i._ZN6QDebugC1ERKS_)
    QDebug::QDebug__sub_object(const QDebug&) 0x0001ff89   Thumb Code     0  qgl.o(i._ZN6QDebugC1ERKS_)
    QDebug::~QDebug()                        0x0001ff95   Thumb Code   122  qgl.o(i._ZN6QDebugD1Ev)
    QDebug::~QDebug__sub_object()            0x0001ff95   Thumb Code     0  qgl.o(i._ZN6QDebugD1Ev)
    QDebug::operator <<(const char*)         0x00020023   Thumb Code    36  qgl.o(i._ZN6QDebuglsEPKc)
    QDebug::operator <<(const QByteArray&)   0x00020051   Thumb Code    34  qglengineshadermanager.o(i._ZN6QDebuglsERK10QByteArray)
    QDebug::operator <<(const QString&)      0x00020073   Thumb Code    34  qglshaderprogram.o(i._ZN6QDebuglsERK7QString)
    QDebug::operator <<(char)                0x00020095   Thumb Code    18  qgl.o(i._ZN6QDebuglsEc)
    QDebug::operator <<(int)                 0x000200a7   Thumb Code    18  qgl.o(i._ZN6QDebuglsEi)
    QRectF::setTop(float)                    0x000200b9   Thumb Code    38  qwindowsurface_gl.o(i._ZN6QRectF6setTopEf)
    QRectF::setLeft(float)                   0x000200df   Thumb Code    38  qwindowsurface_gl.o(i._ZN6QRectF7setLeftEf)
    QRectF::QRectF(const QRect&)             0x00020105   Thumb Code    54  qglpixmapfilter.o(i._ZN6QRectFC1ERK5QRect)
    QRectF::QRectF__sub_object(const QRect&) 0x00020105   Thumb Code     0  qglpixmapfilter.o(i._ZN6QRectFC1ERK5QRect)
    QRectF::QRectF(const QPointF&, const QSizeF&) 0x0002013b   Thumb Code    18  qwindowsurface_gl.o(i._ZN6QRectFC1ERK7QPointFRK6QSizeF)
    QRectF::QRectF__sub_object(const QPointF&, const QSizeF&) 0x0002013b   Thumb Code     0  qwindowsurface_gl.o(i._ZN6QRectFC1ERK7QPointFRK6QSizeF)
    QRectF::QRectF(float, float, float, float) 0x0002014d   Thumb Code    10  qglpixmapfilter.o(i._ZN6QRectFC1Effff)
    QRectF::QRectF__sub_object(float, float, float, float) 0x0002014d   Thumb Code     0  qglpixmapfilter.o(i._ZN6QRectFC1Effff)
    QGLRect::QGLRect(const QRectF&)          0x00020157   Thumb Code    34  qpaintengineex_opengl2.o(i._ZN7QGLRectC1ERK6QRectF)
    QGLRect::QGLRect__sub_object(const QRectF&) 0x00020157   Thumb Code     0  qpaintengineex_opengl2.o(i._ZN7QGLRectC1ERK6QRectF)
    QGLRect::QGLRect(float, float, float, float) 0x00020179   Thumb Code    10  qpaintengineex_opengl2.o(i._ZN7QGLRectC1Effff)
    QGLRect::QGLRect__sub_object(float, float, float, float) 0x00020179   Thumb Code     0  qpaintengineex_opengl2.o(i._ZN7QGLRectC1Effff)
    QString::QString(const QLatin1String&)   0x00020183   Thumb Code    20  qglextensions.o(i._ZN7QStringC1ERK13QLatin1String)
    QString::QString__sub_object(const QLatin1String&) 0x00020183   Thumb Code     0  qglextensions.o(i._ZN7QStringC1ERK13QLatin1String)
    QString::QString(const QString&)         0x00020197   Thumb Code    16  qgl.o(i._ZN7QStringC1ERKS_)
    QString::QString__sub_object(const QString&) 0x00020197   Thumb Code     0  qgl.o(i._ZN7QStringC1ERKS_)
    QString::QString()                       0x000201a9   Thumb Code    16  qglshaderprogram.o(i._ZN7QStringC1Ev)
    QString::QString__sub_object()           0x000201a9   Thumb Code     0  qglshaderprogram.o(i._ZN7QStringC1Ev)
    QString::~QString()                      0x000201bd   Thumb Code    24  qgl.o(i._ZN7QStringD1Ev)
    QString::~QString__sub_object()          0x000201bd   Thumb Code     0  qgl.o(i._ZN7QStringD1Ev)
    QMaxHeap<QTriangulator<unsigned>::ComplexToSimple::Intersection>::~QMaxHeap() 0x000201d5   Thumb Code     8  qtriangulator.o(i._ZN8QMaxHeapIN13QTriangulatorIjE15ComplexToSimple12IntersectionEED1Ev)
    QMaxHeap<QTriangulator<unsigned>::ComplexToSimple::Intersection>::~QMaxHeap__sub_object() 0x000201d5   Thumb Code     0  qtriangulator.o(i._ZN8QMaxHeapIN13QTriangulatorIjE15ComplexToSimple12IntersectionEED1Ev)
    QMaxHeap<QTriangulator<unsigned short>::ComplexToSimple::Intersection>::~QMaxHeap() 0x000201dd   Thumb Code     8  qtriangulator.o(i._ZN8QMaxHeapIN13QTriangulatorItE15ComplexToSimple12IntersectionEED1Ev)
    QMaxHeap<QTriangulator<unsigned short>::ComplexToSimple::Intersection>::~QMaxHeap__sub_object() 0x000201dd   Thumb Code     0  qtriangulator.o(i._ZN8QMaxHeapIN13QTriangulatorItE15ComplexToSimple12IntersectionEED1Ev)
    QPainter::drawPixmap(const QPoint&, const QPixmap&) 0x000201e5   Thumb Code    38  qgraphicsshadereffect.o(i._ZN8QPainter10drawPixmapERK6QPointRK7QPixmap)
    QPainter::drawPixmap(const QPointF&, const QPixmap&, const QRectF&) 0x0002020d   Thumb Code    22  qglpixmapfilter.o(i._ZN8QPainter10drawPixmapERK7QPointFRK7QPixmapRK6QRectF)
    QPainter::drawImage(int, int, const QImage&, int, int, int, int, QFlags<Qt::ImageConversionFlag>) 0x00020229   Thumb Code   154  qglpixmapfilter.o(i._ZN8QPainter9drawImageEiiRK6QImageiiii6QFlagsIN2Qt19ImageConversionFlagEE)
    QBitArray::setBit(int)                   0x000202c9   Thumb Code    64  qtriangulator.o(i._ZN9QBitArray6setBitEi)
