ARM Linker, RVCT2.2 [Build 686]

================================================================================

Image Symbol Table

    Local Symbols

    Symbol Name                              Value     Ov Type        Size  Object(Section)

    [Anonymous Symbol]                       0x00000000   Number         0  QtCore{00040703}-3075.o ABSOLUTE
    [Anonymous Symbol]                       0x00000000   Number         0  QtCore{00040703}-3503.o ABSOLUTE
    [Anonymous Symbol]                       0x00000000   Number         0  QtCore{00040703}-1862.o ABSOLUTE
    [Anonymous Symbol]                       0x00000000   Number         0  QtCore{00040703}-3077.o ABSOLUTE
    [Anonymous Symbol]                       0x00000000   Number         0  QtCore{00040703}-3505.o ABSOLUTE
    [Anonymous Symbol]                       0x00000000   Number         0  QtCore{00040703}-1874.o ABSOLUTE
    [Anonymous Symbol]                       0x00000000   Number         0  QtCore{00040703}-3087.o ABSOLUTE
    [Anonymous Symbol]                       0x00000000   Number         0  QtCore{00040703}-3524.o ABSOLUTE
    [Anonymous Symbol]                       0x00000000   Number         0  QtCore{00040703}-1879.o ABSOLUTE
    [Anonymous Symbol]                       0x00000000   Number         0  QtCore{00040703}-3088.o ABSOLUTE
    [Anonymous Symbol]                       0x00000000   Number         0  QtCore{00040703}-3525.o ABSOLUTE
    [Anonymous Symbol]                       0x00000000   Number         0  QtCore{00040703}-1885.o ABSOLUTE
    [Anonymous Symbol]                       0x00000000   Number         0  QtCore{00040703}-3090.o ABSOLUTE
    [Anonymous Symbol]                       0x00000000   Number         0  QtCore{00040703}-3527.o ABSOLUTE
    [Anonymous Symbol]                       0x00000000   Number         0  QtCore{00040703}-1947.o ABSOLUTE
    [Anonymous Symbol]                       0x00000000   Number         0  QtCore{00040703}-3091.o ABSOLUTE
    [Anonymous Symbol]                       0x00000000   Number         0  QtCore{00040703}-3607.o ABSOLUTE
    [Anonymous Symbol]                       0x00000000   Number         0  QtCore{00040703}-1949.o ABSOLUTE
    [Anonymous Symbol]                       0x00000000   Number         0  QtCore{00040703}-3093.o ABSOLUTE
    [Anonymous Symbol]                       0x00000000   Number         0  QtCore{00040703}-3608.o ABSOLUTE
    [Anonymous Symbol]                       0x00000000   Number         0  QtCore{00040703}-2020.o ABSOLUTE
    [Anonymous Symbol]                       0x00000000   Number         0  QtCore{00040703}-3095.o ABSOLUTE
    [Anonymous Symbol]                       0x00000000   Number         0  QtCore{00040703}-3609.o ABSOLUTE
    [Anonymous Symbol]                       0x00000000   Number         0  QtCore{00040703}-2023.o ABSOLUTE
    [Anonymous Symbol]                       0x00000000   Number         0  QtCore{00040703}-3097.o ABSOLUTE
    [Anonymous Symbol]                       0x00000000   Number         0  QtCore{00040703}-3610.o ABSOLUTE
    [Anonymous Symbol]                       0x00000000   Number         0  QtCore{00040703}-2034.o ABSOLUTE
    [Anonymous Symbol]                       0x00000000   Number         0  QtCore{00040703}-3098.o ABSOLUTE
    [Anonymous Symbol]                       0x00000000   Number         0  QtCore{00040703}-3689.o ABSOLUTE
    [Anonymous Symbol]                       0x00000000   Number         0  QtCore{00040703}-2036.o ABSOLUTE
    [Anonymous Symbol]                       0x00000000   Number         0  QtCore{00040703}-3101.o ABSOLUTE
    [Anonymous Symbol]                       0x00000000   Number         0  QtCore{00040703}-3691.o ABSOLUTE
    [Anonymous Symbol]                       0x00000000   Number         0  QtCore{00040703}-2037.o ABSOLUTE
    [Anonymous Symbol]                       0x00000000   Number         0  QtCore{00040703}-312.o ABSOLUTE
    [Anonymous Symbol]                       0x00000000   Number         0  QtCore{00040703}-3692.o ABSOLUTE
    [Anonymous Symbol]                       0x00000000   Number         0  QtCore{00040703}-2038.o ABSOLUTE
    [Anonymous Symbol]                       0x00000000   Number         0  QtCore{00040703}-3131.o ABSOLUTE
    [Anonymous Symbol]                       0x00000000   Number         0  QtCore{00040703}-46.o ABSOLUTE
    [Anonymous Symbol]                       0x00000000   Number         0  QtCore{00040703}-2040.o ABSOLUTE
    [Anonymous Symbol]                       0x00000000   Number         0  QtCore{00040703}-3132.o ABSOLUTE
    [Anonymous Symbol]                       0x00000000   Number         0  QtCore{00040703}-494.o ABSOLUTE
    [Anonymous Symbol]                       0x00000000   Number         0  QtCore{00040703}-2042.o ABSOLUTE
    [Anonymous Symbol]                       0x00000000   Number         0  QtCore{00040703}-3134.o ABSOLUTE
    [Anonymous Symbol]                       0x00000000   Number         0  QtCore{00040703}-499.o ABSOLUTE
    [Anonymous Symbol]                       0x00000000   Number         0  QtCore{00040703}-2082.o ABSOLUTE
    [Anonymous Symbol]                       0x00000000   Number         0  QtCore{00040703}-3136.o ABSOLUTE
    [Anonymous Symbol]                       0x00000000   Number         0  QtCore{00040703}-501.o ABSOLUTE
    [Anonymous Symbol]                       0x00000000   Number         0  QtCore{00040703}-2084.o ABSOLUTE
    [Anonymous Symbol]                       0x00000000   Number         0  QtCore{00040703}-3138.o ABSOLUTE
    [Anonymous Symbol]                       0x00000000   Number         0  QtCore{00040703}-505.o ABSOLUTE
    [Anonymous Symbol]                       0x00000000   Number         0  QtCore{00040703}-2097.o ABSOLUTE
    [Anonymous Symbol]                       0x00000000   Number         0  QtCore{00040703}-3139.o ABSOLUTE
    [Anonymous Symbol]                       0x00000000   Number         0  QtCore{00040703}-54.o ABSOLUTE
    [Anonymous Symbol]                       0x00000000   Number         0  QtCore{00040703}-2099.o ABSOLUTE
    [Anonymous Symbol]                       0x00000000   Number         0  QtCore{00040703}-3142.o ABSOLUTE
    [Anonymous Symbol]                       0x00000000   Number         0  QtCore{00040703}-70.o ABSOLUTE
    [Anonymous Symbol]                       0x00000000   Number         0  QtCore{00040703}-2100.o ABSOLUTE
    [Anonymous Symbol]                       0x00000000   Number         0  QtCore{00040703}-3145.o ABSOLUTE
    [Anonymous Symbol]                       0x00000000   Number         0  QtCore{00040703}-73.o ABSOLUTE
    [Anonymous Symbol]                       0x00000000   Number         0  QtCore{00040703}-2103.o ABSOLUTE
    [Anonymous Symbol]                       0x00000000   Number         0  QtCore{00040703}-3148.o ABSOLUTE
    [Anonymous Symbol]                       0x00000000   Number         0  QtCore{00040703}-741.o ABSOLUTE
    [Anonymous Symbol]                       0x00000000   Number         0  QtCore{00040703}-2104.o ABSOLUTE
    [Anonymous Symbol]                       0x00000000   Number         0  QtCore{00040703}-3152.o ABSOLUTE
    [Anonymous Symbol]                       0x00000000   Number         0  QtCore{00040703}-753.o ABSOLUTE
    [Anonymous Symbol]                       0x00000000   Number         0  QtCore{00040703}-2105.o ABSOLUTE
    [Anonymous Symbol]                       0x00000000   Number         0  QtCore{00040703}-3153.o ABSOLUTE
    [Anonymous Symbol]                       0x00000000   Number         0  QtCore{00040703}-772.o ABSOLUTE
    [Anonymous Symbol]                       0x00000000   Number         0  QtCore{00040703}-2110.o ABSOLUTE
    [Anonymous Symbol]                       0x00000000   Number         0  QtCore{00040703}-3159.o ABSOLUTE
    [Anonymous Symbol]                       0x00000000   Number         0  QtCore{00040703}-94.o ABSOLUTE
    [Anonymous Symbol]                       0x00000000   Number         0  QtCore{00040703}-2112.o ABSOLUTE
    [Anonymous Symbol]                       0x00000000   Number         0  QtCore{00040703}-3163.o ABSOLUTE
    [Anonymous Symbol]                       0x00000000   Number         0  QtCore{00040703}-98.o ABSOLUTE
    [Anonymous Symbol]                       0x00000000   Number         0  QtCore{00040703}-2134.o ABSOLUTE
    [Anonymous Symbol]                       0x00000000   Number         0  QtCore{00040703}-3165.o ABSOLUTE
    [Anonymous Symbol]                       0x00000000   Number         0  libc{00010000}-350.o ABSOLUTE
    [Anonymous Symbol]                       0x00000000   Number         0  QtCore{00040703}-2141.o ABSOLUTE
    [Anonymous Symbol]                       0x00000000   Number         0  QtCore{00040703}-3166.o ABSOLUTE
    [Anonymous Symbol]                       0x00000000   Number         0  euser{000a0000}-1170.o ABSOLUTE
    [Anonymous Symbol]                       0x00000000   Number         0  QtCore{00040703}-2142.o ABSOLUTE
    [Anonymous Symbol]                       0x00000000   Number         0  QtCore{00040703}-3170.o ABSOLUTE
    [Anonymous Symbol]                       0x00000000   Number         0  euser{000a0000}-120.o ABSOLUTE
    [Anonymous Symbol]                       0x00000000   Number         0  QtCore{00040703}-2143.o ABSOLUTE
    [Anonymous Symbol]                       0x00000000   Number         0  QtCore{00040703}-3171.o ABSOLUTE
    [Anonymous Symbol]                       0x00000000   Number         0  euser{000a0000}-670.o ABSOLUTE
    [Anonymous Symbol]                       0x00000000   Number         0  QtCore{00040703}-2186.o ABSOLUTE
    [Anonymous Symbol]                       0x00000000   Number         0  QtCore{00040703}-3173.o ABSOLUTE
    [Anonymous Symbol]                       0x00000000   Number         0  euser{000a0000}-671.o ABSOLUTE
    [Anonymous Symbol]                       0x00000000   Number         0  QtCore{00040703}-2188.o ABSOLUTE
    [Anonymous Symbol]                       0x00000000   Number         0  QtCore{00040703}-3177.o ABSOLUTE
    [Anonymous Symbol]                       0x00000000   Number         0  QtCore{00040703}-3049.o ABSOLUTE
    [Anonymous Symbol]                       0x00000000   Number         0  QtCore{00040703}-2190.o ABSOLUTE
    [Anonymous Symbol]                       0x00000000   Number         0  QtCore{00040703}-3186.o ABSOLUTE
    [Anonymous Symbol]                       0x00000000   Number         0  QtCore{00040703}-3052.o ABSOLUTE
    [Anonymous Symbol]                       0x00000000   Number         0  QtCore{00040703}-2191.o ABSOLUTE
    [Anonymous Symbol]                       0x00000000   Number         0  QtCore{00040703}-3187.o ABSOLUTE
    [Anonymous Symbol]                       0x00000000   Number         0  QtCore{00040703}-3054.o ABSOLUTE
    [Anonymous Symbol]                       0x00000000   Number         0  QtCore{00040703}-2193.o ABSOLUTE
    [Anonymous Symbol]                       0x00000000   Number         0  QtCore{00040703}-32.o ABSOLUTE
    [Anonymous Symbol]                       0x00000000   Number         0  QtCore{00040703}-3060.o ABSOLUTE
    [Anonymous Symbol]                       0x00000000   Number         0  QtCore{00040703}-2196.o ABSOLUTE
    [Anonymous Symbol]                       0x00000000   Number         0  QtCore{00040703}-324.o ABSOLUTE
    [Anonymous Symbol]                       0x00000000   Number         0  QtCore{00040703}-3061.o ABSOLUTE
    [Anonymous Symbol]                       0x00000000   Number         0  QtCore{00040703}-2197.o ABSOLUTE
    [Anonymous Symbol]                       0x00000000   Number         0  QtCore{00040703}-331.o ABSOLUTE
    [Anonymous Symbol]                       0x00000000   Number         0  QtCore{00040703}-3062.o ABSOLUTE
    [Anonymous Symbol]                       0x00000000   Number         0  QtCore{00040703}-2199.o ABSOLUTE
    [Anonymous Symbol]                       0x00000000   Number         0  QtCore{00040703}-332.o ABSOLUTE
    [Anonymous Symbol]                       0x00000000   Number         0  QtCore{00040703}-3063.o ABSOLUTE
    [Anonymous Symbol]                       0x00000000   Number         0  QtCore{00040703}-225.o ABSOLUTE
    [Anonymous Symbol]                       0x00000000   Number         0  QtCore{00040703}-335.o ABSOLUTE
    [Anonymous Symbol]                       0x00000000   Number         0  QtCore{00040703}-3064.o ABSOLUTE
    [Anonymous Symbol]                       0x00000000   Number         0  QtCore{00040703}-2315.o ABSOLUTE
    [Anonymous Symbol]                       0x00000000   Number         0  QtCore{00040703}-336.o ABSOLUTE
    [Anonymous Symbol]                       0x00000000   Number         0  QtCore{00040703}-3067.o ABSOLUTE
    [Anonymous Symbol]                       0x00000000   Number         0  QtCore{00040703}-2321.o ABSOLUTE
    [Anonymous Symbol]                       0x00000000   Number         0  QtCore{00040703}-3483.o ABSOLUTE
    [Anonymous Symbol]                       0x00000000   Number         0  QtCore{00040703}-3072.o ABSOLUTE
    [Anonymous Symbol]                       0x00000000   Number         0  QtCore{00040703}-233.o ABSOLUTE
    [Anonymous Symbol]                       0x00000000   Number         0  QtCore{00040703}-3502.o ABSOLUTE
    [Anonymous Symbol]                       0x00000000   Number         0  QtCore{00040703}-1857.o ABSOLUTE
    [Anonymous Symbol]                       0x00000000   Number         0  QtCore{00040703}-2382.o ABSOLUTE
    [Anonymous Symbol]                       0x00000000   Number         0  drtaeabi{000a0000}-184.o ABSOLUTE
    [Anonymous Symbol]                       0x00000000   Number         0  QtCore{00040703}-2810.o ABSOLUTE
    [Anonymous Symbol]                       0x00000000   Number         0  QtCore{00040703}-2383.o ABSOLUTE
    [Anonymous Symbol]                       0x00000000   Number         0  drtaeabi{000a0000}-189.o ABSOLUTE
    [Anonymous Symbol]                       0x00000000   Number         0  QtCore{00040703}-2811.o ABSOLUTE
    [Anonymous Symbol]                       0x00000000   Number         0  QtCore{00040703}-24.o ABSOLUTE
    [Anonymous Symbol]                       0x00000000   Number         0  drtaeabi{000a0000}-190.o ABSOLUTE
    [Anonymous Symbol]                       0x00000000   Number         0  QtCore{00040703}-282.o ABSOLUTE
    [Anonymous Symbol]                       0x00000000   Number         0  QtCore{00040703}-246.o ABSOLUTE
    [Anonymous Symbol]                       0x00000000   Number         0  drtrvct2_2{000a0000}-28.o ABSOLUTE
    [Anonymous Symbol]                       0x00000000   Number         0  QtCore{00040703}-286.o ABSOLUTE
    [Anonymous Symbol]                       0x00000000   Number         0  QtCore{00040703}-247.o ABSOLUTE
    [Anonymous Symbol]                       0x00000000   Number         0  drtrvct2_2{000a0000}-51.o ABSOLUTE
    [Anonymous Symbol]                       0x00000000   Number         0  QtCore{00040703}-2881.o ABSOLUTE
    [Anonymous Symbol]                       0x00000000   Number         0  QtCore{00040703}-250.o ABSOLUTE
    [Anonymous Symbol]                       0x00000000   Number         0  QtCore{00040703}-1826.o ABSOLUTE
    [Anonymous Symbol]                       0x00000000   Number         0  QtCore{00040703}-2883.o ABSOLUTE
    [Anonymous Symbol]                       0x00000000   Number         0  QtCore{00040703}-254.o ABSOLUTE
    [Anonymous Symbol]                       0x00000000   Number         0  QtCore{00040703}-1830.o ABSOLUTE
    [Anonymous Symbol]                       0x00000000   Number         0  QtCore{00040703}-2884.o ABSOLUTE
    [Anonymous Symbol]                       0x00000000   Number         0  QtCore{00040703}-255.o ABSOLUTE
    [Anonymous Symbol]                       0x00000000   Number         0  QtCore{00040703}-1831.o ABSOLUTE
    [Anonymous Symbol]                       0x00000000   Number         0  QtCore{00040703}-2885.o ABSOLUTE
    [Anonymous Symbol]                       0x00000000   Number         0  QtCore{00040703}-258.o ABSOLUTE
    [Anonymous Symbol]                       0x00000000   Number         0  QtCore{00040703}-1836.o ABSOLUTE
    [Anonymous Symbol]                       0x00000000   Number         0  QtCore{00040703}-2886.o ABSOLUTE
    [Anonymous Symbol]                       0x00000000   Number         0  QtCore{00040703}-274.o ABSOLUTE
    [Anonymous Symbol]                       0x00000000   Number         0  QtCore{00040703}-1842.o ABSOLUTE
    [Anonymous Symbol]                       0x00000000   Number         0  QtCore{00040703}-2887.o ABSOLUTE
    [Anonymous Symbol]                       0x00000000   Number         0  QtCore{00040703}-275.o ABSOLUTE
    [Anonymous Symbol]                       0x00000000   Number         0  QtCore{00040703}-1843.o ABSOLUTE
    [Anonymous Symbol]                       0x00000000   Number         0  QtCore{00040703}-2888.o ABSOLUTE
    [Anonymous Symbol]                       0x00000000   Number         0  QtCore{00040703}-2791.o ABSOLUTE
    [Anonymous Symbol]                       0x00000000   Number         0  QtCore{00040703}-1855.o ABSOLUTE
    [Anonymous Symbol]                       0x00000000   Number         0  QtCore{00040703}-2893.o ABSOLUTE
    [Anonymous Symbol]                       0x00000000   Number         0  QtCore{00040703}-2795.o ABSOLUTE
    [Anonymous Symbol]                       0x00000000   Number         0  QtCore{00040703}-1856.o ABSOLUTE
    [Anonymous Symbol]                       0x00000000   Number         0  QtCore{00040703}-2894.o ABSOLUTE
    [Anonymous Symbol]                       0x00000000   Number         0  QtCore{00040703}-2797.o ABSOLUTE
    [Anonymous Symbol]                       0x00000000   Number         0  QtCore{00040703}-1671.o ABSOLUTE
    [Anonymous Symbol]                       0x00000000   Number         0  QtCore{00040703}-2928.o ABSOLUTE
    [Anonymous Symbol]                       0x00000000   Number         0  QtCore{00040703}-1794.o ABSOLUTE
    [Anonymous Symbol]                       0x00000000   Number         0  QtCore{00040703}-1674.o ABSOLUTE
    [Anonymous Symbol]                       0x00000000   Number         0  QtCore{00040703}-3033.o ABSOLUTE
    [Anonymous Symbol]                       0x00000000   Number         0  QtCore{00040703}-1805.o ABSOLUTE
    [Anonymous Symbol]                       0x00000000   Number         0  QtCore{00040703}-1676.o ABSOLUTE
    [Anonymous Symbol]                       0x00000000   Number         0  QtCore{00040703}-3040.o ABSOLUTE
    [Anonymous Symbol]                       0x00000000   Number         0  QtCore{00040703}-1811.o ABSOLUTE
    [Anonymous Symbol]                       0x00000000   Number         0  QtCore{00040703}-1760.o ABSOLUTE
    [Anonymous Symbol]                       0x00000000   Number         0  QtCore{00040703}-1814.o ABSOLUTE
    [Anonymous Symbol]                       0x00000000   Number         0  drtaeabi{000a0000}-146.o ABSOLUTE
    [Anonymous Symbol]                       0x00000000   Number         0  QtCore{00040703}-1763.o ABSOLUTE
    [Anonymous Symbol]                       0x00000000   Number         0  QtCore{00040703}-1821.o ABSOLUTE
    [Anonymous Symbol]                       0x00000000   Number         0  drtaeabi{000a0000}-147.o ABSOLUTE
    [Anonymous Symbol]                       0x00000000   Number         0  QtCore{00040703}-1764.o ABSOLUTE
    [Anonymous Symbol]                       0x00000000   Number         0  QtCore{00040703}-1457.o ABSOLUTE
    [Anonymous Symbol]                       0x00000000   Number         0  drtaeabi{000a0000}-155.o ABSOLUTE
    [Anonymous Symbol]                       0x00000000   Number         0  dfpaeabi{000a0000}-1.o ABSOLUTE
    [Anonymous Symbol]                       0x00000000   Number         0  QtCore{00040703}-1471.o ABSOLUTE
    [Anonymous Symbol]                       0x00000000   Number         0  drtaeabi{000a0000}-158.o ABSOLUTE
    [Anonymous Symbol]                       0x00000000   Number         0  dfpaeabi{000a0000}-2.o ABSOLUTE
    [Anonymous Symbol]                       0x00000000   Number         0  QtCore{00040703}-1477.o ABSOLUTE
    [Anonymous Symbol]                       0x00000000   Number         0  drtaeabi{000a0000}-180.o ABSOLUTE
    [Anonymous Symbol]                       0x00000000   Number         0  QtCore{00040703}-1670.o ABSOLUTE
    [Anonymous Symbol]                       0x00000000   Number         0  QtCore{00040703}-150.o ABSOLUTE
    [Anonymous Symbol]                       0x00000000   Number         0  drtaeabi{000a0000}-183.o ABSOLUTE
    [Anonymous Symbol]                       0x00000000   Number         0  QtCore{00040703}-1453.o ABSOLUTE
    [Anonymous Symbol]                       0x00000000   Number         0  QtCore{00040703}-1581.o ABSOLUTE
    [Anonymous Symbol]                       0x00000000   Number         0  libstdcpp{00010000}-992.o ABSOLUTE
    [Anonymous Symbol]                       0x00000000   Number         0  QtCore{00040703}-1645.o ABSOLUTE
    [Anonymous Symbol]                       0x00000000   Number         0  QtCore{00040703}-1643.o ABSOLUTE
    [Anonymous Symbol]                       0x00000000   Number         0  QtCore{00040703}-1766.o ABSOLUTE
    [Anonymous Symbol]                       0x00000000   Number         0  efsrv{000a0000}-68.o ABSOLUTE
    [Anonymous Symbol]                       0x00000000   Number         0  efsrv{000a0000}-231.o ABSOLUTE
    [Anonymous Symbol]                       0x00000000   Number         0  QtCore{00040703}-1767.o ABSOLUTE
    [Anonymous Symbol]                       0x00000000   Number         0  QtCore{00040703}-1789.o ABSOLUTE
    [Anonymous Symbol]                       0x00000000   Number         0  QtCore{00040703}-1777.o ABSOLUTE
    [Anonymous Symbol]                       0x00000000   Number         0  QtCore{00040703}-1785.o ABSOLUTE
    [Anonymous Symbol]                       0x00000000   Number         0  libstdcpp{00010000}-988.o ABSOLUTE
    [Anonymous Symbol]                       0x00000000   Number         0  libstdcpp{00010000}-986.o ABSOLUTE
    [Anonymous Symbol]                       0x00000000   Number         0  QtCore{00040703}-1773.o ABSOLUTE
    [Anonymous Symbol]                       0x00000000   Number         0  QtCore{00040703}-1768.o ABSOLUTE
    [Anonymous Symbol]                       0x00000000   Number         0  QtCore{00040703}-1784.o ABSOLUTE
    ..\..\..\..\EPOC32\BUILD\s60\osext\mobileruntime\group\LIBSTDCPP\ARMV5\VtblExports.s 0x00000000   Number         0  VtblExports.o ABSOLUTE
    \EPOC32\BUILD\src\cedar\generic\base\e32\compsupp\DRTAEABI\ARMV5\VtblExports.s 0x00000000   Number         0  VtblExports.o ABSOLUTE
    \EPOC32\BUILD\src\cedar\generic\base\e32\euser\EDLL\ARMV5\urel\uc_dll_.cpp 0x00000000   Number         0  uc_dll_.o ABSOLUTE
    \EPOC32\BUILD\src\cedar\generic\base\e32\euser\EUSER\ARMV5\VtblExports.s 0x00000000   Number         0  VtblExports.o ABSOLUTE
    \EPOC32\BUILD\src\cedar\generic\base\f32\group\EFSRV\ARMV5\VtblExports.s 0x00000000   Number         0  VtblExports.o ABSOLUTE
    \EPOC32\BUILD\wk29\stdlibs\group\LIBC\ARMV5\VtblExports.s 0x00000000   Number         0  VtblExports.o ABSOLUTE
    \EPOC32\BUILD\wk29\stdlibs\group\LIBDL\ARMV5\VtblExports.s 0x00000000   Number         0  VtblExports.o ABSOLUTE
    \EPOC32\BUILD\wk29\stdlibs\group\LIBM\ARMV5\VtblExports.s 0x00000000   Number         0  VtblExports.o ABSOLUTE
    \EPOC32\BUILD\wk29\stdlibs\group\LIBPTHREAD\ARMV5\VtblExports.s 0x00000000   Number         0  VtblExports.o ABSOLUTE
    \\EPOC32\\BUILD\\src\\cedar\\generic\\base\\e32\\euser\\EDLL\\ARMV5\\urel\\uc_dll_.cpp 0x00000000   Number         0  uc_dll_.o ABSOLUTE
    \\src\\cedar\\generic\\base\\e32\\compsupp\\RVCT2_2\\ucppinit_aeabi.cpp 0x00000000   Number         0  ucppinit_aeabi.o ABSOLUTE
    \dev\symb\SDKs\32\EPOC32\BUILD\iwmake\buildS60____PADDING________\src\QTCORE_DLL\ARMV6\VtblExports.s 0x00000000   Number         0  VtblExports.o ABSOLUTE
    \dev\symb\SDKs\32\EPOC32\BUILD\iwmake\buildS60____PADDING________\src\QTGUI_DLL\ARMV6\VtblExports.s 0x00000000   Number         0  VtblExports.o ABSOLUTE
    \s60\5.0\EPOC32\BUILD\scripts\5.0\qtmobility\QTORGANIZER_DLL\ARMV5\urel\QtOrganizer{00010103}.s 0x00000000   Number         0  QtOrganizer{00010103}.exp ABSOLUTE
    \scripts\5.0\qtmobility\src\organizer\details\qorganizeritemdetails.cpp 0x00000000   Number         0  QtOrganizer.in ABSOLUTE
    \scripts\5.0\qtmobility\src\organizer\engines\qorganizeriteminvalidbackend.cpp 0x00000000   Number         0  QtOrganizer.in ABSOLUTE
    \scripts\5.0\qtmobility\src\organizer\engines\qorganizeritemmemorybackend.cpp 0x00000000   Number         0  QtOrganizer.in ABSOLUTE
    \scripts\5.0\qtmobility\src\organizer\filters\qorganizeritemchangelogfilter.cpp 0x00000000   Number         0  QtOrganizer.in ABSOLUTE
    \scripts\5.0\qtmobility\src\organizer\filters\qorganizeritemcollectionfilter.cpp 0x00000000   Number         0  QtOrganizer.in ABSOLUTE
    \scripts\5.0\qtmobility\src\organizer\filters\qorganizeritemdetailfilter.cpp 0x00000000   Number         0  QtOrganizer.in ABSOLUTE
    \scripts\5.0\qtmobility\src\organizer\filters\qorganizeritemdetailrangefilter.cpp 0x00000000   Number         0  QtOrganizer.in ABSOLUTE
    \scripts\5.0\qtmobility\src\organizer\filters\qorganizeritemidfilter.cpp 0x00000000   Number         0  QtOrganizer.in ABSOLUTE
    \scripts\5.0\qtmobility\src\organizer\filters\qorganizeritemintersectionfilter.cpp 0x00000000   Number         0  QtOrganizer.in ABSOLUTE
    \scripts\5.0\qtmobility\src\organizer\filters\qorganizeriteminvalidfilter.cpp 0x00000000   Number         0  QtOrganizer.in ABSOLUTE
    \scripts\5.0\qtmobility\src\organizer\filters\qorganizeritemunionfilter.cpp 0x00000000   Number         0  QtOrganizer.in ABSOLUTE
    \scripts\5.0\qtmobility\src\organizer\items\qorganizerevent.cpp 0x00000000   Number         0  QtOrganizer.in ABSOLUTE
    \scripts\5.0\qtmobility\src\organizer\items\qorganizereventoccurrence.cpp 0x00000000   Number         0  QtOrganizer.in ABSOLUTE
    \scripts\5.0\qtmobility\src\organizer\items\qorganizerjournal.cpp 0x00000000   Number         0  QtOrganizer.in ABSOLUTE
    \scripts\5.0\qtmobility\src\organizer\items\qorganizernote.cpp 0x00000000   Number         0  QtOrganizer.in ABSOLUTE
    \scripts\5.0\qtmobility\src\organizer\items\qorganizertodo.cpp 0x00000000   Number         0  QtOrganizer.in ABSOLUTE
    \scripts\5.0\qtmobility\src\organizer\items\qorganizertodooccurrence.cpp 0x00000000   Number         0  QtOrganizer.in ABSOLUTE
    \scripts\5.0\qtmobility\src\organizer\qorganizerabstractrequest.cpp 0x00000000   Number         0  QtOrganizer.in ABSOLUTE
    \scripts\5.0\qtmobility\src\organizer\qorganizercollection.cpp 0x00000000   Number         0  QtOrganizer.in ABSOLUTE
    \scripts\5.0\qtmobility\src\organizer\qorganizercollectionchangeset.cpp 0x00000000   Number         0  QtOrganizer.in ABSOLUTE
    \scripts\5.0\qtmobility\src\organizer\qorganizercollectionengineid.cpp 0x00000000   Number         0  QtOrganizer.in ABSOLUTE
    \scripts\5.0\qtmobility\src\organizer\qorganizercollectionid.cpp 0x00000000   Number         0  QtOrganizer.in ABSOLUTE
    \scripts\5.0\qtmobility\src\organizer\qorganizeritem.cpp 0x00000000   Number         0  QtOrganizer.in ABSOLUTE
    \scripts\5.0\qtmobility\src\organizer\qorganizeritemchangeset.cpp 0x00000000   Number         0  QtOrganizer.in ABSOLUTE
    \scripts\5.0\qtmobility\src\organizer\qorganizeritemdetail.cpp 0x00000000   Number         0  QtOrganizer.in ABSOLUTE
    \scripts\5.0\qtmobility\src\organizer\qorganizeritemdetaildefinition.cpp 0x00000000   Number         0  QtOrganizer.in ABSOLUTE
    \scripts\5.0\qtmobility\src\organizer\qorganizeritemdetailfielddefinition.cpp 0x00000000   Number         0  QtOrganizer.in ABSOLUTE
    \scripts\5.0\qtmobility\src\organizer\qorganizeritemengineid.cpp 0x00000000   Number         0  QtOrganizer.in ABSOLUTE
    \scripts\5.0\qtmobility\src\organizer\qorganizeritemfetchhint.cpp 0x00000000   Number         0  QtOrganizer.in ABSOLUTE
    \scripts\5.0\qtmobility\src\organizer\qorganizeritemfilter.cpp 0x00000000   Number         0  QtOrganizer.in ABSOLUTE
    \scripts\5.0\qtmobility\src\organizer\qorganizeritemid.cpp 0x00000000   Number         0  QtOrganizer.in ABSOLUTE
    \scripts\5.0\qtmobility\src\organizer\qorganizeritemsortorder.cpp 0x00000000   Number         0  QtOrganizer.in ABSOLUTE
    \scripts\5.0\qtmobility\src\organizer\qorganizermanager.cpp 0x00000000   Number         0  QtOrganizer.in ABSOLUTE
    \scripts\5.0\qtmobility\src\organizer\qorganizermanager_p.cpp 0x00000000   Number         0  QtOrganizer.in ABSOLUTE
    \scripts\5.0\qtmobility\src\organizer\qorganizermanagerengine.cpp 0x00000000   Number         0  QtOrganizer.in ABSOLUTE
    \scripts\5.0\qtmobility\src\organizer\qorganizermanagerenginefactory.cpp 0x00000000   Number         0  QtOrganizer.in ABSOLUTE
    \scripts\5.0\qtmobility\src\organizer\qorganizerrecurrencerule.cpp 0x00000000   Number         0  QtOrganizer.in ABSOLUTE
    \scripts\5.0\qtmobility\src\organizer\requests\qorganizercollectionfetchrequest.cpp 0x00000000   Number         0  QtOrganizer.in ABSOLUTE
    \scripts\5.0\qtmobility\src\organizer\requests\qorganizercollectionremoverequest.cpp 0x00000000   Number         0  QtOrganizer.in ABSOLUTE
    \scripts\5.0\qtmobility\src\organizer\requests\qorganizercollectionsaverequest.cpp 0x00000000   Number         0  QtOrganizer.in ABSOLUTE
    \scripts\5.0\qtmobility\src\organizer\requests\qorganizeritemdetaildefinitionfetchrequest.cpp 0x00000000   Number         0  QtOrganizer.in ABSOLUTE
    \scripts\5.0\qtmobility\src\organizer\requests\qorganizeritemdetaildefinitionremoverequest.cpp 0x00000000   Number         0  QtOrganizer.in ABSOLUTE
    \scripts\5.0\qtmobility\src\organizer\requests\qorganizeritemdetaildefinitionsaverequest.cpp 0x00000000   Number         0  QtOrganizer.in ABSOLUTE
    \scripts\5.0\qtmobility\src\organizer\requests\qorganizeritemfetchforexportrequest.cpp 0x00000000   Number         0  QtOrganizer.in ABSOLUTE
    \scripts\5.0\qtmobility\src\organizer\requests\qorganizeritemfetchrequest.cpp 0x00000000   Number         0  QtOrganizer.in ABSOLUTE
    \scripts\5.0\qtmobility\src\organizer\requests\qorganizeritemidfetchrequest.cpp 0x00000000   Number         0  QtOrganizer.in ABSOLUTE
    \scripts\5.0\qtmobility\src\organizer\requests\qorganizeritemoccurrencefetchrequest.cpp 0x00000000   Number         0  QtOrganizer.in ABSOLUTE
    \scripts\5.0\qtmobility\src\organizer\requests\qorganizeritemremoverequest.cpp 0x00000000   Number         0  QtOrganizer.in ABSOLUTE
    \scripts\5.0\qtmobility\src\organizer\requests\qorganizeritemsaverequest.cpp 0x00000000   Number         0  QtOrganizer.in ABSOLUTE
    \src\cedar\generic\base\e32\compsupp\RVCT2_2\ucppfini.cpp 0x00000000   Number         0  ucppfini.o ABSOLUTE
    \src\cedar\generic\base\e32\compsupp\RVCT2_2\ucppinit_aeabi.cpp 0x00000000   Number         0  ucppinit_aeabi.o ABSOLUTE
    \src\cedar\generic\base\e32\euser\epoc\arm\uc_dll.cpp 0x00000000   Number         0  uc_dll.o ABSOLUTE
    .emb_text                                0x00008000   Section       40  uc_dll_.o(.emb_text)
    .emb_text                                0x00008028   Section       72  ucppinit_aeabi.o(.emb_text)
    skip                                     0x0000803c   ARM Code       0  ucppinit_aeabi.o(.emb_text)
    loop                                     0x0000804c   ARM Code       0  ucppinit_aeabi.o(.emb_text)
    fpinit                                   0x00008064   Data           0  ucppinit_aeabi.o(.emb_text)
    base                                     0x00008068   Data           0  ucppinit_aeabi.o(.emb_text)
    limit                                    0x0000806c   Data           0  ucppinit_aeabi.o(.emb_text)
    .text                                    0x00008070   Section     1136  QtOrganizer.in(.text)
    .text                                    0x000084e0   Section      788  QtOrganizer.in(.text)
    .text                                    0x000087f4   Section      832  QtOrganizer.in(.text)
    .text                                    0x00008b34   Section      904  QtOrganizer.in(.text)
    .text                                    0x00008ebc   Section      788  QtOrganizer.in(.text)
    .text                                    0x000091d0   Section     3920  QtOrganizer.in(.text)
    .text                                    0x0000a120   Section     2116  QtOrganizer.in(.text)
    QtMobility::qClearAllocatedStringHash()  0x0000a60d   Thumb Code   188  QtOrganizer.in(.text)
    __sti___24_qorganizeritemdetail_cpp      0x0000a8f3   Thumb Code    54  QtOrganizer.in(.text)
    .text                                    0x0000a964   Section      570  QtOrganizer.in(.text)
    .text                                    0x0000ab9e   Section      508  QtOrganizer.in(.text)
    .text                                    0x0000ad9a   Section      368  QtOrganizer.in(.text)
    .text                                    0x0000af0a   Section      666  QtOrganizer.in(.text)
    .text                                    0x0000b1a4   Section      828  QtOrganizer.in(.text)
    .text                                    0x0000b4e0   Section     4812  QtOrganizer.in(.text)
    |L1.1764|                                0x0000bbc4   Data           0  QtOrganizer.in(.text)
    |L1.1856|                                0x0000bc20   Data           0  QtOrganizer.in(.text)
    |L1.1868|                                0x0000bc2c   Data           0  QtOrganizer.in(.text)
    |L1.3068|                                0x0000c0dc   Data           0  QtOrganizer.in(.text)
    .text                                    0x0000c7ac   Section    25646  QtOrganizer.in(.text)
    .text                                    0x00012bdc   Section       32  QtOrganizer.in(.text)
    .text                                    0x00012bfc   Section     1420  QtOrganizer.in(.text)
    .text                                    0x00013188   Section      634  QtOrganizer.in(.text)
    QtMobility::qSymbian_CheckDir(const QDir&, RFs&) 0x00013405   Thumb Code    78  QtOrganizer.in(.text)
    .text                                    0x00013404   Section     2652  QtOrganizer.in(.text)
    QtMobility::qOrganizerItemsCleanEngines() 0x00013453   Thumb Code   128  QtOrganizer.in(.text)
    |L1.984|                                 0x000137dc   Data           0  QtOrganizer.in(.text)
    __sti___23_qorganizermanager_p_cpp       0x00013d9b   Thumb Code    34  QtOrganizer.in(.text)
    QtMobility::parameterValue(const QMap<QString, QString>&, const char*, int) 0x00013dbd   Thumb Code   144  QtOrganizer.in(.text)
    .text                                    0x00013e60   Section     1208  QtOrganizer.in(.text)
    .text                                    0x00014318   Section       48  QtOrganizer.in(.text)
    .text                                    0x00014348   Section    16080  QtOrganizer.in(.text)
    __sti___31_qorganizeritemmemorybackend_cpp 0x000181eb   Thumb Code    28  QtOrganizer.in(.text)
    .text                                    0x00018218   Section      114  QtOrganizer.in(.text)
    .text                                    0x0001828a   Section      170  QtOrganizer.in(.text)
    .text                                    0x00018334   Section      216  QtOrganizer.in(.text)
    .text                                    0x0001840c   Section      264  QtOrganizer.in(.text)
    .text                                    0x00018514   Section       84  QtOrganizer.in(.text)
    .text                                    0x00018568   Section      214  QtOrganizer.in(.text)
    .text                                    0x0001863e   Section      120  QtOrganizer.in(.text)
    .text                                    0x000186b6   Section      264  QtOrganizer.in(.text)
    .text                                    0x000187c0   Section     1056  QtOrganizer.in(.text)
    .text                                    0x00018be0   Section      612  QtOrganizer.in(.text)
    .text                                    0x00018e44   Section       92  QtOrganizer.in(.text)
    .text                                    0x00018ea0   Section     1124  QtOrganizer.in(.text)
    .text                                    0x00019304   Section      748  QtOrganizer.in(.text)
    .text                                    0x000195f0   Section      184  QtOrganizer.in(.text)
    .text                                    0x000196a8   Section      316  QtOrganizer.in(.text)
    .text                                    0x000197e4   Section      316  QtOrganizer.in(.text)
    .text                                    0x00019920   Section      444  QtOrganizer.in(.text)
    .text                                    0x00019adc   Section      384  QtOrganizer.in(.text)
    .text                                    0x00019c5c   Section      384  QtOrganizer.in(.text)
    .text                                    0x00019ddc   Section      560  QtOrganizer.in(.text)
    .text                                    0x0001a00c   Section      560  QtOrganizer.in(.text)
    .text                                    0x0001a23c   Section      496  QtOrganizer.in(.text)
    .text                                    0x0001a42c   Section      492  QtOrganizer.in(.text)
    .text                                    0x0001a618   Section      316  QtOrganizer.in(.text)
    .text                                    0x0001a754   Section      316  QtOrganizer.in(.text)
    .text                                    0x0001a890   Section       40  uc_dll.o(.text)
    .text                                    0x0001a8b8   Section      148  ucppfini.o(.text)
    .text.clean                              0x0001a94c   Section      160  QtOrganizer.in(.text.clean)
    .text.clean                              0x0001a9ec   Section       76  QtOrganizer.in(.text.clean)
    .text.clean                              0x0001aa38   Section      144  QtOrganizer.in(.text.clean)
    .text.clean                              0x0001aac8   Section       64  QtOrganizer.in(.text.clean)
    .text.clean                              0x0001ab08   Section       76  QtOrganizer.in(.text.clean)
    .text.clean                              0x0001ab54   Section      620  QtOrganizer.in(.text.clean)
    .text.clean                              0x0001adc0   Section      368  QtOrganizer.in(.text.clean)
    .text.clean                              0x0001af30   Section       54  QtOrganizer.in(.text.clean)
    .text.clean                              0x0001af66   Section       40  QtOrganizer.in(.text.clean)
    .text.clean                              0x0001af8e   Section       34  QtOrganizer.in(.text.clean)
    .text.clean                              0x0001afb0   Section       92  QtOrganizer.in(.text.clean)
    .text.clean                              0x0001b00c   Section      144  QtOrganizer.in(.text.clean)
    .text.clean                              0x0001b09c   Section      534  QtOrganizer.in(.text.clean)
    .text.clean                              0x0001b2b2   Section     1814  QtOrganizer.in(.text.clean)
    .text.clean                              0x0001b9c8   Section       72  QtOrganizer.in(.text.clean)
    .text.clean                              0x0001ba10   Section       56  QtOrganizer.in(.text.clean)
    .text.clean                              0x0001ba48   Section      334  QtOrganizer.in(.text.clean)
    .text.clean                              0x0001bb96   Section      338  QtOrganizer.in(.text.clean)
    .text.clean                              0x0001bce8   Section     2466  QtOrganizer.in(.text.clean)
    .text.clean                              0x0001c68a   Section       24  QtOrganizer.in(.text.clean)
    .text.clean                              0x0001c6a2   Section       24  QtOrganizer.in(.text.clean)
    .text.clean                              0x0001c6ba   Section       24  QtOrganizer.in(.text.clean)
    .text.clean                              0x0001c6d2   Section       32  QtOrganizer.in(.text.clean)
    .text.clean                              0x0001c6f2   Section       28  QtOrganizer.in(.text.clean)
    .text.clean                              0x0001c70e   Section       24  QtOrganizer.in(.text.clean)
    .text.clean                              0x0001c726   Section       24  QtOrganizer.in(.text.clean)
    .text.clean                              0x0001c73e   Section       32  QtOrganizer.in(.text.clean)
    .text.clean                              0x0001c75e   Section      296  QtOrganizer.in(.text.clean)
    .text.clean                              0x0001c886   Section      184  QtOrganizer.in(.text.clean)
    .text.clean                              0x0001c93e   Section       28  QtOrganizer.in(.text.clean)
    .text.clean                              0x0001c95a   Section      324  QtOrganizer.in(.text.clean)
    .text.clean                              0x0001ca9e   Section      232  QtOrganizer.in(.text.clean)
    .text.clean                              0x0001cb86   Section       24  QtOrganizer.in(.text.clean)
    .text.clean                              0x0001cb9e   Section       62  QtOrganizer.in(.text.clean)
    .text.clean                              0x0001cbdc   Section       62  QtOrganizer.in(.text.clean)
    .text.clean                              0x0001cc1a   Section       92  QtOrganizer.in(.text.clean)
    .text.clean                              0x0001cc76   Section       82  QtOrganizer.in(.text.clean)
    .text.clean                              0x0001ccc8   Section       82  QtOrganizer.in(.text.clean)
    .text.clean                              0x0001cd1a   Section      124  QtOrganizer.in(.text.clean)
    .text.clean                              0x0001cd96   Section      124  QtOrganizer.in(.text.clean)
    .text.clean                              0x0001ce12   Section      104  QtOrganizer.in(.text.clean)
    .text.clean                              0x0001ce7a   Section      104  QtOrganizer.in(.text.clean)
    .text.clean                              0x0001cee2   Section       62  QtOrganizer.in(.text.clean)
    .text.clean                              0x0001cf20   Section       62  QtOrganizer.in(.text.clean)
    ExportTable                              0x0001cf60   Section     3572  QtOrganizer{00010103}.exp(ExportTable)
    StubCode                                 0x0001dd54   Section        8  efsrv{000a0000}-231.o(StubCode)
    theImportedSymbol                        0x0001dd58   Data           0  efsrv{000a0000}-231.o(StubCode)
    StubCode                                 0x0001dd5c   Section        8  efsrv{000a0000}-68.o(StubCode)
    theImportedSymbol                        0x0001dd60   Data           0  efsrv{000a0000}-68.o(StubCode)
    StubCode                                 0x0001dd64   Section        8  libstdcpp{00010000}-986.o(StubCode)
    theImportedSymbol                        0x0001dd68   Data           0  libstdcpp{00010000}-986.o(StubCode)
    StubCode                                 0x0001dd6c   Section        8  libstdcpp{00010000}-988.o(StubCode)
    theImportedSymbol                        0x0001dd70   Data           0  libstdcpp{00010000}-988.o(StubCode)
    StubCode                                 0x0001dd74   Section        8  libstdcpp{00010000}-992.o(StubCode)
    theImportedSymbol                        0x0001dd78   Data           0  libstdcpp{00010000}-992.o(StubCode)
    StubCode                                 0x0001dd7c   Section        8  QtCore{00040703}-1453.o(StubCode)
    theImportedSymbol                        0x0001dd80   Data           0  QtCore{00040703}-1453.o(StubCode)
    StubCode                                 0x0001dd84   Section        8  QtCore{00040703}-1457.o(StubCode)
    theImportedSymbol                        0x0001dd88   Data           0  QtCore{00040703}-1457.o(StubCode)
    StubCode                                 0x0001dd8c   Section        8  QtCore{00040703}-1471.o(StubCode)
    theImportedSymbol                        0x0001dd90   Data           0  QtCore{00040703}-1471.o(StubCode)
    StubCode                                 0x0001dd94   Section        8  QtCore{00040703}-1477.o(StubCode)
    theImportedSymbol                        0x0001dd98   Data           0  QtCore{00040703}-1477.o(StubCode)
    StubCode                                 0x0001dd9c   Section        8  QtCore{00040703}-150.o(StubCode)
    theImportedSymbol                        0x0001dda0   Data           0  QtCore{00040703}-150.o(StubCode)
    StubCode                                 0x0001dda4   Section        8  QtCore{00040703}-1581.o(StubCode)
    theImportedSymbol                        0x0001dda8   Data           0  QtCore{00040703}-1581.o(StubCode)
    StubCode                                 0x0001ddac   Section        8  QtCore{00040703}-1643.o(StubCode)
    theImportedSymbol                        0x0001ddb0   Data           0  QtCore{00040703}-1643.o(StubCode)
    StubCode                                 0x0001ddb4   Section        8  QtCore{00040703}-1645.o(StubCode)
    theImportedSymbol                        0x0001ddb8   Data           0  QtCore{00040703}-1645.o(StubCode)
    StubCode                                 0x0001ddbc   Section        8  QtCore{00040703}-1670.o(StubCode)
    theImportedSymbol                        0x0001ddc0   Data           0  QtCore{00040703}-1670.o(StubCode)
    StubCode                                 0x0001ddc4   Section        8  QtCore{00040703}-1671.o(StubCode)
    theImportedSymbol                        0x0001ddc8   Data           0  QtCore{00040703}-1671.o(StubCode)
    StubCode                                 0x0001ddcc   Section        8  QtCore{00040703}-1674.o(StubCode)
    theImportedSymbol                        0x0001ddd0   Data           0  QtCore{00040703}-1674.o(StubCode)
    StubCode                                 0x0001ddd4   Section        8  QtCore{00040703}-1676.o(StubCode)
    theImportedSymbol                        0x0001ddd8   Data           0  QtCore{00040703}-1676.o(StubCode)
    StubCode                                 0x0001dddc   Section        8  QtCore{00040703}-1760.o(StubCode)
    theImportedSymbol                        0x0001dde0   Data           0  QtCore{00040703}-1760.o(StubCode)
    StubCode                                 0x0001dde4   Section        8  QtCore{00040703}-1763.o(StubCode)
    theImportedSymbol                        0x0001dde8   Data           0  QtCore{00040703}-1763.o(StubCode)
    StubCode                                 0x0001ddec   Section        8  QtCore{00040703}-1764.o(StubCode)
    theImportedSymbol                        0x0001ddf0   Data           0  QtCore{00040703}-1764.o(StubCode)
    StubCode                                 0x0001ddf4   Section        8  QtCore{00040703}-1766.o(StubCode)
    theImportedSymbol                        0x0001ddf8   Data           0  QtCore{00040703}-1766.o(StubCode)
    StubCode                                 0x0001ddfc   Section        8  QtCore{00040703}-1767.o(StubCode)
    theImportedSymbol                        0x0001de00   Data           0  QtCore{00040703}-1767.o(StubCode)
    StubCode                                 0x0001de04   Section        8  QtCore{00040703}-1768.o(StubCode)
    theImportedSymbol                        0x0001de08   Data           0  QtCore{00040703}-1768.o(StubCode)
    StubCode                                 0x0001de0c   Section        8  QtCore{00040703}-1773.o(StubCode)
    theImportedSymbol                        0x0001de10   Data           0  QtCore{00040703}-1773.o(StubCode)
    StubCode                                 0x0001de14   Section        8  QtCore{00040703}-1777.o(StubCode)
    theImportedSymbol                        0x0001de18   Data           0  QtCore{00040703}-1777.o(StubCode)
    StubCode                                 0x0001de1c   Section        8  QtCore{00040703}-1784.o(StubCode)
    theImportedSymbol                        0x0001de20   Data           0  QtCore{00040703}-1784.o(StubCode)
    StubCode                                 0x0001de24   Section        8  QtCore{00040703}-1785.o(StubCode)
    theImportedSymbol                        0x0001de28   Data           0  QtCore{00040703}-1785.o(StubCode)
    StubCode                                 0x0001de2c   Section        8  QtCore{00040703}-1789.o(StubCode)
    theImportedSymbol                        0x0001de30   Data           0  QtCore{00040703}-1789.o(StubCode)
    StubCode                                 0x0001de34   Section        8  QtCore{00040703}-1794.o(StubCode)
    theImportedSymbol                        0x0001de38   Data           0  QtCore{00040703}-1794.o(StubCode)
    StubCode                                 0x0001de3c   Section        8  QtCore{00040703}-1805.o(StubCode)
    theImportedSymbol                        0x0001de40   Data           0  QtCore{00040703}-1805.o(StubCode)
    StubCode                                 0x0001de44   Section        8  QtCore{00040703}-1811.o(StubCode)
    theImportedSymbol                        0x0001de48   Data           0  QtCore{00040703}-1811.o(StubCode)
    StubCode                                 0x0001de4c   Section        8  QtCore{00040703}-1814.o(StubCode)
    theImportedSymbol                        0x0001de50   Data           0  QtCore{00040703}-1814.o(StubCode)
    StubCode                                 0x0001de54   Section        8  QtCore{00040703}-1821.o(StubCode)
    theImportedSymbol                        0x0001de58   Data           0  QtCore{00040703}-1821.o(StubCode)
    StubCode                                 0x0001de5c   Section        8  QtCore{00040703}-1826.o(StubCode)
    theImportedSymbol                        0x0001de60   Data           0  QtCore{00040703}-1826.o(StubCode)
    StubCode                                 0x0001de64   Section        8  QtCore{00040703}-1830.o(StubCode)
    theImportedSymbol                        0x0001de68   Data           0  QtCore{00040703}-1830.o(StubCode)
    StubCode                                 0x0001de6c   Section        8  QtCore{00040703}-1831.o(StubCode)
    theImportedSymbol                        0x0001de70   Data           0  QtCore{00040703}-1831.o(StubCode)
    StubCode                                 0x0001de74   Section        8  QtCore{00040703}-1836.o(StubCode)
    theImportedSymbol                        0x0001de78   Data           0  QtCore{00040703}-1836.o(StubCode)
    StubCode                                 0x0001de7c   Section        8  QtCore{00040703}-1842.o(StubCode)
    theImportedSymbol                        0x0001de80   Data           0  QtCore{00040703}-1842.o(StubCode)
    StubCode                                 0x0001de84   Section        8  QtCore{00040703}-1843.o(StubCode)
    theImportedSymbol                        0x0001de88   Data           0  QtCore{00040703}-1843.o(StubCode)
    StubCode                                 0x0001de8c   Section        8  QtCore{00040703}-1855.o(StubCode)
    theImportedSymbol                        0x0001de90   Data           0  QtCore{00040703}-1855.o(StubCode)
    StubCode                                 0x0001de94   Section        8  QtCore{00040703}-1856.o(StubCode)
    theImportedSymbol                        0x0001de98   Data           0  QtCore{00040703}-1856.o(StubCode)
    StubCode                                 0x0001de9c   Section        8  QtCore{00040703}-1857.o(StubCode)
    theImportedSymbol                        0x0001dea0   Data           0  QtCore{00040703}-1857.o(StubCode)
    StubCode                                 0x0001dea4   Section        8  QtCore{00040703}-1862.o(StubCode)
    theImportedSymbol                        0x0001dea8   Data           0  QtCore{00040703}-1862.o(StubCode)
    StubCode                                 0x0001deac   Section        8  QtCore{00040703}-1874.o(StubCode)
    theImportedSymbol                        0x0001deb0   Data           0  QtCore{00040703}-1874.o(StubCode)
    StubCode                                 0x0001deb4   Section        8  QtCore{00040703}-1879.o(StubCode)
    theImportedSymbol                        0x0001deb8   Data           0  QtCore{00040703}-1879.o(StubCode)
    StubCode                                 0x0001debc   Section        8  QtCore{00040703}-1885.o(StubCode)
    theImportedSymbol                        0x0001dec0   Data           0  QtCore{00040703}-1885.o(StubCode)
    StubCode                                 0x0001dec4   Section        8  QtCore{00040703}-1947.o(StubCode)
    theImportedSymbol                        0x0001dec8   Data           0  QtCore{00040703}-1947.o(StubCode)
    StubCode                                 0x0001decc   Section        8  QtCore{00040703}-1949.o(StubCode)
    theImportedSymbol                        0x0001ded0   Data           0  QtCore{00040703}-1949.o(StubCode)
    StubCode                                 0x0001ded4   Section        8  QtCore{00040703}-2020.o(StubCode)
    theImportedSymbol                        0x0001ded8   Data           0  QtCore{00040703}-2020.o(StubCode)
    StubCode                                 0x0001dedc   Section        8  QtCore{00040703}-2023.o(StubCode)
    theImportedSymbol                        0x0001dee0   Data           0  QtCore{00040703}-2023.o(StubCode)
    StubCode                                 0x0001dee4   Section        8  QtCore{00040703}-2034.o(StubCode)
    theImportedSymbol                        0x0001dee8   Data           0  QtCore{00040703}-2034.o(StubCode)
    StubCode                                 0x0001deec   Section        8  QtCore{00040703}-2036.o(StubCode)
    theImportedSymbol                        0x0001def0   Data           0  QtCore{00040703}-2036.o(StubCode)
    StubCode                                 0x0001def4   Section        8  QtCore{00040703}-2037.o(StubCode)
    theImportedSymbol                        0x0001def8   Data           0  QtCore{00040703}-2037.o(StubCode)
    StubCode                                 0x0001defc   Section        8  QtCore{00040703}-2038.o(StubCode)
    theImportedSymbol                        0x0001df00   Data           0  QtCore{00040703}-2038.o(StubCode)
    StubCode                                 0x0001df04   Section        8  QtCore{00040703}-2040.o(StubCode)
    theImportedSymbol                        0x0001df08   Data           0  QtCore{00040703}-2040.o(StubCode)
    StubCode                                 0x0001df0c   Section        8  QtCore{00040703}-2042.o(StubCode)
    theImportedSymbol                        0x0001df10   Data           0  QtCore{00040703}-2042.o(StubCode)
    StubCode                                 0x0001df14   Section        8  QtCore{00040703}-2082.o(StubCode)
    theImportedSymbol                        0x0001df18   Data           0  QtCore{00040703}-2082.o(StubCode)
    StubCode                                 0x0001df1c   Section        8  QtCore{00040703}-2084.o(StubCode)
    theImportedSymbol                        0x0001df20   Data           0  QtCore{00040703}-2084.o(StubCode)
    StubCode                                 0x0001df24   Section        8  QtCore{00040703}-2097.o(StubCode)
    theImportedSymbol                        0x0001df28   Data           0  QtCore{00040703}-2097.o(StubCode)
    StubCode                                 0x0001df2c   Section        8  QtCore{00040703}-2099.o(StubCode)
    theImportedSymbol                        0x0001df30   Data           0  QtCore{00040703}-2099.o(StubCode)
    StubCode                                 0x0001df34   Section        8  QtCore{00040703}-2100.o(StubCode)
    theImportedSymbol                        0x0001df38   Data           0  QtCore{00040703}-2100.o(StubCode)
    StubCode                                 0x0001df3c   Section        8  QtCore{00040703}-2103.o(StubCode)
    theImportedSymbol                        0x0001df40   Data           0  QtCore{00040703}-2103.o(StubCode)
    StubCode                                 0x0001df44   Section        8  QtCore{00040703}-2104.o(StubCode)
    theImportedSymbol                        0x0001df48   Data           0  QtCore{00040703}-2104.o(StubCode)
    StubCode                                 0x0001df4c   Section        8  QtCore{00040703}-2105.o(StubCode)
    theImportedSymbol                        0x0001df50   Data           0  QtCore{00040703}-2105.o(StubCode)
    StubCode                                 0x0001df54   Section        8  QtCore{00040703}-2110.o(StubCode)
    theImportedSymbol                        0x0001df58   Data           0  QtCore{00040703}-2110.o(StubCode)
    StubCode                                 0x0001df5c   Section        8  QtCore{00040703}-2112.o(StubCode)
    theImportedSymbol                        0x0001df60   Data           0  QtCore{00040703}-2112.o(StubCode)
    StubCode                                 0x0001df64   Section        8  QtCore{00040703}-2134.o(StubCode)
    theImportedSymbol                        0x0001df68   Data           0  QtCore{00040703}-2134.o(StubCode)
    StubCode                                 0x0001df6c   Section        8  QtCore{00040703}-2141.o(StubCode)
    theImportedSymbol                        0x0001df70   Data           0  QtCore{00040703}-2141.o(StubCode)
    StubCode                                 0x0001df74   Section        8  QtCore{00040703}-2142.o(StubCode)
    theImportedSymbol                        0x0001df78   Data           0  QtCore{00040703}-2142.o(StubCode)
    StubCode                                 0x0001df7c   Section        8  QtCore{00040703}-2143.o(StubCode)
    theImportedSymbol                        0x0001df80   Data           0  QtCore{00040703}-2143.o(StubCode)
    StubCode                                 0x0001df84   Section        8  QtCore{00040703}-2186.o(StubCode)
    theImportedSymbol                        0x0001df88   Data           0  QtCore{00040703}-2186.o(StubCode)
    StubCode                                 0x0001df8c   Section        8  QtCore{00040703}-2188.o(StubCode)
    theImportedSymbol                        0x0001df90   Data           0  QtCore{00040703}-2188.o(StubCode)
    StubCode                                 0x0001df94   Section        8  QtCore{00040703}-2190.o(StubCode)
    theImportedSymbol                        0x0001df98   Data           0  QtCore{00040703}-2190.o(StubCode)
    StubCode                                 0x0001df9c   Section        8  QtCore{00040703}-2191.o(StubCode)
    theImportedSymbol                        0x0001dfa0   Data           0  QtCore{00040703}-2191.o(StubCode)
    StubCode                                 0x0001dfa4   Section        8  QtCore{00040703}-2193.o(StubCode)
    theImportedSymbol                        0x0001dfa8   Data           0  QtCore{00040703}-2193.o(StubCode)
    StubCode                                 0x0001dfac   Section        8  QtCore{00040703}-2196.o(StubCode)
    theImportedSymbol                        0x0001dfb0   Data           0  QtCore{00040703}-2196.o(StubCode)
    StubCode                                 0x0001dfb4   Section        8  QtCore{00040703}-2197.o(StubCode)
    theImportedSymbol                        0x0001dfb8   Data           0  QtCore{00040703}-2197.o(StubCode)
    StubCode                                 0x0001dfbc   Section        8  QtCore{00040703}-2199.o(StubCode)
    theImportedSymbol                        0x0001dfc0   Data           0  QtCore{00040703}-2199.o(StubCode)
    StubCode                                 0x0001dfc4   Section        8  QtCore{00040703}-225.o(StubCode)
    theImportedSymbol                        0x0001dfc8   Data           0  QtCore{00040703}-225.o(StubCode)
    StubCode                                 0x0001dfcc   Section        8  QtCore{00040703}-2315.o(StubCode)
    theImportedSymbol                        0x0001dfd0   Data           0  QtCore{00040703}-2315.o(StubCode)
    StubCode                                 0x0001dfd4   Section        8  QtCore{00040703}-2321.o(StubCode)
    theImportedSymbol                        0x0001dfd8   Data           0  QtCore{00040703}-2321.o(StubCode)
    StubCode                                 0x0001dfdc   Section        8  QtCore{00040703}-233.o(StubCode)
    theImportedSymbol                        0x0001dfe0   Data           0  QtCore{00040703}-233.o(StubCode)
    StubCode                                 0x0001dfe4   Section        8  QtCore{00040703}-2382.o(StubCode)
    theImportedSymbol                        0x0001dfe8   Data           0  QtCore{00040703}-2382.o(StubCode)
    StubCode                                 0x0001dfec   Section        8  QtCore{00040703}-2383.o(StubCode)
    theImportedSymbol                        0x0001dff0   Data           0  QtCore{00040703}-2383.o(StubCode)
    StubCode                                 0x0001dff4   Section        8  QtCore{00040703}-24.o(StubCode)
    theImportedSymbol                        0x0001dff8   Data           0  QtCore{00040703}-24.o(StubCode)
    StubCode                                 0x0001dffc   Section        8  QtCore{00040703}-246.o(StubCode)
    theImportedSymbol                        0x0001e000   Data           0  QtCore{00040703}-246.o(StubCode)
    StubCode                                 0x0001e004   Section        8  QtCore{00040703}-247.o(StubCode)
    theImportedSymbol                        0x0001e008   Data           0  QtCore{00040703}-247.o(StubCode)
    StubCode                                 0x0001e00c   Section        8  QtCore{00040703}-250.o(StubCode)
    theImportedSymbol                        0x0001e010   Data           0  QtCore{00040703}-250.o(StubCode)
    StubCode                                 0x0001e014   Section        8  QtCore{00040703}-254.o(StubCode)
    theImportedSymbol                        0x0001e018   Data           0  QtCore{00040703}-254.o(StubCode)
    StubCode                                 0x0001e01c   Section        8  QtCore{00040703}-255.o(StubCode)
    theImportedSymbol                        0x0001e020   Data           0  QtCore{00040703}-255.o(StubCode)
    StubCode                                 0x0001e024   Section        8  QtCore{00040703}-258.o(StubCode)
    theImportedSymbol                        0x0001e028   Data           0  QtCore{00040703}-258.o(StubCode)
    StubCode                                 0x0001e02c   Section        8  QtCore{00040703}-274.o(StubCode)
    theImportedSymbol                        0x0001e030   Data           0  QtCore{00040703}-274.o(StubCode)
    StubCode                                 0x0001e034   Section        8  QtCore{00040703}-275.o(StubCode)
    theImportedSymbol                        0x0001e038   Data           0  QtCore{00040703}-275.o(StubCode)
    StubCode                                 0x0001e03c   Section        8  QtCore{00040703}-2791.o(StubCode)
    theImportedSymbol                        0x0001e040   Data           0  QtCore{00040703}-2791.o(StubCode)
    StubCode                                 0x0001e044   Section        8  QtCore{00040703}-2795.o(StubCode)
    theImportedSymbol                        0x0001e048   Data           0  QtCore{00040703}-2795.o(StubCode)
    StubCode                                 0x0001e04c   Section        8  QtCore{00040703}-2797.o(StubCode)
    theImportedSymbol                        0x0001e050   Data           0  QtCore{00040703}-2797.o(StubCode)
    StubCode                                 0x0001e054   Section        8  QtCore{00040703}-2810.o(StubCode)
    theImportedSymbol                        0x0001e058   Data           0  QtCore{00040703}-2810.o(StubCode)
    StubCode                                 0x0001e05c   Section        8  QtCore{00040703}-2811.o(StubCode)
    theImportedSymbol                        0x0001e060   Data           0  QtCore{00040703}-2811.o(StubCode)
    StubCode                                 0x0001e064   Section        8  QtCore{00040703}-282.o(StubCode)
    theImportedSymbol                        0x0001e068   Data           0  QtCore{00040703}-282.o(StubCode)
    StubCode                                 0x0001e06c   Section        8  QtCore{00040703}-286.o(StubCode)
    theImportedSymbol                        0x0001e070   Data           0  QtCore{00040703}-286.o(StubCode)
    StubCode                                 0x0001e074   Section        8  QtCore{00040703}-2881.o(StubCode)
    theImportedSymbol                        0x0001e078   Data           0  QtCore{00040703}-2881.o(StubCode)
    StubCode                                 0x0001e07c   Section        8  QtCore{00040703}-2883.o(StubCode)
    theImportedSymbol                        0x0001e080   Data           0  QtCore{00040703}-2883.o(StubCode)
    StubCode                                 0x0001e084   Section        8  QtCore{00040703}-2884.o(StubCode)
    theImportedSymbol                        0x0001e088   Data           0  QtCore{00040703}-2884.o(StubCode)
    StubCode                                 0x0001e08c   Section        8  QtCore{00040703}-2885.o(StubCode)
    theImportedSymbol                        0x0001e090   Data           0  QtCore{00040703}-2885.o(StubCode)
    StubCode                                 0x0001e094   Section        8  QtCore{00040703}-2886.o(StubCode)
    theImportedSymbol                        0x0001e098   Data           0  QtCore{00040703}-2886.o(StubCode)
    StubCode                                 0x0001e09c   Section        8  QtCore{00040703}-2887.o(StubCode)
    theImportedSymbol                        0x0001e0a0   Data           0  QtCore{00040703}-2887.o(StubCode)
    StubCode                                 0x0001e0a4   Section        8  QtCore{00040703}-2888.o(StubCode)
    theImportedSymbol                        0x0001e0a8   Data           0  QtCore{00040703}-2888.o(StubCode)
    StubCode                                 0x0001e0ac   Section        8  QtCore{00040703}-2893.o(StubCode)
    theImportedSymbol                        0x0001e0b0   Data           0  QtCore{00040703}-2893.o(StubCode)
    StubCode                                 0x0001e0b4   Section        8  QtCore{00040703}-2894.o(StubCode)
    theImportedSymbol                        0x0001e0b8   Data           0  QtCore{00040703}-2894.o(StubCode)
    StubCode                                 0x0001e0bc   Section        8  QtCore{00040703}-2928.o(StubCode)
    theImportedSymbol                        0x0001e0c0   Data           0  QtCore{00040703}-2928.o(StubCode)
    StubCode                                 0x0001e0c4   Section        8  QtCore{00040703}-3033.o(StubCode)
    theImportedSymbol                        0x0001e0c8   Data           0  QtCore{00040703}-3033.o(StubCode)
    StubCode                                 0x0001e0cc   Section        8  QtCore{00040703}-3040.o(StubCode)
    theImportedSymbol                        0x0001e0d0   Data           0  QtCore{00040703}-3040.o(StubCode)
    StubCode                                 0x0001e0d4   Section        8  QtCore{00040703}-3049.o(StubCode)
    theImportedSymbol                        0x0001e0d8   Data           0  QtCore{00040703}-3049.o(StubCode)
    StubCode                                 0x0001e0dc   Section        8  QtCore{00040703}-3052.o(StubCode)
    theImportedSymbol                        0x0001e0e0   Data           0  QtCore{00040703}-3052.o(StubCode)
    StubCode                                 0x0001e0e4   Section        8  QtCore{00040703}-3054.o(StubCode)
    theImportedSymbol                        0x0001e0e8   Data           0  QtCore{00040703}-3054.o(StubCode)
    StubCode                                 0x0001e0ec   Section        8  QtCore{00040703}-3060.o(StubCode)
    theImportedSymbol                        0x0001e0f0   Data           0  QtCore{00040703}-3060.o(StubCode)
    StubCode                                 0x0001e0f4   Section        8  QtCore{00040703}-3061.o(StubCode)
    theImportedSymbol                        0x0001e0f8   Data           0  QtCore{00040703}-3061.o(StubCode)
    StubCode                                 0x0001e0fc   Section        8  QtCore{00040703}-3062.o(StubCode)
    theImportedSymbol                        0x0001e100   Data           0  QtCore{00040703}-3062.o(StubCode)
    StubCode                                 0x0001e104   Section        8  QtCore{00040703}-3063.o(StubCode)
    theImportedSymbol                        0x0001e108   Data           0  QtCore{00040703}-3063.o(StubCode)
    StubCode                                 0x0001e10c   Section        8  QtCore{00040703}-3064.o(StubCode)
    theImportedSymbol                        0x0001e110   Data           0  QtCore{00040703}-3064.o(StubCode)
    StubCode                                 0x0001e114   Section        8  QtCore{00040703}-3067.o(StubCode)
    theImportedSymbol                        0x0001e118   Data           0  QtCore{00040703}-3067.o(StubCode)
    StubCode                                 0x0001e11c   Section        8  QtCore{00040703}-3072.o(StubCode)
    theImportedSymbol                        0x0001e120   Data           0  QtCore{00040703}-3072.o(StubCode)
    StubCode                                 0x0001e124   Section        8  QtCore{00040703}-3075.o(StubCode)
    theImportedSymbol                        0x0001e128   Data           0  QtCore{00040703}-3075.o(StubCode)
    StubCode                                 0x0001e12c   Section        8  QtCore{00040703}-3077.o(StubCode)
    theImportedSymbol                        0x0001e130   Data           0  QtCore{00040703}-3077.o(StubCode)
    StubCode                                 0x0001e134   Section        8  QtCore{00040703}-3087.o(StubCode)
    theImportedSymbol                        0x0001e138   Data           0  QtCore{00040703}-3087.o(StubCode)
    StubCode                                 0x0001e13c   Section        8  QtCore{00040703}-3088.o(StubCode)
    theImportedSymbol                        0x0001e140   Data           0  QtCore{00040703}-3088.o(StubCode)
    StubCode                                 0x0001e144   Section        8  QtCore{00040703}-3090.o(StubCode)
    theImportedSymbol                        0x0001e148   Data           0  QtCore{00040703}-3090.o(StubCode)
    StubCode                                 0x0001e14c   Section        8  QtCore{00040703}-3091.o(StubCode)
    theImportedSymbol                        0x0001e150   Data           0  QtCore{00040703}-3091.o(StubCode)
    StubCode                                 0x0001e154   Section        8  QtCore{00040703}-3093.o(StubCode)
    theImportedSymbol                        0x0001e158   Data           0  QtCore{00040703}-3093.o(StubCode)
    StubCode                                 0x0001e15c   Section        8  QtCore{00040703}-3095.o(StubCode)
    theImportedSymbol                        0x0001e160   Data           0  QtCore{00040703}-3095.o(StubCode)
    StubCode                                 0x0001e164   Section        8  QtCore{00040703}-3097.o(StubCode)
    theImportedSymbol                        0x0001e168   Data           0  QtCore{00040703}-3097.o(StubCode)
    StubCode                                 0x0001e16c   Section        8  QtCore{00040703}-3098.o(StubCode)
    theImportedSymbol                        0x0001e170   Data           0  QtCore{00040703}-3098.o(StubCode)
    StubCode                                 0x0001e174   Section        8  QtCore{00040703}-3101.o(StubCode)
    theImportedSymbol                        0x0001e178   Data           0  QtCore{00040703}-3101.o(StubCode)
    StubCode                                 0x0001e17c   Section        8  QtCore{00040703}-312.o(StubCode)
    theImportedSymbol                        0x0001e180   Data           0  QtCore{00040703}-312.o(StubCode)
    StubCode                                 0x0001e184   Section        8  QtCore{00040703}-3131.o(StubCode)
    theImportedSymbol                        0x0001e188   Data           0  QtCore{00040703}-3131.o(StubCode)
    StubCode                                 0x0001e18c   Section        8  QtCore{00040703}-3132.o(StubCode)
    theImportedSymbol                        0x0001e190   Data           0  QtCore{00040703}-3132.o(StubCode)
    StubCode                                 0x0001e194   Section        8  QtCore{00040703}-3134.o(StubCode)
    theImportedSymbol                        0x0001e198   Data           0  QtCore{00040703}-3134.o(StubCode)
    StubCode                                 0x0001e19c   Section        8  QtCore{00040703}-3136.o(StubCode)
    theImportedSymbol                        0x0001e1a0   Data           0  QtCore{00040703}-3136.o(StubCode)
    StubCode                                 0x0001e1a4   Section        8  QtCore{00040703}-3138.o(StubCode)
    theImportedSymbol                        0x0001e1a8   Data           0  QtCore{00040703}-3138.o(StubCode)
    StubCode                                 0x0001e1ac   Section        8  QtCore{00040703}-3139.o(StubCode)
    theImportedSymbol                        0x0001e1b0   Data           0  QtCore{00040703}-3139.o(StubCode)
    StubCode                                 0x0001e1b4   Section        8  QtCore{00040703}-3142.o(StubCode)
    theImportedSymbol                        0x0001e1b8   Data           0  QtCore{00040703}-3142.o(StubCode)
    StubCode                                 0x0001e1bc   Section        8  QtCore{00040703}-3145.o(StubCode)
    theImportedSymbol                        0x0001e1c0   Data           0  QtCore{00040703}-3145.o(StubCode)
    StubCode                                 0x0001e1c4   Section        8  QtCore{00040703}-3148.o(StubCode)
    theImportedSymbol                        0x0001e1c8   Data           0  QtCore{00040703}-3148.o(StubCode)
    StubCode                                 0x0001e1cc   Section        8  QtCore{00040703}-3152.o(StubCode)
    theImportedSymbol                        0x0001e1d0   Data           0  QtCore{00040703}-3152.o(StubCode)
    StubCode                                 0x0001e1d4   Section        8  QtCore{00040703}-3153.o(StubCode)
    theImportedSymbol                        0x0001e1d8   Data           0  QtCore{00040703}-3153.o(StubCode)
    StubCode                                 0x0001e1dc   Section        8  QtCore{00040703}-3159.o(StubCode)
    theImportedSymbol                        0x0001e1e0   Data           0  QtCore{00040703}-3159.o(StubCode)
    StubCode                                 0x0001e1e4   Section        8  QtCore{00040703}-3163.o(StubCode)
    theImportedSymbol                        0x0001e1e8   Data           0  QtCore{00040703}-3163.o(StubCode)
    StubCode                                 0x0001e1ec   Section        8  QtCore{00040703}-3165.o(StubCode)
    theImportedSymbol                        0x0001e1f0   Data           0  QtCore{00040703}-3165.o(StubCode)
    StubCode                                 0x0001e1f4   Section        8  QtCore{00040703}-3166.o(StubCode)
    theImportedSymbol                        0x0001e1f8   Data           0  QtCore{00040703}-3166.o(StubCode)
    StubCode                                 0x0001e1fc   Section        8  QtCore{00040703}-3170.o(StubCode)
    theImportedSymbol                        0x0001e200   Data           0  QtCore{00040703}-3170.o(StubCode)
    StubCode                                 0x0001e204   Section        8  QtCore{00040703}-3171.o(StubCode)
    theImportedSymbol                        0x0001e208   Data           0  QtCore{00040703}-3171.o(StubCode)
    StubCode                                 0x0001e20c   Section        8  QtCore{00040703}-3173.o(StubCode)
    theImportedSymbol                        0x0001e210   Data           0  QtCore{00040703}-3173.o(StubCode)
    StubCode                                 0x0001e214   Section        8  QtCore{00040703}-3177.o(StubCode)
    theImportedSymbol                        0x0001e218   Data           0  QtCore{00040703}-3177.o(StubCode)
    StubCode                                 0x0001e21c   Section        8  QtCore{00040703}-3186.o(StubCode)
    theImportedSymbol                        0x0001e220   Data           0  QtCore{00040703}-3186.o(StubCode)
    StubCode                                 0x0001e224   Section        8  QtCore{00040703}-3187.o(StubCode)
    theImportedSymbol                        0x0001e228   Data           0  QtCore{00040703}-3187.o(StubCode)
    StubCode                                 0x0001e22c   Section        8  QtCore{00040703}-32.o(StubCode)
    theImportedSymbol                        0x0001e230   Data           0  QtCore{00040703}-32.o(StubCode)
    StubCode                                 0x0001e234   Section        8  QtCore{00040703}-324.o(StubCode)
    theImportedSymbol                        0x0001e238   Data           0  QtCore{00040703}-324.o(StubCode)
    StubCode                                 0x0001e23c   Section        8  QtCore{00040703}-331.o(StubCode)
    theImportedSymbol                        0x0001e240   Data           0  QtCore{00040703}-331.o(StubCode)
    StubCode                                 0x0001e244   Section        8  QtCore{00040703}-332.o(StubCode)
    theImportedSymbol                        0x0001e248   Data           0  QtCore{00040703}-332.o(StubCode)
    StubCode                                 0x0001e24c   Section        8  QtCore{00040703}-335.o(StubCode)
    theImportedSymbol                        0x0001e250   Data           0  QtCore{00040703}-335.o(StubCode)
    StubCode                                 0x0001e254   Section        8  QtCore{00040703}-336.o(StubCode)
    theImportedSymbol                        0x0001e258   Data           0  QtCore{00040703}-336.o(StubCode)
    StubCode                                 0x0001e25c   Section        8  QtCore{00040703}-3483.o(StubCode)
    theImportedSymbol                        0x0001e260   Data           0  QtCore{00040703}-3483.o(StubCode)
    StubCode                                 0x0001e264   Section        8  QtCore{00040703}-3502.o(StubCode)
    theImportedSymbol                        0x0001e268   Data           0  QtCore{00040703}-3502.o(StubCode)
    StubCode                                 0x0001e26c   Section        8  QtCore{00040703}-3503.o(StubCode)
    theImportedSymbol                        0x0001e270   Data           0  QtCore{00040703}-3503.o(StubCode)
    StubCode                                 0x0001e274   Section        8  QtCore{00040703}-3505.o(StubCode)
    theImportedSymbol                        0x0001e278   Data           0  QtCore{00040703}-3505.o(StubCode)
    StubCode                                 0x0001e27c   Section        8  QtCore{00040703}-3524.o(StubCode)
    theImportedSymbol                        0x0001e280   Data           0  QtCore{00040703}-3524.o(StubCode)
    StubCode                                 0x0001e284   Section        8  QtCore{00040703}-3525.o(StubCode)
    theImportedSymbol                        0x0001e288   Data           0  QtCore{00040703}-3525.o(StubCode)
    StubCode                                 0x0001e28c   Section        8  QtCore{00040703}-3527.o(StubCode)
    theImportedSymbol                        0x0001e290   Data           0  QtCore{00040703}-3527.o(StubCode)
    StubCode                                 0x0001e294   Section        8  QtCore{00040703}-3607.o(StubCode)
    theImportedSymbol                        0x0001e298   Data           0  QtCore{00040703}-3607.o(StubCode)
    StubCode                                 0x0001e29c   Section        8  QtCore{00040703}-3608.o(StubCode)
    theImportedSymbol                        0x0001e2a0   Data           0  QtCore{00040703}-3608.o(StubCode)
    StubCode                                 0x0001e2a4   Section        8  QtCore{00040703}-3609.o(StubCode)
    theImportedSymbol                        0x0001e2a8   Data           0  QtCore{00040703}-3609.o(StubCode)
    StubCode                                 0x0001e2ac   Section        8  QtCore{00040703}-3610.o(StubCode)
    theImportedSymbol                        0x0001e2b0   Data           0  QtCore{00040703}-3610.o(StubCode)
    StubCode                                 0x0001e2b4   Section        8  QtCore{00040703}-3689.o(StubCode)
    theImportedSymbol                        0x0001e2b8   Data           0  QtCore{00040703}-3689.o(StubCode)
    StubCode                                 0x0001e2bc   Section        8  QtCore{00040703}-3691.o(StubCode)
    theImportedSymbol                        0x0001e2c0   Data           0  QtCore{00040703}-3691.o(StubCode)
    StubCode                                 0x0001e2c4   Section        8  QtCore{00040703}-3692.o(StubCode)
    theImportedSymbol                        0x0001e2c8   Data           0  QtCore{00040703}-3692.o(StubCode)
    StubCode                                 0x0001e2cc   Section        8  QtCore{00040703}-46.o(StubCode)
    theImportedSymbol                        0x0001e2d0   Data           0  QtCore{00040703}-46.o(StubCode)
    StubCode                                 0x0001e2d4   Section        8  QtCore{00040703}-494.o(StubCode)
    theImportedSymbol                        0x0001e2d8   Data           0  QtCore{00040703}-494.o(StubCode)
    StubCode                                 0x0001e2dc   Section        8  QtCore{00040703}-499.o(StubCode)
    theImportedSymbol                        0x0001e2e0   Data           0  QtCore{00040703}-499.o(StubCode)
    StubCode                                 0x0001e2e4   Section        8  QtCore{00040703}-501.o(StubCode)
    theImportedSymbol                        0x0001e2e8   Data           0  QtCore{00040703}-501.o(StubCode)
    StubCode                                 0x0001e2ec   Section        8  QtCore{00040703}-505.o(StubCode)
    theImportedSymbol                        0x0001e2f0   Data           0  QtCore{00040703}-505.o(StubCode)
    StubCode                                 0x0001e2f4   Section        8  QtCore{00040703}-54.o(StubCode)
    theImportedSymbol                        0x0001e2f8   Data           0  QtCore{00040703}-54.o(StubCode)
    StubCode                                 0x0001e2fc   Section        8  QtCore{00040703}-70.o(StubCode)
    theImportedSymbol                        0x0001e300   Data           0  QtCore{00040703}-70.o(StubCode)
    StubCode                                 0x0001e304   Section        8  QtCore{00040703}-73.o(StubCode)
    theImportedSymbol                        0x0001e308   Data           0  QtCore{00040703}-73.o(StubCode)
    StubCode                                 0x0001e30c   Section        8  QtCore{00040703}-741.o(StubCode)
    theImportedSymbol                        0x0001e310   Data           0  QtCore{00040703}-741.o(StubCode)
    StubCode                                 0x0001e314   Section        8  QtCore{00040703}-753.o(StubCode)
    theImportedSymbol                        0x0001e318   Data           0  QtCore{00040703}-753.o(StubCode)
    StubCode                                 0x0001e31c   Section        8  QtCore{00040703}-772.o(StubCode)
    theImportedSymbol                        0x0001e320   Data           0  QtCore{00040703}-772.o(StubCode)
    StubCode                                 0x0001e324   Section        8  QtCore{00040703}-94.o(StubCode)
    theImportedSymbol                        0x0001e328   Data           0  QtCore{00040703}-94.o(StubCode)
    StubCode                                 0x0001e32c   Section        8  QtCore{00040703}-98.o(StubCode)
    theImportedSymbol                        0x0001e330   Data           0  QtCore{00040703}-98.o(StubCode)
    StubCode                                 0x0001e334   Section        8  libc{00010000}-350.o(StubCode)
    theImportedSymbol                        0x0001e338   Data           0  libc{00010000}-350.o(StubCode)
    StubCode                                 0x0001e33c   Section        8  euser{000a0000}-1170.o(StubCode)
    theImportedSymbol                        0x0001e340   Data           0  euser{000a0000}-1170.o(StubCode)
    StubCode                                 0x0001e344   Section        8  euser{000a0000}-120.o(StubCode)
    theImportedSymbol                        0x0001e348   Data           0  euser{000a0000}-120.o(StubCode)
    StubCode                                 0x0001e34c   Section        8  euser{000a0000}-670.o(StubCode)
    theImportedSymbol                        0x0001e350   Data           0  euser{000a0000}-670.o(StubCode)
    StubCode                                 0x0001e354   Section        8  euser{000a0000}-671.o(StubCode)
    theImportedSymbol                        0x0001e358   Data           0  euser{000a0000}-671.o(StubCode)
    StubCode                                 0x0001e35c   Section        8  dfpaeabi{000a0000}-1.o(StubCode)
    theImportedSymbol                        0x0001e360   Data           0  dfpaeabi{000a0000}-1.o(StubCode)
    StubCode                                 0x0001e364   Section        8  dfpaeabi{000a0000}-2.o(StubCode)
    theImportedSymbol                        0x0001e368   Data           0  dfpaeabi{000a0000}-2.o(StubCode)
    StubCode                                 0x0001e36c   Section        8  drtaeabi{000a0000}-146.o(StubCode)
    theImportedSymbol                        0x0001e370   Data           0  drtaeabi{000a0000}-146.o(StubCode)
    StubCode                                 0x0001e374   Section        8  drtaeabi{000a0000}-147.o(StubCode)
    theImportedSymbol                        0x0001e378   Data           0  drtaeabi{000a0000}-147.o(StubCode)
    StubCode                                 0x0001e37c   Section        8  drtaeabi{000a0000}-155.o(StubCode)
    theImportedSymbol                        0x0001e380   Data           0  drtaeabi{000a0000}-155.o(StubCode)
    StubCode                                 0x0001e384   Section        8  drtaeabi{000a0000}-158.o(StubCode)
    theImportedSymbol                        0x0001e388   Data           0  drtaeabi{000a0000}-158.o(StubCode)
    StubCode                                 0x0001e38c   Section        8  drtaeabi{000a0000}-180.o(StubCode)
    theImportedSymbol                        0x0001e390   Data           0  drtaeabi{000a0000}-180.o(StubCode)
    StubCode                                 0x0001e394   Section        8  drtaeabi{000a0000}-183.o(StubCode)
    theImportedSymbol                        0x0001e398   Data           0  drtaeabi{000a0000}-183.o(StubCode)
    StubCode                                 0x0001e39c   Section        8  drtaeabi{000a0000}-184.o(StubCode)
    theImportedSymbol                        0x0001e3a0   Data           0  drtaeabi{000a0000}-184.o(StubCode)
    StubCode                                 0x0001e3a4   Section        8  drtaeabi{000a0000}-189.o(StubCode)
    theImportedSymbol                        0x0001e3a8   Data           0  drtaeabi{000a0000}-189.o(StubCode)
    StubCode                                 0x0001e3ac   Section        8  drtaeabi{000a0000}-190.o(StubCode)
    theImportedSymbol                        0x0001e3b0   Data           0  drtaeabi{000a0000}-190.o(StubCode)
    StubCode                                 0x0001e3b4   Section        8  drtrvct2_2{000a0000}-28.o(StubCode)
    theImportedSymbol                        0x0001e3b8   Data           0  drtrvct2_2{000a0000}-28.o(StubCode)
    StubCode                                 0x0001e3bc   Section        8  drtrvct2_2{000a0000}-51.o(StubCode)
    theImportedSymbol                        0x0001e3c0   Data           0  drtrvct2_2{000a0000}-51.o(StubCode)
    i._Z20qvariant_cast_helperRK8QVariantNS_4TypeEPv 0x0001e3c4   Section       20  QtOrganizer.in(i._Z20qvariant_cast_helperRK8QVariantNS_4TypeEPv)
    i._Z8qWarningv                           0x0001e3d8   Section       58  QtOrganizer.in(i._Z8qWarningv)
    i._Z8qWarningv.clean                     0x0001e412   Section       18  QtOrganizer.in(i._Z8qWarningv.clean)
    i._ZN10QByteArrayD1Ev                    0x0001e424   Section       24  QtOrganizer.in(i._ZN10QByteArrayD1Ev)
    i._ZN10QMultiHashIN10QtMobility16QOrganizerItemIdES1_ED1Ev 0x0001e43c   Section        8  QtOrganizer.in(i._ZN10QMultiHashIN10QtMobility16QOrganizerItemIdES1_ED1Ev)
    i._ZN10QStringRefD1Ev                    0x0001e444   Section        2  QtOrganizer.in(i._ZN10QStringRefD1Ev)
    i._ZN10QtMobility13buildIdStringERK7QStringRK4QMapIS0_S0_ES2_ 0x0001e448   Section      712  QtOrganizer.in(i._ZN10QtMobility13buildIdStringERK7QStringRK4QMapIS0_S0_ES2_)
    i._ZN10QtMobility13buildIdStringERK7QStringRK4QMapIS0_S0_ES2_.clean 0x0001e710   Section       76  QtOrganizer.in(i._ZN10QtMobility13buildIdStringERK7QStringRK4QMapIS0_S0_ES2_.clean)
    i._ZN10QtMobility13parseIdStringERK7QStringPS0_P4QMapIS0_S0_ES3_ 0x0001e75c   Section      756  QtOrganizer.in(i._ZN10QtMobility13parseIdStringERK7QStringPS0_P4QMapIS0_S0_ES3_)
    i._ZN10QtMobility13parseIdStringERK7QStringPS0_P4QMapIS0_S0_ES3_.clean 0x0001ea50   Section       92  QtOrganizer.in(i._ZN10QtMobility13parseIdStringERK7QStringPS0_P4QMapIS0_S0_ES3_.clean)
    i._ZN10QtMobility14QOrganizerTodoC1ERKNS_14QOrganizerItemE 0x0001eaac   Section       16  QtOrganizer.in(i._ZN10QtMobility14QOrganizerTodoC1ERKNS_14QOrganizerItemE)
    i._ZN10QtMobility14QOrganizerTodoD1Ev    0x0001eabc   Section        8  QtOrganizer.in(i._ZN10QtMobility14QOrganizerTodoD1Ev)
    i._ZN10QtMobility15QOrganizerEventC1ERKNS_14QOrganizerItemE 0x0001eac4   Section       16  QtOrganizer.in(i._ZN10QtMobility15QOrganizerEventC1ERKNS_14QOrganizerItemE)
    i._ZN10QtMobility15QOrganizerEventD1Ev   0x0001ead4   Section        8  QtOrganizer.in(i._ZN10QtMobility15QOrganizerEventD1Ev)
    i._ZN10QtMobility15mobilityPluginsERK7QString 0x0001eadc   Section      620  QtOrganizer.in(i._ZN10QtMobility15mobilityPluginsERK7QString)
    i._ZN10QtMobility15mobilityPluginsERK7QString.clean 0x0001ed48   Section      108  QtOrganizer.in(i._ZN10QtMobility15mobilityPluginsERK7QString.clean)
    i._ZN10QtMobility17QOrganizerJournalD1Ev 0x0001edb4   Section        8  QtOrganizer.in(i._ZN10QtMobility17QOrganizerJournalD1Ev)
    i._ZN10QtMobility18QOrganizerItemDataC1Ev 0x0001edbc   Section       64  QtOrganizer.in(i._ZN10QtMobility18QOrganizerItemDataC1Ev)
    i._ZN10QtMobility18QOrganizerItemDataC1Ev.clean 0x0001edfc   Section       40  QtOrganizer.in(i._ZN10QtMobility18QOrganizerItemDataC1Ev.clean)
    i._ZN10QtMobility18QOrganizerItemDataD1Ev 0x0001ee24   Section       32  QtOrganizer.in(i._ZN10QtMobility18QOrganizerItemDataD1Ev)
    i._ZN10QtMobility18QOrganizerItemDataD1Ev.clean 0x0001ee44   Section       22  QtOrganizer.in(i._ZN10QtMobility18QOrganizerItemDataD1Ev.clean)
    i._ZN10QtMobility18QOrganizerItemGuidD1Ev 0x0001ee5a   Section        8  QtOrganizer.in(i._ZN10QtMobility18QOrganizerItemGuidD1Ev)
    i._ZN10QtMobility18QOrganizerItemType7setTypeERK7QString 0x0001ee64   Section       32  QtOrganizer.in(i._ZN10QtMobility18QOrganizerItemType7setTypeERK7QString)
    i._ZN10QtMobility18QOrganizerItemType7setTypeERK7QString.clean 0x0001ee84   Section       10  QtOrganizer.in(i._ZN10QtMobility18QOrganizerItemType7setTypeERK7QString.clean)
    i._ZN10QtMobility18QOrganizerItemTypeC1Ev 0x0001ee90   Section       16  QtOrganizer.in(i._ZN10QtMobility18QOrganizerItemTypeC1Ev)
    i._ZN10QtMobility18QOrganizerItemTypeD1Ev 0x0001eea0   Section        8  QtOrganizer.in(i._ZN10QtMobility18QOrganizerItemTypeD1Ev)
    i._ZN10QtMobility18QOrganizerTodoTimeD1Ev 0x0001eea8   Section        8  QtOrganizer.in(i._ZN10QtMobility18QOrganizerTodoTimeD1Ev)
    i._ZN10QtMobility19QOrganizerEventTimeD1Ev 0x0001eeb0   Section        8  QtOrganizer.in(i._ZN10QtMobility19QOrganizerEventTimeD1Ev)
    i._ZN10QtMobility20QOrganizerItemParent11setParentIdERKNS_16QOrganizerItemIdE 0x0001eeb8   Section       48  QtOrganizer.in(i._ZN10QtMobility20QOrganizerItemParent11setParentIdERKNS_16QOrganizerItemIdE)
    i._ZN10QtMobility20QOrganizerItemParent11setParentIdERKNS_16QOrganizerItemIdE.clean 0x0001eee8   Section       10  QtOrganizer.in(i._ZN10QtMobility20QOrganizerItemParent11setParentIdERKNS_16QOrganizerItemIdE.clean)
    i._ZN10QtMobility20QOrganizerItemParentD1Ev 0x0001eef2   Section        8  QtOrganizer.in(i._ZN10QtMobility20QOrganizerItemParentD1Ev)
    i._ZN10QtMobility21QOrganizerItemCommentC1ERKS0_ 0x0001eefa   Section        8  QtOrganizer.in(i._ZN10QtMobility21QOrganizerItemCommentC1ERKS0_)
    i._ZN10QtMobility21QOrganizerItemCommentD1Ev 0x0001ef02   Section        8  QtOrganizer.in(i._ZN10QtMobility21QOrganizerItemCommentD1Ev)
    i._ZN10QtMobility21QOrganizerJournalTimeD1Ev 0x0001ef0a   Section        8  QtOrganizer.in(i._ZN10QtMobility21QOrganizerJournalTimeD1Ev)
    i._ZN10QtMobility21QOrganizerManagerDataC1Ev 0x0001ef12   Section       18  QtOrganizer.in(i._ZN10QtMobility21QOrganizerManagerDataC1Ev)
    i._ZN10QtMobility22QOrganizerItemEngineIdC2Ev 0x0001ef24   Section       16  QtOrganizer.in(i._ZN10QtMobility22QOrganizerItemEngineIdC2Ev)
    i._ZN10QtMobility22QOrganizerItemEngineIdD0Ev 0x0001ef34   Section       12  QtOrganizer.in(i._ZN10QtMobility22QOrganizerItemEngineIdD0Ev)
    i._ZN10QtMobility22QOrganizerItemEngineIdD2Ev 0x0001ef40   Section        2  QtOrganizer.in(i._ZN10QtMobility22QOrganizerItemEngineIdD2Ev)
    i._ZN10QtMobility22QOrganizerItemIdFilter6d_funcEv 0x0001ef42   Section       66  QtOrganizer.in(i._ZN10QtMobility22QOrganizerItemIdFilter6d_funcEv)
    i._ZN10QtMobility22QOrganizerItemIdFilterD1Ev 0x0001ef84   Section        8  QtOrganizer.in(i._ZN10QtMobility22QOrganizerItemIdFilterD1Ev)
    i._ZN10QtMobility22QOrganizerItemLocationD1Ev 0x0001ef8c   Section        8  QtOrganizer.in(i._ZN10QtMobility22QOrganizerItemLocationD1Ev)
    i._ZN10QtMobility22QOrganizerItemPriorityD1Ev 0x0001ef94   Section        8  QtOrganizer.in(i._ZN10QtMobility22QOrganizerItemPriorityD1Ev)
    i._ZN10QtMobility22QOrganizerTodoProgressD1Ev 0x0001ef9c   Section        8  QtOrganizer.in(i._ZN10QtMobility22QOrganizerTodoProgressD1Ev)
    i._ZN10QtMobility23QOrganizerItemTimestamp15setLastModifiedERK9QDateTime 0x0001efa4   Section       32  QtOrganizer.in(i._ZN10QtMobility23QOrganizerItemTimestamp15setLastModifiedERK9QDateTime)
    i._ZN10QtMobility23QOrganizerItemTimestamp15setLastModifiedERK9QDateTime.clean 0x0001efc4   Section       10  QtOrganizer.in(i._ZN10QtMobility23QOrganizerItemTimestamp15setLastModifiedERK9QDateTime.clean)
    i._ZN10QtMobility23QOrganizerItemTimestampC1ERKNS_20QOrganizerItemDetailE 0x0001efd0   Section       16  QtOrganizer.in(i._ZN10QtMobility23QOrganizerItemTimestampC1ERKNS_20QOrganizerItemDetailE)
    i._ZN10QtMobility23QOrganizerItemTimestampD1Ev 0x0001efe0   Section        8  QtOrganizer.in(i._ZN10QtMobility23QOrganizerItemTimestampD1Ev)
    i._ZN10QtMobility23QOrganizerManagerEngineD0Ev 0x0001efe8   Section       16  QtOrganizer.in(i._ZN10QtMobility23QOrganizerManagerEngineD0Ev)
    i._ZN10QtMobility23QOrganizerManagerEngineD2Ev 0x0001eff8   Section        8  QtOrganizer.in(i._ZN10QtMobility23QOrganizerManagerEngineD2Ev)
    i._ZN10QtMobility24QOrganizerCollectionDataC1ERKS0_ 0x0001f000   Section       84  QtOrganizer.in(i._ZN10QtMobility24QOrganizerCollectionDataC1ERKS0_)
    i._ZN10QtMobility24QOrganizerCollectionDataC1ERKS0_.clean 0x0001f054   Section       34  QtOrganizer.in(i._ZN10QtMobility24QOrganizerCollectionDataC1ERKS0_.clean)
    i._ZN10QtMobility24QOrganizerCollectionDataD1Ev 0x0001f076   Section       44  QtOrganizer.in(i._ZN10QtMobility24QOrganizerCollectionDataD1Ev)
    i._ZN10QtMobility24QOrganizerCollectionDataD1Ev.clean 0x0001f0a2   Section       34  QtOrganizer.in(i._ZN10QtMobility24QOrganizerCollectionDataD1Ev.clean)
    i._ZN10QtMobility24QOrganizerItemRecurrenceC1ERKNS_20QOrganizerItemDetailE 0x0001f0c4   Section       16  QtOrganizer.in(i._ZN10QtMobility24QOrganizerItemRecurrenceC1ERKNS_20QOrganizerItemDetailE)
    i._ZN10QtMobility24QOrganizerItemRecurrenceD1Ev 0x0001f0d4   Section        8  QtOrganizer.in(i._ZN10QtMobility24QOrganizerItemRecurrenceD1Ev)
    i._ZN10QtMobility24QOrganizerTodoOccurrenceD1Ev 0x0001f0dc   Section        8  QtOrganizer.in(i._ZN10QtMobility24QOrganizerTodoOccurrenceD1Ev)
    i._ZN10QtMobility25QOrganizerEventOccurrenceD1Ev 0x0001f0e4   Section        8  QtOrganizer.in(i._ZN10QtMobility25QOrganizerEventOccurrenceD1Ev)
    i._ZN10QtMobility25QOrganizerItemDescription14setDescriptionERK7QString 0x0001f0ec   Section       32  QtOrganizer.in(i._ZN10QtMobility25QOrganizerItemDescription14setDescriptionERK7QString)
    i._ZN10QtMobility25QOrganizerItemDescription14setDescriptionERK7QString.clean 0x0001f10c   Section       10  QtOrganizer.in(i._ZN10QtMobility25QOrganizerItemDescription14setDescriptionERK7QString.clean)
    i._ZN10QtMobility25QOrganizerItemDescriptionD1Ev 0x0001f116   Section        8  QtOrganizer.in(i._ZN10QtMobility25QOrganizerItemDescriptionD1Ev)
    i._ZN10QtMobility25QOrganizerItemSaveRequestD0Ev 0x0001f11e   Section       16  QtOrganizer.in(i._ZN10QtMobility25QOrganizerItemSaveRequestD0Ev)
    i._ZN10QtMobility25QOrganizerItemSaveRequestD1Ev 0x0001f12e   Section        8  QtOrganizer.in(i._ZN10QtMobility25QOrganizerItemSaveRequestD1Ev)
    i._ZN10QtMobility25QOrganizerItemUnionFilter6d_funcEv 0x0001f136   Section       66  QtOrganizer.in(i._ZN10QtMobility25QOrganizerItemUnionFilter6d_funcEv)
    i._ZN10QtMobility25QOrganizerItemUnionFilterD1Ev 0x0001f178   Section        8  QtOrganizer.in(i._ZN10QtMobility25QOrganizerItemUnionFilterD1Ev)
    i._ZN10QtMobility26QOrganizerItemDetailFilter6d_funcEv 0x0001f180   Section       60  QtOrganizer.in(i._ZN10QtMobility26QOrganizerItemDetailFilter6d_funcEv)
    i._ZN10QtMobility26QOrganizerItemDetailFilterD1Ev 0x0001f1bc   Section        8  QtOrganizer.in(i._ZN10QtMobility26QOrganizerItemDetailFilterD1Ev)
    i._ZN10QtMobility26QOrganizerItemDisplayLabel8setLabelERK7QString 0x0001f1c4   Section       32  QtOrganizer.in(i._ZN10QtMobility26QOrganizerItemDisplayLabel8setLabelERK7QString)
    i._ZN10QtMobility26QOrganizerItemDisplayLabel8setLabelERK7QString.clean 0x0001f1e4   Section       10  QtOrganizer.in(i._ZN10QtMobility26QOrganizerItemDisplayLabel8setLabelERK7QString.clean)
    i._ZN10QtMobility26QOrganizerItemDisplayLabelD1Ev 0x0001f1ee   Section        8  QtOrganizer.in(i._ZN10QtMobility26QOrganizerItemDisplayLabelD1Ev)
    i._ZN10QtMobility26QOrganizerItemFetchRequestD0Ev 0x0001f1f6   Section       16  QtOrganizer.in(i._ZN10QtMobility26QOrganizerItemFetchRequestD0Ev)
    i._ZN10QtMobility26QOrganizerItemFetchRequestD1Ev 0x0001f206   Section        8  QtOrganizer.in(i._ZN10QtMobility26QOrganizerItemFetchRequestD1Ev)
    i._ZN10QtMobility26QOrganizerItemStringHolderC1ERK7QString 0x0001f20e   Section       12  QtOrganizer.in(i._ZN10QtMobility26QOrganizerItemStringHolderC1ERK7QString)
    i._ZN10QtMobility26QOrganizerItemStringHolderD1Ev 0x0001f21a   Section        2  QtOrganizer.in(i._ZN10QtMobility26QOrganizerItemStringHolderD1Ev)
    i._ZN10QtMobility26QOrganizerItemStringHolderaSERK7QString 0x0001f21c   Section       72  QtOrganizer.in(i._ZN10QtMobility26QOrganizerItemStringHolderaSERK7QString)
    i._ZN10QtMobility26QOrganizerItemStringHolderaSERK7QString.clean 0x0001f264   Section       10  QtOrganizer.in(i._ZN10QtMobility26QOrganizerItemStringHolderaSERK7QString.clean)
    i._ZN10QtMobility27QOrganizerItemChangeSetDataD1Ev 0x0001f26e   Section       32  QtOrganizer.in(i._ZN10QtMobility27QOrganizerItemChangeSetDataD1Ev)
    i._ZN10QtMobility27QOrganizerItemChangeSetDataD1Ev.clean 0x0001f28e   Section       24  QtOrganizer.in(i._ZN10QtMobility27QOrganizerItemChangeSetDataD1Ev.clean)
    i._ZN10QtMobility27QOrganizerItemDetailPrivateC1ERKS0_ 0x0001f2a8   Section      116  QtOrganizer.in(i._ZN10QtMobility27QOrganizerItemDetailPrivateC1ERKS0_)
    i._ZN10QtMobility27QOrganizerItemDetailPrivateC1ERKS0_.clean 0x0001f31c   Section       10  QtOrganizer.in(i._ZN10QtMobility27QOrganizerItemDetailPrivateC1ERKS0_.clean)
    i._ZN10QtMobility27QOrganizerItemDetailPrivateC1Ev 0x0001f328   Section       52  QtOrganizer.in(i._ZN10QtMobility27QOrganizerItemDetailPrivateC1Ev)
    i._ZN10QtMobility27QOrganizerItemDetailPrivateC1Ev.clean 0x0001f35c   Section       10  QtOrganizer.in(i._ZN10QtMobility27QOrganizerItemDetailPrivateC1Ev.clean)
    i._ZN10QtMobility27QOrganizerItemDetailPrivateD1Ev 0x0001f366   Section       14  QtOrganizer.in(i._ZN10QtMobility27QOrganizerItemDetailPrivateD1Ev)
    i._ZN10QtMobility27QOrganizerItemDetailPrivateD1Ev.clean 0x0001f374   Section       12  QtOrganizer.in(i._ZN10QtMobility27QOrganizerItemDetailPrivateD1Ev.clean)
    i._ZN10QtMobility27QOrganizerItemFilterPrivateD2Ev 0x0001f380   Section        2  QtOrganizer.in(i._ZN10QtMobility27QOrganizerItemFilterPrivateD2Ev)
    i._ZN10QtMobility27QOrganizerItemInvalidEngineD0Ev 0x0001f382   Section       16  QtOrganizer.in(i._ZN10QtMobility27QOrganizerItemInvalidEngineD0Ev)
    i._ZN10QtMobility27QOrganizerItemInvalidEngineD1Ev 0x0001f392   Section        8  QtOrganizer.in(i._ZN10QtMobility27QOrganizerItemInvalidEngineD1Ev)
    i._ZN10QtMobility27QOrganizerItemInvalidFilterD1Ev 0x0001f39a   Section        8  QtOrganizer.in(i._ZN10QtMobility27QOrganizerItemInvalidFilterD1Ev)
    i._ZN10QtMobility27QOrganizerItemRemoveRequestD0Ev 0x0001f3a2   Section       16  QtOrganizer.in(i._ZN10QtMobility27QOrganizerItemRemoveRequestD0Ev)
    i._ZN10QtMobility27QOrganizerItemRemoveRequestD1Ev 0x0001f3b2   Section        8  QtOrganizer.in(i._ZN10QtMobility27QOrganizerItemRemoveRequestD1Ev)
    i._ZN10QtMobility28QOrganizerCollectionEngineIdC2Ev 0x0001f3bc   Section       16  QtOrganizer.in(i._ZN10QtMobility28QOrganizerCollectionEngineIdC2Ev)
    i._ZN10QtMobility28QOrganizerCollectionEngineIdD0Ev 0x0001f3cc   Section       12  QtOrganizer.in(i._ZN10QtMobility28QOrganizerCollectionEngineIdD0Ev)
    i._ZN10QtMobility28QOrganizerCollectionEngineIdD2Ev 0x0001f3d8   Section        2  QtOrganizer.in(i._ZN10QtMobility28QOrganizerCollectionEngineIdD2Ev)
    i._ZN10QtMobility28QOrganizerItemIdFetchRequestD0Ev 0x0001f3da   Section       16  QtOrganizer.in(i._ZN10QtMobility28QOrganizerItemIdFetchRequestD0Ev)
    i._ZN10QtMobility28QOrganizerItemIdFetchRequestD1Ev 0x0001f3ea   Section        8  QtOrganizer.in(i._ZN10QtMobility28QOrganizerItemIdFetchRequestD1Ev)
    i._ZN10QtMobility29QOrganizerItemChangeLogFilter6d_funcEv 0x0001f3f2   Section       60  QtOrganizer.in(i._ZN10QtMobility29QOrganizerItemChangeLogFilter6d_funcEv)
    i._ZN10QtMobility29QOrganizerItemChangeLogFilterD1Ev 0x0001f42e   Section        8  QtOrganizer.in(i._ZN10QtMobility29QOrganizerItemChangeLogFilterD1Ev)
    i._ZN10QtMobility29QOrganizerItemIdFilterPrivate14copyIfPossibleER18QSharedDataPointerINS_27QOrganizerItemFilterPrivateEERKNS_20QOrganizerItemFilterE 0x0001f436   Section      140  QtOrganizer.in(i._ZN10QtMobility29QOrganizerItemIdFilterPrivate14copyIfPossibleER18QSharedDataPointerINS_27QOrganizerItemFilterPrivateEERKNS_20QOrganizerItemFilterE)
    i._ZN10QtMobility29QOrganizerItemIdFilterPrivate14copyIfPossibleER18QSharedDataPointerINS_27QOrganizerItemFilterPrivateEERKNS_20QOrganizerItemFilterE.clean 0x0001f4c2   Section       14  QtOrganizer.in(i._ZN10QtMobility29QOrganizerItemIdFilterPrivate14copyIfPossibleER18QSharedDataPointerINS_27QOrganizerItemFilterPrivateEERKNS_20QOrganizerItemFilterE.clean)
    i._ZN10QtMobility29QOrganizerItemIdFilterPrivate15inputFromStreamER11QDataStreamh 0x0001f4d0   Section       22  QtOrganizer.in(i._ZN10QtMobility29QOrganizerItemIdFilterPrivate15inputFromStreamER11QDataStreamh)
    i._ZN10QtMobility29QOrganizerItemIdFilterPrivateC1Ev 0x0001f4e8   Section       28  QtOrganizer.in(i._ZN10QtMobility29QOrganizerItemIdFilterPrivateC1Ev)
    i._ZN10QtMobility29QOrganizerItemIdFilterPrivateC1Ev.clean 0x0001f504   Section       10  QtOrganizer.in(i._ZN10QtMobility29QOrganizerItemIdFilterPrivateC1Ev.clean)
    i._ZN10QtMobility29QOrganizerItemIdFilterPrivateD0Ev 0x0001f50e   Section       16  QtOrganizer.in(i._ZN10QtMobility29QOrganizerItemIdFilterPrivateD0Ev)
    i._ZN10QtMobility29QOrganizerItemIdFilterPrivateD1Ev 0x0001f520   Section       24  QtOrganizer.in(i._ZN10QtMobility29QOrganizerItemIdFilterPrivateD1Ev)
    i._ZN10QtMobility29QOrganizerItemIdFilterPrivateD1Ev.clean 0x0001f538   Section       10  QtOrganizer.in(i._ZN10QtMobility29QOrganizerItemIdFilterPrivateD1Ev.clean)
    i._ZN10QtMobility30QOrganizerItemCollectionFilter6d_funcEv 0x0001f542   Section       66  QtOrganizer.in(i._ZN10QtMobility30QOrganizerItemCollectionFilter6d_funcEv)
    i._ZN10QtMobility30QOrganizerItemCollectionFilterD1Ev 0x0001f584   Section        8  QtOrganizer.in(i._ZN10QtMobility30QOrganizerItemCollectionFilterD1Ev)
    i._ZN10QtMobility30QOrganizerItemFetchHintPrivateD1Ev 0x0001f58c   Section       12  QtOrganizer.in(i._ZN10QtMobility30QOrganizerItemFetchHintPrivateD1Ev)
    i._ZN10QtMobility30QOrganizerItemMemoryEngineData17emitSharedSignalsEPNS_23QOrganizerItemChangeSetE 0x0001f598   Section      122  QtOrganizer.in(i._ZN10QtMobility30QOrganizerItemMemoryEngineData17emitSharedSignalsEPNS_23QOrganizerItemChangeSetE)
    i._ZN10QtMobility30QOrganizerItemMemoryEngineData17emitSharedSignalsEPNS_23QOrganizerItemChangeSetE.clean 0x0001f612   Section       18  QtOrganizer.in(i._ZN10QtMobility30QOrganizerItemMemoryEngineData17emitSharedSignalsEPNS_23QOrganizerItemChangeSetE.clean)
    i._ZN10QtMobility30QOrganizerItemMemoryEngineDataD1Ev 0x0001f624   Section      116  QtOrganizer.in(i._ZN10QtMobility30QOrganizerItemMemoryEngineDataD1Ev)
    i._ZN10QtMobility30QOrganizerItemMemoryEngineDataD1Ev.clean 0x0001f698   Section      108  QtOrganizer.in(i._ZN10QtMobility30QOrganizerItemMemoryEngineDataD1Ev.clean)
    i._ZN10QtMobility30QOrganizerItemSortOrderPrivateD1Ev 0x0001f704   Section       20  QtOrganizer.in(i._ZN10QtMobility30QOrganizerItemSortOrderPrivateD1Ev)
    i._ZN10QtMobility30QOrganizerItemSortOrderPrivateD1Ev.clean 0x0001f718   Section       12  QtOrganizer.in(i._ZN10QtMobility30QOrganizerItemSortOrderPrivateD1Ev.clean)
    i._ZN10QtMobility31QOrganizerCollectionSaveRequestD0Ev 0x0001f724   Section       16  QtOrganizer.in(i._ZN10QtMobility31QOrganizerCollectionSaveRequestD0Ev)
    i._ZN10QtMobility31QOrganizerCollectionSaveRequestD1Ev 0x0001f734   Section        8  QtOrganizer.in(i._ZN10QtMobility31QOrganizerCollectionSaveRequestD1Ev)
    i._ZN10QtMobility31QOrganizerItemDetailRangeFilter6d_funcEv 0x0001f73c   Section       60  QtOrganizer.in(i._ZN10QtMobility31QOrganizerItemDetailRangeFilter6d_funcEv)
    i._ZN10QtMobility31QOrganizerItemDetailRangeFilterD1Ev 0x0001f778   Section        8  QtOrganizer.in(i._ZN10QtMobility31QOrganizerItemDetailRangeFilterD1Ev)
    i._ZN10QtMobility31QOrganizerRecurrenceRulePrivateC1ERKS0_ 0x0001f780   Section      126  QtOrganizer.in(i._ZN10QtMobility31QOrganizerRecurrenceRulePrivateC1ERKS0_)
    i._ZN10QtMobility31QOrganizerRecurrenceRulePrivateC1ERKS0_.clean 0x0001f7fe   Section       60  QtOrganizer.in(i._ZN10QtMobility31QOrganizerRecurrenceRulePrivateC1ERKS0_.clean)
    i._ZN10QtMobility31QOrganizerRecurrenceRulePrivateC1Ev 0x0001f83c   Section      108  QtOrganizer.in(i._ZN10QtMobility31QOrganizerRecurrenceRulePrivateC1Ev)
    i._ZN10QtMobility31QOrganizerRecurrenceRulePrivateC1Ev.clean 0x0001f8a8   Section       60  QtOrganizer.in(i._ZN10QtMobility31QOrganizerRecurrenceRulePrivateC1Ev.clean)
    i._ZN10QtMobility31QOrganizerRecurrenceRulePrivateD1Ev 0x0001f8e4   Section       68  QtOrganizer.in(i._ZN10QtMobility31QOrganizerRecurrenceRulePrivateD1Ev)
    i._ZN10QtMobility31QOrganizerRecurrenceRulePrivateD1Ev.clean 0x0001f928   Section       60  QtOrganizer.in(i._ZN10QtMobility31QOrganizerRecurrenceRulePrivateD1Ev.clean)
    i._ZN10QtMobility32QOrganizerAbstractRequestPrivateD0Ev 0x0001f964   Section       16  QtOrganizer.in(i._ZN10QtMobility32QOrganizerAbstractRequestPrivateD0Ev)
    i._ZN10QtMobility32QOrganizerAbstractRequestPrivateD1Ev 0x0001f974   Section       48  QtOrganizer.in(i._ZN10QtMobility32QOrganizerAbstractRequestPrivateD1Ev)
    i._ZN10QtMobility32QOrganizerAbstractRequestPrivateD1Ev.clean 0x0001f9a4   Section       24  QtOrganizer.in(i._ZN10QtMobility32QOrganizerAbstractRequestPrivateD1Ev.clean)
    i._ZN10QtMobility32QOrganizerCollectionFetchRequestD0Ev 0x0001f9bc   Section       16  QtOrganizer.in(i._ZN10QtMobility32QOrganizerCollectionFetchRequestD0Ev)
    i._ZN10QtMobility32QOrganizerCollectionFetchRequestD1Ev 0x0001f9cc   Section        8  QtOrganizer.in(i._ZN10QtMobility32QOrganizerCollectionFetchRequestD1Ev)
    i._ZN10QtMobility32QOrganizerItemIntersectionFilter6d_funcEv 0x0001f9d4   Section       66  QtOrganizer.in(i._ZN10QtMobility32QOrganizerItemIntersectionFilter6d_funcEv)
    i._ZN10QtMobility32QOrganizerItemIntersectionFilterD1Ev 0x0001fa16   Section        8  QtOrganizer.in(i._ZN10QtMobility32QOrganizerItemIntersectionFilterD1Ev)
    i._ZN10QtMobility32QOrganizerItemSaveRequestPrivateC1Ev 0x0001fa20   Section       92  QtOrganizer.in(i._ZN10QtMobility32QOrganizerItemSaveRequestPrivateC1Ev)
    i._ZN10QtMobility32QOrganizerItemSaveRequestPrivateC1Ev.clean 0x0001fa7c   Section       38  QtOrganizer.in(i._ZN10QtMobility32QOrganizerItemSaveRequestPrivateC1Ev.clean)
    i._ZN10QtMobility32QOrganizerItemSaveRequestPrivateD0Ev 0x0001faa2   Section       16  QtOrganizer.in(i._ZN10QtMobility32QOrganizerItemSaveRequestPrivateD0Ev)
    i._ZN10QtMobility32QOrganizerItemSaveRequestPrivateD1Ev 0x0001fab4   Section       40  QtOrganizer.in(i._ZN10QtMobility32QOrganizerItemSaveRequestPrivateD1Ev)
    i._ZN10QtMobility32QOrganizerItemSaveRequestPrivateD1Ev.clean 0x0001fadc   Section       22  QtOrganizer.in(i._ZN10QtMobility32QOrganizerItemSaveRequestPrivateD1Ev.clean)
    i._ZN10QtMobility32QOrganizerItemUnionFilterPrivate14copyIfPossibleER18QSharedDataPointerINS_27QOrganizerItemFilterPrivateEERKNS_20QOrganizerItemFilterE 0x0001faf2   Section      140  QtOrganizer.in(i._ZN10QtMobility32QOrganizerItemUnionFilterPrivate14copyIfPossibleER18QSharedDataPointerINS_27QOrganizerItemFilterPrivateEERKNS_20QOrganizerItemFilterE)
    i._ZN10QtMobility32QOrganizerItemUnionFilterPrivate14copyIfPossibleER18QSharedDataPointerINS_27QOrganizerItemFilterPrivateEERKNS_20QOrganizerItemFilterE.clean 0x0001fb7e   Section       14  QtOrganizer.in(i._ZN10QtMobility32QOrganizerItemUnionFilterPrivate14copyIfPossibleER18QSharedDataPointerINS_27QOrganizerItemFilterPrivateEERKNS_20QOrganizerItemFilterE.clean)
    i._ZN10QtMobility32QOrganizerItemUnionFilterPrivate15inputFromStreamER11QDataStreamh 0x0001fb8c   Section       22  QtOrganizer.in(i._ZN10QtMobility32QOrganizerItemUnionFilterPrivate15inputFromStreamER11QDataStreamh)
    i._ZN10QtMobility32QOrganizerItemUnionFilterPrivateC1Ev 0x0001fba4   Section       28  QtOrganizer.in(i._ZN10QtMobility32QOrganizerItemUnionFilterPrivateC1Ev)
    i._ZN10QtMobility32QOrganizerItemUnionFilterPrivateC1Ev.clean 0x0001fbc0   Section       10  QtOrganizer.in(i._ZN10QtMobility32QOrganizerItemUnionFilterPrivateC1Ev.clean)
    i._ZN10QtMobility32QOrganizerItemUnionFilterPrivateD0Ev 0x0001fbca   Section       16  QtOrganizer.in(i._ZN10QtMobility32QOrganizerItemUnionFilterPrivateD0Ev)
    i._ZN10QtMobility32QOrganizerItemUnionFilterPrivateD1Ev 0x0001fbdc   Section       24  QtOrganizer.in(i._ZN10QtMobility32QOrganizerItemUnionFilterPrivateD1Ev)
    i._ZN10QtMobility32QOrganizerItemUnionFilterPrivateD1Ev.clean 0x0001fbf4   Section       10  QtOrganizer.in(i._ZN10QtMobility32QOrganizerItemUnionFilterPrivateD1Ev.clean)
    i._ZN10QtMobility33QOrganizerCollectionChangeSetDataD1Ev 0x0001fbfe   Section       32  QtOrganizer.in(i._ZN10QtMobility33QOrganizerCollectionChangeSetDataD1Ev)
    i._ZN10QtMobility33QOrganizerCollectionChangeSetDataD1Ev.clean 0x0001fc1e   Section       24  QtOrganizer.in(i._ZN10QtMobility33QOrganizerCollectionChangeSetDataD1Ev.clean)
    i._ZN10QtMobility33QOrganizerCollectionRemoveRequestD0Ev 0x0001fc36   Section       16  QtOrganizer.in(i._ZN10QtMobility33QOrganizerCollectionRemoveRequestD0Ev)
    i._ZN10QtMobility33QOrganizerCollectionRemoveRequestD1Ev 0x0001fc46   Section        8  QtOrganizer.in(i._ZN10QtMobility33QOrganizerCollectionRemoveRequestD1Ev)
    i._ZN10QtMobility33QOrganizerItemDetailFilterPrivate14copyIfPossibleER18QSharedDataPointerINS_27QOrganizerItemFilterPrivateEERKNS_20QOrganizerItemFilterE 0x0001fc4e   Section      140  QtOrganizer.in(i._ZN10QtMobility33QOrganizerItemDetailFilterPrivate14copyIfPossibleER18QSharedDataPointerINS_27QOrganizerItemFilterPrivateEERKNS_20QOrganizerItemFilterE)
    i._ZN10QtMobility33QOrganizerItemDetailFilterPrivate14copyIfPossibleER18QSharedDataPointerINS_27QOrganizerItemFilterPrivateEERKNS_20QOrganizerItemFilterE.clean 0x0001fcda   Section       14  QtOrganizer.in(i._ZN10QtMobility33QOrganizerItemDetailFilterPrivate14copyIfPossibleER18QSharedDataPointerINS_27QOrganizerItemFilterPrivateEERKNS_20QOrganizerItemFilterE.clean)
    i._ZN10QtMobility33QOrganizerItemDetailFilterPrivate15inputFromStreamER11QDataStreamh 0x0001fce8   Section       52  QtOrganizer.in(i._ZN10QtMobility33QOrganizerItemDetailFilterPrivate15inputFromStreamER11QDataStreamh)
    i._ZN10QtMobility33QOrganizerItemDetailFilterPrivateC1Ev 0x0001fd1c   Section       64  QtOrganizer.in(i._ZN10QtMobility33QOrganizerItemDetailFilterPrivateC1Ev)
    i._ZN10QtMobility33QOrganizerItemDetailFilterPrivateC1Ev.clean 0x0001fd5c   Section       22  QtOrganizer.in(i._ZN10QtMobility33QOrganizerItemDetailFilterPrivateC1Ev.clean)
    i._ZN10QtMobility33QOrganizerItemDetailFilterPrivateD0Ev 0x0001fd72   Section       16  QtOrganizer.in(i._ZN10QtMobility33QOrganizerItemDetailFilterPrivateD0Ev)
    i._ZN10QtMobility33QOrganizerItemDetailFilterPrivateD1Ev 0x0001fd84   Section       48  QtOrganizer.in(i._ZN10QtMobility33QOrganizerItemDetailFilterPrivateD1Ev)
    i._ZN10QtMobility33QOrganizerItemDetailFilterPrivateD1Ev.clean 0x0001fdb4   Section       34  QtOrganizer.in(i._ZN10QtMobility33QOrganizerItemDetailFilterPrivateD1Ev.clean)
    i._ZN10QtMobility33QOrganizerItemFetchRequestPrivateC1Ev 0x0001fdd8   Section      140  QtOrganizer.in(i._ZN10QtMobility33QOrganizerItemFetchRequestPrivateC1Ev)
    i._ZN10QtMobility33QOrganizerItemFetchRequestPrivateC1Ev.clean 0x0001fe64   Section       86  QtOrganizer.in(i._ZN10QtMobility33QOrganizerItemFetchRequestPrivateC1Ev.clean)
    i._ZN10QtMobility33QOrganizerItemFetchRequestPrivateD0Ev 0x0001feba   Section       16  QtOrganizer.in(i._ZN10QtMobility33QOrganizerItemFetchRequestPrivateD0Ev)
    i._ZN10QtMobility33QOrganizerItemFetchRequestPrivateD1Ev 0x0001fecc   Section       88  QtOrganizer.in(i._ZN10QtMobility33QOrganizerItemFetchRequestPrivateD1Ev)
    i._ZN10QtMobility33QOrganizerItemFetchRequestPrivateD1Ev.clean 0x0001ff24   Section       70  QtOrganizer.in(i._ZN10QtMobility33QOrganizerItemFetchRequestPrivateD1Ev.clean)
    i._ZN10QtMobility34QOrganizerItemDetailDefinitionDataD1Ev 0x0001ff6a   Section       20  QtOrganizer.in(i._ZN10QtMobility34QOrganizerItemDetailDefinitionDataD1Ev)
    i._ZN10QtMobility34QOrganizerItemDetailDefinitionDataD1Ev.clean 0x0001ff7e   Section       10  QtOrganizer.in(i._ZN10QtMobility34QOrganizerItemDetailDefinitionDataD1Ev.clean)
    i._ZN10QtMobility34QOrganizerItemInvalidFilterPrivate15inputFromStreamER11QDataStreamh 0x0001ff88   Section        6  QtOrganizer.in(i._ZN10QtMobility34QOrganizerItemInvalidFilterPrivate15inputFromStreamER11QDataStreamh)
    i._ZN10QtMobility34QOrganizerItemInvalidFilterPrivateC1Ev 0x0001ff90   Section       32  QtOrganizer.in(i._ZN10QtMobility34QOrganizerItemInvalidFilterPrivateC1Ev)
    i._ZN10QtMobility34QOrganizerItemInvalidFilterPrivateC1Ev.clean 0x0001ffb0   Section       10  QtOrganizer.in(i._ZN10QtMobility34QOrganizerItemInvalidFilterPrivateC1Ev.clean)
    i._ZN10QtMobility34QOrganizerItemInvalidFilterPrivateD0Ev 0x0001ffba   Section       16  QtOrganizer.in(i._ZN10QtMobility34QOrganizerItemInvalidFilterPrivateD0Ev)
    i._ZN10QtMobility34QOrganizerItemInvalidFilterPrivateD1Ev 0x0001ffcc   Section       24  QtOrganizer.in(i._ZN10QtMobility34QOrganizerItemInvalidFilterPrivateD1Ev)
    i._ZN10QtMobility34QOrganizerItemInvalidFilterPrivateD1Ev.clean 0x0001ffe4   Section       10  QtOrganizer.in(i._ZN10QtMobility34QOrganizerItemInvalidFilterPrivateD1Ev.clean)
    i._ZN10QtMobility34QOrganizerItemRemoveRequestPrivateC1Ev 0x0001fff0   Section       92  QtOrganizer.in(i._ZN10QtMobility34QOrganizerItemRemoveRequestPrivateC1Ev)
    i._ZN10QtMobility34QOrganizerItemRemoveRequestPrivateC1Ev.clean 0x0002004c   Section       38  QtOrganizer.in(i._ZN10QtMobility34QOrganizerItemRemoveRequestPrivateC1Ev.clean)
    i._ZN10QtMobility34QOrganizerItemRemoveRequestPrivateD0Ev 0x00020072   Section       16  QtOrganizer.in(i._ZN10QtMobility34QOrganizerItemRemoveRequestPrivateD0Ev)
    i._ZN10QtMobility34QOrganizerItemRemoveRequestPrivateD1Ev 0x00020084   Section       40  QtOrganizer.in(i._ZN10QtMobility34QOrganizerItemRemoveRequestPrivateD1Ev)
    i._ZN10QtMobility34QOrganizerItemRemoveRequestPrivateD1Ev.clean 0x000200ac   Section       22  QtOrganizer.in(i._ZN10QtMobility34QOrganizerItemRemoveRequestPrivateD1Ev.clean)
    i._ZN10QtMobility35QOrganizerItemFetchForExportRequestD0Ev 0x000200c2   Section       16  QtOrganizer.in(i._ZN10QtMobility35QOrganizerItemFetchForExportRequestD0Ev)
    i._ZN10QtMobility35QOrganizerItemFetchForExportRequestD1Ev 0x000200d2   Section        8  QtOrganizer.in(i._ZN10QtMobility35QOrganizerItemFetchForExportRequestD1Ev)
    i._ZN10QtMobility35QOrganizerItemIdFetchRequestPrivateC1Ev 0x000200dc   Section      128  QtOrganizer.in(i._ZN10QtMobility35QOrganizerItemIdFetchRequestPrivateC1Ev)
    i._ZN10QtMobility35QOrganizerItemIdFetchRequestPrivateC1Ev.clean 0x0002015c   Section       74  QtOrganizer.in(i._ZN10QtMobility35QOrganizerItemIdFetchRequestPrivateC1Ev.clean)
    i._ZN10QtMobility35QOrganizerItemIdFetchRequestPrivateD0Ev 0x000201a6   Section       16  QtOrganizer.in(i._ZN10QtMobility35QOrganizerItemIdFetchRequestPrivateD0Ev)
    i._ZN10QtMobility35QOrganizerItemIdFetchRequestPrivateD1Ev 0x000201b8   Section       76  QtOrganizer.in(i._ZN10QtMobility35QOrganizerItemIdFetchRequestPrivateD1Ev)
    i._ZN10QtMobility35QOrganizerItemIdFetchRequestPrivateD1Ev.clean 0x00020204   Section       58  QtOrganizer.in(i._ZN10QtMobility35QOrganizerItemIdFetchRequestPrivateD1Ev.clean)
    i._ZN10QtMobility36QOrganizerItemChangeLogFilterPrivate14copyIfPossibleER18QSharedDataPointerINS_27QOrganizerItemFilterPrivateEERKNS_20QOrganizerItemFilterE 0x0002023e   Section      142  QtOrganizer.in(i._ZN10QtMobility36QOrganizerItemChangeLogFilterPrivate14copyIfPossibleER18QSharedDataPointerINS_27QOrganizerItemFilterPrivateEERKNS_20QOrganizerItemFilterE)
    i._ZN10QtMobility36QOrganizerItemChangeLogFilterPrivate14copyIfPossibleER18QSharedDataPointerINS_27QOrganizerItemFilterPrivateEERKNS_20QOrganizerItemFilterE.clean 0x000202cc   Section       14  QtOrganizer.in(i._ZN10QtMobility36QOrganizerItemChangeLogFilterPrivate14copyIfPossibleER18QSharedDataPointerINS_27QOrganizerItemFilterPrivateEERKNS_20QOrganizerItemFilterE.clean)
    i._ZN10QtMobility36QOrganizerItemChangeLogFilterPrivate15inputFromStreamER11QDataStreamh 0x000202da   Section       34  QtOrganizer.in(i._ZN10QtMobility36QOrganizerItemChangeLogFilterPrivate15inputFromStreamER11QDataStreamh)
    i._ZN10QtMobility36QOrganizerItemChangeLogFilterPrivateC1ENS_29QOrganizerItemChangeLogFilter9EventTypeE 0x000202fc   Section       32  QtOrganizer.in(i._ZN10QtMobility36QOrganizerItemChangeLogFilterPrivateC1ENS_29QOrganizerItemChangeLogFilter9EventTypeE)
    i._ZN10QtMobility36QOrganizerItemChangeLogFilterPrivateC1ENS_29QOrganizerItemChangeLogFilter9EventTypeE.clean 0x0002031c   Section       10  QtOrganizer.in(i._ZN10QtMobility36QOrganizerItemChangeLogFilterPrivateC1ENS_29QOrganizerItemChangeLogFilter9EventTypeE.clean)
    i._ZN10QtMobility36QOrganizerItemChangeLogFilterPrivateD0Ev 0x00020326   Section       16  QtOrganizer.in(i._ZN10QtMobility36QOrganizerItemChangeLogFilterPrivateD0Ev)
    i._ZN10QtMobility36QOrganizerItemChangeLogFilterPrivateD1Ev 0x00020338   Section       24  QtOrganizer.in(i._ZN10QtMobility36QOrganizerItemChangeLogFilterPrivateD1Ev)
    i._ZN10QtMobility36QOrganizerItemChangeLogFilterPrivateD1Ev.clean 0x00020350   Section       10  QtOrganizer.in(i._ZN10QtMobility36QOrganizerItemChangeLogFilterPrivateD1Ev.clean)
    i._ZN10QtMobility36QOrganizerItemOccurrenceFetchRequestD0Ev 0x0002035a   Section       16  QtOrganizer.in(i._ZN10QtMobility36QOrganizerItemOccurrenceFetchRequestD0Ev)
    i._ZN10QtMobility36QOrganizerItemOccurrenceFetchRequestD1Ev 0x0002036a   Section        8  QtOrganizer.in(i._ZN10QtMobility36QOrganizerItemOccurrenceFetchRequestD1Ev)
    i._ZN10QtMobility37QOrganizerItemCollectionFilterPrivate14copyIfPossibleER18QSharedDataPointerINS_27QOrganizerItemFilterPrivateEERKNS_20QOrganizerItemFilterE 0x00020372   Section      140  QtOrganizer.in(i._ZN10QtMobility37QOrganizerItemCollectionFilterPrivate14copyIfPossibleER18QSharedDataPointerINS_27QOrganizerItemFilterPrivateEERKNS_20QOrganizerItemFilterE)
    i._ZN10QtMobility37QOrganizerItemCollectionFilterPrivate14copyIfPossibleER18QSharedDataPointerINS_27QOrganizerItemFilterPrivateEERKNS_20QOrganizerItemFilterE.clean 0x000203fe   Section       14  QtOrganizer.in(i._ZN10QtMobility37QOrganizerItemCollectionFilterPrivate14copyIfPossibleER18QSharedDataPointerINS_27QOrganizerItemFilterPrivateEERKNS_20QOrganizerItemFilterE.clean)
    i._ZN10QtMobility37QOrganizerItemCollectionFilterPrivate15inputFromStreamER11QDataStreamh 0x0002040c   Section       22  QtOrganizer.in(i._ZN10QtMobility37QOrganizerItemCollectionFilterPrivate15inputFromStreamER11QDataStreamh)
    i._ZN10QtMobility37QOrganizerItemCollectionFilterPrivateC1Ev 0x00020424   Section       28  QtOrganizer.in(i._ZN10QtMobility37QOrganizerItemCollectionFilterPrivateC1Ev)
    i._ZN10QtMobility37QOrganizerItemCollectionFilterPrivateC1Ev.clean 0x00020440   Section       10  QtOrganizer.in(i._ZN10QtMobility37QOrganizerItemCollectionFilterPrivateC1Ev.clean)
    i._ZN10QtMobility37QOrganizerItemCollectionFilterPrivateD0Ev 0x0002044a   Section       16  QtOrganizer.in(i._ZN10QtMobility37QOrganizerItemCollectionFilterPrivateD0Ev)
    i._ZN10QtMobility37QOrganizerItemCollectionFilterPrivateD1Ev 0x0002045c   Section       24  QtOrganizer.in(i._ZN10QtMobility37QOrganizerItemCollectionFilterPrivateD1Ev)
    i._ZN10QtMobility37QOrganizerItemCollectionFilterPrivateD1Ev.clean 0x00020474   Section       10  QtOrganizer.in(i._ZN10QtMobility37QOrganizerItemCollectionFilterPrivateD1Ev.clean)
    i._ZN10QtMobility38QOrganizerCollectionSaveRequestPrivateC1Ev 0x00020480   Section       92  QtOrganizer.in(i._ZN10QtMobility38QOrganizerCollectionSaveRequestPrivateC1Ev)
    i._ZN10QtMobility38QOrganizerCollectionSaveRequestPrivateC1Ev.clean 0x000204dc   Section       38  QtOrganizer.in(i._ZN10QtMobility38QOrganizerCollectionSaveRequestPrivateC1Ev.clean)
    i._ZN10QtMobility38QOrganizerCollectionSaveRequestPrivateD0Ev 0x00020502   Section       16  QtOrganizer.in(i._ZN10QtMobility38QOrganizerCollectionSaveRequestPrivateD0Ev)
    i._ZN10QtMobility38QOrganizerCollectionSaveRequestPrivateD1Ev 0x00020514   Section       40  QtOrganizer.in(i._ZN10QtMobility38QOrganizerCollectionSaveRequestPrivateD1Ev)
    i._ZN10QtMobility38QOrganizerCollectionSaveRequestPrivateD1Ev.clean 0x0002053c   Section       22  QtOrganizer.in(i._ZN10QtMobility38QOrganizerCollectionSaveRequestPrivateD1Ev.clean)
    i._ZN10QtMobility38QOrganizerItemDetailRangeFilterPrivate14copyIfPossibleER18QSharedDataPointerINS_27QOrganizerItemFilterPrivateEERKNS_20QOrganizerItemFilterE 0x00020552   Section      140  QtOrganizer.in(i._ZN10QtMobility38QOrganizerItemDetailRangeFilterPrivate14copyIfPossibleER18QSharedDataPointerINS_27QOrganizerItemFilterPrivateEERKNS_20QOrganizerItemFilterE)
    i._ZN10QtMobility38QOrganizerItemDetailRangeFilterPrivate14copyIfPossibleER18QSharedDataPointerINS_27QOrganizerItemFilterPrivateEERKNS_20QOrganizerItemFilterE.clean 0x000205de   Section       14  QtOrganizer.in(i._ZN10QtMobility38QOrganizerItemDetailRangeFilterPrivate14copyIfPossibleER18QSharedDataPointerINS_27QOrganizerItemFilterPrivateEERKNS_20QOrganizerItemFilterE.clean)
    i._ZN10QtMobility38QOrganizerItemDetailRangeFilterPrivate15inputFromStreamER11QDataStreamh 0x000205ec   Section       74  QtOrganizer.in(i._ZN10QtMobility38QOrganizerItemDetailRangeFilterPrivate15inputFromStreamER11QDataStreamh)
    i._ZN10QtMobility38QOrganizerItemDetailRangeFilterPrivateC1ERKS0_ 0x00020638   Section       92  QtOrganizer.in(i._ZN10QtMobility38QOrganizerItemDetailRangeFilterPrivateC1ERKS0_)
    i._ZN10QtMobility38QOrganizerItemDetailRangeFilterPrivateC1ERKS0_.clean 0x00020694   Section       46  QtOrganizer.in(i._ZN10QtMobility38QOrganizerItemDetailRangeFilterPrivateC1ERKS0_.clean)
    i._ZN10QtMobility38QOrganizerItemDetailRangeFilterPrivateC1Ev 0x000206c4   Section       68  QtOrganizer.in(i._ZN10QtMobility38QOrganizerItemDetailRangeFilterPrivateC1Ev)
    i._ZN10QtMobility38QOrganizerItemDetailRangeFilterPrivateC1Ev.clean 0x00020708   Section       46  QtOrganizer.in(i._ZN10QtMobility38QOrganizerItemDetailRangeFilterPrivateC1Ev.clean)
    i._ZN10QtMobility38QOrganizerItemDetailRangeFilterPrivateD0Ev 0x00020736   Section       16  QtOrganizer.in(i._ZN10QtMobility38QOrganizerItemDetailRangeFilterPrivateD0Ev)
    i._ZN10QtMobility38QOrganizerItemDetailRangeFilterPrivateD1Ev 0x00020748   Section       60  QtOrganizer.in(i._ZN10QtMobility38QOrganizerItemDetailRangeFilterPrivateD1Ev)
    i._ZN10QtMobility38QOrganizerItemDetailRangeFilterPrivateD1Ev.clean 0x00020784   Section       46  QtOrganizer.in(i._ZN10QtMobility38QOrganizerItemDetailRangeFilterPrivateD1Ev.clean)
    i._ZN10QtMobility39QOrganizerCollectionFetchRequestPrivateC1Ev 0x000207b4   Section       72  QtOrganizer.in(i._ZN10QtMobility39QOrganizerCollectionFetchRequestPrivateC1Ev)
    i._ZN10QtMobility39QOrganizerCollectionFetchRequestPrivateC1Ev.clean 0x000207fc   Section       26  QtOrganizer.in(i._ZN10QtMobility39QOrganizerCollectionFetchRequestPrivateC1Ev.clean)
    i._ZN10QtMobility39QOrganizerCollectionFetchRequestPrivateD0Ev 0x00020816   Section       16  QtOrganizer.in(i._ZN10QtMobility39QOrganizerCollectionFetchRequestPrivateD0Ev)
    i._ZN10QtMobility39QOrganizerCollectionFetchRequestPrivateD1Ev 0x00020828   Section       28  QtOrganizer.in(i._ZN10QtMobility39QOrganizerCollectionFetchRequestPrivateD1Ev)
    i._ZN10QtMobility39QOrganizerCollectionFetchRequestPrivateD1Ev.clean 0x00020844   Section       10  QtOrganizer.in(i._ZN10QtMobility39QOrganizerCollectionFetchRequestPrivateD1Ev.clean)
    i._ZN10QtMobility39QOrganizerItemIntersectionFilterPrivate14copyIfPossibleER18QSharedDataPointerINS_27QOrganizerItemFilterPrivateEERKNS_20QOrganizerItemFilterE 0x0002084e   Section      140  QtOrganizer.in(i._ZN10QtMobility39QOrganizerItemIntersectionFilterPrivate14copyIfPossibleER18QSharedDataPointerINS_27QOrganizerItemFilterPrivateEERKNS_20QOrganizerItemFilterE)
    i._ZN10QtMobility39QOrganizerItemIntersectionFilterPrivate14copyIfPossibleER18QSharedDataPointerINS_27QOrganizerItemFilterPrivateEERKNS_20QOrganizerItemFilterE.clean 0x000208da   Section       14  QtOrganizer.in(i._ZN10QtMobility39QOrganizerItemIntersectionFilterPrivate14copyIfPossibleER18QSharedDataPointerINS_27QOrganizerItemFilterPrivateEERKNS_20QOrganizerItemFilterE.clean)
    i._ZN10QtMobility39QOrganizerItemIntersectionFilterPrivate15inputFromStreamER11QDataStreamh 0x000208e8   Section       22  QtOrganizer.in(i._ZN10QtMobility39QOrganizerItemIntersectionFilterPrivate15inputFromStreamER11QDataStreamh)
    i._ZN10QtMobility39QOrganizerItemIntersectionFilterPrivateC1Ev 0x00020900   Section       28  QtOrganizer.in(i._ZN10QtMobility39QOrganizerItemIntersectionFilterPrivateC1Ev)
    i._ZN10QtMobility39QOrganizerItemIntersectionFilterPrivateC1Ev.clean 0x0002091c   Section       10  QtOrganizer.in(i._ZN10QtMobility39QOrganizerItemIntersectionFilterPrivateC1Ev.clean)
    i._ZN10QtMobility39QOrganizerItemIntersectionFilterPrivateD0Ev 0x00020926   Section       16  QtOrganizer.in(i._ZN10QtMobility39QOrganizerItemIntersectionFilterPrivateD0Ev)
    i._ZN10QtMobility39QOrganizerItemIntersectionFilterPrivateD1Ev 0x00020938   Section       24  QtOrganizer.in(i._ZN10QtMobility39QOrganizerItemIntersectionFilterPrivateD1Ev)
    i._ZN10QtMobility39QOrganizerItemIntersectionFilterPrivateD1Ev.clean 0x00020950   Section       10  QtOrganizer.in(i._ZN10QtMobility39QOrganizerItemIntersectionFilterPrivateD1Ev.clean)
    i._ZN10QtMobility39qClearAllocatedStringHash__dest_class__D1Ev 0x0002095a   Section       12  QtOrganizer.in(i._ZN10QtMobility39qClearAllocatedStringHash__dest_class__D1Ev)
    i._ZN10QtMobility40QOrganizerCollectionRemoveRequestPrivateC1Ev 0x00020968   Section       92  QtOrganizer.in(i._ZN10QtMobility40QOrganizerCollectionRemoveRequestPrivateC1Ev)
    i._ZN10QtMobility40QOrganizerCollectionRemoveRequestPrivateC1Ev.clean 0x000209c4   Section       38  QtOrganizer.in(i._ZN10QtMobility40QOrganizerCollectionRemoveRequestPrivateC1Ev.clean)
    i._ZN10QtMobility40QOrganizerCollectionRemoveRequestPrivateD0Ev 0x000209ea   Section       16  QtOrganizer.in(i._ZN10QtMobility40QOrganizerCollectionRemoveRequestPrivateD0Ev)
    i._ZN10QtMobility40QOrganizerCollectionRemoveRequestPrivateD1Ev 0x000209fc   Section       40  QtOrganizer.in(i._ZN10QtMobility40QOrganizerCollectionRemoveRequestPrivateD1Ev)
    i._ZN10QtMobility40QOrganizerCollectionRemoveRequestPrivateD1Ev.clean 0x00020a24   Section       22  QtOrganizer.in(i._ZN10QtMobility40QOrganizerCollectionRemoveRequestPrivateD1Ev.clean)
    i._ZN10QtMobility41QOrganizerItemDetailDefinitionSaveRequestD0Ev 0x00020a3a   Section       16  QtOrganizer.in(i._ZN10QtMobility41QOrganizerItemDetailDefinitionSaveRequestD0Ev)
    i._ZN10QtMobility41QOrganizerItemDetailDefinitionSaveRequestD1Ev 0x00020a4a   Section        8  QtOrganizer.in(i._ZN10QtMobility41QOrganizerItemDetailDefinitionSaveRequestD1Ev)
    i._ZN10QtMobility42QOrganizerItemDetailDefinitionFetchRequestD0Ev 0x00020a52   Section       16  QtOrganizer.in(i._ZN10QtMobility42QOrganizerItemDetailDefinitionFetchRequestD0Ev)
    i._ZN10QtMobility42QOrganizerItemDetailDefinitionFetchRequestD1Ev 0x00020a62   Section        8  QtOrganizer.in(i._ZN10QtMobility42QOrganizerItemDetailDefinitionFetchRequestD1Ev)
    i._ZN10QtMobility42QOrganizerItemDetailFieldDefinitionPrivateD1Ev 0x00020a6a   Section       12  QtOrganizer.in(i._ZN10QtMobility42QOrganizerItemDetailFieldDefinitionPrivateD1Ev)
    i._ZN10QtMobility42QOrganizerItemFetchForExportRequestPrivateC1Ev 0x00020a78   Section      140  QtOrganizer.in(i._ZN10QtMobility42QOrganizerItemFetchForExportRequestPrivateC1Ev)
    i._ZN10QtMobility42QOrganizerItemFetchForExportRequestPrivateC1Ev.clean 0x00020b04   Section       86  QtOrganizer.in(i._ZN10QtMobility42QOrganizerItemFetchForExportRequestPrivateC1Ev.clean)
    i._ZN10QtMobility42QOrganizerItemFetchForExportRequestPrivateD0Ev 0x00020b5a   Section       16  QtOrganizer.in(i._ZN10QtMobility42QOrganizerItemFetchForExportRequestPrivateD0Ev)
    i._ZN10QtMobility42QOrganizerItemFetchForExportRequestPrivateD1Ev 0x00020b6c   Section       88  QtOrganizer.in(i._ZN10QtMobility42QOrganizerItemFetchForExportRequestPrivateD1Ev)
    i._ZN10QtMobility42QOrganizerItemFetchForExportRequestPrivateD1Ev.clean 0x00020bc4   Section       70  QtOrganizer.in(i._ZN10QtMobility42QOrganizerItemFetchForExportRequestPrivateD1Ev.clean)
    i._ZN10QtMobility43QOrganizerItemDetailDefinitionRemoveRequestD0Ev 0x00020c0a   Section       16  QtOrganizer.in(i._ZN10QtMobility43QOrganizerItemDetailDefinitionRemoveRequestD0Ev)
    i._ZN10QtMobility43QOrganizerItemDetailDefinitionRemoveRequestD1Ev 0x00020c1a   Section        8  QtOrganizer.in(i._ZN10QtMobility43QOrganizerItemDetailDefinitionRemoveRequestD1Ev)
    i._ZN10QtMobility43QOrganizerItemOccurrenceFetchRequestPrivateC1Ev 0x00020c24   Section      128  QtOrganizer.in(i._ZN10QtMobility43QOrganizerItemOccurrenceFetchRequestPrivateC1Ev)
    i._ZN10QtMobility43QOrganizerItemOccurrenceFetchRequestPrivateC1Ev.clean 0x00020ca4   Section       74  QtOrganizer.in(i._ZN10QtMobility43QOrganizerItemOccurrenceFetchRequestPrivateC1Ev.clean)
    i._ZN10QtMobility43QOrganizerItemOccurrenceFetchRequestPrivateD0Ev 0x00020cee   Section       16  QtOrganizer.in(i._ZN10QtMobility43QOrganizerItemOccurrenceFetchRequestPrivateD0Ev)
    i._ZN10QtMobility43QOrganizerItemOccurrenceFetchRequestPrivateD1Ev 0x00020d00   Section       76  QtOrganizer.in(i._ZN10QtMobility43QOrganizerItemOccurrenceFetchRequestPrivateD1Ev)
    i._ZN10QtMobility43QOrganizerItemOccurrenceFetchRequestPrivateD1Ev.clean 0x00020d4c   Section       58  QtOrganizer.in(i._ZN10QtMobility43QOrganizerItemOccurrenceFetchRequestPrivateD1Ev.clean)
    i._ZN10QtMobility48QOrganizerItemDetailDefinitionSaveRequestPrivateC1Ev 0x00020d88   Section      140  QtOrganizer.in(i._ZN10QtMobility48QOrganizerItemDetailDefinitionSaveRequestPrivateC1Ev)
    i._ZN10QtMobility48QOrganizerItemDetailDefinitionSaveRequestPrivateC1Ev.clean 0x00020e14   Section       70  QtOrganizer.in(i._ZN10QtMobility48QOrganizerItemDetailDefinitionSaveRequestPrivateC1Ev.clean)
    i._ZN10QtMobility48QOrganizerItemDetailDefinitionSaveRequestPrivateD0Ev 0x00020e5a   Section       16  QtOrganizer.in(i._ZN10QtMobility48QOrganizerItemDetailDefinitionSaveRequestPrivateD0Ev)
    i._ZN10QtMobility48QOrganizerItemDetailDefinitionSaveRequestPrivateD1Ev 0x00020e6c   Section       64  QtOrganizer.in(i._ZN10QtMobility48QOrganizerItemDetailDefinitionSaveRequestPrivateD1Ev)
    i._ZN10QtMobility48QOrganizerItemDetailDefinitionSaveRequestPrivateD1Ev.clean 0x00020eac   Section       46  QtOrganizer.in(i._ZN10QtMobility48QOrganizerItemDetailDefinitionSaveRequestPrivateD1Ev.clean)
    i._ZN10QtMobility49QOrganizerItemDetailDefinitionFetchRequestPrivateC1Ev 0x00020edc   Section      152  QtOrganizer.in(i._ZN10QtMobility49QOrganizerItemDetailDefinitionFetchRequestPrivateC1Ev)
    i._ZN10QtMobility49QOrganizerItemDetailDefinitionFetchRequestPrivateC1Ev.clean 0x00020f74   Section       82  QtOrganizer.in(i._ZN10QtMobility49QOrganizerItemDetailDefinitionFetchRequestPrivateC1Ev.clean)
    i._ZN10QtMobility49QOrganizerItemDetailDefinitionFetchRequestPrivateD0Ev 0x00020fc6   Section       16  QtOrganizer.in(i._ZN10QtMobility49QOrganizerItemDetailDefinitionFetchRequestPrivateD0Ev)
    i._ZN10QtMobility49QOrganizerItemDetailDefinitionFetchRequestPrivateD1Ev 0x00020fd8   Section       76  QtOrganizer.in(i._ZN10QtMobility49QOrganizerItemDetailDefinitionFetchRequestPrivateD1Ev)
    i._ZN10QtMobility49QOrganizerItemDetailDefinitionFetchRequestPrivateD1Ev.clean 0x00021024   Section       58  QtOrganizer.in(i._ZN10QtMobility49QOrganizerItemDetailDefinitionFetchRequestPrivateD1Ev.clean)
    i._ZN10QtMobility50QOrganizerItemDetailDefinitionRemoveRequestPrivateC1Ev 0x00021060   Section      140  QtOrganizer.in(i._ZN10QtMobility50QOrganizerItemDetailDefinitionRemoveRequestPrivateC1Ev)
    i._ZN10QtMobility50QOrganizerItemDetailDefinitionRemoveRequestPrivateC1Ev.clean 0x000210ec   Section       70  QtOrganizer.in(i._ZN10QtMobility50QOrganizerItemDetailDefinitionRemoveRequestPrivateC1Ev.clean)
    i._ZN10QtMobility50QOrganizerItemDetailDefinitionRemoveRequestPrivateD0Ev 0x00021132   Section       16  QtOrganizer.in(i._ZN10QtMobility50QOrganizerItemDetailDefinitionRemoveRequestPrivateD0Ev)
    i._ZN10QtMobility50QOrganizerItemDetailDefinitionRemoveRequestPrivateD1Ev 0x00021144   Section       64  QtOrganizer.in(i._ZN10QtMobility50QOrganizerItemDetailDefinitionRemoveRequestPrivateD1Ev)
    i._ZN10QtMobility50QOrganizerItemDetailDefinitionRemoveRequestPrivateD1Ev.clean 0x00021184   Section       46  QtOrganizer.in(i._ZN10QtMobility50QOrganizerItemDetailDefinitionRemoveRequestPrivateD1Ev.clean)
    i._ZN11QDataStreamlsEj                   0x000211b2   Section        8  QtOrganizer.in(i._ZN11QDataStreamlsEj)
    i._ZN11QStringListC1ERKS_                0x000211ba   Section       30  QtOrganizer.in(i._ZN11QStringListC1ERKS_)
    i._ZN11QStringListC1Ev                   0x000211d8   Section        8  QtOrganizer.in(i._ZN11QStringListC1Ev)
    i._ZN11QStringListD1Ev                   0x000211e0   Section        8  QtOrganizer.in(i._ZN11QStringListD1Ev)
    i._ZN11QStringListaSERKS_                0x000211e8   Section       56  QtOrganizer.in(i._ZN11QStringListaSERKS_)
    i._ZN12QMapIteratorI7QString8QVariantED1Ev 0x00021220   Section        8  QtOrganizer.in(i._ZN12QMapIteratorI7QString8QVariantED1Ev)
    i._ZN12QMapIteratorI7QStringN10QtMobility35QOrganizerItemDetailFieldDefinitionEED1Ev 0x00021228   Section        8  QtOrganizer.in(i._ZN12QMapIteratorI7QStringN10QtMobility35QOrganizerItemDetailFieldDefinitionEED1Ev)
    i._ZN12QMutexLocker6unlockEv             0x00021230   Section       24  QtOrganizer.in(i._ZN12QMutexLocker6unlockEv)
    i._ZN12QMutexLockerC1EP6QMutex           0x00021248   Section       28  QtOrganizer.in(i._ZN12QMutexLockerC1EP6QMutex)
    i._ZN12QMutexLockerD1Ev                  0x00021264   Section       12  QtOrganizer.in(i._ZN12QMutexLockerD1Ev)
    i._ZN13QConcatenableI11QLatin1CharE8appendToES0_RP5QChar 0x00021270   Section       22  QtOrganizer.in(i._ZN13QConcatenableI11QLatin1CharE8appendToES0_RP5QChar)
    i._ZN13QConcatenableI7QStringE8appendToERKS0_RP5QChar 0x00021286   Section       28  QtOrganizer.in(i._ZN13QConcatenableI7QStringE8appendToERKS0_RP5QChar)
    i._ZN13QListIteratorI8QVariantED1Ev      0x000212a2   Section        8  QtOrganizer.in(i._ZN13QListIteratorI8QVariantED1Ev)
    i._ZN15QBasicAtomicInt3refEv             0x000212aa   Section       18  QtOrganizer.in(i._ZN15QBasicAtomicInt3refEv)
    i._ZN15QBasicAtomicInt5derefEv           0x000212bc   Section       18  QtOrganizer.in(i._ZN15QBasicAtomicInt5derefEv)
    i._ZN17QForeachContainerI4QSetI5QDateEED1Ev 0x000212ce   Section        8  QtOrganizer.in(i._ZN17QForeachContainerI4QSetI5QDateEED1Ev)
    i._ZN17QForeachContainerI4QSetIN10QtMobility24QOrganizerRecurrenceRule5MonthEEED1Ev 0x000212d6   Section        8  QtOrganizer.in(i._ZN17QForeachContainerI4QSetIN10QtMobility24QOrganizerRecurrenceRule5MonthEEED1Ev)
    i._ZN17QForeachContainerI4QSetIN10QtMobility24QOrganizerRecurrenceRuleEEED1Ev 0x000212de   Section        8  QtOrganizer.in(i._ZN17QForeachContainerI4QSetIN10QtMobility24QOrganizerRecurrenceRuleEEED1Ev)
    i._ZN17QForeachContainerI4QSetIN2Qt9DayOfWeekEEED1Ev 0x000212e6   Section        8  QtOrganizer.in(i._ZN17QForeachContainerI4QSetIN2Qt9DayOfWeekEEED1Ev)
    i._ZN17QForeachContainerI4QSetIiEED1Ev   0x000212ee   Section        8  QtOrganizer.in(i._ZN17QForeachContainerI4QSetIiEED1Ev)
    i._ZN17QForeachContainerI5QHashIN10QtMobility16QOrganizerItemIdENS1_14QOrganizerItemEEED1Ev 0x000212f6   Section        8  QtOrganizer.in(i._ZN17QForeachContainerI5QHashIN10QtMobility16QOrganizerItemIdENS1_14QOrganizerItemEEED1Ev)
    i._ZN17QForeachContainerI5QListI5QDateEED1Ev 0x000212fe   Section        8  QtOrganizer.in(i._ZN17QForeachContainerI5QListI5QDateEED1Ev)
    i._ZN17QForeachContainerI5QListI9QDateTimeEED1Ev 0x00021306   Section        8  QtOrganizer.in(i._ZN17QForeachContainerI5QListI9QDateTimeEED1Ev)
    i._ZN17QForeachContainerI5QListIN10QtMobility14QOrganizerItemEEED1Ev 0x0002130e   Section        8  QtOrganizer.in(i._ZN17QForeachContainerI5QListIN10QtMobility14QOrganizerItemEEED1Ev)
    i._ZN17QForeachContainerI5QListIN10QtMobility16QOrganizerItemIdEEED1Ev 0x00021316   Section        8  QtOrganizer.in(i._ZN17QForeachContainerI5QListIN10QtMobility16QOrganizerItemIdEEED1Ev)
    i._ZN17QForeachContainerI5QListIN10QtMobility20QOrganizerItemDetailEEED1Ev 0x0002131e   Section        8  QtOrganizer.in(i._ZN17QForeachContainerI5QListIN10QtMobility20QOrganizerItemDetailEEED1Ev)
    i._ZN17QForeachContainerI5QListIN10QtMobility21QOrganizerItemCommentEEED1Ev 0x00021326   Section        8  QtOrganizer.in(i._ZN17QForeachContainerI5QListIN10QtMobility21QOrganizerItemCommentEEED1Ev)
    i._ZN17QForeachContainerI5QListIN10QtMobility22QOrganizerCollectionIdEEED1Ev 0x0002132e   Section        8  QtOrganizer.in(i._ZN17QForeachContainerI5QListIN10QtMobility22QOrganizerCollectionIdEEED1Ev)
    i._ZN17QForeachContainerI5QListIPN10QtMobility23QOrganizerManagerEngineEEED1Ev 0x00021336   Section        8  QtOrganizer.in(i._ZN17QForeachContainerI5QListIPN10QtMobility23QOrganizerManagerEngineEEED1Ev)
    i._ZN17QForeachContainerI5QListIPN10QtMobility30QOrganizerManagerEngineFactoryEEED1Ev 0x0002133e   Section        8  QtOrganizer.in(i._ZN17QForeachContainerI5QListIPN10QtMobility30QOrganizerManagerEngineFactoryEEED1Ev)
    i._ZN17QForeachContainerI5QListIiEED1Ev  0x00021346   Section        8  QtOrganizer.in(i._ZN17QForeachContainerI5QListIiEED1Ev)
    i._ZN4QSetI5QDateED1Ev                   0x0002134e   Section        8  QtOrganizer.in(i._ZN4QSetI5QDateED1Ev)
    i._ZN4QSetI7QStringED1Ev                 0x00021356   Section        8  QtOrganizer.in(i._ZN4QSetI7QStringED1Ev)
    i._ZN4QSetIN10QtMobility16QOrganizerItemIdEED1Ev 0x0002135e   Section        8  QtOrganizer.in(i._ZN4QSetIN10QtMobility16QOrganizerItemIdEED1Ev)
    i._ZN4QSetIN10QtMobility22QOrganizerCollectionIdEED1Ev 0x00021366   Section        8  QtOrganizer.in(i._ZN4QSetIN10QtMobility22QOrganizerCollectionIdEED1Ev)
    i._ZN4QSetIN10QtMobility24QOrganizerRecurrenceRule5MonthEED1Ev 0x0002136e   Section        8  QtOrganizer.in(i._ZN4QSetIN10QtMobility24QOrganizerRecurrenceRule5MonthEED1Ev)
    i._ZN4QSetIN10QtMobility24QOrganizerRecurrenceRuleEED1Ev 0x00021376   Section        8  QtOrganizer.in(i._ZN4QSetIN10QtMobility24QOrganizerRecurrenceRuleEED1Ev)
    i._ZN4QSetIN2Qt9DayOfWeekEED1Ev          0x0002137e   Section        8  QtOrganizer.in(i._ZN4QSetIN2Qt9DayOfWeekEED1Ev)
    i._ZN4QSetIiED1Ev                        0x00021386   Section        8  QtOrganizer.in(i._ZN4QSetIiED1Ev)
    i._ZN6QDebug10maybeSpaceEv               0x0002138e   Section       22  QtOrganizer.in(i._ZN6QDebug10maybeSpaceEv)
    i._ZN6QDebugC1ERKS_                      0x000213a4   Section       12  QtOrganizer.in(i._ZN6QDebugC1ERKS_)
    i._ZN6QDebugD1Ev                         0x000213b0   Section      122  QtOrganizer.in(i._ZN6QDebugD1Ev)
    i._ZN6QDebugD1Ev.clean                   0x0002142a   Section       20  QtOrganizer.in(i._ZN6QDebugD1Ev.clean)
    i._ZN6QDebuglsEPKc                       0x0002143e   Section       36  QtOrganizer.in(i._ZN6QDebuglsEPKc)
    i._ZN6QDebuglsEPKc.clean                 0x00021462   Section       10  QtOrganizer.in(i._ZN6QDebuglsEPKc.clean)
    i._ZN6QDebuglsERK7QString                0x0002146c   Section       34  QtOrganizer.in(i._ZN6QDebuglsERK7QString)
    i._ZN6QDebuglsEc                         0x0002148e   Section       18  QtOrganizer.in(i._ZN6QDebuglsEc)
    i._ZN6QDebuglsEj                         0x000214a0   Section       18  QtOrganizer.in(i._ZN6QDebuglsEj)
    i._ZN7QString4dataEv                     0x000214b2   Section       38  QtOrganizer.in(i._ZN7QString4dataEv)
    i._ZN7QString5clearEv                    0x000214d8   Section       40  QtOrganizer.in(i._ZN7QString5clearEv)
    i._ZN7QString5clearEv.clean              0x00021500   Section       10  QtOrganizer.in(i._ZN7QString5clearEv.clean)
    i._ZN7QString7compareERKS_RK10QStringRefN2Qt15CaseSensitivityE 0x0002150c   Section       48  QtOrganizer.in(i._ZN7QString7compareERKS_RK10QStringRefN2Qt15CaseSensitivityE)
    i._ZN7QStringC1ERK13QLatin1String        0x0002153c   Section       20  QtOrganizer.in(i._ZN7QStringC1ERK13QLatin1String)
    i._ZN7QStringC1ERKS_                     0x00021550   Section       16  QtOrganizer.in(i._ZN7QStringC1ERKS_)
    i._ZN7QStringC1Ev                        0x00021560   Section       20  QtOrganizer.in(i._ZN7QStringC1Ev)
    i._ZN7QStringD1Ev                        0x00021574   Section       24  QtOrganizer.in(i._ZN7QStringD1Ev)
    i._ZN8QVariantC1Ev                       0x0002158c   Section       24  QtOrganizer.in(i._ZN8QVariantC1Ev)
    i._ZN9QHashData8willGrowEv               0x000215a4   Section       28  QtOrganizer.in(i._ZN9QHashData8willGrowEv)
    i._ZN9QHashData9firstNodeEv              0x000215c0   Section       24  QtOrganizer.in(i._ZN9QHashData9firstNodeEv)
    i._ZN9QHashData9hasShrunkEv              0x000215d8   Section       60  QtOrganizer.in(i._ZN9QHashData9hasShrunkEv)
    i._ZN9QMultiMapIN10QtMobility22QOrganizerCollectionIdENS0_16QOrganizerItemIdEED1Ev 0x00021614   Section        8  QtOrganizer.in(i._ZN9QMultiMapIN10QtMobility22QOrganizerCollectionIdENS0_16QOrganizerItemIdEED1Ev)
    i._ZNK10QtMobility18QOrganizerItemType4typeEv 0x0002161c   Section       16  QtOrganizer.in(i._ZNK10QtMobility18QOrganizerItemType4typeEv)
    i._ZNK10QtMobility20QOrganizerItemParent12originalDateEv 0x0002162c   Section       36  QtOrganizer.in(i._ZNK10QtMobility20QOrganizerItemParent12originalDateEv)
    i._ZNK10QtMobility20QOrganizerItemParent12originalDateEv.clean 0x00021650   Section       10  QtOrganizer.in(i._ZNK10QtMobility20QOrganizerItemParent12originalDateEv.clean)
    i._ZNK10QtMobility20QOrganizerItemParent8parentIdEv 0x0002165c   Section      112  QtOrganizer.in(i._ZNK10QtMobility20QOrganizerItemParent8parentIdEv)
    i._ZNK10QtMobility20QOrganizerItemParent8parentIdEv.clean 0x000216cc   Section       18  QtOrganizer.in(i._ZNK10QtMobility20QOrganizerItemParent8parentIdEv.clean)
    i._ZNK10QtMobility25QOrganizerItemDescription11descriptionEv 0x000216e0   Section       16  QtOrganizer.in(i._ZNK10QtMobility25QOrganizerItemDescription11descriptionEv)
    i._ZNK10QtMobility26QOrganizerItemDisplayLabel5labelEv 0x000216f0   Section       16  QtOrganizer.in(i._ZNK10QtMobility26QOrganizerItemDisplayLabel5labelEv)
    i._ZNK10QtMobility26QOrganizerItemMemoryEngine12validateItemERKNS_14QOrganizerItemEPNS_17QOrganizerManager5ErrorE 0x00021700   Section        8  QtOrganizer.in(i._ZNK10QtMobility26QOrganizerItemMemoryEngine12validateItemERKNS_14QOrganizerItemEPNS_17QOrganizerManager5ErrorE)
    i._ZNK10QtMobility26QOrganizerItemMemoryEngine14compatibleItemERKNS_14QOrganizerItemEPNS_17QOrganizerManager5ErrorE 0x00021708   Section        8  QtOrganizer.in(i._ZNK10QtMobility26QOrganizerItemMemoryEngine14compatibleItemERKNS_14QOrganizerItemEPNS_17QOrganizerManager5ErrorE)
    i._ZNK10QtMobility26QOrganizerItemMemoryEngine14managerVersionEv 0x00021710   Section        4  QtOrganizer.in(i._ZNK10QtMobility26QOrganizerItemMemoryEngine14managerVersionEv)
    i._ZNK10QtMobility26QOrganizerItemMemoryEngine16detailDefinitionERK7QStringS3_PNS_17QOrganizerManager5ErrorE 0x00021714   Section       16  QtOrganizer.in(i._ZNK10QtMobility26QOrganizerItemMemoryEngine16detailDefinitionERK7QStringS3_PNS_17QOrganizerManager5ErrorE)
    i._ZNK10QtMobility26QOrganizerItemMemoryEngine18supportedItemTypesEv 0x00021724   Section        8  QtOrganizer.in(i._ZNK10QtMobility26QOrganizerItemMemoryEngine18supportedItemTypesEv)
    i._ZNK10QtMobility26QOrganizerItemMemoryEngine18validateCollectionERKNS_20QOrganizerCollectionEPNS_17QOrganizerManager5ErrorE 0x0002172c   Section        8  QtOrganizer.in(i._ZNK10QtMobility26QOrganizerItemMemoryEngine18validateCollectionERKNS_20QOrganizerCollectionEPNS_17QOrganizerManager5ErrorE)
    i._ZNK10QtMobility26QOrganizerItemMemoryEngine18validateDefinitionERKNS_30QOrganizerItemDetailDefinitionEPNS_17QOrganizerManager5ErrorE 0x00021734   Section        8  QtOrganizer.in(i._ZNK10QtMobility26QOrganizerItemMemoryEngine18validateDefinitionERKNS_30QOrganizerItemDetailDefinitionEPNS_17QOrganizerManager5ErrorE)
    i._ZNK10QtMobility26QOrganizerItemStringHolder9toQStringEv 0x0002173c   Section      100  QtOrganizer.in(i._ZNK10QtMobility26QOrganizerItemStringHolder9toQStringEv)
    i._ZNK10QtMobility26QOrganizerItemStringHolder9toQStringEv.clean 0x000217a0   Section       16  QtOrganizer.in(i._ZNK10QtMobility26QOrganizerItemStringHolder9toQStringEv.clean)
    i._ZNK10QtMobility26QOrganizerItemStringHoldereqEPKc 0x000217b0   Section       28  QtOrganizer.in(i._ZNK10QtMobility26QOrganizerItemStringHoldereqEPKc)
    i._ZNK10QtMobility26QOrganizerItemStringHoldereqERK7QString 0x000217cc   Section       52  QtOrganizer.in(i._ZNK10QtMobility26QOrganizerItemStringHoldereqERK7QString)
    i._ZNK10QtMobility26QOrganizerItemStringHoldereqERKS0_ 0x00021800   Section       28  QtOrganizer.in(i._ZNK10QtMobility26QOrganizerItemStringHoldereqERKS0_)
    i._ZNK10QtMobility27QOrganizerItemInvalidEngine14compatibleItemERKNS_14QOrganizerItemEPNS_17QOrganizerManager5ErrorE 0x0002181c   Section       12  QtOrganizer.in(i._ZNK10QtMobility27QOrganizerItemInvalidEngine14compatibleItemERKNS_14QOrganizerItemEPNS_17QOrganizerManager5ErrorE)
    i._ZNK10QtMobility27QOrganizerItemInvalidEngine14managerVersionEv 0x00021828   Section        4  QtOrganizer.in(i._ZNK10QtMobility27QOrganizerItemInvalidEngine14managerVersionEv)
    i._ZNK10QtMobility27QOrganizerItemInvalidEngine23synthesizedDisplayLabelERKNS_14QOrganizerItemEPNS_17QOrganizerManager5ErrorE 0x0002182c   Section       24  QtOrganizer.in(i._ZNK10QtMobility27QOrganizerItemInvalidEngine23synthesizedDisplayLabelERKNS_14QOrganizerItemEPNS_17QOrganizerManager5ErrorE)
    i._ZNK10QtMobility29QOrganizerItemIdFilterPrivate14outputToStreamER11QDataStreamh 0x00021844   Section       62  QtOrganizer.in(i._ZNK10QtMobility29QOrganizerItemIdFilterPrivate14outputToStreamER11QDataStreamh)
    i._ZNK10QtMobility29QOrganizerItemIdFilterPrivate4typeEv 0x00021882   Section        4  QtOrganizer.in(i._ZNK10QtMobility29QOrganizerItemIdFilterPrivate4typeEv)
    i._ZNK10QtMobility29QOrganizerItemIdFilterPrivate5cloneEv 0x00021888   Section       48  QtOrganizer.in(i._ZNK10QtMobility29QOrganizerItemIdFilterPrivate5cloneEv)
    i._ZNK10QtMobility29QOrganizerItemIdFilterPrivate5cloneEv.clean 0x000218b8   Section       18  QtOrganizer.in(i._ZNK10QtMobility29QOrganizerItemIdFilterPrivate5cloneEv.clean)
    i._ZNK10QtMobility29QOrganizerItemIdFilterPrivate7compareEPKNS_27QOrganizerItemFilterPrivateE 0x000218ca   Section      102  QtOrganizer.in(i._ZNK10QtMobility29QOrganizerItemIdFilterPrivate7compareEPKNS_27QOrganizerItemFilterPrivateE)
    i._ZNK10QtMobility32QOrganizerAbstractRequestPrivate4typeEv 0x00021930   Section        4  QtOrganizer.in(i._ZNK10QtMobility32QOrganizerAbstractRequestPrivate4typeEv)
    i._ZNK10QtMobility32QOrganizerItemSaveRequestPrivate4typeEv 0x00021934   Section        4  QtOrganizer.in(i._ZNK10QtMobility32QOrganizerItemSaveRequestPrivate4typeEv)
    i._ZNK10QtMobility32QOrganizerItemUnionFilterPrivate14outputToStreamER11QDataStreamh 0x00021938   Section       62  QtOrganizer.in(i._ZNK10QtMobility32QOrganizerItemUnionFilterPrivate14outputToStreamER11QDataStreamh)
    i._ZNK10QtMobility32QOrganizerItemUnionFilterPrivate4typeEv 0x00021976   Section        4  QtOrganizer.in(i._ZNK10QtMobility32QOrganizerItemUnionFilterPrivate4typeEv)
    i._ZNK10QtMobility32QOrganizerItemUnionFilterPrivate5cloneEv 0x0002197c   Section       48  QtOrganizer.in(i._ZNK10QtMobility32QOrganizerItemUnionFilterPrivate5cloneEv)
    i._ZNK10QtMobility32QOrganizerItemUnionFilterPrivate5cloneEv.clean 0x000219ac   Section       18  QtOrganizer.in(i._ZNK10QtMobility32QOrganizerItemUnionFilterPrivate5cloneEv.clean)
    i._ZNK10QtMobility32QOrganizerItemUnionFilterPrivate7compareEPKNS_27QOrganizerItemFilterPrivateE 0x000219be   Section      102  QtOrganizer.in(i._ZNK10QtMobility32QOrganizerItemUnionFilterPrivate7compareEPKNS_27QOrganizerItemFilterPrivateE)
    i._ZNK10QtMobility33QOrganizerItemDetailFilterPrivate14outputToStreamER11QDataStreamh 0x00021a24   Section       46  QtOrganizer.in(i._ZNK10QtMobility33QOrganizerItemDetailFilterPrivate14outputToStreamER11QDataStreamh)
    i._ZNK10QtMobility33QOrganizerItemDetailFilterPrivate4typeEv 0x00021a52   Section        4  QtOrganizer.in(i._ZNK10QtMobility33QOrganizerItemDetailFilterPrivate4typeEv)
    i._ZNK10QtMobility33QOrganizerItemDetailFilterPrivate5cloneEv 0x00021a58   Section       88  QtOrganizer.in(i._ZNK10QtMobility33QOrganizerItemDetailFilterPrivate5cloneEv)
    i._ZNK10QtMobility33QOrganizerItemDetailFilterPrivate5cloneEv.clean 0x00021ab0   Section       42  QtOrganizer.in(i._ZNK10QtMobility33QOrganizerItemDetailFilterPrivate5cloneEv.clean)
    i._ZNK10QtMobility33QOrganizerItemDetailFilterPrivate7compareEPKNS_27QOrganizerItemFilterPrivateE 0x00021ada   Section       68  QtOrganizer.in(i._ZNK10QtMobility33QOrganizerItemDetailFilterPrivate7compareEPKNS_27QOrganizerItemFilterPrivateE)
    i._ZNK10QtMobility33QOrganizerItemFetchRequestPrivate4typeEv 0x00021b1e   Section        4  QtOrganizer.in(i._ZNK10QtMobility33QOrganizerItemFetchRequestPrivate4typeEv)
    i._ZNK10QtMobility34QOrganizerItemInvalidFilterPrivate14outputToStreamER11QDataStreamh 0x00021b22   Section        6  QtOrganizer.in(i._ZNK10QtMobility34QOrganizerItemInvalidFilterPrivate14outputToStreamER11QDataStreamh)
    i._ZNK10QtMobility34QOrganizerItemInvalidFilterPrivate4typeEv 0x00021b28   Section        4  QtOrganizer.in(i._ZNK10QtMobility34QOrganizerItemInvalidFilterPrivate4typeEv)
    i._ZNK10QtMobility34QOrganizerItemInvalidFilterPrivate5cloneEv 0x00021b2c   Section       24  QtOrganizer.in(i._ZNK10QtMobility34QOrganizerItemInvalidFilterPrivate5cloneEv)
    i._ZNK10QtMobility34QOrganizerItemInvalidFilterPrivate5cloneEv.clean 0x00021b44   Section       10  QtOrganizer.in(i._ZNK10QtMobility34QOrganizerItemInvalidFilterPrivate5cloneEv.clean)
    i._ZNK10QtMobility34QOrganizerItemInvalidFilterPrivate7compareEPKNS_27QOrganizerItemFilterPrivateE 0x00021b4e   Section        4  QtOrganizer.in(i._ZNK10QtMobility34QOrganizerItemInvalidFilterPrivate7compareEPKNS_27QOrganizerItemFilterPrivateE)
    i._ZNK10QtMobility34QOrganizerItemRemoveRequestPrivate4typeEv 0x00021b52   Section        4  QtOrganizer.in(i._ZNK10QtMobility34QOrganizerItemRemoveRequestPrivate4typeEv)
    i._ZNK10QtMobility35QOrganizerItemIdFetchRequestPrivate4typeEv 0x00021b56   Section        4  QtOrganizer.in(i._ZNK10QtMobility35QOrganizerItemIdFetchRequestPrivate4typeEv)
    i._ZNK10QtMobility36QOrganizerItemChangeLogFilterPrivate14outputToStreamER11QDataStreamh 0x00021b5a   Section       30  QtOrganizer.in(i._ZNK10QtMobility36QOrganizerItemChangeLogFilterPrivate14outputToStreamER11QDataStreamh)
    i._ZNK10QtMobility36QOrganizerItemChangeLogFilterPrivate4typeEv 0x00021b78   Section        4  QtOrganizer.in(i._ZNK10QtMobility36QOrganizerItemChangeLogFilterPrivate4typeEv)
    i._ZNK10QtMobility36QOrganizerItemChangeLogFilterPrivate5cloneEv 0x00021b7c   Section       52  QtOrganizer.in(i._ZNK10QtMobility36QOrganizerItemChangeLogFilterPrivate5cloneEv)
    i._ZNK10QtMobility36QOrganizerItemChangeLogFilterPrivate5cloneEv.clean 0x00021bb0   Section       18  QtOrganizer.in(i._ZNK10QtMobility36QOrganizerItemChangeLogFilterPrivate5cloneEv.clean)
    i._ZNK10QtMobility36QOrganizerItemChangeLogFilterPrivate7compareEPKNS_27QOrganizerItemFilterPrivateE 0x00021bc2   Section       32  QtOrganizer.in(i._ZNK10QtMobility36QOrganizerItemChangeLogFilterPrivate7compareEPKNS_27QOrganizerItemFilterPrivateE)
    i._ZNK10QtMobility37QOrganizerItemCollectionFilterPrivate14outputToStreamER11QDataStreamh 0x00021be2   Section       62  QtOrganizer.in(i._ZNK10QtMobility37QOrganizerItemCollectionFilterPrivate14outputToStreamER11QDataStreamh)
    i._ZNK10QtMobility37QOrganizerItemCollectionFilterPrivate4typeEv 0x00021c20   Section        4  QtOrganizer.in(i._ZNK10QtMobility37QOrganizerItemCollectionFilterPrivate4typeEv)
    i._ZNK10QtMobility37QOrganizerItemCollectionFilterPrivate5cloneEv 0x00021c24   Section       48  QtOrganizer.in(i._ZNK10QtMobility37QOrganizerItemCollectionFilterPrivate5cloneEv)
    i._ZNK10QtMobility37QOrganizerItemCollectionFilterPrivate5cloneEv.clean 0x00021c54   Section       18  QtOrganizer.in(i._ZNK10QtMobility37QOrganizerItemCollectionFilterPrivate5cloneEv.clean)
    i._ZNK10QtMobility37QOrganizerItemCollectionFilterPrivate7compareEPKNS_27QOrganizerItemFilterPrivateE 0x00021c66   Section       24  QtOrganizer.in(i._ZNK10QtMobility37QOrganizerItemCollectionFilterPrivate7compareEPKNS_27QOrganizerItemFilterPrivateE)
    i._ZNK10QtMobility38QOrganizerCollectionSaveRequestPrivate4typeEv 0x00021c7e   Section        4  QtOrganizer.in(i._ZNK10QtMobility38QOrganizerCollectionSaveRequestPrivate4typeEv)
    i._ZNK10QtMobility38QOrganizerItemDetailRangeFilterPrivate14outputToStreamER11QDataStreamh 0x00021c82   Section       62  QtOrganizer.in(i._ZNK10QtMobility38QOrganizerItemDetailRangeFilterPrivate14outputToStreamER11QDataStreamh)
    i._ZNK10QtMobility38QOrganizerItemDetailRangeFilterPrivate4typeEv 0x00021cc0   Section        4  QtOrganizer.in(i._ZNK10QtMobility38QOrganizerItemDetailRangeFilterPrivate4typeEv)
    i._ZNK10QtMobility38QOrganizerItemDetailRangeFilterPrivate5cloneEv 0x00021cc4   Section       28  QtOrganizer.in(i._ZNK10QtMobility38QOrganizerItemDetailRangeFilterPrivate5cloneEv)
    i._ZNK10QtMobility38QOrganizerItemDetailRangeFilterPrivate5cloneEv.clean 0x00021ce0   Section       10  QtOrganizer.in(i._ZNK10QtMobility38QOrganizerItemDetailRangeFilterPrivate5cloneEv.clean)
    i._ZNK10QtMobility38QOrganizerItemDetailRangeFilterPrivate7compareEPKNS_27QOrganizerItemFilterPrivateE 0x00021cea   Section       90  QtOrganizer.in(i._ZNK10QtMobility38QOrganizerItemDetailRangeFilterPrivate7compareEPKNS_27QOrganizerItemFilterPrivateE)
    i._ZNK10QtMobility39QOrganizerCollectionFetchRequestPrivate4typeEv 0x00021d44   Section        4  QtOrganizer.in(i._ZNK10QtMobility39QOrganizerCollectionFetchRequestPrivate4typeEv)
    i._ZNK10QtMobility39QOrganizerItemIntersectionFilterPrivate14outputToStreamER11QDataStreamh 0x00021d48   Section       62  QtOrganizer.in(i._ZNK10QtMobility39QOrganizerItemIntersectionFilterPrivate14outputToStreamER11QDataStreamh)
    i._ZNK10QtMobility39QOrganizerItemIntersectionFilterPrivate4typeEv 0x00021d86   Section        4  QtOrganizer.in(i._ZNK10QtMobility39QOrganizerItemIntersectionFilterPrivate4typeEv)
    i._ZNK10QtMobility39QOrganizerItemIntersectionFilterPrivate5cloneEv 0x00021d8c   Section       48  QtOrganizer.in(i._ZNK10QtMobility39QOrganizerItemIntersectionFilterPrivate5cloneEv)
    i._ZNK10QtMobility39QOrganizerItemIntersectionFilterPrivate5cloneEv.clean 0x00021dbc   Section       18  QtOrganizer.in(i._ZNK10QtMobility39QOrganizerItemIntersectionFilterPrivate5cloneEv.clean)
    i._ZNK10QtMobility39QOrganizerItemIntersectionFilterPrivate7compareEPKNS_27QOrganizerItemFilterPrivateE 0x00021dce   Section      102  QtOrganizer.in(i._ZNK10QtMobility39QOrganizerItemIntersectionFilterPrivate7compareEPKNS_27QOrganizerItemFilterPrivateE)
    i._ZNK10QtMobility40QOrganizerCollectionRemoveRequestPrivate4typeEv 0x00021e34   Section        4  QtOrganizer.in(i._ZNK10QtMobility40QOrganizerCollectionRemoveRequestPrivate4typeEv)
    i._ZNK10QtMobility42QOrganizerItemFetchForExportRequestPrivate4typeEv 0x00021e38   Section        4  QtOrganizer.in(i._ZNK10QtMobility42QOrganizerItemFetchForExportRequestPrivate4typeEv)
    i._ZNK10QtMobility43QOrganizerItemOccurrenceFetchRequestPrivate4typeEv 0x00021e3c   Section        4  QtOrganizer.in(i._ZNK10QtMobility43QOrganizerItemOccurrenceFetchRequestPrivate4typeEv)
    i._ZNK10QtMobility48QOrganizerItemDetailDefinitionSaveRequestPrivate4typeEv 0x00021e40   Section        4  QtOrganizer.in(i._ZNK10QtMobility48QOrganizerItemDetailDefinitionSaveRequestPrivate4typeEv)
    i._ZNK10QtMobility49QOrganizerItemDetailDefinitionFetchRequestPrivate4typeEv 0x00021e44   Section        4  QtOrganizer.in(i._ZNK10QtMobility49QOrganizerItemDetailDefinitionFetchRequestPrivate4typeEv)
    i._ZNK10QtMobility50QOrganizerItemDetailDefinitionRemoveRequestPrivate4typeEv 0x00021e48   Section        4  QtOrganizer.in(i._ZNK10QtMobility50QOrganizerItemDetailDefinitionRemoveRequestPrivate4typeEv)
    i._ZNK11QStringList8containsERK7QStringN2Qt15CaseSensitivityE 0x00021e4c   Section        8  QtOrganizer.in(i._ZNK11QStringList8containsERK7QStringN2Qt15CaseSensitivityE)
    i._ZNK15QBasicAtomicInteqEi              0x00021e54   Section       14  QtOrganizer.in(i._ZNK15QBasicAtomicInteqEi)
    i._ZNK15QBasicAtomicIntneEi              0x00021e62   Section       14  QtOrganizer.in(i._ZNK15QBasicAtomicIntneEi)
    i._ZNK15QBasicAtomicIntntEv              0x00021e70   Section       14  QtOrganizer.in(i._ZNK15QBasicAtomicIntntEv)
    i._ZNK5QBoolcvPKvEv                      0x00021e7e   Section       14  QtOrganizer.in(i._ZNK5QBoolcvPKvEv)
    i._ZNK5QDateeqERKS_                      0x00021e8c   Section       16  QtOrganizer.in(i._ZNK5QDateeqERKS_)
    i._ZNK7QString7isEmptyEv                 0x00021e9c   Section       16  QtOrganizer.in(i._ZNK7QString7isEmptyEv)
    i._ZNK7QStringneERK13QLatin1String       0x00021eac   Section       12  QtOrganizer.in(i._ZNK7QStringneERK13QLatin1String)
    i._ZNK7QStringneERKS_                    0x00021eb8   Section       12  QtOrganizer.in(i._ZNK7QStringneERKS_)
    i._ZNK8QVariant7isValidEv                0x00021ec4   Section       14  QtOrganizer.in(i._ZNK8QVariant7isValidEv)
    i._ZNK8QVariantneERKS_                   0x00021ed2   Section       12  QtOrganizer.in(i._ZNK8QVariantneERKS_)
    i._ZNK9QDateTimegeERKS_                  0x00021ede   Section       12  QtOrganizer.in(i._ZNK9QDateTimegeERKS_)
    i._ZNK9QDateTimeleERKS_                  0x00021eea   Section       18  QtOrganizer.in(i._ZNK9QDateTimeleERKS_)
    i._ZNK9QListData2atEi                    0x00021efc   Section       16  QtOrganizer.in(i._ZNK9QListData2atEi)
    i._ZNK9QListData3endEv                   0x00021f0c   Section       12  QtOrganizer.in(i._ZNK9QListData3endEv)
    i._ZNK9QListData4sizeEv                  0x00021f18   Section       10  QtOrganizer.in(i._ZNK9QListData4sizeEv)
    i._ZNK9QListData5beginEv                 0x00021f22   Section       12  QtOrganizer.in(i._ZNK9QListData5beginEv)
    i._ZNK9QListData7isEmptyEv               0x00021f2e   Section       18  QtOrganizer.in(i._ZNK9QListData7isEmptyEv)
    i._ZdlPvS_                               0x00021f40   Section        2  QtOrganizer.in(i._ZdlPvS_)
    i._ZnwjPv                                0x00021f42   Section        4  QtOrganizer.in(i._ZnwjPv)
    i._ZplRK7QString5QChar                   0x00021f46   Section      104  QtOrganizer.in(i._ZplRK7QString5QChar)
    i._ZplRK7QString5QChar.clean             0x00021fae   Section       10  QtOrganizer.in(i._ZplRK7QString5QChar.clean)
    i._ZplRK7QStringS1_                      0x00021fb8   Section       36  QtOrganizer.in(i._ZplRK7QStringS1_)
    i._ZplRK7QStringS1_.clean                0x00021fdc   Section       10  QtOrganizer.in(i._ZplRK7QStringS1_.clean)
    t._Z12qobject_castIPN10QtMobility30QOrganizerManagerEngineFactoryEET_P7QObject 0x00021fe8   Section       80  QtOrganizer.in(t._Z12qobject_castIPN10QtMobility30QOrganizerManagerEngineFactoryEET_P7QObject)
    t._Z15qMapLessThanKeyI7QStringEbRKT_S3_  0x00022038   Section        8  QtOrganizer.in(t._Z15qMapLessThanKeyI7QStringEbRKT_S3_)
    t._Z15qMapLessThanKeyIN10QtMobility22QOrganizerCollectionIdEEbRKT_S4_ 0x00022040   Section        8  QtOrganizer.in(t._Z15qMapLessThanKeyIN10QtMobility22QOrganizerCollectionIdEEbRKT_S4_)
    t._Z15qMapLessThanKeyIiEbRKT_S2_         0x00022048   Section       16  QtOrganizer.in(t._Z15qMapLessThanKeyIiEbRKT_S2_)
    t._Z17qRegisterMetaTypeI4QSetI5QDateEEiPKcPT_ 0x00022058   Section       52  QtOrganizer.in(t._Z17qRegisterMetaTypeI4QSetI5QDateEEiPKcPT_)
    t._Z17qRegisterMetaTypeI4QSetIN10QtMobility24QOrganizerRecurrenceRuleEEEiPKcPT_ 0x0002208c   Section       52  QtOrganizer.in(t._Z17qRegisterMetaTypeI4QSetIN10QtMobility24QOrganizerRecurrenceRuleEEEiPKcPT_)
    t._Z17qRegisterMetaTypeIN10QtMobility16QOrganizerItemIdEEiPKcPT_ 0x000220c0   Section       52  QtOrganizer.in(t._Z17qRegisterMetaTypeIN10QtMobility16QOrganizerItemIdEEiPKcPT_)
    t._Z20qForeachContainerNewI4QSetI5QDateEE17QForeachContainerIT_ERKS4_ 0x000220f4   Section       54  QtOrganizer.in(t._Z20qForeachContainerNewI4QSetI5QDateEE17QForeachContainerIT_ERKS4_)
    t._Z20qForeachContainerNewI4QSetI5QDateEE17QForeachContainerIT_ERKS4_.clean 0x0002212a   Section       10  QtOrganizer.in(t._Z20qForeachContainerNewI4QSetI5QDateEE17QForeachContainerIT_ERKS4_.clean)
    t._Z20qForeachContainerNewI4QSetIiEE17QForeachContainerIT_ERKS3_ 0x00022134   Section       42  QtOrganizer.in(t._Z20qForeachContainerNewI4QSetIiEE17QForeachContainerIT_ERKS3_)
    t._Z20qForeachContainerNewI4QSetIiEE17QForeachContainerIT_ERKS3_.clean 0x0002215e   Section       10  QtOrganizer.in(t._Z20qForeachContainerNewI4QSetIiEE17QForeachContainerIT_ERKS3_.clean)
    t._Z20qForeachContainerNewI5QHashIN10QtMobility16QOrganizerItemIdENS1_14QOrganizerItemEEE17QForeachContainerIT_ERKS6_ 0x00022168   Section       52  QtOrganizer.in(t._Z20qForeachContainerNewI5QHashIN10QtMobility16QOrganizerItemIdENS1_14QOrganizerItemEEE17QForeachContainerIT_ERKS6_)
    t._Z20qForeachContainerNewI5QHashIN10QtMobility16QOrganizerItemIdENS1_14QOrganizerItemEEE17QForeachContainerIT_ERKS6_.clean 0x0002219c   Section       10  QtOrganizer.in(t._Z20qForeachContainerNewI5QHashIN10QtMobility16QOrganizerItemIdENS1_14QOrganizerItemEEE17QForeachContainerIT_ERKS6_.clean)
    t._Z20qForeachContainerNewI5QListI9QDateTimeEE17QForeachContainerIT_ERKS4_ 0x000221a6   Section       60  QtOrganizer.in(t._Z20qForeachContainerNewI5QListI9QDateTimeEE17QForeachContainerIT_ERKS4_)
    t._Z20qForeachContainerNewI5QListI9QDateTimeEE17QForeachContainerIT_ERKS4_.clean 0x000221e2   Section       10  QtOrganizer.in(t._Z20qForeachContainerNewI5QListI9QDateTimeEE17QForeachContainerIT_ERKS4_.clean)
    t._Z20qForeachContainerNewI5QListIN10QtMobility14QOrganizerItemEEE17QForeachContainerIT_ERKS5_ 0x000221ec   Section       46  QtOrganizer.in(t._Z20qForeachContainerNewI5QListIN10QtMobility14QOrganizerItemEEE17QForeachContainerIT_ERKS5_)
    t._Z20qForeachContainerNewI5QListIN10QtMobility14QOrganizerItemEEE17QForeachContainerIT_ERKS5_.clean 0x0002221a   Section       10  QtOrganizer.in(t._Z20qForeachContainerNewI5QListIN10QtMobility14QOrganizerItemEEE17QForeachContainerIT_ERKS5_.clean)
    t._Z20qForeachContainerNewI5QListIN10QtMobility16QOrganizerItemIdEEE17QForeachContainerIT_ERKS5_ 0x00022224   Section       62  QtOrganizer.in(t._Z20qForeachContainerNewI5QListIN10QtMobility16QOrganizerItemIdEEE17QForeachContainerIT_ERKS5_)
    t._Z20qForeachContainerNewI5QListIN10QtMobility16QOrganizerItemIdEEE17QForeachContainerIT_ERKS5_.clean 0x00022262   Section       10  QtOrganizer.in(t._Z20qForeachContainerNewI5QListIN10QtMobility16QOrganizerItemIdEEE17QForeachContainerIT_ERKS5_.clean)
    t._Z20qForeachContainerNewI5QListIN10QtMobility20QOrganizerItemDetailEEE17QForeachContainerIT_ERKS5_ 0x0002226c   Section       46  QtOrganizer.in(t._Z20qForeachContainerNewI5QListIN10QtMobility20QOrganizerItemDetailEEE17QForeachContainerIT_ERKS5_)
    t._Z20qForeachContainerNewI5QListIN10QtMobility20QOrganizerItemDetailEEE17QForeachContainerIT_ERKS5_.clean 0x0002229a   Section       10  QtOrganizer.in(t._Z20qForeachContainerNewI5QListIN10QtMobility20QOrganizerItemDetailEEE17QForeachContainerIT_ERKS5_.clean)
    t._Z20qForeachContainerNewI5QListIN10QtMobility21QOrganizerItemCommentEEE17QForeachContainerIT_ERKS5_ 0x000222a4   Section       60  QtOrganizer.in(t._Z20qForeachContainerNewI5QListIN10QtMobility21QOrganizerItemCommentEEE17QForeachContainerIT_ERKS5_)
    t._Z20qForeachContainerNewI5QListIN10QtMobility21QOrganizerItemCommentEEE17QForeachContainerIT_ERKS5_.clean 0x000222e0   Section       10  QtOrganizer.in(t._Z20qForeachContainerNewI5QListIN10QtMobility21QOrganizerItemCommentEEE17QForeachContainerIT_ERKS5_.clean)
    t._Z20qForeachContainerNewI5QListIN10QtMobility22QOrganizerCollectionIdEEE17QForeachContainerIT_ERKS5_ 0x000222ea   Section       62  QtOrganizer.in(t._Z20qForeachContainerNewI5QListIN10QtMobility22QOrganizerCollectionIdEEE17QForeachContainerIT_ERKS5_)
    t._Z20qForeachContainerNewI5QListIN10QtMobility22QOrganizerCollectionIdEEE17QForeachContainerIT_ERKS5_.clean 0x00022328   Section       10  QtOrganizer.in(t._Z20qForeachContainerNewI5QListIN10QtMobility22QOrganizerCollectionIdEEE17QForeachContainerIT_ERKS5_.clean)
    t._Z20qForeachContainerNewI5QListIPN10QtMobility30QOrganizerManagerEngineFactoryEEE17QForeachContainerIT_ERKS6_ 0x00022332   Section       60  QtOrganizer.in(t._Z20qForeachContainerNewI5QListIPN10QtMobility30QOrganizerManagerEngineFactoryEEE17QForeachContainerIT_ERKS6_)
    t._Z20qForeachContainerNewI5QListIPN10QtMobility30QOrganizerManagerEngineFactoryEEE17QForeachContainerIT_ERKS6_.clean 0x0002236e   Section       10  QtOrganizer.in(t._Z20qForeachContainerNewI5QListIPN10QtMobility30QOrganizerManagerEngineFactoryEEE17QForeachContainerIT_ERKS6_.clean)
    t._Z21qMetaTypeDeleteHelperI4QSetI5QDateEEvPT_ 0x00022378   Section       16  QtOrganizer.in(t._Z21qMetaTypeDeleteHelperI4QSetI5QDateEEvPT_)
    t._Z21qMetaTypeDeleteHelperI4QSetIN10QtMobility24QOrganizerRecurrenceRuleEEEvPT_ 0x00022388   Section       16  QtOrganizer.in(t._Z21qMetaTypeDeleteHelperI4QSetIN10QtMobility24QOrganizerRecurrenceRuleEEEvPT_)
    t._Z21qMetaTypeDeleteHelperIN10QtMobility16QOrganizerItemIdEEvPT_ 0x00022398   Section       16  QtOrganizer.in(t._Z21qMetaTypeDeleteHelperIN10QtMobility16QOrganizerItemIdEEvPT_)
    t._Z24qMetaTypeConstructHelperI4QSetI5QDateEEPvPKT_ 0x000223a8   Section       48  QtOrganizer.in(t._Z24qMetaTypeConstructHelperI4QSetI5QDateEEPvPKT_)
    t._Z24qMetaTypeConstructHelperI4QSetI5QDateEEPvPKT_.clean 0x000223d8   Section       16  QtOrganizer.in(t._Z24qMetaTypeConstructHelperI4QSetI5QDateEEPvPKT_.clean)
    t._Z24qMetaTypeConstructHelperI4QSetIN10QtMobility24QOrganizerRecurrenceRuleEEEPvPKT_ 0x000223e8   Section       48  QtOrganizer.in(t._Z24qMetaTypeConstructHelperI4QSetIN10QtMobility24QOrganizerRecurrenceRuleEEEPvPKT_)
    t._Z24qMetaTypeConstructHelperI4QSetIN10QtMobility24QOrganizerRecurrenceRuleEEEPvPKT_.clean 0x00022418   Section       16  QtOrganizer.in(t._Z24qMetaTypeConstructHelperI4QSetIN10QtMobility24QOrganizerRecurrenceRuleEEEPvPKT_.clean)
    t._Z24qMetaTypeConstructHelperIN10QtMobility16QOrganizerItemIdEEPvPKT_ 0x00022428   Section       48  QtOrganizer.in(t._Z24qMetaTypeConstructHelperIN10QtMobility16QOrganizerItemIdEEPvPKT_)
    t._Z24qMetaTypeConstructHelperIN10QtMobility16QOrganizerItemIdEEPvPKT_.clean 0x00022458   Section       16  QtOrganizer.in(t._Z24qMetaTypeConstructHelperIN10QtMobility16QOrganizerItemIdEEPvPKT_.clean)
    t._Z5qSwapI9QDateTimeEvRT_S2_            0x00022468   Section       38  QtOrganizer.in(t._Z5qSwapI9QDateTimeEvRT_S2_)
    t._Z5qSwapI9QDateTimeEvRT_S2_.clean      0x0002248e   Section       10  QtOrganizer.in(t._Z5qSwapI9QDateTimeEvRT_S2_.clean)
    t._ZN10QMultiHashIN10QtMobility16QOrganizerItemIdES1_E6removeERKS1_S4_ 0x00022498   Section      100  QtOrganizer.in(t._ZN10QMultiHashIN10QtMobility16QOrganizerItemIdES1_E6removeERKS1_S4_)
    t._ZN10QtMobilityeqILi15EEEbRK7QStringRKNS_15QLatin1ConstantIXT_EEE 0x000224fc   Section       12  QtOrganizer.in(t._ZN10QtMobilityeqILi15EEEbRK7QStringRKNS_15QLatin1ConstantIXT_EEE)
    t._ZN10QtMobilityeqILi16EEEbRK7QStringRKNS_15QLatin1ConstantIXT_EEE 0x00022508   Section       12  QtOrganizer.in(t._ZN10QtMobilityeqILi16EEEbRK7QStringRKNS_15QLatin1ConstantIXT_EEE)
    t._ZN10QtMobilityeqILi5EEEbRK7QStringRKNS_15QLatin1ConstantIXT_EEE 0x00022514   Section       12  QtOrganizer.in(t._ZN10QtMobilityeqILi5EEEbRK7QStringRKNS_15QLatin1ConstantIXT_EEE)
    t._ZN10QtMobilityeqILi6EEEbRK7QStringRKNS_15QLatin1ConstantIXT_EEE 0x00022520   Section       12  QtOrganizer.in(t._ZN10QtMobilityeqILi6EEEbRK7QStringRKNS_15QLatin1ConstantIXT_EEE)
    t._ZN12QMapIteratorI7QString8QVariantEC1ERK4QMapIS0_S1_E 0x0002252c   Section       54  QtOrganizer.in(t._ZN12QMapIteratorI7QString8QVariantEC1ERK4QMapIS0_S1_E)
    t._ZN12QMetaTypeId2I4QSetI5QDateEE14qt_metatype_idEv 0x00022564   Section       48  QtOrganizer.in(t._ZN12QMetaTypeId2I4QSetI5QDateEE14qt_metatype_idEv)
    t._ZN12QMetaTypeId2I4QSetIN10QtMobility24QOrganizerRecurrenceRuleEEE14qt_metatype_idEv 0x00022594   Section       92  QtOrganizer.in(t._ZN12QMetaTypeId2I4QSetIN10QtMobility24QOrganizerRecurrenceRuleEEE14qt_metatype_idEv)
    t._ZN12QMetaTypeId2IN10QtMobility16QOrganizerItemIdEE14qt_metatype_idEv 0x000225f0   Section       68  QtOrganizer.in(t._ZN12QMetaTypeId2IN10QtMobility16QOrganizerItemIdEE14qt_metatype_idEv)
    t._ZN12QWeakPointerIN10QtMobility25QOrganizerAbstractRequestEED1Ev 0x00022634   Section       36  QtOrganizer.in(t._ZN12QWeakPointerIN10QtMobility25QOrganizerAbstractRequestEED1Ev)
    t._ZN12QWeakPointerIN10QtMobility25QOrganizerItemSaveRequestEED1Ev 0x00022658   Section       36  QtOrganizer.in(t._ZN12QWeakPointerIN10QtMobility25QOrganizerItemSaveRequestEED1Ev)
    t._ZN12QWeakPointerIN10QtMobility26QOrganizerItemFetchRequestEED1Ev 0x0002267c   Section       36  QtOrganizer.in(t._ZN12QWeakPointerIN10QtMobility26QOrganizerItemFetchRequestEED1Ev)
    t._ZN12QWeakPointerIN10QtMobility27QOrganizerItemRemoveRequestEED1Ev 0x000226a0   Section       36  QtOrganizer.in(t._ZN12QWeakPointerIN10QtMobility27QOrganizerItemRemoveRequestEED1Ev)
    t._ZN12QWeakPointerIN10QtMobility28QOrganizerItemIdFetchRequestEED1Ev 0x000226c4   Section       36  QtOrganizer.in(t._ZN12QWeakPointerIN10QtMobility28QOrganizerItemIdFetchRequestEED1Ev)
    t._ZN12QWeakPointerIN10QtMobility31QOrganizerCollectionSaveRequestEED1Ev 0x000226e8   Section       36  QtOrganizer.in(t._ZN12QWeakPointerIN10QtMobility31QOrganizerCollectionSaveRequestEED1Ev)
    t._ZN12QWeakPointerIN10QtMobility32QOrganizerCollectionFetchRequestEED1Ev 0x0002270c   Section       36  QtOrganizer.in(t._ZN12QWeakPointerIN10QtMobility32QOrganizerCollectionFetchRequestEED1Ev)
    t._ZN12QWeakPointerIN10QtMobility33QOrganizerCollectionRemoveRequestEED1Ev 0x00022730   Section       36  QtOrganizer.in(t._ZN12QWeakPointerIN10QtMobility33QOrganizerCollectionRemoveRequestEED1Ev)
    t._ZN12QWeakPointerIN10QtMobility35QOrganizerItemFetchForExportRequestEED1Ev 0x00022754   Section       36  QtOrganizer.in(t._ZN12QWeakPointerIN10QtMobility35QOrganizerItemFetchForExportRequestEED1Ev)
    t._ZN12QWeakPointerIN10QtMobility36QOrganizerItemOccurrenceFetchRequestEED1Ev 0x00022778   Section       36  QtOrganizer.in(t._ZN12QWeakPointerIN10QtMobility36QOrganizerItemOccurrenceFetchRequestEED1Ev)
    t._ZN12QWeakPointerIN10QtMobility41QOrganizerItemDetailDefinitionSaveRequestEED1Ev 0x0002279c   Section       36  QtOrganizer.in(t._ZN12QWeakPointerIN10QtMobility41QOrganizerItemDetailDefinitionSaveRequestEED1Ev)
    t._ZN12QWeakPointerIN10QtMobility42QOrganizerItemDetailDefinitionFetchRequestEED1Ev 0x000227c0   Section       36  QtOrganizer.in(t._ZN12QWeakPointerIN10QtMobility42QOrganizerItemDetailDefinitionFetchRequestEED1Ev)
    t._ZN12QWeakPointerIN10QtMobility43QOrganizerItemDetailDefinitionRemoveRequestEED1Ev 0x000227e4   Section       36  QtOrganizer.in(t._ZN12QWeakPointerIN10QtMobility43QOrganizerItemDetailDefinitionRemoveRequestEED1Ev)
    t._ZN13QConcatenableI14QStringBuilderIS0_I7QString11QLatin1CharES1_EE4sizeERKS4_ 0x00022808   Section       22  QtOrganizer.in(t._ZN13QConcatenableI14QStringBuilderIS0_I7QString11QLatin1CharES1_EE4sizeERKS4_)
    t._ZN13QConcatenableI14QStringBuilderIS0_I7QString11QLatin1CharES1_EE8appendToERKS4_RP5QChar 0x0002281e   Section       36  QtOrganizer.in(t._ZN13QConcatenableI14QStringBuilderIS0_I7QString11QLatin1CharES1_EE8appendToERKS4_RP5QChar)
    t._ZN14QHashDummyNodeI7QString15QHashDummyValueEC1ERKS0_ 0x00022842   Section       12  QtOrganizer.in(t._ZN14QHashDummyNodeI7QString15QHashDummyValueEC1ERKS0_)
    t._ZN14QHashDummyNodeIN10QtMobility16QOrganizerItemIdE15QHashDummyValueEC1ERKS1_ 0x0002284e   Section       12  QtOrganizer.in(t._ZN14QHashDummyNodeIN10QtMobility16QOrganizerItemIdE15QHashDummyValueEC1ERKS1_)
    t._ZN14QHashDummyNodeIN10QtMobility22QOrganizerCollectionIdE15QHashDummyValueEC1ERKS1_ 0x0002285a   Section       12  QtOrganizer.in(t._ZN14QHashDummyNodeIN10QtMobility22QOrganizerCollectionIdE15QHashDummyValueEC1ERKS1_)
    t._ZN14QHashDummyNodeIN10QtMobility24QOrganizerRecurrenceRuleE15QHashDummyValueEC1ERKS1_ 0x00022866   Section       12  QtOrganizer.in(t._ZN14QHashDummyNodeIN10QtMobility24QOrganizerRecurrenceRuleE15QHashDummyValueEC1ERKS1_)
    t._ZN17QForeachContainerI4QSetIN10QtMobility24QOrganizerRecurrenceRuleEEEC1ERKS3_ 0x00022874   Section      112  QtOrganizer.in(t._ZN17QForeachContainerI4QSetIN10QtMobility24QOrganizerRecurrenceRuleEEEC1ERKS3_)
    t._ZN17QForeachContainerI4QSetIN10QtMobility24QOrganizerRecurrenceRuleEEEC1ERKS3_.clean 0x000228e4   Section       10  QtOrganizer.in(t._ZN17QForeachContainerI4QSetIN10QtMobility24QOrganizerRecurrenceRuleEEEC1ERKS3_.clean)
    t._ZN18QAlgorithmsPrivate11qSortHelperIN5QListI9QDateTimeE8iteratorES2_5qLessIS2_EEEvT_S7_RKT0_T1_ 0x000228ee   Section      294  QtOrganizer.in(t._ZN18QAlgorithmsPrivate11qSortHelperIN5QListI9QDateTimeE8iteratorES2_5qLessIS2_EEEvT_S7_RKT0_T1_)
    t._ZN18QAlgorithmsPrivate17qBinaryFindHelperIN5QListI9QDateTimeE14const_iteratorES2_5qLessIS2_EEET_S7_S7_RKT0_T1_ 0x00022a14   Section      122  QtOrganizer.in(t._ZN18QAlgorithmsPrivate17qBinaryFindHelperIN5QListI9QDateTimeE14const_iteratorES2_5qLessIS2_EEET_S7_S7_RKT0_T1_)
    t._ZN18QSharedDataPointerIN10QtMobility18QOrganizerItemDataEE13detach_helperEv 0x00022a8e   Section      102  QtOrganizer.in(t._ZN18QSharedDataPointerIN10QtMobility18QOrganizerItemDataEE13detach_helperEv)
    t._ZN18QSharedDataPointerIN10QtMobility18QOrganizerItemDataEE13detach_helperEv.clean 0x00022af4   Section       30  QtOrganizer.in(t._ZN18QSharedDataPointerIN10QtMobility18QOrganizerItemDataEE13detach_helperEv.clean)
    t._ZN18QSharedDataPointerIN10QtMobility18QOrganizerItemDataEED1Ev 0x00022b12   Section       36  QtOrganizer.in(t._ZN18QSharedDataPointerIN10QtMobility18QOrganizerItemDataEED1Ev)
    t._ZN18QSharedDataPointerIN10QtMobility18QOrganizerItemDataEEaSEPS1_ 0x00022b36   Section       54  QtOrganizer.in(t._ZN18QSharedDataPointerIN10QtMobility18QOrganizerItemDataEEaSEPS1_)
    t._ZN18QSharedDataPointerIN10QtMobility18QOrganizerItemDataEEaSERKS2_ 0x00022b6c   Section       56  QtOrganizer.in(t._ZN18QSharedDataPointerIN10QtMobility18QOrganizerItemDataEEaSERKS2_)
    t._ZN18QSharedDataPointerIN10QtMobility18QOrganizerItemDataEEptEv 0x00022ba4   Section       30  QtOrganizer.in(t._ZN18QSharedDataPointerIN10QtMobility18QOrganizerItemDataEEptEv)
    t._ZN18QSharedDataPointerIN10QtMobility22QOrganizerItemEngineIdEEC1EPS1_ 0x00022bc2   Section       20  QtOrganizer.in(t._ZN18QSharedDataPointerIN10QtMobility22QOrganizerItemEngineIdEEC1EPS1_)
    t._ZN18QSharedDataPointerIN10QtMobility22QOrganizerItemEngineIdEED1Ev 0x00022bd6   Section       36  QtOrganizer.in(t._ZN18QSharedDataPointerIN10QtMobility22QOrganizerItemEngineIdEED1Ev)
    t._ZN18QSharedDataPointerIN10QtMobility24QOrganizerCollectionDataEED1Ev 0x00022bfa   Section       36  QtOrganizer.in(t._ZN18QSharedDataPointerIN10QtMobility24QOrganizerCollectionDataEED1Ev)
    t._ZN18QSharedDataPointerIN10QtMobility24QOrganizerCollectionDataEEptEv 0x00022c1e   Section       78  QtOrganizer.in(t._ZN18QSharedDataPointerIN10QtMobility24QOrganizerCollectionDataEEptEv)
    t._ZN18QSharedDataPointerIN10QtMobility24QOrganizerCollectionDataEEptEv.clean 0x00022c6c   Section       10  QtOrganizer.in(t._ZN18QSharedDataPointerIN10QtMobility24QOrganizerCollectionDataEEptEv.clean)
    t._ZN18QSharedDataPointerIN10QtMobility27QOrganizerItemChangeSetDataEE13detach_helperEv 0x00022c76   Section      112  QtOrganizer.in(t._ZN18QSharedDataPointerIN10QtMobility27QOrganizerItemChangeSetDataEE13detach_helperEv)
    t._ZN18QSharedDataPointerIN10QtMobility27QOrganizerItemChangeSetDataEE13detach_helperEv.clean 0x00022ce6   Section       32  QtOrganizer.in(t._ZN18QSharedDataPointerIN10QtMobility27QOrganizerItemChangeSetDataEE13detach_helperEv.clean)
    t._ZN18QSharedDataPointerIN10QtMobility27QOrganizerItemChangeSetDataEED1Ev 0x00022d06   Section       36  QtOrganizer.in(t._ZN18QSharedDataPointerIN10QtMobility27QOrganizerItemChangeSetDataEED1Ev)
    t._ZN18QSharedDataPointerIN10QtMobility27QOrganizerItemChangeSetDataEEptEv 0x00022d2a   Section       30  QtOrganizer.in(t._ZN18QSharedDataPointerIN10QtMobility27QOrganizerItemChangeSetDataEEptEv)
    t._ZN18QSharedDataPointerIN10QtMobility27QOrganizerItemDetailPrivateEE13detach_helperEv 0x00022d48   Section       66  QtOrganizer.in(t._ZN18QSharedDataPointerIN10QtMobility27QOrganizerItemDetailPrivateEE13detach_helperEv)
    t._ZN18QSharedDataPointerIN10QtMobility27QOrganizerItemDetailPrivateEE13detach_helperEv.clean 0x00022d8a   Section       20  QtOrganizer.in(t._ZN18QSharedDataPointerIN10QtMobility27QOrganizerItemDetailPrivateEE13detach_helperEv.clean)
    t._ZN18QSharedDataPointerIN10QtMobility27QOrganizerItemDetailPrivateEE5cloneEv 0x00022d9e   Section       70  QtOrganizer.in(t._ZN18QSharedDataPointerIN10QtMobility27QOrganizerItemDetailPrivateEE5cloneEv)
    t._ZN18QSharedDataPointerIN10QtMobility27QOrganizerItemDetailPrivateEE5cloneEv.clean 0x00022de4   Section       20  QtOrganizer.in(t._ZN18QSharedDataPointerIN10QtMobility27QOrganizerItemDetailPrivateEE5cloneEv.clean)
    t._ZN18QSharedDataPointerIN10QtMobility27QOrganizerItemDetailPrivateEEC1EPS1_ 0x00022df8   Section       18  QtOrganizer.in(t._ZN18QSharedDataPointerIN10QtMobility27QOrganizerItemDetailPrivateEEC1EPS1_)
    t._ZN18QSharedDataPointerIN10QtMobility27QOrganizerItemDetailPrivateEED1Ev 0x00022e0a   Section       36  QtOrganizer.in(t._ZN18QSharedDataPointerIN10QtMobility27QOrganizerItemDetailPrivateEED1Ev)
    t._ZN18QSharedDataPointerIN10QtMobility27QOrganizerItemDetailPrivateEEaSEPS1_ 0x00022e2e   Section       54  QtOrganizer.in(t._ZN18QSharedDataPointerIN10QtMobility27QOrganizerItemDetailPrivateEEaSEPS1_)
    t._ZN18QSharedDataPointerIN10QtMobility27QOrganizerItemDetailPrivateEEaSERKS2_ 0x00022e64   Section       56  QtOrganizer.in(t._ZN18QSharedDataPointerIN10QtMobility27QOrganizerItemDetailPrivateEEaSERKS2_)
    t._ZN18QSharedDataPointerIN10QtMobility27QOrganizerItemDetailPrivateEEptEv 0x00022e9c   Section       30  QtOrganizer.in(t._ZN18QSharedDataPointerIN10QtMobility27QOrganizerItemDetailPrivateEEptEv)
    t._ZN18QSharedDataPointerIN10QtMobility27QOrganizerItemFilterPrivateEE5cloneEv 0x00022eba   Section        8  QtOrganizer.in(t._ZN18QSharedDataPointerIN10QtMobility27QOrganizerItemFilterPrivateEE5cloneEv)
    t._ZN18QSharedDataPointerIN10QtMobility27QOrganizerItemFilterPrivateEE6detachEv 0x00022ec2   Section       58  QtOrganizer.in(t._ZN18QSharedDataPointerIN10QtMobility27QOrganizerItemFilterPrivateEE6detachEv)
    t._ZN18QSharedDataPointerIN10QtMobility27QOrganizerItemFilterPrivateEEC1EPS1_ 0x00022efc   Section       20  QtOrganizer.in(t._ZN18QSharedDataPointerIN10QtMobility27QOrganizerItemFilterPrivateEEC1EPS1_)
    t._ZN18QSharedDataPointerIN10QtMobility27QOrganizerItemFilterPrivateEED1Ev 0x00022f10   Section       36  QtOrganizer.in(t._ZN18QSharedDataPointerIN10QtMobility27QOrganizerItemFilterPrivateEED1Ev)
    t._ZN18QSharedDataPointerIN10QtMobility28QOrganizerCollectionEngineIdEEC1EPS1_ 0x00022f34   Section       20  QtOrganizer.in(t._ZN18QSharedDataPointerIN10QtMobility28QOrganizerCollectionEngineIdEEC1EPS1_)
    t._ZN18QSharedDataPointerIN10QtMobility28QOrganizerCollectionEngineIdEED1Ev 0x00022f48   Section       36  QtOrganizer.in(t._ZN18QSharedDataPointerIN10QtMobility28QOrganizerCollectionEngineIdEED1Ev)
    t._ZN18QSharedDataPointerIN10QtMobility30QOrganizerItemFetchHintPrivateEE13detach_helperEv 0x00022f6c   Section       74  QtOrganizer.in(t._ZN18QSharedDataPointerIN10QtMobility30QOrganizerItemFetchHintPrivateEE13detach_helperEv)
    t._ZN18QSharedDataPointerIN10QtMobility30QOrganizerItemFetchHintPrivateEE13detach_helperEv.clean 0x00022fb6   Section       12  QtOrganizer.in(t._ZN18QSharedDataPointerIN10QtMobility30QOrganizerItemFetchHintPrivateEE13detach_helperEv.clean)
    t._ZN18QSharedDataPointerIN10QtMobility30QOrganizerItemFetchHintPrivateEED1Ev 0x00022fc2   Section       36  QtOrganizer.in(t._ZN18QSharedDataPointerIN10QtMobility30QOrganizerItemFetchHintPrivateEED1Ev)
    t._ZN18QSharedDataPointerIN10QtMobility30QOrganizerItemFetchHintPrivateEEptEv 0x00022fe6   Section       30  QtOrganizer.in(t._ZN18QSharedDataPointerIN10QtMobility30QOrganizerItemFetchHintPrivateEEptEv)
    t._ZN18QSharedDataPointerIN10QtMobility30QOrganizerItemSortOrderPrivateEE13detach_helperEv 0x00023004   Section      104  QtOrganizer.in(t._ZN18QSharedDataPointerIN10QtMobility30QOrganizerItemSortOrderPrivateEE13detach_helperEv)
    t._ZN18QSharedDataPointerIN10QtMobility30QOrganizerItemSortOrderPrivateEE13detach_helperEv.clean 0x0002306c   Section       20  QtOrganizer.in(t._ZN18QSharedDataPointerIN10QtMobility30QOrganizerItemSortOrderPrivateEE13detach_helperEv.clean)
    t._ZN18QSharedDataPointerIN10QtMobility30QOrganizerItemSortOrderPrivateEED1Ev 0x00023080   Section       36  QtOrganizer.in(t._ZN18QSharedDataPointerIN10QtMobility30QOrganizerItemSortOrderPrivateEED1Ev)
    t._ZN18QSharedDataPointerIN10QtMobility30QOrganizerItemSortOrderPrivateEEptEv 0x000230a4   Section       26  QtOrganizer.in(t._ZN18QSharedDataPointerIN10QtMobility30QOrganizerItemSortOrderPrivateEEptEv)
    t._ZN18QSharedDataPointerIN10QtMobility31QOrganizerRecurrenceRulePrivateEED1Ev 0x000230be   Section       36  QtOrganizer.in(t._ZN18QSharedDataPointerIN10QtMobility31QOrganizerRecurrenceRulePrivateEED1Ev)
    t._ZN18QSharedDataPointerIN10QtMobility31QOrganizerRecurrenceRulePrivateEEptEv 0x000230e2   Section       78  QtOrganizer.in(t._ZN18QSharedDataPointerIN10QtMobility31QOrganizerRecurrenceRulePrivateEEptEv)
    t._ZN18QSharedDataPointerIN10QtMobility31QOrganizerRecurrenceRulePrivateEEptEv.clean 0x00023130   Section       10  QtOrganizer.in(t._ZN18QSharedDataPointerIN10QtMobility31QOrganizerRecurrenceRulePrivateEEptEv.clean)
    t._ZN18QSharedDataPointerIN10QtMobility33QOrganizerCollectionChangeSetDataEE13detach_helperEv 0x0002313a   Section      112  QtOrganizer.in(t._ZN18QSharedDataPointerIN10QtMobility33QOrganizerCollectionChangeSetDataEE13detach_helperEv)
    t._ZN18QSharedDataPointerIN10QtMobility33QOrganizerCollectionChangeSetDataEE13detach_helperEv.clean 0x000231aa   Section       32  QtOrganizer.in(t._ZN18QSharedDataPointerIN10QtMobility33QOrganizerCollectionChangeSetDataEE13detach_helperEv.clean)
    t._ZN18QSharedDataPointerIN10QtMobility33QOrganizerCollectionChangeSetDataEED1Ev 0x000231ca   Section       36  QtOrganizer.in(t._ZN18QSharedDataPointerIN10QtMobility33QOrganizerCollectionChangeSetDataEED1Ev)
    t._ZN18QSharedDataPointerIN10QtMobility33QOrganizerCollectionChangeSetDataEEptEv 0x000231ee   Section       30  QtOrganizer.in(t._ZN18QSharedDataPointerIN10QtMobility33QOrganizerCollectionChangeSetDataEEptEv)
    t._ZN18QSharedDataPointerIN10QtMobility34QOrganizerItemDetailDefinitionDataEE13detach_helperEv 0x0002320c   Section       90  QtOrganizer.in(t._ZN18QSharedDataPointerIN10QtMobility34QOrganizerItemDetailDefinitionDataEE13detach_helperEv)
    t._ZN18QSharedDataPointerIN10QtMobility34QOrganizerItemDetailDefinitionDataEE13detach_helperEv.clean 0x00023266   Section       18  QtOrganizer.in(t._ZN18QSharedDataPointerIN10QtMobility34QOrganizerItemDetailDefinitionDataEE13detach_helperEv.clean)
    t._ZN18QSharedDataPointerIN10QtMobility34QOrganizerItemDetailDefinitionDataEED1Ev 0x00023278   Section       36  QtOrganizer.in(t._ZN18QSharedDataPointerIN10QtMobility34QOrganizerItemDetailDefinitionDataEED1Ev)
    t._ZN18QSharedDataPointerIN10QtMobility34QOrganizerItemDetailDefinitionDataEEptEv 0x0002329c   Section       30  QtOrganizer.in(t._ZN18QSharedDataPointerIN10QtMobility34QOrganizerItemDetailDefinitionDataEEptEv)
    t._ZN18QSharedDataPointerIN10QtMobility42QOrganizerItemDetailFieldDefinitionPrivateEE13detach_helperEv 0x000232ba   Section       74  QtOrganizer.in(t._ZN18QSharedDataPointerIN10QtMobility42QOrganizerItemDetailFieldDefinitionPrivateEE13detach_helperEv)
    t._ZN18QSharedDataPointerIN10QtMobility42QOrganizerItemDetailFieldDefinitionPrivateEE13detach_helperEv.clean 0x00023304   Section       10  QtOrganizer.in(t._ZN18QSharedDataPointerIN10QtMobility42QOrganizerItemDetailFieldDefinitionPrivateEE13detach_helperEv.clean)
    t._ZN18QSharedDataPointerIN10QtMobility42QOrganizerItemDetailFieldDefinitionPrivateEED1Ev 0x0002330e   Section       36  QtOrganizer.in(t._ZN18QSharedDataPointerIN10QtMobility42QOrganizerItemDetailFieldDefinitionPrivateEED1Ev)
    t._ZN18QSharedDataPointerIN10QtMobility42QOrganizerItemDetailFieldDefinitionPrivateEEptEv 0x00023332   Section       30  QtOrganizer.in(t._ZN18QSharedDataPointerIN10QtMobility42QOrganizerItemDetailFieldDefinitionPrivateEEptEv)
    t._ZN20QMutableListIteratorI8QVariantED1Ev 0x00023350   Section       16  QtOrganizer.in(t._ZN20QMutableListIteratorI8QVariantED1Ev)
    t._ZN4QMapI7QString8QVariantE11node_createEP8QMapDataPPNS3_4NodeERKS0_RKS1_ 0x00023360   Section      108  QtOrganizer.in(t._ZN4QMapI7QString8QVariantE11node_createEP8QMapDataPPNS3_4NodeERKS0_RKS1_)
    t._ZN4QMapI7QString8QVariantE11node_createEP8QMapDataPPNS3_4NodeERKS0_RKS1_.clean 0x000233cc   Section       38  QtOrganizer.in(t._ZN4QMapI7QString8QVariantE11node_createEP8QMapDataPPNS3_4NodeERKS0_RKS1_.clean)
    t._ZN4QMapI7QString8QVariantE13detach_helperEv 0x000233f2   Section      116  QtOrganizer.in(t._ZN4QMapI7QString8QVariantE13detach_helperEv)
    t._ZN4QMapI7QString8QVariantE13detach_helperEv.clean 0x00023466   Section        8  QtOrganizer.in(t._ZN4QMapI7QString8QVariantE13detach_helperEv.clean)
    t._ZN4QMapI7QString8QVariantE5clearEv    0x0002346e   Section       26  QtOrganizer.in(t._ZN4QMapI7QString8QVariantE5clearEv)
    t._ZN4QMapI7QString8QVariantE5clearEv.clean 0x00023488   Section       10  QtOrganizer.in(t._ZN4QMapI7QString8QVariantE5clearEv.clean)
    t._ZN4QMapI7QString8QVariantE6detachEv   0x00023492   Section       26  QtOrganizer.in(t._ZN4QMapI7QString8QVariantE6detachEv)
    t._ZN4QMapI7QString8QVariantE8freeDataEP8QMapData 0x000234ac   Section       44  QtOrganizer.in(t._ZN4QMapI7QString8QVariantE8freeDataEP8QMapData)
    t._ZN4QMapI7QString8QVariantEC1ERKS2_    0x000234d8   Section       32  QtOrganizer.in(t._ZN4QMapI7QString8QVariantEC1ERKS2_)
    t._ZN4QMapI7QString8QVariantEC1Ev        0x000234f8   Section       24  QtOrganizer.in(t._ZN4QMapI7QString8QVariantEC1Ev)
    t._ZN4QMapI7QString8QVariantED1Ev        0x00023510   Section       32  QtOrganizer.in(t._ZN4QMapI7QString8QVariantED1Ev)
    t._ZN4QMapI7QString8QVariantEaSERKS2_    0x00023530   Section       58  QtOrganizer.in(t._ZN4QMapI7QString8QVariantEaSERKS2_)
    t._ZN4QMapI7QStringN10QtMobility30QOrganizerItemDetailDefinitionEE11node_createEP8QMapDataPPNS4_4NodeERKS0_RKS2_ 0x0002356a   Section      106  QtOrganizer.in(t._ZN4QMapI7QStringN10QtMobility30QOrganizerItemDetailDefinitionEE11node_createEP8QMapDataPPNS4_4NodeERKS0_RKS2_)
    t._ZN4QMapI7QStringN10QtMobility30QOrganizerItemDetailDefinitionEE11node_createEP8QMapDataPPNS4_4NodeERKS0_RKS2_.clean 0x000235d4   Section       38  QtOrganizer.in(t._ZN4QMapI7QStringN10QtMobility30QOrganizerItemDetailDefinitionEE11node_createEP8QMapDataPPNS4_4NodeERKS0_RKS2_.clean)
    t._ZN4QMapI7QStringN10QtMobility30QOrganizerItemDetailDefinitionEE13detach_helperEv 0x000235fa   Section      114  QtOrganizer.in(t._ZN4QMapI7QStringN10QtMobility30QOrganizerItemDetailDefinitionEE13detach_helperEv)
    t._ZN4QMapI7QStringN10QtMobility30QOrganizerItemDetailDefinitionEE13detach_helperEv.clean 0x0002366c   Section        8  QtOrganizer.in(t._ZN4QMapI7QStringN10QtMobility30QOrganizerItemDetailDefinitionEE13detach_helperEv.clean)
    t._ZN4QMapI7QStringN10QtMobility30QOrganizerItemDetailDefinitionEE5clearEv 0x00023674   Section       26  QtOrganizer.in(t._ZN4QMapI7QStringN10QtMobility30QOrganizerItemDetailDefinitionEE5clearEv)
    t._ZN4QMapI7QStringN10QtMobility30QOrganizerItemDetailDefinitionEE5clearEv.clean 0x0002368e   Section       10  QtOrganizer.in(t._ZN4QMapI7QStringN10QtMobility30QOrganizerItemDetailDefinitionEE5clearEv.clean)
    t._ZN4QMapI7QStringN10QtMobility30QOrganizerItemDetailDefinitionEE6detachEv 0x00023698   Section       26  QtOrganizer.in(t._ZN4QMapI7QStringN10QtMobility30QOrganizerItemDetailDefinitionEE6detachEv)
    t._ZN4QMapI7QStringN10QtMobility30QOrganizerItemDetailDefinitionEE6insertERKS0_RKS2_ 0x000236b2   Section      128  QtOrganizer.in(t._ZN4QMapI7QStringN10QtMobility30QOrganizerItemDetailDefinitionEE6insertERKS0_RKS2_)
    t._ZN4QMapI7QStringN10QtMobility30QOrganizerItemDetailDefinitionEE6removeERKS0_ 0x00023732   Section      168  QtOrganizer.in(t._ZN4QMapI7QStringN10QtMobility30QOrganizerItemDetailDefinitionEE6removeERKS0_)
    t._ZN4QMapI7QStringN10QtMobility30QOrganizerItemDetailDefinitionEE8freeDataEP8QMapData 0x000237da   Section       42  QtOrganizer.in(t._ZN4QMapI7QStringN10QtMobility30QOrganizerItemDetailDefinitionEE8freeDataEP8QMapData)
    t._ZN4QMapI7QStringN10QtMobility30QOrganizerItemDetailDefinitionEEC1ERKS3_ 0x00023804   Section       32  QtOrganizer.in(t._ZN4QMapI7QStringN10QtMobility30QOrganizerItemDetailDefinitionEEC1ERKS3_)
    t._ZN4QMapI7QStringN10QtMobility30QOrganizerItemDetailDefinitionEEC1Ev 0x00023824   Section       24  QtOrganizer.in(t._ZN4QMapI7QStringN10QtMobility30QOrganizerItemDetailDefinitionEEC1Ev)
    t._ZN4QMapI7QStringN10QtMobility30QOrganizerItemDetailDefinitionEED1Ev 0x0002383c   Section       32  QtOrganizer.in(t._ZN4QMapI7QStringN10QtMobility30QOrganizerItemDetailDefinitionEED1Ev)
    t._ZN4QMapI7QStringN10QtMobility30QOrganizerItemDetailDefinitionEEaSERKS3_ 0x0002385c   Section       58  QtOrganizer.in(t._ZN4QMapI7QStringN10QtMobility30QOrganizerItemDetailDefinitionEEaSERKS3_)
    t._ZN4QMapI7QStringN10QtMobility35QOrganizerItemDetailFieldDefinitionEE11node_createEP8QMapDataPPNS4_4NodeERKS0_RKS2_ 0x00023896   Section      106  QtOrganizer.in(t._ZN4QMapI7QStringN10QtMobility35QOrganizerItemDetailFieldDefinitionEE11node_createEP8QMapDataPPNS4_4NodeERKS0_RKS2_)
    t._ZN4QMapI7QStringN10QtMobility35QOrganizerItemDetailFieldDefinitionEE11node_createEP8QMapDataPPNS4_4NodeERKS0_RKS2_.clean 0x00023900   Section       38  QtOrganizer.in(t._ZN4QMapI7QStringN10QtMobility35QOrganizerItemDetailFieldDefinitionEE11node_createEP8QMapDataPPNS4_4NodeERKS0_RKS2_.clean)
    t._ZN4QMapI7QStringN10QtMobility35QOrganizerItemDetailFieldDefinitionEE13detach_helperEv 0x00023926   Section      114  QtOrganizer.in(t._ZN4QMapI7QStringN10QtMobility35QOrganizerItemDetailFieldDefinitionEE13detach_helperEv)
    t._ZN4QMapI7QStringN10QtMobility35QOrganizerItemDetailFieldDefinitionEE13detach_helperEv.clean 0x00023998   Section        8  QtOrganizer.in(t._ZN4QMapI7QStringN10QtMobility35QOrganizerItemDetailFieldDefinitionEE13detach_helperEv.clean)
    t._ZN4QMapI7QStringN10QtMobility35QOrganizerItemDetailFieldDefinitionEE5clearEv 0x000239a0   Section       26  QtOrganizer.in(t._ZN4QMapI7QStringN10QtMobility35QOrganizerItemDetailFieldDefinitionEE5clearEv)
    t._ZN4QMapI7QStringN10QtMobility35QOrganizerItemDetailFieldDefinitionEE5clearEv.clean 0x000239ba   Section       10  QtOrganizer.in(t._ZN4QMapI7QStringN10QtMobility35QOrganizerItemDetailFieldDefinitionEE5clearEv.clean)
    t._ZN4QMapI7QStringN10QtMobility35QOrganizerItemDetailFieldDefinitionEE6detachEv 0x000239c4   Section       26  QtOrganizer.in(t._ZN4QMapI7QStringN10QtMobility35QOrganizerItemDetailFieldDefinitionEE6detachEv)
    t._ZN4QMapI7QStringN10QtMobility35QOrganizerItemDetailFieldDefinitionEE6insertERKS0_RKS2_ 0x000239de   Section      128  QtOrganizer.in(t._ZN4QMapI7QStringN10QtMobility35QOrganizerItemDetailFieldDefinitionEE6insertERKS0_RKS2_)
    t._ZN4QMapI7QStringN10QtMobility35QOrganizerItemDetailFieldDefinitionEE6removeERKS0_ 0x00023a5e   Section      168  QtOrganizer.in(t._ZN4QMapI7QStringN10QtMobility35QOrganizerItemDetailFieldDefinitionEE6removeERKS0_)
    t._ZN4QMapI7QStringN10QtMobility35QOrganizerItemDetailFieldDefinitionEE8freeDataEP8QMapData 0x00023b06   Section       42  QtOrganizer.in(t._ZN4QMapI7QStringN10QtMobility35QOrganizerItemDetailFieldDefinitionEE8freeDataEP8QMapData)
    t._ZN4QMapI7QStringN10QtMobility35QOrganizerItemDetailFieldDefinitionEEC1ERKS3_ 0x00023b30   Section       32  QtOrganizer.in(t._ZN4QMapI7QStringN10QtMobility35QOrganizerItemDetailFieldDefinitionEEC1ERKS3_)
    t._ZN4QMapI7QStringN10QtMobility35QOrganizerItemDetailFieldDefinitionEEC1Ev 0x00023b50   Section       24  QtOrganizer.in(t._ZN4QMapI7QStringN10QtMobility35QOrganizerItemDetailFieldDefinitionEEC1Ev)
    t._ZN4QMapI7QStringN10QtMobility35QOrganizerItemDetailFieldDefinitionEED1Ev 0x00023b68   Section       32  QtOrganizer.in(t._ZN4QMapI7QStringN10QtMobility35QOrganizerItemDetailFieldDefinitionEED1Ev)
    t._ZN4QMapI7QStringN10QtMobility35QOrganizerItemDetailFieldDefinitionEEaSERKS3_ 0x00023b88   Section       58  QtOrganizer.in(t._ZN4QMapI7QStringN10QtMobility35QOrganizerItemDetailFieldDefinitionEEaSERKS3_)
    t._ZN4QMapI7QStringPN10QtMobility30QOrganizerItemMemoryEngineDataEE11node_createEP8QMapDataPPNS5_4NodeERKS0_RKS3_ 0x00023bc2   Section       86  QtOrganizer.in(t._ZN4QMapI7QStringPN10QtMobility30QOrganizerItemMemoryEngineDataEE11node_createEP8QMapDataPPNS5_4NodeERKS0_RKS3_)
    t._ZN4QMapI7QStringPN10QtMobility30QOrganizerItemMemoryEngineDataEE11node_createEP8QMapDataPPNS5_4NodeERKS0_RKS3_.clean 0x00023c18   Section       20  QtOrganizer.in(t._ZN4QMapI7QStringPN10QtMobility30QOrganizerItemMemoryEngineDataEE11node_createEP8QMapDataPPNS5_4NodeERKS0_RKS3_.clean)
    t._ZN4QMapI7QStringPN10QtMobility30QOrganizerItemMemoryEngineDataEE13detach_helperEv 0x00023c2c   Section      114  QtOrganizer.in(t._ZN4QMapI7QStringPN10QtMobility30QOrganizerItemMemoryEngineDataEE13detach_helperEv)
    t._ZN4QMapI7QStringPN10QtMobility30QOrganizerItemMemoryEngineDataEE13detach_helperEv.clean 0x00023c9e   Section        8  QtOrganizer.in(t._ZN4QMapI7QStringPN10QtMobility30QOrganizerItemMemoryEngineDataEE13detach_helperEv.clean)
    t._ZN4QMapI7QStringPN10QtMobility30QOrganizerItemMemoryEngineDataEE6detachEv 0x00023ca6   Section       26  QtOrganizer.in(t._ZN4QMapI7QStringPN10QtMobility30QOrganizerItemMemoryEngineDataEE6detachEv)
    t._ZN4QMapI7QStringPN10QtMobility30QOrganizerItemMemoryEngineDataEE6removeERKS0_ 0x00023cc0   Section      158  QtOrganizer.in(t._ZN4QMapI7QStringPN10QtMobility30QOrganizerItemMemoryEngineDataEE6removeERKS0_)
    t._ZN4QMapI7QStringPN10QtMobility30QOrganizerItemMemoryEngineDataEE8freeDataEP8QMapData 0x00023d5e   Section       32  QtOrganizer.in(t._ZN4QMapI7QStringPN10QtMobility30QOrganizerItemMemoryEngineDataEE8freeDataEP8QMapData)
    t._ZN4QMapI7QStringPN10QtMobility30QOrganizerItemMemoryEngineDataEED1Ev 0x00023d7e   Section       32  QtOrganizer.in(t._ZN4QMapI7QStringPN10QtMobility30QOrganizerItemMemoryEngineDataEED1Ev)
    t._ZN4QMapI7QStringS0_E11node_createEP8QMapDataPPNS2_4NodeERKS0_S8_ 0x00023d9e   Section      106  QtOrganizer.in(t._ZN4QMapI7QStringS0_E11node_createEP8QMapDataPPNS2_4NodeERKS0_S8_)
    t._ZN4QMapI7QStringS0_E11node_createEP8QMapDataPPNS2_4NodeERKS0_S8_.clean 0x00023e08   Section       38  QtOrganizer.in(t._ZN4QMapI7QStringS0_E11node_createEP8QMapDataPPNS2_4NodeERKS0_S8_.clean)
    t._ZN4QMapI7QStringS0_E13detach_helperEv 0x00023e2e   Section      114  QtOrganizer.in(t._ZN4QMapI7QStringS0_E13detach_helperEv)
    t._ZN4QMapI7QStringS0_E13detach_helperEv.clean 0x00023ea0   Section        8  QtOrganizer.in(t._ZN4QMapI7QStringS0_E13detach_helperEv.clean)
    t._ZN4QMapI7QStringS0_E6detachEv         0x00023ea8   Section       26  QtOrganizer.in(t._ZN4QMapI7QStringS0_E6detachEv)
    t._ZN4QMapI7QStringS0_E6insertERKS0_S3_  0x00023ec2   Section      140  QtOrganizer.in(t._ZN4QMapI7QStringS0_E6insertERKS0_S3_)
    t._ZN4QMapI7QStringS0_E6removeERKS0_     0x00023f4e   Section      168  QtOrganizer.in(t._ZN4QMapI7QStringS0_E6removeERKS0_)
    t._ZN4QMapI7QStringS0_E8freeDataEP8QMapData 0x00023ff6   Section       42  QtOrganizer.in(t._ZN4QMapI7QStringS0_E8freeDataEP8QMapData)
    t._ZN4QMapI7QStringS0_EC1Ev              0x00024020   Section       24  QtOrganizer.in(t._ZN4QMapI7QStringS0_EC1Ev)
    t._ZN4QMapI7QStringS0_ED1Ev              0x00024038   Section       32  QtOrganizer.in(t._ZN4QMapI7QStringS0_ED1Ev)
    t._ZN4QMapI7QStringS_IS0_N10QtMobility30QOrganizerItemDetailDefinitionEEE11node_createEP8QMapDataPPNS5_4NodeERKS0_RKS3_ 0x00024058   Section      106  QtOrganizer.in(t._ZN4QMapI7QStringS_IS0_N10QtMobility30QOrganizerItemDetailDefinitionEEE11node_createEP8QMapDataPPNS5_4NodeERKS0_RKS3_)
    t._ZN4QMapI7QStringS_IS0_N10QtMobility30QOrganizerItemDetailDefinitionEEE11node_createEP8QMapDataPPNS5_4NodeERKS0_RKS3_.clean 0x000240c2   Section       38  QtOrganizer.in(t._ZN4QMapI7QStringS_IS0_N10QtMobility30QOrganizerItemDetailDefinitionEEE11node_createEP8QMapDataPPNS5_4NodeERKS0_RKS3_.clean)
    t._ZN4QMapI7QStringS_IS0_N10QtMobility30QOrganizerItemDetailDefinitionEEE13detach_helperEv 0x000240e8   Section      114  QtOrganizer.in(t._ZN4QMapI7QStringS_IS0_N10QtMobility30QOrganizerItemDetailDefinitionEEE13detach_helperEv)
    t._ZN4QMapI7QStringS_IS0_N10QtMobility30QOrganizerItemDetailDefinitionEEE13detach_helperEv.clean 0x0002415a   Section        8  QtOrganizer.in(t._ZN4QMapI7QStringS_IS0_N10QtMobility30QOrganizerItemDetailDefinitionEEE13detach_helperEv.clean)
    t._ZN4QMapI7QStringS_IS0_N10QtMobility30QOrganizerItemDetailDefinitionEEE6detachEv 0x00024162   Section       26  QtOrganizer.in(t._ZN4QMapI7QStringS_IS0_N10QtMobility30QOrganizerItemDetailDefinitionEEE6detachEv)
    t._ZN4QMapI7QStringS_IS0_N10QtMobility30QOrganizerItemDetailDefinitionEEE6insertERKS0_RKS3_ 0x0002417c   Section      128  QtOrganizer.in(t._ZN4QMapI7QStringS_IS0_N10QtMobility30QOrganizerItemDetailDefinitionEEE6insertERKS0_RKS3_)
    t._ZN4QMapI7QStringS_IS0_N10QtMobility30QOrganizerItemDetailDefinitionEEE8freeDataEP8QMapData 0x000241fc   Section       42  QtOrganizer.in(t._ZN4QMapI7QStringS_IS0_N10QtMobility30QOrganizerItemDetailDefinitionEEE8freeDataEP8QMapData)
    t._ZN4QMapI7QStringS_IS0_N10QtMobility30QOrganizerItemDetailDefinitionEEEC1ERKS4_ 0x00024226   Section       32  QtOrganizer.in(t._ZN4QMapI7QStringS_IS0_N10QtMobility30QOrganizerItemDetailDefinitionEEEC1ERKS4_)
    t._ZN4QMapI7QStringS_IS0_N10QtMobility30QOrganizerItemDetailDefinitionEEEC1Ev 0x00024248   Section       24  QtOrganizer.in(t._ZN4QMapI7QStringS_IS0_N10QtMobility30QOrganizerItemDetailDefinitionEEEC1Ev)
    t._ZN4QMapI7QStringS_IS0_N10QtMobility30QOrganizerItemDetailDefinitionEEED1Ev 0x00024260   Section       32  QtOrganizer.in(t._ZN4QMapI7QStringS_IS0_N10QtMobility30QOrganizerItemDetailDefinitionEEED1Ev)
    t._ZN4QMapIN10QtMobility22QOrganizerCollectionIdENS0_16QOrganizerItemIdEE11node_createEP8QMapDataPPNS4_4NodeERKS1_RKS2_ 0x00024280   Section      106  QtOrganizer.in(t._ZN4QMapIN10QtMobility22QOrganizerCollectionIdENS0_16QOrganizerItemIdEE11node_createEP8QMapDataPPNS4_4NodeERKS1_RKS2_)
    t._ZN4QMapIN10QtMobility22QOrganizerCollectionIdENS0_16QOrganizerItemIdEE11node_createEP8QMapDataPPNS4_4NodeERKS1_RKS2_.clean 0x000242ea   Section       38  QtOrganizer.in(t._ZN4QMapIN10QtMobility22QOrganizerCollectionIdENS0_16QOrganizerItemIdEE11node_createEP8QMapDataPPNS4_4NodeERKS1_RKS2_.clean)
    t._ZN4QMapIN10QtMobility22QOrganizerCollectionIdENS0_16QOrganizerItemIdEE13detach_helperEv 0x00024310   Section      114  QtOrganizer.in(t._ZN4QMapIN10QtMobility22QOrganizerCollectionIdENS0_16QOrganizerItemIdEE13detach_helperEv)
    t._ZN4QMapIN10QtMobility22QOrganizerCollectionIdENS0_16QOrganizerItemIdEE13detach_helperEv.clean 0x00024382   Section        8  QtOrganizer.in(t._ZN4QMapIN10QtMobility22QOrganizerCollectionIdENS0_16QOrganizerItemIdEE13detach_helperEv.clean)
    t._ZN4QMapIN10QtMobility22QOrganizerCollectionIdENS0_16QOrganizerItemIdEE5eraseENS3_8iteratorE 0x0002438a   Section      172  QtOrganizer.in(t._ZN4QMapIN10QtMobility22QOrganizerCollectionIdENS0_16QOrganizerItemIdEE5eraseENS3_8iteratorE)
    t._ZN4QMapIN10QtMobility22QOrganizerCollectionIdENS0_16QOrganizerItemIdEE6detachEv 0x00024436   Section       26  QtOrganizer.in(t._ZN4QMapIN10QtMobility22QOrganizerCollectionIdENS0_16QOrganizerItemIdEE6detachEv)
    t._ZN4QMapIN10QtMobility22QOrganizerCollectionIdENS0_16QOrganizerItemIdEE6removeERKS1_ 0x00024450   Section      168  QtOrganizer.in(t._ZN4QMapIN10QtMobility22QOrganizerCollectionIdENS0_16QOrganizerItemIdEE6removeERKS1_)
    t._ZN4QMapIN10QtMobility22QOrganizerCollectionIdENS0_16QOrganizerItemIdEE8freeDataEP8QMapData 0x000244f8   Section       42  QtOrganizer.in(t._ZN4QMapIN10QtMobility22QOrganizerCollectionIdENS0_16QOrganizerItemIdEE8freeDataEP8QMapData)
    t._ZN4QMapIN10QtMobility22QOrganizerCollectionIdENS0_16QOrganizerItemIdEED1Ev 0x00024522   Section       32  QtOrganizer.in(t._ZN4QMapIN10QtMobility22QOrganizerCollectionIdENS0_16QOrganizerItemIdEED1Ev)
    t._ZN4QMapIiN10QtMobility17QOrganizerManager5ErrorEE11node_createEP8QMapDataPPNS4_4NodeERKiRKS2_ 0x00024542   Section       60  QtOrganizer.in(t._ZN4QMapIiN10QtMobility17QOrganizerManager5ErrorEE11node_createEP8QMapDataPPNS4_4NodeERKiRKS2_)
    t._ZN4QMapIiN10QtMobility17QOrganizerManager5ErrorEE13detach_helperEv 0x0002457e   Section      114  QtOrganizer.in(t._ZN4QMapIiN10QtMobility17QOrganizerManager5ErrorEE13detach_helperEv)
    t._ZN4QMapIiN10QtMobility17QOrganizerManager5ErrorEE13detach_helperEv.clean 0x000245f0   Section        8  QtOrganizer.in(t._ZN4QMapIiN10QtMobility17QOrganizerManager5ErrorEE13detach_helperEv.clean)
    t._ZN4QMapIiN10QtMobility17QOrganizerManager5ErrorEE5beginEv 0x000245f8   Section       30  QtOrganizer.in(t._ZN4QMapIiN10QtMobility17QOrganizerManager5ErrorEE5beginEv)
    t._ZN4QMapIiN10QtMobility17QOrganizerManager5ErrorEE5clearEv 0x00024616   Section       68  QtOrganizer.in(t._ZN4QMapIiN10QtMobility17QOrganizerManager5ErrorEE5clearEv)
    t._ZN4QMapIiN10QtMobility17QOrganizerManager5ErrorEE5clearEv.clean 0x0002465a   Section       10  QtOrganizer.in(t._ZN4QMapIiN10QtMobility17QOrganizerManager5ErrorEE5clearEv.clean)
    t._ZN4QMapIiN10QtMobility17QOrganizerManager5ErrorEE6insertERKiRKS2_ 0x00024664   Section      142  QtOrganizer.in(t._ZN4QMapIiN10QtMobility17QOrganizerManager5ErrorEE6insertERKiRKS2_)
    t._ZN4QMapIiN10QtMobility17QOrganizerManager5ErrorEE8freeDataEP8QMapData 0x000246f2   Section       22  QtOrganizer.in(t._ZN4QMapIiN10QtMobility17QOrganizerManager5ErrorEE8freeDataEP8QMapData)
    t._ZN4QMapIiN10QtMobility17QOrganizerManager5ErrorEEC1Ev 0x00024708   Section       24  QtOrganizer.in(t._ZN4QMapIiN10QtMobility17QOrganizerManager5ErrorEEC1Ev)
    t._ZN4QMapIiN10QtMobility17QOrganizerManager5ErrorEED1Ev 0x00024720   Section       32  QtOrganizer.in(t._ZN4QMapIiN10QtMobility17QOrganizerManager5ErrorEED1Ev)
    t._ZN4QMapIiN10QtMobility17QOrganizerManager5ErrorEEaSERKS3_ 0x00024740   Section       58  QtOrganizer.in(t._ZN4QMapIiN10QtMobility17QOrganizerManager5ErrorEEaSERKS3_)
    t._ZN4QSetI5QDateE14const_iteratorppEv   0x0002477a   Section       16  QtOrganizer.in(t._ZN4QSetI5QDateE14const_iteratorppEv)
    t._ZN4QSetI5QDateEC1ERKS1_               0x0002478c   Section       88  QtOrganizer.in(t._ZN4QSetI5QDateEC1ERKS1_)
    t._ZN4QSetI5QDateEC1Ev                   0x000247e4   Section       24  QtOrganizer.in(t._ZN4QSetI5QDateEC1Ev)
    t._ZN4QSetI5QDateElsERKS0_               0x000247fc   Section       20  QtOrganizer.in(t._ZN4QSetI5QDateElsERKS0_)
    t._ZN4QSetI7QStringE6insertERKS0_        0x00024810   Section       22  QtOrganizer.in(t._ZN4QSetI7QStringE6insertERKS0_)
    t._ZN4QSetIN10QtMobility16QOrganizerItemIdEE5clearEv 0x00024826   Section       68  QtOrganizer.in(t._ZN4QSetIN10QtMobility16QOrganizerItemIdEE5clearEv)
    t._ZN4QSetIN10QtMobility16QOrganizerItemIdEE5clearEv.clean 0x0002486a   Section       10  QtOrganizer.in(t._ZN4QSetIN10QtMobility16QOrganizerItemIdEE5clearEv.clean)
    t._ZN4QSetIN10QtMobility16QOrganizerItemIdEE6insertERKS1_ 0x00024874   Section       22  QtOrganizer.in(t._ZN4QSetIN10QtMobility16QOrganizerItemIdEE6insertERKS1_)
    t._ZN4QSetIN10QtMobility16QOrganizerItemIdEEC1ERKS2_ 0x0002488a   Section       32  QtOrganizer.in(t._ZN4QSetIN10QtMobility16QOrganizerItemIdEEC1ERKS2_)
    t._ZN4QSetIN10QtMobility16QOrganizerItemIdEEC1Ev 0x000248aa   Section        8  QtOrganizer.in(t._ZN4QSetIN10QtMobility16QOrganizerItemIdEEC1Ev)
    t._ZN4QSetIN10QtMobility22QOrganizerCollectionIdEE5clearEv 0x000248b2   Section       26  QtOrganizer.in(t._ZN4QSetIN10QtMobility22QOrganizerCollectionIdEE5clearEv)
    t._ZN4QSetIN10QtMobility22QOrganizerCollectionIdEE5clearEv.clean 0x000248cc   Section       10  QtOrganizer.in(t._ZN4QSetIN10QtMobility22QOrganizerCollectionIdEE5clearEv.clean)
    t._ZN4QSetIN10QtMobility22QOrganizerCollectionIdEE6insertERKS1_ 0x000248d6   Section       22  QtOrganizer.in(t._ZN4QSetIN10QtMobility22QOrganizerCollectionIdEE6insertERKS1_)
    t._ZN4QSetIN10QtMobility22QOrganizerCollectionIdEEC1ERKS2_ 0x000248ec   Section       32  QtOrganizer.in(t._ZN4QSetIN10QtMobility22QOrganizerCollectionIdEEC1ERKS2_)
    t._ZN4QSetIN10QtMobility22QOrganizerCollectionIdEEC1Ev 0x0002490c   Section        8  QtOrganizer.in(t._ZN4QSetIN10QtMobility22QOrganizerCollectionIdEEC1Ev)
    t._ZN4QSetIN10QtMobility24QOrganizerRecurrenceRule5MonthEEC1ERKS3_ 0x00024914   Section       44  QtOrganizer.in(t._ZN4QSetIN10QtMobility24QOrganizerRecurrenceRule5MonthEEC1ERKS3_)
    t._ZN4QSetIN10QtMobility24QOrganizerRecurrenceRuleEE14const_iteratorppEv 0x00024940   Section       16  QtOrganizer.in(t._ZN4QSetIN10QtMobility24QOrganizerRecurrenceRuleEE14const_iteratorppEv)
    t._ZN4QSetIN10QtMobility24QOrganizerRecurrenceRuleEE5beginEv 0x00024950   Section       40  QtOrganizer.in(t._ZN4QSetIN10QtMobility24QOrganizerRecurrenceRuleEE5beginEv)
    t._ZN4QSetIN10QtMobility24QOrganizerRecurrenceRuleEEC1ERKS2_ 0x00024978   Section       88  QtOrganizer.in(t._ZN4QSetIN10QtMobility24QOrganizerRecurrenceRuleEEC1ERKS2_)
    t._ZN4QSetIN10QtMobility24QOrganizerRecurrenceRuleEEC1Ev 0x000249d0   Section       24  QtOrganizer.in(t._ZN4QSetIN10QtMobility24QOrganizerRecurrenceRuleEEC1Ev)
    t._ZN4QSetIN10QtMobility24QOrganizerRecurrenceRuleEElsERKS1_ 0x000249e8   Section       20  QtOrganizer.in(t._ZN4QSetIN10QtMobility24QOrganizerRecurrenceRuleEElsERKS1_)
    t._ZN4QSetIN2Qt9DayOfWeekEEC1ERKS2_      0x000249fc   Section       44  QtOrganizer.in(t._ZN4QSetIN2Qt9DayOfWeekEEC1ERKS2_)
    t._ZN4QSetIN2Qt9DayOfWeekEEC1Ev          0x00024a28   Section       24  QtOrganizer.in(t._ZN4QSetIN2Qt9DayOfWeekEEC1Ev)
    t._ZN4QSetIN2Qt9DayOfWeekEElsERKS1_      0x00024a40   Section       20  QtOrganizer.in(t._ZN4QSetIN2Qt9DayOfWeekEElsERKS1_)
    t._ZN4QSetIiE14const_iteratorppEv        0x00024a54   Section       16  QtOrganizer.in(t._ZN4QSetIiE14const_iteratorppEv)
    t._ZN4QSetIiEC1ERKS0_                    0x00024a64   Section       44  QtOrganizer.in(t._ZN4QSetIiEC1ERKS0_)
    t._ZN4QSetIiEC1Ev                        0x00024a90   Section       24  QtOrganizer.in(t._ZN4QSetIiEC1Ev)
    t._ZN4QSetIiEaSERKS0_                    0x00024aa8   Section       58  QtOrganizer.in(t._ZN4QSetIiEaSERKS0_)
    t._ZN4QSetIiElsERKi                      0x00024ae2   Section       98  QtOrganizer.in(t._ZN4QSetIiElsERKi)
    t._ZN5QHashI5QDate15QHashDummyValueE11deleteNode2EPN9QHashData4NodeE 0x00024b44   Section        2  QtOrganizer.in(t._ZN5QHashI5QDate15QHashDummyValueE11deleteNode2EPN9QHashData4NodeE)
    t._ZN5QHashI5QDate15QHashDummyValueE13duplicateNodeEPN9QHashData4NodeEPv 0x00024b46   Section       20  QtOrganizer.in(t._ZN5QHashI5QDate15QHashDummyValueE13duplicateNodeEPN9QHashData4NodeEPv)
    t._ZN5QHashI5QDate15QHashDummyValueE6detachEv 0x00024b5c   Section       68  QtOrganizer.in(t._ZN5QHashI5QDate15QHashDummyValueE6detachEv)
    t._ZN5QHashI5QDate15QHashDummyValueE6insertERKS0_RKS1_ 0x00024ba0   Section      160  QtOrganizer.in(t._ZN5QHashI5QDate15QHashDummyValueE6insertERKS0_RKS1_)
    t._ZN5QHashI5QDate15QHashDummyValueE8freeDataEP9QHashData 0x00024c40   Section       16  QtOrganizer.in(t._ZN5QHashI5QDate15QHashDummyValueE8freeDataEP9QHashData)
    t._ZN5QHashI5QDate15QHashDummyValueED1Ev 0x00024c50   Section       28  QtOrganizer.in(t._ZN5QHashI5QDate15QHashDummyValueED1Ev)
    t._ZN5QHashI7QString15QHashDummyValueE11deleteNode2EPN9QHashData4NodeE 0x00024c6c   Section       10  QtOrganizer.in(t._ZN5QHashI7QString15QHashDummyValueE11deleteNode2EPN9QHashData4NodeE)
    t._ZN5QHashI7QString15QHashDummyValueE13duplicateNodeEPN9QHashData4NodeEPv 0x00024c76   Section       28  QtOrganizer.in(t._ZN5QHashI7QString15QHashDummyValueE13duplicateNodeEPN9QHashData4NodeEPv)
    t._ZN5QHashI7QString15QHashDummyValueE13duplicateNodeEPN9QHashData4NodeEPv.clean 0x00024c92   Section       12  QtOrganizer.in(t._ZN5QHashI7QString15QHashDummyValueE13duplicateNodeEPN9QHashData4NodeEPv.clean)
    t._ZN5QHashI7QString15QHashDummyValueE6insertERKS0_RKS1_ 0x00024ca0   Section      168  QtOrganizer.in(t._ZN5QHashI7QString15QHashDummyValueE6insertERKS0_RKS1_)
    t._ZN5QHashI7QString15QHashDummyValueE6insertERKS0_RKS1_.clean 0x00024d48   Section       12  QtOrganizer.in(t._ZN5QHashI7QString15QHashDummyValueE6insertERKS0_RKS1_.clean)
    t._ZN5QHashI7QString15QHashDummyValueE8freeDataEP9QHashData 0x00024d54   Section       16  QtOrganizer.in(t._ZN5QHashI7QString15QHashDummyValueE8freeDataEP9QHashData)
    t._ZN5QHashI7QString15QHashDummyValueED1Ev 0x00024d64   Section       28  QtOrganizer.in(t._ZN5QHashI7QString15QHashDummyValueED1Ev)
    t._ZN5QHashI7QStringPN10QtMobility30QOrganizerManagerEngineFactoryEE11deleteNode2EPN9QHashData4NodeE 0x00024d80   Section       10  QtOrganizer.in(t._ZN5QHashI7QStringPN10QtMobility30QOrganizerManagerEngineFactoryEE11deleteNode2EPN9QHashData4NodeE)
    t._ZN5QHashI7QStringPN10QtMobility30QOrganizerManagerEngineFactoryEE11insertMultiERKS0_RKS3_ 0x00024d8a   Section      102  QtOrganizer.in(t._ZN5QHashI7QStringPN10QtMobility30QOrganizerManagerEngineFactoryEE11insertMultiERKS0_RKS3_)
    t._ZN5QHashI7QStringPN10QtMobility30QOrganizerManagerEngineFactoryEE11insertMultiERKS0_RKS3_.clean 0x00024df0   Section       12  QtOrganizer.in(t._ZN5QHashI7QStringPN10QtMobility30QOrganizerManagerEngineFactoryEE11insertMultiERKS0_RKS3_.clean)
    t._ZN5QHashI7QStringPN10QtMobility30QOrganizerManagerEngineFactoryEE13detach_helperEv 0x00024dfc   Section       56  QtOrganizer.in(t._ZN5QHashI7QStringPN10QtMobility30QOrganizerManagerEngineFactoryEE13detach_helperEv)
    t._ZN5QHashI7QStringPN10QtMobility30QOrganizerManagerEngineFactoryEE13duplicateNodeEPN9QHashData4NodeEPv 0x00024e34   Section       30  QtOrganizer.in(t._ZN5QHashI7QStringPN10QtMobility30QOrganizerManagerEngineFactoryEE13duplicateNodeEPN9QHashData4NodeEPv)
    t._ZN5QHashI7QStringPN10QtMobility30QOrganizerManagerEngineFactoryEE13duplicateNodeEPN9QHashData4NodeEPv.clean 0x00024e52   Section       12  QtOrganizer.in(t._ZN5QHashI7QStringPN10QtMobility30QOrganizerManagerEngineFactoryEE13duplicateNodeEPN9QHashData4NodeEPv.clean)
    t._ZN5QHashI7QStringPN10QtMobility30QOrganizerManagerEngineFactoryEE8freeDataEP9QHashData 0x00024e60   Section       16  QtOrganizer.in(t._ZN5QHashI7QStringPN10QtMobility30QOrganizerManagerEngineFactoryEE8freeDataEP9QHashData)
    t._ZN5QHashI7QStringPN10QtMobility30QOrganizerManagerEngineFactoryEEC1Ev 0x00024e70   Section       24  QtOrganizer.in(t._ZN5QHashI7QStringPN10QtMobility30QOrganizerManagerEngineFactoryEEC1Ev)
    t._ZN5QHashI7QStringPN10QtMobility30QOrganizerManagerEngineFactoryEED1Ev 0x00024e88   Section       28  QtOrganizer.in(t._ZN5QHashI7QStringPN10QtMobility30QOrganizerManagerEngineFactoryEED1Ev)
    t._ZN5QHashI7QStringPcE11deleteNode2EPN9QHashData4NodeE 0x00024ea4   Section       10  QtOrganizer.in(t._ZN5QHashI7QStringPcE11deleteNode2EPN9QHashData4NodeE)
    t._ZN5QHashI7QStringPcE13detach_helperEv 0x00024eb0   Section       56  QtOrganizer.in(t._ZN5QHashI7QStringPcE13detach_helperEv)
    t._ZN5QHashI7QStringPcE13duplicateNodeEPN9QHashData4NodeEPv 0x00024ee8   Section       30  QtOrganizer.in(t._ZN5QHashI7QStringPcE13duplicateNodeEPN9QHashData4NodeEPv)
    t._ZN5QHashI7QStringPcE13duplicateNodeEPN9QHashData4NodeEPv.clean 0x00024f06   Section       12  QtOrganizer.in(t._ZN5QHashI7QStringPcE13duplicateNodeEPN9QHashData4NodeEPv.clean)
    t._ZN5QHashI7QStringPcE6insertERKS0_RKS1_ 0x00024f12   Section      134  QtOrganizer.in(t._ZN5QHashI7QStringPcE6insertERKS0_RKS1_)
    t._ZN5QHashI7QStringPcE6insertERKS0_RKS1_.clean 0x00024f98   Section       12  QtOrganizer.in(t._ZN5QHashI7QStringPcE6insertERKS0_RKS1_.clean)
    t._ZN5QHashI7QStringPcE8freeDataEP9QHashData 0x00024fa4   Section       16  QtOrganizer.in(t._ZN5QHashI7QStringPcE8freeDataEP9QHashData)
    t._ZN5QHashI7QStringPcEC1Ev              0x00024fb4   Section       24  QtOrganizer.in(t._ZN5QHashI7QStringPcEC1Ev)
    t._ZN5QHashI7QStringPcED1Ev              0x00024fcc   Section       28  QtOrganizer.in(t._ZN5QHashI7QStringPcED1Ev)
    t._ZN5QHashIN10QtMobility16QOrganizerItemIdE15QHashDummyValueE11deleteNode2EPN9QHashData4NodeE 0x00024fe8   Section       10  QtOrganizer.in(t._ZN5QHashIN10QtMobility16QOrganizerItemIdE15QHashDummyValueE11deleteNode2EPN9QHashData4NodeE)
    t._ZN5QHashIN10QtMobility16QOrganizerItemIdE15QHashDummyValueE13detach_helperEv 0x00024ff4   Section       56  QtOrganizer.in(t._ZN5QHashIN10QtMobility16QOrganizerItemIdE15QHashDummyValueE13detach_helperEv)
    t._ZN5QHashIN10QtMobility16QOrganizerItemIdE15QHashDummyValueE13duplicateNodeEPN9QHashData4NodeEPv 0x0002502c   Section       28  QtOrganizer.in(t._ZN5QHashIN10QtMobility16QOrganizerItemIdE15QHashDummyValueE13duplicateNodeEPN9QHashData4NodeEPv)
    t._ZN5QHashIN10QtMobility16QOrganizerItemIdE15QHashDummyValueE13duplicateNodeEPN9QHashData4NodeEPv.clean 0x00025048   Section       12  QtOrganizer.in(t._ZN5QHashIN10QtMobility16QOrganizerItemIdE15QHashDummyValueE13duplicateNodeEPN9QHashData4NodeEPv.clean)
    t._ZN5QHashIN10QtMobility16QOrganizerItemIdE15QHashDummyValueE6detachEv 0x00025054   Section       26  QtOrganizer.in(t._ZN5QHashIN10QtMobility16QOrganizerItemIdE15QHashDummyValueE6detachEv)
    t._ZN5QHashIN10QtMobility16QOrganizerItemIdE15QHashDummyValueE6insertERKS1_RKS2_ 0x0002506e   Section      120  QtOrganizer.in(t._ZN5QHashIN10QtMobility16QOrganizerItemIdE15QHashDummyValueE6insertERKS1_RKS2_)
    t._ZN5QHashIN10QtMobility16QOrganizerItemIdE15QHashDummyValueE6insertERKS1_RKS2_.clean 0x000250e6   Section       12  QtOrganizer.in(t._ZN5QHashIN10QtMobility16QOrganizerItemIdE15QHashDummyValueE6insertERKS1_RKS2_.clean)
    t._ZN5QHashIN10QtMobility16QOrganizerItemIdE15QHashDummyValueE8freeDataEP9QHashData 0x000250f4   Section       16  QtOrganizer.in(t._ZN5QHashIN10QtMobility16QOrganizerItemIdE15QHashDummyValueE8freeDataEP9QHashData)
    t._ZN5QHashIN10QtMobility16QOrganizerItemIdE15QHashDummyValueEC1Ev 0x00025104   Section       24  QtOrganizer.in(t._ZN5QHashIN10QtMobility16QOrganizerItemIdE15QHashDummyValueEC1Ev)
    t._ZN5QHashIN10QtMobility16QOrganizerItemIdE15QHashDummyValueED1Ev 0x0002511c   Section       28  QtOrganizer.in(t._ZN5QHashIN10QtMobility16QOrganizerItemIdE15QHashDummyValueED1Ev)
    t._ZN5QHashIN10QtMobility16QOrganizerItemIdENS0_14QOrganizerItemEE11deleteNode2EPN9QHashData4NodeE 0x00025138   Section       18  QtOrganizer.in(t._ZN5QHashIN10QtMobility16QOrganizerItemIdENS0_14QOrganizerItemEE11deleteNode2EPN9QHashData4NodeE)
    t._ZN5QHashIN10QtMobility16QOrganizerItemIdENS0_14QOrganizerItemEE11deleteNode2EPN9QHashData4NodeE.clean 0x0002514a   Section       12  QtOrganizer.in(t._ZN5QHashIN10QtMobility16QOrganizerItemIdENS0_14QOrganizerItemEE11deleteNode2EPN9QHashData4NodeE.clean)
    t._ZN5QHashIN10QtMobility16QOrganizerItemIdENS0_14QOrganizerItemEE13duplicateNodeEPN9QHashData4NodeEPv 0x00025156   Section       30  QtOrganizer.in(t._ZN5QHashIN10QtMobility16QOrganizerItemIdENS0_14QOrganizerItemEE13duplicateNodeEPN9QHashData4NodeEPv)
    t._ZN5QHashIN10QtMobility16QOrganizerItemIdENS0_14QOrganizerItemEE13duplicateNodeEPN9QHashData4NodeEPv.clean 0x00025174   Section       12  QtOrganizer.in(t._ZN5QHashIN10QtMobility16QOrganizerItemIdENS0_14QOrganizerItemEE13duplicateNodeEPN9QHashData4NodeEPv.clean)
    t._ZN5QHashIN10QtMobility16QOrganizerItemIdENS0_14QOrganizerItemEE14const_iteratorppEv 0x00025180   Section       16  QtOrganizer.in(t._ZN5QHashIN10QtMobility16QOrganizerItemIdENS0_14QOrganizerItemEE14const_iteratorppEv)
    t._ZN5QHashIN10QtMobility16QOrganizerItemIdENS0_14QOrganizerItemEE4findERKS1_ 0x00025190   Section       24  QtOrganizer.in(t._ZN5QHashIN10QtMobility16QOrganizerItemIdENS0_14QOrganizerItemEE4findERKS1_)
    t._ZN5QHashIN10QtMobility16QOrganizerItemIdENS0_14QOrganizerItemEE6detachEv 0x000251a8   Section       68  QtOrganizer.in(t._ZN5QHashIN10QtMobility16QOrganizerItemIdENS0_14QOrganizerItemEE6detachEv)
    t._ZN5QHashIN10QtMobility16QOrganizerItemIdENS0_14QOrganizerItemEE6insertERKS1_RKS2_ 0x000251ec   Section      122  QtOrganizer.in(t._ZN5QHashIN10QtMobility16QOrganizerItemIdENS0_14QOrganizerItemEE6insertERKS1_RKS2_)
    t._ZN5QHashIN10QtMobility16QOrganizerItemIdENS0_14QOrganizerItemEE6insertERKS1_RKS2_.clean 0x00025266   Section       12  QtOrganizer.in(t._ZN5QHashIN10QtMobility16QOrganizerItemIdENS0_14QOrganizerItemEE6insertERKS1_RKS2_.clean)
    t._ZN5QHashIN10QtMobility16QOrganizerItemIdENS0_14QOrganizerItemEE6removeERKS1_ 0x00025272   Section      126  QtOrganizer.in(t._ZN5QHashIN10QtMobility16QOrganizerItemIdENS0_14QOrganizerItemEE6removeERKS1_)
    t._ZN5QHashIN10QtMobility16QOrganizerItemIdENS0_14QOrganizerItemEE8freeDataEP9QHashData 0x000252f0   Section       16  QtOrganizer.in(t._ZN5QHashIN10QtMobility16QOrganizerItemIdENS0_14QOrganizerItemEE8freeDataEP9QHashData)
    t._ZN5QHashIN10QtMobility16QOrganizerItemIdENS0_14QOrganizerItemEED1Ev 0x00025300   Section       28  QtOrganizer.in(t._ZN5QHashIN10QtMobility16QOrganizerItemIdENS0_14QOrganizerItemEED1Ev)
    t._ZN5QHashIN10QtMobility16QOrganizerItemIdES1_E10deleteNodeEP9QHashNodeIS1_S1_E 0x0002531c   Section       22  QtOrganizer.in(t._ZN5QHashIN10QtMobility16QOrganizerItemIdES1_E10deleteNodeEP9QHashNodeIS1_S1_E)
    t._ZN5QHashIN10QtMobility16QOrganizerItemIdES1_E11deleteNode2EPN9QHashData4NodeE 0x00025332   Section       18  QtOrganizer.in(t._ZN5QHashIN10QtMobility16QOrganizerItemIdES1_E11deleteNode2EPN9QHashData4NodeE)
    t._ZN5QHashIN10QtMobility16QOrganizerItemIdES1_E11deleteNode2EPN9QHashData4NodeE.clean 0x00025344   Section       12  QtOrganizer.in(t._ZN5QHashIN10QtMobility16QOrganizerItemIdES1_E11deleteNode2EPN9QHashData4NodeE.clean)
    t._ZN5QHashIN10QtMobility16QOrganizerItemIdES1_E13duplicateNodeEPN9QHashData4NodeEPv 0x00025350   Section       30  QtOrganizer.in(t._ZN5QHashIN10QtMobility16QOrganizerItemIdES1_E13duplicateNodeEPN9QHashData4NodeEPv)
    t._ZN5QHashIN10QtMobility16QOrganizerItemIdES1_E13duplicateNodeEPN9QHashData4NodeEPv.clean 0x0002536e   Section       12  QtOrganizer.in(t._ZN5QHashIN10QtMobility16QOrganizerItemIdES1_E13duplicateNodeEPN9QHashData4NodeEPv.clean)
    t._ZN5QHashIN10QtMobility16QOrganizerItemIdES1_E5eraseENS2_8iteratorE 0x0002537a   Section       74  QtOrganizer.in(t._ZN5QHashIN10QtMobility16QOrganizerItemIdES1_E5eraseENS2_8iteratorE)
    t._ZN5QHashIN10QtMobility16QOrganizerItemIdES1_E6detachEv 0x000253c4   Section       68  QtOrganizer.in(t._ZN5QHashIN10QtMobility16QOrganizerItemIdES1_E6detachEv)
    t._ZN5QHashIN10QtMobility16QOrganizerItemIdES1_E6removeERKS1_ 0x00025408   Section      118  QtOrganizer.in(t._ZN5QHashIN10QtMobility16QOrganizerItemIdES1_E6removeERKS1_)
    t._ZN5QHashIN10QtMobility16QOrganizerItemIdES1_E8freeDataEP9QHashData 0x00025480   Section       16  QtOrganizer.in(t._ZN5QHashIN10QtMobility16QOrganizerItemIdES1_E8freeDataEP9QHashData)
    t._ZN5QHashIN10QtMobility16QOrganizerItemIdES1_ED1Ev 0x00025490   Section       28  QtOrganizer.in(t._ZN5QHashIN10QtMobility16QOrganizerItemIdES1_ED1Ev)
    t._ZN5QHashIN10QtMobility22QOrganizerCollectionIdE15QHashDummyValueE11deleteNode2EPN9QHashData4NodeE 0x000254ac   Section       10  QtOrganizer.in(t._ZN5QHashIN10QtMobility22QOrganizerCollectionIdE15QHashDummyValueE11deleteNode2EPN9QHashData4NodeE)
    t._ZN5QHashIN10QtMobility22QOrganizerCollectionIdE15QHashDummyValueE13detach_helperEv 0x000254b8   Section       56  QtOrganizer.in(t._ZN5QHashIN10QtMobility22QOrganizerCollectionIdE15QHashDummyValueE13detach_helperEv)
    t._ZN5QHashIN10QtMobility22QOrganizerCollectionIdE15QHashDummyValueE13duplicateNodeEPN9QHashData4NodeEPv 0x000254f0   Section       28  QtOrganizer.in(t._ZN5QHashIN10QtMobility22QOrganizerCollectionIdE15QHashDummyValueE13duplicateNodeEPN9QHashData4NodeEPv)
    t._ZN5QHashIN10QtMobility22QOrganizerCollectionIdE15QHashDummyValueE13duplicateNodeEPN9QHashData4NodeEPv.clean 0x0002550c   Section       12  QtOrganizer.in(t._ZN5QHashIN10QtMobility22QOrganizerCollectionIdE15QHashDummyValueE13duplicateNodeEPN9QHashData4NodeEPv.clean)
    t._ZN5QHashIN10QtMobility22QOrganizerCollectionIdE15QHashDummyValueE6detachEv 0x00025518   Section       26  QtOrganizer.in(t._ZN5QHashIN10QtMobility22QOrganizerCollectionIdE15QHashDummyValueE6detachEv)
    t._ZN5QHashIN10QtMobility22QOrganizerCollectionIdE15QHashDummyValueE6insertERKS1_RKS2_ 0x00025532   Section      120  QtOrganizer.in(t._ZN5QHashIN10QtMobility22QOrganizerCollectionIdE15QHashDummyValueE6insertERKS1_RKS2_)
    t._ZN5QHashIN10QtMobility22QOrganizerCollectionIdE15QHashDummyValueE6insertERKS1_RKS2_.clean 0x000255aa   Section       12  QtOrganizer.in(t._ZN5QHashIN10QtMobility22QOrganizerCollectionIdE15QHashDummyValueE6insertERKS1_RKS2_.clean)
    t._ZN5QHashIN10QtMobility22QOrganizerCollectionIdE15QHashDummyValueE8freeDataEP9QHashData 0x000255b8   Section       16  QtOrganizer.in(t._ZN5QHashIN10QtMobility22QOrganizerCollectionIdE15QHashDummyValueE8freeDataEP9QHashData)
    t._ZN5QHashIN10QtMobility22QOrganizerCollectionIdE15QHashDummyValueEC1Ev 0x000255c8   Section       24  QtOrganizer.in(t._ZN5QHashIN10QtMobility22QOrganizerCollectionIdE15QHashDummyValueEC1Ev)
    t._ZN5QHashIN10QtMobility22QOrganizerCollectionIdE15QHashDummyValueED1Ev 0x000255e0   Section       28  QtOrganizer.in(t._ZN5QHashIN10QtMobility22QOrganizerCollectionIdE15QHashDummyValueED1Ev)
    t._ZN5QHashIN10QtMobility22QOrganizerCollectionIdE15QHashDummyValueEaSERKS3_ 0x000255fc   Section       58  QtOrganizer.in(t._ZN5QHashIN10QtMobility22QOrganizerCollectionIdE15QHashDummyValueEaSERKS3_)
    t._ZN5QHashIN10QtMobility24QOrganizerRecurrenceRule5MonthE15QHashDummyValueE11deleteNode2EPN9QHashData4NodeE 0x00025636   Section        2  QtOrganizer.in(t._ZN5QHashIN10QtMobility24QOrganizerRecurrenceRule5MonthE15QHashDummyValueE11deleteNode2EPN9QHashData4NodeE)
    t._ZN5QHashIN10QtMobility24QOrganizerRecurrenceRule5MonthE15QHashDummyValueE13detach_helperEv 0x00025638   Section       56  QtOrganizer.in(t._ZN5QHashIN10QtMobility24QOrganizerRecurrenceRule5MonthE15QHashDummyValueE13detach_helperEv)
    t._ZN5QHashIN10QtMobility24QOrganizerRecurrenceRule5MonthE15QHashDummyValueE13duplicateNodeEPN9QHashData4NodeEPv 0x00025670   Section       20  QtOrganizer.in(t._ZN5QHashIN10QtMobility24QOrganizerRecurrenceRule5MonthE15QHashDummyValueE13duplicateNodeEPN9QHashData4NodeEPv)
    t._ZN5QHashIN10QtMobility24QOrganizerRecurrenceRule5MonthE15QHashDummyValueE6insertERKS2_RKS3_ 0x00025684   Section      160  QtOrganizer.in(t._ZN5QHashIN10QtMobility24QOrganizerRecurrenceRule5MonthE15QHashDummyValueE6insertERKS2_RKS3_)
    t._ZN5QHashIN10QtMobility24QOrganizerRecurrenceRule5MonthE15QHashDummyValueE8freeDataEP9QHashData 0x00025724   Section       16  QtOrganizer.in(t._ZN5QHashIN10QtMobility24QOrganizerRecurrenceRule5MonthE15QHashDummyValueE8freeDataEP9QHashData)
    t._ZN5QHashIN10QtMobility24QOrganizerRecurrenceRule5MonthE15QHashDummyValueED1Ev 0x00025734   Section       28  QtOrganizer.in(t._ZN5QHashIN10QtMobility24QOrganizerRecurrenceRule5MonthE15QHashDummyValueED1Ev)
    t._ZN5QHashIN10QtMobility24QOrganizerRecurrenceRuleE15QHashDummyValueE11deleteNode2EPN9QHashData4NodeE 0x00025750   Section       10  QtOrganizer.in(t._ZN5QHashIN10QtMobility24QOrganizerRecurrenceRuleE15QHashDummyValueE11deleteNode2EPN9QHashData4NodeE)
    t._ZN5QHashIN10QtMobility24QOrganizerRecurrenceRuleE15QHashDummyValueE13duplicateNodeEPN9QHashData4NodeEPv 0x0002575a   Section       28  QtOrganizer.in(t._ZN5QHashIN10QtMobility24QOrganizerRecurrenceRuleE15QHashDummyValueE13duplicateNodeEPN9QHashData4NodeEPv)
    t._ZN5QHashIN10QtMobility24QOrganizerRecurrenceRuleE15QHashDummyValueE13duplicateNodeEPN9QHashData4NodeEPv.clean 0x00025776   Section       12  QtOrganizer.in(t._ZN5QHashIN10QtMobility24QOrganizerRecurrenceRuleE15QHashDummyValueE13duplicateNodeEPN9QHashData4NodeEPv.clean)
    t._ZN5QHashIN10QtMobility24QOrganizerRecurrenceRuleE15QHashDummyValueE6detachEv 0x00025784   Section       60  QtOrganizer.in(t._ZN5QHashIN10QtMobility24QOrganizerRecurrenceRuleE15QHashDummyValueE6detachEv)
    t._ZN5QHashIN10QtMobility24QOrganizerRecurrenceRuleE15QHashDummyValueE6insertERKS1_RKS2_ 0x000257c0   Section      110  QtOrganizer.in(t._ZN5QHashIN10QtMobility24QOrganizerRecurrenceRuleE15QHashDummyValueE6insertERKS1_RKS2_)
    t._ZN5QHashIN10QtMobility24QOrganizerRecurrenceRuleE15QHashDummyValueE6insertERKS1_RKS2_.clean 0x0002582e   Section       12  QtOrganizer.in(t._ZN5QHashIN10QtMobility24QOrganizerRecurrenceRuleE15QHashDummyValueE6insertERKS1_RKS2_.clean)
    t._ZN5QHashIN10QtMobility24QOrganizerRecurrenceRuleE15QHashDummyValueE8freeDataEP9QHashData 0x0002583c   Section       16  QtOrganizer.in(t._ZN5QHashIN10QtMobility24QOrganizerRecurrenceRuleE15QHashDummyValueE8freeDataEP9QHashData)
    t._ZN5QHashIN10QtMobility24QOrganizerRecurrenceRuleE15QHashDummyValueED1Ev 0x0002584c   Section       28  QtOrganizer.in(t._ZN5QHashIN10QtMobility24QOrganizerRecurrenceRuleE15QHashDummyValueED1Ev)
    t._ZN5QHashIN10QtMobility26QOrganizerItemStringHolderE8QVariantE11deleteNode2EPN9QHashData4NodeE 0x00025868   Section       12  QtOrganizer.in(t._ZN5QHashIN10QtMobility26QOrganizerItemStringHolderE8QVariantE11deleteNode2EPN9QHashData4NodeE)
    t._ZN5QHashIN10QtMobility26QOrganizerItemStringHolderE8QVariantE11deleteNode2EPN9QHashData4NodeE.clean 0x00025874   Section       12  QtOrganizer.in(t._ZN5QHashIN10QtMobility26QOrganizerItemStringHolderE8QVariantE11deleteNode2EPN9QHashData4NodeE.clean)
    t._ZN5QHashIN10QtMobility26QOrganizerItemStringHolderE8QVariantE13duplicateNodeEPN9QHashData4NodeEPv 0x00025880   Section       32  QtOrganizer.in(t._ZN5QHashIN10QtMobility26QOrganizerItemStringHolderE8QVariantE13duplicateNodeEPN9QHashData4NodeEPv)
    t._ZN5QHashIN10QtMobility26QOrganizerItemStringHolderE8QVariantE13duplicateNodeEPN9QHashData4NodeEPv.clean 0x000258a0   Section       12  QtOrganizer.in(t._ZN5QHashIN10QtMobility26QOrganizerItemStringHolderE8QVariantE13duplicateNodeEPN9QHashData4NodeEPv.clean)
    t._ZN5QHashIN10QtMobility26QOrganizerItemStringHolderE8QVariantE14const_iteratorppEv 0x000258ac   Section       16  QtOrganizer.in(t._ZN5QHashIN10QtMobility26QOrganizerItemStringHolderE8QVariantE14const_iteratorppEv)
    t._ZN5QHashIN10QtMobility26QOrganizerItemStringHolderE8QVariantE6detachEv 0x000258bc   Section       68  QtOrganizer.in(t._ZN5QHashIN10QtMobility26QOrganizerItemStringHolderE8QVariantE6detachEv)
    t._ZN5QHashIN10QtMobility26QOrganizerItemStringHolderE8QVariantE6insertERKS1_RKS2_ 0x00025900   Section      122  QtOrganizer.in(t._ZN5QHashIN10QtMobility26QOrganizerItemStringHolderE8QVariantE6insertERKS1_RKS2_)
    t._ZN5QHashIN10QtMobility26QOrganizerItemStringHolderE8QVariantE6insertERKS1_RKS2_.clean 0x0002597a   Section       12  QtOrganizer.in(t._ZN5QHashIN10QtMobility26QOrganizerItemStringHolderE8QVariantE6insertERKS1_RKS2_.clean)
    t._ZN5QHashIN10QtMobility26QOrganizerItemStringHolderE8QVariantE6removeERKS1_ 0x00025986   Section      186  QtOrganizer.in(t._ZN5QHashIN10QtMobility26QOrganizerItemStringHolderE8QVariantE6removeERKS1_)
    t._ZN5QHashIN10QtMobility26QOrganizerItemStringHolderE8QVariantE8freeDataEP9QHashData 0x00025a40   Section       16  QtOrganizer.in(t._ZN5QHashIN10QtMobility26QOrganizerItemStringHolderE8QVariantE8freeDataEP9QHashData)
    t._ZN5QHashIN10QtMobility26QOrganizerItemStringHolderE8QVariantED1Ev 0x00025a50   Section       28  QtOrganizer.in(t._ZN5QHashIN10QtMobility26QOrganizerItemStringHolderE8QVariantED1Ev)
    t._ZN5QHashIN2Qt9DayOfWeekE15QHashDummyValueE11deleteNode2EPN9QHashData4NodeE 0x00025a6c   Section        2  QtOrganizer.in(t._ZN5QHashIN2Qt9DayOfWeekE15QHashDummyValueE11deleteNode2EPN9QHashData4NodeE)
    t._ZN5QHashIN2Qt9DayOfWeekE15QHashDummyValueE13detach_helperEv 0x00025a70   Section       56  QtOrganizer.in(t._ZN5QHashIN2Qt9DayOfWeekE15QHashDummyValueE13detach_helperEv)
    t._ZN5QHashIN2Qt9DayOfWeekE15QHashDummyValueE13duplicateNodeEPN9QHashData4NodeEPv 0x00025aa8   Section       20  QtOrganizer.in(t._ZN5QHashIN2Qt9DayOfWeekE15QHashDummyValueE13duplicateNodeEPN9QHashData4NodeEPv)
    t._ZN5QHashIN2Qt9DayOfWeekE15QHashDummyValueE6insertERKS1_RKS2_ 0x00025abc   Section      160  QtOrganizer.in(t._ZN5QHashIN2Qt9DayOfWeekE15QHashDummyValueE6insertERKS1_RKS2_)
    t._ZN5QHashIN2Qt9DayOfWeekE15QHashDummyValueE8freeDataEP9QHashData 0x00025b5c   Section       16  QtOrganizer.in(t._ZN5QHashIN2Qt9DayOfWeekE15QHashDummyValueE8freeDataEP9QHashData)
    t._ZN5QHashIN2Qt9DayOfWeekE15QHashDummyValueED1Ev 0x00025b6c   Section       28  QtOrganizer.in(t._ZN5QHashIN2Qt9DayOfWeekE15QHashDummyValueED1Ev)
    t._ZN5QHashIPKc7QStringE11deleteNode2EPN9QHashData4NodeE 0x00025b88   Section       10  QtOrganizer.in(t._ZN5QHashIPKc7QStringE11deleteNode2EPN9QHashData4NodeE)
    t._ZN5QHashIPKc7QStringE13detach_helperEv 0x00025b94   Section       56  QtOrganizer.in(t._ZN5QHashIPKc7QStringE13detach_helperEv)
    t._ZN5QHashIPKc7QStringE13duplicateNodeEPN9QHashData4NodeEPv 0x00025bcc   Section       30  QtOrganizer.in(t._ZN5QHashIPKc7QStringE13duplicateNodeEPN9QHashData4NodeEPv)
    t._ZN5QHashIPKc7QStringE13duplicateNodeEPN9QHashData4NodeEPv.clean 0x00025bea   Section       12  QtOrganizer.in(t._ZN5QHashIPKc7QStringE13duplicateNodeEPN9QHashData4NodeEPv.clean)
    t._ZN5QHashIPKc7QStringE6insertERKS1_RKS2_ 0x00025bf6   Section      138  QtOrganizer.in(t._ZN5QHashIPKc7QStringE6insertERKS1_RKS2_)
    t._ZN5QHashIPKc7QStringE6insertERKS1_RKS2_.clean 0x00025c80   Section       12  QtOrganizer.in(t._ZN5QHashIPKc7QStringE6insertERKS1_RKS2_.clean)
    t._ZN5QHashIPKc7QStringE8freeDataEP9QHashData 0x00025c8c   Section       16  QtOrganizer.in(t._ZN5QHashIPKc7QStringE8freeDataEP9QHashData)
    t._ZN5QHashIPKc7QStringEC1Ev             0x00025c9c   Section       24  QtOrganizer.in(t._ZN5QHashIPKc7QStringEC1Ev)
    t._ZN5QHashIPKc7QStringED1Ev             0x00025cb4   Section       28  QtOrganizer.in(t._ZN5QHashIPKc7QStringED1Ev)
    t._ZN5QHashIi15QHashDummyValueE11deleteNode2EPN9QHashData4NodeE 0x00025cd0   Section        2  QtOrganizer.in(t._ZN5QHashIi15QHashDummyValueE11deleteNode2EPN9QHashData4NodeE)
    t._ZN5QHashIi15QHashDummyValueE13detach_helperEv 0x00025cd4   Section       56  QtOrganizer.in(t._ZN5QHashIi15QHashDummyValueE13detach_helperEv)
    t._ZN5QHashIi15QHashDummyValueE13duplicateNodeEPN9QHashData4NodeEPv 0x00025d0c   Section       10  QtOrganizer.in(t._ZN5QHashIi15QHashDummyValueE13duplicateNodeEPN9QHashData4NodeEPv)
    t._ZN5QHashIi15QHashDummyValueE6detachEv 0x00025d18   Section       68  QtOrganizer.in(t._ZN5QHashIi15QHashDummyValueE6detachEv)
    t._ZN5QHashIi15QHashDummyValueE8freeDataEP9QHashData 0x00025d5c   Section       16  QtOrganizer.in(t._ZN5QHashIi15QHashDummyValueE8freeDataEP9QHashData)
    t._ZN5QHashIi15QHashDummyValueED1Ev      0x00025d6c   Section       28  QtOrganizer.in(t._ZN5QHashIi15QHashDummyValueED1Ev)
    t._ZN5QListI5QDateE13detach_helperEv     0x00025d88   Section       88  QtOrganizer.in(t._ZN5QListI5QDateE13detach_helperEv)
    t._ZN5QListI5QDateE13detach_helperEv.clean 0x00025de0   Section        8  QtOrganizer.in(t._ZN5QListI5QDateE13detach_helperEv.clean)
    t._ZN5QListI5QDateE18detach_helper_growEii 0x00025de8   Section      180  QtOrganizer.in(t._ZN5QListI5QDateE18detach_helper_growEii)
    t._ZN5QListI5QDateE18detach_helper_growEii.clean 0x00025e9c   Section        8  QtOrganizer.in(t._ZN5QListI5QDateE18detach_helper_growEii.clean)
    t._ZN5QListI5QDateE4freeEPN9QListData4DataE 0x00025ea4   Section       48  QtOrganizer.in(t._ZN5QListI5QDateE4freeEPN9QListData4DataE)
    t._ZN5QListI5QDateE6appendERKS0_         0x00025ed4   Section       88  QtOrganizer.in(t._ZN5QListI5QDateE6appendERKS0_)
    t._ZN5QListI5QDateE6appendERKS0_.clean   0x00025f2c   Section       10  QtOrganizer.in(t._ZN5QListI5QDateE6appendERKS0_.clean)
    t._ZN5QListI5QDateE9node_copyEPNS1_4NodeES3_S3_ 0x00025f36   Section       36  QtOrganizer.in(t._ZN5QListI5QDateE9node_copyEPNS1_4NodeES3_S3_)
    t._ZN5QListI5QDateEC1ERKS1_              0x00025f5a   Section       30  QtOrganizer.in(t._ZN5QListI5QDateEC1ERKS1_)
    t._ZN5QListI5QDateEC1Ev                  0x00025f78   Section       20  QtOrganizer.in(t._ZN5QListI5QDateEC1Ev)
    t._ZN5QListI5QDateED1Ev                  0x00025f8c   Section       30  QtOrganizer.in(t._ZN5QListI5QDateED1Ev)
    t._ZN5QListI7QStringE13detach_helperEi   0x00025faa   Section       86  QtOrganizer.in(t._ZN5QListI7QStringE13detach_helperEi)
    t._ZN5QListI7QStringE13detach_helperEi.clean 0x00026000   Section        8  QtOrganizer.in(t._ZN5QListI7QStringE13detach_helperEi.clean)
    t._ZN5QListI7QStringE13detach_helperEv   0x00026008   Section       12  QtOrganizer.in(t._ZN5QListI7QStringE13detach_helperEv)
    t._ZN5QListI7QStringE14node_constructEPNS1_4NodeERKS0_ 0x00026014   Section       26  QtOrganizer.in(t._ZN5QListI7QStringE14node_constructEPNS1_4NodeERKS0_)
    t._ZN5QListI7QStringE14node_constructEPNS1_4NodeERKS0_.clean 0x0002602e   Section       12  QtOrganizer.in(t._ZN5QListI7QStringE14node_constructEPNS1_4NodeERKS0_.clean)
    t._ZN5QListI7QStringE18detach_helper_growEii 0x0002603a   Section      186  QtOrganizer.in(t._ZN5QListI7QStringE18detach_helper_growEii)
    t._ZN5QListI7QStringE18detach_helper_growEii.clean 0x000260f4   Section        8  QtOrganizer.in(t._ZN5QListI7QStringE18detach_helper_growEii.clean)
    t._ZN5QListI7QStringE4freeEPN9QListData4DataE 0x000260fc   Section       48  QtOrganizer.in(t._ZN5QListI7QStringE4freeEPN9QListData4DataE)
    t._ZN5QListI7QStringE6appendERKS0_       0x0002612c   Section      100  QtOrganizer.in(t._ZN5QListI7QStringE6appendERKS0_)
    t._ZN5QListI7QStringE6appendERKS0_.clean 0x00026190   Section        8  QtOrganizer.in(t._ZN5QListI7QStringE6appendERKS0_.clean)
    t._ZN5QListI7QStringE7reserveEi          0x00026198   Section       44  QtOrganizer.in(t._ZN5QListI7QStringE7reserveEi)
    t._ZN5QListI7QStringE9node_copyEPNS1_4NodeES3_S3_ 0x000261c4   Section       70  QtOrganizer.in(t._ZN5QListI7QStringE9node_copyEPNS1_4NodeES3_S3_)
    t._ZN5QListI7QStringE9node_copyEPNS1_4NodeES3_S3_.clean 0x0002620a   Section       22  QtOrganizer.in(t._ZN5QListI7QStringE9node_copyEPNS1_4NodeES3_S3_.clean)
    t._ZN5QListI7QStringE9removeAllERKS0_    0x00026220   Section      112  QtOrganizer.in(t._ZN5QListI7QStringE9removeAllERKS0_)
    t._ZN5QListI7QStringE9removeAllERKS0_.clean 0x00026290   Section       10  QtOrganizer.in(t._ZN5QListI7QStringE9removeAllERKS0_.clean)
    t._ZN5QListI7QStringEC1Ev                0x0002629c   Section       20  QtOrganizer.in(t._ZN5QListI7QStringEC1Ev)
    t._ZN5QListI7QStringED1Ev                0x000262b0   Section       30  QtOrganizer.in(t._ZN5QListI7QStringED1Ev)
    t._ZN5QListI7QStringEaSERKS1_            0x000262ce   Section       54  QtOrganizer.in(t._ZN5QListI7QStringEaSERKS1_)
    t._ZN5QListI7QStringEpLERKS1_            0x00026304   Section      172  QtOrganizer.in(t._ZN5QListI7QStringEpLERKS1_)
    t._ZN5QListI7QStringEpLERKS1_.clean      0x000263b0   Section        8  QtOrganizer.in(t._ZN5QListI7QStringEpLERKS1_.clean)
    t._ZN5QListI8QVariantE11setSharableEb    0x000263b8   Section       20  QtOrganizer.in(t._ZN5QListI8QVariantE11setSharableEb)
    t._ZN5QListI8QVariantE13detach_helperEi  0x000263cc   Section       86  QtOrganizer.in(t._ZN5QListI8QVariantE13detach_helperEi)
    t._ZN5QListI8QVariantE13detach_helperEi.clean 0x00026422   Section        8  QtOrganizer.in(t._ZN5QListI8QVariantE13detach_helperEi.clean)
    t._ZN5QListI8QVariantE13detach_helperEv  0x0002642a   Section       12  QtOrganizer.in(t._ZN5QListI8QVariantE13detach_helperEv)
    t._ZN5QListI8QVariantE13node_destructEPNS1_4NodeE 0x00026436   Section       18  QtOrganizer.in(t._ZN5QListI8QVariantE13node_destructEPNS1_4NodeE)
    t._ZN5QListI8QVariantE13node_destructEPNS1_4NodeES3_ 0x00026448   Section       30  QtOrganizer.in(t._ZN5QListI8QVariantE13node_destructEPNS1_4NodeES3_)
    t._ZN5QListI8QVariantE14node_constructEPNS1_4NodeERKS0_ 0x00026466   Section       32  QtOrganizer.in(t._ZN5QListI8QVariantE14node_constructEPNS1_4NodeERKS0_)
    t._ZN5QListI8QVariantE14node_constructEPNS1_4NodeERKS0_.clean 0x00026486   Section       10  QtOrganizer.in(t._ZN5QListI8QVariantE14node_constructEPNS1_4NodeERKS0_.clean)
    t._ZN5QListI8QVariantE18detach_helper_growEii 0x00026490   Section      180  QtOrganizer.in(t._ZN5QListI8QVariantE18detach_helper_growEii)
    t._ZN5QListI8QVariantE18detach_helper_growEii.clean 0x00026544   Section        8  QtOrganizer.in(t._ZN5QListI8QVariantE18detach_helper_growEii.clean)
    t._ZN5QListI8QVariantE3endEv             0x0002654c   Section       22  QtOrganizer.in(t._ZN5QListI8QVariantE3endEv)
    t._ZN5QListI8QVariantE4freeEPN9QListData4DataE 0x00026562   Section       38  QtOrganizer.in(t._ZN5QListI8QVariantE4freeEPN9QListData4DataE)
    t._ZN5QListI8QVariantE6appendERKS0_      0x00026588   Section       96  QtOrganizer.in(t._ZN5QListI8QVariantE6appendERKS0_)
    t._ZN5QListI8QVariantE6appendERKS0_.clean 0x000265e8   Section        8  QtOrganizer.in(t._ZN5QListI8QVariantE6appendERKS0_.clean)
    t._ZN5QListI8QVariantE6detachEv          0x000265f0   Section       24  QtOrganizer.in(t._ZN5QListI8QVariantE6detachEv)
    t._ZN5QListI8QVariantE9node_copyEPNS1_4NodeES3_S3_ 0x00026608   Section       80  QtOrganizer.in(t._ZN5QListI8QVariantE9node_copyEPNS1_4NodeES3_S3_)
    t._ZN5QListI8QVariantE9node_copyEPNS1_4NodeES3_S3_.clean 0x00026658   Section       18  QtOrganizer.in(t._ZN5QListI8QVariantE9node_copyEPNS1_4NodeES3_S3_.clean)
    t._ZN5QListI8QVariantEC1ERKS1_           0x0002666a   Section       30  QtOrganizer.in(t._ZN5QListI8QVariantEC1ERKS1_)
    t._ZN5QListI8QVariantEC1Ev               0x00026688   Section       20  QtOrganizer.in(t._ZN5QListI8QVariantEC1Ev)
    t._ZN5QListI8QVariantED1Ev               0x0002669c   Section       30  QtOrganizer.in(t._ZN5QListI8QVariantED1Ev)
    t._ZN5QListI8QVariantEaSERKS1_           0x000266ba   Section       54  QtOrganizer.in(t._ZN5QListI8QVariantEaSERKS1_)
    t._ZN5QListI8QVariantElsERKS0_           0x000266f0   Section       12  QtOrganizer.in(t._ZN5QListI8QVariantElsERKS0_)
    t._ZN5QListI9QDateTimeE13detach_helperEv 0x000266fc   Section       88  QtOrganizer.in(t._ZN5QListI9QDateTimeE13detach_helperEv)
    t._ZN5QListI9QDateTimeE13detach_helperEv.clean 0x00026754   Section        8  QtOrganizer.in(t._ZN5QListI9QDateTimeE13detach_helperEv.clean)
    t._ZN5QListI9QDateTimeE14node_constructEPNS1_4NodeERKS0_ 0x0002675c   Section       26  QtOrganizer.in(t._ZN5QListI9QDateTimeE14node_constructEPNS1_4NodeERKS0_)
    t._ZN5QListI9QDateTimeE14node_constructEPNS1_4NodeERKS0_.clean 0x00026776   Section       12  QtOrganizer.in(t._ZN5QListI9QDateTimeE14node_constructEPNS1_4NodeERKS0_.clean)
    t._ZN5QListI9QDateTimeE18detach_helper_growEii 0x00026782   Section      186  QtOrganizer.in(t._ZN5QListI9QDateTimeE18detach_helper_growEii)
    t._ZN5QListI9QDateTimeE18detach_helper_growEii.clean 0x0002683c   Section        8  QtOrganizer.in(t._ZN5QListI9QDateTimeE18detach_helper_growEii.clean)
    t._ZN5QListI9QDateTimeE4freeEPN9QListData4DataE 0x00026844   Section       54  QtOrganizer.in(t._ZN5QListI9QDateTimeE4freeEPN9QListData4DataE)
    t._ZN5QListI9QDateTimeE5beginEv          0x0002687a   Section       22  QtOrganizer.in(t._ZN5QListI9QDateTimeE5beginEv)
    t._ZN5QListI9QDateTimeE6appendERKS0_     0x00026890   Section      100  QtOrganizer.in(t._ZN5QListI9QDateTimeE6appendERKS0_)
    t._ZN5QListI9QDateTimeE6appendERKS0_.clean 0x000268f4   Section        8  QtOrganizer.in(t._ZN5QListI9QDateTimeE6appendERKS0_.clean)
    t._ZN5QListI9QDateTimeE6detachEv         0x000268fc   Section       24  QtOrganizer.in(t._ZN5QListI9QDateTimeE6detachEv)
    t._ZN5QListI9QDateTimeE9node_copyEPNS1_4NodeES3_S3_ 0x00026914   Section       70  QtOrganizer.in(t._ZN5QListI9QDateTimeE9node_copyEPNS1_4NodeES3_S3_)
    t._ZN5QListI9QDateTimeE9node_copyEPNS1_4NodeES3_S3_.clean 0x0002695a   Section       22  QtOrganizer.in(t._ZN5QListI9QDateTimeE9node_copyEPNS1_4NodeES3_S3_.clean)
    t._ZN5QListI9QDateTimeEC1Ev              0x00026970   Section       20  QtOrganizer.in(t._ZN5QListI9QDateTimeEC1Ev)
    t._ZN5QListI9QDateTimeED1Ev              0x00026984   Section       30  QtOrganizer.in(t._ZN5QListI9QDateTimeED1Ev)
    t._ZN5QListI9QDateTimeEpLERKS1_          0x000269a4   Section      172  QtOrganizer.in(t._ZN5QListI9QDateTimeEpLERKS1_)
    t._ZN5QListI9QDateTimeEpLERKS1_.clean    0x00026a50   Section        8  QtOrganizer.in(t._ZN5QListI9QDateTimeEpLERKS1_.clean)
    t._ZN5QListIN10QtMobility14QOrganizerItemEE13detach_helperEi 0x00026a58   Section       86  QtOrganizer.in(t._ZN5QListIN10QtMobility14QOrganizerItemEE13detach_helperEi)
    t._ZN5QListIN10QtMobility14QOrganizerItemEE13detach_helperEi.clean 0x00026aae   Section        8  QtOrganizer.in(t._ZN5QListIN10QtMobility14QOrganizerItemEE13detach_helperEi.clean)
    t._ZN5QListIN10QtMobility14QOrganizerItemEE13detach_helperEv 0x00026ab6   Section       12  QtOrganizer.in(t._ZN5QListIN10QtMobility14QOrganizerItemEE13detach_helperEv)
    t._ZN5QListIN10QtMobility14QOrganizerItemEE14node_constructEPNS2_4NodeERKS1_ 0x00026ac2   Section       26  QtOrganizer.in(t._ZN5QListIN10QtMobility14QOrganizerItemEE14node_constructEPNS2_4NodeERKS1_)
    t._ZN5QListIN10QtMobility14QOrganizerItemEE14node_constructEPNS2_4NodeERKS1_.clean 0x00026adc   Section       12  QtOrganizer.in(t._ZN5QListIN10QtMobility14QOrganizerItemEE14node_constructEPNS2_4NodeERKS1_.clean)
    t._ZN5QListIN10QtMobility14QOrganizerItemEE18detach_helper_growEii 0x00026ae8   Section      186  QtOrganizer.in(t._ZN5QListIN10QtMobility14QOrganizerItemEE18detach_helper_growEii)
    t._ZN5QListIN10QtMobility14QOrganizerItemEE18detach_helper_growEii.clean 0x00026ba2   Section        8  QtOrganizer.in(t._ZN5QListIN10QtMobility14QOrganizerItemEE18detach_helper_growEii.clean)
    t._ZN5QListIN10QtMobility14QOrganizerItemEE4freeEPN9QListData4DataE 0x00026baa   Section       48  QtOrganizer.in(t._ZN5QListIN10QtMobility14QOrganizerItemEE4freeEPN9QListData4DataE)
    t._ZN5QListIN10QtMobility14QOrganizerItemEE6appendERKS1_ 0x00026bdc   Section      100  QtOrganizer.in(t._ZN5QListIN10QtMobility14QOrganizerItemEE6appendERKS1_)
    t._ZN5QListIN10QtMobility14QOrganizerItemEE6appendERKS1_.clean 0x00026c40   Section        8  QtOrganizer.in(t._ZN5QListIN10QtMobility14QOrganizerItemEE6appendERKS1_.clean)
    t._ZN5QListIN10QtMobility14QOrganizerItemEE9node_copyEPNS2_4NodeES4_S4_ 0x00026c48   Section       70  QtOrganizer.in(t._ZN5QListIN10QtMobility14QOrganizerItemEE9node_copyEPNS2_4NodeES4_S4_)
    t._ZN5QListIN10QtMobility14QOrganizerItemEE9node_copyEPNS2_4NodeES4_S4_.clean 0x00026c8e   Section       22  QtOrganizer.in(t._ZN5QListIN10QtMobility14QOrganizerItemEE9node_copyEPNS2_4NodeES4_S4_.clean)
    t._ZN5QListIN10QtMobility14QOrganizerItemEEC1ERKS2_ 0x00026ca4   Section       30  QtOrganizer.in(t._ZN5QListIN10QtMobility14QOrganizerItemEEC1ERKS2_)
    t._ZN5QListIN10QtMobility14QOrganizerItemEEC1Ev 0x00026cc4   Section       20  QtOrganizer.in(t._ZN5QListIN10QtMobility14QOrganizerItemEEC1Ev)
    t._ZN5QListIN10QtMobility14QOrganizerItemEED1Ev 0x00026cd8   Section       30  QtOrganizer.in(t._ZN5QListIN10QtMobility14QOrganizerItemEED1Ev)
    t._ZN5QListIN10QtMobility14QOrganizerItemEEaSERKS2_ 0x00026cf6   Section       54  QtOrganizer.in(t._ZN5QListIN10QtMobility14QOrganizerItemEEaSERKS2_)
    t._ZN5QListIN10QtMobility16QOrganizerItemIdEE13detach_helperEi 0x00026d2c   Section       86  QtOrganizer.in(t._ZN5QListIN10QtMobility16QOrganizerItemIdEE13detach_helperEi)
    t._ZN5QListIN10QtMobility16QOrganizerItemIdEE13detach_helperEi.clean 0x00026d82   Section        8  QtOrganizer.in(t._ZN5QListIN10QtMobility16QOrganizerItemIdEE13detach_helperEi.clean)
    t._ZN5QListIN10QtMobility16QOrganizerItemIdEE13detach_helperEv 0x00026d8a   Section       12  QtOrganizer.in(t._ZN5QListIN10QtMobility16QOrganizerItemIdEE13detach_helperEv)
    t._ZN5QListIN10QtMobility16QOrganizerItemIdEE14node_constructEPNS2_4NodeERKS1_ 0x00026d96   Section       26  QtOrganizer.in(t._ZN5QListIN10QtMobility16QOrganizerItemIdEE14node_constructEPNS2_4NodeERKS1_)
    t._ZN5QListIN10QtMobility16QOrganizerItemIdEE14node_constructEPNS2_4NodeERKS1_.clean 0x00026db0   Section       12  QtOrganizer.in(t._ZN5QListIN10QtMobility16QOrganizerItemIdEE14node_constructEPNS2_4NodeERKS1_.clean)
    t._ZN5QListIN10QtMobility16QOrganizerItemIdEE18detach_helper_growEii 0x00026dbc   Section      186  QtOrganizer.in(t._ZN5QListIN10QtMobility16QOrganizerItemIdEE18detach_helper_growEii)
    t._ZN5QListIN10QtMobility16QOrganizerItemIdEE18detach_helper_growEii.clean 0x00026e76   Section        8  QtOrganizer.in(t._ZN5QListIN10QtMobility16QOrganizerItemIdEE18detach_helper_growEii.clean)
    t._ZN5QListIN10QtMobility16QOrganizerItemIdEE4freeEPN9QListData4DataE 0x00026e7e   Section       48  QtOrganizer.in(t._ZN5QListIN10QtMobility16QOrganizerItemIdEE4freeEPN9QListData4DataE)
    t._ZN5QListIN10QtMobility16QOrganizerItemIdEE5clearEv 0x00026eae   Section       26  QtOrganizer.in(t._ZN5QListIN10QtMobility16QOrganizerItemIdEE5clearEv)
    t._ZN5QListIN10QtMobility16QOrganizerItemIdEE5clearEv.clean 0x00026ec8   Section       10  QtOrganizer.in(t._ZN5QListIN10QtMobility16QOrganizerItemIdEE5clearEv.clean)
    t._ZN5QListIN10QtMobility16QOrganizerItemIdEE6appendERKS1_ 0x00026ed4   Section      100  QtOrganizer.in(t._ZN5QListIN10QtMobility16QOrganizerItemIdEE6appendERKS1_)
    t._ZN5QListIN10QtMobility16QOrganizerItemIdEE6appendERKS1_.clean 0x00026f38   Section        8  QtOrganizer.in(t._ZN5QListIN10QtMobility16QOrganizerItemIdEE6appendERKS1_.clean)
    t._ZN5QListIN10QtMobility16QOrganizerItemIdEE7reserveEi 0x00026f40   Section      116  QtOrganizer.in(t._ZN5QListIN10QtMobility16QOrganizerItemIdEE7reserveEi)
    t._ZN5QListIN10QtMobility16QOrganizerItemIdEE7reserveEi.clean 0x00026fb4   Section        8  QtOrganizer.in(t._ZN5QListIN10QtMobility16QOrganizerItemIdEE7reserveEi.clean)
    t._ZN5QListIN10QtMobility16QOrganizerItemIdEE9node_copyEPNS2_4NodeES4_S4_ 0x00026fbc   Section       70  QtOrganizer.in(t._ZN5QListIN10QtMobility16QOrganizerItemIdEE9node_copyEPNS2_4NodeES4_S4_)
    t._ZN5QListIN10QtMobility16QOrganizerItemIdEE9node_copyEPNS2_4NodeES4_S4_.clean 0x00027002   Section       22  QtOrganizer.in(t._ZN5QListIN10QtMobility16QOrganizerItemIdEE9node_copyEPNS2_4NodeES4_S4_.clean)
    t._ZN5QListIN10QtMobility16QOrganizerItemIdEE9removeAllERKS1_ 0x00027018   Section      112  QtOrganizer.in(t._ZN5QListIN10QtMobility16QOrganizerItemIdEE9removeAllERKS1_)
    t._ZN5QListIN10QtMobility16QOrganizerItemIdEE9removeAllERKS1_.clean 0x00027088   Section       10  QtOrganizer.in(t._ZN5QListIN10QtMobility16QOrganizerItemIdEE9removeAllERKS1_.clean)
    t._ZN5QListIN10QtMobility16QOrganizerItemIdEEC1ERKS2_ 0x00027092   Section       30  QtOrganizer.in(t._ZN5QListIN10QtMobility16QOrganizerItemIdEEC1ERKS2_)
    t._ZN5QListIN10QtMobility16QOrganizerItemIdEEC1Ev 0x000270b0   Section       20  QtOrganizer.in(t._ZN5QListIN10QtMobility16QOrganizerItemIdEEC1Ev)
    t._ZN5QListIN10QtMobility16QOrganizerItemIdEED1Ev 0x000270c4   Section       30  QtOrganizer.in(t._ZN5QListIN10QtMobility16QOrganizerItemIdEED1Ev)
    t._ZN5QListIN10QtMobility16QOrganizerItemIdEEaSERKS2_ 0x000270e2   Section       54  QtOrganizer.in(t._ZN5QListIN10QtMobility16QOrganizerItemIdEEaSERKS2_)
    t._ZN5QListIN10QtMobility20QOrganizerCollectionEE13detach_helperEi 0x00027118   Section      142  QtOrganizer.in(t._ZN5QListIN10QtMobility20QOrganizerCollectionEE13detach_helperEi)
    t._ZN5QListIN10QtMobility20QOrganizerCollectionEE13detach_helperEi.clean 0x000271a6   Section       20  QtOrganizer.in(t._ZN5QListIN10QtMobility20QOrganizerCollectionEE13detach_helperEi.clean)
    t._ZN5QListIN10QtMobility20QOrganizerCollectionEE13detach_helperEv 0x000271ba   Section       88  QtOrganizer.in(t._ZN5QListIN10QtMobility20QOrganizerCollectionEE13detach_helperEv)
    t._ZN5QListIN10QtMobility20QOrganizerCollectionEE13detach_helperEv.clean 0x00027212   Section        8  QtOrganizer.in(t._ZN5QListIN10QtMobility20QOrganizerCollectionEE13detach_helperEv.clean)
    t._ZN5QListIN10QtMobility20QOrganizerCollectionEE14node_constructEPNS2_4NodeERKS1_ 0x0002721a   Section       26  QtOrganizer.in(t._ZN5QListIN10QtMobility20QOrganizerCollectionEE14node_constructEPNS2_4NodeERKS1_)
    t._ZN5QListIN10QtMobility20QOrganizerCollectionEE14node_constructEPNS2_4NodeERKS1_.clean 0x00027234   Section       12  QtOrganizer.in(t._ZN5QListIN10QtMobility20QOrganizerCollectionEE14node_constructEPNS2_4NodeERKS1_.clean)
    t._ZN5QListIN10QtMobility20QOrganizerCollectionEE18detach_helper_growEii 0x00027240   Section      186  QtOrganizer.in(t._ZN5QListIN10QtMobility20QOrganizerCollectionEE18detach_helper_growEii)
    t._ZN5QListIN10QtMobility20QOrganizerCollectionEE18detach_helper_growEii.clean 0x000272fa   Section        8  QtOrganizer.in(t._ZN5QListIN10QtMobility20QOrganizerCollectionEE18detach_helper_growEii.clean)
    t._ZN5QListIN10QtMobility20QOrganizerCollectionEE4freeEPN9QListData4DataE 0x00027302   Section       54  QtOrganizer.in(t._ZN5QListIN10QtMobility20QOrganizerCollectionEE4freeEPN9QListData4DataE)
    t._ZN5QListIN10QtMobility20QOrganizerCollectionEE6appendERKS1_ 0x00027338   Section      100  QtOrganizer.in(t._ZN5QListIN10QtMobility20QOrganizerCollectionEE6appendERKS1_)
    t._ZN5QListIN10QtMobility20QOrganizerCollectionEE6appendERKS1_.clean 0x0002739c   Section        8  QtOrganizer.in(t._ZN5QListIN10QtMobility20QOrganizerCollectionEE6appendERKS1_.clean)
    t._ZN5QListIN10QtMobility20QOrganizerCollectionEE6detachEv 0x000273a4   Section       24  QtOrganizer.in(t._ZN5QListIN10QtMobility20QOrganizerCollectionEE6detachEv)
    t._ZN5QListIN10QtMobility20QOrganizerCollectionEE9node_copyEPNS2_4NodeES4_S4_ 0x000273bc   Section       70  QtOrganizer.in(t._ZN5QListIN10QtMobility20QOrganizerCollectionEE9node_copyEPNS2_4NodeES4_S4_)
    t._ZN5QListIN10QtMobility20QOrganizerCollectionEE9node_copyEPNS2_4NodeES4_S4_.clean 0x00027402   Section       22  QtOrganizer.in(t._ZN5QListIN10QtMobility20QOrganizerCollectionEE9node_copyEPNS2_4NodeES4_S4_.clean)
    t._ZN5QListIN10QtMobility20QOrganizerCollectionEEC1Ev 0x00027418   Section       20  QtOrganizer.in(t._ZN5QListIN10QtMobility20QOrganizerCollectionEEC1Ev)
    t._ZN5QListIN10QtMobility20QOrganizerCollectionEED1Ev 0x0002742c   Section       30  QtOrganizer.in(t._ZN5QListIN10QtMobility20QOrganizerCollectionEED1Ev)
    t._ZN5QListIN10QtMobility20QOrganizerCollectionEEaSERKS2_ 0x0002744a   Section       54  QtOrganizer.in(t._ZN5QListIN10QtMobility20QOrganizerCollectionEEaSERKS2_)
    t._ZN5QListIN10QtMobility20QOrganizerItemDetailEE13detach_helperEi 0x00027480   Section       86  QtOrganizer.in(t._ZN5QListIN10QtMobility20QOrganizerItemDetailEE13detach_helperEi)
    t._ZN5QListIN10QtMobility20QOrganizerItemDetailEE13detach_helperEi.clean 0x000274d6   Section        8  QtOrganizer.in(t._ZN5QListIN10QtMobility20QOrganizerItemDetailEE13detach_helperEi.clean)
    t._ZN5QListIN10QtMobility20QOrganizerItemDetailEE13detach_helperEv 0x000274de   Section       12  QtOrganizer.in(t._ZN5QListIN10QtMobility20QOrganizerItemDetailEE13detach_helperEv)
    t._ZN5QListIN10QtMobility20QOrganizerItemDetailEE14node_constructEPNS2_4NodeERKS1_ 0x000274ea   Section       26  QtOrganizer.in(t._ZN5QListIN10QtMobility20QOrganizerItemDetailEE14node_constructEPNS2_4NodeERKS1_)
    t._ZN5QListIN10QtMobility20QOrganizerItemDetailEE14node_constructEPNS2_4NodeERKS1_.clean 0x00027504   Section       12  QtOrganizer.in(t._ZN5QListIN10QtMobility20QOrganizerItemDetailEE14node_constructEPNS2_4NodeERKS1_.clean)
    t._ZN5QListIN10QtMobility20QOrganizerItemDetailEE18detach_helper_growEii 0x00027510   Section      186  QtOrganizer.in(t._ZN5QListIN10QtMobility20QOrganizerItemDetailEE18detach_helper_growEii)
    t._ZN5QListIN10QtMobility20QOrganizerItemDetailEE18detach_helper_growEii.clean 0x000275ca   Section        8  QtOrganizer.in(t._ZN5QListIN10QtMobility20QOrganizerItemDetailEE18detach_helper_growEii.clean)
    t._ZN5QListIN10QtMobility20QOrganizerItemDetailEE4freeEPN9QListData4DataE 0x000275d2   Section       48  QtOrganizer.in(t._ZN5QListIN10QtMobility20QOrganizerItemDetailEE4freeEPN9QListData4DataE)
    t._ZN5QListIN10QtMobility20QOrganizerItemDetailEE5clearEv 0x00027602   Section       26  QtOrganizer.in(t._ZN5QListIN10QtMobility20QOrganizerItemDetailEE5clearEv)
    t._ZN5QListIN10QtMobility20QOrganizerItemDetailEE5clearEv.clean 0x0002761c   Section       10  QtOrganizer.in(t._ZN5QListIN10QtMobility20QOrganizerItemDetailEE5clearEv.clean)
    t._ZN5QListIN10QtMobility20QOrganizerItemDetailEE6appendERKS1_ 0x00027628   Section      100  QtOrganizer.in(t._ZN5QListIN10QtMobility20QOrganizerItemDetailEE6appendERKS1_)
    t._ZN5QListIN10QtMobility20QOrganizerItemDetailEE6appendERKS1_.clean 0x0002768c   Section        8  QtOrganizer.in(t._ZN5QListIN10QtMobility20QOrganizerItemDetailEE6appendERKS1_.clean)
    t._ZN5QListIN10QtMobility20QOrganizerItemDetailEE6detachEv 0x00027694   Section       24  QtOrganizer.in(t._ZN5QListIN10QtMobility20QOrganizerItemDetailEE6detachEv)
    t._ZN5QListIN10QtMobility20QOrganizerItemDetailEE7replaceEiRKS1_ 0x000276ac   Section       28  QtOrganizer.in(t._ZN5QListIN10QtMobility20QOrganizerItemDetailEE7replaceEiRKS1_)
    t._ZN5QListIN10QtMobility20QOrganizerItemDetailEE9node_copyEPNS2_4NodeES4_S4_ 0x000276c8   Section       70  QtOrganizer.in(t._ZN5QListIN10QtMobility20QOrganizerItemDetailEE9node_copyEPNS2_4NodeES4_S4_)
    t._ZN5QListIN10QtMobility20QOrganizerItemDetailEE9node_copyEPNS2_4NodeES4_S4_.clean 0x0002770e   Section       22  QtOrganizer.in(t._ZN5QListIN10QtMobility20QOrganizerItemDetailEE9node_copyEPNS2_4NodeES4_S4_.clean)
    t._ZN5QListIN10QtMobility20QOrganizerItemDetailEEC1ERKS2_ 0x00027724   Section       30  QtOrganizer.in(t._ZN5QListIN10QtMobility20QOrganizerItemDetailEEC1ERKS2_)
    t._ZN5QListIN10QtMobility20QOrganizerItemDetailEEC1Ev 0x00027744   Section       20  QtOrganizer.in(t._ZN5QListIN10QtMobility20QOrganizerItemDetailEEC1Ev)
    t._ZN5QListIN10QtMobility20QOrganizerItemDetailEED1Ev 0x00027758   Section       30  QtOrganizer.in(t._ZN5QListIN10QtMobility20QOrganizerItemDetailEED1Ev)
    t._ZN5QListIN10QtMobility20QOrganizerItemDetailEEaSERKS2_ 0x00027776   Section       54  QtOrganizer.in(t._ZN5QListIN10QtMobility20QOrganizerItemDetailEEaSERKS2_)
    t._ZN5QListIN10QtMobility20QOrganizerItemDetailEEixEi 0x000277ac   Section       20  QtOrganizer.in(t._ZN5QListIN10QtMobility20QOrganizerItemDetailEEixEi)
    t._ZN5QListIN10QtMobility20QOrganizerItemFilterEE13detach_helperEi 0x000277c0   Section       86  QtOrganizer.in(t._ZN5QListIN10QtMobility20QOrganizerItemFilterEE13detach_helperEi)
    t._ZN5QListIN10QtMobility20QOrganizerItemFilterEE13detach_helperEi.clean 0x00027816   Section        8  QtOrganizer.in(t._ZN5QListIN10QtMobility20QOrganizerItemFilterEE13detach_helperEi.clean)
    t._ZN5QListIN10QtMobility20QOrganizerItemFilterEE13detach_helperEv 0x0002781e   Section       12  QtOrganizer.in(t._ZN5QListIN10QtMobility20QOrganizerItemFilterEE13detach_helperEv)
    t._ZN5QListIN10QtMobility20QOrganizerItemFilterEE14node_constructEPNS2_4NodeERKS1_ 0x0002782a   Section       26  QtOrganizer.in(t._ZN5QListIN10QtMobility20QOrganizerItemFilterEE14node_constructEPNS2_4NodeERKS1_)
    t._ZN5QListIN10QtMobility20QOrganizerItemFilterEE14node_constructEPNS2_4NodeERKS1_.clean 0x00027844   Section       12  QtOrganizer.in(t._ZN5QListIN10QtMobility20QOrganizerItemFilterEE14node_constructEPNS2_4NodeERKS1_.clean)
    t._ZN5QListIN10QtMobility20QOrganizerItemFilterEE18detach_helper_growEii 0x00027850   Section      186  QtOrganizer.in(t._ZN5QListIN10QtMobility20QOrganizerItemFilterEE18detach_helper_growEii)
    t._ZN5QListIN10QtMobility20QOrganizerItemFilterEE18detach_helper_growEii.clean 0x0002790a   Section        8  QtOrganizer.in(t._ZN5QListIN10QtMobility20QOrganizerItemFilterEE18detach_helper_growEii.clean)
    t._ZN5QListIN10QtMobility20QOrganizerItemFilterEE3endEv 0x00027912   Section       22  QtOrganizer.in(t._ZN5QListIN10QtMobility20QOrganizerItemFilterEE3endEv)
    t._ZN5QListIN10QtMobility20QOrganizerItemFilterEE4freeEPN9QListData4DataE 0x00027928   Section       48  QtOrganizer.in(t._ZN5QListIN10QtMobility20QOrganizerItemFilterEE4freeEPN9QListData4DataE)
    t._ZN5QListIN10QtMobility20QOrganizerItemFilterEE5beginEv 0x00027958   Section       22  QtOrganizer.in(t._ZN5QListIN10QtMobility20QOrganizerItemFilterEE5beginEv)
    t._ZN5QListIN10QtMobility20QOrganizerItemFilterEE5clearEv 0x0002796e   Section       26  QtOrganizer.in(t._ZN5QListIN10QtMobility20QOrganizerItemFilterEE5clearEv)
    t._ZN5QListIN10QtMobility20QOrganizerItemFilterEE5clearEv.clean 0x00027988   Section       10  QtOrganizer.in(t._ZN5QListIN10QtMobility20QOrganizerItemFilterEE5clearEv.clean)
    t._ZN5QListIN10QtMobility20QOrganizerItemFilterEE5eraseENS2_8iteratorE 0x00027992   Section       26  QtOrganizer.in(t._ZN5QListIN10QtMobility20QOrganizerItemFilterEE5eraseENS2_8iteratorE)
    t._ZN5QListIN10QtMobility20QOrganizerItemFilterEE5firstEv 0x000279ac   Section       14  QtOrganizer.in(t._ZN5QListIN10QtMobility20QOrganizerItemFilterEE5firstEv)
    t._ZN5QListIN10QtMobility20QOrganizerItemFilterEE6appendERKS1_ 0x000279bc   Section      100  QtOrganizer.in(t._ZN5QListIN10QtMobility20QOrganizerItemFilterEE6appendERKS1_)
    t._ZN5QListIN10QtMobility20QOrganizerItemFilterEE6appendERKS1_.clean 0x00027a20   Section        8  QtOrganizer.in(t._ZN5QListIN10QtMobility20QOrganizerItemFilterEE6appendERKS1_.clean)
    t._ZN5QListIN10QtMobility20QOrganizerItemFilterEE6detachEv 0x00027a28   Section       28  QtOrganizer.in(t._ZN5QListIN10QtMobility20QOrganizerItemFilterEE6detachEv)
    t._ZN5QListIN10QtMobility20QOrganizerItemFilterEE9node_copyEPNS2_4NodeES4_S4_ 0x00027a44   Section       70  QtOrganizer.in(t._ZN5QListIN10QtMobility20QOrganizerItemFilterEE9node_copyEPNS2_4NodeES4_S4_)
    t._ZN5QListIN10QtMobility20QOrganizerItemFilterEE9node_copyEPNS2_4NodeES4_S4_.clean 0x00027a8a   Section       22  QtOrganizer.in(t._ZN5QListIN10QtMobility20QOrganizerItemFilterEE9node_copyEPNS2_4NodeES4_S4_.clean)
    t._ZN5QListIN10QtMobility20QOrganizerItemFilterEE9removeAllERKS1_ 0x00027aa0   Section      112  QtOrganizer.in(t._ZN5QListIN10QtMobility20QOrganizerItemFilterEE9removeAllERKS1_)
    t._ZN5QListIN10QtMobility20QOrganizerItemFilterEE9removeAllERKS1_.clean 0x00027b10   Section       10  QtOrganizer.in(t._ZN5QListIN10QtMobility20QOrganizerItemFilterEE9removeAllERKS1_.clean)
    t._ZN5QListIN10QtMobility20QOrganizerItemFilterEEC1ERKS2_ 0x00027b1a   Section       30  QtOrganizer.in(t._ZN5QListIN10QtMobility20QOrganizerItemFilterEEC1ERKS2_)
    t._ZN5QListIN10QtMobility20QOrganizerItemFilterEEC1Ev 0x00027b38   Section       20  QtOrganizer.in(t._ZN5QListIN10QtMobility20QOrganizerItemFilterEEC1Ev)
    t._ZN5QListIN10QtMobility20QOrganizerItemFilterEED1Ev 0x00027b4c   Section       30  QtOrganizer.in(t._ZN5QListIN10QtMobility20QOrganizerItemFilterEED1Ev)
    t._ZN5QListIN10QtMobility20QOrganizerItemFilterEEaSERKS2_ 0x00027b6a   Section       54  QtOrganizer.in(t._ZN5QListIN10QtMobility20QOrganizerItemFilterEEaSERKS2_)
    t._ZN5QListIN10QtMobility21QOrganizerItemCommentEE13detach_helperEv 0x00027ba0   Section       88  QtOrganizer.in(t._ZN5QListIN10QtMobility21QOrganizerItemCommentEE13detach_helperEv)
    t._ZN5QListIN10QtMobility21QOrganizerItemCommentEE13detach_helperEv.clean 0x00027bf8   Section        8  QtOrganizer.in(t._ZN5QListIN10QtMobility21QOrganizerItemCommentEE13detach_helperEv.clean)
    t._ZN5QListIN10QtMobility21QOrganizerItemCommentEE13node_destructEPNS2_4NodeES4_ 0x00027c00   Section       30  QtOrganizer.in(t._ZN5QListIN10QtMobility21QOrganizerItemCommentEE13node_destructEPNS2_4NodeES4_)
    t._ZN5QListIN10QtMobility21QOrganizerItemCommentEE14node_constructEPNS2_4NodeERKS1_ 0x00027c1e   Section       32  QtOrganizer.in(t._ZN5QListIN10QtMobility21QOrganizerItemCommentEE14node_constructEPNS2_4NodeERKS1_)
    t._ZN5QListIN10QtMobility21QOrganizerItemCommentEE14node_constructEPNS2_4NodeERKS1_.clean 0x00027c3e   Section       10  QtOrganizer.in(t._ZN5QListIN10QtMobility21QOrganizerItemCommentEE14node_constructEPNS2_4NodeERKS1_.clean)
    t._ZN5QListIN10QtMobility21QOrganizerItemCommentEE18detach_helper_growEii 0x00027c48   Section      180  QtOrganizer.in(t._ZN5QListIN10QtMobility21QOrganizerItemCommentEE18detach_helper_growEii)
    t._ZN5QListIN10QtMobility21QOrganizerItemCommentEE18detach_helper_growEii.clean 0x00027cfc   Section        8  QtOrganizer.in(t._ZN5QListIN10QtMobility21QOrganizerItemCommentEE18detach_helper_growEii.clean)
    t._ZN5QListIN10QtMobility21QOrganizerItemCommentEE4freeEPN9QListData4DataE 0x00027d04   Section       38  QtOrganizer.in(t._ZN5QListIN10QtMobility21QOrganizerItemCommentEE4freeEPN9QListData4DataE)
    t._ZN5QListIN10QtMobility21QOrganizerItemCommentEE6appendERKS1_ 0x00027d2c   Section       96  QtOrganizer.in(t._ZN5QListIN10QtMobility21QOrganizerItemCommentEE6appendERKS1_)
    t._ZN5QListIN10QtMobility21QOrganizerItemCommentEE6appendERKS1_.clean 0x00027d8c   Section        8  QtOrganizer.in(t._ZN5QListIN10QtMobility21QOrganizerItemCommentEE6appendERKS1_.clean)
    t._ZN5QListIN10QtMobility21QOrganizerItemCommentEE9node_copyEPNS2_4NodeES4_S4_ 0x00027d94   Section       80  QtOrganizer.in(t._ZN5QListIN10QtMobility21QOrganizerItemCommentEE9node_copyEPNS2_4NodeES4_S4_)
    t._ZN5QListIN10QtMobility21QOrganizerItemCommentEE9node_copyEPNS2_4NodeES4_S4_.clean 0x00027de4   Section       18  QtOrganizer.in(t._ZN5QListIN10QtMobility21QOrganizerItemCommentEE9node_copyEPNS2_4NodeES4_S4_.clean)
    t._ZN5QListIN10QtMobility21QOrganizerItemCommentEED1Ev 0x00027df6   Section       30  QtOrganizer.in(t._ZN5QListIN10QtMobility21QOrganizerItemCommentEED1Ev)
    t._ZN5QListIN10QtMobility22QOrganizerCollectionIdEE13detach_helperEi 0x00027e14   Section       86  QtOrganizer.in(t._ZN5QListIN10QtMobility22QOrganizerCollectionIdEE13detach_helperEi)
    t._ZN5QListIN10QtMobility22QOrganizerCollectionIdEE13detach_helperEi.clean 0x00027e6a   Section        8  QtOrganizer.in(t._ZN5QListIN10QtMobility22QOrganizerCollectionIdEE13detach_helperEi.clean)
    t._ZN5QListIN10QtMobility22QOrganizerCollectionIdEE13detach_helperEv 0x00027e72   Section       88  QtOrganizer.in(t._ZN5QListIN10QtMobility22QOrganizerCollectionIdEE13detach_helperEv)
    t._ZN5QListIN10QtMobility22QOrganizerCollectionIdEE13detach_helperEv.clean 0x00027eca   Section        8  QtOrganizer.in(t._ZN5QListIN10QtMobility22QOrganizerCollectionIdEE13detach_helperEv.clean)
    t._ZN5QListIN10QtMobility22QOrganizerCollectionIdEE14node_constructEPNS2_4NodeERKS1_ 0x00027ed2   Section       26  QtOrganizer.in(t._ZN5QListIN10QtMobility22QOrganizerCollectionIdEE14node_constructEPNS2_4NodeERKS1_)
    t._ZN5QListIN10QtMobility22QOrganizerCollectionIdEE14node_constructEPNS2_4NodeERKS1_.clean 0x00027eec   Section       12  QtOrganizer.in(t._ZN5QListIN10QtMobility22QOrganizerCollectionIdEE14node_constructEPNS2_4NodeERKS1_.clean)
    t._ZN5QListIN10QtMobility22QOrganizerCollectionIdEE18detach_helper_growEii 0x00027ef8   Section      186  QtOrganizer.in(t._ZN5QListIN10QtMobility22QOrganizerCollectionIdEE18detach_helper_growEii)
    t._ZN5QListIN10QtMobility22QOrganizerCollectionIdEE18detach_helper_growEii.clean 0x00027fb2   Section        8  QtOrganizer.in(t._ZN5QListIN10QtMobility22QOrganizerCollectionIdEE18detach_helper_growEii.clean)
    t._ZN5QListIN10QtMobility22QOrganizerCollectionIdEE4freeEPN9QListData4DataE 0x00027fba   Section       48  QtOrganizer.in(t._ZN5QListIN10QtMobility22QOrganizerCollectionIdEE4freeEPN9QListData4DataE)
    t._ZN5QListIN10QtMobility22QOrganizerCollectionIdEE6appendERKS1_ 0x00027fec   Section      100  QtOrganizer.in(t._ZN5QListIN10QtMobility22QOrganizerCollectionIdEE6appendERKS1_)
    t._ZN5QListIN10QtMobility22QOrganizerCollectionIdEE6appendERKS1_.clean 0x00028050   Section        8  QtOrganizer.in(t._ZN5QListIN10QtMobility22QOrganizerCollectionIdEE6appendERKS1_.clean)
    t._ZN5QListIN10QtMobility22QOrganizerCollectionIdEE9node_copyEPNS2_4NodeES4_S4_ 0x00028058   Section       70  QtOrganizer.in(t._ZN5QListIN10QtMobility22QOrganizerCollectionIdEE9node_copyEPNS2_4NodeES4_S4_)
    t._ZN5QListIN10QtMobility22QOrganizerCollectionIdEE9node_copyEPNS2_4NodeES4_S4_.clean 0x0002809e   Section       22  QtOrganizer.in(t._ZN5QListIN10QtMobility22QOrganizerCollectionIdEE9node_copyEPNS2_4NodeES4_S4_.clean)
    t._ZN5QListIN10QtMobility22QOrganizerCollectionIdEEC1Ev 0x000280b4   Section       20  QtOrganizer.in(t._ZN5QListIN10QtMobility22QOrganizerCollectionIdEEC1Ev)
    t._ZN5QListIN10QtMobility22QOrganizerCollectionIdEED1Ev 0x000280c8   Section       30  QtOrganizer.in(t._ZN5QListIN10QtMobility22QOrganizerCollectionIdEED1Ev)
    t._ZN5QListIN10QtMobility22QOrganizerCollectionIdEEaSERKS2_ 0x000280e6   Section       54  QtOrganizer.in(t._ZN5QListIN10QtMobility22QOrganizerCollectionIdEEaSERKS2_)
    t._ZN5QListIN10QtMobility23QOrganizerItemSortOrderEE13detach_helperEi 0x0002811c   Section      142  QtOrganizer.in(t._ZN5QListIN10QtMobility23QOrganizerItemSortOrderEE13detach_helperEi)
    t._ZN5QListIN10QtMobility23QOrganizerItemSortOrderEE13detach_helperEi.clean 0x000281aa   Section       20  QtOrganizer.in(t._ZN5QListIN10QtMobility23QOrganizerItemSortOrderEE13detach_helperEi.clean)
    t._ZN5QListIN10QtMobility23QOrganizerItemSortOrderEE13detach_helperEv 0x000281be   Section       12  QtOrganizer.in(t._ZN5QListIN10QtMobility23QOrganizerItemSortOrderEE13detach_helperEv)
    t._ZN5QListIN10QtMobility23QOrganizerItemSortOrderEE4freeEPN9QListData4DataE 0x000281ca   Section       54  QtOrganizer.in(t._ZN5QListIN10QtMobility23QOrganizerItemSortOrderEE4freeEPN9QListData4DataE)
    t._ZN5QListIN10QtMobility23QOrganizerItemSortOrderEE5beginEv 0x00028200   Section       34  QtOrganizer.in(t._ZN5QListIN10QtMobility23QOrganizerItemSortOrderEE5beginEv)
    t._ZN5QListIN10QtMobility23QOrganizerItemSortOrderEED1Ev 0x00028222   Section       30  QtOrganizer.in(t._ZN5QListIN10QtMobility23QOrganizerItemSortOrderEED1Ev)
    t._ZN5QListIN10QtMobility30QOrganizerItemDetailDefinitionEE13detach_helperEi 0x00028240   Section      142  QtOrganizer.in(t._ZN5QListIN10QtMobility30QOrganizerItemDetailDefinitionEE13detach_helperEi)
    t._ZN5QListIN10QtMobility30QOrganizerItemDetailDefinitionEE13detach_helperEi.clean 0x000282ce   Section       20  QtOrganizer.in(t._ZN5QListIN10QtMobility30QOrganizerItemDetailDefinitionEE13detach_helperEi.clean)
    t._ZN5QListIN10QtMobility30QOrganizerItemDetailDefinitionEE13detach_helperEv 0x000282e2   Section       88  QtOrganizer.in(t._ZN5QListIN10QtMobility30QOrganizerItemDetailDefinitionEE13detach_helperEv)
    t._ZN5QListIN10QtMobility30QOrganizerItemDetailDefinitionEE13detach_helperEv.clean 0x0002833a   Section        8  QtOrganizer.in(t._ZN5QListIN10QtMobility30QOrganizerItemDetailDefinitionEE13detach_helperEv.clean)
    t._ZN5QListIN10QtMobility30QOrganizerItemDetailDefinitionEE14node_constructEPNS2_4NodeERKS1_ 0x00028342   Section       26  QtOrganizer.in(t._ZN5QListIN10QtMobility30QOrganizerItemDetailDefinitionEE14node_constructEPNS2_4NodeERKS1_)
    t._ZN5QListIN10QtMobility30QOrganizerItemDetailDefinitionEE14node_constructEPNS2_4NodeERKS1_.clean 0x0002835c   Section       12  QtOrganizer.in(t._ZN5QListIN10QtMobility30QOrganizerItemDetailDefinitionEE14node_constructEPNS2_4NodeERKS1_.clean)
    t._ZN5QListIN10QtMobility30QOrganizerItemDetailDefinitionEE18detach_helper_growEii 0x00028368   Section      186  QtOrganizer.in(t._ZN5QListIN10QtMobility30QOrganizerItemDetailDefinitionEE18detach_helper_growEii)
    t._ZN5QListIN10QtMobility30QOrganizerItemDetailDefinitionEE18detach_helper_growEii.clean 0x00028422   Section        8  QtOrganizer.in(t._ZN5QListIN10QtMobility30QOrganizerItemDetailDefinitionEE18detach_helper_growEii.clean)
    t._ZN5QListIN10QtMobility30QOrganizerItemDetailDefinitionEE4freeEPN9QListData4DataE 0x0002842a   Section       54  QtOrganizer.in(t._ZN5QListIN10QtMobility30QOrganizerItemDetailDefinitionEE4freeEPN9QListData4DataE)
    t._ZN5QListIN10QtMobility30QOrganizerItemDetailDefinitionEE6appendERKS1_ 0x00028460   Section      100  QtOrganizer.in(t._ZN5QListIN10QtMobility30QOrganizerItemDetailDefinitionEE6appendERKS1_)
    t._ZN5QListIN10QtMobility30QOrganizerItemDetailDefinitionEE6appendERKS1_.clean 0x000284c4   Section        8  QtOrganizer.in(t._ZN5QListIN10QtMobility30QOrganizerItemDetailDefinitionEE6appendERKS1_.clean)
    t._ZN5QListIN10QtMobility30QOrganizerItemDetailDefinitionEE9node_copyEPNS2_4NodeES4_S4_ 0x000284cc   Section       70  QtOrganizer.in(t._ZN5QListIN10QtMobility30QOrganizerItemDetailDefinitionEE9node_copyEPNS2_4NodeES4_S4_)
    t._ZN5QListIN10QtMobility30QOrganizerItemDetailDefinitionEE9node_copyEPNS2_4NodeES4_S4_.clean 0x00028512   Section       22  QtOrganizer.in(t._ZN5QListIN10QtMobility30QOrganizerItemDetailDefinitionEE9node_copyEPNS2_4NodeES4_S4_.clean)
    t._ZN5QListIN10QtMobility30QOrganizerItemDetailDefinitionEEC1Ev 0x00028528   Section       20  QtOrganizer.in(t._ZN5QListIN10QtMobility30QOrganizerItemDetailDefinitionEEC1Ev)
    t._ZN5QListIN10QtMobility30QOrganizerItemDetailDefinitionEED1Ev 0x0002853c   Section       30  QtOrganizer.in(t._ZN5QListIN10QtMobility30QOrganizerItemDetailDefinitionEED1Ev)
    t._ZN5QListIN10QtMobility30QOrganizerItemDetailDefinitionEEaSERKS2_ 0x0002855a   Section       54  QtOrganizer.in(t._ZN5QListIN10QtMobility30QOrganizerItemDetailDefinitionEEaSERKS2_)
    t._ZN5QListIP7QObjectED1Ev               0x00028590   Section       42  QtOrganizer.in(t._ZN5QListIP7QObjectED1Ev)
    t._ZN5QListIPN10QtMobility23QOrganizerManagerEngineEE13detach_helperEv 0x000285ba   Section       88  QtOrganizer.in(t._ZN5QListIPN10QtMobility23QOrganizerManagerEngineEE13detach_helperEv)
    t._ZN5QListIPN10QtMobility23QOrganizerManagerEngineEE13detach_helperEv.clean 0x00028612   Section        8  QtOrganizer.in(t._ZN5QListIPN10QtMobility23QOrganizerManagerEngineEE13detach_helperEv.clean)
    t._ZN5QListIPN10QtMobility23QOrganizerManagerEngineEE18detach_helper_growEii 0x0002861a   Section      164  QtOrganizer.in(t._ZN5QListIPN10QtMobility23QOrganizerManagerEngineEE18detach_helper_growEii)
    t._ZN5QListIPN10QtMobility23QOrganizerManagerEngineEE18detach_helper_growEii.clean 0x000286be   Section        8  QtOrganizer.in(t._ZN5QListIPN10QtMobility23QOrganizerManagerEngineEE18detach_helper_growEii.clean)
    t._ZN5QListIPN10QtMobility23QOrganizerManagerEngineEE4freeEPN9QListData4DataE 0x000286c6   Section       24  QtOrganizer.in(t._ZN5QListIPN10QtMobility23QOrganizerManagerEngineEE4freeEPN9QListData4DataE)
    t._ZN5QListIPN10QtMobility23QOrganizerManagerEngineEE9node_copyEPNS3_4NodeES5_S5_ 0x000286de   Section       28  QtOrganizer.in(t._ZN5QListIPN10QtMobility23QOrganizerManagerEngineEE9node_copyEPNS3_4NodeES5_S5_)
    t._ZN5QListIPN10QtMobility23QOrganizerManagerEngineEED1Ev 0x000286fa   Section       30  QtOrganizer.in(t._ZN5QListIPN10QtMobility23QOrganizerManagerEngineEED1Ev)
    t._ZN5QListIPN10QtMobility30QOrganizerManagerEngineFactoryEE13detach_helperEi 0x00028718   Section       86  QtOrganizer.in(t._ZN5QListIPN10QtMobility30QOrganizerManagerEngineFactoryEE13detach_helperEi)
    t._ZN5QListIPN10QtMobility30QOrganizerManagerEngineFactoryEE13detach_helperEi.clean 0x0002876e   Section        8  QtOrganizer.in(t._ZN5QListIPN10QtMobility30QOrganizerManagerEngineFactoryEE13detach_helperEi.clean)
    t._ZN5QListIPN10QtMobility30QOrganizerManagerEngineFactoryEE13detach_helperEv 0x00028776   Section       12  QtOrganizer.in(t._ZN5QListIPN10QtMobility30QOrganizerManagerEngineFactoryEE13detach_helperEv)
    t._ZN5QListIPN10QtMobility30QOrganizerManagerEngineFactoryEE18detach_helper_growEii 0x00028782   Section      164  QtOrganizer.in(t._ZN5QListIPN10QtMobility30QOrganizerManagerEngineFactoryEE18detach_helper_growEii)
    t._ZN5QListIPN10QtMobility30QOrganizerManagerEngineFactoryEE18detach_helper_growEii.clean 0x00028826   Section        8  QtOrganizer.in(t._ZN5QListIPN10QtMobility30QOrganizerManagerEngineFactoryEE18detach_helper_growEii.clean)
    t._ZN5QListIPN10QtMobility30QOrganizerManagerEngineFactoryEE4freeEPN9QListData4DataE 0x0002882e   Section       24  QtOrganizer.in(t._ZN5QListIPN10QtMobility30QOrganizerManagerEngineFactoryEE4freeEPN9QListData4DataE)
    t._ZN5QListIPN10QtMobility30QOrganizerManagerEngineFactoryEE6appendERKS2_ 0x00028848   Section       60  QtOrganizer.in(t._ZN5QListIPN10QtMobility30QOrganizerManagerEngineFactoryEE6appendERKS2_)
    t._ZN5QListIPN10QtMobility30QOrganizerManagerEngineFactoryEE6appendERKS2_.clean 0x00028884   Section       10  QtOrganizer.in(t._ZN5QListIPN10QtMobility30QOrganizerManagerEngineFactoryEE6appendERKS2_.clean)
    t._ZN5QListIPN10QtMobility30QOrganizerManagerEngineFactoryEE9node_copyEPNS3_4NodeES5_S5_ 0x0002888e   Section       28  QtOrganizer.in(t._ZN5QListIPN10QtMobility30QOrganizerManagerEngineFactoryEE9node_copyEPNS3_4NodeES5_S5_)
    t._ZN5QListIPN10QtMobility30QOrganizerManagerEngineFactoryEEC1Ev 0x000288ac   Section       20  QtOrganizer.in(t._ZN5QListIPN10QtMobility30QOrganizerManagerEngineFactoryEEC1Ev)
    t._ZN5QListIPN10QtMobility30QOrganizerManagerEngineFactoryEED1Ev 0x000288c0   Section       30  QtOrganizer.in(t._ZN5QListIPN10QtMobility30QOrganizerManagerEngineFactoryEED1Ev)
    t._ZN5QListIiE13detach_helperEi          0x000288de   Section       98  QtOrganizer.in(t._ZN5QListIiE13detach_helperEi)
    t._ZN5QListIiE13detach_helperEi.clean    0x00028940   Section        8  QtOrganizer.in(t._ZN5QListIiE13detach_helperEi.clean)
    t._ZN5QListIiE4freeEPN9QListData4DataE   0x00028948   Section       24  QtOrganizer.in(t._ZN5QListIiE4freeEPN9QListData4DataE)
    t._ZN5QListIiED1Ev                       0x00028960   Section       30  QtOrganizer.in(t._ZN5QListIiED1Ev)
    t._ZN8QPointerIN10QtMobility17QOrganizerManagerEED1Ev 0x0002897e   Section       12  QtOrganizer.in(t._ZN8QPointerIN10QtMobility17QOrganizerManagerEED1Ev)
    t._ZN8QPointerIN10QtMobility23QOrganizerManagerEngineEED1Ev 0x0002898a   Section       12  QtOrganizer.in(t._ZN8QPointerIN10QtMobility23QOrganizerManagerEngineEED1Ev)
    t._ZN8QVariant9fromValueI4QSetI5QDateEEES_RKT_ 0x00028996   Section       24  QtOrganizer.in(t._ZN8QVariant9fromValueI4QSetI5QDateEEES_RKT_)
    t._ZN8QVariant9fromValueI4QSetIN10QtMobility24QOrganizerRecurrenceRuleEEEES_RKT_ 0x000289ae   Section       24  QtOrganizer.in(t._ZN8QVariant9fromValueI4QSetIN10QtMobility24QOrganizerRecurrenceRuleEEEES_RKT_)
    t._ZN9QHashNodeI7QStringPN10QtMobility30QOrganizerManagerEngineFactoryEEC1ERKS0_RKS3_ 0x000289c6   Section       18  QtOrganizer.in(t._ZN9QHashNodeI7QStringPN10QtMobility30QOrganizerManagerEngineFactoryEEC1ERKS0_RKS3_)
    t._ZN9QHashNodeI7QStringPcEC1ERKS0_RKS1_ 0x000289d8   Section       18  QtOrganizer.in(t._ZN9QHashNodeI7QStringPcEC1ERKS0_RKS1_)
    t._ZN9QHashNodeIN10QtMobility16QOrganizerItemIdENS0_14QOrganizerItemEEC1ERKS1_RKS2_ 0x000289ea   Section       28  QtOrganizer.in(t._ZN9QHashNodeIN10QtMobility16QOrganizerItemIdENS0_14QOrganizerItemEEC1ERKS1_RKS2_)
    t._ZN9QHashNodeIN10QtMobility16QOrganizerItemIdENS0_14QOrganizerItemEEC1ERKS1_RKS2_.clean 0x00028a06   Section       12  QtOrganizer.in(t._ZN9QHashNodeIN10QtMobility16QOrganizerItemIdENS0_14QOrganizerItemEEC1ERKS1_RKS2_.clean)
    t._ZN9QHashNodeIN10QtMobility16QOrganizerItemIdES1_EC1ERKS1_S4_ 0x00028a12   Section       28  QtOrganizer.in(t._ZN9QHashNodeIN10QtMobility16QOrganizerItemIdES1_EC1ERKS1_S4_)
    t._ZN9QHashNodeIN10QtMobility16QOrganizerItemIdES1_EC1ERKS1_S4_.clean 0x00028a2e   Section       12  QtOrganizer.in(t._ZN9QHashNodeIN10QtMobility16QOrganizerItemIdES1_EC1ERKS1_S4_.clean)
    t._ZN9QHashNodeIN10QtMobility26QOrganizerItemStringHolderE8QVariantEC1ERKS1_RKS2_ 0x00028a3a   Section       22  QtOrganizer.in(t._ZN9QHashNodeIN10QtMobility26QOrganizerItemStringHolderE8QVariantEC1ERKS1_RKS2_)
    t._ZN9QHashNodeIN10QtMobility26QOrganizerItemStringHolderE8QVariantEC1ERKS1_RKS2_.clean 0x00028a50   Section       10  QtOrganizer.in(t._ZN9QHashNodeIN10QtMobility26QOrganizerItemStringHolderE8QVariantEC1ERKS1_RKS2_.clean)
    t._ZN9QHashNodeIPKc7QStringEC1ERKS1_RKS2_ 0x00028a5a   Section       18  QtOrganizer.in(t._ZN9QHashNodeIPKc7QStringEC1ERKS1_RKS2_)
    t._ZN9QMultiMapIN10QtMobility22QOrganizerCollectionIdENS0_16QOrganizerItemIdEE6removeERKS1_RKS2_ 0x00028a6c   Section       96  QtOrganizer.in(t._ZN9QMultiMapIN10QtMobility22QOrganizerCollectionIdENS0_16QOrganizerItemIdEE6removeERKS1_RKS2_)
    t._ZNK10QtMobility14QOrganizerItem6detailINS_18QOrganizerItemGuidEEET_v 0x00028acc   Section       36  QtOrganizer.in(t._ZNK10QtMobility14QOrganizerItem6detailINS_18QOrganizerItemGuidEEET_v)
    t._ZNK10QtMobility14QOrganizerItem6detailINS_18QOrganizerItemGuidEEET_v.clean 0x00028af0   Section       10  QtOrganizer.in(t._ZNK10QtMobility14QOrganizerItem6detailINS_18QOrganizerItemGuidEEET_v.clean)
    t._ZNK10QtMobility14QOrganizerItem6detailINS_18QOrganizerItemTypeEEET_v 0x00028afc   Section       36  QtOrganizer.in(t._ZNK10QtMobility14QOrganizerItem6detailINS_18QOrganizerItemTypeEEET_v)
    t._ZNK10QtMobility14QOrganizerItem6detailINS_18QOrganizerItemTypeEEET_v.clean 0x00028b20   Section       10  QtOrganizer.in(t._ZNK10QtMobility14QOrganizerItem6detailINS_18QOrganizerItemTypeEEET_v.clean)
    t._ZNK10QtMobility14QOrganizerItem6detailINS_18QOrganizerTodoTimeEEET_v 0x00028b2c   Section       36  QtOrganizer.in(t._ZNK10QtMobility14QOrganizerItem6detailINS_18QOrganizerTodoTimeEEET_v)
    t._ZNK10QtMobility14QOrganizerItem6detailINS_18QOrganizerTodoTimeEEET_v.clean 0x00028b50   Section       10  QtOrganizer.in(t._ZNK10QtMobility14QOrganizerItem6detailINS_18QOrganizerTodoTimeEEET_v.clean)
    t._ZNK10QtMobility14QOrganizerItem6detailINS_19QOrganizerEventTimeEEET_v 0x00028b5c   Section       36  QtOrganizer.in(t._ZNK10QtMobility14QOrganizerItem6detailINS_19QOrganizerEventTimeEEET_v)
    t._ZNK10QtMobility14QOrganizerItem6detailINS_19QOrganizerEventTimeEEET_v.clean 0x00028b80   Section       10  QtOrganizer.in(t._ZNK10QtMobility14QOrganizerItem6detailINS_19QOrganizerEventTimeEEET_v.clean)
    t._ZNK10QtMobility14QOrganizerItem6detailINS_20QOrganizerItemParentEEET_v 0x00028b8c   Section       36  QtOrganizer.in(t._ZNK10QtMobility14QOrganizerItem6detailINS_20QOrganizerItemParentEEET_v)
    t._ZNK10QtMobility14QOrganizerItem6detailINS_20QOrganizerItemParentEEET_v.clean 0x00028bb0   Section       10  QtOrganizer.in(t._ZNK10QtMobility14QOrganizerItem6detailINS_20QOrganizerItemParentEEET_v.clean)
    t._ZNK10QtMobility14QOrganizerItem6detailINS_21QOrganizerJournalTimeEEET_v 0x00028bbc   Section       36  QtOrganizer.in(t._ZNK10QtMobility14QOrganizerItem6detailINS_21QOrganizerJournalTimeEEET_v)
    t._ZNK10QtMobility14QOrganizerItem6detailINS_21QOrganizerJournalTimeEEET_v.clean 0x00028be0   Section       10  QtOrganizer.in(t._ZNK10QtMobility14QOrganizerItem6detailINS_21QOrganizerJournalTimeEEET_v.clean)
    t._ZNK10QtMobility14QOrganizerItem6detailINS_22QOrganizerItemLocationEEET_v 0x00028bec   Section       36  QtOrganizer.in(t._ZNK10QtMobility14QOrganizerItem6detailINS_22QOrganizerItemLocationEEET_v)
    t._ZNK10QtMobility14QOrganizerItem6detailINS_22QOrganizerItemLocationEEET_v.clean 0x00028c10   Section       10  QtOrganizer.in(t._ZNK10QtMobility14QOrganizerItem6detailINS_22QOrganizerItemLocationEEET_v.clean)
    t._ZNK10QtMobility14QOrganizerItem6detailINS_22QOrganizerItemPriorityEEET_v 0x00028c1c   Section       36  QtOrganizer.in(t._ZNK10QtMobility14QOrganizerItem6detailINS_22QOrganizerItemPriorityEEET_v)
    t._ZNK10QtMobility14QOrganizerItem6detailINS_22QOrganizerItemPriorityEEET_v.clean 0x00028c40   Section       10  QtOrganizer.in(t._ZNK10QtMobility14QOrganizerItem6detailINS_22QOrganizerItemPriorityEEET_v.clean)
    t._ZNK10QtMobility14QOrganizerItem6detailINS_22QOrganizerTodoProgressEEET_v 0x00028c4c   Section       36  QtOrganizer.in(t._ZNK10QtMobility14QOrganizerItem6detailINS_22QOrganizerTodoProgressEEET_v)
    t._ZNK10QtMobility14QOrganizerItem6detailINS_22QOrganizerTodoProgressEEET_v.clean 0x00028c70   Section       10  QtOrganizer.in(t._ZNK10QtMobility14QOrganizerItem6detailINS_22QOrganizerTodoProgressEEET_v.clean)
    t._ZNK10QtMobility14QOrganizerItem6detailINS_24QOrganizerItemRecurrenceEEET_v 0x00028c7c   Section       36  QtOrganizer.in(t._ZNK10QtMobility14QOrganizerItem6detailINS_24QOrganizerItemRecurrenceEEET_v)
    t._ZNK10QtMobility14QOrganizerItem6detailINS_24QOrganizerItemRecurrenceEEET_v.clean 0x00028ca0   Section       10  QtOrganizer.in(t._ZNK10QtMobility14QOrganizerItem6detailINS_24QOrganizerItemRecurrenceEEET_v.clean)
    t._ZNK10QtMobility14QOrganizerItem6detailINS_25QOrganizerItemDescriptionEEET_v 0x00028cac   Section       36  QtOrganizer.in(t._ZNK10QtMobility14QOrganizerItem6detailINS_25QOrganizerItemDescriptionEEET_v)
    t._ZNK10QtMobility14QOrganizerItem6detailINS_25QOrganizerItemDescriptionEEET_v.clean 0x00028cd0   Section       10  QtOrganizer.in(t._ZNK10QtMobility14QOrganizerItem6detailINS_25QOrganizerItemDescriptionEEET_v.clean)
    t._ZNK10QtMobility14QOrganizerItem6detailINS_26QOrganizerItemDisplayLabelEEET_v 0x00028cdc   Section       36  QtOrganizer.in(t._ZNK10QtMobility14QOrganizerItem6detailINS_26QOrganizerItemDisplayLabelEEET_v)
    t._ZNK10QtMobility14QOrganizerItem6detailINS_26QOrganizerItemDisplayLabelEEET_v.clean 0x00028d00   Section       10  QtOrganizer.in(t._ZNK10QtMobility14QOrganizerItem6detailINS_26QOrganizerItemDisplayLabelEEET_v.clean)
    t._ZNK10QtMobility14QOrganizerItem7detailsINS_21QOrganizerItemCommentEEE5QListIT_Ev 0x00028d0c   Section       88  QtOrganizer.in(t._ZNK10QtMobility14QOrganizerItem7detailsINS_21QOrganizerItemCommentEEE5QListIT_Ev)
    t._ZNK10QtMobility14QOrganizerItem7detailsINS_21QOrganizerItemCommentEEE5QListIT_Ev.clean 0x00028d64   Section       22  QtOrganizer.in(t._ZNK10QtMobility14QOrganizerItem7detailsINS_21QOrganizerItemCommentEEE5QListIT_Ev.clean)
    t._ZNK10QtMobility15QLatin1ConstantILi10EEcv7QStringEv 0x00028d7a   Section       10  QtOrganizer.in(t._ZNK10QtMobility15QLatin1ConstantILi10EEcv7QStringEv)
    t._ZNK10QtMobility15QLatin1ConstantILi11EEcv7QStringEv 0x00028d84   Section       10  QtOrganizer.in(t._ZNK10QtMobility15QLatin1ConstantILi11EEcv7QStringEv)
    t._ZNK10QtMobility15QLatin1ConstantILi12EEcv7QStringEv 0x00028d8e   Section       10  QtOrganizer.in(t._ZNK10QtMobility15QLatin1ConstantILi12EEcv7QStringEv)
    t._ZNK10QtMobility15QLatin1ConstantILi13EEcv7QStringEv 0x00028d98   Section       10  QtOrganizer.in(t._ZNK10QtMobility15QLatin1ConstantILi13EEcv7QStringEv)
    t._ZNK10QtMobility15QLatin1ConstantILi14EEcv7QStringEv 0x00028da2   Section       10  QtOrganizer.in(t._ZNK10QtMobility15QLatin1ConstantILi14EEcv7QStringEv)
    t._ZNK10QtMobility15QLatin1ConstantILi15EEcv7QStringEv 0x00028dac   Section       10  QtOrganizer.in(t._ZNK10QtMobility15QLatin1ConstantILi15EEcv7QStringEv)
    t._ZNK10QtMobility15QLatin1ConstantILi16EEcv7QStringEv 0x00028db6   Section       10  QtOrganizer.in(t._ZNK10QtMobility15QLatin1ConstantILi16EEcv7QStringEv)
    t._ZNK10QtMobility15QLatin1ConstantILi18EEcv7QStringEv 0x00028dc0   Section       10  QtOrganizer.in(t._ZNK10QtMobility15QLatin1ConstantILi18EEcv7QStringEv)
    t._ZNK10QtMobility15QLatin1ConstantILi19EEcv7QStringEv 0x00028dca   Section       10  QtOrganizer.in(t._ZNK10QtMobility15QLatin1ConstantILi19EEcv7QStringEv)
    t._ZNK10QtMobility15QLatin1ConstantILi22EEcv7QStringEv 0x00028dd4   Section       10  QtOrganizer.in(t._ZNK10QtMobility15QLatin1ConstantILi22EEcv7QStringEv)
    t._ZNK10QtMobility15QLatin1ConstantILi4EEcv7QStringEv 0x00028dde   Section       10  QtOrganizer.in(t._ZNK10QtMobility15QLatin1ConstantILi4EEcv7QStringEv)
    t._ZNK10QtMobility15QLatin1ConstantILi5EEcv7QStringEv 0x00028de8   Section       10  QtOrganizer.in(t._ZNK10QtMobility15QLatin1ConstantILi5EEcv7QStringEv)
    t._ZNK10QtMobility15QLatin1ConstantILi6EEcv7QStringEv 0x00028df2   Section       10  QtOrganizer.in(t._ZNK10QtMobility15QLatin1ConstantILi6EEcv7QStringEv)
    t._ZNK10QtMobility15QLatin1ConstantILi7EEcv7QStringEv 0x00028dfc   Section       10  QtOrganizer.in(t._ZNK10QtMobility15QLatin1ConstantILi7EEcv7QStringEv)
    t._ZNK10QtMobility15QLatin1ConstantILi8EEcv7QStringEv 0x00028e06   Section       10  QtOrganizer.in(t._ZNK10QtMobility15QLatin1ConstantILi8EEcv7QStringEv)
    t._ZNK10QtMobility15QLatin1ConstantILi9EEcv7QStringEv 0x00028e10   Section       10  QtOrganizer.in(t._ZNK10QtMobility15QLatin1ConstantILi9EEcv7QStringEv)
    t._ZNK10QtMobility20QOrganizerItemDetail5valueI9QDateTimeEET_PKc 0x00028e1a   Section       98  QtOrganizer.in(t._ZNK10QtMobility20QOrganizerItemDetail5valueI9QDateTimeEET_PKc)
    t._ZNK10QtMobility20QOrganizerItemDetail5valueI9QDateTimeEET_PKc.clean 0x00028e7c   Section       18  QtOrganizer.in(t._ZNK10QtMobility20QOrganizerItemDetail5valueI9QDateTimeEET_PKc.clean)
    t._ZNK10QtMobility20QOrganizerItemDetail5valueIiEET_PKc 0x00028e8e   Section       66  QtOrganizer.in(t._ZNK10QtMobility20QOrganizerItemDetail5valueIiEET_PKc)
    t._ZNK10QtMobility20QOrganizerItemDetail5valueIiEET_PKc.clean 0x00028ed0   Section       10  QtOrganizer.in(t._ZNK10QtMobility20QOrganizerItemDetail5valueIiEET_PKc.clean)
    t._ZNK12QMapIteratorI7QString8QVariantE7hasNextEv 0x00028eda   Section       20  QtOrganizer.in(t._ZNK12QMapIteratorI7QString8QVariantE7hasNextEv)
    t._ZNK12QWeakPointerIN10QtMobility25QOrganizerItemSaveRequestEE4dataEv 0x00028eee   Section       30  QtOrganizer.in(t._ZNK12QWeakPointerIN10QtMobility25QOrganizerItemSaveRequestEE4dataEv)
    t._ZNK12QWeakPointerIN10QtMobility26QOrganizerItemFetchRequestEE4dataEv 0x00028f0c   Section       30  QtOrganizer.in(t._ZNK12QWeakPointerIN10QtMobility26QOrganizerItemFetchRequestEE4dataEv)
    t._ZNK12QWeakPointerIN10QtMobility27QOrganizerItemRemoveRequestEE4dataEv 0x00028f2a   Section       30  QtOrganizer.in(t._ZNK12QWeakPointerIN10QtMobility27QOrganizerItemRemoveRequestEE4dataEv)
    t._ZNK12QWeakPointerIN10QtMobility28QOrganizerItemIdFetchRequestEE4dataEv 0x00028f48   Section       30  QtOrganizer.in(t._ZNK12QWeakPointerIN10QtMobility28QOrganizerItemIdFetchRequestEE4dataEv)
    t._ZNK12QWeakPointerIN10QtMobility31QOrganizerCollectionSaveRequestEE4dataEv 0x00028f66   Section       30  QtOrganizer.in(t._ZNK12QWeakPointerIN10QtMobility31QOrganizerCollectionSaveRequestEE4dataEv)
    t._ZNK12QWeakPointerIN10QtMobility32QOrganizerCollectionFetchRequestEE4dataEv 0x00028f84   Section       30  QtOrganizer.in(t._ZNK12QWeakPointerIN10QtMobility32QOrganizerCollectionFetchRequestEE4dataEv)
    t._ZNK12QWeakPointerIN10QtMobility33QOrganizerCollectionRemoveRequestEE4dataEv 0x00028fa2   Section       30  QtOrganizer.in(t._ZNK12QWeakPointerIN10QtMobility33QOrganizerCollectionRemoveRequestEE4dataEv)
    t._ZNK12QWeakPointerIN10QtMobility35QOrganizerItemFetchForExportRequestEE4dataEv 0x00028fc0   Section       30  QtOrganizer.in(t._ZNK12QWeakPointerIN10QtMobility35QOrganizerItemFetchForExportRequestEE4dataEv)
    t._ZNK12QWeakPointerIN10QtMobility36QOrganizerItemOccurrenceFetchRequestEE4dataEv 0x00028fde   Section       30  QtOrganizer.in(t._ZNK12QWeakPointerIN10QtMobility36QOrganizerItemOccurrenceFetchRequestEE4dataEv)
    t._ZNK12QWeakPointerIN10QtMobility41QOrganizerItemDetailDefinitionSaveRequestEE4dataEv 0x00028ffc   Section       30  QtOrganizer.in(t._ZNK12QWeakPointerIN10QtMobility41QOrganizerItemDetailDefinitionSaveRequestEE4dataEv)
    t._ZNK12QWeakPointerIN10QtMobility42QOrganizerItemDetailDefinitionFetchRequestEE4dataEv 0x0002901a   Section       30  QtOrganizer.in(t._ZNK12QWeakPointerIN10QtMobility42QOrganizerItemDetailDefinitionFetchRequestEE4dataEv)
    t._ZNK12QWeakPointerIN10QtMobility43QOrganizerItemDetailDefinitionRemoveRequestEE4dataEv 0x00029038   Section       30  QtOrganizer.in(t._ZNK12QWeakPointerIN10QtMobility43QOrganizerItemDetailDefinitionRemoveRequestEE4dataEv)
    t._ZNK17QForeachContainerI4QSetI5QDateEE9conditionEv 0x00029056   Section       26  QtOrganizer.in(t._ZNK17QForeachContainerI4QSetI5QDateEE9conditionEv)
    t._ZNK17QForeachContainerI4QSetIN10QtMobility24QOrganizerRecurrenceRuleEEE9conditionEv 0x00029070   Section       26  QtOrganizer.in(t._ZNK17QForeachContainerI4QSetIN10QtMobility24QOrganizerRecurrenceRuleEEE9conditionEv)
    t._ZNK17QForeachContainerI4QSetIiEE9conditionEv 0x0002908a   Section       26  QtOrganizer.in(t._ZNK17QForeachContainerI4QSetIiEE9conditionEv)
    t._ZNK17QForeachContainerI5QHashIN10QtMobility16QOrganizerItemIdENS1_14QOrganizerItemEEE9conditionEv 0x000290a4   Section       26  QtOrganizer.in(t._ZNK17QForeachContainerI5QHashIN10QtMobility16QOrganizerItemIdENS1_14QOrganizerItemEEE9conditionEv)
    t._ZNK17QForeachContainerI5QListI9QDateTimeEE9conditionEv 0x000290be   Section       26  QtOrganizer.in(t._ZNK17QForeachContainerI5QListI9QDateTimeEE9conditionEv)
    t._ZNK17QForeachContainerI5QListIN10QtMobility14QOrganizerItemEEE9conditionEv 0x000290d8   Section       26  QtOrganizer.in(t._ZNK17QForeachContainerI5QListIN10QtMobility14QOrganizerItemEEE9conditionEv)
    t._ZNK17QForeachContainerI5QListIN10QtMobility16QOrganizerItemIdEEE9conditionEv 0x000290f2   Section       26  QtOrganizer.in(t._ZNK17QForeachContainerI5QListIN10QtMobility16QOrganizerItemIdEEE9conditionEv)
    t._ZNK17QForeachContainerI5QListIN10QtMobility20QOrganizerItemDetailEEE9conditionEv 0x0002910c   Section       26  QtOrganizer.in(t._ZNK17QForeachContainerI5QListIN10QtMobility20QOrganizerItemDetailEEE9conditionEv)
    t._ZNK17QForeachContainerI5QListIN10QtMobility21QOrganizerItemCommentEEE9conditionEv 0x00029126   Section       26  QtOrganizer.in(t._ZNK17QForeachContainerI5QListIN10QtMobility21QOrganizerItemCommentEEE9conditionEv)
    t._ZNK17QForeachContainerI5QListIN10QtMobility22QOrganizerCollectionIdEEE9conditionEv 0x00029140   Section       26  QtOrganizer.in(t._ZNK17QForeachContainerI5QListIN10QtMobility22QOrganizerCollectionIdEEE9conditionEv)
    t._ZNK17QForeachContainerI5QListIPN10QtMobility30QOrganizerManagerEngineFactoryEEE9conditionEv 0x0002915a   Section       26  QtOrganizer.in(t._ZNK17QForeachContainerI5QListIPN10QtMobility30QOrganizerManagerEngineFactoryEEE9conditionEv)
    t._ZNK4QMapI7QString8QVariantE14const_iteratorneERKS3_ 0x00029174   Section       16  QtOrganizer.in(t._ZNK4QMapI7QString8QVariantE14const_iteratorneERKS3_)
    t._ZNK4QMapI7QString8QVariantE15mutableFindNodeEPPN8QMapData4NodeERKS0_ 0x00029184   Section       86  QtOrganizer.in(t._ZNK4QMapI7QString8QVariantE15mutableFindNodeEPPN8QMapData4NodeERKS0_)
    t._ZNK4QMapI7QString8QVariantE8containsERKS0_ 0x000291da   Section       90  QtOrganizer.in(t._ZNK4QMapI7QString8QVariantE8containsERKS0_)
    t._ZNK4QMapI7QStringN10QtMobility30QOrganizerItemDetailDefinitionEE4keysEv 0x00029234   Section       80  QtOrganizer.in(t._ZNK4QMapI7QStringN10QtMobility30QOrganizerItemDetailDefinitionEE4keysEv)
    t._ZNK4QMapI7QStringN10QtMobility30QOrganizerItemDetailDefinitionEE4keysEv.clean 0x00029284   Section       10  QtOrganizer.in(t._ZNK4QMapI7QStringN10QtMobility30QOrganizerItemDetailDefinitionEE4keysEv.clean)
    t._ZNK4QMapI7QStringN10QtMobility30QOrganizerItemDetailDefinitionEE8findNodeERKS0_ 0x0002928e   Section       82  QtOrganizer.in(t._ZNK4QMapI7QStringN10QtMobility30QOrganizerItemDetailDefinitionEE8findNodeERKS0_)
    t._ZNK4QMapI7QStringN10QtMobility35QOrganizerItemDetailFieldDefinitionEE15mutableFindNodeEPPN8QMapData4NodeERKS0_ 0x000292e0   Section       86  QtOrganizer.in(t._ZNK4QMapI7QStringN10QtMobility35QOrganizerItemDetailFieldDefinitionEE15mutableFindNodeEPPN8QMapData4NodeERKS0_)
    t._ZNK4QMapI7QStringN10QtMobility35QOrganizerItemDetailFieldDefinitionEE5valueERKS0_ 0x00029336   Section       46  QtOrganizer.in(t._ZNK4QMapI7QStringN10QtMobility35QOrganizerItemDetailFieldDefinitionEE5valueERKS0_)
    t._ZNK4QMapI7QStringN10QtMobility35QOrganizerItemDetailFieldDefinitionEE8containsERKS0_ 0x00029364   Section       22  QtOrganizer.in(t._ZNK4QMapI7QStringN10QtMobility35QOrganizerItemDetailFieldDefinitionEE8containsERKS0_)
    t._ZNK4QMapI7QStringN10QtMobility35QOrganizerItemDetailFieldDefinitionEE8findNodeERKS0_ 0x0002937a   Section       82  QtOrganizer.in(t._ZNK4QMapI7QStringN10QtMobility35QOrganizerItemDetailFieldDefinitionEE8findNodeERKS0_)
    t._ZNK4QMapI7QStringN10QtMobility35QOrganizerItemDetailFieldDefinitionEEeqERKS3_ 0x000293cc   Section      112  QtOrganizer.in(t._ZNK4QMapI7QStringN10QtMobility35QOrganizerItemDetailFieldDefinitionEEeqERKS3_)
    t._ZNK4QMapI7QStringS0_E15mutableFindNodeEPPN8QMapData4NodeERKS0_ 0x0002943c   Section       86  QtOrganizer.in(t._ZNK4QMapI7QStringS0_E15mutableFindNodeEPPN8QMapData4NodeERKS0_)
    t._ZNK4QMapI7QStringS0_E4keysEv          0x00029492   Section       50  QtOrganizer.in(t._ZNK4QMapI7QStringS0_E4keysEv)
    t._ZNK4QMapI7QStringS0_E4keysEv.clean    0x000294c4   Section       10  QtOrganizer.in(t._ZNK4QMapI7QStringS0_E4keysEv.clean)
    t._ZNK4QMapI7QStringS0_E8findNodeERKS0_  0x000294ce   Section       82  QtOrganizer.in(t._ZNK4QMapI7QStringS0_E8findNodeERKS0_)
    t._ZNK4QMapI7QStringS_IS0_N10QtMobility30QOrganizerItemDetailDefinitionEEE5valueERKS0_ 0x00029520   Section      108  QtOrganizer.in(t._ZNK4QMapI7QStringS_IS0_N10QtMobility30QOrganizerItemDetailDefinitionEEE5valueERKS0_)
    t._ZNK4QMapIN10QtMobility22QOrganizerCollectionIdENS0_16QOrganizerItemIdEE3keyERKS2_ 0x0002958c   Section       68  QtOrganizer.in(t._ZNK4QMapIN10QtMobility22QOrganizerCollectionIdENS0_16QOrganizerItemIdEE3keyERKS2_)
    t._ZNK4QMapIN10QtMobility22QOrganizerCollectionIdENS0_16QOrganizerItemIdEE3keyERKS2_.clean 0x000295d0   Section       10  QtOrganizer.in(t._ZNK4QMapIN10QtMobility22QOrganizerCollectionIdENS0_16QOrganizerItemIdEE3keyERKS2_.clean)
    t._ZNK4QMapIN10QtMobility22QOrganizerCollectionIdENS0_16QOrganizerItemIdEE6valuesERKS1_ 0x000295da   Section       60  QtOrganizer.in(t._ZNK4QMapIN10QtMobility22QOrganizerCollectionIdENS0_16QOrganizerItemIdEE6valuesERKS1_)
    t._ZNK4QMapIN10QtMobility22QOrganizerCollectionIdENS0_16QOrganizerItemIdEE6valuesERKS1_.clean 0x00029616   Section       10  QtOrganizer.in(t._ZNK4QMapIN10QtMobility22QOrganizerCollectionIdENS0_16QOrganizerItemIdEE6valuesERKS1_.clean)
    t._ZNK4QMapIN10QtMobility22QOrganizerCollectionIdENS0_16QOrganizerItemIdEE8findNodeERKS1_ 0x00029620   Section       82  QtOrganizer.in(t._ZNK4QMapIN10QtMobility22QOrganizerCollectionIdENS0_16QOrganizerItemIdEE8findNodeERKS1_)
    t._ZNK4QMapIiN10QtMobility17QOrganizerManager5ErrorEE7isEmptyEv 0x00029672   Section       16  QtOrganizer.in(t._ZNK4QMapIiN10QtMobility17QOrganizerManager5ErrorEE7isEmptyEv)
    t._ZNK4QSetI5QDateE8containsERKS0_       0x00029682   Section       26  QtOrganizer.in(t._ZNK4QSetI5QDateE8containsERKS0_)
    t._ZNK4QSetI7QStringE8containsERKS0_     0x0002969c   Section       26  QtOrganizer.in(t._ZNK4QSetI7QStringE8containsERKS0_)
    t._ZNK4QSetIN10QtMobility16QOrganizerItemIdEE6toListEv 0x000296b8   Section      120  QtOrganizer.in(t._ZNK4QSetIN10QtMobility16QOrganizerItemIdEE6toListEv)
    t._ZNK4QSetIN10QtMobility16QOrganizerItemIdEE6toListEv.clean 0x00029730   Section       10  QtOrganizer.in(t._ZNK4QSetIN10QtMobility16QOrganizerItemIdEE6toListEv.clean)
    t._ZNK4QSetIN10QtMobility16QOrganizerItemIdEE7isEmptyEv 0x0002973a   Section       16  QtOrganizer.in(t._ZNK4QSetIN10QtMobility16QOrganizerItemIdEE7isEmptyEv)
    t._ZNK4QSetIN10QtMobility22QOrganizerCollectionIdEE6toListEv 0x0002974c   Section      120  QtOrganizer.in(t._ZNK4QSetIN10QtMobility22QOrganizerCollectionIdEE6toListEv)
    t._ZNK4QSetIN10QtMobility22QOrganizerCollectionIdEE6toListEv.clean 0x000297c4   Section       10  QtOrganizer.in(t._ZNK4QSetIN10QtMobility22QOrganizerCollectionIdEE6toListEv.clean)
    t._ZNK4QSetIN10QtMobility22QOrganizerCollectionIdEE7isEmptyEv 0x000297ce   Section       16  QtOrganizer.in(t._ZNK4QSetIN10QtMobility22QOrganizerCollectionIdEE7isEmptyEv)
    t._ZNK4QSetIN10QtMobility24QOrganizerRecurrenceRule5MonthEE7isEmptyEv 0x000297de   Section       16  QtOrganizer.in(t._ZNK4QSetIN10QtMobility24QOrganizerRecurrenceRule5MonthEE7isEmptyEv)
    t._ZNK4QSetIN10QtMobility24QOrganizerRecurrenceRuleEE7isEmptyEv 0x000297ee   Section       16  QtOrganizer.in(t._ZNK4QSetIN10QtMobility24QOrganizerRecurrenceRuleEE7isEmptyEv)
    t._ZNK4QSetIN2Qt9DayOfWeekEE7isEmptyEv   0x000297fe   Section       16  QtOrganizer.in(t._ZNK4QSetIN2Qt9DayOfWeekEE7isEmptyEv)
    t._ZNK4QSetIiE7isEmptyEv                 0x0002980e   Section       16  QtOrganizer.in(t._ZNK4QSetIiE7isEmptyEv)
    t._ZNK4QSetIiE8containsERKi              0x0002981e   Section       26  QtOrganizer.in(t._ZNK4QSetIiE8containsERKi)
    t._ZNK4QSetIiEeqERKS0_                   0x00029838   Section        8  QtOrganizer.in(t._ZNK4QSetIiEeqERKS0_)
    t._ZNK5QHashI5QDate15QHashDummyValueE8findNodeERKS0_Pj 0x00029840   Section       56  QtOrganizer.in(t._ZNK5QHashI5QDate15QHashDummyValueE8findNodeERKS0_Pj)
    t._ZNK5QHashI5QDate15QHashDummyValueEeqERKS2_ 0x00029878   Section      168  QtOrganizer.in(t._ZNK5QHashI5QDate15QHashDummyValueEeqERKS2_)
    t._ZNK5QHashI7QString15QHashDummyValueE8findNodeERKS0_Pj 0x00029920   Section       90  QtOrganizer.in(t._ZNK5QHashI7QString15QHashDummyValueE8findNodeERKS0_Pj)
    t._ZNK5QHashI7QStringPN10QtMobility30QOrganizerManagerEngineFactoryEE4keysEv 0x0002997a   Section       78  QtOrganizer.in(t._ZNK5QHashI7QStringPN10QtMobility30QOrganizerManagerEngineFactoryEE4keysEv)
    t._ZNK5QHashI7QStringPN10QtMobility30QOrganizerManagerEngineFactoryEE4keysEv.clean 0x000299c8   Section       10  QtOrganizer.in(t._ZNK5QHashI7QStringPN10QtMobility30QOrganizerManagerEngineFactoryEE4keysEv.clean)
    t._ZNK5QHashI7QStringPN10QtMobility30QOrganizerManagerEngineFactoryEE5beginEv 0x000299d2   Section       28  QtOrganizer.in(t._ZNK5QHashI7QStringPN10QtMobility30QOrganizerManagerEngineFactoryEE5beginEv)
    t._ZNK5QHashI7QStringPN10QtMobility30QOrganizerManagerEngineFactoryEE5valueERKS0_ 0x000299ee   Section       36  QtOrganizer.in(t._ZNK5QHashI7QStringPN10QtMobility30QOrganizerManagerEngineFactoryEE5valueERKS0_)
    t._ZNK5QHashI7QStringPN10QtMobility30QOrganizerManagerEngineFactoryEE6valuesERKS0_ 0x00029a12   Section       64  QtOrganizer.in(t._ZNK5QHashI7QStringPN10QtMobility30QOrganizerManagerEngineFactoryEE6valuesERKS0_)
    t._ZNK5QHashI7QStringPN10QtMobility30QOrganizerManagerEngineFactoryEE6valuesERKS0_.clean 0x00029a52   Section       10  QtOrganizer.in(t._ZNK5QHashI7QStringPN10QtMobility30QOrganizerManagerEngineFactoryEE6valuesERKS0_.clean)
    t._ZNK5QHashI7QStringPN10QtMobility30QOrganizerManagerEngineFactoryEE6valuesEv 0x00029a5c   Section       90  QtOrganizer.in(t._ZNK5QHashI7QStringPN10QtMobility30QOrganizerManagerEngineFactoryEE6valuesEv)
    t._ZNK5QHashI7QStringPN10QtMobility30QOrganizerManagerEngineFactoryEE6valuesEv.clean 0x00029ab6   Section       10  QtOrganizer.in(t._ZNK5QHashI7QStringPN10QtMobility30QOrganizerManagerEngineFactoryEE6valuesEv.clean)
    t._ZNK5QHashI7QStringPN10QtMobility30QOrganizerManagerEngineFactoryEE8findNodeERKS0_Pj 0x00029ac0   Section       90  QtOrganizer.in(t._ZNK5QHashI7QStringPN10QtMobility30QOrganizerManagerEngineFactoryEE8findNodeERKS0_Pj)
    t._ZNK5QHashI7QStringPcE5valueERKS0_RKS1_ 0x00029b1a   Section       38  QtOrganizer.in(t._ZNK5QHashI7QStringPcE5valueERKS0_RKS1_)
    t._ZNK5QHashI7QStringPcE8findNodeERKS0_Pj 0x00029b40   Section       90  QtOrganizer.in(t._ZNK5QHashI7QStringPcE8findNodeERKS0_Pj)
    t._ZNK5QHashIN10QtMobility16QOrganizerItemIdE15QHashDummyValueE8findNodeERKS1_Pj 0x00029b9a   Section       90  QtOrganizer.in(t._ZNK5QHashIN10QtMobility16QOrganizerItemIdE15QHashDummyValueE8findNodeERKS1_Pj)
    t._ZNK5QHashIN10QtMobility16QOrganizerItemIdENS0_14QOrganizerItemEE4keysEv 0x00029bf4   Section       88  QtOrganizer.in(t._ZNK5QHashIN10QtMobility16QOrganizerItemIdENS0_14QOrganizerItemEE4keysEv)
    t._ZNK5QHashIN10QtMobility16QOrganizerItemIdENS0_14QOrganizerItemEE4keysEv.clean 0x00029c4c   Section       10  QtOrganizer.in(t._ZNK5QHashIN10QtMobility16QOrganizerItemIdENS0_14QOrganizerItemEE4keysEv.clean)
    t._ZNK5QHashIN10QtMobility16QOrganizerItemIdENS0_14QOrganizerItemEE8findNodeERKS1_Pj 0x00029c56   Section       90  QtOrganizer.in(t._ZNK5QHashIN10QtMobility16QOrganizerItemIdENS0_14QOrganizerItemEE8findNodeERKS1_Pj)
    t._ZNK5QHashIN10QtMobility16QOrganizerItemIdES1_E8findNodeERKS1_Pj 0x00029cb0   Section       90  QtOrganizer.in(t._ZNK5QHashIN10QtMobility16QOrganizerItemIdES1_E8findNodeERKS1_Pj)
    t._ZNK5QHashIN10QtMobility22QOrganizerCollectionIdE15QHashDummyValueE8findNodeERKS1_Pj 0x00029d0a   Section       90  QtOrganizer.in(t._ZNK5QHashIN10QtMobility22QOrganizerCollectionIdE15QHashDummyValueE8findNodeERKS1_Pj)
    t._ZNK5QHashIN10QtMobility22QOrganizerCollectionIdE15QHashDummyValueEeqERKS3_ 0x00029d64   Section      130  QtOrganizer.in(t._ZNK5QHashIN10QtMobility22QOrganizerCollectionIdE15QHashDummyValueEeqERKS3_)
    t._ZNK5QHashIN10QtMobility24QOrganizerRecurrenceRule5MonthE15QHashDummyValueE8findNodeERKS2_Pj 0x00029de6   Section       62  QtOrganizer.in(t._ZNK5QHashIN10QtMobility24QOrganizerRecurrenceRule5MonthE15QHashDummyValueE8findNodeERKS2_Pj)
    t._ZNK5QHashIN10QtMobility24QOrganizerRecurrenceRule5MonthE15QHashDummyValueEeqERKS4_ 0x00029e24   Section      178  QtOrganizer.in(t._ZNK5QHashIN10QtMobility24QOrganizerRecurrenceRule5MonthE15QHashDummyValueEeqERKS4_)
    t._ZNK5QHashIN10QtMobility24QOrganizerRecurrenceRuleE15QHashDummyValueE8findNodeERKS1_Pj 0x00029ed6   Section       90  QtOrganizer.in(t._ZNK5QHashIN10QtMobility24QOrganizerRecurrenceRuleE15QHashDummyValueE8findNodeERKS1_Pj)
    t._ZNK5QHashIN10QtMobility24QOrganizerRecurrenceRuleE15QHashDummyValueEeqERKS3_ 0x00029f30   Section      192  QtOrganizer.in(t._ZNK5QHashIN10QtMobility24QOrganizerRecurrenceRuleE15QHashDummyValueEeqERKS3_)
    t._ZNK5QHashIN10QtMobility26QOrganizerItemStringHolderE8QVariantE10constBeginEv 0x00029ff0   Section       10  QtOrganizer.in(t._ZNK5QHashIN10QtMobility26QOrganizerItemStringHolderE8QVariantE10constBeginEv)
    t._ZNK5QHashIN10QtMobility26QOrganizerItemStringHolderE8QVariantE14const_iteratorneERKS4_ 0x00029ffa   Section       16  QtOrganizer.in(t._ZNK5QHashIN10QtMobility26QOrganizerItemStringHolderE8QVariantE14const_iteratorneERKS4_)
    t._ZNK5QHashIN10QtMobility26QOrganizerItemStringHolderE8QVariantE5valueERKS1_ 0x0002a00a   Section       52  QtOrganizer.in(t._ZNK5QHashIN10QtMobility26QOrganizerItemStringHolderE8QVariantE5valueERKS1_)
    t._ZNK5QHashIN10QtMobility26QOrganizerItemStringHolderE8QVariantE7isEmptyEv 0x0002a03e   Section       16  QtOrganizer.in(t._ZNK5QHashIN10QtMobility26QOrganizerItemStringHolderE8QVariantE7isEmptyEv)
    t._ZNK5QHashIN10QtMobility26QOrganizerItemStringHolderE8QVariantE8containsERKS1_ 0x0002a04e   Section       26  QtOrganizer.in(t._ZNK5QHashIN10QtMobility26QOrganizerItemStringHolderE8QVariantE8containsERKS1_)
    t._ZNK5QHashIN10QtMobility26QOrganizerItemStringHolderE8QVariantE8findNodeERKS1_Pj 0x0002a068   Section       90  QtOrganizer.in(t._ZNK5QHashIN10QtMobility26QOrganizerItemStringHolderE8QVariantE8findNodeERKS1_Pj)
    t._ZNK5QHashIN10QtMobility26QOrganizerItemStringHolderE8QVariantEeqERKS3_ 0x0002a0c2   Section      158  QtOrganizer.in(t._ZNK5QHashIN10QtMobility26QOrganizerItemStringHolderE8QVariantEeqERKS3_)
    t._ZNK5QHashIN2Qt9DayOfWeekE15QHashDummyValueE8findNodeERKS1_Pj 0x0002a160   Section       62  QtOrganizer.in(t._ZNK5QHashIN2Qt9DayOfWeekE15QHashDummyValueE8findNodeERKS1_Pj)
    t._ZNK5QHashIN2Qt9DayOfWeekE15QHashDummyValueEeqERKS3_ 0x0002a19e   Section      178  QtOrganizer.in(t._ZNK5QHashIN2Qt9DayOfWeekE15QHashDummyValueEeqERKS3_)
    t._ZNK5QHashIPKc7QStringE8findNodeERKS1_Pj 0x0002a250   Section       62  QtOrganizer.in(t._ZNK5QHashIPKc7QStringE8findNodeERKS1_Pj)
    t._ZNK5QHashIi15QHashDummyValueE8findNodeERKiPj 0x0002a28e   Section       50  QtOrganizer.in(t._ZNK5QHashIi15QHashDummyValueE8findNodeERKiPj)
    t._ZNK5QHashIi15QHashDummyValueEeqERKS1_ 0x0002a2c0   Section      156  QtOrganizer.in(t._ZNK5QHashIi15QHashDummyValueEeqERKS1_)
    t._ZNK5QListI7QStringE2atEi              0x0002a35c   Section        8  QtOrganizer.in(t._ZNK5QListI7QStringE2atEi)
    t._ZNK5QListI7QStringE5countEv           0x0002a364   Section        8  QtOrganizer.in(t._ZNK5QListI7QStringE5countEv)
    t._ZNK5QListI7QStringE5valueEi           0x0002a36c   Section       44  QtOrganizer.in(t._ZNK5QListI7QStringE5valueEi)
    t._ZNK5QListI7QStringE8containsERKS0_    0x0002a398   Section       54  QtOrganizer.in(t._ZNK5QListI7QStringE8containsERKS0_)
    t._ZNK5QListI8QVariantE14const_iteratorneERKS2_ 0x0002a3ce   Section       16  QtOrganizer.in(t._ZNK5QListI8QVariantE14const_iteratorneERKS2_)
    t._ZNK5QListI8QVariantE7isEmptyEv        0x0002a3de   Section       18  QtOrganizer.in(t._ZNK5QListI8QVariantE7isEmptyEv)
    t._ZNK5QListI8QVariantE8containsERKS0_   0x0002a3f0   Section       54  QtOrganizer.in(t._ZNK5QListI8QVariantE8containsERKS0_)
    t._ZNK5QListIN10QtMobility14QOrganizerItemEE3midEii 0x0002a426   Section      172  QtOrganizer.in(t._ZNK5QListIN10QtMobility14QOrganizerItemEE3midEii)
    t._ZNK5QListIN10QtMobility14QOrganizerItemEE3midEii.clean 0x0002a4d2   Section       14  QtOrganizer.in(t._ZNK5QListIN10QtMobility14QOrganizerItemEE3midEii.clean)
    t._ZNK5QListIN10QtMobility16QOrganizerItemIdEE8containsERKS1_ 0x0002a4e0   Section       54  QtOrganizer.in(t._ZNK5QListIN10QtMobility16QOrganizerItemIdEE8containsERKS1_)
    t._ZNK5QListIN10QtMobility20QOrganizerCollectionEE2atEi 0x0002a516   Section        8  QtOrganizer.in(t._ZNK5QListIN10QtMobility20QOrganizerCollectionEE2atEi)
    t._ZNK5QListIN10QtMobility20QOrganizerCollectionEE4sizeEv 0x0002a51e   Section        8  QtOrganizer.in(t._ZNK5QListIN10QtMobility20QOrganizerCollectionEE4sizeEv)
    t._ZNK5QListIN10QtMobility20QOrganizerItemDetailEE2atEi 0x0002a526   Section        8  QtOrganizer.in(t._ZNK5QListIN10QtMobility20QOrganizerItemDetailEE2atEi)
    t._ZNK5QListIN10QtMobility20QOrganizerItemDetailEE4sizeEv 0x0002a52e   Section        8  QtOrganizer.in(t._ZNK5QListIN10QtMobility20QOrganizerItemDetailEE4sizeEv)
    t._ZNK5QListIN10QtMobility20QOrganizerItemDetailEE5countEv 0x0002a536   Section        8  QtOrganizer.in(t._ZNK5QListIN10QtMobility20QOrganizerItemDetailEE5countEv)
    t._ZNK5QListIN10QtMobility20QOrganizerItemDetailEE5firstEv 0x0002a53e   Section       10  QtOrganizer.in(t._ZNK5QListIN10QtMobility20QOrganizerItemDetailEE5firstEv)
    t._ZNK5QListIN10QtMobility20QOrganizerItemFilterEE5countEv 0x0002a548   Section        8  QtOrganizer.in(t._ZNK5QListIN10QtMobility20QOrganizerItemFilterEE5countEv)
    t._ZNK5qLessI9QDateTimeEclERKS0_S3_      0x0002a550   Section       12  QtOrganizer.in(t._ZNK5qLessI9QDateTimeEclERKS0_S3_)
    t._ZNK8QVariant5valueI4QSetI5QDateEEET_v 0x0002a55c   Section       92  QtOrganizer.in(t._ZNK8QVariant5valueI4QSetI5QDateEEET_v)
    t._ZNK8QVariant5valueI4QSetI5QDateEEET_v.clean 0x0002a5b8   Section       10  QtOrganizer.in(t._ZNK8QVariant5valueI4QSetI5QDateEEET_v.clean)
    t._ZNK8QVariant5valueI4QSetIN10QtMobility24QOrganizerRecurrenceRuleEEEET_v 0x0002a5c2   Section       92  QtOrganizer.in(t._ZNK8QVariant5valueI4QSetIN10QtMobility24QOrganizerRecurrenceRuleEEEET_v)
    t._ZNK8QVariant5valueI4QSetIN10QtMobility24QOrganizerRecurrenceRuleEEEET_v.clean 0x0002a61e   Section       10  QtOrganizer.in(t._ZNK8QVariant5valueI4QSetIN10QtMobility24QOrganizerRecurrenceRuleEEEET_v.clean)
    t._ZlsI7QString8QVariantER11QDataStreamS3_RK4QMapIT_T0_E 0x0002a628   Section       64  QtOrganizer.in(t._ZlsI7QString8QVariantER11QDataStreamS3_RK4QMapIT_T0_E)
    t._ZlsI7QStringN10QtMobility35QOrganizerItemDetailFieldDefinitionEER11QDataStreamS4_RK4QMapIT_T0_E 0x0002a668   Section       62  QtOrganizer.in(t._ZlsI7QStringN10QtMobility35QOrganizerItemDetailFieldDefinitionEER11QDataStreamS4_RK4QMapIT_T0_E)
    t._ZrsI7QString8QVariantER11QDataStreamS3_R4QMapIT_T0_E 0x0002a6a6   Section      194  QtOrganizer.in(t._ZrsI7QString8QVariantER11QDataStreamS3_R4QMapIT_T0_E)
    t._ZrsI7QString8QVariantER11QDataStreamS3_R4QMapIT_T0_E.clean 0x0002a768   Section       16  QtOrganizer.in(t._ZrsI7QString8QVariantER11QDataStreamS3_R4QMapIT_T0_E.clean)
    t._ZrsI7QStringER11QDataStreamS2_R5QListIT_E 0x0002a778   Section      144  QtOrganizer.in(t._ZrsI7QStringER11QDataStreamS2_R5QListIT_E)
    t._ZrsI7QStringER11QDataStreamS2_R5QListIT_E.clean 0x0002a808   Section       18  QtOrganizer.in(t._ZrsI7QStringER11QDataStreamS2_R5QListIT_E.clean)
    t._ZrsI7QStringN10QtMobility35QOrganizerItemDetailFieldDefinitionEER11QDataStreamS4_R4QMapIT_T0_E 0x0002a81a   Section      194  QtOrganizer.in(t._ZrsI7QStringN10QtMobility35QOrganizerItemDetailFieldDefinitionEER11QDataStreamS4_R4QMapIT_T0_E)
    t._ZrsI7QStringN10QtMobility35QOrganizerItemDetailFieldDefinitionEER11QDataStreamS4_R4QMapIT_T0_E.clean 0x0002a8dc   Section       16  QtOrganizer.in(t._ZrsI7QStringN10QtMobility35QOrganizerItemDetailFieldDefinitionEER11QDataStreamS4_R4QMapIT_T0_E.clean)
    t._ZrsI8QVariantER11QDataStreamS2_R5QListIT_E 0x0002a8ec   Section      156  QtOrganizer.in(t._ZrsI8QVariantER11QDataStreamS2_R5QListIT_E)
    t._ZrsI8QVariantER11QDataStreamS2_R5QListIT_E.clean 0x0002a988   Section       18  QtOrganizer.in(t._ZrsI8QVariantER11QDataStreamS2_R5QListIT_E.clean)
    t._ZrsIN10QtMobility16QOrganizerItemIdEER11QDataStreamS3_R5QListIT_E 0x0002a99a   Section      120  QtOrganizer.in(t._ZrsIN10QtMobility16QOrganizerItemIdEER11QDataStreamS3_R5QListIT_E)
    t._ZrsIN10QtMobility16QOrganizerItemIdEER11QDataStreamS3_R5QListIT_E.clean 0x0002aa12   Section       10  QtOrganizer.in(t._ZrsIN10QtMobility16QOrganizerItemIdEER11QDataStreamS3_R5QListIT_E.clean)
    t._ZrsIN10QtMobility20QOrganizerItemDetailEER11QDataStreamS3_R5QListIT_E 0x0002aa1c   Section      120  QtOrganizer.in(t._ZrsIN10QtMobility20QOrganizerItemDetailEER11QDataStreamS3_R5QListIT_E)
    t._ZrsIN10QtMobility20QOrganizerItemDetailEER11QDataStreamS3_R5QListIT_E.clean 0x0002aa94   Section       10  QtOrganizer.in(t._ZrsIN10QtMobility20QOrganizerItemDetailEER11QDataStreamS3_R5QListIT_E.clean)
    t._ZrsIN10QtMobility20QOrganizerItemFilterEER11QDataStreamS3_R5QListIT_E 0x0002aa9e   Section      120  QtOrganizer.in(t._ZrsIN10QtMobility20QOrganizerItemFilterEER11QDataStreamS3_R5QListIT_E)
    t._ZrsIN10QtMobility20QOrganizerItemFilterEER11QDataStreamS3_R5QListIT_E.clean 0x0002ab16   Section       10  QtOrganizer.in(t._ZrsIN10QtMobility20QOrganizerItemFilterEER11QDataStreamS3_R5QListIT_E.clean)
    t._ZrsIN10QtMobility22QOrganizerCollectionIdEER11QDataStreamS3_R4QSetIT_E 0x0002ab20   Section       84  QtOrganizer.in(t._ZrsIN10QtMobility22QOrganizerCollectionIdEER11QDataStreamS3_R4QSetIT_E)
    t._ZrsIN10QtMobility22QOrganizerCollectionIdEER11QDataStreamS3_R4QSetIT_E.clean 0x0002ab74   Section       10  QtOrganizer.in(t._ZrsIN10QtMobility22QOrganizerCollectionIdEER11QDataStreamS3_R4QSetIT_E.clean)
    .extab._ZN10QtMobility20QOrganizerCollectionC1Ev 0x0002ab80   Data           0  QtOrganizer.in(.ARM.extab)
    .extab._ZN10QtMobility5qHashERKNS_20QOrganizerCollectionE 0x0002aba8   Data           0  QtOrganizer.in(.ARM.extab)
    .extab._ZN10QtMobilitylsE6QDebugRKNS_20QOrganizerCollectionE 0x0002abd0   Data           0  QtOrganizer.in(.ARM.extab)
    .extab._ZN10QtMobilitylsER11QDataStreamRKNS_20QOrganizerCollectionE 0x0002ac08   Data           0  QtOrganizer.in(.ARM.extab)
    .extab._ZN10QtMobilityrsER11QDataStreamRNS_20QOrganizerCollectionE 0x0002ac38   Data           0  QtOrganizer.in(.ARM.extab)
    .extab._ZN4QMapI7QString8QVariantE11node_createEP8QMapDataPPNS3_4NodeERKS0_RKS1_ 0x0002ac88   Data           0  QtOrganizer.in(.ARM.extab)
    .extab._ZN4QMapI7QString8QVariantE13detach_helperEv 0x0002acd4   Data           0  QtOrganizer.in(.ARM.extab)
    .extab._ZN4QMapI7QString8QVariantE5clearEv 0x0002acf0   Data           0  QtOrganizer.in(.ARM.extab)
    .extab._ZrsI7QString8QVariantER11QDataStreamS3_R4QMapIT_T0_E 0x0002ad00   Data           0  QtOrganizer.in(.ARM.extab)
    .extab._ZN6QDebuglsEPKc                  0x0002ad20   Data           0  QtOrganizer.in(.ARM.extab)
    .extab._ZN10QtMobility24QOrganizerCollectionDataD1Ev 0x0002ad30   Data           0  QtOrganizer.in(.ARM.extab)
    .extab._ZN18QSharedDataPointerIN10QtMobility24QOrganizerCollectionDataEEptEv 0x0002ad50   Data           0  QtOrganizer.in(.ARM.extab)
    .extab._ZN10QtMobility24QOrganizerCollectionDataC1ERKS0_ 0x0002ad60   Data           0  QtOrganizer.in(.ARM.extab)
    .extab._ZN10QtMobility29QOrganizerCollectionChangeSetC1Ev 0x0002ad80   Data           0  QtOrganizer.in(.ARM.extab)
    .extab._ZN10QtMobility29QOrganizerCollectionChangeSet22insertAddedCollectionsERK5QListINS_22QOrganizerCollectionIdEE 0x0002ada0   Data           0  QtOrganizer.in(.ARM.extab)
    .extab._ZN10QtMobility29QOrganizerCollectionChangeSet24insertChangedCollectionsERK5QListINS_22QOrganizerCollectionIdEE 0x0002adb0   Data           0  QtOrganizer.in(.ARM.extab)
    .extab._ZN10QtMobility29QOrganizerCollectionChangeSet24insertRemovedCollectionsERK5QListINS_22QOrganizerCollectionIdEE 0x0002adc0   Data           0  QtOrganizer.in(.ARM.extab)
    .extab._ZN10QtMobility29QOrganizerCollectionChangeSet11emitSignalsEPNS_23QOrganizerManagerEngineE 0x0002add0   Data           0  QtOrganizer.in(.ARM.extab)
    .extab._ZN5QListIN10QtMobility22QOrganizerCollectionIdEE9node_copyEPNS2_4NodeES4_S4_ 0x0002adf0   Data           0  QtOrganizer.in(.ARM.extab)
    .extab._ZN5QListIN10QtMobility22QOrganizerCollectionIdEE13detach_helperEi 0x0002ae14   Data           0  QtOrganizer.in(.ARM.extab)
    .extab._Z20qForeachContainerNewI5QListIN10QtMobility22QOrganizerCollectionIdEEE17QForeachContainerIT_ERKS5_ 0x0002ae30   Data           0  QtOrganizer.in(.ARM.extab)
    .extab._ZN5QListIN10QtMobility22QOrganizerCollectionIdEE18detach_helper_growEii 0x0002ae40   Data           0  QtOrganizer.in(.ARM.extab)
    .extab._ZN10QtMobility33QOrganizerCollectionChangeSetDataD1Ev 0x0002ae70   Data           0  QtOrganizer.in(.ARM.extab)
    .extab._ZNK4QSetIN10QtMobility22QOrganizerCollectionIdEE6toListEv 0x0002ae88   Data           0  QtOrganizer.in(.ARM.extab)
    .extab._ZN5QListIN10QtMobility22QOrganizerCollectionIdEE6appendERKS1_ 0x0002ae98   Data           0  QtOrganizer.in(.ARM.extab)
    .extab._ZN5QHashIN10QtMobility22QOrganizerCollectionIdE15QHashDummyValueE13duplicateNodeEPN9QHashData4NodeEPv 0x0002aec8   Data           0  QtOrganizer.in(.ARM.extab)
    .extab._ZN5QListIN10QtMobility22QOrganizerCollectionIdEE14node_constructEPNS2_4NodeERKS1_ 0x0002aed8   Data           0  QtOrganizer.in(.ARM.extab)
    .extab._ZN18QSharedDataPointerIN10QtMobility33QOrganizerCollectionChangeSetDataEE13detach_helperEv 0x0002aee8   Data           0  QtOrganizer.in(.ARM.extab)
    .extab._ZN5QHashIN10QtMobility22QOrganizerCollectionIdE15QHashDummyValueE6insertERKS1_RKS2_ 0x0002af08   Data           0  QtOrganizer.in(.ARM.extab)
    .extab._ZNK10QtMobility22QOrganizerCollectionIdeqERKS0_ 0x0002af18   Data           0  QtOrganizer.in(.ARM.extab)
    .extab._ZNK10QtMobility22QOrganizerCollectionIdltERKS0_ 0x0002af38   Data           0  QtOrganizer.in(.ARM.extab)
    .extab._ZNK10QtMobility22QOrganizerCollectionId10managerUriEv 0x0002af70   Data           0  QtOrganizer.in(.ARM.extab)
    .extab._ZNK10QtMobility22QOrganizerCollectionId8toStringEv 0x0002af90   Data           0  QtOrganizer.in(.ARM.extab)
    .extab._ZN10QtMobility22QOrganizerCollectionId10fromStringERK7QString 0x0002afe0   Data           0  QtOrganizer.in(.ARM.extab)
    .extab._ZN10QtMobilitylsER11QDataStreamRKNS_22QOrganizerCollectionIdE 0x0002b018   Data           0  QtOrganizer.in(.ARM.extab)
    .extab._ZN10QtMobilityrsER11QDataStreamRNS_22QOrganizerCollectionIdE 0x0002b028   Data           0  QtOrganizer.in(.ARM.extab)
    .extab._ZN5QListI7QStringE9node_copyEPNS1_4NodeES3_S3_ 0x0002b048   Data           0  QtOrganizer.in(.ARM.extab)
    .extab._ZN5QListI7QStringE13detach_helperEi 0x0002b06c   Data           0  QtOrganizer.in(.ARM.extab)
    .extab._ZN5QListI7QStringE18detach_helper_growEii 0x0002b088   Data           0  QtOrganizer.in(.ARM.extab)
    .extab._ZN5QListI7QStringE6appendERKS0_  0x0002b0b8   Data           0  QtOrganizer.in(.ARM.extab)
    .extab._ZN4QMapI7QStringS0_E11node_createEP8QMapDataPPNS2_4NodeERKS0_S8_ 0x0002b0e8   Data           0  QtOrganizer.in(.ARM.extab)
    .extab._ZN4QMapI7QStringS0_E13detach_helperEv 0x0002b134   Data           0  QtOrganizer.in(.ARM.extab)
    .extab._ZN10QtMobility13buildIdStringERK7QStringRK4QMapIS0_S0_ES2_ 0x0002b150   Data           0  QtOrganizer.in(.ARM.extab)
    .extab._ZN10QtMobility13parseIdStringERK7QStringPS0_P4QMapIS0_S0_ES3_ 0x0002b208   Data           0  QtOrganizer.in(.ARM.extab)
    .extab._ZplRK7QString5QChar              0x0002b338   Data           0  QtOrganizer.in(.ARM.extab)
    .extab._ZN5QListI7QStringE14node_constructEPNS1_4NodeERKS0_ 0x0002b348   Data           0  QtOrganizer.in(.ARM.extab)
    .extab._ZN10QtMobility25QOrganizerAbstractRequest15waitForFinishedEi 0x0002b358   Data           0  QtOrganizer.in(.ARM.extab)
    .extab._ZN10QtMobility25QOrganizerAbstractRequest6cancelEv 0x0002b368   Data           0  QtOrganizer.in(.ARM.extab)
    .extab._ZN10QtMobility25QOrganizerAbstractRequest5startEv 0x0002b378   Data           0  QtOrganizer.in(.ARM.extab)
    .extab._ZN10QtMobility25QOrganizerAbstractRequestD1Ev 0x0002b388   Data           0  QtOrganizer.in(.ARM.extab)
    .extab._ZNK10QtMobility25QOrganizerAbstractRequest4typeEv 0x0002b398   Data           0  QtOrganizer.in(.ARM.extab)
    .extab._ZN10QtMobility25QOrganizerAbstractRequest10setManagerEPNS_17QOrganizerManagerE 0x0002b3a8   Data           0  QtOrganizer.in(.ARM.extab)
    .extab._ZN10QtMobility32QOrganizerAbstractRequestPrivateD1Ev 0x0002b3b8   Data           0  QtOrganizer.in(.ARM.extab)
    .extab._ZN10QtMobility23QOrganizerItemChangeSetC1Ev 0x0002b3d0   Data           0  QtOrganizer.in(.ARM.extab)
    .extab._ZN10QtMobility23QOrganizerItemChangeSet16insertAddedItemsERK5QListINS_16QOrganizerItemIdEE 0x0002b3f0   Data           0  QtOrganizer.in(.ARM.extab)
    .extab._ZN10QtMobility23QOrganizerItemChangeSet18insertChangedItemsERK5QListINS_16QOrganizerItemIdEE 0x0002b400   Data           0  QtOrganizer.in(.ARM.extab)
    .extab._ZN10QtMobility23QOrganizerItemChangeSet18insertRemovedItemsERK5QListINS_16QOrganizerItemIdEE 0x0002b410   Data           0  QtOrganizer.in(.ARM.extab)
    .extab._ZN10QtMobility23QOrganizerItemChangeSet11emitSignalsEPNS_23QOrganizerManagerEngineE 0x0002b420   Data           0  QtOrganizer.in(.ARM.extab)
    .extab._ZN5QListIN10QtMobility16QOrganizerItemIdEE9node_copyEPNS2_4NodeES4_S4_ 0x0002b440   Data           0  QtOrganizer.in(.ARM.extab)
    .extab._ZN5QListIN10QtMobility16QOrganizerItemIdEE13detach_helperEi 0x0002b464   Data           0  QtOrganizer.in(.ARM.extab)
    .extab._Z20qForeachContainerNewI5QListIN10QtMobility16QOrganizerItemIdEEE17QForeachContainerIT_ERKS5_ 0x0002b480   Data           0  QtOrganizer.in(.ARM.extab)
    .extab._ZN5QListIN10QtMobility16QOrganizerItemIdEE18detach_helper_growEii 0x0002b490   Data           0  QtOrganizer.in(.ARM.extab)
    .extab._ZN10QtMobility27QOrganizerItemChangeSetDataD1Ev 0x0002b4c0   Data           0  QtOrganizer.in(.ARM.extab)
    .extab._ZN4QSetIN10QtMobility16QOrganizerItemIdEE5clearEv 0x0002b4d8   Data           0  QtOrganizer.in(.ARM.extab)
    .extab._ZNK4QSetIN10QtMobility16QOrganizerItemIdEE6toListEv 0x0002b4e8   Data           0  QtOrganizer.in(.ARM.extab)
    .extab._ZN5QListIN10QtMobility16QOrganizerItemIdEE6appendERKS1_ 0x0002b4f8   Data           0  QtOrganizer.in(.ARM.extab)
    .extab._ZN5QHashIN10QtMobility16QOrganizerItemIdE15QHashDummyValueE13duplicateNodeEPN9QHashData4NodeEPv 0x0002b528   Data           0  QtOrganizer.in(.ARM.extab)
    .extab._ZN5QListIN10QtMobility16QOrganizerItemIdEE14node_constructEPNS2_4NodeERKS1_ 0x0002b538   Data           0  QtOrganizer.in(.ARM.extab)
    .extab._ZN18QSharedDataPointerIN10QtMobility27QOrganizerItemChangeSetDataEE13detach_helperEv 0x0002b548   Data           0  QtOrganizer.in(.ARM.extab)
    .extab._ZN5QHashIN10QtMobility16QOrganizerItemIdE15QHashDummyValueE6insertERKS1_RKS2_ 0x0002b568   Data           0  QtOrganizer.in(.ARM.extab)
    .extab._ZN10QtMobility14QOrganizerItem12clearDetailsEv 0x0002b578   Data           0  QtOrganizer.in(.ARM.extab)
    .extab._ZN10QtMobility14QOrganizerItemC1Ev 0x0002b5d0   Data           0  QtOrganizer.in(.ARM.extab)
    .extab._ZNK10QtMobility14QOrganizerItem7detailsERK7QString 0x0002b5e0   Data           0  QtOrganizer.in(.ARM.extab)
    .extab._ZNK10QtMobility14QOrganizerItem7detailsERK7QStringS3_S3_ 0x0002b5f0   Data           0  QtOrganizer.in(.ARM.extab)
    .extab._ZNK10QtMobility14QOrganizerItem7detailsEPKc 0x0002b620   Data           0  QtOrganizer.in(.ARM.extab)
    .extab._ZNK10QtMobility14QOrganizerItem7detailsEPKcS2_RK7QString 0x0002b630   Data           0  QtOrganizer.in(.ARM.extab)
    .extab._ZN10QtMobility14QOrganizerItem10saveDetailEPNS_20QOrganizerItemDetailE 0x0002b660   Data           0  QtOrganizer.in(.ARM.extab)
    .extab._ZNK10QtMobility14QOrganizerItem4typeEv 0x0002b6e0   Data           0  QtOrganizer.in(.ARM.extab)
    .extab._ZN10QtMobility14QOrganizerItem7setTypeERK7QString 0x0002b6f0   Data           0  QtOrganizer.in(.ARM.extab)
    .extab._ZN10QtMobility14QOrganizerItem7setTypeERKNS_18QOrganizerItemTypeE 0x0002b700   Data           0  QtOrganizer.in(.ARM.extab)
    .extab._ZNK10QtMobility14QOrganizerItem12displayLabelEv 0x0002b720   Data           0  QtOrganizer.in(.ARM.extab)
    .extab._ZN10QtMobility14QOrganizerItem15setDisplayLabelERK7QString 0x0002b730   Data           0  QtOrganizer.in(.ARM.extab)
    .extab._ZN10QtMobility14QOrganizerItem15setDisplayLabelERKNS_26QOrganizerItemDisplayLabelE 0x0002b740   Data           0  QtOrganizer.in(.ARM.extab)
    .extab._ZNK10QtMobility14QOrganizerItem11descriptionEv 0x0002b760   Data           0  QtOrganizer.in(.ARM.extab)
    .extab._ZN10QtMobility14QOrganizerItem14setDescriptionERK7QString 0x0002b770   Data           0  QtOrganizer.in(.ARM.extab)
    .extab._ZN10QtMobility14QOrganizerItem14setDescriptionERKNS_25QOrganizerItemDescriptionE 0x0002b780   Data           0  QtOrganizer.in(.ARM.extab)
    .extab._ZNK10QtMobility14QOrganizerItem8commentsEv 0x0002b7a0   Data           0  QtOrganizer.in(.ARM.extab)
    .extab._ZN10QtMobility14QOrganizerItem13clearCommentsEv 0x0002b7d8   Data           0  QtOrganizer.in(.ARM.extab)
    .extab._ZN10QtMobility14QOrganizerItem10addCommentERK7QString 0x0002b808   Data           0  QtOrganizer.in(.ARM.extab)
    .extab._ZNK10QtMobility14QOrganizerItem4guidEv 0x0002b820   Data           0  QtOrganizer.in(.ARM.extab)
    .extab._ZN10QtMobility14QOrganizerItem7setGuidERK7QString 0x0002b830   Data           0  QtOrganizer.in(.ARM.extab)
    .extab._ZN10QtMobility14QOrganizerItemC1EPKc 0x0002b848   Data           0  QtOrganizer.in(.ARM.extab)
    .extab._ZN10QtMobility14QOrganizerItemC1ERKS0_PKc 0x0002b870   Data           0  QtOrganizer.in(.ARM.extab)
    .extab._ZN10QtMobility14QOrganizerItem6assignERKS0_PKc 0x0002b8c0   Data           0  QtOrganizer.in(.ARM.extab)
    .extab._ZN10QtMobility5qHashERKNS_14QOrganizerItemE 0x0002b8f0   Data           0  QtOrganizer.in(.ARM.extab)
    .extab._ZN10QtMobilitylsE6QDebugRKNS_14QOrganizerItemE 0x0002b928   Data           0  QtOrganizer.in(.ARM.extab)
    .extab._ZN10QtMobilitylsER11QDataStreamRKNS_14QOrganizerItemE 0x0002b9b8   Data           0  QtOrganizer.in(.ARM.extab)
    .extab._ZN10QtMobilityrsER11QDataStreamRNS_14QOrganizerItemE 0x0002ba18   Data           0  QtOrganizer.in(.ARM.extab)
    .extab._ZN5QListIN10QtMobility20QOrganizerItemDetailEE9node_copyEPNS2_4NodeES4_S4_ 0x0002ba70   Data           0  QtOrganizer.in(.ARM.extab)
    .extab._ZN5QListIN10QtMobility20QOrganizerItemDetailEE13detach_helperEi 0x0002ba94   Data           0  QtOrganizer.in(.ARM.extab)
    .extab._Z20qForeachContainerNewI5QListIN10QtMobility20QOrganizerItemDetailEEE17QForeachContainerIT_ERKS5_ 0x0002bab0   Data           0  QtOrganizer.in(.ARM.extab)
    .extab._ZN5QListIN10QtMobility20QOrganizerItemDetailEE18detach_helper_growEii 0x0002bac0   Data           0  QtOrganizer.in(.ARM.extab)
    .extab._ZN5QListIN10QtMobility20QOrganizerItemDetailEE6appendERKS1_ 0x0002baf0   Data           0  QtOrganizer.in(.ARM.extab)
    .extab._ZN5QListIN10QtMobility20QOrganizerItemDetailEE5clearEv 0x0002bb20   Data           0  QtOrganizer.in(.ARM.extab)
    .extab._ZN5QListIN10QtMobility21QOrganizerItemCommentEE9node_copyEPNS2_4NodeES4_S4_ 0x0002bb30   Data           0  QtOrganizer.in(.ARM.extab)
    .extab._Z20qForeachContainerNewI5QListIN10QtMobility21QOrganizerItemCommentEEE17QForeachContainerIT_ERKS5_ 0x0002bb54   Data           0  QtOrganizer.in(.ARM.extab)
    .extab._ZN5QListIN10QtMobility21QOrganizerItemCommentEE14node_constructEPNS2_4NodeERKS1_ 0x0002bb64   Data           0  QtOrganizer.in(.ARM.extab)
    .extab._ZN5QListIN10QtMobility21QOrganizerItemCommentEE18detach_helper_growEii 0x0002bb74   Data           0  QtOrganizer.in(.ARM.extab)
    .extab._ZN10QtMobility18QOrganizerItemType7setTypeERK7QString 0x0002bba4   Data           0  QtOrganizer.in(.ARM.extab)
    .extab._ZN10QtMobility26QOrganizerItemDisplayLabel8setLabelERK7QString 0x0002bbb4   Data           0  QtOrganizer.in(.ARM.extab)
    .extab._ZN10QtMobility25QOrganizerItemDescription14setDescriptionERK7QString 0x0002bbc4   Data           0  QtOrganizer.in(.ARM.extab)
    .extab._ZN10QtMobility18QOrganizerItemDataD1Ev 0x0002bbd4   Data           0  QtOrganizer.in(.ARM.extab)
    .extab._ZN10QtMobility18QOrganizerItemDataC1Ev 0x0002bbec   Data           0  QtOrganizer.in(.ARM.extab)
    .extab._ZNK10QtMobility14QOrganizerItem6detailINS_18QOrganizerItemTypeEEET_v 0x0002bc1c   Data           0  QtOrganizer.in(.ARM.extab)
    .extab._ZNK10QtMobility14QOrganizerItem6detailINS_26QOrganizerItemDisplayLabelEEET_v 0x0002bc2c   Data           0  QtOrganizer.in(.ARM.extab)
    .extab._ZNK10QtMobility14QOrganizerItem6detailINS_25QOrganizerItemDescriptionEEET_v 0x0002bc3c   Data           0  QtOrganizer.in(.ARM.extab)
    .extab._ZNK10QtMobility14QOrganizerItem7detailsINS_21QOrganizerItemCommentEEE5QListIT_Ev 0x0002bc4c   Data           0  QtOrganizer.in(.ARM.extab)
    .extab._ZNK10QtMobility14QOrganizerItem6detailINS_18QOrganizerItemGuidEEET_v 0x0002bc74   Data           0  QtOrganizer.in(.ARM.extab)
    .extab._ZN5QListIN10QtMobility20QOrganizerItemDetailEE14node_constructEPNS2_4NodeERKS1_ 0x0002bc84   Data           0  QtOrganizer.in(.ARM.extab)
    .extab._ZrsIN10QtMobility20QOrganizerItemDetailEER11QDataStreamS3_R5QListIT_E 0x0002bc94   Data           0  QtOrganizer.in(.ARM.extab)
    .extab._ZN5QListIN10QtMobility21QOrganizerItemCommentEE13detach_helperEv 0x0002bca4   Data           0  QtOrganizer.in(.ARM.extab)
    .extab._ZN5QListIN10QtMobility21QOrganizerItemCommentEE6appendERKS1_ 0x0002bcc0   Data           0  QtOrganizer.in(.ARM.extab)
    .extab._ZN18QSharedDataPointerIN10QtMobility27QOrganizerItemDetailPrivateEE13detach_helperEv 0x0002bcf0   Data           0  QtOrganizer.in(.ARM.extab)
    .extab._ZN18QSharedDataPointerIN10QtMobility18QOrganizerItemDataEE13detach_helperEv 0x0002bd08   Data           0  QtOrganizer.in(.ARM.extab)
    .extab._ZN10QtMobility27QOrganizerItemDetailPrivateC1ERKS0_ 0x0002bd28   Data           0  QtOrganizer.in(.ARM.extab)
    .extab._ZN5QHashIN10QtMobility26QOrganizerItemStringHolderE8QVariantE11deleteNode2EPN9QHashData4NodeE 0x0002bd38   Data           0  QtOrganizer.in(.ARM.extab)
    .extab._ZN10QtMobility20QOrganizerItemDetailC1Ev 0x0002bd48   Data           0  QtOrganizer.in(.ARM.extab)
    .extab._ZN10QtMobility20QOrganizerItemDetailC1EPKc 0x0002bd58   Data           0  QtOrganizer.in(.ARM.extab)
    .extab._ZN10QtMobility20QOrganizerItemDetailC1ERK7QString 0x0002bd68   Data           0  QtOrganizer.in(.ARM.extab)
    .extab._ZN10QtMobility20QOrganizerItemDetailC1ERKS0_PKc 0x0002bd78   Data           0  QtOrganizer.in(.ARM.extab)
    .extab._ZNK10QtMobility20QOrganizerItemDetaileqERKS0_ 0x0002bd98   Data           0  QtOrganizer.in(.ARM.extab)
    .extab._ZNK10QtMobility20QOrganizerItemDetail5valueERK7QString 0x0002bdc0   Data           0  QtOrganizer.in(.ARM.extab)
    .extab._ZN10QtMobility20QOrganizerItemDetail11removeValueERK7QString 0x0002bde0   Data           0  QtOrganizer.in(.ARM.extab)
    .extab._ZN10QtMobility20QOrganizerItemDetail8setValueERK7QStringRK8QVariant 0x0002bdf0   Data           0  QtOrganizer.in(.ARM.extab)
    .extab._ZNK10QtMobility20QOrganizerItemDetail8hasValueERK7QString 0x0002be00   Data           0  QtOrganizer.in(.ARM.extab)
    .extab._ZNK10QtMobility20QOrganizerItemDetail13variantValuesEv 0x0002be10   Data           0  QtOrganizer.in(.ARM.extab)
    .extab._ZNK10QtMobility20QOrganizerItemDetail12variantValueERK7QString 0x0002be30   Data           0  QtOrganizer.in(.ARM.extab)
    .extab._ZNK10QtMobility20QOrganizerItemDetail5valueEPKc 0x0002be40   Data           0  QtOrganizer.in(.ARM.extab)
    .extab._ZN10QtMobility20QOrganizerItemDetail11removeValueEPKc 0x0002be60   Data           0  QtOrganizer.in(.ARM.extab)
    .extab._ZN10QtMobility20QOrganizerItemDetail8setValueEPKcRK8QVariant 0x0002be70   Data           0  QtOrganizer.in(.ARM.extab)
    .extab._ZNK10QtMobility20QOrganizerItemDetail8hasValueEPKc 0x0002be80   Data           0  QtOrganizer.in(.ARM.extab)
    .extab._ZNK10QtMobility20QOrganizerItemDetail12variantValueEPKc 0x0002be90   Data           0  QtOrganizer.in(.ARM.extab)
    .extab._ZN10QtMobility20QOrganizerItemDetailC1ERKS0_RK7QString 0x0002bea0   Data           0  QtOrganizer.in(.ARM.extab)
    .extab._ZN10QtMobility20QOrganizerItemDetail6assignERKS0_RK7QString 0x0002bec0   Data           0  QtOrganizer.in(.ARM.extab)
    .extab._ZN10QtMobility20QOrganizerItemDetail6assignERKS0_PKc 0x0002bed0   Data           0  QtOrganizer.in(.ARM.extab)
    .extab._ZN10QtMobility25qClearAllocatedStringHashEv 0x0002bee0   Data           0  QtOrganizer.in(.ARM.extab)
    .extab._ZN10QtMobility5qHashERKNS_20QOrganizerItemDetailE 0x0002bef8   Data           0  QtOrganizer.in(.ARM.extab)
    .extab._ZN10QtMobilitylsE6QDebugRKNS_20QOrganizerItemDetailE 0x0002bf08   Data           0  QtOrganizer.in(.ARM.extab)
    .extab._ZN10QtMobilitylsER11QDataStreamRKNS_20QOrganizerItemDetailE 0x0002bf30   Data           0  QtOrganizer.in(.ARM.extab)
    .extab._ZN10QtMobilityrsER11QDataStreamRNS_20QOrganizerItemDetailE 0x0002bf50   Data           0  QtOrganizer.in(.ARM.extab)
    .extab.__sti___24_qorganizeritemdetail_cpp 0x0002bf90   Data           0  QtOrganizer.in(.ARM.extab)
    .extab._ZN6QDebugD1Ev                    0x0002bfb0   Data           0  QtOrganizer.in(.ARM.extab)
    .extab._ZN9QHashNodeIN10QtMobility26QOrganizerItemStringHolderE8QVariantEC1ERKS1_RKS2_ 0x0002bfd4   Data           0  QtOrganizer.in(.ARM.extab)
    .extab._ZN10QtMobility27QOrganizerItemDetailPrivateC1Ev 0x0002bfe4   Data           0  QtOrganizer.in(.ARM.extab)
    .extab._ZN10QtMobility26QOrganizerItemStringHolderaSERK7QString 0x0002bff4   Data           0  QtOrganizer.in(.ARM.extab)
    .extab._ZNK10QtMobility26QOrganizerItemStringHolder9toQStringEv 0x0002c004   Data           0  QtOrganizer.in(.ARM.extab)
    .extab._ZN5QHashIN10QtMobility26QOrganizerItemStringHolderE8QVariantE6insertERKS1_RKS2_ 0x0002c024   Data           0  QtOrganizer.in(.ARM.extab)
    .extab._ZN5QHashIN10QtMobility26QOrganizerItemStringHolderE8QVariantE6removeERKS1_ 0x0002c034   Data           0  QtOrganizer.in(.ARM.extab)
    .extab._ZN5QHashI7QStringPcE13duplicateNodeEPN9QHashData4NodeEPv 0x0002c048   Data           0  QtOrganizer.in(.ARM.extab)
    .extab._ZN5QHashI7QStringPcE6insertERKS0_RKS1_ 0x0002c058   Data           0  QtOrganizer.in(.ARM.extab)
    .extab._ZN5QHashIPKc7QStringE13duplicateNodeEPN9QHashData4NodeEPv 0x0002c068   Data           0  QtOrganizer.in(.ARM.extab)
    .extab._ZN5QHashIPKc7QStringE6insertERKS1_RKS2_ 0x0002c078   Data           0  QtOrganizer.in(.ARM.extab)
    .extab._ZN10QtMobility27QOrganizerItemDetailPrivateD1Ev 0x0002c088   Data           0  QtOrganizer.in(.ARM.extab)
    .extab._ZN5QHashIN10QtMobility26QOrganizerItemStringHolderE8QVariantE13duplicateNodeEPN9QHashData4NodeEPv 0x0002c098   Data           0  QtOrganizer.in(.ARM.extab)
    .extab._ZN18QSharedDataPointerIN10QtMobility27QOrganizerItemDetailPrivateEE5cloneEv 0x0002c0a8   Data           0  QtOrganizer.in(.ARM.extab)
    .extab._ZN10QtMobility30QOrganizerItemDetailDefinitionC1Ev 0x0002c0c0   Data           0  QtOrganizer.in(.ARM.extab)
    .extab._ZN10QtMobilitylsER11QDataStreamRKNS_30QOrganizerItemDetailDefinitionE 0x0002c0d8   Data           0  QtOrganizer.in(.ARM.extab)
    .extab._ZN10QtMobilityrsER11QDataStreamRNS_30QOrganizerItemDetailDefinitionE 0x0002c0f8   Data           0  QtOrganizer.in(.ARM.extab)
    .extab._ZN4QMapI7QStringN10QtMobility35QOrganizerItemDetailFieldDefinitionEE11node_createEP8QMapDataPPNS4_4NodeERKS0_RKS2_ 0x0002c118   Data           0  QtOrganizer.in(.ARM.extab)
    .extab._ZN4QMapI7QStringN10QtMobility35QOrganizerItemDetailFieldDefinitionEE13detach_helperEv 0x0002c164   Data           0  QtOrganizer.in(.ARM.extab)
    .extab._ZN4QMapI7QStringN10QtMobility35QOrganizerItemDetailFieldDefinitionEE5clearEv 0x0002c180   Data           0  QtOrganizer.in(.ARM.extab)
    .extab._ZrsI7QStringN10QtMobility35QOrganizerItemDetailFieldDefinitionEER11QDataStreamS4_R4QMapIT_T0_E 0x0002c190   Data           0  QtOrganizer.in(.ARM.extab)
    .extab._ZN10QtMobility34QOrganizerItemDetailDefinitionDataD1Ev 0x0002c1b0   Data           0  QtOrganizer.in(.ARM.extab)
    .extab._ZN18QSharedDataPointerIN10QtMobility34QOrganizerItemDetailDefinitionDataEE13detach_helperEv 0x0002c1c0   Data           0  QtOrganizer.in(.ARM.extab)
    .extab._ZN10QtMobility35QOrganizerItemDetailFieldDefinitionC1Ev 0x0002c1d8   Data           0  QtOrganizer.in(.ARM.extab)
    .extab._ZN10QtMobilitylsER11QDataStreamRKNS_35QOrganizerItemDetailFieldDefinitionE 0x0002c1e8   Data           0  QtOrganizer.in(.ARM.extab)
    .extab._ZN10QtMobilityrsER11QDataStreamRNS_35QOrganizerItemDetailFieldDefinitionE 0x0002c1f8   Data           0  QtOrganizer.in(.ARM.extab)
    .extab._ZN5QListI8QVariantE14node_constructEPNS1_4NodeERKS0_ 0x0002c218   Data           0  QtOrganizer.in(.ARM.extab)
    .extab._ZN5QListI8QVariantE9node_copyEPNS1_4NodeES3_S3_ 0x0002c228   Data           0  QtOrganizer.in(.ARM.extab)
    .extab._ZN5QListI8QVariantE18detach_helper_growEii 0x0002c24c   Data           0  QtOrganizer.in(.ARM.extab)
    .extab._ZN5QListI8QVariantE13detach_helperEi 0x0002c27c   Data           0  QtOrganizer.in(.ARM.extab)
    .extab._ZrsI8QVariantER11QDataStreamS2_R5QListIT_E 0x0002c298   Data           0  QtOrganizer.in(.ARM.extab)
    .extab._ZN5QListI8QVariantE6appendERKS0_ 0x0002c2b0   Data           0  QtOrganizer.in(.ARM.extab)
    .extab._ZN18QSharedDataPointerIN10QtMobility42QOrganizerItemDetailFieldDefinitionPrivateEE13detach_helperEv 0x0002c2e0   Data           0  QtOrganizer.in(.ARM.extab)
    .extab._ZN10QtMobility23QOrganizerItemFetchHintC1Ev 0x0002c2f0   Data           0  QtOrganizer.in(.ARM.extab)
    .extab._ZN10QtMobilitylsER11QDataStreamRKNS_23QOrganizerItemFetchHintE 0x0002c300   Data           0  QtOrganizer.in(.ARM.extab)
    .extab._ZN10QtMobilityrsER11QDataStreamRNS_23QOrganizerItemFetchHintE 0x0002c310   Data           0  QtOrganizer.in(.ARM.extab)
    .extab._ZrsI7QStringER11QDataStreamS2_R5QListIT_E 0x0002c320   Data           0  QtOrganizer.in(.ARM.extab)
    .extab._ZN18QSharedDataPointerIN10QtMobility30QOrganizerItemFetchHintPrivateEE13detach_helperEv 0x0002c338   Data           0  QtOrganizer.in(.ARM.extab)
    .extab._ZN10QtMobilityrsER11QDataStreamRNS_20QOrganizerItemFilterE 0x0002c348   Data           0  QtOrganizer.in(.ARM.extab)
    .extab._ZN10QtMobilityanERKNS_20QOrganizerItemFilterES2_ 0x0002c390   Data           0  QtOrganizer.in(.ARM.extab)
    .extab._ZN10QtMobilityorERKNS_20QOrganizerItemFilterES2_ 0x0002c3a0   Data           0  QtOrganizer.in(.ARM.extab)
    .extab._ZNK10QtMobility16QOrganizerItemIdeqERKS0_ 0x0002c3c0   Data           0  QtOrganizer.in(.ARM.extab)
    .extab._ZNK10QtMobility16QOrganizerItemIdltERKS0_ 0x0002c3e0   Data           0  QtOrganizer.in(.ARM.extab)
    .extab._ZNK10QtMobility16QOrganizerItemId10managerUriEv 0x0002c418   Data           0  QtOrganizer.in(.ARM.extab)
    .extab._ZNK10QtMobility16QOrganizerItemId8toStringEv 0x0002c438   Data           0  QtOrganizer.in(.ARM.extab)
    .extab._ZN10QtMobility16QOrganizerItemId10fromStringERK7QString 0x0002c488   Data           0  QtOrganizer.in(.ARM.extab)
    .extab._ZN10QtMobilitylsER11QDataStreamRKNS_16QOrganizerItemIdE 0x0002c4c0   Data           0  QtOrganizer.in(.ARM.extab)
    .extab._ZN10QtMobilityrsER11QDataStreamRNS_16QOrganizerItemIdE 0x0002c4d0   Data           0  QtOrganizer.in(.ARM.extab)
    .extab._ZN10QtMobility17QOrganizerManagerC1ERK7QStringRK4QMapIS1_S1_EP7QObject 0x0002c4f0   Data           0  QtOrganizer.in(.ARM.extab)
    .extab._ZN10QtMobility17QOrganizerManagerC1ERK7QStringiRK4QMapIS1_S1_EP7QObject 0x0002c508   Data           0  QtOrganizer.in(.ARM.extab)
    .extab._ZN10QtMobility17QOrganizerManagerC1EP7QObject 0x0002c558   Data           0  QtOrganizer.in(.ARM.extab)
    .extab._ZN10QtMobility17QOrganizerManager8parseUriERK7QStringPS1_P4QMapIS1_S1_E 0x0002c590   Data           0  QtOrganizer.in(.ARM.extab)
    .extab._ZN10QtMobility17QOrganizerManager7fromUriERK7QStringP7QObject 0x0002c6f8   Data           0  QtOrganizer.in(.ARM.extab)
    .extab._ZN10QtMobility17QOrganizerManagerD1Ev 0x0002c778   Data           0  QtOrganizer.in(.ARM.extab)
    .extab._ZNK10QtMobility17QOrganizerManager17managerParametersEv 0x0002c790   Data           0  QtOrganizer.in(.ARM.extab)
    .extab._ZN10QtMobility17QOrganizerManager8buildUriERK7QStringRK4QMapIS1_S1_Ei 0x0002c7c0   Data           0  QtOrganizer.in(.ARM.extab)
    .extab._ZNK10QtMobility17QOrganizerManager7itemIdsERKNS_20QOrganizerItemFilterERK5QListINS_23QOrganizerItemSortOrderEE 0x0002c890   Data           0  QtOrganizer.in(.ARM.extab)
    .extab._ZNK10QtMobility17QOrganizerManager5itemsERKNS_20QOrganizerItemFilterERK5QListINS_23QOrganizerItemSortOrderEERKNS_23QOrganizerItemFetchHintE 0x0002c8b0   Data           0  QtOrganizer.in(.ARM.extab)
    .extab._ZNK10QtMobility17QOrganizerManager17detailDefinitionsERK7QString 0x0002c8d0   Data           0  QtOrganizer.in(.ARM.extab)
    .extab._ZNK10QtMobility17QOrganizerManager16detailDefinitionERK7QStringS3_ 0x0002c8e0   Data           0  QtOrganizer.in(.ARM.extab)
    .extab._ZN10QtMobility17QOrganizerManager20saveDetailDefinitionERKNS_30QOrganizerItemDetailDefinitionERK7QString 0x0002c8f0   Data           0  QtOrganizer.in(.ARM.extab)
    .extab._ZN10QtMobility17QOrganizerManager22removeDetailDefinitionERK7QStringS3_ 0x0002c900   Data           0  QtOrganizer.in(.ARM.extab)
    .extab._ZN10QtMobility17QOrganizerManager17availableManagersEv 0x0002c910   Data           0  QtOrganizer.in(.ARM.extab)
    .extab._ZN10QtMobility17QOrganizerManager10extractIdsERK5QListINS_14QOrganizerItemEE 0x0002c9a8   Data           0  QtOrganizer.in(.ARM.extab)
    .extab._ZplRK7QStringS1_                 0x0002c9e0   Data           0  QtOrganizer.in(.ARM.extab)
    .extab._ZN5QListI7QStringEpLERKS1_       0x0002c9f0   Data           0  QtOrganizer.in(.ARM.extab)
    .extab._ZN4QMapIiN10QtMobility17QOrganizerManager5ErrorEE5clearEv 0x0002ca0c   Data           0  QtOrganizer.in(.ARM.extab)
    .extab._ZN5QListI7QStringE9removeAllERKS0_ 0x0002ca1c   Data           0  QtOrganizer.in(.ARM.extab)
    .extab._ZNK4QMapI7QStringS0_E4keysEv     0x0002ca2c   Data           0  QtOrganizer.in(.ARM.extab)
    .extab._ZNK5QHashI7QStringPN10QtMobility30QOrganizerManagerEngineFactoryEE4keysEv 0x0002ca3c   Data           0  QtOrganizer.in(.ARM.extab)
    .extab._ZN5QListIN10QtMobility16QOrganizerItemIdEE7reserveEi 0x0002ca4c   Data           0  QtOrganizer.in(.ARM.extab)
    .extab._ZNK10QtMobility23QOrganizerManagerEngine10managerUriEv 0x0002ca68   Data           0  QtOrganizer.in(.ARM.extab)
    .extab._ZN10QtMobility23QOrganizerManagerEngine8saveItemEPNS_14QOrganizerItemEPNS_17QOrganizerManager5ErrorE 0x0002ca88   Data           0  QtOrganizer.in(.ARM.extab)
    .extab._ZN10QtMobility23QOrganizerManagerEngine10removeItemERKNS_16QOrganizerItemIdEPNS_17QOrganizerManager5ErrorE 0x0002cab8   Data           0  QtOrganizer.in(.ARM.extab)
    .extab._ZNK10QtMobility23QOrganizerManagerEngine14compatibleItemERKNS_14QOrganizerItemEPNS_17QOrganizerManager5ErrorE 0x0002cad8   Data           0  QtOrganizer.in(.ARM.extab)
    .extab._ZNK10QtMobility23QOrganizerManagerEngine12validateItemERKNS_14QOrganizerItemEPNS_17QOrganizerManager5ErrorE 0x0002cc50   Data           0  QtOrganizer.in(.ARM.extab)
    .extab._ZNK10QtMobility23QOrganizerManagerEngine18validateDefinitionERKNS_30QOrganizerItemDetailDefinitionEPNS_17QOrganizerManager5ErrorE 0x0002cdd0   Data           0  QtOrganizer.in(.ARM.extab)
    .extab._ZNK10QtMobility23QOrganizerManagerEngine16detailDefinitionERK7QStringS3_PNS_17QOrganizerManager5ErrorE 0x0002ce18   Data           0  QtOrganizer.in(.ARM.extab)
    .extab._ZNK10QtMobility23QOrganizerManagerEngine18supportedItemTypesEv 0x0002ce28   Data           0  QtOrganizer.in(.ARM.extab)
    .extab._ZN10QtMobility23QOrganizerManagerEngine17schemaDefinitionsEi 0x0002cea8   Data           0  QtOrganizer.in(.ARM.extab)
    .extab._ZN10QtMobility23QOrganizerManagerEngine18updateRequestStateEPNS_25QOrganizerAbstractRequestENS1_5StateE 0x0002ef90   Data           0  QtOrganizer.in(.ARM.extab)
    .extab._ZN10QtMobility23QOrganizerManagerEngine32updateItemOccurrenceFetchRequestEPNS_36QOrganizerItemOccurrenceFetchRequestERK5QListINS_14QOrganizerItemEENS_17QOrganizerManager5ErrorENS_25QOrganizerAbstractRequest5StateE 0x0002efa0   Data           0  QtOrganizer.in(.ARM.extab)
    .extab._ZN10QtMobility23QOrganizerManagerEngine24updateItemIdFetchRequestEPNS_28QOrganizerItemIdFetchRequestERK5QListINS_16QOrganizerItemIdEENS_17QOrganizerManager5ErrorENS_25QOrganizerAbstractRequest5StateE 0x0002efc0   Data           0  QtOrganizer.in(.ARM.extab)
    .extab._ZN10QtMobility23QOrganizerManagerEngine22updateItemFetchRequestEPNS_26QOrganizerItemFetchRequestERK5QListINS_14QOrganizerItemEENS_17QOrganizerManager5ErrorENS_25QOrganizerAbstractRequest5StateE 0x0002efe0   Data           0  QtOrganizer.in(.ARM.extab)
    .extab._ZN10QtMobility23QOrganizerManagerEngine31updateItemFetchForExportRequestEPNS_35QOrganizerItemFetchForExportRequestERK5QListINS_14QOrganizerItemEENS_17QOrganizerManager5ErrorENS_25QOrganizerAbstractRequest5StateE 0x0002f000   Data           0  QtOrganizer.in(.ARM.extab)
    .extab._ZN10QtMobility23QOrganizerManagerEngine23updateItemRemoveRequestEPNS_27QOrganizerItemRemoveRequestENS_17QOrganizerManager5ErrorERK4QMapIiS4_ENS_25QOrganizerAbstractRequest5StateE 0x0002f020   Data           0  QtOrganizer.in(.ARM.extab)
    .extab._ZN10QtMobility23QOrganizerManagerEngine21updateItemSaveRequestEPNS_25QOrganizerItemSaveRequestERK5QListINS_14QOrganizerItemEENS_17QOrganizerManager5ErrorERK4QMapIiS9_ENS_25QOrganizerAbstractRequest5StateE 0x0002f040   Data           0  QtOrganizer.in(.ARM.extab)
    .extab._ZN10QtMobility23QOrganizerManagerEngine27updateDefinitionSaveRequestEPNS_41QOrganizerItemDetailDefinitionSaveRequestERK5QListINS_30QOrganizerItemDetailDefinitionEENS_17QOrganizerManager5ErrorERK4QMapIiS9_ENS_25QOrganizerAbstractRequest5StateE 0x0002f060   Data           0  QtOrganizer.in(.ARM.extab)
    .extab._ZN10QtMobility23QOrganizerManagerEngine29updateDefinitionRemoveRequestEPNS_43QOrganizerItemDetailDefinitionRemoveRequestENS_17QOrganizerManager5ErrorERK4QMapIiS4_ENS_25QOrganizerAbstractRequest5StateE 0x0002f080   Data           0  QtOrganizer.in(.ARM.extab)
    .extab._ZN10QtMobility23QOrganizerManagerEngine28updateDefinitionFetchRequestEPNS_42QOrganizerItemDetailDefinitionFetchRequestERK4QMapI7QStringNS_30QOrganizerItemDetailDefinitionEENS_17QOrganizerManager5ErrorERKS3_IiSA_ENS_25QOrganizerAbstractRequest5StateE 0x0002f0a0   Data           0  QtOrganizer.in(.ARM.extab)
    .extab._ZN10QtMobility23QOrganizerManagerEngine28updateCollectionFetchRequestEPNS_32QOrganizerCollectionFetchRequestERK5QListINS_20QOrganizerCollectionEENS_17QOrganizerManager5ErrorENS_25QOrganizerAbstractRequest5StateE 0x0002f0c0   Data           0  QtOrganizer.in(.ARM.extab)
    .extab._ZN10QtMobility23QOrganizerManagerEngine29updateCollectionRemoveRequestEPNS_33QOrganizerCollectionRemoveRequestENS_17QOrganizerManager5ErrorERK4QMapIiS4_ENS_25QOrganizerAbstractRequest5StateE 0x0002f0e0   Data           0  QtOrganizer.in(.ARM.extab)
    .extab._ZN10QtMobility23QOrganizerManagerEngine27updateCollectionSaveRequestEPNS_31QOrganizerCollectionSaveRequestERK5QListINS_20QOrganizerCollectionEENS_17QOrganizerManager5ErrorERK4QMapIiS9_ENS_25QOrganizerAbstractRequest5StateE 0x0002f100   Data           0  QtOrganizer.in(.ARM.extab)
    .extab._ZN10QtMobility23QOrganizerManagerEngine18isItemBetweenDatesERKNS_14QOrganizerItemERK9QDateTimeS6_ 0x0002f120   Data           0  QtOrganizer.in(.ARM.extab)
    .extab._ZN10QtMobility23QOrganizerManagerEngine14compareVariantERK8QVariantS3_N2Qt15CaseSensitivityE 0x0002f248   Data           0  QtOrganizer.in(.ARM.extab)
    .extab._ZN10QtMobility23QOrganizerManagerEngine11compareItemERKNS_14QOrganizerItemES3_RK5QListINS_23QOrganizerItemSortOrderEE 0x0002f280   Data           0  QtOrganizer.in(.ARM.extab)
    .extab._ZN10QtMobility23QOrganizerManagerEngine9addSortedEP5QListINS_14QOrganizerItemEERKS2_RKS1_INS_23QOrganizerItemSortOrderEE 0x0002f370   Data           0  QtOrganizer.in(.ARM.extab)
    .extab._ZN10QtMobility23QOrganizerManagerEngine10testFilterERKNS_20QOrganizerItemFilterERKNS_14QOrganizerItemE 0x0002f3a0   Data           0  QtOrganizer.in(.ARM.extab)
    .extab._ZN10QtMobility23QOrganizerManagerEngine19canonicalizedFilterERKNS_20QOrganizerItemFilterE 0x0002f790   Data           0  QtOrganizer.in(.ARM.extab)
    .extab._Z24qMetaTypeConstructHelperIN10QtMobility16QOrganizerItemIdEEPvPKT_ 0x0002f950   Data           0  QtOrganizer.in(.ARM.extab)
    .extab._ZN4QMapI7QStringN10QtMobility30QOrganizerItemDetailDefinitionEE11node_createEP8QMapDataPPNS4_4NodeERKS0_RKS2_ 0x0002f968   Data           0  QtOrganizer.in(.ARM.extab)
    .extab._ZN4QMapI7QStringN10QtMobility30QOrganizerItemDetailDefinitionEE13detach_helperEv 0x0002f9b4   Data           0  QtOrganizer.in(.ARM.extab)
    .extab._ZN5QListIN10QtMobility14QOrganizerItemEE9node_copyEPNS2_4NodeES4_S4_ 0x0002f9d0   Data           0  QtOrganizer.in(.ARM.extab)
    .extab._ZN5QListIN10QtMobility14QOrganizerItemEE18detach_helper_growEii 0x0002f9f4   Data           0  QtOrganizer.in(.ARM.extab)
    .extab._ZN5QListIN10QtMobility14QOrganizerItemEE6appendERKS1_ 0x0002fa24   Data           0  QtOrganizer.in(.ARM.extab)
    .extab._ZN4QMapI7QStringN10QtMobility30QOrganizerItemDetailDefinitionEE5clearEv 0x0002fa54   Data           0  QtOrganizer.in(.ARM.extab)
    .extab._ZN10QtMobility32QOrganizerItemSaveRequestPrivateD1Ev 0x0002fa64   Data           0  QtOrganizer.in(.ARM.extab)
    .extab._ZN10QtMobility33QOrganizerItemFetchRequestPrivateD1Ev 0x0002fa7c   Data           0  QtOrganizer.in(.ARM.extab)
    .extab._ZN10QtMobility42QOrganizerItemFetchForExportRequestPrivateD1Ev 0x0002fab4   Data           0  QtOrganizer.in(.ARM.extab)
    .extab._ZN10QtMobility43QOrganizerItemOccurrenceFetchRequestPrivateD1Ev 0x0002faec   Data           0  QtOrganizer.in(.ARM.extab)
    .extab._ZN10QtMobility34QOrganizerItemRemoveRequestPrivateD1Ev 0x0002fb1c   Data           0  QtOrganizer.in(.ARM.extab)
    .extab._ZN10QtMobility35QOrganizerItemIdFetchRequestPrivateD1Ev 0x0002fb34   Data           0  QtOrganizer.in(.ARM.extab)
    .extab._ZN10QtMobility49QOrganizerItemDetailDefinitionFetchRequestPrivateD1Ev 0x0002fb64   Data           0  QtOrganizer.in(.ARM.extab)
    .extab._ZN10QtMobility48QOrganizerItemDetailDefinitionSaveRequestPrivateD1Ev 0x0002fb94   Data           0  QtOrganizer.in(.ARM.extab)
    .extab._ZN10QtMobility50QOrganizerItemDetailDefinitionRemoveRequestPrivateD1Ev 0x0002fbbc   Data           0  QtOrganizer.in(.ARM.extab)
    .extab._ZN10QtMobility40QOrganizerCollectionRemoveRequestPrivateD1Ev 0x0002fbe4   Data           0  QtOrganizer.in(.ARM.extab)
    .extab._ZN10QtMobility38QOrganizerCollectionSaveRequestPrivateD1Ev 0x0002fbfc   Data           0  QtOrganizer.in(.ARM.extab)
    .extab._ZN5QListIN10QtMobility14QOrganizerItemEE14node_constructEPNS2_4NodeERKS1_ 0x0002fc14   Data           0  QtOrganizer.in(.ARM.extab)
    .extab._ZN5QListIN10QtMobility30QOrganizerItemDetailDefinitionEE13detach_helperEi 0x0002fc24   Data           0  QtOrganizer.in(.ARM.extab)
    .extab._ZN5QListIN10QtMobility20QOrganizerCollectionEE13detach_helperEi 0x0002fc68   Data           0  QtOrganizer.in(.ARM.extab)
    .extab._ZN5QListIN10QtMobility23QOrganizerItemSortOrderEE13detach_helperEi 0x0002fcac   Data           0  QtOrganizer.in(.ARM.extab)
    .extab._ZN4QMapI7QStringS_IS0_N10QtMobility30QOrganizerItemDetailDefinitionEEE13detach_helperEv 0x0002fcf0   Data           0  QtOrganizer.in(.ARM.extab)
    .extab._ZN10QtMobility24QOrganizerRecurrenceRuleC1Ev 0x0002fd0c   Data           0  QtOrganizer.in(.ARM.extab)
    .extab._ZN10QtMobility5qHashERKNS_24QOrganizerRecurrenceRuleE 0x0002fd1c   Data           0  QtOrganizer.in(.ARM.extab)
    .extab._Z20qForeachContainerNewI4QSetIiEE17QForeachContainerIT_ERKS3_ 0x0002fd94   Data           0  QtOrganizer.in(.ARM.extab)
    .extab._ZN10QtMobility31QOrganizerRecurrenceRulePrivateD1Ev 0x0002fda4   Data           0  QtOrganizer.in(.ARM.extab)
    .extab._ZN18QSharedDataPointerIN10QtMobility31QOrganizerRecurrenceRulePrivateEEptEv 0x0002fdd4   Data           0  QtOrganizer.in(.ARM.extab)
    .extab._ZN10QtMobility31QOrganizerRecurrenceRulePrivateC1Ev 0x0002fde4   Data           0  QtOrganizer.in(.ARM.extab)
    .extab._ZN10QtMobility31QOrganizerRecurrenceRulePrivateC1ERKS0_ 0x0002fe14   Data           0  QtOrganizer.in(.ARM.extab)
    .extab._ZN10QtMobility23QOrganizerItemSortOrderC1Ev 0x0002fe44   Data           0  QtOrganizer.in(.ARM.extab)
    .extab._ZN10QtMobilitylsER11QDataStreamRKNS_23QOrganizerItemSortOrderE 0x0002fe5c   Data           0  QtOrganizer.in(.ARM.extab)
    .extab._ZN10QtMobilityrsER11QDataStreamRNS_23QOrganizerItemSortOrderE 0x0002fe7c   Data           0  QtOrganizer.in(.ARM.extab)
    .extab._ZN7QString5clearEv               0x0002fe9c   Data           0  QtOrganizer.in(.ARM.extab)
    .extab._ZN10QtMobility30QOrganizerItemSortOrderPrivateD1Ev 0x0002feac   Data           0  QtOrganizer.in(.ARM.extab)
    .extab._ZN18QSharedDataPointerIN10QtMobility30QOrganizerItemSortOrderPrivateEE13detach_helperEv 0x0002febc   Data           0  QtOrganizer.in(.ARM.extab)
    .extab._ZN10QtMobility17qSymbian_CheckDirERK4QDirR3RFs 0x0002fed4   Data           0  QtOrganizer.in(.ARM.extab)
    .extab._ZN10QtMobility27qOrganizerItemsCleanEnginesEv 0x0002feec   Data           0  QtOrganizer.in(.ARM.extab)
    .extab._ZN10QtMobility21QOrganizerManagerData19loadStaticFactoriesEv 0x0002ff04   Data           0  QtOrganizer.in(.ARM.extab)
    .extab._ZN10QtMobility21QOrganizerManagerData13loadFactoriesEv 0x0002ff54   Data           0  QtOrganizer.in(.ARM.extab)
    .extab._ZN10QtMobility21QOrganizerManagerData12createEngineERK7QStringRK4QMapIS1_S1_E 0x000300bc   Data           0  QtOrganizer.in(.ARM.extab)
    .extab._ZN10QtMobility21QOrganizerManagerData18createEngineItemIdERK7QStringRK4QMapIS1_S1_ES3_ 0x0003012c   Data           0  QtOrganizer.in(.ARM.extab)
    .extab._ZN10QtMobility21QOrganizerManagerData24createEngineCollectionIdERK7QStringRK4QMapIS1_S1_ES3_ 0x0003013c   Data           0  QtOrganizer.in(.ARM.extab)
    .extab.__sti___23_qorganizermanager_p_cpp 0x0003014c   Data           0  QtOrganizer.in(.ARM.extab)
    .extab._ZN10QtMobility14parameterValueERK4QMapI7QStringS1_EPKci 0x00030164   Data           0  QtOrganizer.in(.ARM.extab)
    .extab._Z8qWarningv                      0x0003018c   Data           0  QtOrganizer.in(.ARM.extab)
    .extab._ZN5QListIPN10QtMobility30QOrganizerManagerEngineFactoryEE13detach_helperEi 0x000301a4   Data           0  QtOrganizer.in(.ARM.extab)
    .extab._Z20qForeachContainerNewI5QListIPN10QtMobility30QOrganizerManagerEngineFactoryEEE17QForeachContainerIT_ERKS6_ 0x000301c0   Data           0  QtOrganizer.in(.ARM.extab)
    .extab._ZN5QListIPN10QtMobility30QOrganizerManagerEngineFactoryEE18detach_helper_growEii 0x000301d0   Data           0  QtOrganizer.in(.ARM.extab)
    .extab._ZN5QListIPN10QtMobility30QOrganizerManagerEngineFactoryEE6appendERKS2_ 0x00030200   Data           0  QtOrganizer.in(.ARM.extab)
    .extab._ZNK5QHashI7QStringPN10QtMobility30QOrganizerManagerEngineFactoryEE6valuesEv 0x0003021c   Data           0  QtOrganizer.in(.ARM.extab)
    .extab._ZNK5QHashI7QStringPN10QtMobility30QOrganizerManagerEngineFactoryEE6valuesERKS0_ 0x0003022c   Data           0  QtOrganizer.in(.ARM.extab)
    .extab._ZN5QHashI7QStringPN10QtMobility30QOrganizerManagerEngineFactoryEE11insertMultiERKS0_RKS3_ 0x0003023c   Data           0  QtOrganizer.in(.ARM.extab)
    .extab._ZN10QtMobility15mobilityPluginsERK7QString 0x0003024c   Data           0  QtOrganizer.in(.ARM.extab)
    .extab._ZN5QListIiE13detach_helperEi     0x00030354   Data           0  QtOrganizer.in(.ARM.extab)
    .extab._ZN5QHashI7QStringPN10QtMobility30QOrganizerManagerEngineFactoryEE13duplicateNodeEPN9QHashData4NodeEPv 0x00030370   Data           0  QtOrganizer.in(.ARM.extab)
    .extab._ZN5QHashI7QString15QHashDummyValueE6insertERKS0_RKS1_ 0x00030380   Data           0  QtOrganizer.in(.ARM.extab)
    .extab._ZN5QHashI7QString15QHashDummyValueE13duplicateNodeEPN9QHashData4NodeEPv 0x00030390   Data           0  QtOrganizer.in(.ARM.extab)
    .extab._ZN10QtMobility26QOrganizerItemDisplayLabel5matchERK7QString 0x000303a0   Data           0  QtOrganizer.in(.ARM.extab)
    .extab._ZN10QtMobility21QOrganizerItemComment5matchERK7QString 0x000303e0   Data           0  QtOrganizer.in(.ARM.extab)
    .extab._ZN10QtMobility22QOrganizerItemLocation5matchERK7QString 0x00030420   Data           0  QtOrganizer.in(.ARM.extab)
    .extab._ZN10QtMobility22QOrganizerItemPriority5matchENS0_8PriorityE 0x00030460   Data           0  QtOrganizer.in(.ARM.extab)
    .extab._ZN10QtMobility24QOrganizerItemRecurrence18setRecurrenceRulesERK4QSetINS_24QOrganizerRecurrenceRuleEE 0x000304a0   Data           0  QtOrganizer.in(.ARM.extab)
    .extab._ZNK10QtMobility24QOrganizerItemRecurrence15recurrenceRulesEv 0x000304b0   Data           0  QtOrganizer.in(.ARM.extab)
    .extab._ZN10QtMobility24QOrganizerItemRecurrence18setRecurrenceDatesERK4QSetI5QDateE 0x000304c0   Data           0  QtOrganizer.in(.ARM.extab)
    .extab._ZNK10QtMobility24QOrganizerItemRecurrence15recurrenceDatesEv 0x000304d0   Data           0  QtOrganizer.in(.ARM.extab)
    .extab._ZN10QtMobility24QOrganizerItemRecurrence17setExceptionRulesERK4QSetINS_24QOrganizerRecurrenceRuleEE 0x000304e0   Data           0  QtOrganizer.in(.ARM.extab)
    .extab._ZNK10QtMobility24QOrganizerItemRecurrence14exceptionRulesEv 0x000304f0   Data           0  QtOrganizer.in(.ARM.extab)
    .extab._ZN10QtMobility24QOrganizerItemRecurrence17setExceptionDatesERK4QSetI5QDateE 0x00030500   Data           0  QtOrganizer.in(.ARM.extab)
    .extab._ZNK10QtMobility24QOrganizerItemRecurrence14exceptionDatesEv 0x00030510   Data           0  QtOrganizer.in(.ARM.extab)
    .extab._ZNK10QtMobility24QOrganizerItemRecurrenceeqERKS0_ 0x00030520   Data           0  QtOrganizer.in(.ARM.extab)
    .extab._ZN10QtMobility17QOrganizerItemTag5matchERK7QString 0x000305a0   Data           0  QtOrganizer.in(.ARM.extab)
    .extab._ZNK10QtMobility22QOrganizerItemReminder12reminderTypeEv 0x000305e0   Data           0  QtOrganizer.in(.ARM.extab)
    .extab._Z24qMetaTypeConstructHelperI4QSetIN10QtMobility24QOrganizerRecurrenceRuleEEEPvPKT_ 0x00030600   Data           0  QtOrganizer.in(.ARM.extab)
    .extab._Z24qMetaTypeConstructHelperI4QSetI5QDateEEPvPKT_ 0x00030618   Data           0  QtOrganizer.in(.ARM.extab)
    .extab._ZNK8QVariant5valueI4QSetI5QDateEEET_v 0x00030630   Data           0  QtOrganizer.in(.ARM.extab)
    .extab._ZNK8QVariant5valueI4QSetIN10QtMobility24QOrganizerRecurrenceRuleEEEET_v 0x00030640   Data           0  QtOrganizer.in(.ARM.extab)
    .extab._ZN10QtMobility28QOrganizerItemMemoryEngineIdC1Ev 0x00030650   Data           0  QtOrganizer.in(.ARM.extab)
    .extab._ZN10QtMobility28QOrganizerItemMemoryEngineIdC1EjjRK7QString 0x00030660   Data           0  QtOrganizer.in(.ARM.extab)
    .extab._ZN10QtMobility28QOrganizerItemMemoryEngineIdD1Ev 0x00030670   Data           0  QtOrganizer.in(.ARM.extab)
    .extab._ZN10QtMobility28QOrganizerItemMemoryEngineIdC1ERKS0_ 0x00030680   Data           0  QtOrganizer.in(.ARM.extab)
    .extab._ZN10QtMobility28QOrganizerItemMemoryEngineIdC1ERK7QString 0x00030690   Data           0  QtOrganizer.in(.ARM.extab)
    .extab._ZNK10QtMobility28QOrganizerItemMemoryEngineId5cloneEv 0x000306d8   Data           0  QtOrganizer.in(.ARM.extab)
    .extab._ZNK10QtMobility28QOrganizerItemMemoryEngineId8toStringEv 0x000306e8   Data           0  QtOrganizer.in(.ARM.extab)
    .extab._ZN10QtMobility34QOrganizerCollectionMemoryEngineIdC1Ev 0x00030710   Data           0  QtOrganizer.in(.ARM.extab)
    .extab._ZN10QtMobility34QOrganizerCollectionMemoryEngineIdC1EjRK7QString 0x00030720   Data           0  QtOrganizer.in(.ARM.extab)
    .extab._ZN10QtMobility34QOrganizerCollectionMemoryEngineIdD1Ev 0x00030730   Data           0  QtOrganizer.in(.ARM.extab)
    .extab._ZN10QtMobility34QOrganizerCollectionMemoryEngineIdC1ERKS0_ 0x00030740   Data           0  QtOrganizer.in(.ARM.extab)
    .extab._ZN10QtMobility34QOrganizerCollectionMemoryEngineIdC1ERK7QString 0x00030750   Data           0  QtOrganizer.in(.ARM.extab)
    .extab._ZNK10QtMobility34QOrganizerCollectionMemoryEngineId5cloneEv 0x00030788   Data           0  QtOrganizer.in(.ARM.extab)
    .extab._ZNK10QtMobility34QOrganizerCollectionMemoryEngineId8toStringEv 0x00030798   Data           0  QtOrganizer.in(.ARM.extab)
    .extab._ZN10QtMobility30QOrganizerItemMemoryEngineDataC1Ev 0x000307b0   Data           0  QtOrganizer.in(.ARM.extab)
    .extab._ZN10QtMobility26QOrganizerItemMemoryEngineC1EPNS_30QOrganizerItemMemoryEngineDataE 0x00030800   Data           0  QtOrganizer.in(.ARM.extab)
    .extab._ZN10QtMobility26QOrganizerItemMemoryEngine18createMemoryEngineERK4QMapI7QStringS2_E 0x000308a4   Data           0  QtOrganizer.in(.ARM.extab)
    .extab._ZN10QtMobility26QOrganizerItemMemoryEngineD1Ev 0x000308e4   Data           0  QtOrganizer.in(.ARM.extab)
    .extab._ZNK10QtMobility26QOrganizerItemMemoryEngine17managerParametersEv 0x000308f4   Data           0  QtOrganizer.in(.ARM.extab)
    .extab._ZN10QtMobility26QOrganizerItemMemoryEngine18generateOccurrenceERKNS_14QOrganizerItemERK9QDateTime 0x00030914   Data           0  QtOrganizer.in(.ARM.extab)
    .extab._ZNK10QtMobility26QOrganizerItemMemoryEngine13matchingDatesERK5QDateS3_RKNS_24QOrganizerRecurrenceRuleE 0x00030acc   Data           0  QtOrganizer.in(.ARM.extab)
    .extab._ZNK10QtMobility26QOrganizerItemMemoryEngine16filterByPositionERK5QListI5QDateE4QSetIiE 0x00030b2c   Data           0  QtOrganizer.in(.ARM.extab)
    .extab._ZNK10QtMobility26QOrganizerItemMemoryEngine20inferMissingCriteriaEPNS_24QOrganizerRecurrenceRuleERK5QDate 0x00030b54   Data           0  QtOrganizer.in(.ARM.extab)
    .extab._ZNK10QtMobility26QOrganizerItemMemoryEngine17generateDateTimesERK9QDateTimeNS_24QOrganizerRecurrenceRuleES3_S3_i 0x00030c7c   Data           0  QtOrganizer.in(.ARM.extab)
    .extab._ZNK10QtMobility26QOrganizerItemMemoryEngine23internalItemOccurrencesERKNS_14QOrganizerItemERK9QDateTimeS6_ibPNS_17QOrganizerManager5ErrorE 0x00030d14   Data           0  QtOrganizer.in(.ARM.extab)
    .extab._ZNK10QtMobility26QOrganizerItemMemoryEngine7itemIdsERK9QDateTimeS3_RKNS_20QOrganizerItemFilterERK5QListINS_23QOrganizerItemSortOrderEEPNS_17QOrganizerManager5ErrorE 0x00031004   Data           0  QtOrganizer.in(.ARM.extab)
    .extab._ZNK10QtMobility26QOrganizerItemMemoryEngine18addItemRecurrencesER5QListINS_14QOrganizerItemEERKS2_RK9QDateTimeS9_RKNS_20QOrganizerItemFilterERKS1_INS_23QOrganizerItemSortOrderEEbP4QSetINS_16QOrganizerItemIdEE 0x00031024   Data           0  QtOrganizer.in(.ARM.extab)
    .extab._ZNK10QtMobility26QOrganizerItemMemoryEngine17itemHasReccurenceERKNS_14QOrganizerItemE 0x00031074   Data           0  QtOrganizer.in(.ARM.extab)
    .extab._ZNK10QtMobility26QOrganizerItemMemoryEngine13internalItemsERK9QDateTimeS3_RKNS_20QOrganizerItemFilterERK5QListINS_23QOrganizerItemSortOrderEERKNS_23QOrganizerItemFetchHintEPNS_17QOrganizerManager5ErrorEb 0x000310b4   Data           0  QtOrganizer.in(.ARM.extab)
    .extab._ZNK10QtMobility26QOrganizerItemMemoryEngine4itemERKNS_16QOrganizerItemIdERKNS_23QOrganizerItemFetchHintEPNS_17QOrganizerManager5ErrorE 0x00031144   Data           0  QtOrganizer.in(.ARM.extab)
    .extab._ZN10QtMobility26QOrganizerItemMemoryEngine9saveItemsEP5QListINS_14QOrganizerItemEEP4QMapIiNS_17QOrganizerManager5ErrorEEPS7_ 0x0003115c   Data           0  QtOrganizer.in(.ARM.extab)
    .extab._ZN10QtMobility26QOrganizerItemMemoryEngine11removeItemsERK5QListINS_16QOrganizerItemIdEEP4QMapIiNS_17QOrganizerManager5ErrorEEPS8_ 0x00031184   Data           0  QtOrganizer.in(.ARM.extab)
    .extab._ZNK10QtMobility26QOrganizerItemMemoryEngine17defaultCollectionEPNS_17QOrganizerManager5ErrorE 0x000311a4   Data           0  QtOrganizer.in(.ARM.extab)
    .extab._ZNK10QtMobility26QOrganizerItemMemoryEngine10collectionERKNS_22QOrganizerCollectionIdEPNS_17QOrganizerManager5ErrorE 0x000311c4   Data           0  QtOrganizer.in(.ARM.extab)
    .extab._ZN10QtMobility26QOrganizerItemMemoryEngine14saveCollectionEPNS_20QOrganizerCollectionEPNS_17QOrganizerManager5ErrorE 0x000311d4   Data           0  QtOrganizer.in(.ARM.extab)
    .extab._ZN10QtMobility26QOrganizerItemMemoryEngine16removeCollectionERKNS_22QOrganizerCollectionIdEPNS_17QOrganizerManager5ErrorE 0x0003126c   Data           0  QtOrganizer.in(.ARM.extab)
    .extab._ZNK10QtMobility26QOrganizerItemMemoryEngine20compatibleCollectionERKNS_20QOrganizerCollectionEPNS_17QOrganizerManager5ErrorE 0x000312cc   Data           0  QtOrganizer.in(.ARM.extab)
    .extab._ZNK10QtMobility26QOrganizerItemMemoryEngine17detailDefinitionsERK7QStringPNS_17QOrganizerManager5ErrorE 0x00031304   Data           0  QtOrganizer.in(.ARM.extab)
    .extab._ZN10QtMobility26QOrganizerItemMemoryEngine20saveDetailDefinitionERKNS_30QOrganizerItemDetailDefinitionERK7QStringPNS_17QOrganizerManager5ErrorE 0x00031314   Data           0  QtOrganizer.in(.ARM.extab)
    .extab._ZN10QtMobility26QOrganizerItemMemoryEngine22removeDetailDefinitionERK7QStringS3_PNS_17QOrganizerManager5ErrorE 0x00031324   Data           0  QtOrganizer.in(.ARM.extab)
    .extab._ZN10QtMobility26QOrganizerItemMemoryEngine28performAsynchronousOperationEPNS_25QOrganizerAbstractRequestE 0x00031334   Data           0  QtOrganizer.in(.ARM.extab)
    .extab._ZN10QtMobility26QOrganizerItemMemoryEngine12startRequestEPNS_25QOrganizerAbstractRequestE 0x00031694   Data           0  QtOrganizer.in(.ARM.extab)
    .extab._ZNK10QtMobility26QOrganizerItemMemoryEngine10hasFeatureENS_17QOrganizerManager14ManagerFeatureERK7QString 0x000316a4   Data           0  QtOrganizer.in(.ARM.extab)
    .extab._ZN10QtMobility26QOrganizerItemMemoryEngine23fixOccurrenceReferencesEPNS_14QOrganizerItemEPNS_17QOrganizerManager5ErrorE 0x000316b4   Data           0  QtOrganizer.in(.ARM.extab)
    .extab._ZN10QtMobility26QOrganizerItemMemoryEngine8saveItemEPNS_14QOrganizerItemERNS_23QOrganizerItemChangeSetEPNS_17QOrganizerManager5ErrorE 0x00031854   Data           0  QtOrganizer.in(.ARM.extab)
    .extab._ZN10QtMobility26QOrganizerItemMemoryEngine10removeItemERKNS_16QOrganizerItemIdERNS_23QOrganizerItemChangeSetEPNS_17QOrganizerManager5ErrorE 0x00031c1c   Data           0  QtOrganizer.in(.ARM.extab)
    .extab._ZN10QtMobility26QOrganizerItemMemoryEngine20saveDetailDefinitionERKNS_30QOrganizerItemDetailDefinitionERK7QStringRNS_23QOrganizerItemChangeSetEPNS_17QOrganizerManager5ErrorE 0x00031cac   Data           0  QtOrganizer.in(.ARM.extab)
    .extab._ZN10QtMobility26QOrganizerItemMemoryEngine22removeDetailDefinitionERK7QStringS3_RNS_23QOrganizerItemChangeSetEPNS_17QOrganizerManager5ErrorE 0x00031ccc   Data           0  QtOrganizer.in(.ARM.extab)
    .extab.__sti___31_qorganizeritemmemorybackend_cpp 0x00031cdc   Data           0  QtOrganizer.in(.ARM.extab)
    .extab._ZN5QListIPN10QtMobility23QOrganizerManagerEngineEE13detach_helperEv 0x00031cec   Data           0  QtOrganizer.in(.ARM.extab)
    .extab._ZN9QHashNodeIN10QtMobility16QOrganizerItemIdENS0_14QOrganizerItemEEC1ERKS1_RKS2_ 0x00031d08   Data           0  QtOrganizer.in(.ARM.extab)
    .extab._Z20qForeachContainerNewI5QHashIN10QtMobility16QOrganizerItemIdENS1_14QOrganizerItemEEE17QForeachContainerIT_ERKS6_ 0x00031d18   Data           0  QtOrganizer.in(.ARM.extab)
    .extab._Z20qForeachContainerNewI4QSetI5QDateEE17QForeachContainerIT_ERKS4_ 0x00031d28   Data           0  QtOrganizer.in(.ARM.extab)
    .extab._ZN5QListI9QDateTimeE9node_copyEPNS1_4NodeES3_S3_ 0x00031d38   Data           0  QtOrganizer.in(.ARM.extab)
    .extab._ZN5QListI9QDateTimeE13detach_helperEv 0x00031d5c   Data           0  QtOrganizer.in(.ARM.extab)
    .extab._Z20qForeachContainerNewI5QListI9QDateTimeEE17QForeachContainerIT_ERKS4_ 0x00031d78   Data           0  QtOrganizer.in(.ARM.extab)
    .extab._Z5qSwapI9QDateTimeEvRT_S2_       0x00031d88   Data           0  QtOrganizer.in(.ARM.extab)
    .extab._ZN5QListIN10QtMobility14QOrganizerItemEE13detach_helperEi 0x00031d98   Data           0  QtOrganizer.in(.ARM.extab)
    .extab._Z20qForeachContainerNewI5QListIN10QtMobility14QOrganizerItemEEE17QForeachContainerIT_ERKS5_ 0x00031db4   Data           0  QtOrganizer.in(.ARM.extab)
    .extab._ZN9QHashData9hasShrunkEv         0x00031dc4   Data           0  QtOrganizer.in(.ARM.extab)
    .extab._ZN4QMapI7QStringPN10QtMobility30QOrganizerItemMemoryEngineDataEE11node_createEP8QMapDataPPNS5_4NodeERKS0_RKS3_ 0x00031dd8   Data           0  QtOrganizer.in(.ARM.extab)
    .extab._ZNK5QListIN10QtMobility14QOrganizerItemEE3midEii 0x00031dfc   Data           0  QtOrganizer.in(.ARM.extab)
    .extab._ZN5QListI9QDateTimeE18detach_helper_growEii 0x00031e28   Data           0  QtOrganizer.in(.ARM.extab)
    .extab._ZN5QListI9QDateTimeE6appendERKS0_ 0x00031e58   Data           0  QtOrganizer.in(.ARM.extab)
    .extab._ZN5QListI9QDateTimeEpLERKS1_     0x00031e88   Data           0  QtOrganizer.in(.ARM.extab)
    .extab._ZN5QListI5QDateE18detach_helper_growEii 0x00031ea4   Data           0  QtOrganizer.in(.ARM.extab)
    .extab._ZN5QListI5QDateE6appendERKS0_    0x00031ed4   Data           0  QtOrganizer.in(.ARM.extab)
    .extab._ZN9QHashNodeIN10QtMobility16QOrganizerItemIdES1_EC1ERKS1_S4_ 0x00031ef0   Data           0  QtOrganizer.in(.ARM.extab)
    .extab._ZN4QMapIiN10QtMobility17QOrganizerManager5ErrorEE13detach_helperEv 0x00031f00   Data           0  QtOrganizer.in(.ARM.extab)
    .extab._ZN5QListIN10QtMobility30QOrganizerItemDetailDefinitionEE9node_copyEPNS2_4NodeES4_S4_ 0x00031f1c   Data           0  QtOrganizer.in(.ARM.extab)
    .extab._ZN5QListIN10QtMobility30QOrganizerItemDetailDefinitionEE18detach_helper_growEii 0x00031f40   Data           0  QtOrganizer.in(.ARM.extab)
    .extab._ZNK10QtMobility20QOrganizerItemDetail5valueI9QDateTimeEET_PKc 0x00031f70   Data           0  QtOrganizer.in(.ARM.extab)
    .extab._ZNK10QtMobility14QOrganizerItem6detailINS_20QOrganizerItemParentEEET_v 0x00031f88   Data           0  QtOrganizer.in(.ARM.extab)
    .extab._ZN10QtMobility20QOrganizerItemParent11setParentIdERKNS_16QOrganizerItemIdE 0x00031f98   Data           0  QtOrganizer.in(.ARM.extab)
    .extab._ZNK10QtMobility20QOrganizerItemParent8parentIdEv 0x00031fa8   Data           0  QtOrganizer.in(.ARM.extab)
    .extab._ZNK10QtMobility20QOrganizerItemParent12originalDateEv 0x00031fc0   Data           0  QtOrganizer.in(.ARM.extab)
    .extab._ZN10QtMobility23QOrganizerItemTimestamp15setLastModifiedERK9QDateTime 0x00031fd0   Data           0  QtOrganizer.in(.ARM.extab)
    .extab._ZN10QtMobility30QOrganizerItemMemoryEngineData17emitSharedSignalsEPNS_23QOrganizerItemChangeSetE 0x00031fe0   Data           0  QtOrganizer.in(.ARM.extab)
    .extab._ZN5QHashIN10QtMobility16QOrganizerItemIdENS0_14QOrganizerItemEE6insertERKS1_RKS2_ 0x00031ff8   Data           0  QtOrganizer.in(.ARM.extab)
    .extab._ZN5QListIN10QtMobility20QOrganizerCollectionEE9node_copyEPNS2_4NodeES4_S4_ 0x00032008   Data           0  QtOrganizer.in(.ARM.extab)
    .extab._ZN5QListIN10QtMobility20QOrganizerCollectionEE13detach_helperEv 0x0003202c   Data           0  QtOrganizer.in(.ARM.extab)
    .extab._ZN5QListIN10QtMobility20QOrganizerCollectionEE18detach_helper_growEii 0x00032048   Data           0  QtOrganizer.in(.ARM.extab)
    .extab._ZN5QListIN10QtMobility20QOrganizerCollectionEE6appendERKS1_ 0x00032078   Data           0  QtOrganizer.in(.ARM.extab)
    .extab._ZN4QMapIN10QtMobility22QOrganizerCollectionIdENS0_16QOrganizerItemIdEE11node_createEP8QMapDataPPNS4_4NodeERKS1_RKS2_ 0x000320a8   Data           0  QtOrganizer.in(.ARM.extab)
    .extab._ZNK4QMapIN10QtMobility22QOrganizerCollectionIdENS0_16QOrganizerItemIdEE3keyERKS2_ 0x000320f4   Data           0  QtOrganizer.in(.ARM.extab)
    .extab._ZNK4QMapIN10QtMobility22QOrganizerCollectionIdENS0_16QOrganizerItemIdEE6valuesERKS1_ 0x00032104   Data           0  QtOrganizer.in(.ARM.extab)
    .extab._ZN4QMapI7QStringS_IS0_N10QtMobility30QOrganizerItemDetailDefinitionEEE11node_createEP8QMapDataPPNS5_4NodeERKS0_RKS3_ 0x00032114   Data           0  QtOrganizer.in(.ARM.extab)
    .extab._ZN5QListIPN10QtMobility23QOrganizerManagerEngineEE18detach_helper_growEii 0x00032160   Data           0  QtOrganizer.in(.ARM.extab)
    .extab._ZN5QHashIN10QtMobility16QOrganizerItemIdENS0_14QOrganizerItemEE11deleteNode2EPN9QHashData4NodeE 0x00032190   Data           0  QtOrganizer.in(.ARM.extab)
    .extab._ZN5QHashIN10QtMobility16QOrganizerItemIdENS0_14QOrganizerItemEE13duplicateNodeEPN9QHashData4NodeEPv 0x000321a0   Data           0  QtOrganizer.in(.ARM.extab)
    .extab._ZN17QForeachContainerI4QSetIN10QtMobility24QOrganizerRecurrenceRuleEEEC1ERKS3_ 0x000321b0   Data           0  QtOrganizer.in(.ARM.extab)
    .extab._ZN5QListI9QDateTimeE14node_constructEPNS1_4NodeERKS0_ 0x000321c0   Data           0  QtOrganizer.in(.ARM.extab)
    .extab._ZNK4QMapI7QStringN10QtMobility30QOrganizerItemDetailDefinitionEE4keysEv 0x000321d0   Data           0  QtOrganizer.in(.ARM.extab)
    .extab._ZN5QListIN10QtMobility30QOrganizerItemDetailDefinitionEE6appendERKS1_ 0x000321e0   Data           0  QtOrganizer.in(.ARM.extab)
    .extab._ZN5QHashIN10QtMobility16QOrganizerItemIdES1_E11deleteNode2EPN9QHashData4NodeE 0x00032210   Data           0  QtOrganizer.in(.ARM.extab)
    .extab._ZN10QtMobility30QOrganizerItemMemoryEngineDataD1Ev 0x00032220   Data           0  QtOrganizer.in(.ARM.extab)
    .extab._ZNK5QHashIN10QtMobility16QOrganizerItemIdENS0_14QOrganizerItemEE4keysEv 0x00032270   Data           0  QtOrganizer.in(.ARM.extab)
    .extab._ZN5QHashIN10QtMobility16QOrganizerItemIdES1_E13duplicateNodeEPN9QHashData4NodeEPv 0x00032280   Data           0  QtOrganizer.in(.ARM.extab)
    .extab._ZN5QListIN10QtMobility20QOrganizerCollectionEE14node_constructEPNS2_4NodeERKS1_ 0x00032290   Data           0  QtOrganizer.in(.ARM.extab)
    .extab._ZN5QListIN10QtMobility22QOrganizerCollectionIdEE13detach_helperEv 0x000322a0   Data           0  QtOrganizer.in(.ARM.extab)
    .extab._ZN5QListI5QDateE13detach_helperEv 0x000322bc   Data           0  QtOrganizer.in(.ARM.extab)
    .extab._ZN4QMapI7QStringPN10QtMobility30QOrganizerItemMemoryEngineDataEE13detach_helperEv 0x000322d8   Data           0  QtOrganizer.in(.ARM.extab)
    .extab._ZN5QListIN10QtMobility30QOrganizerItemDetailDefinitionEE14node_constructEPNS2_4NodeERKS1_ 0x000322f4   Data           0  QtOrganizer.in(.ARM.extab)
    .extab._ZN4QMapIN10QtMobility22QOrganizerCollectionIdENS0_16QOrganizerItemIdEE13detach_helperEv 0x00032304   Data           0  QtOrganizer.in(.ARM.extab)
    .extab._ZN10QtMobility29QOrganizerItemChangeLogFilterC1ENS0_9EventTypeE 0x00032320   Data           0  QtOrganizer.in(.ARM.extab)
    .extab._ZN10QtMobility29QOrganizerItemChangeLogFilterC1ERKNS_20QOrganizerItemFilterE 0x00032330   Data           0  QtOrganizer.in(.ARM.extab)
    .extab._ZN10QtMobility36QOrganizerItemChangeLogFilterPrivateC1ENS_29QOrganizerItemChangeLogFilter9EventTypeE 0x00032340   Data           0  QtOrganizer.in(.ARM.extab)
    .extab._ZN10QtMobility36QOrganizerItemChangeLogFilterPrivate14copyIfPossibleER18QSharedDataPointerINS_27QOrganizerItemFilterPrivateEERKNS_20QOrganizerItemFilterE 0x00032350   Data           0  QtOrganizer.in(.ARM.extab)
    .extab._ZNK10QtMobility36QOrganizerItemChangeLogFilterPrivate5cloneEv 0x00032360   Data           0  QtOrganizer.in(.ARM.extab)
    .extab._ZN10QtMobility36QOrganizerItemChangeLogFilterPrivateD1Ev 0x00032378   Data           0  QtOrganizer.in(.ARM.extab)
    .extab._ZN10QtMobility26QOrganizerItemDetailFilterC1Ev 0x00032388   Data           0  QtOrganizer.in(.ARM.extab)
    .extab._ZN10QtMobility26QOrganizerItemDetailFilterC1ERKNS_20QOrganizerItemFilterE 0x00032398   Data           0  QtOrganizer.in(.ARM.extab)
    .extab._ZN10QtMobility33QOrganizerItemDetailFilterPrivateC1Ev 0x000323a8   Data           0  QtOrganizer.in(.ARM.extab)
    .extab._ZN10QtMobility33QOrganizerItemDetailFilterPrivateD1Ev 0x000323c0   Data           0  QtOrganizer.in(.ARM.extab)
    .extab._ZN10QtMobility33QOrganizerItemDetailFilterPrivate14copyIfPossibleER18QSharedDataPointerINS_27QOrganizerItemFilterPrivateEERKNS_20QOrganizerItemFilterE 0x000323e0   Data           0  QtOrganizer.in(.ARM.extab)
    .extab._ZNK10QtMobility33QOrganizerItemDetailFilterPrivate5cloneEv 0x000323f0   Data           0  QtOrganizer.in(.ARM.extab)
    .extab._ZN10QtMobility31QOrganizerItemDetailRangeFilterC1Ev 0x00032418   Data           0  QtOrganizer.in(.ARM.extab)
    .extab._ZN10QtMobility31QOrganizerItemDetailRangeFilterC1ERKNS_20QOrganizerItemFilterE 0x00032428   Data           0  QtOrganizer.in(.ARM.extab)
    .extab._ZN10QtMobility38QOrganizerItemDetailRangeFilterPrivateC1Ev 0x00032438   Data           0  QtOrganizer.in(.ARM.extab)
    .extab._ZN10QtMobility38QOrganizerItemDetailRangeFilterPrivateD1Ev 0x00032460   Data           0  QtOrganizer.in(.ARM.extab)
    .extab._ZN10QtMobility38QOrganizerItemDetailRangeFilterPrivate14copyIfPossibleER18QSharedDataPointerINS_27QOrganizerItemFilterPrivateEERKNS_20QOrganizerItemFilterE 0x00032488   Data           0  QtOrganizer.in(.ARM.extab)
    .extab._ZNK10QtMobility38QOrganizerItemDetailRangeFilterPrivate5cloneEv 0x00032498   Data           0  QtOrganizer.in(.ARM.extab)
    .extab._ZN10QtMobility38QOrganizerItemDetailRangeFilterPrivateC1ERKS0_ 0x000324a8   Data           0  QtOrganizer.in(.ARM.extab)
    .extab._ZN10QtMobility32QOrganizerItemIntersectionFilterC1Ev 0x000324d0   Data           0  QtOrganizer.in(.ARM.extab)
    .extab._ZN10QtMobility32QOrganizerItemIntersectionFilterC1ERKNS_20QOrganizerItemFilterE 0x000324e0   Data           0  QtOrganizer.in(.ARM.extab)
    .extab._ZN10QtMobility32QOrganizerItemIntersectionFilter7prependERKNS_20QOrganizerItemFilterE 0x000324f0   Data           0  QtOrganizer.in(.ARM.extab)
    .extab._ZN5QListIN10QtMobility20QOrganizerItemFilterEE9node_copyEPNS2_4NodeES4_S4_ 0x00032520   Data           0  QtOrganizer.in(.ARM.extab)
    .extab._ZN5QListIN10QtMobility20QOrganizerItemFilterEE18detach_helper_growEii 0x00032544   Data           0  QtOrganizer.in(.ARM.extab)
    .extab._ZN5QListIN10QtMobility20QOrganizerItemFilterEE6appendERKS1_ 0x00032574   Data           0  QtOrganizer.in(.ARM.extab)
    .extab._ZN5QListIN10QtMobility20QOrganizerItemFilterEE13detach_helperEi 0x000325a4   Data           0  QtOrganizer.in(.ARM.extab)
    .extab._ZN5QListIN10QtMobility20QOrganizerItemFilterEE5clearEv 0x000325c0   Data           0  QtOrganizer.in(.ARM.extab)
    .extab._ZN10QtMobility39QOrganizerItemIntersectionFilterPrivateC1Ev 0x000325d0   Data           0  QtOrganizer.in(.ARM.extab)
    .extab._ZN5QListIN10QtMobility20QOrganizerItemFilterEE14node_constructEPNS2_4NodeERKS1_ 0x000325e0   Data           0  QtOrganizer.in(.ARM.extab)
    .extab._ZN10QtMobility39QOrganizerItemIntersectionFilterPrivate14copyIfPossibleER18QSharedDataPointerINS_27QOrganizerItemFilterPrivateEERKNS_20QOrganizerItemFilterE 0x000325f0   Data           0  QtOrganizer.in(.ARM.extab)
    .extab._ZN5QListIN10QtMobility20QOrganizerItemFilterEE9removeAllERKS1_ 0x00032600   Data           0  QtOrganizer.in(.ARM.extab)
    .extab._ZNK10QtMobility39QOrganizerItemIntersectionFilterPrivate5cloneEv 0x00032610   Data           0  QtOrganizer.in(.ARM.extab)
    .extab._ZN10QtMobility39QOrganizerItemIntersectionFilterPrivateD1Ev 0x00032628   Data           0  QtOrganizer.in(.ARM.extab)
    .extab._ZrsIN10QtMobility20QOrganizerItemFilterEER11QDataStreamS3_R5QListIT_E 0x00032638   Data           0  QtOrganizer.in(.ARM.extab)
    .extab._ZN10QtMobility27QOrganizerItemInvalidFilterC1Ev 0x00032648   Data           0  QtOrganizer.in(.ARM.extab)
    .extab._ZN10QtMobility27QOrganizerItemInvalidFilterC1ERKNS_20QOrganizerItemFilterE 0x00032658   Data           0  QtOrganizer.in(.ARM.extab)
    .extab._ZN10QtMobility34QOrganizerItemInvalidFilterPrivateC1Ev 0x00032668   Data           0  QtOrganizer.in(.ARM.extab)
    .extab._ZNK10QtMobility34QOrganizerItemInvalidFilterPrivate5cloneEv 0x00032678   Data           0  QtOrganizer.in(.ARM.extab)
    .extab._ZN10QtMobility34QOrganizerItemInvalidFilterPrivateD1Ev 0x00032688   Data           0  QtOrganizer.in(.ARM.extab)
    .extab._ZN10QtMobility22QOrganizerItemIdFilterC1Ev 0x00032698   Data           0  QtOrganizer.in(.ARM.extab)
    .extab._ZN10QtMobility22QOrganizerItemIdFilterC1ERKNS_20QOrganizerItemFilterE 0x000326a8   Data           0  QtOrganizer.in(.ARM.extab)
    .extab._ZN5QListIN10QtMobility16QOrganizerItemIdEE5clearEv 0x000326b8   Data           0  QtOrganizer.in(.ARM.extab)
    .extab._ZN10QtMobility29QOrganizerItemIdFilterPrivateC1Ev 0x000326c8   Data           0  QtOrganizer.in(.ARM.extab)
    .extab._ZN10QtMobility29QOrganizerItemIdFilterPrivate14copyIfPossibleER18QSharedDataPointerINS_27QOrganizerItemFilterPrivateEERKNS_20QOrganizerItemFilterE 0x000326d8   Data           0  QtOrganizer.in(.ARM.extab)
    .extab._ZN5QListIN10QtMobility16QOrganizerItemIdEE9removeAllERKS1_ 0x000326e8   Data           0  QtOrganizer.in(.ARM.extab)
    .extab._ZNK10QtMobility29QOrganizerItemIdFilterPrivate5cloneEv 0x000326f8   Data           0  QtOrganizer.in(.ARM.extab)
    .extab._ZN10QtMobility29QOrganizerItemIdFilterPrivateD1Ev 0x00032710   Data           0  QtOrganizer.in(.ARM.extab)
    .extab._ZrsIN10QtMobility16QOrganizerItemIdEER11QDataStreamS3_R5QListIT_E 0x00032720   Data           0  QtOrganizer.in(.ARM.extab)
    .extab._ZN10QtMobility30QOrganizerItemCollectionFilterC1Ev 0x00032730   Data           0  QtOrganizer.in(.ARM.extab)
    .extab._ZN10QtMobility30QOrganizerItemCollectionFilterC1ERKNS_20QOrganizerItemFilterE 0x00032740   Data           0  QtOrganizer.in(.ARM.extab)
    .extab._ZN4QSetIN10QtMobility22QOrganizerCollectionIdEE5clearEv 0x00032750   Data           0  QtOrganizer.in(.ARM.extab)
    .extab._ZN10QtMobility37QOrganizerItemCollectionFilterPrivateC1Ev 0x00032760   Data           0  QtOrganizer.in(.ARM.extab)
    .extab._ZN10QtMobility37QOrganizerItemCollectionFilterPrivate14copyIfPossibleER18QSharedDataPointerINS_27QOrganizerItemFilterPrivateEERKNS_20QOrganizerItemFilterE 0x00032770   Data           0  QtOrganizer.in(.ARM.extab)
    .extab._ZNK10QtMobility37QOrganizerItemCollectionFilterPrivate5cloneEv 0x00032780   Data           0  QtOrganizer.in(.ARM.extab)
    .extab._ZN10QtMobility37QOrganizerItemCollectionFilterPrivateD1Ev 0x00032798   Data           0  QtOrganizer.in(.ARM.extab)
    .extab._ZrsIN10QtMobility22QOrganizerCollectionIdEER11QDataStreamS3_R4QSetIT_E 0x000327a8   Data           0  QtOrganizer.in(.ARM.extab)
    .extab._ZN10QtMobility25QOrganizerItemUnionFilterC1Ev 0x000327b8   Data           0  QtOrganizer.in(.ARM.extab)
    .extab._ZN10QtMobility25QOrganizerItemUnionFilterC1ERKNS_20QOrganizerItemFilterE 0x000327c8   Data           0  QtOrganizer.in(.ARM.extab)
    .extab._ZN10QtMobility25QOrganizerItemUnionFilter7prependERKNS_20QOrganizerItemFilterE 0x000327d8   Data           0  QtOrganizer.in(.ARM.extab)
    .extab._ZN10QtMobility32QOrganizerItemUnionFilterPrivateC1Ev 0x00032808   Data           0  QtOrganizer.in(.ARM.extab)
    .extab._ZN10QtMobility32QOrganizerItemUnionFilterPrivate14copyIfPossibleER18QSharedDataPointerINS_27QOrganizerItemFilterPrivateEERKNS_20QOrganizerItemFilterE 0x00032818   Data           0  QtOrganizer.in(.ARM.extab)
    .extab._ZNK10QtMobility32QOrganizerItemUnionFilterPrivate5cloneEv 0x00032828   Data           0  QtOrganizer.in(.ARM.extab)
    .extab._ZN10QtMobility32QOrganizerItemUnionFilterPrivateD1Ev 0x00032840   Data           0  QtOrganizer.in(.ARM.extab)
    .extab._ZN10QtMobility15QOrganizerEvent16setStartDateTimeERK9QDateTime 0x00032850   Data           0  QtOrganizer.in(.ARM.extab)
    .extab._ZNK10QtMobility15QOrganizerEvent13startDateTimeEv 0x00032868   Data           0  QtOrganizer.in(.ARM.extab)
    .extab._ZN10QtMobility15QOrganizerEvent14setEndDateTimeERK9QDateTime 0x00032878   Data           0  QtOrganizer.in(.ARM.extab)
    .extab._ZNK10QtMobility15QOrganizerEvent11endDateTimeEv 0x00032890   Data           0  QtOrganizer.in(.ARM.extab)
    .extab._ZN10QtMobility15QOrganizerEvent9setAllDayEb 0x000328a0   Data           0  QtOrganizer.in(.ARM.extab)
    .extab._ZNK10QtMobility15QOrganizerEvent8isAllDayEv 0x000328b8   Data           0  QtOrganizer.in(.ARM.extab)
    .extab._ZN10QtMobility15QOrganizerEvent18setRecurrenceDatesERK4QSetI5QDateE 0x000328d0   Data           0  QtOrganizer.in(.ARM.extab)
    .extab._ZN10QtMobility15QOrganizerEvent17setRecurrenceDateERK5QDate 0x000328e0   Data           0  QtOrganizer.in(.ARM.extab)
    .extab._ZNK10QtMobility15QOrganizerEvent15recurrenceDatesEv 0x000328f0   Data           0  QtOrganizer.in(.ARM.extab)
    .extab._ZN10QtMobility15QOrganizerEvent18setRecurrenceRulesERK4QSetINS_24QOrganizerRecurrenceRuleEE 0x00032900   Data           0  QtOrganizer.in(.ARM.extab)
    .extab._ZN10QtMobility15QOrganizerEvent17setRecurrenceRuleERKNS_24QOrganizerRecurrenceRuleE 0x00032910   Data           0  QtOrganizer.in(.ARM.extab)
    .extab._ZNK10QtMobility15QOrganizerEvent15recurrenceRulesEv 0x00032920   Data           0  QtOrganizer.in(.ARM.extab)
    .extab._ZNK10QtMobility15QOrganizerEvent14recurrenceRuleEv 0x00032930   Data           0  QtOrganizer.in(.ARM.extab)
    .extab._ZN10QtMobility15QOrganizerEvent17setExceptionDatesERK4QSetI5QDateE 0x00032940   Data           0  QtOrganizer.in(.ARM.extab)
    .extab._ZN10QtMobility15QOrganizerEvent16setExceptionDateERK5QDate 0x00032950   Data           0  QtOrganizer.in(.ARM.extab)
    .extab._ZNK10QtMobility15QOrganizerEvent14exceptionDatesEv 0x00032960   Data           0  QtOrganizer.in(.ARM.extab)
    .extab._ZN10QtMobility15QOrganizerEvent17setExceptionRulesERK4QSetINS_24QOrganizerRecurrenceRuleEE 0x00032970   Data           0  QtOrganizer.in(.ARM.extab)
    .extab._ZN10QtMobility15QOrganizerEvent16setExceptionRuleERKNS_24QOrganizerRecurrenceRuleE 0x00032980   Data           0  QtOrganizer.in(.ARM.extab)
    .extab._ZNK10QtMobility15QOrganizerEvent14exceptionRulesEv 0x00032990   Data           0  QtOrganizer.in(.ARM.extab)
    .extab._ZNK10QtMobility15QOrganizerEvent13exceptionRuleEv 0x000329a0   Data           0  QtOrganizer.in(.ARM.extab)
    .extab._ZN10QtMobility15QOrganizerEvent11setPriorityENS_22QOrganizerItemPriority8PriorityE 0x000329b0   Data           0  QtOrganizer.in(.ARM.extab)
    .extab._ZNK10QtMobility15QOrganizerEvent8priorityEv 0x000329c8   Data           0  QtOrganizer.in(.ARM.extab)
    .extab._ZNK10QtMobility15QOrganizerEvent8locationEv 0x000329e0   Data           0  QtOrganizer.in(.ARM.extab)
    .extab._ZN10QtMobility15QOrganizerEvent11setLocationERK7QString 0x000329f0   Data           0  QtOrganizer.in(.ARM.extab)
    .extab._ZNK10QtMobility14QOrganizerItem6detailINS_19QOrganizerEventTimeEEET_v 0x00032a08   Data           0  QtOrganizer.in(.ARM.extab)
    .extab._ZNK10QtMobility14QOrganizerItem6detailINS_24QOrganizerItemRecurrenceEEET_v 0x00032a18   Data           0  QtOrganizer.in(.ARM.extab)
    .extab._ZNK10QtMobility14QOrganizerItem6detailINS_22QOrganizerItemPriorityEEET_v 0x00032a28   Data           0  QtOrganizer.in(.ARM.extab)
    .extab._ZNK10QtMobility14QOrganizerItem6detailINS_22QOrganizerItemLocationEEET_v 0x00032a38   Data           0  QtOrganizer.in(.ARM.extab)
    .extab._ZN5QHashIN10QtMobility24QOrganizerRecurrenceRuleE15QHashDummyValueE13duplicateNodeEPN9QHashData4NodeEPv 0x00032a48   Data           0  QtOrganizer.in(.ARM.extab)
    .extab._ZN5QHashIN10QtMobility24QOrganizerRecurrenceRuleE15QHashDummyValueE6insertERKS1_RKS2_ 0x00032a58   Data           0  QtOrganizer.in(.ARM.extab)
    .extab._ZN10QtMobility25QOrganizerEventOccurrence16setStartDateTimeERK9QDateTime 0x00032a68   Data           0  QtOrganizer.in(.ARM.extab)
    .extab._ZNK10QtMobility25QOrganizerEventOccurrence13startDateTimeEv 0x00032a80   Data           0  QtOrganizer.in(.ARM.extab)
    .extab._ZN10QtMobility25QOrganizerEventOccurrence14setEndDateTimeERK9QDateTime 0x00032a90   Data           0  QtOrganizer.in(.ARM.extab)
    .extab._ZNK10QtMobility25QOrganizerEventOccurrence11endDateTimeEv 0x00032aa8   Data           0  QtOrganizer.in(.ARM.extab)
    .extab._ZN10QtMobility25QOrganizerEventOccurrence11setParentIdERKNS_16QOrganizerItemIdE 0x00032ab8   Data           0  QtOrganizer.in(.ARM.extab)
    .extab._ZNK10QtMobility25QOrganizerEventOccurrence8parentIdEv 0x00032ad0   Data           0  QtOrganizer.in(.ARM.extab)
    .extab._ZN10QtMobility25QOrganizerEventOccurrence15setOriginalDateERK5QDate 0x00032ae0   Data           0  QtOrganizer.in(.ARM.extab)
    .extab._ZNK10QtMobility25QOrganizerEventOccurrence12originalDateEv 0x00032af8   Data           0  QtOrganizer.in(.ARM.extab)
    .extab._ZN10QtMobility25QOrganizerEventOccurrence11setPriorityENS_22QOrganizerItemPriority8PriorityE 0x00032b10   Data           0  QtOrganizer.in(.ARM.extab)
    .extab._ZNK10QtMobility25QOrganizerEventOccurrence8priorityEv 0x00032b28   Data           0  QtOrganizer.in(.ARM.extab)
    .extab._ZNK10QtMobility25QOrganizerEventOccurrence8locationEv 0x00032b40   Data           0  QtOrganizer.in(.ARM.extab)
    .extab._ZN10QtMobility25QOrganizerEventOccurrence11setLocationERK7QString 0x00032b50   Data           0  QtOrganizer.in(.ARM.extab)
    .extab._ZN10QtMobility17QOrganizerJournal11setDateTimeERK9QDateTime 0x00032b68   Data           0  QtOrganizer.in(.ARM.extab)
    .extab._ZNK10QtMobility17QOrganizerJournal8dateTimeEv 0x00032b80   Data           0  QtOrganizer.in(.ARM.extab)
    .extab._ZNK10QtMobility14QOrganizerItem6detailINS_21QOrganizerJournalTimeEEET_v 0x00032b90   Data           0  QtOrganizer.in(.ARM.extab)
    .extab._ZN10QtMobility14QOrganizerTodo16setStartDateTimeERK9QDateTime 0x00032ba0   Data           0  QtOrganizer.in(.ARM.extab)
    .extab._ZNK10QtMobility14QOrganizerTodo13startDateTimeEv 0x00032bb8   Data           0  QtOrganizer.in(.ARM.extab)
    .extab._ZN10QtMobility14QOrganizerTodo14setDueDateTimeERK9QDateTime 0x00032bc8   Data           0  QtOrganizer.in(.ARM.extab)
    .extab._ZNK10QtMobility14QOrganizerTodo11dueDateTimeEv 0x00032be0   Data           0  QtOrganizer.in(.ARM.extab)
    .extab._ZN10QtMobility14QOrganizerTodo9setAllDayEb 0x00032bf0   Data           0  QtOrganizer.in(.ARM.extab)
    .extab._ZNK10QtMobility14QOrganizerTodo8isAllDayEv 0x00032c08   Data           0  QtOrganizer.in(.ARM.extab)
    .extab._ZN10QtMobility14QOrganizerTodo18setRecurrenceDatesERK4QSetI5QDateE 0x00032c20   Data           0  QtOrganizer.in(.ARM.extab)
    .extab._ZNK10QtMobility14QOrganizerTodo15recurrenceDatesEv 0x00032c30   Data           0  QtOrganizer.in(.ARM.extab)
    .extab._ZN10QtMobility14QOrganizerTodo18setRecurrenceRulesERK4QSetINS_24QOrganizerRecurrenceRuleEE 0x00032c40   Data           0  QtOrganizer.in(.ARM.extab)
    .extab._ZN10QtMobility14QOrganizerTodo17setRecurrenceRuleERKNS_24QOrganizerRecurrenceRuleE 0x00032c50   Data           0  QtOrganizer.in(.ARM.extab)
    .extab._ZNK10QtMobility14QOrganizerTodo15recurrenceRulesEv 0x00032c60   Data           0  QtOrganizer.in(.ARM.extab)
    .extab._ZNK10QtMobility14QOrganizerTodo14recurrenceRuleEv 0x00032c70   Data           0  QtOrganizer.in(.ARM.extab)
    .extab._ZN10QtMobility14QOrganizerTodo17setExceptionDatesERK4QSetI5QDateE 0x00032c80   Data           0  QtOrganizer.in(.ARM.extab)
    .extab._ZNK10QtMobility14QOrganizerTodo14exceptionDatesEv 0x00032c90   Data           0  QtOrganizer.in(.ARM.extab)
    .extab._ZN10QtMobility14QOrganizerTodo17setExceptionRulesERK4QSetINS_24QOrganizerRecurrenceRuleEE 0x00032ca0   Data           0  QtOrganizer.in(.ARM.extab)
    .extab._ZN10QtMobility14QOrganizerTodo16setExceptionRuleERKNS_24QOrganizerRecurrenceRuleE 0x00032cb0   Data           0  QtOrganizer.in(.ARM.extab)
    .extab._ZNK10QtMobility14QOrganizerTodo14exceptionRulesEv 0x00032cc0   Data           0  QtOrganizer.in(.ARM.extab)
    .extab._ZNK10QtMobility14QOrganizerTodo13exceptionRuleEv 0x00032cd0   Data           0  QtOrganizer.in(.ARM.extab)
    .extab._ZN10QtMobility14QOrganizerTodo11setPriorityENS_22QOrganizerItemPriority8PriorityE 0x00032ce0   Data           0  QtOrganizer.in(.ARM.extab)
    .extab._ZNK10QtMobility14QOrganizerTodo8priorityEv 0x00032cf8   Data           0  QtOrganizer.in(.ARM.extab)
    .extab._ZN10QtMobility14QOrganizerTodo21setProgressPercentageEi 0x00032d08   Data           0  QtOrganizer.in(.ARM.extab)
    .extab._ZNK10QtMobility14QOrganizerTodo18progressPercentageEv 0x00032d20   Data           0  QtOrganizer.in(.ARM.extab)
    .extab._ZN10QtMobility14QOrganizerTodo9setStatusENS_22QOrganizerTodoProgress6StatusE 0x00032d30   Data           0  QtOrganizer.in(.ARM.extab)
    .extab._ZNK10QtMobility14QOrganizerTodo6statusEv 0x00032d48   Data           0  QtOrganizer.in(.ARM.extab)
    .extab._ZN10QtMobility14QOrganizerTodo19setFinishedDateTimeERK9QDateTime 0x00032d58   Data           0  QtOrganizer.in(.ARM.extab)
    .extab._ZNK10QtMobility14QOrganizerTodo16finishedDateTimeEv 0x00032d70   Data           0  QtOrganizer.in(.ARM.extab)
    .extab._ZNK10QtMobility20QOrganizerItemDetail5valueIiEET_PKc 0x00032d80   Data           0  QtOrganizer.in(.ARM.extab)
    .extab._ZNK10QtMobility14QOrganizerItem6detailINS_18QOrganizerTodoTimeEEET_v 0x00032d90   Data           0  QtOrganizer.in(.ARM.extab)
    .extab._ZNK10QtMobility14QOrganizerItem6detailINS_22QOrganizerTodoProgressEEET_v 0x00032da0   Data           0  QtOrganizer.in(.ARM.extab)
    .extab._ZN10QtMobility24QOrganizerTodoOccurrence16setStartDateTimeERK9QDateTime 0x00032db0   Data           0  QtOrganizer.in(.ARM.extab)
    .extab._ZNK10QtMobility24QOrganizerTodoOccurrence13startDateTimeEv 0x00032dc8   Data           0  QtOrganizer.in(.ARM.extab)
    .extab._ZN10QtMobility24QOrganizerTodoOccurrence14setDueDateTimeERK9QDateTime 0x00032dd8   Data           0  QtOrganizer.in(.ARM.extab)
    .extab._ZNK10QtMobility24QOrganizerTodoOccurrence11dueDateTimeEv 0x00032df0   Data           0  QtOrganizer.in(.ARM.extab)
    .extab._ZN10QtMobility24QOrganizerTodoOccurrence11setParentIdERKNS_16QOrganizerItemIdE 0x00032e00   Data           0  QtOrganizer.in(.ARM.extab)
    .extab._ZNK10QtMobility24QOrganizerTodoOccurrence8parentIdEv 0x00032e18   Data           0  QtOrganizer.in(.ARM.extab)
    .extab._ZN10QtMobility24QOrganizerTodoOccurrence15setOriginalDateERK5QDate 0x00032e28   Data           0  QtOrganizer.in(.ARM.extab)
    .extab._ZNK10QtMobility24QOrganizerTodoOccurrence12originalDateEv 0x00032e40   Data           0  QtOrganizer.in(.ARM.extab)
    .extab._ZN10QtMobility24QOrganizerTodoOccurrence11setPriorityENS_22QOrganizerItemPriority8PriorityE 0x00032e58   Data           0  QtOrganizer.in(.ARM.extab)
    .extab._ZNK10QtMobility24QOrganizerTodoOccurrence8priorityEv 0x00032e70   Data           0  QtOrganizer.in(.ARM.extab)
    .extab._ZN10QtMobility24QOrganizerTodoOccurrence21setProgressPercentageEi 0x00032e80   Data           0  QtOrganizer.in(.ARM.extab)
    .extab._ZNK10QtMobility24QOrganizerTodoOccurrence18progressPercentageEv 0x00032e98   Data           0  QtOrganizer.in(.ARM.extab)
    .extab._ZN10QtMobility24QOrganizerTodoOccurrence9setStatusENS_22QOrganizerTodoProgress6StatusE 0x00032ea8   Data           0  QtOrganizer.in(.ARM.extab)
    .extab._ZNK10QtMobility24QOrganizerTodoOccurrence6statusEv 0x00032ec0   Data           0  QtOrganizer.in(.ARM.extab)
    .extab._ZN10QtMobility24QOrganizerTodoOccurrence19setFinishedDateTimeERK9QDateTime 0x00032ed0   Data           0  QtOrganizer.in(.ARM.extab)
    .extab._ZNK10QtMobility24QOrganizerTodoOccurrence16finishedDateTimeEv 0x00032ee8   Data           0  QtOrganizer.in(.ARM.extab)
    .extab._ZN10QtMobility32QOrganizerCollectionFetchRequestC1EP7QObject 0x00032ef8   Data           0  QtOrganizer.in(.ARM.extab)
    .extab._ZNK10QtMobility32QOrganizerCollectionFetchRequest11collectionsEv 0x00032f08   Data           0  QtOrganizer.in(.ARM.extab)
    .extab._ZN10QtMobility39QOrganizerCollectionFetchRequestPrivateC1Ev 0x00032f18   Data           0  QtOrganizer.in(.ARM.extab)
    .extab._ZN10QtMobility39QOrganizerCollectionFetchRequestPrivateD1Ev 0x00032f30   Data           0  QtOrganizer.in(.ARM.extab)
    .extab._ZN10QtMobility33QOrganizerCollectionRemoveRequestC1EP7QObject 0x00032f40   Data           0  QtOrganizer.in(.ARM.extab)
    .extab._ZN10QtMobility33QOrganizerCollectionRemoveRequest15setCollectionIdERKNS_22QOrganizerCollectionIdE 0x00032f50   Data           0  QtOrganizer.in(.ARM.extab)
    .extab._ZN10QtMobility33QOrganizerCollectionRemoveRequest16setCollectionIdsERK5QListINS_22QOrganizerCollectionIdEE 0x00032f68   Data           0  QtOrganizer.in(.ARM.extab)
    .extab._ZNK10QtMobility33QOrganizerCollectionRemoveRequest13collectionIdsEv 0x00032f78   Data           0  QtOrganizer.in(.ARM.extab)
    .extab._ZNK10QtMobility33QOrganizerCollectionRemoveRequest8errorMapEv 0x00032f88   Data           0  QtOrganizer.in(.ARM.extab)
    .extab._ZN10QtMobility40QOrganizerCollectionRemoveRequestPrivateC1Ev 0x00032f98   Data           0  QtOrganizer.in(.ARM.extab)
    .extab._ZN10QtMobility31QOrganizerCollectionSaveRequestC1EP7QObject 0x00032fb8   Data           0  QtOrganizer.in(.ARM.extab)
    .extab._ZN10QtMobility31QOrganizerCollectionSaveRequest13setCollectionERKNS_20QOrganizerCollectionE 0x00032fc8   Data           0  QtOrganizer.in(.ARM.extab)
    .extab._ZN10QtMobility31QOrganizerCollectionSaveRequest14setCollectionsERK5QListINS_20QOrganizerCollectionEE 0x00032fe0   Data           0  QtOrganizer.in(.ARM.extab)
    .extab._ZNK10QtMobility31QOrganizerCollectionSaveRequest11collectionsEv 0x00032ff0   Data           0  QtOrganizer.in(.ARM.extab)
    .extab._ZNK10QtMobility31QOrganizerCollectionSaveRequest8errorMapEv 0x00033000   Data           0  QtOrganizer.in(.ARM.extab)
    .extab._ZN10QtMobility38QOrganizerCollectionSaveRequestPrivateC1Ev 0x00033010   Data           0  QtOrganizer.in(.ARM.extab)
    .extab._ZN10QtMobility42QOrganizerItemDetailDefinitionFetchRequestC1EP7QObject 0x00033030   Data           0  QtOrganizer.in(.ARM.extab)
    .extab._ZN10QtMobility42QOrganizerItemDetailDefinitionFetchRequest17setDefinitionNameERK7QString 0x00033040   Data           0  QtOrganizer.in(.ARM.extab)
    .extab._ZN10QtMobility42QOrganizerItemDetailDefinitionFetchRequest18setDefinitionNamesERK11QStringList 0x00033058   Data           0  QtOrganizer.in(.ARM.extab)
    .extab._ZNK10QtMobility42QOrganizerItemDetailDefinitionFetchRequest15definitionNamesEv 0x00033068   Data           0  QtOrganizer.in(.ARM.extab)
    .extab._ZN10QtMobility42QOrganizerItemDetailDefinitionFetchRequest11setItemTypeERK7QString 0x00033078   Data           0  QtOrganizer.in(.ARM.extab)
    .extab._ZNK10QtMobility42QOrganizerItemDetailDefinitionFetchRequest8itemTypeEv 0x00033088   Data           0  QtOrganizer.in(.ARM.extab)
    .extab._ZNK10QtMobility42QOrganizerItemDetailDefinitionFetchRequest11definitionsEv 0x00033098   Data           0  QtOrganizer.in(.ARM.extab)
    .extab._ZNK10QtMobility42QOrganizerItemDetailDefinitionFetchRequest8errorMapEv 0x000330a8   Data           0  QtOrganizer.in(.ARM.extab)
    .extab._ZN10QtMobility49QOrganizerItemDetailDefinitionFetchRequestPrivateC1Ev 0x000330b8   Data           0  QtOrganizer.in(.ARM.extab)
    .extab._ZN10QtMobility43QOrganizerItemDetailDefinitionRemoveRequestC1EP7QObject 0x00033100   Data           0  QtOrganizer.in(.ARM.extab)
    .extab._ZN10QtMobility43QOrganizerItemDetailDefinitionRemoveRequest17setDefinitionNameERK7QString 0x00033110   Data           0  QtOrganizer.in(.ARM.extab)
    .extab._ZN10QtMobility43QOrganizerItemDetailDefinitionRemoveRequest18setDefinitionNamesERK11QStringList 0x00033128   Data           0  QtOrganizer.in(.ARM.extab)
    .extab._ZNK10QtMobility43QOrganizerItemDetailDefinitionRemoveRequest15definitionNamesEv 0x00033138   Data           0  QtOrganizer.in(.ARM.extab)
    .extab._ZN10QtMobility43QOrganizerItemDetailDefinitionRemoveRequest11setItemTypeERK7QString 0x00033148   Data           0  QtOrganizer.in(.ARM.extab)
    .extab._ZNK10QtMobility43QOrganizerItemDetailDefinitionRemoveRequest8itemTypeEv 0x00033158   Data           0  QtOrganizer.in(.ARM.extab)
    .extab._ZNK10QtMobility43QOrganizerItemDetailDefinitionRemoveRequest8errorMapEv 0x00033168   Data           0  QtOrganizer.in(.ARM.extab)
    .extab._ZN10QtMobility50QOrganizerItemDetailDefinitionRemoveRequestPrivateC1Ev 0x00033178   Data           0  QtOrganizer.in(.ARM.extab)
    .extab._ZN10QtMobility41QOrganizerItemDetailDefinitionSaveRequestC1EP7QObject 0x000331b8   Data           0  QtOrganizer.in(.ARM.extab)
    .extab._ZN10QtMobility41QOrganizerItemDetailDefinitionSaveRequest13setDefinitionERKNS_30QOrganizerItemDetailDefinitionE 0x000331c8   Data           0  QtOrganizer.in(.ARM.extab)
    .extab._ZN10QtMobility41QOrganizerItemDetailDefinitionSaveRequest14setDefinitionsERK5QListINS_30QOrganizerItemDetailDefinitionEE 0x000331e0   Data           0  QtOrganizer.in(.ARM.extab)
    .extab._ZN10QtMobility41QOrganizerItemDetailDefinitionSaveRequest11setItemTypeERK7QString 0x000331f0   Data           0  QtOrganizer.in(.ARM.extab)
    .extab._ZNK10QtMobility41QOrganizerItemDetailDefinitionSaveRequest8itemTypeEv 0x00033200   Data           0  QtOrganizer.in(.ARM.extab)
    .extab._ZNK10QtMobility41QOrganizerItemDetailDefinitionSaveRequest11definitionsEv 0x00033210   Data           0  QtOrganizer.in(.ARM.extab)
    .extab._ZNK10QtMobility41QOrganizerItemDetailDefinitionSaveRequest8errorMapEv 0x00033220   Data           0  QtOrganizer.in(.ARM.extab)
    .extab._ZN10QtMobility48QOrganizerItemDetailDefinitionSaveRequestPrivateC1Ev 0x00033230   Data           0  QtOrganizer.in(.ARM.extab)
    .extab._ZN5QListIN10QtMobility30QOrganizerItemDetailDefinitionEE13detach_helperEv 0x00033270   Data           0  QtOrganizer.in(.ARM.extab)
    .extab._ZN10QtMobility26QOrganizerItemFetchRequestC1EP7QObject 0x0003328c   Data           0  QtOrganizer.in(.ARM.extab)
    .extab._ZN10QtMobility26QOrganizerItemFetchRequest9setFilterERKNS_20QOrganizerItemFilterE 0x0003329c   Data           0  QtOrganizer.in(.ARM.extab)
    .extab._ZN10QtMobility26QOrganizerItemFetchRequest10setSortingERK5QListINS_23QOrganizerItemSortOrderEE 0x000332ac   Data           0  QtOrganizer.in(.ARM.extab)
    .extab._ZN10QtMobility26QOrganizerItemFetchRequest12setFetchHintERKNS_23QOrganizerItemFetchHintE 0x000332bc   Data           0  QtOrganizer.in(.ARM.extab)
    .extab._ZN10QtMobility26QOrganizerItemFetchRequest12setStartDateERK9QDateTime 0x000332cc   Data           0  QtOrganizer.in(.ARM.extab)
    .extab._ZN10QtMobility26QOrganizerItemFetchRequest10setEndDateERK9QDateTime 0x000332dc   Data           0  QtOrganizer.in(.ARM.extab)
    .extab._ZNK10QtMobility26QOrganizerItemFetchRequest6filterEv 0x000332ec   Data           0  QtOrganizer.in(.ARM.extab)
    .extab._ZNK10QtMobility26QOrganizerItemFetchRequest7sortingEv 0x000332fc   Data           0  QtOrganizer.in(.ARM.extab)
    .extab._ZNK10QtMobility26QOrganizerItemFetchRequest9fetchHintEv 0x0003330c   Data           0  QtOrganizer.in(.ARM.extab)
    .extab._ZNK10QtMobility26QOrganizerItemFetchRequest9startDateEv 0x0003331c   Data           0  QtOrganizer.in(.ARM.extab)
    .extab._ZNK10QtMobility26QOrganizerItemFetchRequest7endDateEv 0x0003332c   Data           0  QtOrganizer.in(.ARM.extab)
    .extab._ZNK10QtMobility26QOrganizerItemFetchRequest5itemsEv 0x0003333c   Data           0  QtOrganizer.in(.ARM.extab)
    .extab._ZN10QtMobility33QOrganizerItemFetchRequestPrivateC1Ev 0x0003334c   Data           0  QtOrganizer.in(.ARM.extab)
    .extab._ZN10QtMobility35QOrganizerItemFetchForExportRequestC1EP7QObject 0x0003338c   Data           0  QtOrganizer.in(.ARM.extab)
    .extab._ZN10QtMobility35QOrganizerItemFetchForExportRequest9setFilterERKNS_20QOrganizerItemFilterE 0x0003339c   Data           0  QtOrganizer.in(.ARM.extab)
    .extab._ZN10QtMobility35QOrganizerItemFetchForExportRequest10setSortingERK5QListINS_23QOrganizerItemSortOrderEE 0x000333ac   Data           0  QtOrganizer.in(.ARM.extab)
    .extab._ZN10QtMobility35QOrganizerItemFetchForExportRequest12setFetchHintERKNS_23QOrganizerItemFetchHintE 0x000333bc   Data           0  QtOrganizer.in(.ARM.extab)
    .extab._ZN10QtMobility35QOrganizerItemFetchForExportRequest12setStartDateERK9QDateTime 0x000333cc   Data           0  QtOrganizer.in(.ARM.extab)
    .extab._ZN10QtMobility35QOrganizerItemFetchForExportRequest10setEndDateERK9QDateTime 0x000333dc   Data           0  QtOrganizer.in(.ARM.extab)
    .extab._ZNK10QtMobility35QOrganizerItemFetchForExportRequest6filterEv 0x000333ec   Data           0  QtOrganizer.in(.ARM.extab)
    .extab._ZNK10QtMobility35QOrganizerItemFetchForExportRequest7sortingEv 0x000333fc   Data           0  QtOrganizer.in(.ARM.extab)
    .extab._ZNK10QtMobility35QOrganizerItemFetchForExportRequest9fetchHintEv 0x0003340c   Data           0  QtOrganizer.in(.ARM.extab)
    .extab._ZNK10QtMobility35QOrganizerItemFetchForExportRequest9startDateEv 0x0003341c   Data           0  QtOrganizer.in(.ARM.extab)
    .extab._ZNK10QtMobility35QOrganizerItemFetchForExportRequest7endDateEv 0x0003342c   Data           0  QtOrganizer.in(.ARM.extab)
    .extab._ZNK10QtMobility35QOrganizerItemFetchForExportRequest5itemsEv 0x0003343c   Data           0  QtOrganizer.in(.ARM.extab)
    .extab._ZN10QtMobility42QOrganizerItemFetchForExportRequestPrivateC1Ev 0x0003344c   Data           0  QtOrganizer.in(.ARM.extab)
    .extab._ZN10QtMobility36QOrganizerItemOccurrenceFetchRequestC1EP7QObject 0x0003348c   Data           0  QtOrganizer.in(.ARM.extab)
    .extab._ZN10QtMobility36QOrganizerItemOccurrenceFetchRequest13setParentItemERKNS_14QOrganizerItemE 0x0003349c   Data           0  QtOrganizer.in(.ARM.extab)
    .extab._ZN10QtMobility36QOrganizerItemOccurrenceFetchRequest12setStartDateERK9QDateTime 0x000334ac   Data           0  QtOrganizer.in(.ARM.extab)
    .extab._ZN10QtMobility36QOrganizerItemOccurrenceFetchRequest10setEndDateERK9QDateTime 0x000334bc   Data           0  QtOrganizer.in(.ARM.extab)
    .extab._ZN10QtMobility36QOrganizerItemOccurrenceFetchRequest12setFetchHintERKNS_23QOrganizerItemFetchHintE 0x000334cc   Data           0  QtOrganizer.in(.ARM.extab)
    .extab._ZNK10QtMobility36QOrganizerItemOccurrenceFetchRequest10parentItemEv 0x000334dc   Data           0  QtOrganizer.in(.ARM.extab)
    .extab._ZNK10QtMobility36QOrganizerItemOccurrenceFetchRequest9startDateEv 0x000334ec   Data           0  QtOrganizer.in(.ARM.extab)
    .extab._ZNK10QtMobility36QOrganizerItemOccurrenceFetchRequest7endDateEv 0x000334fc   Data           0  QtOrganizer.in(.ARM.extab)
    .extab._ZNK10QtMobility36QOrganizerItemOccurrenceFetchRequest9fetchHintEv 0x0003350c   Data           0  QtOrganizer.in(.ARM.extab)
    .extab._ZNK10QtMobility36QOrganizerItemOccurrenceFetchRequest15itemOccurrencesEv 0x0003351c   Data           0  QtOrganizer.in(.ARM.extab)
    .extab._ZN10QtMobility43QOrganizerItemOccurrenceFetchRequestPrivateC1Ev 0x0003352c   Data           0  QtOrganizer.in(.ARM.extab)
    .extab._ZN10QtMobility28QOrganizerItemIdFetchRequestC1EP7QObject 0x00033564   Data           0  QtOrganizer.in(.ARM.extab)
    .extab._ZN10QtMobility28QOrganizerItemIdFetchRequest9setFilterERKNS_20QOrganizerItemFilterE 0x00033574   Data           0  QtOrganizer.in(.ARM.extab)
    .extab._ZN10QtMobility28QOrganizerItemIdFetchRequest10setSortingERK5QListINS_23QOrganizerItemSortOrderEE 0x00033584   Data           0  QtOrganizer.in(.ARM.extab)
    .extab._ZN10QtMobility28QOrganizerItemIdFetchRequest12setStartDateERK9QDateTime 0x00033594   Data           0  QtOrganizer.in(.ARM.extab)
    .extab._ZN10QtMobility28QOrganizerItemIdFetchRequest10setEndDateERK9QDateTime 0x000335a4   Data           0  QtOrganizer.in(.ARM.extab)
    .extab._ZNK10QtMobility28QOrganizerItemIdFetchRequest6filterEv 0x000335b4   Data           0  QtOrganizer.in(.ARM.extab)
    .extab._ZNK10QtMobility28QOrganizerItemIdFetchRequest7sortingEv 0x000335c4   Data           0  QtOrganizer.in(.ARM.extab)
    .extab._ZNK10QtMobility28QOrganizerItemIdFetchRequest9startDateEv 0x000335d4   Data           0  QtOrganizer.in(.ARM.extab)
    .extab._ZNK10QtMobility28QOrganizerItemIdFetchRequest7endDateEv 0x000335e4   Data           0  QtOrganizer.in(.ARM.extab)
    .extab._ZNK10QtMobility28QOrganizerItemIdFetchRequest7itemIdsEv 0x000335f4   Data           0  QtOrganizer.in(.ARM.extab)
    .extab._ZN10QtMobility35QOrganizerItemIdFetchRequestPrivateC1Ev 0x00033604   Data           0  QtOrganizer.in(.ARM.extab)
    .extab._ZN10QtMobility27QOrganizerItemRemoveRequestC1EP7QObject 0x0003363c   Data           0  QtOrganizer.in(.ARM.extab)
    .extab._ZN10QtMobility27QOrganizerItemRemoveRequest9setItemIdERKNS_16QOrganizerItemIdE 0x0003364c   Data           0  QtOrganizer.in(.ARM.extab)
    .extab._ZN10QtMobility27QOrganizerItemRemoveRequest10setItemIdsERK5QListINS_16QOrganizerItemIdEE 0x00033664   Data           0  QtOrganizer.in(.ARM.extab)
    .extab._ZNK10QtMobility27QOrganizerItemRemoveRequest7itemIdsEv 0x00033674   Data           0  QtOrganizer.in(.ARM.extab)
    .extab._ZNK10QtMobility27QOrganizerItemRemoveRequest8errorMapEv 0x00033684   Data           0  QtOrganizer.in(.ARM.extab)
    .extab._ZN10QtMobility34QOrganizerItemRemoveRequestPrivateC1Ev 0x00033694   Data           0  QtOrganizer.in(.ARM.extab)
    .extab._ZN10QtMobility25QOrganizerItemSaveRequestC1EP7QObject 0x000336b4   Data           0  QtOrganizer.in(.ARM.extab)
    .extab._ZN10QtMobility25QOrganizerItemSaveRequest7setItemERKNS_14QOrganizerItemE 0x000336c4   Data           0  QtOrganizer.in(.ARM.extab)
    .extab._ZN10QtMobility25QOrganizerItemSaveRequest8setItemsERK5QListINS_14QOrganizerItemEE 0x000336dc   Data           0  QtOrganizer.in(.ARM.extab)
    .extab._ZNK10QtMobility25QOrganizerItemSaveRequest5itemsEv 0x000336ec   Data           0  QtOrganizer.in(.ARM.extab)
    .extab._ZNK10QtMobility25QOrganizerItemSaveRequest8errorMapEv 0x000336fc   Data           0  QtOrganizer.in(.ARM.extab)
    .extab._ZN10QtMobility32QOrganizerItemSaveRequestPrivateC1Ev 0x0003370c   Data           0  QtOrganizer.in(.ARM.extab)
    .constdata$25                            0x0003372c   Data           0  QtOrganizer.in(.constdata)
    .constdata                               0x0003372c   Section        5  QtOrganizer.in(.constdata)
    .constdata$31                            0x00033731   Data           0  QtOrganizer.in(.constdata)
    .constdata                               0x00033731   Section       12  QtOrganizer.in(.constdata)
    .constdata$37                            0x0003373d   Data           0  QtOrganizer.in(.constdata)
    .constdata                               0x0003373d   Section        6  QtOrganizer.in(.constdata)
    .constdata$43                            0x00033743   Data           0  QtOrganizer.in(.constdata)
    .constdata                               0x00033743   Section        6  QtOrganizer.in(.constdata)
    .constdata$1                             0x0003374c   Data           0  QtOrganizer.in(.constdata)
    .constdata                               0x0003374c   Section      186  QtOrganizer.in(.constdata)
    QtMobility::qt_meta_stringdata_QOrganizerAbstractRequest 0x0003375c   Data         170  QtOrganizer.in(.constdata)
    .constdata$28                            0x00033808   Data           0  QtOrganizer.in(.constdata)
    QtMobility::qt_meta_data_QOrganizerAbstractRequest 0x00033808   Data         180  QtOrganizer.in(.constdata)
    .constdata                               0x00033808   Section      180  QtOrganizer.in(.constdata)
    .constdata$1                             0x000338bc   Data           0  QtOrganizer.in(.constdata)
    .constdata                               0x000338bc   Section      332  QtOrganizer.in(.constdata)
    QtMobility::qt_meta_stringdata_QOrganizerManager 0x000338cc   Data         316  QtOrganizer.in(.constdata)
    .constdata$28                            0x00033a08   Data           0  QtOrganizer.in(.constdata)
    QtMobility::qt_meta_data_QOrganizerManager 0x00033a08   Data         200  QtOrganizer.in(.constdata)
    .constdata                               0x00033a08   Section      200  QtOrganizer.in(.constdata)
    .constdata$1                             0x00033ad0   Data           0  QtOrganizer.in(.constdata)
    .constdata                               0x00033ad0   Section      338  QtOrganizer.in(.constdata)
    QtMobility::qt_meta_stringdata_QOrganizerManagerEngine 0x00033ae0   Data         322  QtOrganizer.in(.constdata)
    .constdata$28                            0x00033c24   Data           0  QtOrganizer.in(.constdata)
    QtMobility::qt_meta_data_QOrganizerManagerEngine 0x00033c24   Data         200  QtOrganizer.in(.constdata)
    .constdata                               0x00033c24   Section      200  QtOrganizer.in(.constdata)
    .constdata$1                             0x00033cec   Data           0  QtOrganizer.in(.constdata)
    .constdata                               0x00033cec   Section      183  QtOrganizer.in(.constdata)
    .constdata$25                            0x00033da3   Data           0  QtOrganizer.in(.constdata)
    .constdata                               0x00033da3   Section        5  QtOrganizer.in(.constdata)
    .constdata$31                            0x00033da8   Data           0  QtOrganizer.in(.constdata)
    .constdata                               0x00033da8   Section        5  QtOrganizer.in(.constdata)
    .constdata$37                            0x00033dad   Data           0  QtOrganizer.in(.constdata)
    .constdata                               0x00033dad   Section        6  QtOrganizer.in(.constdata)
    .constdata$43                            0x00033db3   Data           0  QtOrganizer.in(.constdata)
    .constdata                               0x00033db3   Section       16  QtOrganizer.in(.constdata)
    .constdata$49                            0x00033dc3   Data           0  QtOrganizer.in(.constdata)
    .constdata                               0x00033dc3   Section        5  QtOrganizer.in(.constdata)
    .constdata$55                            0x00033dc8   Data           0  QtOrganizer.in(.constdata)
    .constdata                               0x00033dc8   Section       15  QtOrganizer.in(.constdata)
    .constdata$61                            0x00033dd7   Data           0  QtOrganizer.in(.constdata)
    .constdata                               0x00033dd7   Section        8  QtOrganizer.in(.constdata)
    .constdata$67                            0x00033ddf   Data           0  QtOrganizer.in(.constdata)
    .constdata                               0x00033ddf   Section        5  QtOrganizer.in(.constdata)
    .constdata$73                            0x00033de4   Data           0  QtOrganizer.in(.constdata)
    .constdata                               0x00033de4   Section       12  QtOrganizer.in(.constdata)
    .constdata$79                            0x00033df0   Data           0  QtOrganizer.in(.constdata)
    .constdata                               0x00033df0   Section       12  QtOrganizer.in(.constdata)
    .constdata$85                            0x00033dfc   Data           0  QtOrganizer.in(.constdata)
    .constdata                               0x00033dfc   Section       10  QtOrganizer.in(.constdata)
    .constdata$91                            0x00033e06   Data           0  QtOrganizer.in(.constdata)
    .constdata                               0x00033e06   Section       14  QtOrganizer.in(.constdata)
    .constdata$97                            0x00033e14   Data           0  QtOrganizer.in(.constdata)
    .constdata                               0x00033e14   Section       12  QtOrganizer.in(.constdata)
    .constdata$103                           0x00033e20   Data           0  QtOrganizer.in(.constdata)
    .constdata                               0x00033e20   Section        7  QtOrganizer.in(.constdata)
    .constdata$109                           0x00033e27   Data           0  QtOrganizer.in(.constdata)
    .constdata                               0x00033e27   Section        5  QtOrganizer.in(.constdata)
    .constdata$115                           0x00033e2c   Data           0  QtOrganizer.in(.constdata)
    .constdata                               0x00033e2c   Section        5  QtOrganizer.in(.constdata)
    .constdata$121                           0x00033e31   Data           0  QtOrganizer.in(.constdata)
    .constdata                               0x00033e31   Section        9  QtOrganizer.in(.constdata)
    .constdata$127                           0x00033e3a   Data           0  QtOrganizer.in(.constdata)
    .constdata                               0x00033e3a   Section       10  QtOrganizer.in(.constdata)
    .constdata$133                           0x00033e44   Data           0  QtOrganizer.in(.constdata)
    .constdata                               0x00033e44   Section        7  QtOrganizer.in(.constdata)
    .constdata$139                           0x00033e4b   Data           0  QtOrganizer.in(.constdata)
    .constdata                               0x00033e4b   Section        9  QtOrganizer.in(.constdata)
    .constdata$145                           0x00033e54   Data           0  QtOrganizer.in(.constdata)
    .constdata                               0x00033e54   Section       13  QtOrganizer.in(.constdata)
    .constdata$151                           0x00033e61   Data           0  QtOrganizer.in(.constdata)
    .constdata                               0x00033e61   Section       11  QtOrganizer.in(.constdata)
    .constdata$157                           0x00033e6c   Data           0  QtOrganizer.in(.constdata)
    .constdata                               0x00033e6c   Section       10  QtOrganizer.in(.constdata)
    .constdata$163                           0x00033e76   Data           0  QtOrganizer.in(.constdata)
    .constdata                               0x00033e76   Section       22  QtOrganizer.in(.constdata)
    .constdata$169                           0x00033e8c   Data           0  QtOrganizer.in(.constdata)
    .constdata                               0x00033e8c   Section       18  QtOrganizer.in(.constdata)
    .constdata$175                           0x00033e9e   Data           0  QtOrganizer.in(.constdata)
    .constdata                               0x00033e9e   Section       12  QtOrganizer.in(.constdata)
    .constdata$181                           0x00033eaa   Data           0  QtOrganizer.in(.constdata)
    .constdata                               0x00033eaa   Section       14  QtOrganizer.in(.constdata)
    .constdata$187                           0x00033eb8   Data           0  QtOrganizer.in(.constdata)
    .constdata                               0x00033eb8   Section       13  QtOrganizer.in(.constdata)
    .constdata$193                           0x00033ec5   Data           0  QtOrganizer.in(.constdata)
    .constdata                               0x00033ec5   Section       17  QtOrganizer.in(.constdata)
    .constdata$199                           0x00033ed6   Data           0  QtOrganizer.in(.constdata)
    .constdata                               0x00033ed6   Section       19  QtOrganizer.in(.constdata)
    .constdata$205                           0x00033ee9   Data           0  QtOrganizer.in(.constdata)
    .constdata                               0x00033ee9   Section        7  QtOrganizer.in(.constdata)
    .constdata$211                           0x00033ef0   Data           0  QtOrganizer.in(.constdata)
    .constdata                               0x00033ef0   Section        9  QtOrganizer.in(.constdata)
    .constdata$217                           0x00033ef9   Data           0  QtOrganizer.in(.constdata)
    .constdata                               0x00033ef9   Section       14  QtOrganizer.in(.constdata)
    .constdata$223                           0x00033f07   Data           0  QtOrganizer.in(.constdata)
    .constdata                               0x00033f07   Section       12  QtOrganizer.in(.constdata)
    .constdata$229                           0x00033f13   Data           0  QtOrganizer.in(.constdata)
    .constdata                               0x00033f13   Section        7  QtOrganizer.in(.constdata)
    .constdata$235                           0x00033f1a   Data           0  QtOrganizer.in(.constdata)
    .constdata                               0x00033f1a   Section        9  QtOrganizer.in(.constdata)
    .constdata$241                           0x00033f23   Data           0  QtOrganizer.in(.constdata)
    .constdata                               0x00033f23   Section       19  QtOrganizer.in(.constdata)
    .constdata$247                           0x00033f36   Data           0  QtOrganizer.in(.constdata)
    .constdata                               0x00033f36   Section       16  QtOrganizer.in(.constdata)
    .constdata$253                           0x00033f46   Data           0  QtOrganizer.in(.constdata)
    .constdata                               0x00033f46   Section       16  QtOrganizer.in(.constdata)
    .constdata$259                           0x00033f56   Data           0  QtOrganizer.in(.constdata)
    .constdata                               0x00033f56   Section        8  QtOrganizer.in(.constdata)
    .constdata$265                           0x00033f5e   Data           0  QtOrganizer.in(.constdata)
    .constdata                               0x00033f5e   Section        8  QtOrganizer.in(.constdata)
    .constdata$271                           0x00033f66   Data           0  QtOrganizer.in(.constdata)
    .constdata                               0x00033f66   Section        5  QtOrganizer.in(.constdata)
    .constdata$277                           0x00033f6b   Data           0  QtOrganizer.in(.constdata)
    .constdata                               0x00033f6b   Section       12  QtOrganizer.in(.constdata)
    .constdata$283                           0x00033f77   Data           0  QtOrganizer.in(.constdata)
    .constdata                               0x00033f77   Section       11  QtOrganizer.in(.constdata)
    .constdata$289                           0x00033f82   Data           0  QtOrganizer.in(.constdata)
    .constdata                               0x00033f82   Section        8  QtOrganizer.in(.constdata)
    .constdata$295                           0x00033f8a   Data           0  QtOrganizer.in(.constdata)
    .constdata                               0x00033f8a   Section        8  QtOrganizer.in(.constdata)
    .constdata$1                             0x00033f94   Data           0  QtOrganizer.in(.constdata)
    .constdata                               0x00033f94   Section       44  QtOrganizer.in(.constdata)
    QtMobility::qt_meta_stringdata_QOrganizerItemMemoryEngine 0x00033fa4   Data          28  QtOrganizer.in(.constdata)
    .constdata$34                            0x00033fc0   Data           0  QtOrganizer.in(.constdata)
    QtMobility::qt_meta_data_QOrganizerItemMemoryEngine 0x00033fc0   Data          60  QtOrganizer.in(.constdata)
    .constdata                               0x00033fc0   Section       60  QtOrganizer.in(.constdata)
    .constdata$1                             0x00033ffc   Data           0  QtOrganizer.in(.constdata)
    .constdata                               0x00033ffc   Section       50  QtOrganizer.in(.constdata)
    QtMobility::qt_meta_stringdata_QOrganizerCollectionFetchRequest 0x0003400c   Data          34  QtOrganizer.in(.constdata)
    .constdata$28                            0x00034030   Data           0  QtOrganizer.in(.constdata)
    QtMobility::qt_meta_data_QOrganizerCollectionFetchRequest 0x00034030   Data          60  QtOrganizer.in(.constdata)
    .constdata                               0x00034030   Section       60  QtOrganizer.in(.constdata)
    .constdata$1                             0x0003406c   Data           0  QtOrganizer.in(.constdata)
    .constdata                               0x0003406c   Section       51  QtOrganizer.in(.constdata)
    QtMobility::qt_meta_stringdata_QOrganizerCollectionRemoveRequest 0x0003407c   Data          35  QtOrganizer.in(.constdata)
    .constdata$28                            0x000340a0   Data           0  QtOrganizer.in(.constdata)
    QtMobility::qt_meta_data_QOrganizerCollectionRemoveRequest 0x000340a0   Data          60  QtOrganizer.in(.constdata)
    .constdata                               0x000340a0   Section       60  QtOrganizer.in(.constdata)
    .constdata$1                             0x000340dc   Data           0  QtOrganizer.in(.constdata)
    .constdata                               0x000340dc   Section       49  QtOrganizer.in(.constdata)
    QtMobility::qt_meta_stringdata_QOrganizerCollectionSaveRequest 0x000340ec   Data          33  QtOrganizer.in(.constdata)
    .constdata$28                            0x00034110   Data           0  QtOrganizer.in(.constdata)
    QtMobility::qt_meta_data_QOrganizerCollectionSaveRequest 0x00034110   Data          60  QtOrganizer.in(.constdata)
    .constdata                               0x00034110   Section       60  QtOrganizer.in(.constdata)
    .constdata$1                             0x0003414c   Data           0  QtOrganizer.in(.constdata)
    .constdata                               0x0003414c   Section       60  QtOrganizer.in(.constdata)
    QtMobility::qt_meta_stringdata_QOrganizerItemDetailDefinitionFetchRequest 0x0003415c   Data          44  QtOrganizer.in(.constdata)
    .constdata$28                            0x00034188   Data           0  QtOrganizer.in(.constdata)
    QtMobility::qt_meta_data_QOrganizerItemDetailDefinitionFetchRequest 0x00034188   Data          60  QtOrganizer.in(.constdata)
    .constdata                               0x00034188   Section       60  QtOrganizer.in(.constdata)
    .constdata$1                             0x000341c4   Data           0  QtOrganizer.in(.constdata)
    .constdata                               0x000341c4   Section       61  QtOrganizer.in(.constdata)
    QtMobility::qt_meta_stringdata_QOrganizerItemDetailDefinitionRemoveRequest 0x000341d4   Data          45  QtOrganizer.in(.constdata)
    .constdata$28                            0x00034204   Data           0  QtOrganizer.in(.constdata)
    QtMobility::qt_meta_data_QOrganizerItemDetailDefinitionRemoveRequest 0x00034204   Data          60  QtOrganizer.in(.constdata)
    .constdata                               0x00034204   Section       60  QtOrganizer.in(.constdata)
    .constdata$1                             0x00034240   Data           0  QtOrganizer.in(.constdata)
    .constdata                               0x00034240   Section       59  QtOrganizer.in(.constdata)
    QtMobility::qt_meta_stringdata_QOrganizerItemDetailDefinitionSaveRequest 0x00034250   Data          43  QtOrganizer.in(.constdata)
    .constdata$28                            0x0003427c   Data           0  QtOrganizer.in(.constdata)
    QtMobility::qt_meta_data_QOrganizerItemDetailDefinitionSaveRequest 0x0003427c   Data          60  QtOrganizer.in(.constdata)
    .constdata                               0x0003427c   Section       60  QtOrganizer.in(.constdata)
    .constdata$1                             0x000342b8   Data           0  QtOrganizer.in(.constdata)
    .constdata                               0x000342b8   Section       44  QtOrganizer.in(.constdata)
    QtMobility::qt_meta_stringdata_QOrganizerItemFetchRequest 0x000342c8   Data          28  QtOrganizer.in(.constdata)
    .constdata$28                            0x000342e4   Data           0  QtOrganizer.in(.constdata)
    QtMobility::qt_meta_data_QOrganizerItemFetchRequest 0x000342e4   Data          60  QtOrganizer.in(.constdata)
    .constdata                               0x000342e4   Section       60  QtOrganizer.in(.constdata)
    .constdata$1                             0x00034320   Data           0  QtOrganizer.in(.constdata)
    .constdata                               0x00034320   Section       53  QtOrganizer.in(.constdata)
    QtMobility::qt_meta_stringdata_QOrganizerItemFetchForExportRequest 0x00034330   Data          37  QtOrganizer.in(.constdata)
    .constdata$28                            0x00034358   Data           0  QtOrganizer.in(.constdata)
    QtMobility::qt_meta_data_QOrganizerItemFetchForExportRequest 0x00034358   Data          60  QtOrganizer.in(.constdata)
    .constdata                               0x00034358   Section       60  QtOrganizer.in(.constdata)
    .constdata$1                             0x00034394   Data           0  QtOrganizer.in(.constdata)
    .constdata                               0x00034394   Section       54  QtOrganizer.in(.constdata)
    QtMobility::qt_meta_stringdata_QOrganizerItemOccurrenceFetchRequest 0x000343a4   Data          38  QtOrganizer.in(.constdata)
    .constdata$28                            0x000343cc   Data           0  QtOrganizer.in(.constdata)
    QtMobility::qt_meta_data_QOrganizerItemOccurrenceFetchRequest 0x000343cc   Data          60  QtOrganizer.in(.constdata)
    .constdata                               0x000343cc   Section       60  QtOrganizer.in(.constdata)
    .constdata$1                             0x00034408   Data           0  QtOrganizer.in(.constdata)
    .constdata                               0x00034408   Section       46  QtOrganizer.in(.constdata)
    QtMobility::qt_meta_stringdata_QOrganizerItemIdFetchRequest 0x00034418   Data          30  QtOrganizer.in(.constdata)
    .constdata$28                            0x00034438   Data           0  QtOrganizer.in(.constdata)
    QtMobility::qt_meta_data_QOrganizerItemIdFetchRequest 0x00034438   Data          60  QtOrganizer.in(.constdata)
    .constdata                               0x00034438   Section       60  QtOrganizer.in(.constdata)
    .constdata$1                             0x00034474   Data           0  QtOrganizer.in(.constdata)
    .constdata                               0x00034474   Section       45  QtOrganizer.in(.constdata)
    QtMobility::qt_meta_stringdata_QOrganizerItemRemoveRequest 0x00034484   Data          29  QtOrganizer.in(.constdata)
    .constdata$28                            0x000344a4   Data           0  QtOrganizer.in(.constdata)
    QtMobility::qt_meta_data_QOrganizerItemRemoveRequest 0x000344a4   Data          60  QtOrganizer.in(.constdata)
    .constdata                               0x000344a4   Section       60  QtOrganizer.in(.constdata)
    .constdata$1                             0x000344e0   Data           0  QtOrganizer.in(.constdata)
    .constdata                               0x000344e0   Section       43  QtOrganizer.in(.constdata)
    QtMobility::qt_meta_stringdata_QOrganizerItemSaveRequest 0x000344f0   Data          27  QtOrganizer.in(.constdata)
    .constdata$28                            0x0003450c   Data           0  QtOrganizer.in(.constdata)
    QtMobility::qt_meta_data_QOrganizerItemSaveRequest 0x0003450c   Data          60  QtOrganizer.in(.constdata)
    .constdata                               0x0003450c   Section       60  QtOrganizer.in(.constdata)
    .constdata__ZTI11QSharedData             0x00034548   Section        8  QtOrganizer.in(.constdata__ZTI11QSharedData)
    .constdata__ZTIN10QtMobility17QOrganizerManagerE 0x00034550   Section       12  QtOrganizer.in(.constdata__ZTIN10QtMobility17QOrganizerManagerE)
    .constdata__ZTIN10QtMobility22QOrganizerItemEngineIdE 0x0003455c   Section       24  QtOrganizer.in(.constdata__ZTIN10QtMobility22QOrganizerItemEngineIdE)
    .constdata__ZTIN10QtMobility23QOrganizerManagerEngineE 0x00034574   Section       12  QtOrganizer.in(.constdata__ZTIN10QtMobility23QOrganizerManagerEngineE)
    .constdata__ZTIN10QtMobility25QOrganizerAbstractRequestE 0x00034580   Section       12  QtOrganizer.in(.constdata__ZTIN10QtMobility25QOrganizerAbstractRequestE)
    .constdata__ZTIN10QtMobility25QOrganizerItemSaveRequestE 0x0003458c   Section       12  QtOrganizer.in(.constdata__ZTIN10QtMobility25QOrganizerItemSaveRequestE)
    .constdata__ZTIN10QtMobility26QOrganizerItemFetchRequestE 0x00034598   Section       12  QtOrganizer.in(.constdata__ZTIN10QtMobility26QOrganizerItemFetchRequestE)
    .constdata__ZTIN10QtMobility26QOrganizerItemMemoryEngineE 0x000345a4   Section       12  QtOrganizer.in(.constdata__ZTIN10QtMobility26QOrganizerItemMemoryEngineE)
    .constdata__ZTIN10QtMobility27QOrganizerItemFilterPrivateE 0x000345b0   Section       24  QtOrganizer.in(.constdata__ZTIN10QtMobility27QOrganizerItemFilterPrivateE)
    .constdata__ZTIN10QtMobility27QOrganizerItemInvalidEngineE 0x000345c8   Section       12  QtOrganizer.in(.constdata__ZTIN10QtMobility27QOrganizerItemInvalidEngineE)
    .constdata__ZTIN10QtMobility27QOrganizerItemRemoveRequestE 0x000345d4   Section       12  QtOrganizer.in(.constdata__ZTIN10QtMobility27QOrganizerItemRemoveRequestE)
    .constdata__ZTIN10QtMobility28QOrganizerCollectionEngineIdE 0x000345e0   Section       24  QtOrganizer.in(.constdata__ZTIN10QtMobility28QOrganizerCollectionEngineIdE)
    .constdata__ZTIN10QtMobility28QOrganizerItemIdFetchRequestE 0x000345f8   Section       12  QtOrganizer.in(.constdata__ZTIN10QtMobility28QOrganizerItemIdFetchRequestE)
    .constdata__ZTIN10QtMobility28QOrganizerItemMemoryEngineIdE 0x00034604   Section       12  QtOrganizer.in(.constdata__ZTIN10QtMobility28QOrganizerItemMemoryEngineIdE)
    .constdata__ZTIN10QtMobility29QOrganizerItemIdFilterPrivateE 0x00034610   Section       12  QtOrganizer.in(.constdata__ZTIN10QtMobility29QOrganizerItemIdFilterPrivateE)
    .constdata__ZTIN10QtMobility30QOrganizerManagerEngineFactoryE 0x0003461c   Section        8  QtOrganizer.in(.constdata__ZTIN10QtMobility30QOrganizerManagerEngineFactoryE)
    .constdata__ZTIN10QtMobility31QOrganizerCollectionSaveRequestE 0x00034624   Section       12  QtOrganizer.in(.constdata__ZTIN10QtMobility31QOrganizerCollectionSaveRequestE)
    .constdata__ZTIN10QtMobility32QOrganizerAbstractRequestPrivateE 0x00034630   Section        8  QtOrganizer.in(.constdata__ZTIN10QtMobility32QOrganizerAbstractRequestPrivateE)
    .constdata__ZTIN10QtMobility32QOrganizerCollectionFetchRequestE 0x00034638   Section       12  QtOrganizer.in(.constdata__ZTIN10QtMobility32QOrganizerCollectionFetchRequestE)
    .constdata__ZTIN10QtMobility32QOrganizerItemSaveRequestPrivateE 0x00034644   Section       12  QtOrganizer.in(.constdata__ZTIN10QtMobility32QOrganizerItemSaveRequestPrivateE)
    .constdata__ZTIN10QtMobility32QOrganizerItemUnionFilterPrivateE 0x00034650   Section       12  QtOrganizer.in(.constdata__ZTIN10QtMobility32QOrganizerItemUnionFilterPrivateE)
    .constdata__ZTIN10QtMobility33QOrganizerCollectionRemoveRequestE 0x0003465c   Section       12  QtOrganizer.in(.constdata__ZTIN10QtMobility33QOrganizerCollectionRemoveRequestE)
    .constdata__ZTIN10QtMobility33QOrganizerItemDetailFilterPrivateE 0x00034668   Section       12  QtOrganizer.in(.constdata__ZTIN10QtMobility33QOrganizerItemDetailFilterPrivateE)
    .constdata__ZTIN10QtMobility33QOrganizerItemFetchRequestPrivateE 0x00034674   Section       12  QtOrganizer.in(.constdata__ZTIN10QtMobility33QOrganizerItemFetchRequestPrivateE)
    .constdata__ZTIN10QtMobility34QOrganizerCollectionMemoryEngineIdE 0x00034680   Section       12  QtOrganizer.in(.constdata__ZTIN10QtMobility34QOrganizerCollectionMemoryEngineIdE)
    .constdata__ZTIN10QtMobility34QOrganizerItemInvalidFilterPrivateE 0x0003468c   Section       12  QtOrganizer.in(.constdata__ZTIN10QtMobility34QOrganizerItemInvalidFilterPrivateE)
    .constdata__ZTIN10QtMobility34QOrganizerItemRemoveRequestPrivateE 0x00034698   Section       12  QtOrganizer.in(.constdata__ZTIN10QtMobility34QOrganizerItemRemoveRequestPrivateE)
    .constdata__ZTIN10QtMobility35QOrganizerItemFetchForExportRequestE 0x000346a4   Section       12  QtOrganizer.in(.constdata__ZTIN10QtMobility35QOrganizerItemFetchForExportRequestE)
    .constdata__ZTIN10QtMobility35QOrganizerItemIdFetchRequestPrivateE 0x000346b0   Section       12  QtOrganizer.in(.constdata__ZTIN10QtMobility35QOrganizerItemIdFetchRequestPrivateE)
    .constdata__ZTIN10QtMobility36QOrganizerItemChangeLogFilterPrivateE 0x000346bc   Section       12  QtOrganizer.in(.constdata__ZTIN10QtMobility36QOrganizerItemChangeLogFilterPrivateE)
    .constdata__ZTIN10QtMobility36QOrganizerItemOccurrenceFetchRequestE 0x000346c8   Section       12  QtOrganizer.in(.constdata__ZTIN10QtMobility36QOrganizerItemOccurrenceFetchRequestE)
    .constdata__ZTIN10QtMobility37QOrganizerItemCollectionFilterPrivateE 0x000346d4   Section       12  QtOrganizer.in(.constdata__ZTIN10QtMobility37QOrganizerItemCollectionFilterPrivateE)
    .constdata__ZTIN10QtMobility38QOrganizerCollectionSaveRequestPrivateE 0x000346e0   Section       12  QtOrganizer.in(.constdata__ZTIN10QtMobility38QOrganizerCollectionSaveRequestPrivateE)
    .constdata__ZTIN10QtMobility38QOrganizerItemDetailRangeFilterPrivateE 0x000346ec   Section       12  QtOrganizer.in(.constdata__ZTIN10QtMobility38QOrganizerItemDetailRangeFilterPrivateE)
    .constdata__ZTIN10QtMobility39QOrganizerCollectionFetchRequestPrivateE 0x000346f8   Section       12  QtOrganizer.in(.constdata__ZTIN10QtMobility39QOrganizerCollectionFetchRequestPrivateE)
    .constdata__ZTIN10QtMobility39QOrganizerItemIntersectionFilterPrivateE 0x00034704   Section       12  QtOrganizer.in(.constdata__ZTIN10QtMobility39QOrganizerItemIntersectionFilterPrivateE)
    .constdata__ZTIN10QtMobility40QOrganizerCollectionRemoveRequestPrivateE 0x00034710   Section       12  QtOrganizer.in(.constdata__ZTIN10QtMobility40QOrganizerCollectionRemoveRequestPrivateE)
    .constdata__ZTIN10QtMobility41QOrganizerItemDetailDefinitionSaveRequestE 0x0003471c   Section       12  QtOrganizer.in(.constdata__ZTIN10QtMobility41QOrganizerItemDetailDefinitionSaveRequestE)
    .constdata__ZTIN10QtMobility42QOrganizerItemDetailDefinitionFetchRequestE 0x00034728   Section       12  QtOrganizer.in(.constdata__ZTIN10QtMobility42QOrganizerItemDetailDefinitionFetchRequestE)
    .constdata__ZTIN10QtMobility42QOrganizerItemFetchForExportRequestPrivateE 0x00034734   Section       12  QtOrganizer.in(.constdata__ZTIN10QtMobility42QOrganizerItemFetchForExportRequestPrivateE)
    .constdata__ZTIN10QtMobility43QOrganizerItemDetailDefinitionRemoveRequestE 0x00034740   Section       12  QtOrganizer.in(.constdata__ZTIN10QtMobility43QOrganizerItemDetailDefinitionRemoveRequestE)
    .constdata__ZTIN10QtMobility43QOrganizerItemOccurrenceFetchRequestPrivateE 0x0003474c   Section       12  QtOrganizer.in(.constdata__ZTIN10QtMobility43QOrganizerItemOccurrenceFetchRequestPrivateE)
    .constdata__ZTIN10QtMobility48QOrganizerItemDetailDefinitionSaveRequestPrivateE 0x00034758   Section       12  QtOrganizer.in(.constdata__ZTIN10QtMobility48QOrganizerItemDetailDefinitionSaveRequestPrivateE)
    .constdata__ZTIN10QtMobility49QOrganizerItemDetailDefinitionFetchRequestPrivateE 0x00034764   Section       12  QtOrganizer.in(.constdata__ZTIN10QtMobility49QOrganizerItemDetailDefinitionFetchRequestPrivateE)
    .constdata__ZTIN10QtMobility50QOrganizerItemDetailDefinitionRemoveRequestPrivateE 0x00034770   Section       12  QtOrganizer.in(.constdata__ZTIN10QtMobility50QOrganizerItemDetailDefinitionRemoveRequestPrivateE)
    .constdata__ZTISt9bad_alloc              0x0003477c   Section       12  QtOrganizer.in(.constdata__ZTISt9bad_alloc)
    .constdata__ZTS11QSharedData             0x00034788   Section       14  QtOrganizer.in(.constdata__ZTS11QSharedData)
    .constdata__ZTSN10QtMobility17QOrganizerManagerE 0x00034796   Section       34  QtOrganizer.in(.constdata__ZTSN10QtMobility17QOrganizerManagerE)
    .constdata__ZTSN10QtMobility22QOrganizerItemEngineIdE 0x000347b8   Section       39  QtOrganizer.in(.constdata__ZTSN10QtMobility22QOrganizerItemEngineIdE)
    .constdata__ZTSN10QtMobility23QOrganizerManagerEngineE 0x000347df   Section       40  QtOrganizer.in(.constdata__ZTSN10QtMobility23QOrganizerManagerEngineE)
    .constdata__ZTSN10QtMobility25QOrganizerAbstractRequestE 0x00034807   Section       42  QtOrganizer.in(.constdata__ZTSN10QtMobility25QOrganizerAbstractRequestE)
    .constdata__ZTSN10QtMobility25QOrganizerItemSaveRequestE 0x00034831   Section       42  QtOrganizer.in(.constdata__ZTSN10QtMobility25QOrganizerItemSaveRequestE)
    .constdata__ZTSN10QtMobility26QOrganizerItemFetchRequestE 0x0003485b   Section       43  QtOrganizer.in(.constdata__ZTSN10QtMobility26QOrganizerItemFetchRequestE)
    .constdata__ZTSN10QtMobility26QOrganizerItemMemoryEngineE 0x00034886   Section       43  QtOrganizer.in(.constdata__ZTSN10QtMobility26QOrganizerItemMemoryEngineE)
    .constdata__ZTSN10QtMobility27QOrganizerItemFilterPrivateE 0x000348b1   Section       44  QtOrganizer.in(.constdata__ZTSN10QtMobility27QOrganizerItemFilterPrivateE)
    .constdata__ZTSN10QtMobility27QOrganizerItemInvalidEngineE 0x000348dd   Section       44  QtOrganizer.in(.constdata__ZTSN10QtMobility27QOrganizerItemInvalidEngineE)
    .constdata__ZTSN10QtMobility27QOrganizerItemRemoveRequestE 0x00034909   Section       44  QtOrganizer.in(.constdata__ZTSN10QtMobility27QOrganizerItemRemoveRequestE)
    .constdata__ZTSN10QtMobility28QOrganizerCollectionEngineIdE 0x00034935   Section       45  QtOrganizer.in(.constdata__ZTSN10QtMobility28QOrganizerCollectionEngineIdE)
    .constdata__ZTSN10QtMobility28QOrganizerItemIdFetchRequestE 0x00034962   Section       45  QtOrganizer.in(.constdata__ZTSN10QtMobility28QOrganizerItemIdFetchRequestE)
    .constdata__ZTSN10QtMobility28QOrganizerItemMemoryEngineIdE 0x0003498f   Section       45  QtOrganizer.in(.constdata__ZTSN10QtMobility28QOrganizerItemMemoryEngineIdE)
    .constdata__ZTSN10QtMobility29QOrganizerItemIdFilterPrivateE 0x000349bc   Section       46  QtOrganizer.in(.constdata__ZTSN10QtMobility29QOrganizerItemIdFilterPrivateE)
    .constdata__ZTSN10QtMobility30QOrganizerManagerEngineFactoryE 0x000349ea   Section       47  QtOrganizer.in(.constdata__ZTSN10QtMobility30QOrganizerManagerEngineFactoryE)
    .constdata__ZTSN10QtMobility31QOrganizerCollectionSaveRequestE 0x00034a19   Section       48  QtOrganizer.in(.constdata__ZTSN10QtMobility31QOrganizerCollectionSaveRequestE)
    .constdata__ZTSN10QtMobility32QOrganizerAbstractRequestPrivateE 0x00034a49   Section       49  QtOrganizer.in(.constdata__ZTSN10QtMobility32QOrganizerAbstractRequestPrivateE)
    .constdata__ZTSN10QtMobility32QOrganizerCollectionFetchRequestE 0x00034a7a   Section       49  QtOrganizer.in(.constdata__ZTSN10QtMobility32QOrganizerCollectionFetchRequestE)
    .constdata__ZTSN10QtMobility32QOrganizerItemSaveRequestPrivateE 0x00034aab   Section       49  QtOrganizer.in(.constdata__ZTSN10QtMobility32QOrganizerItemSaveRequestPrivateE)
    .constdata__ZTSN10QtMobility32QOrganizerItemUnionFilterPrivateE 0x00034adc   Section       49  QtOrganizer.in(.constdata__ZTSN10QtMobility32QOrganizerItemUnionFilterPrivateE)
    .constdata__ZTSN10QtMobility33QOrganizerCollectionRemoveRequestE 0x00034b0d   Section       50  QtOrganizer.in(.constdata__ZTSN10QtMobility33QOrganizerCollectionRemoveRequestE)
    .constdata__ZTSN10QtMobility33QOrganizerItemDetailFilterPrivateE 0x00034b3f   Section       50  QtOrganizer.in(.constdata__ZTSN10QtMobility33QOrganizerItemDetailFilterPrivateE)
    .constdata__ZTSN10QtMobility33QOrganizerItemFetchRequestPrivateE 0x00034b71   Section       50  QtOrganizer.in(.constdata__ZTSN10QtMobility33QOrganizerItemFetchRequestPrivateE)
    .constdata__ZTSN10QtMobility34QOrganizerCollectionMemoryEngineIdE 0x00034ba3   Section       51  QtOrganizer.in(.constdata__ZTSN10QtMobility34QOrganizerCollectionMemoryEngineIdE)
    .constdata__ZTSN10QtMobility34QOrganizerItemInvalidFilterPrivateE 0x00034bd6   Section       51  QtOrganizer.in(.constdata__ZTSN10QtMobility34QOrganizerItemInvalidFilterPrivateE)
    .constdata__ZTSN10QtMobility34QOrganizerItemRemoveRequestPrivateE 0x00034c09   Section       51  QtOrganizer.in(.constdata__ZTSN10QtMobility34QOrganizerItemRemoveRequestPrivateE)
    .constdata__ZTSN10QtMobility35QOrganizerItemFetchForExportRequestE 0x00034c3c   Section       52  QtOrganizer.in(.constdata__ZTSN10QtMobility35QOrganizerItemFetchForExportRequestE)
    .constdata__ZTSN10QtMobility35QOrganizerItemIdFetchRequestPrivateE 0x00034c70   Section       52  QtOrganizer.in(.constdata__ZTSN10QtMobility35QOrganizerItemIdFetchRequestPrivateE)
    .constdata__ZTSN10QtMobility36QOrganizerItemChangeLogFilterPrivateE 0x00034ca4   Section       53  QtOrganizer.in(.constdata__ZTSN10QtMobility36QOrganizerItemChangeLogFilterPrivateE)
    .constdata__ZTSN10QtMobility36QOrganizerItemOccurrenceFetchRequestE 0x00034cd9   Section       53  QtOrganizer.in(.constdata__ZTSN10QtMobility36QOrganizerItemOccurrenceFetchRequestE)
    .constdata__ZTSN10QtMobility37QOrganizerItemCollectionFilterPrivateE 0x00034d0e   Section       54  QtOrganizer.in(.constdata__ZTSN10QtMobility37QOrganizerItemCollectionFilterPrivateE)
    .constdata__ZTSN10QtMobility38QOrganizerCollectionSaveRequestPrivateE 0x00034d44   Section       55  QtOrganizer.in(.constdata__ZTSN10QtMobility38QOrganizerCollectionSaveRequestPrivateE)
    .constdata__ZTSN10QtMobility38QOrganizerItemDetailRangeFilterPrivateE 0x00034d7b   Section       55  QtOrganizer.in(.constdata__ZTSN10QtMobility38QOrganizerItemDetailRangeFilterPrivateE)
    .constdata__ZTSN10QtMobility39QOrganizerCollectionFetchRequestPrivateE 0x00034db2   Section       56  QtOrganizer.in(.constdata__ZTSN10QtMobility39QOrganizerCollectionFetchRequestPrivateE)
    .constdata__ZTSN10QtMobility39QOrganizerItemIntersectionFilterPrivateE 0x00034dea   Section       56  QtOrganizer.in(.constdata__ZTSN10QtMobility39QOrganizerItemIntersectionFilterPrivateE)
    .constdata__ZTSN10QtMobility40QOrganizerCollectionRemoveRequestPrivateE 0x00034e22   Section       57  QtOrganizer.in(.constdata__ZTSN10QtMobility40QOrganizerCollectionRemoveRequestPrivateE)
    .constdata__ZTSN10QtMobility41QOrganizerItemDetailDefinitionSaveRequestE 0x00034e5b   Section       58  QtOrganizer.in(.constdata__ZTSN10QtMobility41QOrganizerItemDetailDefinitionSaveRequestE)
    .constdata__ZTSN10QtMobility42QOrganizerItemDetailDefinitionFetchRequestE 0x00034e95   Section       59  QtOrganizer.in(.constdata__ZTSN10QtMobility42QOrganizerItemDetailDefinitionFetchRequestE)
    .constdata__ZTSN10QtMobility42QOrganizerItemFetchForExportRequestPrivateE 0x00034ed0   Section       59  QtOrganizer.in(.constdata__ZTSN10QtMobility42QOrganizerItemFetchForExportRequestPrivateE)
    .constdata__ZTSN10QtMobility43QOrganizerItemDetailDefinitionRemoveRequestE 0x00034f0b   Section       60  QtOrganizer.in(.constdata__ZTSN10QtMobility43QOrganizerItemDetailDefinitionRemoveRequestE)
    .constdata__ZTSN10QtMobility43QOrganizerItemOccurrenceFetchRequestPrivateE 0x00034f47   Section       60  QtOrganizer.in(.constdata__ZTSN10QtMobility43QOrganizerItemOccurrenceFetchRequestPrivateE)
    .constdata__ZTSN10QtMobility48QOrganizerItemDetailDefinitionSaveRequestPrivateE 0x00034f83   Section       65  QtOrganizer.in(.constdata__ZTSN10QtMobility48QOrganizerItemDetailDefinitionSaveRequestPrivateE)
    .constdata__ZTSN10QtMobility49QOrganizerItemDetailDefinitionFetchRequestPrivateE 0x00034fc4   Section       66  QtOrganizer.in(.constdata__ZTSN10QtMobility49QOrganizerItemDetailDefinitionFetchRequestPrivateE)
    .constdata__ZTSN10QtMobility50QOrganizerItemDetailDefinitionRemoveRequestPrivateE 0x00035006   Section       67  QtOrganizer.in(.constdata__ZTSN10QtMobility50QOrganizerItemDetailDefinitionRemoveRequestPrivateE)
    .constdata__ZTSSt9bad_alloc              0x00035049   Section       13  QtOrganizer.in(.constdata__ZTSSt9bad_alloc)
    .constdata__ZTVN10QtMobility17QOrganizerManagerE 0x00035058   Section       56  QtOrganizer.in(.constdata__ZTVN10QtMobility17QOrganizerManagerE)
    .constdata__ZTVN10QtMobility22QOrganizerItemEngineIdE 0x00035090   Section       44  QtOrganizer.in(.constdata__ZTVN10QtMobility22QOrganizerItemEngineIdE)
    .constdata__ZTVN10QtMobility23QOrganizerManagerEngineE 0x000350bc   Section      188  QtOrganizer.in(.constdata__ZTVN10QtMobility23QOrganizerManagerEngineE)
    .constdata__ZTVN10QtMobility25QOrganizerAbstractRequestE 0x00035178   Section       56  QtOrganizer.in(.constdata__ZTVN10QtMobility25QOrganizerAbstractRequestE)
    .constdata__ZTVN10QtMobility25QOrganizerItemSaveRequestE 0x000351b0   Section       56  QtOrganizer.in(.constdata__ZTVN10QtMobility25QOrganizerItemSaveRequestE)
    .constdata__ZTVN10QtMobility26QOrganizerItemFetchRequestE 0x000351e8   Section       56  QtOrganizer.in(.constdata__ZTVN10QtMobility26QOrganizerItemFetchRequestE)
    .constdata__ZTVN10QtMobility26QOrganizerItemMemoryEngineE 0x00035220   Section      204  QtOrganizer.in(.constdata__ZTVN10QtMobility26QOrganizerItemMemoryEngineE)
    .constdata__ZTVN10QtMobility27QOrganizerItemInvalidEngineE 0x000352ec   Section      192  QtOrganizer.in(.constdata__ZTVN10QtMobility27QOrganizerItemInvalidEngineE)
    .constdata__ZTVN10QtMobility27QOrganizerItemRemoveRequestE 0x000353ac   Section       56  QtOrganizer.in(.constdata__ZTVN10QtMobility27QOrganizerItemRemoveRequestE)
    .constdata__ZTVN10QtMobility28QOrganizerCollectionEngineIdE 0x000353e4   Section       44  QtOrganizer.in(.constdata__ZTVN10QtMobility28QOrganizerCollectionEngineIdE)
    .constdata__ZTVN10QtMobility28QOrganizerItemIdFetchRequestE 0x00035410   Section       56  QtOrganizer.in(.constdata__ZTVN10QtMobility28QOrganizerItemIdFetchRequestE)
    .constdata__ZTVN10QtMobility28QOrganizerItemMemoryEngineIdE 0x00035448   Section       44  QtOrganizer.in(.constdata__ZTVN10QtMobility28QOrganizerItemMemoryEngineIdE)
    .constdata__ZTVN10QtMobility29QOrganizerItemIdFilterPrivateE 0x00035474   Section       36  QtOrganizer.in(.constdata__ZTVN10QtMobility29QOrganizerItemIdFilterPrivateE)
    .constdata__ZTVN10QtMobility30QOrganizerManagerEngineFactoryE 0x00035498   Section       36  QtOrganizer.in(.constdata__ZTVN10QtMobility30QOrganizerManagerEngineFactoryE)
    .constdata__ZTVN10QtMobility31QOrganizerCollectionSaveRequestE 0x000354bc   Section       56  QtOrganizer.in(.constdata__ZTVN10QtMobility31QOrganizerCollectionSaveRequestE)
    .constdata__ZTVN10QtMobility32QOrganizerAbstractRequestPrivateE 0x000354f4   Section       20  QtOrganizer.in(.constdata__ZTVN10QtMobility32QOrganizerAbstractRequestPrivateE)
    .constdata__ZTVN10QtMobility32QOrganizerCollectionFetchRequestE 0x00035508   Section       56  QtOrganizer.in(.constdata__ZTVN10QtMobility32QOrganizerCollectionFetchRequestE)
    .constdata__ZTVN10QtMobility32QOrganizerItemSaveRequestPrivateE 0x00035540   Section       20  QtOrganizer.in(.constdata__ZTVN10QtMobility32QOrganizerItemSaveRequestPrivateE)
    .constdata__ZTVN10QtMobility32QOrganizerItemUnionFilterPrivateE 0x00035554   Section       36  QtOrganizer.in(.constdata__ZTVN10QtMobility32QOrganizerItemUnionFilterPrivateE)
    .constdata__ZTVN10QtMobility33QOrganizerCollectionRemoveRequestE 0x00035578   Section       56  QtOrganizer.in(.constdata__ZTVN10QtMobility33QOrganizerCollectionRemoveRequestE)
    .constdata__ZTVN10QtMobility33QOrganizerItemDetailFilterPrivateE 0x000355b0   Section       36  QtOrganizer.in(.constdata__ZTVN10QtMobility33QOrganizerItemDetailFilterPrivateE)
    .constdata__ZTVN10QtMobility33QOrganizerItemFetchRequestPrivateE 0x000355d4   Section       20  QtOrganizer.in(.constdata__ZTVN10QtMobility33QOrganizerItemFetchRequestPrivateE)
    .constdata__ZTVN10QtMobility34QOrganizerCollectionMemoryEngineIdE 0x000355e8   Section       44  QtOrganizer.in(.constdata__ZTVN10QtMobility34QOrganizerCollectionMemoryEngineIdE)
    .constdata__ZTVN10QtMobility34QOrganizerItemInvalidFilterPrivateE 0x00035614   Section       36  QtOrganizer.in(.constdata__ZTVN10QtMobility34QOrganizerItemInvalidFilterPrivateE)
    .constdata__ZTVN10QtMobility34QOrganizerItemRemoveRequestPrivateE 0x00035638   Section       20  QtOrganizer.in(.constdata__ZTVN10QtMobility34QOrganizerItemRemoveRequestPrivateE)
    .constdata__ZTVN10QtMobility35QOrganizerItemFetchForExportRequestE 0x0003564c   Section       56  QtOrganizer.in(.constdata__ZTVN10QtMobility35QOrganizerItemFetchForExportRequestE)
    .constdata__ZTVN10QtMobility35QOrganizerItemIdFetchRequestPrivateE 0x00035684   Section       20  QtOrganizer.in(.constdata__ZTVN10QtMobility35QOrganizerItemIdFetchRequestPrivateE)
    .constdata__ZTVN10QtMobility36QOrganizerItemChangeLogFilterPrivateE 0x00035698   Section       36  QtOrganizer.in(.constdata__ZTVN10QtMobility36QOrganizerItemChangeLogFilterPrivateE)
    .constdata__ZTVN10QtMobility36QOrganizerItemOccurrenceFetchRequestE 0x000356bc   Section       56  QtOrganizer.in(.constdata__ZTVN10QtMobility36QOrganizerItemOccurrenceFetchRequestE)
    .constdata__ZTVN10QtMobility37QOrganizerItemCollectionFilterPrivateE 0x000356f4   Section       36  QtOrganizer.in(.constdata__ZTVN10QtMobility37QOrganizerItemCollectionFilterPrivateE)
    .constdata__ZTVN10QtMobility38QOrganizerCollectionSaveRequestPrivateE 0x00035718   Section       20  QtOrganizer.in(.constdata__ZTVN10QtMobility38QOrganizerCollectionSaveRequestPrivateE)
    .constdata__ZTVN10QtMobility38QOrganizerItemDetailRangeFilterPrivateE 0x0003572c   Section       36  QtOrganizer.in(.constdata__ZTVN10QtMobility38QOrganizerItemDetailRangeFilterPrivateE)
    .constdata__ZTVN10QtMobility39QOrganizerCollectionFetchRequestPrivateE 0x00035750   Section       20  QtOrganizer.in(.constdata__ZTVN10QtMobility39QOrganizerCollectionFetchRequestPrivateE)
    .constdata__ZTVN10QtMobility39QOrganizerItemIntersectionFilterPrivateE 0x00035764   Section       36  QtOrganizer.in(.constdata__ZTVN10QtMobility39QOrganizerItemIntersectionFilterPrivateE)
    .constdata__ZTVN10QtMobility40QOrganizerCollectionRemoveRequestPrivateE 0x00035788   Section       20  QtOrganizer.in(.constdata__ZTVN10QtMobility40QOrganizerCollectionRemoveRequestPrivateE)
    .constdata__ZTVN10QtMobility41QOrganizerItemDetailDefinitionSaveRequestE 0x0003579c   Section       56  QtOrganizer.in(.constdata__ZTVN10QtMobility41QOrganizerItemDetailDefinitionSaveRequestE)
    .constdata__ZTVN10QtMobility42QOrganizerItemDetailDefinitionFetchRequestE 0x000357d4   Section       56  QtOrganizer.in(.constdata__ZTVN10QtMobility42QOrganizerItemDetailDefinitionFetchRequestE)
    .constdata__ZTVN10QtMobility42QOrganizerItemFetchForExportRequestPrivateE 0x0003580c   Section       20  QtOrganizer.in(.constdata__ZTVN10QtMobility42QOrganizerItemFetchForExportRequestPrivateE)
    .constdata__ZTVN10QtMobility43QOrganizerItemDetailDefinitionRemoveRequestE 0x00035820   Section       56  QtOrganizer.in(.constdata__ZTVN10QtMobility43QOrganizerItemDetailDefinitionRemoveRequestE)
    .constdata__ZTVN10QtMobility43QOrganizerItemOccurrenceFetchRequestPrivateE 0x00035858   Section       20  QtOrganizer.in(.constdata__ZTVN10QtMobility43QOrganizerItemOccurrenceFetchRequestPrivateE)
    .constdata__ZTVN10QtMobility48QOrganizerItemDetailDefinitionSaveRequestPrivateE 0x0003586c   Section       20  QtOrganizer.in(.constdata__ZTVN10QtMobility48QOrganizerItemDetailDefinitionSaveRequestPrivateE)
    .constdata__ZTVN10QtMobility49QOrganizerItemDetailDefinitionFetchRequestPrivateE 0x00035880   Section       20  QtOrganizer.in(.constdata__ZTVN10QtMobility49QOrganizerItemDetailDefinitionFetchRequestPrivateE)
    .constdata__ZTVN10QtMobility50QOrganizerItemDetailDefinitionRemoveRequestPrivateE 0x00035894   Section       20  QtOrganizer.in(.constdata__ZTVN10QtMobility50QOrganizerItemDetailDefinitionRemoveRequestPrivateE)
    .init_array                              0x000358a8   Section        4  QtOrganizer.in(.init_array)
    .init_array                              0x000358ac   Section        4  QtOrganizer.in(.init_array)
    .init_array                              0x000358b0   Section        4  QtOrganizer.in(.init_array)
    .ARM.exidx                               0x000358b4   Section        8  ucppinit_aeabi.o(.ARM.exidx)
    .data$0                                  0x00400000   Data           0  QtOrganizer.in(.data)
    .data                                    0x00400000   Section       16  QtOrganizer.in(.data)
    .data$0                                  0x00400010   Data           0  QtOrganizer.in(.data)
    .data                                    0x00400010   Section       12  QtOrganizer.in(.data)
    .data$0                                  0x0040001c   Data           0  QtOrganizer.in(.data)
    .data                                    0x0040001c   Section        4  QtOrganizer.in(.data)
    .data$0                                  0x00400020   Data           0  ucppfini.o(.data)
    .data                                    0x00400020   Section        4  ucppfini.o(.data)
    .data__ZZN11QMetaTypeIdI4QSetI5QDateEE14qt_metatype_idEvE11metatype_id 0x00400024   Section        4  QtOrganizer.in(.data__ZZN11QMetaTypeIdI4QSetI5QDateEE14qt_metatype_idEvE11metatype_id)
    .data__ZZN11QMetaTypeIdI4QSetIN10QtMobility24QOrganizerRecurrenceRuleEEE14qt_metatype_idEvE11metatype_id 0x00400028   Section        4  QtOrganizer.in(.data__ZZN11QMetaTypeIdI4QSetIN10QtMobility24QOrganizerRecurrenceRuleEEE14qt_metatype_idEvE11metatype_id)
    .data__ZZN11QMetaTypeIdIN10QtMobility16QOrganizerItemIdEE14qt_metatype_idEvE11metatype_id 0x0040002c   Section        4  QtOrganizer.in(.data__ZZN11QMetaTypeIdIN10QtMobility16QOrganizerItemIdEE14qt_metatype_idEvE11metatype_id)
    .bss$5                                   0x00400030   Data           0  ucppfini.o(.bss)
    dtor_rec                                 0x00400030   Data        2048  ucppfini.o(.bss)
    .bss                                     0x00400030   Section     2048  ucppfini.o(.bss)

    Global Symbols

    Symbol Name                              Value     Ov Type        Size  Object(Section)

    BuildAttributes$$THUMB_ISAv2$ARM_ISAv5$M$PE$A:L22$X:L11$S22$IEEE1$IW$USESV6$~STKCKD$USESV7$~SHL$OSPACE$IEEEJ$EBA8$UX$REQ8$PRES8$EABIv2 0x00000000   Number         0  anon$$obj.o ABSOLUTE
    #<DLL>QtCore{00040703}[2001b2dc].dll#<\DLL>102  - Undefined Reference
    #<DLL>QtCore{00040703}[2001b2dc].dll#<\DLL>112  - Undefined Reference
    #<DLL>QtCore{00040703}[2001b2dc].dll#<\DLL>113  - Undefined Reference
    #<DLL>QtCore{00040703}[2001b2dc].dll#<\DLL>11a  - Undefined Reference
    #<DLL>QtCore{00040703}[2001b2dc].dll#<\DLL>11e  - Undefined Reference
    #<DLL>QtCore{00040703}[2001b2dc].dll#<\DLL>138  - Undefined Reference
    #<DLL>QtCore{00040703}[2001b2dc].dll#<\DLL>144  - Undefined Reference
    #<DLL>QtCore{00040703}[2001b2dc].dll#<\DLL>14b  - Undefined Reference
    #<DLL>QtCore{00040703}[2001b2dc].dll#<\DLL>14c  - Undefined Reference
    #<DLL>QtCore{00040703}[2001b2dc].dll#<\DLL>14f  - Undefined Reference
    #<DLL>QtCore{00040703}[2001b2dc].dll#<\DLL>150  - Undefined Reference
    #<DLL>QtCore{00040703}[2001b2dc].dll#<\DLL>18  - Undefined Reference
    #<DLL>QtCore{00040703}[2001b2dc].dll#<\DLL>1ee  - Undefined Reference
    #<DLL>QtCore{00040703}[2001b2dc].dll#<\DLL>1f3  - Undefined Reference
    #<DLL>QtCore{00040703}[2001b2dc].dll#<\DLL>1f5  - Undefined Reference
    #<DLL>QtCore{00040703}[2001b2dc].dll#<\DLL>1f9  - Undefined Reference
    #<DLL>QtCore{00040703}[2001b2dc].dll#<\DLL>20  - Undefined Reference
    #<DLL>QtCore{00040703}[2001b2dc].dll#<\DLL>2e  - Undefined Reference
    #<DLL>QtCore{00040703}[2001b2dc].dll#<\DLL>2e5  - Undefined Reference
    #<DLL>QtCore{00040703}[2001b2dc].dll#<\DLL>2f1  - Undefined Reference
    #<DLL>QtCore{00040703}[2001b2dc].dll#<\DLL>304  - Undefined Reference
    #<DLL>QtCore{00040703}[2001b2dc].dll#<\DLL>36  - Undefined Reference
    #<DLL>QtCore{00040703}[2001b2dc].dll#<\DLL>46  - Undefined Reference
    #<DLL>QtCore{00040703}[2001b2dc].dll#<\DLL>49  - Undefined Reference
    #<DLL>QtCore{00040703}[2001b2dc].dll#<\DLL>5ad  - Undefined Reference
    #<DLL>QtCore{00040703}[2001b2dc].dll#<\DLL>5b1  - Undefined Reference
    #<DLL>QtCore{00040703}[2001b2dc].dll#<\DLL>5bf  - Undefined Reference
    #<DLL>QtCore{00040703}[2001b2dc].dll#<\DLL>5c5  - Undefined Reference
    #<DLL>QtCore{00040703}[2001b2dc].dll#<\DLL>5e  - Undefined Reference
    #<DLL>QtCore{00040703}[2001b2dc].dll#<\DLL>62  - Undefined Reference
    #<DLL>QtCore{00040703}[2001b2dc].dll#<\DLL>62d  - Undefined Reference
    #<DLL>QtCore{00040703}[2001b2dc].dll#<\DLL>66b  - Undefined Reference
    #<DLL>QtCore{00040703}[2001b2dc].dll#<\DLL>66d  - Undefined Reference
    #<DLL>QtCore{00040703}[2001b2dc].dll#<\DLL>686  - Undefined Reference
    #<DLL>QtCore{00040703}[2001b2dc].dll#<\DLL>687  - Undefined Reference
    #<DLL>QtCore{00040703}[2001b2dc].dll#<\DLL>68a  - Undefined Reference
    #<DLL>QtCore{00040703}[2001b2dc].dll#<\DLL>68c  - Undefined Reference
    #<DLL>QtCore{00040703}[2001b2dc].dll#<\DLL>6e0  - Undefined Reference
    #<DLL>QtCore{00040703}[2001b2dc].dll#<\DLL>6e3  - Undefined Reference
    #<DLL>QtCore{00040703}[2001b2dc].dll#<\DLL>6e4  - Undefined Reference
    #<DLL>QtCore{00040703}[2001b2dc].dll#<\DLL>6e6  - Undefined Reference
    #<DLL>QtCore{00040703}[2001b2dc].dll#<\DLL>6e7  - Undefined Reference
    #<DLL>QtCore{00040703}[2001b2dc].dll#<\DLL>6e8  - Undefined Reference
    #<DLL>QtCore{00040703}[2001b2dc].dll#<\DLL>6ed  - Undefined Reference
    #<DLL>QtCore{00040703}[2001b2dc].dll#<\DLL>6f1  - Undefined Reference
    #<DLL>QtCore{00040703}[2001b2dc].dll#<\DLL>6f8  - Undefined Reference
    #<DLL>QtCore{00040703}[2001b2dc].dll#<\DLL>6f9  - Undefined Reference
    #<DLL>QtCore{00040703}[2001b2dc].dll#<\DLL>6fd  - Undefined Reference
    #<DLL>QtCore{00040703}[2001b2dc].dll#<\DLL>702  - Undefined Reference
    #<DLL>QtCore{00040703}[2001b2dc].dll#<\DLL>70d  - Undefined Reference
    #<DLL>QtCore{00040703}[2001b2dc].dll#<\DLL>713  - Undefined Reference
    #<DLL>QtCore{00040703}[2001b2dc].dll#<\DLL>716  - Undefined Reference
    #<DLL>QtCore{00040703}[2001b2dc].dll#<\DLL>71d  - Undefined Reference
    #<DLL>QtCore{00040703}[2001b2dc].dll#<\DLL>722  - Undefined Reference
    #<DLL>QtCore{00040703}[2001b2dc].dll#<\DLL>726  - Undefined Reference
    #<DLL>QtCore{00040703}[2001b2dc].dll#<\DLL>727  - Undefined Reference
    #<DLL>QtCore{00040703}[2001b2dc].dll#<\DLL>72c  - Undefined Reference
    #<DLL>QtCore{00040703}[2001b2dc].dll#<\DLL>732  - Undefined Reference
    #<DLL>QtCore{00040703}[2001b2dc].dll#<\DLL>733  - Undefined Reference
    #<DLL>QtCore{00040703}[2001b2dc].dll#<\DLL>73f  - Undefined Reference
    #<DLL>QtCore{00040703}[2001b2dc].dll#<\DLL>740  - Undefined Reference
    #<DLL>QtCore{00040703}[2001b2dc].dll#<\DLL>741  - Undefined Reference
    #<DLL>QtCore{00040703}[2001b2dc].dll#<\DLL>746  - Undefined Reference
    #<DLL>QtCore{00040703}[2001b2dc].dll#<\DLL>752  - Undefined Reference
    #<DLL>QtCore{00040703}[2001b2dc].dll#<\DLL>757  - Undefined Reference
    #<DLL>QtCore{00040703}[2001b2dc].dll#<\DLL>75d  - Undefined Reference
    #<DLL>QtCore{00040703}[2001b2dc].dll#<\DLL>79b  - Undefined Reference
    #<DLL>QtCore{00040703}[2001b2dc].dll#<\DLL>79d  - Undefined Reference
    #<DLL>QtCore{00040703}[2001b2dc].dll#<\DLL>7e4  - Undefined Reference
    #<DLL>QtCore{00040703}[2001b2dc].dll#<\DLL>7e7  - Undefined Reference
    #<DLL>QtCore{00040703}[2001b2dc].dll#<\DLL>7f2  - Undefined Reference
    #<DLL>QtCore{00040703}[2001b2dc].dll#<\DLL>7f4  - Undefined Reference
    #<DLL>QtCore{00040703}[2001b2dc].dll#<\DLL>7f5  - Undefined Reference
    #<DLL>QtCore{00040703}[2001b2dc].dll#<\DLL>7f6  - Undefined Reference
    #<DLL>QtCore{00040703}[2001b2dc].dll#<\DLL>7f8  - Undefined Reference
    #<DLL>QtCore{00040703}[2001b2dc].dll#<\DLL>7fa  - Undefined Reference
    #<DLL>QtCore{00040703}[2001b2dc].dll#<\DLL>822  - Undefined Reference
    #<DLL>QtCore{00040703}[2001b2dc].dll#<\DLL>824  - Undefined Reference
    #<DLL>QtCore{00040703}[2001b2dc].dll#<\DLL>831  - Undefined Reference
    #<DLL>QtCore{00040703}[2001b2dc].dll#<\DLL>833  - Undefined Reference
    #<DLL>QtCore{00040703}[2001b2dc].dll#<\DLL>834  - Undefined Reference
    #<DLL>QtCore{00040703}[2001b2dc].dll#<\DLL>837  - Undefined Reference
    #<DLL>QtCore{00040703}[2001b2dc].dll#<\DLL>838  - Undefined Reference
    #<DLL>QtCore{00040703}[2001b2dc].dll#<\DLL>839  - Undefined Reference
    #<DLL>QtCore{00040703}[2001b2dc].dll#<\DLL>83e  - Undefined Reference
    #<DLL>QtCore{00040703}[2001b2dc].dll#<\DLL>840  - Undefined Reference
    #<DLL>QtCore{00040703}[2001b2dc].dll#<\DLL>856  - Undefined Reference
    #<DLL>QtCore{00040703}[2001b2dc].dll#<\DLL>85d  - Undefined Reference
    #<DLL>QtCore{00040703}[2001b2dc].dll#<\DLL>85e  - Undefined Reference
    #<DLL>QtCore{00040703}[2001b2dc].dll#<\DLL>85f  - Undefined Reference
    #<DLL>QtCore{00040703}[2001b2dc].dll#<\DLL>88a  - Undefined Reference
    #<DLL>QtCore{00040703}[2001b2dc].dll#<\DLL>88c  - Undefined Reference
    #<DLL>QtCore{00040703}[2001b2dc].dll#<\DLL>88e  - Undefined Reference
    #<DLL>QtCore{00040703}[2001b2dc].dll#<\DLL>88f  - Undefined Reference
    #<DLL>QtCore{00040703}[2001b2dc].dll#<\DLL>891  - Undefined Reference
    #<DLL>QtCore{00040703}[2001b2dc].dll#<\DLL>894  - Undefined Reference
    #<DLL>QtCore{00040703}[2001b2dc].dll#<\DLL>895  - Undefined Reference
    #<DLL>QtCore{00040703}[2001b2dc].dll#<\DLL>897  - Undefined Reference
    #<DLL>QtCore{00040703}[2001b2dc].dll#<\DLL>90b  - Undefined Reference
    #<DLL>QtCore{00040703}[2001b2dc].dll#<\DLL>911  - Undefined Reference
    #<DLL>QtCore{00040703}[2001b2dc].dll#<\DLL>94e  - Undefined Reference
    #<DLL>QtCore{00040703}[2001b2dc].dll#<\DLL>94f  - Undefined Reference
    #<DLL>QtCore{00040703}[2001b2dc].dll#<\DLL>96  - Undefined Reference
    #<DLL>QtCore{00040703}[2001b2dc].dll#<\DLL>ae7  - Undefined Reference
    #<DLL>QtCore{00040703}[2001b2dc].dll#<\DLL>aeb  - Undefined Reference
    #<DLL>QtCore{00040703}[2001b2dc].dll#<\DLL>aed  - Undefined Reference
    #<DLL>QtCore{00040703}[2001b2dc].dll#<\DLL>afa  - Undefined Reference
    #<DLL>QtCore{00040703}[2001b2dc].dll#<\DLL>afb  - Undefined Reference
    #<DLL>QtCore{00040703}[2001b2dc].dll#<\DLL>b41  - Undefined Reference
    #<DLL>QtCore{00040703}[2001b2dc].dll#<\DLL>b43  - Undefined Reference
    #<DLL>QtCore{00040703}[2001b2dc].dll#<\DLL>b44  - Undefined Reference
    #<DLL>QtCore{00040703}[2001b2dc].dll#<\DLL>b45  - Undefined Reference
    #<DLL>QtCore{00040703}[2001b2dc].dll#<\DLL>b46  - Undefined Reference
    #<DLL>QtCore{00040703}[2001b2dc].dll#<\DLL>b47  - Undefined Reference
    #<DLL>QtCore{00040703}[2001b2dc].dll#<\DLL>b48  - Undefined Reference
    #<DLL>QtCore{00040703}[2001b2dc].dll#<\DLL>b4d  - Undefined Reference
    #<DLL>QtCore{00040703}[2001b2dc].dll#<\DLL>b4e  - Undefined Reference
    #<DLL>QtCore{00040703}[2001b2dc].dll#<\DLL>b70  - Undefined Reference
    #<DLL>QtCore{00040703}[2001b2dc].dll#<\DLL>bd9  - Undefined Reference
    #<DLL>QtCore{00040703}[2001b2dc].dll#<\DLL>be0  - Undefined Reference
    #<DLL>QtCore{00040703}[2001b2dc].dll#<\DLL>be9  - Undefined Reference
    #<DLL>QtCore{00040703}[2001b2dc].dll#<\DLL>bec  - Undefined Reference
    #<DLL>QtCore{00040703}[2001b2dc].dll#<\DLL>bee  - Undefined Reference
    #<DLL>QtCore{00040703}[2001b2dc].dll#<\DLL>bf4  - Undefined Reference
    #<DLL>QtCore{00040703}[2001b2dc].dll#<\DLL>bf5  - Undefined Reference
    #<DLL>QtCore{00040703}[2001b2dc].dll#<\DLL>bf6  - Undefined Reference
    #<DLL>QtCore{00040703}[2001b2dc].dll#<\DLL>bf7  - Undefined Reference
    #<DLL>QtCore{00040703}[2001b2dc].dll#<\DLL>bf8  - Undefined Reference
    #<DLL>QtCore{00040703}[2001b2dc].dll#<\DLL>bfb  - Undefined Reference
    #<DLL>QtCore{00040703}[2001b2dc].dll#<\DLL>c00  - Undefined Reference
    #<DLL>QtCore{00040703}[2001b2dc].dll#<\DLL>c03  - Undefined Reference
    #<DLL>QtCore{00040703}[2001b2dc].dll#<\DLL>c05  - Undefined Reference
    #<DLL>QtCore{00040703}[2001b2dc].dll#<\DLL>c0f  - Undefined Reference
    #<DLL>QtCore{00040703}[2001b2dc].dll#<\DLL>c10  - Undefined Reference
    #<DLL>QtCore{00040703}[2001b2dc].dll#<\DLL>c12  - Undefined Reference
    #<DLL>QtCore{00040703}[2001b2dc].dll#<\DLL>c13  - Undefined Reference
    #<DLL>QtCore{00040703}[2001b2dc].dll#<\DLL>c15  - Undefined Reference
    #<DLL>QtCore{00040703}[2001b2dc].dll#<\DLL>c17  - Undefined Reference
    #<DLL>QtCore{00040703}[2001b2dc].dll#<\DLL>c19  - Undefined Reference
    #<DLL>QtCore{00040703}[2001b2dc].dll#<\DLL>c1a  - Undefined Reference
    #<DLL>QtCore{00040703}[2001b2dc].dll#<\DLL>c1d  - Undefined Reference
    #<DLL>QtCore{00040703}[2001b2dc].dll#<\DLL>c3b  - Undefined Reference
    #<DLL>QtCore{00040703}[2001b2dc].dll#<\DLL>c3c  - Undefined Reference
    #<DLL>QtCore{00040703}[2001b2dc].dll#<\DLL>c3e  - Undefined Reference
    #<DLL>QtCore{00040703}[2001b2dc].dll#<\DLL>c40  - Undefined Reference
    #<DLL>QtCore{00040703}[2001b2dc].dll#<\DLL>c42  - Undefined Reference
    #<DLL>QtCore{00040703}[2001b2dc].dll#<\DLL>c43  - Undefined Reference
    #<DLL>QtCore{00040703}[2001b2dc].dll#<\DLL>c46  - Undefined Reference
    #<DLL>QtCore{00040703}[2001b2dc].dll#<\DLL>c49  - Undefined Reference
    #<DLL>QtCore{00040703}[2001b2dc].dll#<\DLL>c4c  - Undefined Reference
    #<DLL>QtCore{00040703}[2001b2dc].dll#<\DLL>c50  - Undefined Reference
    #<DLL>QtCore{00040703}[2001b2dc].dll#<\DLL>c51  - Undefined Reference
    #<DLL>QtCore{00040703}[2001b2dc].dll#<\DLL>c57  - Undefined Reference
    #<DLL>QtCore{00040703}[2001b2dc].dll#<\DLL>c5b  - Undefined Reference
    #<DLL>QtCore{00040703}[2001b2dc].dll#<\DLL>c5d  - Undefined Reference
    #<DLL>QtCore{00040703}[2001b2dc].dll#<\DLL>c5e  - Undefined Reference
    #<DLL>QtCore{00040703}[2001b2dc].dll#<\DLL>c62  - Undefined Reference
    #<DLL>QtCore{00040703}[2001b2dc].dll#<\DLL>c63  - Undefined Reference
    #<DLL>QtCore{00040703}[2001b2dc].dll#<\DLL>c65  - Undefined Reference
    #<DLL>QtCore{00040703}[2001b2dc].dll#<\DLL>c69  - Undefined Reference
    #<DLL>QtCore{00040703}[2001b2dc].dll#<\DLL>c72  - Undefined Reference
    #<DLL>QtCore{00040703}[2001b2dc].dll#<\DLL>c73  - Undefined Reference
    #<DLL>QtCore{00040703}[2001b2dc].dll#<\DLL>d9b  - Undefined Reference
    #<DLL>QtCore{00040703}[2001b2dc].dll#<\DLL>dae  - Undefined Reference
    #<DLL>QtCore{00040703}[2001b2dc].dll#<\DLL>daf  - Undefined Reference
    #<DLL>QtCore{00040703}[2001b2dc].dll#<\DLL>db1  - Undefined Reference
    #<DLL>QtCore{00040703}[2001b2dc].dll#<\DLL>dc4  - Undefined Reference
    #<DLL>QtCore{00040703}[2001b2dc].dll#<\DLL>dc5  - Undefined Reference
    #<DLL>QtCore{00040703}[2001b2dc].dll#<\DLL>dc7  - Undefined Reference
    #<DLL>QtCore{00040703}[2001b2dc].dll#<\DLL>e1  - Undefined Reference
    #<DLL>QtCore{00040703}[2001b2dc].dll#<\DLL>e17  - Undefined Reference
    #<DLL>QtCore{00040703}[2001b2dc].dll#<\DLL>e18  - Undefined Reference
    #<DLL>QtCore{00040703}[2001b2dc].dll#<\DLL>e19  - Undefined Reference
    #<DLL>QtCore{00040703}[2001b2dc].dll#<\DLL>e1a  - Undefined Reference
    #<DLL>QtCore{00040703}[2001b2dc].dll#<\DLL>e69  - Undefined Reference
    #<DLL>QtCore{00040703}[2001b2dc].dll#<\DLL>e6b  - Undefined Reference
    #<DLL>QtCore{00040703}[2001b2dc].dll#<\DLL>e6c  - Undefined Reference
    #<DLL>QtCore{00040703}[2001b2dc].dll#<\DLL>e9  - Undefined Reference
    #<DLL>QtCore{00040703}[2001b2dc].dll#<\DLL>f6  - Undefined Reference
    #<DLL>QtCore{00040703}[2001b2dc].dll#<\DLL>f7  - Undefined Reference
    #<DLL>QtCore{00040703}[2001b2dc].dll#<\DLL>fa  - Undefined Reference
    #<DLL>QtCore{00040703}[2001b2dc].dll#<\DLL>fe  - Undefined Reference
    #<DLL>QtCore{00040703}[2001b2dc].dll#<\DLL>ff  - Undefined Reference
    #<DLL>dfpaeabi{000a0000}.dll#<\DLL>1      - Undefined Reference
    #<DLL>dfpaeabi{000a0000}.dll#<\DLL>2      - Undefined Reference
    #<DLL>drtaeabi{000a0000}.dll#<\DLL>92     - Undefined Reference
    #<DLL>drtaeabi{000a0000}.dll#<\DLL>93     - Undefined Reference
    #<DLL>drtaeabi{000a0000}.dll#<\DLL>9b     - Undefined Reference
    #<DLL>drtaeabi{000a0000}.dll#<\DLL>9e     - Undefined Reference
    #<DLL>drtaeabi{000a0000}.dll#<\DLL>b4     - Undefined Reference
    #<DLL>drtaeabi{000a0000}.dll#<\DLL>b7     - Undefined Reference
    #<DLL>drtaeabi{000a0000}.dll#<\DLL>b8     - Undefined Reference
    #<DLL>drtaeabi{000a0000}.dll#<\DLL>bd     - Undefined Reference
    #<DLL>drtaeabi{000a0000}.dll#<\DLL>be     - Undefined Reference
    #<DLL>drtrvct2_2{000a0000}.dll#<\DLL>1c   - Undefined Reference
    #<DLL>drtrvct2_2{000a0000}.dll#<\DLL>33   - Undefined Reference
    #<DLL>efsrv{000a0000}[100039e4].dll#<\DLL>44  - Undefined Reference
    #<DLL>efsrv{000a0000}[100039e4].dll#<\DLL>e7  - Undefined Reference
    #<DLL>euser{000a0000}[100039e5].dll#<\DLL>29e  - Undefined Reference
    #<DLL>euser{000a0000}[100039e5].dll#<\DLL>29f  - Undefined Reference
    #<DLL>euser{000a0000}[100039e5].dll#<\DLL>492  - Undefined Reference
    #<DLL>euser{000a0000}[100039e5].dll#<\DLL>78  - Undefined Reference
    #<DLL>libc{00010000}[10207369].dll#<\DLL>15e  - Undefined Reference
    #<DLL>libstdcpp{00010000}[10282872].dll#<\DLL>3da  - Undefined Reference
    #<DLL>libstdcpp{00010000}[10282872].dll#<\DLL>3dc  - Undefined Reference
    #<DLL>libstdcpp{00010000}[10282872].dll#<\DLL>3e0  - Undefined Reference
    QObject::staticMetaObject                 - Undefined Reference
    QString::shared_null                      - Undefined Reference
    QMapData::shared_null                     - Undefined Reference
    QVariant::handler                         - Undefined Reference
    QHashData::shared_null                    - Undefined Reference
    QListData::shared_null                    - Undefined Reference
    typeinfo for QObject                      - Undefined Reference
    typeinfo for std::exception               - Undefined Reference
    vtable for __cxxabiv1::__class_type_info  - Undefined Reference
    vtable for __cxxabiv1::__si_class_type_info  - Undefined Reference
    vtable for __cxxabiv1::__vmi_class_type_info  - Undefined Reference
    _fp_init                                  - Undefined Weak Reference
    Image$$ER_RO$$Base                       0x00008000   Number         0  anon$$obj.o(linker$$defined$$symbols)
    _E32Dll                                  0x00008000   ARM Code      40  uc_dll_.o(.emb_text)
    Symbian$$CPP$$Exception$$Descriptor      0x00008014   Data           0  uc_dll_.o(.emb_text)
    __cpp_initialize__aeabi_                 0x00008028   ARM Code      72  ucppinit_aeabi.o(.emb_text)
    QtMobility::QOrganizerCollection::QOrganizerCollection() 0x00008071   Thumb Code    94  QtOrganizer.in(.text)
    QtMobility::QOrganizerCollection::QOrganizerCollection__sub_object() 0x00008071   Thumb Code     0  QtOrganizer.in(.text)
    std::nothrow                             0x00008071   Thumb Code     0  ucppinit_aeabi.o(.emb_text)
    QtMobility::QOrganizerCollection::~QOrganizerCollection() 0x000080cf   Thumb Code     8  QtOrganizer.in(.text)
    QtMobility::QOrganizerCollection::~QOrganizerCollection__sub_object() 0x000080cf   Thumb Code     0  QtOrganizer.in(.text)
    QtMobility::QOrganizerCollection::QOrganizerCollection(const QtMobility::QOrganizerCollection&) 0x000080d7   Thumb Code    20  QtOrganizer.in(.text)
    QtMobility::QOrganizerCollection::QOrganizerCollection__sub_object(const QtMobility::QOrganizerCollection&) 0x000080d7   Thumb Code     0  QtOrganizer.in(.text)
    QtMobility::QOrganizerCollection::operator =(const QtMobility::QOrganizerCollection&) 0x000080eb   Thumb Code    56  QtOrganizer.in(.text)
    QtMobility::QOrganizerCollection::operator ==(const QtMobility::QOrganizerCollection&) const 0x00008123   Thumb Code    16  QtOrganizer.in(.text)
    QtMobility::QOrganizerCollection::id() const 0x00008133   Thumb Code    12  QtOrganizer.in(.text)
    QtMobility::QOrganizerCollection::setId(const QtMobility::QOrganizerCollectionId&) 0x0000813f   Thumb Code    18  QtOrganizer.in(.text)
    QtMobility::QOrganizerCollection::setMetaData(const QMap<QString, QVariant>&) 0x00008151   Thumb Code    18  QtOrganizer.in(.text)
    QtMobility::QOrganizerCollection::metaData() const 0x00008163   Thumb Code    12  QtOrganizer.in(.text)
    QtMobility::QOrganizerCollection::setMetaData(const QString&, const QVariant&) 0x0000816f   Thumb Code    62  QtOrganizer.in(.text)
    QtMobility::QOrganizerCollection::metaData(const QString&) const 0x000081ad   Thumb Code   114  QtOrganizer.in(.text)
    QtMobility::qHash(const QtMobility::QOrganizerCollection&) 0x0000821f   Thumb Code   116  QtOrganizer.in(.text)
    QtMobility::operator <<(QDebug, const QtMobility::QOrganizerCollection&) 0x00008293   Thumb Code   232  QtOrganizer.in(.text)
    QtMobility::operator <<(QDataStream&, const QtMobility::QOrganizerCollection&) 0x0000837b   Thumb Code   128  QtOrganizer.in(.text)
    QtMobility::operator >>(QDataStream&, QtMobility::QOrganizerCollection&) 0x000083fb   Thumb Code   230  QtOrganizer.in(.text)
    QtMobility::QOrganizerCollectionChangeSet::QOrganizerCollectionChangeSet() 0x000084e1   Thumb Code    84  QtOrganizer.in(.text)
    QtMobility::QOrganizerCollectionChangeSet::QOrganizerCollectionChangeSet__sub_object() 0x000084e1   Thumb Code     0  QtOrganizer.in(.text)
    QtMobility::QOrganizerCollectionChangeSet::QOrganizerCollectionChangeSet(const QtMobility::QOrganizerCollectionChangeSet&) 0x00008535   Thumb Code    20  QtOrganizer.in(.text)
    QtMobility::QOrganizerCollectionChangeSet::QOrganizerCollectionChangeSet__sub_object(const QtMobility::QOrganizerCollectionChangeSet&) 0x00008535   Thumb Code     0  QtOrganizer.in(.text)
    QtMobility::QOrganizerCollectionChangeSet::~QOrganizerCollectionChangeSet() 0x00008549   Thumb Code     8  QtOrganizer.in(.text)
    QtMobility::QOrganizerCollectionChangeSet::~QOrganizerCollectionChangeSet__sub_object() 0x00008549   Thumb Code     0  QtOrganizer.in(.text)
    QtMobility::QOrganizerCollectionChangeSet::operator =(const QtMobility::QOrganizerCollectionChangeSet&) 0x00008551   Thumb Code    56  QtOrganizer.in(.text)
    QtMobility::QOrganizerCollectionChangeSet::setDataChanged(bool) 0x00008589   Thumb Code    12  QtOrganizer.in(.text)
    QtMobility::QOrganizerCollectionChangeSet::dataChanged() 0x00008595   Thumb Code    10  QtOrganizer.in(.text)
    QtMobility::QOrganizerCollectionChangeSet::addedCollections() const 0x0000859f   Thumb Code    12  QtOrganizer.in(.text)
    QtMobility::QOrganizerCollectionChangeSet::insertAddedCollection(const QtMobility::QOrganizerCollectionId&) 0x000085ab   Thumb Code    22  QtOrganizer.in(.text)
    QtMobility::QOrganizerCollectionChangeSet::insertAddedCollections(const QList<QtMobility::QOrganizerCollectionId>&) 0x000085c1   Thumb Code    80  QtOrganizer.in(.text)
    QtMobility::QOrganizerCollectionChangeSet::clearAddedCollections() 0x00008611   Thumb Code    14  QtOrganizer.in(.text)
    QtMobility::QOrganizerCollectionChangeSet::changedCollections() const 0x0000861f   Thumb Code    12  QtOrganizer.in(.text)
    QtMobility::QOrganizerCollectionChangeSet::insertChangedCollection(const QtMobility::QOrganizerCollectionId&) 0x0000862b   Thumb Code    22  QtOrganizer.in(.text)
    QtMobility::QOrganizerCollectionChangeSet::insertChangedCollections(const QList<QtMobility::QOrganizerCollectionId>&) 0x00008641   Thumb Code    78  QtOrganizer.in(.text)
    QtMobility::QOrganizerCollectionChangeSet::clearChangedCollections() 0x0000868f   Thumb Code    14  QtOrganizer.in(.text)
    QtMobility::QOrganizerCollectionChangeSet::removedCollections() const 0x0000869d   Thumb Code    12  QtOrganizer.in(.text)
    QtMobility::QOrganizerCollectionChangeSet::insertRemovedCollection(const QtMobility::QOrganizerCollectionId&) 0x000086a9   Thumb Code    22  QtOrganizer.in(.text)
    QtMobility::QOrganizerCollectionChangeSet::insertRemovedCollections(const QList<QtMobility::QOrganizerCollectionId>&) 0x000086bf   Thumb Code    78  QtOrganizer.in(.text)
    QtMobility::QOrganizerCollectionChangeSet::clearRemovedCollections() 0x0000870d   Thumb Code    14  QtOrganizer.in(.text)
    QtMobility::QOrganizerCollectionChangeSet::clearAll() 0x0000871b   Thumb Code    50  QtOrganizer.in(.text)
    QtMobility::QOrganizerCollectionChangeSet::emitSignals(QtMobility::QOrganizerManagerEngine*) 0x0000874d   Thumb Code   168  QtOrganizer.in(.text)
    QtMobility::QOrganizerCollectionId::QOrganizerCollectionId() 0x000087f5   Thumb Code    10  QtOrganizer.in(.text)
    QtMobility::QOrganizerCollectionId::QOrganizerCollectionId__sub_object() 0x000087f5   Thumb Code     0  QtOrganizer.in(.text)
    QtMobility::QOrganizerCollectionId::~QOrganizerCollectionId() 0x000087ff   Thumb Code     8  QtOrganizer.in(.text)
    QtMobility::QOrganizerCollectionId::~QOrganizerCollectionId__sub_object() 0x000087ff   Thumb Code     0  QtOrganizer.in(.text)
    QtMobility::QOrganizerCollectionId::QOrganizerCollectionId(QtMobility::QOrganizerCollectionEngineId*) 0x00008807   Thumb Code     8  QtOrganizer.in(.text)
    QtMobility::QOrganizerCollectionId::QOrganizerCollectionId__sub_object(QtMobility::QOrganizerCollectionEngineId*) 0x00008807   Thumb Code     0  QtOrganizer.in(.text)
    QtMobility::QOrganizerCollectionId::QOrganizerCollectionId(const QtMobility::QOrganizerCollectionId&) 0x0000880f   Thumb Code    22  QtOrganizer.in(.text)
    QtMobility::QOrganizerCollectionId::QOrganizerCollectionId__sub_object(const QtMobility::QOrganizerCollectionId&) 0x0000880f   Thumb Code     0  QtOrganizer.in(.text)
    QtMobility::QOrganizerCollectionId::operator =(const QtMobility::QOrganizerCollectionId&) 0x00008825   Thumb Code    56  QtOrganizer.in(.text)
    QtMobility::QOrganizerCollectionId::operator ==(const QtMobility::QOrganizerCollectionId&) const 0x0000885d   Thumb Code    92  QtOrganizer.in(.text)
    QtMobility::QOrganizerCollectionId::operator !=(const QtMobility::QOrganizerCollectionId&) const 0x000088b9   Thumb Code    12  QtOrganizer.in(.text)
    QtMobility::QOrganizerCollectionId::operator <(const QtMobility::QOrganizerCollectionId&) const 0x000088c5   Thumb Code   138  QtOrganizer.in(.text)
    QtMobility::QOrganizerCollectionId::isNull() const 0x0000894f   Thumb Code    14  QtOrganizer.in(.text)
    QtMobility::QOrganizerCollectionId::managerUri() const 0x0000895d   Thumb Code    66  QtOrganizer.in(.text)
    QtMobility::QOrganizerCollectionId::toString() const 0x0000899f   Thumb Code   110  QtOrganizer.in(.text)
    QtMobility::QOrganizerCollectionId::fromString(const QString&) 0x00008a0d   Thumb Code    88  QtOrganizer.in(.text)
    QtMobility::qHash(const QtMobility::QOrganizerCollectionId&) 0x00008a65   Thumb Code    16  QtOrganizer.in(.text)
    QtMobility::operator <<(QDebug, const QtMobility::QOrganizerCollectionId&) 0x00008a75   Thumb Code    76  QtOrganizer.in(.text)
    QtMobility::operator <<(QDataStream&, const QtMobility::QOrganizerCollectionId&) 0x00008ac1   Thumb Code    28  QtOrganizer.in(.text)
    QtMobility::operator >>(QDataStream&, QtMobility::QOrganizerCollectionId&) 0x00008add   Thumb Code    52  QtOrganizer.in(.text)
    QtMobility::QOrganizerAbstractRequest::getStaticMetaObject() 0x00008b35   Thumb Code     4  QtOrganizer.in(.text)
    QtMobility::QOrganizerAbstractRequest::metaObject() const 0x00008b39   Thumb Code    12  QtOrganizer.in(.text)
    QtMobility::QOrganizerAbstractRequest::qt_metacast(const char*) 0x00008b45   Thumb Code    40  QtOrganizer.in(.text)
    QtMobility::QOrganizerAbstractRequest::waitForFinished(int) 0x00008b6d   Thumb Code   102  QtOrganizer.in(.text)
    QtMobility::QOrganizerAbstractRequest::cancel() 0x00008bd3   Thumb Code    72  QtOrganizer.in(.text)
    QtMobility::QOrganizerAbstractRequest::start() 0x00008c1b   Thumb Code    80  QtOrganizer.in(.text)
    QtMobility::QOrganizerAbstractRequest::resultsAvailable() 0x00008c6b   Thumb Code    14  QtOrganizer.in(.text)
    QtMobility::QOrganizerAbstractRequest::stateChanged(QtMobility::QOrganizerAbstractRequest::State) 0x00008c79   Thumb Code    28  QtOrganizer.in(.text)
    QtMobility::QOrganizerAbstractRequest::qt_metacall(QMetaObject::Call, int, void**) 0x00008c95   Thumb Code    98  QtOrganizer.in(.text)
    QtMobility::QOrganizerAbstractRequest::~QOrganizerAbstractRequest() 0x00008cf7   Thumb Code    54  QtOrganizer.in(.text)
    QtMobility::QOrganizerAbstractRequest::~QOrganizerAbstractRequest__sub_object() 0x00008cf7   Thumb Code     0  QtOrganizer.in(.text)
    QtMobility::QOrganizerAbstractRequest::~QOrganizerAbstractRequest__deallocating() 0x00008d2d   Thumb Code    16  QtOrganizer.in(.text)
    QtMobility::QOrganizerAbstractRequest::state() const 0x00008d3d   Thumb Code    28  QtOrganizer.in(.text)
    QtMobility::QOrganizerAbstractRequest::isInactive() const 0x00008d59   Thumb Code    38  QtOrganizer.in(.text)
    QtMobility::QOrganizerAbstractRequest::isActive() const 0x00008d7f   Thumb Code    38  QtOrganizer.in(.text)
    QtMobility::QOrganizerAbstractRequest::isFinished() const 0x00008da5   Thumb Code    38  QtOrganizer.in(.text)
    QtMobility::QOrganizerAbstractRequest::isCanceled() const 0x00008dcb   Thumb Code    38  QtOrganizer.in(.text)
    QtMobility::QOrganizerAbstractRequest::error() const 0x00008df1   Thumb Code    28  QtOrganizer.in(.text)
    QtMobility::QOrganizerAbstractRequest::type() const 0x00008e0d   Thumb Code    34  QtOrganizer.in(.text)
    QtMobility::QOrganizerAbstractRequest::manager() const 0x00008e2f   Thumb Code    28  QtOrganizer.in(.text)
    QtMobility::QOrganizerAbstractRequest::setManager(QtMobility::QOrganizerManager*) 0x00008e4b   Thumb Code    86  QtOrganizer.in(.text)
    QtMobility::QOrganizerAbstractRequest::QOrganizerAbstractRequest(QtMobility::QOrganizerAbstractRequestPrivate*, QObject*) 0x00008ea1   Thumb Code    18  QtOrganizer.in(.text)
    QtMobility::QOrganizerAbstractRequest::QOrganizerAbstractRequest__sub_object(QtMobility::QOrganizerAbstractRequestPrivate*, QObject*) 0x00008ea1   Thumb Code     0  QtOrganizer.in(.text)
    QtMobility::QOrganizerItemChangeSet::QOrganizerItemChangeSet() 0x00008ebd   Thumb Code    84  QtOrganizer.in(.text)
    QtMobility::QOrganizerItemChangeSet::QOrganizerItemChangeSet__sub_object() 0x00008ebd   Thumb Code     0  QtOrganizer.in(.text)
    QtMobility::QOrganizerItemChangeSet::QOrganizerItemChangeSet(const QtMobility::QOrganizerItemChangeSet&) 0x00008f11   Thumb Code    20  QtOrganizer.in(.text)
    QtMobility::QOrganizerItemChangeSet::QOrganizerItemChangeSet__sub_object(const QtMobility::QOrganizerItemChangeSet&) 0x00008f11   Thumb Code     0  QtOrganizer.in(.text)
    QtMobility::QOrganizerItemChangeSet::~QOrganizerItemChangeSet() 0x00008f25   Thumb Code     8  QtOrganizer.in(.text)
    QtMobility::QOrganizerItemChangeSet::~QOrganizerItemChangeSet__sub_object() 0x00008f25   Thumb Code     0  QtOrganizer.in(.text)
    QtMobility::QOrganizerItemChangeSet::operator =(const QtMobility::QOrganizerItemChangeSet&) 0x00008f2d   Thumb Code    56  QtOrganizer.in(.text)
    QtMobility::QOrganizerItemChangeSet::setDataChanged(bool) 0x00008f65   Thumb Code    12  QtOrganizer.in(.text)
    QtMobility::QOrganizerItemChangeSet::dataChanged() 0x00008f71   Thumb Code    10  QtOrganizer.in(.text)
    QtMobility::QOrganizerItemChangeSet::addedItems() const 0x00008f7b   Thumb Code    12  QtOrganizer.in(.text)
    QtMobility::QOrganizerItemChangeSet::insertAddedItem(const QtMobility::QOrganizerItemId&) 0x00008f87   Thumb Code    22  QtOrganizer.in(.text)
    QtMobility::QOrganizerItemChangeSet::insertAddedItems(const QList<QtMobility::QOrganizerItemId>&) 0x00008f9d   Thumb Code    80  QtOrganizer.in(.text)
    QtMobility::QOrganizerItemChangeSet::clearAddedItems() 0x00008fed   Thumb Code    14  QtOrganizer.in(.text)
    QtMobility::QOrganizerItemChangeSet::changedItems() const 0x00008ffb   Thumb Code    12  QtOrganizer.in(.text)
    QtMobility::QOrganizerItemChangeSet::insertChangedItem(const QtMobility::QOrganizerItemId&) 0x00009007   Thumb Code    22  QtOrganizer.in(.text)
    QtMobility::QOrganizerItemChangeSet::insertChangedItems(const QList<QtMobility::QOrganizerItemId>&) 0x0000901d   Thumb Code    78  QtOrganizer.in(.text)
    QtMobility::QOrganizerItemChangeSet::clearChangedItems() 0x0000906b   Thumb Code    14  QtOrganizer.in(.text)
    QtMobility::QOrganizerItemChangeSet::removedItems() const 0x00009079   Thumb Code    12  QtOrganizer.in(.text)
    QtMobility::QOrganizerItemChangeSet::insertRemovedItem(const QtMobility::QOrganizerItemId&) 0x00009085   Thumb Code    22  QtOrganizer.in(.text)
    QtMobility::QOrganizerItemChangeSet::insertRemovedItems(const QList<QtMobility::QOrganizerItemId>&) 0x0000909b   Thumb Code    78  QtOrganizer.in(.text)
    QtMobility::QOrganizerItemChangeSet::clearRemovedItems() 0x000090e9   Thumb Code    14  QtOrganizer.in(.text)
    QtMobility::QOrganizerItemChangeSet::clearAll() 0x000090f7   Thumb Code    50  QtOrganizer.in(.text)
    QtMobility::QOrganizerItemChangeSet::emitSignals(QtMobility::QOrganizerManagerEngine*) 0x00009129   Thumb Code   168  QtOrganizer.in(.text)
    QtMobility::QOrganizerItem::clearDetails() 0x000091d1   Thumb Code   164  QtOrganizer.in(.text)
    QtMobility::QOrganizerItem::QOrganizerItem() 0x00009275   Thumb Code    52  QtOrganizer.in(.text)
    QtMobility::QOrganizerItem::QOrganizerItem__sub_object() 0x00009275   Thumb Code     0  QtOrganizer.in(.text)
    QtMobility::QOrganizerItem::~QOrganizerItem() 0x000092a9   Thumb Code     8  QtOrganizer.in(.text)
    QtMobility::QOrganizerItem::~QOrganizerItem__sub_object() 0x000092a9   Thumb Code     0  QtOrganizer.in(.text)
    QtMobility::QOrganizerItem::QOrganizerItem(const QtMobility::QOrganizerItem&) 0x000092b1   Thumb Code    20  QtOrganizer.in(.text)
    QtMobility::QOrganizerItem::QOrganizerItem__sub_object(const QtMobility::QOrganizerItem&) 0x000092b1   Thumb Code     0  QtOrganizer.in(.text)
    QtMobility::QOrganizerItem::operator =(const QtMobility::QOrganizerItem&) 0x000092c5   Thumb Code    12  QtOrganizer.in(.text)
    QtMobility::QOrganizerItem::operator ==(const QtMobility::QOrganizerItem&) const 0x000092d1   Thumb Code   126  QtOrganizer.in(.text)
    QtMobility::QOrganizerItem::id() const   0x0000934f   Thumb Code    12  QtOrganizer.in(.text)
    QtMobility::QOrganizerItem::setId(const QtMobility::QOrganizerItemId&) 0x0000935b   Thumb Code    18  QtOrganizer.in(.text)
    QtMobility::QOrganizerItem::collectionId() const 0x0000936d   Thumb Code    12  QtOrganizer.in(.text)
    QtMobility::QOrganizerItem::setCollectionId(const QtMobility::QOrganizerCollectionId&) 0x00009379   Thumb Code    18  QtOrganizer.in(.text)
    QtMobility::QOrganizerItem::isEmpty() const 0x0000938b   Thumb Code    22  QtOrganizer.in(.text)
    QtMobility::QOrganizerItem::detail(const QString&) const 0x000093a1   Thumb Code    90  QtOrganizer.in(.text)
    QtMobility::QOrganizerItem::details(const QString&) const 0x000093fb   Thumb Code    88  QtOrganizer.in(.text)
    QtMobility::QOrganizerItem::details(const QString&, const QString&, const QString&) const 0x00009453   Thumb Code   164  QtOrganizer.in(.text)
    QtMobility::QOrganizerItem::detail(const char*) const 0x000094f7   Thumb Code    82  QtOrganizer.in(.text)
    QtMobility::QOrganizerItem::details(const char*) const 0x00009549   Thumb Code    88  QtOrganizer.in(.text)
    QtMobility::QOrganizerItem::details(const char*, const char*, const QString&) const 0x000095a1   Thumb Code   158  QtOrganizer.in(.text)
    QtMobility::QOrganizerItem::saveDetail(QtMobility::QOrganizerItemDetail*) 0x0000963f   Thumb Code   636  QtOrganizer.in(.text)
    QtMobility::QOrganizerItem::removeDetail(QtMobility::QOrganizerItemDetail*) 0x000098bb   Thumb Code   228  QtOrganizer.in(.text)
    QtMobility::QOrganizerItem::type() const 0x0000999f   Thumb Code    26  QtOrganizer.in(.text)
    QtMobility::QOrganizerItem::setType(const QString&) 0x000099b9   Thumb Code    76  QtOrganizer.in(.text)
    QtMobility::QOrganizerItem::setType(const QtMobility::QOrganizerItemType&) 0x00009a05   Thumb Code    64  QtOrganizer.in(.text)
    QtMobility::QOrganizerItem::displayLabel() const 0x00009a45   Thumb Code    26  QtOrganizer.in(.text)
    QtMobility::QOrganizerItem::setDisplayLabel(const QString&) 0x00009a5f   Thumb Code    38  QtOrganizer.in(.text)
    QtMobility::QOrganizerItem::setDisplayLabel(const QtMobility::QOrganizerItemDisplayLabel&) 0x00009a85   Thumb Code    52  QtOrganizer.in(.text)
    QtMobility::QOrganizerItem::description() const 0x00009ab9   Thumb Code    26  QtOrganizer.in(.text)
    QtMobility::QOrganizerItem::setDescription(const QString&) 0x00009ad3   Thumb Code    38  QtOrganizer.in(.text)
    QtMobility::QOrganizerItem::setDescription(const QtMobility::QOrganizerItemDescription&) 0x00009af9   Thumb Code    52  QtOrganizer.in(.text)
    QtMobility::QOrganizerItem::comments() const 0x00009b2d   Thumb Code   110  QtOrganizer.in(.text)
    QtMobility::QOrganizerItem::clearComments() 0x00009b9b   Thumb Code   100  QtOrganizer.in(.text)
    QtMobility::QOrganizerItem::addComment(const QString&) 0x00009bff   Thumb Code    58  QtOrganizer.in(.text)
    QtMobility::QOrganizerItem::guid() const 0x00009c39   Thumb Code    28  QtOrganizer.in(.text)
    QtMobility::QOrganizerItem::setGuid(const QString&) 0x00009c55   Thumb Code    56  QtOrganizer.in(.text)
    QtMobility::QOrganizerItem::QOrganizerItem(const char*) 0x00009c8d   Thumb Code    80  QtOrganizer.in(.text)
    QtMobility::QOrganizerItem::QOrganizerItem__sub_object(const char*) 0x00009c8d   Thumb Code     0  QtOrganizer.in(.text)
    QtMobility::QOrganizerItem::QOrganizerItem(const QtMobility::QOrganizerItem&, const char*) 0x00009cdd   Thumb Code   134  QtOrganizer.in(.text)
    QtMobility::QOrganizerItem::QOrganizerItem__sub_object(const QtMobility::QOrganizerItem&, const char*) 0x00009cdd   Thumb Code     0  QtOrganizer.in(.text)
    QtMobility::QOrganizerItem::assign(const QtMobility::QOrganizerItem&, const char*) 0x00009d63   Thumb Code   134  QtOrganizer.in(.text)
    QtMobility::qHash(const QtMobility::QOrganizerItem&) 0x00009de9   Thumb Code   144  QtOrganizer.in(.text)
    QtMobility::operator <<(QDebug, const QtMobility::QOrganizerItem&) 0x00009e79   Thumb Code   346  QtOrganizer.in(.text)
    QtMobility::operator <<(QDataStream&, const QtMobility::QOrganizerItem&) 0x00009fd3   Thumb Code   162  QtOrganizer.in(.text)
    QtMobility::operator >>(QDataStream&, QtMobility::QOrganizerItem&) 0x0000a075   Thumb Code   172  QtOrganizer.in(.text)
    QtMobility::QOrganizerItemDetail::QOrganizerItemDetail() 0x0000a121   Thumb Code    42  QtOrganizer.in(.text)
    QtMobility::QOrganizerItemDetail::QOrganizerItemDetail__sub_object() 0x0000a121   Thumb Code     0  QtOrganizer.in(.text)
    QtMobility::QOrganizerItemDetail::QOrganizerItemDetail(const char*) 0x0000a14b   Thumb Code    54  QtOrganizer.in(.text)
    QtMobility::QOrganizerItemDetail::QOrganizerItemDetail__sub_object(const char*) 0x0000a14b   Thumb Code     0  QtOrganizer.in(.text)
    QtMobility::QOrganizerItemDetail::QOrganizerItemDetail(const QString&) 0x0000a181   Thumb Code    60  QtOrganizer.in(.text)
    QtMobility::QOrganizerItemDetail::QOrganizerItemDetail__sub_object(const QString&) 0x0000a181   Thumb Code     0  QtOrganizer.in(.text)
    QtMobility::QOrganizerItemDetail::~QOrganizerItemDetail() 0x0000a1bd   Thumb Code     8  QtOrganizer.in(.text)
    QtMobility::QOrganizerItemDetail::~QOrganizerItemDetail__sub_object() 0x0000a1bd   Thumb Code     0  QtOrganizer.in(.text)
    QtMobility::QOrganizerItemDetail::QOrganizerItemDetail(const QtMobility::QOrganizerItemDetail&) 0x0000a1c5   Thumb Code    20  QtOrganizer.in(.text)
    QtMobility::QOrganizerItemDetail::QOrganizerItemDetail__sub_object(const QtMobility::QOrganizerItemDetail&) 0x0000a1c5   Thumb Code     0  QtOrganizer.in(.text)
    QtMobility::QOrganizerItemDetail::operator =(const QtMobility::QOrganizerItemDetail&) 0x0000a1d9   Thumb Code    18  QtOrganizer.in(.text)
    QtMobility::QOrganizerItemDetail::accessConstraints() const 0x0000a1eb   Thumb Code     8  QtOrganizer.in(.text)
    QtMobility::qHash(const QtMobility::QOrganizerItemStringHolder&) 0x0000a1f3   Thumb Code    40  QtOrganizer.in(.text)
    QtMobility::QOrganizerItemDetail::QOrganizerItemDetail(const QtMobility::QOrganizerItemDetail&, const char*) 0x0000a21b   Thumb Code    84  QtOrganizer.in(.text)
    QtMobility::QOrganizerItemDetail::QOrganizerItemDetail__sub_object(const QtMobility::QOrganizerItemDetail&, const char*) 0x0000a21b   Thumb Code     0  QtOrganizer.in(.text)
    QtMobility::QOrganizerItemDetail::operator ==(const QtMobility::QOrganizerItemDetail&) const 0x0000a26f   Thumb Code   134  QtOrganizer.in(.text)
    QtMobility::QOrganizerItemDetail::definitionName() const 0x0000a2f5   Thumb Code    12  QtOrganizer.in(.text)
    QtMobility::QOrganizerItemDetail::isEmpty() const 0x0000a301   Thumb Code    22  QtOrganizer.in(.text)
    QtMobility::QOrganizerItemDetail::key() const 0x0000a317   Thumb Code     6  QtOrganizer.in(.text)
    QtMobility::QOrganizerItemDetail::resetKey() 0x0000a31d   Thumb Code    24  QtOrganizer.in(.text)
    QtMobility::QOrganizerItemDetail::value(const QString&) const 0x0000a335   Thumb Code    46  QtOrganizer.in(.text)
    QtMobility::QOrganizerItemDetail::removeValue(const QString&) 0x0000a363   Thumb Code    38  QtOrganizer.in(.text)
    QtMobility::QOrganizerItemDetail::setValue(const QString&, const QVariant&) 0x0000a389   Thumb Code    58  QtOrganizer.in(.text)
    QtMobility::QOrganizerItemDetail::hasValue(const QString&) const 0x0000a3c3   Thumb Code    22  QtOrganizer.in(.text)
    QtMobility::QOrganizerItemDetail::variantValues() const 0x0000a3d9   Thumb Code   120  QtOrganizer.in(.text)
    QtMobility::QOrganizerItemDetail::variantValue(const QString&) const 0x0000a451   Thumb Code    28  QtOrganizer.in(.text)
    QtMobility::QOrganizerItemDetail::value(const char*) const 0x0000a46d   Thumb Code    38  QtOrganizer.in(.text)
    QtMobility::QOrganizerItemDetail::removeValue(const char*) 0x0000a493   Thumb Code    30  QtOrganizer.in(.text)
    QtMobility::QOrganizerItemDetail::setValue(const char*, const QVariant&) 0x0000a4b1   Thumb Code    52  QtOrganizer.in(.text)
    QtMobility::QOrganizerItemDetail::hasValue(const char*) const 0x0000a4e5   Thumb Code    16  QtOrganizer.in(.text)
    QtMobility::QOrganizerItemDetail::variantValue(const char*) const 0x0000a4f5   Thumb Code    16  QtOrganizer.in(.text)
    QtMobility::QOrganizerItemDetail::QOrganizerItemDetail(const QtMobility::QOrganizerItemDetail&, const QString&) 0x0000a505   Thumb Code    90  QtOrganizer.in(.text)
    QtMobility::QOrganizerItemDetail::QOrganizerItemDetail__sub_object(const QtMobility::QOrganizerItemDetail&, const QString&) 0x0000a505   Thumb Code     0  QtOrganizer.in(.text)
    QtMobility::QOrganizerItemDetail::assign(const QtMobility::QOrganizerItemDetail&, const QString&) 0x0000a55f   Thumb Code    90  QtOrganizer.in(.text)
    QtMobility::QOrganizerItemDetail::assign(const QtMobility::QOrganizerItemDetail&, const char*) 0x0000a5b9   Thumb Code    84  QtOrganizer.in(.text)
    QtMobility::qHash(const QtMobility::QOrganizerItemDetail&) 0x0000a6c9   Thumb Code    94  QtOrganizer.in(.text)
    QtMobility::operator <<(QDebug, const QtMobility::QOrganizerItemDetail&) 0x0000a727   Thumb Code   194  QtOrganizer.in(.text)
    QtMobility::operator <<(QDataStream&, const QtMobility::QOrganizerItemDetail&) 0x0000a7e9   Thumb Code    70  QtOrganizer.in(.text)
    QtMobility::operator >>(QDataStream&, QtMobility::QOrganizerItemDetail&) 0x0000a82f   Thumb Code   196  QtOrganizer.in(.text)
    QtMobility::QOrganizerItemDetailDefinition::QOrganizerItemDetailDefinition() 0x0000a965   Thumb Code    68  QtOrganizer.in(.text)
    QtMobility::QOrganizerItemDetailDefinition::QOrganizerItemDetailDefinition__sub_object() 0x0000a965   Thumb Code     0  QtOrganizer.in(.text)
    QtMobility::QOrganizerItemDetailDefinition::~QOrganizerItemDetailDefinition() 0x0000a9a9   Thumb Code     8  QtOrganizer.in(.text)
    QtMobility::QOrganizerItemDetailDefinition::~QOrganizerItemDetailDefinition__sub_object() 0x0000a9a9   Thumb Code     0  QtOrganizer.in(.text)
    QtMobility::QOrganizerItemDetailDefinition::QOrganizerItemDetailDefinition(const QtMobility::QOrganizerItemDetailDefinition&) 0x0000a9b1   Thumb Code    20  QtOrganizer.in(.text)
    QtMobility::QOrganizerItemDetailDefinition::QOrganizerItemDetailDefinition__sub_object(const QtMobility::QOrganizerItemDetailDefinition&) 0x0000a9b1   Thumb Code     0  QtOrganizer.in(.text)
    QtMobility::QOrganizerItemDetailDefinition::operator =(const QtMobility::QOrganizerItemDetailDefinition&) 0x0000a9c5   Thumb Code    56  QtOrganizer.in(.text)
    QtMobility::QOrganizerItemDetailDefinition::operator ==(const QtMobility::QOrganizerItemDetailDefinition&) const 0x0000a9fd   Thumb Code    58  QtOrganizer.in(.text)
    QtMobility::QOrganizerItemDetailDefinition::isEmpty() const 0x0000aa37   Thumb Code    26  QtOrganizer.in(.text)
    QtMobility::QOrganizerItemDetailDefinition::setName(const QString&) 0x0000aa51   Thumb Code    18  QtOrganizer.in(.text)
    QtMobility::QOrganizerItemDetailDefinition::name() const 0x0000aa63   Thumb Code    12  QtOrganizer.in(.text)
    QtMobility::QOrganizerItemDetailDefinition::setUnique(bool) 0x0000aa6f   Thumb Code    12  QtOrganizer.in(.text)
    QtMobility::QOrganizerItemDetailDefinition::isUnique() const 0x0000aa7b   Thumb Code     6  QtOrganizer.in(.text)
    QtMobility::QOrganizerItemDetailDefinition::setFields(const QMap<QString, QtMobility::QOrganizerItemDetailFieldDefinition>&) 0x0000aa81   Thumb Code    18  QtOrganizer.in(.text)
    QtMobility::QOrganizerItemDetailDefinition::fields() const 0x0000aa93   Thumb Code    12  QtOrganizer.in(.text)
    QtMobility::QOrganizerItemDetailDefinition::insertField(const QString&, const QtMobility::QOrganizerItemDetailFieldDefinition&) 0x0000aa9f   Thumb Code    64  QtOrganizer.in(.text)
    QtMobility::QOrganizerItemDetailDefinition::removeField(const QString&) 0x0000aadf   Thumb Code    18  QtOrganizer.in(.text)
    QtMobility::operator <<(QDataStream&, const QtMobility::QOrganizerItemDetailDefinition&) 0x0000aaf1   Thumb Code    68  QtOrganizer.in(.text)
    QtMobility::operator >>(QDataStream&, QtMobility::QOrganizerItemDetailDefinition&) 0x0000ab35   Thumb Code   106  QtOrganizer.in(.text)
    QtMobility::QOrganizerItemDetailFieldDefinition::QOrganizerItemDetailFieldDefinition() 0x0000ab9f   Thumb Code    56  QtOrganizer.in(.text)
    QtMobility::QOrganizerItemDetailFieldDefinition::QOrganizerItemDetailFieldDefinition__sub_object() 0x0000ab9f   Thumb Code     0  QtOrganizer.in(.text)
    QtMobility::QOrganizerItemDetailFieldDefinition::~QOrganizerItemDetailFieldDefinition() 0x0000abd7   Thumb Code     8  QtOrganizer.in(.text)
    QtMobility::QOrganizerItemDetailFieldDefinition::~QOrganizerItemDetailFieldDefinition__sub_object() 0x0000abd7   Thumb Code     0  QtOrganizer.in(.text)
    QtMobility::QOrganizerItemDetailFieldDefinition::QOrganizerItemDetailFieldDefinition(const QtMobility::QOrganizerItemDetailFieldDefinition&) 0x0000abdf   Thumb Code    20  QtOrganizer.in(.text)
    QtMobility::QOrganizerItemDetailFieldDefinition::QOrganizerItemDetailFieldDefinition__sub_object(const QtMobility::QOrganizerItemDetailFieldDefinition&) 0x0000abdf   Thumb Code     0  QtOrganizer.in(.text)
    QtMobility::QOrganizerItemDetailFieldDefinition::operator =(const QtMobility::QOrganizerItemDetailFieldDefinition&) 0x0000abf3   Thumb Code    56  QtOrganizer.in(.text)
    QtMobility::QOrganizerItemDetailFieldDefinition::dataType() const 0x0000ac2b   Thumb Code     6  QtOrganizer.in(.text)
    QtMobility::QOrganizerItemDetailFieldDefinition::setDataType(int) 0x0000ac31   Thumb Code    12  QtOrganizer.in(.text)
    QtMobility::QOrganizerItemDetailFieldDefinition::allowableValues() const 0x0000ac3d   Thumb Code    12  QtOrganizer.in(.text)
    QtMobility::QOrganizerItemDetailFieldDefinition::setAllowableValues(QList<QVariant>) 0x0000ac49   Thumb Code    18  QtOrganizer.in(.text)
    QtMobility::QOrganizerItemDetailFieldDefinition::operator ==(const QtMobility::QOrganizerItemDetailFieldDefinition&) const 0x0000ac5b   Thumb Code   126  QtOrganizer.in(.text)
    QtMobility::QOrganizerItemDetailFieldDefinition::operator !=(const QtMobility::QOrganizerItemDetailFieldDefinition&) const 0x0000acd9   Thumb Code    12  QtOrganizer.in(.text)
    QtMobility::operator <<(QDataStream&, const QtMobility::QOrganizerItemDetailFieldDefinition&) 0x0000ace5   Thumb Code    90  QtOrganizer.in(.text)
    QtMobility::operator >>(QDataStream&, QtMobility::QOrganizerItemDetailFieldDefinition&) 0x0000ad3f   Thumb Code    92  QtOrganizer.in(.text)
    QtMobility::QOrganizerItemFetchHint::QOrganizerItemFetchHint() 0x0000ad9b   Thumb Code    56  QtOrganizer.in(.text)
    QtMobility::QOrganizerItemFetchHint::QOrganizerItemFetchHint__sub_object() 0x0000ad9b   Thumb Code     0  QtOrganizer.in(.text)
    QtMobility::QOrganizerItemFetchHint::QOrganizerItemFetchHint(const QtMobility::QOrganizerItemFetchHint&) 0x0000add3   Thumb Code    20  QtOrganizer.in(.text)
    QtMobility::QOrganizerItemFetchHint::QOrganizerItemFetchHint__sub_object(const QtMobility::QOrganizerItemFetchHint&) 0x0000add3   Thumb Code     0  QtOrganizer.in(.text)
    QtMobility::QOrganizerItemFetchHint::~QOrganizerItemFetchHint() 0x0000ade7   Thumb Code     8  QtOrganizer.in(.text)
    QtMobility::QOrganizerItemFetchHint::~QOrganizerItemFetchHint__sub_object() 0x0000ade7   Thumb Code     0  QtOrganizer.in(.text)
    QtMobility::QOrganizerItemFetchHint::operator =(const QtMobility::QOrganizerItemFetchHint&) 0x0000adef   Thumb Code    56  QtOrganizer.in(.text)
    QtMobility::QOrganizerItemFetchHint::detailDefinitionsHint() const 0x0000ae27   Thumb Code    12  QtOrganizer.in(.text)
    QtMobility::QOrganizerItemFetchHint::setDetailDefinitionsHint(const QStringList&) 0x0000ae33   Thumb Code    18  QtOrganizer.in(.text)
    QtMobility::QOrganizerItemFetchHint::optimizationHints() const 0x0000ae45   Thumb Code     8  QtOrganizer.in(.text)
    QtMobility::QOrganizerItemFetchHint::setOptimizationHints(QFlags<QtMobility::QOrganizerItemFetchHint::OptimizationHint>) 0x0000ae4d   Thumb Code    14  QtOrganizer.in(.text)
    QtMobility::operator <<(QDataStream&, const QtMobility::QOrganizerItemFetchHint&) 0x0000ae5b   Thumb Code    94  QtOrganizer.in(.text)
    QtMobility::operator >>(QDataStream&, QtMobility::QOrganizerItemFetchHint&) 0x0000aeb9   Thumb Code    82  QtOrganizer.in(.text)
    QtMobility::QOrganizerItemFilter::QOrganizerItemFilter() 0x0000af0b   Thumb Code    10  QtOrganizer.in(.text)
    QtMobility::QOrganizerItemFilter::QOrganizerItemFilter__sub_object() 0x0000af0b   Thumb Code     0  QtOrganizer.in(.text)
    QtMobility::QOrganizerItemFilter::~QOrganizerItemFilter() 0x0000af15   Thumb Code     8  QtOrganizer.in(.text)
    QtMobility::QOrganizerItemFilter::~QOrganizerItemFilter__sub_object() 0x0000af15   Thumb Code     0  QtOrganizer.in(.text)
    QtMobility::QOrganizerItemFilter::QOrganizerItemFilter(const QtMobility::QOrganizerItemFilter&) 0x0000af1d   Thumb Code    22  QtOrganizer.in(.text)
    QtMobility::QOrganizerItemFilter::QOrganizerItemFilter__sub_object(const QtMobility::QOrganizerItemFilter&) 0x0000af1d   Thumb Code     0  QtOrganizer.in(.text)
    QtMobility::QOrganizerItemFilter::operator =(const QtMobility::QOrganizerItemFilter&) 0x0000af33   Thumb Code    60  QtOrganizer.in(.text)
    QtMobility::QOrganizerItemFilter::type() const 0x0000af6f   Thumb Code    16  QtOrganizer.in(.text)
    QtMobility::QOrganizerItemFilter::operator ==(const QtMobility::QOrganizerItemFilter&) const 0x0000af7f   Thumb Code    56  QtOrganizer.in(.text)
    QtMobility::QOrganizerItemFilter::QOrganizerItemFilter(QtMobility::QOrganizerItemFilterPrivate*) 0x0000afb7   Thumb Code     8  QtOrganizer.in(.text)
    QtMobility::QOrganizerItemFilter::QOrganizerItemFilter__sub_object(QtMobility::QOrganizerItemFilterPrivate*) 0x0000afb7   Thumb Code     0  QtOrganizer.in(.text)
    QtMobility::operator <<(QDataStream&, const QtMobility::QOrganizerItemFilter&) 0x0000afbf   Thumb Code    50  QtOrganizer.in(.text)
    QtMobility::operator >>(QDataStream&, QtMobility::QOrganizerItemFilter&) 0x0000aff1   Thumb Code   274  QtOrganizer.in(.text)
    QtMobility::operator &(const QtMobility::QOrganizerItemFilter&, const QtMobility::QOrganizerItemFilter&) 0x0000b103   Thumb Code    44  QtOrganizer.in(.text)
    QtMobility::operator |(const QtMobility::QOrganizerItemFilter&, const QtMobility::QOrganizerItemFilter&) 0x0000b12f   Thumb Code   118  QtOrganizer.in(.text)
    QtMobility::QOrganizerItemId::QOrganizerItemId() 0x0000b1a5   Thumb Code    10  QtOrganizer.in(.text)
    QtMobility::QOrganizerItemId::QOrganizerItemId__sub_object() 0x0000b1a5   Thumb Code     0  QtOrganizer.in(.text)
    QtMobility::QOrganizerItemId::QOrganizerItemId(QtMobility::QOrganizerItemEngineId*) 0x0000b1af   Thumb Code     8  QtOrganizer.in(.text)
    QtMobility::QOrganizerItemId::QOrganizerItemId__sub_object(QtMobility::QOrganizerItemEngineId*) 0x0000b1af   Thumb Code     0  QtOrganizer.in(.text)
    QtMobility::QOrganizerItemId::~QOrganizerItemId() 0x0000b1b7   Thumb Code     8  QtOrganizer.in(.text)
    QtMobility::QOrganizerItemId::~QOrganizerItemId__sub_object() 0x0000b1b7   Thumb Code     0  QtOrganizer.in(.text)
    QtMobility::QOrganizerItemId::QOrganizerItemId(const QtMobility::QOrganizerItemId&) 0x0000b1bf   Thumb Code    22  QtOrganizer.in(.text)
    QtMobility::QOrganizerItemId::QOrganizerItemId__sub_object(const QtMobility::QOrganizerItemId&) 0x0000b1bf   Thumb Code     0  QtOrganizer.in(.text)
    QtMobility::QOrganizerItemId::operator =(const QtMobility::QOrganizerItemId&) 0x0000b1d5   Thumb Code    56  QtOrganizer.in(.text)
    QtMobility::QOrganizerItemId::operator ==(const QtMobility::QOrganizerItemId&) const 0x0000b20d   Thumb Code    92  QtOrganizer.in(.text)
    QtMobility::QOrganizerItemId::operator !=(const QtMobility::QOrganizerItemId&) const 0x0000b269   Thumb Code    12  QtOrganizer.in(.text)
    QtMobility::QOrganizerItemId::operator <(const QtMobility::QOrganizerItemId&) const 0x0000b275   Thumb Code   138  QtOrganizer.in(.text)
    QtMobility::QOrganizerItemId::isNull() const 0x0000b2ff   Thumb Code    14  QtOrganizer.in(.text)
    QtMobility::QOrganizerItemId::managerUri() const 0x0000b30d   Thumb Code    66  QtOrganizer.in(.text)
    QtMobility::QOrganizerItemId::toString() const 0x0000b34f   Thumb Code   110  QtOrganizer.in(.text)
    QtMobility::QOrganizerItemId::fromString(const QString&) 0x0000b3bd   Thumb Code    88  QtOrganizer.in(.text)
    QtMobility::qHash(const QtMobility::QOrganizerItemId&) 0x0000b415   Thumb Code    16  QtOrganizer.in(.text)
    QtMobility::operator <<(QDebug, const QtMobility::QOrganizerItemId&) 0x0000b425   Thumb Code    76  QtOrganizer.in(.text)
    QtMobility::operator <<(QDataStream&, const QtMobility::QOrganizerItemId&) 0x0000b471   Thumb Code    28  QtOrganizer.in(.text)
    QtMobility::operator >>(QDataStream&, QtMobility::QOrganizerItemId&) 0x0000b48d   Thumb Code    52  QtOrganizer.in(.text)
    QtMobility::QOrganizerManager::getStaticMetaObject() 0x0000b4e1   Thumb Code     4  QtOrganizer.in(.text)
    QtMobility::QOrganizerManager::metaObject() const 0x0000b4e5   Thumb Code    12  QtOrganizer.in(.text)
    QtMobility::QOrganizerManager::qt_metacast(const char*) 0x0000b4f1   Thumb Code    40  QtOrganizer.in(.text)
    QtMobility::QOrganizerManager::collectionsRemoved(const QList<QtMobility::QOrganizerCollectionId>&) 0x0000b519   Thumb Code    24  QtOrganizer.in(.text)
    QtMobility::QOrganizerManager::collectionsChanged(const QList<QtMobility::QOrganizerCollectionId>&) 0x0000b531   Thumb Code    24  QtOrganizer.in(.text)
    QtMobility::QOrganizerManager::collectionsAdded(const QList<QtMobility::QOrganizerCollectionId>&) 0x0000b549   Thumb Code    24  QtOrganizer.in(.text)
    QtMobility::QOrganizerManager::itemsRemoved(const QList<QtMobility::QOrganizerItemId>&) 0x0000b561   Thumb Code    24  QtOrganizer.in(.text)
    QtMobility::QOrganizerManager::itemsChanged(const QList<QtMobility::QOrganizerItemId>&) 0x0000b579   Thumb Code    24  QtOrganizer.in(.text)
    QtMobility::QOrganizerManager::itemsAdded(const QList<QtMobility::QOrganizerItemId>&) 0x0000b591   Thumb Code    24  QtOrganizer.in(.text)
    QtMobility::QOrganizerManager::dataChanged() 0x0000b5a9   Thumb Code    14  QtOrganizer.in(.text)
    QtMobility::QOrganizerManager::qt_metacall(QMetaObject::Call, int, void**) 0x0000b5b7   Thumb Code   108  QtOrganizer.in(.text)
    QtMobility::QOrganizerManager::createEngine(const QString&, const QMap<QString, QString>&) 0x0000b623   Thumb Code   434  QtOrganizer.in(.text)
    QtMobility::QOrganizerManager::QOrganizerManager(const QString&, const QMap<QString, QString>&, QObject*) 0x0000b7d5   Thumb Code    54  QtOrganizer.in(.text)
    QtMobility::QOrganizerManager::QOrganizerManager__sub_object(const QString&, const QMap<QString, QString>&, QObject*) 0x0000b7d5   Thumb Code     0  QtOrganizer.in(.text)
    QtMobility::QOrganizerManager::QOrganizerManager(const QString&, int, const QMap<QString, QString>&, QObject*) 0x0000b80b   Thumb Code   184  QtOrganizer.in(.text)
    QtMobility::QOrganizerManager::QOrganizerManager__sub_object(const QString&, int, const QMap<QString, QString>&, QObject*) 0x0000b80b   Thumb Code     0  QtOrganizer.in(.text)
    QtMobility::QOrganizerManager::QOrganizerManager(QObject*) 0x0000b8c3   Thumb Code    74  QtOrganizer.in(.text)
    QtMobility::QOrganizerManager::QOrganizerManager__sub_object(QObject*) 0x0000b8c3   Thumb Code     0  QtOrganizer.in(.text)
    QtMobility::QOrganizerManager::parseUri(const QString&, QString*, QMap<QString, QString>*) 0x0000b90d   Thumb Code   808  QtOrganizer.in(.text)
    QtMobility::QOrganizerManager::fromUri(const QString&, QObject*) 0x0000bc35   Thumb Code   268  QtOrganizer.in(.text)
    QtMobility::QOrganizerManager::~QOrganizerManager() 0x0000bd41   Thumb Code    48  QtOrganizer.in(.text)
    QtMobility::QOrganizerManager::~QOrganizerManager__sub_object() 0x0000bd41   Thumb Code     0  QtOrganizer.in(.text)
    QtMobility::QOrganizerManager::~QOrganizerManager__deallocating() 0x0000bd71   Thumb Code    16  QtOrganizer.in(.text)
    QtMobility::QOrganizerManager::managerName() const 0x0000bd81   Thumb Code    10  QtOrganizer.in(.text)
    QtMobility::QOrganizerManager::managerParameters() const 0x0000bd8b   Thumb Code    70  QtOrganizer.in(.text)
    QtMobility::QOrganizerManager::managerUri() const 0x0000bdd1   Thumb Code    12  QtOrganizer.in(.text)
    QtMobility::QOrganizerManager::managerVersion() const 0x0000bddd   Thumb Code    10  QtOrganizer.in(.text)
    QtMobility::QOrganizerManager::buildUri(const QString&, const QMap<QString, QString>&, int) 0x0000bde7   Thumb Code   574  QtOrganizer.in(.text)
    QtMobility::QOrganizerManager::error() const 0x0000c025   Thumb Code     6  QtOrganizer.in(.text)
    QtMobility::QOrganizerManager::errorMap() const 0x0000c02b   Thumb Code    44  QtOrganizer.in(.text)
    QtMobility::QOrganizerManager::itemOccurrences(const QtMobility::QOrganizerItem&, const QDateTime&, const QDateTime&, int, const QtMobility::QOrganizerItemFetchHint&) const 0x0000c057   Thumb Code    60  QtOrganizer.in(.text)
    QtMobility::QOrganizerManager::itemIds(const QtMobility::QOrganizerItemFilter&, const QList<QtMobility::QOrganizerItemSortOrder>&) const 0x0000c093   Thumb Code   170  QtOrganizer.in(.text)
    QtMobility::QOrganizerManager::itemIds(const QDateTime&, const QDateTime&, const QtMobility::QOrganizerItemFilter&, const QList<QtMobility::QOrganizerItemSortOrder>&) const 0x0000c13d   Thumb Code    54  QtOrganizer.in(.text)
    QtMobility::QOrganizerManager::items(const QtMobility::QOrganizerItemFilter&, const QList<QtMobility::QOrganizerItemSortOrder>&, const QtMobility::QOrganizerItemFetchHint&) const 0x0000c173   Thumb Code    88  QtOrganizer.in(.text)
    QtMobility::QOrganizerManager::items(const QDateTime&, const QDateTime&, const QtMobility::QOrganizerItemFilter&, const QList<QtMobility::QOrganizerItemSortOrder>&, const QtMobility::QOrganizerItemFetchHint&) const 0x0000c1cb   Thumb Code    58  QtOrganizer.in(.text)
    QtMobility::QOrganizerManager::itemsForExport(const QDateTime&, const QDateTime&, const QtMobility::QOrganizerItemFilter&, const QList<QtMobility::QOrganizerItemSortOrder>&, const QtMobility::QOrganizerItemFetchHint&) const 0x0000c205   Thumb Code    58  QtOrganizer.in(.text)
    QtMobility::QOrganizerManager::item(const QtMobility::QOrganizerItemId&, const QtMobility::QOrganizerItemFetchHint&) const 0x0000c23f   Thumb Code    46  QtOrganizer.in(.text)
    QtMobility::QOrganizerManager::saveItem(QtMobility::QOrganizerItem*) 0x0000c26d   Thumb Code    50  QtOrganizer.in(.text)
    QtMobility::QOrganizerManager::saveItems(QList<QtMobility::QOrganizerItem>*) 0x0000c29f   Thumb Code    52  QtOrganizer.in(.text)
    QtMobility::QOrganizerManager::removeItem(const QtMobility::QOrganizerItemId&) 0x0000c2d3   Thumb Code    36  QtOrganizer.in(.text)
    QtMobility::QOrganizerManager::removeItems(const QList<QtMobility::QOrganizerItemId>&) 0x0000c2f7   Thumb Code    58  QtOrganizer.in(.text)
    QtMobility::QOrganizerManager::defaultCollection() const 0x0000c331   Thumb Code    36  QtOrganizer.in(.text)
    QtMobility::QOrganizerManager::collection(const QtMobility::QOrganizerCollectionId&) const 0x0000c355   Thumb Code    40  QtOrganizer.in(.text)
    QtMobility::QOrganizerManager::collections() const 0x0000c37d   Thumb Code    36  QtOrganizer.in(.text)
    QtMobility::QOrganizerManager::saveCollection(QtMobility::QOrganizerCollection*) 0x0000c3a1   Thumb Code    50  QtOrganizer.in(.text)
    QtMobility::QOrganizerManager::removeCollection(const QtMobility::QOrganizerCollectionId&) 0x0000c3d3   Thumb Code    36  QtOrganizer.in(.text)
    QtMobility::QOrganizerManager::compatibleItem(const QtMobility::QOrganizerItem&) const 0x0000c3f7   Thumb Code    40  QtOrganizer.in(.text)
    QtMobility::QOrganizerManager::compatibleCollection(const QtMobility::QOrganizerCollection&) const 0x0000c41f   Thumb Code    40  QtOrganizer.in(.text)
    QtMobility::QOrganizerManager::supportedItemTypes() const 0x0000c447   Thumb Code    12  QtOrganizer.in(.text)
    QtMobility::QOrganizerManager::detailDefinitions(const QString&) const 0x0000c453   Thumb Code   106  QtOrganizer.in(.text)
    QtMobility::QOrganizerManager::detailDefinition(const QString&, const QString&) const 0x0000c4bd   Thumb Code   108  QtOrganizer.in(.text)
    QtMobility::QOrganizerManager::saveDetailDefinition(const QtMobility::QOrganizerItemDetailDefinition&, const QString&) 0x0000c529   Thumb Code    98  QtOrganizer.in(.text)
    QtMobility::QOrganizerManager::removeDetailDefinition(const QString&, const QString&) 0x0000c58b   Thumb Code    98  QtOrganizer.in(.text)
    QtMobility::QOrganizerManager::hasFeature(QtMobility::QOrganizerManager::ManagerFeature, const QString&) const 0x0000c5ed   Thumb Code    12  QtOrganizer.in(.text)
    QtMobility::QOrganizerManager::isFilterSupported(const QtMobility::QOrganizerItemFilter&) const 0x0000c5f9   Thumb Code    12  QtOrganizer.in(.text)
    QtMobility::QOrganizerManager::availableManagers() 0x0000c605   Thumb Code   232  QtOrganizer.in(.text)
    QtMobility::QOrganizerManager::extractIds(const QList<QtMobility::QOrganizerItem>&) 0x0000c6ed   Thumb Code   160  QtOrganizer.in(.text)
    QtMobility::QOrganizerManagerEngine::getStaticMetaObject() 0x0000c7ad   Thumb Code     4  QtOrganizer.in(.text)
    QtMobility::QOrganizerManagerEngine::metaObject() const 0x0000c7b1   Thumb Code    12  QtOrganizer.in(.text)
    QtMobility::QOrganizerManagerEngine::qt_metacast(const char*) 0x0000c7bd   Thumb Code    40  QtOrganizer.in(.text)
    QtMobility::QOrganizerManagerEngine::collectionsRemoved(const QList<QtMobility::QOrganizerCollectionId>&) 0x0000c7e5   Thumb Code    24  QtOrganizer.in(.text)
    QtMobility::QOrganizerManagerEngine::collectionsChanged(const QList<QtMobility::QOrganizerCollectionId>&) 0x0000c7fd   Thumb Code    24  QtOrganizer.in(.text)
    QtMobility::QOrganizerManagerEngine::collectionsAdded(const QList<QtMobility::QOrganizerCollectionId>&) 0x0000c815   Thumb Code    24  QtOrganizer.in(.text)
    QtMobility::QOrganizerManagerEngine::itemsRemoved(const QList<QtMobility::QOrganizerItemId>&) 0x0000c82d   Thumb Code    24  QtOrganizer.in(.text)
    QtMobility::QOrganizerManagerEngine::itemsChanged(const QList<QtMobility::QOrganizerItemId>&) 0x0000c845   Thumb Code    24  QtOrganizer.in(.text)
    QtMobility::QOrganizerManagerEngine::itemsAdded(const QList<QtMobility::QOrganizerItemId>&) 0x0000c85d   Thumb Code    24  QtOrganizer.in(.text)
    QtMobility::QOrganizerManagerEngine::dataChanged() 0x0000c875   Thumb Code    14  QtOrganizer.in(.text)
    QtMobility::QOrganizerManagerEngine::qt_metacall(QMetaObject::Call, int, void**) 0x0000c883   Thumb Code   108  QtOrganizer.in(.text)
    QtMobility::QOrganizerManagerEngine::managerName() const 0x0000c8ef   Thumb Code    14  QtOrganizer.in(.text)
    QtMobility::QOrganizerManagerEngine::managerParameters() const 0x0000c8fd   Thumb Code    16  QtOrganizer.in(.text)
    QtMobility::QOrganizerManagerEngine::managerUri() const 0x0000c90d   Thumb Code   100  QtOrganizer.in(.text)
    QtMobility::QOrganizerManagerEngine::itemOccurrences(const QtMobility::QOrganizerItem&, const QDateTime&, const QDateTime&, int, const QtMobility::QOrganizerItemFetchHint&, QtMobility::QOrganizerManager::Error*) const 0x0000c971   Thumb Code    14  QtOrganizer.in(.text)
    QtMobility::QOrganizerManagerEngine::itemIds(const QDateTime&, const QDateTime&, const QtMobility::QOrganizerItemFilter&, const QList<QtMobility::QOrganizerItemSortOrder>&, QtMobility::QOrganizerManager::Error*) const 0x0000c97f   Thumb Code    14  QtOrganizer.in(.text)
    QtMobility::QOrganizerManagerEngine::items(const QDateTime&, const QDateTime&, const QtMobility::QOrganizerItemFilter&, const QList<QtMobility::QOrganizerItemSortOrder>&, const QtMobility::QOrganizerItemFetchHint&, QtMobility::QOrganizerManager::Error*) const 0x0000c98d   Thumb Code    14  QtOrganizer.in(.text)
    QtMobility::QOrganizerManagerEngine::itemsForExport(const QDateTime&, const QDateTime&, const QtMobility::QOrganizerItemFilter&, const QList<QtMobility::QOrganizerItemSortOrder>&, const QtMobility::QOrganizerItemFetchHint&, QtMobility::QOrganizerManager::Error*) const 0x0000c99b   Thumb Code    14  QtOrganizer.in(.text)
    QtMobility::QOrganizerManagerEngine::item(const QtMobility::QOrganizerItemId&, const QtMobility::QOrganizerItemFetchHint&, QtMobility::QOrganizerManager::Error*) const 0x0000c9a9   Thumb Code    14  QtOrganizer.in(.text)
    QtMobility::QOrganizerManagerEngine::saveItem(QtMobility::QOrganizerItem*, QtMobility::QOrganizerManager::Error*) 0x0000c9b7   Thumb Code   148  QtOrganizer.in(.text)
    QtMobility::QOrganizerManagerEngine::removeItem(const QtMobility::QOrganizerItemId&, QtMobility::QOrganizerManager::Error*) 0x0000ca4b   Thumb Code    82  QtOrganizer.in(.text)
    QtMobility::QOrganizerManagerEngine::saveItems(QList<QtMobility::QOrganizerItem>*, QMap<int, QtMobility::QOrganizerManager::Error>*, QtMobility::QOrganizerManager::Error*) 0x0000ca9d   Thumb Code     8  QtOrganizer.in(.text)
    QtMobility::QOrganizerManagerEngine::removeItems(const QList<QtMobility::QOrganizerItemId>&, QMap<int, QtMobility::QOrganizerManager::Error>*, QtMobility::QOrganizerManager::Error*) 0x0000caa5   Thumb Code     8  QtOrganizer.in(.text)
    QtMobility::QOrganizerManagerEngine::defaultCollection(QtMobility::QOrganizerManager::Error*) const 0x0000caad   Thumb Code    12  QtOrganizer.in(.text)
    QtMobility::QOrganizerManagerEngine::collection(const QtMobility::QOrganizerCollectionId&, QtMobility::QOrganizerManager::Error*) const 0x0000cab9   Thumb Code    12  QtOrganizer.in(.text)
    QtMobility::QOrganizerManagerEngine::collections(QtMobility::QOrganizerManager::Error*) const 0x0000cac5   Thumb Code    18  QtOrganizer.in(.text)
    QtMobility::QOrganizerManagerEngine::saveCollection(QtMobility::QOrganizerCollection*, QtMobility::QOrganizerManager::Error*) 0x0000cad7   Thumb Code     8  QtOrganizer.in(.text)
    QtMobility::QOrganizerManagerEngine::removeCollection(const QtMobility::QOrganizerCollectionId&, QtMobility::QOrganizerManager::Error*) 0x0000cadf   Thumb Code     8  QtOrganizer.in(.text)
    QtMobility::QOrganizerManagerEngine::compatibleItem(const QtMobility::QOrganizerItem&, QtMobility::QOrganizerManager::Error*) const 0x0000cae7   Thumb Code   898  QtOrganizer.in(.text)
    QtMobility::QOrganizerManagerEngine::compatibleCollection(const QtMobility::QOrganizerCollection&, QtMobility::QOrganizerManager::Error*) const 0x0000ce69   Thumb Code    12  QtOrganizer.in(.text)
    QtMobility::QOrganizerManagerEngine::validateItem(const QtMobility::QOrganizerItem&, QtMobility::QOrganizerManager::Error*) const 0x0000ce75   Thumb Code   690  QtOrganizer.in(.text)
    QtMobility::QOrganizerManagerEngine::validateCollection(const QtMobility::QOrganizerCollection&, QtMobility::QOrganizerManager::Error*) const 0x0000d127   Thumb Code     8  QtOrganizer.in(.text)
    QtMobility::QOrganizerManagerEngine::validateDefinition(const QtMobility::QOrganizerItemDetailDefinition&, QtMobility::QOrganizerManager::Error*) const 0x0000d12f   Thumb Code   278  QtOrganizer.in(.text)
    QtMobility::QOrganizerManagerEngine::detailDefinitions(const QString&, QtMobility::QOrganizerManager::Error*) const 0x0000d245   Thumb Code    12  QtOrganizer.in(.text)
    QtMobility::QOrganizerManagerEngine::detailDefinition(const QString&, const QString&, QtMobility::QOrganizerManager::Error*) const 0x0000d251   Thumb Code   110  QtOrganizer.in(.text)
    QtMobility::QOrganizerManagerEngine::saveDetailDefinition(const QtMobility::QOrganizerItemDetailDefinition&, const QString&, QtMobility::QOrganizerManager::Error*) 0x0000d2bf   Thumb Code     8  QtOrganizer.in(.text)
    QtMobility::QOrganizerManagerEngine::removeDetailDefinition(const QString&, const QString&, QtMobility::QOrganizerManager::Error*) 0x0000d2c7   Thumb Code     8  QtOrganizer.in(.text)
    QtMobility::QOrganizerManagerEngine::requestDestroyed(QtMobility::QOrganizerAbstractRequest*) 0x0000d2cf   Thumb Code     2  QtOrganizer.in(.text)
    QtMobility::QOrganizerManagerEngine::startRequest(QtMobility::QOrganizerAbstractRequest*) 0x0000d2d1   Thumb Code     4  QtOrganizer.in(.text)
    QtMobility::QOrganizerManagerEngine::cancelRequest(QtMobility::QOrganizerAbstractRequest*) 0x0000d2d5   Thumb Code     4  QtOrganizer.in(.text)
    QtMobility::QOrganizerManagerEngine::waitForRequestFinished(QtMobility::QOrganizerAbstractRequest*, int) 0x0000d2d9   Thumb Code     4  QtOrganizer.in(.text)
    QtMobility::QOrganizerManagerEngine::hasFeature(QtMobility::QOrganizerManager::ManagerFeature, const QString&) const 0x0000d2dd   Thumb Code     4  QtOrganizer.in(.text)
    QtMobility::QOrganizerManagerEngine::isFilterSupported(const QtMobility::QOrganizerItemFilter&) const 0x0000d2e1   Thumb Code     4  QtOrganizer.in(.text)
    QtMobility::QOrganizerManagerEngine::supportedItemTypes() const 0x0000d2e5   Thumb Code   180  QtOrganizer.in(.text)
    QtMobility::QOrganizerManagerEngine::schemaDefinitions(int) 0x0000d399   Thumb Code 15328  QtOrganizer.in(.text)
    QtMobility::QOrganizerManagerEngine::updateRequestState(QtMobility::QOrganizerAbstractRequest*, QtMobility::QOrganizerAbstractRequest::State) 0x00010f79   Thumb Code    52  QtOrganizer.in(.text)
    QtMobility::QOrganizerManagerEngine::updateItemOccurrenceFetchRequest(QtMobility::QOrganizerItemOccurrenceFetchRequest*, const QList<QtMobility::QOrganizerItem>&, QtMobility::QOrganizerManager::Error, QtMobility::QOrganizerAbstractRequest::State) 0x00010fad   Thumb Code   156  QtOrganizer.in(.text)
    QtMobility::QOrganizerManagerEngine::updateItemIdFetchRequest(QtMobility::QOrganizerItemIdFetchRequest*, const QList<QtMobility::QOrganizerItemId>&, QtMobility::QOrganizerManager::Error, QtMobility::QOrganizerAbstractRequest::State) 0x00011049   Thumb Code   208  QtOrganizer.in(.text)
    QtMobility::QOrganizerManagerEngine::updateItemFetchRequest(QtMobility::QOrganizerItemFetchRequest*, const QList<QtMobility::QOrganizerItem>&, QtMobility::QOrganizerManager::Error, QtMobility::QOrganizerAbstractRequest::State) 0x00011119   Thumb Code   160  QtOrganizer.in(.text)
    QtMobility::QOrganizerManagerEngine::updateItemFetchForExportRequest(QtMobility::QOrganizerItemFetchForExportRequest*, const QList<QtMobility::QOrganizerItem>&, QtMobility::QOrganizerManager::Error, QtMobility::QOrganizerAbstractRequest::State) 0x000111b9   Thumb Code   160  QtOrganizer.in(.text)
    QtMobility::QOrganizerManagerEngine::updateItemRemoveRequest(QtMobility::QOrganizerItemRemoveRequest*, QtMobility::QOrganizerManager::Error, const QMap<int, QtMobility::QOrganizerManager::Error>&, QtMobility::QOrganizerAbstractRequest::State) 0x00011259   Thumb Code   160  QtOrganizer.in(.text)
    QtMobility::QOrganizerManagerEngine::updateItemSaveRequest(QtMobility::QOrganizerItemSaveRequest*, const QList<QtMobility::QOrganizerItem>&, QtMobility::QOrganizerManager::Error, const QMap<int, QtMobility::QOrganizerManager::Error>&, QtMobility::QOrganizerAbstractRequest::State) 0x000112f9   Thumb Code   170  QtOrganizer.in(.text)
    QtMobility::QOrganizerManagerEngine::updateDefinitionSaveRequest(QtMobility::QOrganizerItemDetailDefinitionSaveRequest*, const QList<QtMobility::QOrganizerItemDetailDefinition>&, QtMobility::QOrganizerManager::Error, const QMap<int, QtMobility::QOrganizerManager::Error>&, QtMobility::QOrganizerAbstractRequest::State) 0x000113a3   Thumb Code   210  QtOrganizer.in(.text)
    QtMobility::QOrganizerManagerEngine::updateDefinitionRemoveRequest(QtMobility::QOrganizerItemDetailDefinitionRemoveRequest*, QtMobility::QOrganizerManager::Error, const QMap<int, QtMobility::QOrganizerManager::Error>&, QtMobility::QOrganizerAbstractRequest::State) 0x00011475   Thumb Code   154  QtOrganizer.in(.text)
    QtMobility::QOrganizerManagerEngine::updateDefinitionFetchRequest(QtMobility::QOrganizerItemDetailDefinitionFetchRequest*, const QMap<QString, QtMobility::QOrganizerItemDetailDefinition>&, QtMobility::QOrganizerManager::Error, QMap<int, QtMobility::QOrganizerManager::Error>&, QtMobility::QOrganizerAbstractRequest::State) 0x0001150f   Thumb Code   164  QtOrganizer.in(.text)
    QtMobility::QOrganizerManagerEngine::updateCollectionFetchRequest(QtMobility::QOrganizerCollectionFetchRequest*, const QList<QtMobility::QOrganizerCollection>&, QtMobility::QOrganizerManager::Error, QtMobility::QOrganizerAbstractRequest::State) 0x000115b3   Thumb Code   160  QtOrganizer.in(.text)
    QtMobility::QOrganizerManagerEngine::updateCollectionRemoveRequest(QtMobility::QOrganizerCollectionRemoveRequest*, QtMobility::QOrganizerManager::Error, const QMap<int, QtMobility::QOrganizerManager::Error>&, QtMobility::QOrganizerAbstractRequest::State) 0x00011653   Thumb Code   160  QtOrganizer.in(.text)
    QtMobility::QOrganizerManagerEngine::updateCollectionSaveRequest(QtMobility::QOrganizerCollectionSaveRequest*, const QList<QtMobility::QOrganizerCollection>&, QtMobility::QOrganizerManager::Error, const QMap<int, QtMobility::QOrganizerManager::Error>&, QtMobility::QOrganizerAbstractRequest::State) 0x000116f3   Thumb Code   170  QtOrganizer.in(.text)
    QtMobility::QOrganizerManagerEngine::setDetailAccessConstraints(QtMobility::QOrganizerItemDetail*, QFlags<QtMobility::QOrganizerItemDetail::AccessConstraint>) 0x0001179d   Thumb Code    40  QtOrganizer.in(.text)
    QtMobility::QOrganizerManagerEngine::engineItemId(const QtMobility::QOrganizerItemId&) 0x000117c5   Thumb Code     4  QtOrganizer.in(.text)
    QtMobility::QOrganizerManagerEngine::engineCollectionId(const QtMobility::QOrganizerCollectionId&) 0x000117c9   Thumb Code     4  QtOrganizer.in(.text)
    QtMobility::QOrganizerManagerEngine::isItemBetweenDates(const QtMobility::QOrganizerItem&, const QDateTime&, const QDateTime&) 0x000117cd   Thumb Code   756  QtOrganizer.in(.text)
    QtMobility::QOrganizerManagerEngine::compareVariant(const QVariant&, const QVariant&, Qt::CaseSensitivity) 0x00011ac1   Thumb Code   398  QtOrganizer.in(.text)
    QtMobility::QOrganizerManagerEngine::compareItem(const QtMobility::QOrganizerItem&, const QtMobility::QOrganizerItem&, const QList<QtMobility::QOrganizerItemSortOrder>&) 0x00011c4f   Thumb Code   496  QtOrganizer.in(.text)
    QtMobility::QOrganizerManagerEngine::addSorted(QList<QtMobility::QOrganizerItem>*, const QtMobility::QOrganizerItem&, QList<QtMobility::QOrganizerItemSortOrder>&) 0x00011e3f   Thumb Code   156  QtOrganizer.in(.text)
    QtMobility::QOrganizerManagerEngine::testFilter(const QtMobility::QOrganizerItemFilter&, const QtMobility::QOrganizerItem&) 0x00011edb   Thumb Code  2344  QtOrganizer.in(.text)
    QtMobility::QOrganizerManagerEngine::canonicalizedFilter(const QtMobility::QOrganizerItemFilter&) 0x00012803   Thumb Code   984  QtOrganizer.in(.text)
    QtMobility::QOrganizerManagerEngineFactory::supportedImplementationVersions() const 0x00012bdd   Thumb Code    14  QtOrganizer.in(.text)
    QtMobility::QOrganizerManagerEngineFactory::~QOrganizerManagerEngineFactory() 0x00012beb   Thumb Code     0  QtOrganizer.in(.text)
    QtMobility::QOrganizerManagerEngineFactory::~QOrganizerManagerEngineFactory__sub_object() 0x00012beb   Thumb Code     2  QtOrganizer.in(.text)
    QtMobility::QOrganizerManagerEngineFactory::~QOrganizerManagerEngineFactory__deallocating() 0x00012bed   Thumb Code    12  QtOrganizer.in(.text)
    QtMobility::QOrganizerRecurrenceRule::QOrganizerRecurrenceRule() 0x00012bfd   Thumb Code    46  QtOrganizer.in(.text)
    QtMobility::QOrganizerRecurrenceRule::QOrganizerRecurrenceRule__sub_object() 0x00012bfd   Thumb Code     0  QtOrganizer.in(.text)
    QtMobility::QOrganizerRecurrenceRule::~QOrganizerRecurrenceRule() 0x00012c2b   Thumb Code     8  QtOrganizer.in(.text)
    QtMobility::QOrganizerRecurrenceRule::~QOrganizerRecurrenceRule__sub_object() 0x00012c2b   Thumb Code     0  QtOrganizer.in(.text)
    QtMobility::QOrganizerRecurrenceRule::QOrganizerRecurrenceRule(const QtMobility::QOrganizerRecurrenceRule&) 0x00012c33   Thumb Code    20  QtOrganizer.in(.text)
    QtMobility::QOrganizerRecurrenceRule::QOrganizerRecurrenceRule__sub_object(const QtMobility::QOrganizerRecurrenceRule&) 0x00012c33   Thumb Code     0  QtOrganizer.in(.text)
    QtMobility::QOrganizerRecurrenceRule::operator =(const QtMobility::QOrganizerRecurrenceRule&) 0x00012c47   Thumb Code    56  QtOrganizer.in(.text)
    QtMobility::QOrganizerRecurrenceRule::operator ==(const QtMobility::QOrganizerRecurrenceRule&) const 0x00012c7f   Thumb Code   176  QtOrganizer.in(.text)
    QtMobility::QOrganizerRecurrenceRule::setFrequency(QtMobility::QOrganizerRecurrenceRule::Frequency) 0x00012d2f   Thumb Code    12  QtOrganizer.in(.text)
    QtMobility::QOrganizerRecurrenceRule::frequency() const 0x00012d3b   Thumb Code     6  QtOrganizer.in(.text)
    QtMobility::QOrganizerRecurrenceRule::clearLimit() 0x00012d41   Thumb Code    32  QtOrganizer.in(.text)
    QtMobility::QOrganizerRecurrenceRule::setLimit(int) 0x00012d61   Thumb Code    46  QtOrganizer.in(.text)
    QtMobility::QOrganizerRecurrenceRule::setLimit(const QDate&) 0x00012d8f   Thumb Code    58  QtOrganizer.in(.text)
    QtMobility::QOrganizerRecurrenceRule::limitType() const 0x00012dc9   Thumb Code     6  QtOrganizer.in(.text)
    QtMobility::QOrganizerRecurrenceRule::limitCount() const 0x00012dcf   Thumb Code    18  QtOrganizer.in(.text)
    QtMobility::QOrganizerRecurrenceRule::limitDate() const 0x00012de1   Thumb Code    16  QtOrganizer.in(.text)
    QtMobility::QOrganizerRecurrenceRule::setInterval(int) 0x00012df1   Thumb Code    14  QtOrganizer.in(.text)
    QtMobility::QOrganizerRecurrenceRule::interval() const 0x00012dff   Thumb Code    12  QtOrganizer.in(.text)
    QtMobility::QOrganizerRecurrenceRule::setDaysOfWeek(const QSet<Qt::DayOfWeek>&) 0x00012e0b   Thumb Code    64  QtOrganizer.in(.text)
    QtMobility::QOrganizerRecurrenceRule::daysOfWeek() const 0x00012e4b   Thumb Code    12  QtOrganizer.in(.text)
    QtMobility::QOrganizerRecurrenceRule::setDaysOfMonth(const QSet<int>&) 0x00012e57   Thumb Code    18  QtOrganizer.in(.text)
    QtMobility::QOrganizerRecurrenceRule::daysOfMonth() const 0x00012e69   Thumb Code    12  QtOrganizer.in(.text)
    QtMobility::QOrganizerRecurrenceRule::setDaysOfYear(const QSet<int>&) 0x00012e75   Thumb Code    18  QtOrganizer.in(.text)
    QtMobility::QOrganizerRecurrenceRule::daysOfYear() const 0x00012e87   Thumb Code    12  QtOrganizer.in(.text)
    QtMobility::QOrganizerRecurrenceRule::setMonthsOfYear(const QSet<QtMobility::QOrganizerRecurrenceRule::Month>&) 0x00012e93   Thumb Code    64  QtOrganizer.in(.text)
    QtMobility::QOrganizerRecurrenceRule::monthsOfYear() const 0x00012ed3   Thumb Code    12  QtOrganizer.in(.text)
    QtMobility::QOrganizerRecurrenceRule::setWeeksOfYear(const QSet<int>&) 0x00012edf   Thumb Code    18  QtOrganizer.in(.text)
    QtMobility::QOrganizerRecurrenceRule::weeksOfYear() const 0x00012ef1   Thumb Code    12  QtOrganizer.in(.text)
    QtMobility::QOrganizerRecurrenceRule::setFirstDayOfWeek(Qt::DayOfWeek) 0x00012efd   Thumb Code    12  QtOrganizer.in(.text)
    QtMobility::QOrganizerRecurrenceRule::firstDayOfWeek() const 0x00012f09   Thumb Code     6  QtOrganizer.in(.text)
    QtMobility::QOrganizerRecurrenceRule::setPositions(const QSet<int>&) 0x00012f0f   Thumb Code    18  QtOrganizer.in(.text)
    QtMobility::QOrganizerRecurrenceRule::positions() const 0x00012f21   Thumb Code    12  QtOrganizer.in(.text)
    QtMobility::qHash(const QtMobility::QOrganizerRecurrenceRule&) 0x00012f2d   Thumb Code   604  QtOrganizer.in(.text)
    QtMobility::QOrganizerItemSortOrder::QOrganizerItemSortOrder() 0x00013189   Thumb Code    78  QtOrganizer.in(.text)
    QtMobility::QOrganizerItemSortOrder::QOrganizerItemSortOrder__sub_object() 0x00013189   Thumb Code     0  QtOrganizer.in(.text)
    QtMobility::QOrganizerItemSortOrder::~QOrganizerItemSortOrder() 0x000131d7   Thumb Code     8  QtOrganizer.in(.text)
    QtMobility::QOrganizerItemSortOrder::~QOrganizerItemSortOrder__sub_object() 0x000131d7   Thumb Code     0  QtOrganizer.in(.text)
    QtMobility::QOrganizerItemSortOrder::QOrganizerItemSortOrder(const QtMobility::QOrganizerItemSortOrder&) 0x000131df   Thumb Code    20  QtOrganizer.in(.text)
    QtMobility::QOrganizerItemSortOrder::QOrganizerItemSortOrder__sub_object(const QtMobility::QOrganizerItemSortOrder&) 0x000131df   Thumb Code     0  QtOrganizer.in(.text)
    QtMobility::QOrganizerItemSortOrder::operator =(const QtMobility::QOrganizerItemSortOrder&) 0x000131f3   Thumb Code    60  QtOrganizer.in(.text)
    QtMobility::QOrganizerItemSortOrder::setDetailDefinitionName(const QString&, const QString&) 0x0001322f   Thumb Code    84  QtOrganizer.in(.text)
    QtMobility::QOrganizerItemSortOrder::setBlankPolicy(QtMobility::QOrganizerItemSortOrder::BlankPolicy) 0x00013283   Thumb Code    12  QtOrganizer.in(.text)
    QtMobility::QOrganizerItemSortOrder::setDirection(Qt::SortOrder) 0x0001328f   Thumb Code    12  QtOrganizer.in(.text)
    QtMobility::QOrganizerItemSortOrder::setCaseSensitivity(Qt::CaseSensitivity) 0x0001329b   Thumb Code    12  QtOrganizer.in(.text)
    QtMobility::QOrganizerItemSortOrder::detailDefinitionName() const 0x000132a7   Thumb Code    12  QtOrganizer.in(.text)
    QtMobility::QOrganizerItemSortOrder::detailFieldName() const 0x000132b3   Thumb Code    12  QtOrganizer.in(.text)
    QtMobility::QOrganizerItemSortOrder::blankPolicy() const 0x000132bf   Thumb Code     6  QtOrganizer.in(.text)
    QtMobility::QOrganizerItemSortOrder::direction() const 0x000132c5   Thumb Code     6  QtOrganizer.in(.text)
    QtMobility::QOrganizerItemSortOrder::caseSensitivity() const 0x000132cb   Thumb Code     6  QtOrganizer.in(.text)
    QtMobility::QOrganizerItemSortOrder::isValid() const 0x000132d1   Thumb Code    22  QtOrganizer.in(.text)
    QtMobility::QOrganizerItemSortOrder::operator ==(const QtMobility::QOrganizerItemSortOrder&) const 0x000132e7   Thumb Code    70  QtOrganizer.in(.text)
    QtMobility::operator <<(QDataStream&, const QtMobility::QOrganizerItemSortOrder&) 0x0001332d   Thumb Code    86  QtOrganizer.in(.text)
    QtMobility::operator >>(QDataStream&, QtMobility::QOrganizerItemSortOrder&) 0x00013383   Thumb Code   128  QtOrganizer.in(.text)
    QtMobility::QOrganizerManagerData::loadStaticFactories() 0x000134d3   Thumb Code   266  QtOrganizer.in(.text)
    QtMobility::QOrganizerManagerData::loadFactories() 0x000135dd   Thumb Code  1210  QtOrganizer.in(.text)
    QtMobility::QOrganizerManagerData::createEngine(const QString&, const QMap<QString, QString>&) 0x00013a97   Thumb Code   514  QtOrganizer.in(.text)
    QtMobility::QOrganizerManagerData::engine(const QtMobility::QOrganizerManager*) 0x00013c99   Thumb Code    14  QtOrganizer.in(.text)
    QtMobility::QOrganizerManagerData::createEngineItemId(const QString&, const QMap<QString, QString>&, const QString&) 0x00013ca7   Thumb Code   162  QtOrganizer.in(.text)
    QtMobility::QOrganizerManagerData::createEngineCollectionId(const QString&, const QMap<QString, QString>&, const QString&) 0x00013d49   Thumb Code    82  QtOrganizer.in(.text)
    QtMobility::QOrganizerItemDisplayLabel::match(const QString&) 0x00013e61   Thumb Code   110  QtOrganizer.in(.text)
    QtMobility::QOrganizerItemComment::match(const QString&) 0x00013ecf   Thumb Code   110  QtOrganizer.in(.text)
    QtMobility::QOrganizerItemLocation::match(const QString&) 0x00013f3d   Thumb Code   110  QtOrganizer.in(.text)
    QtMobility::QOrganizerItemPriority::match(QtMobility::QOrganizerItemPriority::Priority) 0x00013fab   Thumb Code   112  QtOrganizer.in(.text)
    QtMobility::QOrganizerItemRecurrence::setRecurrenceRules(const QSet<QtMobility::QOrganizerRecurrenceRule>&) 0x0001401b   Thumb Code    30  QtOrganizer.in(.text)
    QtMobility::QOrganizerItemRecurrence::recurrenceRules() const 0x00014039   Thumb Code    30  QtOrganizer.in(.text)
    QtMobility::QOrganizerItemRecurrence::setRecurrenceDates(const QSet<QDate>&) 0x00014057   Thumb Code    30  QtOrganizer.in(.text)
    QtMobility::QOrganizerItemRecurrence::recurrenceDates() const 0x00014075   Thumb Code    30  QtOrganizer.in(.text)
    QtMobility::QOrganizerItemRecurrence::setExceptionRules(const QSet<QtMobility::QOrganizerRecurrenceRule>&) 0x00014093   Thumb Code    30  QtOrganizer.in(.text)
    QtMobility::QOrganizerItemRecurrence::exceptionRules() const 0x000140b1   Thumb Code    30  QtOrganizer.in(.text)
    QtMobility::QOrganizerItemRecurrence::setExceptionDates(const QSet<QDate>&) 0x000140cf   Thumb Code    30  QtOrganizer.in(.text)
    QtMobility::QOrganizerItemRecurrence::exceptionDates() const 0x000140ed   Thumb Code    30  QtOrganizer.in(.text)
    QtMobility::QOrganizerItemRecurrence::operator ==(const QtMobility::QOrganizerItemRecurrence&) const 0x0001410b   Thumb Code   290  QtOrganizer.in(.text)
    QtMobility::QOrganizerItemTag::match(const QString&) 0x0001422d   Thumb Code   108  QtOrganizer.in(.text)
    QtMobility::QOrganizerItemReminder::reminderType() const 0x00014299   Thumb Code   124  QtOrganizer.in(.text)
    QtMobility::QOrganizerItemInvalidEngine::QOrganizerItemInvalidEngine() 0x00014319   Thumb Code    14  QtOrganizer.in(.text)
    QtMobility::QOrganizerItemInvalidEngine::QOrganizerItemInvalidEngine__sub_object() 0x00014319   Thumb Code     0  QtOrganizer.in(.text)
    QtMobility::QOrganizerItemInvalidEngine::managerName() const 0x00014327   Thumb Code    20  QtOrganizer.in(.text)
    QtMobility::QOrganizerItemMemoryEngineId::QOrganizerItemMemoryEngineId() 0x00014349   Thumb Code    38  QtOrganizer.in(.text)
    QtMobility::QOrganizerItemMemoryEngineId::QOrganizerItemMemoryEngineId__sub_object() 0x00014349   Thumb Code     0  QtOrganizer.in(.text)
    QtMobility::QOrganizerItemMemoryEngineId::QOrganizerItemMemoryEngineId(unsigned, unsigned, const QString&) 0x0001436f   Thumb Code    44  QtOrganizer.in(.text)
    QtMobility::QOrganizerItemMemoryEngineId::QOrganizerItemMemoryEngineId__sub_object(unsigned, unsigned, const QString&) 0x0001436f   Thumb Code     0  QtOrganizer.in(.text)
    QtMobility::QOrganizerItemMemoryEngineId::~QOrganizerItemMemoryEngineId() 0x0001439b   Thumb Code    20  QtOrganizer.in(.text)
    QtMobility::QOrganizerItemMemoryEngineId::~QOrganizerItemMemoryEngineId__sub_object() 0x0001439b   Thumb Code     0  QtOrganizer.in(.text)
    QtMobility::QOrganizerItemMemoryEngineId::~QOrganizerItemMemoryEngineId__deallocating() 0x000143af   Thumb Code    16  QtOrganizer.in(.text)
    QtMobility::QOrganizerItemMemoryEngineId::QOrganizerItemMemoryEngineId(const QtMobility::QOrganizerItemMemoryEngineId&) 0x000143bf   Thumb Code    46  QtOrganizer.in(.text)
    QtMobility::QOrganizerItemMemoryEngineId::QOrganizerItemMemoryEngineId__sub_object(const QtMobility::QOrganizerItemMemoryEngineId&) 0x000143bf   Thumb Code     0  QtOrganizer.in(.text)
    QtMobility::QOrganizerItemMemoryEngineId::QOrganizerItemMemoryEngineId(const QString&) 0x000143ed   Thumb Code   170  QtOrganizer.in(.text)
    QtMobility::QOrganizerItemMemoryEngineId::QOrganizerItemMemoryEngineId__sub_object(const QString&) 0x000143ed   Thumb Code     0  QtOrganizer.in(.text)
    QtMobility::QOrganizerItemMemoryEngineId::isEqualTo(const QtMobility::QOrganizerItemEngineId*) const 0x00014497   Thumb Code    16  QtOrganizer.in(.text)
    QtMobility::QOrganizerItemMemoryEngineId::isLessThan(const QtMobility::QOrganizerItemEngineId*) const 0x000144a7   Thumb Code    48  QtOrganizer.in(.text)
    QtMobility::QOrganizerItemMemoryEngineId::managerUri() const 0x000144d7   Thumb Code    10  QtOrganizer.in(.text)
    QtMobility::QOrganizerItemMemoryEngineId::clone() const 0x000144e1   Thumb Code    34  QtOrganizer.in(.text)
    QtMobility::QOrganizerItemMemoryEngineId::toString() const 0x00014503   Thumb Code   150  QtOrganizer.in(.text)
    QtMobility::QOrganizerItemMemoryEngineId::debugStreamOut(QDebug&) const 0x00014599   Thumb Code    66  QtOrganizer.in(.text)
    QtMobility::QOrganizerItemMemoryEngineId::hash() const 0x000145db   Thumb Code     4  QtOrganizer.in(.text)
    QtMobility::QOrganizerCollectionMemoryEngineId::QOrganizerCollectionMemoryEngineId() 0x000145df   Thumb Code    36  QtOrganizer.in(.text)
    QtMobility::QOrganizerCollectionMemoryEngineId::QOrganizerCollectionMemoryEngineId__sub_object() 0x000145df   Thumb Code     0  QtOrganizer.in(.text)
    QtMobility::QOrganizerCollectionMemoryEngineId::QOrganizerCollectionMemoryEngineId(unsigned, const QString&) 0x00014603   Thumb Code    40  QtOrganizer.in(.text)
    QtMobility::QOrganizerCollectionMemoryEngineId::QOrganizerCollectionMemoryEngineId__sub_object(unsigned, const QString&) 0x00014603   Thumb Code     0  QtOrganizer.in(.text)
    QtMobility::QOrganizerCollectionMemoryEngineId::~QOrganizerCollectionMemoryEngineId() 0x0001462b   Thumb Code    20  QtOrganizer.in(.text)
    QtMobility::QOrganizerCollectionMemoryEngineId::~QOrganizerCollectionMemoryEngineId__sub_object() 0x0001462b   Thumb Code     0  QtOrganizer.in(.text)
    QtMobility::QOrganizerCollectionMemoryEngineId::~QOrganizerCollectionMemoryEngineId__deallocating() 0x0001463f   Thumb Code    16  QtOrganizer.in(.text)
    QtMobility::QOrganizerCollectionMemoryEngineId::QOrganizerCollectionMemoryEngineId(const QtMobility::QOrganizerCollectionMemoryEngineId&) 0x0001464f   Thumb Code    38  QtOrganizer.in(.text)
    QtMobility::QOrganizerCollectionMemoryEngineId::QOrganizerCollectionMemoryEngineId__sub_object(const QtMobility::QOrganizerCollectionMemoryEngineId&) 0x0001464f   Thumb Code     0  QtOrganizer.in(.text)
    QtMobility::QOrganizerCollectionMemoryEngineId::QOrganizerCollectionMemoryEngineId(const QString&) 0x00014675   Thumb Code   116  QtOrganizer.in(.text)
    QtMobility::QOrganizerCollectionMemoryEngineId::QOrganizerCollectionMemoryEngineId__sub_object(const QString&) 0x00014675   Thumb Code     0  QtOrganizer.in(.text)
    QtMobility::QOrganizerCollectionMemoryEngineId::isEqualTo(const QtMobility::QOrganizerCollectionEngineId*) const 0x000146e9   Thumb Code    72  QtOrganizer.in(.text)
    QtMobility::QOrganizerCollectionMemoryEngineId::isLessThan(const QtMobility::QOrganizerCollectionEngineId*) const 0x00014731   Thumb Code    34  QtOrganizer.in(.text)
    QtMobility::QOrganizerCollectionMemoryEngineId::managerUri() const 0x00014753   Thumb Code    10  QtOrganizer.in(.text)
    QtMobility::QOrganizerCollectionMemoryEngineId::clone() const 0x0001475d   Thumb Code    32  QtOrganizer.in(.text)
    QtMobility::QOrganizerCollectionMemoryEngineId::toString() const 0x0001477d   Thumb Code    82  QtOrganizer.in(.text)
    QtMobility::QOrganizerCollectionMemoryEngineId::debugStreamOut(QDebug&) const 0x000147cf   Thumb Code    54  QtOrganizer.in(.text)
    QtMobility::QOrganizerCollectionMemoryEngineId::hash() const 0x00014805   Thumb Code     4  QtOrganizer.in(.text)
    QtMobility::QOrganizerItemMemoryEngineData::QOrganizerItemMemoryEngineData() 0x00014809   Thumb Code   198  QtOrganizer.in(.text)
    QtMobility::QOrganizerItemMemoryEngineData::QOrganizerItemMemoryEngineData__sub_object() 0x00014809   Thumb Code     0  QtOrganizer.in(.text)
    QtMobility::QOrganizerItemMemoryEngine::getStaticMetaObject() 0x000148cf   Thumb Code     4  QtOrganizer.in(.text)
    QtMobility::QOrganizerItemMemoryEngine::metaObject() const 0x000148d3   Thumb Code    12  QtOrganizer.in(.text)
    QtMobility::QOrganizerItemMemoryEngine::qt_metacast(const char*) 0x000148df   Thumb Code    40  QtOrganizer.in(.text)
    QtMobility::QOrganizerItemMemoryEngine::qt_metacall(QMetaObject::Call, int, void**) 0x00014907   Thumb Code     8  QtOrganizer.in(.text)
    QtMobility::QOrganizerItemMemoryEngine::QOrganizerItemMemoryEngine(QtMobility::QOrganizerItemMemoryEngineData*) 0x0001490f   Thumb Code   258  QtOrganizer.in(.text)
    QtMobility::QOrganizerItemMemoryEngine::QOrganizerItemMemoryEngine__sub_object(QtMobility::QOrganizerItemMemoryEngineData*) 0x0001490f   Thumb Code     0  QtOrganizer.in(.text)
    QtMobility::QOrganizerItemMemoryEngine::createMemoryEngine(const QMap<QString, QString>&) 0x00014a11   Thumb Code   584  QtOrganizer.in(.text)
    QtMobility::QOrganizerItemMemoryEngine::~QOrganizerItemMemoryEngine() 0x00014c59   Thumb Code   124  QtOrganizer.in(.text)
    QtMobility::QOrganizerItemMemoryEngine::~QOrganizerItemMemoryEngine__sub_object() 0x00014c59   Thumb Code     0  QtOrganizer.in(.text)
    QtMobility::QOrganizerItemMemoryEngine::~QOrganizerItemMemoryEngine__deallocating() 0x00014cd5   Thumb Code    16  QtOrganizer.in(.text)
    QtMobility::QOrganizerItemMemoryEngine::managerName() const 0x00014ce5   Thumb Code    14  QtOrganizer.in(.text)
    QtMobility::QOrganizerItemMemoryEngine::managerParameters() const 0x00014cf3   Thumb Code    48  QtOrganizer.in(.text)
    QtMobility::QOrganizerItemMemoryEngine::generateOccurrence(const QtMobility::QOrganizerItem&, const QDateTime&) 0x00014d23   Thumb Code   976  QtOrganizer.in(.text)
    QtMobility::QOrganizerItemMemoryEngine::firstDateInNextPeriod(const QDate&, QtMobility::QOrganizerRecurrenceRule::Frequency, Qt::DayOfWeek) const 0x000150f3   Thumb Code   112  QtOrganizer.in(.text)
    QtMobility::QOrganizerItemMemoryEngine::matchingDates(const QDate&, const QDate&, const QtMobility::QOrganizerRecurrenceRule&) const 0x00015163   Thumb Code   302  QtOrganizer.in(.text)
    QtMobility::QOrganizerItemMemoryEngine::filterByPosition(const QList<QDate>&, QSet<int>) const 0x00015291   Thumb Code   216  QtOrganizer.in(.text)
    QtMobility::QOrganizerItemMemoryEngine::firstDateInPeriod(const QDate&, QtMobility::QOrganizerRecurrenceRule::Frequency, Qt::DayOfWeek) const 0x00015369   Thumb Code    96  QtOrganizer.in(.text)
    QtMobility::QOrganizerItemMemoryEngine::inMultipleOfInterval(const QDate&, const QDate&, QtMobility::QOrganizerRecurrenceRule::Frequency, int, Qt::DayOfWeek, int) const 0x000153c9   Thumb Code   188  QtOrganizer.in(.text)
    QtMobility::QOrganizerItemMemoryEngine::inferMissingCriteria(QtMobility::QOrganizerRecurrenceRule*, const QDate&) const 0x00015485   Thumb Code   808  QtOrganizer.in(.text)
    QtMobility::QOrganizerItemMemoryEngine::generateDateTimes(const QDateTime&, QtMobility::QOrganizerRecurrenceRule, const QDateTime&, const QDateTime&, int) const 0x000157ad   Thumb Code   654  QtOrganizer.in(.text)
    QtMobility::QOrganizerItemMemoryEngine::internalItemOccurrences(const QtMobility::QOrganizerItem&, const QDateTime&, const QDateTime&, int, bool, QtMobility::QOrganizerManager::Error*) const 0x00015a3b   Thumb Code  1696  QtOrganizer.in(.text)
    QtMobility::QOrganizerItemMemoryEngine::itemOccurrences(const QtMobility::QOrganizerItem&, const QDateTime&, const QDateTime&, int, const QtMobility::QOrganizerItemFetchHint&, QtMobility::QOrganizerManager::Error*) const 0x000160db   Thumb Code    40  QtOrganizer.in(.text)
    QtMobility::QOrganizerItemMemoryEngine::itemIds(const QDateTime&, const QDateTime&, const QtMobility::QOrganizerItemFilter&, const QList<QtMobility::QOrganizerItemSortOrder>&, QtMobility::QOrganizerManager::Error*) const 0x00016103   Thumb Code   118  QtOrganizer.in(.text)
    QtMobility::QOrganizerItemMemoryEngine::item(const QtMobility::QOrganizerItemId&) const 0x00016179   Thumb Code    56  QtOrganizer.in(.text)
    QtMobility::QOrganizerItemMemoryEngine::addItemRecurrences(QList<QtMobility::QOrganizerItem>&, const QtMobility::QOrganizerItem&, const QDateTime&, const QDateTime&, const QtMobility::QOrganizerItemFilter&, QList<QtMobility::QOrganizerItemSortOrder>&, bool, QSet<QtMobility::QOrganizerItemId>*) const 0x000161b1   Thumb Code   268  QtOrganizer.in(.text)
    QtMobility::QOrganizerItemMemoryEngine::itemHasReccurence(const QtMobility::QOrganizerItem&) const 0x000162bd   Thumb Code   172  QtOrganizer.in(.text)
    QtMobility::QOrganizerItemMemoryEngine::internalItems(const QDateTime&, const QDateTime&, const QtMobility::QOrganizerItemFilter&, const QList<QtMobility::QOrganizerItemSortOrder>&, const QtMobility::QOrganizerItemFetchHint&, QtMobility::QOrganizerManager::Error*, bool) const 0x00016369   Thumb Code   392  QtOrganizer.in(.text)
    QtMobility::QOrganizerItemMemoryEngine::items(const QDateTime&, const QDateTime&, const QtMobility::QOrganizerItemFilter&, const QList<QtMobility::QOrganizerItemSortOrder>&, const QtMobility::QOrganizerItemFetchHint&, QtMobility::QOrganizerManager::Error*) const 0x000164f1   Thumb Code    42  QtOrganizer.in(.text)
    QtMobility::QOrganizerItemMemoryEngine::itemsForExport(const QDateTime&, const QDateTime&, const QtMobility::QOrganizerItemFilter&, const QList<QtMobility::QOrganizerItemSortOrder>&, const QtMobility::QOrganizerItemFetchHint&, QtMobility::QOrganizerManager::Error*) const 0x0001651b   Thumb Code    40  QtOrganizer.in(.text)
    QtMobility::QOrganizerItemMemoryEngine::item(const QtMobility::QOrganizerItemId&, const QtMobility::QOrganizerItemFetchHint&, QtMobility::QOrganizerManager::Error*) const 0x00016543   Thumb Code    38  QtOrganizer.in(.text)
    QtMobility::QOrganizerItemMemoryEngine::saveItems(QList<QtMobility::QOrganizerItem>*, QMap<int, QtMobility::QOrganizerManager::Error>*, QtMobility::QOrganizerManager::Error*) 0x00016569   Thumb Code   250  QtOrganizer.in(.text)
    QtMobility::QOrganizerItemMemoryEngine::removeItems(const QList<QtMobility::QOrganizerItemId>&, QMap<int, QtMobility::QOrganizerManager::Error>*, QtMobility::QOrganizerManager::Error*) 0x00016663   Thumb Code   180  QtOrganizer.in(.text)
    QtMobility::QOrganizerItemMemoryEngine::defaultCollection(QtMobility::QOrganizerManager::Error*) const 0x00016717   Thumb Code   148  QtOrganizer.in(.text)
    QtMobility::QOrganizerItemMemoryEngine::collection(const QtMobility::QOrganizerCollectionId&, QtMobility::QOrganizerManager::Error*) const 0x000167ab   Thumb Code   100  QtOrganizer.in(.text)
    QtMobility::QOrganizerItemMemoryEngine::collections(QtMobility::QOrganizerManager::Error*) const 0x0001680f   Thumb Code    34  QtOrganizer.in(.text)
    QtMobility::QOrganizerItemMemoryEngine::saveCollection(QtMobility::QOrganizerCollection*, QtMobility::QOrganizerManager::Error*) 0x00016831   Thumb Code   430  QtOrganizer.in(.text)
    QtMobility::QOrganizerItemMemoryEngine::removeCollection(const QtMobility::QOrganizerCollectionId&, QtMobility::QOrganizerManager::Error*) 0x000169df   Thumb Code   348  QtOrganizer.in(.text)
    QtMobility::QOrganizerItemMemoryEngine::compatibleCollection(const QtMobility::QOrganizerCollection&, QtMobility::QOrganizerManager::Error*) const 0x00016b3b   Thumb Code   184  QtOrganizer.in(.text)
    QtMobility::QOrganizerItemMemoryEngine::detailDefinitions(const QString&, QtMobility::QOrganizerManager::Error*) const 0x00016bf3   Thumb Code   102  QtOrganizer.in(.text)
    QtMobility::QOrganizerItemMemoryEngine::saveDetailDefinition(const QtMobility::QOrganizerItemDetailDefinition&, const QString&, QtMobility::QOrganizerManager::Error*) 0x00016c59   Thumb Code    56  QtOrganizer.in(.text)
    QtMobility::QOrganizerItemMemoryEngine::removeDetailDefinition(const QString&, const QString&, QtMobility::QOrganizerManager::Error*) 0x00016c91   Thumb Code    56  QtOrganizer.in(.text)
    QtMobility::QOrganizerItemMemoryEngine::requestDestroyed(QtMobility::QOrganizerAbstractRequest*) 0x00016cc9   Thumb Code     2  QtOrganizer.in(.text)
    QtMobility::QOrganizerItemMemoryEngine::performAsynchronousOperation(QtMobility::QOrganizerAbstractRequest*) 0x00016ccb   Thumb Code  1772  QtOrganizer.in(.text)
    QtMobility::QOrganizerItemMemoryEngine::startRequest(QtMobility::QOrganizerAbstractRequest*) 0x000173b7   Thumb Code    84  QtOrganizer.in(.text)
    QtMobility::QOrganizerItemMemoryEngine::cancelRequest(QtMobility::QOrganizerAbstractRequest*) 0x0001740b   Thumb Code     4  QtOrganizer.in(.text)
    QtMobility::QOrganizerItemMemoryEngine::waitForRequestFinished(QtMobility::QOrganizerAbstractRequest*, int) 0x0001740f   Thumb Code     4  QtOrganizer.in(.text)
    QtMobility::QOrganizerItemMemoryEngine::hasFeature(QtMobility::QOrganizerManager::ManagerFeature, const QString&) const 0x00017413   Thumb Code    82  QtOrganizer.in(.text)
    QtMobility::QOrganizerItemMemoryEngine::isFilterSupported(const QtMobility::QOrganizerItemFilter&) const 0x00017465   Thumb Code     4  QtOrganizer.in(.text)
    QtMobility::QOrganizerItemMemoryEngine::typesAreRelated(const QString&, const QString&) 0x00017469   Thumb Code    62  QtOrganizer.in(.text)
    QtMobility::QOrganizerItemMemoryEngine::fixOccurrenceReferences(QtMobility::QOrganizerItem*, QtMobility::QOrganizerManager::Error*) 0x000174a7   Thumb Code   778  QtOrganizer.in(.text)
    QtMobility::QOrganizerItemMemoryEngine::saveItem(QtMobility::QOrganizerItem*, QtMobility::QOrganizerItemChangeSet&, QtMobility::QOrganizerManager::Error*) 0x000177b1   Thumb Code  1974  QtOrganizer.in(.text)
    QtMobility::QOrganizerItemMemoryEngine::removeItem(const QtMobility::QOrganizerItemId&, QtMobility::QOrganizerItemChangeSet&, QtMobility::QOrganizerManager::Error*) 0x00017f67   Thumb Code   416  QtOrganizer.in(.text)
    QtMobility::QOrganizerItemMemoryEngine::saveDetailDefinition(const QtMobility::QOrganizerItemDetailDefinition&, const QString&, QtMobility::QOrganizerItemChangeSet&, QtMobility::QOrganizerManager::Error*) 0x00018107   Thumb Code   114  QtOrganizer.in(.text)
    QtMobility::QOrganizerItemMemoryEngine::removeDetailDefinition(const QString&, const QString&, QtMobility::QOrganizerItemChangeSet&, QtMobility::QOrganizerManager::Error*) 0x00018179   Thumb Code   114  QtOrganizer.in(.text)
    QtMobility::QOrganizerItemChangeLogFilter::QOrganizerItemChangeLogFilter(QtMobility::QOrganizerItemChangeLogFilter::EventType) 0x00018219   Thumb Code    46  QtOrganizer.in(.text)
    QtMobility::QOrganizerItemChangeLogFilter::QOrganizerItemChangeLogFilter__sub_object(QtMobility::QOrganizerItemChangeLogFilter::EventType) 0x00018219   Thumb Code     0  QtOrganizer.in(.text)
    QtMobility::QOrganizerItemChangeLogFilter::QOrganizerItemChangeLogFilter(const QtMobility::QOrganizerItemFilter&) 0x00018247   Thumb Code    20  QtOrganizer.in(.text)
    QtMobility::QOrganizerItemChangeLogFilter::QOrganizerItemChangeLogFilter__sub_object(const QtMobility::QOrganizerItemFilter&) 0x00018247   Thumb Code     0  QtOrganizer.in(.text)
    QtMobility::QOrganizerItemChangeLogFilter::setEventType(QtMobility::QOrganizerItemChangeLogFilter::EventType) 0x0001825b   Thumb Code    12  QtOrganizer.in(.text)
    QtMobility::QOrganizerItemChangeLogFilter::setSince(const QDateTime&) 0x00018267   Thumb Code    18  QtOrganizer.in(.text)
    QtMobility::QOrganizerItemChangeLogFilter::since() const 0x00018279   Thumb Code    12  QtOrganizer.in(.text)
    QtMobility::QOrganizerItemChangeLogFilter::eventType() const 0x00018285   Thumb Code     6  QtOrganizer.in(.text)
    QtMobility::QOrganizerItemDetailFilter::QOrganizerItemDetailFilter() 0x0001828b   Thumb Code    42  QtOrganizer.in(.text)
    QtMobility::QOrganizerItemDetailFilter::QOrganizerItemDetailFilter__sub_object() 0x0001828b   Thumb Code     0  QtOrganizer.in(.text)
    QtMobility::QOrganizerItemDetailFilter::QOrganizerItemDetailFilter(const QtMobility::QOrganizerItemFilter&) 0x000182b5   Thumb Code    20  QtOrganizer.in(.text)
    QtMobility::QOrganizerItemDetailFilter::QOrganizerItemDetailFilter__sub_object(const QtMobility::QOrganizerItemFilter&) 0x000182b5   Thumb Code     0  QtOrganizer.in(.text)
    QtMobility::QOrganizerItemDetailFilter::setDetailDefinitionName(const QString&, const QString&) 0x000182c9   Thumb Code    32  QtOrganizer.in(.text)
    QtMobility::QOrganizerItemDetailFilter::setMatchFlags(QFlags<QtMobility::QOrganizerItemFilter::MatchFlag>) 0x000182e9   Thumb Code    14  QtOrganizer.in(.text)
    QtMobility::QOrganizerItemDetailFilter::setValue(const QVariant&) 0x000182f7   Thumb Code    18  QtOrganizer.in(.text)
    QtMobility::QOrganizerItemDetailFilter::detailDefinitionName() const 0x00018309   Thumb Code    12  QtOrganizer.in(.text)
    QtMobility::QOrganizerItemDetailFilter::detailFieldName() const 0x00018315   Thumb Code    12  QtOrganizer.in(.text)
    QtMobility::QOrganizerItemDetailFilter::matchFlags() const 0x00018321   Thumb Code     8  QtOrganizer.in(.text)
    QtMobility::QOrganizerItemDetailFilter::value() const 0x00018329   Thumb Code    12  QtOrganizer.in(.text)
    QtMobility::QOrganizerItemDetailRangeFilter::QOrganizerItemDetailRangeFilter() 0x00018335   Thumb Code    42  QtOrganizer.in(.text)
    QtMobility::QOrganizerItemDetailRangeFilter::QOrganizerItemDetailRangeFilter__sub_object() 0x00018335   Thumb Code     0  QtOrganizer.in(.text)
    QtMobility::QOrganizerItemDetailRangeFilter::QOrganizerItemDetailRangeFilter(const QtMobility::QOrganizerItemFilter&) 0x0001835f   Thumb Code    20  QtOrganizer.in(.text)
    QtMobility::QOrganizerItemDetailRangeFilter::QOrganizerItemDetailRangeFilter__sub_object(const QtMobility::QOrganizerItemFilter&) 0x0001835f   Thumb Code     0  QtOrganizer.in(.text)
    QtMobility::QOrganizerItemDetailRangeFilter::setDetailDefinitionName(const QString&, const QString&) 0x00018373   Thumb Code    32  QtOrganizer.in(.text)
    QtMobility::QOrganizerItemDetailRangeFilter::setMatchFlags(QFlags<QtMobility::QOrganizerItemFilter::MatchFlag>) 0x00018393   Thumb Code    20  QtOrganizer.in(.text)
    QtMobility::QOrganizerItemDetailRangeFilter::setRange(const QVariant&, const QVariant&, QFlags<QtMobility::QOrganizerItemDetailRangeFilter::RangeFlag>) 0x000183a7   Thumb Code    38  QtOrganizer.in(.text)
    QtMobility::QOrganizerItemDetailRangeFilter::detailDefinitionName() const 0x000183cd   Thumb Code    12  QtOrganizer.in(.text)
    QtMobility::QOrganizerItemDetailRangeFilter::detailFieldName() const 0x000183d9   Thumb Code    12  QtOrganizer.in(.text)
    QtMobility::QOrganizerItemDetailRangeFilter::matchFlags() const 0x000183e5   Thumb Code     8  QtOrganizer.in(.text)
    QtMobility::QOrganizerItemDetailRangeFilter::minValue() const 0x000183ed   Thumb Code    12  QtOrganizer.in(.text)
    QtMobility::QOrganizerItemDetailRangeFilter::maxValue() const 0x000183f9   Thumb Code    12  QtOrganizer.in(.text)
    QtMobility::QOrganizerItemDetailRangeFilter::rangeFlags() const 0x00018405   Thumb Code     8  QtOrganizer.in(.text)
    QtMobility::QOrganizerItemIntersectionFilter::QOrganizerItemIntersectionFilter() 0x0001840d   Thumb Code    42  QtOrganizer.in(.text)
    QtMobility::QOrganizerItemIntersectionFilter::QOrganizerItemIntersectionFilter__sub_object() 0x0001840d   Thumb Code     0  QtOrganizer.in(.text)
    QtMobility::QOrganizerItemIntersectionFilter::QOrganizerItemIntersectionFilter(const QtMobility::QOrganizerItemFilter&) 0x00018437   Thumb Code    20  QtOrganizer.in(.text)
    QtMobility::QOrganizerItemIntersectionFilter::QOrganizerItemIntersectionFilter__sub_object(const QtMobility::QOrganizerItemFilter&) 0x00018437   Thumb Code     0  QtOrganizer.in(.text)
    QtMobility::QOrganizerItemIntersectionFilter::setFilters(const QList<QtMobility::QOrganizerItemFilter>&) 0x0001844b   Thumb Code    18  QtOrganizer.in(.text)
    QtMobility::QOrganizerItemIntersectionFilter::prepend(const QtMobility::QOrganizerItemFilter&) 0x0001845d   Thumb Code   100  QtOrganizer.in(.text)
    QtMobility::QOrganizerItemIntersectionFilter::append(const QtMobility::QOrganizerItemFilter&) 0x000184c1   Thumb Code    18  QtOrganizer.in(.text)
    QtMobility::QOrganizerItemIntersectionFilter::remove(const QtMobility::QOrganizerItemFilter&) 0x000184d3   Thumb Code    18  QtOrganizer.in(.text)
    QtMobility::QOrganizerItemIntersectionFilter::clear() 0x000184e5   Thumb Code    14  QtOrganizer.in(.text)
    QtMobility::QOrganizerItemIntersectionFilter::operator <<(const QtMobility::QOrganizerItemFilter&) 0x000184f3   Thumb Code    22  QtOrganizer.in(.text)
    QtMobility::QOrganizerItemIntersectionFilter::filters() const 0x00018509   Thumb Code    12  QtOrganizer.in(.text)
    QtMobility::QOrganizerItemInvalidFilter::QOrganizerItemInvalidFilter() 0x00018515   Thumb Code    42  QtOrganizer.in(.text)
    QtMobility::QOrganizerItemInvalidFilter::QOrganizerItemInvalidFilter__sub_object() 0x00018515   Thumb Code     0  QtOrganizer.in(.text)
    QtMobility::QOrganizerItemInvalidFilter::QOrganizerItemInvalidFilter(const QtMobility::QOrganizerItemFilter&) 0x0001853f   Thumb Code    42  QtOrganizer.in(.text)
    QtMobility::QOrganizerItemInvalidFilter::QOrganizerItemInvalidFilter__sub_object(const QtMobility::QOrganizerItemFilter&) 0x0001853f   Thumb Code     0  QtOrganizer.in(.text)
    QtMobility::QOrganizerItemIdFilter::QOrganizerItemIdFilter() 0x00018569   Thumb Code    42  QtOrganizer.in(.text)
    QtMobility::QOrganizerItemIdFilter::QOrganizerItemIdFilter__sub_object() 0x00018569   Thumb Code     0  QtOrganizer.in(.text)
    QtMobility::QOrganizerItemIdFilter::QOrganizerItemIdFilter(const QtMobility::QOrganizerItemFilter&) 0x00018593   Thumb Code    20  QtOrganizer.in(.text)
    QtMobility::QOrganizerItemIdFilter::QOrganizerItemIdFilter__sub_object(const QtMobility::QOrganizerItemFilter&) 0x00018593   Thumb Code     0  QtOrganizer.in(.text)
    QtMobility::QOrganizerItemIdFilter::setIds(const QList<QtMobility::QOrganizerItemId>&) 0x000185a7   Thumb Code    18  QtOrganizer.in(.text)
    QtMobility::QOrganizerItemIdFilter::insert(const QtMobility::QOrganizerItemId&) 0x000185b9   Thumb Code    90  QtOrganizer.in(.text)
    QtMobility::QOrganizerItemIdFilter::remove(const QtMobility::QOrganizerItemId&) 0x00018613   Thumb Code    18  QtOrganizer.in(.text)
    QtMobility::QOrganizerItemIdFilter::clear() 0x00018625   Thumb Code    14  QtOrganizer.in(.text)
    QtMobility::QOrganizerItemIdFilter::ids() const 0x00018633   Thumb Code    12  QtOrganizer.in(.text)
    QtMobility::QOrganizerItemCollectionFilter::QOrganizerItemCollectionFilter() 0x0001863f   Thumb Code    42  QtOrganizer.in(.text)
    QtMobility::QOrganizerItemCollectionFilter::QOrganizerItemCollectionFilter__sub_object() 0x0001863f   Thumb Code     0  QtOrganizer.in(.text)
    QtMobility::QOrganizerItemCollectionFilter::QOrganizerItemCollectionFilter(const QtMobility::QOrganizerItemFilter&) 0x00018669   Thumb Code    20  QtOrganizer.in(.text)
    QtMobility::QOrganizerItemCollectionFilter::QOrganizerItemCollectionFilter__sub_object(const QtMobility::QOrganizerItemFilter&) 0x00018669   Thumb Code     0  QtOrganizer.in(.text)
    QtMobility::QOrganizerItemCollectionFilter::setCollectionId(const QtMobility::QOrganizerCollectionId&) 0x0001867d   Thumb Code    28  QtOrganizer.in(.text)
    QtMobility::QOrganizerItemCollectionFilter::setCollectionIds(const QSet<QtMobility::QOrganizerCollectionId>&) 0x00018699   Thumb Code    18  QtOrganizer.in(.text)
    QtMobility::QOrganizerItemCollectionFilter::collectionIds() const 0x000186ab   Thumb Code    12  QtOrganizer.in(.text)
    QtMobility::QOrganizerItemUnionFilter::QOrganizerItemUnionFilter() 0x000186b7   Thumb Code    42  QtOrganizer.in(.text)
    QtMobility::QOrganizerItemUnionFilter::QOrganizerItemUnionFilter__sub_object() 0x000186b7   Thumb Code     0  QtOrganizer.in(.text)
    QtMobility::QOrganizerItemUnionFilter::QOrganizerItemUnionFilter(const QtMobility::QOrganizerItemFilter&) 0x000186e1   Thumb Code    20  QtOrganizer.in(.text)
    QtMobility::QOrganizerItemUnionFilter::QOrganizerItemUnionFilter__sub_object(const QtMobility::QOrganizerItemFilter&) 0x000186e1   Thumb Code     0  QtOrganizer.in(.text)
    QtMobility::QOrganizerItemUnionFilter::setFilters(const QList<QtMobility::QOrganizerItemFilter>&) 0x000186f5   Thumb Code    18  QtOrganizer.in(.text)
    QtMobility::QOrganizerItemUnionFilter::clear() 0x00018707   Thumb Code    14  QtOrganizer.in(.text)
    QtMobility::QOrganizerItemUnionFilter::prepend(const QtMobility::QOrganizerItemFilter&) 0x00018715   Thumb Code   100  QtOrganizer.in(.text)
    QtMobility::QOrganizerItemUnionFilter::append(const QtMobility::QOrganizerItemFilter&) 0x00018779   Thumb Code    18  QtOrganizer.in(.text)
    QtMobility::QOrganizerItemUnionFilter::remove(const QtMobility::QOrganizerItemFilter&) 0x0001878b   Thumb Code    18  QtOrganizer.in(.text)
    QtMobility::QOrganizerItemUnionFilter::operator <<(const QtMobility::QOrganizerItemFilter&) 0x0001879d   Thumb Code    22  QtOrganizer.in(.text)
    QtMobility::QOrganizerItemUnionFilter::filters() const 0x000187b3   Thumb Code    12  QtOrganizer.in(.text)
    QtMobility::QOrganizerEvent::setStartDateTime(const QDateTime&) 0x000187c1   Thumb Code    58  QtOrganizer.in(.text)
    QtMobility::QOrganizerEvent::startDateTime() const 0x000187fb   Thumb Code    28  QtOrganizer.in(.text)
    QtMobility::QOrganizerEvent::setEndDateTime(const QDateTime&) 0x00018817   Thumb Code    56  QtOrganizer.in(.text)
    QtMobility::QOrganizerEvent::endDateTime() const 0x0001884f   Thumb Code    28  QtOrganizer.in(.text)
    QtMobility::QOrganizerEvent::setAllDay(bool) 0x0001886b   Thumb Code    56  QtOrganizer.in(.text)
    QtMobility::QOrganizerEvent::isAllDay() const 0x000188a3   Thumb Code    82  QtOrganizer.in(.text)
    QtMobility::QOrganizerEvent::setRecurrenceDates(const QSet<QDate>&) 0x000188f5   Thumb Code    38  QtOrganizer.in(.text)
    QtMobility::QOrganizerEvent::setRecurrenceDate(const QDate&) 0x0001891b   Thumb Code    34  QtOrganizer.in(.text)
    QtMobility::QOrganizerEvent::recurrenceDates() const 0x0001893d   Thumb Code    26  QtOrganizer.in(.text)
    QtMobility::QOrganizerEvent::setRecurrenceRules(const QSet<QtMobility::QOrganizerRecurrenceRule>&) 0x00018957   Thumb Code    38  QtOrganizer.in(.text)
    QtMobility::QOrganizerEvent::setRecurrenceRule(const QtMobility::QOrganizerRecurrenceRule&) 0x0001897d   Thumb Code    34  QtOrganizer.in(.text)
    QtMobility::QOrganizerEvent::recurrenceRules() const 0x0001899f   Thumb Code    26  QtOrganizer.in(.text)
    QtMobility::QOrganizerEvent::recurrenceRule() const 0x000189b9   Thumb Code    56  QtOrganizer.in(.text)
    QtMobility::QOrganizerEvent::setExceptionDates(const QSet<QDate>&) 0x000189f1   Thumb Code    38  QtOrganizer.in(.text)
    QtMobility::QOrganizerEvent::setExceptionDate(const QDate&) 0x00018a17   Thumb Code    34  QtOrganizer.in(.text)
    QtMobility::QOrganizerEvent::exceptionDates() const 0x00018a39   Thumb Code    26  QtOrganizer.in(.text)
    QtMobility::QOrganizerEvent::setExceptionRules(const QSet<QtMobility::QOrganizerRecurrenceRule>&) 0x00018a53   Thumb Code    38  QtOrganizer.in(.text)
    QtMobility::QOrganizerEvent::setExceptionRule(const QtMobility::QOrganizerRecurrenceRule&) 0x00018a79   Thumb Code    34  QtOrganizer.in(.text)
    QtMobility::QOrganizerEvent::exceptionRules() const 0x00018a9b   Thumb Code    26  QtOrganizer.in(.text)
    QtMobility::QOrganizerEvent::exceptionRule() const 0x00018ab5   Thumb Code    56  QtOrganizer.in(.text)
    QtMobility::QOrganizerEvent::setPriority(QtMobility::QOrganizerItemPriority::Priority) 0x00018aed   Thumb Code    56  QtOrganizer.in(.text)
    QtMobility::QOrganizerEvent::priority() const 0x00018b25   Thumb Code    78  QtOrganizer.in(.text)
    QtMobility::QOrganizerEvent::location() const 0x00018b73   Thumb Code    50  QtOrganizer.in(.text)
    QtMobility::QOrganizerEvent::setLocation(const QString&) 0x00018ba5   Thumb Code    56  QtOrganizer.in(.text)
    QtMobility::QOrganizerEventOccurrence::setStartDateTime(const QDateTime&) 0x00018be1   Thumb Code    58  QtOrganizer.in(.text)
    QtMobility::QOrganizerEventOccurrence::startDateTime() const 0x00018c1b   Thumb Code    28  QtOrganizer.in(.text)
    QtMobility::QOrganizerEventOccurrence::setEndDateTime(const QDateTime&) 0x00018c37   Thumb Code    56  QtOrganizer.in(.text)
    QtMobility::QOrganizerEventOccurrence::endDateTime() const 0x00018c6f   Thumb Code    28  QtOrganizer.in(.text)
    QtMobility::QOrganizerEventOccurrence::setParentId(const QtMobility::QOrganizerItemId&) 0x00018c8b   Thumb Code    68  QtOrganizer.in(.text)
    QtMobility::QOrganizerEventOccurrence::parentId() const 0x00018ccf   Thumb Code    26  QtOrganizer.in(.text)
    QtMobility::QOrganizerEventOccurrence::setOriginalDate(const QDate&) 0x00018ce9   Thumb Code    56  QtOrganizer.in(.text)
    QtMobility::QOrganizerEventOccurrence::originalDate() const 0x00018d21   Thumb Code    48  QtOrganizer.in(.text)
    QtMobility::QOrganizerEventOccurrence::setPriority(QtMobility::QOrganizerItemPriority::Priority) 0x00018d51   Thumb Code    56  QtOrganizer.in(.text)
    QtMobility::QOrganizerEventOccurrence::priority() const 0x00018d89   Thumb Code    80  QtOrganizer.in(.text)
    QtMobility::QOrganizerEventOccurrence::location() const 0x00018dd9   Thumb Code    28  QtOrganizer.in(.text)
    QtMobility::QOrganizerEventOccurrence::setLocation(const QString&) 0x00018df5   Thumb Code    56  QtOrganizer.in(.text)
    QtMobility::QOrganizerJournal::setDateTime(const QDateTime&) 0x00018e45   Thumb Code    58  QtOrganizer.in(.text)
    QtMobility::QOrganizerJournal::dateTime() const 0x00018e7f   Thumb Code    28  QtOrganizer.in(.text)
    QtMobility::QOrganizerTodo::setStartDateTime(const QDateTime&) 0x00018ea1   Thumb Code    58  QtOrganizer.in(.text)
    QtMobility::QOrganizerTodo::startDateTime() const 0x00018edb   Thumb Code    28  QtOrganizer.in(.text)
    QtMobility::QOrganizerTodo::setDueDateTime(const QDateTime&) 0x00018ef7   Thumb Code    56  QtOrganizer.in(.text)
    QtMobility::QOrganizerTodo::dueDateTime() const 0x00018f2f   Thumb Code    28  QtOrganizer.in(.text)
    QtMobility::QOrganizerTodo::setAllDay(bool) 0x00018f4b   Thumb Code    56  QtOrganizer.in(.text)
    QtMobility::QOrganizerTodo::isAllDay() const 0x00018f83   Thumb Code    82  QtOrganizer.in(.text)
    QtMobility::QOrganizerTodo::setRecurrenceDates(const QSet<QDate>&) 0x00018fd5   Thumb Code    38  QtOrganizer.in(.text)
    QtMobility::QOrganizerTodo::recurrenceDates() const 0x00018ffb   Thumb Code    26  QtOrganizer.in(.text)
    QtMobility::QOrganizerTodo::setRecurrenceRules(const QSet<QtMobility::QOrganizerRecurrenceRule>&) 0x00019015   Thumb Code    38  QtOrganizer.in(.text)
    QtMobility::QOrganizerTodo::setRecurrenceRule(const QtMobility::QOrganizerRecurrenceRule&) 0x0001903b   Thumb Code    34  QtOrganizer.in(.text)
    QtMobility::QOrganizerTodo::recurrenceRules() const 0x0001905d   Thumb Code    26  QtOrganizer.in(.text)
    QtMobility::QOrganizerTodo::recurrenceRule() const 0x00019077   Thumb Code    56  QtOrganizer.in(.text)
    QtMobility::QOrganizerTodo::setExceptionDates(const QSet<QDate>&) 0x000190af   Thumb Code    38  QtOrganizer.in(.text)
    QtMobility::QOrganizerTodo::exceptionDates() const 0x000190d5   Thumb Code    26  QtOrganizer.in(.text)
    QtMobility::QOrganizerTodo::setExceptionRules(const QSet<QtMobility::QOrganizerRecurrenceRule>&) 0x000190ef   Thumb Code    38  QtOrganizer.in(.text)
    QtMobility::QOrganizerTodo::setExceptionRule(const QtMobility::QOrganizerRecurrenceRule&) 0x00019115   Thumb Code    34  QtOrganizer.in(.text)
    QtMobility::QOrganizerTodo::exceptionRules() const 0x00019137   Thumb Code    26  QtOrganizer.in(.text)
    QtMobility::QOrganizerTodo::exceptionRule() const 0x00019151   Thumb Code    56  QtOrganizer.in(.text)
    QtMobility::QOrganizerTodo::setPriority(QtMobility::QOrganizerItemPriority::Priority) 0x00019189   Thumb Code    56  QtOrganizer.in(.text)
    QtMobility::QOrganizerTodo::priority() const 0x000191c1   Thumb Code    30  QtOrganizer.in(.text)
    QtMobility::QOrganizerTodo::setProgressPercentage(int) 0x000191df   Thumb Code    60  QtOrganizer.in(.text)
    QtMobility::QOrganizerTodo::progressPercentage() const 0x0001921b   Thumb Code    30  QtOrganizer.in(.text)
    QtMobility::QOrganizerTodo::setStatus(QtMobility::QOrganizerTodoProgress::Status) 0x00019239   Thumb Code    80  QtOrganizer.in(.text)
    QtMobility::QOrganizerTodo::status() const 0x00019289   Thumb Code    30  QtOrganizer.in(.text)
    QtMobility::QOrganizerTodo::setFinishedDateTime(const QDateTime&) 0x000192a7   Thumb Code    56  QtOrganizer.in(.text)
    QtMobility::QOrganizerTodo::finishedDateTime() const 0x000192df   Thumb Code    28  QtOrganizer.in(.text)
    QtMobility::QOrganizerTodoOccurrence::setStartDateTime(const QDateTime&) 0x00019305   Thumb Code    58  QtOrganizer.in(.text)
    QtMobility::QOrganizerTodoOccurrence::startDateTime() const 0x0001933f   Thumb Code    28  QtOrganizer.in(.text)
    QtMobility::QOrganizerTodoOccurrence::setDueDateTime(const QDateTime&) 0x0001935b   Thumb Code    56  QtOrganizer.in(.text)
    QtMobility::QOrganizerTodoOccurrence::dueDateTime() const 0x00019393   Thumb Code    28  QtOrganizer.in(.text)
    QtMobility::QOrganizerTodoOccurrence::setParentId(const QtMobility::QOrganizerItemId&) 0x000193af   Thumb Code    68  QtOrganizer.in(.text)
    QtMobility::QOrganizerTodoOccurrence::parentId() const 0x000193f3   Thumb Code    26  QtOrganizer.in(.text)
    QtMobility::QOrganizerTodoOccurrence::setOriginalDate(const QDate&) 0x0001940d   Thumb Code    56  QtOrganizer.in(.text)
    QtMobility::QOrganizerTodoOccurrence::originalDate() const 0x00019445   Thumb Code    48  QtOrganizer.in(.text)
    QtMobility::QOrganizerTodoOccurrence::setPriority(QtMobility::QOrganizerItemPriority::Priority) 0x00019475   Thumb Code    56  QtOrganizer.in(.text)
    QtMobility::QOrganizerTodoOccurrence::priority() const 0x000194ad   Thumb Code    30  QtOrganizer.in(.text)
    QtMobility::QOrganizerTodoOccurrence::setProgressPercentage(int) 0x000194cb   Thumb Code    60  QtOrganizer.in(.text)
    QtMobility::QOrganizerTodoOccurrence::progressPercentage() const 0x00019507   Thumb Code    30  QtOrganizer.in(.text)
    QtMobility::QOrganizerTodoOccurrence::setStatus(QtMobility::QOrganizerTodoProgress::Status) 0x00019525   Thumb Code    56  QtOrganizer.in(.text)
    QtMobility::QOrganizerTodoOccurrence::status() const 0x0001955d   Thumb Code    30  QtOrganizer.in(.text)
    QtMobility::QOrganizerTodoOccurrence::setFinishedDateTime(const QDateTime&) 0x0001957b   Thumb Code    56  QtOrganizer.in(.text)
    QtMobility::QOrganizerTodoOccurrence::finishedDateTime() const 0x000195b3   Thumb Code    28  QtOrganizer.in(.text)
    QtMobility::QOrganizerCollectionFetchRequest::getStaticMetaObject() 0x000195f1   Thumb Code     4  QtOrganizer.in(.text)
    QtMobility::QOrganizerCollectionFetchRequest::metaObject() const 0x000195f5   Thumb Code    12  QtOrganizer.in(.text)
    QtMobility::QOrganizerCollectionFetchRequest::qt_metacast(const char*) 0x00019601   Thumb Code    40  QtOrganizer.in(.text)
    QtMobility::QOrganizerCollectionFetchRequest::qt_metacall(QMetaObject::Call, int, void**) 0x00019629   Thumb Code     8  QtOrganizer.in(.text)
    QtMobility::QOrganizerCollectionFetchRequest::QOrganizerCollectionFetchRequest(QObject*) 0x00019631   Thumb Code    50  QtOrganizer.in(.text)
    QtMobility::QOrganizerCollectionFetchRequest::QOrganizerCollectionFetchRequest__sub_object(QObject*) 0x00019631   Thumb Code     0  QtOrganizer.in(.text)
    QtMobility::QOrganizerCollectionFetchRequest::collections() const 0x00019663   Thumb Code    60  QtOrganizer.in(.text)
    QtMobility::QOrganizerCollectionRemoveRequest::getStaticMetaObject() 0x000196a9   Thumb Code     4  QtOrganizer.in(.text)
    QtMobility::QOrganizerCollectionRemoveRequest::metaObject() const 0x000196ad   Thumb Code    12  QtOrganizer.in(.text)
    QtMobility::QOrganizerCollectionRemoveRequest::qt_metacast(const char*) 0x000196b9   Thumb Code    40  QtOrganizer.in(.text)
    QtMobility::QOrganizerCollectionRemoveRequest::qt_metacall(QMetaObject::Call, int, void**) 0x000196e1   Thumb Code     8  QtOrganizer.in(.text)
    QtMobility::QOrganizerCollectionRemoveRequest::QOrganizerCollectionRemoveRequest(QObject*) 0x000196e9   Thumb Code    50  QtOrganizer.in(.text)
    QtMobility::QOrganizerCollectionRemoveRequest::QOrganizerCollectionRemoveRequest__sub_object(QObject*) 0x000196e9   Thumb Code     0  QtOrganizer.in(.text)
    QtMobility::QOrganizerCollectionRemoveRequest::setCollectionId(const QtMobility::QOrganizerCollectionId&) 0x0001971b   Thumb Code    54  QtOrganizer.in(.text)
    QtMobility::QOrganizerCollectionRemoveRequest::setCollectionIds(const QList<QtMobility::QOrganizerCollectionId>&) 0x00019751   Thumb Code    34  QtOrganizer.in(.text)
    QtMobility::QOrganizerCollectionRemoveRequest::collectionIds() const 0x00019773   Thumb Code    46  QtOrganizer.in(.text)
    QtMobility::QOrganizerCollectionRemoveRequest::errorMap() const 0x000197a1   Thumb Code    60  QtOrganizer.in(.text)
    QtMobility::QOrganizerCollectionSaveRequest::getStaticMetaObject() 0x000197e5   Thumb Code     4  QtOrganizer.in(.text)
    QtMobility::QOrganizerCollectionSaveRequest::metaObject() const 0x000197e9   Thumb Code    12  QtOrganizer.in(.text)
    QtMobility::QOrganizerCollectionSaveRequest::qt_metacast(const char*) 0x000197f5   Thumb Code    40  QtOrganizer.in(.text)
    QtMobility::QOrganizerCollectionSaveRequest::qt_metacall(QMetaObject::Call, int, void**) 0x0001981d   Thumb Code     8  QtOrganizer.in(.text)
    QtMobility::QOrganizerCollectionSaveRequest::QOrganizerCollectionSaveRequest(QObject*) 0x00019825   Thumb Code    50  QtOrganizer.in(.text)
    QtMobility::QOrganizerCollectionSaveRequest::QOrganizerCollectionSaveRequest__sub_object(QObject*) 0x00019825   Thumb Code     0  QtOrganizer.in(.text)
    QtMobility::QOrganizerCollectionSaveRequest::setCollection(const QtMobility::QOrganizerCollection&) 0x00019857   Thumb Code    54  QtOrganizer.in(.text)
    QtMobility::QOrganizerCollectionSaveRequest::setCollections(const QList<QtMobility::QOrganizerCollection>&) 0x0001988d   Thumb Code    34  QtOrganizer.in(.text)
    QtMobility::QOrganizerCollectionSaveRequest::collections() const 0x000198af   Thumb Code    46  QtOrganizer.in(.text)
    QtMobility::QOrganizerCollectionSaveRequest::errorMap() const 0x000198dd   Thumb Code    60  QtOrganizer.in(.text)
    QtMobility::QOrganizerItemDetailDefinitionFetchRequest::getStaticMetaObject() 0x00019921   Thumb Code     4  QtOrganizer.in(.text)
    QtMobility::QOrganizerItemDetailDefinitionFetchRequest::metaObject() const 0x00019925   Thumb Code    12  QtOrganizer.in(.text)
    QtMobility::QOrganizerItemDetailDefinitionFetchRequest::qt_metacast(const char*) 0x00019931   Thumb Code    40  QtOrganizer.in(.text)
    QtMobility::QOrganizerItemDetailDefinitionFetchRequest::qt_metacall(QMetaObject::Call, int, void**) 0x00019959   Thumb Code     8  QtOrganizer.in(.text)
    QtMobility::QOrganizerItemDetailDefinitionFetchRequest::QOrganizerItemDetailDefinitionFetchRequest(QObject*) 0x00019961   Thumb Code    50  QtOrganizer.in(.text)
    QtMobility::QOrganizerItemDetailDefinitionFetchRequest::QOrganizerItemDetailDefinitionFetchRequest__sub_object(QObject*) 0x00019961   Thumb Code     0  QtOrganizer.in(.text)
    QtMobility::QOrganizerItemDetailDefinitionFetchRequest::setDefinitionName(const QString&) 0x00019993   Thumb Code    54  QtOrganizer.in(.text)
    QtMobility::QOrganizerItemDetailDefinitionFetchRequest::setDefinitionNames(const QStringList&) 0x000199c9   Thumb Code    34  QtOrganizer.in(.text)
    QtMobility::QOrganizerItemDetailDefinitionFetchRequest::definitionNames() const 0x000199eb   Thumb Code    46  QtOrganizer.in(.text)
    QtMobility::QOrganizerItemDetailDefinitionFetchRequest::setItemType(const QString&) 0x00019a19   Thumb Code    34  QtOrganizer.in(.text)
    QtMobility::QOrganizerItemDetailDefinitionFetchRequest::itemType() const 0x00019a3b   Thumb Code    34  QtOrganizer.in(.text)
    QtMobility::QOrganizerItemDetailDefinitionFetchRequest::definitions() const 0x00019a5d   Thumb Code    60  QtOrganizer.in(.text)
    QtMobility::QOrganizerItemDetailDefinitionFetchRequest::errorMap() const 0x00019a99   Thumb Code    60  QtOrganizer.in(.text)
    QtMobility::QOrganizerItemDetailDefinitionRemoveRequest::getStaticMetaObject() 0x00019add   Thumb Code     4  QtOrganizer.in(.text)
    QtMobility::QOrganizerItemDetailDefinitionRemoveRequest::metaObject() const 0x00019ae1   Thumb Code    12  QtOrganizer.in(.text)
    QtMobility::QOrganizerItemDetailDefinitionRemoveRequest::qt_metacast(const char*) 0x00019aed   Thumb Code    40  QtOrganizer.in(.text)
    QtMobility::QOrganizerItemDetailDefinitionRemoveRequest::qt_metacall(QMetaObject::Call, int, void**) 0x00019b15   Thumb Code     8  QtOrganizer.in(.text)
    QtMobility::QOrganizerItemDetailDefinitionRemoveRequest::QOrganizerItemDetailDefinitionRemoveRequest(QObject*) 0x00019b1d   Thumb Code    50  QtOrganizer.in(.text)
    QtMobility::QOrganizerItemDetailDefinitionRemoveRequest::QOrganizerItemDetailDefinitionRemoveRequest__sub_object(QObject*) 0x00019b1d   Thumb Code     0  QtOrganizer.in(.text)
    QtMobility::QOrganizerItemDetailDefinitionRemoveRequest::setDefinitionName(const QString&) 0x00019b4f   Thumb Code    54  QtOrganizer.in(.text)
    QtMobility::QOrganizerItemDetailDefinitionRemoveRequest::setDefinitionNames(const QStringList&) 0x00019b85   Thumb Code    34  QtOrganizer.in(.text)
    QtMobility::QOrganizerItemDetailDefinitionRemoveRequest::definitionNames() const 0x00019ba7   Thumb Code    46  QtOrganizer.in(.text)
    QtMobility::QOrganizerItemDetailDefinitionRemoveRequest::setItemType(const QString&) 0x00019bd5   Thumb Code    34  QtOrganizer.in(.text)
    QtMobility::QOrganizerItemDetailDefinitionRemoveRequest::itemType() const 0x00019bf7   Thumb Code    34  QtOrganizer.in(.text)
    QtMobility::QOrganizerItemDetailDefinitionRemoveRequest::errorMap() const 0x00019c19   Thumb Code    60  QtOrganizer.in(.text)
    QtMobility::QOrganizerItemDetailDefinitionSaveRequest::getStaticMetaObject() 0x00019c5d   Thumb Code     4  QtOrganizer.in(.text)
    QtMobility::QOrganizerItemDetailDefinitionSaveRequest::metaObject() const 0x00019c61   Thumb Code    12  QtOrganizer.in(.text)
    QtMobility::QOrganizerItemDetailDefinitionSaveRequest::qt_metacast(const char*) 0x00019c6d   Thumb Code    40  QtOrganizer.in(.text)
    QtMobility::QOrganizerItemDetailDefinitionSaveRequest::qt_metacall(QMetaObject::Call, int, void**) 0x00019c95   Thumb Code     8  QtOrganizer.in(.text)
    QtMobility::QOrganizerItemDetailDefinitionSaveRequest::QOrganizerItemDetailDefinitionSaveRequest(QObject*) 0x00019c9d   Thumb Code    50  QtOrganizer.in(.text)
    QtMobility::QOrganizerItemDetailDefinitionSaveRequest::QOrganizerItemDetailDefinitionSaveRequest__sub_object(QObject*) 0x00019c9d   Thumb Code     0  QtOrganizer.in(.text)
    QtMobility::QOrganizerItemDetailDefinitionSaveRequest::setDefinition(const QtMobility::QOrganizerItemDetailDefinition&) 0x00019ccf   Thumb Code    54  QtOrganizer.in(.text)
    QtMobility::QOrganizerItemDetailDefinitionSaveRequest::setDefinitions(const QList<QtMobility::QOrganizerItemDetailDefinition>&) 0x00019d05   Thumb Code    34  QtOrganizer.in(.text)
    QtMobility::QOrganizerItemDetailDefinitionSaveRequest::setItemType(const QString&) 0x00019d27   Thumb Code    34  QtOrganizer.in(.text)
    QtMobility::QOrganizerItemDetailDefinitionSaveRequest::itemType() const 0x00019d49   Thumb Code    34  QtOrganizer.in(.text)
    QtMobility::QOrganizerItemDetailDefinitionSaveRequest::definitions() const 0x00019d6b   Thumb Code    46  QtOrganizer.in(.text)
    QtMobility::QOrganizerItemDetailDefinitionSaveRequest::errorMap() const 0x00019d99   Thumb Code    60  QtOrganizer.in(.text)
    QtMobility::QOrganizerItemFetchRequest::getStaticMetaObject() 0x00019ddd   Thumb Code     4  QtOrganizer.in(.text)
    QtMobility::QOrganizerItemFetchRequest::metaObject() const 0x00019de1   Thumb Code    12  QtOrganizer.in(.text)
    QtMobility::QOrganizerItemFetchRequest::qt_metacast(const char*) 0x00019ded   Thumb Code    40  QtOrganizer.in(.text)
    QtMobility::QOrganizerItemFetchRequest::qt_metacall(QMetaObject::Call, int, void**) 0x00019e15   Thumb Code     8  QtOrganizer.in(.text)
    QtMobility::QOrganizerItemFetchRequest::QOrganizerItemFetchRequest(QObject*) 0x00019e1d   Thumb Code    50  QtOrganizer.in(.text)
    QtMobility::QOrganizerItemFetchRequest::QOrganizerItemFetchRequest__sub_object(QObject*) 0x00019e1d   Thumb Code     0  QtOrganizer.in(.text)
    QtMobility::QOrganizerItemFetchRequest::setFilter(const QtMobility::QOrganizerItemFilter&) 0x00019e4f   Thumb Code    34  QtOrganizer.in(.text)
    QtMobility::QOrganizerItemFetchRequest::setSorting(const QList<QtMobility::QOrganizerItemSortOrder>&) 0x00019e71   Thumb Code    72  QtOrganizer.in(.text)
    QtMobility::QOrganizerItemFetchRequest::setFetchHint(const QtMobility::QOrganizerItemFetchHint&) 0x00019eb9   Thumb Code    34  QtOrganizer.in(.text)
    QtMobility::QOrganizerItemFetchRequest::setStartDate(const QDateTime&) 0x00019edb   Thumb Code    34  QtOrganizer.in(.text)
    QtMobility::QOrganizerItemFetchRequest::setEndDate(const QDateTime&) 0x00019efd   Thumb Code    34  QtOrganizer.in(.text)
    QtMobility::QOrganizerItemFetchRequest::filter() const 0x00019f1f   Thumb Code    34  QtOrganizer.in(.text)
    QtMobility::QOrganizerItemFetchRequest::sorting() const 0x00019f41   Thumb Code    46  QtOrganizer.in(.text)
    QtMobility::QOrganizerItemFetchRequest::fetchHint() const 0x00019f6f   Thumb Code    34  QtOrganizer.in(.text)
    QtMobility::QOrganizerItemFetchRequest::startDate() const 0x00019f91   Thumb Code    34  QtOrganizer.in(.text)
    QtMobility::QOrganizerItemFetchRequest::endDate() const 0x00019fb3   Thumb Code    34  QtOrganizer.in(.text)
    QtMobility::QOrganizerItemFetchRequest::items() const 0x00019fd5   Thumb Code    48  QtOrganizer.in(.text)
    QtMobility::QOrganizerItemFetchForExportRequest::getStaticMetaObject() 0x0001a00d   Thumb Code     4  QtOrganizer.in(.text)
    QtMobility::QOrganizerItemFetchForExportRequest::metaObject() const 0x0001a011   Thumb Code    12  QtOrganizer.in(.text)
    QtMobility::QOrganizerItemFetchForExportRequest::qt_metacast(const char*) 0x0001a01d   Thumb Code    40  QtOrganizer.in(.text)
    QtMobility::QOrganizerItemFetchForExportRequest::qt_metacall(QMetaObject::Call, int, void**) 0x0001a045   Thumb Code     8  QtOrganizer.in(.text)
    QtMobility::QOrganizerItemFetchForExportRequest::QOrganizerItemFetchForExportRequest(QObject*) 0x0001a04d   Thumb Code    50  QtOrganizer.in(.text)
    QtMobility::QOrganizerItemFetchForExportRequest::QOrganizerItemFetchForExportRequest__sub_object(QObject*) 0x0001a04d   Thumb Code     0  QtOrganizer.in(.text)
    QtMobility::QOrganizerItemFetchForExportRequest::setFilter(const QtMobility::QOrganizerItemFilter&) 0x0001a07f   Thumb Code    34  QtOrganizer.in(.text)
    QtMobility::QOrganizerItemFetchForExportRequest::setSorting(const QList<QtMobility::QOrganizerItemSortOrder>&) 0x0001a0a1   Thumb Code    72  QtOrganizer.in(.text)
    QtMobility::QOrganizerItemFetchForExportRequest::setFetchHint(const QtMobility::QOrganizerItemFetchHint&) 0x0001a0e9   Thumb Code    34  QtOrganizer.in(.text)
    QtMobility::QOrganizerItemFetchForExportRequest::setStartDate(const QDateTime&) 0x0001a10b   Thumb Code    34  QtOrganizer.in(.text)
    QtMobility::QOrganizerItemFetchForExportRequest::setEndDate(const QDateTime&) 0x0001a12d   Thumb Code    34  QtOrganizer.in(.text)
    QtMobility::QOrganizerItemFetchForExportRequest::filter() const 0x0001a14f   Thumb Code    34  QtOrganizer.in(.text)
    QtMobility::QOrganizerItemFetchForExportRequest::sorting() const 0x0001a171   Thumb Code    46  QtOrganizer.in(.text)
    QtMobility::QOrganizerItemFetchForExportRequest::fetchHint() const 0x0001a19f   Thumb Code    34  QtOrganizer.in(.text)
    QtMobility::QOrganizerItemFetchForExportRequest::startDate() const 0x0001a1c1   Thumb Code    34  QtOrganizer.in(.text)
    QtMobility::QOrganizerItemFetchForExportRequest::endDate() const 0x0001a1e3   Thumb Code    34  QtOrganizer.in(.text)
    QtMobility::QOrganizerItemFetchForExportRequest::items() const 0x0001a205   Thumb Code    48  QtOrganizer.in(.text)
    QtMobility::QOrganizerItemOccurrenceFetchRequest::getStaticMetaObject() 0x0001a23d   Thumb Code     4  QtOrganizer.in(.text)
    QtMobility::QOrganizerItemOccurrenceFetchRequest::metaObject() const 0x0001a241   Thumb Code    12  QtOrganizer.in(.text)
    QtMobility::QOrganizerItemOccurrenceFetchRequest::qt_metacast(const char*) 0x0001a24d   Thumb Code    40  QtOrganizer.in(.text)
    QtMobility::QOrganizerItemOccurrenceFetchRequest::qt_metacall(QMetaObject::Call, int, void**) 0x0001a275   Thumb Code     8  QtOrganizer.in(.text)
    QtMobility::QOrganizerItemOccurrenceFetchRequest::QOrganizerItemOccurrenceFetchRequest(QObject*) 0x0001a27d   Thumb Code    50  QtOrganizer.in(.text)
    QtMobility::QOrganizerItemOccurrenceFetchRequest::QOrganizerItemOccurrenceFetchRequest__sub_object(QObject*) 0x0001a27d   Thumb Code     0  QtOrganizer.in(.text)
    QtMobility::QOrganizerItemOccurrenceFetchRequest::setParentItem(const QtMobility::QOrganizerItem&) 0x0001a2af   Thumb Code    34  QtOrganizer.in(.text)
    QtMobility::QOrganizerItemOccurrenceFetchRequest::setStartDate(const QDateTime&) 0x0001a2d1   Thumb Code    34  QtOrganizer.in(.text)
    QtMobility::QOrganizerItemOccurrenceFetchRequest::setEndDate(const QDateTime&) 0x0001a2f3   Thumb Code    34  QtOrganizer.in(.text)
    QtMobility::QOrganizerItemOccurrenceFetchRequest::setMaxOccurrences(int) 0x0001a315   Thumb Code    26  QtOrganizer.in(.text)
    QtMobility::QOrganizerItemOccurrenceFetchRequest::setFetchHint(const QtMobility::QOrganizerItemFetchHint&) 0x0001a32f   Thumb Code    34  QtOrganizer.in(.text)
    QtMobility::QOrganizerItemOccurrenceFetchRequest::parentItem() const 0x0001a351   Thumb Code    34  QtOrganizer.in(.text)
    QtMobility::QOrganizerItemOccurrenceFetchRequest::startDate() const 0x0001a373   Thumb Code    34  QtOrganizer.in(.text)
    QtMobility::QOrganizerItemOccurrenceFetchRequest::endDate() const 0x0001a395   Thumb Code    34  QtOrganizer.in(.text)
    QtMobility::QOrganizerItemOccurrenceFetchRequest::maxOccurrences() const 0x0001a3b7   Thumb Code    26  QtOrganizer.in(.text)
    QtMobility::QOrganizerItemOccurrenceFetchRequest::fetchHint() const 0x0001a3d1   Thumb Code    34  QtOrganizer.in(.text)
    QtMobility::QOrganizerItemOccurrenceFetchRequest::itemOccurrences() const 0x0001a3f3   Thumb Code    48  QtOrganizer.in(.text)
    QtMobility::QOrganizerItemIdFetchRequest::getStaticMetaObject() 0x0001a42d   Thumb Code     4  QtOrganizer.in(.text)
    QtMobility::QOrganizerItemIdFetchRequest::metaObject() const 0x0001a431   Thumb Code    12  QtOrganizer.in(.text)
    QtMobility::QOrganizerItemIdFetchRequest::qt_metacast(const char*) 0x0001a43d   Thumb Code    40  QtOrganizer.in(.text)
    QtMobility::QOrganizerItemIdFetchRequest::qt_metacall(QMetaObject::Call, int, void**) 0x0001a465   Thumb Code     8  QtOrganizer.in(.text)
    QtMobility::QOrganizerItemIdFetchRequest::QOrganizerItemIdFetchRequest(QObject*) 0x0001a46d   Thumb Code    50  QtOrganizer.in(.text)
    QtMobility::QOrganizerItemIdFetchRequest::QOrganizerItemIdFetchRequest__sub_object(QObject*) 0x0001a46d   Thumb Code     0  QtOrganizer.in(.text)
    QtMobility::QOrganizerItemIdFetchRequest::setFilter(const QtMobility::QOrganizerItemFilter&) 0x0001a49f   Thumb Code    34  QtOrganizer.in(.text)
    QtMobility::QOrganizerItemIdFetchRequest::setSorting(const QList<QtMobility::QOrganizerItemSortOrder>&) 0x0001a4c1   Thumb Code    72  QtOrganizer.in(.text)
    QtMobility::QOrganizerItemIdFetchRequest::setStartDate(const QDateTime&) 0x0001a509   Thumb Code    34  QtOrganizer.in(.text)
    QtMobility::QOrganizerItemIdFetchRequest::setEndDate(const QDateTime&) 0x0001a52b   Thumb Code    34  QtOrganizer.in(.text)
    QtMobility::QOrganizerItemIdFetchRequest::filter() const 0x0001a54d   Thumb Code    34  QtOrganizer.in(.text)
    QtMobility::QOrganizerItemIdFetchRequest::sorting() const 0x0001a56f   Thumb Code    46  QtOrganizer.in(.text)
    QtMobility::QOrganizerItemIdFetchRequest::startDate() const 0x0001a59d   Thumb Code    34  QtOrganizer.in(.text)
    QtMobility::QOrganizerItemIdFetchRequest::endDate() const 0x0001a5bf   Thumb Code    34  QtOrganizer.in(.text)
    QtMobility::QOrganizerItemIdFetchRequest::itemIds() const 0x0001a5e1   Thumb Code    48  QtOrganizer.in(.text)
    QtMobility::QOrganizerItemRemoveRequest::getStaticMetaObject() 0x0001a619   Thumb Code     4  QtOrganizer.in(.text)
    QtMobility::QOrganizerItemRemoveRequest::metaObject() const 0x0001a61d   Thumb Code    12  QtOrganizer.in(.text)
    QtMobility::QOrganizerItemRemoveRequest::qt_metacast(const char*) 0x0001a629   Thumb Code    40  QtOrganizer.in(.text)
    QtMobility::QOrganizerItemRemoveRequest::qt_metacall(QMetaObject::Call, int, void**) 0x0001a651   Thumb Code     8  QtOrganizer.in(.text)
    QtMobility::QOrganizerItemRemoveRequest::QOrganizerItemRemoveRequest(QObject*) 0x0001a659   Thumb Code    50  QtOrganizer.in(.text)
    QtMobility::QOrganizerItemRemoveRequest::QOrganizerItemRemoveRequest__sub_object(QObject*) 0x0001a659   Thumb Code     0  QtOrganizer.in(.text)
    QtMobility::QOrganizerItemRemoveRequest::setItemId(const QtMobility::QOrganizerItemId&) 0x0001a68b   Thumb Code    54  QtOrganizer.in(.text)
    QtMobility::QOrganizerItemRemoveRequest::setItemIds(const QList<QtMobility::QOrganizerItemId>&) 0x0001a6c1   Thumb Code    34  QtOrganizer.in(.text)
    QtMobility::QOrganizerItemRemoveRequest::itemIds() const 0x0001a6e3   Thumb Code    46  QtOrganizer.in(.text)
    QtMobility::QOrganizerItemRemoveRequest::errorMap() const 0x0001a711   Thumb Code    60  QtOrganizer.in(.text)
    QtMobility::QOrganizerItemSaveRequest::getStaticMetaObject() 0x0001a755   Thumb Code     4  QtOrganizer.in(.text)
    QtMobility::QOrganizerItemSaveRequest::metaObject() const 0x0001a759   Thumb Code    12  QtOrganizer.in(.text)
    QtMobility::QOrganizerItemSaveRequest::qt_metacast(const char*) 0x0001a765   Thumb Code    40  QtOrganizer.in(.text)
    QtMobility::QOrganizerItemSaveRequest::qt_metacall(QMetaObject::Call, int, void**) 0x0001a78d   Thumb Code     8  QtOrganizer.in(.text)
    QtMobility::QOrganizerItemSaveRequest::QOrganizerItemSaveRequest(QObject*) 0x0001a795   Thumb Code    50  QtOrganizer.in(.text)
    QtMobility::QOrganizerItemSaveRequest::QOrganizerItemSaveRequest__sub_object(QObject*) 0x0001a795   Thumb Code     0  QtOrganizer.in(.text)
    QtMobility::QOrganizerItemSaveRequest::setItem(const QtMobility::QOrganizerItem&) 0x0001a7c7   Thumb Code    54  QtOrganizer.in(.text)
    QtMobility::QOrganizerItemSaveRequest::setItems(const QList<QtMobility::QOrganizerItem>&) 0x0001a7fd   Thumb Code    34  QtOrganizer.in(.text)
    QtMobility::QOrganizerItemSaveRequest::items() const 0x0001a81f   Thumb Code    46  QtOrganizer.in(.text)
    QtMobility::QOrganizerItemSaveRequest::errorMap() const 0x0001a84d   Thumb Code    60  QtOrganizer.in(.text)
    _E32Dll_Body                             0x0001a891   Thumb Code    34  uc_dll.o(.text)
    CppBSSInitializationError                0x0001a8b8   ARM Code       4  ucppfini.o(.text)
    __aeabi_atexit                           0x0001a8bc   ARM Code      28  ucppfini.o(.text)
    __cxa_atexit                             0x0001a8d8   ARM Code      48  ucppfini.o(.text)
    __cxa_finalize                           0x0001a908   ARM Code      48  ucppfini.o(.text)
    run_static_dtors                         0x0001a938   ARM Code       8  ucppfini.o(.text)
    __DLL_Export_Table__                     0x0001cf60   ARM Code       0  QtOrganizer{00010103}.exp(ExportTable)
    DLL##ExportTableSize                     0x0001cf64   Data           0  QtOrganizer{00010103}.exp(ExportTable)
    DLL##ExportTable                         0x0001cf68   Data           0  QtOrganizer{00010103}.exp(ExportTable)
    RFs::Att(const TDesC16&, unsigned&) const 0x0001dd54   ARM Code       0  efsrv{000a0000}-231.o(StubCode)
    RFs::Connect(int)                        0x0001dd5c   ARM Code       0  efsrv{000a0000}-68.o(StubCode)
    operator delete[] (void*)                0x0001dd64   ARM Code       0  libstdcpp{00010000}-986.o(StubCode)
    operator delete (void*)                  0x0001dd6c   ARM Code       0  libstdcpp{00010000}-988.o(StubCode)
    operator new(unsigned)                   0x0001dd74   ARM Code       0  libstdcpp{00010000}-992.o(StubCode)
    QDir::toNativeSeparators(const QString&) 0x0001dd7c   ARM Code       0  QtCore{00040703}-1453.o(StubCode)
    QDir::cd(const QString&)                 0x0001dd84   ARM Code       0  QtCore{00040703}-1457.o(StubCode)
    QDir::QDir(const QString&)               0x0001dd8c   ARM Code       0  QtCore{00040703}-1471.o(StubCode)
    QDir::~QDir()                            0x0001dd94   ARM Code       0  QtCore{00040703}-1477.o(StubCode)
    QByteArray::realloc(int)                 0x0001dd9c   ARM Code       0  QtCore{00040703}-150.o(StubCode)
    QDate::setDate(int, int, int)            0x0001dda4   ARM Code       0  QtCore{00040703}-1581.o(StubCode)
    QTime::QTime(int, int, int, int)         0x0001ddac   ARM Code       0  QtCore{00040703}-1643.o(StubCode)
    QUuid::createUuid()                      0x0001ddb4   ARM Code       0  QtCore{00040703}-1645.o(StubCode)
    QMutex::lock()                           0x0001ddbc   ARM Code       0  QtCore{00040703}-1670.o(StubCode)
    QMutex::unlock()                         0x0001ddc4   ARM Code       0  QtCore{00040703}-1671.o(StubCode)
    QMutex::QMutex(QMutex::RecursionMode)    0x0001ddcc   ARM Code       0  QtCore{00040703}-1674.o(StubCode)
    QMutex::~QMutex()                        0x0001ddd4   ARM Code       0  QtCore{00040703}-1676.o(StubCode)
    QObject::childEvent(QChildEvent*)        0x0001dddc   ARM Code       0  QtCore{00040703}-1760.o(StubCode)
    QObject::timerEvent(QTimerEvent*)        0x0001dde4   ARM Code       0  QtCore{00040703}-1763.o(StubCode)
    QObject::customEvent(QEvent*)            0x0001ddec   ARM Code       0  QtCore{00040703}-1764.o(StubCode)
    QObject::eventFilter(QObject*, QEvent*)  0x0001ddf4   ARM Code       0  QtCore{00040703}-1766.o(StubCode)
    QObject::qt_metacall(QMetaObject::Call, int, void**) 0x0001ddfc   ARM Code       0  QtCore{00040703}-1767.o(StubCode)
    QObject::qt_metacast(const char*)        0x0001de04   ARM Code       0  QtCore{00040703}-1768.o(StubCode)
    QObject::connectNotify(const char*)      0x0001de0c   ARM Code       0  QtCore{00040703}-1773.o(StubCode)
    QObject::disconnectNotify(const char*)   0x0001de14   ARM Code       0  QtCore{00040703}-1777.o(StubCode)
    QObject::event(QEvent*)                  0x0001de1c   ARM Code       0  QtCore{00040703}-1784.o(StubCode)
    QObject::connect(const QObject*, const char*, const QObject*, const char*, Qt::ConnectionType) 0x0001de24   ARM Code       0  QtCore{00040703}-1785.o(StubCode)
    QObject::QObject(QObject*)               0x0001de2c   ARM Code       0  QtCore{00040703}-1789.o(StubCode)
    QObject::~QObject()                      0x0001de34   ARM Code       0  QtCore{00040703}-1794.o(StubCode)
    QRegExp::QRegExp(const QString&, Qt::CaseSensitivity, QRegExp::PatternSyntax) 0x0001de3c   ARM Code       0  QtCore{00040703}-1805.o(StubCode)
    QRegExp::~QRegExp()                      0x0001de44   ARM Code       0  QtCore{00040703}-1811.o(StubCode)
    QString::fromLatin1(const char*, int)    0x0001de4c   ARM Code       0  QtCore{00040703}-1814.o(StubCode)
    QString::compare_helper(const QChar*, int, const QChar*, int, Qt::CaseSensitivity) 0x0001de54   ARM Code       0  QtCore{00040703}-1821.o(StubCode)
    QString::fromLatin1_helper(const char*, int) 0x0001de5c   ARM Code       0  QtCore{00040703}-1826.o(StubCode)
    QString::free(QString::Data*)            0x0001de64   ARM Code       0  QtCore{00040703}-1830.o(StubCode)
    QString::grow(int)                       0x0001de6c   ARM Code       0  QtCore{00040703}-1831.o(StubCode)
    QString::append(const QString&)          0x0001de74   ARM Code       0  QtCore{00040703}-1836.o(StubCode)
    QString::number(int, int)                0x0001de7c   ARM Code       0  QtCore{00040703}-1842.o(StubCode)
    QString::number(unsigned, int)           0x0001de84   ARM Code       0  QtCore{00040703}-1843.o(StubCode)
    QString::realloc(int)                    0x0001de8c   ARM Code       0  QtCore{00040703}-1855.o(StubCode)
    QString::realloc()                       0x0001de94   ARM Code       0  QtCore{00040703}-1856.o(StubCode)
    QString::replace(QChar, const QLatin1String&, Qt::CaseSensitivity) 0x0001de9c   ARM Code       0  QtCore{00040703}-1857.o(StubCode)
    QString::replace(const QLatin1String&, const QLatin1String&, Qt::CaseSensitivity) 0x0001dea4   ARM Code       0  QtCore{00040703}-1862.o(StubCode)
    QString::fromAscii(const char*, int)     0x0001deac   ARM Code       0  QtCore{00040703}-1874.o(StubCode)
    QString::QString(int, Qt::Initialization) 0x0001deb4   ARM Code       0  QtCore{00040703}-1879.o(StubCode)
    QString::operator =(const QString&)      0x0001debc   ARM Code       0  QtCore{00040703}-1885.o(StubCode)
    QMapData::node_delete(QMapData::Node**, int, QMapData::Node*) 0x0001dec4   ARM Code       0  QtCore{00040703}-1947.o(StubCode)
    QMapData::continueFreeData(int)          0x0001decc   ARM Code       0  QtCore{00040703}-1949.o(StubCode)
    QVariant::QVariant(const QDate&)         0x0001ded4   ARM Code       0  QtCore{00040703}-2020.o(StubCode)
    QVariant::QVariant(const QList<QVariant>&) 0x0001dedc   ARM Code       0  QtCore{00040703}-2023.o(StubCode)
    QVariant::QVariant(const QString&)       0x0001dee4   ARM Code       0  QtCore{00040703}-2034.o(StubCode)
    QVariant::QVariant(const QDateTime&)     0x0001deec   ARM Code       0  QtCore{00040703}-2036.o(StubCode)
    QVariant::QVariant(const QVariant&)      0x0001def4   ARM Code       0  QtCore{00040703}-2037.o(StubCode)
    QVariant::QVariant(bool)                 0x0001defc   ARM Code       0  QtCore{00040703}-2038.o(StubCode)
    QVariant::QVariant(int)                  0x0001df04   ARM Code       0  QtCore{00040703}-2040.o(StubCode)
    QVariant::QVariant(int, const void*, unsigned) 0x0001df0c   ARM Code       0  QtCore{00040703}-2042.o(StubCode)
    QVariant::~QVariant()                    0x0001df14   ARM Code       0  QtCore{00040703}-2082.o(StubCode)
    QVariant::operator =(const QVariant&)    0x0001df1c   ARM Code       0  QtCore{00040703}-2084.o(StubCode)
    QDateTime::currentDateTime()             0x0001df24   ARM Code       0  QtCore{00040703}-2097.o(StubCode)
    QDateTime::setDate(const QDate&)         0x0001df2c   ARM Code       0  QtCore{00040703}-2099.o(StubCode)
    QDateTime::setTime(const QTime&)         0x0001df34   ARM Code       0  QtCore{00040703}-2100.o(StubCode)
    QDateTime::QDateTime(const QDate&, const QTime&, Qt::TimeSpec) 0x0001df3c   ARM Code       0  QtCore{00040703}-2103.o(StubCode)
    QDateTime::QDateTime(const QDateTime&)   0x0001df44   ARM Code       0  QtCore{00040703}-2104.o(StubCode)
    QDateTime::QDateTime()                   0x0001df4c   ARM Code       0  QtCore{00040703}-2105.o(StubCode)
    QDateTime::~QDateTime()                  0x0001df54   ARM Code       0  QtCore{00040703}-2110.o(StubCode)
    QDateTime::operator =(const QDateTime&)  0x0001df5c   ARM Code       0  QtCore{00040703}-2112.o(StubCode)
    QHashData::free_helper(void(*)(QHashData::Node*)) 0x0001df64   ARM Code       0  QtCore{00040703}-2134.o(StubCode)
    QHashData::rehash(int)                   0x0001df6c   ARM Code       0  QtCore{00040703}-2141.o(StubCode)
    QHashData::freeNode(void*)               0x0001df74   ARM Code       0  QtCore{00040703}-2142.o(StubCode)
    QHashData::nextNode(QHashData::Node*)    0x0001df7c   ARM Code       0  QtCore{00040703}-2143.o(StubCode)
    QListData::erase(void**)                 0x0001df84   ARM Code       0  QtCore{00040703}-2186.o(StubCode)
    QListData::append()                      0x0001df8c   ARM Code       0  QtCore{00040703}-2188.o(StubCode)
    QListData::insert(int)                   0x0001df94   ARM Code       0  QtCore{00040703}-2190.o(StubCode)
    QListData::remove(int)                   0x0001df9c   ARM Code       0  QtCore{00040703}-2191.o(StubCode)
    QListData::append2(const QListData&)     0x0001dfa4   ARM Code       0  QtCore{00040703}-2193.o(StubCode)
    QListData::prepend()                     0x0001dfac   ARM Code       0  QtCore{00040703}-2196.o(StubCode)
    QListData::realloc(int)                  0x0001dfb4   ARM Code       0  QtCore{00040703}-2197.o(StubCode)
    QMetaType::registerType(const char*, void(*)(void*), void*(*)(const void*)) 0x0001dfbc   ARM Code       0  QtCore{00040703}-2199.o(StubCode)
    QDataStream::resetStatus()               0x0001dfc4   ARM Code       0  QtCore{00040703}-225.o(StubCode)
    QtPrivate::QStringList_join(const QStringList*, const QString&) 0x0001dfcc   ARM Code       0  QtCore{00040703}-2315.o(StubCode)
    QtPrivate::QStringList_contains(const QStringList*, const QString&, Qt::CaseSensitivity) 0x0001dfd4   ARM Code       0  QtCore{00040703}-2321.o(StubCode)
    QDataStream::setStatus(QDataStream::Status) 0x0001dfdc   ARM Code       0  QtCore{00040703}-233.o(StubCode)
    QDataStream::atEnd() const               0x0001dfe4   ARM Code       0  QtCore{00040703}-2382.o(StubCode)
    QDataStream::status() const              0x0001dfec   ARM Code       0  QtCore{00040703}-2383.o(StubCode)
    qAddPostRoutine(void(*)())               0x0001dff4   ARM Code       0  QtCore{00040703}-24.o(StubCode)
    QDataStream::operator <<(signed char)    0x0001dffc   ARM Code       0  QtCore{00040703}-246.o(StubCode)
    QDataStream::operator <<(bool)           0x0001e004   ARM Code       0  QtCore{00040703}-247.o(StubCode)
    QDataStream::operator <<(int)            0x0001e00c   ARM Code       0  QtCore{00040703}-250.o(StubCode)
    QDataStream::operator >>(signed char&)   0x0001e014   ARM Code       0  QtCore{00040703}-254.o(StubCode)
    QDataStream::operator >>(bool&)          0x0001e01c   ARM Code       0  QtCore{00040703}-255.o(StubCode)
    QDataStream::operator >>(int&)           0x0001e024   ARM Code       0  QtCore{00040703}-258.o(StubCode)
    QMetaObject::changeGuard(QObject**, QObject*) 0x0001e02c   ARM Code       0  QtCore{00040703}-274.o(StubCode)
    QMetaObject::removeGuard(QObject**)      0x0001e034   ARM Code       0  QtCore{00040703}-275.o(StubCode)
    QDir::absolutePath() const               0x0001e03c   ARM Code       0  QtCore{00040703}-2791.o(StubCode)
    QDir::absoluteFilePath(const QString&) const 0x0001e044   ARM Code       0  QtCore{00040703}-2795.o(StubCode)
    QDir::path() const                       0x0001e04c   ARM Code       0  QtCore{00040703}-2797.o(StubCode)
    QDir::filePath(const QString&) const     0x0001e054   ARM Code       0  QtCore{00040703}-2810.o(StubCode)
    QDir::entryList(QFlags<QDir::Filter>, QFlags<QDir::SortFlag>) const 0x0001e05c   ARM Code       0  QtCore{00040703}-2811.o(StubCode)
    QMetaObject::activate(QObject*, const QMetaObject*, int, void**) 0x0001e064   ARM Code       0  QtCore{00040703}-282.o(StubCode)
    QMetaObject::addGuard(QObject**)         0x0001e06c   ARM Code       0  QtCore{00040703}-286.o(StubCode)
    QDate::weekNumber(int*) const            0x0001e074   ARM Code       0  QtCore{00040703}-2881.o(StubCode)
    QDate::day() const                       0x0001e07c   ARM Code       0  QtCore{00040703}-2883.o(StubCode)
    QDate::year() const                      0x0001e084   ARM Code       0  QtCore{00040703}-2884.o(StubCode)
    QDate::month() const                     0x0001e08c   ARM Code       0  QtCore{00040703}-2885.o(StubCode)
    QDate::daysTo(const QDate&) const        0x0001e094   ARM Code       0  QtCore{00040703}-2886.o(StubCode)
    QDate::addDays(int) const                0x0001e09c   ARM Code       0  QtCore{00040703}-2887.o(StubCode)
    QDate::isValid() const                   0x0001e0a4   ARM Code       0  QtCore{00040703}-2888.o(StubCode)
    QDate::dayOfWeek() const                 0x0001e0ac   ARM Code       0  QtCore{00040703}-2893.o(StubCode)
    QDate::dayOfYear() const                 0x0001e0b4   ARM Code       0  QtCore{00040703}-2894.o(StubCode)
    QUuid::toString() const                  0x0001e0bc   ARM Code       0  QtCore{00040703}-2928.o(StubCode)
    QString::startsWith(const QString&, Qt::CaseSensitivity) const 0x0001e0c4   ARM Code       0  QtCore{00040703}-3033.o(StubCode)
    QString::toLocal8Bit() const             0x0001e0cc   ARM Code       0  QtCore{00040703}-3040.o(StubCode)
    QString::arg(const QString&, int, const QChar&) const 0x0001e0d4   ARM Code       0  QtCore{00040703}-3049.o(StubCode)
    QString::arg(long long, int, int, const QChar&) const 0x0001e0dc   ARM Code       0  QtCore{00040703}-3052.o(StubCode)
    QString::mid(int, int) const             0x0001e0e4   ARM Code       0  QtCore{00040703}-3054.o(StubCode)
    QString::split(const QChar&, QString::SplitBehavior, Qt::CaseSensitivity) const 0x0001e0ec   ARM Code       0  QtCore{00040703}-3060.o(StubCode)
    QString::split(const QRegExp&, QString::SplitBehavior) const 0x0001e0f4   ARM Code       0  QtCore{00040703}-3061.o(StubCode)
    QString::split(const QString&, QString::SplitBehavior, Qt::CaseSensitivity) const 0x0001e0fc   ARM Code       0  QtCore{00040703}-3062.o(StubCode)
    QString::toInt(bool*, int) const         0x0001e104   ARM Code       0  QtCore{00040703}-3063.o(StubCode)
    QString::utf16() const                   0x0001e10c   ARM Code       0  QtCore{00040703}-3064.o(StubCode)
    QString::toUInt(bool*, int) const        0x0001e114   ARM Code       0  QtCore{00040703}-3067.o(StubCode)
    QString::compare(const QString&, Qt::CaseSensitivity) const 0x0001e11c   ARM Code       0  QtCore{00040703}-3072.o(StubCode)
    QString::indexOf(const QLatin1String&, int, Qt::CaseSensitivity) const 0x0001e124   ARM Code       0  QtCore{00040703}-3075.o(StubCode)
    QString::indexOf(const QString&, int, Qt::CaseSensitivity) const 0x0001e12c   ARM Code       0  QtCore{00040703}-3077.o(StubCode)
    QString::trimmed() const                 0x0001e134   ARM Code       0  QtCore{00040703}-3087.o(StubCode)
    QString::endsWith(const QLatin1String&, Qt::CaseSensitivity) const 0x0001e13c   ARM Code       0  QtCore{00040703}-3088.o(StubCode)
    QString::endsWith(const QString&, Qt::CaseSensitivity) const 0x0001e144   ARM Code       0  QtCore{00040703}-3090.o(StubCode)
    QString::multiArg(int, const QString**) const 0x0001e14c   ARM Code       0  QtCore{00040703}-3091.o(StubCode)
    QString::rightRef(int) const             0x0001e154   ARM Code       0  QtCore{00040703}-3093.o(StubCode)
    QString::toLatin1() const                0x0001e15c   ARM Code       0  QtCore{00040703}-3095.o(StubCode)
    QString::operator ==(const QLatin1String&) const 0x0001e164   ARM Code       0  QtCore{00040703}-3097.o(StubCode)
    QString::operator ==(const QString&) const 0x0001e16c   ARM Code       0  QtCore{00040703}-3098.o(StubCode)
    QString::operator <(const QString&) const 0x0001e174   ARM Code       0  QtCore{00040703}-3101.o(StubCode)
    QTextStream::QTextStream(QString*, QFlags<QIODevice::OpenModeFlag>) 0x0001e17c   ARM Code       0  QtCore{00040703}-312.o(StubCode)
    QVariant::toDateTime() const             0x0001e184   ARM Code       0  QtCore{00040703}-3131.o(StubCode)
    QVariant::toLongLong(bool*) const        0x0001e18c   ARM Code       0  QtCore{00040703}-3132.o(StubCode)
    QVariant::toULongLong(bool*) const       0x0001e194   ARM Code       0  QtCore{00040703}-3134.o(StubCode)
    QVariant::cmp(const QVariant&) const     0x0001e19c   ARM Code       0  QtCore{00040703}-3136.o(StubCode)
    QVariant::type() const                   0x0001e1a4   ARM Code       0  QtCore{00040703}-3138.o(StubCode)
    QVariant::toInt(bool*) const             0x0001e1ac   ARM Code       0  QtCore{00040703}-3139.o(StubCode)
    QVariant::isNull() const                 0x0001e1b4   ARM Code       0  QtCore{00040703}-3142.o(StubCode)
    QVariant::toDate() const                 0x0001e1bc   ARM Code       0  QtCore{00040703}-3145.o(StubCode)
    QVariant::toList() const                 0x0001e1c4   ARM Code       0  QtCore{00040703}-3148.o(StubCode)
    QVariant::toTime() const                 0x0001e1cc   ARM Code       0  QtCore{00040703}-3152.o(StubCode)
    QVariant::toUInt(bool*) const            0x0001e1d4   ARM Code       0  QtCore{00040703}-3153.o(StubCode)
    QVariant::toDouble(bool*) const          0x0001e1dc   ARM Code       0  QtCore{00040703}-3159.o(StubCode)
    QVariant::toString() const               0x0001e1e4   ARM Code       0  QtCore{00040703}-3163.o(StubCode)
    QVariant::userType() const               0x0001e1ec   ARM Code       0  QtCore{00040703}-3165.o(StubCode)
    QVariant::constData() const              0x0001e1f4   ARM Code       0  QtCore{00040703}-3166.o(StubCode)
    QDateTime::date() const                  0x0001e1fc   ARM Code       0  QtCore{00040703}-3170.o(StubCode)
    QDateTime::time() const                  0x0001e204   ARM Code       0  QtCore{00040703}-3171.o(StubCode)
    QDateTime::isNull() const                0x0001e20c   ARM Code       0  QtCore{00040703}-3173.o(StubCode)
    QDateTime::isValid() const               0x0001e214   ARM Code       0  QtCore{00040703}-3177.o(StubCode)
    QDateTime::operator ==(const QDateTime&) const 0x0001e21c   ARM Code       0  QtCore{00040703}-3186.o(StubCode)
    QDateTime::operator <(const QDateTime&) const 0x0001e224   ARM Code       0  QtCore{00040703}-3187.o(StubCode)
    qt_message_output(QtMsgType, const char*) 0x0001e22c   ARM Code       0  QtCore{00040703}-32.o(StubCode)
    QTextStream::~QTextStream()              0x0001e234   ARM Code       0  QtCore{00040703}-324.o(StubCode)
    QTextStream::operator <<(const QString&) 0x0001e23c   ARM Code       0  QtCore{00040703}-331.o(StubCode)
    QTextStream::operator <<(char)           0x0001e244   ARM Code       0  QtCore{00040703}-332.o(StubCode)
    QTextStream::operator <<(int)            0x0001e24c   ARM Code       0  QtCore{00040703}-335.o(StubCode)
    QTextStream::operator <<(unsigned)       0x0001e254   ARM Code       0  QtCore{00040703}-336.o(StubCode)
    operator <<(QDebug, const QVariant&)     0x0001e25c   ARM Code       0  QtCore{00040703}-3483.o(StubCode)
    operator <<(QDataStream&, const QString&) 0x0001e264   ARM Code       0  QtCore{00040703}-3502.o(StubCode)
    operator <<(QDataStream&, const QVariant&) 0x0001e26c   ARM Code       0  QtCore{00040703}-3503.o(StubCode)
    operator <<(QDataStream&, const QDateTime&) 0x0001e274   ARM Code       0  QtCore{00040703}-3505.o(StubCode)
    operator >>(QDataStream&, QString&)      0x0001e27c   ARM Code       0  QtCore{00040703}-3524.o(StubCode)
    operator >>(QDataStream&, QVariant&)     0x0001e284   ARM Code       0  QtCore{00040703}-3525.o(StubCode)
    operator >>(QDataStream&, QDateTime&)    0x0001e28c   ARM Code       0  QtCore{00040703}-3527.o(StubCode)
    QMapData::createData(int)                0x0001e294   ARM Code       0  QtCore{00040703}-3607.o(StubCode)
    QMapData::node_create(QMapData::Node**, int, int) 0x0001e29c   ARM Code       0  QtCore{00040703}-3608.o(StubCode)
    QHashData::allocateNode(int)             0x0001e2a4   ARM Code       0  QtCore{00040703}-3609.o(StubCode)
    QHashData::detach_helper2(void(*)(QHashData::Node*, void*), void(*)(QHashData::Node*), int, int) 0x0001e2ac   ARM Code       0  QtCore{00040703}-3610.o(StubCode)
    QListData::detach_grow(int*, int)        0x0001e2b4   ARM Code       0  QtCore{00040703}-3689.o(StubCode)
    QListData::detach(int)                   0x0001e2bc   ARM Code       0  QtCore{00040703}-3691.o(StubCode)
    QMetaType::registerTypedef(const char*, int) 0x0001e2c4   ARM Code       0  QtCore{00040703}-3692.o(StubCode)
    qt_symbian_throwIfError(int)             0x0001e2cc   ARM Code       0  QtCore{00040703}-46.o(StubCode)
    QPluginLoader::staticInstances()         0x0001e2d4   ARM Code       0  QtCore{00040703}-494.o(StubCode)
    QPluginLoader::instance()                0x0001e2dc   ARM Code       0  QtCore{00040703}-499.o(StubCode)
    QPluginLoader::QPluginLoader(const QString&, QObject*) 0x0001e2e4   ARM Code       0  QtCore{00040703}-501.o(StubCode)
    QPluginLoader::~QPluginLoader()          0x0001e2ec   ARM Code       0  QtCore{00040703}-505.o(StubCode)
    QBasicAtomicInt_fetchAndAddOrdered(volatile int*, int) 0x0001e2f4   ARM Code       0  QtCore{00040703}-54.o(StubCode)
    qFree(void*)                             0x0001e2fc   ARM Code       0  QtCore{00040703}-70.o(StubCode)
    qHash(const QString&)                    0x0001e304   ARM Code       0  QtCore{00040703}-73.o(StubCode)
    QtSharedPointer::ExternalRefCountData::getAndRef(const QObject*) 0x0001e30c   ARM Code       0  QtCore{00040703}-741.o(StubCode)
    QCoreApplication::libraryPaths()         0x0001e314   ARM Code       0  QtCore{00040703}-753.o(StubCode)
    QCoreApplication::applicationDirPath()   0x0001e31c   ARM Code       0  QtCore{00040703}-772.o(StubCode)
    qstrcmp(const char*, const char*)        0x0001e324   ARM Code       0  QtCore{00040703}-94.o(StubCode)
    qstrdup(const char*)                     0x0001e32c   ARM Code       0  QtCore{00040703}-98.o(StubCode)
    strcmp                                   0x0001e334   ARM Code       0  libc{00010000}-350.o(StubCode)
    TPtrC16::TPtrC16(const unsigned short*, int) 0x0001e33c   ARM Code       0  euser{000a0000}-1170.o(StubCode)
    RHandleBase::Close()                     0x0001e344   ARM Code       0  euser{000a0000}-120.o(StubCode)
    User::LockedDec(int&)                    0x0001e34c   ARM Code       0  euser{000a0000}-670.o(StubCode)
    User::LockedInc(int&)                    0x0001e354   ARM Code       0  euser{000a0000}-671.o(StubCode)
    __aeabi_cdcmpeq                          0x0001e35c   ARM Code       0  dfpaeabi{000a0000}-1.o(StubCode)
    __aeabi_cdcmple                          0x0001e364   ARM Code       0  dfpaeabi{000a0000}-2.o(StubCode)
    __aeabi_memcpy                           0x0001e36c   ARM Code       0  drtaeabi{000a0000}-146.o(StubCode)
    __aeabi_memcpy4                          0x0001e374   ARM Code       0  drtaeabi{000a0000}-147.o(StubCode)
    __aeabi_uidivmod                         0x0001e37c   ARM Code       0  drtaeabi{000a0000}-155.o(StubCode)
    __aeabi_unwind_cpp_pr0                   0x0001e384   ARM Code       0  drtaeabi{000a0000}-158.o(StubCode)
    __cxa_begin_catch                        0x0001e38c   ARM Code       0  drtaeabi{000a0000}-180.o(StubCode)
    __cxa_end_catch                          0x0001e394   ARM Code       0  drtaeabi{000a0000}-183.o(StubCode)
    __cxa_end_cleanup                        0x0001e39c   ARM Code       0  drtaeabi{000a0000}-184.o(StubCode)
    __cxa_pure_virtual                       0x0001e3a4   ARM Code       0  drtaeabi{000a0000}-189.o(StubCode)
    __cxa_rethrow                            0x0001e3ac   ARM Code       0  drtaeabi{000a0000}-190.o(StubCode)
    __ARM_switch8                            0x0001e3b4   ARM Code       0  drtrvct2_2{000a0000}-28.o(StubCode)
    __ARM_ll_cmpu                            0x0001e3bc   ARM Code       0  drtrvct2_2{000a0000}-51.o(StubCode)
    qvariant_cast_helper(const QVariant&, QVariant::Type, void*) 0x0001e3c5   Thumb Code    16  QtOrganizer.in(i._Z20qvariant_cast_helperRK8QVariantNS_4TypeEPv)
    qWarning()                               0x0001e3d9   Thumb Code    58  QtOrganizer.in(i._Z8qWarningv)
    QByteArray::~QByteArray()                0x0001e425   Thumb Code    24  QtOrganizer.in(i._ZN10QByteArrayD1Ev)
    QByteArray::~QByteArray__sub_object()    0x0001e425   Thumb Code     0  QtOrganizer.in(i._ZN10QByteArrayD1Ev)
    QMultiHash<QtMobility::QOrganizerItemId, QtMobility::QOrganizerItemId>::~QMultiHash() 0x0001e43d   Thumb Code     8  QtOrganizer.in(i._ZN10QMultiHashIN10QtMobility16QOrganizerItemIdES1_ED1Ev)
    QMultiHash<QtMobility::QOrganizerItemId, QtMobility::QOrganizerItemId>::~QMultiHash__sub_object() 0x0001e43d   Thumb Code     0  QtOrganizer.in(i._ZN10QMultiHashIN10QtMobility16QOrganizerItemIdES1_ED1Ev)
    QStringRef::~QStringRef()                0x0001e445   Thumb Code     2  QtOrganizer.in(i._ZN10QStringRefD1Ev)
    QStringRef::~QStringRef__sub_object()    0x0001e445   Thumb Code     0  QtOrganizer.in(i._ZN10QStringRefD1Ev)
    QtMobility::buildIdString(const QString&, const QMap<QString, QString>&, const QString&) 0x0001e449   Thumb Code   658  QtOrganizer.in(i._ZN10QtMobility13buildIdStringERK7QStringRK4QMapIS0_S0_ES2_)
    QtMobility::parseIdString(const QString&, QString*, QMap<QString, QString>*, QString*) 0x0001e75d   Thumb Code   686  QtOrganizer.in(i._ZN10QtMobility13parseIdStringERK7QStringPS0_P4QMapIS0_S0_ES3_)
    QtMobility::QOrganizerTodo::QOrganizerTodo(const QtMobility::QOrganizerItem&) 0x0001eaad   Thumb Code    10  QtOrganizer.in(i._ZN10QtMobility14QOrganizerTodoC1ERKNS_14QOrganizerItemE)
    QtMobility::QOrganizerTodo::QOrganizerTodo__sub_object(const QtMobility::QOrganizerItem&) 0x0001eaad   Thumb Code     0  QtOrganizer.in(i._ZN10QtMobility14QOrganizerTodoC1ERKNS_14QOrganizerItemE)
    QtMobility::QOrganizerTodo::~QOrganizerTodo() 0x0001eabd   Thumb Code     8  QtOrganizer.in(i._ZN10QtMobility14QOrganizerTodoD1Ev)
    QtMobility::QOrganizerTodo::~QOrganizerTodo__sub_object() 0x0001eabd   Thumb Code     0  QtOrganizer.in(i._ZN10QtMobility14QOrganizerTodoD1Ev)
    QtMobility::QOrganizerEvent::QOrganizerEvent(const QtMobility::QOrganizerItem&) 0x0001eac5   Thumb Code    10  QtOrganizer.in(i._ZN10QtMobility15QOrganizerEventC1ERKNS_14QOrganizerItemE)
    QtMobility::QOrganizerEvent::QOrganizerEvent__sub_object(const QtMobility::QOrganizerItem&) 0x0001eac5   Thumb Code     0  QtOrganizer.in(i._ZN10QtMobility15QOrganizerEventC1ERKNS_14QOrganizerItemE)
    QtMobility::QOrganizerEvent::~QOrganizerEvent() 0x0001ead5   Thumb Code     8  QtOrganizer.in(i._ZN10QtMobility15QOrganizerEventD1Ev)
    QtMobility::QOrganizerEvent::~QOrganizerEvent__sub_object() 0x0001ead5   Thumb Code     0  QtOrganizer.in(i._ZN10QtMobility15QOrganizerEventD1Ev)
    QtMobility::mobilityPlugins(const QString&) 0x0001eadd   Thumb Code   578  QtOrganizer.in(i._ZN10QtMobility15mobilityPluginsERK7QString)
    QtMobility::QOrganizerJournal::~QOrganizerJournal() 0x0001edb5   Thumb Code     8  QtOrganizer.in(i._ZN10QtMobility17QOrganizerJournalD1Ev)
    QtMobility::QOrganizerJournal::~QOrganizerJournal__sub_object() 0x0001edb5   Thumb Code     0  QtOrganizer.in(i._ZN10QtMobility17QOrganizerJournalD1Ev)
    QtMobility::QOrganizerItemData::QOrganizerItemData() 0x0001edbd   Thumb Code    64  QtOrganizer.in(i._ZN10QtMobility18QOrganizerItemDataC1Ev)
    QtMobility::QOrganizerItemData::QOrganizerItemData__sub_object() 0x0001edbd   Thumb Code     0  QtOrganizer.in(i._ZN10QtMobility18QOrganizerItemDataC1Ev)
    QtMobility::QOrganizerItemData::~QOrganizerItemData() 0x0001ee25   Thumb Code    32  QtOrganizer.in(i._ZN10QtMobility18QOrganizerItemDataD1Ev)
    QtMobility::QOrganizerItemData::~QOrganizerItemData__sub_object() 0x0001ee25   Thumb Code     0  QtOrganizer.in(i._ZN10QtMobility18QOrganizerItemDataD1Ev)
    QtMobility::QOrganizerItemGuid::~QOrganizerItemGuid() 0x0001ee5b   Thumb Code     8  QtOrganizer.in(i._ZN10QtMobility18QOrganizerItemGuidD1Ev)
    QtMobility::QOrganizerItemGuid::~QOrganizerItemGuid__sub_object() 0x0001ee5b   Thumb Code     0  QtOrganizer.in(i._ZN10QtMobility18QOrganizerItemGuidD1Ev)
    QtMobility::QOrganizerItemType::setType(const QString&) 0x0001ee65   Thumb Code    28  QtOrganizer.in(i._ZN10QtMobility18QOrganizerItemType7setTypeERK7QString)
    QtMobility::QOrganizerItemType::QOrganizerItemType() 0x0001ee91   Thumb Code    10  QtOrganizer.in(i._ZN10QtMobility18QOrganizerItemTypeC1Ev)
    QtMobility::QOrganizerItemType::QOrganizerItemType__sub_object() 0x0001ee91   Thumb Code     0  QtOrganizer.in(i._ZN10QtMobility18QOrganizerItemTypeC1Ev)
    QtMobility::QOrganizerItemType::~QOrganizerItemType() 0x0001eea1   Thumb Code     8  QtOrganizer.in(i._ZN10QtMobility18QOrganizerItemTypeD1Ev)
    QtMobility::QOrganizerItemType::~QOrganizerItemType__sub_object() 0x0001eea1   Thumb Code     0  QtOrganizer.in(i._ZN10QtMobility18QOrganizerItemTypeD1Ev)
    QtMobility::QOrganizerTodoTime::~QOrganizerTodoTime() 0x0001eea9   Thumb Code     8  QtOrganizer.in(i._ZN10QtMobility18QOrganizerTodoTimeD1Ev)
    QtMobility::QOrganizerTodoTime::~QOrganizerTodoTime__sub_object() 0x0001eea9   Thumb Code     0  QtOrganizer.in(i._ZN10QtMobility18QOrganizerTodoTimeD1Ev)
    QtMobility::QOrganizerEventTime::~QOrganizerEventTime() 0x0001eeb1   Thumb Code     8  QtOrganizer.in(i._ZN10QtMobility19QOrganizerEventTimeD1Ev)
    QtMobility::QOrganizerEventTime::~QOrganizerEventTime__sub_object() 0x0001eeb1   Thumb Code     0  QtOrganizer.in(i._ZN10QtMobility19QOrganizerEventTimeD1Ev)
    QtMobility::QOrganizerItemParent::setParentId(const QtMobility::QOrganizerItemId&) 0x0001eeb9   Thumb Code    42  QtOrganizer.in(i._ZN10QtMobility20QOrganizerItemParent11setParentIdERKNS_16QOrganizerItemIdE)
    QtMobility::QOrganizerItemParent::~QOrganizerItemParent() 0x0001eef3   Thumb Code     8  QtOrganizer.in(i._ZN10QtMobility20QOrganizerItemParentD1Ev)
    QtMobility::QOrganizerItemParent::~QOrganizerItemParent__sub_object() 0x0001eef3   Thumb Code     0  QtOrganizer.in(i._ZN10QtMobility20QOrganizerItemParentD1Ev)
    QtMobility::QOrganizerItemComment::QOrganizerItemComment(const QtMobility::QOrganizerItemComment&) 0x0001eefb   Thumb Code     8  QtOrganizer.in(i._ZN10QtMobility21QOrganizerItemCommentC1ERKS0_)
    QtMobility::QOrganizerItemComment::QOrganizerItemComment__sub_object(const QtMobility::QOrganizerItemComment&) 0x0001eefb   Thumb Code     0  QtOrganizer.in(i._ZN10QtMobility21QOrganizerItemCommentC1ERKS0_)
    QtMobility::QOrganizerItemComment::~QOrganizerItemComment() 0x0001ef03   Thumb Code     8  QtOrganizer.in(i._ZN10QtMobility21QOrganizerItemCommentD1Ev)
    QtMobility::QOrganizerItemComment::~QOrganizerItemComment__sub_object() 0x0001ef03   Thumb Code     0  QtOrganizer.in(i._ZN10QtMobility21QOrganizerItemCommentD1Ev)
    QtMobility::QOrganizerJournalTime::~QOrganizerJournalTime() 0x0001ef0b   Thumb Code     8  QtOrganizer.in(i._ZN10QtMobility21QOrganizerJournalTimeD1Ev)
    QtMobility::QOrganizerJournalTime::~QOrganizerJournalTime__sub_object() 0x0001ef0b   Thumb Code     0  QtOrganizer.in(i._ZN10QtMobility21QOrganizerJournalTimeD1Ev)
    QtMobility::QOrganizerManagerData::QOrganizerManagerData() 0x0001ef13   Thumb Code    18  QtOrganizer.in(i._ZN10QtMobility21QOrganizerManagerDataC1Ev)
    QtMobility::QOrganizerManagerData::QOrganizerManagerData__sub_object() 0x0001ef13   Thumb Code     0  QtOrganizer.in(i._ZN10QtMobility21QOrganizerManagerDataC1Ev)
    QtMobility::QOrganizerItemEngineId::QOrganizerItemEngineId__sub_object() 0x0001ef25   Thumb Code    10  QtOrganizer.in(i._ZN10QtMobility22QOrganizerItemEngineIdC2Ev)
    QtMobility::QOrganizerItemEngineId::~QOrganizerItemEngineId__deallocating() 0x0001ef35   Thumb Code    12  QtOrganizer.in(i._ZN10QtMobility22QOrganizerItemEngineIdD0Ev)
    QtMobility::QOrganizerItemEngineId::~QOrganizerItemEngineId() 0x0001ef41   Thumb Code     0  QtOrganizer.in(i._ZN10QtMobility22QOrganizerItemEngineIdD2Ev)
    QtMobility::QOrganizerItemEngineId::~QOrganizerItemEngineId__sub_object() 0x0001ef41   Thumb Code     2  QtOrganizer.in(i._ZN10QtMobility22QOrganizerItemEngineIdD2Ev)
    QtMobility::QOrganizerItemIdFilter::d_func() 0x0001ef43   Thumb Code    66  QtOrganizer.in(i._ZN10QtMobility22QOrganizerItemIdFilter6d_funcEv)
    QtMobility::QOrganizerItemIdFilter::~QOrganizerItemIdFilter() 0x0001ef85   Thumb Code     8  QtOrganizer.in(i._ZN10QtMobility22QOrganizerItemIdFilterD1Ev)
    QtMobility::QOrganizerItemIdFilter::~QOrganizerItemIdFilter__sub_object() 0x0001ef85   Thumb Code     0  QtOrganizer.in(i._ZN10QtMobility22QOrganizerItemIdFilterD1Ev)
    QtMobility::QOrganizerItemLocation::~QOrganizerItemLocation() 0x0001ef8d   Thumb Code     8  QtOrganizer.in(i._ZN10QtMobility22QOrganizerItemLocationD1Ev)
    QtMobility::QOrganizerItemLocation::~QOrganizerItemLocation__sub_object() 0x0001ef8d   Thumb Code     0  QtOrganizer.in(i._ZN10QtMobility22QOrganizerItemLocationD1Ev)
    QtMobility::QOrganizerItemPriority::~QOrganizerItemPriority() 0x0001ef95   Thumb Code     8  QtOrganizer.in(i._ZN10QtMobility22QOrganizerItemPriorityD1Ev)
    QtMobility::QOrganizerItemPriority::~QOrganizerItemPriority__sub_object() 0x0001ef95   Thumb Code     0  QtOrganizer.in(i._ZN10QtMobility22QOrganizerItemPriorityD1Ev)
    QtMobility::QOrganizerTodoProgress::~QOrganizerTodoProgress() 0x0001ef9d   Thumb Code     8  QtOrganizer.in(i._ZN10QtMobility22QOrganizerTodoProgressD1Ev)
    QtMobility::QOrganizerTodoProgress::~QOrganizerTodoProgress__sub_object() 0x0001ef9d   Thumb Code     0  QtOrganizer.in(i._ZN10QtMobility22QOrganizerTodoProgressD1Ev)
    QtMobility::QOrganizerItemTimestamp::setLastModified(const QDateTime&) 0x0001efa5   Thumb Code    28  QtOrganizer.in(i._ZN10QtMobility23QOrganizerItemTimestamp15setLastModifiedERK9QDateTime)
    QtMobility::QOrganizerItemTimestamp::QOrganizerItemTimestamp(const QtMobility::QOrganizerItemDetail&) 0x0001efd1   Thumb Code    10  QtOrganizer.in(i._ZN10QtMobility23QOrganizerItemTimestampC1ERKNS_20QOrganizerItemDetailE)
    QtMobility::QOrganizerItemTimestamp::QOrganizerItemTimestamp__sub_object(const QtMobility::QOrganizerItemDetail&) 0x0001efd1   Thumb Code     0  QtOrganizer.in(i._ZN10QtMobility23QOrganizerItemTimestampC1ERKNS_20QOrganizerItemDetailE)
    QtMobility::QOrganizerItemTimestamp::~QOrganizerItemTimestamp() 0x0001efe1   Thumb Code     8  QtOrganizer.in(i._ZN10QtMobility23QOrganizerItemTimestampD1Ev)
    QtMobility::QOrganizerItemTimestamp::~QOrganizerItemTimestamp__sub_object() 0x0001efe1   Thumb Code     0  QtOrganizer.in(i._ZN10QtMobility23QOrganizerItemTimestampD1Ev)
    QtMobility::QOrganizerManagerEngine::~QOrganizerManagerEngine__deallocating() 0x0001efe9   Thumb Code    16  QtOrganizer.in(i._ZN10QtMobility23QOrganizerManagerEngineD0Ev)
    QtMobility::QOrganizerManagerEngine::~QOrganizerManagerEngine() 0x0001eff9   Thumb Code     0  QtOrganizer.in(i._ZN10QtMobility23QOrganizerManagerEngineD2Ev)
    QtMobility::QOrganizerManagerEngine::~QOrganizerManagerEngine__sub_object() 0x0001eff9   Thumb Code     8  QtOrganizer.in(i._ZN10QtMobility23QOrganizerManagerEngineD2Ev)
    QtMobility::QOrganizerCollectionData::QOrganizerCollectionData(const QtMobility::QOrganizerCollectionData&) 0x0001f001   Thumb Code    84  QtOrganizer.in(i._ZN10QtMobility24QOrganizerCollectionDataC1ERKS0_)
    QtMobility::QOrganizerCollectionData::QOrganizerCollectionData__sub_object(const QtMobility::QOrganizerCollectionData&) 0x0001f001   Thumb Code     0  QtOrganizer.in(i._ZN10QtMobility24QOrganizerCollectionDataC1ERKS0_)
    QtMobility::QOrganizerCollectionData::~QOrganizerCollectionData() 0x0001f077   Thumb Code    44  QtOrganizer.in(i._ZN10QtMobility24QOrganizerCollectionDataD1Ev)
    QtMobility::QOrganizerCollectionData::~QOrganizerCollectionData__sub_object() 0x0001f077   Thumb Code     0  QtOrganizer.in(i._ZN10QtMobility24QOrganizerCollectionDataD1Ev)
    QtMobility::QOrganizerItemRecurrence::QOrganizerItemRecurrence(const QtMobility::QOrganizerItemDetail&) 0x0001f0c5   Thumb Code    10  QtOrganizer.in(i._ZN10QtMobility24QOrganizerItemRecurrenceC1ERKNS_20QOrganizerItemDetailE)
    QtMobility::QOrganizerItemRecurrence::QOrganizerItemRecurrence__sub_object(const QtMobility::QOrganizerItemDetail&) 0x0001f0c5   Thumb Code     0  QtOrganizer.in(i._ZN10QtMobility24QOrganizerItemRecurrenceC1ERKNS_20QOrganizerItemDetailE)
    QtMobility::QOrganizerItemRecurrence::~QOrganizerItemRecurrence() 0x0001f0d5   Thumb Code     8  QtOrganizer.in(i._ZN10QtMobility24QOrganizerItemRecurrenceD1Ev)
    QtMobility::QOrganizerItemRecurrence::~QOrganizerItemRecurrence__sub_object() 0x0001f0d5   Thumb Code     0  QtOrganizer.in(i._ZN10QtMobility24QOrganizerItemRecurrenceD1Ev)
    QtMobility::QOrganizerTodoOccurrence::~QOrganizerTodoOccurrence() 0x0001f0dd   Thumb Code     8  QtOrganizer.in(i._ZN10QtMobility24QOrganizerTodoOccurrenceD1Ev)
    QtMobility::QOrganizerTodoOccurrence::~QOrganizerTodoOccurrence__sub_object() 0x0001f0dd   Thumb Code     0  QtOrganizer.in(i._ZN10QtMobility24QOrganizerTodoOccurrenceD1Ev)
    QtMobility::QOrganizerEventOccurrence::~QOrganizerEventOccurrence() 0x0001f0e5   Thumb Code     8  QtOrganizer.in(i._ZN10QtMobility25QOrganizerEventOccurrenceD1Ev)
    QtMobility::QOrganizerEventOccurrence::~QOrganizerEventOccurrence__sub_object() 0x0001f0e5   Thumb Code     0  QtOrganizer.in(i._ZN10QtMobility25QOrganizerEventOccurrenceD1Ev)
    QtMobility::QOrganizerItemDescription::setDescription(const QString&) 0x0001f0ed   Thumb Code    28  QtOrganizer.in(i._ZN10QtMobility25QOrganizerItemDescription14setDescriptionERK7QString)
    QtMobility::QOrganizerItemDescription::~QOrganizerItemDescription() 0x0001f117   Thumb Code     8  QtOrganizer.in(i._ZN10QtMobility25QOrganizerItemDescriptionD1Ev)
    QtMobility::QOrganizerItemDescription::~QOrganizerItemDescription__sub_object() 0x0001f117   Thumb Code     0  QtOrganizer.in(i._ZN10QtMobility25QOrganizerItemDescriptionD1Ev)
    QtMobility::QOrganizerItemSaveRequest::~QOrganizerItemSaveRequest__deallocating() 0x0001f11f   Thumb Code    16  QtOrganizer.in(i._ZN10QtMobility25QOrganizerItemSaveRequestD0Ev)
    QtMobility::QOrganizerItemSaveRequest::~QOrganizerItemSaveRequest() 0x0001f12f   Thumb Code     8  QtOrganizer.in(i._ZN10QtMobility25QOrganizerItemSaveRequestD1Ev)
    QtMobility::QOrganizerItemSaveRequest::~QOrganizerItemSaveRequest__sub_object() 0x0001f12f   Thumb Code     0  QtOrganizer.in(i._ZN10QtMobility25QOrganizerItemSaveRequestD1Ev)
    QtMobility::QOrganizerItemUnionFilter::d_func() 0x0001f137   Thumb Code    66  QtOrganizer.in(i._ZN10QtMobility25QOrganizerItemUnionFilter6d_funcEv)
    QtMobility::QOrganizerItemUnionFilter::~QOrganizerItemUnionFilter() 0x0001f179   Thumb Code     8  QtOrganizer.in(i._ZN10QtMobility25QOrganizerItemUnionFilterD1Ev)
    QtMobility::QOrganizerItemUnionFilter::~QOrganizerItemUnionFilter__sub_object() 0x0001f179   Thumb Code     0  QtOrganizer.in(i._ZN10QtMobility25QOrganizerItemUnionFilterD1Ev)
    QtMobility::QOrganizerItemDetailFilter::d_func() 0x0001f181   Thumb Code    60  QtOrganizer.in(i._ZN10QtMobility26QOrganizerItemDetailFilter6d_funcEv)
    QtMobility::QOrganizerItemDetailFilter::~QOrganizerItemDetailFilter() 0x0001f1bd   Thumb Code     8  QtOrganizer.in(i._ZN10QtMobility26QOrganizerItemDetailFilterD1Ev)
    QtMobility::QOrganizerItemDetailFilter::~QOrganizerItemDetailFilter__sub_object() 0x0001f1bd   Thumb Code     0  QtOrganizer.in(i._ZN10QtMobility26QOrganizerItemDetailFilterD1Ev)
    QtMobility::QOrganizerItemDisplayLabel::setLabel(const QString&) 0x0001f1c5   Thumb Code    28  QtOrganizer.in(i._ZN10QtMobility26QOrganizerItemDisplayLabel8setLabelERK7QString)
    QtMobility::QOrganizerItemDisplayLabel::~QOrganizerItemDisplayLabel() 0x0001f1ef   Thumb Code     8  QtOrganizer.in(i._ZN10QtMobility26QOrganizerItemDisplayLabelD1Ev)
    QtMobility::QOrganizerItemDisplayLabel::~QOrganizerItemDisplayLabel__sub_object() 0x0001f1ef   Thumb Code     0  QtOrganizer.in(i._ZN10QtMobility26QOrganizerItemDisplayLabelD1Ev)
    QtMobility::QOrganizerItemFetchRequest::~QOrganizerItemFetchRequest__deallocating() 0x0001f1f7   Thumb Code    16  QtOrganizer.in(i._ZN10QtMobility26QOrganizerItemFetchRequestD0Ev)
    QtMobility::QOrganizerItemFetchRequest::~QOrganizerItemFetchRequest() 0x0001f207   Thumb Code     8  QtOrganizer.in(i._ZN10QtMobility26QOrganizerItemFetchRequestD1Ev)
    QtMobility::QOrganizerItemFetchRequest::~QOrganizerItemFetchRequest__sub_object() 0x0001f207   Thumb Code     0  QtOrganizer.in(i._ZN10QtMobility26QOrganizerItemFetchRequestD1Ev)
    QtMobility::QOrganizerItemStringHolder::QOrganizerItemStringHolder(const QString&) 0x0001f20f   Thumb Code    12  QtOrganizer.in(i._ZN10QtMobility26QOrganizerItemStringHolderC1ERK7QString)
    QtMobility::QOrganizerItemStringHolder::QOrganizerItemStringHolder__sub_object(const QString&) 0x0001f20f   Thumb Code     0  QtOrganizer.in(i._ZN10QtMobility26QOrganizerItemStringHolderC1ERK7QString)
    QtMobility::QOrganizerItemStringHolder::~QOrganizerItemStringHolder() 0x0001f21b   Thumb Code     2  QtOrganizer.in(i._ZN10QtMobility26QOrganizerItemStringHolderD1Ev)
    QtMobility::QOrganizerItemStringHolder::~QOrganizerItemStringHolder__sub_object() 0x0001f21b   Thumb Code     0  QtOrganizer.in(i._ZN10QtMobility26QOrganizerItemStringHolderD1Ev)
    QtMobility::QOrganizerItemStringHolder::operator =(const QString&) 0x0001f21d   Thumb Code    66  QtOrganizer.in(i._ZN10QtMobility26QOrganizerItemStringHolderaSERK7QString)
    QtMobility::QOrganizerItemChangeSetData::~QOrganizerItemChangeSetData() 0x0001f26f   Thumb Code    32  QtOrganizer.in(i._ZN10QtMobility27QOrganizerItemChangeSetDataD1Ev)
    QtMobility::QOrganizerItemChangeSetData::~QOrganizerItemChangeSetData__sub_object() 0x0001f26f   Thumb Code     0  QtOrganizer.in(i._ZN10QtMobility27QOrganizerItemChangeSetDataD1Ev)
    QtMobility::QOrganizerItemDetailPrivate::QOrganizerItemDetailPrivate(const QtMobility::QOrganizerItemDetailPrivate&) 0x0001f2a9   Thumb Code   108  QtOrganizer.in(i._ZN10QtMobility27QOrganizerItemDetailPrivateC1ERKS0_)
    QtMobility::QOrganizerItemDetailPrivate::QOrganizerItemDetailPrivate__sub_object(const QtMobility::QOrganizerItemDetailPrivate&) 0x0001f2a9   Thumb Code     0  QtOrganizer.in(i._ZN10QtMobility27QOrganizerItemDetailPrivateC1ERKS0_)
    QtMobility::QOrganizerItemDetailPrivate::QOrganizerItemDetailPrivate() 0x0001f329   Thumb Code    42  QtOrganizer.in(i._ZN10QtMobility27QOrganizerItemDetailPrivateC1Ev)
    QtMobility::QOrganizerItemDetailPrivate::QOrganizerItemDetailPrivate__sub_object() 0x0001f329   Thumb Code     0  QtOrganizer.in(i._ZN10QtMobility27QOrganizerItemDetailPrivateC1Ev)
    QtMobility::QOrganizerItemDetailPrivate::~QOrganizerItemDetailPrivate() 0x0001f367   Thumb Code    14  QtOrganizer.in(i._ZN10QtMobility27QOrganizerItemDetailPrivateD1Ev)
    QtMobility::QOrganizerItemDetailPrivate::~QOrganizerItemDetailPrivate__sub_object() 0x0001f367   Thumb Code     0  QtOrganizer.in(i._ZN10QtMobility27QOrganizerItemDetailPrivateD1Ev)
    QtMobility::QOrganizerItemFilterPrivate::~QOrganizerItemFilterPrivate() 0x0001f381   Thumb Code     0  QtOrganizer.in(i._ZN10QtMobility27QOrganizerItemFilterPrivateD2Ev)
    QtMobility::QOrganizerItemFilterPrivate::~QOrganizerItemFilterPrivate__sub_object() 0x0001f381   Thumb Code     2  QtOrganizer.in(i._ZN10QtMobility27QOrganizerItemFilterPrivateD2Ev)
    QtMobility::QOrganizerItemInvalidEngine::~QOrganizerItemInvalidEngine__deallocating() 0x0001f383   Thumb Code    16  QtOrganizer.in(i._ZN10QtMobility27QOrganizerItemInvalidEngineD0Ev)
    QtMobility::QOrganizerItemInvalidEngine::~QOrganizerItemInvalidEngine() 0x0001f393   Thumb Code     8  QtOrganizer.in(i._ZN10QtMobility27QOrganizerItemInvalidEngineD1Ev)
    QtMobility::QOrganizerItemInvalidEngine::~QOrganizerItemInvalidEngine__sub_object() 0x0001f393   Thumb Code     0  QtOrganizer.in(i._ZN10QtMobility27QOrganizerItemInvalidEngineD1Ev)
    QtMobility::QOrganizerItemInvalidFilter::~QOrganizerItemInvalidFilter() 0x0001f39b   Thumb Code     8  QtOrganizer.in(i._ZN10QtMobility27QOrganizerItemInvalidFilterD1Ev)
    QtMobility::QOrganizerItemInvalidFilter::~QOrganizerItemInvalidFilter__sub_object() 0x0001f39b   Thumb Code     0  QtOrganizer.in(i._ZN10QtMobility27QOrganizerItemInvalidFilterD1Ev)
    QtMobility::QOrganizerItemRemoveRequest::~QOrganizerItemRemoveRequest__deallocating() 0x0001f3a3   Thumb Code    16  QtOrganizer.in(i._ZN10QtMobility27QOrganizerItemRemoveRequestD0Ev)
    QtMobility::QOrganizerItemRemoveRequest::~QOrganizerItemRemoveRequest() 0x0001f3b3   Thumb Code     8  QtOrganizer.in(i._ZN10QtMobility27QOrganizerItemRemoveRequestD1Ev)
    QtMobility::QOrganizerItemRemoveRequest::~QOrganizerItemRemoveRequest__sub_object() 0x0001f3b3   Thumb Code     0  QtOrganizer.in(i._ZN10QtMobility27QOrganizerItemRemoveRequestD1Ev)
    QtMobility::QOrganizerCollectionEngineId::QOrganizerCollectionEngineId__sub_object() 0x0001f3bd   Thumb Code    10  QtOrganizer.in(i._ZN10QtMobility28QOrganizerCollectionEngineIdC2Ev)
    QtMobility::QOrganizerCollectionEngineId::~QOrganizerCollectionEngineId__deallocating() 0x0001f3cd   Thumb Code    12  QtOrganizer.in(i._ZN10QtMobility28QOrganizerCollectionEngineIdD0Ev)
    QtMobility::QOrganizerCollectionEngineId::~QOrganizerCollectionEngineId() 0x0001f3d9   Thumb Code     0  QtOrganizer.in(i._ZN10QtMobility28QOrganizerCollectionEngineIdD2Ev)
    QtMobility::QOrganizerCollectionEngineId::~QOrganizerCollectionEngineId__sub_object() 0x0001f3d9   Thumb Code     2  QtOrganizer.in(i._ZN10QtMobility28QOrganizerCollectionEngineIdD2Ev)
    QtMobility::QOrganizerItemIdFetchRequest::~QOrganizerItemIdFetchRequest__deallocating() 0x0001f3db   Thumb Code    16  QtOrganizer.in(i._ZN10QtMobility28QOrganizerItemIdFetchRequestD0Ev)
    QtMobility::QOrganizerItemIdFetchRequest::~QOrganizerItemIdFetchRequest() 0x0001f3eb   Thumb Code     8  QtOrganizer.in(i._ZN10QtMobility28QOrganizerItemIdFetchRequestD1Ev)
    QtMobility::QOrganizerItemIdFetchRequest::~QOrganizerItemIdFetchRequest__sub_object() 0x0001f3eb   Thumb Code     0  QtOrganizer.in(i._ZN10QtMobility28QOrganizerItemIdFetchRequestD1Ev)
    QtMobility::QOrganizerItemChangeLogFilter::d_func() 0x0001f3f3   Thumb Code    60  QtOrganizer.in(i._ZN10QtMobility29QOrganizerItemChangeLogFilter6d_funcEv)
    QtMobility::QOrganizerItemChangeLogFilter::~QOrganizerItemChangeLogFilter() 0x0001f42f   Thumb Code     8  QtOrganizer.in(i._ZN10QtMobility29QOrganizerItemChangeLogFilterD1Ev)
    QtMobility::QOrganizerItemChangeLogFilter::~QOrganizerItemChangeLogFilter__sub_object() 0x0001f42f   Thumb Code     0  QtOrganizer.in(i._ZN10QtMobility29QOrganizerItemChangeLogFilterD1Ev)
    QtMobility::QOrganizerItemIdFilterPrivate::copyIfPossible(QSharedDataPointer<QtMobility::QOrganizerItemFilterPrivate>&, const QtMobility::QOrganizerItemFilter&) 0x0001f437   Thumb Code   140  QtOrganizer.in(i._ZN10QtMobility29QOrganizerItemIdFilterPrivate14copyIfPossibleER18QSharedDataPointerINS_27QOrganizerItemFilterPrivateEERKNS_20QOrganizerItemFilterE)
    QtMobility::QOrganizerItemIdFilterPrivate::inputFromStream(QDataStream&, unsigned char) 0x0001f4d1   Thumb Code    22  QtOrganizer.in(i._ZN10QtMobility29QOrganizerItemIdFilterPrivate15inputFromStreamER11QDataStreamh)
    QtMobility::QOrganizerItemIdFilterPrivate::QOrganizerItemIdFilterPrivate() 0x0001f4e9   Thumb Code    24  QtOrganizer.in(i._ZN10QtMobility29QOrganizerItemIdFilterPrivateC1Ev)
    QtMobility::QOrganizerItemIdFilterPrivate::QOrganizerItemIdFilterPrivate__sub_object() 0x0001f4e9   Thumb Code     0  QtOrganizer.in(i._ZN10QtMobility29QOrganizerItemIdFilterPrivateC1Ev)
    QtMobility::QOrganizerItemIdFilterPrivate::~QOrganizerItemIdFilterPrivate__deallocating() 0x0001f50f   Thumb Code    16  QtOrganizer.in(i._ZN10QtMobility29QOrganizerItemIdFilterPrivateD0Ev)
    QtMobility::QOrganizerItemIdFilterPrivate::~QOrganizerItemIdFilterPrivate() 0x0001f521   Thumb Code    20  QtOrganizer.in(i._ZN10QtMobility29QOrganizerItemIdFilterPrivateD1Ev)
    QtMobility::QOrganizerItemIdFilterPrivate::~QOrganizerItemIdFilterPrivate__sub_object() 0x0001f521   Thumb Code     0  QtOrganizer.in(i._ZN10QtMobility29QOrganizerItemIdFilterPrivateD1Ev)
    QtMobility::QOrganizerItemCollectionFilter::d_func() 0x0001f543   Thumb Code    66  QtOrganizer.in(i._ZN10QtMobility30QOrganizerItemCollectionFilter6d_funcEv)
    QtMobility::QOrganizerItemCollectionFilter::~QOrganizerItemCollectionFilter() 0x0001f585   Thumb Code     8  QtOrganizer.in(i._ZN10QtMobility30QOrganizerItemCollectionFilterD1Ev)
    QtMobility::QOrganizerItemCollectionFilter::~QOrganizerItemCollectionFilter__sub_object() 0x0001f585   Thumb Code     0  QtOrganizer.in(i._ZN10QtMobility30QOrganizerItemCollectionFilterD1Ev)
    QtMobility::QOrganizerItemFetchHintPrivate::~QOrganizerItemFetchHintPrivate() 0x0001f58d   Thumb Code    12  QtOrganizer.in(i._ZN10QtMobility30QOrganizerItemFetchHintPrivateD1Ev)
    QtMobility::QOrganizerItemFetchHintPrivate::~QOrganizerItemFetchHintPrivate__sub_object() 0x0001f58d   Thumb Code     0  QtOrganizer.in(i._ZN10QtMobility30QOrganizerItemFetchHintPrivateD1Ev)
    QtMobility::QOrganizerItemMemoryEngineData::emitSharedSignals(QtMobility::QOrganizerItemChangeSet*) 0x0001f599   Thumb Code   122  QtOrganizer.in(i._ZN10QtMobility30QOrganizerItemMemoryEngineData17emitSharedSignalsEPNS_23QOrganizerItemChangeSetE)
    QtMobility::QOrganizerItemMemoryEngineData::~QOrganizerItemMemoryEngineData() 0x0001f625   Thumb Code   116  QtOrganizer.in(i._ZN10QtMobility30QOrganizerItemMemoryEngineDataD1Ev)
    QtMobility::QOrganizerItemMemoryEngineData::~QOrganizerItemMemoryEngineData__sub_object() 0x0001f625   Thumb Code     0  QtOrganizer.in(i._ZN10QtMobility30QOrganizerItemMemoryEngineDataD1Ev)
    QtMobility::QOrganizerItemSortOrderPrivate::~QOrganizerItemSortOrderPrivate() 0x0001f705   Thumb Code    20  QtOrganizer.in(i._ZN10QtMobility30QOrganizerItemSortOrderPrivateD1Ev)
    QtMobility::QOrganizerItemSortOrderPrivate::~QOrganizerItemSortOrderPrivate__sub_object() 0x0001f705   Thumb Code     0  QtOrganizer.in(i._ZN10QtMobility30QOrganizerItemSortOrderPrivateD1Ev)
    QtMobility::QOrganizerCollectionSaveRequest::~QOrganizerCollectionSaveRequest__deallocating() 0x0001f725   Thumb Code    16  QtOrganizer.in(i._ZN10QtMobility31QOrganizerCollectionSaveRequestD0Ev)
    QtMobility::QOrganizerCollectionSaveRequest::~QOrganizerCollectionSaveRequest() 0x0001f735   Thumb Code     8  QtOrganizer.in(i._ZN10QtMobility31QOrganizerCollectionSaveRequestD1Ev)
    QtMobility::QOrganizerCollectionSaveRequest::~QOrganizerCollectionSaveRequest__sub_object() 0x0001f735   Thumb Code     0  QtOrganizer.in(i._ZN10QtMobility31QOrganizerCollectionSaveRequestD1Ev)
    QtMobility::QOrganizerItemDetailRangeFilter::d_func() 0x0001f73d   Thumb Code    60  QtOrganizer.in(i._ZN10QtMobility31QOrganizerItemDetailRangeFilter6d_funcEv)
    QtMobility::QOrganizerItemDetailRangeFilter::~QOrganizerItemDetailRangeFilter() 0x0001f779   Thumb Code     8  QtOrganizer.in(i._ZN10QtMobility31QOrganizerItemDetailRangeFilterD1Ev)
    QtMobility::QOrganizerItemDetailRangeFilter::~QOrganizerItemDetailRangeFilter__sub_object() 0x0001f779   Thumb Code     0  QtOrganizer.in(i._ZN10QtMobility31QOrganizerItemDetailRangeFilterD1Ev)
    QtMobility::QOrganizerRecurrenceRulePrivate::QOrganizerRecurrenceRulePrivate(const QtMobility::QOrganizerRecurrenceRulePrivate&) 0x0001f781   Thumb Code   126  QtOrganizer.in(i._ZN10QtMobility31QOrganizerRecurrenceRulePrivateC1ERKS0_)
    QtMobility::QOrganizerRecurrenceRulePrivate::QOrganizerRecurrenceRulePrivate__sub_object(const QtMobility::QOrganizerRecurrenceRulePrivate&) 0x0001f781   Thumb Code     0  QtOrganizer.in(i._ZN10QtMobility31QOrganizerRecurrenceRulePrivateC1ERKS0_)
    QtMobility::QOrganizerRecurrenceRulePrivate::QOrganizerRecurrenceRulePrivate() 0x0001f83d   Thumb Code   104  QtOrganizer.in(i._ZN10QtMobility31QOrganizerRecurrenceRulePrivateC1Ev)
    QtMobility::QOrganizerRecurrenceRulePrivate::QOrganizerRecurrenceRulePrivate__sub_object() 0x0001f83d   Thumb Code     0  QtOrganizer.in(i._ZN10QtMobility31QOrganizerRecurrenceRulePrivateC1Ev)
    QtMobility::QOrganizerRecurrenceRulePrivate::~QOrganizerRecurrenceRulePrivate() 0x0001f8e5   Thumb Code    68  QtOrganizer.in(i._ZN10QtMobility31QOrganizerRecurrenceRulePrivateD1Ev)
    QtMobility::QOrganizerRecurrenceRulePrivate::~QOrganizerRecurrenceRulePrivate__sub_object() 0x0001f8e5   Thumb Code     0  QtOrganizer.in(i._ZN10QtMobility31QOrganizerRecurrenceRulePrivateD1Ev)
    QtMobility::QOrganizerAbstractRequestPrivate::~QOrganizerAbstractRequestPrivate__deallocating() 0x0001f965   Thumb Code    16  QtOrganizer.in(i._ZN10QtMobility32QOrganizerAbstractRequestPrivateD0Ev)
    QtMobility::QOrganizerAbstractRequestPrivate::~QOrganizerAbstractRequestPrivate() 0x0001f975   Thumb Code    44  QtOrganizer.in(i._ZN10QtMobility32QOrganizerAbstractRequestPrivateD1Ev)
    QtMobility::QOrganizerAbstractRequestPrivate::~QOrganizerAbstractRequestPrivate__sub_object() 0x0001f975   Thumb Code     0  QtOrganizer.in(i._ZN10QtMobility32QOrganizerAbstractRequestPrivateD1Ev)
    QtMobility::QOrganizerCollectionFetchRequest::~QOrganizerCollectionFetchRequest__deallocating() 0x0001f9bd   Thumb Code    16  QtOrganizer.in(i._ZN10QtMobility32QOrganizerCollectionFetchRequestD0Ev)
    QtMobility::QOrganizerCollectionFetchRequest::~QOrganizerCollectionFetchRequest() 0x0001f9cd   Thumb Code     8  QtOrganizer.in(i._ZN10QtMobility32QOrganizerCollectionFetchRequestD1Ev)
    QtMobility::QOrganizerCollectionFetchRequest::~QOrganizerCollectionFetchRequest__sub_object() 0x0001f9cd   Thumb Code     0  QtOrganizer.in(i._ZN10QtMobility32QOrganizerCollectionFetchRequestD1Ev)
    QtMobility::QOrganizerItemIntersectionFilter::d_func() 0x0001f9d5   Thumb Code    66  QtOrganizer.in(i._ZN10QtMobility32QOrganizerItemIntersectionFilter6d_funcEv)
    QtMobility::QOrganizerItemIntersectionFilter::~QOrganizerItemIntersectionFilter() 0x0001fa17   Thumb Code     8  QtOrganizer.in(i._ZN10QtMobility32QOrganizerItemIntersectionFilterD1Ev)
    QtMobility::QOrganizerItemIntersectionFilter::~QOrganizerItemIntersectionFilter__sub_object() 0x0001fa17   Thumb Code     0  QtOrganizer.in(i._ZN10QtMobility32QOrganizerItemIntersectionFilterD1Ev)
    QtMobility::QOrganizerItemSaveRequestPrivate::QOrganizerItemSaveRequestPrivate() 0x0001fa21   Thumb Code    78  QtOrganizer.in(i._ZN10QtMobility32QOrganizerItemSaveRequestPrivateC1Ev)
    QtMobility::QOrganizerItemSaveRequestPrivate::QOrganizerItemSaveRequestPrivate__sub_object() 0x0001fa21   Thumb Code     0  QtOrganizer.in(i._ZN10QtMobility32QOrganizerItemSaveRequestPrivateC1Ev)
    QtMobility::QOrganizerItemSaveRequestPrivate::~QOrganizerItemSaveRequestPrivate__deallocating() 0x0001faa3   Thumb Code    16  QtOrganizer.in(i._ZN10QtMobility32QOrganizerItemSaveRequestPrivateD0Ev)
    QtMobility::QOrganizerItemSaveRequestPrivate::~QOrganizerItemSaveRequestPrivate() 0x0001fab5   Thumb Code    36  QtOrganizer.in(i._ZN10QtMobility32QOrganizerItemSaveRequestPrivateD1Ev)
    QtMobility::QOrganizerItemSaveRequestPrivate::~QOrganizerItemSaveRequestPrivate__sub_object() 0x0001fab5   Thumb Code     0  QtOrganizer.in(i._ZN10QtMobility32QOrganizerItemSaveRequestPrivateD1Ev)
    QtMobility::QOrganizerItemUnionFilterPrivate::copyIfPossible(QSharedDataPointer<QtMobility::QOrganizerItemFilterPrivate>&, const QtMobility::QOrganizerItemFilter&) 0x0001faf3   Thumb Code   140  QtOrganizer.in(i._ZN10QtMobility32QOrganizerItemUnionFilterPrivate14copyIfPossibleER18QSharedDataPointerINS_27QOrganizerItemFilterPrivateEERKNS_20QOrganizerItemFilterE)
    QtMobility::QOrganizerItemUnionFilterPrivate::inputFromStream(QDataStream&, unsigned char) 0x0001fb8d   Thumb Code    22  QtOrganizer.in(i._ZN10QtMobility32QOrganizerItemUnionFilterPrivate15inputFromStreamER11QDataStreamh)
    QtMobility::QOrganizerItemUnionFilterPrivate::QOrganizerItemUnionFilterPrivate() 0x0001fba5   Thumb Code    24  QtOrganizer.in(i._ZN10QtMobility32QOrganizerItemUnionFilterPrivateC1Ev)
    QtMobility::QOrganizerItemUnionFilterPrivate::QOrganizerItemUnionFilterPrivate__sub_object() 0x0001fba5   Thumb Code     0  QtOrganizer.in(i._ZN10QtMobility32QOrganizerItemUnionFilterPrivateC1Ev)
    QtMobility::QOrganizerItemUnionFilterPrivate::~QOrganizerItemUnionFilterPrivate__deallocating() 0x0001fbcb   Thumb Code    16  QtOrganizer.in(i._ZN10QtMobility32QOrganizerItemUnionFilterPrivateD0Ev)
    QtMobility::QOrganizerItemUnionFilterPrivate::~QOrganizerItemUnionFilterPrivate() 0x0001fbdd   Thumb Code    20  QtOrganizer.in(i._ZN10QtMobility32QOrganizerItemUnionFilterPrivateD1Ev)
    QtMobility::QOrganizerItemUnionFilterPrivate::~QOrganizerItemUnionFilterPrivate__sub_object() 0x0001fbdd   Thumb Code     0  QtOrganizer.in(i._ZN10QtMobility32QOrganizerItemUnionFilterPrivateD1Ev)
    QtMobility::QOrganizerCollectionChangeSetData::~QOrganizerCollectionChangeSetData() 0x0001fbff   Thumb Code    32  QtOrganizer.in(i._ZN10QtMobility33QOrganizerCollectionChangeSetDataD1Ev)
    QtMobility::QOrganizerCollectionChangeSetData::~QOrganizerCollectionChangeSetData__sub_object() 0x0001fbff   Thumb Code     0  QtOrganizer.in(i._ZN10QtMobility33QOrganizerCollectionChangeSetDataD1Ev)
    QtMobility::QOrganizerCollectionRemoveRequest::~QOrganizerCollectionRemoveRequest__deallocating() 0x0001fc37   Thumb Code    16  QtOrganizer.in(i._ZN10QtMobility33QOrganizerCollectionRemoveRequestD0Ev)
    QtMobility::QOrganizerCollectionRemoveRequest::~QOrganizerCollectionRemoveRequest() 0x0001fc47   Thumb Code     8  QtOrganizer.in(i._ZN10QtMobility33QOrganizerCollectionRemoveRequestD1Ev)
    QtMobility::QOrganizerCollectionRemoveRequest::~QOrganizerCollectionRemoveRequest__sub_object() 0x0001fc47   Thumb Code     0  QtOrganizer.in(i._ZN10QtMobility33QOrganizerCollectionRemoveRequestD1Ev)
    QtMobility::QOrganizerItemDetailFilterPrivate::copyIfPossible(QSharedDataPointer<QtMobility::QOrganizerItemFilterPrivate>&, const QtMobility::QOrganizerItemFilter&) 0x0001fc4f   Thumb Code   140  QtOrganizer.in(i._ZN10QtMobility33QOrganizerItemDetailFilterPrivate14copyIfPossibleER18QSharedDataPointerINS_27QOrganizerItemFilterPrivateEERKNS_20QOrganizerItemFilterE)
    QtMobility::QOrganizerItemDetailFilterPrivate::inputFromStream(QDataStream&, unsigned char) 0x0001fce9   Thumb Code    52  QtOrganizer.in(i._ZN10QtMobility33QOrganizerItemDetailFilterPrivate15inputFromStreamER11QDataStreamh)
    QtMobility::QOrganizerItemDetailFilterPrivate::QOrganizerItemDetailFilterPrivate() 0x0001fd1d   Thumb Code    58  QtOrganizer.in(i._ZN10QtMobility33QOrganizerItemDetailFilterPrivateC1Ev)
    QtMobility::QOrganizerItemDetailFilterPrivate::QOrganizerItemDetailFilterPrivate__sub_object() 0x0001fd1d   Thumb Code     0  QtOrganizer.in(i._ZN10QtMobility33QOrganizerItemDetailFilterPrivateC1Ev)
    QtMobility::QOrganizerItemDetailFilterPrivate::~QOrganizerItemDetailFilterPrivate__deallocating() 0x0001fd73   Thumb Code    16  QtOrganizer.in(i._ZN10QtMobility33QOrganizerItemDetailFilterPrivateD0Ev)
    QtMobility::QOrganizerItemDetailFilterPrivate::~QOrganizerItemDetailFilterPrivate() 0x0001fd85   Thumb Code    44  QtOrganizer.in(i._ZN10QtMobility33QOrganizerItemDetailFilterPrivateD1Ev)
    QtMobility::QOrganizerItemDetailFilterPrivate::~QOrganizerItemDetailFilterPrivate__sub_object() 0x0001fd85   Thumb Code     0  QtOrganizer.in(i._ZN10QtMobility33QOrganizerItemDetailFilterPrivateD1Ev)
    QtMobility::QOrganizerItemFetchRequestPrivate::QOrganizerItemFetchRequestPrivate() 0x0001fdd9   Thumb Code   128  QtOrganizer.in(i._ZN10QtMobility33QOrganizerItemFetchRequestPrivateC1Ev)
    QtMobility::QOrganizerItemFetchRequestPrivate::QOrganizerItemFetchRequestPrivate__sub_object() 0x0001fdd9   Thumb Code     0  QtOrganizer.in(i._ZN10QtMobility33QOrganizerItemFetchRequestPrivateC1Ev)
    QtMobility::QOrganizerItemFetchRequestPrivate::~QOrganizerItemFetchRequestPrivate__deallocating() 0x0001febb   Thumb Code    16  QtOrganizer.in(i._ZN10QtMobility33QOrganizerItemFetchRequestPrivateD0Ev)
    QtMobility::QOrganizerItemFetchRequestPrivate::~QOrganizerItemFetchRequestPrivate() 0x0001fecd   Thumb Code    84  QtOrganizer.in(i._ZN10QtMobility33QOrganizerItemFetchRequestPrivateD1Ev)
    QtMobility::QOrganizerItemFetchRequestPrivate::~QOrganizerItemFetchRequestPrivate__sub_object() 0x0001fecd   Thumb Code     0  QtOrganizer.in(i._ZN10QtMobility33QOrganizerItemFetchRequestPrivateD1Ev)
    QtMobility::QOrganizerItemDetailDefinitionData::~QOrganizerItemDetailDefinitionData() 0x0001ff6b   Thumb Code    20  QtOrganizer.in(i._ZN10QtMobility34QOrganizerItemDetailDefinitionDataD1Ev)
    QtMobility::QOrganizerItemDetailDefinitionData::~QOrganizerItemDetailDefinitionData__sub_object() 0x0001ff6b   Thumb Code     0  QtOrganizer.in(i._ZN10QtMobility34QOrganizerItemDetailDefinitionDataD1Ev)
    QtMobility::QOrganizerItemInvalidFilterPrivate::inputFromStream(QDataStream&, unsigned char) 0x0001ff89   Thumb Code     6  QtOrganizer.in(i._ZN10QtMobility34QOrganizerItemInvalidFilterPrivate15inputFromStreamER11QDataStreamh)
    QtMobility::QOrganizerItemInvalidFilterPrivate::QOrganizerItemInvalidFilterPrivate() 0x0001ff91   Thumb Code    24  QtOrganizer.in(i._ZN10QtMobility34QOrganizerItemInvalidFilterPrivateC1Ev)
    QtMobility::QOrganizerItemInvalidFilterPrivate::QOrganizerItemInvalidFilterPrivate__sub_object() 0x0001ff91   Thumb Code     0  QtOrganizer.in(i._ZN10QtMobility34QOrganizerItemInvalidFilterPrivateC1Ev)
    QtMobility::QOrganizerItemInvalidFilterPrivate::~QOrganizerItemInvalidFilterPrivate__deallocating() 0x0001ffbb   Thumb Code    16  QtOrganizer.in(i._ZN10QtMobility34QOrganizerItemInvalidFilterPrivateD0Ev)
    QtMobility::QOrganizerItemInvalidFilterPrivate::~QOrganizerItemInvalidFilterPrivate() 0x0001ffcd   Thumb Code    20  QtOrganizer.in(i._ZN10QtMobility34QOrganizerItemInvalidFilterPrivateD1Ev)
    QtMobility::QOrganizerItemInvalidFilterPrivate::~QOrganizerItemInvalidFilterPrivate__sub_object() 0x0001ffcd   Thumb Code     0  QtOrganizer.in(i._ZN10QtMobility34QOrganizerItemInvalidFilterPrivateD1Ev)
    QtMobility::QOrganizerItemRemoveRequestPrivate::QOrganizerItemRemoveRequestPrivate() 0x0001fff1   Thumb Code    78  QtOrganizer.in(i._ZN10QtMobility34QOrganizerItemRemoveRequestPrivateC1Ev)
    QtMobility::QOrganizerItemRemoveRequestPrivate::QOrganizerItemRemoveRequestPrivate__sub_object() 0x0001fff1   Thumb Code     0  QtOrganizer.in(i._ZN10QtMobility34QOrganizerItemRemoveRequestPrivateC1Ev)
    QtMobility::QOrganizerItemRemoveRequestPrivate::~QOrganizerItemRemoveRequestPrivate__deallocating() 0x00020073   Thumb Code    16  QtOrganizer.in(i._ZN10QtMobility34QOrganizerItemRemoveRequestPrivateD0Ev)
    QtMobility::QOrganizerItemRemoveRequestPrivate::~QOrganizerItemRemoveRequestPrivate() 0x00020085   Thumb Code    36  QtOrganizer.in(i._ZN10QtMobility34QOrganizerItemRemoveRequestPrivateD1Ev)
    QtMobility::QOrganizerItemRemoveRequestPrivate::~QOrganizerItemRemoveRequestPrivate__sub_object() 0x00020085   Thumb Code     0  QtOrganizer.in(i._ZN10QtMobility34QOrganizerItemRemoveRequestPrivateD1Ev)
    QtMobility::QOrganizerItemFetchForExportRequest::~QOrganizerItemFetchForExportRequest__deallocating() 0x000200c3   Thumb Code    16  QtOrganizer.in(i._ZN10QtMobility35QOrganizerItemFetchForExportRequestD0Ev)
    QtMobility::QOrganizerItemFetchForExportRequest::~QOrganizerItemFetchForExportRequest() 0x000200d3   Thumb Code     8  QtOrganizer.in(i._ZN10QtMobility35QOrganizerItemFetchForExportRequestD1Ev)
    QtMobility::QOrganizerItemFetchForExportRequest::~QOrganizerItemFetchForExportRequest__sub_object() 0x000200d3   Thumb Code     0  QtOrganizer.in(i._ZN10QtMobility35QOrganizerItemFetchForExportRequestD1Ev)
    QtMobility::QOrganizerItemIdFetchRequestPrivate::QOrganizerItemIdFetchRequestPrivate() 0x000200dd   Thumb Code   116  QtOrganizer.in(i._ZN10QtMobility35QOrganizerItemIdFetchRequestPrivateC1Ev)
    QtMobility::QOrganizerItemIdFetchRequestPrivate::QOrganizerItemIdFetchRequestPrivate__sub_object() 0x000200dd   Thumb Code     0  QtOrganizer.in(i._ZN10QtMobility35QOrganizerItemIdFetchRequestPrivateC1Ev)
    QtMobility::QOrganizerItemIdFetchRequestPrivate::~QOrganizerItemIdFetchRequestPrivate__deallocating() 0x000201a7   Thumb Code    16  QtOrganizer.in(i._ZN10QtMobility35QOrganizerItemIdFetchRequestPrivateD0Ev)
    QtMobility::QOrganizerItemIdFetchRequestPrivate::~QOrganizerItemIdFetchRequestPrivate() 0x000201b9   Thumb Code    72  QtOrganizer.in(i._ZN10QtMobility35QOrganizerItemIdFetchRequestPrivateD1Ev)
    QtMobility::QOrganizerItemIdFetchRequestPrivate::~QOrganizerItemIdFetchRequestPrivate__sub_object() 0x000201b9   Thumb Code     0  QtOrganizer.in(i._ZN10QtMobility35QOrganizerItemIdFetchRequestPrivateD1Ev)
    QtMobility::QOrganizerItemChangeLogFilterPrivate::copyIfPossible(QSharedDataPointer<QtMobility::QOrganizerItemFilterPrivate>&, const QtMobility::QOrganizerItemFilter&) 0x0002023f   Thumb Code   142  QtOrganizer.in(i._ZN10QtMobility36QOrganizerItemChangeLogFilterPrivate14copyIfPossibleER18QSharedDataPointerINS_27QOrganizerItemFilterPrivateEERKNS_20QOrganizerItemFilterE)
    QtMobility::QOrganizerItemChangeLogFilterPrivate::inputFromStream(QDataStream&, unsigned char) 0x000202db   Thumb Code    34  QtOrganizer.in(i._ZN10QtMobility36QOrganizerItemChangeLogFilterPrivate15inputFromStreamER11QDataStreamh)
    QtMobility::QOrganizerItemChangeLogFilterPrivate::QOrganizerItemChangeLogFilterPrivate(QtMobility::QOrganizerItemChangeLogFilter::EventType) 0x000202fd   Thumb Code    26  QtOrganizer.in(i._ZN10QtMobility36QOrganizerItemChangeLogFilterPrivateC1ENS_29QOrganizerItemChangeLogFilter9EventTypeE)
    QtMobility::QOrganizerItemChangeLogFilterPrivate::QOrganizerItemChangeLogFilterPrivate__sub_object(QtMobility::QOrganizerItemChangeLogFilter::EventType) 0x000202fd   Thumb Code     0  QtOrganizer.in(i._ZN10QtMobility36QOrganizerItemChangeLogFilterPrivateC1ENS_29QOrganizerItemChangeLogFilter9EventTypeE)
    QtMobility::QOrganizerItemChangeLogFilterPrivate::~QOrganizerItemChangeLogFilterPrivate__deallocating() 0x00020327   Thumb Code    16  QtOrganizer.in(i._ZN10QtMobility36QOrganizerItemChangeLogFilterPrivateD0Ev)
    QtMobility::QOrganizerItemChangeLogFilterPrivate::~QOrganizerItemChangeLogFilterPrivate() 0x00020339   Thumb Code    20  QtOrganizer.in(i._ZN10QtMobility36QOrganizerItemChangeLogFilterPrivateD1Ev)
    QtMobility::QOrganizerItemChangeLogFilterPrivate::~QOrganizerItemChangeLogFilterPrivate__sub_object() 0x00020339   Thumb Code     0  QtOrganizer.in(i._ZN10QtMobility36QOrganizerItemChangeLogFilterPrivateD1Ev)
    QtMobility::QOrganizerItemOccurrenceFetchRequest::~QOrganizerItemOccurrenceFetchRequest__deallocating() 0x0002035b   Thumb Code    16  QtOrganizer.in(i._ZN10QtMobility36QOrganizerItemOccurrenceFetchRequestD0Ev)
    QtMobility::QOrganizerItemOccurrenceFetchRequest::~QOrganizerItemOccurrenceFetchRequest() 0x0002036b   Thumb Code     8  QtOrganizer.in(i._ZN10QtMobility36QOrganizerItemOccurrenceFetchRequestD1Ev)
    QtMobility::QOrganizerItemOccurrenceFetchRequest::~QOrganizerItemOccurrenceFetchRequest__sub_object() 0x0002036b   Thumb Code     0  QtOrganizer.in(i._ZN10QtMobility36QOrganizerItemOccurrenceFetchRequestD1Ev)
    QtMobility::QOrganizerItemCollectionFilterPrivate::copyIfPossible(QSharedDataPointer<QtMobility::QOrganizerItemFilterPrivate>&, const QtMobility::QOrganizerItemFilter&) 0x00020373   Thumb Code   140  QtOrganizer.in(i._ZN10QtMobility37QOrganizerItemCollectionFilterPrivate14copyIfPossibleER18QSharedDataPointerINS_27QOrganizerItemFilterPrivateEERKNS_20QOrganizerItemFilterE)
    QtMobility::QOrganizerItemCollectionFilterPrivate::inputFromStream(QDataStream&, unsigned char) 0x0002040d   Thumb Code    22  QtOrganizer.in(i._ZN10QtMobility37QOrganizerItemCollectionFilterPrivate15inputFromStreamER11QDataStreamh)
    QtMobility::QOrganizerItemCollectionFilterPrivate::QOrganizerItemCollectionFilterPrivate() 0x00020425   Thumb Code    24  QtOrganizer.in(i._ZN10QtMobility37QOrganizerItemCollectionFilterPrivateC1Ev)
    QtMobility::QOrganizerItemCollectionFilterPrivate::QOrganizerItemCollectionFilterPrivate__sub_object() 0x00020425   Thumb Code     0  QtOrganizer.in(i._ZN10QtMobility37QOrganizerItemCollectionFilterPrivateC1Ev)
    QtMobility::QOrganizerItemCollectionFilterPrivate::~QOrganizerItemCollectionFilterPrivate__deallocating() 0x0002044b   Thumb Code    16  QtOrganizer.in(i._ZN10QtMobility37QOrganizerItemCollectionFilterPrivateD0Ev)
    QtMobility::QOrganizerItemCollectionFilterPrivate::~QOrganizerItemCollectionFilterPrivate() 0x0002045d   Thumb Code    20  QtOrganizer.in(i._ZN10QtMobility37QOrganizerItemCollectionFilterPrivateD1Ev)
    QtMobility::QOrganizerItemCollectionFilterPrivate::~QOrganizerItemCollectionFilterPrivate__sub_object() 0x0002045d   Thumb Code     0  QtOrganizer.in(i._ZN10QtMobility37QOrganizerItemCollectionFilterPrivateD1Ev)
    QtMobility::QOrganizerCollectionSaveRequestPrivate::QOrganizerCollectionSaveRequestPrivate() 0x00020481   Thumb Code    78  QtOrganizer.in(i._ZN10QtMobility38QOrganizerCollectionSaveRequestPrivateC1Ev)
    QtMobility::QOrganizerCollectionSaveRequestPrivate::QOrganizerCollectionSaveRequestPrivate__sub_object() 0x00020481   Thumb Code     0  QtOrganizer.in(i._ZN10QtMobility38QOrganizerCollectionSaveRequestPrivateC1Ev)
    QtMobility::QOrganizerCollectionSaveRequestPrivate::~QOrganizerCollectionSaveRequestPrivate__deallocating() 0x00020503   Thumb Code    16  QtOrganizer.in(i._ZN10QtMobility38QOrganizerCollectionSaveRequestPrivateD0Ev)
    QtMobility::QOrganizerCollectionSaveRequestPrivate::~QOrganizerCollectionSaveRequestPrivate() 0x00020515   Thumb Code    36  QtOrganizer.in(i._ZN10QtMobility38QOrganizerCollectionSaveRequestPrivateD1Ev)
    QtMobility::QOrganizerCollectionSaveRequestPrivate::~QOrganizerCollectionSaveRequestPrivate__sub_object() 0x00020515   Thumb Code     0  QtOrganizer.in(i._ZN10QtMobility38QOrganizerCollectionSaveRequestPrivateD1Ev)
    QtMobility::QOrganizerItemDetailRangeFilterPrivate::copyIfPossible(QSharedDataPointer<QtMobility::QOrganizerItemFilterPrivate>&, const QtMobility::QOrganizerItemFilter&) 0x00020553   Thumb Code   140  QtOrganizer.in(i._ZN10QtMobility38QOrganizerItemDetailRangeFilterPrivate14copyIfPossibleER18QSharedDataPointerINS_27QOrganizerItemFilterPrivateEERKNS_20QOrganizerItemFilterE)
    QtMobility::QOrganizerItemDetailRangeFilterPrivate::inputFromStream(QDataStream&, unsigned char) 0x000205ed   Thumb Code    74  QtOrganizer.in(i._ZN10QtMobility38QOrganizerItemDetailRangeFilterPrivate15inputFromStreamER11QDataStreamh)
    QtMobility::QOrganizerItemDetailRangeFilterPrivate::QOrganizerItemDetailRangeFilterPrivate(const QtMobility::QOrganizerItemDetailRangeFilterPrivate&) 0x00020639   Thumb Code    86  QtOrganizer.in(i._ZN10QtMobility38QOrganizerItemDetailRangeFilterPrivateC1ERKS0_)
    QtMobility::QOrganizerItemDetailRangeFilterPrivate::QOrganizerItemDetailRangeFilterPrivate__sub_object(const QtMobility::QOrganizerItemDetailRangeFilterPrivate&) 0x00020639   Thumb Code     0  QtOrganizer.in(i._ZN10QtMobility38QOrganizerItemDetailRangeFilterPrivateC1ERKS0_)
    QtMobility::QOrganizerItemDetailRangeFilterPrivate::QOrganizerItemDetailRangeFilterPrivate() 0x000206c5   Thumb Code    64  QtOrganizer.in(i._ZN10QtMobility38QOrganizerItemDetailRangeFilterPrivateC1Ev)
    QtMobility::QOrganizerItemDetailRangeFilterPrivate::QOrganizerItemDetailRangeFilterPrivate__sub_object() 0x000206c5   Thumb Code     0  QtOrganizer.in(i._ZN10QtMobility38QOrganizerItemDetailRangeFilterPrivateC1Ev)
    QtMobility::QOrganizerItemDetailRangeFilterPrivate::~QOrganizerItemDetailRangeFilterPrivate__deallocating() 0x00020737   Thumb Code    16  QtOrganizer.in(i._ZN10QtMobility38QOrganizerItemDetailRangeFilterPrivateD0Ev)
    QtMobility::QOrganizerItemDetailRangeFilterPrivate::~QOrganizerItemDetailRangeFilterPrivate() 0x00020749   Thumb Code    56  QtOrganizer.in(i._ZN10QtMobility38QOrganizerItemDetailRangeFilterPrivateD1Ev)
    QtMobility::QOrganizerItemDetailRangeFilterPrivate::~QOrganizerItemDetailRangeFilterPrivate__sub_object() 0x00020749   Thumb Code     0  QtOrganizer.in(i._ZN10QtMobility38QOrganizerItemDetailRangeFilterPrivateD1Ev)
    QtMobility::QOrganizerCollectionFetchRequestPrivate::QOrganizerCollectionFetchRequestPrivate() 0x000207b5   Thumb Code    58  QtOrganizer.in(i._ZN10QtMobility39QOrganizerCollectionFetchRequestPrivateC1Ev)
    QtMobility::QOrganizerCollectionFetchRequestPrivate::QOrganizerCollectionFetchRequestPrivate__sub_object() 0x000207b5   Thumb Code     0  QtOrganizer.in(i._ZN10QtMobility39QOrganizerCollectionFetchRequestPrivateC1Ev)
    QtMobility::QOrganizerCollectionFetchRequestPrivate::~QOrganizerCollectionFetchRequestPrivate__deallocating() 0x00020817   Thumb Code    16  QtOrganizer.in(i._ZN10QtMobility39QOrganizerCollectionFetchRequestPrivateD0Ev)
    QtMobility::QOrganizerCollectionFetchRequestPrivate::~QOrganizerCollectionFetchRequestPrivate() 0x00020829   Thumb Code    24  QtOrganizer.in(i._ZN10QtMobility39QOrganizerCollectionFetchRequestPrivateD1Ev)
    QtMobility::QOrganizerCollectionFetchRequestPrivate::~QOrganizerCollectionFetchRequestPrivate__sub_object() 0x00020829   Thumb Code     0  QtOrganizer.in(i._ZN10QtMobility39QOrganizerCollectionFetchRequestPrivateD1Ev)
    QtMobility::QOrganizerItemIntersectionFilterPrivate::copyIfPossible(QSharedDataPointer<QtMobility::QOrganizerItemFilterPrivate>&, const QtMobility::QOrganizerItemFilter&) 0x0002084f   Thumb Code   140  QtOrganizer.in(i._ZN10QtMobility39QOrganizerItemIntersectionFilterPrivate14copyIfPossibleER18QSharedDataPointerINS_27QOrganizerItemFilterPrivateEERKNS_20QOrganizerItemFilterE)
    QtMobility::QOrganizerItemIntersectionFilterPrivate::inputFromStream(QDataStream&, unsigned char) 0x000208e9   Thumb Code    22  QtOrganizer.in(i._ZN10QtMobility39QOrganizerItemIntersectionFilterPrivate15inputFromStreamER11QDataStreamh)
    QtMobility::QOrganizerItemIntersectionFilterPrivate::QOrganizerItemIntersectionFilterPrivate() 0x00020901   Thumb Code    24  QtOrganizer.in(i._ZN10QtMobility39QOrganizerItemIntersectionFilterPrivateC1Ev)
    QtMobility::QOrganizerItemIntersectionFilterPrivate::QOrganizerItemIntersectionFilterPrivate__sub_object() 0x00020901   Thumb Code     0  QtOrganizer.in(i._ZN10QtMobility39QOrganizerItemIntersectionFilterPrivateC1Ev)
    QtMobility::QOrganizerItemIntersectionFilterPrivate::~QOrganizerItemIntersectionFilterPrivate__deallocating() 0x00020927   Thumb Code    16  QtOrganizer.in(i._ZN10QtMobility39QOrganizerItemIntersectionFilterPrivateD0Ev)
    QtMobility::QOrganizerItemIntersectionFilterPrivate::~QOrganizerItemIntersectionFilterPrivate() 0x00020939   Thumb Code    20  QtOrganizer.in(i._ZN10QtMobility39QOrganizerItemIntersectionFilterPrivateD1Ev)
    QtMobility::QOrganizerItemIntersectionFilterPrivate::~QOrganizerItemIntersectionFilterPrivate__sub_object() 0x00020939   Thumb Code     0  QtOrganizer.in(i._ZN10QtMobility39QOrganizerItemIntersectionFilterPrivateD1Ev)
    QtMobility::qClearAllocatedStringHash__dest_class__::~qClearAllocatedStringHash__dest_class__() 0x0002095b   Thumb Code    12  QtOrganizer.in(i._ZN10QtMobility39qClearAllocatedStringHash__dest_class__D1Ev)
    QtMobility::qClearAllocatedStringHash__dest_class__::~qClearAllocatedStringHash__dest_class____sub_object() 0x0002095b   Thumb Code     0  QtOrganizer.in(i._ZN10QtMobility39qClearAllocatedStringHash__dest_class__D1Ev)
    QtMobility::QOrganizerCollectionRemoveRequestPrivate::QOrganizerCollectionRemoveRequestPrivate() 0x00020969   Thumb Code    78  QtOrganizer.in(i._ZN10QtMobility40QOrganizerCollectionRemoveRequestPrivateC1Ev)
    QtMobility::QOrganizerCollectionRemoveRequestPrivate::QOrganizerCollectionRemoveRequestPrivate__sub_object() 0x00020969   Thumb Code     0  QtOrganizer.in(i._ZN10QtMobility40QOrganizerCollectionRemoveRequestPrivateC1Ev)
    QtMobility::QOrganizerCollectionRemoveRequestPrivate::~QOrganizerCollectionRemoveRequestPrivate__deallocating() 0x000209eb   Thumb Code    16  QtOrganizer.in(i._ZN10QtMobility40QOrganizerCollectionRemoveRequestPrivateD0Ev)
    QtMobility::QOrganizerCollectionRemoveRequestPrivate::~QOrganizerCollectionRemoveRequestPrivate() 0x000209fd   Thumb Code    36  QtOrganizer.in(i._ZN10QtMobility40QOrganizerCollectionRemoveRequestPrivateD1Ev)
    QtMobility::QOrganizerCollectionRemoveRequestPrivate::~QOrganizerCollectionRemoveRequestPrivate__sub_object() 0x000209fd   Thumb Code     0  QtOrganizer.in(i._ZN10QtMobility40QOrganizerCollectionRemoveRequestPrivateD1Ev)
    QtMobility::QOrganizerItemDetailDefinitionSaveRequest::~QOrganizerItemDetailDefinitionSaveRequest__deallocating() 0x00020a3b   Thumb Code    16  QtOrganizer.in(i._ZN10QtMobility41QOrganizerItemDetailDefinitionSaveRequestD0Ev)
    QtMobility::QOrganizerItemDetailDefinitionSaveRequest::~QOrganizerItemDetailDefinitionSaveRequest() 0x00020a4b   Thumb Code     8  QtOrganizer.in(i._ZN10QtMobility41QOrganizerItemDetailDefinitionSaveRequestD1Ev)
    QtMobility::QOrganizerItemDetailDefinitionSaveRequest::~QOrganizerItemDetailDefinitionSaveRequest__sub_object() 0x00020a4b   Thumb Code     0  QtOrganizer.in(i._ZN10QtMobility41QOrganizerItemDetailDefinitionSaveRequestD1Ev)
    QtMobility::QOrganizerItemDetailDefinitionFetchRequest::~QOrganizerItemDetailDefinitionFetchRequest__deallocating() 0x00020a53   Thumb Code    16  QtOrganizer.in(i._ZN10QtMobility42QOrganizerItemDetailDefinitionFetchRequestD0Ev)
    QtMobility::QOrganizerItemDetailDefinitionFetchRequest::~QOrganizerItemDetailDefinitionFetchRequest() 0x00020a63   Thumb Code     8  QtOrganizer.in(i._ZN10QtMobility42QOrganizerItemDetailDefinitionFetchRequestD1Ev)
    QtMobility::QOrganizerItemDetailDefinitionFetchRequest::~QOrganizerItemDetailDefinitionFetchRequest__sub_object() 0x00020a63   Thumb Code     0  QtOrganizer.in(i._ZN10QtMobility42QOrganizerItemDetailDefinitionFetchRequestD1Ev)
    QtMobility::QOrganizerItemDetailFieldDefinitionPrivate::~QOrganizerItemDetailFieldDefinitionPrivate() 0x00020a6b   Thumb Code    12  QtOrganizer.in(i._ZN10QtMobility42QOrganizerItemDetailFieldDefinitionPrivateD1Ev)
    QtMobility::QOrganizerItemDetailFieldDefinitionPrivate::~QOrganizerItemDetailFieldDefinitionPrivate__sub_object() 0x00020a6b   Thumb Code     0  QtOrganizer.in(i._ZN10QtMobility42QOrganizerItemDetailFieldDefinitionPrivateD1Ev)
    QtMobility::QOrganizerItemFetchForExportRequestPrivate::QOrganizerItemFetchForExportRequestPrivate() 0x00020a79   Thumb Code   128  QtOrganizer.in(i._ZN10QtMobility42QOrganizerItemFetchForExportRequestPrivateC1Ev)
    QtMobility::QOrganizerItemFetchForExportRequestPrivate::QOrganizerItemFetchForExportRequestPrivate__sub_object() 0x00020a79   Thumb Code     0  QtOrganizer.in(i._ZN10QtMobility42QOrganizerItemFetchForExportRequestPrivateC1Ev)
    QtMobility::QOrganizerItemFetchForExportRequestPrivate::~QOrganizerItemFetchForExportRequestPrivate__deallocating() 0x00020b5b   Thumb Code    16  QtOrganizer.in(i._ZN10QtMobility42QOrganizerItemFetchForExportRequestPrivateD0Ev)
    QtMobility::QOrganizerItemFetchForExportRequestPrivate::~QOrganizerItemFetchForExportRequestPrivate() 0x00020b6d   Thumb Code    84  QtOrganizer.in(i._ZN10QtMobility42QOrganizerItemFetchForExportRequestPrivateD1Ev)
    QtMobility::QOrganizerItemFetchForExportRequestPrivate::~QOrganizerItemFetchForExportRequestPrivate__sub_object() 0x00020b6d   Thumb Code     0  QtOrganizer.in(i._ZN10QtMobility42QOrganizerItemFetchForExportRequestPrivateD1Ev)
    QtMobility::QOrganizerItemDetailDefinitionRemoveRequest::~QOrganizerItemDetailDefinitionRemoveRequest__deallocating() 0x00020c0b   Thumb Code    16  QtOrganizer.in(i._ZN10QtMobility43QOrganizerItemDetailDefinitionRemoveRequestD0Ev)
    QtMobility::QOrganizerItemDetailDefinitionRemoveRequest::~QOrganizerItemDetailDefinitionRemoveRequest() 0x00020c1b   Thumb Code     8  QtOrganizer.in(i._ZN10QtMobility43QOrganizerItemDetailDefinitionRemoveRequestD1Ev)
    QtMobility::QOrganizerItemDetailDefinitionRemoveRequest::~QOrganizerItemDetailDefinitionRemoveRequest__sub_object() 0x00020c1b   Thumb Code     0  QtOrganizer.in(i._ZN10QtMobility43QOrganizerItemDetailDefinitionRemoveRequestD1Ev)
    QtMobility::QOrganizerItemOccurrenceFetchRequestPrivate::QOrganizerItemOccurrenceFetchRequestPrivate() 0x00020c25   Thumb Code   116  QtOrganizer.in(i._ZN10QtMobility43QOrganizerItemOccurrenceFetchRequestPrivateC1Ev)
    QtMobility::QOrganizerItemOccurrenceFetchRequestPrivate::QOrganizerItemOccurrenceFetchRequestPrivate__sub_object() 0x00020c25   Thumb Code     0  QtOrganizer.in(i._ZN10QtMobility43QOrganizerItemOccurrenceFetchRequestPrivateC1Ev)
    QtMobility::QOrganizerItemOccurrenceFetchRequestPrivate::~QOrganizerItemOccurrenceFetchRequestPrivate__deallocating() 0x00020cef   Thumb Code    16  QtOrganizer.in(i._ZN10QtMobility43QOrganizerItemOccurrenceFetchRequestPrivateD0Ev)
    QtMobility::QOrganizerItemOccurrenceFetchRequestPrivate::~QOrganizerItemOccurrenceFetchRequestPrivate() 0x00020d01   Thumb Code    72  QtOrganizer.in(i._ZN10QtMobility43QOrganizerItemOccurrenceFetchRequestPrivateD1Ev)
    QtMobility::QOrganizerItemOccurrenceFetchRequestPrivate::~QOrganizerItemOccurrenceFetchRequestPrivate__sub_object() 0x00020d01   Thumb Code     0  QtOrganizer.in(i._ZN10QtMobility43QOrganizerItemOccurrenceFetchRequestPrivateD1Ev)
    QtMobility::QOrganizerItemDetailDefinitionSaveRequestPrivate::QOrganizerItemDetailDefinitionSaveRequestPrivate() 0x00020d89   Thumb Code   122  QtOrganizer.in(i._ZN10QtMobility48QOrganizerItemDetailDefinitionSaveRequestPrivateC1Ev)
    QtMobility::QOrganizerItemDetailDefinitionSaveRequestPrivate::QOrganizerItemDetailDefinitionSaveRequestPrivate__sub_object() 0x00020d89   Thumb Code     0  QtOrganizer.in(i._ZN10QtMobility48QOrganizerItemDetailDefinitionSaveRequestPrivateC1Ev)
    QtMobility::QOrganizerItemDetailDefinitionSaveRequestPrivate::~QOrganizerItemDetailDefinitionSaveRequestPrivate__deallocating() 0x00020e5b   Thumb Code    16  QtOrganizer.in(i._ZN10QtMobility48QOrganizerItemDetailDefinitionSaveRequestPrivateD0Ev)
    QtMobility::QOrganizerItemDetailDefinitionSaveRequestPrivate::~QOrganizerItemDetailDefinitionSaveRequestPrivate() 0x00020e6d   Thumb Code    60  QtOrganizer.in(i._ZN10QtMobility48QOrganizerItemDetailDefinitionSaveRequestPrivateD1Ev)
    QtMobility::QOrganizerItemDetailDefinitionSaveRequestPrivate::~QOrganizerItemDetailDefinitionSaveRequestPrivate__sub_object() 0x00020e6d   Thumb Code     0  QtOrganizer.in(i._ZN10QtMobility48QOrganizerItemDetailDefinitionSaveRequestPrivateD1Ev)
    QtMobility::QOrganizerItemDetailDefinitionFetchRequestPrivate::QOrganizerItemDetailDefinitionFetchRequestPrivate() 0x00020edd   Thumb Code   134  QtOrganizer.in(i._ZN10QtMobility49QOrganizerItemDetailDefinitionFetchRequestPrivateC1Ev)
    QtMobility::QOrganizerItemDetailDefinitionFetchRequestPrivate::QOrganizerItemDetailDefinitionFetchRequestPrivate__sub_object() 0x00020edd   Thumb Code     0  QtOrganizer.in(i._ZN10QtMobility49QOrganizerItemDetailDefinitionFetchRequestPrivateC1Ev)
    QtMobility::QOrganizerItemDetailDefinitionFetchRequestPrivate::~QOrganizerItemDetailDefinitionFetchRequestPrivate__deallocating() 0x00020fc7   Thumb Code    16  QtOrganizer.in(i._ZN10QtMobility49QOrganizerItemDetailDefinitionFetchRequestPrivateD0Ev)
    QtMobility::QOrganizerItemDetailDefinitionFetchRequestPrivate::~QOrganizerItemDetailDefinitionFetchRequestPrivate() 0x00020fd9   Thumb Code    72  QtOrganizer.in(i._ZN10QtMobility49QOrganizerItemDetailDefinitionFetchRequestPrivateD1Ev)
    QtMobility::QOrganizerItemDetailDefinitionFetchRequestPrivate::~QOrganizerItemDetailDefinitionFetchRequestPrivate__sub_object() 0x00020fd9   Thumb Code     0  QtOrganizer.in(i._ZN10QtMobility49QOrganizerItemDetailDefinitionFetchRequestPrivateD1Ev)
    QtMobility::QOrganizerItemDetailDefinitionRemoveRequestPrivate::QOrganizerItemDetailDefinitionRemoveRequestPrivate() 0x00021061   Thumb Code   122  QtOrganizer.in(i._ZN10QtMobility50QOrganizerItemDetailDefinitionRemoveRequestPrivateC1Ev)
    QtMobility::QOrganizerItemDetailDefinitionRemoveRequestPrivate::QOrganizerItemDetailDefinitionRemoveRequestPrivate__sub_object() 0x00021061   Thumb Code     0  QtOrganizer.in(i._ZN10QtMobility50QOrganizerItemDetailDefinitionRemoveRequestPrivateC1Ev)
    QtMobility::QOrganizerItemDetailDefinitionRemoveRequestPrivate::~QOrganizerItemDetailDefinitionRemoveRequestPrivate__deallocating() 0x00021133   Thumb Code    16  QtOrganizer.in(i._ZN10QtMobility50QOrganizerItemDetailDefinitionRemoveRequestPrivateD0Ev)
    QtMobility::QOrganizerItemDetailDefinitionRemoveRequestPrivate::~QOrganizerItemDetailDefinitionRemoveRequestPrivate() 0x00021145   Thumb Code    60  QtOrganizer.in(i._ZN10QtMobility50QOrganizerItemDetailDefinitionRemoveRequestPrivateD1Ev)
    QtMobility::QOrganizerItemDetailDefinitionRemoveRequestPrivate::~QOrganizerItemDetailDefinitionRemoveRequestPrivate__sub_object() 0x00021145   Thumb Code     0  QtOrganizer.in(i._ZN10QtMobility50QOrganizerItemDetailDefinitionRemoveRequestPrivateD1Ev)
    QDataStream::operator <<(unsigned)       0x000211b3   Thumb Code     8  QtOrganizer.in(i._ZN11QDataStreamlsEj)
    QStringList::QStringList(const QStringList&) 0x000211bb   Thumb Code    30  QtOrganizer.in(i._ZN11QStringListC1ERKS_)
    QStringList::QStringList__sub_object(const QStringList&) 0x000211bb   Thumb Code     0  QtOrganizer.in(i._ZN11QStringListC1ERKS_)
    QStringList::QStringList()               0x000211d9   Thumb Code     8  QtOrganizer.in(i._ZN11QStringListC1Ev)
    QStringList::QStringList__sub_object()   0x000211d9   Thumb Code     0  QtOrganizer.in(i._ZN11QStringListC1Ev)
    QStringList::~QStringList()              0x000211e1   Thumb Code     8  QtOrganizer.in(i._ZN11QStringListD1Ev)
    QStringList::~QStringList__sub_object()  0x000211e1   Thumb Code     0  QtOrganizer.in(i._ZN11QStringListD1Ev)
    QStringList::operator =(const QStringList&) 0x000211e9   Thumb Code    56  QtOrganizer.in(i._ZN11QStringListaSERKS_)
    QMapIterator<QString, QVariant>::~QMapIterator() 0x00021221   Thumb Code     8  QtOrganizer.in(i._ZN12QMapIteratorI7QString8QVariantED1Ev)
    QMapIterator<QString, QVariant>::~QMapIterator__sub_object() 0x00021221   Thumb Code     0  QtOrganizer.in(i._ZN12QMapIteratorI7QString8QVariantED1Ev)
    QMapIterator<QString, QtMobility::QOrganizerItemDetailFieldDefinition>::~QMapIterator() 0x00021229   Thumb Code     8  QtOrganizer.in(i._ZN12QMapIteratorI7QStringN10QtMobility35QOrganizerItemDetailFieldDefinitionEED1Ev)
    QMapIterator<QString, QtMobility::QOrganizerItemDetailFieldDefinition>::~QMapIterator__sub_object() 0x00021229   Thumb Code     0  QtOrganizer.in(i._ZN12QMapIteratorI7QStringN10QtMobility35QOrganizerItemDetailFieldDefinitionEED1Ev)
    QMutexLocker::unlock()                   0x00021231   Thumb Code    24  QtOrganizer.in(i._ZN12QMutexLocker6unlockEv)
    QMutexLocker::QMutexLocker(QMutex*)      0x00021249   Thumb Code    28  QtOrganizer.in(i._ZN12QMutexLockerC1EP6QMutex)
    QMutexLocker::QMutexLocker__sub_object(QMutex*) 0x00021249   Thumb Code     0  QtOrganizer.in(i._ZN12QMutexLockerC1EP6QMutex)
    QMutexLocker::~QMutexLocker()            0x00021265   Thumb Code    12  QtOrganizer.in(i._ZN12QMutexLockerD1Ev)
    QMutexLocker::~QMutexLocker__sub_object() 0x00021265   Thumb Code     0  QtOrganizer.in(i._ZN12QMutexLockerD1Ev)
    QConcatenable<QLatin1Char>::appendTo(QLatin1Char, QChar*&) 0x00021271   Thumb Code    22  QtOrganizer.in(i._ZN13QConcatenableI11QLatin1CharE8appendToES0_RP5QChar)
    QConcatenable<QString>::appendTo(const QString&, QChar*&) 0x00021287   Thumb Code    28  QtOrganizer.in(i._ZN13QConcatenableI7QStringE8appendToERKS0_RP5QChar)
    QListIterator<QVariant>::~QListIterator() 0x000212a3   Thumb Code     8  QtOrganizer.in(i._ZN13QListIteratorI8QVariantED1Ev)
    QListIterator<QVariant>::~QListIterator__sub_object() 0x000212a3   Thumb Code     0  QtOrganizer.in(i._ZN13QListIteratorI8QVariantED1Ev)
    QBasicAtomicInt::ref()                   0x000212ab   Thumb Code    18  QtOrganizer.in(i._ZN15QBasicAtomicInt3refEv)
    QBasicAtomicInt::deref()                 0x000212bd   Thumb Code    18  QtOrganizer.in(i._ZN15QBasicAtomicInt5derefEv)
    QForeachContainer<QSet<QDate>>::~QForeachContainer() 0x000212cf   Thumb Code     8  QtOrganizer.in(i._ZN17QForeachContainerI4QSetI5QDateEED1Ev)
    QForeachContainer<QSet<QDate>>::~QForeachContainer__sub_object() 0x000212cf   Thumb Code     0  QtOrganizer.in(i._ZN17QForeachContainerI4QSetI5QDateEED1Ev)
    QForeachContainer<QSet<QtMobility::QOrganizerRecurrenceRule::Month>>::~QForeachContainer() 0x000212d7   Thumb Code     8  QtOrganizer.in(i._ZN17QForeachContainerI4QSetIN10QtMobility24QOrganizerRecurrenceRule5MonthEEED1Ev)
    QForeachContainer<QSet<QtMobility::QOrganizerRecurrenceRule::Month>>::~QForeachContainer__sub_object() 0x000212d7   Thumb Code     0  QtOrganizer.in(i._ZN17QForeachContainerI4QSetIN10QtMobility24QOrganizerRecurrenceRule5MonthEEED1Ev)
    QForeachContainer<QSet<QtMobility::QOrganizerRecurrenceRule>>::~QForeachContainer() 0x000212df   Thumb Code     8  QtOrganizer.in(i._ZN17QForeachContainerI4QSetIN10QtMobility24QOrganizerRecurrenceRuleEEED1Ev)
    QForeachContainer<QSet<QtMobility::QOrganizerRecurrenceRule>>::~QForeachContainer__sub_object() 0x000212df   Thumb Code     0  QtOrganizer.in(i._ZN17QForeachContainerI4QSetIN10QtMobility24QOrganizerRecurrenceRuleEEED1Ev)
    QForeachContainer<QSet<Qt::DayOfWeek>>::~QForeachContainer() 0x000212e7   Thumb Code     8  QtOrganizer.in(i._ZN17QForeachContainerI4QSetIN2Qt9DayOfWeekEEED1Ev)
    QForeachContainer<QSet<Qt::DayOfWeek>>::~QForeachContainer__sub_object() 0x000212e7   Thumb Code     0  QtOrganizer.in(i._ZN17QForeachContainerI4QSetIN2Qt9DayOfWeekEEED1Ev)
    QForeachContainer<QSet<int>>::~QForeachContainer() 0x000212ef   Thumb Code     8  QtOrganizer.in(i._ZN17QForeachContainerI4QSetIiEED1Ev)
    QForeachContainer<QSet<int>>::~QForeachContainer__sub_object() 0x000212ef   Thumb Code     0  QtOrganizer.in(i._ZN17QForeachContainerI4QSetIiEED1Ev)
    QForeachContainer<QHash<QtMobility::QOrganizerItemId, QtMobility::QOrganizerItem>>::~QForeachContainer() 0x000212f7   Thumb Code     8  QtOrganizer.in(i._ZN17QForeachContainerI5QHashIN10QtMobility16QOrganizerItemIdENS1_14QOrganizerItemEEED1Ev)
    QForeachContainer<QHash<QtMobility::QOrganizerItemId, QtMobility::QOrganizerItem>>::~QForeachContainer__sub_object() 0x000212f7   Thumb Code     0  QtOrganizer.in(i._ZN17QForeachContainerI5QHashIN10QtMobility16QOrganizerItemIdENS1_14QOrganizerItemEEED1Ev)
    QForeachContainer<QList<QDate>>::~QForeachContainer() 0x000212ff   Thumb Code     8  QtOrganizer.in(i._ZN17QForeachContainerI5QListI5QDateEED1Ev)
    QForeachContainer<QList<QDate>>::~QForeachContainer__sub_object() 0x000212ff   Thumb Code     0  QtOrganizer.in(i._ZN17QForeachContainerI5QListI5QDateEED1Ev)
    QForeachContainer<QList<QDateTime>>::~QForeachContainer() 0x00021307   Thumb Code     8  QtOrganizer.in(i._ZN17QForeachContainerI5QListI9QDateTimeEED1Ev)
    QForeachContainer<QList<QDateTime>>::~QForeachContainer__sub_object() 0x00021307   Thumb Code     0  QtOrganizer.in(i._ZN17QForeachContainerI5QListI9QDateTimeEED1Ev)
    QForeachContainer<QList<QtMobility::QOrganizerItem>>::~QForeachContainer() 0x0002130f   Thumb Code     8  QtOrganizer.in(i._ZN17QForeachContainerI5QListIN10QtMobility14QOrganizerItemEEED1Ev)
    QForeachContainer<QList<QtMobility::QOrganizerItem>>::~QForeachContainer__sub_object() 0x0002130f   Thumb Code     0  QtOrganizer.in(i._ZN17QForeachContainerI5QListIN10QtMobility14QOrganizerItemEEED1Ev)
    QForeachContainer<QList<QtMobility::QOrganizerItemId>>::~QForeachContainer() 0x00021317   Thumb Code     8  QtOrganizer.in(i._ZN17QForeachContainerI5QListIN10QtMobility16QOrganizerItemIdEEED1Ev)
    QForeachContainer<QList<QtMobility::QOrganizerItemId>>::~QForeachContainer__sub_object() 0x00021317   Thumb Code     0  QtOrganizer.in(i._ZN17QForeachContainerI5QListIN10QtMobility16QOrganizerItemIdEEED1Ev)
    QForeachContainer<QList<QtMobility::QOrganizerItemDetail>>::~QForeachContainer() 0x0002131f   Thumb Code     8  QtOrganizer.in(i._ZN17QForeachContainerI5QListIN10QtMobility20QOrganizerItemDetailEEED1Ev)
    QForeachContainer<QList<QtMobility::QOrganizerItemDetail>>::~QForeachContainer__sub_object() 0x0002131f   Thumb Code     0  QtOrganizer.in(i._ZN17QForeachContainerI5QListIN10QtMobility20QOrganizerItemDetailEEED1Ev)
    QForeachContainer<QList<QtMobility::QOrganizerItemComment>>::~QForeachContainer() 0x00021327   Thumb Code     8  QtOrganizer.in(i._ZN17QForeachContainerI5QListIN10QtMobility21QOrganizerItemCommentEEED1Ev)
    QForeachContainer<QList<QtMobility::QOrganizerItemComment>>::~QForeachContainer__sub_object() 0x00021327   Thumb Code     0  QtOrganizer.in(i._ZN17QForeachContainerI5QListIN10QtMobility21QOrganizerItemCommentEEED1Ev)
    QForeachContainer<QList<QtMobility::QOrganizerCollectionId>>::~QForeachContainer() 0x0002132f   Thumb Code     8  QtOrganizer.in(i._ZN17QForeachContainerI5QListIN10QtMobility22QOrganizerCollectionIdEEED1Ev)
    QForeachContainer<QList<QtMobility::QOrganizerCollectionId>>::~QForeachContainer__sub_object() 0x0002132f   Thumb Code     0  QtOrganizer.in(i._ZN17QForeachContainerI5QListIN10QtMobility22QOrganizerCollectionIdEEED1Ev)
    QForeachContainer<QList<QtMobility::QOrganizerManagerEngine*>>::~QForeachContainer() 0x00021337   Thumb Code     8  QtOrganizer.in(i._ZN17QForeachContainerI5QListIPN10QtMobility23QOrganizerManagerEngineEEED1Ev)
    QForeachContainer<QList<QtMobility::QOrganizerManagerEngine*>>::~QForeachContainer__sub_object() 0x00021337   Thumb Code     0  QtOrganizer.in(i._ZN17QForeachContainerI5QListIPN10QtMobility23QOrganizerManagerEngineEEED1Ev)
    QForeachContainer<QList<QtMobility::QOrganizerManagerEngineFactory*>>::~QForeachContainer() 0x0002133f   Thumb Code     8  QtOrganizer.in(i._ZN17QForeachContainerI5QListIPN10QtMobility30QOrganizerManagerEngineFactoryEEED1Ev)
    QForeachContainer<QList<QtMobility::QOrganizerManagerEngineFactory*>>::~QForeachContainer__sub_object() 0x0002133f   Thumb Code     0  QtOrganizer.in(i._ZN17QForeachContainerI5QListIPN10QtMobility30QOrganizerManagerEngineFactoryEEED1Ev)
    QForeachContainer<QList<int>>::~QForeachContainer() 0x00021347   Thumb Code     8  QtOrganizer.in(i._ZN17QForeachContainerI5QListIiEED1Ev)
    QForeachContainer<QList<int>>::~QForeachContainer__sub_object() 0x00021347   Thumb Code     0  QtOrganizer.in(i._ZN17QForeachContainerI5QListIiEED1Ev)
    QSet<QDate>::~QSet()                     0x0002134f   Thumb Code     8  QtOrganizer.in(i._ZN4QSetI5QDateED1Ev)
    QSet<QDate>::~QSet__sub_object()         0x0002134f   Thumb Code     0  QtOrganizer.in(i._ZN4QSetI5QDateED1Ev)
    QSet<QString>::~QSet()                   0x00021357   Thumb Code     8  QtOrganizer.in(i._ZN4QSetI7QStringED1Ev)
    QSet<QString>::~QSet__sub_object()       0x00021357   Thumb Code     0  QtOrganizer.in(i._ZN4QSetI7QStringED1Ev)
    QSet<QtMobility::QOrganizerItemId>::~QSet() 0x0002135f   Thumb Code     8  QtOrganizer.in(i._ZN4QSetIN10QtMobility16QOrganizerItemIdEED1Ev)
    QSet<QtMobility::QOrganizerItemId>::~QSet__sub_object() 0x0002135f   Thumb Code     0  QtOrganizer.in(i._ZN4QSetIN10QtMobility16QOrganizerItemIdEED1Ev)
    QSet<QtMobility::QOrganizerCollectionId>::~QSet() 0x00021367   Thumb Code     8  QtOrganizer.in(i._ZN4QSetIN10QtMobility22QOrganizerCollectionIdEED1Ev)
    QSet<QtMobility::QOrganizerCollectionId>::~QSet__sub_object() 0x00021367   Thumb Code     0  QtOrganizer.in(i._ZN4QSetIN10QtMobility22QOrganizerCollectionIdEED1Ev)
    QSet<QtMobility::QOrganizerRecurrenceRule::Month>::~QSet() 0x0002136f   Thumb Code     8  QtOrganizer.in(i._ZN4QSetIN10QtMobility24QOrganizerRecurrenceRule5MonthEED1Ev)
    QSet<QtMobility::QOrganizerRecurrenceRule::Month>::~QSet__sub_object() 0x0002136f   Thumb Code     0  QtOrganizer.in(i._ZN4QSetIN10QtMobility24QOrganizerRecurrenceRule5MonthEED1Ev)
    QSet<QtMobility::QOrganizerRecurrenceRule>::~QSet() 0x00021377   Thumb Code     8  QtOrganizer.in(i._ZN4QSetIN10QtMobility24QOrganizerRecurrenceRuleEED1Ev)
    QSet<QtMobility::QOrganizerRecurrenceRule>::~QSet__sub_object() 0x00021377   Thumb Code     0  QtOrganizer.in(i._ZN4QSetIN10QtMobility24QOrganizerRecurrenceRuleEED1Ev)
    QSet<Qt::DayOfWeek>::~QSet()             0x0002137f   Thumb Code     8  QtOrganizer.in(i._ZN4QSetIN2Qt9DayOfWeekEED1Ev)
    QSet<Qt::DayOfWeek>::~QSet__sub_object() 0x0002137f   Thumb Code     0  QtOrganizer.in(i._ZN4QSetIN2Qt9DayOfWeekEED1Ev)
    QSet<int>::~QSet()                       0x00021387   Thumb Code     8  QtOrganizer.in(i._ZN4QSetIiED1Ev)
    QSet<int>::~QSet__sub_object()           0x00021387   Thumb Code     0  QtOrganizer.in(i._ZN4QSetIiED1Ev)
    QDebug::maybeSpace()                     0x0002138f   Thumb Code    22  QtOrganizer.in(i._ZN6QDebug10maybeSpaceEv)
    QDebug::QDebug(const QDebug&)            0x000213a5   Thumb Code    12  QtOrganizer.in(i._ZN6QDebugC1ERKS_)
    QDebug::QDebug__sub_object(const QDebug&) 0x000213a5   Thumb Code     0  QtOrganizer.in(i._ZN6QDebugC1ERKS_)
    QDebug::~QDebug()                        0x000213b1   Thumb Code   122  QtOrganizer.in(i._ZN6QDebugD1Ev)
    QDebug::~QDebug__sub_object()            0x000213b1   Thumb Code     0  QtOrganizer.in(i._ZN6QDebugD1Ev)
    QDebug::operator <<(const char*)         0x0002143f   Thumb Code    36  QtOrganizer.in(i._ZN6QDebuglsEPKc)
    QDebug::operator <<(const QString&)      0x0002146d   Thumb Code    34  QtOrganizer.in(i._ZN6QDebuglsERK7QString)
    QDebug::operator <<(char)                0x0002148f   Thumb Code    18  QtOrganizer.in(i._ZN6QDebuglsEc)
    QDebug::operator <<(unsigned)            0x000214a1   Thumb Code    18  QtOrganizer.in(i._ZN6QDebuglsEj)
    QString::data()                          0x000214b3   Thumb Code    38  QtOrganizer.in(i._ZN7QString4dataEv)
    QString::clear()                         0x000214d9   Thumb Code    34  QtOrganizer.in(i._ZN7QString5clearEv)
    QString::compare(const QString&, const QStringRef&, Qt::CaseSensitivity) 0x0002150d   Thumb Code    42  QtOrganizer.in(i._ZN7QString7compareERKS_RK10QStringRefN2Qt15CaseSensitivityE)
    QString::QString(const QLatin1String&)   0x0002153d   Thumb Code    20  QtOrganizer.in(i._ZN7QStringC1ERK13QLatin1String)
    QString::QString__sub_object(const QLatin1String&) 0x0002153d   Thumb Code     0  QtOrganizer.in(i._ZN7QStringC1ERK13QLatin1String)
    QString::QString(const QString&)         0x00021551   Thumb Code    16  QtOrganizer.in(i._ZN7QStringC1ERKS_)
    QString::QString__sub_object(const QString&) 0x00021551   Thumb Code     0  QtOrganizer.in(i._ZN7QStringC1ERKS_)
    QString::QString()                       0x00021561   Thumb Code    16  QtOrganizer.in(i._ZN7QStringC1Ev)
    QString::QString__sub_object()           0x00021561   Thumb Code     0  QtOrganizer.in(i._ZN7QStringC1Ev)
    QString::~QString()                      0x00021575   Thumb Code    24  QtOrganizer.in(i._ZN7QStringD1Ev)
    QString::~QString__sub_object()          0x00021575   Thumb Code     0  QtOrganizer.in(i._ZN7QStringD1Ev)
    QVariant::QVariant()                     0x0002158d   Thumb Code    24  QtOrganizer.in(i._ZN8QVariantC1Ev)
    QVariant::QVariant__sub_object()         0x0002158d   Thumb Code     0  QtOrganizer.in(i._ZN8QVariantC1Ev)
    QHashData::willGrow()                    0x000215a5   Thumb Code    28  QtOrganizer.in(i._ZN9QHashData8willGrowEv)
    QHashData::firstNode()                   0x000215c1   Thumb Code    24  QtOrganizer.in(i._ZN9QHashData9firstNodeEv)
    QHashData::hasShrunk()                   0x000215d9   Thumb Code    60  QtOrganizer.in(i._ZN9QHashData9hasShrunkEv)
    QMultiMap<QtMobility::QOrganizerCollectionId, QtMobility::QOrganizerItemId>::~QMultiMap() 0x00021615   Thumb Code     8  QtOrganizer.in(i._ZN9QMultiMapIN10QtMobility22QOrganizerCollectionIdENS0_16QOrganizerItemIdEED1Ev)
    QMultiMap<QtMobility::QOrganizerCollectionId, QtMobility::QOrganizerItemId>::~QMultiMap__sub_object() 0x00021615   Thumb Code     0  QtOrganizer.in(i._ZN9QMultiMapIN10QtMobility22QOrganizerCollectionIdENS0_16QOrganizerItemIdEED1Ev)
    QtMobility::QOrganizerItemType::type() const 0x0002161d   Thumb Code    10  QtOrganizer.in(i._ZNK10QtMobility18QOrganizerItemType4typeEv)
    QtMobility::QOrganizerItemParent::originalDate() const 0x0002162d   Thumb Code    32  QtOrganizer.in(i._ZNK10QtMobility20QOrganizerItemParent12originalDateEv)
    QtMobility::QOrganizerItemParent::parentId() const 0x0002165d   Thumb Code   108  QtOrganizer.in(i._ZNK10QtMobility20QOrganizerItemParent8parentIdEv)
    QtMobility::QOrganizerItemDescription::description() const 0x000216e1   Thumb Code    10  QtOrganizer.in(i._ZNK10QtMobility25QOrganizerItemDescription11descriptionEv)
    QtMobility::QOrganizerItemDisplayLabel::label() const 0x000216f1   Thumb Code    10  QtOrganizer.in(i._ZNK10QtMobility26QOrganizerItemDisplayLabel5labelEv)
    QtMobility::QOrganizerItemMemoryEngine::validateItem(const QtMobility::QOrganizerItem&, QtMobility::QOrganizerManager::Error*) const 0x00021701   Thumb Code     8  QtOrganizer.in(i._ZNK10QtMobility26QOrganizerItemMemoryEngine12validateItemERKNS_14QOrganizerItemEPNS_17QOrganizerManager5ErrorE)
    QtMobility::QOrganizerItemMemoryEngine::compatibleItem(const QtMobility::QOrganizerItem&, QtMobility::QOrganizerManager::Error*) const 0x00021709   Thumb Code     8  QtOrganizer.in(i._ZNK10QtMobility26QOrganizerItemMemoryEngine14compatibleItemERKNS_14QOrganizerItemEPNS_17QOrganizerManager5ErrorE)
    QtMobility::QOrganizerItemMemoryEngine::managerVersion() const 0x00021711   Thumb Code     4  QtOrganizer.in(i._ZNK10QtMobility26QOrganizerItemMemoryEngine14managerVersionEv)
    QtMobility::QOrganizerItemMemoryEngine::detailDefinition(const QString&, const QString&, QtMobility::QOrganizerManager::Error*) const 0x00021715   Thumb Code    16  QtOrganizer.in(i._ZNK10QtMobility26QOrganizerItemMemoryEngine16detailDefinitionERK7QStringS3_PNS_17QOrganizerManager5ErrorE)
    QtMobility::QOrganizerItemMemoryEngine::supportedItemTypes() const 0x00021725   Thumb Code     8  QtOrganizer.in(i._ZNK10QtMobility26QOrganizerItemMemoryEngine18supportedItemTypesEv)
    QtMobility::QOrganizerItemMemoryEngine::validateCollection(const QtMobility::QOrganizerCollection&, QtMobility::QOrganizerManager::Error*) const 0x0002172d   Thumb Code     8  QtOrganizer.in(i._ZNK10QtMobility26QOrganizerItemMemoryEngine18validateCollectionERKNS_20QOrganizerCollectionEPNS_17QOrganizerManager5ErrorE)
    QtMobility::QOrganizerItemMemoryEngine::validateDefinition(const QtMobility::QOrganizerItemDetailDefinition&, QtMobility::QOrganizerManager::Error*) const 0x00021735   Thumb Code     8  QtOrganizer.in(i._ZNK10QtMobility26QOrganizerItemMemoryEngine18validateDefinitionERKNS_30QOrganizerItemDetailDefinitionEPNS_17QOrganizerManager5ErrorE)
    QtMobility::QOrganizerItemStringHolder::toQString() const 0x0002173d   Thumb Code    96  QtOrganizer.in(i._ZNK10QtMobility26QOrganizerItemStringHolder9toQStringEv)
    QtMobility::QOrganizerItemStringHolder::operator ==(const char*) const 0x000217b1   Thumb Code    28  QtOrganizer.in(i._ZNK10QtMobility26QOrganizerItemStringHoldereqEPKc)
    QtMobility::QOrganizerItemStringHolder::operator ==(const QString&) const 0x000217cd   Thumb Code    46  QtOrganizer.in(i._ZNK10QtMobility26QOrganizerItemStringHoldereqERK7QString)
    QtMobility::QOrganizerItemStringHolder::operator ==(const QtMobility::QOrganizerItemStringHolder&) const 0x00021801   Thumb Code    28  QtOrganizer.in(i._ZNK10QtMobility26QOrganizerItemStringHoldereqERKS0_)
    QtMobility::QOrganizerItemInvalidEngine::compatibleItem(const QtMobility::QOrganizerItem&, QtMobility::QOrganizerManager::Error*) const 0x0002181d   Thumb Code    12  QtOrganizer.in(i._ZNK10QtMobility27QOrganizerItemInvalidEngine14compatibleItemERKNS_14QOrganizerItemEPNS_17QOrganizerManager5ErrorE)
    QtMobility::QOrganizerItemInvalidEngine::managerVersion() const 0x00021829   Thumb Code     4  QtOrganizer.in(i._ZNK10QtMobility27QOrganizerItemInvalidEngine14managerVersionEv)
    QtMobility::QOrganizerItemInvalidEngine::synthesizedDisplayLabel(const QtMobility::QOrganizerItem&, QtMobility::QOrganizerManager::Error*) const 0x0002182d   Thumb Code    18  QtOrganizer.in(i._ZNK10QtMobility27QOrganizerItemInvalidEngine23synthesizedDisplayLabelERKNS_14QOrganizerItemEPNS_17QOrganizerManager5ErrorE)
    QtMobility::QOrganizerItemIdFilterPrivate::outputToStream(QDataStream&, unsigned char) const 0x00021845   Thumb Code    62  QtOrganizer.in(i._ZNK10QtMobility29QOrganizerItemIdFilterPrivate14outputToStreamER11QDataStreamh)
    QtMobility::QOrganizerItemIdFilterPrivate::type() const 0x00021883   Thumb Code     4  QtOrganizer.in(i._ZNK10QtMobility29QOrganizerItemIdFilterPrivate4typeEv)
    QtMobility::QOrganizerItemIdFilterPrivate::clone() const 0x00021889   Thumb Code    44  QtOrganizer.in(i._ZNK10QtMobility29QOrganizerItemIdFilterPrivate5cloneEv)
    QtMobility::QOrganizerItemIdFilterPrivate::compare(const QtMobility::QOrganizerItemFilterPrivate*) const 0x000218cb   Thumb Code   102  QtOrganizer.in(i._ZNK10QtMobility29QOrganizerItemIdFilterPrivate7compareEPKNS_27QOrganizerItemFilterPrivateE)
    QtMobility::QOrganizerAbstractRequestPrivate::type() const 0x00021931   Thumb Code     4  QtOrganizer.in(i._ZNK10QtMobility32QOrganizerAbstractRequestPrivate4typeEv)
    QtMobility::QOrganizerItemSaveRequestPrivate::type() const 0x00021935   Thumb Code     4  QtOrganizer.in(i._ZNK10QtMobility32QOrganizerItemSaveRequestPrivate4typeEv)
    QtMobility::QOrganizerItemUnionFilterPrivate::outputToStream(QDataStream&, unsigned char) const 0x00021939   Thumb Code    62  QtOrganizer.in(i._ZNK10QtMobility32QOrganizerItemUnionFilterPrivate14outputToStreamER11QDataStreamh)
    QtMobility::QOrganizerItemUnionFilterPrivate::type() const 0x00021977   Thumb Code     4  QtOrganizer.in(i._ZNK10QtMobility32QOrganizerItemUnionFilterPrivate4typeEv)
    QtMobility::QOrganizerItemUnionFilterPrivate::clone() const 0x0002197d   Thumb Code    44  QtOrganizer.in(i._ZNK10QtMobility32QOrganizerItemUnionFilterPrivate5cloneEv)
    QtMobility::QOrganizerItemUnionFilterPrivate::compare(const QtMobility::QOrganizerItemFilterPrivate*) const 0x000219bf   Thumb Code   102  QtOrganizer.in(i._ZNK10QtMobility32QOrganizerItemUnionFilterPrivate7compareEPKNS_27QOrganizerItemFilterPrivateE)
    QtMobility::QOrganizerItemDetailFilterPrivate::outputToStream(QDataStream&, unsigned char) const 0x00021a25   Thumb Code    46  QtOrganizer.in(i._ZNK10QtMobility33QOrganizerItemDetailFilterPrivate14outputToStreamER11QDataStreamh)
    QtMobility::QOrganizerItemDetailFilterPrivate::type() const 0x00021a53   Thumb Code     4  QtOrganizer.in(i._ZNK10QtMobility33QOrganizerItemDetailFilterPrivate4typeEv)
    QtMobility::QOrganizerItemDetailFilterPrivate::clone() const 0x00021a59   Thumb Code    82  QtOrganizer.in(i._ZNK10QtMobility33QOrganizerItemDetailFilterPrivate5cloneEv)
    QtMobility::QOrganizerItemDetailFilterPrivate::compare(const QtMobility::QOrganizerItemFilterPrivate*) const 0x00021adb   Thumb Code    68  QtOrganizer.in(i._ZNK10QtMobility33QOrganizerItemDetailFilterPrivate7compareEPKNS_27QOrganizerItemFilterPrivateE)
    QtMobility::QOrganizerItemFetchRequestPrivate::type() const 0x00021b1f   Thumb Code     4  QtOrganizer.in(i._ZNK10QtMobility33QOrganizerItemFetchRequestPrivate4typeEv)
    QtMobility::QOrganizerItemInvalidFilterPrivate::outputToStream(QDataStream&, unsigned char) const 0x00021b23   Thumb Code     6  QtOrganizer.in(i._ZNK10QtMobility34QOrganizerItemInvalidFilterPrivate14outputToStreamER11QDataStreamh)
    QtMobility::QOrganizerItemInvalidFilterPrivate::type() const 0x00021b29   Thumb Code     4  QtOrganizer.in(i._ZNK10QtMobility34QOrganizerItemInvalidFilterPrivate4typeEv)
    QtMobility::QOrganizerItemInvalidFilterPrivate::clone() const 0x00021b2d   Thumb Code    24  QtOrganizer.in(i._ZNK10QtMobility34QOrganizerItemInvalidFilterPrivate5cloneEv)
    QtMobility::QOrganizerItemInvalidFilterPrivate::compare(const QtMobility::QOrganizerItemFilterPrivate*) const 0x00021b4f   Thumb Code     4  QtOrganizer.in(i._ZNK10QtMobility34QOrganizerItemInvalidFilterPrivate7compareEPKNS_27QOrganizerItemFilterPrivateE)
    QtMobility::QOrganizerItemRemoveRequestPrivate::type() const 0x00021b53   Thumb Code     4  QtOrganizer.in(i._ZNK10QtMobility34QOrganizerItemRemoveRequestPrivate4typeEv)
    QtMobility::QOrganizerItemIdFetchRequestPrivate::type() const 0x00021b57   Thumb Code     4  QtOrganizer.in(i._ZNK10QtMobility35QOrganizerItemIdFetchRequestPrivate4typeEv)
    QtMobility::QOrganizerItemChangeLogFilterPrivate::outputToStream(QDataStream&, unsigned char) const 0x00021b5b   Thumb Code    30  QtOrganizer.in(i._ZNK10QtMobility36QOrganizerItemChangeLogFilterPrivate14outputToStreamER11QDataStreamh)
    QtMobility::QOrganizerItemChangeLogFilterPrivate::type() const 0x00021b79   Thumb Code     4  QtOrganizer.in(i._ZNK10QtMobility36QOrganizerItemChangeLogFilterPrivate4typeEv)
    QtMobility::QOrganizerItemChangeLogFilterPrivate::clone() const 0x00021b7d   Thumb Code    48  QtOrganizer.in(i._ZNK10QtMobility36QOrganizerItemChangeLogFilterPrivate5cloneEv)
    QtMobility::QOrganizerItemChangeLogFilterPrivate::compare(const QtMobility::QOrganizerItemFilterPrivate*) const 0x00021bc3   Thumb Code    32  QtOrganizer.in(i._ZNK10QtMobility36QOrganizerItemChangeLogFilterPrivate7compareEPKNS_27QOrganizerItemFilterPrivateE)
    QtMobility::QOrganizerItemCollectionFilterPrivate::outputToStream(QDataStream&, unsigned char) const 0x00021be3   Thumb Code    62  QtOrganizer.in(i._ZNK10QtMobility37QOrganizerItemCollectionFilterPrivate14outputToStreamER11QDataStreamh)
    QtMobility::QOrganizerItemCollectionFilterPrivate::type() const 0x00021c21   Thumb Code     4  QtOrganizer.in(i._ZNK10QtMobility37QOrganizerItemCollectionFilterPrivate4typeEv)
    QtMobility::QOrganizerItemCollectionFilterPrivate::clone() const 0x00021c25   Thumb Code    44  QtOrganizer.in(i._ZNK10QtMobility37QOrganizerItemCollectionFilterPrivate5cloneEv)
    QtMobility::QOrganizerItemCollectionFilterPrivate::compare(const QtMobility::QOrganizerItemFilterPrivate*) const 0x00021c67   Thumb Code    24  QtOrganizer.in(i._ZNK10QtMobility37QOrganizerItemCollectionFilterPrivate7compareEPKNS_27QOrganizerItemFilterPrivateE)
    QtMobility::QOrganizerCollectionSaveRequestPrivate::type() const 0x00021c7f   Thumb Code     4  QtOrganizer.in(i._ZNK10QtMobility38QOrganizerCollectionSaveRequestPrivate4typeEv)
    QtMobility::QOrganizerItemDetailRangeFilterPrivate::outputToStream(QDataStream&, unsigned char) const 0x00021c83   Thumb Code    62  QtOrganizer.in(i._ZNK10QtMobility38QOrganizerItemDetailRangeFilterPrivate14outputToStreamER11QDataStreamh)
    QtMobility::QOrganizerItemDetailRangeFilterPrivate::type() const 0x00021cc1   Thumb Code     4  QtOrganizer.in(i._ZNK10QtMobility38QOrganizerItemDetailRangeFilterPrivate4typeEv)
    QtMobility::QOrganizerItemDetailRangeFilterPrivate::clone() const 0x00021cc5   Thumb Code    28  QtOrganizer.in(i._ZNK10QtMobility38QOrganizerItemDetailRangeFilterPrivate5cloneEv)
    QtMobility::QOrganizerItemDetailRangeFilterPrivate::compare(const QtMobility::QOrganizerItemFilterPrivate*) const 0x00021ceb   Thumb Code    90  QtOrganizer.in(i._ZNK10QtMobility38QOrganizerItemDetailRangeFilterPrivate7compareEPKNS_27QOrganizerItemFilterPrivateE)
    QtMobility::QOrganizerCollectionFetchRequestPrivate::type() const 0x00021d45   Thumb Code     4  QtOrganizer.in(i._ZNK10QtMobility39QOrganizerCollectionFetchRequestPrivate4typeEv)
    QtMobility::QOrganizerItemIntersectionFilterPrivate::outputToStream(QDataStream&, unsigned char) const 0x00021d49   Thumb Code    62  QtOrganizer.in(i._ZNK10QtMobility39QOrganizerItemIntersectionFilterPrivate14outputToStreamER11QDataStreamh)
    QtMobility::QOrganizerItemIntersectionFilterPrivate::type() const 0x00021d87   Thumb Code     4  QtOrganizer.in(i._ZNK10QtMobility39QOrganizerItemIntersectionFilterPrivate4typeEv)
    QtMobility::QOrganizerItemIntersectionFilterPrivate::clone() const 0x00021d8d   Thumb Code    44  QtOrganizer.in(i._ZNK10QtMobility39QOrganizerItemIntersectionFilterPrivate5cloneEv)
    QtMobility::QOrganizerItemIntersectionFilterPrivate::compare(const QtMobility::QOrganizerItemFilterPrivate*) const 0x00021dcf   Thumb Code   102  QtOrganizer.in(i._ZNK10QtMobility39QOrganizerItemIntersectionFilterPrivate7compareEPKNS_27QOrganizerItemFilterPrivateE)
    QtMobility::QOrganizerCollectionRemoveRequestPrivate::type() const 0x00021e35   Thumb Code     4  QtOrganizer.in(i._ZNK10QtMobility40QOrganizerCollectionRemoveRequestPrivate4typeEv)
    QtMobility::QOrganizerItemFetchForExportRequestPrivate::type() const 0x00021e39   Thumb Code     4  QtOrganizer.in(i._ZNK10QtMobility42QOrganizerItemFetchForExportRequestPrivate4typeEv)
    QtMobility::QOrganizerItemOccurrenceFetchRequestPrivate::type() const 0x00021e3d   Thumb Code     4  QtOrganizer.in(i._ZNK10QtMobility43QOrganizerItemOccurrenceFetchRequestPrivate4typeEv)
    QtMobility::QOrganizerItemDetailDefinitionSaveRequestPrivate::type() const 0x00021e41   Thumb Code     4  QtOrganizer.in(i._ZNK10QtMobility48QOrganizerItemDetailDefinitionSaveRequestPrivate4typeEv)
    QtMobility::QOrganizerItemDetailDefinitionFetchRequestPrivate::type() const 0x00021e45   Thumb Code     4  QtOrganizer.in(i._ZNK10QtMobility49QOrganizerItemDetailDefinitionFetchRequestPrivate4typeEv)
    QtMobility::QOrganizerItemDetailDefinitionRemoveRequestPrivate::type() const 0x00021e49   Thumb Code     4  QtOrganizer.in(i._ZNK10QtMobility50QOrganizerItemDetailDefinitionRemoveRequestPrivate4typeEv)
    QStringList::contains(const QString&, Qt::CaseSensitivity) const 0x00021e4d   Thumb Code     8  QtOrganizer.in(i._ZNK11QStringList8containsERK7QStringN2Qt15CaseSensitivityE)
    QBasicAtomicInt::operator ==(int) const  0x00021e55   Thumb Code    14  QtOrganizer.in(i._ZNK15QBasicAtomicInteqEi)
    QBasicAtomicInt::operator !=(int) const  0x00021e63   Thumb Code    14  QtOrganizer.in(i._ZNK15QBasicAtomicIntneEi)
    QBasicAtomicInt::operator !() const      0x00021e71   Thumb Code    14  QtOrganizer.in(i._ZNK15QBasicAtomicIntntEv)
    QBool::operator const void*() const      0x00021e7f   Thumb Code    14  QtOrganizer.in(i._ZNK5QBoolcvPKvEv)
    QDate::operator ==(const QDate&) const   0x00021e8d   Thumb Code    16  QtOrganizer.in(i._ZNK5QDateeqERKS_)
    QString::isEmpty() const                 0x00021e9d   Thumb Code    16  QtOrganizer.in(i._ZNK7QString7isEmptyEv)
    QString::operator !=(const QLatin1String&) const 0x00021ead   Thumb Code    12  QtOrganizer.in(i._ZNK7QStringneERK13QLatin1String)
    QString::operator !=(const QString&) const 0x00021eb9   Thumb Code    12  QtOrganizer.in(i._ZNK7QStringneERKS_)
    QVariant::isValid() const                0x00021ec5   Thumb Code    14  QtOrganizer.in(i._ZNK8QVariant7isValidEv)
    QVariant::operator !=(const QVariant&) const 0x00021ed3   Thumb Code    12  QtOrganizer.in(i._ZNK8QVariantneERKS_)
    QDateTime::operator >=(const QDateTime&) const 0x00021edf   Thumb Code    12  QtOrganizer.in(i._ZNK9QDateTimegeERKS_)
    QDateTime::operator <=(const QDateTime&) const 0x00021eeb   Thumb Code    18  QtOrganizer.in(i._ZNK9QDateTimeleERKS_)
    QListData::at(int) const                 0x00021efd   Thumb Code    16  QtOrganizer.in(i._ZNK9QListData2atEi)
    QListData::end() const                   0x00021f0d   Thumb Code    12  QtOrganizer.in(i._ZNK9QListData3endEv)
    QListData::size() const                  0x00021f19   Thumb Code    10  QtOrganizer.in(i._ZNK9QListData4sizeEv)
    QListData::begin() const                 0x00021f23   Thumb Code    12  QtOrganizer.in(i._ZNK9QListData5beginEv)
    QListData::isEmpty() const               0x00021f2f   Thumb Code    18  QtOrganizer.in(i._ZNK9QListData7isEmptyEv)
    operator delete (void*, void*)           0x00021f41   Thumb Code     2  QtOrganizer.in(i._ZdlPvS_)
    operator new(unsigned, void*)            0x00021f43   Thumb Code     4  QtOrganizer.in(i._ZnwjPv)
    operator +(const QString&, QChar)        0x00021f47   Thumb Code   104  QtOrganizer.in(i._ZplRK7QString5QChar)
    operator +(const QString&, const QString&) 0x00021fb9   Thumb Code    36  QtOrganizer.in(i._ZplRK7QStringS1_)
    qobject_cast<QtMobility::QOrganizerManagerEngineFactory*>(QObject*) 0x00021fe9   Thumb Code    22  QtOrganizer.in(t._Z12qobject_castIPN10QtMobility30QOrganizerManagerEngineFactoryEET_P7QObject)
    qMapLessThanKey<QString>(const T1&, const T1&) 0x00022039   Thumb Code     8  QtOrganizer.in(t._Z15qMapLessThanKeyI7QStringEbRKT_S3_)
    qMapLessThanKey<QtMobility::QOrganizerCollectionId>(const T1&, const T1&) 0x00022041   Thumb Code     8  QtOrganizer.in(t._Z15qMapLessThanKeyIN10QtMobility22QOrganizerCollectionIdEEbRKT_S4_)
    qMapLessThanKey<int>(const T1&, const T1&) 0x00022049   Thumb Code    16  QtOrganizer.in(t._Z15qMapLessThanKeyIiEbRKT_S2_)
    qRegisterMetaType<QSet<QDate>>(const char*, T1*) 0x00022059   Thumb Code    44  QtOrganizer.in(t._Z17qRegisterMetaTypeI4QSetI5QDateEEiPKcPT_)
    qRegisterMetaType<QSet<QtMobility::QOrganizerRecurrenceRule>>(const char*, T1*) 0x0002208d   Thumb Code    44  QtOrganizer.in(t._Z17qRegisterMetaTypeI4QSetIN10QtMobility24QOrganizerRecurrenceRuleEEEiPKcPT_)
    qRegisterMetaType<QtMobility::QOrganizerItemId>(const char*, T1*) 0x000220c1   Thumb Code    44  QtOrganizer.in(t._Z17qRegisterMetaTypeIN10QtMobility16QOrganizerItemIdEEiPKcPT_)
    qForeachContainerNew<QSet<QDate>>(const T1&) 0x000220f5   Thumb Code    54  QtOrganizer.in(t._Z20qForeachContainerNewI4QSetI5QDateEE17QForeachContainerIT_ERKS4_)
    qForeachContainerNew<QSet<int>>(const T1&) 0x00022135   Thumb Code    42  QtOrganizer.in(t._Z20qForeachContainerNewI4QSetIiEE17QForeachContainerIT_ERKS3_)
    qForeachContainerNew<QHash<QtMobility::QOrganizerItemId, QtMobility::QOrganizerItem>>(const T1&) 0x00022169   Thumb Code    52  QtOrganizer.in(t._Z20qForeachContainerNewI5QHashIN10QtMobility16QOrganizerItemIdENS1_14QOrganizerItemEEE17QForeachContainerIT_ERKS6_)
    qForeachContainerNew<QList<QDateTime>>(const T1&) 0x000221a7   Thumb Code    60  QtOrganizer.in(t._Z20qForeachContainerNewI5QListI9QDateTimeEE17QForeachContainerIT_ERKS4_)
    qForeachContainerNew<QList<QtMobility::QOrganizerItem>>(const T1&) 0x000221ed   Thumb Code    46  QtOrganizer.in(t._Z20qForeachContainerNewI5QListIN10QtMobility14QOrganizerItemEEE17QForeachContainerIT_ERKS5_)
    qForeachContainerNew<QList<QtMobility::QOrganizerItemId>>(const T1&) 0x00022225   Thumb Code    62  QtOrganizer.in(t._Z20qForeachContainerNewI5QListIN10QtMobility16QOrganizerItemIdEEE17QForeachContainerIT_ERKS5_)
    qForeachContainerNew<QList<QtMobility::QOrganizerItemDetail>>(const T1&) 0x0002226d   Thumb Code    46  QtOrganizer.in(t._Z20qForeachContainerNewI5QListIN10QtMobility20QOrganizerItemDetailEEE17QForeachContainerIT_ERKS5_)
    qForeachContainerNew<QList<QtMobility::QOrganizerItemComment>>(const T1&) 0x000222a5   Thumb Code    60  QtOrganizer.in(t._Z20qForeachContainerNewI5QListIN10QtMobility21QOrganizerItemCommentEEE17QForeachContainerIT_ERKS5_)
    qForeachContainerNew<QList<QtMobility::QOrganizerCollectionId>>(const T1&) 0x000222eb   Thumb Code    62  QtOrganizer.in(t._Z20qForeachContainerNewI5QListIN10QtMobility22QOrganizerCollectionIdEEE17QForeachContainerIT_ERKS5_)
    qForeachContainerNew<QList<QtMobility::QOrganizerManagerEngineFactory*>>(const T1&) 0x00022333   Thumb Code    60  QtOrganizer.in(t._Z20qForeachContainerNewI5QListIPN10QtMobility30QOrganizerManagerEngineFactoryEEE17QForeachContainerIT_ERKS6_)
    qMetaTypeDeleteHelper<QSet<QDate>>(T1*)  0x00022379   Thumb Code    16  QtOrganizer.in(t._Z21qMetaTypeDeleteHelperI4QSetI5QDateEEvPT_)
    qMetaTypeDeleteHelper<QSet<QtMobility::QOrganizerRecurrenceRule>>(T1*) 0x00022389   Thumb Code    16  QtOrganizer.in(t._Z21qMetaTypeDeleteHelperI4QSetIN10QtMobility24QOrganizerRecurrenceRuleEEEvPT_)
    qMetaTypeDeleteHelper<QtMobility::QOrganizerItemId>(T1*) 0x00022399   Thumb Code    16  QtOrganizer.in(t._Z21qMetaTypeDeleteHelperIN10QtMobility16QOrganizerItemIdEEvPT_)
    qMetaTypeConstructHelper<QSet<QDate>>(const T1*) 0x000223a9   Thumb Code    48  QtOrganizer.in(t._Z24qMetaTypeConstructHelperI4QSetI5QDateEEPvPKT_)
    qMetaTypeConstructHelper<QSet<QtMobility::QOrganizerRecurrenceRule>>(const T1*) 0x000223e9   Thumb Code    48  QtOrganizer.in(t._Z24qMetaTypeConstructHelperI4QSetIN10QtMobility24QOrganizerRecurrenceRuleEEEPvPKT_)
    qMetaTypeConstructHelper<QtMobility::QOrganizerItemId>(const T1*) 0x00022429   Thumb Code    48  QtOrganizer.in(t._Z24qMetaTypeConstructHelperIN10QtMobility16QOrganizerItemIdEEPvPKT_)
    qSwap<QDateTime>(T1&, T1&)               0x00022469   Thumb Code    38  QtOrganizer.in(t._Z5qSwapI9QDateTimeEvRT_S2_)
    QMultiHash<QtMobility::QOrganizerItemId, QtMobility::QOrganizerItemId>::remove(const QtMobility::QOrganizerItemId&, const QtMobility::QOrganizerItemId&) 0x00022499   Thumb Code   100  QtOrganizer.in(t._ZN10QMultiHashIN10QtMobility16QOrganizerItemIdES1_E6removeERKS1_S4_)
    QtMobility::operator ==<(int)15>(const QString&, const QtMobility::QLatin1Constant<T1>&) 0x000224fd   Thumb Code    12  QtOrganizer.in(t._ZN10QtMobilityeqILi15EEEbRK7QStringRKNS_15QLatin1ConstantIXT_EEE)
    QtMobility::operator ==<(int)16>(const QString&, const QtMobility::QLatin1Constant<T1>&) 0x00022509   Thumb Code    12  QtOrganizer.in(t._ZN10QtMobilityeqILi16EEEbRK7QStringRKNS_15QLatin1ConstantIXT_EEE)
    QtMobility::operator ==<(int)5>(const QString&, const QtMobility::QLatin1Constant<T1>&) 0x00022515   Thumb Code    12  QtOrganizer.in(t._ZN10QtMobilityeqILi5EEEbRK7QStringRKNS_15QLatin1ConstantIXT_EEE)
    QtMobility::operator ==<(int)6>(const QString&, const QtMobility::QLatin1Constant<T1>&) 0x00022521   Thumb Code    12  QtOrganizer.in(t._ZN10QtMobilityeqILi6EEEbRK7QStringRKNS_15QLatin1ConstantIXT_EEE)
    QMapIterator<QString, QVariant>::QMapIterator(const QMap<QString, QVariant>&) 0x0002252d   Thumb Code    54  QtOrganizer.in(t._ZN12QMapIteratorI7QString8QVariantEC1ERK4QMapIS0_S1_E)
    QMapIterator<QString, QVariant>::QMapIterator__sub_object(const QMap<QString, QVariant>&) 0x0002252d   Thumb Code     0  QtOrganizer.in(t._ZN12QMapIteratorI7QString8QVariantEC1ERK4QMapIS0_S1_E)
    QMetaTypeId2<QSet<QDate>>::qt_metatype_id() 0x00022565   Thumb Code    30  QtOrganizer.in(t._ZN12QMetaTypeId2I4QSetI5QDateEE14qt_metatype_idEv)
    QMetaTypeId2<QSet<QtMobility::QOrganizerRecurrenceRule>>::qt_metatype_id() 0x00022595   Thumb Code    30  QtOrganizer.in(t._ZN12QMetaTypeId2I4QSetIN10QtMobility24QOrganizerRecurrenceRuleEEE14qt_metatype_idEv)
    QMetaTypeId2<QtMobility::QOrganizerItemId>::qt_metatype_id() 0x000225f1   Thumb Code    24  QtOrganizer.in(t._ZN12QMetaTypeId2IN10QtMobility16QOrganizerItemIdEE14qt_metatype_idEv)
    QWeakPointer<QtMobility::QOrganizerAbstractRequest>::~QWeakPointer() 0x00022635   Thumb Code    36  QtOrganizer.in(t._ZN12QWeakPointerIN10QtMobility25QOrganizerAbstractRequestEED1Ev)
    QWeakPointer<QtMobility::QOrganizerAbstractRequest>::~QWeakPointer__sub_object() 0x00022635   Thumb Code     0  QtOrganizer.in(t._ZN12QWeakPointerIN10QtMobility25QOrganizerAbstractRequestEED1Ev)
    QWeakPointer<QtMobility::QOrganizerItemSaveRequest>::~QWeakPointer() 0x00022659   Thumb Code    36  QtOrganizer.in(t._ZN12QWeakPointerIN10QtMobility25QOrganizerItemSaveRequestEED1Ev)
    QWeakPointer<QtMobility::QOrganizerItemSaveRequest>::~QWeakPointer__sub_object() 0x00022659   Thumb Code     0  QtOrganizer.in(t._ZN12QWeakPointerIN10QtMobility25QOrganizerItemSaveRequestEED1Ev)
    QWeakPointer<QtMobility::QOrganizerItemFetchRequest>::~QWeakPointer() 0x0002267d   Thumb Code    36  QtOrganizer.in(t._ZN12QWeakPointerIN10QtMobility26QOrganizerItemFetchRequestEED1Ev)
    QWeakPointer<QtMobility::QOrganizerItemFetchRequest>::~QWeakPointer__sub_object() 0x0002267d   Thumb Code     0  QtOrganizer.in(t._ZN12QWeakPointerIN10QtMobility26QOrganizerItemFetchRequestEED1Ev)
    QWeakPointer<QtMobility::QOrganizerItemRemoveRequest>::~QWeakPointer() 0x000226a1   Thumb Code    36  QtOrganizer.in(t._ZN12QWeakPointerIN10QtMobility27QOrganizerItemRemoveRequestEED1Ev)
    QWeakPointer<QtMobility::QOrganizerItemRemoveRequest>::~QWeakPointer__sub_object() 0x000226a1   Thumb Code     0  QtOrganizer.in(t._ZN12QWeakPointerIN10QtMobility27QOrganizerItemRemoveRequestEED1Ev)
    QWeakPointer<QtMobility::QOrganizerItemIdFetchRequest>::~QWeakPointer() 0x000226c5   Thumb Code    36  QtOrganizer.in(t._ZN12QWeakPointerIN10QtMobility28QOrganizerItemIdFetchRequestEED1Ev)
    QWeakPointer<QtMobility::QOrganizerItemIdFetchRequest>::~QWeakPointer__sub_object() 0x000226c5   Thumb Code     0  QtOrganizer.in(t._ZN12QWeakPointerIN10QtMobility28QOrganizerItemIdFetchRequestEED1Ev)
    QWeakPointer<QtMobility::QOrganizerCollectionSaveRequest>::~QWeakPointer() 0x000226e9   Thumb Code    36  QtOrganizer.in(t._ZN12QWeakPointerIN10QtMobility31QOrganizerCollectionSaveRequestEED1Ev)
    QWeakPointer<QtMobility::QOrganizerCollectionSaveRequest>::~QWeakPointer__sub_object() 0x000226e9   Thumb Code     0  QtOrganizer.in(t._ZN12QWeakPointerIN10QtMobility31QOrganizerCollectionSaveRequestEED1Ev)
    QWeakPointer<QtMobility::QOrganizerCollectionFetchRequest>::~QWeakPointer() 0x0002270d   Thumb Code    36  QtOrganizer.in(t._ZN12QWeakPointerIN10QtMobility32QOrganizerCollectionFetchRequestEED1Ev)
    QWeakPointer<QtMobility::QOrganizerCollectionFetchRequest>::~QWeakPointer__sub_object() 0x0002270d   Thumb Code     0  QtOrganizer.in(t._ZN12QWeakPointerIN10QtMobility32QOrganizerCollectionFetchRequestEED1Ev)
    QWeakPointer<QtMobility::QOrganizerCollectionRemoveRequest>::~QWeakPointer() 0x00022731   Thumb Code    36  QtOrganizer.in(t._ZN12QWeakPointerIN10QtMobility33QOrganizerCollectionRemoveRequestEED1Ev)
    QWeakPointer<QtMobility::QOrganizerCollectionRemoveRequest>::~QWeakPointer__sub_object() 0x00022731   Thumb Code     0  QtOrganizer.in(t._ZN12QWeakPointerIN10QtMobility33QOrganizerCollectionRemoveRequestEED1Ev)
    QWeakPointer<QtMobility::QOrganizerItemFetchForExportRequest>::~QWeakPointer() 0x00022755   Thumb Code    36  QtOrganizer.in(t._ZN12QWeakPointerIN10QtMobility35QOrganizerItemFetchForExportRequestEED1Ev)
    QWeakPointer<QtMobility::QOrganizerItemFetchForExportRequest>::~QWeakPointer__sub_object() 0x00022755   Thumb Code     0  QtOrganizer.in(t._ZN12QWeakPointerIN10QtMobility35QOrganizerItemFetchForExportRequestEED1Ev)
    QWeakPointer<QtMobility::QOrganizerItemOccurrenceFetchRequest>::~QWeakPointer() 0x00022779   Thumb Code    36  QtOrganizer.in(t._ZN12QWeakPointerIN10QtMobility36QOrganizerItemOccurrenceFetchRequestEED1Ev)
    QWeakPointer<QtMobility::QOrganizerItemOccurrenceFetchRequest>::~QWeakPointer__sub_object() 0x00022779   Thumb Code     0  QtOrganizer.in(t._ZN12QWeakPointerIN10QtMobility36QOrganizerItemOccurrenceFetchRequestEED1Ev)
    QWeakPointer<QtMobility::QOrganizerItemDetailDefinitionSaveRequest>::~QWeakPointer() 0x0002279d   Thumb Code    36  QtOrganizer.in(t._ZN12QWeakPointerIN10QtMobility41QOrganizerItemDetailDefinitionSaveRequestEED1Ev)
    QWeakPointer<QtMobility::QOrganizerItemDetailDefinitionSaveRequest>::~QWeakPointer__sub_object() 0x0002279d   Thumb Code     0  QtOrganizer.in(t._ZN12QWeakPointerIN10QtMobility41QOrganizerItemDetailDefinitionSaveRequestEED1Ev)
    QWeakPointer<QtMobility::QOrganizerItemDetailDefinitionFetchRequest>::~QWeakPointer() 0x000227c1   Thumb Code    36  QtOrganizer.in(t._ZN12QWeakPointerIN10QtMobility42QOrganizerItemDetailDefinitionFetchRequestEED1Ev)
    QWeakPointer<QtMobility::QOrganizerItemDetailDefinitionFetchRequest>::~QWeakPointer__sub_object() 0x000227c1   Thumb Code     0  QtOrganizer.in(t._ZN12QWeakPointerIN10QtMobility42QOrganizerItemDetailDefinitionFetchRequestEED1Ev)
    QWeakPointer<QtMobility::QOrganizerItemDetailDefinitionRemoveRequest>::~QWeakPointer() 0x000227e5   Thumb Code    36  QtOrganizer.in(t._ZN12QWeakPointerIN10QtMobility43QOrganizerItemDetailDefinitionRemoveRequestEED1Ev)
    QWeakPointer<QtMobility::QOrganizerItemDetailDefinitionRemoveRequest>::~QWeakPointer__sub_object() 0x000227e5   Thumb Code     0  QtOrganizer.in(t._ZN12QWeakPointerIN10QtMobility43QOrganizerItemDetailDefinitionRemoveRequestEED1Ev)
    QConcatenable<QStringBuilder<QStringBuilder<QString, QLatin1Char>, QString>>::size(const QStringBuilder<QStringBuilder<QString, QLatin1Char>, QString>&) 0x00022809   Thumb Code    22  QtOrganizer.in(t._ZN13QConcatenableI14QStringBuilderIS0_I7QString11QLatin1CharES1_EE4sizeERKS4_)
    QConcatenable<QStringBuilder<QStringBuilder<QString, QLatin1Char>, QString>>::appendTo(const QStringBuilder<QStringBuilder<QString, QLatin1Char>, QString>&, QChar*&) 0x0002281f   Thumb Code    36  QtOrganizer.in(t._ZN13QConcatenableI14QStringBuilderIS0_I7QString11QLatin1CharES1_EE8appendToERKS4_RP5QChar)
    QHashDummyNode<QString, QHashDummyValue>::QHashDummyNode(const QString&) 0x00022843   Thumb Code    12  QtOrganizer.in(t._ZN14QHashDummyNodeI7QString15QHashDummyValueEC1ERKS0_)
    QHashDummyNode<QString, QHashDummyValue>::QHashDummyNode__sub_object(const QString&) 0x00022843   Thumb Code     0  QtOrganizer.in(t._ZN14QHashDummyNodeI7QString15QHashDummyValueEC1ERKS0_)
    QHashDummyNode<QtMobility::QOrganizerItemId, QHashDummyValue>::QHashDummyNode(const QtMobility::QOrganizerItemId&) 0x0002284f   Thumb Code    12  QtOrganizer.in(t._ZN14QHashDummyNodeIN10QtMobility16QOrganizerItemIdE15QHashDummyValueEC1ERKS1_)
    QHashDummyNode<QtMobility::QOrganizerItemId, QHashDummyValue>::QHashDummyNode__sub_object(const QtMobility::QOrganizerItemId&) 0x0002284f   Thumb Code     0  QtOrganizer.in(t._ZN14QHashDummyNodeIN10QtMobility16QOrganizerItemIdE15QHashDummyValueEC1ERKS1_)
    QHashDummyNode<QtMobility::QOrganizerCollectionId, QHashDummyValue>::QHashDummyNode(const QtMobility::QOrganizerCollectionId&) 0x0002285b   Thumb Code    12  QtOrganizer.in(t._ZN14QHashDummyNodeIN10QtMobility22QOrganizerCollectionIdE15QHashDummyValueEC1ERKS1_)
    QHashDummyNode<QtMobility::QOrganizerCollectionId, QHashDummyValue>::QHashDummyNode__sub_object(const QtMobility::QOrganizerCollectionId&) 0x0002285b   Thumb Code     0  QtOrganizer.in(t._ZN14QHashDummyNodeIN10QtMobility22QOrganizerCollectionIdE15QHashDummyValueEC1ERKS1_)
    QHashDummyNode<QtMobility::QOrganizerRecurrenceRule, QHashDummyValue>::QHashDummyNode(const QtMobility::QOrganizerRecurrenceRule&) 0x00022867   Thumb Code    12  QtOrganizer.in(t._ZN14QHashDummyNodeIN10QtMobility24QOrganizerRecurrenceRuleE15QHashDummyValueEC1ERKS1_)
    QHashDummyNode<QtMobility::QOrganizerRecurrenceRule, QHashDummyValue>::QHashDummyNode__sub_object(const QtMobility::QOrganizerRecurrenceRule&) 0x00022867   Thumb Code     0  QtOrganizer.in(t._ZN14QHashDummyNodeIN10QtMobility24QOrganizerRecurrenceRuleE15QHashDummyValueEC1ERKS1_)
    QForeachContainer<QSet<QtMobility::QOrganizerRecurrenceRule>>::QForeachContainer(const QSet<QtMobility::QOrganizerRecurrenceRule>&) 0x00022875   Thumb Code   104  QtOrganizer.in(t._ZN17QForeachContainerI4QSetIN10QtMobility24QOrganizerRecurrenceRuleEEEC1ERKS3_)
    QForeachContainer<QSet<QtMobility::QOrganizerRecurrenceRule>>::QForeachContainer__sub_object(const QSet<QtMobility::QOrganizerRecurrenceRule>&) 0x00022875   Thumb Code     0  QtOrganizer.in(t._ZN17QForeachContainerI4QSetIN10QtMobility24QOrganizerRecurrenceRuleEEEC1ERKS3_)
    QAlgorithmsPrivate::qSortHelper<QList<QDateTime>::iterator, QDateTime, qLess<QDateTime>>(T1, T1, const T2&, T3) 0x000228ef   Thumb Code   294  QtOrganizer.in(t._ZN18QAlgorithmsPrivate11qSortHelperIN5QListI9QDateTimeE8iteratorES2_5qLessIS2_EEEvT_S7_RKT0_T1_)
    QAlgorithmsPrivate::qBinaryFindHelper<QList<QDateTime>::const_iterator, QDateTime, qLess<QDateTime>>(T1, T1, const T2&, T3) 0x00022a15   Thumb Code   122  QtOrganizer.in(t._ZN18QAlgorithmsPrivate17qBinaryFindHelperIN5QListI9QDateTimeE14const_iteratorES2_5qLessIS2_EEET_S7_S7_RKT0_T1_)
    QSharedDataPointer<QtMobility::QOrganizerItemData>::detach_helper() 0x00022a8f   Thumb Code   102  QtOrganizer.in(t._ZN18QSharedDataPointerIN10QtMobility18QOrganizerItemDataEE13detach_helperEv)
    QSharedDataPointer<QtMobility::QOrganizerItemData>::~QSharedDataPointer() 0x00022b13   Thumb Code    36  QtOrganizer.in(t._ZN18QSharedDataPointerIN10QtMobility18QOrganizerItemDataEED1Ev)
    QSharedDataPointer<QtMobility::QOrganizerItemData>::~QSharedDataPointer__sub_object() 0x00022b13   Thumb Code     0  QtOrganizer.in(t._ZN18QSharedDataPointerIN10QtMobility18QOrganizerItemDataEED1Ev)
    QSharedDataPointer<QtMobility::QOrganizerItemData>::operator =(QtMobility::QOrganizerItemData*) 0x00022b37   Thumb Code    54  QtOrganizer.in(t._ZN18QSharedDataPointerIN10QtMobility18QOrganizerItemDataEEaSEPS1_)
    QSharedDataPointer<QtMobility::QOrganizerItemData>::operator =(const QSharedDataPointer<QtMobility::QOrganizerItemData>&) 0x00022b6d   Thumb Code    56  QtOrganizer.in(t._ZN18QSharedDataPointerIN10QtMobility18QOrganizerItemDataEEaSERKS2_)
    QSharedDataPointer<QtMobility::QOrganizerItemData>::operator ->() 0x00022ba5   Thumb Code    30  QtOrganizer.in(t._ZN18QSharedDataPointerIN10QtMobility18QOrganizerItemDataEEptEv)
    QSharedDataPointer<QtMobility::QOrganizerItemEngineId>::QSharedDataPointer(QtMobility::QOrganizerItemEngineId*) 0x00022bc3   Thumb Code    20  QtOrganizer.in(t._ZN18QSharedDataPointerIN10QtMobility22QOrganizerItemEngineIdEEC1EPS1_)
    QSharedDataPointer<QtMobility::QOrganizerItemEngineId>::QSharedDataPointer__sub_object(QtMobility::QOrganizerItemEngineId*) 0x00022bc3   Thumb Code     0  QtOrganizer.in(t._ZN18QSharedDataPointerIN10QtMobility22QOrganizerItemEngineIdEEC1EPS1_)
    QSharedDataPointer<QtMobility::QOrganizerItemEngineId>::~QSharedDataPointer() 0x00022bd7   Thumb Code    36  QtOrganizer.in(t._ZN18QSharedDataPointerIN10QtMobility22QOrganizerItemEngineIdEED1Ev)
    QSharedDataPointer<QtMobility::QOrganizerItemEngineId>::~QSharedDataPointer__sub_object() 0x00022bd7   Thumb Code     0  QtOrganizer.in(t._ZN18QSharedDataPointerIN10QtMobility22QOrganizerItemEngineIdEED1Ev)
    QSharedDataPointer<QtMobility::QOrganizerCollectionData>::~QSharedDataPointer() 0x00022bfb   Thumb Code    36  QtOrganizer.in(t._ZN18QSharedDataPointerIN10QtMobility24QOrganizerCollectionDataEED1Ev)
    QSharedDataPointer<QtMobility::QOrganizerCollectionData>::~QSharedDataPointer__sub_object() 0x00022bfb   Thumb Code     0  QtOrganizer.in(t._ZN18QSharedDataPointerIN10QtMobility24QOrganizerCollectionDataEED1Ev)
    QSharedDataPointer<QtMobility::QOrganizerCollectionData>::operator ->() 0x00022c1f   Thumb Code    78  QtOrganizer.in(t._ZN18QSharedDataPointerIN10QtMobility24QOrganizerCollectionDataEEptEv)
    QSharedDataPointer<QtMobility::QOrganizerItemChangeSetData>::detach_helper() 0x00022c77   Thumb Code   112  QtOrganizer.in(t._ZN18QSharedDataPointerIN10QtMobility27QOrganizerItemChangeSetDataEE13detach_helperEv)
    QSharedDataPointer<QtMobility::QOrganizerItemChangeSetData>::~QSharedDataPointer() 0x00022d07   Thumb Code    36  QtOrganizer.in(t._ZN18QSharedDataPointerIN10QtMobility27QOrganizerItemChangeSetDataEED1Ev)
    QSharedDataPointer<QtMobility::QOrganizerItemChangeSetData>::~QSharedDataPointer__sub_object() 0x00022d07   Thumb Code     0  QtOrganizer.in(t._ZN18QSharedDataPointerIN10QtMobility27QOrganizerItemChangeSetDataEED1Ev)
    QSharedDataPointer<QtMobility::QOrganizerItemChangeSetData>::operator ->() 0x00022d2b   Thumb Code    30  QtOrganizer.in(t._ZN18QSharedDataPointerIN10QtMobility27QOrganizerItemChangeSetDataEEptEv)
    QSharedDataPointer<QtMobility::QOrganizerItemDetailPrivate>::detach_helper() 0x00022d49   Thumb Code    66  QtOrganizer.in(t._ZN18QSharedDataPointerIN10QtMobility27QOrganizerItemDetailPrivateEE13detach_helperEv)
    QSharedDataPointer<QtMobility::QOrganizerItemDetailPrivate>::clone() 0x00022d9f   Thumb Code    70  QtOrganizer.in(t._ZN18QSharedDataPointerIN10QtMobility27QOrganizerItemDetailPrivateEE5cloneEv)
    QSharedDataPointer<QtMobility::QOrganizerItemDetailPrivate>::QSharedDataPointer(QtMobility::QOrganizerItemDetailPrivate*) 0x00022df9   Thumb Code    18  QtOrganizer.in(t._ZN18QSharedDataPointerIN10QtMobility27QOrganizerItemDetailPrivateEEC1EPS1_)
    QSharedDataPointer<QtMobility::QOrganizerItemDetailPrivate>::QSharedDataPointer__sub_object(QtMobility::QOrganizerItemDetailPrivate*) 0x00022df9   Thumb Code     0  QtOrganizer.in(t._ZN18QSharedDataPointerIN10QtMobility27QOrganizerItemDetailPrivateEEC1EPS1_)
    QSharedDataPointer<QtMobility::QOrganizerItemDetailPrivate>::~QSharedDataPointer() 0x00022e0b   Thumb Code    36  QtOrganizer.in(t._ZN18QSharedDataPointerIN10QtMobility27QOrganizerItemDetailPrivateEED1Ev)
    QSharedDataPointer<QtMobility::QOrganizerItemDetailPrivate>::~QSharedDataPointer__sub_object() 0x00022e0b   Thumb Code     0  QtOrganizer.in(t._ZN18QSharedDataPointerIN10QtMobility27QOrganizerItemDetailPrivateEED1Ev)
    QSharedDataPointer<QtMobility::QOrganizerItemDetailPrivate>::operator =(QtMobility::QOrganizerItemDetailPrivate*) 0x00022e2f   Thumb Code    54  QtOrganizer.in(t._ZN18QSharedDataPointerIN10QtMobility27QOrganizerItemDetailPrivateEEaSEPS1_)
    QSharedDataPointer<QtMobility::QOrganizerItemDetailPrivate>::operator =(const QSharedDataPointer<QtMobility::QOrganizerItemDetailPrivate>&) 0x00022e65   Thumb Code    56  QtOrganizer.in(t._ZN18QSharedDataPointerIN10QtMobility27QOrganizerItemDetailPrivateEEaSERKS2_)
    QSharedDataPointer<QtMobility::QOrganizerItemDetailPrivate>::operator ->() 0x00022e9d   Thumb Code    30  QtOrganizer.in(t._ZN18QSharedDataPointerIN10QtMobility27QOrganizerItemDetailPrivateEEptEv)
    QSharedDataPointer<QtMobility::QOrganizerItemFilterPrivate>::clone() 0x00022ebb   Thumb Code     8  QtOrganizer.in(t._ZN18QSharedDataPointerIN10QtMobility27QOrganizerItemFilterPrivateEE5cloneEv)
    QSharedDataPointer<QtMobility::QOrganizerItemFilterPrivate>::detach() 0x00022ec3   Thumb Code    58  QtOrganizer.in(t._ZN18QSharedDataPointerIN10QtMobility27QOrganizerItemFilterPrivateEE6detachEv)
    QSharedDataPointer<QtMobility::QOrganizerItemFilterPrivate>::QSharedDataPointer(QtMobility::QOrganizerItemFilterPrivate*) 0x00022efd   Thumb Code    20  QtOrganizer.in(t._ZN18QSharedDataPointerIN10QtMobility27QOrganizerItemFilterPrivateEEC1EPS1_)
    QSharedDataPointer<QtMobility::QOrganizerItemFilterPrivate>::QSharedDataPointer__sub_object(QtMobility::QOrganizerItemFilterPrivate*) 0x00022efd   Thumb Code     0  QtOrganizer.in(t._ZN18QSharedDataPointerIN10QtMobility27QOrganizerItemFilterPrivateEEC1EPS1_)
    QSharedDataPointer<QtMobility::QOrganizerItemFilterPrivate>::~QSharedDataPointer() 0x00022f11   Thumb Code    36  QtOrganizer.in(t._ZN18QSharedDataPointerIN10QtMobility27QOrganizerItemFilterPrivateEED1Ev)
    QSharedDataPointer<QtMobility::QOrganizerItemFilterPrivate>::~QSharedDataPointer__sub_object() 0x00022f11   Thumb Code     0  QtOrganizer.in(t._ZN18QSharedDataPointerIN10QtMobility27QOrganizerItemFilterPrivateEED1Ev)
    QSharedDataPointer<QtMobility::QOrganizerCollectionEngineId>::QSharedDataPointer(QtMobility::QOrganizerCollectionEngineId*) 0x00022f35   Thumb Code    20  QtOrganizer.in(t._ZN18QSharedDataPointerIN10QtMobility28QOrganizerCollectionEngineIdEEC1EPS1_)
    QSharedDataPointer<QtMobility::QOrganizerCollectionEngineId>::QSharedDataPointer__sub_object(QtMobility::QOrganizerCollectionEngineId*) 0x00022f35   Thumb Code     0  QtOrganizer.in(t._ZN18QSharedDataPointerIN10QtMobility28QOrganizerCollectionEngineIdEEC1EPS1_)
    QSharedDataPointer<QtMobility::QOrganizerCollectionEngineId>::~QSharedDataPointer() 0x00022f49   Thumb Code    36  QtOrganizer.in(t._ZN18QSharedDataPointerIN10QtMobility28QOrganizerCollectionEngineIdEED1Ev)
    QSharedDataPointer<QtMobility::QOrganizerCollectionEngineId>::~QSharedDataPointer__sub_object() 0x00022f49   Thumb Code     0  QtOrganizer.in(t._ZN18QSharedDataPointerIN10QtMobility28QOrganizerCollectionEngineIdEED1Ev)
    QSharedDataPointer<QtMobility::QOrganizerItemFetchHintPrivate>::detach_helper() 0x00022f6d   Thumb Code    74  QtOrganizer.in(t._ZN18QSharedDataPointerIN10QtMobility30QOrganizerItemFetchHintPrivateEE13detach_helperEv)
    QSharedDataPointer<QtMobility::QOrganizerItemFetchHintPrivate>::~QSharedDataPointer() 0x00022fc3   Thumb Code    36  QtOrganizer.in(t._ZN18QSharedDataPointerIN10QtMobility30QOrganizerItemFetchHintPrivateEED1Ev)
    QSharedDataPointer<QtMobility::QOrganizerItemFetchHintPrivate>::~QSharedDataPointer__sub_object() 0x00022fc3   Thumb Code     0  QtOrganizer.in(t._ZN18QSharedDataPointerIN10QtMobility30QOrganizerItemFetchHintPrivateEED1Ev)
    QSharedDataPointer<QtMobility::QOrganizerItemFetchHintPrivate>::operator ->() 0x00022fe7   Thumb Code    30  QtOrganizer.in(t._ZN18QSharedDataPointerIN10QtMobility30QOrganizerItemFetchHintPrivateEEptEv)
    QSharedDataPointer<QtMobility::QOrganizerItemSortOrderPrivate>::detach_helper() 0x00023005   Thumb Code   104  QtOrganizer.in(t._ZN18QSharedDataPointerIN10QtMobility30QOrganizerItemSortOrderPrivateEE13detach_helperEv)
    QSharedDataPointer<QtMobility::QOrganizerItemSortOrderPrivate>::~QSharedDataPointer() 0x00023081   Thumb Code    36  QtOrganizer.in(t._ZN18QSharedDataPointerIN10QtMobility30QOrganizerItemSortOrderPrivateEED1Ev)
    QSharedDataPointer<QtMobility::QOrganizerItemSortOrderPrivate>::~QSharedDataPointer__sub_object() 0x00023081   Thumb Code     0  QtOrganizer.in(t._ZN18QSharedDataPointerIN10QtMobility30QOrganizerItemSortOrderPrivateEED1Ev)
    QSharedDataPointer<QtMobility::QOrganizerItemSortOrderPrivate>::operator ->() 0x000230a5   Thumb Code    26  QtOrganizer.in(t._ZN18QSharedDataPointerIN10QtMobility30QOrganizerItemSortOrderPrivateEEptEv)
    QSharedDataPointer<QtMobility::QOrganizerRecurrenceRulePrivate>::~QSharedDataPointer() 0x000230bf   Thumb Code    36  QtOrganizer.in(t._ZN18QSharedDataPointerIN10QtMobility31QOrganizerRecurrenceRulePrivateEED1Ev)
    QSharedDataPointer<QtMobility::QOrganizerRecurrenceRulePrivate>::~QSharedDataPointer__sub_object() 0x000230bf   Thumb Code     0  QtOrganizer.in(t._ZN18QSharedDataPointerIN10QtMobility31QOrganizerRecurrenceRulePrivateEED1Ev)
    QSharedDataPointer<QtMobility::QOrganizerRecurrenceRulePrivate>::operator ->() 0x000230e3   Thumb Code    78  QtOrganizer.in(t._ZN18QSharedDataPointerIN10QtMobility31QOrganizerRecurrenceRulePrivateEEptEv)
    QSharedDataPointer<QtMobility::QOrganizerCollectionChangeSetData>::detach_helper() 0x0002313b   Thumb Code   112  QtOrganizer.in(t._ZN18QSharedDataPointerIN10QtMobility33QOrganizerCollectionChangeSetDataEE13detach_helperEv)
    QSharedDataPointer<QtMobility::QOrganizerCollectionChangeSetData>::~QSharedDataPointer() 0x000231cb   Thumb Code    36  QtOrganizer.in(t._ZN18QSharedDataPointerIN10QtMobility33QOrganizerCollectionChangeSetDataEED1Ev)
    QSharedDataPointer<QtMobility::QOrganizerCollectionChangeSetData>::~QSharedDataPointer__sub_object() 0x000231cb   Thumb Code     0  QtOrganizer.in(t._ZN18QSharedDataPointerIN10QtMobility33QOrganizerCollectionChangeSetDataEED1Ev)
    QSharedDataPointer<QtMobility::QOrganizerCollectionChangeSetData>::operator ->() 0x000231ef   Thumb Code    30  QtOrganizer.in(t._ZN18QSharedDataPointerIN10QtMobility33QOrganizerCollectionChangeSetDataEEptEv)
    QSharedDataPointer<QtMobility::QOrganizerItemDetailDefinitionData>::detach_helper() 0x0002320d   Thumb Code    90  QtOrganizer.in(t._ZN18QSharedDataPointerIN10QtMobility34QOrganizerItemDetailDefinitionDataEE13detach_helperEv)
    QSharedDataPointer<QtMobility::QOrganizerItemDetailDefinitionData>::~QSharedDataPointer() 0x00023279   Thumb Code    36  QtOrganizer.in(t._ZN18QSharedDataPointerIN10QtMobility34QOrganizerItemDetailDefinitionDataEED1Ev)
    QSharedDataPointer<QtMobility::QOrganizerItemDetailDefinitionData>::~QSharedDataPointer__sub_object() 0x00023279   Thumb Code     0  QtOrganizer.in(t._ZN18QSharedDataPointerIN10QtMobility34QOrganizerItemDetailDefinitionDataEED1Ev)
    QSharedDataPointer<QtMobility::QOrganizerItemDetailDefinitionData>::operator ->() 0x0002329d   Thumb Code    30  QtOrganizer.in(t._ZN18QSharedDataPointerIN10QtMobility34QOrganizerItemDetailDefinitionDataEEptEv)
    QSharedDataPointer<QtMobility::QOrganizerItemDetailFieldDefinitionPrivate>::detach_helper() 0x000232bb   Thumb Code    74  QtOrganizer.in(t._ZN18QSharedDataPointerIN10QtMobility42QOrganizerItemDetailFieldDefinitionPrivateEE13detach_helperEv)
    QSharedDataPointer<QtMobility::QOrganizerItemDetailFieldDefinitionPrivate>::~QSharedDataPointer() 0x0002330f   Thumb Code    36  QtOrganizer.in(t._ZN18QSharedDataPointerIN10QtMobility42QOrganizerItemDetailFieldDefinitionPrivateEED1Ev)
    QSharedDataPointer<QtMobility::QOrganizerItemDetailFieldDefinitionPrivate>::~QSharedDataPointer__sub_object() 0x0002330f   Thumb Code     0  QtOrganizer.in(t._ZN18QSharedDataPointerIN10QtMobility42QOrganizerItemDetailFieldDefinitionPrivateEED1Ev)
    QSharedDataPointer<QtMobility::QOrganizerItemDetailFieldDefinitionPrivate>::operator ->() 0x00023333   Thumb Code    30  QtOrganizer.in(t._ZN18QSharedDataPointerIN10QtMobility42QOrganizerItemDetailFieldDefinitionPrivateEEptEv)
    QMutableListIterator<QVariant>::~QMutableListIterator() 0x00023351   Thumb Code    16  QtOrganizer.in(t._ZN20QMutableListIteratorI8QVariantED1Ev)
    QMutableListIterator<QVariant>::~QMutableListIterator__sub_object() 0x00023351   Thumb Code     0  QtOrganizer.in(t._ZN20QMutableListIteratorI8QVariantED1Ev)
    QMap<QString, QVariant>::node_create(QMapData*, QMapData::Node**, const QString&, const QVariant&) 0x00023361   Thumb Code   108  QtOrganizer.in(t._ZN4QMapI7QString8QVariantE11node_createEP8QMapDataPPNS3_4NodeERKS0_RKS1_)
    QMap<QString, QVariant>::detach_helper() 0x000233f3   Thumb Code   116  QtOrganizer.in(t._ZN4QMapI7QString8QVariantE13detach_helperEv)
    QMap<QString, QVariant>::clear()         0x0002346f   Thumb Code    26  QtOrganizer.in(t._ZN4QMapI7QString8QVariantE5clearEv)
    QMap<QString, QVariant>::detach()        0x00023493   Thumb Code    26  QtOrganizer.in(t._ZN4QMapI7QString8QVariantE6detachEv)
    QMap<QString, QVariant>::freeData(QMapData*) 0x000234ad   Thumb Code    44  QtOrganizer.in(t._ZN4QMapI7QString8QVariantE8freeDataEP8QMapData)
    QMap<QString, QVariant>::QMap(const QMap<QString, QVariant>&) 0x000234d9   Thumb Code    32  QtOrganizer.in(t._ZN4QMapI7QString8QVariantEC1ERKS2_)
    QMap<QString, QVariant>::QMap__sub_object(const QMap<QString, QVariant>&) 0x000234d9   Thumb Code     0  QtOrganizer.in(t._ZN4QMapI7QString8QVariantEC1ERKS2_)
    QMap<QString, QVariant>::QMap()          0x000234f9   Thumb Code    18  QtOrganizer.in(t._ZN4QMapI7QString8QVariantEC1Ev)
    QMap<QString, QVariant>::QMap__sub_object() 0x000234f9   Thumb Code     0  QtOrganizer.in(t._ZN4QMapI7QString8QVariantEC1Ev)
    QMap<QString, QVariant>::~QMap()         0x00023511   Thumb Code    32  QtOrganizer.in(t._ZN4QMapI7QString8QVariantED1Ev)
    QMap<QString, QVariant>::~QMap__sub_object() 0x00023511   Thumb Code     0  QtOrganizer.in(t._ZN4QMapI7QString8QVariantED1Ev)
    QMap<QString, QVariant>::operator =(const QMap<QString, QVariant>&) 0x00023531   Thumb Code    58  QtOrganizer.in(t._ZN4QMapI7QString8QVariantEaSERKS2_)
    QMap<QString, QtMobility::QOrganizerItemDetailDefinition>::node_create(QMapData*, QMapData::Node**, const QString&, const QtMobility::QOrganizerItemDetailDefinition&) 0x0002356b   Thumb Code   106  QtOrganizer.in(t._ZN4QMapI7QStringN10QtMobility30QOrganizerItemDetailDefinitionEE11node_createEP8QMapDataPPNS4_4NodeERKS0_RKS2_)
    QMap<QString, QtMobility::QOrganizerItemDetailDefinition>::detach_helper() 0x000235fb   Thumb Code   114  QtOrganizer.in(t._ZN4QMapI7QStringN10QtMobility30QOrganizerItemDetailDefinitionEE13detach_helperEv)
    QMap<QString, QtMobility::QOrganizerItemDetailDefinition>::clear() 0x00023675   Thumb Code    26  QtOrganizer.in(t._ZN4QMapI7QStringN10QtMobility30QOrganizerItemDetailDefinitionEE5clearEv)
    QMap<QString, QtMobility::QOrganizerItemDetailDefinition>::detach() 0x00023699   Thumb Code    26  QtOrganizer.in(t._ZN4QMapI7QStringN10QtMobility30QOrganizerItemDetailDefinitionEE6detachEv)
    QMap<QString, QtMobility::QOrganizerItemDetailDefinition>::insert(const QString&, const QtMobility::QOrganizerItemDetailDefinition&) 0x000236b3   Thumb Code   128  QtOrganizer.in(t._ZN4QMapI7QStringN10QtMobility30QOrganizerItemDetailDefinitionEE6insertERKS0_RKS2_)
    QMap<QString, QtMobility::QOrganizerItemDetailDefinition>::remove(const QString&) 0x00023733   Thumb Code   168  QtOrganizer.in(t._ZN4QMapI7QStringN10QtMobility30QOrganizerItemDetailDefinitionEE6removeERKS0_)
    QMap<QString, QtMobility::QOrganizerItemDetailDefinition>::freeData(QMapData*) 0x000237db   Thumb Code    42  QtOrganizer.in(t._ZN4QMapI7QStringN10QtMobility30QOrganizerItemDetailDefinitionEE8freeDataEP8QMapData)
    QMap<QString, QtMobility::QOrganizerItemDetailDefinition>::QMap(const QMap<QString, QtMobility::QOrganizerItemDetailDefinition>&) 0x00023805   Thumb Code    32  QtOrganizer.in(t._ZN4QMapI7QStringN10QtMobility30QOrganizerItemDetailDefinitionEEC1ERKS3_)
    QMap<QString, QtMobility::QOrganizerItemDetailDefinition>::QMap__sub_object(const QMap<QString, QtMobility::QOrganizerItemDetailDefinition>&) 0x00023805   Thumb Code     0  QtOrganizer.in(t._ZN4QMapI7QStringN10QtMobility30QOrganizerItemDetailDefinitionEEC1ERKS3_)
    QMap<QString, QtMobility::QOrganizerItemDetailDefinition>::QMap() 0x00023825   Thumb Code    18  QtOrganizer.in(t._ZN4QMapI7QStringN10QtMobility30QOrganizerItemDetailDefinitionEEC1Ev)
    QMap<QString, QtMobility::QOrganizerItemDetailDefinition>::QMap__sub_object() 0x00023825   Thumb Code     0  QtOrganizer.in(t._ZN4QMapI7QStringN10QtMobility30QOrganizerItemDetailDefinitionEEC1Ev)
    QMap<QString, QtMobility::QOrganizerItemDetailDefinition>::~QMap() 0x0002383d   Thumb Code    32  QtOrganizer.in(t._ZN4QMapI7QStringN10QtMobility30QOrganizerItemDetailDefinitionEED1Ev)
    QMap<QString, QtMobility::QOrganizerItemDetailDefinition>::~QMap__sub_object() 0x0002383d   Thumb Code     0  QtOrganizer.in(t._ZN4QMapI7QStringN10QtMobility30QOrganizerItemDetailDefinitionEED1Ev)
    QMap<QString, QtMobility::QOrganizerItemDetailDefinition>::operator =(const QMap<QString, QtMobility::QOrganizerItemDetailDefinition>&) 0x0002385d   Thumb Code    58  QtOrganizer.in(t._ZN4QMapI7QStringN10QtMobility30QOrganizerItemDetailDefinitionEEaSERKS3_)
    QMap<QString, QtMobility::QOrganizerItemDetailFieldDefinition>::node_create(QMapData*, QMapData::Node**, const QString&, const QtMobility::QOrganizerItemDetailFieldDefinition&) 0x00023897   Thumb Code   106  QtOrganizer.in(t._ZN4QMapI7QStringN10QtMobility35QOrganizerItemDetailFieldDefinitionEE11node_createEP8QMapDataPPNS4_4NodeERKS0_RKS2_)
    QMap<QString, QtMobility::QOrganizerItemDetailFieldDefinition>::detach_helper() 0x00023927   Thumb Code   114  QtOrganizer.in(t._ZN4QMapI7QStringN10QtMobility35QOrganizerItemDetailFieldDefinitionEE13detach_helperEv)
    QMap<QString, QtMobility::QOrganizerItemDetailFieldDefinition>::clear() 0x000239a1   Thumb Code    26  QtOrganizer.in(t._ZN4QMapI7QStringN10QtMobility35QOrganizerItemDetailFieldDefinitionEE5clearEv)
    QMap<QString, QtMobility::QOrganizerItemDetailFieldDefinition>::detach() 0x000239c5   Thumb Code    26  QtOrganizer.in(t._ZN4QMapI7QStringN10QtMobility35QOrganizerItemDetailFieldDefinitionEE6detachEv)
    QMap<QString, QtMobility::QOrganizerItemDetailFieldDefinition>::insert(const QString&, const QtMobility::QOrganizerItemDetailFieldDefinition&) 0x000239df   Thumb Code   128  QtOrganizer.in(t._ZN4QMapI7QStringN10QtMobility35QOrganizerItemDetailFieldDefinitionEE6insertERKS0_RKS2_)
    QMap<QString, QtMobility::QOrganizerItemDetailFieldDefinition>::remove(const QString&) 0x00023a5f   Thumb Code   168  QtOrganizer.in(t._ZN4QMapI7QStringN10QtMobility35QOrganizerItemDetailFieldDefinitionEE6removeERKS0_)
    QMap<QString, QtMobility::QOrganizerItemDetailFieldDefinition>::freeData(QMapData*) 0x00023b07   Thumb Code    42  QtOrganizer.in(t._ZN4QMapI7QStringN10QtMobility35QOrganizerItemDetailFieldDefinitionEE8freeDataEP8QMapData)
    QMap<QString, QtMobility::QOrganizerItemDetailFieldDefinition>::QMap(const QMap<QString, QtMobility::QOrganizerItemDetailFieldDefinition>&) 0x00023b31   Thumb Code    32  QtOrganizer.in(t._ZN4QMapI7QStringN10QtMobility35QOrganizerItemDetailFieldDefinitionEEC1ERKS3_)
    QMap<QString, QtMobility::QOrganizerItemDetailFieldDefinition>::QMap__sub_object(const QMap<QString, QtMobility::QOrganizerItemDetailFieldDefinition>&) 0x00023b31   Thumb Code     0  QtOrganizer.in(t._ZN4QMapI7QStringN10QtMobility35QOrganizerItemDetailFieldDefinitionEEC1ERKS3_)
    QMap<QString, QtMobility::QOrganizerItemDetailFieldDefinition>::QMap() 0x00023b51   Thumb Code    18  QtOrganizer.in(t._ZN4QMapI7QStringN10QtMobility35QOrganizerItemDetailFieldDefinitionEEC1Ev)
    QMap<QString, QtMobility::QOrganizerItemDetailFieldDefinition>::QMap__sub_object() 0x00023b51   Thumb Code     0  QtOrganizer.in(t._ZN4QMapI7QStringN10QtMobility35QOrganizerItemDetailFieldDefinitionEEC1Ev)
    QMap<QString, QtMobility::QOrganizerItemDetailFieldDefinition>::~QMap() 0x00023b69   Thumb Code    32  QtOrganizer.in(t._ZN4QMapI7QStringN10QtMobility35QOrganizerItemDetailFieldDefinitionEED1Ev)
    QMap<QString, QtMobility::QOrganizerItemDetailFieldDefinition>::~QMap__sub_object() 0x00023b69   Thumb Code     0  QtOrganizer.in(t._ZN4QMapI7QStringN10QtMobility35QOrganizerItemDetailFieldDefinitionEED1Ev)
    QMap<QString, QtMobility::QOrganizerItemDetailFieldDefinition>::operator =(const QMap<QString, QtMobility::QOrganizerItemDetailFieldDefinition>&) 0x00023b89   Thumb Code    58  QtOrganizer.in(t._ZN4QMapI7QStringN10QtMobility35QOrganizerItemDetailFieldDefinitionEEaSERKS3_)
    QMap<QString, QtMobility::QOrganizerItemMemoryEngineData*>::node_create(QMapData*, QMapData::Node**, const QString&, QtMobility::QOrganizerItemMemoryEngineData*const &) 0x00023bc3   Thumb Code    86  QtOrganizer.in(t._ZN4QMapI7QStringPN10QtMobility30QOrganizerItemMemoryEngineDataEE11node_createEP8QMapDataPPNS5_4NodeERKS0_RKS3_)
    QMap<QString, QtMobility::QOrganizerItemMemoryEngineData*>::detach_helper() 0x00023c2d   Thumb Code   114  QtOrganizer.in(t._ZN4QMapI7QStringPN10QtMobility30QOrganizerItemMemoryEngineDataEE13detach_helperEv)
    QMap<QString, QtMobility::QOrganizerItemMemoryEngineData*>::detach() 0x00023ca7   Thumb Code    26  QtOrganizer.in(t._ZN4QMapI7QStringPN10QtMobility30QOrganizerItemMemoryEngineDataEE6detachEv)
    QMap<QString, QtMobility::QOrganizerItemMemoryEngineData*>::remove(const QString&) 0x00023cc1   Thumb Code   158  QtOrganizer.in(t._ZN4QMapI7QStringPN10QtMobility30QOrganizerItemMemoryEngineDataEE6removeERKS0_)
    QMap<QString, QtMobility::QOrganizerItemMemoryEngineData*>::freeData(QMapData*) 0x00023d5f   Thumb Code    32  QtOrganizer.in(t._ZN4QMapI7QStringPN10QtMobility30QOrganizerItemMemoryEngineDataEE8freeDataEP8QMapData)
    QMap<QString, QtMobility::QOrganizerItemMemoryEngineData*>::~QMap() 0x00023d7f   Thumb Code    32  QtOrganizer.in(t._ZN4QMapI7QStringPN10QtMobility30QOrganizerItemMemoryEngineDataEED1Ev)
    QMap<QString, QtMobility::QOrganizerItemMemoryEngineData*>::~QMap__sub_object() 0x00023d7f   Thumb Code     0  QtOrganizer.in(t._ZN4QMapI7QStringPN10QtMobility30QOrganizerItemMemoryEngineDataEED1Ev)
    QMap<QString, QString>::node_create(QMapData*, QMapData::Node**, const QString&, const QString&) 0x00023d9f   Thumb Code   106  QtOrganizer.in(t._ZN4QMapI7QStringS0_E11node_createEP8QMapDataPPNS2_4NodeERKS0_S8_)
    QMap<QString, QString>::detach_helper()  0x00023e2f   Thumb Code   114  QtOrganizer.in(t._ZN4QMapI7QStringS0_E13detach_helperEv)
    QMap<QString, QString>::detach()         0x00023ea9   Thumb Code    26  QtOrganizer.in(t._ZN4QMapI7QStringS0_E6detachEv)
    QMap<QString, QString>::insert(const QString&, const QString&) 0x00023ec3   Thumb Code   140  QtOrganizer.in(t._ZN4QMapI7QStringS0_E6insertERKS0_S3_)
    QMap<QString, QString>::remove(const QString&) 0x00023f4f   Thumb Code   168  QtOrganizer.in(t._ZN4QMapI7QStringS0_E6removeERKS0_)
    QMap<QString, QString>::freeData(QMapData*) 0x00023ff7   Thumb Code    42  QtOrganizer.in(t._ZN4QMapI7QStringS0_E8freeDataEP8QMapData)
    QMap<QString, QString>::QMap()           0x00024021   Thumb Code    18  QtOrganizer.in(t._ZN4QMapI7QStringS0_EC1Ev)
    QMap<QString, QString>::QMap__sub_object() 0x00024021   Thumb Code     0  QtOrganizer.in(t._ZN4QMapI7QStringS0_EC1Ev)
    QMap<QString, QString>::~QMap()          0x00024039   Thumb Code    32  QtOrganizer.in(t._ZN4QMapI7QStringS0_ED1Ev)
    QMap<QString, QString>::~QMap__sub_object() 0x00024039   Thumb Code     0  QtOrganizer.in(t._ZN4QMapI7QStringS0_ED1Ev)
    QMap<QString, QMap<QString, QtMobility::QOrganizerItemDetailDefinition>>::node_create(QMapData*, QMapData::Node**, const QString&, const QMap<QString, QtMobility::QOrganizerItemDetailDefinition>&) 0x00024059   Thumb Code   106  QtOrganizer.in(t._ZN4QMapI7QStringS_IS0_N10QtMobility30QOrganizerItemDetailDefinitionEEE11node_createEP8QMapDataPPNS5_4NodeERKS0_RKS3_)
    QMap<QString, QMap<QString, QtMobility::QOrganizerItemDetailDefinition>>::detach_helper() 0x000240e9   Thumb Code   114  QtOrganizer.in(t._ZN4QMapI7QStringS_IS0_N10QtMobility30QOrganizerItemDetailDefinitionEEE13detach_helperEv)
    QMap<QString, QMap<QString, QtMobility::QOrganizerItemDetailDefinition>>::detach() 0x00024163   Thumb Code    26  QtOrganizer.in(t._ZN4QMapI7QStringS_IS0_N10QtMobility30QOrganizerItemDetailDefinitionEEE6detachEv)
    QMap<QString, QMap<QString, QtMobility::QOrganizerItemDetailDefinition>>::insert(const QString&, const QMap<QString, QtMobility::QOrganizerItemDetailDefinition>&) 0x0002417d   Thumb Code   128  QtOrganizer.in(t._ZN4QMapI7QStringS_IS0_N10QtMobility30QOrganizerItemDetailDefinitionEEE6insertERKS0_RKS3_)
    QMap<QString, QMap<QString, QtMobility::QOrganizerItemDetailDefinition>>::freeData(QMapData*) 0x000241fd   Thumb Code    42  QtOrganizer.in(t._ZN4QMapI7QStringS_IS0_N10QtMobility30QOrganizerItemDetailDefinitionEEE8freeDataEP8QMapData)
    QMap<QString, QMap<QString, QtMobility::QOrganizerItemDetailDefinition>>::QMap(const QMap<QString, QMap<QString, QtMobility::QOrganizerItemDetailDefinition>>&) 0x00024227   Thumb Code    32  QtOrganizer.in(t._ZN4QMapI7QStringS_IS0_N10QtMobility30QOrganizerItemDetailDefinitionEEEC1ERKS4_)
    QMap<QString, QMap<QString, QtMobility::QOrganizerItemDetailDefinition>>::QMap__sub_object(const QMap<QString, QMap<QString, QtMobility::QOrganizerItemDetailDefinition>>&) 0x00024227   Thumb Code     0  QtOrganizer.in(t._ZN4QMapI7QStringS_IS0_N10QtMobility30QOrganizerItemDetailDefinitionEEEC1ERKS4_)
    QMap<QString, QMap<QString, QtMobility::QOrganizerItemDetailDefinition>>::QMap() 0x00024249   Thumb Code    18  QtOrganizer.in(t._ZN4QMapI7QStringS_IS0_N10QtMobility30QOrganizerItemDetailDefinitionEEEC1Ev)
    QMap<QString, QMap<QString, QtMobility::QOrganizerItemDetailDefinition>>::QMap__sub_object() 0x00024249   Thumb Code     0  QtOrganizer.in(t._ZN4QMapI7QStringS_IS0_N10QtMobility30QOrganizerItemDetailDefinitionEEEC1Ev)
    QMap<QString, QMap<QString, QtMobility::QOrganizerItemDetailDefinition>>::~QMap() 0x00024261   Thumb Code    32  QtOrganizer.in(t._ZN4QMapI7QStringS_IS0_N10QtMobility30QOrganizerItemDetailDefinitionEEED1Ev)
    QMap<QString, QMap<QString, QtMobility::QOrganizerItemDetailDefinition>>::~QMap__sub_object() 0x00024261   Thumb Code     0  QtOrganizer.in(t._ZN4QMapI7QStringS_IS0_N10QtMobility30QOrganizerItemDetailDefinitionEEED1Ev)
    QMap<QtMobility::QOrganizerCollectionId, QtMobility::QOrganizerItemId>::node_create(QMapData*, QMapData::Node**, const QtMobility::QOrganizerCollectionId&, const QtMobility::QOrganizerItemId&) 0x00024281   Thumb Code   106  QtOrganizer.in(t._ZN4QMapIN10QtMobility22QOrganizerCollectionIdENS0_16QOrganizerItemIdEE11node_createEP8QMapDataPPNS4_4NodeERKS1_RKS2_)
    QMap<QtMobility::QOrganizerCollectionId, QtMobility::QOrganizerItemId>::detach_helper() 0x00024311   Thumb Code   114  QtOrganizer.in(t._ZN4QMapIN10QtMobility22QOrganizerCollectionIdENS0_16QOrganizerItemIdEE13detach_helperEv)
    QMap<QtMobility::QOrganizerCollectionId, QtMobility::QOrganizerItemId>::erase(QMap<QtMobility::QOrganizerCollectionId, QtMobility::QOrganizerItemId>::iterator) 0x0002438b   Thumb Code   172  QtOrganizer.in(t._ZN4QMapIN10QtMobility22QOrganizerCollectionIdENS0_16QOrganizerItemIdEE5eraseENS3_8iteratorE)
    QMap<QtMobility::QOrganizerCollectionId, QtMobility::QOrganizerItemId>::detach() 0x00024437   Thumb Code    26  QtOrganizer.in(t._ZN4QMapIN10QtMobility22QOrganizerCollectionIdENS0_16QOrganizerItemIdEE6detachEv)
    QMap<QtMobility::QOrganizerCollectionId, QtMobility::QOrganizerItemId>::remove(const QtMobility::QOrganizerCollectionId&) 0x00024451   Thumb Code   168  QtOrganizer.in(t._ZN4QMapIN10QtMobility22QOrganizerCollectionIdENS0_16QOrganizerItemIdEE6removeERKS1_)
    QMap<QtMobility::QOrganizerCollectionId, QtMobility::QOrganizerItemId>::freeData(QMapData*) 0x000244f9   Thumb Code    42  QtOrganizer.in(t._ZN4QMapIN10QtMobility22QOrganizerCollectionIdENS0_16QOrganizerItemIdEE8freeDataEP8QMapData)
    QMap<QtMobility::QOrganizerCollectionId, QtMobility::QOrganizerItemId>::~QMap() 0x00024523   Thumb Code    32  QtOrganizer.in(t._ZN4QMapIN10QtMobility22QOrganizerCollectionIdENS0_16QOrganizerItemIdEED1Ev)
    QMap<QtMobility::QOrganizerCollectionId, QtMobility::QOrganizerItemId>::~QMap__sub_object() 0x00024523   Thumb Code     0  QtOrganizer.in(t._ZN4QMapIN10QtMobility22QOrganizerCollectionIdENS0_16QOrganizerItemIdEED1Ev)
    QMap<int, QtMobility::QOrganizerManager::Error>::node_create(QMapData*, QMapData::Node**, const int&, const QtMobility::QOrganizerManager::Error&) 0x00024543   Thumb Code    60  QtOrganizer.in(t._ZN4QMapIiN10QtMobility17QOrganizerManager5ErrorEE11node_createEP8QMapDataPPNS4_4NodeERKiRKS2_)
    QMap<int, QtMobility::QOrganizerManager::Error>::detach_helper() 0x0002457f   Thumb Code   114  QtOrganizer.in(t._ZN4QMapIiN10QtMobility17QOrganizerManager5ErrorEE13detach_helperEv)
    QMap<int, QtMobility::QOrganizerManager::Error>::begin() 0x000245f9   Thumb Code    30  QtOrganizer.in(t._ZN4QMapIiN10QtMobility17QOrganizerManager5ErrorEE5beginEv)
    QMap<int, QtMobility::QOrganizerManager::Error>::clear() 0x00024617   Thumb Code    68  QtOrganizer.in(t._ZN4QMapIiN10QtMobility17QOrganizerManager5ErrorEE5clearEv)
    QMap<int, QtMobility::QOrganizerManager::Error>::insert(const int&, const QtMobility::QOrganizerManager::Error&) 0x00024665   Thumb Code   142  QtOrganizer.in(t._ZN4QMapIiN10QtMobility17QOrganizerManager5ErrorEE6insertERKiRKS2_)
    QMap<int, QtMobility::QOrganizerManager::Error>::freeData(QMapData*) 0x000246f3   Thumb Code    22  QtOrganizer.in(t._ZN4QMapIiN10QtMobility17QOrganizerManager5ErrorEE8freeDataEP8QMapData)
    QMap<int, QtMobility::QOrganizerManager::Error>::QMap() 0x00024709   Thumb Code    18  QtOrganizer.in(t._ZN4QMapIiN10QtMobility17QOrganizerManager5ErrorEEC1Ev)
    QMap<int, QtMobility::QOrganizerManager::Error>::QMap__sub_object() 0x00024709   Thumb Code     0  QtOrganizer.in(t._ZN4QMapIiN10QtMobility17QOrganizerManager5ErrorEEC1Ev)
    QMap<int, QtMobility::QOrganizerManager::Error>::~QMap() 0x00024721   Thumb Code    32  QtOrganizer.in(t._ZN4QMapIiN10QtMobility17QOrganizerManager5ErrorEED1Ev)
    QMap<int, QtMobility::QOrganizerManager::Error>::~QMap__sub_object() 0x00024721   Thumb Code     0  QtOrganizer.in(t._ZN4QMapIiN10QtMobility17QOrganizerManager5ErrorEED1Ev)
    QMap<int, QtMobility::QOrganizerManager::Error>::operator =(const QMap<int, QtMobility::QOrganizerManager::Error>&) 0x00024741   Thumb Code    58  QtOrganizer.in(t._ZN4QMapIiN10QtMobility17QOrganizerManager5ErrorEEaSERKS3_)
    QSet<QDate>::const_iterator::operator ++() 0x0002477b   Thumb Code    16  QtOrganizer.in(t._ZN4QSetI5QDateE14const_iteratorppEv)
    QSet<QDate>::QSet(const QSet<QDate>&)    0x0002478d   Thumb Code    78  QtOrganizer.in(t._ZN4QSetI5QDateEC1ERKS1_)
    QSet<QDate>::QSet__sub_object(const QSet<QDate>&) 0x0002478d   Thumb Code     0  QtOrganizer.in(t._ZN4QSetI5QDateEC1ERKS1_)
    QSet<QDate>::QSet()                      0x000247e5   Thumb Code    18  QtOrganizer.in(t._ZN4QSetI5QDateEC1Ev)
    QSet<QDate>::QSet__sub_object()          0x000247e5   Thumb Code     0  QtOrganizer.in(t._ZN4QSetI5QDateEC1Ev)
    QSet<QDate>::operator <<(const QDate&)   0x000247fd   Thumb Code    20  QtOrganizer.in(t._ZN4QSetI5QDateElsERKS0_)
    QSet<QString>::insert(const QString&)    0x00024811   Thumb Code    22  QtOrganizer.in(t._ZN4QSetI7QStringE6insertERKS0_)
    QSet<QtMobility::QOrganizerItemId>::clear() 0x00024827   Thumb Code    68  QtOrganizer.in(t._ZN4QSetIN10QtMobility16QOrganizerItemIdEE5clearEv)
    QSet<QtMobility::QOrganizerItemId>::insert(const QtMobility::QOrganizerItemId&) 0x00024875   Thumb Code    22  QtOrganizer.in(t._ZN4QSetIN10QtMobility16QOrganizerItemIdEE6insertERKS1_)
    QSet<QtMobility::QOrganizerItemId>::QSet(const QSet<QtMobility::QOrganizerItemId>&) 0x0002488b   Thumb Code    32  QtOrganizer.in(t._ZN4QSetIN10QtMobility16QOrganizerItemIdEEC1ERKS2_)
    QSet<QtMobility::QOrganizerItemId>::QSet__sub_object(const QSet<QtMobility::QOrganizerItemId>&) 0x0002488b   Thumb Code     0  QtOrganizer.in(t._ZN4QSetIN10QtMobility16QOrganizerItemIdEEC1ERKS2_)
    QSet<QtMobility::QOrganizerItemId>::QSet() 0x000248ab   Thumb Code     8  QtOrganizer.in(t._ZN4QSetIN10QtMobility16QOrganizerItemIdEEC1Ev)
    QSet<QtMobility::QOrganizerItemId>::QSet__sub_object() 0x000248ab   Thumb Code     0  QtOrganizer.in(t._ZN4QSetIN10QtMobility16QOrganizerItemIdEEC1Ev)
    QSet<QtMobility::QOrganizerCollectionId>::clear() 0x000248b3   Thumb Code    26  QtOrganizer.in(t._ZN4QSetIN10QtMobility22QOrganizerCollectionIdEE5clearEv)
    QSet<QtMobility::QOrganizerCollectionId>::insert(const QtMobility::QOrganizerCollectionId&) 0x000248d7   Thumb Code    22  QtOrganizer.in(t._ZN4QSetIN10QtMobility22QOrganizerCollectionIdEE6insertERKS1_)
    QSet<QtMobility::QOrganizerCollectionId>::QSet(const QSet<QtMobility::QOrganizerCollectionId>&) 0x000248ed   Thumb Code    32  QtOrganizer.in(t._ZN4QSetIN10QtMobility22QOrganizerCollectionIdEEC1ERKS2_)
    QSet<QtMobility::QOrganizerCollectionId>::QSet__sub_object(const QSet<QtMobility::QOrganizerCollectionId>&) 0x000248ed   Thumb Code     0  QtOrganizer.in(t._ZN4QSetIN10QtMobility22QOrganizerCollectionIdEEC1ERKS2_)
    QSet<QtMobility::QOrganizerCollectionId>::QSet() 0x0002490d   Thumb Code     8  QtOrganizer.in(t._ZN4QSetIN10QtMobility22QOrganizerCollectionIdEEC1Ev)
    QSet<QtMobility::QOrganizerCollectionId>::QSet__sub_object() 0x0002490d   Thumb Code     0  QtOrganizer.in(t._ZN4QSetIN10QtMobility22QOrganizerCollectionIdEEC1Ev)
    QSet<QtMobility::QOrganizerRecurrenceRule::Month>::QSet(const QSet<QtMobility::QOrganizerRecurrenceRule::Month>&) 0x00024915   Thumb Code    44  QtOrganizer.in(t._ZN4QSetIN10QtMobility24QOrganizerRecurrenceRule5MonthEEC1ERKS3_)
    QSet<QtMobility::QOrganizerRecurrenceRule::Month>::QSet__sub_object(const QSet<QtMobility::QOrganizerRecurrenceRule::Month>&) 0x00024915   Thumb Code     0  QtOrganizer.in(t._ZN4QSetIN10QtMobility24QOrganizerRecurrenceRule5MonthEEC1ERKS3_)
    QSet<QtMobility::QOrganizerRecurrenceRule>::const_iterator::operator ++() 0x00024941   Thumb Code    16  QtOrganizer.in(t._ZN4QSetIN10QtMobility24QOrganizerRecurrenceRuleEE14const_iteratorppEv)
    QSet<QtMobility::QOrganizerRecurrenceRule>::begin() 0x00024951   Thumb Code    40  QtOrganizer.in(t._ZN4QSetIN10QtMobility24QOrganizerRecurrenceRuleEE5beginEv)
    QSet<QtMobility::QOrganizerRecurrenceRule>::QSet(const QSet<QtMobility::QOrganizerRecurrenceRule>&) 0x00024979   Thumb Code    78  QtOrganizer.in(t._ZN4QSetIN10QtMobility24QOrganizerRecurrenceRuleEEC1ERKS2_)
    QSet<QtMobility::QOrganizerRecurrenceRule>::QSet__sub_object(const QSet<QtMobility::QOrganizerRecurrenceRule>&) 0x00024979   Thumb Code     0  QtOrganizer.in(t._ZN4QSetIN10QtMobility24QOrganizerRecurrenceRuleEEC1ERKS2_)
    QSet<QtMobility::QOrganizerRecurrenceRule>::QSet() 0x000249d1   Thumb Code    18  QtOrganizer.in(t._ZN4QSetIN10QtMobility24QOrganizerRecurrenceRuleEEC1Ev)
    QSet<QtMobility::QOrganizerRecurrenceRule>::QSet__sub_object() 0x000249d1   Thumb Code     0  QtOrganizer.in(t._ZN4QSetIN10QtMobility24QOrganizerRecurrenceRuleEEC1Ev)
    QSet<QtMobility::QOrganizerRecurrenceRule>::operator <<(const QtMobility::QOrganizerRecurrenceRule&) 0x000249e9   Thumb Code    20  QtOrganizer.in(t._ZN4QSetIN10QtMobility24QOrganizerRecurrenceRuleEElsERKS1_)
    QSet<Qt::DayOfWeek>::QSet(const QSet<Qt::DayOfWeek>&) 0x000249fd   Thumb Code    44  QtOrganizer.in(t._ZN4QSetIN2Qt9DayOfWeekEEC1ERKS2_)
    QSet<Qt::DayOfWeek>::QSet__sub_object(const QSet<Qt::DayOfWeek>&) 0x000249fd   Thumb Code     0  QtOrganizer.in(t._ZN4QSetIN2Qt9DayOfWeekEEC1ERKS2_)
    QSet<Qt::DayOfWeek>::QSet()              0x00024a29   Thumb Code    18  QtOrganizer.in(t._ZN4QSetIN2Qt9DayOfWeekEEC1Ev)
    QSet<Qt::DayOfWeek>::QSet__sub_object()  0x00024a29   Thumb Code     0  QtOrganizer.in(t._ZN4QSetIN2Qt9DayOfWeekEEC1Ev)
    QSet<Qt::DayOfWeek>::operator <<(const Qt::DayOfWeek&) 0x00024a41   Thumb Code    20  QtOrganizer.in(t._ZN4QSetIN2Qt9DayOfWeekEElsERKS1_)
    QSet<int>::const_iterator::operator ++() 0x00024a55   Thumb Code    16  QtOrganizer.in(t._ZN4QSetIiE14const_iteratorppEv)
    QSet<int>::QSet(const QSet<int>&)        0x00024a65   Thumb Code    44  QtOrganizer.in(t._ZN4QSetIiEC1ERKS0_)
    QSet<int>::QSet__sub_object(const QSet<int>&) 0x00024a65   Thumb Code     0  QtOrganizer.in(t._ZN4QSetIiEC1ERKS0_)
    QSet<int>::QSet()                        0x00024a91   Thumb Code    18  QtOrganizer.in(t._ZN4QSetIiEC1Ev)
    QSet<int>::QSet__sub_object()            0x00024a91   Thumb Code     0  QtOrganizer.in(t._ZN4QSetIiEC1Ev)
    QSet<int>::operator =(const QSet<int>&)  0x00024aa9   Thumb Code    58  QtOrganizer.in(t._ZN4QSetIiEaSERKS0_)
    QSet<int>::operator <<(const int&)       0x00024ae3   Thumb Code    98  QtOrganizer.in(t._ZN4QSetIiElsERKi)
    QHash<QDate, QHashDummyValue>::deleteNode2(QHashData::Node*) 0x00024b45   Thumb Code     2  QtOrganizer.in(t._ZN5QHashI5QDate15QHashDummyValueE11deleteNode2EPN9QHashData4NodeE)
    QHash<QDate, QHashDummyValue>::duplicateNode(QHashData::Node*, void*) 0x00024b47   Thumb Code    20  QtOrganizer.in(t._ZN5QHashI5QDate15QHashDummyValueE13duplicateNodeEPN9QHashData4NodeEPv)
    QHash<QDate, QHashDummyValue>::detach()  0x00024b5d   Thumb Code    60  QtOrganizer.in(t._ZN5QHashI5QDate15QHashDummyValueE6detachEv)
    QHash<QDate, QHashDummyValue>::insert(const QDate&, const QHashDummyValue&) 0x00024ba1   Thumb Code   152  QtOrganizer.in(t._ZN5QHashI5QDate15QHashDummyValueE6insertERKS0_RKS1_)
    QHash<QDate, QHashDummyValue>::freeData(QHashData*) 0x00024c41   Thumb Code    12  QtOrganizer.in(t._ZN5QHashI5QDate15QHashDummyValueE8freeDataEP9QHashData)
    QHash<QDate, QHashDummyValue>::~QHash()  0x00024c51   Thumb Code    28  QtOrganizer.in(t._ZN5QHashI5QDate15QHashDummyValueED1Ev)
    QHash<QDate, QHashDummyValue>::~QHash__sub_object() 0x00024c51   Thumb Code     0  QtOrganizer.in(t._ZN5QHashI5QDate15QHashDummyValueED1Ev)
    QHash<QString, QHashDummyValue>::deleteNode2(QHashData::Node*) 0x00024c6d   Thumb Code    10  QtOrganizer.in(t._ZN5QHashI7QString15QHashDummyValueE11deleteNode2EPN9QHashData4NodeE)
    QHash<QString, QHashDummyValue>::duplicateNode(QHashData::Node*, void*) 0x00024c77   Thumb Code    28  QtOrganizer.in(t._ZN5QHashI7QString15QHashDummyValueE13duplicateNodeEPN9QHashData4NodeEPv)
    QHash<QString, QHashDummyValue>::insert(const QString&, const QHashDummyValue&) 0x00024ca1   Thumb Code   160  QtOrganizer.in(t._ZN5QHashI7QString15QHashDummyValueE6insertERKS0_RKS1_)
    QHash<QString, QHashDummyValue>::freeData(QHashData*) 0x00024d55   Thumb Code    12  QtOrganizer.in(t._ZN5QHashI7QString15QHashDummyValueE8freeDataEP9QHashData)
    QHash<QString, QHashDummyValue>::~QHash() 0x00024d65   Thumb Code    28  QtOrganizer.in(t._ZN5QHashI7QString15QHashDummyValueED1Ev)
    QHash<QString, QHashDummyValue>::~QHash__sub_object() 0x00024d65   Thumb Code     0  QtOrganizer.in(t._ZN5QHashI7QString15QHashDummyValueED1Ev)
    QHash<QString, QtMobility::QOrganizerManagerEngineFactory*>::deleteNode2(QHashData::Node*) 0x00024d81   Thumb Code    10  QtOrganizer.in(t._ZN5QHashI7QStringPN10QtMobility30QOrganizerManagerEngineFactoryEE11deleteNode2EPN9QHashData4NodeE)
    QHash<QString, QtMobility::QOrganizerManagerEngineFactory*>::insertMulti(const QString&, QtMobility::QOrganizerManagerEngineFactory*const &) 0x00024d8b   Thumb Code   102  QtOrganizer.in(t._ZN5QHashI7QStringPN10QtMobility30QOrganizerManagerEngineFactoryEE11insertMultiERKS0_RKS3_)
    QHash<QString, QtMobility::QOrganizerManagerEngineFactory*>::detach_helper() 0x00024dfd   Thumb Code    46  QtOrganizer.in(t._ZN5QHashI7QStringPN10QtMobility30QOrganizerManagerEngineFactoryEE13detach_helperEv)
    QHash<QString, QtMobility::QOrganizerManagerEngineFactory*>::duplicateNode(QHashData::Node*, void*) 0x00024e35   Thumb Code    30  QtOrganizer.in(t._ZN5QHashI7QStringPN10QtMobility30QOrganizerManagerEngineFactoryEE13duplicateNodeEPN9QHashData4NodeEPv)
    QHash<QString, QtMobility::QOrganizerManagerEngineFactory*>::freeData(QHashData*) 0x00024e61   Thumb Code    12  QtOrganizer.in(t._ZN5QHashI7QStringPN10QtMobility30QOrganizerManagerEngineFactoryEE8freeDataEP9QHashData)
    QHash<QString, QtMobility::QOrganizerManagerEngineFactory*>::QHash() 0x00024e71   Thumb Code    18  QtOrganizer.in(t._ZN5QHashI7QStringPN10QtMobility30QOrganizerManagerEngineFactoryEEC1Ev)
    QHash<QString, QtMobility::QOrganizerManagerEngineFactory*>::QHash__sub_object() 0x00024e71   Thumb Code     0  QtOrganizer.in(t._ZN5QHashI7QStringPN10QtMobility30QOrganizerManagerEngineFactoryEEC1Ev)
    QHash<QString, QtMobility::QOrganizerManagerEngineFactory*>::~QHash() 0x00024e89   Thumb Code    28  QtOrganizer.in(t._ZN5QHashI7QStringPN10QtMobility30QOrganizerManagerEngineFactoryEED1Ev)
    QHash<QString, QtMobility::QOrganizerManagerEngineFactory*>::~QHash__sub_object() 0x00024e89   Thumb Code     0  QtOrganizer.in(t._ZN5QHashI7QStringPN10QtMobility30QOrganizerManagerEngineFactoryEED1Ev)
    QHash<QString, char*>::deleteNode2(QHashData::Node*) 0x00024ea5   Thumb Code    10  QtOrganizer.in(t._ZN5QHashI7QStringPcE11deleteNode2EPN9QHashData4NodeE)
    QHash<QString, char*>::detach_helper()   0x00024eb1   Thumb Code    46  QtOrganizer.in(t._ZN5QHashI7QStringPcE13detach_helperEv)
    QHash<QString, char*>::duplicateNode(QHashData::Node*, void*) 0x00024ee9   Thumb Code    30  QtOrganizer.in(t._ZN5QHashI7QStringPcE13duplicateNodeEPN9QHashData4NodeEPv)
    QHash<QString, char*>::insert(const QString&, char*const &) 0x00024f13   Thumb Code   134  QtOrganizer.in(t._ZN5QHashI7QStringPcE6insertERKS0_RKS1_)
    QHash<QString, char*>::freeData(QHashData*) 0x00024fa5   Thumb Code    12  QtOrganizer.in(t._ZN5QHashI7QStringPcE8freeDataEP9QHashData)
    QHash<QString, char*>::QHash()           0x00024fb5   Thumb Code    18  QtOrganizer.in(t._ZN5QHashI7QStringPcEC1Ev)
    QHash<QString, char*>::QHash__sub_object() 0x00024fb5   Thumb Code     0  QtOrganizer.in(t._ZN5QHashI7QStringPcEC1Ev)
    QHash<QString, char*>::~QHash()          0x00024fcd   Thumb Code    28  QtOrganizer.in(t._ZN5QHashI7QStringPcED1Ev)
    QHash<QString, char*>::~QHash__sub_object() 0x00024fcd   Thumb Code     0  QtOrganizer.in(t._ZN5QHashI7QStringPcED1Ev)
    QHash<QtMobility::QOrganizerItemId, QHashDummyValue>::deleteNode2(QHashData::Node*) 0x00024fe9   Thumb Code    10  QtOrganizer.in(t._ZN5QHashIN10QtMobility16QOrganizerItemIdE15QHashDummyValueE11deleteNode2EPN9QHashData4NodeE)
    QHash<QtMobility::QOrganizerItemId, QHashDummyValue>::detach_helper() 0x00024ff5   Thumb Code    46  QtOrganizer.in(t._ZN5QHashIN10QtMobility16QOrganizerItemIdE15QHashDummyValueE13detach_helperEv)
    QHash<QtMobility::QOrganizerItemId, QHashDummyValue>::duplicateNode(QHashData::Node*, void*) 0x0002502d   Thumb Code    28  QtOrganizer.in(t._ZN5QHashIN10QtMobility16QOrganizerItemIdE15QHashDummyValueE13duplicateNodeEPN9QHashData4NodeEPv)
    QHash<QtMobility::QOrganizerItemId, QHashDummyValue>::detach() 0x00025055   Thumb Code    26  QtOrganizer.in(t._ZN5QHashIN10QtMobility16QOrganizerItemIdE15QHashDummyValueE6detachEv)
    QHash<QtMobility::QOrganizerItemId, QHashDummyValue>::insert(const QtMobility::QOrganizerItemId&, const QHashDummyValue&) 0x0002506f   Thumb Code   120  QtOrganizer.in(t._ZN5QHashIN10QtMobility16QOrganizerItemIdE15QHashDummyValueE6insertERKS1_RKS2_)
    QHash<QtMobility::QOrganizerItemId, QHashDummyValue>::freeData(QHashData*) 0x000250f5   Thumb Code    12  QtOrganizer.in(t._ZN5QHashIN10QtMobility16QOrganizerItemIdE15QHashDummyValueE8freeDataEP9QHashData)
    QHash<QtMobility::QOrganizerItemId, QHashDummyValue>::QHash() 0x00025105   Thumb Code    18  QtOrganizer.in(t._ZN5QHashIN10QtMobility16QOrganizerItemIdE15QHashDummyValueEC1Ev)
    QHash<QtMobility::QOrganizerItemId, QHashDummyValue>::QHash__sub_object() 0x00025105   Thumb Code     0  QtOrganizer.in(t._ZN5QHashIN10QtMobility16QOrganizerItemIdE15QHashDummyValueEC1Ev)
    QHash<QtMobility::QOrganizerItemId, QHashDummyValue>::~QHash() 0x0002511d   Thumb Code    28  QtOrganizer.in(t._ZN5QHashIN10QtMobility16QOrganizerItemIdE15QHashDummyValueED1Ev)
    QHash<QtMobility::QOrganizerItemId, QHashDummyValue>::~QHash__sub_object() 0x0002511d   Thumb Code     0  QtOrganizer.in(t._ZN5QHashIN10QtMobility16QOrganizerItemIdE15QHashDummyValueED1Ev)
    QHash<QtMobility::QOrganizerItemId, QtMobility::QOrganizerItem>::deleteNode2(QHashData::Node*) 0x00025139   Thumb Code    18  QtOrganizer.in(t._ZN5QHashIN10QtMobility16QOrganizerItemIdENS0_14QOrganizerItemEE11deleteNode2EPN9QHashData4NodeE)
    QHash<QtMobility::QOrganizerItemId, QtMobility::QOrganizerItem>::duplicateNode(QHashData::Node*, void*) 0x00025157   Thumb Code    30  QtOrganizer.in(t._ZN5QHashIN10QtMobility16QOrganizerItemIdENS0_14QOrganizerItemEE13duplicateNodeEPN9QHashData4NodeEPv)
    QHash<QtMobility::QOrganizerItemId, QtMobility::QOrganizerItem>::const_iterator::operator ++() 0x00025181   Thumb Code    16  QtOrganizer.in(t._ZN5QHashIN10QtMobility16QOrganizerItemIdENS0_14QOrganizerItemEE14const_iteratorppEv)
    QHash<QtMobility::QOrganizerItemId, QtMobility::QOrganizerItem>::find(const QtMobility::QOrganizerItemId&) 0x00025191   Thumb Code    24  QtOrganizer.in(t._ZN5QHashIN10QtMobility16QOrganizerItemIdENS0_14QOrganizerItemEE4findERKS1_)
    QHash<QtMobility::QOrganizerItemId, QtMobility::QOrganizerItem>::detach() 0x000251a9   Thumb Code    60  QtOrganizer.in(t._ZN5QHashIN10QtMobility16QOrganizerItemIdENS0_14QOrganizerItemEE6detachEv)
    QHash<QtMobility::QOrganizerItemId, QtMobility::QOrganizerItem>::insert(const QtMobility::QOrganizerItemId&, const QtMobility::QOrganizerItem&) 0x000251ed   Thumb Code   122  QtOrganizer.in(t._ZN5QHashIN10QtMobility16QOrganizerItemIdENS0_14QOrganizerItemEE6insertERKS1_RKS2_)
    QHash<QtMobility::QOrganizerItemId, QtMobility::QOrganizerItem>::remove(const QtMobility::QOrganizerItemId&) 0x00025273   Thumb Code   126  QtOrganizer.in(t._ZN5QHashIN10QtMobility16QOrganizerItemIdENS0_14QOrganizerItemEE6removeERKS1_)
    QHash<QtMobility::QOrganizerItemId, QtMobility::QOrganizerItem>::freeData(QHashData*) 0x000252f1   Thumb Code    12  QtOrganizer.in(t._ZN5QHashIN10QtMobility16QOrganizerItemIdENS0_14QOrganizerItemEE8freeDataEP9QHashData)
    QHash<QtMobility::QOrganizerItemId, QtMobility::QOrganizerItem>::~QHash() 0x00025301   Thumb Code    28  QtOrganizer.in(t._ZN5QHashIN10QtMobility16QOrganizerItemIdENS0_14QOrganizerItemEED1Ev)
    QHash<QtMobility::QOrganizerItemId, QtMobility::QOrganizerItem>::~QHash__sub_object() 0x00025301   Thumb Code     0  QtOrganizer.in(t._ZN5QHashIN10QtMobility16QOrganizerItemIdENS0_14QOrganizerItemEED1Ev)
    QHash<QtMobility::QOrganizerItemId, QtMobility::QOrganizerItemId>::deleteNode(QHashNode<QtMobility::QOrganizerItemId, QtMobility::QOrganizerItemId>*) 0x0002531d   Thumb Code    22  QtOrganizer.in(t._ZN5QHashIN10QtMobility16QOrganizerItemIdES1_E10deleteNodeEP9QHashNodeIS1_S1_E)
    QHash<QtMobility::QOrganizerItemId, QtMobility::QOrganizerItemId>::deleteNode2(QHashData::Node*) 0x00025333   Thumb Code    18  QtOrganizer.in(t._ZN5QHashIN10QtMobility16QOrganizerItemIdES1_E11deleteNode2EPN9QHashData4NodeE)
    QHash<QtMobility::QOrganizerItemId, QtMobility::QOrganizerItemId>::duplicateNode(QHashData::Node*, void*) 0x00025351   Thumb Code    30  QtOrganizer.in(t._ZN5QHashIN10QtMobility16QOrganizerItemIdES1_E13duplicateNodeEPN9QHashData4NodeEPv)
    QHash<QtMobility::QOrganizerItemId, QtMobility::QOrganizerItemId>::erase(QHash<QtMobility::QOrganizerItemId, QtMobility::QOrganizerItemId>::iterator) 0x0002537b   Thumb Code    74  QtOrganizer.in(t._ZN5QHashIN10QtMobility16QOrganizerItemIdES1_E5eraseENS2_8iteratorE)
    QHash<QtMobility::QOrganizerItemId, QtMobility::QOrganizerItemId>::detach() 0x000253c5   Thumb Code    60  QtOrganizer.in(t._ZN5QHashIN10QtMobility16QOrganizerItemIdES1_E6detachEv)
    QHash<QtMobility::QOrganizerItemId, QtMobility::QOrganizerItemId>::remove(const QtMobility::QOrganizerItemId&) 0x00025409   Thumb Code   118  QtOrganizer.in(t._ZN5QHashIN10QtMobility16QOrganizerItemIdES1_E6removeERKS1_)
    QHash<QtMobility::QOrganizerItemId, QtMobility::QOrganizerItemId>::freeData(QHashData*) 0x00025481   Thumb Code    12  QtOrganizer.in(t._ZN5QHashIN10QtMobility16QOrganizerItemIdES1_E8freeDataEP9QHashData)
    QHash<QtMobility::QOrganizerItemId, QtMobility::QOrganizerItemId>::~QHash() 0x00025491   Thumb Code    28  QtOrganizer.in(t._ZN5QHashIN10QtMobility16QOrganizerItemIdES1_ED1Ev)
    QHash<QtMobility::QOrganizerItemId, QtMobility::QOrganizerItemId>::~QHash__sub_object() 0x00025491   Thumb Code     0  QtOrganizer.in(t._ZN5QHashIN10QtMobility16QOrganizerItemIdES1_ED1Ev)
    QHash<QtMobility::QOrganizerCollectionId, QHashDummyValue>::deleteNode2(QHashData::Node*) 0x000254ad   Thumb Code    10  QtOrganizer.in(t._ZN5QHashIN10QtMobility22QOrganizerCollectionIdE15QHashDummyValueE11deleteNode2EPN9QHashData4NodeE)
    QHash<QtMobility::QOrganizerCollectionId, QHashDummyValue>::detach_helper() 0x000254b9   Thumb Code    46  QtOrganizer.in(t._ZN5QHashIN10QtMobility22QOrganizerCollectionIdE15QHashDummyValueE13detach_helperEv)
    QHash<QtMobility::QOrganizerCollectionId, QHashDummyValue>::duplicateNode(QHashData::Node*, void*) 0x000254f1   Thumb Code    28  QtOrganizer.in(t._ZN5QHashIN10QtMobility22QOrganizerCollectionIdE15QHashDummyValueE13duplicateNodeEPN9QHashData4NodeEPv)
    QHash<QtMobility::QOrganizerCollectionId, QHashDummyValue>::detach() 0x00025519   Thumb Code    26  QtOrganizer.in(t._ZN5QHashIN10QtMobility22QOrganizerCollectionIdE15QHashDummyValueE6detachEv)
    QHash<QtMobility::QOrganizerCollectionId, QHashDummyValue>::insert(const QtMobility::QOrganizerCollectionId&, const QHashDummyValue&) 0x00025533   Thumb Code   120  QtOrganizer.in(t._ZN5QHashIN10QtMobility22QOrganizerCollectionIdE15QHashDummyValueE6insertERKS1_RKS2_)
    QHash<QtMobility::QOrganizerCollectionId, QHashDummyValue>::freeData(QHashData*) 0x000255b9   Thumb Code    12  QtOrganizer.in(t._ZN5QHashIN10QtMobility22QOrganizerCollectionIdE15QHashDummyValueE8freeDataEP9QHashData)
    QHash<QtMobility::QOrganizerCollectionId, QHashDummyValue>::QHash() 0x000255c9   Thumb Code    18  QtOrganizer.in(t._ZN5QHashIN10QtMobility22QOrganizerCollectionIdE15QHashDummyValueEC1Ev)
    QHash<QtMobility::QOrganizerCollectionId, QHashDummyValue>::QHash__sub_object() 0x000255c9   Thumb Code     0  QtOrganizer.in(t._ZN5QHashIN10QtMobility22QOrganizerCollectionIdE15QHashDummyValueEC1Ev)
    QHash<QtMobility::QOrganizerCollectionId, QHashDummyValue>::~QHash() 0x000255e1   Thumb Code    28  QtOrganizer.in(t._ZN5QHashIN10QtMobility22QOrganizerCollectionIdE15QHashDummyValueED1Ev)
    QHash<QtMobility::QOrganizerCollectionId, QHashDummyValue>::~QHash__sub_object() 0x000255e1   Thumb Code     0  QtOrganizer.in(t._ZN5QHashIN10QtMobility22QOrganizerCollectionIdE15QHashDummyValueED1Ev)
    QHash<QtMobility::QOrganizerCollectionId, QHashDummyValue>::operator =(const QHash<QtMobility::QOrganizerCollectionId, QHashDummyValue>&) 0x000255fd   Thumb Code    58  QtOrganizer.in(t._ZN5QHashIN10QtMobility22QOrganizerCollectionIdE15QHashDummyValueEaSERKS3_)
    QHash<QtMobility::QOrganizerRecurrenceRule::Month, QHashDummyValue>::deleteNode2(QHashData::Node*) 0x00025637   Thumb Code     2  QtOrganizer.in(t._ZN5QHashIN10QtMobility24QOrganizerRecurrenceRule5MonthE15QHashDummyValueE11deleteNode2EPN9QHashData4NodeE)
    QHash<QtMobility::QOrganizerRecurrenceRule::Month, QHashDummyValue>::detach_helper() 0x00025639   Thumb Code    46  QtOrganizer.in(t._ZN5QHashIN10QtMobility24QOrganizerRecurrenceRule5MonthE15QHashDummyValueE13detach_helperEv)
    QHash<QtMobility::QOrganizerRecurrenceRule::Month, QHashDummyValue>::duplicateNode(QHashData::Node*, void*) 0x00025671   Thumb Code    20  QtOrganizer.in(t._ZN5QHashIN10QtMobility24QOrganizerRecurrenceRule5MonthE15QHashDummyValueE13duplicateNodeEPN9QHashData4NodeEPv)
    QHash<QtMobility::QOrganizerRecurrenceRule::Month, QHashDummyValue>::insert(const QtMobility::QOrganizerRecurrenceRule::Month&, const QHashDummyValue&) 0x00025685   Thumb Code   152  QtOrganizer.in(t._ZN5QHashIN10QtMobility24QOrganizerRecurrenceRule5MonthE15QHashDummyValueE6insertERKS2_RKS3_)
    QHash<QtMobility::QOrganizerRecurrenceRule::Month, QHashDummyValue>::freeData(QHashData*) 0x00025725   Thumb Code    12  QtOrganizer.in(t._ZN5QHashIN10QtMobility24QOrganizerRecurrenceRule5MonthE15QHashDummyValueE8freeDataEP9QHashData)
    QHash<QtMobility::QOrganizerRecurrenceRule::Month, QHashDummyValue>::~QHash() 0x00025735   Thumb Code    28  QtOrganizer.in(t._ZN5QHashIN10QtMobility24QOrganizerRecurrenceRule5MonthE15QHashDummyValueED1Ev)
    QHash<QtMobility::QOrganizerRecurrenceRule::Month, QHashDummyValue>::~QHash__sub_object() 0x00025735   Thumb Code     0  QtOrganizer.in(t._ZN5QHashIN10QtMobility24QOrganizerRecurrenceRule5MonthE15QHashDummyValueED1Ev)
    QHash<QtMobility::QOrganizerRecurrenceRule, QHashDummyValue>::deleteNode2(QHashData::Node*) 0x00025751   Thumb Code    10  QtOrganizer.in(t._ZN5QHashIN10QtMobility24QOrganizerRecurrenceRuleE15QHashDummyValueE11deleteNode2EPN9QHashData4NodeE)
    QHash<QtMobility::QOrganizerRecurrenceRule, QHashDummyValue>::duplicateNode(QHashData::Node*, void*) 0x0002575b   Thumb Code    28  QtOrganizer.in(t._ZN5QHashIN10QtMobility24QOrganizerRecurrenceRuleE15QHashDummyValueE13duplicateNodeEPN9QHashData4NodeEPv)
    QHash<QtMobility::QOrganizerRecurrenceRule, QHashDummyValue>::detach() 0x00025785   Thumb Code    52  QtOrganizer.in(t._ZN5QHashIN10QtMobility24QOrganizerRecurrenceRuleE15QHashDummyValueE6detachEv)
    QHash<QtMobility::QOrganizerRecurrenceRule, QHashDummyValue>::insert(const QtMobility::QOrganizerRecurrenceRule&, const QHashDummyValue&) 0x000257c1   Thumb Code   110  QtOrganizer.in(t._ZN5QHashIN10QtMobility24QOrganizerRecurrenceRuleE15QHashDummyValueE6insertERKS1_RKS2_)
    QHash<QtMobility::QOrganizerRecurrenceRule, QHashDummyValue>::freeData(QHashData*) 0x0002583d   Thumb Code    12  QtOrganizer.in(t._ZN5QHashIN10QtMobility24QOrganizerRecurrenceRuleE15QHashDummyValueE8freeDataEP9QHashData)
    QHash<QtMobility::QOrganizerRecurrenceRule, QHashDummyValue>::~QHash() 0x0002584d   Thumb Code    28  QtOrganizer.in(t._ZN5QHashIN10QtMobility24QOrganizerRecurrenceRuleE15QHashDummyValueED1Ev)
    QHash<QtMobility::QOrganizerRecurrenceRule, QHashDummyValue>::~QHash__sub_object() 0x0002584d   Thumb Code     0  QtOrganizer.in(t._ZN5QHashIN10QtMobility24QOrganizerRecurrenceRuleE15QHashDummyValueED1Ev)
    QHash<QtMobility::QOrganizerItemStringHolder, QVariant>::deleteNode2(QHashData::Node*) 0x00025869   Thumb Code    12  QtOrganizer.in(t._ZN5QHashIN10QtMobility26QOrganizerItemStringHolderE8QVariantE11deleteNode2EPN9QHashData4NodeE)
    QHash<QtMobility::QOrganizerItemStringHolder, QVariant>::duplicateNode(QHashData::Node*, void*) 0x00025881   Thumb Code    32  QtOrganizer.in(t._ZN5QHashIN10QtMobility26QOrganizerItemStringHolderE8QVariantE13duplicateNodeEPN9QHashData4NodeEPv)
    QHash<QtMobility::QOrganizerItemStringHolder, QVariant>::const_iterator::operator ++() 0x000258ad   Thumb Code    16  QtOrganizer.in(t._ZN5QHashIN10QtMobility26QOrganizerItemStringHolderE8QVariantE14const_iteratorppEv)
    QHash<QtMobility::QOrganizerItemStringHolder, QVariant>::detach() 0x000258bd   Thumb Code    60  QtOrganizer.in(t._ZN5QHashIN10QtMobility26QOrganizerItemStringHolderE8QVariantE6detachEv)
    QHash<QtMobility::QOrganizerItemStringHolder, QVariant>::insert(const QtMobility::QOrganizerItemStringHolder&, const QVariant&) 0x00025901   Thumb Code   122  QtOrganizer.in(t._ZN5QHashIN10QtMobility26QOrganizerItemStringHolderE8QVariantE6insertERKS1_RKS2_)
    QHash<QtMobility::QOrganizerItemStringHolder, QVariant>::remove(const QtMobility::QOrganizerItemStringHolder&) 0x00025987   Thumb Code   186  QtOrganizer.in(t._ZN5QHashIN10QtMobility26QOrganizerItemStringHolderE8QVariantE6removeERKS1_)
    QHash<QtMobility::QOrganizerItemStringHolder, QVariant>::freeData(QHashData*) 0x00025a41   Thumb Code    12  QtOrganizer.in(t._ZN5QHashIN10QtMobility26QOrganizerItemStringHolderE8QVariantE8freeDataEP9QHashData)
    QHash<QtMobility::QOrganizerItemStringHolder, QVariant>::~QHash() 0x00025a51   Thumb Code    28  QtOrganizer.in(t._ZN5QHashIN10QtMobility26QOrganizerItemStringHolderE8QVariantED1Ev)
    QHash<QtMobility::QOrganizerItemStringHolder, QVariant>::~QHash__sub_object() 0x00025a51   Thumb Code     0  QtOrganizer.in(t._ZN5QHashIN10QtMobility26QOrganizerItemStringHolderE8QVariantED1Ev)
    QHash<Qt::DayOfWeek, QHashDummyValue>::deleteNode2(QHashData::Node*) 0x00025a6d   Thumb Code     2  QtOrganizer.in(t._ZN5QHashIN2Qt9DayOfWeekE15QHashDummyValueE11deleteNode2EPN9QHashData4NodeE)
    QHash<Qt::DayOfWeek, QHashDummyValue>::detach_helper() 0x00025a71   Thumb Code    46  QtOrganizer.in(t._ZN5QHashIN2Qt9DayOfWeekE15QHashDummyValueE13detach_helperEv)
    QHash<Qt::DayOfWeek, QHashDummyValue>::duplicateNode(QHashData::Node*, void*) 0x00025aa9   Thumb Code    20  QtOrganizer.in(t._ZN5QHashIN2Qt9DayOfWeekE15QHashDummyValueE13duplicateNodeEPN9QHashData4NodeEPv)
    QHash<Qt::DayOfWeek, QHashDummyValue>::insert(const Qt::DayOfWeek&, const QHashDummyValue&) 0x00025abd   Thumb Code   152  QtOrganizer.in(t._ZN5QHashIN2Qt9DayOfWeekE15QHashDummyValueE6insertERKS1_RKS2_)
    QHash<Qt::DayOfWeek, QHashDummyValue>::freeData(QHashData*) 0x00025b5d   Thumb Code    12  QtOrganizer.in(t._ZN5QHashIN2Qt9DayOfWeekE15QHashDummyValueE8freeDataEP9QHashData)
    QHash<Qt::DayOfWeek, QHashDummyValue>::~QHash() 0x00025b6d   Thumb Code    28  QtOrganizer.in(t._ZN5QHashIN2Qt9DayOfWeekE15QHashDummyValueED1Ev)
    QHash<Qt::DayOfWeek, QHashDummyValue>::~QHash__sub_object() 0x00025b6d   Thumb Code     0  QtOrganizer.in(t._ZN5QHashIN2Qt9DayOfWeekE15QHashDummyValueED1Ev)
    QHash<const char*, QString>::deleteNode2(QHashData::Node*) 0x00025b89   Thumb Code    10  QtOrganizer.in(t._ZN5QHashIPKc7QStringE11deleteNode2EPN9QHashData4NodeE)
    QHash<const char*, QString>::detach_helper() 0x00025b95   Thumb Code    46  QtOrganizer.in(t._ZN5QHashIPKc7QStringE13detach_helperEv)
    QHash<const char*, QString>::duplicateNode(QHashData::Node*, void*) 0x00025bcd   Thumb Code    30  QtOrganizer.in(t._ZN5QHashIPKc7QStringE13duplicateNodeEPN9QHashData4NodeEPv)
    QHash<const char*, QString>::insert(const char*const &, const QString&) 0x00025bf7   Thumb Code   138  QtOrganizer.in(t._ZN5QHashIPKc7QStringE6insertERKS1_RKS2_)
    QHash<const char*, QString>::freeData(QHashData*) 0x00025c8d   Thumb Code    12  QtOrganizer.in(t._ZN5QHashIPKc7QStringE8freeDataEP9QHashData)
    QHash<const char*, QString>::QHash()     0x00025c9d   Thumb Code    18  QtOrganizer.in(t._ZN5QHashIPKc7QStringEC1Ev)
    QHash<const char*, QString>::QHash__sub_object() 0x00025c9d   Thumb Code     0  QtOrganizer.in(t._ZN5QHashIPKc7QStringEC1Ev)
    QHash<const char*, QString>::~QHash()    0x00025cb5   Thumb Code    28  QtOrganizer.in(t._ZN5QHashIPKc7QStringED1Ev)
    QHash<const char*, QString>::~QHash__sub_object() 0x00025cb5   Thumb Code     0  QtOrganizer.in(t._ZN5QHashIPKc7QStringED1Ev)
    QHash<int, QHashDummyValue>::deleteNode2(QHashData::Node*) 0x00025cd1   Thumb Code     2  QtOrganizer.in(t._ZN5QHashIi15QHashDummyValueE11deleteNode2EPN9QHashData4NodeE)
    QHash<int, QHashDummyValue>::detach_helper() 0x00025cd5   Thumb Code    46  QtOrganizer.in(t._ZN5QHashIi15QHashDummyValueE13detach_helperEv)
    QHash<int, QHashDummyValue>::duplicateNode(QHashData::Node*, void*) 0x00025d0d   Thumb Code    10  QtOrganizer.in(t._ZN5QHashIi15QHashDummyValueE13duplicateNodeEPN9QHashData4NodeEPv)
    QHash<int, QHashDummyValue>::detach()    0x00025d19   Thumb Code    60  QtOrganizer.in(t._ZN5QHashIi15QHashDummyValueE6detachEv)
    QHash<int, QHashDummyValue>::freeData(QHashData*) 0x00025d5d   Thumb Code    12  QtOrganizer.in(t._ZN5QHashIi15QHashDummyValueE8freeDataEP9QHashData)
    QHash<int, QHashDummyValue>::~QHash()    0x00025d6d   Thumb Code    28  QtOrganizer.in(t._ZN5QHashIi15QHashDummyValueED1Ev)
    QHash<int, QHashDummyValue>::~QHash__sub_object() 0x00025d6d   Thumb Code     0  QtOrganizer.in(t._ZN5QHashIi15QHashDummyValueED1Ev)
    QList<QDate>::detach_helper()            0x00025d89   Thumb Code    88  QtOrganizer.in(t._ZN5QListI5QDateE13detach_helperEv)
    QList<QDate>::detach_helper_grow(int, int) 0x00025de9   Thumb Code   180  QtOrganizer.in(t._ZN5QListI5QDateE18detach_helper_growEii)
    QList<QDate>::free(QListData::Data*)     0x00025ea5   Thumb Code    48  QtOrganizer.in(t._ZN5QListI5QDateE4freeEPN9QListData4DataE)
    QList<QDate>::append(const QDate&)       0x00025ed5   Thumb Code    82  QtOrganizer.in(t._ZN5QListI5QDateE6appendERKS0_)
    QList<QDate>::node_copy(QList<QDate>::Node*, QList<QDate>::Node*, QList<QDate>::Node*) 0x00025f37   Thumb Code    36  QtOrganizer.in(t._ZN5QListI5QDateE9node_copyEPNS1_4NodeES3_S3_)
    QList<QDate>::QList(const QList<QDate>&) 0x00025f5b   Thumb Code    30  QtOrganizer.in(t._ZN5QListI5QDateEC1ERKS1_)
    QList<QDate>::QList__sub_object(const QList<QDate>&) 0x00025f5b   Thumb Code     0  QtOrganizer.in(t._ZN5QListI5QDateEC1ERKS1_)
    QList<QDate>::QList()                    0x00025f79   Thumb Code    16  QtOrganizer.in(t._ZN5QListI5QDateEC1Ev)
    QList<QDate>::QList__sub_object()        0x00025f79   Thumb Code     0  QtOrganizer.in(t._ZN5QListI5QDateEC1Ev)
    QList<QDate>::~QList()                   0x00025f8d   Thumb Code    30  QtOrganizer.in(t._ZN5QListI5QDateED1Ev)
    QList<QDate>::~QList__sub_object()       0x00025f8d   Thumb Code     0  QtOrganizer.in(t._ZN5QListI5QDateED1Ev)
    QList<QString>::detach_helper(int)       0x00025fab   Thumb Code    86  QtOrganizer.in(t._ZN5QListI7QStringE13detach_helperEi)
    QList<QString>::detach_helper()          0x00026009   Thumb Code    12  QtOrganizer.in(t._ZN5QListI7QStringE13detach_helperEv)
    QList<QString>::node_construct(QList<QString>::Node*, const QString&) 0x00026015   Thumb Code    26  QtOrganizer.in(t._ZN5QListI7QStringE14node_constructEPNS1_4NodeERKS0_)
    QList<QString>::detach_helper_grow(int, int) 0x0002603b   Thumb Code   186  QtOrganizer.in(t._ZN5QListI7QStringE18detach_helper_growEii)
    QList<QString>::free(QListData::Data*)   0x000260fd   Thumb Code    48  QtOrganizer.in(t._ZN5QListI7QStringE4freeEPN9QListData4DataE)
    QList<QString>::append(const QString&)   0x0002612d   Thumb Code    94  QtOrganizer.in(t._ZN5QListI7QStringE6appendERKS0_)
    QList<QString>::reserve(int)             0x00026199   Thumb Code    44  QtOrganizer.in(t._ZN5QListI7QStringE7reserveEi)
    QList<QString>::node_copy(QList<QString>::Node*, QList<QString>::Node*, QList<QString>::Node*) 0x000261c5   Thumb Code    70  QtOrganizer.in(t._ZN5QListI7QStringE9node_copyEPNS1_4NodeES3_S3_)
    QList<QString>::removeAll(const QString&) 0x00026221   Thumb Code   106  QtOrganizer.in(t._ZN5QListI7QStringE9removeAllERKS0_)
    QList<QString>::QList()                  0x0002629d   Thumb Code    16  QtOrganizer.in(t._ZN5QListI7QStringEC1Ev)
    QList<QString>::QList__sub_object()      0x0002629d   Thumb Code     0  QtOrganizer.in(t._ZN5QListI7QStringEC1Ev)
    QList<QString>::~QList()                 0x000262b1   Thumb Code    30  QtOrganizer.in(t._ZN5QListI7QStringED1Ev)
    QList<QString>::~QList__sub_object()     0x000262b1   Thumb Code     0  QtOrganizer.in(t._ZN5QListI7QStringED1Ev)
    QList<QString>::operator =(const QList<QString>&) 0x000262cf   Thumb Code    54  QtOrganizer.in(t._ZN5QListI7QStringEaSERKS1_)
    QList<QString>::operator +=(const QList<QString>&) 0x00026305   Thumb Code   168  QtOrganizer.in(t._ZN5QListI7QStringEpLERKS1_)
    QList<QVariant>::setSharable(bool)       0x000263b9   Thumb Code    20  QtOrganizer.in(t._ZN5QListI8QVariantE11setSharableEb)
    QList<QVariant>::detach_helper(int)      0x000263cd   Thumb Code    86  QtOrganizer.in(t._ZN5QListI8QVariantE13detach_helperEi)
    QList<QVariant>::detach_helper()         0x0002642b   Thumb Code    12  QtOrganizer.in(t._ZN5QListI8QVariantE13detach_helperEv)
    QList<QVariant>::node_destruct(QList<QVariant>::Node*) 0x00026437   Thumb Code    18  QtOrganizer.in(t._ZN5QListI8QVariantE13node_destructEPNS1_4NodeE)
    QList<QVariant>::node_destruct(QList<QVariant>::Node*, QList<QVariant>::Node*) 0x00026449   Thumb Code    30  QtOrganizer.in(t._ZN5QListI8QVariantE13node_destructEPNS1_4NodeES3_)
    QList<QVariant>::node_construct(QList<QVariant>::Node*, const QVariant&) 0x00026467   Thumb Code    32  QtOrganizer.in(t._ZN5QListI8QVariantE14node_constructEPNS1_4NodeERKS0_)
    QList<QVariant>::detach_helper_grow(int, int) 0x00026491   Thumb Code   180  QtOrganizer.in(t._ZN5QListI8QVariantE18detach_helper_growEii)
    QList<QVariant>::end()                   0x0002654d   Thumb Code    22  QtOrganizer.in(t._ZN5QListI8QVariantE3endEv)
    QList<QVariant>::free(QListData::Data*)  0x00026563   Thumb Code    38  QtOrganizer.in(t._ZN5QListI8QVariantE4freeEPN9QListData4DataE)
    QList<QVariant>::append(const QVariant&) 0x00026589   Thumb Code    90  QtOrganizer.in(t._ZN5QListI8QVariantE6appendERKS0_)
    QList<QVariant>::detach()                0x000265f1   Thumb Code    24  QtOrganizer.in(t._ZN5QListI8QVariantE6detachEv)
    QList<QVariant>::node_copy(QList<QVariant>::Node*, QList<QVariant>::Node*, QList<QVariant>::Node*) 0x00026609   Thumb Code    80  QtOrganizer.in(t._ZN5QListI8QVariantE9node_copyEPNS1_4NodeES3_S3_)
    QList<QVariant>::QList(const QList<QVariant>&) 0x0002666b   Thumb Code    30  QtOrganizer.in(t._ZN5QListI8QVariantEC1ERKS1_)
    QList<QVariant>::QList__sub_object(const QList<QVariant>&) 0x0002666b   Thumb Code     0  QtOrganizer.in(t._ZN5QListI8QVariantEC1ERKS1_)
    QList<QVariant>::QList()                 0x00026689   Thumb Code    16  QtOrganizer.in(t._ZN5QListI8QVariantEC1Ev)
    QList<QVariant>::QList__sub_object()     0x00026689   Thumb Code     0  QtOrganizer.in(t._ZN5QListI8QVariantEC1Ev)
    QList<QVariant>::~QList()                0x0002669d   Thumb Code    30  QtOrganizer.in(t._ZN5QListI8QVariantED1Ev)
    QList<QVariant>::~QList__sub_object()    0x0002669d   Thumb Code     0  QtOrganizer.in(t._ZN5QListI8QVariantED1Ev)
    QList<QVariant>::operator =(const QList<QVariant>&) 0x000266bb   Thumb Code    54  QtOrganizer.in(t._ZN5QListI8QVariantEaSERKS1_)
    QList<QVariant>::operator <<(const QVariant&) 0x000266f1   Thumb Code    12  QtOrganizer.in(t._ZN5QListI8QVariantElsERKS0_)
    QList<QDateTime>::detach_helper()        0x000266fd   Thumb Code    88  QtOrganizer.in(t._ZN5QListI9QDateTimeE13detach_helperEv)
    QList<QDateTime>::node_construct(QList<QDateTime>::Node*, const QDateTime&) 0x0002675d   Thumb Code    26  QtOrganizer.in(t._ZN5QListI9QDateTimeE14node_constructEPNS1_4NodeERKS0_)
    QList<QDateTime>::detach_helper_grow(int, int) 0x00026783   Thumb Code   186  QtOrganizer.in(t._ZN5QListI9QDateTimeE18detach_helper_growEii)
    QList<QDateTime>::free(QListData::Data*) 0x00026845   Thumb Code    54  QtOrganizer.in(t._ZN5QListI9QDateTimeE4freeEPN9QListData4DataE)
    QList<QDateTime>::begin()                0x0002687b   Thumb Code    22  QtOrganizer.in(t._ZN5QListI9QDateTimeE5beginEv)
    QList<QDateTime>::append(const QDateTime&) 0x00026891   Thumb Code    94  QtOrganizer.in(t._ZN5QListI9QDateTimeE6appendERKS0_)
    QList<QDateTime>::detach()               0x000268fd   Thumb Code    24  QtOrganizer.in(t._ZN5QListI9QDateTimeE6detachEv)
    QList<QDateTime>::node_copy(QList<QDateTime>::Node*, QList<QDateTime>::Node*, QList<QDateTime>::Node*) 0x00026915   Thumb Code    70  QtOrganizer.in(t._ZN5QListI9QDateTimeE9node_copyEPNS1_4NodeES3_S3_)
    QList<QDateTime>::QList()                0x00026971   Thumb Code    16  QtOrganizer.in(t._ZN5QListI9QDateTimeEC1Ev)
    QList<QDateTime>::QList__sub_object()    0x00026971   Thumb Code     0  QtOrganizer.in(t._ZN5QListI9QDateTimeEC1Ev)
    QList<QDateTime>::~QList()               0x00026985   Thumb Code    30  QtOrganizer.in(t._ZN5QListI9QDateTimeED1Ev)
    QList<QDateTime>::~QList__sub_object()   0x00026985   Thumb Code     0  QtOrganizer.in(t._ZN5QListI9QDateTimeED1Ev)
    QList<QDateTime>::operator +=(const QList<QDateTime>&) 0x000269a5   Thumb Code   168  QtOrganizer.in(t._ZN5QListI9QDateTimeEpLERKS1_)
    QList<QtMobility::QOrganizerItem>::detach_helper(int) 0x00026a59   Thumb Code    86  QtOrganizer.in(t._ZN5QListIN10QtMobility14QOrganizerItemEE13detach_helperEi)
    QList<QtMobility::QOrganizerItem>::detach_helper() 0x00026ab7   Thumb Code    12  QtOrganizer.in(t._ZN5QListIN10QtMobility14QOrganizerItemEE13detach_helperEv)
    QList<QtMobility::QOrganizerItem>::node_construct(QList<QtMobility::QOrganizerItem>::Node*, const QtMobility::QOrganizerItem&) 0x00026ac3   Thumb Code    26  QtOrganizer.in(t._ZN5QListIN10QtMobility14QOrganizerItemEE14node_constructEPNS2_4NodeERKS1_)
    QList<QtMobility::QOrganizerItem>::detach_helper_grow(int, int) 0x00026ae9   Thumb Code   186  QtOrganizer.in(t._ZN5QListIN10QtMobility14QOrganizerItemEE18detach_helper_growEii)
    QList<QtMobility::QOrganizerItem>::free(QListData::Data*) 0x00026bab   Thumb Code    48  QtOrganizer.in(t._ZN5QListIN10QtMobility14QOrganizerItemEE4freeEPN9QListData4DataE)
    QList<QtMobility::QOrganizerItem>::append(const QtMobility::QOrganizerItem&) 0x00026bdd   Thumb Code    94  QtOrganizer.in(t._ZN5QListIN10QtMobility14QOrganizerItemEE6appendERKS1_)
    QList<QtMobility::QOrganizerItem>::node_copy(QList<QtMobility::QOrganizerItem>::Node*, QList<QtMobility::QOrganizerItem>::Node*, QList<QtMobility::QOrganizerItem>::Node*) 0x00026c49   Thumb Code    70  QtOrganizer.in(t._ZN5QListIN10QtMobility14QOrganizerItemEE9node_copyEPNS2_4NodeES4_S4_)
    QList<QtMobility::QOrganizerItem>::QList(const QList<QtMobility::QOrganizerItem>&) 0x00026ca5   Thumb Code    30  QtOrganizer.in(t._ZN5QListIN10QtMobility14QOrganizerItemEEC1ERKS2_)
    QList<QtMobility::QOrganizerItem>::QList__sub_object(const QList<QtMobility::QOrganizerItem>&) 0x00026ca5   Thumb Code     0  QtOrganizer.in(t._ZN5QListIN10QtMobility14QOrganizerItemEEC1ERKS2_)
    QList<QtMobility::QOrganizerItem>::QList() 0x00026cc5   Thumb Code    16  QtOrganizer.in(t._ZN5QListIN10QtMobility14QOrganizerItemEEC1Ev)
    QList<QtMobility::QOrganizerItem>::QList__sub_object() 0x00026cc5   Thumb Code     0  QtOrganizer.in(t._ZN5QListIN10QtMobility14QOrganizerItemEEC1Ev)
    QList<QtMobility::QOrganizerItem>::~QList() 0x00026cd9   Thumb Code    30  QtOrganizer.in(t._ZN5QListIN10QtMobility14QOrganizerItemEED1Ev)
    QList<QtMobility::QOrganizerItem>::~QList__sub_object() 0x00026cd9   Thumb Code     0  QtOrganizer.in(t._ZN5QListIN10QtMobility14QOrganizerItemEED1Ev)
    QList<QtMobility::QOrganizerItem>::operator =(const QList<QtMobility::QOrganizerItem>&) 0x00026cf7   Thumb Code    54  QtOrganizer.in(t._ZN5QListIN10QtMobility14QOrganizerItemEEaSERKS2_)
    QList<QtMobility::QOrganizerItemId>::detach_helper(int) 0x00026d2d   Thumb Code    86  QtOrganizer.in(t._ZN5QListIN10QtMobility16QOrganizerItemIdEE13detach_helperEi)
    QList<QtMobility::QOrganizerItemId>::detach_helper() 0x00026d8b   Thumb Code    12  QtOrganizer.in(t._ZN5QListIN10QtMobility16QOrganizerItemIdEE13detach_helperEv)
    QList<QtMobility::QOrganizerItemId>::node_construct(QList<QtMobility::QOrganizerItemId>::Node*, const QtMobility::QOrganizerItemId&) 0x00026d97   Thumb Code    26  QtOrganizer.in(t._ZN5QListIN10QtMobility16QOrganizerItemIdEE14node_constructEPNS2_4NodeERKS1_)
    QList<QtMobility::QOrganizerItemId>::detach_helper_grow(int, int) 0x00026dbd   Thumb Code   186  QtOrganizer.in(t._ZN5QListIN10QtMobility16QOrganizerItemIdEE18detach_helper_growEii)
    QList<QtMobility::QOrganizerItemId>::free(QListData::Data*) 0x00026e7f   Thumb Code    48  QtOrganizer.in(t._ZN5QListIN10QtMobility16QOrganizerItemIdEE4freeEPN9QListData4DataE)
    QList<QtMobility::QOrganizerItemId>::clear() 0x00026eaf   Thumb Code    26  QtOrganizer.in(t._ZN5QListIN10QtMobility16QOrganizerItemIdEE5clearEv)
    QList<QtMobility::QOrganizerItemId>::append(const QtMobility::QOrganizerItemId&) 0x00026ed5   Thumb Code    94  QtOrganizer.in(t._ZN5QListIN10QtMobility16QOrganizerItemIdEE6appendERKS1_)
    QList<QtMobility::QOrganizerItemId>::reserve(int) 0x00026f41   Thumb Code   116  QtOrganizer.in(t._ZN5QListIN10QtMobility16QOrganizerItemIdEE7reserveEi)
    QList<QtMobility::QOrganizerItemId>::node_copy(QList<QtMobility::QOrganizerItemId>::Node*, QList<QtMobility::QOrganizerItemId>::Node*, QList<QtMobility::QOrganizerItemId>::Node*) 0x00026fbd   Thumb Code    70  QtOrganizer.in(t._ZN5QListIN10QtMobility16QOrganizerItemIdEE9node_copyEPNS2_4NodeES4_S4_)
    QList<QtMobility::QOrganizerItemId>::removeAll(const QtMobility::QOrganizerItemId&) 0x00027019   Thumb Code   106  QtOrganizer.in(t._ZN5QListIN10QtMobility16QOrganizerItemIdEE9removeAllERKS1_)
    QList<QtMobility::QOrganizerItemId>::QList(const QList<QtMobility::QOrganizerItemId>&) 0x00027093   Thumb Code    30  QtOrganizer.in(t._ZN5QListIN10QtMobility16QOrganizerItemIdEEC1ERKS2_)
    QList<QtMobility::QOrganizerItemId>::QList__sub_object(const QList<QtMobility::QOrganizerItemId>&) 0x00027093   Thumb Code     0  QtOrganizer.in(t._ZN5QListIN10QtMobility16QOrganizerItemIdEEC1ERKS2_)
    QList<QtMobility::QOrganizerItemId>::QList() 0x000270b1   Thumb Code    16  QtOrganizer.in(t._ZN5QListIN10QtMobility16QOrganizerItemIdEEC1Ev)
    QList<QtMobility::QOrganizerItemId>::QList__sub_object() 0x000270b1   Thumb Code     0  QtOrganizer.in(t._ZN5QListIN10QtMobility16QOrganizerItemIdEEC1Ev)
    QList<QtMobility::QOrganizerItemId>::~QList() 0x000270c5   Thumb Code    30  QtOrganizer.in(t._ZN5QListIN10QtMobility16QOrganizerItemIdEED1Ev)
    QList<QtMobility::QOrganizerItemId>::~QList__sub_object() 0x000270c5   Thumb Code     0  QtOrganizer.in(t._ZN5QListIN10QtMobility16QOrganizerItemIdEED1Ev)
    QList<QtMobility::QOrganizerItemId>::operator =(const QList<QtMobility::QOrganizerItemId>&) 0x000270e3   Thumb Code    54  QtOrganizer.in(t._ZN5QListIN10QtMobility16QOrganizerItemIdEEaSERKS2_)
    QList<QtMobility::QOrganizerCollection>::detach_helper(int) 0x00027119   Thumb Code   142  QtOrganizer.in(t._ZN5QListIN10QtMobility20QOrganizerCollectionEE13detach_helperEi)
    QList<QtMobility::QOrganizerCollection>::detach_helper() 0x000271bb   Thumb Code    88  QtOrganizer.in(t._ZN5QListIN10QtMobility20QOrganizerCollectionEE13detach_helperEv)
    QList<QtMobility::QOrganizerCollection>::node_construct(QList<QtMobility::QOrganizerCollection>::Node*, const QtMobility::QOrganizerCollection&) 0x0002721b   Thumb Code    26  QtOrganizer.in(t._ZN5QListIN10QtMobility20QOrganizerCollectionEE14node_constructEPNS2_4NodeERKS1_)
    QList<QtMobility::QOrganizerCollection>::detach_helper_grow(int, int) 0x00027241   Thumb Code   186  QtOrganizer.in(t._ZN5QListIN10QtMobility20QOrganizerCollectionEE18detach_helper_growEii)
    QList<QtMobility::QOrganizerCollection>::free(QListData::Data*) 0x00027303   Thumb Code    54  QtOrganizer.in(t._ZN5QListIN10QtMobility20QOrganizerCollectionEE4freeEPN9QListData4DataE)
    QList<QtMobility::QOrganizerCollection>::append(const QtMobility::QOrganizerCollection&) 0x00027339   Thumb Code    94  QtOrganizer.in(t._ZN5QListIN10QtMobility20QOrganizerCollectionEE6appendERKS1_)
    QList<QtMobility::QOrganizerCollection>::detach() 0x000273a5   Thumb Code    24  QtOrganizer.in(t._ZN5QListIN10QtMobility20QOrganizerCollectionEE6detachEv)
    QList<QtMobility::QOrganizerCollection>::node_copy(QList<QtMobility::QOrganizerCollection>::Node*, QList<QtMobility::QOrganizerCollection>::Node*, QList<QtMobility::QOrganizerCollection>::Node*) 0x000273bd   Thumb Code    70  QtOrganizer.in(t._ZN5QListIN10QtMobility20QOrganizerCollectionEE9node_copyEPNS2_4NodeES4_S4_)
    QList<QtMobility::QOrganizerCollection>::QList() 0x00027419   Thumb Code    16  QtOrganizer.in(t._ZN5QListIN10QtMobility20QOrganizerCollectionEEC1Ev)
    QList<QtMobility::QOrganizerCollection>::QList__sub_object() 0x00027419   Thumb Code     0  QtOrganizer.in(t._ZN5QListIN10QtMobility20QOrganizerCollectionEEC1Ev)
    QList<QtMobility::QOrganizerCollection>::~QList() 0x0002742d   Thumb Code    30  QtOrganizer.in(t._ZN5QListIN10QtMobility20QOrganizerCollectionEED1Ev)
    QList<QtMobility::QOrganizerCollection>::~QList__sub_object() 0x0002742d   Thumb Code     0  QtOrganizer.in(t._ZN5QListIN10QtMobility20QOrganizerCollectionEED1Ev)
    QList<QtMobility::QOrganizerCollection>::operator =(const QList<QtMobility::QOrganizerCollection>&) 0x0002744b   Thumb Code    54  QtOrganizer.in(t._ZN5QListIN10QtMobility20QOrganizerCollectionEEaSERKS2_)
    QList<QtMobility::QOrganizerItemDetail>::detach_helper(int) 0x00027481   Thumb Code    86  QtOrganizer.in(t._ZN5QListIN10QtMobility20QOrganizerItemDetailEE13detach_helperEi)
    QList<QtMobility::QOrganizerItemDetail>::detach_helper() 0x000274df   Thumb Code    12  QtOrganizer.in(t._ZN5QListIN10QtMobility20QOrganizerItemDetailEE13detach_helperEv)
    QList<QtMobility::QOrganizerItemDetail>::node_construct(QList<QtMobility::QOrganizerItemDetail>::Node*, const QtMobility::QOrganizerItemDetail&) 0x000274eb   Thumb Code    26  QtOrganizer.in(t._ZN5QListIN10QtMobility20QOrganizerItemDetailEE14node_constructEPNS2_4NodeERKS1_)
    QList<QtMobility::QOrganizerItemDetail>::detach_helper_grow(int, int) 0x00027511   Thumb Code   186  QtOrganizer.in(t._ZN5QListIN10QtMobility20QOrganizerItemDetailEE18detach_helper_growEii)
    QList<QtMobility::QOrganizerItemDetail>::free(QListData::Data*) 0x000275d3   Thumb Code    48  QtOrganizer.in(t._ZN5QListIN10QtMobility20QOrganizerItemDetailEE4freeEPN9QListData4DataE)
    QList<QtMobility::QOrganizerItemDetail>::clear() 0x00027603   Thumb Code    26  QtOrganizer.in(t._ZN5QListIN10QtMobility20QOrganizerItemDetailEE5clearEv)
    QList<QtMobility::QOrganizerItemDetail>::append(const QtMobility::QOrganizerItemDetail&) 0x00027629   Thumb Code    94  QtOrganizer.in(t._ZN5QListIN10QtMobility20QOrganizerItemDetailEE6appendERKS1_)
    QList<QtMobility::QOrganizerItemDetail>::detach() 0x00027695   Thumb Code    24  QtOrganizer.in(t._ZN5QListIN10QtMobility20QOrganizerItemDetailEE6detachEv)
    QList<QtMobility::QOrganizerItemDetail>::replace(int, const QtMobility::QOrganizerItemDetail&) 0x000276ad   Thumb Code    28  QtOrganizer.in(t._ZN5QListIN10QtMobility20QOrganizerItemDetailEE7replaceEiRKS1_)
    QList<QtMobility::QOrganizerItemDetail>::node_copy(QList<QtMobility::QOrganizerItemDetail>::Node*, QList<QtMobility::QOrganizerItemDetail>::Node*, QList<QtMobility::QOrganizerItemDetail>::Node*) 0x000276c9   Thumb Code    70  QtOrganizer.in(t._ZN5QListIN10QtMobility20QOrganizerItemDetailEE9node_copyEPNS2_4NodeES4_S4_)
    QList<QtMobility::QOrganizerItemDetail>::QList(const QList<QtMobility::QOrganizerItemDetail>&) 0x00027725   Thumb Code    30  QtOrganizer.in(t._ZN5QListIN10QtMobility20QOrganizerItemDetailEEC1ERKS2_)
    QList<QtMobility::QOrganizerItemDetail>::QList__sub_object(const QList<QtMobility::QOrganizerItemDetail>&) 0x00027725   Thumb Code     0  QtOrganizer.in(t._ZN5QListIN10QtMobility20QOrganizerItemDetailEEC1ERKS2_)
    QList<QtMobility::QOrganizerItemDetail>::QList() 0x00027745   Thumb Code    16  QtOrganizer.in(t._ZN5QListIN10QtMobility20QOrganizerItemDetailEEC1Ev)
    QList<QtMobility::QOrganizerItemDetail>::QList__sub_object() 0x00027745   Thumb Code     0  QtOrganizer.in(t._ZN5QListIN10QtMobility20QOrganizerItemDetailEEC1Ev)
    QList<QtMobility::QOrganizerItemDetail>::~QList() 0x00027759   Thumb Code    30  QtOrganizer.in(t._ZN5QListIN10QtMobility20QOrganizerItemDetailEED1Ev)
    QList<QtMobility::QOrganizerItemDetail>::~QList__sub_object() 0x00027759   Thumb Code     0  QtOrganizer.in(t._ZN5QListIN10QtMobility20QOrganizerItemDetailEED1Ev)
    QList<QtMobility::QOrganizerItemDetail>::operator =(const QList<QtMobility::QOrganizerItemDetail>&) 0x00027777   Thumb Code    54  QtOrganizer.in(t._ZN5QListIN10QtMobility20QOrganizerItemDetailEEaSERKS2_)
    QList<QtMobility::QOrganizerItemDetail>::operator [](int) 0x000277ad   Thumb Code    20  QtOrganizer.in(t._ZN5QListIN10QtMobility20QOrganizerItemDetailEEixEi)
    QList<QtMobility::QOrganizerItemFilter>::detach_helper(int) 0x000277c1   Thumb Code    86  QtOrganizer.in(t._ZN5QListIN10QtMobility20QOrganizerItemFilterEE13detach_helperEi)
    QList<QtMobility::QOrganizerItemFilter>::detach_helper() 0x0002781f   Thumb Code    12  QtOrganizer.in(t._ZN5QListIN10QtMobility20QOrganizerItemFilterEE13detach_helperEv)
    QList<QtMobility::QOrganizerItemFilter>::node_construct(QList<QtMobility::QOrganizerItemFilter>::Node*, const QtMobility::QOrganizerItemFilter&) 0x0002782b   Thumb Code    26  QtOrganizer.in(t._ZN5QListIN10QtMobility20QOrganizerItemFilterEE14node_constructEPNS2_4NodeERKS1_)
    QList<QtMobility::QOrganizerItemFilter>::detach_helper_grow(int, int) 0x00027851   Thumb Code   186  QtOrganizer.in(t._ZN5QListIN10QtMobility20QOrganizerItemFilterEE18detach_helper_growEii)
    QList<QtMobility::QOrganizerItemFilter>::end() 0x00027913   Thumb Code    22  QtOrganizer.in(t._ZN5QListIN10QtMobility20QOrganizerItemFilterEE3endEv)
    QList<QtMobility::QOrganizerItemFilter>::free(QListData::Data*) 0x00027929   Thumb Code    48  QtOrganizer.in(t._ZN5QListIN10QtMobility20QOrganizerItemFilterEE4freeEPN9QListData4DataE)
    QList<QtMobility::QOrganizerItemFilter>::begin() 0x00027959   Thumb Code    22  QtOrganizer.in(t._ZN5QListIN10QtMobility20QOrganizerItemFilterEE5beginEv)
    QList<QtMobility::QOrganizerItemFilter>::clear() 0x0002796f   Thumb Code    26  QtOrganizer.in(t._ZN5QListIN10QtMobility20QOrganizerItemFilterEE5clearEv)
    QList<QtMobility::QOrganizerItemFilter>::erase(QList<QtMobility::QOrganizerItemFilter>::iterator) 0x00027993   Thumb Code    26  QtOrganizer.in(t._ZN5QListIN10QtMobility20QOrganizerItemFilterEE5eraseENS2_8iteratorE)
    QList<QtMobility::QOrganizerItemFilter>::first() 0x000279ad   Thumb Code    14  QtOrganizer.in(t._ZN5QListIN10QtMobility20QOrganizerItemFilterEE5firstEv)
    QList<QtMobility::QOrganizerItemFilter>::append(const QtMobility::QOrganizerItemFilter&) 0x000279bd   Thumb Code    94  QtOrganizer.in(t._ZN5QListIN10QtMobility20QOrganizerItemFilterEE6appendERKS1_)
    QList<QtMobility::QOrganizerItemFilter>::detach() 0x00027a29   Thumb Code    28  QtOrganizer.in(t._ZN5QListIN10QtMobility20QOrganizerItemFilterEE6detachEv)
    QList<QtMobility::QOrganizerItemFilter>::node_copy(QList<QtMobility::QOrganizerItemFilter>::Node*, QList<QtMobility::QOrganizerItemFilter>::Node*, QList<QtMobility::QOrganizerItemFilter>::Node*) 0x00027a45   Thumb Code    70  QtOrganizer.in(t._ZN5QListIN10QtMobility20QOrganizerItemFilterEE9node_copyEPNS2_4NodeES4_S4_)
    QList<QtMobility::QOrganizerItemFilter>::removeAll(const QtMobility::QOrganizerItemFilter&) 0x00027aa1   Thumb Code   106  QtOrganizer.in(t._ZN5QListIN10QtMobility20QOrganizerItemFilterEE9removeAllERKS1_)
    QList<QtMobility::QOrganizerItemFilter>::QList(const QList<QtMobility::QOrganizerItemFilter>&) 0x00027b1b   Thumb Code    30  QtOrganizer.in(t._ZN5QListIN10QtMobility20QOrganizerItemFilterEEC1ERKS2_)
    QList<QtMobility::QOrganizerItemFilter>::QList__sub_object(const QList<QtMobility::QOrganizerItemFilter>&) 0x00027b1b   Thumb Code     0  QtOrganizer.in(t._ZN5QListIN10QtMobility20QOrganizerItemFilterEEC1ERKS2_)
    QList<QtMobility::QOrganizerItemFilter>::QList() 0x00027b39   Thumb Code    16  QtOrganizer.in(t._ZN5QListIN10QtMobility20QOrganizerItemFilterEEC1Ev)
    QList<QtMobility::QOrganizerItemFilter>::QList__sub_object() 0x00027b39   Thumb Code     0  QtOrganizer.in(t._ZN5QListIN10QtMobility20QOrganizerItemFilterEEC1Ev)
    QList<QtMobility::QOrganizerItemFilter>::~QList() 0x00027b4d   Thumb Code    30  QtOrganizer.in(t._ZN5QListIN10QtMobility20QOrganizerItemFilterEED1Ev)
    QList<QtMobility::QOrganizerItemFilter>::~QList__sub_object() 0x00027b4d   Thumb Code     0  QtOrganizer.in(t._ZN5QListIN10QtMobility20QOrganizerItemFilterEED1Ev)
    QList<QtMobility::QOrganizerItemFilter>::operator =(const QList<QtMobility::QOrganizerItemFilter>&) 0x00027b6b   Thumb Code    54  QtOrganizer.in(t._ZN5QListIN10QtMobility20QOrganizerItemFilterEEaSERKS2_)
    QList<QtMobility::QOrganizerItemComment>::detach_helper() 0x00027ba1   Thumb Code    88  QtOrganizer.in(t._ZN5QListIN10QtMobility21QOrganizerItemCommentEE13detach_helperEv)
    QList<QtMobility::QOrganizerItemComment>::node_destruct(QList<QtMobility::QOrganizerItemComment>::Node*, QList<QtMobility::QOrganizerItemComment>::Node*) 0x00027c01   Thumb Code    30  QtOrganizer.in(t._ZN5QListIN10QtMobility21QOrganizerItemCommentEE13node_destructEPNS2_4NodeES4_)
    QList<QtMobility::QOrganizerItemComment>::node_construct(QList<QtMobility::QOrganizerItemComment>::Node*, const QtMobility::QOrganizerItemComment&) 0x00027c1f   Thumb Code    32  QtOrganizer.in(t._ZN5QListIN10QtMobility21QOrganizerItemCommentEE14node_constructEPNS2_4NodeERKS1_)
    QList<QtMobility::QOrganizerItemComment>::detach_helper_grow(int, int) 0x00027c49   Thumb Code   180  QtOrganizer.in(t._ZN5QListIN10QtMobility21QOrganizerItemCommentEE18detach_helper_growEii)
    QList<QtMobility::QOrganizerItemComment>::free(QListData::Data*) 0x00027d05   Thumb Code    38  QtOrganizer.in(t._ZN5QListIN10QtMobility21QOrganizerItemCommentEE4freeEPN9QListData4DataE)
    QList<QtMobility::QOrganizerItemComment>::append(const QtMobility::QOrganizerItemComment&) 0x00027d2d   Thumb Code    90  QtOrganizer.in(t._ZN5QListIN10QtMobility21QOrganizerItemCommentEE6appendERKS1_)
    QList<QtMobility::QOrganizerItemComment>::node_copy(QList<QtMobility::QOrganizerItemComment>::Node*, QList<QtMobility::QOrganizerItemComment>::Node*, QList<QtMobility::QOrganizerItemComment>::Node*) 0x00027d95   Thumb Code    80  QtOrganizer.in(t._ZN5QListIN10QtMobility21QOrganizerItemCommentEE9node_copyEPNS2_4NodeES4_S4_)
    QList<QtMobility::QOrganizerItemComment>::~QList() 0x00027df7   Thumb Code    30  QtOrganizer.in(t._ZN5QListIN10QtMobility21QOrganizerItemCommentEED1Ev)
    QList<QtMobility::QOrganizerItemComment>::~QList__sub_object() 0x00027df7   Thumb Code     0  QtOrganizer.in(t._ZN5QListIN10QtMobility21QOrganizerItemCommentEED1Ev)
    QList<QtMobility::QOrganizerCollectionId>::detach_helper(int) 0x00027e15   Thumb Code    86  QtOrganizer.in(t._ZN5QListIN10QtMobility22QOrganizerCollectionIdEE13detach_helperEi)
    QList<QtMobility::QOrganizerCollectionId>::detach_helper() 0x00027e73   Thumb Code    88  QtOrganizer.in(t._ZN5QListIN10QtMobility22QOrganizerCollectionIdEE13detach_helperEv)
    QList<QtMobility::QOrganizerCollectionId>::node_construct(QList<QtMobility::QOrganizerCollectionId>::Node*, const QtMobility::QOrganizerCollectionId&) 0x00027ed3   Thumb Code    26  QtOrganizer.in(t._ZN5QListIN10QtMobility22QOrganizerCollectionIdEE14node_constructEPNS2_4NodeERKS1_)
    QList<QtMobility::QOrganizerCollectionId>::detach_helper_grow(int, int) 0x00027ef9   Thumb Code   186  QtOrganizer.in(t._ZN5QListIN10QtMobility22QOrganizerCollectionIdEE18detach_helper_growEii)
    QList<QtMobility::QOrganizerCollectionId>::free(QListData::Data*) 0x00027fbb   Thumb Code    48  QtOrganizer.in(t._ZN5QListIN10QtMobility22QOrganizerCollectionIdEE4freeEPN9QListData4DataE)
    QList<QtMobility::QOrganizerCollectionId>::append(const QtMobility::QOrganizerCollectionId&) 0x00027fed   Thumb Code    94  QtOrganizer.in(t._ZN5QListIN10QtMobility22QOrganizerCollectionIdEE6appendERKS1_)
    QList<QtMobility::QOrganizerCollectionId>::node_copy(QList<QtMobility::QOrganizerCollectionId>::Node*, QList<QtMobility::QOrganizerCollectionId>::Node*, QList<QtMobility::QOrganizerCollectionId>::Node*) 0x00028059   Thumb Code    70  QtOrganizer.in(t._ZN5QListIN10QtMobility22QOrganizerCollectionIdEE9node_copyEPNS2_4NodeES4_S4_)
    QList<QtMobility::QOrganizerCollectionId>::QList() 0x000280b5   Thumb Code    16  QtOrganizer.in(t._ZN5QListIN10QtMobility22QOrganizerCollectionIdEEC1Ev)
    QList<QtMobility::QOrganizerCollectionId>::QList__sub_object() 0x000280b5   Thumb Code     0  QtOrganizer.in(t._ZN5QListIN10QtMobility22QOrganizerCollectionIdEEC1Ev)
    QList<QtMobility::QOrganizerCollectionId>::~QList() 0x000280c9   Thumb Code    30  QtOrganizer.in(t._ZN5QListIN10QtMobility22QOrganizerCollectionIdEED1Ev)
    QList<QtMobility::QOrganizerCollectionId>::~QList__sub_object() 0x000280c9   Thumb Code     0  QtOrganizer.in(t._ZN5QListIN10QtMobility22QOrganizerCollectionIdEED1Ev)
    QList<QtMobility::QOrganizerCollectionId>::operator =(const QList<QtMobility::QOrganizerCollectionId>&) 0x000280e7   Thumb Code    54  QtOrganizer.in(t._ZN5QListIN10QtMobility22QOrganizerCollectionIdEEaSERKS2_)
    QList<QtMobility::QOrganizerItemSortOrder>::detach_helper(int) 0x0002811d   Thumb Code   142  QtOrganizer.in(t._ZN5QListIN10QtMobility23QOrganizerItemSortOrderEE13detach_helperEi)
    QList<QtMobility::QOrganizerItemSortOrder>::detach_helper() 0x000281bf   Thumb Code    12  QtOrganizer.in(t._ZN5QListIN10QtMobility23QOrganizerItemSortOrderEE13detach_helperEv)
    QList<QtMobility::QOrganizerItemSortOrder>::free(QListData::Data*) 0x000281cb   Thumb Code    54  QtOrganizer.in(t._ZN5QListIN10QtMobility23QOrganizerItemSortOrderEE4freeEPN9QListData4DataE)
    QList<QtMobility::QOrganizerItemSortOrder>::begin() 0x00028201   Thumb Code    34  QtOrganizer.in(t._ZN5QListIN10QtMobility23QOrganizerItemSortOrderEE5beginEv)
    QList<QtMobility::QOrganizerItemSortOrder>::~QList() 0x00028223   Thumb Code    30  QtOrganizer.in(t._ZN5QListIN10QtMobility23QOrganizerItemSortOrderEED1Ev)
    QList<QtMobility::QOrganizerItemSortOrder>::~QList__sub_object() 0x00028223   Thumb Code     0  QtOrganizer.in(t._ZN5QListIN10QtMobility23QOrganizerItemSortOrderEED1Ev)
    QList<QtMobility::QOrganizerItemDetailDefinition>::detach_helper(int) 0x00028241   Thumb Code   142  QtOrganizer.in(t._ZN5QListIN10QtMobility30QOrganizerItemDetailDefinitionEE13detach_helperEi)
    QList<QtMobility::QOrganizerItemDetailDefinition>::detach_helper() 0x000282e3   Thumb Code    88  QtOrganizer.in(t._ZN5QListIN10QtMobility30QOrganizerItemDetailDefinitionEE13detach_helperEv)
    QList<QtMobility::QOrganizerItemDetailDefinition>::node_construct(QList<QtMobility::QOrganizerItemDetailDefinition>::Node*, const QtMobility::QOrganizerItemDetailDefinition&) 0x00028343   Thumb Code    26  QtOrganizer.in(t._ZN5QListIN10QtMobility30QOrganizerItemDetailDefinitionEE14node_constructEPNS2_4NodeERKS1_)
    QList<QtMobility::QOrganizerItemDetailDefinition>::detach_helper_grow(int, int) 0x00028369   Thumb Code   186  QtOrganizer.in(t._ZN5QListIN10QtMobility30QOrganizerItemDetailDefinitionEE18detach_helper_growEii)
    QList<QtMobility::QOrganizerItemDetailDefinition>::free(QListData::Data*) 0x0002842b   Thumb Code    54  QtOrganizer.in(t._ZN5QListIN10QtMobility30QOrganizerItemDetailDefinitionEE4freeEPN9QListData4DataE)
    QList<QtMobility::QOrganizerItemDetailDefinition>::append(const QtMobility::QOrganizerItemDetailDefinition&) 0x00028461   Thumb Code    94  QtOrganizer.in(t._ZN5QListIN10QtMobility30QOrganizerItemDetailDefinitionEE6appendERKS1_)
    QList<QtMobility::QOrganizerItemDetailDefinition>::node_copy(QList<QtMobility::QOrganizerItemDetailDefinition>::Node*, QList<QtMobility::QOrganizerItemDetailDefinition>::Node*, QList<QtMobility::QOrganizerItemDetailDefinition>::Node*) 0x000284cd   Thumb Code    70  QtOrganizer.in(t._ZN5QListIN10QtMobility30QOrganizerItemDetailDefinitionEE9node_copyEPNS2_4NodeES4_S4_)
    QList<QtMobility::QOrganizerItemDetailDefinition>::QList() 0x00028529   Thumb Code    16  QtOrganizer.in(t._ZN5QListIN10QtMobility30QOrganizerItemDetailDefinitionEEC1Ev)
    QList<QtMobility::QOrganizerItemDetailDefinition>::QList__sub_object() 0x00028529   Thumb Code     0  QtOrganizer.in(t._ZN5QListIN10QtMobility30QOrganizerItemDetailDefinitionEEC1Ev)
    QList<QtMobility::QOrganizerItemDetailDefinition>::~QList() 0x0002853d   Thumb Code    30  QtOrganizer.in(t._ZN5QListIN10QtMobility30QOrganizerItemDetailDefinitionEED1Ev)
    QList<QtMobility::QOrganizerItemDetailDefinition>::~QList__sub_object() 0x0002853d   Thumb Code     0  QtOrganizer.in(t._ZN5QListIN10QtMobility30QOrganizerItemDetailDefinitionEED1Ev)
    QList<QtMobility::QOrganizerItemDetailDefinition>::operator =(const QList<QtMobility::QOrganizerItemDetailDefinition>&) 0x0002855b   Thumb Code    54  QtOrganizer.in(t._ZN5QListIN10QtMobility30QOrganizerItemDetailDefinitionEEaSERKS2_)
    QList<QObject*>::~QList()                0x00028591   Thumb Code    42  QtOrganizer.in(t._ZN5QListIP7QObjectED1Ev)
    QList<QObject*>::~QList__sub_object()    0x00028591   Thumb Code     0  QtOrganizer.in(t._ZN5QListIP7QObjectED1Ev)
    QList<QtMobility::QOrganizerManagerEngine*>::detach_helper() 0x000285bb   Thumb Code    88  QtOrganizer.in(t._ZN5QListIPN10QtMobility23QOrganizerManagerEngineEE13detach_helperEv)
    QList<QtMobility::QOrganizerManagerEngine*>::detach_helper_grow(int, int) 0x0002861b   Thumb Code   164  QtOrganizer.in(t._ZN5QListIPN10QtMobility23QOrganizerManagerEngineEE18detach_helper_growEii)
    QList<QtMobility::QOrganizerManagerEngine*>::free(QListData::Data*) 0x000286c7   Thumb Code    24  QtOrganizer.in(t._ZN5QListIPN10QtMobility23QOrganizerManagerEngineEE4freeEPN9QListData4DataE)
    QList<QtMobility::QOrganizerManagerEngine*>::node_copy(QList<QtMobility::QOrganizerManagerEngine*>::Node*, QList<QtMobility::QOrganizerManagerEngine*>::Node*, QList<QtMobility::QOrganizerManagerEngine*>::Node*) 0x000286df   Thumb Code    28  QtOrganizer.in(t._ZN5QListIPN10QtMobility23QOrganizerManagerEngineEE9node_copyEPNS3_4NodeES5_S5_)
    QList<QtMobility::QOrganizerManagerEngine*>::~QList() 0x000286fb   Thumb Code    30  QtOrganizer.in(t._ZN5QListIPN10QtMobility23QOrganizerManagerEngineEED1Ev)
    QList<QtMobility::QOrganizerManagerEngine*>::~QList__sub_object() 0x000286fb   Thumb Code     0  QtOrganizer.in(t._ZN5QListIPN10QtMobility23QOrganizerManagerEngineEED1Ev)
    QList<QtMobility::QOrganizerManagerEngineFactory*>::detach_helper(int) 0x00028719   Thumb Code    86  QtOrganizer.in(t._ZN5QListIPN10QtMobility30QOrganizerManagerEngineFactoryEE13detach_helperEi)
    QList<QtMobility::QOrganizerManagerEngineFactory*>::detach_helper() 0x00028777   Thumb Code    12  QtOrganizer.in(t._ZN5QListIPN10QtMobility30QOrganizerManagerEngineFactoryEE13detach_helperEv)
    QList<QtMobility::QOrganizerManagerEngineFactory*>::detach_helper_grow(int, int) 0x00028783   Thumb Code   164  QtOrganizer.in(t._ZN5QListIPN10QtMobility30QOrganizerManagerEngineFactoryEE18detach_helper_growEii)
    QList<QtMobility::QOrganizerManagerEngineFactory*>::free(QListData::Data*) 0x0002882f   Thumb Code    24  QtOrganizer.in(t._ZN5QListIPN10QtMobility30QOrganizerManagerEngineFactoryEE4freeEPN9QListData4DataE)
    QList<QtMobility::QOrganizerManagerEngineFactory*>::append(QtMobility::QOrganizerManagerEngineFactory*const &) 0x00028849   Thumb Code    54  QtOrganizer.in(t._ZN5QListIPN10QtMobility30QOrganizerManagerEngineFactoryEE6appendERKS2_)
    QList<QtMobility::QOrganizerManagerEngineFactory*>::node_copy(QList<QtMobility::QOrganizerManagerEngineFactory*>::Node*, QList<QtMobility::QOrganizerManagerEngineFactory*>::Node*, QList<QtMobility::QOrganizerManagerEngineFactory*>::Node*) 0x0002888f   Thumb Code    28  QtOrganizer.in(t._ZN5QListIPN10QtMobility30QOrganizerManagerEngineFactoryEE9node_copyEPNS3_4NodeES5_S5_)
    QList<QtMobility::QOrganizerManagerEngineFactory*>::QList() 0x000288ad   Thumb Code    16  QtOrganizer.in(t._ZN5QListIPN10QtMobility30QOrganizerManagerEngineFactoryEEC1Ev)
    QList<QtMobility::QOrganizerManagerEngineFactory*>::QList__sub_object() 0x000288ad   Thumb Code     0  QtOrganizer.in(t._ZN5QListIPN10QtMobility30QOrganizerManagerEngineFactoryEEC1Ev)
    QList<QtMobility::QOrganizerManagerEngineFactory*>::~QList() 0x000288c1   Thumb Code    30  QtOrganizer.in(t._ZN5QListIPN10QtMobility30QOrganizerManagerEngineFactoryEED1Ev)
    QList<QtMobility::QOrganizerManagerEngineFactory*>::~QList__sub_object() 0x000288c1   Thumb Code     0  QtOrganizer.in(t._ZN5QListIPN10QtMobility30QOrganizerManagerEngineFactoryEED1Ev)
    QList<int>::detach_helper(int)           0x000288df   Thumb Code    98  QtOrganizer.in(t._ZN5QListIiE13detach_helperEi)
    QList<int>::free(QListData::Data*)       0x00028949   Thumb Code    24  QtOrganizer.in(t._ZN5QListIiE4freeEPN9QListData4DataE)
    QList<int>::~QList()                     0x00028961   Thumb Code    30  QtOrganizer.in(t._ZN5QListIiED1Ev)
    QList<int>::~QList__sub_object()         0x00028961   Thumb Code     0  QtOrganizer.in(t._ZN5QListIiED1Ev)
    QPointer<QtMobility::QOrganizerManager>::~QPointer() 0x0002897f   Thumb Code    12  QtOrganizer.in(t._ZN8QPointerIN10QtMobility17QOrganizerManagerEED1Ev)
    QPointer<QtMobility::QOrganizerManager>::~QPointer__sub_object() 0x0002897f   Thumb Code     0  QtOrganizer.in(t._ZN8QPointerIN10QtMobility17QOrganizerManagerEED1Ev)
    QPointer<QtMobility::QOrganizerManagerEngine>::~QPointer() 0x0002898b   Thumb Code    12  QtOrganizer.in(t._ZN8QPointerIN10QtMobility23QOrganizerManagerEngineEED1Ev)
    QPointer<QtMobility::QOrganizerManagerEngine>::~QPointer__sub_object() 0x0002898b   Thumb Code     0  QtOrganizer.in(t._ZN8QPointerIN10QtMobility23QOrganizerManagerEngineEED1Ev)
    QVariant::fromValue<QSet<QDate>>(const T1&) 0x00028997   Thumb Code    24  QtOrganizer.in(t._ZN8QVariant9fromValueI4QSetI5QDateEEES_RKT_)
    QVariant::fromValue<QSet<QtMobility::QOrganizerRecurrenceRule>>(const T1&) 0x000289af   Thumb Code    24  QtOrganizer.in(t._ZN8QVariant9fromValueI4QSetIN10QtMobility24QOrganizerRecurrenceRuleEEEES_RKT_)
    QHashNode<QString, QtMobility::QOrganizerManagerEngineFactory*>::QHashNode(const QString&, QtMobility::QOrganizerManagerEngineFactory*const &) 0x000289c7   Thumb Code    18  QtOrganizer.in(t._ZN9QHashNodeI7QStringPN10QtMobility30QOrganizerManagerEngineFactoryEEC1ERKS0_RKS3_)
    QHashNode<QString, QtMobility::QOrganizerManagerEngineFactory*>::QHashNode__sub_object(const QString&, QtMobility::QOrganizerManagerEngineFactory*const &) 0x000289c7   Thumb Code     0  QtOrganizer.in(t._ZN9QHashNodeI7QStringPN10QtMobility30QOrganizerManagerEngineFactoryEEC1ERKS0_RKS3_)
    QHashNode<QString, char*>::QHashNode(const QString&, char*const &) 0x000289d9   Thumb Code    18  QtOrganizer.in(t._ZN9QHashNodeI7QStringPcEC1ERKS0_RKS1_)
    QHashNode<QString, char*>::QHashNode__sub_object(const QString&, char*const &) 0x000289d9   Thumb Code     0  QtOrganizer.in(t._ZN9QHashNodeI7QStringPcEC1ERKS0_RKS1_)
    QHashNode<QtMobility::QOrganizerItemId, QtMobility::QOrganizerItem>::QHashNode(const QtMobility::QOrganizerItemId&, const QtMobility::QOrganizerItem&) 0x000289eb   Thumb Code    28  QtOrganizer.in(t._ZN9QHashNodeIN10QtMobility16QOrganizerItemIdENS0_14QOrganizerItemEEC1ERKS1_RKS2_)
    QHashNode<QtMobility::QOrganizerItemId, QtMobility::QOrganizerItem>::QHashNode__sub_object(const QtMobility::QOrganizerItemId&, const QtMobility::QOrganizerItem&) 0x000289eb   Thumb Code     0  QtOrganizer.in(t._ZN9QHashNodeIN10QtMobility16QOrganizerItemIdENS0_14QOrganizerItemEEC1ERKS1_RKS2_)
    QHashNode<QtMobility::QOrganizerItemId, QtMobility::QOrganizerItemId>::QHashNode(const QtMobility::QOrganizerItemId&, const QtMobility::QOrganizerItemId&) 0x00028a13   Thumb Code    28  QtOrganizer.in(t._ZN9QHashNodeIN10QtMobility16QOrganizerItemIdES1_EC1ERKS1_S4_)
    QHashNode<QtMobility::QOrganizerItemId, QtMobility::QOrganizerItemId>::QHashNode__sub_object(const QtMobility::QOrganizerItemId&, const QtMobility::QOrganizerItemId&) 0x00028a13   Thumb Code     0  QtOrganizer.in(t._ZN9QHashNodeIN10QtMobility16QOrganizerItemIdES1_EC1ERKS1_S4_)
    QHashNode<QtMobility::QOrganizerItemStringHolder, QVariant>::QHashNode(const QtMobility::QOrganizerItemStringHolder&, const QVariant&) 0x00028a3b   Thumb Code    22  QtOrganizer.in(t._ZN9QHashNodeIN10QtMobility26QOrganizerItemStringHolderE8QVariantEC1ERKS1_RKS2_)
    QHashNode<QtMobility::QOrganizerItemStringHolder, QVariant>::QHashNode__sub_object(const QtMobility::QOrganizerItemStringHolder&, const QVariant&) 0x00028a3b   Thumb Code     0  QtOrganizer.in(t._ZN9QHashNodeIN10QtMobility26QOrganizerItemStringHolderE8QVariantEC1ERKS1_RKS2_)
    QHashNode<const char*, QString>::QHashNode(const char*const &, const QString&) 0x00028a5b   Thumb Code    18  QtOrganizer.in(t._ZN9QHashNodeIPKc7QStringEC1ERKS1_RKS2_)
    QHashNode<const char*, QString>::QHashNode__sub_object(const char*const &, const QString&) 0x00028a5b   Thumb Code     0  QtOrganizer.in(t._ZN9QHashNodeIPKc7QStringEC1ERKS1_RKS2_)
    QMultiMap<QtMobility::QOrganizerCollectionId, QtMobility::QOrganizerItemId>::remove(const QtMobility::QOrganizerCollectionId&, const QtMobility::QOrganizerItemId&) 0x00028a6d   Thumb Code    96  QtOrganizer.in(t._ZN9QMultiMapIN10QtMobility22QOrganizerCollectionIdENS0_16QOrganizerItemIdEE6removeERKS1_RKS2_)
    QtMobility::QOrganizerItem::detail<QtMobility::QOrganizerItemGuid>() const 0x00028acd   Thumb Code    32  QtOrganizer.in(t._ZNK10QtMobility14QOrganizerItem6detailINS_18QOrganizerItemGuidEEET_v)
    QtMobility::QOrganizerItem::detail<QtMobility::QOrganizerItemType>() const 0x00028afd   Thumb Code    32  QtOrganizer.in(t._ZNK10QtMobility14QOrganizerItem6detailINS_18QOrganizerItemTypeEEET_v)
    QtMobility::QOrganizerItem::detail<QtMobility::QOrganizerTodoTime>() const 0x00028b2d   Thumb Code    32  QtOrganizer.in(t._ZNK10QtMobility14QOrganizerItem6detailINS_18QOrganizerTodoTimeEEET_v)
    QtMobility::QOrganizerItem::detail<QtMobility::QOrganizerEventTime>() const 0x00028b5d   Thumb Code    32  QtOrganizer.in(t._ZNK10QtMobility14QOrganizerItem6detailINS_19QOrganizerEventTimeEEET_v)
    QtMobility::QOrganizerItem::detail<QtMobility::QOrganizerItemParent>() const 0x00028b8d   Thumb Code    32  QtOrganizer.in(t._ZNK10QtMobility14QOrganizerItem6detailINS_20QOrganizerItemParentEEET_v)
    QtMobility::QOrganizerItem::detail<QtMobility::QOrganizerJournalTime>() const 0x00028bbd   Thumb Code    32  QtOrganizer.in(t._ZNK10QtMobility14QOrganizerItem6detailINS_21QOrganizerJournalTimeEEET_v)
    QtMobility::QOrganizerItem::detail<QtMobility::QOrganizerItemLocation>() const 0x00028bed   Thumb Code    32  QtOrganizer.in(t._ZNK10QtMobility14QOrganizerItem6detailINS_22QOrganizerItemLocationEEET_v)
    QtMobility::QOrganizerItem::detail<QtMobility::QOrganizerItemPriority>() const 0x00028c1d   Thumb Code    32  QtOrganizer.in(t._ZNK10QtMobility14QOrganizerItem6detailINS_22QOrganizerItemPriorityEEET_v)
    QtMobility::QOrganizerItem::detail<QtMobility::QOrganizerTodoProgress>() const 0x00028c4d   Thumb Code    32  QtOrganizer.in(t._ZNK10QtMobility14QOrganizerItem6detailINS_22QOrganizerTodoProgressEEET_v)
    QtMobility::QOrganizerItem::detail<QtMobility::QOrganizerItemRecurrence>() const 0x00028c7d   Thumb Code    32  QtOrganizer.in(t._ZNK10QtMobility14QOrganizerItem6detailINS_24QOrganizerItemRecurrenceEEET_v)
    QtMobility::QOrganizerItem::detail<QtMobility::QOrganizerItemDescription>() const 0x00028cad   Thumb Code    32  QtOrganizer.in(t._ZNK10QtMobility14QOrganizerItem6detailINS_25QOrganizerItemDescriptionEEET_v)
    QtMobility::QOrganizerItem::detail<QtMobility::QOrganizerItemDisplayLabel>() const 0x00028cdd   Thumb Code    32  QtOrganizer.in(t._ZNK10QtMobility14QOrganizerItem6detailINS_26QOrganizerItemDisplayLabelEEET_v)
    QtMobility::QOrganizerItem::details<QtMobility::QOrganizerItemComment>() const 0x00028d0d   Thumb Code    80  QtOrganizer.in(t._ZNK10QtMobility14QOrganizerItem7detailsINS_21QOrganizerItemCommentEEE5QListIT_Ev)
    QtMobility::QLatin1Constant<(int)10>::operator QString() const 0x00028d7b   Thumb Code    10  QtOrganizer.in(t._ZNK10QtMobility15QLatin1ConstantILi10EEcv7QStringEv)
    QtMobility::QLatin1Constant<(int)11>::operator QString() const 0x00028d85   Thumb Code    10  QtOrganizer.in(t._ZNK10QtMobility15QLatin1ConstantILi11EEcv7QStringEv)
    QtMobility::QLatin1Constant<(int)12>::operator QString() const 0x00028d8f   Thumb Code    10  QtOrganizer.in(t._ZNK10QtMobility15QLatin1ConstantILi12EEcv7QStringEv)
    QtMobility::QLatin1Constant<(int)13>::operator QString() const 0x00028d99   Thumb Code    10  QtOrganizer.in(t._ZNK10QtMobility15QLatin1ConstantILi13EEcv7QStringEv)
    QtMobility::QLatin1Constant<(int)14>::operator QString() const 0x00028da3   Thumb Code    10  QtOrganizer.in(t._ZNK10QtMobility15QLatin1ConstantILi14EEcv7QStringEv)
    QtMobility::QLatin1Constant<(int)15>::operator QString() const 0x00028dad   Thumb Code    10  QtOrganizer.in(t._ZNK10QtMobility15QLatin1ConstantILi15EEcv7QStringEv)
    QtMobility::QLatin1Constant<(int)16>::operator QString() const 0x00028db7   Thumb Code    10  QtOrganizer.in(t._ZNK10QtMobility15QLatin1ConstantILi16EEcv7QStringEv)
    QtMobility::QLatin1Constant<(int)18>::operator QString() const 0x00028dc1   Thumb Code    10  QtOrganizer.in(t._ZNK10QtMobility15QLatin1ConstantILi18EEcv7QStringEv)
    QtMobility::QLatin1Constant<(int)19>::operator QString() const 0x00028dcb   Thumb Code    10  QtOrganizer.in(t._ZNK10QtMobility15QLatin1ConstantILi19EEcv7QStringEv)
    QtMobility::QLatin1Constant<(int)22>::operator QString() const 0x00028dd5   Thumb Code    10  QtOrganizer.in(t._ZNK10QtMobility15QLatin1ConstantILi22EEcv7QStringEv)
    QtMobility::QLatin1Constant<(int)4>::operator QString() const 0x00028ddf   Thumb Code    10  QtOrganizer.in(t._ZNK10QtMobility15QLatin1ConstantILi4EEcv7QStringEv)
    QtMobility::QLatin1Constant<(int)5>::operator QString() const 0x00028de9   Thumb Code    10  QtOrganizer.in(t._ZNK10QtMobility15QLatin1ConstantILi5EEcv7QStringEv)
    QtMobility::QLatin1Constant<(int)6>::operator QString() const 0x00028df3   Thumb Code    10  QtOrganizer.in(t._ZNK10QtMobility15QLatin1ConstantILi6EEcv7QStringEv)
    QtMobility::QLatin1Constant<(int)7>::operator QString() const 0x00028dfd   Thumb Code    10  QtOrganizer.in(t._ZNK10QtMobility15QLatin1ConstantILi7EEcv7QStringEv)
    QtMobility::QLatin1Constant<(int)8>::operator QString() const 0x00028e07   Thumb Code    10  QtOrganizer.in(t._ZNK10QtMobility15QLatin1ConstantILi8EEcv7QStringEv)
    QtMobility::QLatin1Constant<(int)9>::operator QString() const 0x00028e11   Thumb Code    10  QtOrganizer.in(t._ZNK10QtMobility15QLatin1ConstantILi9EEcv7QStringEv)
    QtMobility::QOrganizerItemDetail::value<QDateTime>(const char*) const 0x00028e1b   Thumb Code    98  QtOrganizer.in(t._ZNK10QtMobility20QOrganizerItemDetail5valueI9QDateTimeEET_PKc)
    QtMobility::QOrganizerItemDetail::value<int>(const char*) const 0x00028e8f   Thumb Code    66  QtOrganizer.in(t._ZNK10QtMobility20QOrganizerItemDetail5valueIiEET_PKc)
    QMapIterator<QString, QVariant>::hasNext() const 0x00028edb   Thumb Code    20  QtOrganizer.in(t._ZNK12QMapIteratorI7QString8QVariantE7hasNextEv)
    QWeakPointer<QtMobility::QOrganizerItemSaveRequest>::data() const 0x00028eef   Thumb Code    30  QtOrganizer.in(t._ZNK12QWeakPointerIN10QtMobility25QOrganizerItemSaveRequestEE4dataEv)
    QWeakPointer<QtMobility::QOrganizerItemFetchRequest>::data() const 0x00028f0d   Thumb Code    30  QtOrganizer.in(t._ZNK12QWeakPointerIN10QtMobility26QOrganizerItemFetchRequestEE4dataEv)
    QWeakPointer<QtMobility::QOrganizerItemRemoveRequest>::data() const 0x00028f2b   Thumb Code    30  QtOrganizer.in(t._ZNK12QWeakPointerIN10QtMobility27QOrganizerItemRemoveRequestEE4dataEv)
    QWeakPointer<QtMobility::QOrganizerItemIdFetchRequest>::data() const 0x00028f49   Thumb Code    30  QtOrganizer.in(t._ZNK12QWeakPointerIN10QtMobility28QOrganizerItemIdFetchRequestEE4dataEv)
    QWeakPointer<QtMobility::QOrganizerCollectionSaveRequest>::data() const 0x00028f67   Thumb Code    30  QtOrganizer.in(t._ZNK12QWeakPointerIN10QtMobility31QOrganizerCollectionSaveRequestEE4dataEv)
    QWeakPointer<QtMobility::QOrganizerCollectionFetchRequest>::data() const 0x00028f85   Thumb Code    30  QtOrganizer.in(t._ZNK12QWeakPointerIN10QtMobility32QOrganizerCollectionFetchRequestEE4dataEv)
    QWeakPointer<QtMobility::QOrganizerCollectionRemoveRequest>::data() const 0x00028fa3   Thumb Code    30  QtOrganizer.in(t._ZNK12QWeakPointerIN10QtMobility33QOrganizerCollectionRemoveRequestEE4dataEv)
    QWeakPointer<QtMobility::QOrganizerItemFetchForExportRequest>::data() const 0x00028fc1   Thumb Code    30  QtOrganizer.in(t._ZNK12QWeakPointerIN10QtMobility35QOrganizerItemFetchForExportRequestEE4dataEv)
    QWeakPointer<QtMobility::QOrganizerItemOccurrenceFetchRequest>::data() const 0x00028fdf   Thumb Code    30  QtOrganizer.in(t._ZNK12QWeakPointerIN10QtMobility36QOrganizerItemOccurrenceFetchRequestEE4dataEv)
    QWeakPointer<QtMobility::QOrganizerItemDetailDefinitionSaveRequest>::data() const 0x00028ffd   Thumb Code    30  QtOrganizer.in(t._ZNK12QWeakPointerIN10QtMobility41QOrganizerItemDetailDefinitionSaveRequestEE4dataEv)
    QWeakPointer<QtMobility::QOrganizerItemDetailDefinitionFetchRequest>::data() const 0x0002901b   Thumb Code    30  QtOrganizer.in(t._ZNK12QWeakPointerIN10QtMobility42QOrganizerItemDetailDefinitionFetchRequestEE4dataEv)
    QWeakPointer<QtMobility::QOrganizerItemDetailDefinitionRemoveRequest>::data() const 0x00029039   Thumb Code    30  QtOrganizer.in(t._ZNK12QWeakPointerIN10QtMobility43QOrganizerItemDetailDefinitionRemoveRequestEE4dataEv)
    QForeachContainer<QSet<QDate>>::condition() const 0x00029057   Thumb Code    26  QtOrganizer.in(t._ZNK17QForeachContainerI4QSetI5QDateEE9conditionEv)
    QForeachContainer<QSet<QtMobility::QOrganizerRecurrenceRule>>::condition() const 0x00029071   Thumb Code    26  QtOrganizer.in(t._ZNK17QForeachContainerI4QSetIN10QtMobility24QOrganizerRecurrenceRuleEEE9conditionEv)
    QForeachContainer<QSet<int>>::condition() const 0x0002908b   Thumb Code    26  QtOrganizer.in(t._ZNK17QForeachContainerI4QSetIiEE9conditionEv)
    QForeachContainer<QHash<QtMobility::QOrganizerItemId, QtMobility::QOrganizerItem>>::condition() const 0x000290a5   Thumb Code    26  QtOrganizer.in(t._ZNK17QForeachContainerI5QHashIN10QtMobility16QOrganizerItemIdENS1_14QOrganizerItemEEE9conditionEv)
    QForeachContainer<QList<QDateTime>>::condition() const 0x000290bf   Thumb Code    26  QtOrganizer.in(t._ZNK17QForeachContainerI5QListI9QDateTimeEE9conditionEv)
    QForeachContainer<QList<QtMobility::QOrganizerItem>>::condition() const 0x000290d9   Thumb Code    26  QtOrganizer.in(t._ZNK17QForeachContainerI5QListIN10QtMobility14QOrganizerItemEEE9conditionEv)
    QForeachContainer<QList<QtMobility::QOrganizerItemId>>::condition() const 0x000290f3   Thumb Code    26  QtOrganizer.in(t._ZNK17QForeachContainerI5QListIN10QtMobility16QOrganizerItemIdEEE9conditionEv)
    QForeachContainer<QList<QtMobility::QOrganizerItemDetail>>::condition() const 0x0002910d   Thumb Code    26  QtOrganizer.in(t._ZNK17QForeachContainerI5QListIN10QtMobility20QOrganizerItemDetailEEE9conditionEv)
    QForeachContainer<QList<QtMobility::QOrganizerItemComment>>::condition() const 0x00029127   Thumb Code    26  QtOrganizer.in(t._ZNK17QForeachContainerI5QListIN10QtMobility21QOrganizerItemCommentEEE9conditionEv)
    QForeachContainer<QList<QtMobility::QOrganizerCollectionId>>::condition() const 0x00029141   Thumb Code    26  QtOrganizer.in(t._ZNK17QForeachContainerI5QListIN10QtMobility22QOrganizerCollectionIdEEE9conditionEv)
    QForeachContainer<QList<QtMobility::QOrganizerManagerEngineFactory*>>::condition() const 0x0002915b   Thumb Code    26  QtOrganizer.in(t._ZNK17QForeachContainerI5QListIPN10QtMobility30QOrganizerManagerEngineFactoryEEE9conditionEv)
    QMap<QString, QVariant>::const_iterator::operator !=(const QMap<QString, QVariant>::const_iterator&) const 0x00029175   Thumb Code    16  QtOrganizer.in(t._ZNK4QMapI7QString8QVariantE14const_iteratorneERKS3_)
    QMap<QString, QVariant>::mutableFindNode(QMapData::Node**, const QString&) const 0x00029185   Thumb Code    86  QtOrganizer.in(t._ZNK4QMapI7QString8QVariantE15mutableFindNodeEPPN8QMapData4NodeERKS0_)
    QMap<QString, QVariant>::contains(const QString&) const 0x000291db   Thumb Code    90  QtOrganizer.in(t._ZNK4QMapI7QString8QVariantE8containsERKS0_)
    QMap<QString, QtMobility::QOrganizerItemDetailDefinition>::keys() const 0x00029235   Thumb Code    80  QtOrganizer.in(t._ZNK4QMapI7QStringN10QtMobility30QOrganizerItemDetailDefinitionEE4keysEv)
    QMap<QString, QtMobility::QOrganizerItemDetailDefinition>::findNode(const QString&) const 0x0002928f   Thumb Code    82  QtOrganizer.in(t._ZNK4QMapI7QStringN10QtMobility30QOrganizerItemDetailDefinitionEE8findNodeERKS0_)
    QMap<QString, QtMobility::QOrganizerItemDetailFieldDefinition>::mutableFindNode(QMapData::Node**, const QString&) const 0x000292e1   Thumb Code    86  QtOrganizer.in(t._ZNK4QMapI7QStringN10QtMobility35QOrganizerItemDetailFieldDefinitionEE15mutableFindNodeEPPN8QMapData4NodeERKS0_)
    QMap<QString, QtMobility::QOrganizerItemDetailFieldDefinition>::value(const QString&) const 0x00029337   Thumb Code    46  QtOrganizer.in(t._ZNK4QMapI7QStringN10QtMobility35QOrganizerItemDetailFieldDefinitionEE5valueERKS0_)
    QMap<QString, QtMobility::QOrganizerItemDetailFieldDefinition>::contains(const QString&) const 0x00029365   Thumb Code    22  QtOrganizer.in(t._ZNK4QMapI7QStringN10QtMobility35QOrganizerItemDetailFieldDefinitionEE8containsERKS0_)
    QMap<QString, QtMobility::QOrganizerItemDetailFieldDefinition>::findNode(const QString&) const 0x0002937b   Thumb Code    82  QtOrganizer.in(t._ZNK4QMapI7QStringN10QtMobility35QOrganizerItemDetailFieldDefinitionEE8findNodeERKS0_)
    QMap<QString, QtMobility::QOrganizerItemDetailFieldDefinition>::operator ==(const QMap<QString, QtMobility::QOrganizerItemDetailFieldDefinition>&) const 0x000293cd   Thumb Code   112  QtOrganizer.in(t._ZNK4QMapI7QStringN10QtMobility35QOrganizerItemDetailFieldDefinitionEEeqERKS3_)
    QMap<QString, QString>::mutableFindNode(QMapData::Node**, const QString&) const 0x0002943d   Thumb Code    86  QtOrganizer.in(t._ZNK4QMapI7QStringS0_E15mutableFindNodeEPPN8QMapData4NodeERKS0_)
    QMap<QString, QString>::keys() const     0x00029493   Thumb Code    50  QtOrganizer.in(t._ZNK4QMapI7QStringS0_E4keysEv)
    QMap<QString, QString>::findNode(const QString&) const 0x000294cf   Thumb Code    82  QtOrganizer.in(t._ZNK4QMapI7QStringS0_E8findNodeERKS0_)
    QMap<QString, QMap<QString, QtMobility::QOrganizerItemDetailDefinition>>::value(const QString&) const 0x00029521   Thumb Code   108  QtOrganizer.in(t._ZNK4QMapI7QStringS_IS0_N10QtMobility30QOrganizerItemDetailDefinitionEEE5valueERKS0_)
    QMap<QtMobility::QOrganizerCollectionId, QtMobility::QOrganizerItemId>::key(const QtMobility::QOrganizerItemId&) const 0x0002958d   Thumb Code    68  QtOrganizer.in(t._ZNK4QMapIN10QtMobility22QOrganizerCollectionIdENS0_16QOrganizerItemIdEE3keyERKS2_)
    QMap<QtMobility::QOrganizerCollectionId, QtMobility::QOrganizerItemId>::values(const QtMobility::QOrganizerCollectionId&) const 0x000295db   Thumb Code    60  QtOrganizer.in(t._ZNK4QMapIN10QtMobility22QOrganizerCollectionIdENS0_16QOrganizerItemIdEE6valuesERKS1_)
    QMap<QtMobility::QOrganizerCollectionId, QtMobility::QOrganizerItemId>::findNode(const QtMobility::QOrganizerCollectionId&) const 0x00029621   Thumb Code    82  QtOrganizer.in(t._ZNK4QMapIN10QtMobility22QOrganizerCollectionIdENS0_16QOrganizerItemIdEE8findNodeERKS1_)
    QMap<int, QtMobility::QOrganizerManager::Error>::isEmpty() const 0x00029673   Thumb Code    16  QtOrganizer.in(t._ZNK4QMapIiN10QtMobility17QOrganizerManager5ErrorEE7isEmptyEv)
    QSet<QDate>::contains(const QDate&) const 0x00029683   Thumb Code    26  QtOrganizer.in(t._ZNK4QSetI5QDateE8containsERKS0_)
    QSet<QString>::contains(const QString&) const 0x0002969d   Thumb Code    26  QtOrganizer.in(t._ZNK4QSetI7QStringE8containsERKS0_)
    QSet<QtMobility::QOrganizerItemId>::toList() const 0x000296b9   Thumb Code   114  QtOrganizer.in(t._ZNK4QSetIN10QtMobility16QOrganizerItemIdEE6toListEv)
    QSet<QtMobility::QOrganizerItemId>::isEmpty() const 0x0002973b   Thumb Code    16  QtOrganizer.in(t._ZNK4QSetIN10QtMobility16QOrganizerItemIdEE7isEmptyEv)
    QSet<QtMobility::QOrganizerCollectionId>::toList() const 0x0002974d   Thumb Code   114  QtOrganizer.in(t._ZNK4QSetIN10QtMobility22QOrganizerCollectionIdEE6toListEv)
    QSet<QtMobility::QOrganizerCollectionId>::isEmpty() const 0x000297cf   Thumb Code    16  QtOrganizer.in(t._ZNK4QSetIN10QtMobility22QOrganizerCollectionIdEE7isEmptyEv)
    QSet<QtMobility::QOrganizerRecurrenceRule::Month>::isEmpty() const 0x000297df   Thumb Code    16  QtOrganizer.in(t._ZNK4QSetIN10QtMobility24QOrganizerRecurrenceRule5MonthEE7isEmptyEv)
    QSet<QtMobility::QOrganizerRecurrenceRule>::isEmpty() const 0x000297ef   Thumb Code    16  QtOrganizer.in(t._ZNK4QSetIN10QtMobility24QOrganizerRecurrenceRuleEE7isEmptyEv)
    QSet<Qt::DayOfWeek>::isEmpty() const     0x000297ff   Thumb Code    16  QtOrganizer.in(t._ZNK4QSetIN2Qt9DayOfWeekEE7isEmptyEv)
    QSet<int>::isEmpty() const               0x0002980f   Thumb Code    16  QtOrganizer.in(t._ZNK4QSetIiE7isEmptyEv)
    QSet<int>::contains(const int&) const    0x0002981f   Thumb Code    26  QtOrganizer.in(t._ZNK4QSetIiE8containsERKi)
    QSet<int>::operator ==(const QSet<int>&) const 0x00029839   Thumb Code     8  QtOrganizer.in(t._ZNK4QSetIiEeqERKS0_)
    QHash<QDate, QHashDummyValue>::findNode(const QDate&, unsigned*) const 0x00029841   Thumb Code    56  QtOrganizer.in(t._ZNK5QHashI5QDate15QHashDummyValueE8findNodeERKS0_Pj)
    QHash<QDate, QHashDummyValue>::operator ==(const QHash<QDate, QHashDummyValue>&) const 0x00029879   Thumb Code   168  QtOrganizer.in(t._ZNK5QHashI5QDate15QHashDummyValueEeqERKS2_)
    QHash<QString, QHashDummyValue>::findNode(const QString&, unsigned*) const 0x00029921   Thumb Code    90  QtOrganizer.in(t._ZNK5QHashI7QString15QHashDummyValueE8findNodeERKS0_Pj)
    QHash<QString, QtMobility::QOrganizerManagerEngineFactory*>::keys() const 0x0002997b   Thumb Code    78  QtOrganizer.in(t._ZNK5QHashI7QStringPN10QtMobility30QOrganizerManagerEngineFactoryEE4keysEv)
    QHash<QString, QtMobility::QOrganizerManagerEngineFactory*>::begin() const 0x000299d3   Thumb Code    28  QtOrganizer.in(t._ZNK5QHashI7QStringPN10QtMobility30QOrganizerManagerEngineFactoryEE5beginEv)
    QHash<QString, QtMobility::QOrganizerManagerEngineFactory*>::value(const QString&) const 0x000299ef   Thumb Code    36  QtOrganizer.in(t._ZNK5QHashI7QStringPN10QtMobility30QOrganizerManagerEngineFactoryEE5valueERKS0_)
    QHash<QString, QtMobility::QOrganizerManagerEngineFactory*>::values(const QString&) const 0x00029a13   Thumb Code    64  QtOrganizer.in(t._ZNK5QHashI7QStringPN10QtMobility30QOrganizerManagerEngineFactoryEE6valuesERKS0_)
    QHash<QString, QtMobility::QOrganizerManagerEngineFactory*>::values() const 0x00029a5d   Thumb Code    90  QtOrganizer.in(t._ZNK5QHashI7QStringPN10QtMobility30QOrganizerManagerEngineFactoryEE6valuesEv)
    QHash<QString, QtMobility::QOrganizerManagerEngineFactory*>::findNode(const QString&, unsigned*) const 0x00029ac1   Thumb Code    90  QtOrganizer.in(t._ZNK5QHashI7QStringPN10QtMobility30QOrganizerManagerEngineFactoryEE8findNodeERKS0_Pj)
    QHash<QString, char*>::value(const QString&, char*const &) const 0x00029b1b   Thumb Code    38  QtOrganizer.in(t._ZNK5QHashI7QStringPcE5valueERKS0_RKS1_)
    QHash<QString, char*>::findNode(const QString&, unsigned*) const 0x00029b41   Thumb Code    90  QtOrganizer.in(t._ZNK5QHashI7QStringPcE8findNodeERKS0_Pj)
    QHash<QtMobility::QOrganizerItemId, QHashDummyValue>::findNode(const QtMobility::QOrganizerItemId&, unsigned*) const 0x00029b9b   Thumb Code    90  QtOrganizer.in(t._ZNK5QHashIN10QtMobility16QOrganizerItemIdE15QHashDummyValueE8findNodeERKS1_Pj)
    QHash<QtMobility::QOrganizerItemId, QtMobility::QOrganizerItem>::keys() const 0x00029bf5   Thumb Code    88  QtOrganizer.in(t._ZNK5QHashIN10QtMobility16QOrganizerItemIdENS0_14QOrganizerItemEE4keysEv)
    QHash<QtMobility::QOrganizerItemId, QtMobility::QOrganizerItem>::findNode(const QtMobility::QOrganizerItemId&, unsigned*) const 0x00029c57   Thumb Code    90  QtOrganizer.in(t._ZNK5QHashIN10QtMobility16QOrganizerItemIdENS0_14QOrganizerItemEE8findNodeERKS1_Pj)
    QHash<QtMobility::QOrganizerItemId, QtMobility::QOrganizerItemId>::findNode(const QtMobility::QOrganizerItemId&, unsigned*) const 0x00029cb1   Thumb Code    90  QtOrganizer.in(t._ZNK5QHashIN10QtMobility16QOrganizerItemIdES1_E8findNodeERKS1_Pj)
    QHash<QtMobility::QOrganizerCollectionId, QHashDummyValue>::findNode(const QtMobility::QOrganizerCollectionId&, unsigned*) const 0x00029d0b   Thumb Code    90  QtOrganizer.in(t._ZNK5QHashIN10QtMobility22QOrganizerCollectionIdE15QHashDummyValueE8findNodeERKS1_Pj)
    QHash<QtMobility::QOrganizerCollectionId, QHashDummyValue>::operator ==(const QHash<QtMobility::QOrganizerCollectionId, QHashDummyValue>&) const 0x00029d65   Thumb Code   130  QtOrganizer.in(t._ZNK5QHashIN10QtMobility22QOrganizerCollectionIdE15QHashDummyValueEeqERKS3_)
    QHash<QtMobility::QOrganizerRecurrenceRule::Month, QHashDummyValue>::findNode(const QtMobility::QOrganizerRecurrenceRule::Month&, unsigned*) const 0x00029de7   Thumb Code    62  QtOrganizer.in(t._ZNK5QHashIN10QtMobility24QOrganizerRecurrenceRule5MonthE15QHashDummyValueE8findNodeERKS2_Pj)
    QHash<QtMobility::QOrganizerRecurrenceRule::Month, QHashDummyValue>::operator ==(const QHash<QtMobility::QOrganizerRecurrenceRule::Month, QHashDummyValue>&) const 0x00029e25   Thumb Code   178  QtOrganizer.in(t._ZNK5QHashIN10QtMobility24QOrganizerRecurrenceRule5MonthE15QHashDummyValueEeqERKS4_)
    QHash<QtMobility::QOrganizerRecurrenceRule, QHashDummyValue>::findNode(const QtMobility::QOrganizerRecurrenceRule&, unsigned*) const 0x00029ed7   Thumb Code    90  QtOrganizer.in(t._ZNK5QHashIN10QtMobility24QOrganizerRecurrenceRuleE15QHashDummyValueE8findNodeERKS1_Pj)
    QHash<QtMobility::QOrganizerRecurrenceRule, QHashDummyValue>::operator ==(const QHash<QtMobility::QOrganizerRecurrenceRule, QHashDummyValue>&) const 0x00029f31   Thumb Code   192  QtOrganizer.in(t._ZNK5QHashIN10QtMobility24QOrganizerRecurrenceRuleE15QHashDummyValueEeqERKS3_)
    QHash<QtMobility::QOrganizerItemStringHolder, QVariant>::constBegin() const 0x00029ff1   Thumb Code    10  QtOrganizer.in(t._ZNK5QHashIN10QtMobility26QOrganizerItemStringHolderE8QVariantE10constBeginEv)
    QHash<QtMobility::QOrganizerItemStringHolder, QVariant>::const_iterator::operator !=(const QHash<QtMobility::QOrganizerItemStringHolder, QVariant>::const_iterator&) const 0x00029ffb   Thumb Code    16  QtOrganizer.in(t._ZNK5QHashIN10QtMobility26QOrganizerItemStringHolderE8QVariantE14const_iteratorneERKS4_)
    QHash<QtMobility::QOrganizerItemStringHolder, QVariant>::value(const QtMobility::QOrganizerItemStringHolder&) const 0x0002a00b   Thumb Code    52  QtOrganizer.in(t._ZNK5QHashIN10QtMobility26QOrganizerItemStringHolderE8QVariantE5valueERKS1_)
    QHash<QtMobility::QOrganizerItemStringHolder, QVariant>::isEmpty() const 0x0002a03f   Thumb Code    16  QtOrganizer.in(t._ZNK5QHashIN10QtMobility26QOrganizerItemStringHolderE8QVariantE7isEmptyEv)
    QHash<QtMobility::QOrganizerItemStringHolder, QVariant>::contains(const QtMobility::QOrganizerItemStringHolder&) const 0x0002a04f   Thumb Code    26  QtOrganizer.in(t._ZNK5QHashIN10QtMobility26QOrganizerItemStringHolderE8QVariantE8containsERKS1_)
    QHash<QtMobility::QOrganizerItemStringHolder, QVariant>::findNode(const QtMobility::QOrganizerItemStringHolder&, unsigned*) const 0x0002a069   Thumb Code    90  QtOrganizer.in(t._ZNK5QHashIN10QtMobility26QOrganizerItemStringHolderE8QVariantE8findNodeERKS1_Pj)
    QHash<QtMobility::QOrganizerItemStringHolder, QVariant>::operator ==(const QHash<QtMobility::QOrganizerItemStringHolder, QVariant>&) const 0x0002a0c3   Thumb Code   158  QtOrganizer.in(t._ZNK5QHashIN10QtMobility26QOrganizerItemStringHolderE8QVariantEeqERKS3_)
    QHash<Qt::DayOfWeek, QHashDummyValue>::findNode(const Qt::DayOfWeek&, unsigned*) const 0x0002a161   Thumb Code    62  QtOrganizer.in(t._ZNK5QHashIN2Qt9DayOfWeekE15QHashDummyValueE8findNodeERKS1_Pj)
    QHash<Qt::DayOfWeek, QHashDummyValue>::operator ==(const QHash<Qt::DayOfWeek, QHashDummyValue>&) const 0x0002a19f   Thumb Code   178  QtOrganizer.in(t._ZNK5QHashIN2Qt9DayOfWeekE15QHashDummyValueEeqERKS3_)
    QHash<const char*, QString>::findNode(const char*const &, unsigned*) const 0x0002a251   Thumb Code    62  QtOrganizer.in(t._ZNK5QHashIPKc7QStringE8findNodeERKS1_Pj)
    QHash<int, QHashDummyValue>::findNode(const int&, unsigned*) const 0x0002a28f   Thumb Code    50  QtOrganizer.in(t._ZNK5QHashIi15QHashDummyValueE8findNodeERKiPj)
    QHash<int, QHashDummyValue>::operator ==(const QHash<int, QHashDummyValue>&) const 0x0002a2c1   Thumb Code   156  QtOrganizer.in(t._ZNK5QHashIi15QHashDummyValueEeqERKS1_)
    QList<QString>::at(int) const            0x0002a35d   Thumb Code     8  QtOrganizer.in(t._ZNK5QListI7QStringE2atEi)
    QList<QString>::count() const            0x0002a365   Thumb Code     8  QtOrganizer.in(t._ZNK5QListI7QStringE5countEv)
    QList<QString>::value(int) const         0x0002a36d   Thumb Code    44  QtOrganizer.in(t._ZNK5QListI7QStringE5valueEi)
    QList<QString>::contains(const QString&) const 0x0002a399   Thumb Code    54  QtOrganizer.in(t._ZNK5QListI7QStringE8containsERKS0_)
    QList<QVariant>::const_iterator::operator !=(const QList<QVariant>::const_iterator&) const 0x0002a3cf   Thumb Code    16  QtOrganizer.in(t._ZNK5QListI8QVariantE14const_iteratorneERKS2_)
    QList<QVariant>::isEmpty() const         0x0002a3df   Thumb Code    18  QtOrganizer.in(t._ZNK5QListI8QVariantE7isEmptyEv)
    QList<QVariant>::contains(const QVariant&) const 0x0002a3f1   Thumb Code    54  QtOrganizer.in(t._ZNK5QListI8QVariantE8containsERKS0_)
    QList<QtMobility::QOrganizerItem>::mid(int, int) const 0x0002a427   Thumb Code   172  QtOrganizer.in(t._ZNK5QListIN10QtMobility14QOrganizerItemEE3midEii)
    QList<QtMobility::QOrganizerItemId>::contains(const QtMobility::QOrganizerItemId&) const 0x0002a4e1   Thumb Code    54  QtOrganizer.in(t._ZNK5QListIN10QtMobility16QOrganizerItemIdEE8containsERKS1_)
    QList<QtMobility::QOrganizerCollection>::at(int) const 0x0002a517   Thumb Code     8  QtOrganizer.in(t._ZNK5QListIN10QtMobility20QOrganizerCollectionEE2atEi)
    QList<QtMobility::QOrganizerCollection>::size() const 0x0002a51f   Thumb Code     8  QtOrganizer.in(t._ZNK5QListIN10QtMobility20QOrganizerCollectionEE4sizeEv)
    QList<QtMobility::QOrganizerItemDetail>::at(int) const 0x0002a527   Thumb Code     8  QtOrganizer.in(t._ZNK5QListIN10QtMobility20QOrganizerItemDetailEE2atEi)
    QList<QtMobility::QOrganizerItemDetail>::size() const 0x0002a52f   Thumb Code     8  QtOrganizer.in(t._ZNK5QListIN10QtMobility20QOrganizerItemDetailEE4sizeEv)
    QList<QtMobility::QOrganizerItemDetail>::count() const 0x0002a537   Thumb Code     8  QtOrganizer.in(t._ZNK5QListIN10QtMobility20QOrganizerItemDetailEE5countEv)
    QList<QtMobility::QOrganizerItemDetail>::first() const 0x0002a53f   Thumb Code    10  QtOrganizer.in(t._ZNK5QListIN10QtMobility20QOrganizerItemDetailEE5firstEv)
    QList<QtMobility::QOrganizerItemFilter>::count() const 0x0002a549   Thumb Code     8  QtOrganizer.in(t._ZNK5QListIN10QtMobility20QOrganizerItemFilterEE5countEv)
    qLess<QDateTime>::operator ()(const QDateTime&, const QDateTime&) const 0x0002a551   Thumb Code    12  QtOrganizer.in(t._ZNK5qLessI9QDateTimeEclERKS0_S3_)
    QVariant::value<QSet<QDate>>() const     0x0002a55d   Thumb Code    92  QtOrganizer.in(t._ZNK8QVariant5valueI4QSetI5QDateEEET_v)
    QVariant::value<QSet<QtMobility::QOrganizerRecurrenceRule>>() const 0x0002a5c3   Thumb Code    92  QtOrganizer.in(t._ZNK8QVariant5valueI4QSetIN10QtMobility24QOrganizerRecurrenceRuleEEEET_v)
    operator <<<QString, QVariant>(QDataStream&, const QMap<T1, T2>&) 0x0002a629   Thumb Code    64  QtOrganizer.in(t._ZlsI7QString8QVariantER11QDataStreamS3_RK4QMapIT_T0_E)
    operator <<<QString, QtMobility::QOrganizerItemDetailFieldDefinition>(QDataStream&, const QMap<T1, T2>&) 0x0002a669   Thumb Code    62  QtOrganizer.in(t._ZlsI7QStringN10QtMobility35QOrganizerItemDetailFieldDefinitionEER11QDataStreamS4_RK4QMapIT_T0_E)
    operator >><QString, QVariant>(QDataStream&, QMap<T1, T2>&) 0x0002a6a7   Thumb Code   194  QtOrganizer.in(t._ZrsI7QString8QVariantER11QDataStreamS3_R4QMapIT_T0_E)
    operator >><QString>(QDataStream&, QList<T1>&) 0x0002a779   Thumb Code   138  QtOrganizer.in(t._ZrsI7QStringER11QDataStreamS2_R5QListIT_E)
    operator >><QString, QtMobility::QOrganizerItemDetailFieldDefinition>(QDataStream&, QMap<T1, T2>&) 0x0002a81b   Thumb Code   194  QtOrganizer.in(t._ZrsI7QStringN10QtMobility35QOrganizerItemDetailFieldDefinitionEER11QDataStreamS4_R4QMapIT_T0_E)
    operator >><QVariant>(QDataStream&, QList<T1>&) 0x0002a8ed   Thumb Code   156  QtOrganizer.in(t._ZrsI8QVariantER11QDataStreamS2_R5QListIT_E)
    operator >><QtMobility::QOrganizerItemId>(QDataStream&, QList<T1>&) 0x0002a99b   Thumb Code   120  QtOrganizer.in(t._ZrsIN10QtMobility16QOrganizerItemIdEER11QDataStreamS3_R5QListIT_E)
    operator >><QtMobility::QOrganizerItemDetail>(QDataStream&, QList<T1>&) 0x0002aa1d   Thumb Code   120  QtOrganizer.in(t._ZrsIN10QtMobility20QOrganizerItemDetailEER11QDataStreamS3_R5QListIT_E)
    operator >><QtMobility::QOrganizerItemFilter>(QDataStream&, QList<T1>&) 0x0002aa9f   Thumb Code   120  QtOrganizer.in(t._ZrsIN10QtMobility20QOrganizerItemFilterEER11QDataStreamS3_R5QListIT_E)
    operator >><QtMobility::QOrganizerCollectionId>(QDataStream&, QSet<T1>&) 0x0002ab21   Thumb Code    84  QtOrganizer.in(t._ZrsIN10QtMobility22QOrganizerCollectionIdEER11QDataStreamS3_R4QSetIT_E)
    QtMobility::QOrganizerCollection::KeyName 0x0003372c   Data           5  QtOrganizer.in(.constdata)
    QtMobility::QOrganizerCollection::KeyDescription 0x00033731   Data          12  QtOrganizer.in(.constdata)
    QtMobility::QOrganizerCollection::KeyColor 0x0003373d   Data           6  QtOrganizer.in(.constdata)
    QtMobility::QOrganizerCollection::KeyImage 0x00033743   Data           6  QtOrganizer.in(.constdata)
    QtMobility::QOrganizerAbstractRequest::staticMetaObject 0x0003374c   Data          16  QtOrganizer.in(.constdata)
    QtMobility::QOrganizerManager::staticMetaObject 0x000338bc   Data          16  QtOrganizer.in(.constdata)
    QtMobility::QOrganizerManagerEngine::staticMetaObject 0x00033ad0   Data          16  QtOrganizer.in(.constdata)
    QtMobility::QOrganizerItemTag::DefinitionName 0x00033cec   Data           4  QtOrganizer.in(.constdata)
    QtMobility::QOrganizerItemTag::FieldTag  0x00033cf0   Data           4  QtOrganizer.in(.constdata)
    QtMobility::QOrganizerItemDisplayLabel::FieldLabel 0x00033cf4   Data           6  QtOrganizer.in(.constdata)
    QtMobility::QOrganizerItemLocation::FieldLabel 0x00033cfa   Data           6  QtOrganizer.in(.constdata)
    QtMobility::QOrganizerItemComment::DefinitionName 0x00033d00   Data           8  QtOrganizer.in(.constdata)
    QtMobility::QOrganizerItemComment::FieldComment 0x00033d08   Data           8  QtOrganizer.in(.constdata)
    QtMobility::QOrganizerItemDisplayLabel::DefinitionName 0x00033d10   Data          13  QtOrganizer.in(.constdata)
    QtMobility::QOrganizerItemLocation::DefinitionName 0x00033d1d   Data           9  QtOrganizer.in(.constdata)
    QtMobility::QOrganizerItemPriority::DefinitionName 0x00033d26   Data           9  QtOrganizer.in(.constdata)
    QtMobility::QOrganizerItemPriority::FieldPriority 0x00033d2f   Data           9  QtOrganizer.in(.constdata)
    QtMobility::QOrganizerItemRecurrence::FieldRecurrenceRules 0x00033d38   Data          16  QtOrganizer.in(.constdata)
    QtMobility::QOrganizerItemRecurrence::FieldExceptionRules 0x00033d48   Data          15  QtOrganizer.in(.constdata)
    QtMobility::QOrganizerItemRecurrence::FieldRecurrenceDates 0x00033d57   Data          16  QtOrganizer.in(.constdata)
    QtMobility::QOrganizerItemRecurrence::FieldExceptionDates 0x00033d67   Data          15  QtOrganizer.in(.constdata)
    QtMobility::QOrganizerItemAudibleReminder::DefinitionName 0x00033d76   Data          16  QtOrganizer.in(.constdata)
    QtMobility::QOrganizerItemEmailReminder::DefinitionName 0x00033d86   Data          14  QtOrganizer.in(.constdata)
    QtMobility::QOrganizerItemVisualReminder::DefinitionName 0x00033d94   Data          15  QtOrganizer.in(.constdata)
    QtMobility::QOrganizerItemType::DefinitionName 0x00033da3   Data           5  QtOrganizer.in(.constdata)
    QtMobility::QOrganizerItemType::FieldType 0x00033da8   Data           5  QtOrganizer.in(.constdata)
    QtMobility::QOrganizerItemType::TypeEvent 0x00033dad   Data           6  QtOrganizer.in(.constdata)
    QtMobility::QOrganizerItemType::TypeEventOccurrence 0x00033db3   Data          16  QtOrganizer.in(.constdata)
    QtMobility::QOrganizerItemType::TypeTodo 0x00033dc3   Data           5  QtOrganizer.in(.constdata)
    QtMobility::QOrganizerItemType::TypeTodoOccurrence 0x00033dc8   Data          15  QtOrganizer.in(.constdata)
    QtMobility::QOrganizerItemType::TypeJournal 0x00033dd7   Data           8  QtOrganizer.in(.constdata)
    QtMobility::QOrganizerItemType::TypeNote 0x00033ddf   Data           5  QtOrganizer.in(.constdata)
    QtMobility::QOrganizerItemDescription::DefinitionName 0x00033de4   Data          12  QtOrganizer.in(.constdata)
    QtMobility::QOrganizerItemDescription::FieldDescription 0x00033df0   Data          12  QtOrganizer.in(.constdata)
    QtMobility::QOrganizerEventTime::DefinitionName 0x00033dfc   Data          10  QtOrganizer.in(.constdata)
    QtMobility::QOrganizerEventTime::FieldStartDateTime 0x00033e06   Data          14  QtOrganizer.in(.constdata)
    QtMobility::QOrganizerEventTime::FieldEndDateTime 0x00033e14   Data          12  QtOrganizer.in(.constdata)
    QtMobility::QOrganizerEventTime::FieldAllDay 0x00033e20   Data           7  QtOrganizer.in(.constdata)
    QtMobility::QOrganizerItemGuid::DefinitionName 0x00033e27   Data           5  QtOrganizer.in(.constdata)
    QtMobility::QOrganizerItemGuid::FieldGuid 0x00033e2c   Data           5  QtOrganizer.in(.constdata)
    QtMobility::QOrganizerItemLocation::FieldLatitude 0x00033e31   Data           9  QtOrganizer.in(.constdata)
    QtMobility::QOrganizerItemLocation::FieldLongitude 0x00033e3a   Data          10  QtOrganizer.in(.constdata)
    QtMobility::QOrganizerItemParent::DefinitionName 0x00033e44   Data           7  QtOrganizer.in(.constdata)
    QtMobility::QOrganizerItemParent::FieldParentId 0x00033e4b   Data           9  QtOrganizer.in(.constdata)
    QtMobility::QOrganizerItemParent::FieldOriginalDate 0x00033e54   Data          13  QtOrganizer.in(.constdata)
    QtMobility::QOrganizerItemRecurrence::DefinitionName 0x00033e61   Data          11  QtOrganizer.in(.constdata)
    QtMobility::QOrganizerItemTimestamp::DefinitionName 0x00033e6c   Data          10  QtOrganizer.in(.constdata)
    QtMobility::QOrganizerItemTimestamp::FieldModificationTimestamp 0x00033e76   Data          22  QtOrganizer.in(.constdata)
    QtMobility::QOrganizerItemTimestamp::FieldCreationTimestamp 0x00033e8c   Data          18  QtOrganizer.in(.constdata)
    QtMobility::QOrganizerJournalTime::DefinitionName 0x00033e9e   Data          12  QtOrganizer.in(.constdata)
    QtMobility::QOrganizerJournalTime::FieldEntryDateTime 0x00033eaa   Data          14  QtOrganizer.in(.constdata)
    QtMobility::QOrganizerTodoProgress::DefinitionName 0x00033eb8   Data          13  QtOrganizer.in(.constdata)
    QtMobility::QOrganizerTodoProgress::FieldFinishedDateTime 0x00033ec5   Data          17  QtOrganizer.in(.constdata)
    QtMobility::QOrganizerTodoProgress::FieldPercentageComplete 0x00033ed6   Data          19  QtOrganizer.in(.constdata)
    QtMobility::QOrganizerTodoProgress::FieldStatus 0x00033ee9   Data           7  QtOrganizer.in(.constdata)
    QtMobility::QOrganizerTodoTime::DefinitionName 0x00033ef0   Data           9  QtOrganizer.in(.constdata)
    QtMobility::QOrganizerTodoTime::FieldStartDateTime 0x00033ef9   Data          14  QtOrganizer.in(.constdata)
    QtMobility::QOrganizerTodoTime::FieldDueDateTime 0x00033f07   Data          12  QtOrganizer.in(.constdata)
    QtMobility::QOrganizerTodoTime::FieldAllDay 0x00033f13   Data           7  QtOrganizer.in(.constdata)
    QtMobility::QOrganizerItemReminder::DefinitionName 0x00033f1a   Data           9  QtOrganizer.in(.constdata)
    QtMobility::QOrganizerItemReminder::FieldSecondsBeforeStart 0x00033f23   Data          19  QtOrganizer.in(.constdata)
    QtMobility::QOrganizerItemReminder::FieldRepetitionCount 0x00033f36   Data          16  QtOrganizer.in(.constdata)
    QtMobility::QOrganizerItemReminder::FieldRepetitionDelay 0x00033f46   Data          16  QtOrganizer.in(.constdata)
    QtMobility::QOrganizerItemAudibleReminder::FieldDataUrl 0x00033f56   Data           8  QtOrganizer.in(.constdata)
    QtMobility::QOrganizerItemEmailReminder::FieldSubject 0x00033f5e   Data           8  QtOrganizer.in(.constdata)
    QtMobility::QOrganizerItemEmailReminder::FieldBody 0x00033f66   Data           5  QtOrganizer.in(.constdata)
    QtMobility::QOrganizerItemEmailReminder::FieldAttachments 0x00033f6b   Data          12  QtOrganizer.in(.constdata)
    QtMobility::QOrganizerItemEmailReminder::FieldRecipients 0x00033f77   Data          11  QtOrganizer.in(.constdata)
    QtMobility::QOrganizerItemVisualReminder::FieldMessage 0x00033f82   Data           8  QtOrganizer.in(.constdata)
    QtMobility::QOrganizerItemVisualReminder::FieldDataUrl 0x00033f8a   Data           8  QtOrganizer.in(.constdata)
    QtMobility::QOrganizerItemMemoryEngine::staticMetaObject 0x00033f94   Data          16  QtOrganizer.in(.constdata)
    QtMobility::QOrganizerCollectionFetchRequest::staticMetaObject 0x00033ffc   Data          16  QtOrganizer.in(.constdata)
    QtMobility::QOrganizerCollectionRemoveRequest::staticMetaObject 0x0003406c   Data          16  QtOrganizer.in(.constdata)
    QtMobility::QOrganizerCollectionSaveRequest::staticMetaObject 0x000340dc   Data          16  QtOrganizer.in(.constdata)
    QtMobility::QOrganizerItemDetailDefinitionFetchRequest::staticMetaObject 0x0003414c   Data          16  QtOrganizer.in(.constdata)
    QtMobility::QOrganizerItemDetailDefinitionRemoveRequest::staticMetaObject 0x000341c4   Data          16  QtOrganizer.in(.constdata)
    QtMobility::QOrganizerItemDetailDefinitionSaveRequest::staticMetaObject 0x00034240   Data          16  QtOrganizer.in(.constdata)
    QtMobility::QOrganizerItemFetchRequest::staticMetaObject 0x000342b8   Data          16  QtOrganizer.in(.constdata)
    QtMobility::QOrganizerItemFetchForExportRequest::staticMetaObject 0x00034320   Data          16  QtOrganizer.in(.constdata)
    QtMobility::QOrganizerItemOccurrenceFetchRequest::staticMetaObject 0x00034394   Data          16  QtOrganizer.in(.constdata)
    QtMobility::QOrganizerItemIdFetchRequest::staticMetaObject 0x00034408   Data          16  QtOrganizer.in(.constdata)
    QtMobility::QOrganizerItemRemoveRequest::staticMetaObject 0x00034474   Data          16  QtOrganizer.in(.constdata)
    QtMobility::QOrganizerItemSaveRequest::staticMetaObject 0x000344e0   Data          16  QtOrganizer.in(.constdata)
    typeinfo for QSharedData                 0x00034548   Data           8  QtOrganizer.in(.constdata__ZTI11QSharedData)
    typeinfo for QtMobility::QOrganizerManager 0x00034550   Data          12  QtOrganizer.in(.constdata__ZTIN10QtMobility17QOrganizerManagerE)
    typeinfo for QtMobility::QOrganizerItemEngineId 0x0003455c   Data          24  QtOrganizer.in(.constdata__ZTIN10QtMobility22QOrganizerItemEngineIdE)
    typeinfo for QtMobility::QOrganizerManagerEngine 0x00034574   Data          12  QtOrganizer.in(.constdata__ZTIN10QtMobility23QOrganizerManagerEngineE)
    typeinfo for QtMobility::QOrganizerAbstractRequest 0x00034580   Data          12  QtOrganizer.in(.constdata__ZTIN10QtMobility25QOrganizerAbstractRequestE)
    typeinfo for QtMobility::QOrganizerItemSaveRequest 0x0003458c   Data          12  QtOrganizer.in(.constdata__ZTIN10QtMobility25QOrganizerItemSaveRequestE)
    typeinfo for QtMobility::QOrganizerItemFetchRequest 0x00034598   Data          12  QtOrganizer.in(.constdata__ZTIN10QtMobility26QOrganizerItemFetchRequestE)
    typeinfo for QtMobility::QOrganizerItemMemoryEngine 0x000345a4   Data          12  QtOrganizer.in(.constdata__ZTIN10QtMobility26QOrganizerItemMemoryEngineE)
    typeinfo for QtMobility::QOrganizerItemFilterPrivate 0x000345b0   Data          24  QtOrganizer.in(.constdata__ZTIN10QtMobility27QOrganizerItemFilterPrivateE)
    typeinfo for QtMobility::QOrganizerItemInvalidEngine 0x000345c8   Data          12  QtOrganizer.in(.constdata__ZTIN10QtMobility27QOrganizerItemInvalidEngineE)
    typeinfo for QtMobility::QOrganizerItemRemoveRequest 0x000345d4   Data          12  QtOrganizer.in(.constdata__ZTIN10QtMobility27QOrganizerItemRemoveRequestE)
    typeinfo for QtMobility::QOrganizerCollectionEngineId 0x000345e0   Data          24  QtOrganizer.in(.constdata__ZTIN10QtMobility28QOrganizerCollectionEngineIdE)
    typeinfo for QtMobility::QOrganizerItemIdFetchRequest 0x000345f8   Data          12  QtOrganizer.in(.constdata__ZTIN10QtMobility28QOrganizerItemIdFetchRequestE)
    typeinfo for QtMobility::QOrganizerItemMemoryEngineId 0x00034604   Data          12  QtOrganizer.in(.constdata__ZTIN10QtMobility28QOrganizerItemMemoryEngineIdE)
    typeinfo for QtMobility::QOrganizerItemIdFilterPrivate 0x00034610   Data          12  QtOrganizer.in(.constdata__ZTIN10QtMobility29QOrganizerItemIdFilterPrivateE)
    typeinfo for QtMobility::QOrganizerManagerEngineFactory 0x0003461c   Data           8  QtOrganizer.in(.constdata__ZTIN10QtMobility30QOrganizerManagerEngineFactoryE)
    typeinfo for QtMobility::QOrganizerCollectionSaveRequest 0x00034624   Data          12  QtOrganizer.in(.constdata__ZTIN10QtMobility31QOrganizerCollectionSaveRequestE)
    typeinfo for QtMobility::QOrganizerAbstractRequestPrivate 0x00034630   Data           8  QtOrganizer.in(.constdata__ZTIN10QtMobility32QOrganizerAbstractRequestPrivateE)
    typeinfo for QtMobility::QOrganizerCollectionFetchRequest 0x00034638   Data          12  QtOrganizer.in(.constdata__ZTIN10QtMobility32QOrganizerCollectionFetchRequestE)
    typeinfo for QtMobility::QOrganizerItemSaveRequestPrivate 0x00034644   Data          12  QtOrganizer.in(.constdata__ZTIN10QtMobility32QOrganizerItemSaveRequestPrivateE)
    typeinfo for QtMobility::QOrganizerItemUnionFilterPrivate 0x00034650   Data          12  QtOrganizer.in(.constdata__ZTIN10QtMobility32QOrganizerItemUnionFilterPrivateE)
    typeinfo for QtMobility::QOrganizerCollectionRemoveRequest 0x0003465c   Data          12  QtOrganizer.in(.constdata__ZTIN10QtMobility33QOrganizerCollectionRemoveRequestE)
    typeinfo for QtMobility::QOrganizerItemDetailFilterPrivate 0x00034668   Data          12  QtOrganizer.in(.constdata__ZTIN10QtMobility33QOrganizerItemDetailFilterPrivateE)
    typeinfo for QtMobility::QOrganizerItemFetchRequestPrivate 0x00034674   Data          12  QtOrganizer.in(.constdata__ZTIN10QtMobility33QOrganizerItemFetchRequestPrivateE)
    typeinfo for QtMobility::QOrganizerCollectionMemoryEngineId 0x00034680   Data          12  QtOrganizer.in(.constdata__ZTIN10QtMobility34QOrganizerCollectionMemoryEngineIdE)
    typeinfo for QtMobility::QOrganizerItemInvalidFilterPrivate 0x0003468c   Data          12  QtOrganizer.in(.constdata__ZTIN10QtMobility34QOrganizerItemInvalidFilterPrivateE)
    typeinfo for QtMobility::QOrganizerItemRemoveRequestPrivate 0x00034698   Data          12  QtOrganizer.in(.constdata__ZTIN10QtMobility34QOrganizerItemRemoveRequestPrivateE)
    typeinfo for QtMobility::QOrganizerItemFetchForExportRequest 0x000346a4   Data          12  QtOrganizer.in(.constdata__ZTIN10QtMobility35QOrganizerItemFetchForExportRequestE)
    typeinfo for QtMobility::QOrganizerItemIdFetchRequestPrivate 0x000346b0   Data          12  QtOrganizer.in(.constdata__ZTIN10QtMobility35QOrganizerItemIdFetchRequestPrivateE)
    typeinfo for QtMobility::QOrganizerItemChangeLogFilterPrivate 0x000346bc   Data          12  QtOrganizer.in(.constdata__ZTIN10QtMobility36QOrganizerItemChangeLogFilterPrivateE)
    typeinfo for QtMobility::QOrganizerItemOccurrenceFetchRequest 0x000346c8   Data          12  QtOrganizer.in(.constdata__ZTIN10QtMobility36QOrganizerItemOccurrenceFetchRequestE)
    typeinfo for QtMobility::QOrganizerItemCollectionFilterPrivate 0x000346d4   Data          12  QtOrganizer.in(.constdata__ZTIN10QtMobility37QOrganizerItemCollectionFilterPrivateE)
    typeinfo for QtMobility::QOrganizerCollectionSaveRequestPrivate 0x000346e0   Data          12  QtOrganizer.in(.constdata__ZTIN10QtMobility38QOrganizerCollectionSaveRequestPrivateE)
    typeinfo for QtMobility::QOrganizerItemDetailRangeFilterPrivate 0x000346ec   Data          12  QtOrganizer.in(.constdata__ZTIN10QtMobility38QOrganizerItemDetailRangeFilterPrivateE)
    typeinfo for QtMobility::QOrganizerCollectionFetchRequestPrivate 0x000346f8   Data          12  QtOrganizer.in(.constdata__ZTIN10QtMobility39QOrganizerCollectionFetchRequestPrivateE)
    typeinfo for QtMobility::QOrganizerItemIntersectionFilterPrivate 0x00034704   Data          12  QtOrganizer.in(.constdata__ZTIN10QtMobility39QOrganizerItemIntersectionFilterPrivateE)
    typeinfo for QtMobility::QOrganizerCollectionRemoveRequestPrivate 0x00034710   Data          12  QtOrganizer.in(.constdata__ZTIN10QtMobility40QOrganizerCollectionRemoveRequestPrivateE)
    typeinfo for QtMobility::QOrganizerItemDetailDefinitionSaveRequest 0x0003471c   Data          12  QtOrganizer.in(.constdata__ZTIN10QtMobility41QOrganizerItemDetailDefinitionSaveRequestE)
    typeinfo for QtMobility::QOrganizerItemDetailDefinitionFetchRequest 0x00034728   Data          12  QtOrganizer.in(.constdata__ZTIN10QtMobility42QOrganizerItemDetailDefinitionFetchRequestE)
    typeinfo for QtMobility::QOrganizerItemFetchForExportRequestPrivate 0x00034734   Data          12  QtOrganizer.in(.constdata__ZTIN10QtMobility42QOrganizerItemFetchForExportRequestPrivateE)
    typeinfo for QtMobility::QOrganizerItemDetailDefinitionRemoveRequest 0x00034740   Data          12  QtOrganizer.in(.constdata__ZTIN10QtMobility43QOrganizerItemDetailDefinitionRemoveRequestE)
    typeinfo for QtMobility::QOrganizerItemOccurrenceFetchRequestPrivate 0x0003474c   Data          12  QtOrganizer.in(.constdata__ZTIN10QtMobility43QOrganizerItemOccurrenceFetchRequestPrivateE)
    typeinfo for QtMobility::QOrganizerItemDetailDefinitionSaveRequestPrivate 0x00034758   Data          12  QtOrganizer.in(.constdata__ZTIN10QtMobility48QOrganizerItemDetailDefinitionSaveRequestPrivateE)
    typeinfo for QtMobility::QOrganizerItemDetailDefinitionFetchRequestPrivate 0x00034764   Data          12  QtOrganizer.in(.constdata__ZTIN10QtMobility49QOrganizerItemDetailDefinitionFetchRequestPrivateE)
    typeinfo for QtMobility::QOrganizerItemDetailDefinitionRemoveRequestPrivate 0x00034770   Data          12  QtOrganizer.in(.constdata__ZTIN10QtMobility50QOrganizerItemDetailDefinitionRemoveRequestPrivateE)
    typeinfo for std::bad_alloc              0x0003477c   Data          12  QtOrganizer.in(.constdata__ZTISt9bad_alloc)
    typeinfo name for QSharedData            0x00034788   Data          14  QtOrganizer.in(.constdata__ZTS11QSharedData)
    typeinfo name for QtMobility::QOrganizerManager 0x00034796   Data          34  QtOrganizer.in(.constdata__ZTSN10QtMobility17QOrganizerManagerE)
    typeinfo name for QtMobility::QOrganizerItemEngineId 0x000347b8   Data          39  QtOrganizer.in(.constdata__ZTSN10QtMobility22QOrganizerItemEngineIdE)
    typeinfo name for QtMobility::QOrganizerManagerEngine 0x000347df   Data          40  QtOrganizer.in(.constdata__ZTSN10QtMobility23QOrganizerManagerEngineE)
    typeinfo name for QtMobility::QOrganizerAbstractRequest 0x00034807   Data          42  QtOrganizer.in(.constdata__ZTSN10QtMobility25QOrganizerAbstractRequestE)
    typeinfo name for QtMobility::QOrganizerItemSaveRequest 0x00034831   Data          42  QtOrganizer.in(.constdata__ZTSN10QtMobility25QOrganizerItemSaveRequestE)
    typeinfo name for QtMobility::QOrganizerItemFetchRequest 0x0003485b   Data          43  QtOrganizer.in(.constdata__ZTSN10QtMobility26QOrganizerItemFetchRequestE)
    typeinfo name for QtMobility::QOrganizerItemMemoryEngine 0x00034886   Data          43  QtOrganizer.in(.constdata__ZTSN10QtMobility26QOrganizerItemMemoryEngineE)
    typeinfo name for QtMobility::QOrganizerItemFilterPrivate 0x000348b1   Data          44  QtOrganizer.in(.constdata__ZTSN10QtMobility27QOrganizerItemFilterPrivateE)
    typeinfo name for QtMobility::QOrganizerItemInvalidEngine 0x000348dd   Data          44  QtOrganizer.in(.constdata__ZTSN10QtMobility27QOrganizerItemInvalidEngineE)
    typeinfo name for QtMobility::QOrganizerItemRemoveRequest 0x00034909   Data          44  QtOrganizer.in(.constdata__ZTSN10QtMobility27QOrganizerItemRemoveRequestE)
    typeinfo name for QtMobility::QOrganizerCollectionEngineId 0x00034935   Data          45  QtOrganizer.in(.constdata__ZTSN10QtMobility28QOrganizerCollectionEngineIdE)
    typeinfo name for QtMobility::QOrganizerItemIdFetchRequest 0x00034962   Data          45  QtOrganizer.in(.constdata__ZTSN10QtMobility28QOrganizerItemIdFetchRequestE)
    typeinfo name for QtMobility::QOrganizerItemMemoryEngineId 0x0003498f   Data          45  QtOrganizer.in(.constdata__ZTSN10QtMobility28QOrganizerItemMemoryEngineIdE)
    typeinfo name for QtMobility::QOrganizerItemIdFilterPrivate 0x000349bc   Data          46  QtOrganizer.in(.constdata__ZTSN10QtMobility29QOrganizerItemIdFilterPrivateE)
    typeinfo name for QtMobility::QOrganizerManagerEngineFactory 0x000349ea   Data          47  QtOrganizer.in(.constdata__ZTSN10QtMobility30QOrganizerManagerEngineFactoryE)
    typeinfo name for QtMobility::QOrganizerCollectionSaveRequest 0x00034a19   Data          48  QtOrganizer.in(.constdata__ZTSN10QtMobility31QOrganizerCollectionSaveRequestE)
    typeinfo name for QtMobility::QOrganizerAbstractRequestPrivate 0x00034a49   Data          49  QtOrganizer.in(.constdata__ZTSN10QtMobility32QOrganizerAbstractRequestPrivateE)
    typeinfo name for QtMobility::QOrganizerCollectionFetchRequest 0x00034a7a   Data          49  QtOrganizer.in(.constdata__ZTSN10QtMobility32QOrganizerCollectionFetchRequestE)
    typeinfo name for QtMobility::QOrganizerItemSaveRequestPrivate 0x00034aab   Data          49  QtOrganizer.in(.constdata__ZTSN10QtMobility32QOrganizerItemSaveRequestPrivateE)
    typeinfo name for QtMobility::QOrganizerItemUnionFilterPrivate 0x00034adc   Data          49  QtOrganizer.in(.constdata__ZTSN10QtMobility32QOrganizerItemUnionFilterPrivateE)
    typeinfo name for QtMobility::QOrganizerCollectionRemoveRequest 0x00034b0d   Data          50  QtOrganizer.in(.constdata__ZTSN10QtMobility33QOrganizerCollectionRemoveRequestE)
    typeinfo name for QtMobility::QOrganizerItemDetailFilterPrivate 0x00034b3f   Data          50  QtOrganizer.in(.constdata__ZTSN10QtMobility33QOrganizerItemDetailFilterPrivateE)
    typeinfo name for QtMobility::QOrganizerItemFetchRequestPrivate 0x00034b71   Data          50  QtOrganizer.in(.constdata__ZTSN10QtMobility33QOrganizerItemFetchRequestPrivateE)
    typeinfo name for QtMobility::QOrganizerCollectionMemoryEngineId 0x00034ba3   Data          51  QtOrganizer.in(.constdata__ZTSN10QtMobility34QOrganizerCollectionMemoryEngineIdE)
    typeinfo name for QtMobility::QOrganizerItemInvalidFilterPrivate 0x00034bd6   Data          51  QtOrganizer.in(.constdata__ZTSN10QtMobility34QOrganizerItemInvalidFilterPrivateE)
    typeinfo name for QtMobility::QOrganizerItemRemoveRequestPrivate 0x00034c09   Data          51  QtOrganizer.in(.constdata__ZTSN10QtMobility34QOrganizerItemRemoveRequestPrivateE)
    typeinfo name for QtMobility::QOrganizerItemFetchForExportRequest 0x00034c3c   Data          52  QtOrganizer.in(.constdata__ZTSN10QtMobility35QOrganizerItemFetchForExportRequestE)
    typeinfo name for QtMobility::QOrganizerItemIdFetchRequestPrivate 0x00034c70   Data          52  QtOrganizer.in(.constdata__ZTSN10QtMobility35QOrganizerItemIdFetchRequestPrivateE)
    typeinfo name for QtMobility::QOrganizerItemChangeLogFilterPrivate 0x00034ca4   Data          53  QtOrganizer.in(.constdata__ZTSN10QtMobility36QOrganizerItemChangeLogFilterPrivateE)
    typeinfo name for QtMobility::QOrganizerItemOccurrenceFetchRequest 0x00034cd9   Data          53  QtOrganizer.in(.constdata__ZTSN10QtMobility36QOrganizerItemOccurrenceFetchRequestE)
    typeinfo name for QtMobility::QOrganizerItemCollectionFilterPrivate 0x00034d0e   Data          54  QtOrganizer.in(.constdata__ZTSN10QtMobility37QOrganizerItemCollectionFilterPrivateE)
    typeinfo name for QtMobility::QOrganizerCollectionSaveRequestPrivate 0x00034d44   Data          55  QtOrganizer.in(.constdata__ZTSN10QtMobility38QOrganizerCollectionSaveRequestPrivateE)
    typeinfo name for QtMobility::QOrganizerItemDetailRangeFilterPrivate 0x00034d7b   Data          55  QtOrganizer.in(.constdata__ZTSN10QtMobility38QOrganizerItemDetailRangeFilterPrivateE)
    typeinfo name for QtMobility::QOrganizerCollectionFetchRequestPrivate 0x00034db2   Data          56  QtOrganizer.in(.constdata__ZTSN10QtMobility39QOrganizerCollectionFetchRequestPrivateE)
    typeinfo name for QtMobility::QOrganizerItemIntersectionFilterPrivate 0x00034dea   Data          56  QtOrganizer.in(.constdata__ZTSN10QtMobility39QOrganizerItemIntersectionFilterPrivateE)
    typeinfo name for QtMobility::QOrganizerCollectionRemoveRequestPrivate 0x00034e22   Data          57  QtOrganizer.in(.constdata__ZTSN10QtMobility40QOrganizerCollectionRemoveRequestPrivateE)
    typeinfo name for QtMobility::QOrganizerItemDetailDefinitionSaveRequest 0x00034e5b   Data          58  QtOrganizer.in(.constdata__ZTSN10QtMobility41QOrganizerItemDetailDefinitionSaveRequestE)
    typeinfo name for QtMobility::QOrganizerItemDetailDefinitionFetchRequest 0x00034e95   Data          59  QtOrganizer.in(.constdata__ZTSN10QtMobility42QOrganizerItemDetailDefinitionFetchRequestE)
    typeinfo name for QtMobility::QOrganizerItemFetchForExportRequestPrivate 0x00034ed0   Data          59  QtOrganizer.in(.constdata__ZTSN10QtMobility42QOrganizerItemFetchForExportRequestPrivateE)
    typeinfo name for QtMobility::QOrganizerItemDetailDefinitionRemoveRequest 0x00034f0b   Data          60  QtOrganizer.in(.constdata__ZTSN10QtMobility43QOrganizerItemDetailDefinitionRemoveRequestE)
    typeinfo name for QtMobility::QOrganizerItemOccurrenceFetchRequestPrivate 0x00034f47   Data          60  QtOrganizer.in(.constdata__ZTSN10QtMobility43QOrganizerItemOccurrenceFetchRequestPrivateE)
    typeinfo name for QtMobility::QOrganizerItemDetailDefinitionSaveRequestPrivate 0x00034f83   Data          65  QtOrganizer.in(.constdata__ZTSN10QtMobility48QOrganizerItemDetailDefinitionSaveRequestPrivateE)
    typeinfo name for QtMobility::QOrganizerItemDetailDefinitionFetchRequestPrivate 0x00034fc4   Data          66  QtOrganizer.in(.constdata__ZTSN10QtMobility49QOrganizerItemDetailDefinitionFetchRequestPrivateE)
    typeinfo name for QtMobility::QOrganizerItemDetailDefinitionRemoveRequestPrivate 0x00035006   Data          67  QtOrganizer.in(.constdata__ZTSN10QtMobility50QOrganizerItemDetailDefinitionRemoveRequestPrivateE)
    typeinfo name for std::bad_alloc         0x00035049   Data          13  QtOrganizer.in(.constdata__ZTSSt9bad_alloc)
    vtable for QtMobility::QOrganizerManager 0x00035058   Data          56  QtOrganizer.in(.constdata__ZTVN10QtMobility17QOrganizerManagerE)
    vtable for QtMobility::QOrganizerItemEngineId 0x00035090   Data          44  QtOrganizer.in(.constdata__ZTVN10QtMobility22QOrganizerItemEngineIdE)
    vtable for QtMobility::QOrganizerManagerEngine 0x000350bc   Data         188  QtOrganizer.in(.constdata__ZTVN10QtMobility23QOrganizerManagerEngineE)
    vtable for QtMobility::QOrganizerAbstractRequest 0x00035178   Data          56  QtOrganizer.in(.constdata__ZTVN10QtMobility25QOrganizerAbstractRequestE)
    vtable for QtMobility::QOrganizerItemSaveRequest 0x000351b0   Data          56  QtOrganizer.in(.constdata__ZTVN10QtMobility25QOrganizerItemSaveRequestE)
    vtable for QtMobility::QOrganizerItemFetchRequest 0x000351e8   Data          56  QtOrganizer.in(.constdata__ZTVN10QtMobility26QOrganizerItemFetchRequestE)
    vtable for QtMobility::QOrganizerItemMemoryEngine 0x00035220   Data         204  QtOrganizer.in(.constdata__ZTVN10QtMobility26QOrganizerItemMemoryEngineE)
    vtable for QtMobility::QOrganizerItemInvalidEngine 0x000352ec   Data         192  QtOrganizer.in(.constdata__ZTVN10QtMobility27QOrganizerItemInvalidEngineE)
    vtable for QtMobility::QOrganizerItemRemoveRequest 0x000353ac   Data          56  QtOrganizer.in(.constdata__ZTVN10QtMobility27QOrganizerItemRemoveRequestE)
    vtable for QtMobility::QOrganizerCollectionEngineId 0x000353e4   Data          44  QtOrganizer.in(.constdata__ZTVN10QtMobility28QOrganizerCollectionEngineIdE)
    vtable for QtMobility::QOrganizerItemIdFetchRequest 0x00035410   Data          56  QtOrganizer.in(.constdata__ZTVN10QtMobility28QOrganizerItemIdFetchRequestE)
    vtable for QtMobility::QOrganizerItemMemoryEngineId 0x00035448   Data          44  QtOrganizer.in(.constdata__ZTVN10QtMobility28QOrganizerItemMemoryEngineIdE)
    vtable for QtMobility::QOrganizerItemIdFilterPrivate 0x00035474   Data          36  QtOrganizer.in(.constdata__ZTVN10QtMobility29QOrganizerItemIdFilterPrivateE)
    vtable for QtMobility::QOrganizerManagerEngineFactory 0x00035498   Data          36  QtOrganizer.in(.constdata__ZTVN10QtMobility30QOrganizerManagerEngineFactoryE)
    vtable for QtMobility::QOrganizerCollectionSaveRequest 0x000354bc   Data          56  QtOrganizer.in(.constdata__ZTVN10QtMobility31QOrganizerCollectionSaveRequestE)
    vtable for QtMobility::QOrganizerAbstractRequestPrivate 0x000354f4   Data          20  QtOrganizer.in(.constdata__ZTVN10QtMobility32QOrganizerAbstractRequestPrivateE)
    vtable for QtMobility::QOrganizerCollectionFetchRequest 0x00035508   Data          56  QtOrganizer.in(.constdata__ZTVN10QtMobility32QOrganizerCollectionFetchRequestE)
    vtable for QtMobility::QOrganizerItemSaveRequestPrivate 0x00035540   Data          20  QtOrganizer.in(.constdata__ZTVN10QtMobility32QOrganizerItemSaveRequestPrivateE)
    vtable for QtMobility::QOrganizerItemUnionFilterPrivate 0x00035554   Data          36  QtOrganizer.in(.constdata__ZTVN10QtMobility32QOrganizerItemUnionFilterPrivateE)
    vtable for QtMobility::QOrganizerCollectionRemoveRequest 0x00035578   Data          56  QtOrganizer.in(.constdata__ZTVN10QtMobility33QOrganizerCollectionRemoveRequestE)
    vtable for QtMobility::QOrganizerItemDetailFilterPrivate 0x000355b0   Data          36  QtOrganizer.in(.constdata__ZTVN10QtMobility33QOrganizerItemDetailFilterPrivateE)
    vtable for QtMobility::QOrganizerItemFetchRequestPrivate 0x000355d4   Data          20  QtOrganizer.in(.constdata__ZTVN10QtMobility33QOrganizerItemFetchRequestPrivateE)
    vtable for QtMobility::QOrganizerCollectionMemoryEngineId 0x000355e8   Data          44  QtOrganizer.in(.constdata__ZTVN10QtMobility34QOrganizerCollectionMemoryEngineIdE)
    vtable for QtMobility::QOrganizerItemInvalidFilterPrivate 0x00035614   Data          36  QtOrganizer.in(.constdata__ZTVN10QtMobility34QOrganizerItemInvalidFilterPrivateE)
    vtable for QtMobility::QOrganizerItemRemoveRequestPrivate 0x00035638   Data          20  QtOrganizer.in(.constdata__ZTVN10QtMobility34QOrganizerItemRemoveRequestPrivateE)
    vtable for QtMobility::QOrganizerItemFetchForExportRequest 0x0003564c   Data          56  QtOrganizer.in(.constdata__ZTVN10QtMobility35QOrganizerItemFetchForExportRequestE)
    vtable for QtMobility::QOrganizerItemIdFetchRequestPrivate 0x00035684   Data          20  QtOrganizer.in(.constdata__ZTVN10QtMobility35QOrganizerItemIdFetchRequestPrivateE)
    vtable for QtMobility::QOrganizerItemChangeLogFilterPrivate 0x00035698   Data          36  QtOrganizer.in(.constdata__ZTVN10QtMobility36QOrganizerItemChangeLogFilterPrivateE)
    vtable for QtMobility::QOrganizerItemOccurrenceFetchRequest 0x000356bc   Data          56  QtOrganizer.in(.constdata__ZTVN10QtMobility36QOrganizerItemOccurrenceFetchRequestE)
    vtable for QtMobility::QOrganizerItemCollectionFilterPrivate 0x000356f4   Data          36  QtOrganizer.in(.constdata__ZTVN10QtMobility37QOrganizerItemCollectionFilterPrivateE)
    vtable for QtMobility::QOrganizerCollectionSaveRequestPrivate 0x00035718   Data          20  QtOrganizer.in(.constdata__ZTVN10QtMobility38QOrganizerCollectionSaveRequestPrivateE)
    vtable for QtMobility::QOrganizerItemDetailRangeFilterPrivate 0x0003572c   Data          36  QtOrganizer.in(.constdata__ZTVN10QtMobility38QOrganizerItemDetailRangeFilterPrivateE)
    vtable for QtMobility::QOrganizerCollectionFetchRequestPrivate 0x00035750   Data          20  QtOrganizer.in(.constdata__ZTVN10QtMobility39QOrganizerCollectionFetchRequestPrivateE)
    vtable for QtMobility::QOrganizerItemIntersectionFilterPrivate 0x00035764   Data          36  QtOrganizer.in(.constdata__ZTVN10QtMobility39QOrganizerItemIntersectionFilterPrivateE)
    vtable for QtMobility::QOrganizerCollectionRemoveRequestPrivate 0x00035788   Data          20  QtOrganizer.in(.constdata__ZTVN10QtMobility40QOrganizerCollectionRemoveRequestPrivateE)
    vtable for QtMobility::QOrganizerItemDetailDefinitionSaveRequest 0x0003579c   Data          56  QtOrganizer.in(.constdata__ZTVN10QtMobility41QOrganizerItemDetailDefinitionSaveRequestE)
    vtable for QtMobility::QOrganizerItemDetailDefinitionFetchRequest 0x000357d4   Data          56  QtOrganizer.in(.constdata__ZTVN10QtMobility42QOrganizerItemDetailDefinitionFetchRequestE)
    vtable for QtMobility::QOrganizerItemFetchForExportRequestPrivate 0x0003580c   Data          20  QtOrganizer.in(.constdata__ZTVN10QtMobility42QOrganizerItemFetchForExportRequestPrivateE)
    vtable for QtMobility::QOrganizerItemDetailDefinitionRemoveRequest 0x00035820   Data          56  QtOrganizer.in(.constdata__ZTVN10QtMobility43QOrganizerItemDetailDefinitionRemoveRequestE)
    vtable for QtMobility::QOrganizerItemOccurrenceFetchRequestPrivate 0x00035858   Data          20  QtOrganizer.in(.constdata__ZTVN10QtMobility43QOrganizerItemOccurrenceFetchRequestPrivateE)
    vtable for QtMobility::QOrganizerItemDetailDefinitionSaveRequestPrivate 0x0003586c   Data          20  QtOrganizer.in(.constdata__ZTVN10QtMobility48QOrganizerItemDetailDefinitionSaveRequestPrivateE)
    vtable for QtMobility::QOrganizerItemDetailDefinitionFetchRequestPrivate 0x00035880   Data          20  QtOrganizer.in(.constdata__ZTVN10QtMobility49QOrganizerItemDetailDefinitionFetchRequestPrivateE)
    vtable for QtMobility::QOrganizerItemDetailDefinitionRemoveRequestPrivate 0x00035894   Data          20  QtOrganizer.in(.constdata__ZTVN10QtMobility50QOrganizerItemDetailDefinitionRemoveRequestPrivateE)
    SHT$$INIT_ARRAY$$Base                    0x000358a8   Number         0  QtOrganizer.in(.init_array)
    .ARM.exidx$$Base                         0x000358b4   Number         0  ucppinit_aeabi.o(.ARM.exidx)
    SHT$$INIT_ARRAY$$Limit                   0x000358b4   Data           0  QtOrganizer.in(.init_array)
    .ARM.exidx$$Limit                        0x000387cc   Number         0  QtOrganizer.in(.ARM.exidx)
    Image$$ER_RO$$Limit                      0x000387cc   Number         0  anon$$obj.o(linker$$defined$$symbols)
    QtMobility::qClearAllocatedStringHash__dest_instance__ 0x00400000   Data           1  QtOrganizer.in(.data)
    QtMobility::QOrganizerItemStringHolder::s_allocated 0x00400004   Data           4  QtOrganizer.in(.data)
    QtMobility::QOrganizerItemStringHolder::s_qstrings 0x00400008   Data           4  QtOrganizer.in(.data)
    QtMobility::QOrganizerItemDetailPrivate::lastDetailKey 0x0040000c   Data           4  QtOrganizer.in(.data)
    QtMobility::QOrganizerManagerData::m_discovered 0x00400010   Data           1  QtOrganizer.in(.data)
    QtMobility::QOrganizerManagerData::m_discoveredStatic 0x00400011   Data           1  QtOrganizer.in(.data)
    QtMobility::QOrganizerManagerData::m_engines 0x00400014   Data           4  QtOrganizer.in(.data)
    QtMobility::QOrganizerManagerData::m_pluginPaths 0x00400018   Data           4  QtOrganizer.in(.data)
    QtMobility::QOrganizerItemMemoryEngine::engineDatas 0x0040001c   Data           4  QtOrganizer.in(.data)
    __dso_handle                             0x00400020   Data           4  ucppfini.o(.data)
    QMetaTypeId<QSet<QDate>>::qt_metatype_id()::metatype_id 0x00400024   Data           4  QtOrganizer.in(.data__ZZN11QMetaTypeIdI4QSetI5QDateEE14qt_metatype_idEvE11metatype_id)
    QMetaTypeId<QSet<QtMobility::QOrganizerRecurrenceRule>>::qt_metatype_id()::metatype_id 0x00400028   Data           4  QtOrganizer.in(.data__ZZN11QMetaTypeIdI4QSetIN10QtMobility24QOrganizerRecurrenceRuleEEE14qt_metatype_idEvE11metatype_id)
    QMetaTypeId<QtMobility::QOrganizerItemId>::qt_metatype_id()::metatype_id 0x0040002c   Data           4  QtOrganizer.in(.data__ZZN11QMetaTypeIdIN10QtMobility16QOrganizerItemIdEE14qt_metatype_idEvE11metatype_id)

