ARM Linker, RVCT2.2 [Build 686]

================================================================================

Image Symbol Table

    Local Symbols

    Symbol Name                              Value     Ov Type        Size  Object(Section)

    [Anonymous Symbol]                       0x00000000   Number         0  QtCore{00040703}-1789.o ABSOLUTE
    [Anonymous Symbol]                       0x00000000   Number         0  euser{000a0000}-474.o ABSOLUTE
    [Anonymous Symbol]                       0x00000000   Number         0  calinterimapi{000a0000}-180.o ABSOLUTE
    [Anonymous Symbol]                       0x00000000   Number         0  QtCore{00040703}-179.o ABSOLUTE
    [Anonymous Symbol]                       0x00000000   Number         0  euser{000a0000}-48.o ABSOLUTE
    [Anonymous Symbol]                       0x00000000   Number         0  calinterimapi{000a0000}-181.o ABSOLUTE
    [Anonymous Symbol]                       0x00000000   Number         0  QtCore{00040703}-1794.o ABSOLUTE
    [Anonymous Symbol]                       0x00000000   Number         0  euser{000a0000}-481.o ABSOLUTE
    [Anonymous Symbol]                       0x00000000   Number         0  calinterimapi{000a0000}-182.o ABSOLUTE
    [Anonymous Symbol]                       0x00000000   Number         0  QtCore{00040703}-1814.o ABSOLUTE
    [Anonymous Symbol]                       0x00000000   Number         0  euser{000a0000}-505.o ABSOLUTE
    [Anonymous Symbol]                       0x00000000   Number         0  calinterimapi{000a0000}-183.o ABSOLUTE
    [Anonymous Symbol]                       0x00000000   Number         0  QtCore{00040703}-1825.o ABSOLUTE
    [Anonymous Symbol]                       0x00000000   Number         0  euser{000a0000}-507.o ABSOLUTE
    [Anonymous Symbol]                       0x00000000   Number         0  calinterimapi{000a0000}-184.o ABSOLUTE
    [Anonymous Symbol]                       0x00000000   Number         0  QtCore{00040703}-1826.o ABSOLUTE
    [Anonymous Symbol]                       0x00000000   Number         0  euser{000a0000}-508.o ABSOLUTE
    [Anonymous Symbol]                       0x00000000   Number         0  calinterimapi{000a0000}-186.o ABSOLUTE
    [Anonymous Symbol]                       0x00000000   Number         0  QtCore{00040703}-1830.o ABSOLUTE
    [Anonymous Symbol]                       0x00000000   Number         0  euser{000a0000}-55.o ABSOLUTE
    [Anonymous Symbol]                       0x00000000   Number         0  calinterimapi{000a0000}-187.o ABSOLUTE
    [Anonymous Symbol]                       0x00000000   Number         0  QtCore{00040703}-1836.o ABSOLUTE
    [Anonymous Symbol]                       0x00000000   Number         0  euser{000a0000}-580.o ABSOLUTE
    [Anonymous Symbol]                       0x00000000   Number         0  calinterimapi{000a0000}-188.o ABSOLUTE
    [Anonymous Symbol]                       0x00000000   Number         0  QtCore{00040703}-1842.o ABSOLUTE
    [Anonymous Symbol]                       0x00000000   Number         0  euser{000a0000}-593.o ABSOLUTE
    [Anonymous Symbol]                       0x00000000   Number         0  calinterimapi{000a0000}-193.o ABSOLUTE
    [Anonymous Symbol]                       0x00000000   Number         0  QtCore{00040703}-1847.o ABSOLUTE
    [Anonymous Symbol]                       0x00000000   Number         0  euser{000a0000}-617.o ABSOLUTE
    [Anonymous Symbol]                       0x00000000   Number         0  calinterimapi{000a0000}-218.o ABSOLUTE
    [Anonymous Symbol]                       0x00000000   Number         0  QtCore{00040703}-1871.o ABSOLUTE
    [Anonymous Symbol]                       0x00000000   Number         0  euser{000a0000}-649.o ABSOLUTE
    [Anonymous Symbol]                       0x00000000   Number         0  calinterimapi{000a0000}-219.o ABSOLUTE
    [Anonymous Symbol]                       0x00000000   Number         0  QtCore{00040703}-1874.o ABSOLUTE
    [Anonymous Symbol]                       0x00000000   Number         0  euser{000a0000}-652.o ABSOLUTE
    [Anonymous Symbol]                       0x00000000   Number         0  calinterimapi{000a0000}-22.o ABSOLUTE
    [Anonymous Symbol]                       0x00000000   Number         0  QtCore{00040703}-1875.o ABSOLUTE
    [Anonymous Symbol]                       0x00000000   Number         0  euser{000a0000}-654.o ABSOLUTE
    [Anonymous Symbol]                       0x00000000   Number         0  calinterimapi{000a0000}-220.o ABSOLUTE
    [Anonymous Symbol]                       0x00000000   Number         0  QtCore{00040703}-1885.o ABSOLUTE
    [Anonymous Symbol]                       0x00000000   Number         0  euser{000a0000}-669.o ABSOLUTE
    [Anonymous Symbol]                       0x00000000   Number         0  calinterimapi{000a0000}-221.o ABSOLUTE
    [Anonymous Symbol]                       0x00000000   Number         0  QtCore{00040703}-1947.o ABSOLUTE
    [Anonymous Symbol]                       0x00000000   Number         0  euser{000a0000}-670.o ABSOLUTE
    [Anonymous Symbol]                       0x00000000   Number         0  calinterimapi{000a0000}-222.o ABSOLUTE
    [Anonymous Symbol]                       0x00000000   Number         0  QtCore{00040703}-1949.o ABSOLUTE
    [Anonymous Symbol]                       0x00000000   Number         0  euser{000a0000}-671.o ABSOLUTE
    [Anonymous Symbol]                       0x00000000   Number         0  calinterimapi{000a0000}-225.o ABSOLUTE
    [Anonymous Symbol]                       0x00000000   Number         0  QtCore{00040703}-2020.o ABSOLUTE
    [Anonymous Symbol]                       0x00000000   Number         0  euser{000a0000}-739.o ABSOLUTE
    [Anonymous Symbol]                       0x00000000   Number         0  calinterimapi{000a0000}-226.o ABSOLUTE
    [Anonymous Symbol]                       0x00000000   Number         0  QtCore{00040703}-2034.o ABSOLUTE
    [Anonymous Symbol]                       0x00000000   Number         0  euser{000a0000}-744.o ABSOLUTE
    [Anonymous Symbol]                       0x00000000   Number         0  calinterimapi{000a0000}-23.o ABSOLUTE
    [Anonymous Symbol]                       0x00000000   Number         0  QtCore{00040703}-2036.o ABSOLUTE
    [Anonymous Symbol]                       0x00000000   Number         0  euser{000a0000}-855.o ABSOLUTE
    [Anonymous Symbol]                       0x00000000   Number         0  calinterimapi{000a0000}-233.o ABSOLUTE
    [Anonymous Symbol]                       0x00000000   Number         0  QtCore{00040703}-2040.o ABSOLUTE
    [Anonymous Symbol]                       0x00000000   Number         0  euser{000a0000}-859.o ABSOLUTE
    [Anonymous Symbol]                       0x00000000   Number         0  calinterimapi{000a0000}-234.o ABSOLUTE
    [Anonymous Symbol]                       0x00000000   Number         0  QtCore{00040703}-2042.o ABSOLUTE
    [Anonymous Symbol]                       0x00000000   Number         0  euser{000a0000}-861.o ABSOLUTE
    [Anonymous Symbol]                       0x00000000   Number         0  calinterimapi{000a0000}-235.o ABSOLUTE
    [Anonymous Symbol]                       0x00000000   Number         0  QtCore{00040703}-2082.o ABSOLUTE
    [Anonymous Symbol]                       0x00000000   Number         0  euser{000a0000}-891.o ABSOLUTE
    [Anonymous Symbol]                       0x00000000   Number         0  calinterimapi{000a0000}-25.o ABSOLUTE
    [Anonymous Symbol]                       0x00000000   Number         0  QtCore{00040703}-2095.o ABSOLUTE
    [Anonymous Symbol]                       0x00000000   Number         0  euser{000a0000}-894.o ABSOLUTE
    [Anonymous Symbol]                       0x00000000   Number         0  calinterimapi{000a0000}-3.o ABSOLUTE
    [Anonymous Symbol]                       0x00000000   Number         0  QtCore{00040703}-2097.o ABSOLUTE
    [Anonymous Symbol]                       0x00000000   Number         0  QtOrganizer{00010103}-56.o ABSOLUTE
    [Anonymous Symbol]                       0x00000000   Number         0  calinterimapi{000a0000}-39.o ABSOLUTE
    [Anonymous Symbol]                       0x00000000   Number         0  QtCore{00040703}-2099.o ABSOLUTE
    [Anonymous Symbol]                       0x00000000   Number         0  QtOrganizer{00010103}-571.o ABSOLUTE
    [Anonymous Symbol]                       0x00000000   Number         0  calinterimapi{000a0000}-5.o ABSOLUTE
    [Anonymous Symbol]                       0x00000000   Number         0  QtCore{00040703}-2100.o ABSOLUTE
    [Anonymous Symbol]                       0x00000000   Number         0  QtOrganizer{00010103}-575.o ABSOLUTE
    [Anonymous Symbol]                       0x00000000   Number         0  calinterimapi{000a0000}-63.o ABSOLUTE
    [Anonymous Symbol]                       0x00000000   Number         0  QtCore{00040703}-2102.o ABSOLUTE
    [Anonymous Symbol]                       0x00000000   Number         0  QtOrganizer{00010103}-6.o ABSOLUTE
    [Anonymous Symbol]                       0x00000000   Number         0  calinterimapi{000a0000}-64.o ABSOLUTE
    [Anonymous Symbol]                       0x00000000   Number         0  QtCore{00040703}-2103.o ABSOLUTE
    [Anonymous Symbol]                       0x00000000   Number         0  QtOrganizer{00010103}-60.o ABSOLUTE
    [Anonymous Symbol]                       0x00000000   Number         0  calinterimapi{000a0000}-65.o ABSOLUTE
    [Anonymous Symbol]                       0x00000000   Number         0  QtCore{00040703}-2104.o ABSOLUTE
    [Anonymous Symbol]                       0x00000000   Number         0  QtOrganizer{00010103}-603.o ABSOLUTE
    [Anonymous Symbol]                       0x00000000   Number         0  calinterimapi{000a0000}-66.o ABSOLUTE
    [Anonymous Symbol]                       0x00000000   Number         0  QtCore{00040703}-2105.o ABSOLUTE
    [Anonymous Symbol]                       0x00000000   Number         0  QtOrganizer{00010103}-604.o ABSOLUTE
    [Anonymous Symbol]                       0x00000000   Number         0  calinterimapi{000a0000}-67.o ABSOLUTE
    [Anonymous Symbol]                       0x00000000   Number         0  QtCore{00040703}-2110.o ABSOLUTE
    [Anonymous Symbol]                       0x00000000   Number         0  QtOrganizer{00010103}-605.o ABSOLUTE
    [Anonymous Symbol]                       0x00000000   Number         0  calinterimapi{000a0000}-69.o ABSOLUTE
    [Anonymous Symbol]                       0x00000000   Number         0  QtCore{00040703}-2112.o ABSOLUTE
    [Anonymous Symbol]                       0x00000000   Number         0  QtOrganizer{00010103}-606.o ABSOLUTE
    [Anonymous Symbol]                       0x00000000   Number         0  calinterimapi{000a0000}-71.o ABSOLUTE
    [Anonymous Symbol]                       0x00000000   Number         0  QtCore{00040703}-2134.o ABSOLUTE
    [Anonymous Symbol]                       0x00000000   Number         0  QtOrganizer{00010103}-607.o ABSOLUTE
    [Anonymous Symbol]                       0x00000000   Number         0  calinterimapi{000a0000}-76.o ABSOLUTE
    [Anonymous Symbol]                       0x00000000   Number         0  QtCore{00040703}-2141.o ABSOLUTE
    [Anonymous Symbol]                       0x00000000   Number         0  QtOrganizer{00010103}-608.o ABSOLUTE
    [Anonymous Symbol]                       0x00000000   Number         0  calinterimapi{000a0000}-77.o ABSOLUTE
    [Anonymous Symbol]                       0x00000000   Number         0  QtCore{00040703}-2143.o ABSOLUTE
    [Anonymous Symbol]                       0x00000000   Number         0  QtOrganizer{00010103}-609.o ABSOLUTE
    [Anonymous Symbol]                       0x00000000   Number         0  calinterimapi{000a0000}-78.o ABSOLUTE
    [Anonymous Symbol]                       0x00000000   Number         0  QtCore{00040703}-2188.o ABSOLUTE
    [Anonymous Symbol]                       0x00000000   Number         0  QtOrganizer{00010103}-615.o ABSOLUTE
    [Anonymous Symbol]                       0x00000000   Number         0  calinterimapi{000a0000}-83.o ABSOLUTE
    [Anonymous Symbol]                       0x00000000   Number         0  QtCore{00040703}-2191.o ABSOLUTE
    [Anonymous Symbol]                       0x00000000   Number         0  QtOrganizer{00010103}-633.o ABSOLUTE
    [Anonymous Symbol]                       0x00000000   Number         0  calinterimapi{000a0000}-84.o ABSOLUTE
    [Anonymous Symbol]                       0x00000000   Number         0  QtCore{00040703}-2193.o ABSOLUTE
    [Anonymous Symbol]                       0x00000000   Number         0  QtOrganizer{00010103}-642.o ABSOLUTE
    [Anonymous Symbol]                       0x00000000   Number         0  calinterimapi{000a0000}-86.o ABSOLUTE
    [Anonymous Symbol]                       0x00000000   Number         0  QtCore{00040703}-2197.o ABSOLUTE
    [Anonymous Symbol]                       0x00000000   Number         0  QtOrganizer{00010103}-643.o ABSOLUTE
    [Anonymous Symbol]                       0x00000000   Number         0  calinterimapi{000a0000}-91.o ABSOLUTE
    [Anonymous Symbol]                       0x00000000   Number         0  QtCore{00040703}-2199.o ABSOLUTE
    [Anonymous Symbol]                       0x00000000   Number         0  QtOrganizer{00010103}-645.o ABSOLUTE
    [Anonymous Symbol]                       0x00000000   Number         0  calinterimapi{000a0000}-92.o ABSOLUTE
    [Anonymous Symbol]                       0x00000000   Number         0  QtCore{00040703}-2321.o ABSOLUTE
    [Anonymous Symbol]                       0x00000000   Number         0  QtOrganizer{00010103}-673.o ABSOLUTE
    [Anonymous Symbol]                       0x00000000   Number         0  calinterimapi{000a0000}-94.o ABSOLUTE
    [Anonymous Symbol]                       0x00000000   Number         0  QtCore{00040703}-274.o ABSOLUTE
    [Anonymous Symbol]                       0x00000000   Number         0  QtOrganizer{00010103}-674.o ABSOLUTE
    [Anonymous Symbol]                       0x00000000   Number         0  calinterimapi{000a0000}-95.o ABSOLUTE
    [Anonymous Symbol]                       0x00000000   Number         0  QtCore{00040703}-275.o ABSOLUTE
    [Anonymous Symbol]                       0x00000000   Number         0  QtOrganizer{00010103}-675.o ABSOLUTE
    [Anonymous Symbol]                       0x00000000   Number         0  calinterimapi{000a0000}-97.o ABSOLUTE
    [Anonymous Symbol]                       0x00000000   Number         0  QtCore{00040703}-2883.o ABSOLUTE
    [Anonymous Symbol]                       0x00000000   Number         0  QtOrganizer{00010103}-677.o ABSOLUTE
    [Anonymous Symbol]                       0x00000000   Number         0  calinterimapi{000a0000}-98.o ABSOLUTE
    [Anonymous Symbol]                       0x00000000   Number         0  QtCore{00040703}-2884.o ABSOLUTE
    [Anonymous Symbol]                       0x00000000   Number         0  QtOrganizer{00010103}-683.o ABSOLUTE
    [Anonymous Symbol]                       0x00000000   Number         0  calinterimapi{000a0000}-99.o ABSOLUTE
    [Anonymous Symbol]                       0x00000000   Number         0  QtCore{00040703}-2885.o ABSOLUTE
    [Anonymous Symbol]                       0x00000000   Number         0  QtOrganizer{00010103}-685.o ABSOLUTE
    [Anonymous Symbol]                       0x00000000   Number         0  QtOrganizer{00010103}-11.o ABSOLUTE
    [Anonymous Symbol]                       0x00000000   Number         0  QtCore{00040703}-2887.o ABSOLUTE
    [Anonymous Symbol]                       0x00000000   Number         0  QtOrganizer{00010103}-686.o ABSOLUTE
    [Anonymous Symbol]                       0x00000000   Number         0  QtOrganizer{00010103}-120.o ABSOLUTE
    [Anonymous Symbol]                       0x00000000   Number         0  QtCore{00040703}-2888.o ABSOLUTE
    [Anonymous Symbol]                       0x00000000   Number         0  QtOrganizer{00010103}-689.o ABSOLUTE
    [Anonymous Symbol]                       0x00000000   Number         0  QtOrganizer{00010103}-122.o ABSOLUTE
    [Anonymous Symbol]                       0x00000000   Number         0  QtCore{00040703}-2893.o ABSOLUTE
    [Anonymous Symbol]                       0x00000000   Number         0  QtOrganizer{00010103}-692.o ABSOLUTE
    [Anonymous Symbol]                       0x00000000   Number         0  QtOrganizer{00010103}-126.o ABSOLUTE
    [Anonymous Symbol]                       0x00000000   Number         0  QtCore{00040703}-2913.o ABSOLUTE
    [Anonymous Symbol]                       0x00000000   Number         0  QtOrganizer{00010103}-695.o ABSOLUTE
    [Anonymous Symbol]                       0x00000000   Number         0  QtOrganizer{00010103}-127.o ABSOLUTE
    [Anonymous Symbol]                       0x00000000   Number         0  QtCore{00040703}-2914.o ABSOLUTE
    [Anonymous Symbol]                       0x00000000   Number         0  QtOrganizer{00010103}-697.o ABSOLUTE
    [Anonymous Symbol]                       0x00000000   Number         0  QtOrganizer{00010103}-13.o ABSOLUTE
    [Anonymous Symbol]                       0x00000000   Number         0  QtCore{00040703}-2915.o ABSOLUTE
    [Anonymous Symbol]                       0x00000000   Number         0  QtOrganizer{00010103}-712.o ABSOLUTE
    [Anonymous Symbol]                       0x00000000   Number         0  QtOrganizer{00010103}-130.o ABSOLUTE
    [Anonymous Symbol]                       0x00000000   Number         0  QtCore{00040703}-2916.o ABSOLUTE
    [Anonymous Symbol]                       0x00000000   Number         0  QtOrganizer{00010103}-716.o ABSOLUTE
    [Anonymous Symbol]                       0x00000000   Number         0  QtOrganizer{00010103}-138.o ABSOLUTE
    [Anonymous Symbol]                       0x00000000   Number         0  QtCore{00040703}-3040.o ABSOLUTE
    [Anonymous Symbol]                       0x00000000   Number         0  QtOrganizer{00010103}-720.o ABSOLUTE
    [Anonymous Symbol]                       0x00000000   Number         0  QtOrganizer{00010103}-14.o ABSOLUTE
    [Anonymous Symbol]                       0x00000000   Number         0  QtCore{00040703}-3041.o ABSOLUTE
    [Anonymous Symbol]                       0x00000000   Number         0  QtOrganizer{00010103}-726.o ABSOLUTE
    [Anonymous Symbol]                       0x00000000   Number         0  QtOrganizer{00010103}-140.o ABSOLUTE
    [Anonymous Symbol]                       0x00000000   Number         0  QtCore{00040703}-3049.o ABSOLUTE
    [Anonymous Symbol]                       0x00000000   Number         0  QtOrganizer{00010103}-727.o ABSOLUTE
    [Anonymous Symbol]                       0x00000000   Number         0  QtOrganizer{00010103}-142.o ABSOLUTE
    [Anonymous Symbol]                       0x00000000   Number         0  QtCore{00040703}-3053.o ABSOLUTE
    [Anonymous Symbol]                       0x00000000   Number         0  QtOrganizer{00010103}-732.o ABSOLUTE
    [Anonymous Symbol]                       0x00000000   Number         0  QtOrganizer{00010103}-143.o ABSOLUTE
    [Anonymous Symbol]                       0x00000000   Number         0  QtCore{00040703}-3062.o ABSOLUTE
    [Anonymous Symbol]                       0x00000000   Number         0  QtOrganizer{00010103}-734.o ABSOLUTE
    [Anonymous Symbol]                       0x00000000   Number         0  QtOrganizer{00010103}-152.o ABSOLUTE
    [Anonymous Symbol]                       0x00000000   Number         0  QtCore{00040703}-3064.o ABSOLUTE
    [Anonymous Symbol]                       0x00000000   Number         0  QtOrganizer{00010103}-735.o ABSOLUTE
    [Anonymous Symbol]                       0x00000000   Number         0  QtOrganizer{00010103}-156.o ABSOLUTE
    [Anonymous Symbol]                       0x00000000   Number         0  QtCore{00040703}-3067.o ABSOLUTE
    [Anonymous Symbol]                       0x00000000   Number         0  QtOrganizer{00010103}-737.o ABSOLUTE
    [Anonymous Symbol]                       0x00000000   Number         0  QtOrganizer{00010103}-157.o ABSOLUTE
    [Anonymous Symbol]                       0x00000000   Number         0  QtCore{00040703}-3069.o ABSOLUTE
    [Anonymous Symbol]                       0x00000000   Number         0  QtOrganizer{00010103}-738.o ABSOLUTE
    [Anonymous Symbol]                       0x00000000   Number         0  QtOrganizer{00010103}-161.o ABSOLUTE
    [Anonymous Symbol]                       0x00000000   Number         0  QtCore{00040703}-3097.o ABSOLUTE
    [Anonymous Symbol]                       0x00000000   Number         0  QtOrganizer{00010103}-739.o ABSOLUTE
    [Anonymous Symbol]                       0x00000000   Number         0  QtOrganizer{00010103}-17.o ABSOLUTE
    [Anonymous Symbol]                       0x00000000   Number         0  QtCore{00040703}-3098.o ABSOLUTE
    [Anonymous Symbol]                       0x00000000   Number         0  QtOrganizer{00010103}-740.o ABSOLUTE
    [Anonymous Symbol]                       0x00000000   Number         0  QtOrganizer{00010103}-173.o ABSOLUTE
    [Anonymous Symbol]                       0x00000000   Number         0  QtCore{00040703}-3101.o ABSOLUTE
    [Anonymous Symbol]                       0x00000000   Number         0  QtOrganizer{00010103}-741.o ABSOLUTE
    [Anonymous Symbol]                       0x00000000   Number         0  QtOrganizer{00010103}-174.o ABSOLUTE
    [Anonymous Symbol]                       0x00000000   Number         0  QtCore{00040703}-312.o ABSOLUTE
    [Anonymous Symbol]                       0x00000000   Number         0  QtOrganizer{00010103}-742.o ABSOLUTE
    [Anonymous Symbol]                       0x00000000   Number         0  QtOrganizer{00010103}-175.o ABSOLUTE
    [Anonymous Symbol]                       0x00000000   Number         0  QtCore{00040703}-3145.o ABSOLUTE
    [Anonymous Symbol]                       0x00000000   Number         0  QtOrganizer{00010103}-743.o ABSOLUTE
    [Anonymous Symbol]                       0x00000000   Number         0  QtOrganizer{00010103}-179.o ABSOLUTE
    [Anonymous Symbol]                       0x00000000   Number         0  QtCore{00040703}-3165.o ABSOLUTE
    [Anonymous Symbol]                       0x00000000   Number         0  QtOrganizer{00010103}-744.o ABSOLUTE
    [Anonymous Symbol]                       0x00000000   Number         0  QtOrganizer{00010103}-18.o ABSOLUTE
    [Anonymous Symbol]                       0x00000000   Number         0  QtCore{00040703}-3166.o ABSOLUTE
    [Anonymous Symbol]                       0x00000000   Number         0  QtOrganizer{00010103}-745.o ABSOLUTE
    [Anonymous Symbol]                       0x00000000   Number         0  QtOrganizer{00010103}-181.o ABSOLUTE
    [Anonymous Symbol]                       0x00000000   Number         0  QtCore{00040703}-3169.o ABSOLUTE
    [Anonymous Symbol]                       0x00000000   Number         0  QtOrganizer{00010103}-746.o ABSOLUTE
    [Anonymous Symbol]                       0x00000000   Number         0  QtOrganizer{00010103}-186.o ABSOLUTE
    [Anonymous Symbol]                       0x00000000   Number         0  QtCore{00040703}-3170.o ABSOLUTE
    [Anonymous Symbol]                       0x00000000   Number         0  QtOrganizer{00010103}-748.o ABSOLUTE
    [Anonymous Symbol]                       0x00000000   Number         0  QtOrganizer{00010103}-19.o ABSOLUTE
    [Anonymous Symbol]                       0x00000000   Number         0  QtCore{00040703}-3171.o ABSOLUTE
    [Anonymous Symbol]                       0x00000000   Number         0  QtOrganizer{00010103}-749.o ABSOLUTE
    [Anonymous Symbol]                       0x00000000   Number         0  QtOrganizer{00010103}-2.o ABSOLUTE
    [Anonymous Symbol]                       0x00000000   Number         0  QtCore{00040703}-3173.o ABSOLUTE
    [Anonymous Symbol]                       0x00000000   Number         0  QtOrganizer{00010103}-762.o ABSOLUTE
    [Anonymous Symbol]                       0x00000000   Number         0  QtOrganizer{00010103}-208.o ABSOLUTE
    [Anonymous Symbol]                       0x00000000   Number         0  QtCore{00040703}-3177.o ABSOLUTE
    [Anonymous Symbol]                       0x00000000   Number         0  QtOrganizer{00010103}-763.o ABSOLUTE
    [Anonymous Symbol]                       0x00000000   Number         0  QtOrganizer{00010103}-209.o ABSOLUTE
    [Anonymous Symbol]                       0x00000000   Number         0  QtCore{00040703}-3181.o ABSOLUTE
    [Anonymous Symbol]                       0x00000000   Number         0  QtOrganizer{00010103}-764.o ABSOLUTE
    [Anonymous Symbol]                       0x00000000   Number         0  QtOrganizer{00010103}-211.o ABSOLUTE
    [Anonymous Symbol]                       0x00000000   Number         0  QtCore{00040703}-3187.o ABSOLUTE
    [Anonymous Symbol]                       0x00000000   Number         0  QtOrganizer{00010103}-774.o ABSOLUTE
    [Anonymous Symbol]                       0x00000000   Number         0  QtOrganizer{00010103}-215.o ABSOLUTE
    [Anonymous Symbol]                       0x00000000   Number         0  QtCore{00040703}-32.o ABSOLUTE
    [Anonymous Symbol]                       0x00000000   Number         0  QtOrganizer{00010103}-776.o ABSOLUTE
    [Anonymous Symbol]                       0x00000000   Number         0  QtOrganizer{00010103}-216.o ABSOLUTE
    [Anonymous Symbol]                       0x00000000   Number         0  QtCore{00040703}-324.o ABSOLUTE
    [Anonymous Symbol]                       0x00000000   Number         0  QtOrganizer{00010103}-783.o ABSOLUTE
    [Anonymous Symbol]                       0x00000000   Number         0  QtOrganizer{00010103}-221.o ABSOLUTE
    [Anonymous Symbol]                       0x00000000   Number         0  QtCore{00040703}-331.o ABSOLUTE
    [Anonymous Symbol]                       0x00000000   Number         0  QtOrganizer{00010103}-784.o ABSOLUTE
    [Anonymous Symbol]                       0x00000000   Number         0  QtOrganizer{00010103}-224.o ABSOLUTE
    [Anonymous Symbol]                       0x00000000   Number         0  QtCore{00040703}-332.o ABSOLUTE
    [Anonymous Symbol]                       0x00000000   Number         0  QtOrganizer{00010103}-785.o ABSOLUTE
    [Anonymous Symbol]                       0x00000000   Number         0  QtOrganizer{00010103}-230.o ABSOLUTE
    [Anonymous Symbol]                       0x00000000   Number         0  QtCore{00040703}-335.o ABSOLUTE
    [Anonymous Symbol]                       0x00000000   Number         0  QtOrganizer{00010103}-786.o ABSOLUTE
    [Anonymous Symbol]                       0x00000000   Number         0  QtOrganizer{00010103}-233.o ABSOLUTE
    [Anonymous Symbol]                       0x00000000   Number         0  QtCore{00040703}-336.o ABSOLUTE
    [Anonymous Symbol]                       0x00000000   Number         0  QtOrganizer{00010103}-787.o ABSOLUTE
    [Anonymous Symbol]                       0x00000000   Number         0  QtOrganizer{00010103}-24.o ABSOLUTE
    [Anonymous Symbol]                       0x00000000   Number         0  QtCore{00040703}-3484.o ABSOLUTE
    [Anonymous Symbol]                       0x00000000   Number         0  QtOrganizer{00010103}-789.o ABSOLUTE
    [Anonymous Symbol]                       0x00000000   Number         0  QtOrganizer{00010103}-244.o ABSOLUTE
    [Anonymous Symbol]                       0x00000000   Number         0  QtCore{00040703}-3607.o ABSOLUTE
    [Anonymous Symbol]                       0x00000000   Number         0  QtOrganizer{00010103}-792.o ABSOLUTE
    [Anonymous Symbol]                       0x00000000   Number         0  QtOrganizer{00010103}-252.o ABSOLUTE
    [Anonymous Symbol]                       0x00000000   Number         0  QtCore{00040703}-3608.o ABSOLUTE
    [Anonymous Symbol]                       0x00000000   Number         0  QtOrganizer{00010103}-793.o ABSOLUTE
    [Anonymous Symbol]                       0x00000000   Number         0  QtOrganizer{00010103}-255.o ABSOLUTE
    [Anonymous Symbol]                       0x00000000   Number         0  QtCore{00040703}-3609.o ABSOLUTE
    [Anonymous Symbol]                       0x00000000   Number         0  QtOrganizer{00010103}-795.o ABSOLUTE
    [Anonymous Symbol]                       0x00000000   Number         0  QtOrganizer{00010103}-256.o ABSOLUTE
    [Anonymous Symbol]                       0x00000000   Number         0  QtCore{00040703}-3610.o ABSOLUTE
    [Anonymous Symbol]                       0x00000000   Number         0  QtOrganizer{00010103}-796.o ABSOLUTE
    [Anonymous Symbol]                       0x00000000   Number         0  QtOrganizer{00010103}-258.o ABSOLUTE
    [Anonymous Symbol]                       0x00000000   Number         0  QtCore{00040703}-3689.o ABSOLUTE
    [Anonymous Symbol]                       0x00000000   Number         0  QtOrganizer{00010103}-8.o ABSOLUTE
    [Anonymous Symbol]                       0x00000000   Number         0  QtOrganizer{00010103}-26.o ABSOLUTE
    [Anonymous Symbol]                       0x00000000   Number         0  QtCore{00040703}-3691.o ABSOLUTE
    [Anonymous Symbol]                       0x00000000   Number         0  QtOrganizer{00010103}-802.o ABSOLUTE
    [Anonymous Symbol]                       0x00000000   Number         0  QtOrganizer{00010103}-269.o ABSOLUTE
    [Anonymous Symbol]                       0x00000000   Number         0  QtCore{00040703}-3692.o ABSOLUTE
    [Anonymous Symbol]                       0x00000000   Number         0  QtOrganizer{00010103}-803.o ABSOLUTE
    [Anonymous Symbol]                       0x00000000   Number         0  QtOrganizer{00010103}-274.o ABSOLUTE
    [Anonymous Symbol]                       0x00000000   Number         0  QtCore{00040703}-70.o ABSOLUTE
    [Anonymous Symbol]                       0x00000000   Number         0  QtOrganizer{00010103}-804.o ABSOLUTE
    [Anonymous Symbol]                       0x00000000   Number         0  QtOrganizer{00010103}-277.o ABSOLUTE
    [Anonymous Symbol]                       0x00000000   Number         0  QtCore{00040703}-741.o ABSOLUTE
    [Anonymous Symbol]                       0x00000000   Number         0  QtOrganizer{00010103}-808.o ABSOLUTE
    [Anonymous Symbol]                       0x00000000   Number         0  QtOrganizer{00010103}-278.o ABSOLUTE
    [Anonymous Symbol]                       0x00000000   Number         0  QtCore{00040703}-78.o ABSOLUTE
    [Anonymous Symbol]                       0x00000000   Number         0  QtOrganizer{00010103}-810.o ABSOLUTE
    [Anonymous Symbol]                       0x00000000   Number         0  QtOrganizer{00010103}-279.o ABSOLUTE
    [Anonymous Symbol]                       0x00000000   Number         0  QtCore{00040703}-88.o ABSOLUTE
    [Anonymous Symbol]                       0x00000000   Number         0  QtOrganizer{00010103}-822.o ABSOLUTE
    [Anonymous Symbol]                       0x00000000   Number         0  QtOrganizer{00010103}-280.o ABSOLUTE
    [Anonymous Symbol]                       0x00000000   Number         0  libc{00010000}-350.o ABSOLUTE
    [Anonymous Symbol]                       0x00000000   Number         0  QtOrganizer{00010103}-829.o ABSOLUTE
    [Anonymous Symbol]                       0x00000000   Number         0  QtOrganizer{00010103}-282.o ABSOLUTE
    [Anonymous Symbol]                       0x00000000   Number         0  euser{000a0000}-1033.o ABSOLUTE
    [Anonymous Symbol]                       0x00000000   Number         0  QtOrganizer{00010103}-830.o ABSOLUTE
    [Anonymous Symbol]                       0x00000000   Number         0  QtOrganizer{00010103}-283.o ABSOLUTE
    [Anonymous Symbol]                       0x00000000   Number         0  euser{000a0000}-1088.o ABSOLUTE
    [Anonymous Symbol]                       0x00000000   Number         0  QtOrganizer{00010103}-831.o ABSOLUTE
    [Anonymous Symbol]                       0x00000000   Number         0  QtOrganizer{00010103}-285.o ABSOLUTE
    [Anonymous Symbol]                       0x00000000   Number         0  euser{000a0000}-1090.o ABSOLUTE
    [Anonymous Symbol]                       0x00000000   Number         0  QtOrganizer{00010103}-832.o ABSOLUTE
    [Anonymous Symbol]                       0x00000000   Number         0  QtOrganizer{00010103}-286.o ABSOLUTE
    [Anonymous Symbol]                       0x00000000   Number         0  euser{000a0000}-1091.o ABSOLUTE
    [Anonymous Symbol]                       0x00000000   Number         0  QtOrganizer{00010103}-833.o ABSOLUTE
    [Anonymous Symbol]                       0x00000000   Number         0  QtOrganizer{00010103}-287.o ABSOLUTE
    [Anonymous Symbol]                       0x00000000   Number         0  euser{000a0000}-1094.o ABSOLUTE
    [Anonymous Symbol]                       0x00000000   Number         0  QtOrganizer{00010103}-834.o ABSOLUTE
    [Anonymous Symbol]                       0x00000000   Number         0  QtOrganizer{00010103}-288.o ABSOLUTE
    [Anonymous Symbol]                       0x00000000   Number         0  euser{000a0000}-1170.o ABSOLUTE
    [Anonymous Symbol]                       0x00000000   Number         0  QtOrganizer{00010103}-848.o ABSOLUTE
    [Anonymous Symbol]                       0x00000000   Number         0  QtOrganizer{00010103}-289.o ABSOLUTE
    [Anonymous Symbol]                       0x00000000   Number         0  euser{000a0000}-1483.o ABSOLUTE
    [Anonymous Symbol]                       0x00000000   Number         0  QtOrganizer{00010103}-850.o ABSOLUTE
    [Anonymous Symbol]                       0x00000000   Number         0  QtOrganizer{00010103}-290.o ABSOLUTE
    [Anonymous Symbol]                       0x00000000   Number         0  euser{000a0000}-1507.o ABSOLUTE
    [Anonymous Symbol]                       0x00000000   Number         0  QtOrganizer{00010103}-9.o ABSOLUTE
    [Anonymous Symbol]                       0x00000000   Number         0  QtOrganizer{00010103}-291.o ABSOLUTE
    [Anonymous Symbol]                       0x00000000   Number         0  euser{000a0000}-1510.o ABSOLUTE
    [Anonymous Symbol]                       0x00000000   Number         0  libstdcpp{00010000}-988.o ABSOLUTE
    [Anonymous Symbol]                       0x00000000   Number         0  QtOrganizer{00010103}-294.o ABSOLUTE
    [Anonymous Symbol]                       0x00000000   Number         0  euser{000a0000}-1590.o ABSOLUTE
    [Anonymous Symbol]                       0x00000000   Number         0  libstdcpp{00010000}-992.o ABSOLUTE
    [Anonymous Symbol]                       0x00000000   Number         0  QtOrganizer{00010103}-297.o ABSOLUTE
    [Anonymous Symbol]                       0x00000000   Number         0  euser{000a0000}-1593.o ABSOLUTE
    [Anonymous Symbol]                       0x00000000   Number         0  QtCore{00040703}-150.o ABSOLUTE
    [Anonymous Symbol]                       0x00000000   Number         0  QtOrganizer{00010103}-299.o ABSOLUTE
    [Anonymous Symbol]                       0x00000000   Number         0  euser{000a0000}-1679.o ABSOLUTE
    [Anonymous Symbol]                       0x00000000   Number         0  QtCore{00040703}-1582.o ABSOLUTE
    [Anonymous Symbol]                       0x00000000   Number         0  QtOrganizer{00010103}-300.o ABSOLUTE
    [Anonymous Symbol]                       0x00000000   Number         0  euser{000a0000}-1719.o ABSOLUTE
    [Anonymous Symbol]                       0x00000000   Number         0  QtCore{00040703}-1643.o ABSOLUTE
    [Anonymous Symbol]                       0x00000000   Number         0  QtOrganizer{00010103}-306.o ABSOLUTE
    [Anonymous Symbol]                       0x00000000   Number         0  euser{000a0000}-1733.o ABSOLUTE
    [Anonymous Symbol]                       0x00000000   Number         0  QtCore{00040703}-1706.o ABSOLUTE
    [Anonymous Symbol]                       0x00000000   Number         0  QtOrganizer{00010103}-307.o ABSOLUTE
    [Anonymous Symbol]                       0x00000000   Number         0  euser{000a0000}-1807.o ABSOLUTE
    [Anonymous Symbol]                       0x00000000   Number         0  QtCore{00040703}-175.o ABSOLUTE
    [Anonymous Symbol]                       0x00000000   Number         0  QtOrganizer{00010103}-308.o ABSOLUTE
    [Anonymous Symbol]                       0x00000000   Number         0  euser{000a0000}-203.o ABSOLUTE
    [Anonymous Symbol]                       0x00000000   Number         0  QtCore{00040703}-1760.o ABSOLUTE
    [Anonymous Symbol]                       0x00000000   Number         0  QtOrganizer{00010103}-309.o ABSOLUTE
    [Anonymous Symbol]                       0x00000000   Number         0  euser{000a0000}-205.o ABSOLUTE
    [Anonymous Symbol]                       0x00000000   Number         0  QtCore{00040703}-1761.o ABSOLUTE
    [Anonymous Symbol]                       0x00000000   Number         0  QtOrganizer{00010103}-311.o ABSOLUTE
    [Anonymous Symbol]                       0x00000000   Number         0  euser{000a0000}-2060.o ABSOLUTE
    [Anonymous Symbol]                       0x00000000   Number         0  QtCore{00040703}-1763.o ABSOLUTE
    [Anonymous Symbol]                       0x00000000   Number         0  QtOrganizer{00010103}-313.o ABSOLUTE
    [Anonymous Symbol]                       0x00000000   Number         0  euser{000a0000}-2061.o ABSOLUTE
    [Anonymous Symbol]                       0x00000000   Number         0  QtCore{00040703}-1764.o ABSOLUTE
    [Anonymous Symbol]                       0x00000000   Number         0  QtOrganizer{00010103}-314.o ABSOLUTE
    [Anonymous Symbol]                       0x00000000   Number         0  euser{000a0000}-207.o ABSOLUTE
    [Anonymous Symbol]                       0x00000000   Number         0  QtCore{00040703}-1765.o ABSOLUTE
    [Anonymous Symbol]                       0x00000000   Number         0  QtOrganizer{00010103}-315.o ABSOLUTE
    [Anonymous Symbol]                       0x00000000   Number         0  euser{000a0000}-208.o ABSOLUTE
    [Anonymous Symbol]                       0x00000000   Number         0  QtCore{00040703}-1766.o ABSOLUTE
    [Anonymous Symbol]                       0x00000000   Number         0  QtOrganizer{00010103}-316.o ABSOLUTE
    [Anonymous Symbol]                       0x00000000   Number         0  euser{000a0000}-2082.o ABSOLUTE
    [Anonymous Symbol]                       0x00000000   Number         0  QtCore{00040703}-1767.o ABSOLUTE
    [Anonymous Symbol]                       0x00000000   Number         0  QtOrganizer{00010103}-317.o ABSOLUTE
    [Anonymous Symbol]                       0x00000000   Number         0  euser{000a0000}-2128.o ABSOLUTE
    [Anonymous Symbol]                       0x00000000   Number         0  QtCore{00040703}-1768.o ABSOLUTE
    [Anonymous Symbol]                       0x00000000   Number         0  QtOrganizer{00010103}-318.o ABSOLUTE
    [Anonymous Symbol]                       0x00000000   Number         0  euser{000a0000}-424.o ABSOLUTE
    [Anonymous Symbol]                       0x00000000   Number         0  QtCore{00040703}-1773.o ABSOLUTE
    [Anonymous Symbol]                       0x00000000   Number         0  QtOrganizer{00010103}-321.o ABSOLUTE
    [Anonymous Symbol]                       0x00000000   Number         0  euser{000a0000}-46.o ABSOLUTE
    [Anonymous Symbol]                       0x00000000   Number         0  QtCore{00040703}-1777.o ABSOLUTE
    [Anonymous Symbol]                       0x00000000   Number         0  QtOrganizer{00010103}-360.o ABSOLUTE
    [Anonymous Symbol]                       0x00000000   Number         0  euser{000a0000}-470.o ABSOLUTE
    [Anonymous Symbol]                       0x00000000   Number         0  QtCore{00040703}-1784.o ABSOLUTE
    [Anonymous Symbol]                       0x00000000   Number         0  QtOrganizer{00010103}-368.o ABSOLUTE
    [Anonymous Symbol]                       0x00000000   Number         0  euser{000a0000}-471.o ABSOLUTE
    [Anonymous Symbol]                       0x00000000   Number         0  QtCore{00040703}-1785.o ABSOLUTE
    [Anonymous Symbol]                       0x00000000   Number         0  QtOrganizer{00010103}-425.o ABSOLUTE
    [Anonymous Symbol]                       0x00000000   Number         0  euser{000a0000}-472.o ABSOLUTE
    [Anonymous Symbol]                       0x00000000   Number         0  calinterimapi{000a0000}-179.o ABSOLUTE
    [Anonymous Symbol]                       0x00000000   Number         0  QtOrganizer{00010103}-428.o ABSOLUTE
    [Anonymous Symbol]                       0x00000000   Number         0  drtrvct2_2{000a0000}-51.o ABSOLUTE
    [Anonymous Symbol]                       0x00000000   Number         0  QtOrganizer{00010103}-472.o ABSOLUTE
    [Anonymous Symbol]                       0x00000000   Number         0  QtOrganizer{00010103}-433.o ABSOLUTE
    [Anonymous Symbol]                       0x00000000   Number         0  calinterimapi{000a0000}-110.o ABSOLUTE
    [Anonymous Symbol]                       0x00000000   Number         0  QtOrganizer{00010103}-512.o ABSOLUTE
    [Anonymous Symbol]                       0x00000000   Number         0  QtOrganizer{00010103}-438.o ABSOLUTE
    [Anonymous Symbol]                       0x00000000   Number         0  calinterimapi{000a0000}-112.o ABSOLUTE
    [Anonymous Symbol]                       0x00000000   Number         0  QtOrganizer{00010103}-513.o ABSOLUTE
    [Anonymous Symbol]                       0x00000000   Number         0  QtOrganizer{00010103}-441.o ABSOLUTE
    [Anonymous Symbol]                       0x00000000   Number         0  calinterimapi{000a0000}-113.o ABSOLUTE
    [Anonymous Symbol]                       0x00000000   Number         0  QtOrganizer{00010103}-514.o ABSOLUTE
    [Anonymous Symbol]                       0x00000000   Number         0  QtOrganizer{00010103}-45.o ABSOLUTE
    [Anonymous Symbol]                       0x00000000   Number         0  calinterimapi{000a0000}-114.o ABSOLUTE
    [Anonymous Symbol]                       0x00000000   Number         0  QtOrganizer{00010103}-515.o ABSOLUTE
    [Anonymous Symbol]                       0x00000000   Number         0  QtOrganizer{00010103}-454.o ABSOLUTE
    [Anonymous Symbol]                       0x00000000   Number         0  calinterimapi{000a0000}-115.o ABSOLUTE
    [Anonymous Symbol]                       0x00000000   Number         0  QtOrganizer{00010103}-518.o ABSOLUTE
    [Anonymous Symbol]                       0x00000000   Number         0  QtOrganizer{00010103}-459.o ABSOLUTE
    [Anonymous Symbol]                       0x00000000   Number         0  calinterimapi{000a0000}-116.o ABSOLUTE
    [Anonymous Symbol]                       0x00000000   Number         0  QtOrganizer{00010103}-520.o ABSOLUTE
    [Anonymous Symbol]                       0x00000000   Number         0  QtOrganizer{00010103}-460.o ABSOLUTE
    [Anonymous Symbol]                       0x00000000   Number         0  calinterimapi{000a0000}-117.o ABSOLUTE
    [Anonymous Symbol]                       0x00000000   Number         0  QtOrganizer{00010103}-54.o ABSOLUTE
    [Anonymous Symbol]                       0x00000000   Number         0  QtOrganizer{00010103}-461.o ABSOLUTE
    [Anonymous Symbol]                       0x00000000   Number         0  calinterimapi{000a0000}-118.o ABSOLUTE
    [Anonymous Symbol]                       0x00000000   Number         0  QtOrganizer{00010103}-55.o ABSOLUTE
    [Anonymous Symbol]                       0x00000000   Number         0  QtOrganizer{00010103}-462.o ABSOLUTE
    [Anonymous Symbol]                       0x00000000   Number         0  calinterimapi{000a0000}-120.o ABSOLUTE
    [Anonymous Symbol]                       0x00000000   Number         0  calinterimapi{000a0000}-173.o ABSOLUTE
    [Anonymous Symbol]                       0x00000000   Number         0  QtOrganizer{00010103}-463.o ABSOLUTE
    [Anonymous Symbol]                       0x00000000   Number         0  calinterimapi{000a0000}-124.o ABSOLUTE
    [Anonymous Symbol]                       0x00000000   Number         0  calinterimapi{000a0000}-174.o ABSOLUTE
    [Anonymous Symbol]                       0x00000000   Number         0  QtOrganizer{00010103}-464.o ABSOLUTE
    [Anonymous Symbol]                       0x00000000   Number         0  calinterimapi{000a0000}-126.o ABSOLUTE
    [Anonymous Symbol]                       0x00000000   Number         0  calinterimapi{000a0000}-177.o ABSOLUTE
    [Anonymous Symbol]                       0x00000000   Number         0  QtOrganizer{00010103}-467.o ABSOLUTE
    [Anonymous Symbol]                       0x00000000   Number         0  calinterimapi{000a0000}-127.o ABSOLUTE
    [Anonymous Symbol]                       0x00000000   Number         0  calinterimapi{000a0000}-178.o ABSOLUTE
    [Anonymous Symbol]                       0x00000000   Number         0  QtOrganizer{00010103}-469.o ABSOLUTE
    [Anonymous Symbol]                       0x00000000   Number         0  calinterimapi{000a0000}-133.o ABSOLUTE
    [Anonymous Symbol]                       0x00000000   Number         0  calinterimapi{000a0000}-166.o ABSOLUTE
    [Anonymous Symbol]                       0x00000000   Number         0  calinterimapi{000a0000}-161.o ABSOLUTE
    [Anonymous Symbol]                       0x00000000   Number         0  calinterimapi{000a0000}-134.o ABSOLUTE
    [Anonymous Symbol]                       0x00000000   Number         0  calinterimapi{000a0000}-167.o ABSOLUTE
    [Anonymous Symbol]                       0x00000000   Number         0  calinterimapi{000a0000}-162.o ABSOLUTE
    [Anonymous Symbol]                       0x00000000   Number         0  calinterimapi{000a0000}-135.o ABSOLUTE
    [Anonymous Symbol]                       0x00000000   Number         0  calinterimapi{000a0000}-169.o ABSOLUTE
    [Anonymous Symbol]                       0x00000000   Number         0  calinterimapi{000a0000}-164.o ABSOLUTE
    [Anonymous Symbol]                       0x00000000   Number         0  calinterimapi{000a0000}-136.o ABSOLUTE
    [Anonymous Symbol]                       0x00000000   Number         0  calinterimapi{000a0000}-170.o ABSOLUTE
    [Anonymous Symbol]                       0x00000000   Number         0  calinterimapi{000a0000}-165.o ABSOLUTE
    [Anonymous Symbol]                       0x00000000   Number         0  calinterimapi{000a0000}-147.o ABSOLUTE
    [Anonymous Symbol]                       0x00000000   Number         0  calinterimapi{000a0000}-172.o ABSOLUTE
    [Anonymous Symbol]                       0x00000000   Number         0  calinterimapi{000a0000}-155.o ABSOLUTE
    [Anonymous Symbol]                       0x00000000   Number         0  calinterimapi{000a0000}-148.o ABSOLUTE
    [Anonymous Symbol]                       0x00000000   Number         0  calinterimapi{000a0000}-109.o ABSOLUTE
    [Anonymous Symbol]                       0x00000000   Number         0  calinterimapi{000a0000}-157.o ABSOLUTE
    [Anonymous Symbol]                       0x00000000   Number         0  calinterimapi{000a0000}-149.o ABSOLUTE
    [Anonymous Symbol]                       0x00000000   Number         0  drtaeabi{000a0000}-184.o ABSOLUTE
    [Anonymous Symbol]                       0x00000000   Number         0  calinterimapi{000a0000}-158.o ABSOLUTE
    [Anonymous Symbol]                       0x00000000   Number         0  calinterimapi{000a0000}-152.o ABSOLUTE
    [Anonymous Symbol]                       0x00000000   Number         0  drtaeabi{000a0000}-186.o ABSOLUTE
    [Anonymous Symbol]                       0x00000000   Number         0  calinterimapi{000a0000}-159.o ABSOLUTE
    [Anonymous Symbol]                       0x00000000   Number         0  calinterimapi{000a0000}-153.o ABSOLUTE
    [Anonymous Symbol]                       0x00000000   Number         0  drtaeabi{000a0000}-187.o ABSOLUTE
    [Anonymous Symbol]                       0x00000000   Number         0  calinterimapi{000a0000}-160.o ABSOLUTE
    [Anonymous Symbol]                       0x00000000   Number         0  drtaeabi{000a0000}-147.o ABSOLUTE
    [Anonymous Symbol]                       0x00000000   Number         0  calinterimapi{000a0000}-100.o ABSOLUTE
    [Anonymous Symbol]                       0x00000000   Number         0  drtaeabi{000a0000}-183.o ABSOLUTE
    [Anonymous Symbol]                       0x00000000   Number         0  drtaeabi{000a0000}-155.o ABSOLUTE
    [Anonymous Symbol]                       0x00000000   Number         0  calinterimapi{000a0000}-101.o ABSOLUTE
    [Anonymous Symbol]                       0x00000000   Number         0  drtaeabi{000a0000}-180.o ABSOLUTE
    [Anonymous Symbol]                       0x00000000   Number         0  drtaeabi{000a0000}-158.o ABSOLUTE
    [Anonymous Symbol]                       0x00000000   Number         0  calinterimapi{000a0000}-105.o ABSOLUTE
    [Anonymous Symbol]                       0x00000000   Number         0  drtaeabi{000a0000}-182.o ABSOLUTE
    [Anonymous Symbol]                       0x00000000   Number         0  drtrvct2_2{000a0000}-45.o ABSOLUTE
    [Anonymous Symbol]                       0x00000000   Number         0  drtaeabi{000a0000}-135.o ABSOLUTE
    [Anonymous Symbol]                       0x00000000   Number         0  calinterimapi{000a0000}-107.o ABSOLUTE
    [Anonymous Symbol]                       0x00000000   Number         0  drtaeabi{000a0000}-190.o ABSOLUTE
    [Anonymous Symbol]                       0x00000000   Number         0  drtaeabi{000a0000}-189.o ABSOLUTE
    [Anonymous Symbol]                       0x00000000   Number         0  drtaeabi{000a0000}-188.o ABSOLUTE
    [Anonymous Symbol]                       0x00000000   Number         0  drtrvct2_2{000a0000}-28.o ABSOLUTE
    [Anonymous Symbol]                       0x00000000   Number         0  calinterimapi{000a0000}-108.o ABSOLUTE
    ..\..\..\..\EPOC32\BUILD\s60\osext\mobileruntime\group\LIBSTDCPP\ARMV5\VtblExports.s 0x00000000   Number         0  VtblExports.o ABSOLUTE
    \EPOC32\BUILD\src\cedar\generic\base\e32\compsupp\DRTAEABI\ARMV5\VtblExports.s 0x00000000   Number         0  VtblExports.o ABSOLUTE
    \EPOC32\BUILD\src\cedar\generic\base\e32\euser\EDLL\ARMV5\urel\uc_dll_.cpp 0x00000000   Number         0  uc_dll_.o ABSOLUTE
    \EPOC32\BUILD\src\cedar\generic\base\e32\euser\EUSER\ARMV5\VtblExports.s 0x00000000   Number         0  VtblExports.o ABSOLUTE
    \EPOC32\BUILD\src\common\generic\app-engines\CalInterimApi\group\CALINTERIMAPI\ARMV5\VtblExports.s 0x00000000   Number         0  VtblExports.o ABSOLUTE
    \EPOC32\BUILD\wk29\stdlibs\group\LIBC\ARMV5\VtblExports.s 0x00000000   Number         0  VtblExports.o ABSOLUTE
    \EPOC32\BUILD\wk29\stdlibs\group\LIBDL\ARMV5\VtblExports.s 0x00000000   Number         0  VtblExports.o ABSOLUTE
    \EPOC32\BUILD\wk29\stdlibs\group\LIBM\ARMV5\VtblExports.s 0x00000000   Number         0  VtblExports.o ABSOLUTE
    \EPOC32\BUILD\wk29\stdlibs\group\LIBPTHREAD\ARMV5\VtblExports.s 0x00000000   Number         0  VtblExports.o ABSOLUTE
    \\EPOC32\\BUILD\\src\\cedar\\generic\\base\\e32\\euser\\EDLL\\ARMV5\\urel\\uc_dll_.cpp 0x00000000   Number         0  uc_dll_.o ABSOLUTE
    \\src\\cedar\\generic\\base\\e32\\compsupp\\RVCT2_2\\ucppinit_aeabi.cpp 0x00000000   Number         0  ucppinit_aeabi.o ABSOLUTE
    \dev\symb\SDKs\32\EPOC32\BUILD\iwmake\buildS60____PADDING________\src\QTCORE_DLL\ARMV6\VtblExports.s 0x00000000   Number         0  VtblExports.o ABSOLUTE
    \dev\symb\SDKs\32\EPOC32\BUILD\iwmake\buildS60____PADDING________\src\QTGUI_DLL\ARMV6\VtblExports.s 0x00000000   Number         0  VtblExports.o ABSOLUTE
    \s60\5.0\EPOC32\BUILD\scripts\5.0\qtmobility\QTORGANIZER_DLL\ARMV5\VtblExports.s 0x00000000   Number         0  VtblExports.o ABSOLUTE
    \s60\5.0\EPOC32\BUILD\scripts\5.0\qtmobility\QTORGANIZER_SYMBIAN_DLL\ARMV5\urel\qtorganizer_symbian{000a0000}.s 0x00000000   Number         0  qtorganizer_symbian{000a0000}.exp ABSOLUTE
    \scripts\5.0\qtmobility\build\Release\qtorganizer_symbian\moc\moc_qorganizeritemrequestqueue.cpp 0x00000000   Number         0  qtorganizer_symbian.in ABSOLUTE
    \scripts\5.0\qtmobility\build\Release\qtorganizer_symbian\moc\moc_qorganizersymbian_p.cpp 0x00000000   Number         0  qtorganizer_symbian.in ABSOLUTE
    \scripts\5.0\qtmobility\plugins\organizer\symbian\organizeritemrequestserviceprovider.cpp 0x00000000   Number         0  qtorganizer_symbian.in ABSOLUTE
    \scripts\5.0\qtmobility\plugins\organizer\symbian\organizeritemtransform.cpp 0x00000000   Number         0  qtorganizer_symbian.in ABSOLUTE
    \scripts\5.0\qtmobility\plugins\organizer\symbian\organizersymbiancollection.cpp 0x00000000   Number         0  qtorganizer_symbian.in ABSOLUTE
    \scripts\5.0\qtmobility\plugins\organizer\symbian\organizersymbianutils.cpp 0x00000000   Number         0  qtorganizer_symbian.in ABSOLUTE
    \scripts\5.0\qtmobility\plugins\organizer\symbian\qorganizeritemrequestqueue.cpp 0x00000000   Number         0  qtorganizer_symbian.in ABSOLUTE
    \scripts\5.0\qtmobility\plugins\organizer\symbian\qorganizersymbian.cpp 0x00000000   Number         0  qtorganizer_symbian.in ABSOLUTE
    \scripts\5.0\qtmobility\plugins\organizer\symbian\transform\organizereventtimerangetransform.cpp 0x00000000   Number         0  qtorganizer_symbian.in ABSOLUTE
    \scripts\5.0\qtmobility\plugins\organizer\symbian\transform\organizeritemdescriptiontransform.cpp 0x00000000   Number         0  qtorganizer_symbian.in ABSOLUTE
    \scripts\5.0\qtmobility\plugins\organizer\symbian\transform\organizeritemdetailtransform.cpp 0x00000000   Number         0  qtorganizer_symbian.in ABSOLUTE
    \scripts\5.0\qtmobility\plugins\organizer\symbian\transform\organizeritemdisplaylabeltransform.cpp 0x00000000   Number         0  qtorganizer_symbian.in ABSOLUTE
    \scripts\5.0\qtmobility\plugins\organizer\symbian\transform\organizeritemguidtransform.cpp 0x00000000   Number         0  qtorganizer_symbian.in ABSOLUTE
    \scripts\5.0\qtmobility\plugins\organizer\symbian\transform\organizeritemlocationtransform.cpp 0x00000000   Number         0  qtorganizer_symbian.in ABSOLUTE
    \scripts\5.0\qtmobility\plugins\organizer\symbian\transform\organizeritemparenttransform.cpp 0x00000000   Number         0  qtorganizer_symbian.in ABSOLUTE
    \scripts\5.0\qtmobility\plugins\organizer\symbian\transform\organizeritemprioritytransform.cpp 0x00000000   Number         0  qtorganizer_symbian.in ABSOLUTE
    \scripts\5.0\qtmobility\plugins\organizer\symbian\transform\organizeritemrecurrencetransform.cpp 0x00000000   Number         0  qtorganizer_symbian.in ABSOLUTE
    \scripts\5.0\qtmobility\plugins\organizer\symbian\transform\organizeritemremindertransform.cpp 0x00000000   Number         0  qtorganizer_symbian.in ABSOLUTE
    \scripts\5.0\qtmobility\plugins\organizer\symbian\transform\organizeritemtimestamptransform.cpp 0x00000000   Number         0  qtorganizer_symbian.in ABSOLUTE
    \scripts\5.0\qtmobility\plugins\organizer\symbian\transform\organizeritemtypetransform.cpp 0x00000000   Number         0  qtorganizer_symbian.in ABSOLUTE
    \scripts\5.0\qtmobility\plugins\organizer\symbian\transform\organizerjournaltimerangetransform.cpp 0x00000000   Number         0  qtorganizer_symbian.in ABSOLUTE
    \scripts\5.0\qtmobility\plugins\organizer\symbian\transform\organizertodoprogresstransform.cpp 0x00000000   Number         0  qtorganizer_symbian.in ABSOLUTE
    \scripts\5.0\qtmobility\plugins\organizer\symbian\transform\organizertodotimerangetransform.cpp 0x00000000   Number         0  qtorganizer_symbian.in ABSOLUTE
    \src\cedar\generic\base\e32\compsupp\RVCT2_2\ucppfini.cpp 0x00000000   Number         0  ucppfini.o ABSOLUTE
    \src\cedar\generic\base\e32\compsupp\RVCT2_2\ucppinit_aeabi.cpp 0x00000000   Number         0  ucppinit_aeabi.o ABSOLUTE
    \src\cedar\generic\base\e32\euser\epoc\arm\uc_dll.cpp 0x00000000   Number         0  uc_dll.o ABSOLUTE
    .emb_text                                0x00008000   Section       40  uc_dll_.o(.emb_text)
    .emb_text                                0x00008028   Section       72  ucppinit_aeabi.o(.emb_text)
    skip                                     0x0000803c   ARM Code       0  ucppinit_aeabi.o(.emb_text)
    loop                                     0x0000804c   ARM Code       0  ucppinit_aeabi.o(.emb_text)
    fpinit                                   0x00008064   Data           0  ucppinit_aeabi.o(.emb_text)
    base                                     0x00008068   Data           0  ucppinit_aeabi.o(.emb_text)
    limit                                    0x0000806c   Data           0  ucppinit_aeabi.o(.emb_text)
    .text                                    0x00008070   Section       68  qtorganizer_symbian.in(.text)
    .text                                    0x000080b4   Section      256  qtorganizer_symbian.in(.text)
    .text                                    0x000081b4   Section      716  qtorganizer_symbian.in(.text)
    .text                                    0x00008480   Section     2836  qtorganizer_symbian.in(.text)
    .text                                    0x00008f94   Section    10084  qtorganizer_symbian.in(.text)
    .text                                    0x0000b6f8   Section     1104  qtorganizer_symbian.in(.text)
    .text                                    0x0000bb48   Section      770  qtorganizer_symbian.in(.text)
    .text                                    0x0000be4c   Section     3112  qtorganizer_symbian.in(.text)
    .text                                    0x0000ca74   Section       56  qtorganizer_symbian.in(.text)
    .text                                    0x0000caac   Section      820  qtorganizer_symbian.in(.text)
    .text                                    0x0000cde0   Section      124  qtorganizer_symbian.in(.text)
    .text                                    0x0000ce5c   Section      324  qtorganizer_symbian.in(.text)
    .text                                    0x0000cfa0   Section      216  qtorganizer_symbian.in(.text)
    .text                                    0x0000d078   Section       24  qtorganizer_symbian.in(.text)
    .text                                    0x0000d090   Section      876  qtorganizer_symbian.in(.text)
    .text                                    0x0000d3fc   Section      232  qtorganizer_symbian.in(.text)
    .text                                    0x0000d4e4   Section     3984  qtorganizer_symbian.in(.text)
    .text                                    0x0000e474   Section      304  qtorganizer_symbian.in(.text)
    .text                                    0x0000e5a4   Section      540  qtorganizer_symbian.in(.text)
    .text                                    0x0000e7c0   Section      284  qtorganizer_symbian.in(.text)
    .text                                    0x0000e8dc   Section      928  qtorganizer_symbian.in(.text)
    .text                                    0x0000ec7c   Section      776  qtorganizer_symbian.in(.text)
    .text                                    0x0000ef84   Section      776  qtorganizer_symbian.in(.text)
    .text                                    0x0000f28c   Section       40  uc_dll.o(.text)
    .text                                    0x0000f2b4   Section      148  ucppfini.o(.text)
    .text.clean                              0x0000f348   Section       80  qtorganizer_symbian.in(.text.clean)
    .text.clean                              0x0000f398   Section      516  qtorganizer_symbian.in(.text.clean)
    .text.clean                              0x0000f59c   Section     1512  qtorganizer_symbian.in(.text.clean)
    .text.clean                              0x0000fb84   Section      166  qtorganizer_symbian.in(.text.clean)
    .text.clean                              0x0000fc2a   Section       58  qtorganizer_symbian.in(.text.clean)
    .text.clean                              0x0000fc64   Section      416  qtorganizer_symbian.in(.text.clean)
    .text.clean                              0x0000fe04   Section      120  qtorganizer_symbian.in(.text.clean)
    .text.clean                              0x0000fe7c   Section       26  qtorganizer_symbian.in(.text.clean)
    .text.clean                              0x0000fe96   Section       52  qtorganizer_symbian.in(.text.clean)
    .text.clean                              0x0000feca   Section       36  qtorganizer_symbian.in(.text.clean)
    .text.clean                              0x0000feee   Section      146  qtorganizer_symbian.in(.text.clean)
    .text.clean                              0x0000ff80   Section       44  qtorganizer_symbian.in(.text.clean)
    .text.clean                              0x0000ffac   Section      388  qtorganizer_symbian.in(.text.clean)
    .text.clean                              0x00010130   Section       52  qtorganizer_symbian.in(.text.clean)
    .text.clean                              0x00010164   Section       40  qtorganizer_symbian.in(.text.clean)
    .text.clean                              0x0001018c   Section       64  qtorganizer_symbian.in(.text.clean)
    .text.clean                              0x000101cc   Section      134  qtorganizer_symbian.in(.text.clean)
    .text.clean                              0x00010252   Section      114  qtorganizer_symbian.in(.text.clean)
    .text.clean                              0x000102c4   Section      110  qtorganizer_symbian.in(.text.clean)
    ExportTable                              0x00010334   Section       16  qtorganizer_symbian{000a0000}.exp(ExportTable)
    StubCode                                 0x00010344   Section        8  calinterimapi{000a0000}-100.o(StubCode)
    theImportedSymbol                        0x00010348   Data           0  calinterimapi{000a0000}-100.o(StubCode)
    StubCode                                 0x0001034c   Section        8  calinterimapi{000a0000}-101.o(StubCode)
    theImportedSymbol                        0x00010350   Data           0  calinterimapi{000a0000}-101.o(StubCode)
    StubCode                                 0x00010354   Section        8  calinterimapi{000a0000}-105.o(StubCode)
    theImportedSymbol                        0x00010358   Data           0  calinterimapi{000a0000}-105.o(StubCode)
    StubCode                                 0x0001035c   Section        8  calinterimapi{000a0000}-107.o(StubCode)
    theImportedSymbol                        0x00010360   Data           0  calinterimapi{000a0000}-107.o(StubCode)
    StubCode                                 0x00010364   Section        8  calinterimapi{000a0000}-108.o(StubCode)
    theImportedSymbol                        0x00010368   Data           0  calinterimapi{000a0000}-108.o(StubCode)
    StubCode                                 0x0001036c   Section        8  calinterimapi{000a0000}-109.o(StubCode)
    theImportedSymbol                        0x00010370   Data           0  calinterimapi{000a0000}-109.o(StubCode)
    StubCode                                 0x00010374   Section        8  calinterimapi{000a0000}-110.o(StubCode)
    theImportedSymbol                        0x00010378   Data           0  calinterimapi{000a0000}-110.o(StubCode)
    StubCode                                 0x0001037c   Section        8  calinterimapi{000a0000}-112.o(StubCode)
    theImportedSymbol                        0x00010380   Data           0  calinterimapi{000a0000}-112.o(StubCode)
    StubCode                                 0x00010384   Section        8  calinterimapi{000a0000}-113.o(StubCode)
    theImportedSymbol                        0x00010388   Data           0  calinterimapi{000a0000}-113.o(StubCode)
    StubCode                                 0x0001038c   Section        8  calinterimapi{000a0000}-114.o(StubCode)
    theImportedSymbol                        0x00010390   Data           0  calinterimapi{000a0000}-114.o(StubCode)
    StubCode                                 0x00010394   Section        8  calinterimapi{000a0000}-115.o(StubCode)
    theImportedSymbol                        0x00010398   Data           0  calinterimapi{000a0000}-115.o(StubCode)
    StubCode                                 0x0001039c   Section        8  calinterimapi{000a0000}-116.o(StubCode)
    theImportedSymbol                        0x000103a0   Data           0  calinterimapi{000a0000}-116.o(StubCode)
    StubCode                                 0x000103a4   Section        8  calinterimapi{000a0000}-117.o(StubCode)
    theImportedSymbol                        0x000103a8   Data           0  calinterimapi{000a0000}-117.o(StubCode)
    StubCode                                 0x000103ac   Section        8  calinterimapi{000a0000}-118.o(StubCode)
    theImportedSymbol                        0x000103b0   Data           0  calinterimapi{000a0000}-118.o(StubCode)
    StubCode                                 0x000103b4   Section        8  calinterimapi{000a0000}-120.o(StubCode)
    theImportedSymbol                        0x000103b8   Data           0  calinterimapi{000a0000}-120.o(StubCode)
    StubCode                                 0x000103bc   Section        8  calinterimapi{000a0000}-124.o(StubCode)
    theImportedSymbol                        0x000103c0   Data           0  calinterimapi{000a0000}-124.o(StubCode)
    StubCode                                 0x000103c4   Section        8  calinterimapi{000a0000}-126.o(StubCode)
    theImportedSymbol                        0x000103c8   Data           0  calinterimapi{000a0000}-126.o(StubCode)
    StubCode                                 0x000103cc   Section        8  calinterimapi{000a0000}-127.o(StubCode)
    theImportedSymbol                        0x000103d0   Data           0  calinterimapi{000a0000}-127.o(StubCode)
    StubCode                                 0x000103d4   Section        8  calinterimapi{000a0000}-133.o(StubCode)
    theImportedSymbol                        0x000103d8   Data           0  calinterimapi{000a0000}-133.o(StubCode)
    StubCode                                 0x000103dc   Section        8  calinterimapi{000a0000}-134.o(StubCode)
    theImportedSymbol                        0x000103e0   Data           0  calinterimapi{000a0000}-134.o(StubCode)
    StubCode                                 0x000103e4   Section        8  calinterimapi{000a0000}-135.o(StubCode)
    theImportedSymbol                        0x000103e8   Data           0  calinterimapi{000a0000}-135.o(StubCode)
    StubCode                                 0x000103ec   Section        8  calinterimapi{000a0000}-136.o(StubCode)
    theImportedSymbol                        0x000103f0   Data           0  calinterimapi{000a0000}-136.o(StubCode)
    StubCode                                 0x000103f4   Section        8  calinterimapi{000a0000}-147.o(StubCode)
    theImportedSymbol                        0x000103f8   Data           0  calinterimapi{000a0000}-147.o(StubCode)
    StubCode                                 0x000103fc   Section        8  calinterimapi{000a0000}-148.o(StubCode)
    theImportedSymbol                        0x00010400   Data           0  calinterimapi{000a0000}-148.o(StubCode)
    StubCode                                 0x00010404   Section        8  calinterimapi{000a0000}-149.o(StubCode)
    theImportedSymbol                        0x00010408   Data           0  calinterimapi{000a0000}-149.o(StubCode)
    StubCode                                 0x0001040c   Section        8  calinterimapi{000a0000}-152.o(StubCode)
    theImportedSymbol                        0x00010410   Data           0  calinterimapi{000a0000}-152.o(StubCode)
    StubCode                                 0x00010414   Section        8  calinterimapi{000a0000}-153.o(StubCode)
    theImportedSymbol                        0x00010418   Data           0  calinterimapi{000a0000}-153.o(StubCode)
    StubCode                                 0x0001041c   Section        8  calinterimapi{000a0000}-155.o(StubCode)
    theImportedSymbol                        0x00010420   Data           0  calinterimapi{000a0000}-155.o(StubCode)
    StubCode                                 0x00010424   Section        8  calinterimapi{000a0000}-157.o(StubCode)
    theImportedSymbol                        0x00010428   Data           0  calinterimapi{000a0000}-157.o(StubCode)
    StubCode                                 0x0001042c   Section        8  calinterimapi{000a0000}-158.o(StubCode)
    theImportedSymbol                        0x00010430   Data           0  calinterimapi{000a0000}-158.o(StubCode)
    StubCode                                 0x00010434   Section        8  calinterimapi{000a0000}-159.o(StubCode)
    theImportedSymbol                        0x00010438   Data           0  calinterimapi{000a0000}-159.o(StubCode)
    StubCode                                 0x0001043c   Section        8  calinterimapi{000a0000}-160.o(StubCode)
    theImportedSymbol                        0x00010440   Data           0  calinterimapi{000a0000}-160.o(StubCode)
    StubCode                                 0x00010444   Section        8  calinterimapi{000a0000}-161.o(StubCode)
    theImportedSymbol                        0x00010448   Data           0  calinterimapi{000a0000}-161.o(StubCode)
    StubCode                                 0x0001044c   Section        8  calinterimapi{000a0000}-162.o(StubCode)
    theImportedSymbol                        0x00010450   Data           0  calinterimapi{000a0000}-162.o(StubCode)
    StubCode                                 0x00010454   Section        8  calinterimapi{000a0000}-164.o(StubCode)
    theImportedSymbol                        0x00010458   Data           0  calinterimapi{000a0000}-164.o(StubCode)
    StubCode                                 0x0001045c   Section        8  calinterimapi{000a0000}-165.o(StubCode)
    theImportedSymbol                        0x00010460   Data           0  calinterimapi{000a0000}-165.o(StubCode)
    StubCode                                 0x00010464   Section        8  calinterimapi{000a0000}-166.o(StubCode)
    theImportedSymbol                        0x00010468   Data           0  calinterimapi{000a0000}-166.o(StubCode)
    StubCode                                 0x0001046c   Section        8  calinterimapi{000a0000}-167.o(StubCode)
    theImportedSymbol                        0x00010470   Data           0  calinterimapi{000a0000}-167.o(StubCode)
    StubCode                                 0x00010474   Section        8  calinterimapi{000a0000}-169.o(StubCode)
    theImportedSymbol                        0x00010478   Data           0  calinterimapi{000a0000}-169.o(StubCode)
    StubCode                                 0x0001047c   Section        8  calinterimapi{000a0000}-170.o(StubCode)
    theImportedSymbol                        0x00010480   Data           0  calinterimapi{000a0000}-170.o(StubCode)
    StubCode                                 0x00010484   Section        8  calinterimapi{000a0000}-172.o(StubCode)
    theImportedSymbol                        0x00010488   Data           0  calinterimapi{000a0000}-172.o(StubCode)
    StubCode                                 0x0001048c   Section        8  calinterimapi{000a0000}-173.o(StubCode)
    theImportedSymbol                        0x00010490   Data           0  calinterimapi{000a0000}-173.o(StubCode)
    StubCode                                 0x00010494   Section        8  calinterimapi{000a0000}-174.o(StubCode)
    theImportedSymbol                        0x00010498   Data           0  calinterimapi{000a0000}-174.o(StubCode)
    StubCode                                 0x0001049c   Section        8  calinterimapi{000a0000}-177.o(StubCode)
    theImportedSymbol                        0x000104a0   Data           0  calinterimapi{000a0000}-177.o(StubCode)
    StubCode                                 0x000104a4   Section        8  calinterimapi{000a0000}-178.o(StubCode)
    theImportedSymbol                        0x000104a8   Data           0  calinterimapi{000a0000}-178.o(StubCode)
    StubCode                                 0x000104ac   Section        8  calinterimapi{000a0000}-179.o(StubCode)
    theImportedSymbol                        0x000104b0   Data           0  calinterimapi{000a0000}-179.o(StubCode)
    StubCode                                 0x000104b4   Section        8  calinterimapi{000a0000}-180.o(StubCode)
    theImportedSymbol                        0x000104b8   Data           0  calinterimapi{000a0000}-180.o(StubCode)
    StubCode                                 0x000104bc   Section        8  calinterimapi{000a0000}-181.o(StubCode)
    theImportedSymbol                        0x000104c0   Data           0  calinterimapi{000a0000}-181.o(StubCode)
    StubCode                                 0x000104c4   Section        8  calinterimapi{000a0000}-182.o(StubCode)
    theImportedSymbol                        0x000104c8   Data           0  calinterimapi{000a0000}-182.o(StubCode)
    StubCode                                 0x000104cc   Section        8  calinterimapi{000a0000}-183.o(StubCode)
    theImportedSymbol                        0x000104d0   Data           0  calinterimapi{000a0000}-183.o(StubCode)
    StubCode                                 0x000104d4   Section        8  calinterimapi{000a0000}-184.o(StubCode)
    theImportedSymbol                        0x000104d8   Data           0  calinterimapi{000a0000}-184.o(StubCode)
    StubCode                                 0x000104dc   Section        8  calinterimapi{000a0000}-186.o(StubCode)
    theImportedSymbol                        0x000104e0   Data           0  calinterimapi{000a0000}-186.o(StubCode)
    StubCode                                 0x000104e4   Section        8  calinterimapi{000a0000}-187.o(StubCode)
    theImportedSymbol                        0x000104e8   Data           0  calinterimapi{000a0000}-187.o(StubCode)
    StubCode                                 0x000104ec   Section        8  calinterimapi{000a0000}-188.o(StubCode)
    theImportedSymbol                        0x000104f0   Data           0  calinterimapi{000a0000}-188.o(StubCode)
    StubCode                                 0x000104f4   Section        8  calinterimapi{000a0000}-193.o(StubCode)
    theImportedSymbol                        0x000104f8   Data           0  calinterimapi{000a0000}-193.o(StubCode)
    StubCode                                 0x000104fc   Section        8  calinterimapi{000a0000}-218.o(StubCode)
    theImportedSymbol                        0x00010500   Data           0  calinterimapi{000a0000}-218.o(StubCode)
    StubCode                                 0x00010504   Section        8  calinterimapi{000a0000}-219.o(StubCode)
    theImportedSymbol                        0x00010508   Data           0  calinterimapi{000a0000}-219.o(StubCode)
    StubCode                                 0x0001050c   Section        8  calinterimapi{000a0000}-22.o(StubCode)
    theImportedSymbol                        0x00010510   Data           0  calinterimapi{000a0000}-22.o(StubCode)
    StubCode                                 0x00010514   Section        8  calinterimapi{000a0000}-220.o(StubCode)
    theImportedSymbol                        0x00010518   Data           0  calinterimapi{000a0000}-220.o(StubCode)
    StubCode                                 0x0001051c   Section        8  calinterimapi{000a0000}-221.o(StubCode)
    theImportedSymbol                        0x00010520   Data           0  calinterimapi{000a0000}-221.o(StubCode)
    StubCode                                 0x00010524   Section        8  calinterimapi{000a0000}-222.o(StubCode)
    theImportedSymbol                        0x00010528   Data           0  calinterimapi{000a0000}-222.o(StubCode)
    StubCode                                 0x0001052c   Section        8  calinterimapi{000a0000}-225.o(StubCode)
    theImportedSymbol                        0x00010530   Data           0  calinterimapi{000a0000}-225.o(StubCode)
    StubCode                                 0x00010534   Section        8  calinterimapi{000a0000}-226.o(StubCode)
    theImportedSymbol                        0x00010538   Data           0  calinterimapi{000a0000}-226.o(StubCode)
    StubCode                                 0x0001053c   Section        8  calinterimapi{000a0000}-23.o(StubCode)
    theImportedSymbol                        0x00010540   Data           0  calinterimapi{000a0000}-23.o(StubCode)
    StubCode                                 0x00010544   Section        8  calinterimapi{000a0000}-233.o(StubCode)
    theImportedSymbol                        0x00010548   Data           0  calinterimapi{000a0000}-233.o(StubCode)
    StubCode                                 0x0001054c   Section        8  calinterimapi{000a0000}-234.o(StubCode)
    theImportedSymbol                        0x00010550   Data           0  calinterimapi{000a0000}-234.o(StubCode)
    StubCode                                 0x00010554   Section        8  calinterimapi{000a0000}-235.o(StubCode)
    theImportedSymbol                        0x00010558   Data           0  calinterimapi{000a0000}-235.o(StubCode)
    StubCode                                 0x0001055c   Section        8  calinterimapi{000a0000}-25.o(StubCode)
    theImportedSymbol                        0x00010560   Data           0  calinterimapi{000a0000}-25.o(StubCode)
    StubCode                                 0x00010564   Section        8  calinterimapi{000a0000}-3.o(StubCode)
    theImportedSymbol                        0x00010568   Data           0  calinterimapi{000a0000}-3.o(StubCode)
    StubCode                                 0x0001056c   Section        8  calinterimapi{000a0000}-39.o(StubCode)
    theImportedSymbol                        0x00010570   Data           0  calinterimapi{000a0000}-39.o(StubCode)
    StubCode                                 0x00010574   Section        8  calinterimapi{000a0000}-5.o(StubCode)
    theImportedSymbol                        0x00010578   Data           0  calinterimapi{000a0000}-5.o(StubCode)
    StubCode                                 0x0001057c   Section        8  calinterimapi{000a0000}-63.o(StubCode)
    theImportedSymbol                        0x00010580   Data           0  calinterimapi{000a0000}-63.o(StubCode)
    StubCode                                 0x00010584   Section        8  calinterimapi{000a0000}-64.o(StubCode)
    theImportedSymbol                        0x00010588   Data           0  calinterimapi{000a0000}-64.o(StubCode)
    StubCode                                 0x0001058c   Section        8  calinterimapi{000a0000}-65.o(StubCode)
    theImportedSymbol                        0x00010590   Data           0  calinterimapi{000a0000}-65.o(StubCode)
    StubCode                                 0x00010594   Section        8  calinterimapi{000a0000}-66.o(StubCode)
    theImportedSymbol                        0x00010598   Data           0  calinterimapi{000a0000}-66.o(StubCode)
    StubCode                                 0x0001059c   Section        8  calinterimapi{000a0000}-67.o(StubCode)
    theImportedSymbol                        0x000105a0   Data           0  calinterimapi{000a0000}-67.o(StubCode)
    StubCode                                 0x000105a4   Section        8  calinterimapi{000a0000}-69.o(StubCode)
    theImportedSymbol                        0x000105a8   Data           0  calinterimapi{000a0000}-69.o(StubCode)
    StubCode                                 0x000105ac   Section        8  calinterimapi{000a0000}-71.o(StubCode)
    theImportedSymbol                        0x000105b0   Data           0  calinterimapi{000a0000}-71.o(StubCode)
    StubCode                                 0x000105b4   Section        8  calinterimapi{000a0000}-76.o(StubCode)
    theImportedSymbol                        0x000105b8   Data           0  calinterimapi{000a0000}-76.o(StubCode)
    StubCode                                 0x000105bc   Section        8  calinterimapi{000a0000}-77.o(StubCode)
    theImportedSymbol                        0x000105c0   Data           0  calinterimapi{000a0000}-77.o(StubCode)
    StubCode                                 0x000105c4   Section        8  calinterimapi{000a0000}-78.o(StubCode)
    theImportedSymbol                        0x000105c8   Data           0  calinterimapi{000a0000}-78.o(StubCode)
    StubCode                                 0x000105cc   Section        8  calinterimapi{000a0000}-83.o(StubCode)
    theImportedSymbol                        0x000105d0   Data           0  calinterimapi{000a0000}-83.o(StubCode)
    StubCode                                 0x000105d4   Section        8  calinterimapi{000a0000}-84.o(StubCode)
    theImportedSymbol                        0x000105d8   Data           0  calinterimapi{000a0000}-84.o(StubCode)
    StubCode                                 0x000105dc   Section        8  calinterimapi{000a0000}-86.o(StubCode)
    theImportedSymbol                        0x000105e0   Data           0  calinterimapi{000a0000}-86.o(StubCode)
    StubCode                                 0x000105e4   Section        8  calinterimapi{000a0000}-91.o(StubCode)
    theImportedSymbol                        0x000105e8   Data           0  calinterimapi{000a0000}-91.o(StubCode)
    StubCode                                 0x000105ec   Section        8  calinterimapi{000a0000}-92.o(StubCode)
    theImportedSymbol                        0x000105f0   Data           0  calinterimapi{000a0000}-92.o(StubCode)
    StubCode                                 0x000105f4   Section        8  calinterimapi{000a0000}-94.o(StubCode)
    theImportedSymbol                        0x000105f8   Data           0  calinterimapi{000a0000}-94.o(StubCode)
    StubCode                                 0x000105fc   Section        8  calinterimapi{000a0000}-95.o(StubCode)
    theImportedSymbol                        0x00010600   Data           0  calinterimapi{000a0000}-95.o(StubCode)
    StubCode                                 0x00010604   Section        8  calinterimapi{000a0000}-97.o(StubCode)
    theImportedSymbol                        0x00010608   Data           0  calinterimapi{000a0000}-97.o(StubCode)
    StubCode                                 0x0001060c   Section        8  calinterimapi{000a0000}-98.o(StubCode)
    theImportedSymbol                        0x00010610   Data           0  calinterimapi{000a0000}-98.o(StubCode)
    StubCode                                 0x00010614   Section        8  calinterimapi{000a0000}-99.o(StubCode)
    theImportedSymbol                        0x00010618   Data           0  calinterimapi{000a0000}-99.o(StubCode)
    StubCode                                 0x0001061c   Section        8  QtOrganizer{00010103}-11.o(StubCode)
    theImportedSymbol                        0x00010620   Data           0  QtOrganizer{00010103}-11.o(StubCode)
    StubCode                                 0x00010624   Section        8  QtOrganizer{00010103}-120.o(StubCode)
    theImportedSymbol                        0x00010628   Data           0  QtOrganizer{00010103}-120.o(StubCode)
    StubCode                                 0x0001062c   Section        8  QtOrganizer{00010103}-122.o(StubCode)
    theImportedSymbol                        0x00010630   Data           0  QtOrganizer{00010103}-122.o(StubCode)
    StubCode                                 0x00010634   Section        8  QtOrganizer{00010103}-126.o(StubCode)
    theImportedSymbol                        0x00010638   Data           0  QtOrganizer{00010103}-126.o(StubCode)
    StubCode                                 0x0001063c   Section        8  QtOrganizer{00010103}-127.o(StubCode)
    theImportedSymbol                        0x00010640   Data           0  QtOrganizer{00010103}-127.o(StubCode)
    StubCode                                 0x00010644   Section        8  QtOrganizer{00010103}-13.o(StubCode)
    theImportedSymbol                        0x00010648   Data           0  QtOrganizer{00010103}-13.o(StubCode)
    StubCode                                 0x0001064c   Section        8  QtOrganizer{00010103}-130.o(StubCode)
    theImportedSymbol                        0x00010650   Data           0  QtOrganizer{00010103}-130.o(StubCode)
    StubCode                                 0x00010654   Section        8  QtOrganizer{00010103}-138.o(StubCode)
    theImportedSymbol                        0x00010658   Data           0  QtOrganizer{00010103}-138.o(StubCode)
    StubCode                                 0x0001065c   Section        8  QtOrganizer{00010103}-14.o(StubCode)
    theImportedSymbol                        0x00010660   Data           0  QtOrganizer{00010103}-14.o(StubCode)
    StubCode                                 0x00010664   Section        8  QtOrganizer{00010103}-140.o(StubCode)
    theImportedSymbol                        0x00010668   Data           0  QtOrganizer{00010103}-140.o(StubCode)
    StubCode                                 0x0001066c   Section        8  QtOrganizer{00010103}-142.o(StubCode)
    theImportedSymbol                        0x00010670   Data           0  QtOrganizer{00010103}-142.o(StubCode)
    StubCode                                 0x00010674   Section        8  QtOrganizer{00010103}-143.o(StubCode)
    theImportedSymbol                        0x00010678   Data           0  QtOrganizer{00010103}-143.o(StubCode)
    StubCode                                 0x0001067c   Section        8  QtOrganizer{00010103}-152.o(StubCode)
    theImportedSymbol                        0x00010680   Data           0  QtOrganizer{00010103}-152.o(StubCode)
    StubCode                                 0x00010684   Section        8  QtOrganizer{00010103}-156.o(StubCode)
    theImportedSymbol                        0x00010688   Data           0  QtOrganizer{00010103}-156.o(StubCode)
    StubCode                                 0x0001068c   Section        8  QtOrganizer{00010103}-157.o(StubCode)
    theImportedSymbol                        0x00010690   Data           0  QtOrganizer{00010103}-157.o(StubCode)
    StubCode                                 0x00010694   Section        8  QtOrganizer{00010103}-161.o(StubCode)
    theImportedSymbol                        0x00010698   Data           0  QtOrganizer{00010103}-161.o(StubCode)
    StubCode                                 0x0001069c   Section        8  QtOrganizer{00010103}-17.o(StubCode)
    theImportedSymbol                        0x000106a0   Data           0  QtOrganizer{00010103}-17.o(StubCode)
    StubCode                                 0x000106a4   Section        8  QtOrganizer{00010103}-173.o(StubCode)
    theImportedSymbol                        0x000106a8   Data           0  QtOrganizer{00010103}-173.o(StubCode)
    StubCode                                 0x000106ac   Section        8  QtOrganizer{00010103}-174.o(StubCode)
    theImportedSymbol                        0x000106b0   Data           0  QtOrganizer{00010103}-174.o(StubCode)
    StubCode                                 0x000106b4   Section        8  QtOrganizer{00010103}-175.o(StubCode)
    theImportedSymbol                        0x000106b8   Data           0  QtOrganizer{00010103}-175.o(StubCode)
    StubCode                                 0x000106bc   Section        8  QtOrganizer{00010103}-179.o(StubCode)
    theImportedSymbol                        0x000106c0   Data           0  QtOrganizer{00010103}-179.o(StubCode)
    StubCode                                 0x000106c4   Section        8  QtOrganizer{00010103}-18.o(StubCode)
    theImportedSymbol                        0x000106c8   Data           0  QtOrganizer{00010103}-18.o(StubCode)
    StubCode                                 0x000106cc   Section        8  QtOrganizer{00010103}-181.o(StubCode)
    theImportedSymbol                        0x000106d0   Data           0  QtOrganizer{00010103}-181.o(StubCode)
    StubCode                                 0x000106d4   Section        8  QtOrganizer{00010103}-186.o(StubCode)
    theImportedSymbol                        0x000106d8   Data           0  QtOrganizer{00010103}-186.o(StubCode)
    StubCode                                 0x000106dc   Section        8  QtOrganizer{00010103}-19.o(StubCode)
    theImportedSymbol                        0x000106e0   Data           0  QtOrganizer{00010103}-19.o(StubCode)
    StubCode                                 0x000106e4   Section        8  QtOrganizer{00010103}-2.o(StubCode)
    theImportedSymbol                        0x000106e8   Data           0  QtOrganizer{00010103}-2.o(StubCode)
    StubCode                                 0x000106ec   Section        8  QtOrganizer{00010103}-208.o(StubCode)
    theImportedSymbol                        0x000106f0   Data           0  QtOrganizer{00010103}-208.o(StubCode)
    StubCode                                 0x000106f4   Section        8  QtOrganizer{00010103}-209.o(StubCode)
    theImportedSymbol                        0x000106f8   Data           0  QtOrganizer{00010103}-209.o(StubCode)
    StubCode                                 0x000106fc   Section        8  QtOrganizer{00010103}-211.o(StubCode)
    theImportedSymbol                        0x00010700   Data           0  QtOrganizer{00010103}-211.o(StubCode)
    StubCode                                 0x00010704   Section        8  QtOrganizer{00010103}-215.o(StubCode)
    theImportedSymbol                        0x00010708   Data           0  QtOrganizer{00010103}-215.o(StubCode)
    StubCode                                 0x0001070c   Section        8  QtOrganizer{00010103}-216.o(StubCode)
    theImportedSymbol                        0x00010710   Data           0  QtOrganizer{00010103}-216.o(StubCode)
    StubCode                                 0x00010714   Section        8  QtOrganizer{00010103}-221.o(StubCode)
    theImportedSymbol                        0x00010718   Data           0  QtOrganizer{00010103}-221.o(StubCode)
    StubCode                                 0x0001071c   Section        8  QtOrganizer{00010103}-224.o(StubCode)
    theImportedSymbol                        0x00010720   Data           0  QtOrganizer{00010103}-224.o(StubCode)
    StubCode                                 0x00010724   Section        8  QtOrganizer{00010103}-230.o(StubCode)
    theImportedSymbol                        0x00010728   Data           0  QtOrganizer{00010103}-230.o(StubCode)
    StubCode                                 0x0001072c   Section        8  QtOrganizer{00010103}-233.o(StubCode)
    theImportedSymbol                        0x00010730   Data           0  QtOrganizer{00010103}-233.o(StubCode)
    StubCode                                 0x00010734   Section        8  QtOrganizer{00010103}-24.o(StubCode)
    theImportedSymbol                        0x00010738   Data           0  QtOrganizer{00010103}-24.o(StubCode)
    StubCode                                 0x0001073c   Section        8  QtOrganizer{00010103}-244.o(StubCode)
    theImportedSymbol                        0x00010740   Data           0  QtOrganizer{00010103}-244.o(StubCode)
    StubCode                                 0x00010744   Section        8  QtOrganizer{00010103}-252.o(StubCode)
    theImportedSymbol                        0x00010748   Data           0  QtOrganizer{00010103}-252.o(StubCode)
    StubCode                                 0x0001074c   Section        8  QtOrganizer{00010103}-255.o(StubCode)
    theImportedSymbol                        0x00010750   Data           0  QtOrganizer{00010103}-255.o(StubCode)
    StubCode                                 0x00010754   Section        8  QtOrganizer{00010103}-256.o(StubCode)
    theImportedSymbol                        0x00010758   Data           0  QtOrganizer{00010103}-256.o(StubCode)
    StubCode                                 0x0001075c   Section        8  QtOrganizer{00010103}-258.o(StubCode)
    theImportedSymbol                        0x00010760   Data           0  QtOrganizer{00010103}-258.o(StubCode)
    StubCode                                 0x00010764   Section        8  QtOrganizer{00010103}-26.o(StubCode)
    theImportedSymbol                        0x00010768   Data           0  QtOrganizer{00010103}-26.o(StubCode)
    StubCode                                 0x0001076c   Section        8  QtOrganizer{00010103}-269.o(StubCode)
    theImportedSymbol                        0x00010770   Data           0  QtOrganizer{00010103}-269.o(StubCode)
    StubCode                                 0x00010774   Section        8  QtOrganizer{00010103}-274.o(StubCode)
    theImportedSymbol                        0x00010778   Data           0  QtOrganizer{00010103}-274.o(StubCode)
    StubCode                                 0x0001077c   Section        8  QtOrganizer{00010103}-277.o(StubCode)
    theImportedSymbol                        0x00010780   Data           0  QtOrganizer{00010103}-277.o(StubCode)
    StubCode                                 0x00010784   Section        8  QtOrganizer{00010103}-278.o(StubCode)
    theImportedSymbol                        0x00010788   Data           0  QtOrganizer{00010103}-278.o(StubCode)
    StubCode                                 0x0001078c   Section        8  QtOrganizer{00010103}-279.o(StubCode)
    theImportedSymbol                        0x00010790   Data           0  QtOrganizer{00010103}-279.o(StubCode)
    StubCode                                 0x00010794   Section        8  QtOrganizer{00010103}-280.o(StubCode)
    theImportedSymbol                        0x00010798   Data           0  QtOrganizer{00010103}-280.o(StubCode)
    StubCode                                 0x0001079c   Section        8  QtOrganizer{00010103}-282.o(StubCode)
    theImportedSymbol                        0x000107a0   Data           0  QtOrganizer{00010103}-282.o(StubCode)
    StubCode                                 0x000107a4   Section        8  QtOrganizer{00010103}-283.o(StubCode)
    theImportedSymbol                        0x000107a8   Data           0  QtOrganizer{00010103}-283.o(StubCode)
    StubCode                                 0x000107ac   Section        8  QtOrganizer{00010103}-285.o(StubCode)
    theImportedSymbol                        0x000107b0   Data           0  QtOrganizer{00010103}-285.o(StubCode)
    StubCode                                 0x000107b4   Section        8  QtOrganizer{00010103}-286.o(StubCode)
    theImportedSymbol                        0x000107b8   Data           0  QtOrganizer{00010103}-286.o(StubCode)
    StubCode                                 0x000107bc   Section        8  QtOrganizer{00010103}-287.o(StubCode)
    theImportedSymbol                        0x000107c0   Data           0  QtOrganizer{00010103}-287.o(StubCode)
    StubCode                                 0x000107c4   Section        8  QtOrganizer{00010103}-288.o(StubCode)
    theImportedSymbol                        0x000107c8   Data           0  QtOrganizer{00010103}-288.o(StubCode)
    StubCode                                 0x000107cc   Section        8  QtOrganizer{00010103}-289.o(StubCode)
    theImportedSymbol                        0x000107d0   Data           0  QtOrganizer{00010103}-289.o(StubCode)
    StubCode                                 0x000107d4   Section        8  QtOrganizer{00010103}-290.o(StubCode)
    theImportedSymbol                        0x000107d8   Data           0  QtOrganizer{00010103}-290.o(StubCode)
    StubCode                                 0x000107dc   Section        8  QtOrganizer{00010103}-291.o(StubCode)
    theImportedSymbol                        0x000107e0   Data           0  QtOrganizer{00010103}-291.o(StubCode)
    StubCode                                 0x000107e4   Section        8  QtOrganizer{00010103}-294.o(StubCode)
    theImportedSymbol                        0x000107e8   Data           0  QtOrganizer{00010103}-294.o(StubCode)
    StubCode                                 0x000107ec   Section        8  QtOrganizer{00010103}-297.o(StubCode)
    theImportedSymbol                        0x000107f0   Data           0  QtOrganizer{00010103}-297.o(StubCode)
    StubCode                                 0x000107f4   Section        8  QtOrganizer{00010103}-299.o(StubCode)
    theImportedSymbol                        0x000107f8   Data           0  QtOrganizer{00010103}-299.o(StubCode)
    StubCode                                 0x000107fc   Section        8  QtOrganizer{00010103}-300.o(StubCode)
    theImportedSymbol                        0x00010800   Data           0  QtOrganizer{00010103}-300.o(StubCode)
    StubCode                                 0x00010804   Section        8  QtOrganizer{00010103}-306.o(StubCode)
    theImportedSymbol                        0x00010808   Data           0  QtOrganizer{00010103}-306.o(StubCode)
    StubCode                                 0x0001080c   Section        8  QtOrganizer{00010103}-307.o(StubCode)
    theImportedSymbol                        0x00010810   Data           0  QtOrganizer{00010103}-307.o(StubCode)
    StubCode                                 0x00010814   Section        8  QtOrganizer{00010103}-308.o(StubCode)
    theImportedSymbol                        0x00010818   Data           0  QtOrganizer{00010103}-308.o(StubCode)
    StubCode                                 0x0001081c   Section        8  QtOrganizer{00010103}-309.o(StubCode)
    theImportedSymbol                        0x00010820   Data           0  QtOrganizer{00010103}-309.o(StubCode)
    StubCode                                 0x00010824   Section        8  QtOrganizer{00010103}-311.o(StubCode)
    theImportedSymbol                        0x00010828   Data           0  QtOrganizer{00010103}-311.o(StubCode)
    StubCode                                 0x0001082c   Section        8  QtOrganizer{00010103}-313.o(StubCode)
    theImportedSymbol                        0x00010830   Data           0  QtOrganizer{00010103}-313.o(StubCode)
    StubCode                                 0x00010834   Section        8  QtOrganizer{00010103}-314.o(StubCode)
    theImportedSymbol                        0x00010838   Data           0  QtOrganizer{00010103}-314.o(StubCode)
    StubCode                                 0x0001083c   Section        8  QtOrganizer{00010103}-315.o(StubCode)
    theImportedSymbol                        0x00010840   Data           0  QtOrganizer{00010103}-315.o(StubCode)
    StubCode                                 0x00010844   Section        8  QtOrganizer{00010103}-316.o(StubCode)
    theImportedSymbol                        0x00010848   Data           0  QtOrganizer{00010103}-316.o(StubCode)
    StubCode                                 0x0001084c   Section        8  QtOrganizer{00010103}-317.o(StubCode)
    theImportedSymbol                        0x00010850   Data           0  QtOrganizer{00010103}-317.o(StubCode)
    StubCode                                 0x00010854   Section        8  QtOrganizer{00010103}-318.o(StubCode)
    theImportedSymbol                        0x00010858   Data           0  QtOrganizer{00010103}-318.o(StubCode)
    StubCode                                 0x0001085c   Section        8  QtOrganizer{00010103}-321.o(StubCode)
    theImportedSymbol                        0x00010860   Data           0  QtOrganizer{00010103}-321.o(StubCode)
    StubCode                                 0x00010864   Section        8  QtOrganizer{00010103}-360.o(StubCode)
    theImportedSymbol                        0x00010868   Data           0  QtOrganizer{00010103}-360.o(StubCode)
    StubCode                                 0x0001086c   Section        8  QtOrganizer{00010103}-368.o(StubCode)
    theImportedSymbol                        0x00010870   Data           0  QtOrganizer{00010103}-368.o(StubCode)
    StubCode                                 0x00010874   Section        8  QtOrganizer{00010103}-425.o(StubCode)
    theImportedSymbol                        0x00010878   Data           0  QtOrganizer{00010103}-425.o(StubCode)
    StubCode                                 0x0001087c   Section        8  QtOrganizer{00010103}-428.o(StubCode)
    theImportedSymbol                        0x00010880   Data           0  QtOrganizer{00010103}-428.o(StubCode)
    StubCode                                 0x00010884   Section        8  QtOrganizer{00010103}-433.o(StubCode)
    theImportedSymbol                        0x00010888   Data           0  QtOrganizer{00010103}-433.o(StubCode)
    StubCode                                 0x0001088c   Section        8  QtOrganizer{00010103}-438.o(StubCode)
    theImportedSymbol                        0x00010890   Data           0  QtOrganizer{00010103}-438.o(StubCode)
    StubCode                                 0x00010894   Section        8  QtOrganizer{00010103}-441.o(StubCode)
    theImportedSymbol                        0x00010898   Data           0  QtOrganizer{00010103}-441.o(StubCode)
    StubCode                                 0x0001089c   Section        8  QtOrganizer{00010103}-45.o(StubCode)
    theImportedSymbol                        0x000108a0   Data           0  QtOrganizer{00010103}-45.o(StubCode)
    StubCode                                 0x000108a4   Section        8  QtOrganizer{00010103}-454.o(StubCode)
    theImportedSymbol                        0x000108a8   Data           0  QtOrganizer{00010103}-454.o(StubCode)
    StubCode                                 0x000108ac   Section        8  QtOrganizer{00010103}-459.o(StubCode)
    theImportedSymbol                        0x000108b0   Data           0  QtOrganizer{00010103}-459.o(StubCode)
    StubCode                                 0x000108b4   Section        8  QtOrganizer{00010103}-460.o(StubCode)
    theImportedSymbol                        0x000108b8   Data           0  QtOrganizer{00010103}-460.o(StubCode)
    StubCode                                 0x000108bc   Section        8  QtOrganizer{00010103}-461.o(StubCode)
    theImportedSymbol                        0x000108c0   Data           0  QtOrganizer{00010103}-461.o(StubCode)
    StubCode                                 0x000108c4   Section        8  QtOrganizer{00010103}-462.o(StubCode)
    theImportedSymbol                        0x000108c8   Data           0  QtOrganizer{00010103}-462.o(StubCode)
    StubCode                                 0x000108cc   Section        8  QtOrganizer{00010103}-463.o(StubCode)
    theImportedSymbol                        0x000108d0   Data           0  QtOrganizer{00010103}-463.o(StubCode)
    StubCode                                 0x000108d4   Section        8  QtOrganizer{00010103}-464.o(StubCode)
    theImportedSymbol                        0x000108d8   Data           0  QtOrganizer{00010103}-464.o(StubCode)
    StubCode                                 0x000108dc   Section        8  QtOrganizer{00010103}-467.o(StubCode)
    theImportedSymbol                        0x000108e0   Data           0  QtOrganizer{00010103}-467.o(StubCode)
    StubCode                                 0x000108e4   Section        8  QtOrganizer{00010103}-469.o(StubCode)
    theImportedSymbol                        0x000108e8   Data           0  QtOrganizer{00010103}-469.o(StubCode)
    StubCode                                 0x000108ec   Section        8  QtOrganizer{00010103}-472.o(StubCode)
    theImportedSymbol                        0x000108f0   Data           0  QtOrganizer{00010103}-472.o(StubCode)
    StubCode                                 0x000108f4   Section        8  QtOrganizer{00010103}-512.o(StubCode)
    theImportedSymbol                        0x000108f8   Data           0  QtOrganizer{00010103}-512.o(StubCode)
    StubCode                                 0x000108fc   Section        8  QtOrganizer{00010103}-513.o(StubCode)
    theImportedSymbol                        0x00010900   Data           0  QtOrganizer{00010103}-513.o(StubCode)
    StubCode                                 0x00010904   Section        8  QtOrganizer{00010103}-514.o(StubCode)
    theImportedSymbol                        0x00010908   Data           0  QtOrganizer{00010103}-514.o(StubCode)
    StubCode                                 0x0001090c   Section        8  QtOrganizer{00010103}-515.o(StubCode)
    theImportedSymbol                        0x00010910   Data           0  QtOrganizer{00010103}-515.o(StubCode)
    StubCode                                 0x00010914   Section        8  QtOrganizer{00010103}-518.o(StubCode)
    theImportedSymbol                        0x00010918   Data           0  QtOrganizer{00010103}-518.o(StubCode)
    StubCode                                 0x0001091c   Section        8  QtOrganizer{00010103}-520.o(StubCode)
    theImportedSymbol                        0x00010920   Data           0  QtOrganizer{00010103}-520.o(StubCode)
    StubCode                                 0x00010924   Section        8  QtOrganizer{00010103}-54.o(StubCode)
    theImportedSymbol                        0x00010928   Data           0  QtOrganizer{00010103}-54.o(StubCode)
    StubCode                                 0x0001092c   Section        8  QtOrganizer{00010103}-55.o(StubCode)
    theImportedSymbol                        0x00010930   Data           0  QtOrganizer{00010103}-55.o(StubCode)
    StubCode                                 0x00010934   Section        8  QtOrganizer{00010103}-56.o(StubCode)
    theImportedSymbol                        0x00010938   Data           0  QtOrganizer{00010103}-56.o(StubCode)
    StubCode                                 0x0001093c   Section        8  QtOrganizer{00010103}-571.o(StubCode)
    theImportedSymbol                        0x00010940   Data           0  QtOrganizer{00010103}-571.o(StubCode)
    StubCode                                 0x00010944   Section        8  QtOrganizer{00010103}-575.o(StubCode)
    theImportedSymbol                        0x00010948   Data           0  QtOrganizer{00010103}-575.o(StubCode)
    StubCode                                 0x0001094c   Section        8  QtOrganizer{00010103}-6.o(StubCode)
    theImportedSymbol                        0x00010950   Data           0  QtOrganizer{00010103}-6.o(StubCode)
    StubCode                                 0x00010954   Section        8  QtOrganizer{00010103}-60.o(StubCode)
    theImportedSymbol                        0x00010958   Data           0  QtOrganizer{00010103}-60.o(StubCode)
    StubCode                                 0x0001095c   Section        8  QtOrganizer{00010103}-603.o(StubCode)
    theImportedSymbol                        0x00010960   Data           0  QtOrganizer{00010103}-603.o(StubCode)
    StubCode                                 0x00010964   Section        8  QtOrganizer{00010103}-604.o(StubCode)
    theImportedSymbol                        0x00010968   Data           0  QtOrganizer{00010103}-604.o(StubCode)
    StubCode                                 0x0001096c   Section        8  QtOrganizer{00010103}-605.o(StubCode)
    theImportedSymbol                        0x00010970   Data           0  QtOrganizer{00010103}-605.o(StubCode)
    StubCode                                 0x00010974   Section        8  QtOrganizer{00010103}-606.o(StubCode)
    theImportedSymbol                        0x00010978   Data           0  QtOrganizer{00010103}-606.o(StubCode)
    StubCode                                 0x0001097c   Section        8  QtOrganizer{00010103}-607.o(StubCode)
    theImportedSymbol                        0x00010980   Data           0  QtOrganizer{00010103}-607.o(StubCode)
    StubCode                                 0x00010984   Section        8  QtOrganizer{00010103}-608.o(StubCode)
    theImportedSymbol                        0x00010988   Data           0  QtOrganizer{00010103}-608.o(StubCode)
    StubCode                                 0x0001098c   Section        8  QtOrganizer{00010103}-609.o(StubCode)
    theImportedSymbol                        0x00010990   Data           0  QtOrganizer{00010103}-609.o(StubCode)
    StubCode                                 0x00010994   Section        8  QtOrganizer{00010103}-615.o(StubCode)
    theImportedSymbol                        0x00010998   Data           0  QtOrganizer{00010103}-615.o(StubCode)
    StubCode                                 0x0001099c   Section        8  QtOrganizer{00010103}-633.o(StubCode)
    theImportedSymbol                        0x000109a0   Data           0  QtOrganizer{00010103}-633.o(StubCode)
    StubCode                                 0x000109a4   Section        8  QtOrganizer{00010103}-642.o(StubCode)
    theImportedSymbol                        0x000109a8   Data           0  QtOrganizer{00010103}-642.o(StubCode)
    StubCode                                 0x000109ac   Section        8  QtOrganizer{00010103}-643.o(StubCode)
    theImportedSymbol                        0x000109b0   Data           0  QtOrganizer{00010103}-643.o(StubCode)
    StubCode                                 0x000109b4   Section        8  QtOrganizer{00010103}-645.o(StubCode)
    theImportedSymbol                        0x000109b8   Data           0  QtOrganizer{00010103}-645.o(StubCode)
    StubCode                                 0x000109bc   Section        8  QtOrganizer{00010103}-673.o(StubCode)
    theImportedSymbol                        0x000109c0   Data           0  QtOrganizer{00010103}-673.o(StubCode)
    StubCode                                 0x000109c4   Section        8  QtOrganizer{00010103}-674.o(StubCode)
    theImportedSymbol                        0x000109c8   Data           0  QtOrganizer{00010103}-674.o(StubCode)
    StubCode                                 0x000109cc   Section        8  QtOrganizer{00010103}-675.o(StubCode)
    theImportedSymbol                        0x000109d0   Data           0  QtOrganizer{00010103}-675.o(StubCode)
    StubCode                                 0x000109d4   Section        8  QtOrganizer{00010103}-677.o(StubCode)
    theImportedSymbol                        0x000109d8   Data           0  QtOrganizer{00010103}-677.o(StubCode)
    StubCode                                 0x000109dc   Section        8  QtOrganizer{00010103}-683.o(StubCode)
    theImportedSymbol                        0x000109e0   Data           0  QtOrganizer{00010103}-683.o(StubCode)
    StubCode                                 0x000109e4   Section        8  QtOrganizer{00010103}-685.o(StubCode)
    theImportedSymbol                        0x000109e8   Data           0  QtOrganizer{00010103}-685.o(StubCode)
    StubCode                                 0x000109ec   Section        8  QtOrganizer{00010103}-686.o(StubCode)
    theImportedSymbol                        0x000109f0   Data           0  QtOrganizer{00010103}-686.o(StubCode)
    StubCode                                 0x000109f4   Section        8  QtOrganizer{00010103}-689.o(StubCode)
    theImportedSymbol                        0x000109f8   Data           0  QtOrganizer{00010103}-689.o(StubCode)
    StubCode                                 0x000109fc   Section        8  QtOrganizer{00010103}-692.o(StubCode)
    theImportedSymbol                        0x00010a00   Data           0  QtOrganizer{00010103}-692.o(StubCode)
    StubCode                                 0x00010a04   Section        8  QtOrganizer{00010103}-695.o(StubCode)
    theImportedSymbol                        0x00010a08   Data           0  QtOrganizer{00010103}-695.o(StubCode)
    StubCode                                 0x00010a0c   Section        8  QtOrganizer{00010103}-697.o(StubCode)
    theImportedSymbol                        0x00010a10   Data           0  QtOrganizer{00010103}-697.o(StubCode)
    StubCode                                 0x00010a14   Section        8  QtOrganizer{00010103}-712.o(StubCode)
    theImportedSymbol                        0x00010a18   Data           0  QtOrganizer{00010103}-712.o(StubCode)
    StubCode                                 0x00010a1c   Section        8  QtOrganizer{00010103}-716.o(StubCode)
    theImportedSymbol                        0x00010a20   Data           0  QtOrganizer{00010103}-716.o(StubCode)
    StubCode                                 0x00010a24   Section        8  QtOrganizer{00010103}-720.o(StubCode)
    theImportedSymbol                        0x00010a28   Data           0  QtOrganizer{00010103}-720.o(StubCode)
    StubCode                                 0x00010a2c   Section        8  QtOrganizer{00010103}-726.o(StubCode)
    theImportedSymbol                        0x00010a30   Data           0  QtOrganizer{00010103}-726.o(StubCode)
    StubCode                                 0x00010a34   Section        8  QtOrganizer{00010103}-727.o(StubCode)
    theImportedSymbol                        0x00010a38   Data           0  QtOrganizer{00010103}-727.o(StubCode)
    StubCode                                 0x00010a3c   Section        8  QtOrganizer{00010103}-732.o(StubCode)
    theImportedSymbol                        0x00010a40   Data           0  QtOrganizer{00010103}-732.o(StubCode)
    StubCode                                 0x00010a44   Section        8  QtOrganizer{00010103}-734.o(StubCode)
    theImportedSymbol                        0x00010a48   Data           0  QtOrganizer{00010103}-734.o(StubCode)
    StubCode                                 0x00010a4c   Section        8  QtOrganizer{00010103}-735.o(StubCode)
    theImportedSymbol                        0x00010a50   Data           0  QtOrganizer{00010103}-735.o(StubCode)
    StubCode                                 0x00010a54   Section        8  QtOrganizer{00010103}-737.o(StubCode)
    theImportedSymbol                        0x00010a58   Data           0  QtOrganizer{00010103}-737.o(StubCode)
    StubCode                                 0x00010a5c   Section        8  QtOrganizer{00010103}-738.o(StubCode)
    theImportedSymbol                        0x00010a60   Data           0  QtOrganizer{00010103}-738.o(StubCode)
    StubCode                                 0x00010a64   Section        8  QtOrganizer{00010103}-739.o(StubCode)
    theImportedSymbol                        0x00010a68   Data           0  QtOrganizer{00010103}-739.o(StubCode)
    StubCode                                 0x00010a6c   Section        8  QtOrganizer{00010103}-740.o(StubCode)
    theImportedSymbol                        0x00010a70   Data           0  QtOrganizer{00010103}-740.o(StubCode)
    StubCode                                 0x00010a74   Section        8  QtOrganizer{00010103}-741.o(StubCode)
    theImportedSymbol                        0x00010a78   Data           0  QtOrganizer{00010103}-741.o(StubCode)
    StubCode                                 0x00010a7c   Section        8  QtOrganizer{00010103}-742.o(StubCode)
    theImportedSymbol                        0x00010a80   Data           0  QtOrganizer{00010103}-742.o(StubCode)
    StubCode                                 0x00010a84   Section        8  QtOrganizer{00010103}-743.o(StubCode)
    theImportedSymbol                        0x00010a88   Data           0  QtOrganizer{00010103}-743.o(StubCode)
    StubCode                                 0x00010a8c   Section        8  QtOrganizer{00010103}-744.o(StubCode)
    theImportedSymbol                        0x00010a90   Data           0  QtOrganizer{00010103}-744.o(StubCode)
    StubCode                                 0x00010a94   Section        8  QtOrganizer{00010103}-745.o(StubCode)
    theImportedSymbol                        0x00010a98   Data           0  QtOrganizer{00010103}-745.o(StubCode)
    StubCode                                 0x00010a9c   Section        8  QtOrganizer{00010103}-746.o(StubCode)
    theImportedSymbol                        0x00010aa0   Data           0  QtOrganizer{00010103}-746.o(StubCode)
    StubCode                                 0x00010aa4   Section        8  QtOrganizer{00010103}-748.o(StubCode)
    theImportedSymbol                        0x00010aa8   Data           0  QtOrganizer{00010103}-748.o(StubCode)
    StubCode                                 0x00010aac   Section        8  QtOrganizer{00010103}-749.o(StubCode)
    theImportedSymbol                        0x00010ab0   Data           0  QtOrganizer{00010103}-749.o(StubCode)
    StubCode                                 0x00010ab4   Section        8  QtOrganizer{00010103}-762.o(StubCode)
    theImportedSymbol                        0x00010ab8   Data           0  QtOrganizer{00010103}-762.o(StubCode)
    StubCode                                 0x00010abc   Section        8  QtOrganizer{00010103}-763.o(StubCode)
    theImportedSymbol                        0x00010ac0   Data           0  QtOrganizer{00010103}-763.o(StubCode)
    StubCode                                 0x00010ac4   Section        8  QtOrganizer{00010103}-764.o(StubCode)
    theImportedSymbol                        0x00010ac8   Data           0  QtOrganizer{00010103}-764.o(StubCode)
    StubCode                                 0x00010acc   Section        8  QtOrganizer{00010103}-774.o(StubCode)
    theImportedSymbol                        0x00010ad0   Data           0  QtOrganizer{00010103}-774.o(StubCode)
    StubCode                                 0x00010ad4   Section        8  QtOrganizer{00010103}-776.o(StubCode)
    theImportedSymbol                        0x00010ad8   Data           0  QtOrganizer{00010103}-776.o(StubCode)
    StubCode                                 0x00010adc   Section        8  QtOrganizer{00010103}-783.o(StubCode)
    theImportedSymbol                        0x00010ae0   Data           0  QtOrganizer{00010103}-783.o(StubCode)
    StubCode                                 0x00010ae4   Section        8  QtOrganizer{00010103}-784.o(StubCode)
    theImportedSymbol                        0x00010ae8   Data           0  QtOrganizer{00010103}-784.o(StubCode)
    StubCode                                 0x00010aec   Section        8  QtOrganizer{00010103}-785.o(StubCode)
    theImportedSymbol                        0x00010af0   Data           0  QtOrganizer{00010103}-785.o(StubCode)
    StubCode                                 0x00010af4   Section        8  QtOrganizer{00010103}-786.o(StubCode)
    theImportedSymbol                        0x00010af8   Data           0  QtOrganizer{00010103}-786.o(StubCode)
    StubCode                                 0x00010afc   Section        8  QtOrganizer{00010103}-787.o(StubCode)
    theImportedSymbol                        0x00010b00   Data           0  QtOrganizer{00010103}-787.o(StubCode)
    StubCode                                 0x00010b04   Section        8  QtOrganizer{00010103}-789.o(StubCode)
    theImportedSymbol                        0x00010b08   Data           0  QtOrganizer{00010103}-789.o(StubCode)
    StubCode                                 0x00010b0c   Section        8  QtOrganizer{00010103}-792.o(StubCode)
    theImportedSymbol                        0x00010b10   Data           0  QtOrganizer{00010103}-792.o(StubCode)
    StubCode                                 0x00010b14   Section        8  QtOrganizer{00010103}-793.o(StubCode)
    theImportedSymbol                        0x00010b18   Data           0  QtOrganizer{00010103}-793.o(StubCode)
    StubCode                                 0x00010b1c   Section        8  QtOrganizer{00010103}-795.o(StubCode)
    theImportedSymbol                        0x00010b20   Data           0  QtOrganizer{00010103}-795.o(StubCode)
    StubCode                                 0x00010b24   Section        8  QtOrganizer{00010103}-796.o(StubCode)
    theImportedSymbol                        0x00010b28   Data           0  QtOrganizer{00010103}-796.o(StubCode)
    StubCode                                 0x00010b2c   Section        8  QtOrganizer{00010103}-8.o(StubCode)
    theImportedSymbol                        0x00010b30   Data           0  QtOrganizer{00010103}-8.o(StubCode)
    StubCode                                 0x00010b34   Section        8  QtOrganizer{00010103}-802.o(StubCode)
    theImportedSymbol                        0x00010b38   Data           0  QtOrganizer{00010103}-802.o(StubCode)
    StubCode                                 0x00010b3c   Section        8  QtOrganizer{00010103}-803.o(StubCode)
    theImportedSymbol                        0x00010b40   Data           0  QtOrganizer{00010103}-803.o(StubCode)
    StubCode                                 0x00010b44   Section        8  QtOrganizer{00010103}-804.o(StubCode)
    theImportedSymbol                        0x00010b48   Data           0  QtOrganizer{00010103}-804.o(StubCode)
    StubCode                                 0x00010b4c   Section        8  QtOrganizer{00010103}-808.o(StubCode)
    theImportedSymbol                        0x00010b50   Data           0  QtOrganizer{00010103}-808.o(StubCode)
    StubCode                                 0x00010b54   Section        8  QtOrganizer{00010103}-810.o(StubCode)
    theImportedSymbol                        0x00010b58   Data           0  QtOrganizer{00010103}-810.o(StubCode)
    StubCode                                 0x00010b5c   Section        8  QtOrganizer{00010103}-822.o(StubCode)
    theImportedSymbol                        0x00010b60   Data           0  QtOrganizer{00010103}-822.o(StubCode)
    StubCode                                 0x00010b64   Section        8  QtOrganizer{00010103}-829.o(StubCode)
    theImportedSymbol                        0x00010b68   Data           0  QtOrganizer{00010103}-829.o(StubCode)
    StubCode                                 0x00010b6c   Section        8  QtOrganizer{00010103}-830.o(StubCode)
    theImportedSymbol                        0x00010b70   Data           0  QtOrganizer{00010103}-830.o(StubCode)
    StubCode                                 0x00010b74   Section        8  QtOrganizer{00010103}-831.o(StubCode)
    theImportedSymbol                        0x00010b78   Data           0  QtOrganizer{00010103}-831.o(StubCode)
    StubCode                                 0x00010b7c   Section        8  QtOrganizer{00010103}-832.o(StubCode)
    theImportedSymbol                        0x00010b80   Data           0  QtOrganizer{00010103}-832.o(StubCode)
    StubCode                                 0x00010b84   Section        8  QtOrganizer{00010103}-833.o(StubCode)
    theImportedSymbol                        0x00010b88   Data           0  QtOrganizer{00010103}-833.o(StubCode)
    StubCode                                 0x00010b8c   Section        8  QtOrganizer{00010103}-834.o(StubCode)
    theImportedSymbol                        0x00010b90   Data           0  QtOrganizer{00010103}-834.o(StubCode)
    StubCode                                 0x00010b94   Section        8  QtOrganizer{00010103}-848.o(StubCode)
    theImportedSymbol                        0x00010b98   Data           0  QtOrganizer{00010103}-848.o(StubCode)
    StubCode                                 0x00010b9c   Section        8  QtOrganizer{00010103}-850.o(StubCode)
    theImportedSymbol                        0x00010ba0   Data           0  QtOrganizer{00010103}-850.o(StubCode)
    StubCode                                 0x00010ba4   Section        8  QtOrganizer{00010103}-9.o(StubCode)
    theImportedSymbol                        0x00010ba8   Data           0  QtOrganizer{00010103}-9.o(StubCode)
    StubCode                                 0x00010bac   Section        8  libstdcpp{00010000}-988.o(StubCode)
    theImportedSymbol                        0x00010bb0   Data           0  libstdcpp{00010000}-988.o(StubCode)
    StubCode                                 0x00010bb4   Section        8  libstdcpp{00010000}-992.o(StubCode)
    theImportedSymbol                        0x00010bb8   Data           0  libstdcpp{00010000}-992.o(StubCode)
    StubCode                                 0x00010bbc   Section        8  QtCore{00040703}-150.o(StubCode)
    theImportedSymbol                        0x00010bc0   Data           0  QtCore{00040703}-150.o(StubCode)
    StubCode                                 0x00010bc4   Section        8  QtCore{00040703}-1582.o(StubCode)
    theImportedSymbol                        0x00010bc8   Data           0  QtCore{00040703}-1582.o(StubCode)
    StubCode                                 0x00010bcc   Section        8  QtCore{00040703}-1643.o(StubCode)
    theImportedSymbol                        0x00010bd0   Data           0  QtCore{00040703}-1643.o(StubCode)
    StubCode                                 0x00010bd4   Section        8  QtCore{00040703}-1706.o(StubCode)
    theImportedSymbol                        0x00010bd8   Data           0  QtCore{00040703}-1706.o(StubCode)
    StubCode                                 0x00010bdc   Section        8  QtCore{00040703}-175.o(StubCode)
    theImportedSymbol                        0x00010be0   Data           0  QtCore{00040703}-175.o(StubCode)
    StubCode                                 0x00010be4   Section        8  QtCore{00040703}-1760.o(StubCode)
    theImportedSymbol                        0x00010be8   Data           0  QtCore{00040703}-1760.o(StubCode)
    StubCode                                 0x00010bec   Section        8  QtCore{00040703}-1761.o(StubCode)
    theImportedSymbol                        0x00010bf0   Data           0  QtCore{00040703}-1761.o(StubCode)
    StubCode                                 0x00010bf4   Section        8  QtCore{00040703}-1763.o(StubCode)
    theImportedSymbol                        0x00010bf8   Data           0  QtCore{00040703}-1763.o(StubCode)
    StubCode                                 0x00010bfc   Section        8  QtCore{00040703}-1764.o(StubCode)
    theImportedSymbol                        0x00010c00   Data           0  QtCore{00040703}-1764.o(StubCode)
    StubCode                                 0x00010c04   Section        8  QtCore{00040703}-1765.o(StubCode)
    theImportedSymbol                        0x00010c08   Data           0  QtCore{00040703}-1765.o(StubCode)
    StubCode                                 0x00010c0c   Section        8  QtCore{00040703}-1766.o(StubCode)
    theImportedSymbol                        0x00010c10   Data           0  QtCore{00040703}-1766.o(StubCode)
    StubCode                                 0x00010c14   Section        8  QtCore{00040703}-1767.o(StubCode)
    theImportedSymbol                        0x00010c18   Data           0  QtCore{00040703}-1767.o(StubCode)
    StubCode                                 0x00010c1c   Section        8  QtCore{00040703}-1768.o(StubCode)
    theImportedSymbol                        0x00010c20   Data           0  QtCore{00040703}-1768.o(StubCode)
    StubCode                                 0x00010c24   Section        8  QtCore{00040703}-1773.o(StubCode)
    theImportedSymbol                        0x00010c28   Data           0  QtCore{00040703}-1773.o(StubCode)
    StubCode                                 0x00010c2c   Section        8  QtCore{00040703}-1777.o(StubCode)
    theImportedSymbol                        0x00010c30   Data           0  QtCore{00040703}-1777.o(StubCode)
    StubCode                                 0x00010c34   Section        8  QtCore{00040703}-1784.o(StubCode)
    theImportedSymbol                        0x00010c38   Data           0  QtCore{00040703}-1784.o(StubCode)
    StubCode                                 0x00010c3c   Section        8  QtCore{00040703}-1785.o(StubCode)
    theImportedSymbol                        0x00010c40   Data           0  QtCore{00040703}-1785.o(StubCode)
    StubCode                                 0x00010c44   Section        8  QtCore{00040703}-1789.o(StubCode)
    theImportedSymbol                        0x00010c48   Data           0  QtCore{00040703}-1789.o(StubCode)
    StubCode                                 0x00010c4c   Section        8  QtCore{00040703}-179.o(StubCode)
    theImportedSymbol                        0x00010c50   Data           0  QtCore{00040703}-179.o(StubCode)
    StubCode                                 0x00010c54   Section        8  QtCore{00040703}-1794.o(StubCode)
    theImportedSymbol                        0x00010c58   Data           0  QtCore{00040703}-1794.o(StubCode)
    StubCode                                 0x00010c5c   Section        8  QtCore{00040703}-1814.o(StubCode)
    theImportedSymbol                        0x00010c60   Data           0  QtCore{00040703}-1814.o(StubCode)
    StubCode                                 0x00010c64   Section        8  QtCore{00040703}-1825.o(StubCode)
    theImportedSymbol                        0x00010c68   Data           0  QtCore{00040703}-1825.o(StubCode)
    StubCode                                 0x00010c6c   Section        8  QtCore{00040703}-1826.o(StubCode)
    theImportedSymbol                        0x00010c70   Data           0  QtCore{00040703}-1826.o(StubCode)
    StubCode                                 0x00010c74   Section        8  QtCore{00040703}-1830.o(StubCode)
    theImportedSymbol                        0x00010c78   Data           0  QtCore{00040703}-1830.o(StubCode)
    StubCode                                 0x00010c7c   Section        8  QtCore{00040703}-1836.o(StubCode)
    theImportedSymbol                        0x00010c80   Data           0  QtCore{00040703}-1836.o(StubCode)
    StubCode                                 0x00010c84   Section        8  QtCore{00040703}-1842.o(StubCode)
    theImportedSymbol                        0x00010c88   Data           0  QtCore{00040703}-1842.o(StubCode)
    StubCode                                 0x00010c8c   Section        8  QtCore{00040703}-1847.o(StubCode)
    theImportedSymbol                        0x00010c90   Data           0  QtCore{00040703}-1847.o(StubCode)
    StubCode                                 0x00010c94   Section        8  QtCore{00040703}-1871.o(StubCode)
    theImportedSymbol                        0x00010c98   Data           0  QtCore{00040703}-1871.o(StubCode)
    StubCode                                 0x00010c9c   Section        8  QtCore{00040703}-1874.o(StubCode)
    theImportedSymbol                        0x00010ca0   Data           0  QtCore{00040703}-1874.o(StubCode)
    StubCode                                 0x00010ca4   Section        8  QtCore{00040703}-1875.o(StubCode)
    theImportedSymbol                        0x00010ca8   Data           0  QtCore{00040703}-1875.o(StubCode)
    StubCode                                 0x00010cac   Section        8  QtCore{00040703}-1885.o(StubCode)
    theImportedSymbol                        0x00010cb0   Data           0  QtCore{00040703}-1885.o(StubCode)
    StubCode                                 0x00010cb4   Section        8  QtCore{00040703}-1947.o(StubCode)
    theImportedSymbol                        0x00010cb8   Data           0  QtCore{00040703}-1947.o(StubCode)
    StubCode                                 0x00010cbc   Section        8  QtCore{00040703}-1949.o(StubCode)
    theImportedSymbol                        0x00010cc0   Data           0  QtCore{00040703}-1949.o(StubCode)
    StubCode                                 0x00010cc4   Section        8  QtCore{00040703}-2020.o(StubCode)
    theImportedSymbol                        0x00010cc8   Data           0  QtCore{00040703}-2020.o(StubCode)
    StubCode                                 0x00010ccc   Section        8  QtCore{00040703}-2034.o(StubCode)
    theImportedSymbol                        0x00010cd0   Data           0  QtCore{00040703}-2034.o(StubCode)
    StubCode                                 0x00010cd4   Section        8  QtCore{00040703}-2036.o(StubCode)
    theImportedSymbol                        0x00010cd8   Data           0  QtCore{00040703}-2036.o(StubCode)
    StubCode                                 0x00010cdc   Section        8  QtCore{00040703}-2040.o(StubCode)
    theImportedSymbol                        0x00010ce0   Data           0  QtCore{00040703}-2040.o(StubCode)
    StubCode                                 0x00010ce4   Section        8  QtCore{00040703}-2042.o(StubCode)
    theImportedSymbol                        0x00010ce8   Data           0  QtCore{00040703}-2042.o(StubCode)
    StubCode                                 0x00010cec   Section        8  QtCore{00040703}-2082.o(StubCode)
    theImportedSymbol                        0x00010cf0   Data           0  QtCore{00040703}-2082.o(StubCode)
    StubCode                                 0x00010cf4   Section        8  QtCore{00040703}-2095.o(StubCode)
    theImportedSymbol                        0x00010cf8   Data           0  QtCore{00040703}-2095.o(StubCode)
    StubCode                                 0x00010cfc   Section        8  QtCore{00040703}-2097.o(StubCode)
    theImportedSymbol                        0x00010d00   Data           0  QtCore{00040703}-2097.o(StubCode)
    StubCode                                 0x00010d04   Section        8  QtCore{00040703}-2099.o(StubCode)
    theImportedSymbol                        0x00010d08   Data           0  QtCore{00040703}-2099.o(StubCode)
    StubCode                                 0x00010d0c   Section        8  QtCore{00040703}-2100.o(StubCode)
    theImportedSymbol                        0x00010d10   Data           0  QtCore{00040703}-2100.o(StubCode)
    StubCode                                 0x00010d14   Section        8  QtCore{00040703}-2102.o(StubCode)
    theImportedSymbol                        0x00010d18   Data           0  QtCore{00040703}-2102.o(StubCode)
    StubCode                                 0x00010d1c   Section        8  QtCore{00040703}-2103.o(StubCode)
    theImportedSymbol                        0x00010d20   Data           0  QtCore{00040703}-2103.o(StubCode)
    StubCode                                 0x00010d24   Section        8  QtCore{00040703}-2104.o(StubCode)
    theImportedSymbol                        0x00010d28   Data           0  QtCore{00040703}-2104.o(StubCode)
    StubCode                                 0x00010d2c   Section        8  QtCore{00040703}-2105.o(StubCode)
    theImportedSymbol                        0x00010d30   Data           0  QtCore{00040703}-2105.o(StubCode)
    StubCode                                 0x00010d34   Section        8  QtCore{00040703}-2110.o(StubCode)
    theImportedSymbol                        0x00010d38   Data           0  QtCore{00040703}-2110.o(StubCode)
    StubCode                                 0x00010d3c   Section        8  QtCore{00040703}-2112.o(StubCode)
    theImportedSymbol                        0x00010d40   Data           0  QtCore{00040703}-2112.o(StubCode)
    StubCode                                 0x00010d44   Section        8  QtCore{00040703}-2134.o(StubCode)
    theImportedSymbol                        0x00010d48   Data           0  QtCore{00040703}-2134.o(StubCode)
    StubCode                                 0x00010d4c   Section        8  QtCore{00040703}-2141.o(StubCode)
    theImportedSymbol                        0x00010d50   Data           0  QtCore{00040703}-2141.o(StubCode)
    StubCode                                 0x00010d54   Section        8  QtCore{00040703}-2143.o(StubCode)
    theImportedSymbol                        0x00010d58   Data           0  QtCore{00040703}-2143.o(StubCode)
    StubCode                                 0x00010d5c   Section        8  QtCore{00040703}-2188.o(StubCode)
    theImportedSymbol                        0x00010d60   Data           0  QtCore{00040703}-2188.o(StubCode)
    StubCode                                 0x00010d64   Section        8  QtCore{00040703}-2191.o(StubCode)
    theImportedSymbol                        0x00010d68   Data           0  QtCore{00040703}-2191.o(StubCode)
    StubCode                                 0x00010d6c   Section        8  QtCore{00040703}-2193.o(StubCode)
    theImportedSymbol                        0x00010d70   Data           0  QtCore{00040703}-2193.o(StubCode)
    StubCode                                 0x00010d74   Section        8  QtCore{00040703}-2197.o(StubCode)
    theImportedSymbol                        0x00010d78   Data           0  QtCore{00040703}-2197.o(StubCode)
    StubCode                                 0x00010d7c   Section        8  QtCore{00040703}-2199.o(StubCode)
    theImportedSymbol                        0x00010d80   Data           0  QtCore{00040703}-2199.o(StubCode)
    StubCode                                 0x00010d84   Section        8  QtCore{00040703}-2321.o(StubCode)
    theImportedSymbol                        0x00010d88   Data           0  QtCore{00040703}-2321.o(StubCode)
    StubCode                                 0x00010d8c   Section        8  QtCore{00040703}-274.o(StubCode)
    theImportedSymbol                        0x00010d90   Data           0  QtCore{00040703}-274.o(StubCode)
    StubCode                                 0x00010d94   Section        8  QtCore{00040703}-275.o(StubCode)
    theImportedSymbol                        0x00010d98   Data           0  QtCore{00040703}-275.o(StubCode)
    StubCode                                 0x00010d9c   Section        8  QtCore{00040703}-2883.o(StubCode)
    theImportedSymbol                        0x00010da0   Data           0  QtCore{00040703}-2883.o(StubCode)
    StubCode                                 0x00010da4   Section        8  QtCore{00040703}-2884.o(StubCode)
    theImportedSymbol                        0x00010da8   Data           0  QtCore{00040703}-2884.o(StubCode)
    StubCode                                 0x00010dac   Section        8  QtCore{00040703}-2885.o(StubCode)
    theImportedSymbol                        0x00010db0   Data           0  QtCore{00040703}-2885.o(StubCode)
    StubCode                                 0x00010db4   Section        8  QtCore{00040703}-2887.o(StubCode)
    theImportedSymbol                        0x00010db8   Data           0  QtCore{00040703}-2887.o(StubCode)
    StubCode                                 0x00010dbc   Section        8  QtCore{00040703}-2888.o(StubCode)
    theImportedSymbol                        0x00010dc0   Data           0  QtCore{00040703}-2888.o(StubCode)
    StubCode                                 0x00010dc4   Section        8  QtCore{00040703}-2893.o(StubCode)
    theImportedSymbol                        0x00010dc8   Data           0  QtCore{00040703}-2893.o(StubCode)
    StubCode                                 0x00010dcc   Section        8  QtCore{00040703}-2913.o(StubCode)
    theImportedSymbol                        0x00010dd0   Data           0  QtCore{00040703}-2913.o(StubCode)
    StubCode                                 0x00010dd4   Section        8  QtCore{00040703}-2914.o(StubCode)
    theImportedSymbol                        0x00010dd8   Data           0  QtCore{00040703}-2914.o(StubCode)
    StubCode                                 0x00010ddc   Section        8  QtCore{00040703}-2915.o(StubCode)
    theImportedSymbol                        0x00010de0   Data           0  QtCore{00040703}-2915.o(StubCode)
    StubCode                                 0x00010de4   Section        8  QtCore{00040703}-2916.o(StubCode)
    theImportedSymbol                        0x00010de8   Data           0  QtCore{00040703}-2916.o(StubCode)
    StubCode                                 0x00010dec   Section        8  QtCore{00040703}-3040.o(StubCode)
    theImportedSymbol                        0x00010df0   Data           0  QtCore{00040703}-3040.o(StubCode)
    StubCode                                 0x00010df4   Section        8  QtCore{00040703}-3041.o(StubCode)
    theImportedSymbol                        0x00010df8   Data           0  QtCore{00040703}-3041.o(StubCode)
    StubCode                                 0x00010dfc   Section        8  QtCore{00040703}-3049.o(StubCode)
    theImportedSymbol                        0x00010e00   Data           0  QtCore{00040703}-3049.o(StubCode)
    StubCode                                 0x00010e04   Section        8  QtCore{00040703}-3053.o(StubCode)
    theImportedSymbol                        0x00010e08   Data           0  QtCore{00040703}-3053.o(StubCode)
    StubCode                                 0x00010e0c   Section        8  QtCore{00040703}-3062.o(StubCode)
    theImportedSymbol                        0x00010e10   Data           0  QtCore{00040703}-3062.o(StubCode)
    StubCode                                 0x00010e14   Section        8  QtCore{00040703}-3064.o(StubCode)
    theImportedSymbol                        0x00010e18   Data           0  QtCore{00040703}-3064.o(StubCode)
    StubCode                                 0x00010e1c   Section        8  QtCore{00040703}-3067.o(StubCode)
    theImportedSymbol                        0x00010e20   Data           0  QtCore{00040703}-3067.o(StubCode)
    StubCode                                 0x00010e24   Section        8  QtCore{00040703}-3069.o(StubCode)
    theImportedSymbol                        0x00010e28   Data           0  QtCore{00040703}-3069.o(StubCode)
    StubCode                                 0x00010e2c   Section        8  QtCore{00040703}-3097.o(StubCode)
    theImportedSymbol                        0x00010e30   Data           0  QtCore{00040703}-3097.o(StubCode)
    StubCode                                 0x00010e34   Section        8  QtCore{00040703}-3098.o(StubCode)
    theImportedSymbol                        0x00010e38   Data           0  QtCore{00040703}-3098.o(StubCode)
    StubCode                                 0x00010e3c   Section        8  QtCore{00040703}-3101.o(StubCode)
    theImportedSymbol                        0x00010e40   Data           0  QtCore{00040703}-3101.o(StubCode)
    StubCode                                 0x00010e44   Section        8  QtCore{00040703}-312.o(StubCode)
    theImportedSymbol                        0x00010e48   Data           0  QtCore{00040703}-312.o(StubCode)
    StubCode                                 0x00010e4c   Section        8  QtCore{00040703}-3145.o(StubCode)
    theImportedSymbol                        0x00010e50   Data           0  QtCore{00040703}-3145.o(StubCode)
    StubCode                                 0x00010e54   Section        8  QtCore{00040703}-3165.o(StubCode)
    theImportedSymbol                        0x00010e58   Data           0  QtCore{00040703}-3165.o(StubCode)
    StubCode                                 0x00010e5c   Section        8  QtCore{00040703}-3166.o(StubCode)
    theImportedSymbol                        0x00010e60   Data           0  QtCore{00040703}-3166.o(StubCode)
    StubCode                                 0x00010e64   Section        8  QtCore{00040703}-3169.o(StubCode)
    theImportedSymbol                        0x00010e68   Data           0  QtCore{00040703}-3169.o(StubCode)
    StubCode                                 0x00010e6c   Section        8  QtCore{00040703}-3170.o(StubCode)
    theImportedSymbol                        0x00010e70   Data           0  QtCore{00040703}-3170.o(StubCode)
    StubCode                                 0x00010e74   Section        8  QtCore{00040703}-3171.o(StubCode)
    theImportedSymbol                        0x00010e78   Data           0  QtCore{00040703}-3171.o(StubCode)
    StubCode                                 0x00010e7c   Section        8  QtCore{00040703}-3173.o(StubCode)
    theImportedSymbol                        0x00010e80   Data           0  QtCore{00040703}-3173.o(StubCode)
    StubCode                                 0x00010e84   Section        8  QtCore{00040703}-3177.o(StubCode)
    theImportedSymbol                        0x00010e88   Data           0  QtCore{00040703}-3177.o(StubCode)
    StubCode                                 0x00010e8c   Section        8  QtCore{00040703}-3181.o(StubCode)
    theImportedSymbol                        0x00010e90   Data           0  QtCore{00040703}-3181.o(StubCode)
    StubCode                                 0x00010e94   Section        8  QtCore{00040703}-3187.o(StubCode)
    theImportedSymbol                        0x00010e98   Data           0  QtCore{00040703}-3187.o(StubCode)
    StubCode                                 0x00010e9c   Section        8  QtCore{00040703}-32.o(StubCode)
    theImportedSymbol                        0x00010ea0   Data           0  QtCore{00040703}-32.o(StubCode)
    StubCode                                 0x00010ea4   Section        8  QtCore{00040703}-324.o(StubCode)
    theImportedSymbol                        0x00010ea8   Data           0  QtCore{00040703}-324.o(StubCode)
    StubCode                                 0x00010eac   Section        8  QtCore{00040703}-331.o(StubCode)
    theImportedSymbol                        0x00010eb0   Data           0  QtCore{00040703}-331.o(StubCode)
    StubCode                                 0x00010eb4   Section        8  QtCore{00040703}-332.o(StubCode)
    theImportedSymbol                        0x00010eb8   Data           0  QtCore{00040703}-332.o(StubCode)
    StubCode                                 0x00010ebc   Section        8  QtCore{00040703}-335.o(StubCode)
    theImportedSymbol                        0x00010ec0   Data           0  QtCore{00040703}-335.o(StubCode)
    StubCode                                 0x00010ec4   Section        8  QtCore{00040703}-336.o(StubCode)
    theImportedSymbol                        0x00010ec8   Data           0  QtCore{00040703}-336.o(StubCode)
    StubCode                                 0x00010ecc   Section        8  QtCore{00040703}-3484.o(StubCode)
    theImportedSymbol                        0x00010ed0   Data           0  QtCore{00040703}-3484.o(StubCode)
    StubCode                                 0x00010ed4   Section        8  QtCore{00040703}-3607.o(StubCode)
    theImportedSymbol                        0x00010ed8   Data           0  QtCore{00040703}-3607.o(StubCode)
    StubCode                                 0x00010edc   Section        8  QtCore{00040703}-3608.o(StubCode)
    theImportedSymbol                        0x00010ee0   Data           0  QtCore{00040703}-3608.o(StubCode)
    StubCode                                 0x00010ee4   Section        8  QtCore{00040703}-3609.o(StubCode)
    theImportedSymbol                        0x00010ee8   Data           0  QtCore{00040703}-3609.o(StubCode)
    StubCode                                 0x00010eec   Section        8  QtCore{00040703}-3610.o(StubCode)
    theImportedSymbol                        0x00010ef0   Data           0  QtCore{00040703}-3610.o(StubCode)
    StubCode                                 0x00010ef4   Section        8  QtCore{00040703}-3689.o(StubCode)
    theImportedSymbol                        0x00010ef8   Data           0  QtCore{00040703}-3689.o(StubCode)
    StubCode                                 0x00010efc   Section        8  QtCore{00040703}-3691.o(StubCode)
    theImportedSymbol                        0x00010f00   Data           0  QtCore{00040703}-3691.o(StubCode)
    StubCode                                 0x00010f04   Section        8  QtCore{00040703}-3692.o(StubCode)
    theImportedSymbol                        0x00010f08   Data           0  QtCore{00040703}-3692.o(StubCode)
    StubCode                                 0x00010f0c   Section        8  QtCore{00040703}-70.o(StubCode)
    theImportedSymbol                        0x00010f10   Data           0  QtCore{00040703}-70.o(StubCode)
    StubCode                                 0x00010f14   Section        8  QtCore{00040703}-741.o(StubCode)
    theImportedSymbol                        0x00010f18   Data           0  QtCore{00040703}-741.o(StubCode)
    StubCode                                 0x00010f1c   Section        8  QtCore{00040703}-78.o(StubCode)
    theImportedSymbol                        0x00010f20   Data           0  QtCore{00040703}-78.o(StubCode)
    StubCode                                 0x00010f24   Section        8  QtCore{00040703}-88.o(StubCode)
    theImportedSymbol                        0x00010f28   Data           0  QtCore{00040703}-88.o(StubCode)
    StubCode                                 0x00010f2c   Section        8  libc{00010000}-350.o(StubCode)
    theImportedSymbol                        0x00010f30   Data           0  libc{00010000}-350.o(StubCode)
    StubCode                                 0x00010f34   Section        8  euser{000a0000}-1033.o(StubCode)
    theImportedSymbol                        0x00010f38   Data           0  euser{000a0000}-1033.o(StubCode)
    StubCode                                 0x00010f3c   Section        8  euser{000a0000}-1088.o(StubCode)
    theImportedSymbol                        0x00010f40   Data           0  euser{000a0000}-1088.o(StubCode)
    StubCode                                 0x00010f44   Section        8  euser{000a0000}-1090.o(StubCode)
    theImportedSymbol                        0x00010f48   Data           0  euser{000a0000}-1090.o(StubCode)
    StubCode                                 0x00010f4c   Section        8  euser{000a0000}-1091.o(StubCode)
    theImportedSymbol                        0x00010f50   Data           0  euser{000a0000}-1091.o(StubCode)
    StubCode                                 0x00010f54   Section        8  euser{000a0000}-1094.o(StubCode)
    theImportedSymbol                        0x00010f58   Data           0  euser{000a0000}-1094.o(StubCode)
    StubCode                                 0x00010f5c   Section        8  euser{000a0000}-1170.o(StubCode)
    theImportedSymbol                        0x00010f60   Data           0  euser{000a0000}-1170.o(StubCode)
    StubCode                                 0x00010f64   Section        8  euser{000a0000}-1483.o(StubCode)
    theImportedSymbol                        0x00010f68   Data           0  euser{000a0000}-1483.o(StubCode)
    StubCode                                 0x00010f6c   Section        8  euser{000a0000}-1507.o(StubCode)
    theImportedSymbol                        0x00010f70   Data           0  euser{000a0000}-1507.o(StubCode)
    StubCode                                 0x00010f74   Section        8  euser{000a0000}-1510.o(StubCode)
    theImportedSymbol                        0x00010f78   Data           0  euser{000a0000}-1510.o(StubCode)
    StubCode                                 0x00010f7c   Section        8  euser{000a0000}-1590.o(StubCode)
    theImportedSymbol                        0x00010f80   Data           0  euser{000a0000}-1590.o(StubCode)
    StubCode                                 0x00010f84   Section        8  euser{000a0000}-1593.o(StubCode)
    theImportedSymbol                        0x00010f88   Data           0  euser{000a0000}-1593.o(StubCode)
    StubCode                                 0x00010f8c   Section        8  euser{000a0000}-1679.o(StubCode)
    theImportedSymbol                        0x00010f90   Data           0  euser{000a0000}-1679.o(StubCode)
    StubCode                                 0x00010f94   Section        8  euser{000a0000}-1719.o(StubCode)
    theImportedSymbol                        0x00010f98   Data           0  euser{000a0000}-1719.o(StubCode)
    StubCode                                 0x00010f9c   Section        8  euser{000a0000}-1733.o(StubCode)
    theImportedSymbol                        0x00010fa0   Data           0  euser{000a0000}-1733.o(StubCode)
    StubCode                                 0x00010fa4   Section        8  euser{000a0000}-1807.o(StubCode)
    theImportedSymbol                        0x00010fa8   Data           0  euser{000a0000}-1807.o(StubCode)
    StubCode                                 0x00010fac   Section        8  euser{000a0000}-203.o(StubCode)
    theImportedSymbol                        0x00010fb0   Data           0  euser{000a0000}-203.o(StubCode)
    StubCode                                 0x00010fb4   Section        8  euser{000a0000}-205.o(StubCode)
    theImportedSymbol                        0x00010fb8   Data           0  euser{000a0000}-205.o(StubCode)
    StubCode                                 0x00010fbc   Section        8  euser{000a0000}-2060.o(StubCode)
    theImportedSymbol                        0x00010fc0   Data           0  euser{000a0000}-2060.o(StubCode)
    StubCode                                 0x00010fc4   Section        8  euser{000a0000}-2061.o(StubCode)
    theImportedSymbol                        0x00010fc8   Data           0  euser{000a0000}-2061.o(StubCode)
    StubCode                                 0x00010fcc   Section        8  euser{000a0000}-207.o(StubCode)
    theImportedSymbol                        0x00010fd0   Data           0  euser{000a0000}-207.o(StubCode)
    StubCode                                 0x00010fd4   Section        8  euser{000a0000}-208.o(StubCode)
    theImportedSymbol                        0x00010fd8   Data           0  euser{000a0000}-208.o(StubCode)
    StubCode                                 0x00010fdc   Section        8  euser{000a0000}-2082.o(StubCode)
    theImportedSymbol                        0x00010fe0   Data           0  euser{000a0000}-2082.o(StubCode)
    StubCode                                 0x00010fe4   Section        8  euser{000a0000}-2128.o(StubCode)
    theImportedSymbol                        0x00010fe8   Data           0  euser{000a0000}-2128.o(StubCode)
    StubCode                                 0x00010fec   Section        8  euser{000a0000}-424.o(StubCode)
    theImportedSymbol                        0x00010ff0   Data           0  euser{000a0000}-424.o(StubCode)
    StubCode                                 0x00010ff4   Section        8  euser{000a0000}-46.o(StubCode)
    theImportedSymbol                        0x00010ff8   Data           0  euser{000a0000}-46.o(StubCode)
    StubCode                                 0x00010ffc   Section        8  euser{000a0000}-470.o(StubCode)
    theImportedSymbol                        0x00011000   Data           0  euser{000a0000}-470.o(StubCode)
    StubCode                                 0x00011004   Section        8  euser{000a0000}-471.o(StubCode)
    theImportedSymbol                        0x00011008   Data           0  euser{000a0000}-471.o(StubCode)
    StubCode                                 0x0001100c   Section        8  euser{000a0000}-472.o(StubCode)
    theImportedSymbol                        0x00011010   Data           0  euser{000a0000}-472.o(StubCode)
    StubCode                                 0x00011014   Section        8  euser{000a0000}-474.o(StubCode)
    theImportedSymbol                        0x00011018   Data           0  euser{000a0000}-474.o(StubCode)
    StubCode                                 0x0001101c   Section        8  euser{000a0000}-48.o(StubCode)
    theImportedSymbol                        0x00011020   Data           0  euser{000a0000}-48.o(StubCode)
    StubCode                                 0x00011024   Section        8  euser{000a0000}-481.o(StubCode)
    theImportedSymbol                        0x00011028   Data           0  euser{000a0000}-481.o(StubCode)
    StubCode                                 0x0001102c   Section        8  euser{000a0000}-505.o(StubCode)
    theImportedSymbol                        0x00011030   Data           0  euser{000a0000}-505.o(StubCode)
    StubCode                                 0x00011034   Section        8  euser{000a0000}-507.o(StubCode)
    theImportedSymbol                        0x00011038   Data           0  euser{000a0000}-507.o(StubCode)
    StubCode                                 0x0001103c   Section        8  euser{000a0000}-508.o(StubCode)
    theImportedSymbol                        0x00011040   Data           0  euser{000a0000}-508.o(StubCode)
    StubCode                                 0x00011044   Section        8  euser{000a0000}-55.o(StubCode)
    theImportedSymbol                        0x00011048   Data           0  euser{000a0000}-55.o(StubCode)
    StubCode                                 0x0001104c   Section        8  euser{000a0000}-580.o(StubCode)
    theImportedSymbol                        0x00011050   Data           0  euser{000a0000}-580.o(StubCode)
    StubCode                                 0x00011054   Section        8  euser{000a0000}-593.o(StubCode)
    theImportedSymbol                        0x00011058   Data           0  euser{000a0000}-593.o(StubCode)
    StubCode                                 0x0001105c   Section        8  euser{000a0000}-617.o(StubCode)
    theImportedSymbol                        0x00011060   Data           0  euser{000a0000}-617.o(StubCode)
    StubCode                                 0x00011064   Section        8  euser{000a0000}-649.o(StubCode)
    theImportedSymbol                        0x00011068   Data           0  euser{000a0000}-649.o(StubCode)
    StubCode                                 0x0001106c   Section        8  euser{000a0000}-652.o(StubCode)
    theImportedSymbol                        0x00011070   Data           0  euser{000a0000}-652.o(StubCode)
    StubCode                                 0x00011074   Section        8  euser{000a0000}-654.o(StubCode)
    theImportedSymbol                        0x00011078   Data           0  euser{000a0000}-654.o(StubCode)
    StubCode                                 0x0001107c   Section        8  euser{000a0000}-669.o(StubCode)
    theImportedSymbol                        0x00011080   Data           0  euser{000a0000}-669.o(StubCode)
    StubCode                                 0x00011084   Section        8  euser{000a0000}-670.o(StubCode)
    theImportedSymbol                        0x00011088   Data           0  euser{000a0000}-670.o(StubCode)
    StubCode                                 0x0001108c   Section        8  euser{000a0000}-671.o(StubCode)
    theImportedSymbol                        0x00011090   Data           0  euser{000a0000}-671.o(StubCode)
    StubCode                                 0x00011094   Section        8  euser{000a0000}-739.o(StubCode)
    theImportedSymbol                        0x00011098   Data           0  euser{000a0000}-739.o(StubCode)
    StubCode                                 0x0001109c   Section        8  euser{000a0000}-744.o(StubCode)
    theImportedSymbol                        0x000110a0   Data           0  euser{000a0000}-744.o(StubCode)
    StubCode                                 0x000110a4   Section        8  euser{000a0000}-855.o(StubCode)
    theImportedSymbol                        0x000110a8   Data           0  euser{000a0000}-855.o(StubCode)
    StubCode                                 0x000110ac   Section        8  euser{000a0000}-859.o(StubCode)
    theImportedSymbol                        0x000110b0   Data           0  euser{000a0000}-859.o(StubCode)
    StubCode                                 0x000110b4   Section        8  euser{000a0000}-861.o(StubCode)
    theImportedSymbol                        0x000110b8   Data           0  euser{000a0000}-861.o(StubCode)
    StubCode                                 0x000110bc   Section        8  euser{000a0000}-891.o(StubCode)
    theImportedSymbol                        0x000110c0   Data           0  euser{000a0000}-891.o(StubCode)
    StubCode                                 0x000110c4   Section        8  euser{000a0000}-894.o(StubCode)
    theImportedSymbol                        0x000110c8   Data           0  euser{000a0000}-894.o(StubCode)
    StubCode                                 0x000110cc   Section        8  drtaeabi{000a0000}-135.o(StubCode)
    theImportedSymbol                        0x000110d0   Data           0  drtaeabi{000a0000}-135.o(StubCode)
    StubCode                                 0x000110d4   Section        8  drtaeabi{000a0000}-147.o(StubCode)
    theImportedSymbol                        0x000110d8   Data           0  drtaeabi{000a0000}-147.o(StubCode)
    StubCode                                 0x000110dc   Section        8  drtaeabi{000a0000}-155.o(StubCode)
    theImportedSymbol                        0x000110e0   Data           0  drtaeabi{000a0000}-155.o(StubCode)
    StubCode                                 0x000110e4   Section        8  drtaeabi{000a0000}-158.o(StubCode)
    theImportedSymbol                        0x000110e8   Data           0  drtaeabi{000a0000}-158.o(StubCode)
    StubCode                                 0x000110ec   Section        8  drtaeabi{000a0000}-180.o(StubCode)
    theImportedSymbol                        0x000110f0   Data           0  drtaeabi{000a0000}-180.o(StubCode)
    StubCode                                 0x000110f4   Section        8  drtaeabi{000a0000}-182.o(StubCode)
    theImportedSymbol                        0x000110f8   Data           0  drtaeabi{000a0000}-182.o(StubCode)
    StubCode                                 0x000110fc   Section        8  drtaeabi{000a0000}-183.o(StubCode)
    theImportedSymbol                        0x00011100   Data           0  drtaeabi{000a0000}-183.o(StubCode)
    StubCode                                 0x00011104   Section        8  drtaeabi{000a0000}-184.o(StubCode)
    theImportedSymbol                        0x00011108   Data           0  drtaeabi{000a0000}-184.o(StubCode)
    StubCode                                 0x0001110c   Section        8  drtaeabi{000a0000}-186.o(StubCode)
    theImportedSymbol                        0x00011110   Data           0  drtaeabi{000a0000}-186.o(StubCode)
    StubCode                                 0x00011114   Section        8  drtaeabi{000a0000}-187.o(StubCode)
    theImportedSymbol                        0x00011118   Data           0  drtaeabi{000a0000}-187.o(StubCode)
    StubCode                                 0x0001111c   Section        8  drtaeabi{000a0000}-188.o(StubCode)
    theImportedSymbol                        0x00011120   Data           0  drtaeabi{000a0000}-188.o(StubCode)
    StubCode                                 0x00011124   Section        8  drtaeabi{000a0000}-189.o(StubCode)
    theImportedSymbol                        0x00011128   Data           0  drtaeabi{000a0000}-189.o(StubCode)
    StubCode                                 0x0001112c   Section        8  drtaeabi{000a0000}-190.o(StubCode)
    theImportedSymbol                        0x00011130   Data           0  drtaeabi{000a0000}-190.o(StubCode)
    StubCode                                 0x00011134   Section        8  drtrvct2_2{000a0000}-28.o(StubCode)
    theImportedSymbol                        0x00011138   Data           0  drtrvct2_2{000a0000}-28.o(StubCode)
    StubCode                                 0x0001113c   Section        8  drtrvct2_2{000a0000}-45.o(StubCode)
    theImportedSymbol                        0x00011140   Data           0  drtrvct2_2{000a0000}-45.o(StubCode)
    StubCode                                 0x00011144   Section        8  drtrvct2_2{000a0000}-51.o(StubCode)
    theImportedSymbol                        0x00011148   Data           0  drtrvct2_2{000a0000}-51.o(StubCode)
    i._Z20qvariant_cast_helperRK8QVariantNS_4TypeEPv 0x0001114c   Section       20  qtorganizer_symbian.in(i._Z20qvariant_cast_helperRK8QVariantNS_4TypeEPv)
    i._Z6qDebugv                             0x00011160   Section       76  qtorganizer_symbian.in(i._Z6qDebugv)
    i._Z6qDebugv.clean                       0x000111ac   Section       18  qtorganizer_symbian.in(i._Z6qDebugv.clean)
    i._ZN10QByteArrayD1Ev                    0x000111be   Section       24  qtorganizer_symbian.in(i._ZN10QByteArrayD1Ev)
    i._ZN10QtMobility15QOrganizerEventD1Ev   0x000111d6   Section        8  qtorganizer_symbian.in(i._ZN10QtMobility15QOrganizerEventD1Ev)
    i._ZN10QtMobility18QOrganizerTodoTime14setDueDateTimeERK9QDateTime 0x000111e0   Section       32  qtorganizer_symbian.in(i._ZN10QtMobility18QOrganizerTodoTime14setDueDateTimeERK9QDateTime)
    i._ZN10QtMobility18QOrganizerTodoTime14setDueDateTimeERK9QDateTime.clean 0x00011200   Section       10  qtorganizer_symbian.in(i._ZN10QtMobility18QOrganizerTodoTime14setDueDateTimeERK9QDateTime.clean)
    i._ZN10QtMobility18QOrganizerTodoTime16setStartDateTimeERK9QDateTime 0x0001120c   Section       32  qtorganizer_symbian.in(i._ZN10QtMobility18QOrganizerTodoTime16setStartDateTimeERK9QDateTime)
    i._ZN10QtMobility18QOrganizerTodoTime16setStartDateTimeERK9QDateTime.clean 0x0001122c   Section       10  qtorganizer_symbian.in(i._ZN10QtMobility18QOrganizerTodoTime16setStartDateTimeERK9QDateTime.clean)
    i._ZN10QtMobility18QOrganizerTodoTimeC1Ev 0x00011238   Section       16  qtorganizer_symbian.in(i._ZN10QtMobility18QOrganizerTodoTimeC1Ev)
    i._ZN10QtMobility18QOrganizerTodoTimeD1Ev 0x00011248   Section        8  qtorganizer_symbian.in(i._ZN10QtMobility18QOrganizerTodoTimeD1Ev)
    i._ZN10QtMobility19QOrganizerEventTime14setEndDateTimeERK9QDateTime 0x00011250   Section       32  qtorganizer_symbian.in(i._ZN10QtMobility19QOrganizerEventTime14setEndDateTimeERK9QDateTime)
    i._ZN10QtMobility19QOrganizerEventTime14setEndDateTimeERK9QDateTime.clean 0x00011270   Section       10  qtorganizer_symbian.in(i._ZN10QtMobility19QOrganizerEventTime14setEndDateTimeERK9QDateTime.clean)
    i._ZN10QtMobility19QOrganizerEventTime16setStartDateTimeERK9QDateTime 0x0001127c   Section       32  qtorganizer_symbian.in(i._ZN10QtMobility19QOrganizerEventTime16setStartDateTimeERK9QDateTime)
    i._ZN10QtMobility19QOrganizerEventTime16setStartDateTimeERK9QDateTime.clean 0x0001129c   Section       10  qtorganizer_symbian.in(i._ZN10QtMobility19QOrganizerEventTime16setStartDateTimeERK9QDateTime.clean)
    i._ZN10QtMobility19QOrganizerEventTimeC1Ev 0x000112a8   Section       16  qtorganizer_symbian.in(i._ZN10QtMobility19QOrganizerEventTimeC1Ev)
    i._ZN10QtMobility19QOrganizerEventTimeD1Ev 0x000112b8   Section        8  qtorganizer_symbian.in(i._ZN10QtMobility19QOrganizerEventTimeD1Ev)
    i._ZN10QtMobility20QOrganizerItemParent11setParentIdERKNS_16QOrganizerItemIdE 0x000112c0   Section       48  qtorganizer_symbian.in(i._ZN10QtMobility20QOrganizerItemParent11setParentIdERKNS_16QOrganizerItemIdE)
    i._ZN10QtMobility20QOrganizerItemParent11setParentIdERKNS_16QOrganizerItemIdE.clean 0x000112f0   Section       10  qtorganizer_symbian.in(i._ZN10QtMobility20QOrganizerItemParent11setParentIdERKNS_16QOrganizerItemIdE.clean)
    i._ZN10QtMobility20QOrganizerItemParent15setOriginalDateERK5QDate 0x000112fc   Section       32  qtorganizer_symbian.in(i._ZN10QtMobility20QOrganizerItemParent15setOriginalDateERK5QDate)
    i._ZN10QtMobility20QOrganizerItemParent15setOriginalDateERK5QDate.clean 0x0001131c   Section       10  qtorganizer_symbian.in(i._ZN10QtMobility20QOrganizerItemParent15setOriginalDateERK5QDate.clean)
    i._ZN10QtMobility20QOrganizerItemParentD1Ev 0x00011326   Section        8  qtorganizer_symbian.in(i._ZN10QtMobility20QOrganizerItemParentD1Ev)
    i._ZN10QtMobility21QOrganizerJournalTimeD1Ev 0x0001132e   Section        8  qtorganizer_symbian.in(i._ZN10QtMobility21QOrganizerJournalTimeD1Ev)
    i._ZN10QtMobility22QOrganizerItemEngineIdC2Ev 0x00011338   Section       16  qtorganizer_symbian.in(i._ZN10QtMobility22QOrganizerItemEngineIdC2Ev)
    i._ZN10QtMobility22QOrganizerItemEngineIdD0Ev 0x00011348   Section       12  qtorganizer_symbian.in(i._ZN10QtMobility22QOrganizerItemEngineIdD0Ev)
    i._ZN10QtMobility22QOrganizerItemEngineIdD2Ev 0x00011354   Section        2  qtorganizer_symbian.in(i._ZN10QtMobility22QOrganizerItemEngineIdD2Ev)
    i._ZN10QtMobility22QOrganizerItemIdFilterD1Ev 0x00011356   Section        8  qtorganizer_symbian.in(i._ZN10QtMobility22QOrganizerItemIdFilterD1Ev)
    i._ZN10QtMobility22QOrganizerItemLocationD1Ev 0x0001135e   Section        8  qtorganizer_symbian.in(i._ZN10QtMobility22QOrganizerItemLocationD1Ev)
    i._ZN10QtMobility22QOrganizerItemPriorityD1Ev 0x00011366   Section        8  qtorganizer_symbian.in(i._ZN10QtMobility22QOrganizerItemPriorityD1Ev)
    i._ZN10QtMobility22QOrganizerItemReminderD1Ev 0x0001136e   Section        8  qtorganizer_symbian.in(i._ZN10QtMobility22QOrganizerItemReminderD1Ev)
    i._ZN10QtMobility22QOrganizerTodoProgress9setStatusENS0_6StatusE 0x00011378   Section       32  qtorganizer_symbian.in(i._ZN10QtMobility22QOrganizerTodoProgress9setStatusENS0_6StatusE)
    i._ZN10QtMobility22QOrganizerTodoProgress9setStatusENS0_6StatusE.clean 0x00011398   Section       10  qtorganizer_symbian.in(i._ZN10QtMobility22QOrganizerTodoProgress9setStatusENS0_6StatusE.clean)
    i._ZN10QtMobility22QOrganizerTodoProgressD1Ev 0x000113a2   Section        8  qtorganizer_symbian.in(i._ZN10QtMobility22QOrganizerTodoProgressD1Ev)
    i._ZN10QtMobility23QOrganizerItemTimestampD1Ev 0x000113aa   Section        8  qtorganizer_symbian.in(i._ZN10QtMobility23QOrganizerItemTimestampD1Ev)
    i._ZN10QtMobility23QOrganizerManagerEngineD2Ev 0x000113b2   Section        8  qtorganizer_symbian.in(i._ZN10QtMobility23QOrganizerManagerEngineD2Ev)
    i._ZN10QtMobility24QOrganizerItemRecurrenceD1Ev 0x000113ba   Section        8  qtorganizer_symbian.in(i._ZN10QtMobility24QOrganizerItemRecurrenceD1Ev)
    i._ZN10QtMobility25QOrganizerItemUnionFilterD1Ev 0x000113c2   Section        8  qtorganizer_symbian.in(i._ZN10QtMobility25QOrganizerItemUnionFilterD1Ev)
    i._ZN10QtMobility28QOrganizerCollectionEngineIdC2Ev 0x000113cc   Section       16  qtorganizer_symbian.in(i._ZN10QtMobility28QOrganizerCollectionEngineIdC2Ev)
    i._ZN10QtMobility28QOrganizerCollectionEngineIdD0Ev 0x000113dc   Section       12  qtorganizer_symbian.in(i._ZN10QtMobility28QOrganizerCollectionEngineIdD0Ev)
    i._ZN10QtMobility28QOrganizerCollectionEngineIdD2Ev 0x000113e8   Section        2  qtorganizer_symbian.in(i._ZN10QtMobility28QOrganizerCollectionEngineIdD2Ev)
    i._ZN10QtMobility30QOrganizerItemCollectionFilterD1Ev 0x000113ea   Section        8  qtorganizer_symbian.in(i._ZN10QtMobility30QOrganizerItemCollectionFilterD1Ev)
    i._ZN11QStringListD1Ev                   0x000113f2   Section        8  qtorganizer_symbian.in(i._ZN11QStringListD1Ev)
    i._ZN12QMapIteratorIPN10QtMobility25QOrganizerAbstractRequestEP37COrganizerItemRequestsServiceProviderED1Ev 0x000113fa   Section        8  qtorganizer_symbian.in(i._ZN12QMapIteratorIPN10QtMobility25QOrganizerAbstractRequestEP37COrganizerItemRequestsServiceProviderED1Ev)
    i._ZN15QBasicAtomicInt3refEv             0x00011402   Section       18  qtorganizer_symbian.in(i._ZN15QBasicAtomicInt3refEv)
    i._ZN15QBasicAtomicInt5derefEv           0x00011414   Section       18  qtorganizer_symbian.in(i._ZN15QBasicAtomicInt5derefEv)
    i._ZN17QForeachContainerI4QSetI5QDateEED1Ev 0x00011426   Section        8  qtorganizer_symbian.in(i._ZN17QForeachContainerI4QSetI5QDateEED1Ev)
    i._ZN17QForeachContainerI4QSetIN10QtMobility24QOrganizerRecurrenceRule5MonthEEED1Ev 0x0001142e   Section        8  qtorganizer_symbian.in(i._ZN17QForeachContainerI4QSetIN10QtMobility24QOrganizerRecurrenceRule5MonthEEED1Ev)
    i._ZN17QForeachContainerI4QSetIN2Qt9DayOfWeekEEED1Ev 0x00011436   Section        8  qtorganizer_symbian.in(i._ZN17QForeachContainerI4QSetIN2Qt9DayOfWeekEEED1Ev)
    i._ZN17QForeachContainerI4QSetIiEED1Ev   0x0001143e   Section        8  qtorganizer_symbian.in(i._ZN17QForeachContainerI4QSetIiEED1Ev)
    i._ZN17QForeachContainerI5QListI26OrganizerSymbianCollectionEED1Ev 0x00011446   Section        8  qtorganizer_symbian.in(i._ZN17QForeachContainerI5QListI26OrganizerSymbianCollectionEED1Ev)
    i._ZN17QForeachContainerI5QListI7QStringEED1Ev 0x0001144e   Section        8  qtorganizer_symbian.in(i._ZN17QForeachContainerI5QListI7QStringEED1Ev)
    i._ZN17QForeachContainerI5QListIN10QtMobility14QOrganizerItemEEED1Ev 0x00011456   Section        8  qtorganizer_symbian.in(i._ZN17QForeachContainerI5QListIN10QtMobility14QOrganizerItemEEED1Ev)
    i._ZN17QForeachContainerI5QListIN10QtMobility16QOrganizerItemIdEEED1Ev 0x0001145e   Section        8  qtorganizer_symbian.in(i._ZN17QForeachContainerI5QListIN10QtMobility16QOrganizerItemIdEEED1Ev)
    i._ZN17QForeachContainerI5QListIN10QtMobility20QOrganizerItemFilterEEED1Ev 0x00011466   Section        8  qtorganizer_symbian.in(i._ZN17QForeachContainerI5QListIN10QtMobility20QOrganizerItemFilterEEED1Ev)
    i._ZN17QForeachContainerI5QListIN10QtMobility22QOrganizerCollectionIdEEED1Ev 0x0001146e   Section        8  qtorganizer_symbian.in(i._ZN17QForeachContainerI5QListIN10QtMobility22QOrganizerCollectionIdEEED1Ev)
    i._ZN17QForeachContainerI5QListIP28OrganizerItemDetailTransformEED1Ev 0x00011476   Section        8  qtorganizer_symbian.in(i._ZN17QForeachContainerI5QListIP28OrganizerItemDetailTransformEED1Ev)
    i._ZN17QForeachContainerI5QListIiEED1Ev  0x0001147e   Section        8  qtorganizer_symbian.in(i._ZN17QForeachContainerI5QListIiEED1Ev)
    i._ZN26OrganizerItemGuidTransformD0Ev    0x00011486   Section       16  qtorganizer_symbian.in(i._ZN26OrganizerItemGuidTransformD0Ev)
    i._ZN26OrganizerItemGuidTransformD1Ev    0x00011496   Section        8  qtorganizer_symbian.in(i._ZN26OrganizerItemGuidTransformD1Ev)
    i._ZN26OrganizerItemTypeTransformD0Ev    0x0001149e   Section       16  qtorganizer_symbian.in(i._ZN26OrganizerItemTypeTransformD0Ev)
    i._ZN26OrganizerItemTypeTransformD1Ev    0x000114ae   Section        8  qtorganizer_symbian.in(i._ZN26OrganizerItemTypeTransformD1Ev)
    i._ZN26OrganizerSymbianCollectionD1Ev    0x000114b6   Section        8  qtorganizer_symbian.in(i._ZN26OrganizerSymbianCollectionD1Ev)
    i._ZN26OrganizerTodoTimeTransformD0Ev    0x000114be   Section       16  qtorganizer_symbian.in(i._ZN26OrganizerTodoTimeTransformD0Ev)
    i._ZN26OrganizerTodoTimeTransformD1Ev    0x000114ce   Section        8  qtorganizer_symbian.in(i._ZN26OrganizerTodoTimeTransformD1Ev)
    i._ZN27OrganizerEventTimeTransformD0Ev   0x000114d6   Section       16  qtorganizer_symbian.in(i._ZN27OrganizerEventTimeTransformD0Ev)
    i._ZN27OrganizerEventTimeTransformD1Ev   0x000114e6   Section        8  qtorganizer_symbian.in(i._ZN27OrganizerEventTimeTransformD1Ev)
    i._ZN28OrganizerItemParentTransformD0Ev  0x000114ee   Section       16  qtorganizer_symbian.in(i._ZN28OrganizerItemParentTransformD0Ev)
    i._ZN28OrganizerItemParentTransformD1Ev  0x000114fe   Section        8  qtorganizer_symbian.in(i._ZN28OrganizerItemParentTransformD1Ev)
    i._ZN28QOrganizerItemSymbianFactoryD0Ev  0x00011506   Section       16  qtorganizer_symbian.in(i._ZN28QOrganizerItemSymbianFactoryD0Ev)
    i._ZN28QOrganizerItemSymbianFactoryD1Ev  0x00011516   Section       18  qtorganizer_symbian.in(i._ZN28QOrganizerItemSymbianFactoryD1Ev)
    i._ZN28QOrganizerItemSymbianFactoryD1Ev.clean 0x00011528   Section       10  qtorganizer_symbian.in(i._ZN28QOrganizerItemSymbianFactoryD1Ev.clean)
    i._ZN29OrganizerJournalTimeTransformD0Ev 0x00011532   Section       16  qtorganizer_symbian.in(i._ZN29OrganizerJournalTimeTransformD0Ev)
    i._ZN29OrganizerJournalTimeTransformD1Ev 0x00011542   Section        8  qtorganizer_symbian.in(i._ZN29OrganizerJournalTimeTransformD1Ev)
    i._ZN30OrganizerItemLocationTransformD0Ev 0x0001154a   Section       16  qtorganizer_symbian.in(i._ZN30OrganizerItemLocationTransformD0Ev)
    i._ZN30OrganizerItemLocationTransformD1Ev 0x0001155a   Section        8  qtorganizer_symbian.in(i._ZN30OrganizerItemLocationTransformD1Ev)
    i._ZN30OrganizerItemPriorityTransformD0Ev 0x00011562   Section       16  qtorganizer_symbian.in(i._ZN30OrganizerItemPriorityTransformD0Ev)
    i._ZN30OrganizerItemPriorityTransformD1Ev 0x00011572   Section        8  qtorganizer_symbian.in(i._ZN30OrganizerItemPriorityTransformD1Ev)
    i._ZN30OrganizerItemReminderTransformD0Ev 0x0001157a   Section       16  qtorganizer_symbian.in(i._ZN30OrganizerItemReminderTransformD0Ev)
    i._ZN30OrganizerItemReminderTransformD1Ev 0x0001158a   Section        8  qtorganizer_symbian.in(i._ZN30OrganizerItemReminderTransformD1Ev)
    i._ZN30OrganizerTodoProgressTransformD0Ev 0x00011592   Section       16  qtorganizer_symbian.in(i._ZN30OrganizerTodoProgressTransformD0Ev)
    i._ZN30OrganizerTodoProgressTransformD1Ev 0x000115a2   Section        8  qtorganizer_symbian.in(i._ZN30OrganizerTodoProgressTransformD1Ev)
    i._ZN31OrganizerItemTimeStampTransformD0Ev 0x000115aa   Section       16  qtorganizer_symbian.in(i._ZN31OrganizerItemTimeStampTransformD0Ev)
    i._ZN31OrganizerItemTimeStampTransformD1Ev 0x000115ba   Section        8  qtorganizer_symbian.in(i._ZN31OrganizerItemTimeStampTransformD1Ev)
    i._ZN32OrganizerItemRecurrenceTransformD0Ev 0x000115c2   Section       16  qtorganizer_symbian.in(i._ZN32OrganizerItemRecurrenceTransformD0Ev)
    i._ZN32OrganizerItemRecurrenceTransformD1Ev 0x000115d2   Section        8  qtorganizer_symbian.in(i._ZN32OrganizerItemRecurrenceTransformD1Ev)
    i._ZN33OrganizerItemDescriptionTransformD0Ev 0x000115da   Section       16  qtorganizer_symbian.in(i._ZN33OrganizerItemDescriptionTransformD0Ev)
    i._ZN33OrganizerItemDescriptionTransformD1Ev 0x000115ea   Section        8  qtorganizer_symbian.in(i._ZN33OrganizerItemDescriptionTransformD1Ev)
    i._ZN34OrganizerItemDisplayLabelTransformD0Ev 0x000115f2   Section       16  qtorganizer_symbian.in(i._ZN34OrganizerItemDisplayLabelTransformD0Ev)
    i._ZN34OrganizerItemDisplayLabelTransformD1Ev 0x00011602   Section        8  qtorganizer_symbian.in(i._ZN34OrganizerItemDisplayLabelTransformD1Ev)
    i._ZN4QSetI5QDateED1Ev                   0x0001160a   Section        8  qtorganizer_symbian.in(i._ZN4QSetI5QDateED1Ev)
    i._ZN4QSetIN10QtMobility16QOrganizerItemIdEED1Ev 0x00011612   Section        8  qtorganizer_symbian.in(i._ZN4QSetIN10QtMobility16QOrganizerItemIdEED1Ev)
    i._ZN4QSetIN10QtMobility22QOrganizerCollectionIdEED1Ev 0x0001161a   Section        8  qtorganizer_symbian.in(i._ZN4QSetIN10QtMobility22QOrganizerCollectionIdEED1Ev)
    i._ZN4QSetIN10QtMobility24QOrganizerRecurrenceRule5MonthEED1Ev 0x00011622   Section        8  qtorganizer_symbian.in(i._ZN4QSetIN10QtMobility24QOrganizerRecurrenceRule5MonthEED1Ev)
    i._ZN4QSetIN10QtMobility24QOrganizerRecurrenceRuleEED1Ev 0x0001162a   Section        8  qtorganizer_symbian.in(i._ZN4QSetIN10QtMobility24QOrganizerRecurrenceRuleEED1Ev)
    i._ZN4QSetIN2Qt9DayOfWeekEED1Ev          0x00011632   Section        8  qtorganizer_symbian.in(i._ZN4QSetIN2Qt9DayOfWeekEED1Ev)
    i._ZN4QSetIiED1Ev                        0x0001163a   Section        8  qtorganizer_symbian.in(i._ZN4QSetIiED1Ev)
    i._ZN5CBasenwEj                          0x00011642   Section        8  qtorganizer_symbian.in(i._ZN5CBasenwEj)
    i._ZN6QDebug10maybeSpaceEv               0x0001164a   Section       22  qtorganizer_symbian.in(i._ZN6QDebug10maybeSpaceEv)
    i._ZN6QDebugC1ERKS_                      0x00011660   Section       12  qtorganizer_symbian.in(i._ZN6QDebugC1ERKS_)
    i._ZN6QDebugD1Ev                         0x0001166c   Section      132  qtorganizer_symbian.in(i._ZN6QDebugD1Ev)
    i._ZN6QDebugD1Ev.clean                   0x000116f0   Section       20  qtorganizer_symbian.in(i._ZN6QDebugD1Ev.clean)
    i._ZN6QDebuglsEPKc                       0x00011704   Section       36  qtorganizer_symbian.in(i._ZN6QDebuglsEPKc)
    i._ZN6QDebuglsEPKc.clean                 0x00011728   Section       10  qtorganizer_symbian.in(i._ZN6QDebuglsEPKc.clean)
    i._ZN6QDebuglsERK7QString                0x00011732   Section       34  qtorganizer_symbian.in(i._ZN6QDebuglsERK7QString)
    i._ZN6QDebuglsEi                         0x00011754   Section       18  qtorganizer_symbian.in(i._ZN6QDebuglsEi)
    i._ZN6QDebuglsEy                         0x00011766   Section       40  qtorganizer_symbian.in(i._ZN6QDebuglsEy)
    i._ZN6QDebuglsEy.clean                   0x0001178e   Section       10  qtorganizer_symbian.in(i._ZN6QDebuglsEy.clean)
    i._ZN7QStringC1EPKc                      0x00011798   Section       20  qtorganizer_symbian.in(i._ZN7QStringC1EPKc)
    i._ZN7QStringC1ERK13QLatin1String        0x000117ac   Section       20  qtorganizer_symbian.in(i._ZN7QStringC1ERK13QLatin1String)
    i._ZN7QStringC1ERKS_                     0x000117c0   Section       16  qtorganizer_symbian.in(i._ZN7QStringC1ERKS_)
    i._ZN7QStringC1Ev                        0x000117d0   Section       20  qtorganizer_symbian.in(i._ZN7QStringC1Ev)
    i._ZN7QStringD1Ev                        0x000117e4   Section       24  qtorganizer_symbian.in(i._ZN7QStringD1Ev)
    i._ZN7QStringaSERK13QLatin1String        0x000117fc   Section       34  qtorganizer_symbian.in(i._ZN7QStringaSERK13QLatin1String)
    i._ZN7QStringaSERK13QLatin1String.clean  0x0001181e   Section       10  qtorganizer_symbian.in(i._ZN7QStringaSERK13QLatin1String.clean)
    i._ZN9QHashData8willGrowEv               0x00011828   Section       28  qtorganizer_symbian.in(i._ZN9QHashData8willGrowEv)
    i._ZN9QHashData9firstNodeEv              0x00011844   Section       24  qtorganizer_symbian.in(i._ZN9QHashData9firstNodeEv)
    i._ZNK10QtMobility18QOrganizerTodoTime11dueDateTimeEv 0x0001185c   Section       16  qtorganizer_symbian.in(i._ZNK10QtMobility18QOrganizerTodoTime11dueDateTimeEv)
    i._ZNK10QtMobility18QOrganizerTodoTime13startDateTimeEv 0x0001186c   Section       16  qtorganizer_symbian.in(i._ZNK10QtMobility18QOrganizerTodoTime13startDateTimeEv)
    i._ZNK10QtMobility19QOrganizerEventTime11endDateTimeEv 0x0001187c   Section       16  qtorganizer_symbian.in(i._ZNK10QtMobility19QOrganizerEventTime11endDateTimeEv)
    i._ZNK10QtMobility19QOrganizerEventTime13startDateTimeEv 0x0001188c   Section       16  qtorganizer_symbian.in(i._ZNK10QtMobility19QOrganizerEventTime13startDateTimeEv)
    i._ZNK10QtMobility20QOrganizerItemParent12originalDateEv 0x0001189c   Section       36  qtorganizer_symbian.in(i._ZNK10QtMobility20QOrganizerItemParent12originalDateEv)
    i._ZNK10QtMobility20QOrganizerItemParent12originalDateEv.clean 0x000118c0   Section       10  qtorganizer_symbian.in(i._ZNK10QtMobility20QOrganizerItemParent12originalDateEv.clean)
    i._ZNK10QtMobility20QOrganizerItemParent8parentIdEv 0x000118cc   Section      124  qtorganizer_symbian.in(i._ZNK10QtMobility20QOrganizerItemParent8parentIdEv)
    i._ZNK10QtMobility20QOrganizerItemParent8parentIdEv.clean 0x00011948   Section       18  qtorganizer_symbian.in(i._ZNK10QtMobility20QOrganizerItemParent8parentIdEv.clean)
    i._ZNK10QtMobility22QOrganizerItemLocation5labelEv 0x0001195c   Section       16  qtorganizer_symbian.in(i._ZNK10QtMobility22QOrganizerItemLocation5labelEv)
    i._ZNK10QtMobility22QOrganizerItemReminder18secondsBeforeStartEv 0x0001196c   Section       84  qtorganizer_symbian.in(i._ZNK10QtMobility22QOrganizerItemReminder18secondsBeforeStartEv)
    i._ZNK10QtMobility22QOrganizerItemReminder18secondsBeforeStartEv.clean 0x000119c0   Section       10  qtorganizer_symbian.in(i._ZNK10QtMobility22QOrganizerItemReminder18secondsBeforeStartEv.clean)
    i._ZNK10QtMobility22QOrganizerTodoProgress16finishedDateTimeEv 0x000119cc   Section       16  qtorganizer_symbian.in(i._ZNK10QtMobility22QOrganizerTodoProgress16finishedDateTimeEv)
    i._ZNK10QtMobility22QOrganizerTodoProgress6statusEv 0x000119dc   Section       72  qtorganizer_symbian.in(i._ZNK10QtMobility22QOrganizerTodoProgress6statusEv)
    i._ZNK10QtMobility22QOrganizerTodoProgress6statusEv.clean 0x00011a24   Section       10  qtorganizer_symbian.in(i._ZNK10QtMobility22QOrganizerTodoProgress6statusEv.clean)
    i._ZNK10QtMobility23QOrganizerItemTimestamp7createdEv 0x00011a30   Section       16  qtorganizer_symbian.in(i._ZNK10QtMobility23QOrganizerItemTimestamp7createdEv)
    i._ZNK15QBasicAtomicInteqEi              0x00011a40   Section       14  qtorganizer_symbian.in(i._ZNK15QBasicAtomicInteqEi)
    i._ZNK15QBasicAtomicIntneEi              0x00011a4e   Section       14  qtorganizer_symbian.in(i._ZNK15QBasicAtomicIntneEi)
    i._ZNK5TTimeneES_                        0x00011a5c   Section       18  qtorganizer_symbian.in(i._ZNK5TTimeneES_)
    i._ZNK7QString7isEmptyEv                 0x00011a6e   Section       16  qtorganizer_symbian.in(i._ZNK7QString7isEmptyEv)
    i._ZNK7QStringneERKS_                    0x00011a7e   Section       12  qtorganizer_symbian.in(i._ZNK7QStringneERKS_)
    i._ZNK9QListData2atEi                    0x00011a8a   Section       16  qtorganizer_symbian.in(i._ZNK9QListData2atEi)
    i._ZNK9QListData3endEv                   0x00011a9a   Section       12  qtorganizer_symbian.in(i._ZNK9QListData3endEv)
    i._ZNK9QListData4sizeEv                  0x00011aa6   Section       10  qtorganizer_symbian.in(i._ZNK9QListData4sizeEv)
    i._ZNK9QListData5beginEv                 0x00011ab0   Section       12  qtorganizer_symbian.in(i._ZNK9QListData5beginEv)
    i._ZThn8_N28QOrganizerItemSymbianFactoryD0Ev 0x00011abc   Section       10  qtorganizer_symbian.in(i._ZThn8_N28QOrganizerItemSymbianFactoryD0Ev)
    i._ZThn8_N28QOrganizerItemSymbianFactoryD1Ev 0x00011ac6   Section       10  qtorganizer_symbian.in(i._ZThn8_N28QOrganizerItemSymbianFactoryD1Ev)
    i._ZdlPvS_                               0x00011ad0   Section        2  qtorganizer_symbian.in(i._ZdlPvS_)
    i._ZnwjPv                                0x00011ad2   Section        4  qtorganizer_symbian.in(i._ZnwjPv)
    t._Z15qMapLessThanKeyI7QStringEbRKT_S3_  0x00011ad6   Section        8  qtorganizer_symbian.in(t._Z15qMapLessThanKeyI7QStringEbRKT_S3_)
    t._Z15qMapLessThanKeyIN10QtMobility22QOrganizerCollectionIdEEbRKT_S4_ 0x00011ade   Section        8  qtorganizer_symbian.in(t._Z15qMapLessThanKeyIN10QtMobility22QOrganizerCollectionIdEEbRKT_S4_)
    t._Z15qMapLessThanKeyIPN10QtMobility25QOrganizerAbstractRequestEEbRKT_S5_ 0x00011ae6   Section       16  qtorganizer_symbian.in(t._Z15qMapLessThanKeyIPN10QtMobility25QOrganizerAbstractRequestEEbRKT_S5_)
    t._Z15qMapLessThanKeyIiEbRKT_S2_         0x00011af6   Section       16  qtorganizer_symbian.in(t._Z15qMapLessThanKeyIiEbRKT_S2_)
    t._Z17CleanupClosePushLI6RArrayI4TDayEEvRT_ 0x00011b08   Section       16  qtorganizer_symbian.in(t._Z17CleanupClosePushLI6RArrayI4TDayEEvRT_)
    t._Z17CleanupClosePushLI6RArrayI6TMonthEEvRT_ 0x00011b18   Section       16  qtorganizer_symbian.in(t._Z17CleanupClosePushLI6RArrayI6TMonthEEvRT_)
    t._Z17CleanupClosePushLI6RArrayI8TCalTimeEEvRT_ 0x00011b28   Section       16  qtorganizer_symbian.in(t._Z17CleanupClosePushLI6RArrayI8TCalTimeEEvRT_)
    t._Z17CleanupClosePushLI6RArrayIN9TCalRRule11TDayOfMonthEEEvRT_ 0x00011b38   Section       16  qtorganizer_symbian.in(t._Z17CleanupClosePushLI6RArrayIN9TCalRRule11TDayOfMonthEEEvRT_)
    t._Z17CleanupClosePushLI6RArrayIiEEvRT_  0x00011b48   Section       16  qtorganizer_symbian.in(t._Z17CleanupClosePushLI6RArrayIiEEvRT_)
    t._Z17qRegisterMetaTypeIN10QtMobility16QOrganizerItemIdEEiPKcPT_ 0x00011b58   Section       52  qtorganizer_symbian.in(t._Z17qRegisterMetaTypeIN10QtMobility16QOrganizerItemIdEEiPKcPT_)
    t._Z20qForeachContainerNewI4QSetIN2Qt9DayOfWeekEEE17QForeachContainerIT_ERKS5_ 0x00011b8c   Section       54  qtorganizer_symbian.in(t._Z20qForeachContainerNewI4QSetIN2Qt9DayOfWeekEEE17QForeachContainerIT_ERKS5_)
    t._Z20qForeachContainerNewI4QSetIN2Qt9DayOfWeekEEE17QForeachContainerIT_ERKS5_.clean 0x00011bc2   Section       10  qtorganizer_symbian.in(t._Z20qForeachContainerNewI4QSetIN2Qt9DayOfWeekEEE17QForeachContainerIT_ERKS5_.clean)
    t._Z20qForeachContainerNewI4QSetIiEE17QForeachContainerIT_ERKS3_ 0x00011bcc   Section       54  qtorganizer_symbian.in(t._Z20qForeachContainerNewI4QSetIiEE17QForeachContainerIT_ERKS3_)
    t._Z20qForeachContainerNewI4QSetIiEE17QForeachContainerIT_ERKS3_.clean 0x00011c02   Section       10  qtorganizer_symbian.in(t._Z20qForeachContainerNewI4QSetIiEE17QForeachContainerIT_ERKS3_.clean)
    t._Z20qForeachContainerNewI5QListI26OrganizerSymbianCollectionEE17QForeachContainerIT_ERKS4_ 0x00011c0c   Section       46  qtorganizer_symbian.in(t._Z20qForeachContainerNewI5QListI26OrganizerSymbianCollectionEE17QForeachContainerIT_ERKS4_)
    t._Z20qForeachContainerNewI5QListI26OrganizerSymbianCollectionEE17QForeachContainerIT_ERKS4_.clean 0x00011c3a   Section       10  qtorganizer_symbian.in(t._Z20qForeachContainerNewI5QListI26OrganizerSymbianCollectionEE17QForeachContainerIT_ERKS4_.clean)
    t._Z20qForeachContainerNewI5QListI7QStringEE17QForeachContainerIT_ERKS4_ 0x00011c44   Section       62  qtorganizer_symbian.in(t._Z20qForeachContainerNewI5QListI7QStringEE17QForeachContainerIT_ERKS4_)
    t._Z20qForeachContainerNewI5QListI7QStringEE17QForeachContainerIT_ERKS4_.clean 0x00011c82   Section       10  qtorganizer_symbian.in(t._Z20qForeachContainerNewI5QListI7QStringEE17QForeachContainerIT_ERKS4_.clean)
    t._Z20qForeachContainerNewI5QListIN10QtMobility14QOrganizerItemEEE17QForeachContainerIT_ERKS5_ 0x00011c8c   Section       46  qtorganizer_symbian.in(t._Z20qForeachContainerNewI5QListIN10QtMobility14QOrganizerItemEEE17QForeachContainerIT_ERKS5_)
    t._Z20qForeachContainerNewI5QListIN10QtMobility14QOrganizerItemEEE17QForeachContainerIT_ERKS5_.clean 0x00011cba   Section       10  qtorganizer_symbian.in(t._Z20qForeachContainerNewI5QListIN10QtMobility14QOrganizerItemEEE17QForeachContainerIT_ERKS5_.clean)
    t._Z20qForeachContainerNewI5QListIN10QtMobility16QOrganizerItemIdEEE17QForeachContainerIT_ERKS5_ 0x00011cc4   Section       46  qtorganizer_symbian.in(t._Z20qForeachContainerNewI5QListIN10QtMobility16QOrganizerItemIdEEE17QForeachContainerIT_ERKS5_)
    t._Z20qForeachContainerNewI5QListIN10QtMobility16QOrganizerItemIdEEE17QForeachContainerIT_ERKS5_.clean 0x00011cf2   Section       10  qtorganizer_symbian.in(t._Z20qForeachContainerNewI5QListIN10QtMobility16QOrganizerItemIdEEE17QForeachContainerIT_ERKS5_.clean)
    t._Z20qForeachContainerNewI5QListIN10QtMobility22QOrganizerCollectionIdEEE17QForeachContainerIT_ERKS5_ 0x00011cfc   Section       60  qtorganizer_symbian.in(t._Z20qForeachContainerNewI5QListIN10QtMobility22QOrganizerCollectionIdEEE17QForeachContainerIT_ERKS5_)
    t._Z20qForeachContainerNewI5QListIN10QtMobility22QOrganizerCollectionIdEEE17QForeachContainerIT_ERKS5_.clean 0x00011d38   Section       10  qtorganizer_symbian.in(t._Z20qForeachContainerNewI5QListIN10QtMobility22QOrganizerCollectionIdEEE17QForeachContainerIT_ERKS5_.clean)
    t._Z20qForeachContainerNewI5QListIP28OrganizerItemDetailTransformEE17QForeachContainerIT_ERKS5_ 0x00011d42   Section       60  qtorganizer_symbian.in(t._Z20qForeachContainerNewI5QListIP28OrganizerItemDetailTransformEE17QForeachContainerIT_ERKS5_)
    t._Z20qForeachContainerNewI5QListIP28OrganizerItemDetailTransformEE17QForeachContainerIT_ERKS5_.clean 0x00011d7e   Section       10  qtorganizer_symbian.in(t._Z20qForeachContainerNewI5QListIP28OrganizerItemDetailTransformEE17QForeachContainerIT_ERKS5_.clean)
    t._Z21qMetaTypeDeleteHelperIN10QtMobility16QOrganizerItemIdEEvPT_ 0x00011d88   Section       16  qtorganizer_symbian.in(t._Z21qMetaTypeDeleteHelperIN10QtMobility16QOrganizerItemIdEEvPT_)
    t._Z24qMetaTypeConstructHelperIN10QtMobility16QOrganizerItemIdEEPvPKT_ 0x00011d98   Section       48  qtorganizer_symbian.in(t._Z24qMetaTypeConstructHelperIN10QtMobility16QOrganizerItemIdEEPvPKT_)
    t._Z24qMetaTypeConstructHelperIN10QtMobility16QOrganizerItemIdEEPvPKT_.clean 0x00011dc8   Section       16  qtorganizer_symbian.in(t._Z24qMetaTypeConstructHelperIN10QtMobility16QOrganizerItemIdEEPvPKT_.clean)
    t._Z27CleanupResetAndDestroyPushLI13RPointerArrayI12CCalInstanceEEvRT_ 0x00011dd8   Section       16  qtorganizer_symbian.in(t._Z27CleanupResetAndDestroyPushLI13RPointerArrayI12CCalInstanceEEvRT_)
    t._ZN10QtMobilityeqILi15EEEbRK7QStringRKNS_15QLatin1ConstantIXT_EEE 0x00011de8   Section       12  qtorganizer_symbian.in(t._ZN10QtMobilityeqILi15EEEbRK7QStringRKNS_15QLatin1ConstantIXT_EEE)
    t._ZN10QtMobilityeqILi16EEEbRK7QStringRKNS_15QLatin1ConstantIXT_EEE 0x00011df4   Section       12  qtorganizer_symbian.in(t._ZN10QtMobilityeqILi16EEEbRK7QStringRKNS_15QLatin1ConstantIXT_EEE)
    t._ZN10QtMobilityeqILi5EEEbRK7QStringRKNS_15QLatin1ConstantIXT_EEE 0x00011e00   Section       12  qtorganizer_symbian.in(t._ZN10QtMobilityeqILi5EEEbRK7QStringRKNS_15QLatin1ConstantIXT_EEE)
    t._ZN10QtMobilityeqILi5EEEbRKNS_15QLatin1ConstantIXT_EEERK7QString 0x00011e0c   Section       16  qtorganizer_symbian.in(t._ZN10QtMobilityeqILi5EEEbRKNS_15QLatin1ConstantIXT_EEERK7QString)
    t._ZN10QtMobilityeqILi6EEEbRK7QStringRKNS_15QLatin1ConstantIXT_EEE 0x00011e1c   Section       12  qtorganizer_symbian.in(t._ZN10QtMobilityeqILi6EEEbRK7QStringRKNS_15QLatin1ConstantIXT_EEE)
    t._ZN10QtMobilityeqILi8EEEbRK7QStringRKNS_15QLatin1ConstantIXT_EEE 0x00011e28   Section       12  qtorganizer_symbian.in(t._ZN10QtMobilityeqILi8EEEbRK7QStringRKNS_15QLatin1ConstantIXT_EEE)
    t._ZN12CleanupCloseI13RPointerArrayI9CCalEntryEE5CloseEPv 0x00011e34   Section        8  qtorganizer_symbian.in(t._ZN12CleanupCloseI13RPointerArrayI9CCalEntryEE5CloseEPv)
    t._ZN12CleanupCloseI6RArrayI4TDayEE5CloseEPv 0x00011e3c   Section        8  qtorganizer_symbian.in(t._ZN12CleanupCloseI6RArrayI4TDayEE5CloseEPv)
    t._ZN12CleanupCloseI6RArrayI6TMonthEE5CloseEPv 0x00011e44   Section        8  qtorganizer_symbian.in(t._ZN12CleanupCloseI6RArrayI6TMonthEE5CloseEPv)
    t._ZN12CleanupCloseI6RArrayI8TCalTimeEE5CloseEPv 0x00011e4c   Section        8  qtorganizer_symbian.in(t._ZN12CleanupCloseI6RArrayI8TCalTimeEE5CloseEPv)
    t._ZN12CleanupCloseI6RArrayIN9TCalRRule11TDayOfMonthEEE5CloseEPv 0x00011e54   Section        8  qtorganizer_symbian.in(t._ZN12CleanupCloseI6RArrayIN9TCalRRule11TDayOfMonthEEE5CloseEPv)
    t._ZN12CleanupCloseI6RArrayIiEE5CloseEPv 0x00011e5c   Section        8  qtorganizer_symbian.in(t._ZN12CleanupCloseI6RArrayIiEE5CloseEPv)
    t._ZN12CleanupCloseI6RArrayImEE5CloseEPv 0x00011e64   Section        8  qtorganizer_symbian.in(t._ZN12CleanupCloseI6RArrayImEE5CloseEPv)
    t._ZN12QMetaTypeId2IN10QtMobility16QOrganizerItemIdEE14qt_metatype_idEv 0x00011e6c   Section       68  qtorganizer_symbian.in(t._ZN12QMetaTypeId2IN10QtMobility16QOrganizerItemIdEE14qt_metatype_idEv)
    t._ZN12QWeakPointerIN10QtMobility25QOrganizerAbstractRequestEED1Ev 0x00011eb0   Section       36  qtorganizer_symbian.in(t._ZN12QWeakPointerIN10QtMobility25QOrganizerAbstractRequestEED1Ev)
    t._ZN14QHashDummyNodeIN10QtMobility16QOrganizerItemIdE15QHashDummyValueEC1ERKS1_ 0x00011ed4   Section       12  qtorganizer_symbian.in(t._ZN14QHashDummyNodeIN10QtMobility16QOrganizerItemIdE15QHashDummyValueEC1ERKS1_)
    t._ZN14QHashDummyNodeIN10QtMobility24QOrganizerRecurrenceRuleE15QHashDummyValueEC1ERKS1_ 0x00011ee0   Section       12  qtorganizer_symbian.in(t._ZN14QHashDummyNodeIN10QtMobility24QOrganizerRecurrenceRuleE15QHashDummyValueEC1ERKS1_)
    t._ZN22CleanupResetAndDestroyI13RPointerArrayI12CCalInstanceEE15ResetAndDestroyEPv 0x00011eec   Section       48  qtorganizer_symbian.in(t._ZN22CleanupResetAndDestroyI13RPointerArrayI12CCalInstanceEE15ResetAndDestroyEPv)
    t._ZN22CleanupResetAndDestroyI13RPointerArrayI9CCalEntryEE15ResetAndDestroyEPv 0x00011f1c   Section       48  qtorganizer_symbian.in(t._ZN22CleanupResetAndDestroyI13RPointerArrayI9CCalEntryEE15ResetAndDestroyEPv)
    t._ZN28QExplicitlySharedDataPointerI33OrganizerSymbianCollectionPrivateEC1EPS0_ 0x00011f4c   Section       20  qtorganizer_symbian.in(t._ZN28QExplicitlySharedDataPointerI33OrganizerSymbianCollectionPrivateEC1EPS0_)
    t._ZN28QExplicitlySharedDataPointerI33OrganizerSymbianCollectionPrivateED1Ev 0x00011f60   Section       38  qtorganizer_symbian.in(t._ZN28QExplicitlySharedDataPointerI33OrganizerSymbianCollectionPrivateED1Ev)
    t._ZN28QExplicitlySharedDataPointerI33OrganizerSymbianCollectionPrivateEaSEPS0_ 0x00011f86   Section       54  qtorganizer_symbian.in(t._ZN28QExplicitlySharedDataPointerI33OrganizerSymbianCollectionPrivateEaSEPS0_)
    t._ZN4QMapI7QString8QVariantED1Ev        0x00011fbc   Section       64  qtorganizer_symbian.in(t._ZN4QMapI7QString8QVariantED1Ev)
    t._ZN4QMapI7QStringN10QtMobility30QOrganizerItemDetailDefinitionEE11node_createEP8QMapDataPPNS4_4NodeERKS0_RKS2_ 0x00011ffc   Section      106  qtorganizer_symbian.in(t._ZN4QMapI7QStringN10QtMobility30QOrganizerItemDetailDefinitionEE11node_createEP8QMapDataPPNS4_4NodeERKS0_RKS2_)
    t._ZN4QMapI7QStringN10QtMobility30QOrganizerItemDetailDefinitionEE11node_createEP8QMapDataPPNS4_4NodeERKS0_RKS2_.clean 0x00012066   Section       38  qtorganizer_symbian.in(t._ZN4QMapI7QStringN10QtMobility30QOrganizerItemDetailDefinitionEE11node_createEP8QMapDataPPNS4_4NodeERKS0_RKS2_.clean)
    t._ZN4QMapI7QStringN10QtMobility30QOrganizerItemDetailDefinitionEE13detach_helperEv 0x0001208c   Section      114  qtorganizer_symbian.in(t._ZN4QMapI7QStringN10QtMobility30QOrganizerItemDetailDefinitionEE13detach_helperEv)
    t._ZN4QMapI7QStringN10QtMobility30QOrganizerItemDetailDefinitionEE13detach_helperEv.clean 0x000120fe   Section        8  qtorganizer_symbian.in(t._ZN4QMapI7QStringN10QtMobility30QOrganizerItemDetailDefinitionEE13detach_helperEv.clean)
    t._ZN4QMapI7QStringN10QtMobility30QOrganizerItemDetailDefinitionEE6detachEv 0x00012106   Section       26  qtorganizer_symbian.in(t._ZN4QMapI7QStringN10QtMobility30QOrganizerItemDetailDefinitionEE6detachEv)
    t._ZN4QMapI7QStringN10QtMobility30QOrganizerItemDetailDefinitionEE6insertERKS0_RKS2_ 0x00012120   Section      128  qtorganizer_symbian.in(t._ZN4QMapI7QStringN10QtMobility30QOrganizerItemDetailDefinitionEE6insertERKS0_RKS2_)
    t._ZN4QMapI7QStringN10QtMobility30QOrganizerItemDetailDefinitionEE6removeERKS0_ 0x000121a0   Section      168  qtorganizer_symbian.in(t._ZN4QMapI7QStringN10QtMobility30QOrganizerItemDetailDefinitionEE6removeERKS0_)
    t._ZN4QMapI7QStringN10QtMobility30QOrganizerItemDetailDefinitionEE8freeDataEP8QMapData 0x00012248   Section       42  qtorganizer_symbian.in(t._ZN4QMapI7QStringN10QtMobility30QOrganizerItemDetailDefinitionEE8freeDataEP8QMapData)
    t._ZN4QMapI7QStringN10QtMobility30QOrganizerItemDetailDefinitionEEC1ERKS3_ 0x00012272   Section       32  qtorganizer_symbian.in(t._ZN4QMapI7QStringN10QtMobility30QOrganizerItemDetailDefinitionEEC1ERKS3_)
    t._ZN4QMapI7QStringN10QtMobility30QOrganizerItemDetailDefinitionEEC1Ev 0x00012294   Section       24  qtorganizer_symbian.in(t._ZN4QMapI7QStringN10QtMobility30QOrganizerItemDetailDefinitionEEC1Ev)
    t._ZN4QMapI7QStringN10QtMobility30QOrganizerItemDetailDefinitionEED1Ev 0x000122ac   Section       32  qtorganizer_symbian.in(t._ZN4QMapI7QStringN10QtMobility30QOrganizerItemDetailDefinitionEED1Ev)
    t._ZN4QMapI7QStringN10QtMobility35QOrganizerItemDetailFieldDefinitionEE11node_createEP8QMapDataPPNS4_4NodeERKS0_RKS2_ 0x000122cc   Section      106  qtorganizer_symbian.in(t._ZN4QMapI7QStringN10QtMobility35QOrganizerItemDetailFieldDefinitionEE11node_createEP8QMapDataPPNS4_4NodeERKS0_RKS2_)
    t._ZN4QMapI7QStringN10QtMobility35QOrganizerItemDetailFieldDefinitionEE11node_createEP8QMapDataPPNS4_4NodeERKS0_RKS2_.clean 0x00012336   Section       38  qtorganizer_symbian.in(t._ZN4QMapI7QStringN10QtMobility35QOrganizerItemDetailFieldDefinitionEE11node_createEP8QMapDataPPNS4_4NodeERKS0_RKS2_.clean)
    t._ZN4QMapI7QStringN10QtMobility35QOrganizerItemDetailFieldDefinitionEE13detach_helperEv 0x0001235c   Section      114  qtorganizer_symbian.in(t._ZN4QMapI7QStringN10QtMobility35QOrganizerItemDetailFieldDefinitionEE13detach_helperEv)
    t._ZN4QMapI7QStringN10QtMobility35QOrganizerItemDetailFieldDefinitionEE13detach_helperEv.clean 0x000123ce   Section        8  qtorganizer_symbian.in(t._ZN4QMapI7QStringN10QtMobility35QOrganizerItemDetailFieldDefinitionEE13detach_helperEv.clean)
    t._ZN4QMapI7QStringN10QtMobility35QOrganizerItemDetailFieldDefinitionEE6insertERKS0_RKS2_ 0x000123d6   Section      140  qtorganizer_symbian.in(t._ZN4QMapI7QStringN10QtMobility35QOrganizerItemDetailFieldDefinitionEE6insertERKS0_RKS2_)
    t._ZN4QMapI7QStringN10QtMobility35QOrganizerItemDetailFieldDefinitionEE8freeDataEP8QMapData 0x00012462   Section       42  qtorganizer_symbian.in(t._ZN4QMapI7QStringN10QtMobility35QOrganizerItemDetailFieldDefinitionEE8freeDataEP8QMapData)
    t._ZN4QMapI7QStringN10QtMobility35QOrganizerItemDetailFieldDefinitionEED1Ev 0x0001248c   Section       32  qtorganizer_symbian.in(t._ZN4QMapI7QStringN10QtMobility35QOrganizerItemDetailFieldDefinitionEED1Ev)
    t._ZN4QMapI7QStringS_IS0_N10QtMobility30QOrganizerItemDetailDefinitionEEE11node_createEP8QMapDataPPNS5_4NodeERKS0_RKS3_ 0x000124ac   Section      106  qtorganizer_symbian.in(t._ZN4QMapI7QStringS_IS0_N10QtMobility30QOrganizerItemDetailDefinitionEEE11node_createEP8QMapDataPPNS5_4NodeERKS0_RKS3_)
    t._ZN4QMapI7QStringS_IS0_N10QtMobility30QOrganizerItemDetailDefinitionEEE11node_createEP8QMapDataPPNS5_4NodeERKS0_RKS3_.clean 0x00012516   Section       38  qtorganizer_symbian.in(t._ZN4QMapI7QStringS_IS0_N10QtMobility30QOrganizerItemDetailDefinitionEEE11node_createEP8QMapDataPPNS5_4NodeERKS0_RKS3_.clean)
    t._ZN4QMapI7QStringS_IS0_N10QtMobility30QOrganizerItemDetailDefinitionEEE13detach_helperEv 0x0001253c   Section      114  qtorganizer_symbian.in(t._ZN4QMapI7QStringS_IS0_N10QtMobility30QOrganizerItemDetailDefinitionEEE13detach_helperEv)
    t._ZN4QMapI7QStringS_IS0_N10QtMobility30QOrganizerItemDetailDefinitionEEE13detach_helperEv.clean 0x000125ae   Section        8  qtorganizer_symbian.in(t._ZN4QMapI7QStringS_IS0_N10QtMobility30QOrganizerItemDetailDefinitionEEE13detach_helperEv.clean)
    t._ZN4QMapI7QStringS_IS0_N10QtMobility30QOrganizerItemDetailDefinitionEEE6removeERKS0_ 0x000125b6   Section      184  qtorganizer_symbian.in(t._ZN4QMapI7QStringS_IS0_N10QtMobility30QOrganizerItemDetailDefinitionEEE6removeERKS0_)
    t._ZN4QMapI7QStringS_IS0_N10QtMobility30QOrganizerItemDetailDefinitionEEE8freeDataEP8QMapData 0x0001266e   Section       42  qtorganizer_symbian.in(t._ZN4QMapI7QStringS_IS0_N10QtMobility30QOrganizerItemDetailDefinitionEEE8freeDataEP8QMapData)
    t._ZN4QMapI7QStringS_IS0_N10QtMobility30QOrganizerItemDetailDefinitionEEED1Ev 0x00012698   Section       32  qtorganizer_symbian.in(t._ZN4QMapI7QStringS_IS0_N10QtMobility30QOrganizerItemDetailDefinitionEEED1Ev)
    t._ZN4QMapI7QStringS_IS0_N10QtMobility30QOrganizerItemDetailDefinitionEEEaSERKS4_ 0x000126b8   Section       58  qtorganizer_symbian.in(t._ZN4QMapI7QStringS_IS0_N10QtMobility30QOrganizerItemDetailDefinitionEEEaSERKS4_)
    t._ZN4QMapI7QStringS_IS0_N10QtMobility30QOrganizerItemDetailDefinitionEEEixERKS0_ 0x000126f2   Section      142  qtorganizer_symbian.in(t._ZN4QMapI7QStringS_IS0_N10QtMobility30QOrganizerItemDetailDefinitionEEEixERKS0_)
    t._ZN4QMapI7QStringS_IS0_N10QtMobility30QOrganizerItemDetailDefinitionEEEixERKS0_.clean 0x00012780   Section       10  qtorganizer_symbian.in(t._ZN4QMapI7QStringS_IS0_N10QtMobility30QOrganizerItemDetailDefinitionEEEixERKS0_.clean)
    t._ZN4QMapIN10QtMobility22QOrganizerCollectionIdE26OrganizerSymbianCollectionE11node_createEP8QMapDataPPNS4_4NodeERKS1_RKS2_ 0x0001278a   Section      106  qtorganizer_symbian.in(t._ZN4QMapIN10QtMobility22QOrganizerCollectionIdE26OrganizerSymbianCollectionE11node_createEP8QMapDataPPNS4_4NodeERKS1_RKS2_)
    t._ZN4QMapIN10QtMobility22QOrganizerCollectionIdE26OrganizerSymbianCollectionE11node_createEP8QMapDataPPNS4_4NodeERKS1_RKS2_.clean 0x000127f4   Section       38  qtorganizer_symbian.in(t._ZN4QMapIN10QtMobility22QOrganizerCollectionIdE26OrganizerSymbianCollectionE11node_createEP8QMapDataPPNS4_4NodeERKS1_RKS2_.clean)
    t._ZN4QMapIN10QtMobility22QOrganizerCollectionIdE26OrganizerSymbianCollectionE13detach_helperEv 0x0001281a   Section      114  qtorganizer_symbian.in(t._ZN4QMapIN10QtMobility22QOrganizerCollectionIdE26OrganizerSymbianCollectionE13detach_helperEv)
    t._ZN4QMapIN10QtMobility22QOrganizerCollectionIdE26OrganizerSymbianCollectionE13detach_helperEv.clean 0x0001288c   Section        8  qtorganizer_symbian.in(t._ZN4QMapIN10QtMobility22QOrganizerCollectionIdE26OrganizerSymbianCollectionE13detach_helperEv.clean)
    t._ZN4QMapIN10QtMobility22QOrganizerCollectionIdE26OrganizerSymbianCollectionE6detachEv 0x00012894   Section       26  qtorganizer_symbian.in(t._ZN4QMapIN10QtMobility22QOrganizerCollectionIdE26OrganizerSymbianCollectionE6detachEv)
    t._ZN4QMapIN10QtMobility22QOrganizerCollectionIdE26OrganizerSymbianCollectionE8freeDataEP8QMapData 0x000128ae   Section       42  qtorganizer_symbian.in(t._ZN4QMapIN10QtMobility22QOrganizerCollectionIdE26OrganizerSymbianCollectionE8freeDataEP8QMapData)
    t._ZN4QMapIN10QtMobility22QOrganizerCollectionIdE26OrganizerSymbianCollectionED1Ev 0x000128d8   Section       32  qtorganizer_symbian.in(t._ZN4QMapIN10QtMobility22QOrganizerCollectionIdE26OrganizerSymbianCollectionED1Ev)
    t._ZN4QMapIPN10QtMobility25QOrganizerAbstractRequestEP37COrganizerItemRequestsServiceProviderE11node_createEP8QMapDataPPNS6_4NodeERKS2_RKS4_ 0x000128f8   Section       60  qtorganizer_symbian.in(t._ZN4QMapIPN10QtMobility25QOrganizerAbstractRequestEP37COrganizerItemRequestsServiceProviderE11node_createEP8QMapDataPPNS6_4NodeERKS2_RKS4_)
    t._ZN4QMapIPN10QtMobility25QOrganizerAbstractRequestEP37COrganizerItemRequestsServiceProviderE13detach_helperEv 0x00012934   Section      114  qtorganizer_symbian.in(t._ZN4QMapIPN10QtMobility25QOrganizerAbstractRequestEP37COrganizerItemRequestsServiceProviderE13detach_helperEv)
    t._ZN4QMapIPN10QtMobility25QOrganizerAbstractRequestEP37COrganizerItemRequestsServiceProviderE13detach_helperEv.clean 0x000129a6   Section        8  qtorganizer_symbian.in(t._ZN4QMapIPN10QtMobility25QOrganizerAbstractRequestEP37COrganizerItemRequestsServiceProviderE13detach_helperEv.clean)
    t._ZN4QMapIPN10QtMobility25QOrganizerAbstractRequestEP37COrganizerItemRequestsServiceProviderE6detachEv 0x000129ae   Section       26  qtorganizer_symbian.in(t._ZN4QMapIPN10QtMobility25QOrganizerAbstractRequestEP37COrganizerItemRequestsServiceProviderE6detachEv)
    t._ZN4QMapIPN10QtMobility25QOrganizerAbstractRequestEP37COrganizerItemRequestsServiceProviderE6removeERKS2_ 0x000129c8   Section      150  qtorganizer_symbian.in(t._ZN4QMapIPN10QtMobility25QOrganizerAbstractRequestEP37COrganizerItemRequestsServiceProviderE6removeERKS2_)
    t._ZN4QMapIPN10QtMobility25QOrganizerAbstractRequestEP37COrganizerItemRequestsServiceProviderE8freeDataEP8QMapData 0x00012a5e   Section       12  qtorganizer_symbian.in(t._ZN4QMapIPN10QtMobility25QOrganizerAbstractRequestEP37COrganizerItemRequestsServiceProviderE8freeDataEP8QMapData)
    t._ZN4QMapIPN10QtMobility25QOrganizerAbstractRequestEP37COrganizerItemRequestsServiceProviderEC1Ev 0x00012a6c   Section       24  qtorganizer_symbian.in(t._ZN4QMapIPN10QtMobility25QOrganizerAbstractRequestEP37COrganizerItemRequestsServiceProviderEC1Ev)
    t._ZN4QMapIPN10QtMobility25QOrganizerAbstractRequestEP37COrganizerItemRequestsServiceProviderED1Ev 0x00012a84   Section       32  qtorganizer_symbian.in(t._ZN4QMapIPN10QtMobility25QOrganizerAbstractRequestEP37COrganizerItemRequestsServiceProviderED1Ev)
    t._ZN4QMapIPN10QtMobility25QOrganizerAbstractRequestEP37COrganizerItemRequestsServiceProviderEixERKS2_ 0x00012aa4   Section       54  qtorganizer_symbian.in(t._ZN4QMapIPN10QtMobility25QOrganizerAbstractRequestEP37COrganizerItemRequestsServiceProviderEixERKS2_)
    t._ZN4QMapIiN10QtMobility17QOrganizerManager5ErrorEE11node_createEP8QMapDataPPNS4_4NodeERKiRKS2_ 0x00012ada   Section       60  qtorganizer_symbian.in(t._ZN4QMapIiN10QtMobility17QOrganizerManager5ErrorEE11node_createEP8QMapDataPPNS4_4NodeERKiRKS2_)
    t._ZN4QMapIiN10QtMobility17QOrganizerManager5ErrorEE13detach_helperEv 0x00012b16   Section      114  qtorganizer_symbian.in(t._ZN4QMapIiN10QtMobility17QOrganizerManager5ErrorEE13detach_helperEv)
    t._ZN4QMapIiN10QtMobility17QOrganizerManager5ErrorEE13detach_helperEv.clean 0x00012b88   Section        8  qtorganizer_symbian.in(t._ZN4QMapIiN10QtMobility17QOrganizerManager5ErrorEE13detach_helperEv.clean)
    t._ZN4QMapIiN10QtMobility17QOrganizerManager5ErrorEE6insertERKiRKS2_ 0x00012b90   Section      142  qtorganizer_symbian.in(t._ZN4QMapIiN10QtMobility17QOrganizerManager5ErrorEE6insertERKiRKS2_)
    t._ZN4QMapIiN10QtMobility17QOrganizerManager5ErrorEE8freeDataEP8QMapData 0x00012c1e   Section       22  qtorganizer_symbian.in(t._ZN4QMapIiN10QtMobility17QOrganizerManager5ErrorEE8freeDataEP8QMapData)
    t._ZN4QMapIiN10QtMobility17QOrganizerManager5ErrorEEC1Ev 0x00012c34   Section       24  qtorganizer_symbian.in(t._ZN4QMapIiN10QtMobility17QOrganizerManager5ErrorEEC1Ev)
    t._ZN4QMapIiN10QtMobility17QOrganizerManager5ErrorEED1Ev 0x00012c4c   Section       32  qtorganizer_symbian.in(t._ZN4QMapIiN10QtMobility17QOrganizerManager5ErrorEED1Ev)
    t._ZN4QSetI5QDateElsERKS0_               0x00012c6c   Section      106  qtorganizer_symbian.in(t._ZN4QSetI5QDateElsERKS0_)
    t._ZN4QSetIN10QtMobility16QOrganizerItemIdEElsERKS1_ 0x00012cd6   Section       20  qtorganizer_symbian.in(t._ZN4QSetIN10QtMobility16QOrganizerItemIdEElsERKS1_)
    t._ZN4QSetIN2Qt9DayOfWeekEE14const_iteratorppEv 0x00012cea   Section       16  qtorganizer_symbian.in(t._ZN4QSetIN2Qt9DayOfWeekEE14const_iteratorppEv)
    t._ZN4QSetIN2Qt9DayOfWeekEE6insertERKS1_ 0x00012cfa   Section      114  qtorganizer_symbian.in(t._ZN4QSetIN2Qt9DayOfWeekEE6insertERKS1_)
    t._ZN4QSetIiE14const_iteratorppEv        0x00012d6c   Section       16  qtorganizer_symbian.in(t._ZN4QSetIiE14const_iteratorppEv)
    t._ZN4QSetIiE6insertERKi                 0x00012d7c   Section      102  qtorganizer_symbian.in(t._ZN4QSetIiE6insertERKi)
    t._ZN4QSetIiEC1Ev                        0x00012de4   Section       24  qtorganizer_symbian.in(t._ZN4QSetIiEC1Ev)
    t._ZN4QSetIiElsERKi                      0x00012dfc   Section       18  qtorganizer_symbian.in(t._ZN4QSetIiElsERKi)
    t._ZN5QHashI5QDate15QHashDummyValueE11deleteNode2EPN9QHashData4NodeE 0x00012e0e   Section        2  qtorganizer_symbian.in(t._ZN5QHashI5QDate15QHashDummyValueE11deleteNode2EPN9QHashData4NodeE)
    t._ZN5QHashI5QDate15QHashDummyValueE13duplicateNodeEPN9QHashData4NodeEPv 0x00012e10   Section       20  qtorganizer_symbian.in(t._ZN5QHashI5QDate15QHashDummyValueE13duplicateNodeEPN9QHashData4NodeEPv)
    t._ZN5QHashI5QDate15QHashDummyValueE6detachEv 0x00012e24   Section       68  qtorganizer_symbian.in(t._ZN5QHashI5QDate15QHashDummyValueE6detachEv)
    t._ZN5QHashI5QDate15QHashDummyValueE8freeDataEP9QHashData 0x00012e68   Section       16  qtorganizer_symbian.in(t._ZN5QHashI5QDate15QHashDummyValueE8freeDataEP9QHashData)
    t._ZN5QHashI5QDate15QHashDummyValueED1Ev 0x00012e78   Section       28  qtorganizer_symbian.in(t._ZN5QHashI5QDate15QHashDummyValueED1Ev)
    t._ZN5QHashIN10QtMobility16QOrganizerItemIdE15QHashDummyValueE11deleteNode2EPN9QHashData4NodeE 0x00012e94   Section       10  qtorganizer_symbian.in(t._ZN5QHashIN10QtMobility16QOrganizerItemIdE15QHashDummyValueE11deleteNode2EPN9QHashData4NodeE)
    t._ZN5QHashIN10QtMobility16QOrganizerItemIdE15QHashDummyValueE13duplicateNodeEPN9QHashData4NodeEPv 0x00012e9e   Section       28  qtorganizer_symbian.in(t._ZN5QHashIN10QtMobility16QOrganizerItemIdE15QHashDummyValueE13duplicateNodeEPN9QHashData4NodeEPv)
    t._ZN5QHashIN10QtMobility16QOrganizerItemIdE15QHashDummyValueE13duplicateNodeEPN9QHashData4NodeEPv.clean 0x00012eba   Section       12  qtorganizer_symbian.in(t._ZN5QHashIN10QtMobility16QOrganizerItemIdE15QHashDummyValueE13duplicateNodeEPN9QHashData4NodeEPv.clean)
    t._ZN5QHashIN10QtMobility16QOrganizerItemIdE15QHashDummyValueE6insertERKS1_RKS2_ 0x00012ec8   Section      180  qtorganizer_symbian.in(t._ZN5QHashIN10QtMobility16QOrganizerItemIdE15QHashDummyValueE6insertERKS1_RKS2_)
    t._ZN5QHashIN10QtMobility16QOrganizerItemIdE15QHashDummyValueE6insertERKS1_RKS2_.clean 0x00012f7c   Section       12  qtorganizer_symbian.in(t._ZN5QHashIN10QtMobility16QOrganizerItemIdE15QHashDummyValueE6insertERKS1_RKS2_.clean)
    t._ZN5QHashIN10QtMobility16QOrganizerItemIdE15QHashDummyValueE8freeDataEP9QHashData 0x00012f88   Section       16  qtorganizer_symbian.in(t._ZN5QHashIN10QtMobility16QOrganizerItemIdE15QHashDummyValueE8freeDataEP9QHashData)
    t._ZN5QHashIN10QtMobility16QOrganizerItemIdE15QHashDummyValueED1Ev 0x00012f98   Section       28  qtorganizer_symbian.in(t._ZN5QHashIN10QtMobility16QOrganizerItemIdE15QHashDummyValueED1Ev)
    t._ZN5QHashIN10QtMobility22QOrganizerCollectionIdE15QHashDummyValueE11deleteNode2EPN9QHashData4NodeE 0x00012fb4   Section       10  qtorganizer_symbian.in(t._ZN5QHashIN10QtMobility22QOrganizerCollectionIdE15QHashDummyValueE11deleteNode2EPN9QHashData4NodeE)
    t._ZN5QHashIN10QtMobility22QOrganizerCollectionIdE15QHashDummyValueED1Ev 0x00012fc0   Section       32  qtorganizer_symbian.in(t._ZN5QHashIN10QtMobility22QOrganizerCollectionIdE15QHashDummyValueED1Ev)
    t._ZN5QHashIN10QtMobility24QOrganizerRecurrenceRule5MonthE15QHashDummyValueE11deleteNode2EPN9QHashData4NodeE 0x00012fe0   Section        2  qtorganizer_symbian.in(t._ZN5QHashIN10QtMobility24QOrganizerRecurrenceRule5MonthE15QHashDummyValueE11deleteNode2EPN9QHashData4NodeE)
    t._ZN5QHashIN10QtMobility24QOrganizerRecurrenceRule5MonthE15QHashDummyValueE13duplicateNodeEPN9QHashData4NodeEPv 0x00012fe2   Section       20  qtorganizer_symbian.in(t._ZN5QHashIN10QtMobility24QOrganizerRecurrenceRule5MonthE15QHashDummyValueE13duplicateNodeEPN9QHashData4NodeEPv)
    t._ZN5QHashIN10QtMobility24QOrganizerRecurrenceRule5MonthE15QHashDummyValueE6detachEv 0x00012ff8   Section       68  qtorganizer_symbian.in(t._ZN5QHashIN10QtMobility24QOrganizerRecurrenceRule5MonthE15QHashDummyValueE6detachEv)
    t._ZN5QHashIN10QtMobility24QOrganizerRecurrenceRule5MonthE15QHashDummyValueE8freeDataEP9QHashData 0x0001303c   Section       16  qtorganizer_symbian.in(t._ZN5QHashIN10QtMobility24QOrganizerRecurrenceRule5MonthE15QHashDummyValueE8freeDataEP9QHashData)
    t._ZN5QHashIN10QtMobility24QOrganizerRecurrenceRule5MonthE15QHashDummyValueED1Ev 0x0001304c   Section       28  qtorganizer_symbian.in(t._ZN5QHashIN10QtMobility24QOrganizerRecurrenceRule5MonthE15QHashDummyValueED1Ev)
    t._ZN5QHashIN10QtMobility24QOrganizerRecurrenceRuleE15QHashDummyValueE11deleteNode2EPN9QHashData4NodeE 0x00013068   Section       10  qtorganizer_symbian.in(t._ZN5QHashIN10QtMobility24QOrganizerRecurrenceRuleE15QHashDummyValueE11deleteNode2EPN9QHashData4NodeE)
    t._ZN5QHashIN10QtMobility24QOrganizerRecurrenceRuleE15QHashDummyValueE13duplicateNodeEPN9QHashData4NodeEPv 0x00013072   Section       28  qtorganizer_symbian.in(t._ZN5QHashIN10QtMobility24QOrganizerRecurrenceRuleE15QHashDummyValueE13duplicateNodeEPN9QHashData4NodeEPv)
    t._ZN5QHashIN10QtMobility24QOrganizerRecurrenceRuleE15QHashDummyValueE13duplicateNodeEPN9QHashData4NodeEPv.clean 0x0001308e   Section       12  qtorganizer_symbian.in(t._ZN5QHashIN10QtMobility24QOrganizerRecurrenceRuleE15QHashDummyValueE13duplicateNodeEPN9QHashData4NodeEPv.clean)
    t._ZN5QHashIN10QtMobility24QOrganizerRecurrenceRuleE15QHashDummyValueE6insertERKS1_RKS2_ 0x0001309c   Section      168  qtorganizer_symbian.in(t._ZN5QHashIN10QtMobility24QOrganizerRecurrenceRuleE15QHashDummyValueE6insertERKS1_RKS2_)
    t._ZN5QHashIN10QtMobility24QOrganizerRecurrenceRuleE15QHashDummyValueE6insertERKS1_RKS2_.clean 0x00013144   Section       12  qtorganizer_symbian.in(t._ZN5QHashIN10QtMobility24QOrganizerRecurrenceRuleE15QHashDummyValueE6insertERKS1_RKS2_.clean)
    t._ZN5QHashIN10QtMobility24QOrganizerRecurrenceRuleE15QHashDummyValueE8freeDataEP9QHashData 0x00013150   Section       16  qtorganizer_symbian.in(t._ZN5QHashIN10QtMobility24QOrganizerRecurrenceRuleE15QHashDummyValueE8freeDataEP9QHashData)
    t._ZN5QHashIN10QtMobility24QOrganizerRecurrenceRuleE15QHashDummyValueED1Ev 0x00013160   Section       28  qtorganizer_symbian.in(t._ZN5QHashIN10QtMobility24QOrganizerRecurrenceRuleE15QHashDummyValueED1Ev)
    t._ZN5QHashIN2Qt9DayOfWeekE15QHashDummyValueE11deleteNode2EPN9QHashData4NodeE 0x0001317c   Section        2  qtorganizer_symbian.in(t._ZN5QHashIN2Qt9DayOfWeekE15QHashDummyValueE11deleteNode2EPN9QHashData4NodeE)
    t._ZN5QHashIN2Qt9DayOfWeekE15QHashDummyValueE13duplicateNodeEPN9QHashData4NodeEPv 0x0001317e   Section       20  qtorganizer_symbian.in(t._ZN5QHashIN2Qt9DayOfWeekE15QHashDummyValueE13duplicateNodeEPN9QHashData4NodeEPv)
    t._ZN5QHashIN2Qt9DayOfWeekE15QHashDummyValueE6detachEv 0x00013194   Section       68  qtorganizer_symbian.in(t._ZN5QHashIN2Qt9DayOfWeekE15QHashDummyValueE6detachEv)
    t._ZN5QHashIN2Qt9DayOfWeekE15QHashDummyValueE8freeDataEP9QHashData 0x000131d8   Section       16  qtorganizer_symbian.in(t._ZN5QHashIN2Qt9DayOfWeekE15QHashDummyValueE8freeDataEP9QHashData)
    t._ZN5QHashIN2Qt9DayOfWeekE15QHashDummyValueED1Ev 0x000131e8   Section       28  qtorganizer_symbian.in(t._ZN5QHashIN2Qt9DayOfWeekE15QHashDummyValueED1Ev)
    t._ZN5QHashIi15QHashDummyValueE11deleteNode2EPN9QHashData4NodeE 0x00013204   Section        2  qtorganizer_symbian.in(t._ZN5QHashIi15QHashDummyValueE11deleteNode2EPN9QHashData4NodeE)
    t._ZN5QHashIi15QHashDummyValueE13duplicateNodeEPN9QHashData4NodeEPv 0x00013206   Section       10  qtorganizer_symbian.in(t._ZN5QHashIi15QHashDummyValueE13duplicateNodeEPN9QHashData4NodeEPv)
    t._ZN5QHashIi15QHashDummyValueE6detachEv 0x00013210   Section       68  qtorganizer_symbian.in(t._ZN5QHashIi15QHashDummyValueE6detachEv)
    t._ZN5QHashIi15QHashDummyValueE8freeDataEP9QHashData 0x00013254   Section       16  qtorganizer_symbian.in(t._ZN5QHashIi15QHashDummyValueE8freeDataEP9QHashData)
    t._ZN5QHashIi15QHashDummyValueED1Ev      0x00013264   Section       28  qtorganizer_symbian.in(t._ZN5QHashIi15QHashDummyValueED1Ev)
    t._ZN5QListI26OrganizerSymbianCollectionE13detach_helperEi 0x00013280   Section       86  qtorganizer_symbian.in(t._ZN5QListI26OrganizerSymbianCollectionE13detach_helperEi)
    t._ZN5QListI26OrganizerSymbianCollectionE13detach_helperEi.clean 0x000132d6   Section        8  qtorganizer_symbian.in(t._ZN5QListI26OrganizerSymbianCollectionE13detach_helperEi.clean)
    t._ZN5QListI26OrganizerSymbianCollectionE13node_destructEPNS1_4NodeES3_ 0x000132de   Section       30  qtorganizer_symbian.in(t._ZN5QListI26OrganizerSymbianCollectionE13node_destructEPNS1_4NodeES3_)
    t._ZN5QListI26OrganizerSymbianCollectionE14node_constructEPNS1_4NodeERKS0_ 0x000132fc   Section       32  qtorganizer_symbian.in(t._ZN5QListI26OrganizerSymbianCollectionE14node_constructEPNS1_4NodeERKS0_)
    t._ZN5QListI26OrganizerSymbianCollectionE14node_constructEPNS1_4NodeERKS0_.clean 0x0001331c   Section       10  qtorganizer_symbian.in(t._ZN5QListI26OrganizerSymbianCollectionE14node_constructEPNS1_4NodeERKS0_.clean)
    t._ZN5QListI26OrganizerSymbianCollectionE18detach_helper_growEii 0x00013326   Section      180  qtorganizer_symbian.in(t._ZN5QListI26OrganizerSymbianCollectionE18detach_helper_growEii)
    t._ZN5QListI26OrganizerSymbianCollectionE18detach_helper_growEii.clean 0x000133da   Section        8  qtorganizer_symbian.in(t._ZN5QListI26OrganizerSymbianCollectionE18detach_helper_growEii.clean)
    t._ZN5QListI26OrganizerSymbianCollectionE4freeEPN9QListData4DataE 0x000133e2   Section       44  qtorganizer_symbian.in(t._ZN5QListI26OrganizerSymbianCollectionE4freeEPN9QListData4DataE)
    t._ZN5QListI26OrganizerSymbianCollectionE6appendERKS0_ 0x00013410   Section       96  qtorganizer_symbian.in(t._ZN5QListI26OrganizerSymbianCollectionE6appendERKS0_)
    t._ZN5QListI26OrganizerSymbianCollectionE6appendERKS0_.clean 0x00013470   Section        8  qtorganizer_symbian.in(t._ZN5QListI26OrganizerSymbianCollectionE6appendERKS0_.clean)
    t._ZN5QListI26OrganizerSymbianCollectionE9node_copyEPNS1_4NodeES3_S3_ 0x00013478   Section       80  qtorganizer_symbian.in(t._ZN5QListI26OrganizerSymbianCollectionE9node_copyEPNS1_4NodeES3_S3_)
    t._ZN5QListI26OrganizerSymbianCollectionE9node_copyEPNS1_4NodeES3_S3_.clean 0x000134c8   Section       18  qtorganizer_symbian.in(t._ZN5QListI26OrganizerSymbianCollectionE9node_copyEPNS1_4NodeES3_S3_.clean)
    t._ZN5QListI26OrganizerSymbianCollectionEC1ERKS1_ 0x000134da   Section       32  qtorganizer_symbian.in(t._ZN5QListI26OrganizerSymbianCollectionEC1ERKS1_)
    t._ZN5QListI26OrganizerSymbianCollectionEC1Ev 0x000134fc   Section       20  qtorganizer_symbian.in(t._ZN5QListI26OrganizerSymbianCollectionEC1Ev)
    t._ZN5QListI26OrganizerSymbianCollectionED1Ev 0x00013510   Section       30  qtorganizer_symbian.in(t._ZN5QListI26OrganizerSymbianCollectionED1Ev)
    t._ZN5QListI7QStringE13detach_helperEi   0x0001352e   Section       86  qtorganizer_symbian.in(t._ZN5QListI7QStringE13detach_helperEi)
    t._ZN5QListI7QStringE13detach_helperEi.clean 0x00013584   Section        8  qtorganizer_symbian.in(t._ZN5QListI7QStringE13detach_helperEi.clean)
    t._ZN5QListI7QStringE13detach_helperEv   0x0001358c   Section       12  qtorganizer_symbian.in(t._ZN5QListI7QStringE13detach_helperEv)
    t._ZN5QListI7QStringE14node_constructEPNS1_4NodeERKS0_ 0x00013598   Section       26  qtorganizer_symbian.in(t._ZN5QListI7QStringE14node_constructEPNS1_4NodeERKS0_)
    t._ZN5QListI7QStringE14node_constructEPNS1_4NodeERKS0_.clean 0x000135b2   Section       12  qtorganizer_symbian.in(t._ZN5QListI7QStringE14node_constructEPNS1_4NodeERKS0_.clean)
    t._ZN5QListI7QStringE18detach_helper_growEii 0x000135be   Section      186  qtorganizer_symbian.in(t._ZN5QListI7QStringE18detach_helper_growEii)
    t._ZN5QListI7QStringE18detach_helper_growEii.clean 0x00013678   Section        8  qtorganizer_symbian.in(t._ZN5QListI7QStringE18detach_helper_growEii.clean)
    t._ZN5QListI7QStringE4freeEPN9QListData4DataE 0x00013680   Section       48  qtorganizer_symbian.in(t._ZN5QListI7QStringE4freeEPN9QListData4DataE)
    t._ZN5QListI7QStringE6appendERKS0_       0x000136b0   Section      100  qtorganizer_symbian.in(t._ZN5QListI7QStringE6appendERKS0_)
    t._ZN5QListI7QStringE6appendERKS0_.clean 0x00013714   Section        8  qtorganizer_symbian.in(t._ZN5QListI7QStringE6appendERKS0_.clean)
    t._ZN5QListI7QStringE7reserveEi          0x0001371c   Section       44  qtorganizer_symbian.in(t._ZN5QListI7QStringE7reserveEi)
    t._ZN5QListI7QStringE9node_copyEPNS1_4NodeES3_S3_ 0x00013748   Section       70  qtorganizer_symbian.in(t._ZN5QListI7QStringE9node_copyEPNS1_4NodeES3_S3_)
    t._ZN5QListI7QStringE9node_copyEPNS1_4NodeES3_S3_.clean 0x0001378e   Section       22  qtorganizer_symbian.in(t._ZN5QListI7QStringE9node_copyEPNS1_4NodeES3_S3_.clean)
    t._ZN5QListI7QStringEC1ERKS1_            0x000137a4   Section       30  qtorganizer_symbian.in(t._ZN5QListI7QStringEC1ERKS1_)
    t._ZN5QListI7QStringEC1Ev                0x000137c4   Section       20  qtorganizer_symbian.in(t._ZN5QListI7QStringEC1Ev)
    t._ZN5QListI7QStringED1Ev                0x000137d8   Section       30  qtorganizer_symbian.in(t._ZN5QListI7QStringED1Ev)
    t._ZN5QListI7QStringEixEi                0x000137f6   Section       34  qtorganizer_symbian.in(t._ZN5QListI7QStringEixEi)
    t._ZN5QListI8QVariantED1Ev               0x00013818   Section       74  qtorganizer_symbian.in(t._ZN5QListI8QVariantED1Ev)
    t._ZN5QListIN10QtMobility14QOrganizerItemEE13detach_helperEv 0x00013862   Section       88  qtorganizer_symbian.in(t._ZN5QListIN10QtMobility14QOrganizerItemEE13detach_helperEv)
    t._ZN5QListIN10QtMobility14QOrganizerItemEE13detach_helperEv.clean 0x000138ba   Section        8  qtorganizer_symbian.in(t._ZN5QListIN10QtMobility14QOrganizerItemEE13detach_helperEv.clean)
    t._ZN5QListIN10QtMobility14QOrganizerItemEE14node_constructEPNS2_4NodeERKS1_ 0x000138c2   Section       26  qtorganizer_symbian.in(t._ZN5QListIN10QtMobility14QOrganizerItemEE14node_constructEPNS2_4NodeERKS1_)
    t._ZN5QListIN10QtMobility14QOrganizerItemEE14node_constructEPNS2_4NodeERKS1_.clean 0x000138dc   Section       12  qtorganizer_symbian.in(t._ZN5QListIN10QtMobility14QOrganizerItemEE14node_constructEPNS2_4NodeERKS1_.clean)
    t._ZN5QListIN10QtMobility14QOrganizerItemEE18detach_helper_growEii 0x000138e8   Section      186  qtorganizer_symbian.in(t._ZN5QListIN10QtMobility14QOrganizerItemEE18detach_helper_growEii)
    t._ZN5QListIN10QtMobility14QOrganizerItemEE18detach_helper_growEii.clean 0x000139a2   Section        8  qtorganizer_symbian.in(t._ZN5QListIN10QtMobility14QOrganizerItemEE18detach_helper_growEii.clean)
    t._ZN5QListIN10QtMobility14QOrganizerItemEE4freeEPN9QListData4DataE 0x000139aa   Section       54  qtorganizer_symbian.in(t._ZN5QListIN10QtMobility14QOrganizerItemEE4freeEPN9QListData4DataE)
    t._ZN5QListIN10QtMobility14QOrganizerItemEE6appendERKS1_ 0x000139e0   Section      100  qtorganizer_symbian.in(t._ZN5QListIN10QtMobility14QOrganizerItemEE6appendERKS1_)
    t._ZN5QListIN10QtMobility14QOrganizerItemEE6appendERKS1_.clean 0x00013a44   Section        8  qtorganizer_symbian.in(t._ZN5QListIN10QtMobility14QOrganizerItemEE6appendERKS1_.clean)
    t._ZN5QListIN10QtMobility14QOrganizerItemEE6detachEv 0x00013a4c   Section       24  qtorganizer_symbian.in(t._ZN5QListIN10QtMobility14QOrganizerItemEE6detachEv)
    t._ZN5QListIN10QtMobility14QOrganizerItemEE9node_copyEPNS2_4NodeES4_S4_ 0x00013a64   Section       70  qtorganizer_symbian.in(t._ZN5QListIN10QtMobility14QOrganizerItemEE9node_copyEPNS2_4NodeES4_S4_)
    t._ZN5QListIN10QtMobility14QOrganizerItemEE9node_copyEPNS2_4NodeES4_S4_.clean 0x00013aaa   Section       22  qtorganizer_symbian.in(t._ZN5QListIN10QtMobility14QOrganizerItemEE9node_copyEPNS2_4NodeES4_S4_.clean)
    t._ZN5QListIN10QtMobility14QOrganizerItemEEC1ERKS2_ 0x00013ac0   Section       30  qtorganizer_symbian.in(t._ZN5QListIN10QtMobility14QOrganizerItemEEC1ERKS2_)
    t._ZN5QListIN10QtMobility14QOrganizerItemEEC1Ev 0x00013ae0   Section       20  qtorganizer_symbian.in(t._ZN5QListIN10QtMobility14QOrganizerItemEEC1Ev)
    t._ZN5QListIN10QtMobility14QOrganizerItemEED1Ev 0x00013af4   Section       30  qtorganizer_symbian.in(t._ZN5QListIN10QtMobility14QOrganizerItemEED1Ev)
    t._ZN5QListIN10QtMobility14QOrganizerItemEEaSERKS2_ 0x00013b12   Section       54  qtorganizer_symbian.in(t._ZN5QListIN10QtMobility14QOrganizerItemEEaSERKS2_)
    t._ZN5QListIN10QtMobility14QOrganizerItemEEixEi 0x00013b48   Section       20  qtorganizer_symbian.in(t._ZN5QListIN10QtMobility14QOrganizerItemEEixEi)
    t._ZN5QListIN10QtMobility14QOrganizerItemEEpLERKS2_ 0x00013b5c   Section      136  qtorganizer_symbian.in(t._ZN5QListIN10QtMobility14QOrganizerItemEEpLERKS2_)
    t._ZN5QListIN10QtMobility14QOrganizerItemEEpLERKS2_.clean 0x00013be4   Section        8  qtorganizer_symbian.in(t._ZN5QListIN10QtMobility14QOrganizerItemEEpLERKS2_.clean)
    t._ZN5QListIN10QtMobility16QOrganizerItemIdEE13detach_helperEi 0x00013bec   Section       86  qtorganizer_symbian.in(t._ZN5QListIN10QtMobility16QOrganizerItemIdEE13detach_helperEi)
    t._ZN5QListIN10QtMobility16QOrganizerItemIdEE13detach_helperEi.clean 0x00013c42   Section        8  qtorganizer_symbian.in(t._ZN5QListIN10QtMobility16QOrganizerItemIdEE13detach_helperEi.clean)
    t._ZN5QListIN10QtMobility16QOrganizerItemIdEE13detach_helperEv 0x00013c4a   Section       12  qtorganizer_symbian.in(t._ZN5QListIN10QtMobility16QOrganizerItemIdEE13detach_helperEv)
    t._ZN5QListIN10QtMobility16QOrganizerItemIdEE14node_constructEPNS2_4NodeERKS1_ 0x00013c56   Section       26  qtorganizer_symbian.in(t._ZN5QListIN10QtMobility16QOrganizerItemIdEE14node_constructEPNS2_4NodeERKS1_)
    t._ZN5QListIN10QtMobility16QOrganizerItemIdEE14node_constructEPNS2_4NodeERKS1_.clean 0x00013c70   Section       12  qtorganizer_symbian.in(t._ZN5QListIN10QtMobility16QOrganizerItemIdEE14node_constructEPNS2_4NodeERKS1_.clean)
    t._ZN5QListIN10QtMobility16QOrganizerItemIdEE18detach_helper_growEii 0x00013c7c   Section      186  qtorganizer_symbian.in(t._ZN5QListIN10QtMobility16QOrganizerItemIdEE18detach_helper_growEii)
    t._ZN5QListIN10QtMobility16QOrganizerItemIdEE18detach_helper_growEii.clean 0x00013d36   Section        8  qtorganizer_symbian.in(t._ZN5QListIN10QtMobility16QOrganizerItemIdEE18detach_helper_growEii.clean)
    t._ZN5QListIN10QtMobility16QOrganizerItemIdEE4freeEPN9QListData4DataE 0x00013d3e   Section       54  qtorganizer_symbian.in(t._ZN5QListIN10QtMobility16QOrganizerItemIdEE4freeEPN9QListData4DataE)
    t._ZN5QListIN10QtMobility16QOrganizerItemIdEE6appendERKS1_ 0x00013d74   Section      100  qtorganizer_symbian.in(t._ZN5QListIN10QtMobility16QOrganizerItemIdEE6appendERKS1_)
    t._ZN5QListIN10QtMobility16QOrganizerItemIdEE6appendERKS1_.clean 0x00013dd8   Section        8  qtorganizer_symbian.in(t._ZN5QListIN10QtMobility16QOrganizerItemIdEE6appendERKS1_.clean)
    t._ZN5QListIN10QtMobility16QOrganizerItemIdEE9node_copyEPNS2_4NodeES4_S4_ 0x00013de0   Section       70  qtorganizer_symbian.in(t._ZN5QListIN10QtMobility16QOrganizerItemIdEE9node_copyEPNS2_4NodeES4_S4_)
    t._ZN5QListIN10QtMobility16QOrganizerItemIdEE9node_copyEPNS2_4NodeES4_S4_.clean 0x00013e26   Section       22  qtorganizer_symbian.in(t._ZN5QListIN10QtMobility16QOrganizerItemIdEE9node_copyEPNS2_4NodeES4_S4_.clean)
    t._ZN5QListIN10QtMobility16QOrganizerItemIdEEC1ERKS2_ 0x00013e3c   Section       30  qtorganizer_symbian.in(t._ZN5QListIN10QtMobility16QOrganizerItemIdEEC1ERKS2_)
    t._ZN5QListIN10QtMobility16QOrganizerItemIdEEC1Ev 0x00013e5c   Section       20  qtorganizer_symbian.in(t._ZN5QListIN10QtMobility16QOrganizerItemIdEEC1Ev)
    t._ZN5QListIN10QtMobility16QOrganizerItemIdEED1Ev 0x00013e70   Section       30  qtorganizer_symbian.in(t._ZN5QListIN10QtMobility16QOrganizerItemIdEED1Ev)
    t._ZN5QListIN10QtMobility16QOrganizerItemIdEEaSERKS2_ 0x00013e8e   Section       56  qtorganizer_symbian.in(t._ZN5QListIN10QtMobility16QOrganizerItemIdEEaSERKS2_)
    t._ZN5QListIN10QtMobility17QOrganizerManager5ErrorEE13node_destructEPNS3_4NodeES5_ 0x00013ec6   Section       22  qtorganizer_symbian.in(t._ZN5QListIN10QtMobility17QOrganizerManager5ErrorEE13node_destructEPNS3_4NodeES5_)
    t._ZN5QListIN10QtMobility17QOrganizerManager5ErrorEE14node_constructEPNS3_4NodeERKS2_ 0x00013edc   Section       28  qtorganizer_symbian.in(t._ZN5QListIN10QtMobility17QOrganizerManager5ErrorEE14node_constructEPNS3_4NodeERKS2_)
    t._ZN5QListIN10QtMobility17QOrganizerManager5ErrorEE18detach_helper_growEii 0x00013ef8   Section      180  qtorganizer_symbian.in(t._ZN5QListIN10QtMobility17QOrganizerManager5ErrorEE18detach_helper_growEii)
    t._ZN5QListIN10QtMobility17QOrganizerManager5ErrorEE18detach_helper_growEii.clean 0x00013fac   Section        8  qtorganizer_symbian.in(t._ZN5QListIN10QtMobility17QOrganizerManager5ErrorEE18detach_helper_growEii.clean)
    t._ZN5QListIN10QtMobility17QOrganizerManager5ErrorEE4freeEPN9QListData4DataE 0x00013fb4   Section       44  qtorganizer_symbian.in(t._ZN5QListIN10QtMobility17QOrganizerManager5ErrorEE4freeEPN9QListData4DataE)
    t._ZN5QListIN10QtMobility17QOrganizerManager5ErrorEE6appendERKS2_ 0x00013fe0   Section       96  qtorganizer_symbian.in(t._ZN5QListIN10QtMobility17QOrganizerManager5ErrorEE6appendERKS2_)
    t._ZN5QListIN10QtMobility17QOrganizerManager5ErrorEE6appendERKS2_.clean 0x00014040   Section        8  qtorganizer_symbian.in(t._ZN5QListIN10QtMobility17QOrganizerManager5ErrorEE6appendERKS2_.clean)
    t._ZN5QListIN10QtMobility17QOrganizerManager5ErrorEE7reserveEi 0x00014048   Section      116  qtorganizer_symbian.in(t._ZN5QListIN10QtMobility17QOrganizerManager5ErrorEE7reserveEi)
    t._ZN5QListIN10QtMobility17QOrganizerManager5ErrorEE7reserveEi.clean 0x000140bc   Section        8  qtorganizer_symbian.in(t._ZN5QListIN10QtMobility17QOrganizerManager5ErrorEE7reserveEi.clean)
    t._ZN5QListIN10QtMobility17QOrganizerManager5ErrorEE9node_copyEPNS3_4NodeES5_S5_ 0x000140c4   Section       40  qtorganizer_symbian.in(t._ZN5QListIN10QtMobility17QOrganizerManager5ErrorEE9node_copyEPNS3_4NodeES5_S5_)
    t._ZN5QListIN10QtMobility17QOrganizerManager5ErrorEED1Ev 0x000140ec   Section       30  qtorganizer_symbian.in(t._ZN5QListIN10QtMobility17QOrganizerManager5ErrorEED1Ev)
    t._ZN5QListIN10QtMobility20QOrganizerCollectionEE13detach_helperEi 0x0001410a   Section      142  qtorganizer_symbian.in(t._ZN5QListIN10QtMobility20QOrganizerCollectionEE13detach_helperEi)
    t._ZN5QListIN10QtMobility20QOrganizerCollectionEE13detach_helperEi.clean 0x00014198   Section       20  qtorganizer_symbian.in(t._ZN5QListIN10QtMobility20QOrganizerCollectionEE13detach_helperEi.clean)
    t._ZN5QListIN10QtMobility20QOrganizerCollectionEE13detach_helperEv 0x000141ac   Section       88  qtorganizer_symbian.in(t._ZN5QListIN10QtMobility20QOrganizerCollectionEE13detach_helperEv)
    t._ZN5QListIN10QtMobility20QOrganizerCollectionEE13detach_helperEv.clean 0x00014204   Section        8  qtorganizer_symbian.in(t._ZN5QListIN10QtMobility20QOrganizerCollectionEE13detach_helperEv.clean)
    t._ZN5QListIN10QtMobility20QOrganizerCollectionEE14node_constructEPNS2_4NodeERKS1_ 0x0001420c   Section       26  qtorganizer_symbian.in(t._ZN5QListIN10QtMobility20QOrganizerCollectionEE14node_constructEPNS2_4NodeERKS1_)
    t._ZN5QListIN10QtMobility20QOrganizerCollectionEE14node_constructEPNS2_4NodeERKS1_.clean 0x00014226   Section       12  qtorganizer_symbian.in(t._ZN5QListIN10QtMobility20QOrganizerCollectionEE14node_constructEPNS2_4NodeERKS1_.clean)
    t._ZN5QListIN10QtMobility20QOrganizerCollectionEE18detach_helper_growEii 0x00014232   Section      186  qtorganizer_symbian.in(t._ZN5QListIN10QtMobility20QOrganizerCollectionEE18detach_helper_growEii)
    t._ZN5QListIN10QtMobility20QOrganizerCollectionEE18detach_helper_growEii.clean 0x000142ec   Section        8  qtorganizer_symbian.in(t._ZN5QListIN10QtMobility20QOrganizerCollectionEE18detach_helper_growEii.clean)
    t._ZN5QListIN10QtMobility20QOrganizerCollectionEE4freeEPN9QListData4DataE 0x000142f4   Section       54  qtorganizer_symbian.in(t._ZN5QListIN10QtMobility20QOrganizerCollectionEE4freeEPN9QListData4DataE)
    t._ZN5QListIN10QtMobility20QOrganizerCollectionEE6appendERKS1_ 0x0001432c   Section      100  qtorganizer_symbian.in(t._ZN5QListIN10QtMobility20QOrganizerCollectionEE6appendERKS1_)
    t._ZN5QListIN10QtMobility20QOrganizerCollectionEE6appendERKS1_.clean 0x00014390   Section        8  qtorganizer_symbian.in(t._ZN5QListIN10QtMobility20QOrganizerCollectionEE6appendERKS1_.clean)
    t._ZN5QListIN10QtMobility20QOrganizerCollectionEE9node_copyEPNS2_4NodeES4_S4_ 0x00014398   Section       70  qtorganizer_symbian.in(t._ZN5QListIN10QtMobility20QOrganizerCollectionEE9node_copyEPNS2_4NodeES4_S4_)
    t._ZN5QListIN10QtMobility20QOrganizerCollectionEE9node_copyEPNS2_4NodeES4_S4_.clean 0x000143de   Section       22  qtorganizer_symbian.in(t._ZN5QListIN10QtMobility20QOrganizerCollectionEE9node_copyEPNS2_4NodeES4_S4_.clean)
    t._ZN5QListIN10QtMobility20QOrganizerCollectionEEC1Ev 0x000143f4   Section       20  qtorganizer_symbian.in(t._ZN5QListIN10QtMobility20QOrganizerCollectionEEC1Ev)
    t._ZN5QListIN10QtMobility20QOrganizerCollectionEED1Ev 0x00014408   Section       30  qtorganizer_symbian.in(t._ZN5QListIN10QtMobility20QOrganizerCollectionEED1Ev)
    t._ZN5QListIN10QtMobility20QOrganizerItemFilterEE13detach_helperEv 0x00014426   Section       88  qtorganizer_symbian.in(t._ZN5QListIN10QtMobility20QOrganizerItemFilterEE13detach_helperEv)
    t._ZN5QListIN10QtMobility20QOrganizerItemFilterEE13detach_helperEv.clean 0x0001447e   Section        8  qtorganizer_symbian.in(t._ZN5QListIN10QtMobility20QOrganizerItemFilterEE13detach_helperEv.clean)
    t._ZN5QListIN10QtMobility20QOrganizerItemFilterEE14node_constructEPNS2_4NodeERKS1_ 0x00014486   Section       26  qtorganizer_symbian.in(t._ZN5QListIN10QtMobility20QOrganizerItemFilterEE14node_constructEPNS2_4NodeERKS1_)
    t._ZN5QListIN10QtMobility20QOrganizerItemFilterEE14node_constructEPNS2_4NodeERKS1_.clean 0x000144a0   Section       12  qtorganizer_symbian.in(t._ZN5QListIN10QtMobility20QOrganizerItemFilterEE14node_constructEPNS2_4NodeERKS1_.clean)
    t._ZN5QListIN10QtMobility20QOrganizerItemFilterEE18detach_helper_growEii 0x000144ac   Section      186  qtorganizer_symbian.in(t._ZN5QListIN10QtMobility20QOrganizerItemFilterEE18detach_helper_growEii)
    t._ZN5QListIN10QtMobility20QOrganizerItemFilterEE18detach_helper_growEii.clean 0x00014566   Section        8  qtorganizer_symbian.in(t._ZN5QListIN10QtMobility20QOrganizerItemFilterEE18detach_helper_growEii.clean)
    t._ZN5QListIN10QtMobility20QOrganizerItemFilterEE4freeEPN9QListData4DataE 0x0001456e   Section       54  qtorganizer_symbian.in(t._ZN5QListIN10QtMobility20QOrganizerItemFilterEE4freeEPN9QListData4DataE)
    t._ZN5QListIN10QtMobility20QOrganizerItemFilterEE6appendERKS1_ 0x000145a4   Section      100  qtorganizer_symbian.in(t._ZN5QListIN10QtMobility20QOrganizerItemFilterEE6appendERKS1_)
    t._ZN5QListIN10QtMobility20QOrganizerItemFilterEE6appendERKS1_.clean 0x00014608   Section        8  qtorganizer_symbian.in(t._ZN5QListIN10QtMobility20QOrganizerItemFilterEE6appendERKS1_.clean)
    t._ZN5QListIN10QtMobility20QOrganizerItemFilterEE9node_copyEPNS2_4NodeES4_S4_ 0x00014610   Section       70  qtorganizer_symbian.in(t._ZN5QListIN10QtMobility20QOrganizerItemFilterEE9node_copyEPNS2_4NodeES4_S4_)
    t._ZN5QListIN10QtMobility20QOrganizerItemFilterEE9node_copyEPNS2_4NodeES4_S4_.clean 0x00014656   Section       22  qtorganizer_symbian.in(t._ZN5QListIN10QtMobility20QOrganizerItemFilterEE9node_copyEPNS2_4NodeES4_S4_.clean)
    t._ZN5QListIN10QtMobility20QOrganizerItemFilterEED1Ev 0x0001466c   Section       30  qtorganizer_symbian.in(t._ZN5QListIN10QtMobility20QOrganizerItemFilterEED1Ev)
    t._ZN5QListIN10QtMobility22QOrganizerCollectionIdEE13detach_helperEi 0x0001468a   Section       86  qtorganizer_symbian.in(t._ZN5QListIN10QtMobility22QOrganizerCollectionIdEE13detach_helperEi)
    t._ZN5QListIN10QtMobility22QOrganizerCollectionIdEE13detach_helperEi.clean 0x000146e0   Section        8  qtorganizer_symbian.in(t._ZN5QListIN10QtMobility22QOrganizerCollectionIdEE13detach_helperEi.clean)
    t._ZN5QListIN10QtMobility22QOrganizerCollectionIdEE13detach_helperEv 0x000146e8   Section       12  qtorganizer_symbian.in(t._ZN5QListIN10QtMobility22QOrganizerCollectionIdEE13detach_helperEv)
    t._ZN5QListIN10QtMobility22QOrganizerCollectionIdEE14node_constructEPNS2_4NodeERKS1_ 0x000146f4   Section       26  qtorganizer_symbian.in(t._ZN5QListIN10QtMobility22QOrganizerCollectionIdEE14node_constructEPNS2_4NodeERKS1_)
    t._ZN5QListIN10QtMobility22QOrganizerCollectionIdEE14node_constructEPNS2_4NodeERKS1_.clean 0x0001470e   Section       12  qtorganizer_symbian.in(t._ZN5QListIN10QtMobility22QOrganizerCollectionIdEE14node_constructEPNS2_4NodeERKS1_.clean)
    t._ZN5QListIN10QtMobility22QOrganizerCollectionIdEE18detach_helper_growEii 0x0001471a   Section      186  qtorganizer_symbian.in(t._ZN5QListIN10QtMobility22QOrganizerCollectionIdEE18detach_helper_growEii)
    t._ZN5QListIN10QtMobility22QOrganizerCollectionIdEE18detach_helper_growEii.clean 0x000147d4   Section        8  qtorganizer_symbian.in(t._ZN5QListIN10QtMobility22QOrganizerCollectionIdEE18detach_helper_growEii.clean)
    t._ZN5QListIN10QtMobility22QOrganizerCollectionIdEE4freeEPN9QListData4DataE 0x000147dc   Section       54  qtorganizer_symbian.in(t._ZN5QListIN10QtMobility22QOrganizerCollectionIdEE4freeEPN9QListData4DataE)
    t._ZN5QListIN10QtMobility22QOrganizerCollectionIdEE6appendERKS1_ 0x00014814   Section      100  qtorganizer_symbian.in(t._ZN5QListIN10QtMobility22QOrganizerCollectionIdEE6appendERKS1_)
    t._ZN5QListIN10QtMobility22QOrganizerCollectionIdEE6appendERKS1_.clean 0x00014878   Section        8  qtorganizer_symbian.in(t._ZN5QListIN10QtMobility22QOrganizerCollectionIdEE6appendERKS1_.clean)
    t._ZN5QListIN10QtMobility22QOrganizerCollectionIdEE7reserveEi 0x00014880   Section       44  qtorganizer_symbian.in(t._ZN5QListIN10QtMobility22QOrganizerCollectionIdEE7reserveEi)
    t._ZN5QListIN10QtMobility22QOrganizerCollectionIdEE9node_copyEPNS2_4NodeES4_S4_ 0x000148ac   Section       70  qtorganizer_symbian.in(t._ZN5QListIN10QtMobility22QOrganizerCollectionIdEE9node_copyEPNS2_4NodeES4_S4_)
    t._ZN5QListIN10QtMobility22QOrganizerCollectionIdEE9node_copyEPNS2_4NodeES4_S4_.clean 0x000148f2   Section       22  qtorganizer_symbian.in(t._ZN5QListIN10QtMobility22QOrganizerCollectionIdEE9node_copyEPNS2_4NodeES4_S4_.clean)
    t._ZN5QListIN10QtMobility22QOrganizerCollectionIdEEC1Ev 0x00014908   Section       20  qtorganizer_symbian.in(t._ZN5QListIN10QtMobility22QOrganizerCollectionIdEEC1Ev)
    t._ZN5QListIN10QtMobility22QOrganizerCollectionIdEED1Ev 0x0001491c   Section       30  qtorganizer_symbian.in(t._ZN5QListIN10QtMobility22QOrganizerCollectionIdEED1Ev)
    t._ZN5QListIN10QtMobility22QOrganizerCollectionIdEEpLERKS2_ 0x0001493c   Section      172  qtorganizer_symbian.in(t._ZN5QListIN10QtMobility22QOrganizerCollectionIdEEpLERKS2_)
    t._ZN5QListIN10QtMobility22QOrganizerCollectionIdEEpLERKS2_.clean 0x000149e8   Section        8  qtorganizer_symbian.in(t._ZN5QListIN10QtMobility22QOrganizerCollectionIdEEpLERKS2_.clean)
    t._ZN5QListIN10QtMobility23QOrganizerItemSortOrderEED1Ev 0x000149f0   Section       72  qtorganizer_symbian.in(t._ZN5QListIN10QtMobility23QOrganizerItemSortOrderEED1Ev)
    t._ZN5QListIN10QtMobility24QOrganizerRecurrenceRuleEE13detach_helperEi 0x00014a38   Section       86  qtorganizer_symbian.in(t._ZN5QListIN10QtMobility24QOrganizerRecurrenceRuleEE13detach_helperEi)
    t._ZN5QListIN10QtMobility24QOrganizerRecurrenceRuleEE13detach_helperEi.clean 0x00014a8e   Section        8  qtorganizer_symbian.in(t._ZN5QListIN10QtMobility24QOrganizerRecurrenceRuleEE13detach_helperEi.clean)
    t._ZN5QListIN10QtMobility24QOrganizerRecurrenceRuleEE14node_constructEPNS2_4NodeERKS1_ 0x00014a96   Section       26  qtorganizer_symbian.in(t._ZN5QListIN10QtMobility24QOrganizerRecurrenceRuleEE14node_constructEPNS2_4NodeERKS1_)
    t._ZN5QListIN10QtMobility24QOrganizerRecurrenceRuleEE14node_constructEPNS2_4NodeERKS1_.clean 0x00014ab0   Section       12  qtorganizer_symbian.in(t._ZN5QListIN10QtMobility24QOrganizerRecurrenceRuleEE14node_constructEPNS2_4NodeERKS1_.clean)
    t._ZN5QListIN10QtMobility24QOrganizerRecurrenceRuleEE18detach_helper_growEii 0x00014abc   Section      186  qtorganizer_symbian.in(t._ZN5QListIN10QtMobility24QOrganizerRecurrenceRuleEE18detach_helper_growEii)
    t._ZN5QListIN10QtMobility24QOrganizerRecurrenceRuleEE18detach_helper_growEii.clean 0x00014b76   Section        8  qtorganizer_symbian.in(t._ZN5QListIN10QtMobility24QOrganizerRecurrenceRuleEE18detach_helper_growEii.clean)
    t._ZN5QListIN10QtMobility24QOrganizerRecurrenceRuleEE4freeEPN9QListData4DataE 0x00014b7e   Section       48  qtorganizer_symbian.in(t._ZN5QListIN10QtMobility24QOrganizerRecurrenceRuleEE4freeEPN9QListData4DataE)
    t._ZN5QListIN10QtMobility24QOrganizerRecurrenceRuleEE6appendERKS1_ 0x00014bb0   Section      100  qtorganizer_symbian.in(t._ZN5QListIN10QtMobility24QOrganizerRecurrenceRuleEE6appendERKS1_)
    t._ZN5QListIN10QtMobility24QOrganizerRecurrenceRuleEE6appendERKS1_.clean 0x00014c14   Section        8  qtorganizer_symbian.in(t._ZN5QListIN10QtMobility24QOrganizerRecurrenceRuleEE6appendERKS1_.clean)
    t._ZN5QListIN10QtMobility24QOrganizerRecurrenceRuleEE9node_copyEPNS2_4NodeES4_S4_ 0x00014c1c   Section       70  qtorganizer_symbian.in(t._ZN5QListIN10QtMobility24QOrganizerRecurrenceRuleEE9node_copyEPNS2_4NodeES4_S4_)
    t._ZN5QListIN10QtMobility24QOrganizerRecurrenceRuleEE9node_copyEPNS2_4NodeES4_S4_.clean 0x00014c62   Section       22  qtorganizer_symbian.in(t._ZN5QListIN10QtMobility24QOrganizerRecurrenceRuleEE9node_copyEPNS2_4NodeES4_S4_.clean)
    t._ZN5QListIN10QtMobility24QOrganizerRecurrenceRuleEED1Ev 0x00014c78   Section       30  qtorganizer_symbian.in(t._ZN5QListIN10QtMobility24QOrganizerRecurrenceRuleEED1Ev)
    t._ZN5QListIN10QtMobility30QOrganizerItemDetailDefinitionEED1Ev 0x00014c96   Section       72  qtorganizer_symbian.in(t._ZN5QListIN10QtMobility30QOrganizerItemDetailDefinitionEED1Ev)
    t._ZN5QListIP28OrganizerItemDetailTransformE13detach_helperEv 0x00014cde   Section       88  qtorganizer_symbian.in(t._ZN5QListIP28OrganizerItemDetailTransformE13detach_helperEv)
    t._ZN5QListIP28OrganizerItemDetailTransformE13detach_helperEv.clean 0x00014d36   Section        8  qtorganizer_symbian.in(t._ZN5QListIP28OrganizerItemDetailTransformE13detach_helperEv.clean)
    t._ZN5QListIP28OrganizerItemDetailTransformE18detach_helper_growEii 0x00014d3e   Section      164  qtorganizer_symbian.in(t._ZN5QListIP28OrganizerItemDetailTransformE18detach_helper_growEii)
    t._ZN5QListIP28OrganizerItemDetailTransformE18detach_helper_growEii.clean 0x00014de2   Section        8  qtorganizer_symbian.in(t._ZN5QListIP28OrganizerItemDetailTransformE18detach_helper_growEii.clean)
    t._ZN5QListIP28OrganizerItemDetailTransformE4freeEPN9QListData4DataE 0x00014dea   Section       16  qtorganizer_symbian.in(t._ZN5QListIP28OrganizerItemDetailTransformE4freeEPN9QListData4DataE)
    t._ZN5QListIP28OrganizerItemDetailTransformE6appendERKS1_ 0x00014dfc   Section       60  qtorganizer_symbian.in(t._ZN5QListIP28OrganizerItemDetailTransformE6appendERKS1_)
    t._ZN5QListIP28OrganizerItemDetailTransformE6appendERKS1_.clean 0x00014e38   Section       10  qtorganizer_symbian.in(t._ZN5QListIP28OrganizerItemDetailTransformE6appendERKS1_.clean)
    t._ZN5QListIP28OrganizerItemDetailTransformE9node_copyEPNS2_4NodeES4_S4_ 0x00014e42   Section       28  qtorganizer_symbian.in(t._ZN5QListIP28OrganizerItemDetailTransformE9node_copyEPNS2_4NodeES4_S4_)
    t._ZN5QListIP28OrganizerItemDetailTransformED1Ev 0x00014e5e   Section       30  qtorganizer_symbian.in(t._ZN5QListIP28OrganizerItemDetailTransformED1Ev)
    t._ZN5QListIPN10QtMobility25QOrganizerAbstractRequestEE18detach_helper_growEii 0x00014e7c   Section      164  qtorganizer_symbian.in(t._ZN5QListIPN10QtMobility25QOrganizerAbstractRequestEE18detach_helper_growEii)
    t._ZN5QListIPN10QtMobility25QOrganizerAbstractRequestEE18detach_helper_growEii.clean 0x00014f20   Section        8  qtorganizer_symbian.in(t._ZN5QListIPN10QtMobility25QOrganizerAbstractRequestEE18detach_helper_growEii.clean)
    t._ZN5QListIPN10QtMobility25QOrganizerAbstractRequestEE4freeEPN9QListData4DataE 0x00014f28   Section       16  qtorganizer_symbian.in(t._ZN5QListIPN10QtMobility25QOrganizerAbstractRequestEE4freeEPN9QListData4DataE)
    t._ZN5QListIPN10QtMobility25QOrganizerAbstractRequestEE7reserveEi 0x00014f38   Section      116  qtorganizer_symbian.in(t._ZN5QListIPN10QtMobility25QOrganizerAbstractRequestEE7reserveEi)
    t._ZN5QListIPN10QtMobility25QOrganizerAbstractRequestEE7reserveEi.clean 0x00014fac   Section        8  qtorganizer_symbian.in(t._ZN5QListIPN10QtMobility25QOrganizerAbstractRequestEE7reserveEi.clean)
    t._ZN5QListIPN10QtMobility25QOrganizerAbstractRequestEE9node_copyEPNS3_4NodeES5_S5_ 0x00014fb4   Section       28  qtorganizer_symbian.in(t._ZN5QListIPN10QtMobility25QOrganizerAbstractRequestEE9node_copyEPNS3_4NodeES5_S5_)
    t._ZN5QListIPN10QtMobility25QOrganizerAbstractRequestEED1Ev 0x00014fd0   Section       30  qtorganizer_symbian.in(t._ZN5QListIPN10QtMobility25QOrganizerAbstractRequestEED1Ev)
    t._ZN5QListIiE13detach_helperEi          0x00014fee   Section       86  qtorganizer_symbian.in(t._ZN5QListIiE13detach_helperEi)
    t._ZN5QListIiE13detach_helperEi.clean    0x00015044   Section        8  qtorganizer_symbian.in(t._ZN5QListIiE13detach_helperEi.clean)
    t._ZN5QListIiE18detach_helper_growEii    0x0001504c   Section      164  qtorganizer_symbian.in(t._ZN5QListIiE18detach_helper_growEii)
    t._ZN5QListIiE18detach_helper_growEii.clean 0x000150f0   Section        8  qtorganizer_symbian.in(t._ZN5QListIiE18detach_helper_growEii.clean)
    t._ZN5QListIiE4freeEPN9QListData4DataE   0x000150f8   Section       24  qtorganizer_symbian.in(t._ZN5QListIiE4freeEPN9QListData4DataE)
    t._ZN5QListIiE9node_copyEPNS0_4NodeES2_S2_ 0x00015110   Section       28  qtorganizer_symbian.in(t._ZN5QListIiE9node_copyEPNS0_4NodeES2_S2_)
    t._ZN5QListIiED1Ev                       0x0001512c   Section       30  qtorganizer_symbian.in(t._ZN5QListIiED1Ev)
    t._ZN5QListIiElsERKi                     0x0001514c   Section       60  qtorganizer_symbian.in(t._ZN5QListIiElsERKi)
    t._ZN5QListIiElsERKi.clean               0x00015188   Section       10  qtorganizer_symbian.in(t._ZN5QListIiElsERKi.clean)
    t._ZN6RArrayI4TDayE7AppendLERKS0_        0x00015192   Section       12  qtorganizer_symbian.in(t._ZN6RArrayI4TDayE7AppendLERKS0_)
    t._ZN6RArrayI8TCalTimeEC1Ev              0x0001519e   Section       10  qtorganizer_symbian.in(t._ZN6RArrayI8TCalTimeEC1Ev)
    t._ZN8QPointerI7QObjectED1Ev             0x000151a8   Section       12  qtorganizer_symbian.in(t._ZN8QPointerI7QObjectED1Ev)
    t._ZNK10QtMobility14QOrganizerItem6detailINS_20QOrganizerItemParentEEET_v 0x000151b4   Section       36  qtorganizer_symbian.in(t._ZNK10QtMobility14QOrganizerItem6detailINS_20QOrganizerItemParentEEET_v)
    t._ZNK10QtMobility14QOrganizerItem6detailINS_20QOrganizerItemParentEEET_v.clean 0x000151d8   Section       10  qtorganizer_symbian.in(t._ZNK10QtMobility14QOrganizerItem6detailINS_20QOrganizerItemParentEEET_v.clean)
    t._ZNK10QtMobility14QOrganizerItem6detailINS_23QOrganizerItemTimestampEEET_v 0x000151e4   Section       36  qtorganizer_symbian.in(t._ZNK10QtMobility14QOrganizerItem6detailINS_23QOrganizerItemTimestampEEET_v)
    t._ZNK10QtMobility14QOrganizerItem6detailINS_23QOrganizerItemTimestampEEET_v.clean 0x00015208   Section       10  qtorganizer_symbian.in(t._ZNK10QtMobility14QOrganizerItem6detailINS_23QOrganizerItemTimestampEEET_v.clean)
    t._ZNK10QtMobility15QLatin1ConstantILi9EEcv7QStringEv 0x00015212   Section       10  qtorganizer_symbian.in(t._ZNK10QtMobility15QLatin1ConstantILi9EEcv7QStringEv)
    t._ZNK10QtMobility20QOrganizerItemDetail5valueI9QDateTimeEET_PKc 0x0001521c   Section       98  qtorganizer_symbian.in(t._ZNK10QtMobility20QOrganizerItemDetail5valueI9QDateTimeEET_PKc)
    t._ZNK10QtMobility20QOrganizerItemDetail5valueI9QDateTimeEET_PKc.clean 0x0001527e   Section       18  qtorganizer_symbian.in(t._ZNK10QtMobility20QOrganizerItemDetail5valueI9QDateTimeEET_PKc.clean)
    t._ZNK17QForeachContainerI4QSetIN2Qt9DayOfWeekEEE9conditionEv 0x00015290   Section       26  qtorganizer_symbian.in(t._ZNK17QForeachContainerI4QSetIN2Qt9DayOfWeekEEE9conditionEv)
    t._ZNK17QForeachContainerI4QSetIiEE9conditionEv 0x000152aa   Section       26  qtorganizer_symbian.in(t._ZNK17QForeachContainerI4QSetIiEE9conditionEv)
    t._ZNK17QForeachContainerI5QListI26OrganizerSymbianCollectionEE9conditionEv 0x000152c4   Section       26  qtorganizer_symbian.in(t._ZNK17QForeachContainerI5QListI26OrganizerSymbianCollectionEE9conditionEv)
    t._ZNK17QForeachContainerI5QListI7QStringEE9conditionEv 0x000152de   Section       26  qtorganizer_symbian.in(t._ZNK17QForeachContainerI5QListI7QStringEE9conditionEv)
    t._ZNK17QForeachContainerI5QListIN10QtMobility14QOrganizerItemEEE9conditionEv 0x000152f8   Section       26  qtorganizer_symbian.in(t._ZNK17QForeachContainerI5QListIN10QtMobility14QOrganizerItemEEE9conditionEv)
    t._ZNK17QForeachContainerI5QListIN10QtMobility16QOrganizerItemIdEEE9conditionEv 0x00015312   Section       26  qtorganizer_symbian.in(t._ZNK17QForeachContainerI5QListIN10QtMobility16QOrganizerItemIdEEE9conditionEv)
    t._ZNK17QForeachContainerI5QListIN10QtMobility22QOrganizerCollectionIdEEE9conditionEv 0x0001532c   Section       26  qtorganizer_symbian.in(t._ZNK17QForeachContainerI5QListIN10QtMobility22QOrganizerCollectionIdEEE9conditionEv)
    t._ZNK17QForeachContainerI5QListIP28OrganizerItemDetailTransformEE9conditionEv 0x00015346   Section       26  qtorganizer_symbian.in(t._ZNK17QForeachContainerI5QListIP28OrganizerItemDetailTransformEE9conditionEv)
    t._ZNK4QMapI7QString8QVariantE8containsERKS0_ 0x00015360   Section       90  qtorganizer_symbian.in(t._ZNK4QMapI7QString8QVariantE8containsERKS0_)
    t._ZNK4QMapI7QStringN10QtMobility30QOrganizerItemDetailDefinitionEE4keysEv 0x000153ba   Section       50  qtorganizer_symbian.in(t._ZNK4QMapI7QStringN10QtMobility30QOrganizerItemDetailDefinitionEE4keysEv)
    t._ZNK4QMapI7QStringN10QtMobility30QOrganizerItemDetailDefinitionEE4keysEv.clean 0x000153ec   Section       10  qtorganizer_symbian.in(t._ZNK4QMapI7QStringN10QtMobility30QOrganizerItemDetailDefinitionEE4keysEv.clean)
    t._ZNK4QMapI7QStringN10QtMobility30QOrganizerItemDetailDefinitionEE8findNodeERKS0_ 0x000153f6   Section       82  qtorganizer_symbian.in(t._ZNK4QMapI7QStringN10QtMobility30QOrganizerItemDetailDefinitionEE8findNodeERKS0_)
    t._ZNK4QMapI7QStringN10QtMobility35QOrganizerItemDetailFieldDefinitionEE4keysEv 0x00015448   Section       50  qtorganizer_symbian.in(t._ZNK4QMapI7QStringN10QtMobility35QOrganizerItemDetailFieldDefinitionEE4keysEv)
    t._ZNK4QMapI7QStringN10QtMobility35QOrganizerItemDetailFieldDefinitionEE4keysEv.clean 0x0001547a   Section       10  qtorganizer_symbian.in(t._ZNK4QMapI7QStringN10QtMobility35QOrganizerItemDetailFieldDefinitionEE4keysEv.clean)
    t._ZNK4QMapI7QStringS_IS0_N10QtMobility30QOrganizerItemDetailDefinitionEEE4keysEv 0x00015484   Section       50  qtorganizer_symbian.in(t._ZNK4QMapI7QStringS_IS0_N10QtMobility30QOrganizerItemDetailDefinitionEEE4keysEv)
    t._ZNK4QMapI7QStringS_IS0_N10QtMobility30QOrganizerItemDetailDefinitionEEE4keysEv.clean 0x000154b6   Section       10  qtorganizer_symbian.in(t._ZNK4QMapI7QStringS_IS0_N10QtMobility30QOrganizerItemDetailDefinitionEEE4keysEv.clean)
    t._ZNK4QMapI7QStringS_IS0_N10QtMobility30QOrganizerItemDetailDefinitionEEE5valueERKS0_ 0x000154c0   Section      108  qtorganizer_symbian.in(t._ZNK4QMapI7QStringS_IS0_N10QtMobility30QOrganizerItemDetailDefinitionEEE5valueERKS0_)
    t._ZNK4QMapI7QStringS_IS0_N10QtMobility30QOrganizerItemDetailDefinitionEEE7isEmptyEv 0x0001552c   Section       16  qtorganizer_symbian.in(t._ZNK4QMapI7QStringS_IS0_N10QtMobility30QOrganizerItemDetailDefinitionEEE7isEmptyEv)
    t._ZNK4QMapI7QStringS_IS0_N10QtMobility30QOrganizerItemDetailDefinitionEEE8findNodeERKS0_ 0x0001553c   Section       82  qtorganizer_symbian.in(t._ZNK4QMapI7QStringS_IS0_N10QtMobility30QOrganizerItemDetailDefinitionEEE8findNodeERKS0_)
    t._ZNK4QMapIN10QtMobility22QOrganizerCollectionIdE26OrganizerSymbianCollectionE15mutableFindNodeEPPN8QMapData4NodeERKS1_ 0x0001558e   Section       86  qtorganizer_symbian.in(t._ZNK4QMapIN10QtMobility22QOrganizerCollectionIdE26OrganizerSymbianCollectionE15mutableFindNodeEPPN8QMapData4NodeERKS1_)
    t._ZNK4QMapIN10QtMobility22QOrganizerCollectionIdE26OrganizerSymbianCollectionE4keysEv 0x000155e4   Section       50  qtorganizer_symbian.in(t._ZNK4QMapIN10QtMobility22QOrganizerCollectionIdE26OrganizerSymbianCollectionE4keysEv)
    t._ZNK4QMapIN10QtMobility22QOrganizerCollectionIdE26OrganizerSymbianCollectionE4keysEv.clean 0x00015616   Section       10  qtorganizer_symbian.in(t._ZNK4QMapIN10QtMobility22QOrganizerCollectionIdE26OrganizerSymbianCollectionE4keysEv.clean)
    t._ZNK4QMapIN10QtMobility22QOrganizerCollectionIdE26OrganizerSymbianCollectionE6valuesEv 0x00015620   Section       78  qtorganizer_symbian.in(t._ZNK4QMapIN10QtMobility22QOrganizerCollectionIdE26OrganizerSymbianCollectionE6valuesEv)
    t._ZNK4QMapIN10QtMobility22QOrganizerCollectionIdE26OrganizerSymbianCollectionE6valuesEv.clean 0x0001566e   Section       10  qtorganizer_symbian.in(t._ZNK4QMapIN10QtMobility22QOrganizerCollectionIdE26OrganizerSymbianCollectionE6valuesEv.clean)
    t._ZNK4QMapIN10QtMobility22QOrganizerCollectionIdE26OrganizerSymbianCollectionE8containsERKS1_ 0x00015678   Section       22  qtorganizer_symbian.in(t._ZNK4QMapIN10QtMobility22QOrganizerCollectionIdE26OrganizerSymbianCollectionE8containsERKS1_)
    t._ZNK4QMapIN10QtMobility22QOrganizerCollectionIdE26OrganizerSymbianCollectionE8findNodeERKS1_ 0x0001568e   Section       82  qtorganizer_symbian.in(t._ZNK4QMapIN10QtMobility22QOrganizerCollectionIdE26OrganizerSymbianCollectionE8findNodeERKS1_)
    t._ZNK4QMapIN10QtMobility22QOrganizerCollectionIdE26OrganizerSymbianCollectionEixERKS1_ 0x000156e0   Section       46  qtorganizer_symbian.in(t._ZNK4QMapIN10QtMobility22QOrganizerCollectionIdE26OrganizerSymbianCollectionEixERKS1_)
    t._ZNK4QMapIPN10QtMobility25QOrganizerAbstractRequestEP37COrganizerItemRequestsServiceProviderE15mutableFindNodeEPPN8QMapData4NodeERKS2_ 0x0001570e   Section       86  qtorganizer_symbian.in(t._ZNK4QMapIPN10QtMobility25QOrganizerAbstractRequestEP37COrganizerItemRequestsServiceProviderE15mutableFindNodeEPPN8QMapData4NodeERKS2_)
    t._ZNK4QMapIPN10QtMobility25QOrganizerAbstractRequestEP37COrganizerItemRequestsServiceProviderE4keysEv 0x00015764   Section      108  qtorganizer_symbian.in(t._ZNK4QMapIPN10QtMobility25QOrganizerAbstractRequestEP37COrganizerItemRequestsServiceProviderE4keysEv)
    t._ZNK4QMapIPN10QtMobility25QOrganizerAbstractRequestEP37COrganizerItemRequestsServiceProviderE4keysEv.clean 0x000157d0   Section       16  qtorganizer_symbian.in(t._ZNK4QMapIPN10QtMobility25QOrganizerAbstractRequestEP37COrganizerItemRequestsServiceProviderE4keysEv.clean)
    t._ZNK4QMapIiN10QtMobility17QOrganizerManager5ErrorEE4keysEv 0x000157e0   Section      140  qtorganizer_symbian.in(t._ZNK4QMapIiN10QtMobility17QOrganizerManager5ErrorEE4keysEv)
    t._ZNK4QMapIiN10QtMobility17QOrganizerManager5ErrorEE4keysEv.clean 0x0001586c   Section       16  qtorganizer_symbian.in(t._ZNK4QMapIiN10QtMobility17QOrganizerManager5ErrorEE4keysEv.clean)
    t._ZNK4QMapIiN10QtMobility17QOrganizerManager5ErrorEE6valuesEv 0x0001587c   Section       56  qtorganizer_symbian.in(t._ZNK4QMapIiN10QtMobility17QOrganizerManager5ErrorEE6valuesEv)
    t._ZNK4QMapIiN10QtMobility17QOrganizerManager5ErrorEE6valuesEv.clean 0x000158b4   Section       10  qtorganizer_symbian.in(t._ZNK4QMapIiN10QtMobility17QOrganizerManager5ErrorEE6valuesEv.clean)
    t._ZNK4QSetIN10QtMobility16QOrganizerItemIdEE6toListEv 0x000158be   Section       90  qtorganizer_symbian.in(t._ZNK4QSetIN10QtMobility16QOrganizerItemIdEE6toListEv)
    t._ZNK4QSetIN10QtMobility16QOrganizerItemIdEE6toListEv.clean 0x00015918   Section       10  qtorganizer_symbian.in(t._ZNK4QSetIN10QtMobility16QOrganizerItemIdEE6toListEv.clean)
    t._ZNK4QSetIN10QtMobility22QOrganizerCollectionIdEE6toListEv 0x00015922   Section       60  qtorganizer_symbian.in(t._ZNK4QSetIN10QtMobility22QOrganizerCollectionIdEE6toListEv)
    t._ZNK4QSetIN10QtMobility22QOrganizerCollectionIdEE6toListEv.clean 0x0001595e   Section       10  qtorganizer_symbian.in(t._ZNK4QSetIN10QtMobility22QOrganizerCollectionIdEE6toListEv.clean)
    t._ZNK4QSetIN10QtMobility24QOrganizerRecurrenceRuleEE6toListEv 0x00015968   Section      100  qtorganizer_symbian.in(t._ZNK4QSetIN10QtMobility24QOrganizerRecurrenceRuleEE6toListEv)
    t._ZNK4QSetIN10QtMobility24QOrganizerRecurrenceRuleEE6toListEv.clean 0x000159cc   Section       10  qtorganizer_symbian.in(t._ZNK4QSetIN10QtMobility24QOrganizerRecurrenceRuleEE6toListEv.clean)
    t._ZNK4QSetIN2Qt9DayOfWeekEE7isEmptyEv   0x000159d6   Section       16  qtorganizer_symbian.in(t._ZNK4QSetIN2Qt9DayOfWeekEE7isEmptyEv)
    t._ZNK4QSetIiE7isEmptyEv                 0x000159e6   Section       16  qtorganizer_symbian.in(t._ZNK4QSetIiE7isEmptyEv)
    t._ZNK5QHashI5QDate15QHashDummyValueE8findNodeERKS0_Pj 0x000159f6   Section       56  qtorganizer_symbian.in(t._ZNK5QHashI5QDate15QHashDummyValueE8findNodeERKS0_Pj)
    t._ZNK5QHashIN10QtMobility16QOrganizerItemIdE15QHashDummyValueE8findNodeERKS1_Pj 0x00015a2e   Section       90  qtorganizer_symbian.in(t._ZNK5QHashIN10QtMobility16QOrganizerItemIdE15QHashDummyValueE8findNodeERKS1_Pj)
    t._ZNK5QHashIN10QtMobility24QOrganizerRecurrenceRule5MonthE15QHashDummyValueE8findNodeERKS2_Pj 0x00015a88   Section       62  qtorganizer_symbian.in(t._ZNK5QHashIN10QtMobility24QOrganizerRecurrenceRule5MonthE15QHashDummyValueE8findNodeERKS2_Pj)
    t._ZNK5QHashIN10QtMobility24QOrganizerRecurrenceRuleE15QHashDummyValueE8findNodeERKS1_Pj 0x00015ac6   Section       90  qtorganizer_symbian.in(t._ZNK5QHashIN10QtMobility24QOrganizerRecurrenceRuleE15QHashDummyValueE8findNodeERKS1_Pj)
    t._ZNK5QHashIN2Qt9DayOfWeekE15QHashDummyValueE8findNodeERKS1_Pj 0x00015b20   Section       62  qtorganizer_symbian.in(t._ZNK5QHashIN2Qt9DayOfWeekE15QHashDummyValueE8findNodeERKS1_Pj)
    t._ZNK5QHashIi15QHashDummyValueE8findNodeERKiPj 0x00015b5e   Section       50  qtorganizer_symbian.in(t._ZNK5QHashIi15QHashDummyValueE8findNodeERKiPj)
    t._ZNK5QListIN10QtMobility14QOrganizerItemEE7isEmptyEv 0x00015b90   Section       18  qtorganizer_symbian.in(t._ZNK5QListIN10QtMobility14QOrganizerItemEE7isEmptyEv)
    t._ZNK5QListIN10QtMobility16QOrganizerItemIdEE2atEi 0x00015ba2   Section        8  qtorganizer_symbian.in(t._ZNK5QListIN10QtMobility16QOrganizerItemIdEE2atEi)
    t._ZNK5QListIN10QtMobility16QOrganizerItemIdEE5countEv 0x00015baa   Section        8  qtorganizer_symbian.in(t._ZNK5QListIN10QtMobility16QOrganizerItemIdEE5countEv)
    t._ZNK5QListIN10QtMobility22QOrganizerCollectionIdEE7isEmptyEv 0x00015bb2   Section       18  qtorganizer_symbian.in(t._ZNK5QListIN10QtMobility22QOrganizerCollectionIdEE7isEmptyEv)
    .extab._ZN28QOrganizerItemSymbianFactoryD1Ev 0x00015bc4   Data           0  qtorganizer_symbian.in(.ARM.extab)
    .extab._ZN26QOrganizerItemRequestQueueC1ER27QOrganizerItemSymbianEngine 0x00015bd4   Data           0  qtorganizer_symbian.in(.ARM.extab)
    .extab._ZN26QOrganizerItemRequestQueue8instanceER27QOrganizerItemSymbianEngine 0x00015be4   Data           0  qtorganizer_symbian.in(.ARM.extab)
    .extab._ZN26QOrganizerItemRequestQueueD1Ev 0x00015bf4   Data           0  qtorganizer_symbian.in(.ARM.extab)
    .extab._ZN26QOrganizerItemRequestQueue12startRequestEPN10QtMobility25QOrganizerAbstractRequestE 0x00015c24   Data           0  qtorganizer_symbian.in(.ARM.extab)
    .extab._ZN26QOrganizerItemRequestQueue22waitForRequestFinishedEPN10QtMobility25QOrganizerAbstractRequestEi 0x00015c4c   Data           0  qtorganizer_symbian.in(.ARM.extab)
    .extab._ZN4QMapIPN10QtMobility25QOrganizerAbstractRequestEP37COrganizerItemRequestsServiceProviderE13detach_helperEv 0x00015c64   Data           0  qtorganizer_symbian.in(.ARM.extab)
    .extab._ZN5QListIPN10QtMobility25QOrganizerAbstractRequestEE18detach_helper_growEii 0x00015c80   Data           0  qtorganizer_symbian.in(.ARM.extab)
    .extab._ZNK4QMapIPN10QtMobility25QOrganizerAbstractRequestEP37COrganizerItemRequestsServiceProviderE4keysEv 0x00015cb0   Data           0  qtorganizer_symbian.in(.ARM.extab)
    .extab._ZN5QListIPN10QtMobility25QOrganizerAbstractRequestEE7reserveEi 0x00015cdc   Data           0  qtorganizer_symbian.in(.ARM.extab)
    .extab._ZN37COrganizerItemRequestsServiceProviderC1ER27QOrganizerItemSymbianEngine 0x00015cf8   Data           0  qtorganizer_symbian.in(.ARM.extab)
    .extab._ZN37COrganizerItemRequestsServiceProviderD1Ev 0x00015d18   Data           0  qtorganizer_symbian.in(.ARM.extab)
    .extab._ZN37COrganizerItemRequestsServiceProvider5ResetEv 0x00015d38   Data           0  qtorganizer_symbian.in(.ARM.extab)
    .extab._ZN37COrganizerItemRequestsServiceProvider12StartRequestEPN10QtMobility25QOrganizerAbstractRequestE 0x00015d50   Data           0  qtorganizer_symbian.in(.ARM.extab)
    .extab._ZN37COrganizerItemRequestsServiceProvider15SaveCollectionsEv 0x00015da0   Data           0  qtorganizer_symbian.in(.ARM.extab)
    .extab._ZN37COrganizerItemRequestsServiceProvider17RemoveCollectionsEv 0x00015dc0   Data           0  qtorganizer_symbian.in(.ARM.extab)
    .extab._ZN37COrganizerItemRequestsServiceProvider16FetchCollectionsEv 0x00015de0   Data           0  qtorganizer_symbian.in(.ARM.extab)
    .extab._ZN37COrganizerItemRequestsServiceProvider21FetchDetailDefinitionEv 0x00015df0   Data           0  qtorganizer_symbian.in(.ARM.extab)
    .extab._ZN37COrganizerItemRequestsServiceProvider8SaveItemEv 0x00015e90   Data           0  qtorganizer_symbian.in(.ARM.extab)
    .extab._ZN37COrganizerItemRequestsServiceProvider10RemoveItemEv 0x00015ef8   Data           0  qtorganizer_symbian.in(.ARM.extab)
    .extab._ZN37COrganizerItemRequestsServiceProvider12FetchItemIdsEv 0x00015f18   Data           0  qtorganizer_symbian.in(.ARM.extab)
    .extab._ZN37COrganizerItemRequestsServiceProvider19FetchItemsandFilterEv 0x00015f60   Data           0  qtorganizer_symbian.in(.ARM.extab)
    .extab._ZN37COrganizerItemRequestsServiceProvider15FetchItemsByIdsEv 0x00015fc8   Data           0  qtorganizer_symbian.in(.ARM.extab)
    .extab._ZN37COrganizerItemRequestsServiceProvider19FetchItemsForExportEv 0x00016030   Data           0  qtorganizer_symbian.in(.ARM.extab)
    .extab._ZN37COrganizerItemRequestsServiceProvider10FetchItemsEv 0x00016098   Data           0  qtorganizer_symbian.in(.ARM.extab)
    .extab._ZN5QListIiE13detach_helperEi     0x000160f0   Data           0  qtorganizer_symbian.in(.ARM.extab)
    .extab._ZN4QMapIiN10QtMobility17QOrganizerManager5ErrorEE13detach_helperEv 0x0001610c   Data           0  qtorganizer_symbian.in(.ARM.extab)
    .extab._ZN4QMapI7QStringN10QtMobility30QOrganizerItemDetailDefinitionEE11node_createEP8QMapDataPPNS4_4NodeERKS0_RKS2_ 0x00016128   Data           0  qtorganizer_symbian.in(.ARM.extab)
    .extab._ZN4QMapI7QStringN10QtMobility30QOrganizerItemDetailDefinitionEE13detach_helperEv 0x00016174   Data           0  qtorganizer_symbian.in(.ARM.extab)
    .extab._ZN5QListIN10QtMobility14QOrganizerItemEE9node_copyEPNS2_4NodeES4_S4_ 0x00016190   Data           0  qtorganizer_symbian.in(.ARM.extab)
    .extab._ZN5QListIN10QtMobility14QOrganizerItemEE13detach_helperEv 0x000161b4   Data           0  qtorganizer_symbian.in(.ARM.extab)
    .extab._ZN5QListIiE18detach_helper_growEii 0x000161d0   Data           0  qtorganizer_symbian.in(.ARM.extab)
    .extab._ZNK4QMapIiN10QtMobility17QOrganizerManager5ErrorEE4keysEv 0x00016200   Data           0  qtorganizer_symbian.in(.ARM.extab)
    .extab._ZN5QListIN10QtMobility17QOrganizerManager5ErrorEE18detach_helper_growEii 0x0001622c   Data           0  qtorganizer_symbian.in(.ARM.extab)
    .extab._ZNK4QMapIiN10QtMobility17QOrganizerManager5ErrorEE6valuesEv 0x0001625c   Data           0  qtorganizer_symbian.in(.ARM.extab)
    .extab._ZN5QListIN10QtMobility14QOrganizerItemEE18detach_helper_growEii 0x0001626c   Data           0  qtorganizer_symbian.in(.ARM.extab)
    .extab._ZN5QListIN10QtMobility14QOrganizerItemEE6appendERKS1_ 0x0001629c   Data           0  qtorganizer_symbian.in(.ARM.extab)
    .extab._ZN5QListIN10QtMobility20QOrganizerCollectionEE13detach_helperEi 0x000162cc   Data           0  qtorganizer_symbian.in(.ARM.extab)
    .extab._ZN5QListIN10QtMobility17QOrganizerManager5ErrorEE6appendERKS2_ 0x00016310   Data           0  qtorganizer_symbian.in(.ARM.extab)
    .extab._ZN5QListIN10QtMobility17QOrganizerManager5ErrorEE7reserveEi 0x00016340   Data           0  qtorganizer_symbian.in(.ARM.extab)
    .extab._ZN5QListIN10QtMobility14QOrganizerItemEEpLERKS2_ 0x0001635c   Data           0  qtorganizer_symbian.in(.ARM.extab)
    .extab._ZN5QListIN10QtMobility14QOrganizerItemEE14node_constructEPNS2_4NodeERKS1_ 0x00016378   Data           0  qtorganizer_symbian.in(.ARM.extab)
    .extab.qt_plugin_instance                0x00016388   Data           0  qtorganizer_symbian.in(.ARM.extab)
    .extab._ZNK35QOrganizerCollectionSymbianEngineId10managerUriEv 0x000163a0   Data           0  qtorganizer_symbian.in(.ARM.extab)
    .extab._ZNK35QOrganizerCollectionSymbianEngineId5cloneEv 0x000163b8   Data           0  qtorganizer_symbian.in(.ARM.extab)
    .extab._ZNK29QOrganizerItemSymbianEngineId10managerUriEv 0x000163c8   Data           0  qtorganizer_symbian.in(.ARM.extab)
    .extab._ZNK29QOrganizerItemSymbianEngineId5cloneEv 0x000163e0   Data           0  qtorganizer_symbian.in(.ARM.extab)
    .extab._ZNK29QOrganizerItemSymbianEngineId8toStringEv 0x000163f0   Data           0  qtorganizer_symbian.in(.ARM.extab)
    .extab._ZN27QOrganizerItemSymbianEngine11initializeLEv 0x00016410   Data           0  qtorganizer_symbian.in(.ARM.extab)
    .extab._ZN27QOrganizerItemSymbianEngineC1Ev 0x00016420   Data           0  qtorganizer_symbian.in(.ARM.extab)
    .extab._ZN28QOrganizerItemSymbianFactory6engineERK4QMapI7QStringS1_EPN10QtMobility17QOrganizerManager5ErrorE 0x00016448   Data           0  qtorganizer_symbian.in(.ARM.extab)
    .extab._ZNK28QOrganizerItemSymbianFactory18createItemEngineIdERK4QMapI7QStringS1_ERKS1_ 0x00016478   Data           0  qtorganizer_symbian.in(.ARM.extab)
    .extab._ZNK28QOrganizerItemSymbianFactory24createCollectionEngineIdERK4QMapI7QStringS1_ERKS1_ 0x000164b0   Data           0  qtorganizer_symbian.in(.ARM.extab)
    .extab._ZN27QOrganizerItemSymbianEngineD1Ev 0x000164c0   Data           0  qtorganizer_symbian.in(.ARM.extab)
    .extab._ZNK27QOrganizerItemSymbianEngine10entryViewLERKN10QtMobility22QOrganizerCollectionIdE 0x000164f0   Data           0  qtorganizer_symbian.in(.ARM.extab)
    .extab._ZNK27QOrganizerItemSymbianEngine17findParentEntryLCERKN10QtMobility22QOrganizerCollectionIdERKNS0_14QOrganizerItemERK6TDesC8 0x00016520   Data           0  qtorganizer_symbian.in(.ARM.extab)
    .extab._ZNK27QOrganizerItemSymbianEngine18toItemOccurrencesLERK13RPointerArrayI12CCalInstanceEN10QtMobility14QOrganizerItemEiNS5_22QOrganizerCollectionIdER5QListIS6_E 0x00016580   Data           0  qtorganizer_symbian.in(.ARM.extab)
    .extab._ZNK27QOrganizerItemSymbianEngine16itemOccurrencesLERKN10QtMobility16QOrganizerItemIdERK9QDateTimeS6_iRKNS0_23QOrganizerItemFetchHintE 0x00016610   Data           0  qtorganizer_symbian.in(.ARM.extab)
    .extab._ZNK27QOrganizerItemSymbianEngine15itemOccurrencesERKN10QtMobility14QOrganizerItemERK9QDateTimeS6_iRKNS0_23QOrganizerItemFetchHintEPNS0_17QOrganizerManager5ErrorE 0x00016698   Data           0  qtorganizer_symbian.in(.ARM.extab)
    .extab._ZNK27QOrganizerItemSymbianEngine15slowFilterItemsERK5QListIN10QtMobility14QOrganizerItemEERKNS1_20QOrganizerItemFilterERKS0_INS1_23QOrganizerItemSortOrderEE 0x000166e0   Data           0  qtorganizer_symbian.in(.ARM.extab)
    .extab._ZNK27QOrganizerItemSymbianEngine27filteredSymbianCollectionsLERKN10QtMobility20QOrganizerItemFilterE 0x00016700   Data           0  qtorganizer_symbian.in(.ARM.extab)
    .extab._ZNK27QOrganizerItemSymbianEngine16itemOccurrencesLERK9QDateTimeS2_RKN10QtMobility20QOrganizerItemFilterERK5QListINS3_23QOrganizerItemSortOrderEERKNS3_23QOrganizerItemFetchHintE 0x000167c0   Data           0  qtorganizer_symbian.in(.ARM.extab)
    .extab._ZNK27QOrganizerItemSymbianEngine5itemsERK9QDateTimeS2_RKN10QtMobility20QOrganizerItemFilterERK5QListINS3_23QOrganizerItemSortOrderEERKNS3_23QOrganizerItemFetchHintEPNS3_17QOrganizerManager5ErrorE 0x00016820   Data           0  qtorganizer_symbian.in(.ARM.extab)
    .extab._ZNK27QOrganizerItemSymbianEngine5itemLERKN10QtMobility16QOrganizerItemIdERKNS0_23QOrganizerItemFetchHintE 0x00016858   Data           0  qtorganizer_symbian.in(.ARM.extab)
    .extab._ZNK27QOrganizerItemSymbianEngine14slowFilterIdsLERK5QListIN10QtMobility16QOrganizerItemIdEERKNS1_20QOrganizerItemFilterERKS0_INS1_23QOrganizerItemSortOrderEE 0x00016908   Data           0  qtorganizer_symbian.in(.ARM.extab)
    .extab._ZNK27QOrganizerItemSymbianEngine8itemIdsLERK5QListI26OrganizerSymbianCollectionERK9QDateTimeS7_ 0x00016978   Data           0  qtorganizer_symbian.in(.ARM.extab)
    .extab._ZNK27QOrganizerItemSymbianEngine8itemIdsLERK9QDateTimeS2_RKN10QtMobility20QOrganizerItemFilterERK5QListINS3_23QOrganizerItemSortOrderEE 0x000169c8   Data           0  qtorganizer_symbian.in(.ARM.extab)
    .extab._ZNK27QOrganizerItemSymbianEngine7itemIdsERK9QDateTimeS2_RKN10QtMobility20QOrganizerItemFilterERK5QListINS3_23QOrganizerItemSortOrderEEPNS3_17QOrganizerManager5ErrorE 0x000169e8   Data           0  qtorganizer_symbian.in(.ARM.extab)
    .extab._ZNK27QOrganizerItemSymbianEngine21slowFilterIdsToItemsLERK5QListIN10QtMobility16QOrganizerItemIdEERKNS1_20QOrganizerItemFilterERKS0_INS1_23QOrganizerItemSortOrderEE 0x00016a20   Data           0  qtorganizer_symbian.in(.ARM.extab)
    .extab._ZNK27QOrganizerItemSymbianEngine15itemsForExportLERK9QDateTimeS2_RKN10QtMobility20QOrganizerItemFilterERK5QListINS3_23QOrganizerItemSortOrderEE 0x00016a60   Data           0  qtorganizer_symbian.in(.ARM.extab)
    .extab._ZNK27QOrganizerItemSymbianEngine14itemsForExportERK9QDateTimeS2_RKN10QtMobility20QOrganizerItemFilterERK5QListINS3_23QOrganizerItemSortOrderEERKNS3_23QOrganizerItemFetchHintEPNS3_17QOrganizerManager5ErrorE 0x00016a80   Data           0  qtorganizer_symbian.in(.ARM.extab)
    .extab._ZNK27QOrganizerItemSymbianEngine4itemERKN10QtMobility16QOrganizerItemIdERKNS0_23QOrganizerItemFetchHintEPNS0_17QOrganizerManager5ErrorE 0x00016ab8   Data           0  qtorganizer_symbian.in(.ARM.extab)
    .extab._ZNK27QOrganizerItemSymbianEngine10findEntryLERKN10QtMobility22QOrganizerCollectionIdERKNS0_16QOrganizerItemIdE7QString 0x00016af0   Data           0  qtorganizer_symbian.in(.ARM.extab)
    .extab._ZNK27QOrganizerItemSymbianEngine13entryForItemLERKN10QtMobility22QOrganizerCollectionIdERKNS0_14QOrganizerItemERb 0x00016b00   Data           0  qtorganizer_symbian.in(.ARM.extab)
    .extab._ZNK27QOrganizerItemSymbianEngine23entryForItemOccurrenceLERKN10QtMobility22QOrganizerCollectionIdERKNS0_14QOrganizerItemERb 0x00016b30   Data           0  qtorganizer_symbian.in(.ARM.extab)
    .extab._ZN27QOrganizerItemSymbianEngine9saveItemLEPN10QtMobility14QOrganizerItemEPNS0_23QOrganizerItemChangeSetE 0x00016bb8   Data           0  qtorganizer_symbian.in(.ARM.extab)
    .extab._ZN27QOrganizerItemSymbianEngine8saveItemEPN10QtMobility14QOrganizerItemEPNS0_17QOrganizerManager5ErrorE 0x00016c70   Data           0  qtorganizer_symbian.in(.ARM.extab)
    .extab._ZN27QOrganizerItemSymbianEngine9saveItemsEP5QListIN10QtMobility14QOrganizerItemEEP4QMapIiNS1_17QOrganizerManager5ErrorEEPS7_ 0x00016ca0   Data           0  qtorganizer_symbian.in(.ARM.extab)
    .extab._ZN27QOrganizerItemSymbianEngine11removeItemLERKN10QtMobility16QOrganizerItemIdE 0x00016ce8   Data           0  qtorganizer_symbian.in(.ARM.extab)
    .extab._ZN27QOrganizerItemSymbianEngine10removeItemERKN10QtMobility16QOrganizerItemIdEPNS0_17QOrganizerManager5ErrorE 0x00016d10   Data           0  qtorganizer_symbian.in(.ARM.extab)
    .extab._ZN27QOrganizerItemSymbianEngine11removeItemsERK5QListIN10QtMobility16QOrganizerItemIdEEP4QMapIiNS1_17QOrganizerManager5ErrorEEPS8_ 0x00016d40   Data           0  qtorganizer_symbian.in(.ARM.extab)
    .extab._ZNK27QOrganizerItemSymbianEngine10collectionERKN10QtMobility22QOrganizerCollectionIdEPNS0_17QOrganizerManager5ErrorE 0x00016d70   Data           0  qtorganizer_symbian.in(.ARM.extab)
    .extab._ZNK27QOrganizerItemSymbianEngine12collectionsLEv 0x00016d80   Data           0  qtorganizer_symbian.in(.ARM.extab)
    .extab._ZNK27QOrganizerItemSymbianEngine11collectionsEPN10QtMobility17QOrganizerManager5ErrorE 0x00016dd0   Data           0  qtorganizer_symbian.in(.ARM.extab)
    .extab._ZN27QOrganizerItemSymbianEngine14saveCollectionEPN10QtMobility20QOrganizerCollectionEPNS0_17QOrganizerManager5ErrorE 0x00016e08   Data           0  qtorganizer_symbian.in(.ARM.extab)
    .extab._ZN27QOrganizerItemSymbianEngine16removeCollectionERKN10QtMobility22QOrganizerCollectionIdEPNS0_17QOrganizerManager5ErrorE 0x00016e50   Data           0  qtorganizer_symbian.in(.ARM.extab)
    .extab._ZNK27QOrganizerItemSymbianEngine14compatibleItemERKN10QtMobility14QOrganizerItemEPNS0_17QOrganizerManager5ErrorE 0x00016e80   Data           0  qtorganizer_symbian.in(.ARM.extab)
    .extab._ZNK27QOrganizerItemSymbianEngine25isCollectionNameAvailableE7QString 0x00016eb8   Data           0  qtorganizer_symbian.in(.ARM.extab)
    .extab._ZNK27QOrganizerItemSymbianEngine20compatibleCollectionERKN10QtMobility20QOrganizerCollectionEPNS0_17QOrganizerManager5ErrorE 0x00016ef8   Data           0  qtorganizer_symbian.in(.ARM.extab)
    .extab._ZNK27QOrganizerItemSymbianEngine17detailDefinitionsERK7QStringPN10QtMobility17QOrganizerManager5ErrorE 0x00016fe0   Data           0  qtorganizer_symbian.in(.ARM.extab)
    .extab._ZNK27QOrganizerItemSymbianEngine18supportedDataTypesEv 0x00016ff0   Data           0  qtorganizer_symbian.in(.ARM.extab)
    .extab._ZNK27QOrganizerItemSymbianEngine18supportedItemTypesEv 0x00017000   Data           0  qtorganizer_symbian.in(.ARM.extab)
    .extab._ZNK27QOrganizerItemSymbianEngine13instanceViewLERKN10QtMobility22QOrganizerCollectionIdE 0x00017018   Data           0  qtorganizer_symbian.in(.ARM.extab)
    .extab._Z24qMetaTypeConstructHelperIN10QtMobility16QOrganizerItemIdEEPvPKT_ 0x00017048   Data           0  qtorganizer_symbian.in(.ARM.extab)
    .extab._ZN5QListI26OrganizerSymbianCollectionE9node_copyEPNS1_4NodeES3_S3_ 0x00017060   Data           0  qtorganizer_symbian.in(.ARM.extab)
    .extab._ZN5QListI26OrganizerSymbianCollectionE13detach_helperEi 0x00017084   Data           0  qtorganizer_symbian.in(.ARM.extab)
    .extab._Z20qForeachContainerNewI5QListI26OrganizerSymbianCollectionEE17QForeachContainerIT_ERKS4_ 0x000170a0   Data           0  qtorganizer_symbian.in(.ARM.extab)
    .extab._ZN5QListIN10QtMobility16QOrganizerItemIdEE9node_copyEPNS2_4NodeES4_S4_ 0x000170b0   Data           0  qtorganizer_symbian.in(.ARM.extab)
    .extab._ZN5QListIN10QtMobility16QOrganizerItemIdEE13detach_helperEi 0x000170d4   Data           0  qtorganizer_symbian.in(.ARM.extab)
    .extab._Z20qForeachContainerNewI5QListIN10QtMobility16QOrganizerItemIdEEE17QForeachContainerIT_ERKS5_ 0x000170f0   Data           0  qtorganizer_symbian.in(.ARM.extab)
    .extab._Z20qForeachContainerNewI5QListIN10QtMobility14QOrganizerItemEEE17QForeachContainerIT_ERKS5_ 0x00017100   Data           0  qtorganizer_symbian.in(.ARM.extab)
    .extab._ZN5QListIN10QtMobility20QOrganizerItemFilterEE9node_copyEPNS2_4NodeES4_S4_ 0x00017110   Data           0  qtorganizer_symbian.in(.ARM.extab)
    .extab._ZN5QListIN10QtMobility20QOrganizerItemFilterEE13detach_helperEv 0x00017134   Data           0  qtorganizer_symbian.in(.ARM.extab)
    .extab._ZN5QListIN10QtMobility22QOrganizerCollectionIdEE9node_copyEPNS2_4NodeES4_S4_ 0x00017150   Data           0  qtorganizer_symbian.in(.ARM.extab)
    .extab._ZN5QListIN10QtMobility22QOrganizerCollectionIdEE13detach_helperEi 0x00017174   Data           0  qtorganizer_symbian.in(.ARM.extab)
    .extab._Z20qForeachContainerNewI5QListIN10QtMobility22QOrganizerCollectionIdEEE17QForeachContainerIT_ERKS5_ 0x00017190   Data           0  qtorganizer_symbian.in(.ARM.extab)
    .extab._ZN5QListI7QStringE9node_copyEPNS1_4NodeES3_S3_ 0x000171a0   Data           0  qtorganizer_symbian.in(.ARM.extab)
    .extab._ZN5QListI7QStringE13detach_helperEi 0x000171c4   Data           0  qtorganizer_symbian.in(.ARM.extab)
    .extab._ZN5QListI7QStringE18detach_helper_growEii 0x000171e0   Data           0  qtorganizer_symbian.in(.ARM.extab)
    .extab._ZN6QDebuglsEPKc                  0x00017210   Data           0  qtorganizer_symbian.in(.ARM.extab)
    .extab._ZN6QDebuglsEy                    0x00017220   Data           0  qtorganizer_symbian.in(.ARM.extab)
    .extab._ZN4QMapIN10QtMobility22QOrganizerCollectionIdE26OrganizerSymbianCollectionE11node_createEP8QMapDataPPNS4_4NodeERKS1_RKS2_ 0x00017230   Data           0  qtorganizer_symbian.in(.ARM.extab)
    .extab._ZN10QtMobility20QOrganizerItemParent15setOriginalDateERK5QDate 0x0001727c   Data           0  qtorganizer_symbian.in(.ARM.extab)
    .extab._ZN10QtMobility20QOrganizerItemParent11setParentIdERKNS_16QOrganizerItemIdE 0x0001728c   Data           0  qtorganizer_symbian.in(.ARM.extab)
    .extab._ZNK10QtMobility14QOrganizerItem6detailINS_20QOrganizerItemParentEEET_v 0x0001729c   Data           0  qtorganizer_symbian.in(.ARM.extab)
    .extab._ZNK10QtMobility20QOrganizerItemParent8parentIdEv 0x000172ac   Data           0  qtorganizer_symbian.in(.ARM.extab)
    .extab._ZN5QListI26OrganizerSymbianCollectionE14node_constructEPNS1_4NodeERKS0_ 0x000172c4   Data           0  qtorganizer_symbian.in(.ARM.extab)
    .extab._ZN5QListI26OrganizerSymbianCollectionE18detach_helper_growEii 0x000172d4   Data           0  qtorganizer_symbian.in(.ARM.extab)
    .extab._ZN5QListI26OrganizerSymbianCollectionE6appendERKS0_ 0x00017304   Data           0  qtorganizer_symbian.in(.ARM.extab)
    .extab._ZNK4QMapIN10QtMobility22QOrganizerCollectionIdE26OrganizerSymbianCollectionE6valuesEv 0x00017334   Data           0  qtorganizer_symbian.in(.ARM.extab)
    .extab._ZN5QListIN10QtMobility22QOrganizerCollectionIdEE18detach_helper_growEii 0x00017344   Data           0  qtorganizer_symbian.in(.ARM.extab)
    .extab._ZN5QListIN10QtMobility22QOrganizerCollectionIdEE6appendERKS1_ 0x00017374   Data           0  qtorganizer_symbian.in(.ARM.extab)
    .extab._ZN5QListIN10QtMobility22QOrganizerCollectionIdEEpLERKS2_ 0x000173a4   Data           0  qtorganizer_symbian.in(.ARM.extab)
    .extab._ZN5QListIN10QtMobility20QOrganizerItemFilterEE18detach_helper_growEii 0x000173c0   Data           0  qtorganizer_symbian.in(.ARM.extab)
    .extab._ZN5QListIN10QtMobility16QOrganizerItemIdEE18detach_helper_growEii 0x000173f0   Data           0  qtorganizer_symbian.in(.ARM.extab)
    .extab._ZN5QListIN10QtMobility16QOrganizerItemIdEE6appendERKS1_ 0x00017420   Data           0  qtorganizer_symbian.in(.ARM.extab)
    .extab._ZNK10QtMobility20QOrganizerItemParent12originalDateEv 0x00017450   Data           0  qtorganizer_symbian.in(.ARM.extab)
    .extab._ZN5QListIN10QtMobility20QOrganizerCollectionEE9node_copyEPNS2_4NodeES4_S4_ 0x00017460   Data           0  qtorganizer_symbian.in(.ARM.extab)
    .extab._ZN5QListIN10QtMobility20QOrganizerCollectionEE18detach_helper_growEii 0x00017484   Data           0  qtorganizer_symbian.in(.ARM.extab)
    .extab._ZN5QListIiElsERKi                0x000174b4   Data           0  qtorganizer_symbian.in(.ARM.extab)
    .extab._ZN5QListIN10QtMobility22QOrganizerCollectionIdEE14node_constructEPNS2_4NodeERKS1_ 0x000174d0   Data           0  qtorganizer_symbian.in(.ARM.extab)
    .extab._ZNK4QSetIN10QtMobility22QOrganizerCollectionIdEE6toListEv 0x000174e0   Data           0  qtorganizer_symbian.in(.ARM.extab)
    .extab._ZN5QListIN10QtMobility20QOrganizerItemFilterEE6appendERKS1_ 0x000174f0   Data           0  qtorganizer_symbian.in(.ARM.extab)
    .extab._ZN5QListIN10QtMobility16QOrganizerItemIdEE14node_constructEPNS2_4NodeERKS1_ 0x00017520   Data           0  qtorganizer_symbian.in(.ARM.extab)
    .extab._ZNK4QSetIN10QtMobility16QOrganizerItemIdEE6toListEv 0x00017530   Data           0  qtorganizer_symbian.in(.ARM.extab)
    .extab._ZN5QListIN10QtMobility20QOrganizerCollectionEE6appendERKS1_ 0x00017540   Data           0  qtorganizer_symbian.in(.ARM.extab)
    .extab._ZNK4QMapIN10QtMobility22QOrganizerCollectionIdE26OrganizerSymbianCollectionE4keysEv 0x00017570   Data           0  qtorganizer_symbian.in(.ARM.extab)
    .extab._ZN5QListIN10QtMobility20QOrganizerCollectionEE13detach_helperEv 0x00017580   Data           0  qtorganizer_symbian.in(.ARM.extab)
    .extab._ZN4QMapI7QStringS_IS0_N10QtMobility30QOrganizerItemDetailDefinitionEEE13detach_helperEv 0x0001759c   Data           0  qtorganizer_symbian.in(.ARM.extab)
    .extab._ZN5QListI7QStringE6appendERKS0_  0x000175b8   Data           0  qtorganizer_symbian.in(.ARM.extab)
    .extab._ZN4QMapIN10QtMobility22QOrganizerCollectionIdE26OrganizerSymbianCollectionE13detach_helperEv 0x000175e8   Data           0  qtorganizer_symbian.in(.ARM.extab)
    .extab._ZN5QListIN10QtMobility20QOrganizerItemFilterEE14node_constructEPNS2_4NodeERKS1_ 0x00017604   Data           0  qtorganizer_symbian.in(.ARM.extab)
    .extab._ZN5QHashIN10QtMobility16QOrganizerItemIdE15QHashDummyValueE6insertERKS1_RKS2_ 0x00017614   Data           0  qtorganizer_symbian.in(.ARM.extab)
    .extab._ZN5QListIN10QtMobility20QOrganizerCollectionEE14node_constructEPNS2_4NodeERKS1_ 0x00017624   Data           0  qtorganizer_symbian.in(.ARM.extab)
    .extab._ZN4QMapI7QStringS_IS0_N10QtMobility30QOrganizerItemDetailDefinitionEEE11node_createEP8QMapDataPPNS5_4NodeERKS0_RKS3_ 0x00017634   Data           0  qtorganizer_symbian.in(.ARM.extab)
    .extab._ZN5QListI7QStringE14node_constructEPNS1_4NodeERKS0_ 0x00017680   Data           0  qtorganizer_symbian.in(.ARM.extab)
    .extab._ZN5QHashIN10QtMobility16QOrganizerItemIdE15QHashDummyValueE13duplicateNodeEPN9QHashData4NodeEPv 0x00017690   Data           0  qtorganizer_symbian.in(.ARM.extab)
    .extab._ZN33OrganizerSymbianCollectionPrivateC1Ev 0x000176a0   Data           0  qtorganizer_symbian.in(.ARM.extab)
    .extab._ZN33OrganizerSymbianCollectionPrivateD1Ev 0x000176b8   Data           0  qtorganizer_symbian.in(.ARM.extab)
    .extab._ZN33OrganizerSymbianCollectionPrivate21CalChangeNotificationER6RArrayI15TCalChangeEntryE 0x000176d0   Data           0  qtorganizer_symbian.in(.ARM.extab)
    .extab._ZN26OrganizerSymbianCollectionC1Ev 0x000176f0   Data           0  qtorganizer_symbian.in(.ARM.extab)
    .extab._ZN26OrganizerSymbianCollectionC1EPN10QtMobility23QOrganizerManagerEngineE 0x00017700   Data           0  qtorganizer_symbian.in(.ARM.extab)
    .extab._ZN26OrganizerSymbianCollection5openLERK7TDesC16 0x00017710   Data           0  qtorganizer_symbian.in(.ARM.extab)
    .extab._ZNK26OrganizerSymbianCollection23toQOrganizerCollectionLEv 0x00017750   Data           0  qtorganizer_symbian.in(.ARM.extab)
    .extab._ZN5CBasenwEj                     0x00017790   Data           0  qtorganizer_symbian.in(.ARM.extab)
    .extab._ZN21OrganizerSymbianUtils7toTTimeERK9QDateTimeN2Qt8TimeSpecE 0x000177a0   Data           0  qtorganizer_symbian.in(.ARM.extab)
    .extab._ZN21OrganizerSymbianUtils11toTCalTimeLERK5QDate 0x000177b0   Data           0  qtorganizer_symbian.in(.ARM.extab)
    .extab._ZN21OrganizerSymbianUtils11toQDateTimeERK5TTimeN2Qt8TimeSpecE 0x000177c0   Data           0  qtorganizer_symbian.in(.ARM.extab)
    .extab._ZN21OrganizerSymbianUtils14toCollectionIdEy 0x000177d0   Data           0  qtorganizer_symbian.in(.ARM.extab)
    .extab._ZN21OrganizerSymbianUtils8toItemIdEyj 0x000177e0   Data           0  qtorganizer_symbian.in(.ARM.extab)
    .extab._Z11debugEntryLRK9CCalEntry       0x000177f0   Data           0  qtorganizer_symbian.in(.ARM.extab)
    .extab._Z14debugInstanceLRK12CCalInstance 0x00017908   Data           0  qtorganizer_symbian.in(.ARM.extab)
    .extab._Z15debugSchemaDefsRK4QMapI7QStringS_IS0_N10QtMobility30QOrganizerItemDetailDefinitionEEE 0x000179b8   Data           0  qtorganizer_symbian.in(.ARM.extab)
    .extab._ZN22OrganizerItemTransformC1Ev   0x00017aa0   Data           0  qtorganizer_symbian.in(.ARM.extab)
    .extab._ZN22OrganizerItemTransformD1Ev   0x00017b18   Data           0  qtorganizer_symbian.in(.ARM.extab)
    .extab._ZNK22OrganizerItemTransform27modifyBaseSchemaDefinitionsER4QMapI7QStringS0_IS1_N10QtMobility30QOrganizerItemDetailDefinitionEEE 0x00017b38   Data           0  qtorganizer_symbian.in(.ARM.extab)
    .extab._ZN22OrganizerItemTransform8toEntryLERKN10QtMobility14QOrganizerItemEP9CCalEntry 0x00017be8   Data           0  qtorganizer_symbian.in(.ARM.extab)
    .extab._ZNK22OrganizerItemTransform7toItemLERK9CCalEntryPN10QtMobility14QOrganizerItemE 0x00017bf8   Data           0  qtorganizer_symbian.in(.ARM.extab)
    .extab._ZNK22OrganizerItemTransform15toItemPostSaveLERK9CCalEntryPN10QtMobility14QOrganizerItemE7QString 0x00017c08   Data           0  qtorganizer_symbian.in(.ARM.extab)
    .extab._ZNK22OrganizerItemTransform17toItemOccurrenceLERK12CCalInstancePN10QtMobility14QOrganizerItemE 0x00017c18   Data           0  qtorganizer_symbian.in(.ARM.extab)
    .extab._Z6qDebugv                        0x00017c28   Data           0  qtorganizer_symbian.in(.ARM.extab)
    .extab._ZN6QDebugD1Ev                    0x00017c40   Data           0  qtorganizer_symbian.in(.ARM.extab)
    .extab._Z20qForeachContainerNewI5QListI7QStringEE17QForeachContainerIT_ERKS4_ 0x00017c64   Data           0  qtorganizer_symbian.in(.ARM.extab)
    .extab._ZNK4QMapI7QStringN10QtMobility30QOrganizerItemDetailDefinitionEE4keysEv 0x00017c74   Data           0  qtorganizer_symbian.in(.ARM.extab)
    .extab._ZNK4QMapI7QStringS_IS0_N10QtMobility30QOrganizerItemDetailDefinitionEEE4keysEv 0x00017c84   Data           0  qtorganizer_symbian.in(.ARM.extab)
    .extab._Z20qForeachContainerNewI5QListIP28OrganizerItemDetailTransformEE17QForeachContainerIT_ERKS5_ 0x00017c94   Data           0  qtorganizer_symbian.in(.ARM.extab)
    .extab._ZN5QListIP28OrganizerItemDetailTransformE18detach_helper_growEii 0x00017ca4   Data           0  qtorganizer_symbian.in(.ARM.extab)
    .extab._ZN5QListIP28OrganizerItemDetailTransformE6appendERKS1_ 0x00017cd4   Data           0  qtorganizer_symbian.in(.ARM.extab)
    .extab._ZNK4QMapI7QStringN10QtMobility35QOrganizerItemDetailFieldDefinitionEE4keysEv 0x00017cf0   Data           0  qtorganizer_symbian.in(.ARM.extab)
    .extab._ZN5QListIP28OrganizerItemDetailTransformE13detach_helperEv 0x00017d00   Data           0  qtorganizer_symbian.in(.ARM.extab)
    .extab._ZN4QMapI7QStringS_IS0_N10QtMobility30QOrganizerItemDetailDefinitionEEEixERKS0_ 0x00017d1c   Data           0  qtorganizer_symbian.in(.ARM.extab)
    .extab._ZN27OrganizerEventTimeTransform18transformToDetailLERK9CCalEntryPN10QtMobility14QOrganizerItemE 0x00017d2c   Data           0  qtorganizer_symbian.in(.ARM.extab)
    .extab._ZN27OrganizerEventTimeTransform18transformToDetailLERK12CCalInstancePN10QtMobility14QOrganizerItemE 0x00017d74   Data           0  qtorganizer_symbian.in(.ARM.extab)
    .extab._ZN27OrganizerEventTimeTransform17transformToEntryLERKN10QtMobility14QOrganizerItemEP9CCalEntry 0x00017dbc   Data           0  qtorganizer_symbian.in(.ARM.extab)
    .extab._ZN10QtMobility19QOrganizerEventTime14setEndDateTimeERK9QDateTime 0x00017e4c   Data           0  qtorganizer_symbian.in(.ARM.extab)
    .extab._ZN10QtMobility19QOrganizerEventTime16setStartDateTimeERK9QDateTime 0x00017e5c   Data           0  qtorganizer_symbian.in(.ARM.extab)
    .extab._ZN33OrganizerItemDescriptionTransform18transformToDetailLERK9CCalEntryPN10QtMobility14QOrganizerItemE 0x00017e6c   Data           0  qtorganizer_symbian.in(.ARM.extab)
    .extab._ZN33OrganizerItemDescriptionTransform17transformToEntryLERKN10QtMobility14QOrganizerItemEP9CCalEntry 0x00017e7c   Data           0  qtorganizer_symbian.in(.ARM.extab)
    .extab._ZN34OrganizerItemDisplayLabelTransform18transformToDetailLERK9CCalEntryPN10QtMobility14QOrganizerItemE 0x00017e94   Data           0  qtorganizer_symbian.in(.ARM.extab)
    .extab._ZN34OrganizerItemDisplayLabelTransform17transformToEntryLERKN10QtMobility14QOrganizerItemEP9CCalEntry 0x00017ea4   Data           0  qtorganizer_symbian.in(.ARM.extab)
    .extab._ZNK34OrganizerItemDisplayLabelTransform27modifyBaseSchemaDefinitionsER4QMapI7QStringS0_IS1_N10QtMobility30QOrganizerItemDetailDefinitionEEE 0x00017ec4   Data           0  qtorganizer_symbian.in(.ARM.extab)
    .extab._ZN26OrganizerItemGuidTransformC1Ev 0x00017eec   Data           0  qtorganizer_symbian.in(.ARM.extab)
    .extab._ZN26OrganizerItemGuidTransform18transformToDetailLERK9CCalEntryPN10QtMobility14QOrganizerItemE 0x00017efc   Data           0  qtorganizer_symbian.in(.ARM.extab)
    .extab._ZN26OrganizerItemGuidTransform6guidLCERKN10QtMobility14QOrganizerItemE 0x00017f0c   Data           0  qtorganizer_symbian.in(.ARM.extab)
    .extab._ZNK30OrganizerItemLocationTransform27modifyBaseSchemaDefinitionsER4QMapI7QStringS0_IS1_N10QtMobility30QOrganizerItemDetailDefinitionEEE 0x00017f34   Data           0  qtorganizer_symbian.in(.ARM.extab)
    .extab._ZN30OrganizerItemLocationTransform18transformToDetailLERK9CCalEntryPN10QtMobility14QOrganizerItemE 0x00017ffc   Data           0  qtorganizer_symbian.in(.ARM.extab)
    .extab._ZN30OrganizerItemLocationTransform17transformToEntryLERKN10QtMobility14QOrganizerItemEP9CCalEntry 0x00018024   Data           0  qtorganizer_symbian.in(.ARM.extab)
    .extab._ZN4QMapI7QStringN10QtMobility35QOrganizerItemDetailFieldDefinitionEE11node_createEP8QMapDataPPNS4_4NodeERKS0_RKS2_ 0x0001805c   Data           0  qtorganizer_symbian.in(.ARM.extab)
    .extab._ZN4QMapI7QStringN10QtMobility35QOrganizerItemDetailFieldDefinitionEE13detach_helperEv 0x000180a8   Data           0  qtorganizer_symbian.in(.ARM.extab)
    .extab._ZN30OrganizerItemPriorityTransform18transformToDetailLERK9CCalEntryPN10QtMobility14QOrganizerItemE 0x000180c4   Data           0  qtorganizer_symbian.in(.ARM.extab)
    .extab._ZN30OrganizerItemPriorityTransform17transformToEntryLERKN10QtMobility14QOrganizerItemEP9CCalEntry 0x000180dc   Data           0  qtorganizer_symbian.in(.ARM.extab)
    .extab._ZNK32OrganizerItemRecurrenceTransform27modifyBaseSchemaDefinitionsER4QMapI7QStringS0_IS1_N10QtMobility30QOrganizerItemDetailDefinitionEEE 0x000180fc   Data           0  qtorganizer_symbian.in(.ARM.extab)
    .extab._ZNK32OrganizerItemRecurrenceTransform9toQDatesLERK6RArrayI8TCalTimeE 0x0001818c   Data           0  qtorganizer_symbian.in(.ARM.extab)
    .extab._ZNK32OrganizerItemRecurrenceTransform22toItemRecurrenceRulesLERK9TCalRRule 0x000181ac   Data           0  qtorganizer_symbian.in(.ARM.extab)
    .extab._ZN32OrganizerItemRecurrenceTransform18transformToDetailLERK9CCalEntryPN10QtMobility14QOrganizerItemE 0x0001822c   Data           0  qtorganizer_symbian.in(.ARM.extab)
    .extab._ZNK32OrganizerItemRecurrenceTransform12toTCalTimesLERK4QSetI5QDateER6RArrayI8TCalTimeE 0x0001826c   Data           0  qtorganizer_symbian.in(.ARM.extab)
    .extab._ZNK32OrganizerItemRecurrenceTransform10toTMonthsLE4QSetIN10QtMobility24QOrganizerRecurrenceRule5MonthEER9TCalRRule 0x00018294   Data           0  qtorganizer_symbian.in(.ARM.extab)
    .extab._ZNK32OrganizerItemRecurrenceTransform14toDaysOfMonthLE4QSetIN2Qt9DayOfWeekEES0_IiER9TCalRRule 0x000182ac   Data           0  qtorganizer_symbian.in(.ARM.extab)
    .extab._ZNK32OrganizerItemRecurrenceTransform12toMonthDaysLE4QSetIiER9TCalRRule 0x000182cc   Data           0  qtorganizer_symbian.in(.ARM.extab)
    .extab._ZNK32OrganizerItemRecurrenceTransform7toDaysLE4QSetIN2Qt9DayOfWeekEE9QDateTimeR9TCalRRule 0x000182dc   Data           0  qtorganizer_symbian.in(.ARM.extab)
    .extab._ZNK32OrganizerItemRecurrenceTransform11toCalRRuleLE4QSetIN10QtMobility24QOrganizerRecurrenceRuleEE9QDateTime 0x000182ec   Data           0  qtorganizer_symbian.in(.ARM.extab)
    .extab._ZN32OrganizerItemRecurrenceTransform17transformToEntryLERKN10QtMobility14QOrganizerItemEP9CCalEntry 0x000183d4   Data           0  qtorganizer_symbian.in(.ARM.extab)
    .extab._Z20qForeachContainerNewI4QSetIN2Qt9DayOfWeekEEE17QForeachContainerIT_ERKS5_ 0x000184b4   Data           0  qtorganizer_symbian.in(.ARM.extab)
    .extab._Z20qForeachContainerNewI4QSetIiEE17QForeachContainerIT_ERKS3_ 0x000184c4   Data           0  qtorganizer_symbian.in(.ARM.extab)
    .extab._ZN5QListIN10QtMobility24QOrganizerRecurrenceRuleEE9node_copyEPNS2_4NodeES4_S4_ 0x000184d4   Data           0  qtorganizer_symbian.in(.ARM.extab)
    .extab._ZN5QListIN10QtMobility24QOrganizerRecurrenceRuleEE18detach_helper_growEii 0x000184f8   Data           0  qtorganizer_symbian.in(.ARM.extab)
    .extab._ZN5QListIN10QtMobility24QOrganizerRecurrenceRuleEE13detach_helperEi 0x00018528   Data           0  qtorganizer_symbian.in(.ARM.extab)
    .extab._ZN5QHashIN10QtMobility24QOrganizerRecurrenceRuleE15QHashDummyValueE6insertERKS1_RKS2_ 0x00018544   Data           0  qtorganizer_symbian.in(.ARM.extab)
    .extab._ZNK4QSetIN10QtMobility24QOrganizerRecurrenceRuleEE6toListEv 0x00018554   Data           0  qtorganizer_symbian.in(.ARM.extab)
    .extab._ZN5QHashIN10QtMobility24QOrganizerRecurrenceRuleE15QHashDummyValueE13duplicateNodeEPN9QHashData4NodeEPv 0x00018564   Data           0  qtorganizer_symbian.in(.ARM.extab)
    .extab._ZN5QListIN10QtMobility24QOrganizerRecurrenceRuleEE6appendERKS1_ 0x00018574   Data           0  qtorganizer_symbian.in(.ARM.extab)
    .extab._ZN5QListIN10QtMobility24QOrganizerRecurrenceRuleEE14node_constructEPNS2_4NodeERKS1_ 0x000185a4   Data           0  qtorganizer_symbian.in(.ARM.extab)
    .extab._ZN31OrganizerItemTimeStampTransform18transformToDetailLERK9CCalEntryPN10QtMobility14QOrganizerItemE 0x000185b4   Data           0  qtorganizer_symbian.in(.ARM.extab)
    .extab._ZN31OrganizerItemTimeStampTransform17transformToEntryLERKN10QtMobility14QOrganizerItemEP9CCalEntry 0x000185f4   Data           0  qtorganizer_symbian.in(.ARM.extab)
    .extab._ZNK10QtMobility14QOrganizerItem6detailINS_23QOrganizerItemTimestampEEET_v 0x00018634   Data           0  qtorganizer_symbian.in(.ARM.extab)
    .extab._ZNK26OrganizerItemTypeTransform27modifyBaseSchemaDefinitionsER4QMapI7QStringS0_IS1_N10QtMobility30QOrganizerItemDetailDefinitionEEE 0x00018644   Data           0  qtorganizer_symbian.in(.ARM.extab)
    .extab._ZN26OrganizerItemTypeTransform18transformToDetailLERK9CCalEntryPN10QtMobility14QOrganizerItemE 0x0001865c   Data           0  qtorganizer_symbian.in(.ARM.extab)
    .extab._ZN26OrganizerItemTypeTransform18transformToDetailLERK12CCalInstancePN10QtMobility14QOrganizerItemE 0x0001866c   Data           0  qtorganizer_symbian.in(.ARM.extab)
    .extab._ZN26OrganizerItemTypeTransform10entryTypeLERKN10QtMobility14QOrganizerItemE 0x0001867c   Data           0  qtorganizer_symbian.in(.ARM.extab)
    .extab._ZN7QStringaSERK13QLatin1String   0x0001868c   Data           0  qtorganizer_symbian.in(.ARM.extab)
    .extab._ZN29OrganizerJournalTimeTransform18transformToDetailLERK9CCalEntryPN10QtMobility14QOrganizerItemE 0x0001869c   Data           0  qtorganizer_symbian.in(.ARM.extab)
    .extab._ZN29OrganizerJournalTimeTransform17transformToEntryLERKN10QtMobility14QOrganizerItemEP9CCalEntry 0x000186cc   Data           0  qtorganizer_symbian.in(.ARM.extab)
    .extab._ZNK30OrganizerTodoProgressTransform27modifyBaseSchemaDefinitionsER4QMapI7QStringS0_IS1_N10QtMobility30QOrganizerItemDetailDefinitionEEE 0x000186fc   Data           0  qtorganizer_symbian.in(.ARM.extab)
    .extab._ZN30OrganizerTodoProgressTransform18transformToDetailLERK9CCalEntryPN10QtMobility14QOrganizerItemE 0x0001878c   Data           0  qtorganizer_symbian.in(.ARM.extab)
    .extab._ZN30OrganizerTodoProgressTransform17transformToEntryLERKN10QtMobility14QOrganizerItemEP9CCalEntry 0x000187d4   Data           0  qtorganizer_symbian.in(.ARM.extab)
    .extab._ZN10QtMobility22QOrganizerTodoProgress9setStatusENS0_6StatusE 0x0001882c   Data           0  qtorganizer_symbian.in(.ARM.extab)
    .extab._ZNK10QtMobility22QOrganizerTodoProgress6statusEv 0x0001883c   Data           0  qtorganizer_symbian.in(.ARM.extab)
    .extab._ZNK10QtMobility20QOrganizerItemDetail5valueI9QDateTimeEET_PKc 0x0001884c   Data           0  qtorganizer_symbian.in(.ARM.extab)
    .extab._ZN26OrganizerTodoTimeTransform18transformToDetailLERK9CCalEntryPN10QtMobility14QOrganizerItemE 0x00018864   Data           0  qtorganizer_symbian.in(.ARM.extab)
    .extab._ZN26OrganizerTodoTimeTransform18transformToDetailLERK12CCalInstancePN10QtMobility14QOrganizerItemE 0x000188ac   Data           0  qtorganizer_symbian.in(.ARM.extab)
    .extab._ZN26OrganizerTodoTimeTransform17transformToEntryLERKN10QtMobility14QOrganizerItemEP9CCalEntry 0x000188f4   Data           0  qtorganizer_symbian.in(.ARM.extab)
    .extab._ZN10QtMobility18QOrganizerTodoTime14setDueDateTimeERK9QDateTime 0x0001898c   Data           0  qtorganizer_symbian.in(.ARM.extab)
    .extab._ZN10QtMobility18QOrganizerTodoTime16setStartDateTimeERK9QDateTime 0x0001899c   Data           0  qtorganizer_symbian.in(.ARM.extab)
    .extab._ZNK30OrganizerItemReminderTransform27modifyBaseSchemaDefinitionsER4QMapI7QStringS0_IS1_N10QtMobility30QOrganizerItemDetailDefinitionEEE 0x000189ac   Data           0  qtorganizer_symbian.in(.ARM.extab)
    .extab._ZN30OrganizerItemReminderTransform18transformToDetailLERK9CCalEntryPN10QtMobility14QOrganizerItemE 0x00018a5c   Data           0  qtorganizer_symbian.in(.ARM.extab)
    .extab._ZN30OrganizerItemReminderTransform17transformToEntryLERKN10QtMobility14QOrganizerItemEP9CCalEntry 0x00018a74   Data           0  qtorganizer_symbian.in(.ARM.extab)
    .extab._ZNK10QtMobility22QOrganizerItemReminder18secondsBeforeStartEv 0x00018a94   Data           0  qtorganizer_symbian.in(.ARM.extab)
    .constdata$1                             0x00018aa4   Data           0  qtorganizer_symbian.in(.constdata)
    qt_meta_stringdata_QOrganizerItemRequestQueue 0x00018aa4   Data          28  qtorganizer_symbian.in(.constdata)
    .constdata                               0x00018aa4   Section       44  qtorganizer_symbian.in(.constdata)
    .constdata$10                            0x00018ad0   Data           0  qtorganizer_symbian.in(.constdata)
    qt_meta_data_QOrganizerItemRequestQueue  0x00018ad0   Data          60  qtorganizer_symbian.in(.constdata)
    .constdata                               0x00018ad0   Section       60  qtorganizer_symbian.in(.constdata)
    .constdata$1                             0x00018b0c   Data           0  qtorganizer_symbian.in(.constdata)
    qt_meta_stringdata_QOrganizerItemSymbianFactory 0x00018b0c   Data          30  qtorganizer_symbian.in(.constdata)
    .constdata                               0x00018b0c   Section       92  qtorganizer_symbian.in(.constdata)
    qt_meta_stringdata_QOrganizerItemSymbianEngine 0x00018b2a   Data          29  qtorganizer_symbian.in(.constdata)
    .constdata$13                            0x00018b68   Data           0  qtorganizer_symbian.in(.constdata)
    qt_meta_data_QOrganizerItemSymbianFactory 0x00018b68   Data          60  qtorganizer_symbian.in(.constdata)
    .constdata                               0x00018b68   Section       60  qtorganizer_symbian.in(.constdata)
    .constdata$19                            0x00018ba4   Data           0  qtorganizer_symbian.in(.constdata)
    qt_meta_data_QOrganizerItemSymbianEngine 0x00018ba4   Data          60  qtorganizer_symbian.in(.constdata)
    .constdata                               0x00018ba4   Section       60  qtorganizer_symbian.in(.constdata)
    .constdata$1                             0x00018be0   Data           0  qtorganizer_symbian.in(.constdata)
    KNullDesC                                0x00018be0   Data           8  qtorganizer_symbian.in(.constdata)
    .constdata                               0x00018be0   Section       99  qtorganizer_symbian.in(.constdata)
    qt_plugin_verification_data              0x00018be8   Data          91  qtorganizer_symbian.in(.constdata)
    .constdata$1                             0x00018c43   Data           0  qtorganizer_symbian.in(.constdata)
    .constdata                               0x00018c43   Section        9  qtorganizer_symbian.in(.constdata)
    .constdata__ZTI11QSharedData             0x00018c4c   Section        8  qtorganizer_symbian.in(.constdata__ZTI11QSharedData)
    .constdata__ZTI19MCalChangeCallBack2     0x00018c54   Section        8  qtorganizer_symbian.in(.constdata__ZTI19MCalChangeCallBack2)
    .constdata__ZTI20MCalProgressCallBack    0x00018c5c   Section        8  qtorganizer_symbian.in(.constdata__ZTI20MCalProgressCallBack)
    .constdata__ZTI26OrganizerItemGuidTransform 0x00018c64   Section       12  qtorganizer_symbian.in(.constdata__ZTI26OrganizerItemGuidTransform)
    .constdata__ZTI26OrganizerItemTypeTransform 0x00018c70   Section       12  qtorganizer_symbian.in(.constdata__ZTI26OrganizerItemTypeTransform)
    .constdata__ZTI26OrganizerTodoTimeTransform 0x00018c7c   Section       12  qtorganizer_symbian.in(.constdata__ZTI26OrganizerTodoTimeTransform)
    .constdata__ZTI26QOrganizerItemRequestQueue 0x00018c88   Section       12  qtorganizer_symbian.in(.constdata__ZTI26QOrganizerItemRequestQueue)
    .constdata__ZTI27OrganizerEventTimeTransform 0x00018c94   Section       12  qtorganizer_symbian.in(.constdata__ZTI27OrganizerEventTimeTransform)
    .constdata__ZTI27QOrganizerItemSymbianEngine 0x00018ca0   Section       12  qtorganizer_symbian.in(.constdata__ZTI27QOrganizerItemSymbianEngine)
    .constdata__ZTI28OrganizerItemDetailTransform 0x00018cac   Section        8  qtorganizer_symbian.in(.constdata__ZTI28OrganizerItemDetailTransform)
    .constdata__ZTI28OrganizerItemParentTransform 0x00018cb4   Section       12  qtorganizer_symbian.in(.constdata__ZTI28OrganizerItemParentTransform)
    .constdata__ZTI28QOrganizerItemSymbianFactory 0x00018cc0   Section       32  qtorganizer_symbian.in(.constdata__ZTI28QOrganizerItemSymbianFactory)
    .constdata__ZTI29OrganizerJournalTimeTransform 0x00018ce0   Section       12  qtorganizer_symbian.in(.constdata__ZTI29OrganizerJournalTimeTransform)
    .constdata__ZTI29QOrganizerItemSymbianEngineId 0x00018cec   Section       12  qtorganizer_symbian.in(.constdata__ZTI29QOrganizerItemSymbianEngineId)
    .constdata__ZTI30OrganizerItemLocationTransform 0x00018cf8   Section       12  qtorganizer_symbian.in(.constdata__ZTI30OrganizerItemLocationTransform)
    .constdata__ZTI30OrganizerItemPriorityTransform 0x00018d04   Section       12  qtorganizer_symbian.in(.constdata__ZTI30OrganizerItemPriorityTransform)
    .constdata__ZTI30OrganizerItemReminderTransform 0x00018d10   Section       12  qtorganizer_symbian.in(.constdata__ZTI30OrganizerItemReminderTransform)
    .constdata__ZTI30OrganizerTodoProgressTransform 0x00018d1c   Section       12  qtorganizer_symbian.in(.constdata__ZTI30OrganizerTodoProgressTransform)
    .constdata__ZTI31OrganizerItemTimeStampTransform 0x00018d28   Section       12  qtorganizer_symbian.in(.constdata__ZTI31OrganizerItemTimeStampTransform)
    .constdata__ZTI32OrganizerItemRecurrenceTransform 0x00018d34   Section       12  qtorganizer_symbian.in(.constdata__ZTI32OrganizerItemRecurrenceTransform)
    .constdata__ZTI33OrganizerItemDescriptionTransform 0x00018d40   Section       12  qtorganizer_symbian.in(.constdata__ZTI33OrganizerItemDescriptionTransform)
    .constdata__ZTI33OrganizerSymbianCollectionPrivate 0x00018d4c   Section       40  qtorganizer_symbian.in(.constdata__ZTI33OrganizerSymbianCollectionPrivate)
    .constdata__ZTI34OrganizerItemDisplayLabelTransform 0x00018d74   Section       12  qtorganizer_symbian.in(.constdata__ZTI34OrganizerItemDisplayLabelTransform)
    .constdata__ZTI35QOrganizerCollectionSymbianEngineId 0x00018d80   Section       12  qtorganizer_symbian.in(.constdata__ZTI35QOrganizerCollectionSymbianEngineId)
    .constdata__ZTI37COrganizerItemRequestsServiceProvider 0x00018d8c   Section       12  qtorganizer_symbian.in(.constdata__ZTI37COrganizerItemRequestsServiceProvider)
    .constdata__ZTIN10QtMobility22QOrganizerItemEngineIdE 0x00018d98   Section       24  qtorganizer_symbian.in(.constdata__ZTIN10QtMobility22QOrganizerItemEngineIdE)
    .constdata__ZTIN10QtMobility28QOrganizerCollectionEngineIdE 0x00018db0   Section       24  qtorganizer_symbian.in(.constdata__ZTIN10QtMobility28QOrganizerCollectionEngineIdE)
    .constdata__ZTISt9bad_alloc              0x00018dc8   Section       12  qtorganizer_symbian.in(.constdata__ZTISt9bad_alloc)
    .constdata__ZTS11QSharedData             0x00018dd4   Section       14  qtorganizer_symbian.in(.constdata__ZTS11QSharedData)
    .constdata__ZTS19MCalChangeCallBack2     0x00018de2   Section       22  qtorganizer_symbian.in(.constdata__ZTS19MCalChangeCallBack2)
    .constdata__ZTS20MCalProgressCallBack    0x00018df8   Section       23  qtorganizer_symbian.in(.constdata__ZTS20MCalProgressCallBack)
    .constdata__ZTS26OrganizerItemGuidTransform 0x00018e0f   Section       29  qtorganizer_symbian.in(.constdata__ZTS26OrganizerItemGuidTransform)
    .constdata__ZTS26OrganizerItemTypeTransform 0x00018e2c   Section       29  qtorganizer_symbian.in(.constdata__ZTS26OrganizerItemTypeTransform)
    .constdata__ZTS26OrganizerTodoTimeTransform 0x00018e49   Section       29  qtorganizer_symbian.in(.constdata__ZTS26OrganizerTodoTimeTransform)
    .constdata__ZTS26QOrganizerItemRequestQueue 0x00018e66   Section       29  qtorganizer_symbian.in(.constdata__ZTS26QOrganizerItemRequestQueue)
    .constdata__ZTS27OrganizerEventTimeTransform 0x00018e83   Section       30  qtorganizer_symbian.in(.constdata__ZTS27OrganizerEventTimeTransform)
    .constdata__ZTS27QOrganizerItemSymbianEngine 0x00018ea1   Section       30  qtorganizer_symbian.in(.constdata__ZTS27QOrganizerItemSymbianEngine)
    .constdata__ZTS28OrganizerItemDetailTransform 0x00018ebf   Section       31  qtorganizer_symbian.in(.constdata__ZTS28OrganizerItemDetailTransform)
    .constdata__ZTS28OrganizerItemParentTransform 0x00018ede   Section       31  qtorganizer_symbian.in(.constdata__ZTS28OrganizerItemParentTransform)
    .constdata__ZTS28QOrganizerItemSymbianFactory 0x00018efd   Section       31  qtorganizer_symbian.in(.constdata__ZTS28QOrganizerItemSymbianFactory)
    .constdata__ZTS29OrganizerJournalTimeTransform 0x00018f1c   Section       32  qtorganizer_symbian.in(.constdata__ZTS29OrganizerJournalTimeTransform)
    .constdata__ZTS29QOrganizerItemSymbianEngineId 0x00018f3c   Section       32  qtorganizer_symbian.in(.constdata__ZTS29QOrganizerItemSymbianEngineId)
    .constdata__ZTS30OrganizerItemLocationTransform 0x00018f5c   Section       33  qtorganizer_symbian.in(.constdata__ZTS30OrganizerItemLocationTransform)
    .constdata__ZTS30OrganizerItemPriorityTransform 0x00018f7d   Section       33  qtorganizer_symbian.in(.constdata__ZTS30OrganizerItemPriorityTransform)
    .constdata__ZTS30OrganizerItemReminderTransform 0x00018f9e   Section       33  qtorganizer_symbian.in(.constdata__ZTS30OrganizerItemReminderTransform)
    .constdata__ZTS30OrganizerTodoProgressTransform 0x00018fbf   Section       33  qtorganizer_symbian.in(.constdata__ZTS30OrganizerTodoProgressTransform)
    .constdata__ZTS31OrganizerItemTimeStampTransform 0x00018fe0   Section       34  qtorganizer_symbian.in(.constdata__ZTS31OrganizerItemTimeStampTransform)
    .constdata__ZTS32OrganizerItemRecurrenceTransform 0x00019002   Section       35  qtorganizer_symbian.in(.constdata__ZTS32OrganizerItemRecurrenceTransform)
    .constdata__ZTS33OrganizerItemDescriptionTransform 0x00019025   Section       36  qtorganizer_symbian.in(.constdata__ZTS33OrganizerItemDescriptionTransform)
    .constdata__ZTS33OrganizerSymbianCollectionPrivate 0x00019049   Section       36  qtorganizer_symbian.in(.constdata__ZTS33OrganizerSymbianCollectionPrivate)
    .constdata__ZTS34OrganizerItemDisplayLabelTransform 0x0001906d   Section       37  qtorganizer_symbian.in(.constdata__ZTS34OrganizerItemDisplayLabelTransform)
    .constdata__ZTS35QOrganizerCollectionSymbianEngineId 0x00019092   Section       38  qtorganizer_symbian.in(.constdata__ZTS35QOrganizerCollectionSymbianEngineId)
    .constdata__ZTS37COrganizerItemRequestsServiceProvider 0x000190b8   Section       40  qtorganizer_symbian.in(.constdata__ZTS37COrganizerItemRequestsServiceProvider)
    .constdata__ZTSN10QtMobility22QOrganizerItemEngineIdE 0x000190e0   Section       39  qtorganizer_symbian.in(.constdata__ZTSN10QtMobility22QOrganizerItemEngineIdE)
    .constdata__ZTSN10QtMobility28QOrganizerCollectionEngineIdE 0x00019107   Section       45  qtorganizer_symbian.in(.constdata__ZTSN10QtMobility28QOrganizerCollectionEngineIdE)
    .constdata__ZTSSt9bad_alloc              0x00019134   Section       13  qtorganizer_symbian.in(.constdata__ZTSSt9bad_alloc)
    .constdata__ZTV26OrganizerItemGuidTransform 0x00019144   Section       40  qtorganizer_symbian.in(.constdata__ZTV26OrganizerItemGuidTransform)
    .constdata__ZTV26OrganizerItemTypeTransform 0x0001916c   Section       40  qtorganizer_symbian.in(.constdata__ZTV26OrganizerItemTypeTransform)
    .constdata__ZTV26OrganizerTodoTimeTransform 0x00019194   Section       40  qtorganizer_symbian.in(.constdata__ZTV26OrganizerTodoTimeTransform)
    .constdata__ZTV26QOrganizerItemRequestQueue 0x000191bc   Section       56  qtorganizer_symbian.in(.constdata__ZTV26QOrganizerItemRequestQueue)
    .constdata__ZTV27OrganizerEventTimeTransform 0x000191f4   Section       40  qtorganizer_symbian.in(.constdata__ZTV27OrganizerEventTimeTransform)
    .constdata__ZTV27QOrganizerItemSymbianEngine 0x0001921c   Section      188  qtorganizer_symbian.in(.constdata__ZTV27QOrganizerItemSymbianEngine)
    .constdata__ZTV28OrganizerItemDetailTransform 0x000192d8   Section       40  qtorganizer_symbian.in(.constdata__ZTV28OrganizerItemDetailTransform)
    .constdata__ZTV28OrganizerItemParentTransform 0x00019300   Section       40  qtorganizer_symbian.in(.constdata__ZTV28OrganizerItemParentTransform)
    .constdata__ZTV28QOrganizerItemSymbianFactory 0x00019328   Section      108  qtorganizer_symbian.in(.constdata__ZTV28QOrganizerItemSymbianFactory)
    .constdata__ZTV29OrganizerJournalTimeTransform 0x00019394   Section       40  qtorganizer_symbian.in(.constdata__ZTV29OrganizerJournalTimeTransform)
    .constdata__ZTV29QOrganizerItemSymbianEngineId 0x000193bc   Section       44  qtorganizer_symbian.in(.constdata__ZTV29QOrganizerItemSymbianEngineId)
    .constdata__ZTV30OrganizerItemLocationTransform 0x000193e8   Section       40  qtorganizer_symbian.in(.constdata__ZTV30OrganizerItemLocationTransform)
    .constdata__ZTV30OrganizerItemPriorityTransform 0x00019410   Section       40  qtorganizer_symbian.in(.constdata__ZTV30OrganizerItemPriorityTransform)
    .constdata__ZTV30OrganizerItemReminderTransform 0x00019438   Section       40  qtorganizer_symbian.in(.constdata__ZTV30OrganizerItemReminderTransform)
    .constdata__ZTV30OrganizerTodoProgressTransform 0x00019460   Section       40  qtorganizer_symbian.in(.constdata__ZTV30OrganizerTodoProgressTransform)
    .constdata__ZTV31OrganizerItemTimeStampTransform 0x00019488   Section       40  qtorganizer_symbian.in(.constdata__ZTV31OrganizerItemTimeStampTransform)
    .constdata__ZTV32OrganizerItemRecurrenceTransform 0x000194b0   Section       40  qtorganizer_symbian.in(.constdata__ZTV32OrganizerItemRecurrenceTransform)
    .constdata__ZTV33OrganizerItemDescriptionTransform 0x000194d8   Section       40  qtorganizer_symbian.in(.constdata__ZTV33OrganizerItemDescriptionTransform)
    .constdata__ZTV33OrganizerSymbianCollectionPrivate 0x00019500   Section       36  qtorganizer_symbian.in(.constdata__ZTV33OrganizerSymbianCollectionPrivate)
    .constdata__ZTV34OrganizerItemDisplayLabelTransform 0x00019524   Section       40  qtorganizer_symbian.in(.constdata__ZTV34OrganizerItemDisplayLabelTransform)
    .constdata__ZTV35QOrganizerCollectionSymbianEngineId 0x0001954c   Section       44  qtorganizer_symbian.in(.constdata__ZTV35QOrganizerCollectionSymbianEngineId)
    .constdata__ZTV37COrganizerItemRequestsServiceProvider 0x00019578   Section       32  qtorganizer_symbian.in(.constdata__ZTV37COrganizerItemRequestsServiceProvider)
    .constdata__ZTVN10QtMobility22QOrganizerItemEngineIdE 0x00019598   Section       44  qtorganizer_symbian.in(.constdata__ZTVN10QtMobility22QOrganizerItemEngineIdE)
    .constdata__ZTVN10QtMobility28QOrganizerCollectionEngineIdE 0x000195c4   Section       44  qtorganizer_symbian.in(.constdata__ZTVN10QtMobility28QOrganizerCollectionEngineIdE)
    .ARM.exidx                               0x000195f0   Section        8  ucppinit_aeabi.o(.ARM.exidx)
    .data$0                                  0x00400000   Data           0  qtorganizer_symbian.in(.data)
    _ZGV_instance@qt_plugin_instance_0       0x00400000   Data           4  qtorganizer_symbian.in(.data)
    .data                                    0x00400000   Section       24  qtorganizer_symbian.in(.data)
    _instance@qt_plugin_instance_1           0x00400004   Data           4  qtorganizer_symbian.in(.data)
    _ZGVmanagerUri@_ZNK35QOrganizerCollectionSymbianEngineId10managerUriEv_0 0x00400008   Data           4  qtorganizer_symbian.in(.data)
    managerUri@_ZNK35QOrganizerCollectionSymbianEngineId10managerUriEv_1 0x0040000c   Data           4  qtorganizer_symbian.in(.data)
    _ZGVmanagerUri@_ZNK29QOrganizerItemSymbianEngineId10managerUriEv_0 0x00400010   Data           4  qtorganizer_symbian.in(.data)
    managerUri@_ZNK29QOrganizerItemSymbianEngineId10managerUriEv_1 0x00400014   Data           4  qtorganizer_symbian.in(.data)
    .data$0                                  0x00400018   Data           0  ucppfini.o(.data)
    .data                                    0x00400018   Section        4  ucppfini.o(.data)
    .data__ZZN11QMetaTypeIdIN10QtMobility16QOrganizerItemIdEE14qt_metatype_idEvE11metatype_id 0x0040001c   Section        4  qtorganizer_symbian.in(.data__ZZN11QMetaTypeIdIN10QtMobility16QOrganizerItemIdEE14qt_metatype_idEvE11metatype_id)
    .bss$5                                   0x00400020   Data           0  ucppfini.o(.bss)
    dtor_rec                                 0x00400020   Data        2048  ucppfini.o(.bss)
    .bss                                     0x00400020   Section     2048  ucppfini.o(.bss)

    Global Symbols

    Symbol Name                              Value     Ov Type        Size  Object(Section)

    BuildAttributes$$THUMB_ISAv2$ARM_ISAv5$M$PE$A:L22$X:L11$S22$IEEE1$IW$USESV6$~STKCKD$USESV7$~SHL$OSPACE$IEEEJ$EBA8$UX$REQ8$PRES8$EABIv2 0x00000000   Number         0  anon$$obj.o ABSOLUTE
    #<DLL>QtCore{00040703}[2001b2dc].dll#<\DLL>112  - Undefined Reference
    #<DLL>QtCore{00040703}[2001b2dc].dll#<\DLL>113  - Undefined Reference
    #<DLL>QtCore{00040703}[2001b2dc].dll#<\DLL>138  - Undefined Reference
    #<DLL>QtCore{00040703}[2001b2dc].dll#<\DLL>144  - Undefined Reference
    #<DLL>QtCore{00040703}[2001b2dc].dll#<\DLL>14b  - Undefined Reference
    #<DLL>QtCore{00040703}[2001b2dc].dll#<\DLL>14c  - Undefined Reference
    #<DLL>QtCore{00040703}[2001b2dc].dll#<\DLL>14f  - Undefined Reference
    #<DLL>QtCore{00040703}[2001b2dc].dll#<\DLL>150  - Undefined Reference
    #<DLL>QtCore{00040703}[2001b2dc].dll#<\DLL>20  - Undefined Reference
    #<DLL>QtCore{00040703}[2001b2dc].dll#<\DLL>2e5  - Undefined Reference
    #<DLL>QtCore{00040703}[2001b2dc].dll#<\DLL>46  - Undefined Reference
    #<DLL>QtCore{00040703}[2001b2dc].dll#<\DLL>4e  - Undefined Reference
    #<DLL>QtCore{00040703}[2001b2dc].dll#<\DLL>58  - Undefined Reference
    #<DLL>QtCore{00040703}[2001b2dc].dll#<\DLL>62e  - Undefined Reference
    #<DLL>QtCore{00040703}[2001b2dc].dll#<\DLL>66b  - Undefined Reference
    #<DLL>QtCore{00040703}[2001b2dc].dll#<\DLL>6aa  - Undefined Reference
    #<DLL>QtCore{00040703}[2001b2dc].dll#<\DLL>6e0  - Undefined Reference
    #<DLL>QtCore{00040703}[2001b2dc].dll#<\DLL>6e1  - Undefined Reference
    #<DLL>QtCore{00040703}[2001b2dc].dll#<\DLL>6e3  - Undefined Reference
    #<DLL>QtCore{00040703}[2001b2dc].dll#<\DLL>6e4  - Undefined Reference
    #<DLL>QtCore{00040703}[2001b2dc].dll#<\DLL>6e5  - Undefined Reference
    #<DLL>QtCore{00040703}[2001b2dc].dll#<\DLL>6e6  - Undefined Reference
    #<DLL>QtCore{00040703}[2001b2dc].dll#<\DLL>6e7  - Undefined Reference
    #<DLL>QtCore{00040703}[2001b2dc].dll#<\DLL>6e8  - Undefined Reference
    #<DLL>QtCore{00040703}[2001b2dc].dll#<\DLL>6ed  - Undefined Reference
    #<DLL>QtCore{00040703}[2001b2dc].dll#<\DLL>6f1  - Undefined Reference
    #<DLL>QtCore{00040703}[2001b2dc].dll#<\DLL>6f8  - Undefined Reference
    #<DLL>QtCore{00040703}[2001b2dc].dll#<\DLL>6f9  - Undefined Reference
    #<DLL>QtCore{00040703}[2001b2dc].dll#<\DLL>6fd  - Undefined Reference
    #<DLL>QtCore{00040703}[2001b2dc].dll#<\DLL>702  - Undefined Reference
    #<DLL>QtCore{00040703}[2001b2dc].dll#<\DLL>716  - Undefined Reference
    #<DLL>QtCore{00040703}[2001b2dc].dll#<\DLL>721  - Undefined Reference
    #<DLL>QtCore{00040703}[2001b2dc].dll#<\DLL>722  - Undefined Reference
    #<DLL>QtCore{00040703}[2001b2dc].dll#<\DLL>726  - Undefined Reference
    #<DLL>QtCore{00040703}[2001b2dc].dll#<\DLL>72c  - Undefined Reference
    #<DLL>QtCore{00040703}[2001b2dc].dll#<\DLL>732  - Undefined Reference
    #<DLL>QtCore{00040703}[2001b2dc].dll#<\DLL>737  - Undefined Reference
    #<DLL>QtCore{00040703}[2001b2dc].dll#<\DLL>74f  - Undefined Reference
    #<DLL>QtCore{00040703}[2001b2dc].dll#<\DLL>752  - Undefined Reference
    #<DLL>QtCore{00040703}[2001b2dc].dll#<\DLL>753  - Undefined Reference
    #<DLL>QtCore{00040703}[2001b2dc].dll#<\DLL>75d  - Undefined Reference
    #<DLL>QtCore{00040703}[2001b2dc].dll#<\DLL>79b  - Undefined Reference
    #<DLL>QtCore{00040703}[2001b2dc].dll#<\DLL>79d  - Undefined Reference
    #<DLL>QtCore{00040703}[2001b2dc].dll#<\DLL>7e4  - Undefined Reference
    #<DLL>QtCore{00040703}[2001b2dc].dll#<\DLL>7f2  - Undefined Reference
    #<DLL>QtCore{00040703}[2001b2dc].dll#<\DLL>7f4  - Undefined Reference
    #<DLL>QtCore{00040703}[2001b2dc].dll#<\DLL>7f8  - Undefined Reference
    #<DLL>QtCore{00040703}[2001b2dc].dll#<\DLL>7fa  - Undefined Reference
    #<DLL>QtCore{00040703}[2001b2dc].dll#<\DLL>822  - Undefined Reference
    #<DLL>QtCore{00040703}[2001b2dc].dll#<\DLL>82f  - Undefined Reference
    #<DLL>QtCore{00040703}[2001b2dc].dll#<\DLL>831  - Undefined Reference
    #<DLL>QtCore{00040703}[2001b2dc].dll#<\DLL>833  - Undefined Reference
    #<DLL>QtCore{00040703}[2001b2dc].dll#<\DLL>834  - Undefined Reference
    #<DLL>QtCore{00040703}[2001b2dc].dll#<\DLL>836  - Undefined Reference
    #<DLL>QtCore{00040703}[2001b2dc].dll#<\DLL>837  - Undefined Reference
    #<DLL>QtCore{00040703}[2001b2dc].dll#<\DLL>838  - Undefined Reference
    #<DLL>QtCore{00040703}[2001b2dc].dll#<\DLL>839  - Undefined Reference
    #<DLL>QtCore{00040703}[2001b2dc].dll#<\DLL>83e  - Undefined Reference
    #<DLL>QtCore{00040703}[2001b2dc].dll#<\DLL>840  - Undefined Reference
    #<DLL>QtCore{00040703}[2001b2dc].dll#<\DLL>856  - Undefined Reference
    #<DLL>QtCore{00040703}[2001b2dc].dll#<\DLL>85d  - Undefined Reference
    #<DLL>QtCore{00040703}[2001b2dc].dll#<\DLL>85f  - Undefined Reference
    #<DLL>QtCore{00040703}[2001b2dc].dll#<\DLL>88c  - Undefined Reference
    #<DLL>QtCore{00040703}[2001b2dc].dll#<\DLL>88f  - Undefined Reference
    #<DLL>QtCore{00040703}[2001b2dc].dll#<\DLL>891  - Undefined Reference
    #<DLL>QtCore{00040703}[2001b2dc].dll#<\DLL>895  - Undefined Reference
    #<DLL>QtCore{00040703}[2001b2dc].dll#<\DLL>897  - Undefined Reference
    #<DLL>QtCore{00040703}[2001b2dc].dll#<\DLL>911  - Undefined Reference
    #<DLL>QtCore{00040703}[2001b2dc].dll#<\DLL>96  - Undefined Reference
    #<DLL>QtCore{00040703}[2001b2dc].dll#<\DLL>af  - Undefined Reference
    #<DLL>QtCore{00040703}[2001b2dc].dll#<\DLL>b3  - Undefined Reference
    #<DLL>QtCore{00040703}[2001b2dc].dll#<\DLL>b43  - Undefined Reference
    #<DLL>QtCore{00040703}[2001b2dc].dll#<\DLL>b44  - Undefined Reference
    #<DLL>QtCore{00040703}[2001b2dc].dll#<\DLL>b45  - Undefined Reference
    #<DLL>QtCore{00040703}[2001b2dc].dll#<\DLL>b47  - Undefined Reference
    #<DLL>QtCore{00040703}[2001b2dc].dll#<\DLL>b48  - Undefined Reference
    #<DLL>QtCore{00040703}[2001b2dc].dll#<\DLL>b4d  - Undefined Reference
    #<DLL>QtCore{00040703}[2001b2dc].dll#<\DLL>b61  - Undefined Reference
    #<DLL>QtCore{00040703}[2001b2dc].dll#<\DLL>b62  - Undefined Reference
    #<DLL>QtCore{00040703}[2001b2dc].dll#<\DLL>b63  - Undefined Reference
    #<DLL>QtCore{00040703}[2001b2dc].dll#<\DLL>b64  - Undefined Reference
    #<DLL>QtCore{00040703}[2001b2dc].dll#<\DLL>be0  - Undefined Reference
    #<DLL>QtCore{00040703}[2001b2dc].dll#<\DLL>be1  - Undefined Reference
    #<DLL>QtCore{00040703}[2001b2dc].dll#<\DLL>be9  - Undefined Reference
    #<DLL>QtCore{00040703}[2001b2dc].dll#<\DLL>bed  - Undefined Reference
    #<DLL>QtCore{00040703}[2001b2dc].dll#<\DLL>bf6  - Undefined Reference
    #<DLL>QtCore{00040703}[2001b2dc].dll#<\DLL>bf8  - Undefined Reference
    #<DLL>QtCore{00040703}[2001b2dc].dll#<\DLL>bfb  - Undefined Reference
    #<DLL>QtCore{00040703}[2001b2dc].dll#<\DLL>bfd  - Undefined Reference
    #<DLL>QtCore{00040703}[2001b2dc].dll#<\DLL>c19  - Undefined Reference
    #<DLL>QtCore{00040703}[2001b2dc].dll#<\DLL>c1a  - Undefined Reference
    #<DLL>QtCore{00040703}[2001b2dc].dll#<\DLL>c1d  - Undefined Reference
    #<DLL>QtCore{00040703}[2001b2dc].dll#<\DLL>c49  - Undefined Reference
    #<DLL>QtCore{00040703}[2001b2dc].dll#<\DLL>c5d  - Undefined Reference
    #<DLL>QtCore{00040703}[2001b2dc].dll#<\DLL>c5e  - Undefined Reference
    #<DLL>QtCore{00040703}[2001b2dc].dll#<\DLL>c61  - Undefined Reference
    #<DLL>QtCore{00040703}[2001b2dc].dll#<\DLL>c62  - Undefined Reference
    #<DLL>QtCore{00040703}[2001b2dc].dll#<\DLL>c63  - Undefined Reference
    #<DLL>QtCore{00040703}[2001b2dc].dll#<\DLL>c65  - Undefined Reference
    #<DLL>QtCore{00040703}[2001b2dc].dll#<\DLL>c69  - Undefined Reference
    #<DLL>QtCore{00040703}[2001b2dc].dll#<\DLL>c6d  - Undefined Reference
    #<DLL>QtCore{00040703}[2001b2dc].dll#<\DLL>c73  - Undefined Reference
    #<DLL>QtCore{00040703}[2001b2dc].dll#<\DLL>d9c  - Undefined Reference
    #<DLL>QtCore{00040703}[2001b2dc].dll#<\DLL>e17  - Undefined Reference
    #<DLL>QtCore{00040703}[2001b2dc].dll#<\DLL>e18  - Undefined Reference
    #<DLL>QtCore{00040703}[2001b2dc].dll#<\DLL>e19  - Undefined Reference
    #<DLL>QtCore{00040703}[2001b2dc].dll#<\DLL>e1a  - Undefined Reference
    #<DLL>QtCore{00040703}[2001b2dc].dll#<\DLL>e69  - Undefined Reference
    #<DLL>QtCore{00040703}[2001b2dc].dll#<\DLL>e6b  - Undefined Reference
    #<DLL>QtCore{00040703}[2001b2dc].dll#<\DLL>e6c  - Undefined Reference
    #<DLL>QtOrganizer{00010103}[2002bfcd].dll#<\DLL>100  - Undefined Reference
    #<DLL>QtOrganizer{00010103}[2002bfcd].dll#<\DLL>102  - Undefined Reference
    #<DLL>QtOrganizer{00010103}[2002bfcd].dll#<\DLL>10d  - Undefined Reference
    #<DLL>QtOrganizer{00010103}[2002bfcd].dll#<\DLL>11  - Undefined Reference
    #<DLL>QtOrganizer{00010103}[2002bfcd].dll#<\DLL>112  - Undefined Reference
    #<DLL>QtOrganizer{00010103}[2002bfcd].dll#<\DLL>115  - Undefined Reference
    #<DLL>QtOrganizer{00010103}[2002bfcd].dll#<\DLL>116  - Undefined Reference
    #<DLL>QtOrganizer{00010103}[2002bfcd].dll#<\DLL>117  - Undefined Reference
    #<DLL>QtOrganizer{00010103}[2002bfcd].dll#<\DLL>118  - Undefined Reference
    #<DLL>QtOrganizer{00010103}[2002bfcd].dll#<\DLL>11a  - Undefined Reference
    #<DLL>QtOrganizer{00010103}[2002bfcd].dll#<\DLL>11b  - Undefined Reference
    #<DLL>QtOrganizer{00010103}[2002bfcd].dll#<\DLL>11d  - Undefined Reference
    #<DLL>QtOrganizer{00010103}[2002bfcd].dll#<\DLL>11e  - Undefined Reference
    #<DLL>QtOrganizer{00010103}[2002bfcd].dll#<\DLL>11f  - Undefined Reference
    #<DLL>QtOrganizer{00010103}[2002bfcd].dll#<\DLL>12  - Undefined Reference
    #<DLL>QtOrganizer{00010103}[2002bfcd].dll#<\DLL>120  - Undefined Reference
    #<DLL>QtOrganizer{00010103}[2002bfcd].dll#<\DLL>121  - Undefined Reference
    #<DLL>QtOrganizer{00010103}[2002bfcd].dll#<\DLL>122  - Undefined Reference
    #<DLL>QtOrganizer{00010103}[2002bfcd].dll#<\DLL>123  - Undefined Reference
    #<DLL>QtOrganizer{00010103}[2002bfcd].dll#<\DLL>126  - Undefined Reference
    #<DLL>QtOrganizer{00010103}[2002bfcd].dll#<\DLL>129  - Undefined Reference
    #<DLL>QtOrganizer{00010103}[2002bfcd].dll#<\DLL>12b  - Undefined Reference
    #<DLL>QtOrganizer{00010103}[2002bfcd].dll#<\DLL>12c  - Undefined Reference
    #<DLL>QtOrganizer{00010103}[2002bfcd].dll#<\DLL>13  - Undefined Reference
    #<DLL>QtOrganizer{00010103}[2002bfcd].dll#<\DLL>132  - Undefined Reference
    #<DLL>QtOrganizer{00010103}[2002bfcd].dll#<\DLL>133  - Undefined Reference
    #<DLL>QtOrganizer{00010103}[2002bfcd].dll#<\DLL>134  - Undefined Reference
    #<DLL>QtOrganizer{00010103}[2002bfcd].dll#<\DLL>135  - Undefined Reference
    #<DLL>QtOrganizer{00010103}[2002bfcd].dll#<\DLL>137  - Undefined Reference
    #<DLL>QtOrganizer{00010103}[2002bfcd].dll#<\DLL>139  - Undefined Reference
    #<DLL>QtOrganizer{00010103}[2002bfcd].dll#<\DLL>13a  - Undefined Reference
    #<DLL>QtOrganizer{00010103}[2002bfcd].dll#<\DLL>13b  - Undefined Reference
    #<DLL>QtOrganizer{00010103}[2002bfcd].dll#<\DLL>13c  - Undefined Reference
    #<DLL>QtOrganizer{00010103}[2002bfcd].dll#<\DLL>13d  - Undefined Reference
    #<DLL>QtOrganizer{00010103}[2002bfcd].dll#<\DLL>13e  - Undefined Reference
    #<DLL>QtOrganizer{00010103}[2002bfcd].dll#<\DLL>141  - Undefined Reference
    #<DLL>QtOrganizer{00010103}[2002bfcd].dll#<\DLL>168  - Undefined Reference
    #<DLL>QtOrganizer{00010103}[2002bfcd].dll#<\DLL>170  - Undefined Reference
    #<DLL>QtOrganizer{00010103}[2002bfcd].dll#<\DLL>18  - Undefined Reference
    #<DLL>QtOrganizer{00010103}[2002bfcd].dll#<\DLL>1a  - Undefined Reference
    #<DLL>QtOrganizer{00010103}[2002bfcd].dll#<\DLL>1a9  - Undefined Reference
    #<DLL>QtOrganizer{00010103}[2002bfcd].dll#<\DLL>1ac  - Undefined Reference
    #<DLL>QtOrganizer{00010103}[2002bfcd].dll#<\DLL>1b1  - Undefined Reference
    #<DLL>QtOrganizer{00010103}[2002bfcd].dll#<\DLL>1b6  - Undefined Reference
    #<DLL>QtOrganizer{00010103}[2002bfcd].dll#<\DLL>1b9  - Undefined Reference
    #<DLL>QtOrganizer{00010103}[2002bfcd].dll#<\DLL>1c6  - Undefined Reference
    #<DLL>QtOrganizer{00010103}[2002bfcd].dll#<\DLL>1cb  - Undefined Reference
    #<DLL>QtOrganizer{00010103}[2002bfcd].dll#<\DLL>1cc  - Undefined Reference
    #<DLL>QtOrganizer{00010103}[2002bfcd].dll#<\DLL>1cd  - Undefined Reference
    #<DLL>QtOrganizer{00010103}[2002bfcd].dll#<\DLL>1ce  - Undefined Reference
    #<DLL>QtOrganizer{00010103}[2002bfcd].dll#<\DLL>1cf  - Undefined Reference
    #<DLL>QtOrganizer{00010103}[2002bfcd].dll#<\DLL>1d0  - Undefined Reference
    #<DLL>QtOrganizer{00010103}[2002bfcd].dll#<\DLL>1d3  - Undefined Reference
    #<DLL>QtOrganizer{00010103}[2002bfcd].dll#<\DLL>1d5  - Undefined Reference
    #<DLL>QtOrganizer{00010103}[2002bfcd].dll#<\DLL>1d8  - Undefined Reference
    #<DLL>QtOrganizer{00010103}[2002bfcd].dll#<\DLL>2  - Undefined Reference
    #<DLL>QtOrganizer{00010103}[2002bfcd].dll#<\DLL>200  - Undefined Reference
    #<DLL>QtOrganizer{00010103}[2002bfcd].dll#<\DLL>201  - Undefined Reference
    #<DLL>QtOrganizer{00010103}[2002bfcd].dll#<\DLL>202  - Undefined Reference
    #<DLL>QtOrganizer{00010103}[2002bfcd].dll#<\DLL>203  - Undefined Reference
    #<DLL>QtOrganizer{00010103}[2002bfcd].dll#<\DLL>206  - Undefined Reference
    #<DLL>QtOrganizer{00010103}[2002bfcd].dll#<\DLL>208  - Undefined Reference
    #<DLL>QtOrganizer{00010103}[2002bfcd].dll#<\DLL>23b  - Undefined Reference
    #<DLL>QtOrganizer{00010103}[2002bfcd].dll#<\DLL>23f  - Undefined Reference
    #<DLL>QtOrganizer{00010103}[2002bfcd].dll#<\DLL>25b  - Undefined Reference
    #<DLL>QtOrganizer{00010103}[2002bfcd].dll#<\DLL>25c  - Undefined Reference
    #<DLL>QtOrganizer{00010103}[2002bfcd].dll#<\DLL>25d  - Undefined Reference
    #<DLL>QtOrganizer{00010103}[2002bfcd].dll#<\DLL>25e  - Undefined Reference
    #<DLL>QtOrganizer{00010103}[2002bfcd].dll#<\DLL>25f  - Undefined Reference
    #<DLL>QtOrganizer{00010103}[2002bfcd].dll#<\DLL>260  - Undefined Reference
    #<DLL>QtOrganizer{00010103}[2002bfcd].dll#<\DLL>261  - Undefined Reference
    #<DLL>QtOrganizer{00010103}[2002bfcd].dll#<\DLL>267  - Undefined Reference
    #<DLL>QtOrganizer{00010103}[2002bfcd].dll#<\DLL>279  - Undefined Reference
    #<DLL>QtOrganizer{00010103}[2002bfcd].dll#<\DLL>282  - Undefined Reference
    #<DLL>QtOrganizer{00010103}[2002bfcd].dll#<\DLL>283  - Undefined Reference
    #<DLL>QtOrganizer{00010103}[2002bfcd].dll#<\DLL>285  - Undefined Reference
    #<DLL>QtOrganizer{00010103}[2002bfcd].dll#<\DLL>2a1  - Undefined Reference
    #<DLL>QtOrganizer{00010103}[2002bfcd].dll#<\DLL>2a2  - Undefined Reference
    #<DLL>QtOrganizer{00010103}[2002bfcd].dll#<\DLL>2a3  - Undefined Reference
    #<DLL>QtOrganizer{00010103}[2002bfcd].dll#<\DLL>2a5  - Undefined Reference
    #<DLL>QtOrganizer{00010103}[2002bfcd].dll#<\DLL>2ab  - Undefined Reference
    #<DLL>QtOrganizer{00010103}[2002bfcd].dll#<\DLL>2ad  - Undefined Reference
    #<DLL>QtOrganizer{00010103}[2002bfcd].dll#<\DLL>2ae  - Undefined Reference
    #<DLL>QtOrganizer{00010103}[2002bfcd].dll#<\DLL>2b1  - Undefined Reference
    #<DLL>QtOrganizer{00010103}[2002bfcd].dll#<\DLL>2b4  - Undefined Reference
    #<DLL>QtOrganizer{00010103}[2002bfcd].dll#<\DLL>2b7  - Undefined Reference
    #<DLL>QtOrganizer{00010103}[2002bfcd].dll#<\DLL>2b9  - Undefined Reference
    #<DLL>QtOrganizer{00010103}[2002bfcd].dll#<\DLL>2c8  - Undefined Reference
    #<DLL>QtOrganizer{00010103}[2002bfcd].dll#<\DLL>2cc  - Undefined Reference
    #<DLL>QtOrganizer{00010103}[2002bfcd].dll#<\DLL>2d  - Undefined Reference
    #<DLL>QtOrganizer{00010103}[2002bfcd].dll#<\DLL>2d0  - Undefined Reference
    #<DLL>QtOrganizer{00010103}[2002bfcd].dll#<\DLL>2d6  - Undefined Reference
    #<DLL>QtOrganizer{00010103}[2002bfcd].dll#<\DLL>2d7  - Undefined Reference
    #<DLL>QtOrganizer{00010103}[2002bfcd].dll#<\DLL>2dc  - Undefined Reference
    #<DLL>QtOrganizer{00010103}[2002bfcd].dll#<\DLL>2de  - Undefined Reference
    #<DLL>QtOrganizer{00010103}[2002bfcd].dll#<\DLL>2df  - Undefined Reference
    #<DLL>QtOrganizer{00010103}[2002bfcd].dll#<\DLL>2e1  - Undefined Reference
    #<DLL>QtOrganizer{00010103}[2002bfcd].dll#<\DLL>2e2  - Undefined Reference
    #<DLL>QtOrganizer{00010103}[2002bfcd].dll#<\DLL>2e3  - Undefined Reference
    #<DLL>QtOrganizer{00010103}[2002bfcd].dll#<\DLL>2e4  - Undefined Reference
    #<DLL>QtOrganizer{00010103}[2002bfcd].dll#<\DLL>2e5  - Undefined Reference
    #<DLL>QtOrganizer{00010103}[2002bfcd].dll#<\DLL>2e6  - Undefined Reference
    #<DLL>QtOrganizer{00010103}[2002bfcd].dll#<\DLL>2e7  - Undefined Reference
    #<DLL>QtOrganizer{00010103}[2002bfcd].dll#<\DLL>2e8  - Undefined Reference
    #<DLL>QtOrganizer{00010103}[2002bfcd].dll#<\DLL>2e9  - Undefined Reference
    #<DLL>QtOrganizer{00010103}[2002bfcd].dll#<\DLL>2ea  - Undefined Reference
    #<DLL>QtOrganizer{00010103}[2002bfcd].dll#<\DLL>2ec  - Undefined Reference
    #<DLL>QtOrganizer{00010103}[2002bfcd].dll#<\DLL>2ed  - Undefined Reference
    #<DLL>QtOrganizer{00010103}[2002bfcd].dll#<\DLL>2fa  - Undefined Reference
    #<DLL>QtOrganizer{00010103}[2002bfcd].dll#<\DLL>2fb  - Undefined Reference
    #<DLL>QtOrganizer{00010103}[2002bfcd].dll#<\DLL>2fc  - Undefined Reference
    #<DLL>QtOrganizer{00010103}[2002bfcd].dll#<\DLL>306  - Undefined Reference
    #<DLL>QtOrganizer{00010103}[2002bfcd].dll#<\DLL>308  - Undefined Reference
    #<DLL>QtOrganizer{00010103}[2002bfcd].dll#<\DLL>30f  - Undefined Reference
    #<DLL>QtOrganizer{00010103}[2002bfcd].dll#<\DLL>310  - Undefined Reference
    #<DLL>QtOrganizer{00010103}[2002bfcd].dll#<\DLL>311  - Undefined Reference
    #<DLL>QtOrganizer{00010103}[2002bfcd].dll#<\DLL>312  - Undefined Reference
    #<DLL>QtOrganizer{00010103}[2002bfcd].dll#<\DLL>313  - Undefined Reference
    #<DLL>QtOrganizer{00010103}[2002bfcd].dll#<\DLL>315  - Undefined Reference
    #<DLL>QtOrganizer{00010103}[2002bfcd].dll#<\DLL>318  - Undefined Reference
    #<DLL>QtOrganizer{00010103}[2002bfcd].dll#<\DLL>319  - Undefined Reference
    #<DLL>QtOrganizer{00010103}[2002bfcd].dll#<\DLL>31b  - Undefined Reference
    #<DLL>QtOrganizer{00010103}[2002bfcd].dll#<\DLL>31c  - Undefined Reference
    #<DLL>QtOrganizer{00010103}[2002bfcd].dll#<\DLL>322  - Undefined Reference
    #<DLL>QtOrganizer{00010103}[2002bfcd].dll#<\DLL>323  - Undefined Reference
    #<DLL>QtOrganizer{00010103}[2002bfcd].dll#<\DLL>324  - Undefined Reference
    #<DLL>QtOrganizer{00010103}[2002bfcd].dll#<\DLL>328  - Undefined Reference
    #<DLL>QtOrganizer{00010103}[2002bfcd].dll#<\DLL>32a  - Undefined Reference
    #<DLL>QtOrganizer{00010103}[2002bfcd].dll#<\DLL>336  - Undefined Reference
    #<DLL>QtOrganizer{00010103}[2002bfcd].dll#<\DLL>33d  - Undefined Reference
    #<DLL>QtOrganizer{00010103}[2002bfcd].dll#<\DLL>33e  - Undefined Reference
    #<DLL>QtOrganizer{00010103}[2002bfcd].dll#<\DLL>33f  - Undefined Reference
    #<DLL>QtOrganizer{00010103}[2002bfcd].dll#<\DLL>340  - Undefined Reference
    #<DLL>QtOrganizer{00010103}[2002bfcd].dll#<\DLL>341  - Undefined Reference
    #<DLL>QtOrganizer{00010103}[2002bfcd].dll#<\DLL>342  - Undefined Reference
    #<DLL>QtOrganizer{00010103}[2002bfcd].dll#<\DLL>350  - Undefined Reference
    #<DLL>QtOrganizer{00010103}[2002bfcd].dll#<\DLL>352  - Undefined Reference
    #<DLL>QtOrganizer{00010103}[2002bfcd].dll#<\DLL>36  - Undefined Reference
    #<DLL>QtOrganizer{00010103}[2002bfcd].dll#<\DLL>37  - Undefined Reference
    #<DLL>QtOrganizer{00010103}[2002bfcd].dll#<\DLL>38  - Undefined Reference
    #<DLL>QtOrganizer{00010103}[2002bfcd].dll#<\DLL>3c  - Undefined Reference
    #<DLL>QtOrganizer{00010103}[2002bfcd].dll#<\DLL>6  - Undefined Reference
    #<DLL>QtOrganizer{00010103}[2002bfcd].dll#<\DLL>78  - Undefined Reference
    #<DLL>QtOrganizer{00010103}[2002bfcd].dll#<\DLL>7a  - Undefined Reference
    #<DLL>QtOrganizer{00010103}[2002bfcd].dll#<\DLL>7e  - Undefined Reference
    #<DLL>QtOrganizer{00010103}[2002bfcd].dll#<\DLL>7f  - Undefined Reference
    #<DLL>QtOrganizer{00010103}[2002bfcd].dll#<\DLL>8  - Undefined Reference
    #<DLL>QtOrganizer{00010103}[2002bfcd].dll#<\DLL>82  - Undefined Reference
    #<DLL>QtOrganizer{00010103}[2002bfcd].dll#<\DLL>8a  - Undefined Reference
    #<DLL>QtOrganizer{00010103}[2002bfcd].dll#<\DLL>8c  - Undefined Reference
    #<DLL>QtOrganizer{00010103}[2002bfcd].dll#<\DLL>8e  - Undefined Reference
    #<DLL>QtOrganizer{00010103}[2002bfcd].dll#<\DLL>8f  - Undefined Reference
    #<DLL>QtOrganizer{00010103}[2002bfcd].dll#<\DLL>9  - Undefined Reference
    #<DLL>QtOrganizer{00010103}[2002bfcd].dll#<\DLL>98  - Undefined Reference
    #<DLL>QtOrganizer{00010103}[2002bfcd].dll#<\DLL>9c  - Undefined Reference
    #<DLL>QtOrganizer{00010103}[2002bfcd].dll#<\DLL>9d  - Undefined Reference
    #<DLL>QtOrganizer{00010103}[2002bfcd].dll#<\DLL>a1  - Undefined Reference
    #<DLL>QtOrganizer{00010103}[2002bfcd].dll#<\DLL>ad  - Undefined Reference
    #<DLL>QtOrganizer{00010103}[2002bfcd].dll#<\DLL>ae  - Undefined Reference
    #<DLL>QtOrganizer{00010103}[2002bfcd].dll#<\DLL>af  - Undefined Reference
    #<DLL>QtOrganizer{00010103}[2002bfcd].dll#<\DLL>b  - Undefined Reference
    #<DLL>QtOrganizer{00010103}[2002bfcd].dll#<\DLL>b3  - Undefined Reference
    #<DLL>QtOrganizer{00010103}[2002bfcd].dll#<\DLL>b5  - Undefined Reference
    #<DLL>QtOrganizer{00010103}[2002bfcd].dll#<\DLL>ba  - Undefined Reference
    #<DLL>QtOrganizer{00010103}[2002bfcd].dll#<\DLL>d  - Undefined Reference
    #<DLL>QtOrganizer{00010103}[2002bfcd].dll#<\DLL>d0  - Undefined Reference
    #<DLL>QtOrganizer{00010103}[2002bfcd].dll#<\DLL>d1  - Undefined Reference
    #<DLL>QtOrganizer{00010103}[2002bfcd].dll#<\DLL>d3  - Undefined Reference
    #<DLL>QtOrganizer{00010103}[2002bfcd].dll#<\DLL>d7  - Undefined Reference
    #<DLL>QtOrganizer{00010103}[2002bfcd].dll#<\DLL>d8  - Undefined Reference
    #<DLL>QtOrganizer{00010103}[2002bfcd].dll#<\DLL>dd  - Undefined Reference
    #<DLL>QtOrganizer{00010103}[2002bfcd].dll#<\DLL>e  - Undefined Reference
    #<DLL>QtOrganizer{00010103}[2002bfcd].dll#<\DLL>e0  - Undefined Reference
    #<DLL>QtOrganizer{00010103}[2002bfcd].dll#<\DLL>e6  - Undefined Reference
    #<DLL>QtOrganizer{00010103}[2002bfcd].dll#<\DLL>e9  - Undefined Reference
    #<DLL>QtOrganizer{00010103}[2002bfcd].dll#<\DLL>f4  - Undefined Reference
    #<DLL>QtOrganizer{00010103}[2002bfcd].dll#<\DLL>fc  - Undefined Reference
    #<DLL>QtOrganizer{00010103}[2002bfcd].dll#<\DLL>ff  - Undefined Reference
    #<DLL>calinterimapi{000a0000}[102075e4].dll#<\DLL>16  - Undefined Reference
    #<DLL>calinterimapi{000a0000}[102075e4].dll#<\DLL>17  - Undefined Reference
    #<DLL>calinterimapi{000a0000}[102075e4].dll#<\DLL>19  - Undefined Reference
    #<DLL>calinterimapi{000a0000}[102075e4].dll#<\DLL>27  - Undefined Reference
    #<DLL>calinterimapi{000a0000}[102075e4].dll#<\DLL>3  - Undefined Reference
    #<DLL>calinterimapi{000a0000}[102075e4].dll#<\DLL>3f  - Undefined Reference
    #<DLL>calinterimapi{000a0000}[102075e4].dll#<\DLL>40  - Undefined Reference
    #<DLL>calinterimapi{000a0000}[102075e4].dll#<\DLL>41  - Undefined Reference
    #<DLL>calinterimapi{000a0000}[102075e4].dll#<\DLL>42  - Undefined Reference
    #<DLL>calinterimapi{000a0000}[102075e4].dll#<\DLL>43  - Undefined Reference
    #<DLL>calinterimapi{000a0000}[102075e4].dll#<\DLL>45  - Undefined Reference
    #<DLL>calinterimapi{000a0000}[102075e4].dll#<\DLL>47  - Undefined Reference
    #<DLL>calinterimapi{000a0000}[102075e4].dll#<\DLL>4c  - Undefined Reference
    #<DLL>calinterimapi{000a0000}[102075e4].dll#<\DLL>4d  - Undefined Reference
    #<DLL>calinterimapi{000a0000}[102075e4].dll#<\DLL>4e  - Undefined Reference
    #<DLL>calinterimapi{000a0000}[102075e4].dll#<\DLL>5  - Undefined Reference
    #<DLL>calinterimapi{000a0000}[102075e4].dll#<\DLL>53  - Undefined Reference
    #<DLL>calinterimapi{000a0000}[102075e4].dll#<\DLL>54  - Undefined Reference
    #<DLL>calinterimapi{000a0000}[102075e4].dll#<\DLL>56  - Undefined Reference
    #<DLL>calinterimapi{000a0000}[102075e4].dll#<\DLL>5b  - Undefined Reference
    #<DLL>calinterimapi{000a0000}[102075e4].dll#<\DLL>5c  - Undefined Reference
    #<DLL>calinterimapi{000a0000}[102075e4].dll#<\DLL>5e  - Undefined Reference
    #<DLL>calinterimapi{000a0000}[102075e4].dll#<\DLL>5f  - Undefined Reference
    #<DLL>calinterimapi{000a0000}[102075e4].dll#<\DLL>61  - Undefined Reference
    #<DLL>calinterimapi{000a0000}[102075e4].dll#<\DLL>62  - Undefined Reference
    #<DLL>calinterimapi{000a0000}[102075e4].dll#<\DLL>63  - Undefined Reference
    #<DLL>calinterimapi{000a0000}[102075e4].dll#<\DLL>64  - Undefined Reference
    #<DLL>calinterimapi{000a0000}[102075e4].dll#<\DLL>65  - Undefined Reference
    #<DLL>calinterimapi{000a0000}[102075e4].dll#<\DLL>69  - Undefined Reference
    #<DLL>calinterimapi{000a0000}[102075e4].dll#<\DLL>6b  - Undefined Reference
    #<DLL>calinterimapi{000a0000}[102075e4].dll#<\DLL>6c  - Undefined Reference
    #<DLL>calinterimapi{000a0000}[102075e4].dll#<\DLL>6d  - Undefined Reference
    #<DLL>calinterimapi{000a0000}[102075e4].dll#<\DLL>6e  - Undefined Reference
    #<DLL>calinterimapi{000a0000}[102075e4].dll#<\DLL>70  - Undefined Reference
    #<DLL>calinterimapi{000a0000}[102075e4].dll#<\DLL>71  - Undefined Reference
    #<DLL>calinterimapi{000a0000}[102075e4].dll#<\DLL>72  - Undefined Reference
    #<DLL>calinterimapi{000a0000}[102075e4].dll#<\DLL>73  - Undefined Reference
    #<DLL>calinterimapi{000a0000}[102075e4].dll#<\DLL>74  - Undefined Reference
    #<DLL>calinterimapi{000a0000}[102075e4].dll#<\DLL>75  - Undefined Reference
    #<DLL>calinterimapi{000a0000}[102075e4].dll#<\DLL>76  - Undefined Reference
    #<DLL>calinterimapi{000a0000}[102075e4].dll#<\DLL>78  - Undefined Reference
    #<DLL>calinterimapi{000a0000}[102075e4].dll#<\DLL>7c  - Undefined Reference
    #<DLL>calinterimapi{000a0000}[102075e4].dll#<\DLL>7e  - Undefined Reference
    #<DLL>calinterimapi{000a0000}[102075e4].dll#<\DLL>7f  - Undefined Reference
    #<DLL>calinterimapi{000a0000}[102075e4].dll#<\DLL>85  - Undefined Reference
    #<DLL>calinterimapi{000a0000}[102075e4].dll#<\DLL>86  - Undefined Reference
    #<DLL>calinterimapi{000a0000}[102075e4].dll#<\DLL>87  - Undefined Reference
    #<DLL>calinterimapi{000a0000}[102075e4].dll#<\DLL>88  - Undefined Reference
    #<DLL>calinterimapi{000a0000}[102075e4].dll#<\DLL>93  - Undefined Reference
    #<DLL>calinterimapi{000a0000}[102075e4].dll#<\DLL>94  - Undefined Reference
    #<DLL>calinterimapi{000a0000}[102075e4].dll#<\DLL>95  - Undefined Reference
    #<DLL>calinterimapi{000a0000}[102075e4].dll#<\DLL>98  - Undefined Reference
    #<DLL>calinterimapi{000a0000}[102075e4].dll#<\DLL>99  - Undefined Reference
    #<DLL>calinterimapi{000a0000}[102075e4].dll#<\DLL>9b  - Undefined Reference
    #<DLL>calinterimapi{000a0000}[102075e4].dll#<\DLL>9d  - Undefined Reference
    #<DLL>calinterimapi{000a0000}[102075e4].dll#<\DLL>9e  - Undefined Reference
    #<DLL>calinterimapi{000a0000}[102075e4].dll#<\DLL>9f  - Undefined Reference
    #<DLL>calinterimapi{000a0000}[102075e4].dll#<\DLL>a0  - Undefined Reference
    #<DLL>calinterimapi{000a0000}[102075e4].dll#<\DLL>a1  - Undefined Reference
    #<DLL>calinterimapi{000a0000}[102075e4].dll#<\DLL>a2  - Undefined Reference
    #<DLL>calinterimapi{000a0000}[102075e4].dll#<\DLL>a4  - Undefined Reference
    #<DLL>calinterimapi{000a0000}[102075e4].dll#<\DLL>a5  - Undefined Reference
    #<DLL>calinterimapi{000a0000}[102075e4].dll#<\DLL>a6  - Undefined Reference
    #<DLL>calinterimapi{000a0000}[102075e4].dll#<\DLL>a7  - Undefined Reference
    #<DLL>calinterimapi{000a0000}[102075e4].dll#<\DLL>a9  - Undefined Reference
    #<DLL>calinterimapi{000a0000}[102075e4].dll#<\DLL>aa  - Undefined Reference
    #<DLL>calinterimapi{000a0000}[102075e4].dll#<\DLL>ac  - Undefined Reference
    #<DLL>calinterimapi{000a0000}[102075e4].dll#<\DLL>ad  - Undefined Reference
    #<DLL>calinterimapi{000a0000}[102075e4].dll#<\DLL>ae  - Undefined Reference
    #<DLL>calinterimapi{000a0000}[102075e4].dll#<\DLL>b1  - Undefined Reference
    #<DLL>calinterimapi{000a0000}[102075e4].dll#<\DLL>b2  - Undefined Reference
    #<DLL>calinterimapi{000a0000}[102075e4].dll#<\DLL>b3  - Undefined Reference
    #<DLL>calinterimapi{000a0000}[102075e4].dll#<\DLL>b4  - Undefined Reference
    #<DLL>calinterimapi{000a0000}[102075e4].dll#<\DLL>b5  - Undefined Reference
    #<DLL>calinterimapi{000a0000}[102075e4].dll#<\DLL>b6  - Undefined Reference
    #<DLL>calinterimapi{000a0000}[102075e4].dll#<\DLL>b7  - Undefined Reference
    #<DLL>calinterimapi{000a0000}[102075e4].dll#<\DLL>b8  - Undefined Reference
    #<DLL>calinterimapi{000a0000}[102075e4].dll#<\DLL>ba  - Undefined Reference
    #<DLL>calinterimapi{000a0000}[102075e4].dll#<\DLL>bb  - Undefined Reference
    #<DLL>calinterimapi{000a0000}[102075e4].dll#<\DLL>bc  - Undefined Reference
    #<DLL>calinterimapi{000a0000}[102075e4].dll#<\DLL>c1  - Undefined Reference
    #<DLL>calinterimapi{000a0000}[102075e4].dll#<\DLL>da  - Undefined Reference
    #<DLL>calinterimapi{000a0000}[102075e4].dll#<\DLL>db  - Undefined Reference
    #<DLL>calinterimapi{000a0000}[102075e4].dll#<\DLL>dc  - Undefined Reference
    #<DLL>calinterimapi{000a0000}[102075e4].dll#<\DLL>dd  - Undefined Reference
    #<DLL>calinterimapi{000a0000}[102075e4].dll#<\DLL>de  - Undefined Reference
    #<DLL>calinterimapi{000a0000}[102075e4].dll#<\DLL>e1  - Undefined Reference
    #<DLL>calinterimapi{000a0000}[102075e4].dll#<\DLL>e2  - Undefined Reference
    #<DLL>calinterimapi{000a0000}[102075e4].dll#<\DLL>e9  - Undefined Reference
    #<DLL>calinterimapi{000a0000}[102075e4].dll#<\DLL>ea  - Undefined Reference
    #<DLL>calinterimapi{000a0000}[102075e4].dll#<\DLL>eb  - Undefined Reference
    #<DLL>drtaeabi{000a0000}.dll#<\DLL>87     - Undefined Reference
    #<DLL>drtaeabi{000a0000}.dll#<\DLL>93     - Undefined Reference
    #<DLL>drtaeabi{000a0000}.dll#<\DLL>9b     - Undefined Reference
    #<DLL>drtaeabi{000a0000}.dll#<\DLL>9e     - Undefined Reference
    #<DLL>drtaeabi{000a0000}.dll#<\DLL>b4     - Undefined Reference
    #<DLL>drtaeabi{000a0000}.dll#<\DLL>b6     - Undefined Reference
    #<DLL>drtaeabi{000a0000}.dll#<\DLL>b7     - Undefined Reference
    #<DLL>drtaeabi{000a0000}.dll#<\DLL>b8     - Undefined Reference
    #<DLL>drtaeabi{000a0000}.dll#<\DLL>ba     - Undefined Reference
    #<DLL>drtaeabi{000a0000}.dll#<\DLL>bb     - Undefined Reference
    #<DLL>drtaeabi{000a0000}.dll#<\DLL>bc     - Undefined Reference
    #<DLL>drtaeabi{000a0000}.dll#<\DLL>bd     - Undefined Reference
    #<DLL>drtaeabi{000a0000}.dll#<\DLL>be     - Undefined Reference
    #<DLL>drtrvct2_2{000a0000}.dll#<\DLL>1c   - Undefined Reference
    #<DLL>drtrvct2_2{000a0000}.dll#<\DLL>2d   - Undefined Reference
    #<DLL>drtrvct2_2{000a0000}.dll#<\DLL>33   - Undefined Reference
    #<DLL>euser{000a0000}[100039e5].dll#<\DLL>1a8  - Undefined Reference
    #<DLL>euser{000a0000}[100039e5].dll#<\DLL>1d6  - Undefined Reference
    #<DLL>euser{000a0000}[100039e5].dll#<\DLL>1d7  - Undefined Reference
    #<DLL>euser{000a0000}[100039e5].dll#<\DLL>1d8  - Undefined Reference
    #<DLL>euser{000a0000}[100039e5].dll#<\DLL>1da  - Undefined Reference
    #<DLL>euser{000a0000}[100039e5].dll#<\DLL>1e1  - Undefined Reference
    #<DLL>euser{000a0000}[100039e5].dll#<\DLL>1f9  - Undefined Reference
    #<DLL>euser{000a0000}[100039e5].dll#<\DLL>1fb  - Undefined Reference
    #<DLL>euser{000a0000}[100039e5].dll#<\DLL>1fc  - Undefined Reference
    #<DLL>euser{000a0000}[100039e5].dll#<\DLL>244  - Undefined Reference
    #<DLL>euser{000a0000}[100039e5].dll#<\DLL>251  - Undefined Reference
    #<DLL>euser{000a0000}[100039e5].dll#<\DLL>269  - Undefined Reference
    #<DLL>euser{000a0000}[100039e5].dll#<\DLL>289  - Undefined Reference
    #<DLL>euser{000a0000}[100039e5].dll#<\DLL>28c  - Undefined Reference
    #<DLL>euser{000a0000}[100039e5].dll#<\DLL>28e  - Undefined Reference
    #<DLL>euser{000a0000}[100039e5].dll#<\DLL>29d  - Undefined Reference
    #<DLL>euser{000a0000}[100039e5].dll#<\DLL>29e  - Undefined Reference
    #<DLL>euser{000a0000}[100039e5].dll#<\DLL>29f  - Undefined Reference
    #<DLL>euser{000a0000}[100039e5].dll#<\DLL>2e  - Undefined Reference
    #<DLL>euser{000a0000}[100039e5].dll#<\DLL>2e3  - Undefined Reference
    #<DLL>euser{000a0000}[100039e5].dll#<\DLL>2e8  - Undefined Reference
    #<DLL>euser{000a0000}[100039e5].dll#<\DLL>30  - Undefined Reference
    #<DLL>euser{000a0000}[100039e5].dll#<\DLL>357  - Undefined Reference
    #<DLL>euser{000a0000}[100039e5].dll#<\DLL>35b  - Undefined Reference
    #<DLL>euser{000a0000}[100039e5].dll#<\DLL>35d  - Undefined Reference
    #<DLL>euser{000a0000}[100039e5].dll#<\DLL>37  - Undefined Reference
    #<DLL>euser{000a0000}[100039e5].dll#<\DLL>37b  - Undefined Reference
    #<DLL>euser{000a0000}[100039e5].dll#<\DLL>37e  - Undefined Reference
    #<DLL>euser{000a0000}[100039e5].dll#<\DLL>409  - Undefined Reference
    #<DLL>euser{000a0000}[100039e5].dll#<\DLL>440  - Undefined Reference
    #<DLL>euser{000a0000}[100039e5].dll#<\DLL>442  - Undefined Reference
    #<DLL>euser{000a0000}[100039e5].dll#<\DLL>443  - Undefined Reference
    #<DLL>euser{000a0000}[100039e5].dll#<\DLL>446  - Undefined Reference
    #<DLL>euser{000a0000}[100039e5].dll#<\DLL>492  - Undefined Reference
    #<DLL>euser{000a0000}[100039e5].dll#<\DLL>5cb  - Undefined Reference
    #<DLL>euser{000a0000}[100039e5].dll#<\DLL>5e3  - Undefined Reference
    #<DLL>euser{000a0000}[100039e5].dll#<\DLL>5e6  - Undefined Reference
    #<DLL>euser{000a0000}[100039e5].dll#<\DLL>636  - Undefined Reference
    #<DLL>euser{000a0000}[100039e5].dll#<\DLL>639  - Undefined Reference
    #<DLL>euser{000a0000}[100039e5].dll#<\DLL>68f  - Undefined Reference
    #<DLL>euser{000a0000}[100039e5].dll#<\DLL>6b7  - Undefined Reference
    #<DLL>euser{000a0000}[100039e5].dll#<\DLL>6c5  - Undefined Reference
    #<DLL>euser{000a0000}[100039e5].dll#<\DLL>70f  - Undefined Reference
    #<DLL>euser{000a0000}[100039e5].dll#<\DLL>80c  - Undefined Reference
    #<DLL>euser{000a0000}[100039e5].dll#<\DLL>80d  - Undefined Reference
    #<DLL>euser{000a0000}[100039e5].dll#<\DLL>822  - Undefined Reference
    #<DLL>euser{000a0000}[100039e5].dll#<\DLL>850  - Undefined Reference
    #<DLL>euser{000a0000}[100039e5].dll#<\DLL>cb  - Undefined Reference
    #<DLL>euser{000a0000}[100039e5].dll#<\DLL>cd  - Undefined Reference
    #<DLL>euser{000a0000}[100039e5].dll#<\DLL>cf  - Undefined Reference
    #<DLL>euser{000a0000}[100039e5].dll#<\DLL>d0  - Undefined Reference
    #<DLL>libc{00010000}[10207369].dll#<\DLL>15e  - Undefined Reference
    #<DLL>libstdcpp{00010000}[10282872].dll#<\DLL>3dc  - Undefined Reference
    #<DLL>libstdcpp{00010000}[10282872].dll#<\DLL>3e0  - Undefined Reference
    SHT$$INIT_ARRAY$$Base                     - Undefined Weak Reference
    SHT$$INIT_ARRAY$$Limit                    - Undefined Weak Reference
    QtMobility::QOrganizerItemGuid::DefinitionName  - Undefined Reference
    QtMobility::QOrganizerItemType::TypeJournal  - Undefined Reference
    QtMobility::QOrganizerItemType::DefinitionName  - Undefined Reference
    QtMobility::QOrganizerItemType::TypeTodoOccurrence  - Undefined Reference
    QtMobility::QOrganizerItemType::TypeEventOccurrence  - Undefined Reference
    QtMobility::QOrganizerItemType::TypeNote  - Undefined Reference
    QtMobility::QOrganizerItemType::TypeTodo  - Undefined Reference
    QtMobility::QOrganizerItemType::TypeEvent  - Undefined Reference
    QtMobility::QOrganizerTodoTime::DefinitionName  - Undefined Reference
    QtMobility::QOrganizerTodoTime::FieldDueDateTime  - Undefined Reference
    QtMobility::QOrganizerTodoTime::FieldStartDateTime  - Undefined Reference
    QtMobility::QOrganizerEventTime::DefinitionName  - Undefined Reference
    QtMobility::QOrganizerEventTime::FieldEndDateTime  - Undefined Reference
    QtMobility::QOrganizerEventTime::FieldStartDateTime  - Undefined Reference
    QtMobility::QOrganizerCollection::KeyName  - Undefined Reference
    QtMobility::QOrganizerItemParent::FieldParentId  - Undefined Reference
    QtMobility::QOrganizerItemParent::DefinitionName  - Undefined Reference
    QtMobility::QOrganizerItemParent::FieldOriginalDate  - Undefined Reference
    QtMobility::QOrganizerJournalTime::DefinitionName  - Undefined Reference
    QtMobility::QOrganizerJournalTime::FieldEntryDateTime  - Undefined Reference
    QtMobility::QOrganizerItemLocation::FieldLabel  - Undefined Reference
    QtMobility::QOrganizerItemLocation::FieldLatitude  - Undefined Reference
    QtMobility::QOrganizerItemLocation::DefinitionName  - Undefined Reference
    QtMobility::QOrganizerItemLocation::FieldLongitude  - Undefined Reference
    QtMobility::QOrganizerItemPriority::FieldPriority  - Undefined Reference
    QtMobility::QOrganizerItemPriority::DefinitionName  - Undefined Reference
    QtMobility::QOrganizerItemReminder::DefinitionName  - Undefined Reference
    QtMobility::QOrganizerItemReminder::FieldRepetitionCount  - Undefined Reference
    QtMobility::QOrganizerItemReminder::FieldRepetitionDelay  - Undefined Reference
    QtMobility::QOrganizerItemReminder::FieldSecondsBeforeStart  - Undefined Reference
    QtMobility::QOrganizerTodoProgress::FieldStatus  - Undefined Reference
    QtMobility::QOrganizerTodoProgress::DefinitionName  - Undefined Reference
    QtMobility::QOrganizerTodoProgress::FieldFinishedDateTime  - Undefined Reference
    QtMobility::QOrganizerTodoProgress::FieldPercentageComplete  - Undefined Reference
    QtMobility::QOrganizerItemTimestamp::DefinitionName  - Undefined Reference
    QtMobility::QOrganizerItemTimestamp::FieldCreationTimestamp  - Undefined Reference
    QtMobility::QOrganizerItemTimestamp::FieldModificationTimestamp  - Undefined Reference
    QtMobility::QOrganizerManagerEngine::staticMetaObject  - Undefined Reference
    QtMobility::QOrganizerItemRecurrence::DefinitionName  - Undefined Reference
    QtMobility::QOrganizerItemRecurrence::FieldExceptionRules  - Undefined Reference
    QtMobility::QOrganizerItemDescription::DefinitionName  - Undefined Reference
    QtMobility::QOrganizerItemDisplayLabel::DefinitionName  - Undefined Reference
    QObject::staticMetaObject                 - Undefined Reference
    QString::shared_null                      - Undefined Reference
    QMapData::shared_null                     - Undefined Reference
    QVariant::handler                         - Undefined Reference
    QHashData::shared_null                    - Undefined Reference
    QListData::shared_null                    - Undefined Reference
    typeinfo for XLeaveException              - Undefined Reference
    typeinfo for CActive                      - Undefined Reference
    typeinfo for QObject                      - Undefined Reference
    typeinfo for QtMobility::QOrganizerManagerEngine  - Undefined Reference
    typeinfo for QtMobility::QOrganizerManagerEngineFactory  - Undefined Reference
    typeinfo for std::exception               - Undefined Reference
    vtable for __cxxabiv1::__class_type_info  - Undefined Reference
    vtable for __cxxabiv1::__si_class_type_info  - Undefined Reference
    vtable for __cxxabiv1::__vmi_class_type_info  - Undefined Reference
    _fp_init                                  - Undefined Weak Reference
    Image$$ER_RO$$Base                       0x00008000   Number         0  anon$$obj.o(linker$$defined$$symbols)
    _E32Dll                                  0x00008000   ARM Code      40  uc_dll_.o(.emb_text)
    Symbian$$CPP$$Exception$$Descriptor      0x00008014   Data           0  uc_dll_.o(.emb_text)
    __cpp_initialize__aeabi_                 0x00008028   ARM Code      72  ucppinit_aeabi.o(.emb_text)
    QOrganizerItemRequestQueue::getStaticMetaObject() 0x00008071   Thumb Code     4  qtorganizer_symbian.in(.text)
    std::nothrow                             0x00008071   Thumb Code     0  ucppinit_aeabi.o(.emb_text)
    QOrganizerItemRequestQueue::metaObject() const 0x00008075   Thumb Code    12  qtorganizer_symbian.in(.text)
    QOrganizerItemRequestQueue::qt_metacast(const char*) 0x00008081   Thumb Code    40  qtorganizer_symbian.in(.text)
    QOrganizerItemRequestQueue::qt_metacall(QMetaObject::Call, int, void**) 0x000080a9   Thumb Code     8  qtorganizer_symbian.in(.text)
    QOrganizerItemSymbianFactory::getStaticMetaObject() 0x000080b5   Thumb Code     4  qtorganizer_symbian.in(.text)
    QOrganizerItemSymbianFactory::metaObject() const 0x000080b9   Thumb Code    12  qtorganizer_symbian.in(.text)
    QOrganizerItemSymbianFactory::qt_metacast(const char*) 0x000080c5   Thumb Code    72  qtorganizer_symbian.in(.text)
    QOrganizerItemSymbianFactory::qt_metacall(QMetaObject::Call, int, void**) 0x0000810d   Thumb Code     8  qtorganizer_symbian.in(.text)
    QOrganizerItemSymbianEngine::getStaticMetaObject() 0x00008115   Thumb Code     6  qtorganizer_symbian.in(.text)
    QOrganizerItemSymbianEngine::metaObject() const 0x0000811b   Thumb Code    14  qtorganizer_symbian.in(.text)
    QOrganizerItemSymbianEngine::qt_metacast(const char*) 0x00008129   Thumb Code    40  qtorganizer_symbian.in(.text)
    QOrganizerItemSymbianEngine::qt_metacall(QMetaObject::Call, int, void**) 0x00008151   Thumb Code     8  qtorganizer_symbian.in(.text)
    QOrganizerItemRequestQueue::QOrganizerItemRequestQueue(QOrganizerItemSymbianEngine&) 0x000081b5   Thumb Code    30  qtorganizer_symbian.in(.text)
    QOrganizerItemRequestQueue::QOrganizerItemRequestQueue__sub_object(QOrganizerItemSymbianEngine&) 0x000081b5   Thumb Code     0  qtorganizer_symbian.in(.text)
    QOrganizerItemRequestQueue::instance(QOrganizerItemSymbianEngine&) 0x000081d3   Thumb Code    28  qtorganizer_symbian.in(.text)
    QOrganizerItemRequestQueue::~QOrganizerItemRequestQueue() 0x000081ef   Thumb Code   172  qtorganizer_symbian.in(.text)
    QOrganizerItemRequestQueue::~QOrganizerItemRequestQueue__sub_object() 0x000081ef   Thumb Code     0  qtorganizer_symbian.in(.text)
    QOrganizerItemRequestQueue::~QOrganizerItemRequestQueue__deallocating() 0x0000829b   Thumb Code    16  qtorganizer_symbian.in(.text)
    QOrganizerItemRequestQueue::startRequest(QtMobility::QOrganizerAbstractRequest*) 0x000082ab   Thumb Code   138  qtorganizer_symbian.in(.text)
    QOrganizerItemRequestQueue::cancelRequest(QtMobility::QOrganizerAbstractRequest*) 0x00008335   Thumb Code    26  qtorganizer_symbian.in(.text)
    QOrganizerItemRequestQueue::waitForRequestFinished(QtMobility::QOrganizerAbstractRequest*, int) 0x0000834f   Thumb Code   208  qtorganizer_symbian.in(.text)
    QOrganizerItemRequestQueue::requestDestroyed(QtMobility::QOrganizerAbstractRequest*) 0x0000841f   Thumb Code    38  qtorganizer_symbian.in(.text)
    COrganizerItemRequestsServiceProvider::COrganizerItemRequestsServiceProvider(QOrganizerItemSymbianEngine&) 0x00008481   Thumb Code    58  qtorganizer_symbian.in(.text)
    COrganizerItemRequestsServiceProvider::COrganizerItemRequestsServiceProvider__sub_object(QOrganizerItemSymbianEngine&) 0x00008481   Thumb Code     0  qtorganizer_symbian.in(.text)
    COrganizerItemRequestsServiceProvider::NewL(QOrganizerItemSymbianEngine&) 0x000084bb   Thumb Code    18  qtorganizer_symbian.in(.text)
    COrganizerItemRequestsServiceProvider::~COrganizerItemRequestsServiceProvider() 0x000084cd   Thumb Code    44  qtorganizer_symbian.in(.text)
    COrganizerItemRequestsServiceProvider::~COrganizerItemRequestsServiceProvider__sub_object() 0x000084cd   Thumb Code     0  qtorganizer_symbian.in(.text)
    COrganizerItemRequestsServiceProvider::~COrganizerItemRequestsServiceProvider__deallocating() 0x000084f9   Thumb Code    16  qtorganizer_symbian.in(.text)
    COrganizerItemRequestsServiceProvider::SelfComplete() 0x00008509   Thumb Code    22  qtorganizer_symbian.in(.text)
    COrganizerItemRequestsServiceProvider::Reset() 0x0000851f   Thumb Code   100  qtorganizer_symbian.in(.text)
    COrganizerItemRequestsServiceProvider::StartRequest(QtMobility::QOrganizerAbstractRequest*) 0x00008583   Thumb Code   316  qtorganizer_symbian.in(.text)
    COrganizerItemRequestsServiceProvider::CancelRequest() 0x000086bf   Thumb Code    10  qtorganizer_symbian.in(.text)
    COrganizerItemRequestsServiceProvider::SaveCollections() 0x000086c9   Thumb Code   140  qtorganizer_symbian.in(.text)
    COrganizerItemRequestsServiceProvider::RemoveCollections() 0x00008755   Thumb Code   108  qtorganizer_symbian.in(.text)
    COrganizerItemRequestsServiceProvider::FetchCollections() 0x000087c1   Thumb Code    40  qtorganizer_symbian.in(.text)
    COrganizerItemRequestsServiceProvider::FetchDetailDefinition() 0x000087e9   Thumb Code   330  qtorganizer_symbian.in(.text)
    COrganizerItemRequestsServiceProvider::SaveItem() 0x00008933   Thumb Code   396  qtorganizer_symbian.in(.text)
    COrganizerItemRequestsServiceProvider::RemoveItem() 0x00008abf   Thumb Code   142  qtorganizer_symbian.in(.text)
    COrganizerItemRequestsServiceProvider::FetchItemIds() 0x00008b4d   Thumb Code   116  qtorganizer_symbian.in(.text)
    COrganizerItemRequestsServiceProvider::FetchItemsandFilter() 0x00008bc1   Thumb Code   246  qtorganizer_symbian.in(.text)
    COrganizerItemRequestsServiceProvider::FetchItemsByIds() 0x00008cb7   Thumb Code   218  qtorganizer_symbian.in(.text)
    COrganizerItemRequestsServiceProvider::FetchItemsForExport() 0x00008d91   Thumb Code   224  qtorganizer_symbian.in(.text)
    COrganizerItemRequestsServiceProvider::FetchItems() 0x00008e71   Thumb Code   134  qtorganizer_symbian.in(.text)
    COrganizerItemRequestsServiceProvider::RunL() 0x00008ef7   Thumb Code   104  qtorganizer_symbian.in(.text)
    COrganizerItemRequestsServiceProvider::DoCancel() 0x00008f5f   Thumb Code    12  qtorganizer_symbian.in(.text)
    COrganizerItemRequestsServiceProvider::RunError(int) 0x00008f6b   Thumb Code    38  qtorganizer_symbian.in(.text)
    qt_plugin_query_verification_data        0x00008f95   Thumb Code     4  qtorganizer_symbian.in(.text)
    qt_plugin_instance                       0x00008f99   Thumb Code   110  qtorganizer_symbian.in(.text)
    QOrganizerCollectionSymbianEngineId::QOrganizerCollectionSymbianEngineId() 0x00009007   Thumb Code    26  qtorganizer_symbian.in(.text)
    QOrganizerCollectionSymbianEngineId::QOrganizerCollectionSymbianEngineId__sub_object() 0x00009007   Thumb Code     0  qtorganizer_symbian.in(.text)
    QOrganizerCollectionSymbianEngineId::QOrganizerCollectionSymbianEngineId(unsigned long long) 0x00009021   Thumb Code    28  qtorganizer_symbian.in(.text)
    QOrganizerCollectionSymbianEngineId::QOrganizerCollectionSymbianEngineId__sub_object(unsigned long long) 0x00009021   Thumb Code     0  qtorganizer_symbian.in(.text)
    QOrganizerCollectionSymbianEngineId::~QOrganizerCollectionSymbianEngineId() 0x0000903d   Thumb Code     2  qtorganizer_symbian.in(.text)
    QOrganizerCollectionSymbianEngineId::~QOrganizerCollectionSymbianEngineId__sub_object() 0x0000903d   Thumb Code     0  qtorganizer_symbian.in(.text)
    QOrganizerCollectionSymbianEngineId::~QOrganizerCollectionSymbianEngineId__deallocating() 0x0000903f   Thumb Code    12  qtorganizer_symbian.in(.text)
    QOrganizerCollectionSymbianEngineId::QOrganizerCollectionSymbianEngineId(const QOrganizerCollectionSymbianEngineId&) 0x0000904b   Thumb Code    30  qtorganizer_symbian.in(.text)
    QOrganizerCollectionSymbianEngineId::QOrganizerCollectionSymbianEngineId__sub_object(const QOrganizerCollectionSymbianEngineId&) 0x0000904b   Thumb Code     0  qtorganizer_symbian.in(.text)
    QOrganizerCollectionSymbianEngineId::isEqualTo(const QtMobility::QOrganizerCollectionEngineId*) const 0x00009069   Thumb Code    24  qtorganizer_symbian.in(.text)
    QOrganizerCollectionSymbianEngineId::isLessThan(const QtMobility::QOrganizerCollectionEngineId*) const 0x00009081   Thumb Code    24  qtorganizer_symbian.in(.text)
    QOrganizerCollectionSymbianEngineId::managerUri() const 0x00009099   Thumb Code    66  qtorganizer_symbian.in(.text)
    QOrganizerCollectionSymbianEngineId::clone() const 0x000090db   Thumb Code    34  qtorganizer_symbian.in(.text)
    QOrganizerCollectionSymbianEngineId::toString() const 0x000090fd   Thumb Code    16  qtorganizer_symbian.in(.text)
    QOrganizerCollectionSymbianEngineId::debugStreamOut(QDebug&) const 0x0000910d   Thumb Code    42  qtorganizer_symbian.in(.text)
    QOrganizerCollectionSymbianEngineId::hash() const 0x00009137   Thumb Code    16  qtorganizer_symbian.in(.text)
    QOrganizerItemSymbianEngineId::QOrganizerItemSymbianEngineId() 0x00009147   Thumb Code    28  qtorganizer_symbian.in(.text)
    QOrganizerItemSymbianEngineId::QOrganizerItemSymbianEngineId__sub_object() 0x00009147   Thumb Code     0  qtorganizer_symbian.in(.text)
    QOrganizerItemSymbianEngineId::QOrganizerItemSymbianEngineId(unsigned long long, unsigned) 0x00009163   Thumb Code    32  qtorganizer_symbian.in(.text)
    QOrganizerItemSymbianEngineId::QOrganizerItemSymbianEngineId__sub_object(unsigned long long, unsigned) 0x00009163   Thumb Code     0  qtorganizer_symbian.in(.text)
    QOrganizerItemSymbianEngineId::~QOrganizerItemSymbianEngineId() 0x00009183   Thumb Code     2  qtorganizer_symbian.in(.text)
    QOrganizerItemSymbianEngineId::~QOrganizerItemSymbianEngineId__sub_object() 0x00009183   Thumb Code     0  qtorganizer_symbian.in(.text)
    QOrganizerItemSymbianEngineId::~QOrganizerItemSymbianEngineId__deallocating() 0x00009185   Thumb Code    12  qtorganizer_symbian.in(.text)
    QOrganizerItemSymbianEngineId::QOrganizerItemSymbianEngineId(const QOrganizerItemSymbianEngineId&) 0x00009191   Thumb Code    34  qtorganizer_symbian.in(.text)
    QOrganizerItemSymbianEngineId::QOrganizerItemSymbianEngineId__sub_object(const QOrganizerItemSymbianEngineId&) 0x00009191   Thumb Code     0  qtorganizer_symbian.in(.text)
    QOrganizerItemSymbianEngineId::isEqualTo(const QtMobility::QOrganizerItemEngineId*) const 0x000091b3   Thumb Code    32  qtorganizer_symbian.in(.text)
    QOrganizerItemSymbianEngineId::isLessThan(const QtMobility::QOrganizerItemEngineId*) const 0x000091d3   Thumb Code    54  qtorganizer_symbian.in(.text)
    QOrganizerItemSymbianEngineId::managerUri() const 0x00009209   Thumb Code    66  qtorganizer_symbian.in(.text)
    QOrganizerItemSymbianEngineId::clone() const 0x0000924b   Thumb Code    38  qtorganizer_symbian.in(.text)
    QOrganizerItemSymbianEngineId::toString() const 0x00009271   Thumb Code   106  qtorganizer_symbian.in(.text)
    QOrganizerItemSymbianEngineId::debugStreamOut(QDebug&) const 0x000092db   Thumb Code    64  qtorganizer_symbian.in(.text)
    QOrganizerItemSymbianEngineId::hash() const 0x0000931b   Thumb Code    18  qtorganizer_symbian.in(.text)
    QOrganizerItemSymbianEngine::transformError(int, QtMobility::QOrganizerManager::Error*) 0x0000932d   Thumb Code   272  qtorganizer_symbian.in(.text)
    QOrganizerItemSymbianEngine::initializeL() 0x0000943d   Thumb Code   140  qtorganizer_symbian.in(.text)
    QOrganizerItemSymbianEngine::QOrganizerItemSymbianEngine() 0x000094c9   Thumb Code    86  qtorganizer_symbian.in(.text)
    QOrganizerItemSymbianEngine::QOrganizerItemSymbianEngine__sub_object() 0x000094c9   Thumb Code     0  qtorganizer_symbian.in(.text)
    QOrganizerItemSymbianFactory::engine(const QMap<QString, QString>&, QtMobility::QOrganizerManager::Error*) 0x0000951f   Thumb Code   104  qtorganizer_symbian.in(.text)
    thunk{-8} to QOrganizerItemSymbianFactory::engine(const QMap<QString, QString>&, QtMobility::QOrganizerManager::Error*) 0x00009587   Thumb Code     4  qtorganizer_symbian.in(.text)
    QOrganizerItemSymbianFactory::managerName() const 0x0000958b   Thumb Code    14  qtorganizer_symbian.in(.text)
    thunk{-8} to QOrganizerItemSymbianFactory::managerName() const 0x00009599   Thumb Code     4  qtorganizer_symbian.in(.text)
    QOrganizerItemSymbianFactory::createItemEngineId(const QMap<QString, QString>&, const QString&) const 0x0000959d   Thumb Code   174  qtorganizer_symbian.in(.text)
    thunk{-8} to QOrganizerItemSymbianFactory::createItemEngineId(const QMap<QString, QString>&, const QString&) const 0x0000964b   Thumb Code     4  qtorganizer_symbian.in(.text)
    QOrganizerItemSymbianFactory::createCollectionEngineId(const QMap<QString, QString>&, const QString&) const 0x0000964f   Thumb Code    54  qtorganizer_symbian.in(.text)
    thunk{-8} to QOrganizerItemSymbianFactory::createCollectionEngineId(const QMap<QString, QString>&, const QString&) const 0x00009685   Thumb Code     4  qtorganizer_symbian.in(.text)
    QOrganizerItemSymbianEngine::~QOrganizerItemSymbianEngine() 0x00009689   Thumb Code    74  qtorganizer_symbian.in(.text)
    QOrganizerItemSymbianEngine::~QOrganizerItemSymbianEngine__sub_object() 0x00009689   Thumb Code     0  qtorganizer_symbian.in(.text)
    QOrganizerItemSymbianEngine::~QOrganizerItemSymbianEngine__deallocating() 0x000096d3   Thumb Code    16  qtorganizer_symbian.in(.text)
    QOrganizerItemSymbianEngine::managerName() const 0x000096e3   Thumb Code    14  qtorganizer_symbian.in(.text)
    QOrganizerItemSymbianEngine::managerParameters() const 0x000096f1   Thumb Code    16  qtorganizer_symbian.in(.text)
    QOrganizerItemSymbianEngine::managerVersion() const 0x00009701   Thumb Code     4  qtorganizer_symbian.in(.text)
    QOrganizerItemSymbianEngine::entryViewL(const QtMobility::QOrganizerCollectionId&) const 0x00009705   Thumb Code    98  qtorganizer_symbian.in(.text)
    QOrganizerItemSymbianEngine::findEntryL(const QtMobility::QOrganizerCollectionId&, const TDesC8&) const 0x00009767   Thumb Code    86  qtorganizer_symbian.in(.text)
    QOrganizerItemSymbianEngine::findParentEntryLC(const QtMobility::QOrganizerCollectionId&, const QtMobility::QOrganizerItem&, const TDesC8&) const 0x000097bd   Thumb Code   330  qtorganizer_symbian.in(.text)
    QOrganizerItemSymbianEngine::toItemOccurrencesL(const RPointerArray<CCalInstance>&, QtMobility::QOrganizerItem, int, QtMobility::QOrganizerCollectionId, QList<QtMobility::QOrganizerItem>&) const 0x00009907   Thumb Code   508  qtorganizer_symbian.in(.text)
    QOrganizerItemSymbianEngine::itemOccurrencesL(const QtMobility::QOrganizerItemId&, const QDateTime&, const QDateTime&, int, const QtMobility::QOrganizerItemFetchHint&) const 0x00009b03   Thumb Code   434  qtorganizer_symbian.in(.text)
    QOrganizerItemSymbianEngine::itemOccurrences(const QtMobility::QOrganizerItem&, const QDateTime&, const QDateTime&, int, const QtMobility::QOrganizerItemFetchHint&, QtMobility::QOrganizerManager::Error*) const 0x00009cb5   Thumb Code   116  qtorganizer_symbian.in(.text)
    QOrganizerItemSymbianEngine::addFilteredAndSorted(QList<QtMobility::QOrganizerItem>*, const QtMobility::QOrganizerItem&, const QtMobility::QOrganizerItemFilter&, QList<QtMobility::QOrganizerItemSortOrder>&) const 0x00009d29   Thumb Code    46  qtorganizer_symbian.in(.text)
    QOrganizerItemSymbianEngine::slowFilterItems(const QList<QtMobility::QOrganizerItem>&, const QtMobility::QOrganizerItemFilter&, QList<QtMobility::QOrganizerItemSortOrder>&) const 0x00009d57   Thumb Code   148  qtorganizer_symbian.in(.text)
    QOrganizerItemSymbianEngine::filteredSymbianCollectionsL(const QtMobility::QOrganizerItemFilter&) const 0x00009deb   Thumb Code   500  qtorganizer_symbian.in(.text)
    QOrganizerItemSymbianEngine::itemOccurrencesL(const QDateTime&, const QDateTime&, const QtMobility::QOrganizerItemFilter&, const QList<QtMobility::QOrganizerItemSortOrder>&, const QtMobility::QOrganizerItemFetchHint&) const 0x00009fdf   Thumb Code   368  qtorganizer_symbian.in(.text)
    QOrganizerItemSymbianEngine::items(const QDateTime&, const QDateTime&, const QtMobility::QOrganizerItemFilter&, const QList<QtMobility::QOrganizerItemSortOrder>&, const QtMobility::QOrganizerItemFetchHint&, QtMobility::QOrganizerManager::Error*) const 0x0000a14f   Thumb Code   102  qtorganizer_symbian.in(.text)
    QOrganizerItemSymbianEngine::itemL(const QtMobility::QOrganizerItemId&, const QtMobility::QOrganizerItemFetchHint&) const 0x0000a1b5   Thumb Code   430  qtorganizer_symbian.in(.text)
    QOrganizerItemSymbianEngine::slowFilterIdsL(const QList<QtMobility::QOrganizerItemId>&, const QtMobility::QOrganizerItemFilter&, QList<QtMobility::QOrganizerItemSortOrder>&) const 0x0000a363   Thumb Code   266  qtorganizer_symbian.in(.text)
    QOrganizerItemSymbianEngine::itemIdsL(const QList<OrganizerSymbianCollection>&, const QDateTime&, const QDateTime&) const 0x0000a46d   Thumb Code   556  qtorganizer_symbian.in(.text)
    QOrganizerItemSymbianEngine::itemIdsL(const QDateTime&, const QDateTime&, const QtMobility::QOrganizerItemFilter&, const QList<QtMobility::QOrganizerItemSortOrder>&) const 0x0000a699   Thumb Code    66  qtorganizer_symbian.in(.text)
    QOrganizerItemSymbianEngine::itemIds(const QDateTime&, const QDateTime&, const QtMobility::QOrganizerItemFilter&, const QList<QtMobility::QOrganizerItemSortOrder>&, QtMobility::QOrganizerManager::Error*) const 0x0000a6db   Thumb Code   136  qtorganizer_symbian.in(.text)
    QOrganizerItemSymbianEngine::slowFilterIdsToItemsL(const QList<QtMobility::QOrganizerItemId>&, const QtMobility::QOrganizerItemFilter&, QList<QtMobility::QOrganizerItemSortOrder>&) const 0x0000a763   Thumb Code   148  qtorganizer_symbian.in(.text)
    QOrganizerItemSymbianEngine::itemsForExportL(const QDateTime&, const QDateTime&, const QtMobility::QOrganizerItemFilter&, const QList<QtMobility::QOrganizerItemSortOrder>&) const 0x0000a7f7   Thumb Code    64  qtorganizer_symbian.in(.text)
    QOrganizerItemSymbianEngine::itemsForExport(const QDateTime&, const QDateTime&, const QtMobility::QOrganizerItemFilter&, const QList<QtMobility::QOrganizerItemSortOrder>&, const QtMobility::QOrganizerItemFetchHint&, QtMobility::QOrganizerManager::Error*) const 0x0000a837   Thumb Code    98  qtorganizer_symbian.in(.text)
    QOrganizerItemSymbianEngine::item(const QtMobility::QOrganizerItemId&, const QtMobility::QOrganizerItemFetchHint&, QtMobility::QOrganizerManager::Error*) const 0x0000a899   Thumb Code    92  qtorganizer_symbian.in(.text)
    QOrganizerItemSymbianEngine::findEntryL(const QtMobility::QOrganizerCollectionId&, const QtMobility::QOrganizerItemId&, QString) const 0x0000a8f5   Thumb Code   104  qtorganizer_symbian.in(.text)
    QOrganizerItemSymbianEngine::entryForItemL(const QtMobility::QOrganizerCollectionId&, const QtMobility::QOrganizerItem&, bool&) const 0x0000a95d   Thumb Code   128  qtorganizer_symbian.in(.text)
    QOrganizerItemSymbianEngine::entryForItemOccurrenceL(const QtMobility::QOrganizerCollectionId&, const QtMobility::QOrganizerItem&, bool&) const 0x0000a9dd   Thumb Code   432  qtorganizer_symbian.in(.text)
    QOrganizerItemSymbianEngine::collectionIdL(const QtMobility::QOrganizerItem&, const QtMobility::QOrganizerCollectionId&) const 0x0000ab8d   Thumb Code    10  qtorganizer_symbian.in(.text)
    QOrganizerItemSymbianEngine::saveItemL(QtMobility::QOrganizerItem*, QtMobility::QOrganizerItemChangeSet*) 0x0000ab97   Thumb Code   478  qtorganizer_symbian.in(.text)
    QOrganizerItemSymbianEngine::saveItem(QtMobility::QOrganizerItem*, QtMobility::QOrganizerManager::Error*) 0x0000ad75   Thumb Code   128  qtorganizer_symbian.in(.text)
    QOrganizerItemSymbianEngine::saveItems(QList<QtMobility::QOrganizerItem>*, QMap<int, QtMobility::QOrganizerManager::Error>*, QtMobility::QOrganizerManager::Error*) 0x0000adf5   Thumb Code   222  qtorganizer_symbian.in(.text)
    QOrganizerItemSymbianEngine::removeItemL(const QtMobility::QOrganizerItemId&) 0x0000aed3   Thumb Code   152  qtorganizer_symbian.in(.text)
    QOrganizerItemSymbianEngine::removeItem(const QtMobility::QOrganizerItemId&, QtMobility::QOrganizerManager::Error*) 0x0000af6b   Thumb Code   112  qtorganizer_symbian.in(.text)
    QOrganizerItemSymbianEngine::removeItems(const QList<QtMobility::QOrganizerItemId>&, QMap<int, QtMobility::QOrganizerManager::Error>*, QtMobility::QOrganizerManager::Error*) 0x0000afdb   Thumb Code   172  qtorganizer_symbian.in(.text)
    QOrganizerItemSymbianEngine::defaultCollection(QtMobility::QOrganizerManager::Error*) const 0x0000b087   Thumb Code    14  qtorganizer_symbian.in(.text)
    QOrganizerItemSymbianEngine::collection(const QtMobility::QOrganizerCollectionId&, QtMobility::QOrganizerManager::Error*) const 0x0000b095   Thumb Code    62  qtorganizer_symbian.in(.text)
    QOrganizerItemSymbianEngine::collectionsL() const 0x0000b0d3   Thumb Code   122  qtorganizer_symbian.in(.text)
    QOrganizerItemSymbianEngine::collections(QtMobility::QOrganizerManager::Error*) const 0x0000b14d   Thumb Code   124  qtorganizer_symbian.in(.text)
    QOrganizerItemSymbianEngine::saveCollectionL(QtMobility::QOrganizerCollection*) 0x0000b1c9   Thumb Code    12  qtorganizer_symbian.in(.text)
    QOrganizerItemSymbianEngine::saveCollection(QtMobility::QOrganizerCollection*, QtMobility::QOrganizerManager::Error*) 0x0000b1d5   Thumb Code   160  qtorganizer_symbian.in(.text)
    QOrganizerItemSymbianEngine::removeCollectionL(const QtMobility::QOrganizerCollectionId&) 0x0000b275   Thumb Code    12  qtorganizer_symbian.in(.text)
    QOrganizerItemSymbianEngine::removeCollection(const QtMobility::QOrganizerCollectionId&, QtMobility::QOrganizerManager::Error*) 0x0000b281   Thumb Code   110  qtorganizer_symbian.in(.text)
    QOrganizerItemSymbianEngine::compatibleItem(const QtMobility::QOrganizerItem&, QtMobility::QOrganizerManager::Error*) const 0x0000b2ef   Thumb Code   122  qtorganizer_symbian.in(.text)
    QOrganizerItemSymbianEngine::isCollectionNameAvailable(QString) const 0x0000b369   Thumb Code   138  qtorganizer_symbian.in(.text)
    QOrganizerItemSymbianEngine::compatibleCollection(const QtMobility::QOrganizerCollection&, QtMobility::QOrganizerManager::Error*) const 0x0000b3f3   Thumb Code   330  qtorganizer_symbian.in(.text)
    QOrganizerItemSymbianEngine::detailDefinitions(const QString&, QtMobility::QOrganizerManager::Error*) const 0x0000b53d   Thumb Code   136  qtorganizer_symbian.in(.text)
    QOrganizerItemSymbianEngine::hasFeature(QtMobility::QOrganizerManager::ManagerFeature, const QString&) const 0x0000b5c5   Thumb Code     4  qtorganizer_symbian.in(.text)
    QOrganizerItemSymbianEngine::isFilterSupported(const QtMobility::QOrganizerItemFilter&) const 0x0000b5c9   Thumb Code     4  qtorganizer_symbian.in(.text)
    QOrganizerItemSymbianEngine::supportedDataTypes() const 0x0000b5cd   Thumb Code    62  qtorganizer_symbian.in(.text)
    QOrganizerItemSymbianEngine::supportedItemTypes() const 0x0000b60b   Thumb Code    76  qtorganizer_symbian.in(.text)
    QOrganizerItemSymbianEngine::requestDestroyed(QtMobility::QOrganizerAbstractRequest*) 0x0000b657   Thumb Code    10  qtorganizer_symbian.in(.text)
    QOrganizerItemSymbianEngine::startRequest(QtMobility::QOrganizerAbstractRequest*) 0x0000b661   Thumb Code    10  qtorganizer_symbian.in(.text)
    QOrganizerItemSymbianEngine::cancelRequest(QtMobility::QOrganizerAbstractRequest*) 0x0000b66b   Thumb Code    10  qtorganizer_symbian.in(.text)
    QOrganizerItemSymbianEngine::waitForRequestFinished(QtMobility::QOrganizerAbstractRequest*, int) 0x0000b675   Thumb Code    10  qtorganizer_symbian.in(.text)
    QOrganizerItemSymbianEngine::instanceViewL(const QtMobility::QOrganizerCollectionId&) const 0x0000b67f   Thumb Code   122  qtorganizer_symbian.in(.text)
    OrganizerSymbianCollectionPrivate::OrganizerSymbianCollectionPrivate() 0x0000b6f9   Thumb Code    80  qtorganizer_symbian.in(.text)
    OrganizerSymbianCollectionPrivate::OrganizerSymbianCollectionPrivate__sub_object() 0x0000b6f9   Thumb Code     0  qtorganizer_symbian.in(.text)
    OrganizerSymbianCollectionPrivate::~OrganizerSymbianCollectionPrivate() 0x0000b749   Thumb Code    90  qtorganizer_symbian.in(.text)
    OrganizerSymbianCollectionPrivate::~OrganizerSymbianCollectionPrivate__sub_object() 0x0000b749   Thumb Code     0  qtorganizer_symbian.in(.text)
    OrganizerSymbianCollectionPrivate::Progress(int) 0x0000b7a3   Thumb Code     2  qtorganizer_symbian.in(.text)
    OrganizerSymbianCollectionPrivate::Completed(int) 0x0000b7a5   Thumb Code    12  qtorganizer_symbian.in(.text)
    OrganizerSymbianCollectionPrivate::NotifyProgress() 0x0000b7b1   Thumb Code     4  qtorganizer_symbian.in(.text)
    OrganizerSymbianCollectionPrivate::CalChangeNotification(RArray<TCalChangeEntry>&) 0x0000b7b5   Thumb Code   134  qtorganizer_symbian.in(.text)
    thunk{-8} to OrganizerSymbianCollectionPrivate::CalChangeNotification(RArray<TCalChangeEntry>&) 0x0000b83b   Thumb Code     4  qtorganizer_symbian.in(.text)
    OrganizerSymbianCollection::OrganizerSymbianCollection() 0x0000b83f   Thumb Code    50  qtorganizer_symbian.in(.text)
    OrganizerSymbianCollection::OrganizerSymbianCollection__sub_object() 0x0000b83f   Thumb Code     0  qtorganizer_symbian.in(.text)
    OrganizerSymbianCollection::OrganizerSymbianCollection(QtMobility::QOrganizerManagerEngine*) 0x0000b871   Thumb Code    56  qtorganizer_symbian.in(.text)
    OrganizerSymbianCollection::OrganizerSymbianCollection__sub_object(QtMobility::QOrganizerManagerEngine*) 0x0000b871   Thumb Code     0  qtorganizer_symbian.in(.text)
    OrganizerSymbianCollection::OrganizerSymbianCollection(const OrganizerSymbianCollection&) 0x0000b8a9   Thumb Code    22  qtorganizer_symbian.in(.text)
    OrganizerSymbianCollection::OrganizerSymbianCollection__sub_object(const OrganizerSymbianCollection&) 0x0000b8a9   Thumb Code     0  qtorganizer_symbian.in(.text)
    OrganizerSymbianCollection::openL(const TDesC16&) 0x0000b8bf   Thumb Code   384  qtorganizer_symbian.in(.text)
    OrganizerSymbianCollection::createViewsL() 0x0000ba3f   Thumb Code    62  qtorganizer_symbian.in(.text)
    OrganizerSymbianCollection::id() const   0x0000ba7d   Thumb Code    12  qtorganizer_symbian.in(.text)
    OrganizerSymbianCollection::calCollectionId() const 0x0000ba89   Thumb Code     8  qtorganizer_symbian.in(.text)
    OrganizerSymbianCollection::calSession() const 0x0000ba91   Thumb Code     6  qtorganizer_symbian.in(.text)
    OrganizerSymbianCollection::calEntryView() const 0x0000ba97   Thumb Code    14  qtorganizer_symbian.in(.text)
    OrganizerSymbianCollection::calInstanceView() const 0x0000baa5   Thumb Code     6  qtorganizer_symbian.in(.text)
    OrganizerSymbianCollection::fileName() const 0x0000baab   Thumb Code    16  qtorganizer_symbian.in(.text)
    OrganizerSymbianCollection::isValid() const 0x0000babb   Thumb Code    26  qtorganizer_symbian.in(.text)
    OrganizerSymbianCollection::isMarkedForDeletionL() const 0x0000bad5   Thumb Code     4  qtorganizer_symbian.in(.text)
    OrganizerSymbianCollection::toQOrganizerCollectionL() const 0x0000bad9   Thumb Code   108  qtorganizer_symbian.in(.text)
    OrganizerSymbianUtils::toQString(const TDesC8&) 0x0000bb49   Thumb Code    28  qtorganizer_symbian.in(.text)
    OrganizerSymbianUtils::toQString(const TDesC16&) 0x0000bb65   Thumb Code    28  qtorganizer_symbian.in(.text)
    OrganizerSymbianUtils::toPtrC8(const QByteArray&) 0x0000bb81   Thumb Code    24  qtorganizer_symbian.in(.text)
    OrganizerSymbianUtils::toPtrC16(const QString&) 0x0000bb99   Thumb Code    32  qtorganizer_symbian.in(.text)
    OrganizerSymbianUtils::toTTime(const QDateTime&, Qt::TimeSpec) 0x0000bbb9   Thumb Code   208  qtorganizer_symbian.in(.text)
    OrganizerSymbianUtils::toTCalTimeL(const QDateTime&) 0x0000bc89   Thumb Code    66  qtorganizer_symbian.in(.text)
    OrganizerSymbianUtils::toTCalTimeL(const QDate&) 0x0000bccb   Thumb Code    78  qtorganizer_symbian.in(.text)
    OrganizerSymbianUtils::toQDateTime(const TTime&, Qt::TimeSpec) 0x0000bd19   Thumb Code   130  qtorganizer_symbian.in(.text)
    OrganizerSymbianUtils::toQDateTimeL(const TCalTime&) 0x0000bd9b   Thumb Code    22  qtorganizer_symbian.in(.text)
    OrganizerSymbianUtils::toCollectionId(unsigned long long) 0x0000bdb1   Thumb Code    52  qtorganizer_symbian.in(.text)
    OrganizerSymbianUtils::toItemId(unsigned long long, unsigned) 0x0000bde5   Thumb Code    56  qtorganizer_symbian.in(.text)
    OrganizerSymbianUtils::toTCalLocalUid(const QtMobility::QOrganizerItemId&) 0x0000be1d   Thumb Code    10  qtorganizer_symbian.in(.text)
    OrganizerSymbianUtils::toTCalCollectionId(const QtMobility::QOrganizerItemId&) 0x0000be27   Thumb Code    14  qtorganizer_symbian.in(.text)
    OrganizerSymbianUtils::getCollectionId(const QtMobility::QOrganizerItemId&) 0x0000be35   Thumb Code    22  qtorganizer_symbian.in(.text)
    debugEntryL(const CCalEntry&)            0x0000be4d   Thumb Code   594  qtorganizer_symbian.in(.text)
    debugInstanceL(const CCalInstance&)      0x0000c09f   Thumb Code   534  qtorganizer_symbian.in(.text)
    debugSchemaDefs(const QMap<QString, QMap<QString, QtMobility::QOrganizerItemDetailDefinition>>&) 0x0000c2b5   Thumb Code   530  qtorganizer_symbian.in(.text)
    OrganizerItemTransform::OrganizerItemTransform() 0x0000c4c7   Thumb Code   666  qtorganizer_symbian.in(.text)
    OrganizerItemTransform::OrganizerItemTransform__sub_object() 0x0000c4c7   Thumb Code     0  qtorganizer_symbian.in(.text)
    OrganizerItemTransform::~OrganizerItemTransform() 0x0000c761   Thumb Code    84  qtorganizer_symbian.in(.text)
    OrganizerItemTransform::~OrganizerItemTransform__sub_object() 0x0000c761   Thumb Code     0  qtorganizer_symbian.in(.text)
    OrganizerItemTransform::modifyBaseSchemaDefinitions(QMap<QString, QMap<QString, QtMobility::QOrganizerItemDetailDefinition>>&) const 0x0000c7b5   Thumb Code   390  qtorganizer_symbian.in(.text)
    OrganizerItemTransform::toEntryL(const QtMobility::QOrganizerItem&, CCalEntry*) 0x0000c93b   Thumb Code    84  qtorganizer_symbian.in(.text)
    OrganizerItemTransform::toItemL(const CCalEntry&, QtMobility::QOrganizerItem*) const 0x0000c98f   Thumb Code    76  qtorganizer_symbian.in(.text)
    OrganizerItemTransform::toItemPostSaveL(const CCalEntry&, QtMobility::QOrganizerItem*, QString) const 0x0000c9db   Thumb Code    78  qtorganizer_symbian.in(.text)
    OrganizerItemTransform::toItemOccurrenceL(const CCalInstance&, QtMobility::QOrganizerItem*) const 0x0000ca29   Thumb Code    76  qtorganizer_symbian.in(.text)
    OrganizerItemDetailTransform::OrganizerItemDetailTransform__sub_object() 0x0000ca75   Thumb Code     6  qtorganizer_symbian.in(.text)
    OrganizerItemDetailTransform::~OrganizerItemDetailTransform() 0x0000ca7b   Thumb Code     0  qtorganizer_symbian.in(.text)
    OrganizerItemDetailTransform::~OrganizerItemDetailTransform__sub_object() 0x0000ca7b   Thumb Code     2  qtorganizer_symbian.in(.text)
    OrganizerItemDetailTransform::~OrganizerItemDetailTransform__deallocating() 0x0000ca7d   Thumb Code    12  qtorganizer_symbian.in(.text)
    OrganizerItemDetailTransform::modifyBaseSchemaDefinitions(QMap<QString, QMap<QString, QtMobility::QOrganizerItemDetailDefinition>>&) const 0x0000ca89   Thumb Code     2  qtorganizer_symbian.in(.text)
    OrganizerItemDetailTransform::transformToDetailL(const CCalInstance&, QtMobility::QOrganizerItem*) 0x0000ca8b   Thumb Code    26  qtorganizer_symbian.in(.text)
    OrganizerItemDetailTransform::transformToDetailPostSaveL(const CCalEntry&, QtMobility::QOrganizerItem*) 0x0000caa5   Thumb Code     2  qtorganizer_symbian.in(.text)
    OrganizerEventTimeTransform::transformToDetailL(const CCalEntry&, QtMobility::QOrganizerItem*) 0x0000caad   Thumb Code   258  qtorganizer_symbian.in(.text)
    OrganizerEventTimeTransform::transformToDetailL(const CCalInstance&, QtMobility::QOrganizerItem*) 0x0000cbaf   Thumb Code   256  qtorganizer_symbian.in(.text)
    OrganizerEventTimeTransform::transformToEntryL(const QtMobility::QOrganizerItem&, CCalEntry*) 0x0000ccaf   Thumb Code   282  qtorganizer_symbian.in(.text)
    OrganizerEventTimeTransform::detailDefinitionName() 0x0000cdc9   Thumb Code    12  qtorganizer_symbian.in(.text)
    OrganizerItemDescriptionTransform::transformToDetailL(const CCalEntry&, QtMobility::QOrganizerItem*) 0x0000cde1   Thumb Code    44  qtorganizer_symbian.in(.text)
    OrganizerItemDescriptionTransform::transformToEntryL(const QtMobility::QOrganizerItem&, CCalEntry*) 0x0000ce0d   Thumb Code    64  qtorganizer_symbian.in(.text)
    OrganizerItemDescriptionTransform::detailDefinitionName() 0x0000ce4d   Thumb Code    12  qtorganizer_symbian.in(.text)
    OrganizerItemDisplayLabelTransform::transformToDetailL(const CCalEntry&, QtMobility::QOrganizerItem*) 0x0000ce5d   Thumb Code    44  qtorganizer_symbian.in(.text)
    OrganizerItemDisplayLabelTransform::transformToEntryL(const QtMobility::QOrganizerItem&, CCalEntry*) 0x0000ce89   Thumb Code   104  qtorganizer_symbian.in(.text)
    OrganizerItemDisplayLabelTransform::detailDefinitionName() 0x0000cef1   Thumb Code    12  qtorganizer_symbian.in(.text)
    OrganizerItemDisplayLabelTransform::modifyBaseSchemaDefinitions(QMap<QString, QMap<QString, QtMobility::QOrganizerItemDetailDefinition>>&) const 0x0000cefd   Thumb Code   156  qtorganizer_symbian.in(.text)
    OrganizerItemGuidTransform::OrganizerItemGuidTransform() 0x0000cfa1   Thumb Code    28  qtorganizer_symbian.in(.text)
    OrganizerItemGuidTransform::OrganizerItemGuidTransform__sub_object() 0x0000cfa1   Thumb Code     0  qtorganizer_symbian.in(.text)
    OrganizerItemGuidTransform::transformToDetailL(const CCalEntry&, QtMobility::QOrganizerItem*) 0x0000cfbd   Thumb Code    44  qtorganizer_symbian.in(.text)
    OrganizerItemGuidTransform::transformToDetailPostSaveL(const CCalEntry&, QtMobility::QOrganizerItem*) 0x0000cfe9   Thumb Code     6  qtorganizer_symbian.in(.text)
    OrganizerItemGuidTransform::transformToEntryL(const QtMobility::QOrganizerItem&, CCalEntry*) 0x0000cfef   Thumb Code     2  qtorganizer_symbian.in(.text)
    OrganizerItemGuidTransform::detailDefinitionName() 0x0000cff1   Thumb Code    12  qtorganizer_symbian.in(.text)
    OrganizerItemGuidTransform::guidLC(const QtMobility::QOrganizerItem&) 0x0000cffd   Thumb Code   114  qtorganizer_symbian.in(.text)
    OrganizerItemParentTransform::transformToDetailL(const CCalEntry&, QtMobility::QOrganizerItem*) 0x0000d079   Thumb Code     2  qtorganizer_symbian.in(.text)
    OrganizerItemParentTransform::transformToDetailL(const CCalInstance&, QtMobility::QOrganizerItem*) 0x0000d07b   Thumb Code     2  qtorganizer_symbian.in(.text)
    OrganizerItemParentTransform::transformToEntryL(const QtMobility::QOrganizerItem&, CCalEntry*) 0x0000d07d   Thumb Code     2  qtorganizer_symbian.in(.text)
    OrganizerItemParentTransform::detailDefinitionName() 0x0000d07f   Thumb Code    12  qtorganizer_symbian.in(.text)
    OrganizerItemLocationTransform::modifyBaseSchemaDefinitions(QMap<QString, QMap<QString, QtMobility::QOrganizerItemDetailDefinition>>&) const 0x0000d091   Thumb Code   608  qtorganizer_symbian.in(.text)
    OrganizerItemLocationTransform::transformToDetailL(const CCalEntry&, QtMobility::QOrganizerItem*) 0x0000d2f1   Thumb Code    96  qtorganizer_symbian.in(.text)
    OrganizerItemLocationTransform::transformToEntryL(const QtMobility::QOrganizerItem&, CCalEntry*) 0x0000d351   Thumb Code   134  qtorganizer_symbian.in(.text)
    OrganizerItemLocationTransform::detailDefinitionName() 0x0000d3d7   Thumb Code    12  qtorganizer_symbian.in(.text)
    OrganizerItemPriorityTransform::transformToDetailL(const CCalEntry&, QtMobility::QOrganizerItem*) 0x0000d3fd   Thumb Code    80  qtorganizer_symbian.in(.text)
    OrganizerItemPriorityTransform::transformToEntryL(const QtMobility::QOrganizerItem&, CCalEntry*) 0x0000d44d   Thumb Code   128  qtorganizer_symbian.in(.text)
    OrganizerItemPriorityTransform::detailDefinitionName() 0x0000d4cd   Thumb Code    12  qtorganizer_symbian.in(.text)
    OrganizerItemRecurrenceTransform::modifyBaseSchemaDefinitions(QMap<QString, QMap<QString, QtMobility::QOrganizerItemDetailDefinition>>&) const 0x0000d4e5   Thumb Code   432  qtorganizer_symbian.in(.text)
    OrganizerItemRecurrenceTransform::toQDatesL(const RArray<TCalTime>&) const 0x0000d695   Thumb Code    74  qtorganizer_symbian.in(.text)
    OrganizerItemRecurrenceTransform::toDayOfWeekL(TDay) const 0x0000d6df   Thumb Code    54  qtorganizer_symbian.in(.text)
    OrganizerItemRecurrenceTransform::toMonthL(TMonth) const 0x0000d715   Thumb Code    78  qtorganizer_symbian.in(.text)
    OrganizerItemRecurrenceTransform::toFrequencyL(TCalRRule::TType) const 0x0000d763   Thumb Code    42  qtorganizer_symbian.in(.text)
    OrganizerItemRecurrenceTransform::toItemRecurrenceRulesL(const TCalRRule&) const 0x0000d78d   Thumb Code   820  qtorganizer_symbian.in(.text)
    OrganizerItemRecurrenceTransform::transformToDetailL(const CCalEntry&, QtMobility::QOrganizerItem*) 0x0000dac1   Thumb Code   210  qtorganizer_symbian.in(.text)
    OrganizerItemRecurrenceTransform::transformToDetailL(const CCalInstance&, QtMobility::QOrganizerItem*) 0x0000db93   Thumb Code     2  qtorganizer_symbian.in(.text)
    OrganizerItemRecurrenceTransform::toTCalTimesL(const QSet<QDate>&, RArray<TCalTime>&) const 0x0000db95   Thumb Code   146  qtorganizer_symbian.in(.text)
    OrganizerItemRecurrenceTransform::toTDayL(Qt::DayOfWeek) const 0x0000dc27   Thumb Code    54  qtorganizer_symbian.in(.text)
    OrganizerItemRecurrenceTransform::toTMonthL(QtMobility::QOrganizerRecurrenceRule::Month) const 0x0000dc5d   Thumb Code    80  qtorganizer_symbian.in(.text)
    OrganizerItemRecurrenceTransform::toTMonthsL(QSet<QtMobility::QOrganizerRecurrenceRule::Month>, TCalRRule&) const 0x0000dcad   Thumb Code   200  qtorganizer_symbian.in(.text)
    OrganizerItemRecurrenceTransform::toDaysOfMonthL(QSet<Qt::DayOfWeek>, QSet<int>, TCalRRule&) const 0x0000dd75   Thumb Code   280  qtorganizer_symbian.in(.text)
    OrganizerItemRecurrenceTransform::toMonthDaysL(QSet<int>, TCalRRule&) const 0x0000de8d   Thumb Code   112  qtorganizer_symbian.in(.text)
    OrganizerItemRecurrenceTransform::toDaysL(QSet<Qt::DayOfWeek>, QDateTime, TCalRRule&) const 0x0000defd   Thumb Code   156  qtorganizer_symbian.in(.text)
    OrganizerItemRecurrenceTransform::toTypeL(QtMobility::QOrganizerRecurrenceRule::Frequency) const 0x0000df99   Thumb Code    46  qtorganizer_symbian.in(.text)
    OrganizerItemRecurrenceTransform::toCalRRuleL(QSet<QtMobility::QOrganizerRecurrenceRule>, QDateTime) const 0x0000dfc7   Thumb Code   692  qtorganizer_symbian.in(.text)
    OrganizerItemRecurrenceTransform::transformToEntryL(const QtMobility::QOrganizerItem&, CCalEntry*) 0x0000e27b   Thumb Code   466  qtorganizer_symbian.in(.text)
    OrganizerItemRecurrenceTransform::detailDefinitionName() 0x0000e44d   Thumb Code    12  qtorganizer_symbian.in(.text)
    OrganizerItemTimeStampTransform::transformToDetailL(const CCalEntry&, QtMobility::QOrganizerItem*) 0x0000e475   Thumb Code   126  qtorganizer_symbian.in(.text)
    OrganizerItemTimeStampTransform::transformToDetailPostSaveL(const CCalEntry&, QtMobility::QOrganizerItem*) 0x0000e4f3   Thumb Code     6  qtorganizer_symbian.in(.text)
    OrganizerItemTimeStampTransform::transformToEntryL(const QtMobility::QOrganizerItem&, CCalEntry*) 0x0000e4f9   Thumb Code   148  qtorganizer_symbian.in(.text)
    OrganizerItemTimeStampTransform::detailDefinitionName() 0x0000e58d   Thumb Code    12  qtorganizer_symbian.in(.text)
    OrganizerItemTypeTransform::modifyBaseSchemaDefinitions(QMap<QString, QMap<QString, QtMobility::QOrganizerItemDetailDefinition>>&) const 0x0000e5a5   Thumb Code    54  qtorganizer_symbian.in(.text)
    OrganizerItemTypeTransform::transformToDetailL(const CCalEntry&, QtMobility::QOrganizerItem*) 0x0000e5db   Thumb Code   170  qtorganizer_symbian.in(.text)
    OrganizerItemTypeTransform::transformToDetailL(const CCalInstance&, QtMobility::QOrganizerItem*) 0x0000e685   Thumb Code   174  qtorganizer_symbian.in(.text)
    OrganizerItemTypeTransform::transformToEntryL(const QtMobility::QOrganizerItem&, CCalEntry*) 0x0000e733   Thumb Code     2  qtorganizer_symbian.in(.text)
    OrganizerItemTypeTransform::detailDefinitionName() 0x0000e735   Thumb Code    12  qtorganizer_symbian.in(.text)
    OrganizerItemTypeTransform::entryTypeL(const QtMobility::QOrganizerItem&) 0x0000e741   Thumb Code    98  qtorganizer_symbian.in(.text)
    OrganizerJournalTimeTransform::transformToDetailL(const CCalEntry&, QtMobility::QOrganizerItem*) 0x0000e7c1   Thumb Code   144  qtorganizer_symbian.in(.text)
    OrganizerJournalTimeTransform::transformToEntryL(const QtMobility::QOrganizerItem&, CCalEntry*) 0x0000e851   Thumb Code   116  qtorganizer_symbian.in(.text)
    OrganizerJournalTimeTransform::detailDefinitionName() 0x0000e8c5   Thumb Code    12  qtorganizer_symbian.in(.text)
    OrganizerTodoProgressTransform::modifyBaseSchemaDefinitions(QMap<QString, QMap<QString, QtMobility::QOrganizerItemDetailDefinition>>&) const 0x0000e8dd   Thumb Code   432  qtorganizer_symbian.in(.text)
    OrganizerTodoProgressTransform::transformToDetailL(const CCalEntry&, QtMobility::QOrganizerItem*) 0x0000ea8d   Thumb Code   206  qtorganizer_symbian.in(.text)
    OrganizerTodoProgressTransform::transformToEntryL(const QtMobility::QOrganizerItem&, CCalEntry*) 0x0000eb5b   Thumb Code   258  qtorganizer_symbian.in(.text)
    OrganizerTodoProgressTransform::detailDefinitionName() 0x0000ec5d   Thumb Code    12  qtorganizer_symbian.in(.text)
    OrganizerTodoTimeTransform::transformToDetailL(const CCalEntry&, QtMobility::QOrganizerItem*) 0x0000ec7d   Thumb Code   228  qtorganizer_symbian.in(.text)
    OrganizerTodoTimeTransform::transformToDetailL(const CCalInstance&, QtMobility::QOrganizerItem*) 0x0000ed61   Thumb Code   226  qtorganizer_symbian.in(.text)
    OrganizerTodoTimeTransform::transformToEntryL(const QtMobility::QOrganizerItem&, CCalEntry*) 0x0000ee43   Thumb Code   296  qtorganizer_symbian.in(.text)
    OrganizerTodoTimeTransform::detailDefinitionName() 0x0000ef6b   Thumb Code    12  qtorganizer_symbian.in(.text)
    OrganizerItemReminderTransform::modifyBaseSchemaDefinitions(QMap<QString, QMap<QString, QtMobility::QOrganizerItemDetailDefinition>>&) const 0x0000ef85   Thumb Code   498  qtorganizer_symbian.in(.text)
    OrganizerItemReminderTransform::transformToDetailL(const CCalEntry&, QtMobility::QOrganizerItem*) 0x0000f177   Thumb Code    84  qtorganizer_symbian.in(.text)
    OrganizerItemReminderTransform::transformToEntryL(const QtMobility::QOrganizerItem&, CCalEntry*) 0x0000f1cb   Thumb Code   162  qtorganizer_symbian.in(.text)
    OrganizerItemReminderTransform::detailDefinitionName() 0x0000f26d   Thumb Code    10  qtorganizer_symbian.in(.text)
    _E32Dll_Body                             0x0000f28d   Thumb Code    34  uc_dll.o(.text)
    CppBSSInitializationError                0x0000f2b4   ARM Code       4  ucppfini.o(.text)
    __aeabi_atexit                           0x0000f2b8   ARM Code      28  ucppfini.o(.text)
    __cxa_atexit                             0x0000f2d4   ARM Code      48  ucppfini.o(.text)
    __cxa_finalize                           0x0000f304   ARM Code      48  ucppfini.o(.text)
    run_static_dtors                         0x0000f334   ARM Code       8  ucppfini.o(.text)
    __DLL_Export_Table__                     0x00010334   ARM Code       0  qtorganizer_symbian{000a0000}.exp(ExportTable)
    DLL##ExportTableSize                     0x00010338   Data           0  qtorganizer_symbian{000a0000}.exp(ExportTable)
    DLL##ExportTable                         0x0001033c   Data           0  qtorganizer_symbian{000a0000}.exp(ExportTable)
    CCalEntry::SetAlarmL(CCalAlarm*)         0x00010344   ARM Code       0  calinterimapi{000a0000}-100.o(StubCode)
    CCalEntry::SetRRuleL(const TCalRRule&)   0x0001034c   ARM Code       0  calinterimapi{000a0000}-101.o(StubCode)
    CalCommon::TCalTimeRange::TCalTimeRange(TCalTime, TCalTime) 0x00010354   ARM Code       0  calinterimapi{000a0000}-105.o(StubCode)
    TCalRRule::SetByMonth(RArray<TMonth>)    0x0001035c   ARM Code       0  calinterimapi{000a0000}-107.o(StubCode)
    TCalRRule::SetDtStart(const TCalTime&)   0x00010364   ARM Code       0  calinterimapi{000a0000}-108.o(StubCode)
    TCalRRule::SetInterval(int)              0x0001036c   ARM Code       0  calinterimapi{000a0000}-109.o(StubCode)
    TCalRRule::TDayOfMonth::TDayOfMonth(TDay, signed char) 0x00010374   ARM Code       0  calinterimapi{000a0000}-110.o(StubCode)
    TCalRRule::SetByMonthDay(const RArray<int>&) 0x0001037c   ARM Code       0  calinterimapi{000a0000}-112.o(StubCode)
    TCalRRule::SetType(TCalRRule::TType)     0x00010384   ARM Code       0  calinterimapi{000a0000}-113.o(StubCode)
    TCalRRule::SetWkSt(TDay)                 0x0001038c   ARM Code       0  calinterimapi{000a0000}-114.o(StubCode)
    TCalRRule::SetByDay(const RArray<TDay>&) 0x00010394   ARM Code       0  calinterimapi{000a0000}-115.o(StubCode)
    TCalRRule::SetByDay(const RArray<TCalRRule::TDayOfMonth>&) 0x0001039c   ARM Code       0  calinterimapi{000a0000}-116.o(StubCode)
    TCalRRule::SetCount(unsigned)            0x000103a4   ARM Code       0  calinterimapi{000a0000}-117.o(StubCode)
    TCalRRule::SetUntil(const TCalTime&)     0x000103ac   ARM Code       0  calinterimapi{000a0000}-118.o(StubCode)
    TCalRRule::TCalRRule()                   0x000103b4   ARM Code       0  calinterimapi{000a0000}-120.o(StubCode)
    CCalSession::CreateCalFileL(const TDesC16&) const 0x000103bc   ARM Code       0  calinterimapi{000a0000}-124.o(StubCode)
    CCalSession::DefaultFileNameL() const    0x000103c4   ARM Code       0  calinterimapi{000a0000}-126.o(StubCode)
    CCalSession::OpenL(const TDesC16&) const 0x000103cc   ARM Code       0  calinterimapi{000a0000}-127.o(StubCode)
    CCalInstance::Time() const               0x000103d4   ARM Code       0  calinterimapi{000a0000}-133.o(StubCode)
    CCalInstance::Entry() const              0x000103dc   ARM Code       0  calinterimapi{000a0000}-134.o(StubCode)
    CCalEntryView::FetchL(const TDesC8&, RPointerArray<CCalEntry>&) const 0x000103e4   ARM Code       0  calinterimapi{000a0000}-135.o(StubCode)
    CCalInstanceView::FindInstanceL(RPointerArray<CCalInstance>&, unsigned, const CalCommon::TCalTimeRange&) const 0x000103ec   ARM Code       0  calinterimapi{000a0000}-136.o(StubCode)
    TCalTime::TimeLocalL() const             0x000103f4   ARM Code       0  calinterimapi{000a0000}-147.o(StubCode)
    TCalTime::TimeUtcL() const               0x000103fc   ARM Code       0  calinterimapi{000a0000}-148.o(StubCode)
    CCalAlarm::TimeOffset() const            0x00010404   ARM Code       0  calinterimapi{000a0000}-149.o(StubCode)
    CCalEntry::EntryTypeL() const            0x0001040c   ARM Code       0  calinterimapi{000a0000}-152.o(StubCode)
    CCalEntry::GetRDatesL(RArray<TCalTime>&) const 0x00010414   ARM Code       0  calinterimapi{000a0000}-153.o(StubCode)
    CCalEntry::StartTimeL() const            0x0001041c   ARM Code       0  calinterimapi{000a0000}-155.o(StubCode)
    CCalEntry::DescriptionL() const          0x00010424   ARM Code       0  calinterimapi{000a0000}-157.o(StubCode)
    CCalEntry::RecurrenceIdL() const         0x0001042c   ARM Code       0  calinterimapi{000a0000}-158.o(StubCode)
    CCalEntry::CompletedTimeL() const        0x00010434   ARM Code       0  calinterimapi{000a0000}-159.o(StubCode)
    CCalEntry::SequenceNumberL() const       0x0001043c   ARM Code       0  calinterimapi{000a0000}-160.o(StubCode)
    CCalEntry::LastModifiedDateL() const     0x00010444   ARM Code       0  calinterimapi{000a0000}-161.o(StubCode)
    CCalEntry::GetExceptionDatesL(RArray<TCalTime>&) const 0x0001044c   ARM Code       0  calinterimapi{000a0000}-162.o(StubCode)
    CCalEntry::UidL() const                  0x00010454   ARM Code       0  calinterimapi{000a0000}-164.o(StubCode)
    CCalEntry::AlarmL() const                0x0001045c   ARM Code       0  calinterimapi{000a0000}-165.o(StubCode)
    CCalEntry::MethodL() const               0x00010464   ARM Code       0  calinterimapi{000a0000}-166.o(StubCode)
    CCalEntry::StatusL() const               0x0001046c   ARM Code       0  calinterimapi{000a0000}-167.o(StubCode)
    CCalEntry::EndTimeL() const              0x00010474   ARM Code       0  calinterimapi{000a0000}-169.o(StubCode)
    CCalEntry::SummaryL() const              0x0001047c   ARM Code       0  calinterimapi{000a0000}-170.o(StubCode)
    CCalEntry::GetRRuleL(TCalRRule&) const   0x00010484   ARM Code       0  calinterimapi{000a0000}-172.o(StubCode)
    CCalEntry::LocationL() const             0x0001048c   ARM Code       0  calinterimapi{000a0000}-173.o(StubCode)
    CCalEntry::PriorityL() const             0x00010494   ARM Code       0  calinterimapi{000a0000}-174.o(StubCode)
    TCalRRule::GetByMonthL(RArray<TMonth>&) const 0x0001049c   ARM Code       0  calinterimapi{000a0000}-177.o(StubCode)
    TCalRRule::TDayOfMonth::WeekInMonth() const 0x000104a4   ARM Code       0  calinterimapi{000a0000}-178.o(StubCode)
    TCalRRule::TDayOfMonth::Day() const      0x000104ac   ARM Code       0  calinterimapi{000a0000}-179.o(StubCode)
    TCalRRule::GetByMonthDayL(RArray<int>&) const 0x000104b4   ARM Code       0  calinterimapi{000a0000}-180.o(StubCode)
    TCalRRule::Type() const                  0x000104bc   ARM Code       0  calinterimapi{000a0000}-181.o(StubCode)
    TCalRRule::WkSt() const                  0x000104c4   ARM Code       0  calinterimapi{000a0000}-182.o(StubCode)
    TCalRRule::Count() const                 0x000104cc   ARM Code       0  calinterimapi{000a0000}-183.o(StubCode)
    TCalRRule::Until() const                 0x000104d4   ARM Code       0  calinterimapi{000a0000}-184.o(StubCode)
    TCalRRule::Interval() const              0x000104dc   ARM Code       0  calinterimapi{000a0000}-186.o(StubCode)
    TCalRRule::GetByDayL(RArray<TDay>&) const 0x000104e4   ARM Code       0  calinterimapi{000a0000}-187.o(StubCode)
    TCalRRule::GetByDayL(RArray<TCalRRule::TDayOfMonth>&) const 0x000104ec   ARM Code       0  calinterimapi{000a0000}-188.o(StubCode)
    CCalEntry::RecurrenceRangeL() const      0x000104f4   ARM Code       0  calinterimapi{000a0000}-193.o(StubCode)
    CCalEntryView::GetIdsModifiedSinceDateL(const TCalTime&, RArray<unsigned long>&) const 0x000104fc   ARM Code       0  calinterimapi{000a0000}-218.o(StubCode)
    CCalEntryView::FetchL(unsigned long) const 0x00010504   ARM Code       0  calinterimapi{000a0000}-219.o(StubCode)
    CCalEntryView::NewL(CCalSession&, MCalProgressCallBack&) 0x0001050c   ARM Code       0  calinterimapi{000a0000}-22.o(StubCode)
    CCalEntry::LocalUidL() const             0x00010514   ARM Code       0  calinterimapi{000a0000}-220.o(StubCode)
    CCalEntry::SetDTStampL(const TCalTime&)  0x0001051c   ARM Code       0  calinterimapi{000a0000}-221.o(StubCode)
    CCalEntry::DTStampL() const              0x00010524   ARM Code       0  calinterimapi{000a0000}-222.o(StubCode)
    CCalInstance::StartTimeL() const         0x0001052c   ARM Code       0  calinterimapi{000a0000}-225.o(StubCode)
    CCalInstance::EndTimeL() const           0x00010534   ARM Code       0  calinterimapi{000a0000}-226.o(StubCode)
    CCalEntryView::StoreL(const RPointerArray<CCalEntry>&, int&) 0x0001053c   ARM Code       0  calinterimapi{000a0000}-23.o(StubCode)
    CCalSession::StartChangeNotification(MCalChangeCallBack2&, const CCalChangeNotificationFilter&) 0x00010544   ARM Code       0  calinterimapi{000a0000}-233.o(StubCode)
    CCalChangeNotificationFilter::NewL(MCalChangeCallBack2::TChangeEntryType, int, const CalCommon::TCalTimeRange&) 0x0001054c   ARM Code       0  calinterimapi{000a0000}-234.o(StubCode)
    CCalChangeNotificationFilter::~CCalChangeNotificationFilter() 0x00010554   ARM Code       0  calinterimapi{000a0000}-235.o(StubCode)
    CCalEntryView::DeleteL(const CCalEntry&) 0x0001055c   ARM Code       0  calinterimapi{000a0000}-25.o(StubCode)
    CCalSession::StopChangeNotification()    0x00010564   ARM Code       0  calinterimapi{000a0000}-3.o(StubCode)
    CCalInstanceView::NewL(CCalSession&, MCalProgressCallBack&) 0x0001056c   ARM Code       0  calinterimapi{000a0000}-39.o(StubCode)
    CCalSession::NewL()                      0x00010574   ARM Code       0  calinterimapi{000a0000}-5.o(StubCode)
    TCalTime::SetTimeUtcL(const TTime&)      0x0001057c   ARM Code       0  calinterimapi{000a0000}-63.o(StubCode)
    TCalTime::SetTimeLocalL(const TTime&)    0x00010584   ARM Code       0  calinterimapi{000a0000}-64.o(StubCode)
    TCalTime::MaxTime()                      0x0001058c   ARM Code       0  calinterimapi{000a0000}-65.o(StubCode)
    TCalTime::MinTime()                      0x00010594   ARM Code       0  calinterimapi{000a0000}-66.o(StubCode)
    TCalTime::TCalTime()                     0x0001059c   ARM Code       0  calinterimapi{000a0000}-67.o(StubCode)
    CCalAlarm::SetTimeOffset(TTimeIntervalMinutes) 0x000105a4   ARM Code       0  calinterimapi{000a0000}-69.o(StubCode)
    CCalAlarm::NewL()                        0x000105ac   ARM Code       0  calinterimapi{000a0000}-71.o(StubCode)
    CCalEntry::SetRDatesL(const RArray<TCalTime>&) 0x000105b4   ARM Code       0  calinterimapi{000a0000}-76.o(StubCode)
    CCalEntry::SetStatusL(CCalEntry::TStatus) 0x000105bc   ARM Code       0  calinterimapi{000a0000}-77.o(StubCode)
    CCalEntry::SetSummaryL(const TDesC16&)   0x000105c4   ARM Code       0  calinterimapi{000a0000}-78.o(StubCode)
    CCalEntry::SetLocationL(const TDesC16&)  0x000105cc   ARM Code       0  calinterimapi{000a0000}-83.o(StubCode)
    CCalEntry::SetPriorityL(unsigned)        0x000105d4   ARM Code       0  calinterimapi{000a0000}-84.o(StubCode)
    CCalEntry::SetCompletedL(int, const TCalTime&) 0x000105dc   ARM Code       0  calinterimapi{000a0000}-86.o(StubCode)
    CCalEntry::SetDescriptionL(const TDesC16&) 0x000105e4   ARM Code       0  calinterimapi{000a0000}-91.o(StubCode)
    CCalEntry::SetExceptionDatesL(const RArray<TCalTime>&) 0x000105ec   ARM Code       0  calinterimapi{000a0000}-92.o(StubCode)
    CCalEntry::SetStartAndEndTimeL(const TCalTime&, const TCalTime&) 0x000105f4   ARM Code       0  calinterimapi{000a0000}-94.o(StubCode)
    CCalEntry::SetLastModifiedDateL()        0x000105fc   ARM Code       0  calinterimapi{000a0000}-95.o(StubCode)
    CCalEntry::ClearRepeatingPropertiesL()   0x00010604   ARM Code       0  calinterimapi{000a0000}-97.o(StubCode)
    CCalEntry::NewL(CCalEntry::TType, HBufC8*, CCalEntry::TMethod, unsigned) 0x0001060c   ARM Code       0  calinterimapi{000a0000}-98.o(StubCode)
    CCalEntry::NewL(CCalEntry::TType, HBufC8*, CCalEntry::TMethod, unsigned, const TCalTime&, CalCommon::TRecurrenceRange) 0x00010614   ARM Code       0  calinterimapi{000a0000}-99.o(StubCode)
    QtMobility::QOrganizerItem::setId(const QtMobility::QOrganizerItemId&) 0x0001061c   ARM Code       0  QtOrganizer{00010103}-11.o(StubCode)
    QtMobility::QOrganizerCollection::setMetaData(const QString&, const QVariant&) 0x00010624   ARM Code       0  QtOrganizer{00010103}-120.o(StubCode)
    QtMobility::QOrganizerCollection::setId(const QtMobility::QOrganizerCollectionId&) 0x0001062c   ARM Code       0  QtOrganizer{00010103}-122.o(StubCode)
    QtMobility::QOrganizerCollection::QOrganizerCollection(const QtMobility::QOrganizerCollection&) 0x00010634   ARM Code       0  QtOrganizer{00010103}-126.o(StubCode)
    QtMobility::QOrganizerCollection::QOrganizerCollection() 0x0001063c   ARM Code       0  QtOrganizer{00010103}-127.o(StubCode)
    QtMobility::QOrganizerItem::setGuid(const QString&) 0x00010644   ARM Code       0  QtOrganizer{00010103}-13.o(StubCode)
    QtMobility::QOrganizerCollection::~QOrganizerCollection() 0x0001064c   ARM Code       0  QtOrganizer{00010103}-130.o(StubCode)
    QtMobility::QOrganizerItemDetail::setValue(const char*, const QVariant&) 0x00010654   ARM Code       0  QtOrganizer{00010103}-138.o(StubCode)
    QtMobility::QOrganizerItem::setType(const QString&) 0x0001065c   ARM Code       0  QtOrganizer{00010103}-14.o(StubCode)
    QtMobility::QOrganizerItemDetail::QOrganizerItemDetail(const char*) 0x00010664   ARM Code       0  QtOrganizer{00010103}-140.o(StubCode)
    QtMobility::QOrganizerItemDetail::QOrganizerItemDetail(const QtMobility::QOrganizerItemDetail&) 0x0001066c   ARM Code       0  QtOrganizer{00010103}-142.o(StubCode)
    QtMobility::QOrganizerItemDetail::QOrganizerItemDetail(const QtMobility::QOrganizerItemDetail&, const char*) 0x00010674   ARM Code       0  QtOrganizer{00010103}-143.o(StubCode)
    QtMobility::QOrganizerItemDetail::~QOrganizerItemDetail() 0x0001067c   ARM Code       0  QtOrganizer{00010103}-152.o(StubCode)
    QtMobility::QOrganizerItemFilter::QOrganizerItemFilter(const QtMobility::QOrganizerItemFilter&) 0x00010684   ARM Code       0  QtOrganizer{00010103}-156.o(StubCode)
    QtMobility::QOrganizerItemFilter::QOrganizerItemFilter() 0x0001068c   ARM Code       0  QtOrganizer{00010103}-157.o(StubCode)
    QtMobility::QOrganizerItemFilter::~QOrganizerItemFilter() 0x00010694   ARM Code       0  QtOrganizer{00010103}-161.o(StubCode)
    QtMobility::QOrganizerItem::QOrganizerItem(const QtMobility::QOrganizerItem&) 0x0001069c   ARM Code       0  QtOrganizer{00010103}-17.o(StubCode)
    QtMobility::QOrganizerCollectionId::QOrganizerCollectionId(QtMobility::QOrganizerCollectionEngineId*) 0x000106a4   ARM Code       0  QtOrganizer{00010103}-173.o(StubCode)
    QtMobility::QOrganizerCollectionId::QOrganizerCollectionId(const QtMobility::QOrganizerCollectionId&) 0x000106ac   ARM Code       0  QtOrganizer{00010103}-174.o(StubCode)
    QtMobility::QOrganizerCollectionId::QOrganizerCollectionId() 0x000106b4   ARM Code       0  QtOrganizer{00010103}-175.o(StubCode)
    QtMobility::QOrganizerCollectionId::~QOrganizerCollectionId() 0x000106bc   ARM Code       0  QtOrganizer{00010103}-179.o(StubCode)
    QtMobility::QOrganizerItem::QOrganizerItem(const QtMobility::QOrganizerItem&, const char*) 0x000106c4   ARM Code       0  QtOrganizer{00010103}-18.o(StubCode)
    QtMobility::QOrganizerCollectionId::operator =(const QtMobility::QOrganizerCollectionId&) 0x000106cc   ARM Code       0  QtOrganizer{00010103}-181.o(StubCode)
    QtMobility::QOrganizerItemIdFilter::QOrganizerItemIdFilter(const QtMobility::QOrganizerItemFilter&) 0x000106d4   ARM Code       0  QtOrganizer{00010103}-186.o(StubCode)
    QtMobility::QOrganizerItem::QOrganizerItem() 0x000106dc   ARM Code       0  QtOrganizer{00010103}-19.o(StubCode)
    QtMobility::QOrganizerItem::saveDetail(QtMobility::QOrganizerItemDetail*) 0x000106e4   ARM Code       0  QtOrganizer{00010103}-2.o(StubCode)
    QtMobility::QOrganizerItemChangeSet::emitSignals(QtMobility::QOrganizerManagerEngine*) 0x000106ec   ARM Code       0  QtOrganizer{00010103}-208.o(StubCode)
    QtMobility::QOrganizerItemChangeSet::setDataChanged(bool) 0x000106f4   ARM Code       0  QtOrganizer{00010103}-209.o(StubCode)
    QtMobility::QOrganizerItemChangeSet::insertAddedItem(const QtMobility::QOrganizerItemId&) 0x000106fc   ARM Code       0  QtOrganizer{00010103}-211.o(StubCode)
    QtMobility::QOrganizerItemChangeSet::insertChangedItem(const QtMobility::QOrganizerItemId&) 0x00010704   ARM Code       0  QtOrganizer{00010103}-215.o(StubCode)
    QtMobility::QOrganizerItemChangeSet::insertRemovedItem(const QtMobility::QOrganizerItemId&) 0x0001070c   ARM Code       0  QtOrganizer{00010103}-216.o(StubCode)
    QtMobility::QOrganizerItemChangeSet::QOrganizerItemChangeSet() 0x00010714   ARM Code       0  QtOrganizer{00010103}-221.o(StubCode)
    QtMobility::QOrganizerItemChangeSet::~QOrganizerItemChangeSet() 0x0001071c   ARM Code       0  QtOrganizer{00010103}-224.o(StubCode)
    QtMobility::QOrganizerItemFetchHint::QOrganizerItemFetchHint() 0x00010724   ARM Code       0  QtOrganizer{00010103}-230.o(StubCode)
    QtMobility::QOrganizerItemFetchHint::~QOrganizerItemFetchHint() 0x0001072c   ARM Code       0  QtOrganizer{00010103}-233.o(StubCode)
    QtMobility::QOrganizerItem::~QOrganizerItem() 0x00010734   ARM Code       0  QtOrganizer{00010103}-24.o(StubCode)
    QtMobility::QOrganizerItemSortOrder::~QOrganizerItemSortOrder() 0x0001073c   ARM Code       0  QtOrganizer{00010103}-244.o(StubCode)
    QtMobility::QOrganizerManagerEngine::testFilter(const QtMobility::QOrganizerItemFilter&, const QtMobility::QOrganizerItem&) 0x00010744   ARM Code       0  QtOrganizer{00010103}-252.o(StubCode)
    QtMobility::QOrganizerManagerEngine::qt_metacall(QMetaObject::Call, int, void**) 0x0001074c   ARM Code       0  QtOrganizer{00010103}-255.o(StubCode)
    QtMobility::QOrganizerManagerEngine::qt_metacast(const char*) 0x00010754   ARM Code       0  QtOrganizer{00010103}-256.o(StubCode)
    QtMobility::QOrganizerManagerEngine::engineItemId(const QtMobility::QOrganizerItemId&) 0x0001075c   ARM Code       0  QtOrganizer{00010103}-258.o(StubCode)
    QtMobility::QOrganizerItem::operator =(const QtMobility::QOrganizerItem&) 0x00010764   ARM Code       0  QtOrganizer{00010103}-26.o(StubCode)
    QtMobility::QOrganizerManagerEngine::schemaDefinitions(int) 0x0001076c   ARM Code       0  QtOrganizer{00010103}-269.o(StubCode)
    QtMobility::QOrganizerManagerEngine::updateRequestState(QtMobility::QOrganizerAbstractRequest*, QtMobility::QOrganizerAbstractRequest::State) 0x00010774   ARM Code       0  QtOrganizer{00010103}-274.o(StubCode)
    QtMobility::QOrganizerManagerEngine::saveDetailDefinition(const QtMobility::QOrganizerItemDetailDefinition&, const QString&, QtMobility::QOrganizerManager::Error*) 0x0001077c   ARM Code       0  QtOrganizer{00010103}-277.o(StubCode)
    QtMobility::QOrganizerManagerEngine::updateItemSaveRequest(QtMobility::QOrganizerItemSaveRequest*, const QList<QtMobility::QOrganizerItem>&, QtMobility::QOrganizerManager::Error, const QMap<int, QtMobility::QOrganizerManager::Error>&, QtMobility::QOrganizerAbstractRequest::State) 0x00010784   ARM Code       0  QtOrganizer{00010103}-278.o(StubCode)
    QtMobility::QOrganizerManagerEngine::removeDetailDefinition(const QString&, const QString&, QtMobility::QOrganizerManager::Error*) 0x0001078c   ARM Code       0  QtOrganizer{00010103}-279.o(StubCode)
    QtMobility::QOrganizerManagerEngine::updateItemFetchRequest(QtMobility::QOrganizerItemFetchRequest*, const QList<QtMobility::QOrganizerItem>&, QtMobility::QOrganizerManager::Error, QtMobility::QOrganizerAbstractRequest::State) 0x00010794   ARM Code       0  QtOrganizer{00010103}-280.o(StubCode)
    QtMobility::QOrganizerManagerEngine::updateItemRemoveRequest(QtMobility::QOrganizerItemRemoveRequest*, QtMobility::QOrganizerManager::Error, const QMap<int, QtMobility::QOrganizerManager::Error>&, QtMobility::QOrganizerAbstractRequest::State) 0x0001079c   ARM Code       0  QtOrganizer{00010103}-282.o(StubCode)
    QtMobility::QOrganizerManagerEngine::updateItemIdFetchRequest(QtMobility::QOrganizerItemIdFetchRequest*, const QList<QtMobility::QOrganizerItemId>&, QtMobility::QOrganizerManager::Error, QtMobility::QOrganizerAbstractRequest::State) 0x000107a4   ARM Code       0  QtOrganizer{00010103}-283.o(StubCode)
    QtMobility::QOrganizerManagerEngine::updateCollectionSaveRequest(QtMobility::QOrganizerCollectionSaveRequest*, const QList<QtMobility::QOrganizerCollection>&, QtMobility::QOrganizerManager::Error, const QMap<int, QtMobility::QOrganizerManager::Error>&, QtMobility::QOrganizerAbstractRequest::State) 0x000107ac   ARM Code       0  QtOrganizer{00010103}-285.o(StubCode)
    QtMobility::QOrganizerManagerEngine::updateDefinitionSaveRequest(QtMobility::QOrganizerItemDetailDefinitionSaveRequest*, const QList<QtMobility::QOrganizerItemDetailDefinition>&, QtMobility::QOrganizerManager::Error, const QMap<int, QtMobility::QOrganizerManager::Error>&, QtMobility::QOrganizerAbstractRequest::State) 0x000107b4   ARM Code       0  QtOrganizer{00010103}-286.o(StubCode)
    QtMobility::QOrganizerManagerEngine::updateCollectionFetchRequest(QtMobility::QOrganizerCollectionFetchRequest*, const QList<QtMobility::QOrganizerCollection>&, QtMobility::QOrganizerManager::Error, QtMobility::QOrganizerAbstractRequest::State) 0x000107bc   ARM Code       0  QtOrganizer{00010103}-287.o(StubCode)
    QtMobility::QOrganizerManagerEngine::updateDefinitionFetchRequest(QtMobility::QOrganizerItemDetailDefinitionFetchRequest*, const QMap<QString, QtMobility::QOrganizerItemDetailDefinition>&, QtMobility::QOrganizerManager::Error, QMap<int, QtMobility::QOrganizerManager::Error>&, QtMobility::QOrganizerAbstractRequest::State) 0x000107c4   ARM Code       0  QtOrganizer{00010103}-288.o(StubCode)
    QtMobility::QOrganizerManagerEngine::updateCollectionRemoveRequest(QtMobility::QOrganizerCollectionRemoveRequest*, QtMobility::QOrganizerManager::Error, const QMap<int, QtMobility::QOrganizerManager::Error>&, QtMobility::QOrganizerAbstractRequest::State) 0x000107cc   ARM Code       0  QtOrganizer{00010103}-289.o(StubCode)
    QtMobility::QOrganizerManagerEngine::updateDefinitionRemoveRequest(QtMobility::QOrganizerItemDetailDefinitionRemoveRequest*, QtMobility::QOrganizerManager::Error, const QMap<int, QtMobility::QOrganizerManager::Error>&, QtMobility::QOrganizerAbstractRequest::State) 0x000107d4   ARM Code       0  QtOrganizer{00010103}-290.o(StubCode)
    QtMobility::QOrganizerManagerEngine::updateItemFetchForExportRequest(QtMobility::QOrganizerItemFetchForExportRequest*, const QList<QtMobility::QOrganizerItem>&, QtMobility::QOrganizerManager::Error, QtMobility::QOrganizerAbstractRequest::State) 0x000107dc   ARM Code       0  QtOrganizer{00010103}-291.o(StubCode)
    QtMobility::QOrganizerManagerEngine::addSorted(QList<QtMobility::QOrganizerItem>*, const QtMobility::QOrganizerItem&, QList<QtMobility::QOrganizerItemSortOrder>&) 0x000107e4   ARM Code       0  QtOrganizer{00010103}-294.o(StubCode)
    QtMobility::QOrganizerItemRecurrence::setExceptionDates(const QSet<QDate>&) 0x000107ec   ARM Code       0  QtOrganizer{00010103}-297.o(StubCode)
    QtMobility::QOrganizerItemRecurrence::setRecurrenceDates(const QSet<QDate>&) 0x000107f4   ARM Code       0  QtOrganizer{00010103}-299.o(StubCode)
    QtMobility::QOrganizerItemRecurrence::setRecurrenceRules(const QSet<QtMobility::QOrganizerRecurrenceRule>&) 0x000107fc   ARM Code       0  QtOrganizer{00010103}-300.o(StubCode)
    QtMobility::QOrganizerRecurrenceRule::setInterval(int) 0x00010804   ARM Code       0  QtOrganizer{00010103}-306.o(StubCode)
    QtMobility::QOrganizerRecurrenceRule::setFrequency(QtMobility::QOrganizerRecurrenceRule::Frequency) 0x0001080c   ARM Code       0  QtOrganizer{00010103}-307.o(StubCode)
    QtMobility::QOrganizerRecurrenceRule::setPositions(const QSet<int>&) 0x00010814   ARM Code       0  QtOrganizer{00010103}-308.o(StubCode)
    QtMobility::QOrganizerRecurrenceRule::setDaysOfWeek(const QSet<Qt::DayOfWeek>&) 0x0001081c   ARM Code       0  QtOrganizer{00010103}-309.o(StubCode)
    QtMobility::QOrganizerRecurrenceRule::setDaysOfMonth(const QSet<int>&) 0x00010824   ARM Code       0  QtOrganizer{00010103}-311.o(StubCode)
    QtMobility::QOrganizerRecurrenceRule::setMonthsOfYear(const QSet<QtMobility::QOrganizerRecurrenceRule::Month>&) 0x0001082c   ARM Code       0  QtOrganizer{00010103}-313.o(StubCode)
    QtMobility::QOrganizerRecurrenceRule::setFirstDayOfWeek(Qt::DayOfWeek) 0x00010834   ARM Code       0  QtOrganizer{00010103}-314.o(StubCode)
    QtMobility::QOrganizerRecurrenceRule::setLimit(const QDate&) 0x0001083c   ARM Code       0  QtOrganizer{00010103}-315.o(StubCode)
    QtMobility::QOrganizerRecurrenceRule::setLimit(int) 0x00010844   ARM Code       0  QtOrganizer{00010103}-316.o(StubCode)
    QtMobility::QOrganizerRecurrenceRule::QOrganizerRecurrenceRule(const QtMobility::QOrganizerRecurrenceRule&) 0x0001084c   ARM Code       0  QtOrganizer{00010103}-317.o(StubCode)
    QtMobility::QOrganizerRecurrenceRule::QOrganizerRecurrenceRule() 0x00010854   ARM Code       0  QtOrganizer{00010103}-318.o(StubCode)
    QtMobility::QOrganizerRecurrenceRule::~QOrganizerRecurrenceRule() 0x0001085c   ARM Code       0  QtOrganizer{00010103}-321.o(StubCode)
    QtMobility::QOrganizerItemSaveRequest::setItems(const QList<QtMobility::QOrganizerItem>&) 0x00010864   ARM Code       0  QtOrganizer{00010103}-360.o(StubCode)
    QtMobility::QOrganizerItemUnionFilter::QOrganizerItemUnionFilter(const QtMobility::QOrganizerItemFilter&) 0x0001086c   ARM Code       0  QtOrganizer{00010103}-368.o(StubCode)
    QtMobility::QOrganizerCollectionChangeSet::emitSignals(QtMobility::QOrganizerManagerEngine*) 0x00010874   ARM Code       0  QtOrganizer{00010103}-425.o(StubCode)
    QtMobility::QOrganizerCollectionChangeSet::insertAddedCollection(const QtMobility::QOrganizerCollectionId&) 0x0001087c   ARM Code       0  QtOrganizer{00010103}-428.o(StubCode)
    QtMobility::QOrganizerCollectionChangeSet::insertRemovedCollection(const QtMobility::QOrganizerCollectionId&) 0x00010884   ARM Code       0  QtOrganizer{00010103}-433.o(StubCode)
    QtMobility::QOrganizerCollectionChangeSet::QOrganizerCollectionChangeSet() 0x0001088c   ARM Code       0  QtOrganizer{00010103}-438.o(StubCode)
    QtMobility::QOrganizerCollectionChangeSet::~QOrganizerCollectionChangeSet() 0x00010894   ARM Code       0  QtOrganizer{00010103}-441.o(StubCode)
    QtMobility::QOrganizerEvent::setStartDateTime(const QDateTime&) 0x0001089c   ARM Code       0  QtOrganizer{00010103}-45.o(StubCode)
    QtMobility::QOrganizerItemCollectionFilter::QOrganizerItemCollectionFilter(const QtMobility::QOrganizerItemFilter&) 0x000108a4   ARM Code       0  QtOrganizer{00010103}-454.o(StubCode)
    QtMobility::QOrganizerItemDetailDefinition::removeField(const QString&) 0x000108ac   ARM Code       0  QtOrganizer{00010103}-459.o(StubCode)
    QtMobility::QOrganizerItemDetailDefinition::setName(const QString&) 0x000108b4   ARM Code       0  QtOrganizer{00010103}-460.o(StubCode)
    QtMobility::QOrganizerItemDetailDefinition::setFields(const QMap<QString, QtMobility::QOrganizerItemDetailFieldDefinition>&) 0x000108bc   ARM Code       0  QtOrganizer{00010103}-461.o(StubCode)
    QtMobility::QOrganizerItemDetailDefinition::setUnique(bool) 0x000108c4   ARM Code       0  QtOrganizer{00010103}-462.o(StubCode)
    QtMobility::QOrganizerItemDetailDefinition::QOrganizerItemDetailDefinition(const QtMobility::QOrganizerItemDetailDefinition&) 0x000108cc   ARM Code       0  QtOrganizer{00010103}-463.o(StubCode)
    QtMobility::QOrganizerItemDetailDefinition::QOrganizerItemDetailDefinition() 0x000108d4   ARM Code       0  QtOrganizer{00010103}-464.o(StubCode)
    QtMobility::QOrganizerItemDetailDefinition::~QOrganizerItemDetailDefinition() 0x000108dc   ARM Code       0  QtOrganizer{00010103}-467.o(StubCode)
    QtMobility::QOrganizerItemDetailDefinition::operator =(const QtMobility::QOrganizerItemDetailDefinition&) 0x000108e4   ARM Code       0  QtOrganizer{00010103}-469.o(StubCode)
    QtMobility::QOrganizerManagerEngineFactory::~QOrganizerManagerEngineFactory__sub_object() 0x000108ec   ARM Code       0  QtOrganizer{00010103}-472.o(StubCode)
    QtMobility::QOrganizerItemDetailFieldDefinition::setDataType(int) 0x000108f4   ARM Code       0  QtOrganizer{00010103}-512.o(StubCode)
    QtMobility::QOrganizerItemDetailFieldDefinition::setAllowableValues(QList<QVariant>) 0x000108fc   ARM Code       0  QtOrganizer{00010103}-513.o(StubCode)
    QtMobility::QOrganizerItemDetailFieldDefinition::QOrganizerItemDetailFieldDefinition(const QtMobility::QOrganizerItemDetailFieldDefinition&) 0x00010904   ARM Code       0  QtOrganizer{00010103}-514.o(StubCode)
    QtMobility::QOrganizerItemDetailFieldDefinition::QOrganizerItemDetailFieldDefinition() 0x0001090c   ARM Code       0  QtOrganizer{00010103}-515.o(StubCode)
    QtMobility::QOrganizerItemDetailFieldDefinition::~QOrganizerItemDetailFieldDefinition() 0x00010914   ARM Code       0  QtOrganizer{00010103}-518.o(StubCode)
    QtMobility::QOrganizerItemDetailFieldDefinition::operator =(const QtMobility::QOrganizerItemDetailFieldDefinition&) 0x0001091c   ARM Code       0  QtOrganizer{00010103}-520.o(StubCode)
    QtMobility::QOrganizerItemId::QOrganizerItemId(QtMobility::QOrganizerItemEngineId*) 0x00010924   ARM Code       0  QtOrganizer{00010103}-54.o(StubCode)
    QtMobility::QOrganizerItemId::QOrganizerItemId(const QtMobility::QOrganizerItemId&) 0x0001092c   ARM Code       0  QtOrganizer{00010103}-55.o(StubCode)
    QtMobility::QOrganizerItemId::QOrganizerItemId() 0x00010934   ARM Code       0  QtOrganizer{00010103}-56.o(StubCode)
    QtMobility::qHash(const QtMobility::QOrganizerItemId&) 0x0001093c   ARM Code       0  QtOrganizer{00010103}-571.o(StubCode)
    QtMobility::qHash(const QtMobility::QOrganizerRecurrenceRule&) 0x00010944   ARM Code       0  QtOrganizer{00010103}-575.o(StubCode)
    QtMobility::QOrganizerItem::setDescription(const QString&) 0x0001094c   ARM Code       0  QtOrganizer{00010103}-6.o(StubCode)
    QtMobility::QOrganizerItemId::~QOrganizerItemId() 0x00010954   ARM Code       0  QtOrganizer{00010103}-60.o(StubCode)
    QtMobility::QOrganizerItem::description() const 0x0001095c   ARM Code       0  QtOrganizer{00010103}-603.o(StubCode)
    QtMobility::QOrganizerItem::collectionId() const 0x00010964   ARM Code       0  QtOrganizer{00010103}-604.o(StubCode)
    QtMobility::QOrganizerItem::displayLabel() const 0x0001096c   ARM Code       0  QtOrganizer{00010103}-605.o(StubCode)
    QtMobility::QOrganizerItem::id() const   0x00010974   ARM Code       0  QtOrganizer{00010103}-606.o(StubCode)
    QtMobility::QOrganizerItem::guid() const 0x0001097c   ARM Code       0  QtOrganizer{00010103}-607.o(StubCode)
    QtMobility::QOrganizerItem::type() const 0x00010984   ARM Code       0  QtOrganizer{00010103}-608.o(StubCode)
    QtMobility::QOrganizerItem::detail(const char*) const 0x0001098c   ARM Code       0  QtOrganizer{00010103}-609.o(StubCode)
    QtMobility::QOrganizerItem::isEmpty() const 0x00010994   ARM Code       0  QtOrganizer{00010103}-615.o(StubCode)
    QtMobility::QOrganizerEvent::startDateTime() const 0x0001099c   ARM Code       0  QtOrganizer{00010103}-633.o(StubCode)
    QtMobility::QOrganizerItemId::managerUri() const 0x000109a4   ARM Code       0  QtOrganizer{00010103}-642.o(StubCode)
    QtMobility::QOrganizerItemId::isNull() const 0x000109ac   ARM Code       0  QtOrganizer{00010103}-643.o(StubCode)
    QtMobility::QOrganizerItemId::operator ==(const QtMobility::QOrganizerItemId&) const 0x000109b4   ARM Code       0  QtOrganizer{00010103}-645.o(StubCode)
    QtMobility::QOrganizerCollection::id() const 0x000109bc   ARM Code       0  QtOrganizer{00010103}-673.o(StubCode)
    QtMobility::QOrganizerCollection::metaData(const QString&) const 0x000109c4   ARM Code       0  QtOrganizer{00010103}-674.o(StubCode)
    QtMobility::QOrganizerCollection::metaData() const 0x000109cc   ARM Code       0  QtOrganizer{00010103}-675.o(StubCode)
    QtMobility::QOrganizerItemDetail::variantValue(const char*) const 0x000109d4   ARM Code       0  QtOrganizer{00010103}-677.o(StubCode)
    QtMobility::QOrganizerItemDetail::value(const char*) const 0x000109dc   ARM Code       0  QtOrganizer{00010103}-683.o(StubCode)
    QtMobility::QOrganizerItemDetail::isEmpty() const 0x000109e4   ARM Code       0  QtOrganizer{00010103}-685.o(StubCode)
    QtMobility::QOrganizerItemDetail::hasValue(const char*) const 0x000109ec   ARM Code       0  QtOrganizer{00010103}-686.o(StubCode)
    QtMobility::QOrganizerItemFilter::type() const 0x000109f4   ARM Code       0  QtOrganizer{00010103}-689.o(StubCode)
    QtMobility::QOrganizerCollectionId::isNull() const 0x000109fc   ARM Code       0  QtOrganizer{00010103}-692.o(StubCode)
    QtMobility::QOrganizerCollectionId::operator <(const QtMobility::QOrganizerCollectionId&) const 0x00010a04   ARM Code       0  QtOrganizer{00010103}-695.o(StubCode)
    QtMobility::QOrganizerItemIdFilter::ids() const 0x00010a0c   ARM Code       0  QtOrganizer{00010103}-697.o(StubCode)
    QtMobility::QOrganizerManagerEngine::managerUri() const 0x00010a14   ARM Code       0  QtOrganizer{00010103}-712.o(StubCode)
    QtMobility::QOrganizerManagerEngine::validateItem(const QtMobility::QOrganizerItem&, QtMobility::QOrganizerManager::Error*) const 0x00010a1c   ARM Code       0  QtOrganizer{00010103}-716.o(StubCode)
    QtMobility::QOrganizerManagerEngine::detailDefinition(const QString&, const QString&, QtMobility::QOrganizerManager::Error*) const 0x00010a24   ARM Code       0  QtOrganizer{00010103}-720.o(StubCode)
    QtMobility::QOrganizerManagerEngine::validateCollection(const QtMobility::QOrganizerCollection&, QtMobility::QOrganizerManager::Error*) const 0x00010a2c   ARM Code       0  QtOrganizer{00010103}-726.o(StubCode)
    QtMobility::QOrganizerManagerEngine::validateDefinition(const QtMobility::QOrganizerItemDetailDefinition&, QtMobility::QOrganizerManager::Error*) const 0x00010a34   ARM Code       0  QtOrganizer{00010103}-727.o(StubCode)
    QtMobility::QOrganizerItemRecurrence::exceptionDates() const 0x00010a3c   ARM Code       0  QtOrganizer{00010103}-732.o(StubCode)
    QtMobility::QOrganizerItemRecurrence::recurrenceDates() const 0x00010a44   ARM Code       0  QtOrganizer{00010103}-734.o(StubCode)
    QtMobility::QOrganizerItemRecurrence::recurrenceRules() const 0x00010a4c   ARM Code       0  QtOrganizer{00010103}-735.o(StubCode)
    QtMobility::QOrganizerRecurrenceRule::daysOfWeek() const 0x00010a54   ARM Code       0  QtOrganizer{00010103}-737.o(StubCode)
    QtMobility::QOrganizerRecurrenceRule::daysOfYear() const 0x00010a5c   ARM Code       0  QtOrganizer{00010103}-738.o(StubCode)
    QtMobility::QOrganizerRecurrenceRule::limitCount() const 0x00010a64   ARM Code       0  QtOrganizer{00010103}-739.o(StubCode)
    QtMobility::QOrganizerRecurrenceRule::daysOfMonth() const 0x00010a6c   ARM Code       0  QtOrganizer{00010103}-740.o(StubCode)
    QtMobility::QOrganizerRecurrenceRule::weeksOfYear() const 0x00010a74   ARM Code       0  QtOrganizer{00010103}-741.o(StubCode)
    QtMobility::QOrganizerRecurrenceRule::monthsOfYear() const 0x00010a7c   ARM Code       0  QtOrganizer{00010103}-742.o(StubCode)
    QtMobility::QOrganizerRecurrenceRule::firstDayOfWeek() const 0x00010a84   ARM Code       0  QtOrganizer{00010103}-743.o(StubCode)
    QtMobility::QOrganizerRecurrenceRule::interval() const 0x00010a8c   ARM Code       0  QtOrganizer{00010103}-744.o(StubCode)
    QtMobility::QOrganizerRecurrenceRule::frequency() const 0x00010a94   ARM Code       0  QtOrganizer{00010103}-745.o(StubCode)
    QtMobility::QOrganizerRecurrenceRule::limitDate() const 0x00010a9c   ARM Code       0  QtOrganizer{00010103}-746.o(StubCode)
    QtMobility::QOrganizerRecurrenceRule::positions() const 0x00010aa4   ARM Code       0  QtOrganizer{00010103}-748.o(StubCode)
    QtMobility::QOrganizerRecurrenceRule::operator ==(const QtMobility::QOrganizerRecurrenceRule&) const 0x00010aac   ARM Code       0  QtOrganizer{00010103}-749.o(StubCode)
    QtMobility::QOrganizerAbstractRequest::type() const 0x00010ab4   ARM Code       0  QtOrganizer{00010103}-762.o(StubCode)
    QtMobility::QOrganizerAbstractRequest::error() const 0x00010abc   ARM Code       0  QtOrganizer{00010103}-763.o(StubCode)
    QtMobility::QOrganizerAbstractRequest::state() const 0x00010ac4   ARM Code       0  QtOrganizer{00010103}-764.o(StubCode)
    QtMobility::QOrganizerItemSaveRequest::items() const 0x00010acc   ARM Code       0  QtOrganizer{00010103}-774.o(StubCode)
    QtMobility::QOrganizerItemUnionFilter::filters() const 0x00010ad4   ARM Code       0  QtOrganizer{00010103}-776.o(StubCode)
    QtMobility::QOrganizerItemFetchRequest::filter() const 0x00010adc   ARM Code       0  QtOrganizer{00010103}-783.o(StubCode)
    QtMobility::QOrganizerItemFetchRequest::endDate() const 0x00010ae4   ARM Code       0  QtOrganizer{00010103}-784.o(StubCode)
    QtMobility::QOrganizerItemFetchRequest::sorting() const 0x00010aec   ARM Code       0  QtOrganizer{00010103}-785.o(StubCode)
    QtMobility::QOrganizerItemFetchRequest::fetchHint() const 0x00010af4   ARM Code       0  QtOrganizer{00010103}-786.o(StubCode)
    QtMobility::QOrganizerItemFetchRequest::startDate() const 0x00010afc   ARM Code       0  QtOrganizer{00010103}-787.o(StubCode)
    QtMobility::QOrganizerItemRemoveRequest::itemIds() const 0x00010b04   ARM Code       0  QtOrganizer{00010103}-789.o(StubCode)
    QtMobility::QOrganizerItemIdFetchRequest::filter() const 0x00010b0c   ARM Code       0  QtOrganizer{00010103}-792.o(StubCode)
    QtMobility::QOrganizerItemIdFetchRequest::endDate() const 0x00010b14   ARM Code       0  QtOrganizer{00010103}-793.o(StubCode)
    QtMobility::QOrganizerItemIdFetchRequest::sorting() const 0x00010b1c   ARM Code       0  QtOrganizer{00010103}-795.o(StubCode)
    QtMobility::QOrganizerItemIdFetchRequest::startDate() const 0x00010b24   ARM Code       0  QtOrganizer{00010103}-796.o(StubCode)
    QtMobility::QOrganizerItem::setCollectionId(const QtMobility::QOrganizerCollectionId&) 0x00010b2c   ARM Code       0  QtOrganizer{00010103}-8.o(StubCode)
    QtMobility::QOrganizerItemCollectionFilter::collectionIds() const 0x00010b34   ARM Code       0  QtOrganizer{00010103}-802.o(StubCode)
    QtMobility::QOrganizerItemDetailDefinition::name() const 0x00010b3c   ARM Code       0  QtOrganizer{00010103}-803.o(StubCode)
    QtMobility::QOrganizerItemDetailDefinition::fields() const 0x00010b44   ARM Code       0  QtOrganizer{00010103}-804.o(StubCode)
    QtMobility::QOrganizerManagerEngineFactory::supportedImplementationVersions() const 0x00010b4c   ARM Code       0  QtOrganizer{00010103}-808.o(StubCode)
    QtMobility::QOrganizerCollectionSaveRequest::collections() const 0x00010b54   ARM Code       0  QtOrganizer{00010103}-810.o(StubCode)
    QtMobility::QOrganizerCollectionRemoveRequest::collectionIds() const 0x00010b5c   ARM Code       0  QtOrganizer{00010103}-822.o(StubCode)
    QtMobility::QOrganizerItemFetchForExportRequest::items() const 0x00010b64   ARM Code       0  QtOrganizer{00010103}-829.o(StubCode)
    QtMobility::QOrganizerItemFetchForExportRequest::filter() const 0x00010b6c   ARM Code       0  QtOrganizer{00010103}-830.o(StubCode)
    QtMobility::QOrganizerItemFetchForExportRequest::endDate() const 0x00010b74   ARM Code       0  QtOrganizer{00010103}-831.o(StubCode)
    QtMobility::QOrganizerItemFetchForExportRequest::sorting() const 0x00010b7c   ARM Code       0  QtOrganizer{00010103}-832.o(StubCode)
    QtMobility::QOrganizerItemFetchForExportRequest::fetchHint() const 0x00010b84   ARM Code       0  QtOrganizer{00010103}-833.o(StubCode)
    QtMobility::QOrganizerItemFetchForExportRequest::startDate() const 0x00010b8c   ARM Code       0  QtOrganizer{00010103}-834.o(StubCode)
    QtMobility::QOrganizerItemDetailDefinitionFetchRequest::definitionNames() const 0x00010b94   ARM Code       0  QtOrganizer{00010103}-848.o(StubCode)
    QtMobility::QOrganizerItemDetailDefinitionFetchRequest::itemType() const 0x00010b9c   ARM Code       0  QtOrganizer{00010103}-850.o(StubCode)
    QtMobility::QOrganizerItem::setDisplayLabel(const QString&) 0x00010ba4   ARM Code       0  QtOrganizer{00010103}-9.o(StubCode)
    operator delete (void*)                  0x00010bac   ARM Code       0  libstdcpp{00010000}-988.o(StubCode)
    operator new(unsigned)                   0x00010bb4   ARM Code       0  libstdcpp{00010000}-992.o(StubCode)
    QByteArray::realloc(int)                 0x00010bbc   ARM Code       0  QtCore{00040703}-150.o(StubCode)
    QDate::QDate(int, int, int)              0x00010bc4   ARM Code       0  QtCore{00040703}-1582.o(StubCode)
    QTime::QTime(int, int, int, int)         0x00010bcc   ARM Code       0  QtCore{00040703}-1643.o(StubCode)
    QTimer::singleShot(int, QObject*, const char*) 0x00010bd4   ARM Code       0  QtCore{00040703}-1706.o(StubCode)
    QEventLoop::exec(QFlags<QEventLoop::ProcessEventsFlag>) 0x00010bdc   ARM Code       0  QtCore{00040703}-175.o(StubCode)
    QObject::childEvent(QChildEvent*)        0x00010be4   ARM Code       0  QtCore{00040703}-1760.o(StubCode)
    QObject::disconnect(const QObject*, const char*, const QObject*, const char*) 0x00010bec   ARM Code       0  QtCore{00040703}-1761.o(StubCode)
    QObject::timerEvent(QTimerEvent*)        0x00010bf4   ARM Code       0  QtCore{00040703}-1763.o(StubCode)
    QObject::customEvent(QEvent*)            0x00010bfc   ARM Code       0  QtCore{00040703}-1764.o(StubCode)
    QObject::deleteLater()                   0x00010c04   ARM Code       0  QtCore{00040703}-1765.o(StubCode)
    QObject::eventFilter(QObject*, QEvent*)  0x00010c0c   ARM Code       0  QtCore{00040703}-1766.o(StubCode)
    QObject::qt_metacall(QMetaObject::Call, int, void**) 0x00010c14   ARM Code       0  QtCore{00040703}-1767.o(StubCode)
    QObject::qt_metacast(const char*)        0x00010c1c   ARM Code       0  QtCore{00040703}-1768.o(StubCode)
    QObject::connectNotify(const char*)      0x00010c24   ARM Code       0  QtCore{00040703}-1773.o(StubCode)
    QObject::disconnectNotify(const char*)   0x00010c2c   ARM Code       0  QtCore{00040703}-1777.o(StubCode)
    QObject::event(QEvent*)                  0x00010c34   ARM Code       0  QtCore{00040703}-1784.o(StubCode)
    QObject::connect(const QObject*, const char*, const QObject*, const char*, Qt::ConnectionType) 0x00010c3c   ARM Code       0  QtCore{00040703}-1785.o(StubCode)
    QObject::QObject(QObject*)               0x00010c44   ARM Code       0  QtCore{00040703}-1789.o(StubCode)
    QEventLoop::QEventLoop(QObject*)         0x00010c4c   ARM Code       0  QtCore{00040703}-179.o(StubCode)
    QObject::~QObject()                      0x00010c54   ARM Code       0  QtCore{00040703}-1794.o(StubCode)
    QString::fromLatin1(const char*, int)    0x00010c5c   ARM Code       0  QtCore{00040703}-1814.o(StubCode)
    QString::fromAscii_helper(const char*, int) 0x00010c64   ARM Code       0  QtCore{00040703}-1825.o(StubCode)
    QString::fromLatin1_helper(const char*, int) 0x00010c6c   ARM Code       0  QtCore{00040703}-1826.o(StubCode)
    QString::free(QString::Data*)            0x00010c74   ARM Code       0  QtCore{00040703}-1830.o(StubCode)
    QString::append(const QString&)          0x00010c7c   ARM Code       0  QtCore{00040703}-1836.o(StubCode)
    QString::number(int, int)                0x00010c84   ARM Code       0  QtCore{00040703}-1842.o(StubCode)
    QString::number(unsigned long long, int) 0x00010c8c   ARM Code       0  QtCore{00040703}-1847.o(StubCode)
    QString::fromUtf8(const char*, int)      0x00010c94   ARM Code       0  QtCore{00040703}-1871.o(StubCode)
    QString::fromAscii(const char*, int)     0x00010c9c   ARM Code       0  QtCore{00040703}-1874.o(StubCode)
    QString::fromUtf16(const unsigned short*, int) 0x00010ca4   ARM Code       0  QtCore{00040703}-1875.o(StubCode)
    QString::operator =(const QString&)      0x00010cac   ARM Code       0  QtCore{00040703}-1885.o(StubCode)
    QMapData::node_delete(QMapData::Node**, int, QMapData::Node*) 0x00010cb4   ARM Code       0  QtCore{00040703}-1947.o(StubCode)
    QMapData::continueFreeData(int)          0x00010cbc   ARM Code       0  QtCore{00040703}-1949.o(StubCode)
    QVariant::QVariant(const QDate&)         0x00010cc4   ARM Code       0  QtCore{00040703}-2020.o(StubCode)
    QVariant::QVariant(const QString&)       0x00010ccc   ARM Code       0  QtCore{00040703}-2034.o(StubCode)
    QVariant::QVariant(const QDateTime&)     0x00010cd4   ARM Code       0  QtCore{00040703}-2036.o(StubCode)
    QVariant::QVariant(int)                  0x00010cdc   ARM Code       0  QtCore{00040703}-2040.o(StubCode)
    QVariant::QVariant(int, const void*, unsigned) 0x00010ce4   ARM Code       0  QtCore{00040703}-2042.o(StubCode)
    QVariant::~QVariant()                    0x00010cec   ARM Code       0  QtCore{00040703}-2082.o(StubCode)
    QDateTime::setTimeSpec(Qt::TimeSpec)     0x00010cf4   ARM Code       0  QtCore{00040703}-2095.o(StubCode)
    QDateTime::currentDateTime()             0x00010cfc   ARM Code       0  QtCore{00040703}-2097.o(StubCode)
    QDateTime::setDate(const QDate&)         0x00010d04   ARM Code       0  QtCore{00040703}-2099.o(StubCode)
    QDateTime::setTime(const QTime&)         0x00010d0c   ARM Code       0  QtCore{00040703}-2100.o(StubCode)
    QDateTime::QDateTime(const QDate&)       0x00010d14   ARM Code       0  QtCore{00040703}-2102.o(StubCode)
    QDateTime::QDateTime(const QDate&, const QTime&, Qt::TimeSpec) 0x00010d1c   ARM Code       0  QtCore{00040703}-2103.o(StubCode)
    QDateTime::QDateTime(const QDateTime&)   0x00010d24   ARM Code       0  QtCore{00040703}-2104.o(StubCode)
    QDateTime::QDateTime()                   0x00010d2c   ARM Code       0  QtCore{00040703}-2105.o(StubCode)
    QDateTime::~QDateTime()                  0x00010d34   ARM Code       0  QtCore{00040703}-2110.o(StubCode)
    QDateTime::operator =(const QDateTime&)  0x00010d3c   ARM Code       0  QtCore{00040703}-2112.o(StubCode)
    QHashData::free_helper(void(*)(QHashData::Node*)) 0x00010d44   ARM Code       0  QtCore{00040703}-2134.o(StubCode)
    QHashData::rehash(int)                   0x00010d4c   ARM Code       0  QtCore{00040703}-2141.o(StubCode)
    QHashData::nextNode(QHashData::Node*)    0x00010d54   ARM Code       0  QtCore{00040703}-2143.o(StubCode)
    QListData::append()                      0x00010d5c   ARM Code       0  QtCore{00040703}-2188.o(StubCode)
    QListData::remove(int)                   0x00010d64   ARM Code       0  QtCore{00040703}-2191.o(StubCode)
    QListData::append2(const QListData&)     0x00010d6c   ARM Code       0  QtCore{00040703}-2193.o(StubCode)
    QListData::realloc(int)                  0x00010d74   ARM Code       0  QtCore{00040703}-2197.o(StubCode)
    QMetaType::registerType(const char*, void(*)(void*), void*(*)(const void*)) 0x00010d7c   ARM Code       0  QtCore{00040703}-2199.o(StubCode)
    QtPrivate::QStringList_contains(const QStringList*, const QString&, Qt::CaseSensitivity) 0x00010d84   ARM Code       0  QtCore{00040703}-2321.o(StubCode)
    QMetaObject::changeGuard(QObject**, QObject*) 0x00010d8c   ARM Code       0  QtCore{00040703}-274.o(StubCode)
    QMetaObject::removeGuard(QObject**)      0x00010d94   ARM Code       0  QtCore{00040703}-275.o(StubCode)
    QDate::day() const                       0x00010d9c   ARM Code       0  QtCore{00040703}-2883.o(StubCode)
    QDate::year() const                      0x00010da4   ARM Code       0  QtCore{00040703}-2884.o(StubCode)
    QDate::month() const                     0x00010dac   ARM Code       0  QtCore{00040703}-2885.o(StubCode)
    QDate::addDays(int) const                0x00010db4   ARM Code       0  QtCore{00040703}-2887.o(StubCode)
    QDate::isValid() const                   0x00010dbc   ARM Code       0  QtCore{00040703}-2888.o(StubCode)
    QDate::dayOfWeek() const                 0x00010dc4   ARM Code       0  QtCore{00040703}-2893.o(StubCode)
    QTime::hour() const                      0x00010dcc   ARM Code       0  QtCore{00040703}-2913.o(StubCode)
    QTime::msec() const                      0x00010dd4   ARM Code       0  QtCore{00040703}-2914.o(StubCode)
    QTime::minute() const                    0x00010ddc   ARM Code       0  QtCore{00040703}-2915.o(StubCode)
    QTime::second() const                    0x00010de4   ARM Code       0  QtCore{00040703}-2916.o(StubCode)
    QString::toLocal8Bit() const             0x00010dec   ARM Code       0  QtCore{00040703}-3040.o(StubCode)
    QString::toULongLong(bool*, int) const   0x00010df4   ARM Code       0  QtCore{00040703}-3041.o(StubCode)
    QString::arg(const QString&, int, const QChar&) const 0x00010dfc   ARM Code       0  QtCore{00040703}-3049.o(StubCode)
    QString::arg(unsigned long long, int, int, const QChar&) const 0x00010e04   ARM Code       0  QtCore{00040703}-3053.o(StubCode)
    QString::split(const QString&, QString::SplitBehavior, Qt::CaseSensitivity) const 0x00010e0c   ARM Code       0  QtCore{00040703}-3062.o(StubCode)
    QString::utf16() const                   0x00010e14   ARM Code       0  QtCore{00040703}-3064.o(StubCode)
    QString::toUInt(bool*, int) const        0x00010e1c   ARM Code       0  QtCore{00040703}-3067.o(StubCode)
    QString::toUtf8() const                  0x00010e24   ARM Code       0  QtCore{00040703}-3069.o(StubCode)
    QString::operator ==(const QLatin1String&) const 0x00010e2c   ARM Code       0  QtCore{00040703}-3097.o(StubCode)
    QString::operator ==(const QString&) const 0x00010e34   ARM Code       0  QtCore{00040703}-3098.o(StubCode)
    QString::operator <(const QString&) const 0x00010e3c   ARM Code       0  QtCore{00040703}-3101.o(StubCode)
    QTextStream::QTextStream(QString*, QFlags<QIODevice::OpenModeFlag>) 0x00010e44   ARM Code       0  QtCore{00040703}-312.o(StubCode)
    QVariant::toDate() const                 0x00010e4c   ARM Code       0  QtCore{00040703}-3145.o(StubCode)
    QVariant::userType() const               0x00010e54   ARM Code       0  QtCore{00040703}-3165.o(StubCode)
    QVariant::constData() const              0x00010e5c   ARM Code       0  QtCore{00040703}-3166.o(StubCode)
    QDateTime::toTimeSpec(Qt::TimeSpec) const 0x00010e64   ARM Code       0  QtCore{00040703}-3169.o(StubCode)
    QDateTime::date() const                  0x00010e6c   ARM Code       0  QtCore{00040703}-3170.o(StubCode)
    QDateTime::time() const                  0x00010e74   ARM Code       0  QtCore{00040703}-3171.o(StubCode)
    QDateTime::isNull() const                0x00010e7c   ARM Code       0  QtCore{00040703}-3173.o(StubCode)
    QDateTime::isValid() const               0x00010e84   ARM Code       0  QtCore{00040703}-3177.o(StubCode)
    QDateTime::toString(Qt::DateFormat) const 0x00010e8c   ARM Code       0  QtCore{00040703}-3181.o(StubCode)
    QDateTime::operator <(const QDateTime&) const 0x00010e94   ARM Code       0  QtCore{00040703}-3187.o(StubCode)
    qt_message_output(QtMsgType, const char*) 0x00010e9c   ARM Code       0  QtCore{00040703}-32.o(StubCode)
    QTextStream::~QTextStream()              0x00010ea4   ARM Code       0  QtCore{00040703}-324.o(StubCode)
    QTextStream::operator <<(const QString&) 0x00010eac   ARM Code       0  QtCore{00040703}-331.o(StubCode)
    QTextStream::operator <<(char)           0x00010eb4   ARM Code       0  QtCore{00040703}-332.o(StubCode)
    QTextStream::operator <<(int)            0x00010ebc   ARM Code       0  QtCore{00040703}-335.o(StubCode)
    QTextStream::operator <<(unsigned)       0x00010ec4   ARM Code       0  QtCore{00040703}-336.o(StubCode)
    operator <<(QDebug, const QDateTime&)    0x00010ecc   ARM Code       0  QtCore{00040703}-3484.o(StubCode)
    QMapData::createData(int)                0x00010ed4   ARM Code       0  QtCore{00040703}-3607.o(StubCode)
    QMapData::node_create(QMapData::Node**, int, int) 0x00010edc   ARM Code       0  QtCore{00040703}-3608.o(StubCode)
    QHashData::allocateNode(int)             0x00010ee4   ARM Code       0  QtCore{00040703}-3609.o(StubCode)
    QHashData::detach_helper2(void(*)(QHashData::Node*, void*), void(*)(QHashData::Node*), int, int) 0x00010eec   ARM Code       0  QtCore{00040703}-3610.o(StubCode)
    QListData::detach_grow(int*, int)        0x00010ef4   ARM Code       0  QtCore{00040703}-3689.o(StubCode)
    QListData::detach(int)                   0x00010efc   ARM Code       0  QtCore{00040703}-3691.o(StubCode)
    QMetaType::registerTypedef(const char*, int) 0x00010f04   ARM Code       0  QtCore{00040703}-3692.o(StubCode)
    qFree(void*)                             0x00010f0c   ARM Code       0  QtCore{00040703}-70.o(StubCode)
    QtSharedPointer::ExternalRefCountData::getAndRef(const QObject*) 0x00010f14   ARM Code       0  QtCore{00040703}-741.o(StubCode)
    qrand()                                  0x00010f1c   ARM Code       0  QtCore{00040703}-78.o(StubCode)
    qsrand(unsigned)                         0x00010f24   ARM Code       0  QtCore{00040703}-88.o(StubCode)
    strcmp                                   0x00010f2c   ARM Code       0  libc{00010000}-350.o(StubCode)
    TPtrC8::TPtrC8(const unsigned char*, int) 0x00010f34   ARM Code       0  euser{000a0000}-1033.o(StubCode)
    CActive::Cancel()                        0x00010f3c   ARM Code       0  euser{000a0000}-1088.o(StubCode)
    CActive::SetActive()                     0x00010f44   ARM Code       0  euser{000a0000}-1090.o(StubCode)
    CActive::CActive__sub_object(int)        0x00010f4c   ARM Code       0  euser{000a0000}-1091.o(StubCode)
    CActive::~CActive__sub_object()          0x00010f54   ARM Code       0  euser{000a0000}-1094.o(StubCode)
    TPtrC16::TPtrC16(const unsigned short*, int) 0x00010f5c   ARM Code       0  euser{000a0000}-1170.o(StubCode)
    TDateTime::TDateTime(int, TMonth, int, int, int, int, int) 0x00010f64   ARM Code       0  euser{000a0000}-1483.o(StubCode)
    RArrayBase::At(int) const                0x00010f6c   ARM Code       0  euser{000a0000}-1507.o(StubCode)
    RArrayBase::Count() const                0x00010f74   ARM Code       0  euser{000a0000}-1510.o(StubCode)
    RPointerArrayBase::At(int) const         0x00010f7c   ARM Code       0  euser{000a0000}-1590.o(StubCode)
    RPointerArrayBase::Count() const         0x00010f84   ARM Code       0  euser{000a0000}-1593.o(StubCode)
    TTime::DateTime() const                  0x00010f8c   ARM Code       0  euser{000a0000}-1679.o(StubCode)
    TDesC8::Ptr() const                      0x00010f94   ARM Code       0  euser{000a0000}-1719.o(StubCode)
    TDesC8::Compare(const TDesC8&) const     0x00010f9c   ARM Code       0  euser{000a0000}-1733.o(StubCode)
    TDesC16::Ptr() const                     0x00010fa4   ARM Code       0  euser{000a0000}-1807.o(StubCode)
    CleanupStack::PopAndDestroy()            0x00010fac   ARM Code       0  euser{000a0000}-203.o(StubCode)
    CleanupStack::Pop()                      0x00010fb4   ARM Code       0  euser{000a0000}-205.o(StubCode)
    User::MarkCleanupStack()                 0x00010fbc   ARM Code       0  euser{000a0000}-2060.o(StubCode)
    User::UnMarkCleanupStack(TTrapHandler*)  0x00010fc4   ARM Code       0  euser{000a0000}-2061.o(StubCode)
    CleanupStack::PushL(TCleanupItem)        0x00010fcc   ARM Code       0  euser{000a0000}-207.o(StubCode)
    CleanupStack::PushL(CBase*)              0x00010fd4   ARM Code       0  euser{000a0000}-208.o(StubCode)
    XLeaveException::GetReason() const       0x00010fdc   ARM Code       0  euser{000a0000}-2082.o(StubCode)
    CActive::Extension_(unsigned, void*&, void*) 0x00010fe4   ARM Code       0  euser{000a0000}-2128.o(StubCode)
    CActiveScheduler::Add(CActive*)          0x00010fec   ARM Code       0  euser{000a0000}-424.o(StubCode)
    RArrayBase::Close()                      0x00010ff4   ARM Code       0  euser{000a0000}-46.o(StubCode)
    RPointerArrayBase::Close()               0x00010ffc   ARM Code       0  euser{000a0000}-470.o(StubCode)
    RPointerArrayBase::Reset()               0x00011004   ARM Code       0  euser{000a0000}-471.o(StubCode)
    RPointerArrayBase::Append(const void*)   0x0001100c   ARM Code       0  euser{000a0000}-472.o(StubCode)
    RPointerArrayBase::Remove(int)           0x00011014   ARM Code       0  euser{000a0000}-474.o(StubCode)
    RArrayBase::Append(const void*)          0x0001101c   ARM Code       0  euser{000a0000}-48.o(StubCode)
    RPointerArrayBase::RPointerArrayBase()   0x00011024   ARM Code       0  euser{000a0000}-481.o(StubCode)
    CActiveSchedulerWait::Start()            0x0001102c   ARM Code       0  euser{000a0000}-505.o(StubCode)
    CActiveSchedulerWait::AsyncStop()        0x00011034   ARM Code       0  euser{000a0000}-507.o(StubCode)
    CActiveSchedulerWait::CActiveSchedulerWait() 0x0001103c   ARM Code       0  euser{000a0000}-508.o(StubCode)
    RArrayBase::RArrayBase(int)              0x00011044   ARM Code       0  euser{000a0000}-55.o(StubCode)
    Time::NullTTime()                        0x0001104c   ARM Code       0  euser{000a0000}-580.o(StubCode)
    User::LeaveIfError(int)                  0x00011054   ARM Code       0  euser{000a0000}-593.o(StubCode)
    User::RequestComplete(TRequestStatus*&, int) 0x0001105c   ARM Code       0  euser{000a0000}-617.o(StubCode)
    User::Leave(int)                         0x00011064   ARM Code       0  euser{000a0000}-649.o(StubCode)
    User::AllocZ(int)                        0x0001106c   ARM Code       0  euser{000a0000}-652.o(StubCode)
    User::AllocZL(int)                       0x00011074   ARM Code       0  euser{000a0000}-654.o(StubCode)
    User::Invariant()                        0x0001107c   ARM Code       0  euser{000a0000}-669.o(StubCode)
    User::LockedDec(int&)                    0x00011084   ARM Code       0  euser{000a0000}-670.o(StubCode)
    User::LockedInc(int&)                    0x0001108c   ARM Code       0  euser{000a0000}-671.o(StubCode)
    TDes8::Num(long long)                    0x00011094   ARM Code       0  euser{000a0000}-739.o(StubCode)
    TDes8::Copy(const TDesC8&)               0x0001109c   ARM Code       0  euser{000a0000}-744.o(StubCode)
    TTime::UniversalTime()                   0x000110a4   ARM Code       0  euser{000a0000}-855.o(StubCode)
    TTime::HomeTime()                        0x000110ac   ARM Code       0  euser{000a0000}-859.o(StubCode)
    TTime::TTime(const TDateTime&)           0x000110b4   ARM Code       0  euser{000a0000}-861.o(StubCode)
    HBufC8::Des()                            0x000110bc   ARM Code       0  euser{000a0000}-891.o(StubCode)
    HBufC8::NewLC(int)                       0x000110c4   ARM Code       0  euser{000a0000}-894.o(StubCode)
    __aeabi_idivmod                          0x000110cc   ARM Code       0  drtaeabi{000a0000}-135.o(StubCode)
    __aeabi_memcpy4                          0x000110d4   ARM Code       0  drtaeabi{000a0000}-147.o(StubCode)
    __aeabi_uidivmod                         0x000110dc   ARM Code       0  drtaeabi{000a0000}-155.o(StubCode)
    __aeabi_unwind_cpp_pr0                   0x000110e4   ARM Code       0  drtaeabi{000a0000}-158.o(StubCode)
    __cxa_begin_catch                        0x000110ec   ARM Code       0  drtaeabi{000a0000}-180.o(StubCode)
    __cxa_call_unexpected                    0x000110f4   ARM Code       0  drtaeabi{000a0000}-182.o(StubCode)
    __cxa_end_catch                          0x000110fc   ARM Code       0  drtaeabi{000a0000}-183.o(StubCode)
    __cxa_end_cleanup                        0x00011104   ARM Code       0  drtaeabi{000a0000}-184.o(StubCode)
    __cxa_guard_abort                        0x0001110c   ARM Code       0  drtaeabi{000a0000}-186.o(StubCode)
    __cxa_guard_acquire                      0x00011114   ARM Code       0  drtaeabi{000a0000}-187.o(StubCode)
    __cxa_guard_release                      0x0001111c   ARM Code       0  drtaeabi{000a0000}-188.o(StubCode)
    __cxa_pure_virtual                       0x00011124   ARM Code       0  drtaeabi{000a0000}-189.o(StubCode)
    __cxa_rethrow                            0x0001112c   ARM Code       0  drtaeabi{000a0000}-190.o(StubCode)
    __ARM_switch8                            0x00011134   ARM Code       0  drtrvct2_2{000a0000}-28.o(StubCode)
    __ARM_ll_addlu                           0x0001113c   ARM Code       0  drtrvct2_2{000a0000}-45.o(StubCode)
    __ARM_ll_cmpu                            0x00011144   ARM Code       0  drtrvct2_2{000a0000}-51.o(StubCode)
    qvariant_cast_helper(const QVariant&, QVariant::Type, void*) 0x0001114d   Thumb Code    16  qtorganizer_symbian.in(i._Z20qvariant_cast_helperRK8QVariantNS_4TypeEPv)
    qDebug()                                 0x00011161   Thumb Code    72  qtorganizer_symbian.in(i._Z6qDebugv)
    QByteArray::~QByteArray()                0x000111bf   Thumb Code    24  qtorganizer_symbian.in(i._ZN10QByteArrayD1Ev)
    QByteArray::~QByteArray__sub_object()    0x000111bf   Thumb Code     0  qtorganizer_symbian.in(i._ZN10QByteArrayD1Ev)
    QtMobility::QOrganizerEvent::~QOrganizerEvent() 0x000111d7   Thumb Code     8  qtorganizer_symbian.in(i._ZN10QtMobility15QOrganizerEventD1Ev)
    QtMobility::QOrganizerEvent::~QOrganizerEvent__sub_object() 0x000111d7   Thumb Code     0  qtorganizer_symbian.in(i._ZN10QtMobility15QOrganizerEventD1Ev)
    QtMobility::QOrganizerTodoTime::setDueDateTime(const QDateTime&) 0x000111e1   Thumb Code    28  qtorganizer_symbian.in(i._ZN10QtMobility18QOrganizerTodoTime14setDueDateTimeERK9QDateTime)
    QtMobility::QOrganizerTodoTime::setStartDateTime(const QDateTime&) 0x0001120d   Thumb Code    28  qtorganizer_symbian.in(i._ZN10QtMobility18QOrganizerTodoTime16setStartDateTimeERK9QDateTime)
    QtMobility::QOrganizerTodoTime::QOrganizerTodoTime() 0x00011239   Thumb Code    10  qtorganizer_symbian.in(i._ZN10QtMobility18QOrganizerTodoTimeC1Ev)
    QtMobility::QOrganizerTodoTime::QOrganizerTodoTime__sub_object() 0x00011239   Thumb Code     0  qtorganizer_symbian.in(i._ZN10QtMobility18QOrganizerTodoTimeC1Ev)
    QtMobility::QOrganizerTodoTime::~QOrganizerTodoTime() 0x00011249   Thumb Code     8  qtorganizer_symbian.in(i._ZN10QtMobility18QOrganizerTodoTimeD1Ev)
    QtMobility::QOrganizerTodoTime::~QOrganizerTodoTime__sub_object() 0x00011249   Thumb Code     0  qtorganizer_symbian.in(i._ZN10QtMobility18QOrganizerTodoTimeD1Ev)
    QtMobility::QOrganizerEventTime::setEndDateTime(const QDateTime&) 0x00011251   Thumb Code    28  qtorganizer_symbian.in(i._ZN10QtMobility19QOrganizerEventTime14setEndDateTimeERK9QDateTime)
    QtMobility::QOrganizerEventTime::setStartDateTime(const QDateTime&) 0x0001127d   Thumb Code    28  qtorganizer_symbian.in(i._ZN10QtMobility19QOrganizerEventTime16setStartDateTimeERK9QDateTime)
    QtMobility::QOrganizerEventTime::QOrganizerEventTime() 0x000112a9   Thumb Code    10  qtorganizer_symbian.in(i._ZN10QtMobility19QOrganizerEventTimeC1Ev)
    QtMobility::QOrganizerEventTime::QOrganizerEventTime__sub_object() 0x000112a9   Thumb Code     0  qtorganizer_symbian.in(i._ZN10QtMobility19QOrganizerEventTimeC1Ev)
    QtMobility::QOrganizerEventTime::~QOrganizerEventTime() 0x000112b9   Thumb Code     8  qtorganizer_symbian.in(i._ZN10QtMobility19QOrganizerEventTimeD1Ev)
    QtMobility::QOrganizerEventTime::~QOrganizerEventTime__sub_object() 0x000112b9   Thumb Code     0  qtorganizer_symbian.in(i._ZN10QtMobility19QOrganizerEventTimeD1Ev)
    QtMobility::QOrganizerItemParent::setParentId(const QtMobility::QOrganizerItemId&) 0x000112c1   Thumb Code    42  qtorganizer_symbian.in(i._ZN10QtMobility20QOrganizerItemParent11setParentIdERKNS_16QOrganizerItemIdE)
    QtMobility::QOrganizerItemParent::setOriginalDate(const QDate&) 0x000112fd   Thumb Code    28  qtorganizer_symbian.in(i._ZN10QtMobility20QOrganizerItemParent15setOriginalDateERK5QDate)
    QtMobility::QOrganizerItemParent::~QOrganizerItemParent() 0x00011327   Thumb Code     8  qtorganizer_symbian.in(i._ZN10QtMobility20QOrganizerItemParentD1Ev)
    QtMobility::QOrganizerItemParent::~QOrganizerItemParent__sub_object() 0x00011327   Thumb Code     0  qtorganizer_symbian.in(i._ZN10QtMobility20QOrganizerItemParentD1Ev)
    QtMobility::QOrganizerJournalTime::~QOrganizerJournalTime() 0x0001132f   Thumb Code     8  qtorganizer_symbian.in(i._ZN10QtMobility21QOrganizerJournalTimeD1Ev)
    QtMobility::QOrganizerJournalTime::~QOrganizerJournalTime__sub_object() 0x0001132f   Thumb Code     0  qtorganizer_symbian.in(i._ZN10QtMobility21QOrganizerJournalTimeD1Ev)
    QtMobility::QOrganizerItemEngineId::QOrganizerItemEngineId__sub_object() 0x00011339   Thumb Code    10  qtorganizer_symbian.in(i._ZN10QtMobility22QOrganizerItemEngineIdC2Ev)
    QtMobility::QOrganizerItemEngineId::~QOrganizerItemEngineId__deallocating() 0x00011349   Thumb Code    12  qtorganizer_symbian.in(i._ZN10QtMobility22QOrganizerItemEngineIdD0Ev)
    QtMobility::QOrganizerItemEngineId::~QOrganizerItemEngineId() 0x00011355   Thumb Code     0  qtorganizer_symbian.in(i._ZN10QtMobility22QOrganizerItemEngineIdD2Ev)
    QtMobility::QOrganizerItemEngineId::~QOrganizerItemEngineId__sub_object() 0x00011355   Thumb Code     2  qtorganizer_symbian.in(i._ZN10QtMobility22QOrganizerItemEngineIdD2Ev)
    QtMobility::QOrganizerItemIdFilter::~QOrganizerItemIdFilter() 0x00011357   Thumb Code     8  qtorganizer_symbian.in(i._ZN10QtMobility22QOrganizerItemIdFilterD1Ev)
    QtMobility::QOrganizerItemIdFilter::~QOrganizerItemIdFilter__sub_object() 0x00011357   Thumb Code     0  qtorganizer_symbian.in(i._ZN10QtMobility22QOrganizerItemIdFilterD1Ev)
    QtMobility::QOrganizerItemLocation::~QOrganizerItemLocation() 0x0001135f   Thumb Code     8  qtorganizer_symbian.in(i._ZN10QtMobility22QOrganizerItemLocationD1Ev)
    QtMobility::QOrganizerItemLocation::~QOrganizerItemLocation__sub_object() 0x0001135f   Thumb Code     0  qtorganizer_symbian.in(i._ZN10QtMobility22QOrganizerItemLocationD1Ev)
    QtMobility::QOrganizerItemPriority::~QOrganizerItemPriority() 0x00011367   Thumb Code     8  qtorganizer_symbian.in(i._ZN10QtMobility22QOrganizerItemPriorityD1Ev)
    QtMobility::QOrganizerItemPriority::~QOrganizerItemPriority__sub_object() 0x00011367   Thumb Code     0  qtorganizer_symbian.in(i._ZN10QtMobility22QOrganizerItemPriorityD1Ev)
    QtMobility::QOrganizerItemReminder::~QOrganizerItemReminder() 0x0001136f   Thumb Code     8  qtorganizer_symbian.in(i._ZN10QtMobility22QOrganizerItemReminderD1Ev)
    QtMobility::QOrganizerItemReminder::~QOrganizerItemReminder__sub_object() 0x0001136f   Thumb Code     0  qtorganizer_symbian.in(i._ZN10QtMobility22QOrganizerItemReminderD1Ev)
    QtMobility::QOrganizerTodoProgress::setStatus(QtMobility::QOrganizerTodoProgress::Status) 0x00011379   Thumb Code    28  qtorganizer_symbian.in(i._ZN10QtMobility22QOrganizerTodoProgress9setStatusENS0_6StatusE)
    QtMobility::QOrganizerTodoProgress::~QOrganizerTodoProgress() 0x000113a3   Thumb Code     8  qtorganizer_symbian.in(i._ZN10QtMobility22QOrganizerTodoProgressD1Ev)
    QtMobility::QOrganizerTodoProgress::~QOrganizerTodoProgress__sub_object() 0x000113a3   Thumb Code     0  qtorganizer_symbian.in(i._ZN10QtMobility22QOrganizerTodoProgressD1Ev)
    QtMobility::QOrganizerItemTimestamp::~QOrganizerItemTimestamp() 0x000113ab   Thumb Code     8  qtorganizer_symbian.in(i._ZN10QtMobility23QOrganizerItemTimestampD1Ev)
    QtMobility::QOrganizerItemTimestamp::~QOrganizerItemTimestamp__sub_object() 0x000113ab   Thumb Code     0  qtorganizer_symbian.in(i._ZN10QtMobility23QOrganizerItemTimestampD1Ev)
    QtMobility::QOrganizerManagerEngine::~QOrganizerManagerEngine() 0x000113b3   Thumb Code     0  qtorganizer_symbian.in(i._ZN10QtMobility23QOrganizerManagerEngineD2Ev)
    QtMobility::QOrganizerManagerEngine::~QOrganizerManagerEngine__sub_object() 0x000113b3   Thumb Code     8  qtorganizer_symbian.in(i._ZN10QtMobility23QOrganizerManagerEngineD2Ev)
    QtMobility::QOrganizerItemRecurrence::~QOrganizerItemRecurrence() 0x000113bb   Thumb Code     8  qtorganizer_symbian.in(i._ZN10QtMobility24QOrganizerItemRecurrenceD1Ev)
    QtMobility::QOrganizerItemRecurrence::~QOrganizerItemRecurrence__sub_object() 0x000113bb   Thumb Code     0  qtorganizer_symbian.in(i._ZN10QtMobility24QOrganizerItemRecurrenceD1Ev)
    QtMobility::QOrganizerItemUnionFilter::~QOrganizerItemUnionFilter() 0x000113c3   Thumb Code     8  qtorganizer_symbian.in(i._ZN10QtMobility25QOrganizerItemUnionFilterD1Ev)
    QtMobility::QOrganizerItemUnionFilter::~QOrganizerItemUnionFilter__sub_object() 0x000113c3   Thumb Code     0  qtorganizer_symbian.in(i._ZN10QtMobility25QOrganizerItemUnionFilterD1Ev)
    QtMobility::QOrganizerCollectionEngineId::QOrganizerCollectionEngineId__sub_object() 0x000113cd   Thumb Code    10  qtorganizer_symbian.in(i._ZN10QtMobility28QOrganizerCollectionEngineIdC2Ev)
    QtMobility::QOrganizerCollectionEngineId::~QOrganizerCollectionEngineId__deallocating() 0x000113dd   Thumb Code    12  qtorganizer_symbian.in(i._ZN10QtMobility28QOrganizerCollectionEngineIdD0Ev)
    QtMobility::QOrganizerCollectionEngineId::~QOrganizerCollectionEngineId() 0x000113e9   Thumb Code     0  qtorganizer_symbian.in(i._ZN10QtMobility28QOrganizerCollectionEngineIdD2Ev)
    QtMobility::QOrganizerCollectionEngineId::~QOrganizerCollectionEngineId__sub_object() 0x000113e9   Thumb Code     2  qtorganizer_symbian.in(i._ZN10QtMobility28QOrganizerCollectionEngineIdD2Ev)
    QtMobility::QOrganizerItemCollectionFilter::~QOrganizerItemCollectionFilter() 0x000113eb   Thumb Code     8  qtorganizer_symbian.in(i._ZN10QtMobility30QOrganizerItemCollectionFilterD1Ev)
    QtMobility::QOrganizerItemCollectionFilter::~QOrganizerItemCollectionFilter__sub_object() 0x000113eb   Thumb Code     0  qtorganizer_symbian.in(i._ZN10QtMobility30QOrganizerItemCollectionFilterD1Ev)
    QStringList::~QStringList()              0x000113f3   Thumb Code     8  qtorganizer_symbian.in(i._ZN11QStringListD1Ev)
    QStringList::~QStringList__sub_object()  0x000113f3   Thumb Code     0  qtorganizer_symbian.in(i._ZN11QStringListD1Ev)
    QMapIterator<QtMobility::QOrganizerAbstractRequest*, COrganizerItemRequestsServiceProvider*>::~QMapIterator() 0x000113fb   Thumb Code     8  qtorganizer_symbian.in(i._ZN12QMapIteratorIPN10QtMobility25QOrganizerAbstractRequestEP37COrganizerItemRequestsServiceProviderED1Ev)
    QMapIterator<QtMobility::QOrganizerAbstractRequest*, COrganizerItemRequestsServiceProvider*>::~QMapIterator__sub_object() 0x000113fb   Thumb Code     0  qtorganizer_symbian.in(i._ZN12QMapIteratorIPN10QtMobility25QOrganizerAbstractRequestEP37COrganizerItemRequestsServiceProviderED1Ev)
    QBasicAtomicInt::ref()                   0x00011403   Thumb Code    18  qtorganizer_symbian.in(i._ZN15QBasicAtomicInt3refEv)
    QBasicAtomicInt::deref()                 0x00011415   Thumb Code    18  qtorganizer_symbian.in(i._ZN15QBasicAtomicInt5derefEv)
    QForeachContainer<QSet<QDate>>::~QForeachContainer() 0x00011427   Thumb Code     8  qtorganizer_symbian.in(i._ZN17QForeachContainerI4QSetI5QDateEED1Ev)
    QForeachContainer<QSet<QDate>>::~QForeachContainer__sub_object() 0x00011427   Thumb Code     0  qtorganizer_symbian.in(i._ZN17QForeachContainerI4QSetI5QDateEED1Ev)
    QForeachContainer<QSet<QtMobility::QOrganizerRecurrenceRule::Month>>::~QForeachContainer() 0x0001142f   Thumb Code     8  qtorganizer_symbian.in(i._ZN17QForeachContainerI4QSetIN10QtMobility24QOrganizerRecurrenceRule5MonthEEED1Ev)
    QForeachContainer<QSet<QtMobility::QOrganizerRecurrenceRule::Month>>::~QForeachContainer__sub_object() 0x0001142f   Thumb Code     0  qtorganizer_symbian.in(i._ZN17QForeachContainerI4QSetIN10QtMobility24QOrganizerRecurrenceRule5MonthEEED1Ev)
    QForeachContainer<QSet<Qt::DayOfWeek>>::~QForeachContainer() 0x00011437   Thumb Code     8  qtorganizer_symbian.in(i._ZN17QForeachContainerI4QSetIN2Qt9DayOfWeekEEED1Ev)
    QForeachContainer<QSet<Qt::DayOfWeek>>::~QForeachContainer__sub_object() 0x00011437   Thumb Code     0  qtorganizer_symbian.in(i._ZN17QForeachContainerI4QSetIN2Qt9DayOfWeekEEED1Ev)
    QForeachContainer<QSet<int>>::~QForeachContainer() 0x0001143f   Thumb Code     8  qtorganizer_symbian.in(i._ZN17QForeachContainerI4QSetIiEED1Ev)
    QForeachContainer<QSet<int>>::~QForeachContainer__sub_object() 0x0001143f   Thumb Code     0  qtorganizer_symbian.in(i._ZN17QForeachContainerI4QSetIiEED1Ev)
    QForeachContainer<QList<OrganizerSymbianCollection>>::~QForeachContainer() 0x00011447   Thumb Code     8  qtorganizer_symbian.in(i._ZN17QForeachContainerI5QListI26OrganizerSymbianCollectionEED1Ev)
    QForeachContainer<QList<OrganizerSymbianCollection>>::~QForeachContainer__sub_object() 0x00011447   Thumb Code     0  qtorganizer_symbian.in(i._ZN17QForeachContainerI5QListI26OrganizerSymbianCollectionEED1Ev)
    QForeachContainer<QList<QString>>::~QForeachContainer() 0x0001144f   Thumb Code     8  qtorganizer_symbian.in(i._ZN17QForeachContainerI5QListI7QStringEED1Ev)
    QForeachContainer<QList<QString>>::~QForeachContainer__sub_object() 0x0001144f   Thumb Code     0  qtorganizer_symbian.in(i._ZN17QForeachContainerI5QListI7QStringEED1Ev)
    QForeachContainer<QList<QtMobility::QOrganizerItem>>::~QForeachContainer() 0x00011457   Thumb Code     8  qtorganizer_symbian.in(i._ZN17QForeachContainerI5QListIN10QtMobility14QOrganizerItemEEED1Ev)
    QForeachContainer<QList<QtMobility::QOrganizerItem>>::~QForeachContainer__sub_object() 0x00011457   Thumb Code     0  qtorganizer_symbian.in(i._ZN17QForeachContainerI5QListIN10QtMobility14QOrganizerItemEEED1Ev)
    QForeachContainer<QList<QtMobility::QOrganizerItemId>>::~QForeachContainer() 0x0001145f   Thumb Code     8  qtorganizer_symbian.in(i._ZN17QForeachContainerI5QListIN10QtMobility16QOrganizerItemIdEEED1Ev)
    QForeachContainer<QList<QtMobility::QOrganizerItemId>>::~QForeachContainer__sub_object() 0x0001145f   Thumb Code     0  qtorganizer_symbian.in(i._ZN17QForeachContainerI5QListIN10QtMobility16QOrganizerItemIdEEED1Ev)
    QForeachContainer<QList<QtMobility::QOrganizerItemFilter>>::~QForeachContainer() 0x00011467   Thumb Code     8  qtorganizer_symbian.in(i._ZN17QForeachContainerI5QListIN10QtMobility20QOrganizerItemFilterEEED1Ev)
    QForeachContainer<QList<QtMobility::QOrganizerItemFilter>>::~QForeachContainer__sub_object() 0x00011467   Thumb Code     0  qtorganizer_symbian.in(i._ZN17QForeachContainerI5QListIN10QtMobility20QOrganizerItemFilterEEED1Ev)
    QForeachContainer<QList<QtMobility::QOrganizerCollectionId>>::~QForeachContainer() 0x0001146f   Thumb Code     8  qtorganizer_symbian.in(i._ZN17QForeachContainerI5QListIN10QtMobility22QOrganizerCollectionIdEEED1Ev)
    QForeachContainer<QList<QtMobility::QOrganizerCollectionId>>::~QForeachContainer__sub_object() 0x0001146f   Thumb Code     0  qtorganizer_symbian.in(i._ZN17QForeachContainerI5QListIN10QtMobility22QOrganizerCollectionIdEEED1Ev)
    QForeachContainer<QList<OrganizerItemDetailTransform*>>::~QForeachContainer() 0x00011477   Thumb Code     8  qtorganizer_symbian.in(i._ZN17QForeachContainerI5QListIP28OrganizerItemDetailTransformEED1Ev)
    QForeachContainer<QList<OrganizerItemDetailTransform*>>::~QForeachContainer__sub_object() 0x00011477   Thumb Code     0  qtorganizer_symbian.in(i._ZN17QForeachContainerI5QListIP28OrganizerItemDetailTransformEED1Ev)
    QForeachContainer<QList<int>>::~QForeachContainer() 0x0001147f   Thumb Code     8  qtorganizer_symbian.in(i._ZN17QForeachContainerI5QListIiEED1Ev)
    QForeachContainer<QList<int>>::~QForeachContainer__sub_object() 0x0001147f   Thumb Code     0  qtorganizer_symbian.in(i._ZN17QForeachContainerI5QListIiEED1Ev)
    OrganizerItemGuidTransform::~OrganizerItemGuidTransform__deallocating() 0x00011487   Thumb Code    16  qtorganizer_symbian.in(i._ZN26OrganizerItemGuidTransformD0Ev)
    OrganizerItemGuidTransform::~OrganizerItemGuidTransform() 0x00011497   Thumb Code     8  qtorganizer_symbian.in(i._ZN26OrganizerItemGuidTransformD1Ev)
    OrganizerItemGuidTransform::~OrganizerItemGuidTransform__sub_object() 0x00011497   Thumb Code     0  qtorganizer_symbian.in(i._ZN26OrganizerItemGuidTransformD1Ev)
    OrganizerItemTypeTransform::~OrganizerItemTypeTransform__deallocating() 0x0001149f   Thumb Code    16  qtorganizer_symbian.in(i._ZN26OrganizerItemTypeTransformD0Ev)
    OrganizerItemTypeTransform::~OrganizerItemTypeTransform() 0x000114af   Thumb Code     8  qtorganizer_symbian.in(i._ZN26OrganizerItemTypeTransformD1Ev)
    OrganizerItemTypeTransform::~OrganizerItemTypeTransform__sub_object() 0x000114af   Thumb Code     0  qtorganizer_symbian.in(i._ZN26OrganizerItemTypeTransformD1Ev)
    OrganizerSymbianCollection::~OrganizerSymbianCollection() 0x000114b7   Thumb Code     8  qtorganizer_symbian.in(i._ZN26OrganizerSymbianCollectionD1Ev)
    OrganizerSymbianCollection::~OrganizerSymbianCollection__sub_object() 0x000114b7   Thumb Code     0  qtorganizer_symbian.in(i._ZN26OrganizerSymbianCollectionD1Ev)
    OrganizerTodoTimeTransform::~OrganizerTodoTimeTransform__deallocating() 0x000114bf   Thumb Code    16  qtorganizer_symbian.in(i._ZN26OrganizerTodoTimeTransformD0Ev)
    OrganizerTodoTimeTransform::~OrganizerTodoTimeTransform() 0x000114cf   Thumb Code     8  qtorganizer_symbian.in(i._ZN26OrganizerTodoTimeTransformD1Ev)
    OrganizerTodoTimeTransform::~OrganizerTodoTimeTransform__sub_object() 0x000114cf   Thumb Code     0  qtorganizer_symbian.in(i._ZN26OrganizerTodoTimeTransformD1Ev)
    OrganizerEventTimeTransform::~OrganizerEventTimeTransform__deallocating() 0x000114d7   Thumb Code    16  qtorganizer_symbian.in(i._ZN27OrganizerEventTimeTransformD0Ev)
    OrganizerEventTimeTransform::~OrganizerEventTimeTransform() 0x000114e7   Thumb Code     8  qtorganizer_symbian.in(i._ZN27OrganizerEventTimeTransformD1Ev)
    OrganizerEventTimeTransform::~OrganizerEventTimeTransform__sub_object() 0x000114e7   Thumb Code     0  qtorganizer_symbian.in(i._ZN27OrganizerEventTimeTransformD1Ev)
    OrganizerItemParentTransform::~OrganizerItemParentTransform__deallocating() 0x000114ef   Thumb Code    16  qtorganizer_symbian.in(i._ZN28OrganizerItemParentTransformD0Ev)
    OrganizerItemParentTransform::~OrganizerItemParentTransform() 0x000114ff   Thumb Code     8  qtorganizer_symbian.in(i._ZN28OrganizerItemParentTransformD1Ev)
    OrganizerItemParentTransform::~OrganizerItemParentTransform__sub_object() 0x000114ff   Thumb Code     0  qtorganizer_symbian.in(i._ZN28OrganizerItemParentTransformD1Ev)
    QOrganizerItemSymbianFactory::~QOrganizerItemSymbianFactory__deallocating() 0x00011507   Thumb Code    16  qtorganizer_symbian.in(i._ZN28QOrganizerItemSymbianFactoryD0Ev)
    QOrganizerItemSymbianFactory::~QOrganizerItemSymbianFactory() 0x00011517   Thumb Code    18  qtorganizer_symbian.in(i._ZN28QOrganizerItemSymbianFactoryD1Ev)
    QOrganizerItemSymbianFactory::~QOrganizerItemSymbianFactory__sub_object() 0x00011517   Thumb Code     0  qtorganizer_symbian.in(i._ZN28QOrganizerItemSymbianFactoryD1Ev)
    OrganizerJournalTimeTransform::~OrganizerJournalTimeTransform__deallocating() 0x00011533   Thumb Code    16  qtorganizer_symbian.in(i._ZN29OrganizerJournalTimeTransformD0Ev)
    OrganizerJournalTimeTransform::~OrganizerJournalTimeTransform() 0x00011543   Thumb Code     8  qtorganizer_symbian.in(i._ZN29OrganizerJournalTimeTransformD1Ev)
    OrganizerJournalTimeTransform::~OrganizerJournalTimeTransform__sub_object() 0x00011543   Thumb Code     0  qtorganizer_symbian.in(i._ZN29OrganizerJournalTimeTransformD1Ev)
    OrganizerItemLocationTransform::~OrganizerItemLocationTransform__deallocating() 0x0001154b   Thumb Code    16  qtorganizer_symbian.in(i._ZN30OrganizerItemLocationTransformD0Ev)
    OrganizerItemLocationTransform::~OrganizerItemLocationTransform() 0x0001155b   Thumb Code     8  qtorganizer_symbian.in(i._ZN30OrganizerItemLocationTransformD1Ev)
    OrganizerItemLocationTransform::~OrganizerItemLocationTransform__sub_object() 0x0001155b   Thumb Code     0  qtorganizer_symbian.in(i._ZN30OrganizerItemLocationTransformD1Ev)
    OrganizerItemPriorityTransform::~OrganizerItemPriorityTransform__deallocating() 0x00011563   Thumb Code    16  qtorganizer_symbian.in(i._ZN30OrganizerItemPriorityTransformD0Ev)
    OrganizerItemPriorityTransform::~OrganizerItemPriorityTransform() 0x00011573   Thumb Code     8  qtorganizer_symbian.in(i._ZN30OrganizerItemPriorityTransformD1Ev)
    OrganizerItemPriorityTransform::~OrganizerItemPriorityTransform__sub_object() 0x00011573   Thumb Code     0  qtorganizer_symbian.in(i._ZN30OrganizerItemPriorityTransformD1Ev)
    OrganizerItemReminderTransform::~OrganizerItemReminderTransform__deallocating() 0x0001157b   Thumb Code    16  qtorganizer_symbian.in(i._ZN30OrganizerItemReminderTransformD0Ev)
    OrganizerItemReminderTransform::~OrganizerItemReminderTransform() 0x0001158b   Thumb Code     8  qtorganizer_symbian.in(i._ZN30OrganizerItemReminderTransformD1Ev)
    OrganizerItemReminderTransform::~OrganizerItemReminderTransform__sub_object() 0x0001158b   Thumb Code     0  qtorganizer_symbian.in(i._ZN30OrganizerItemReminderTransformD1Ev)
    OrganizerTodoProgressTransform::~OrganizerTodoProgressTransform__deallocating() 0x00011593   Thumb Code    16  qtorganizer_symbian.in(i._ZN30OrganizerTodoProgressTransformD0Ev)
    OrganizerTodoProgressTransform::~OrganizerTodoProgressTransform() 0x000115a3   Thumb Code     8  qtorganizer_symbian.in(i._ZN30OrganizerTodoProgressTransformD1Ev)
    OrganizerTodoProgressTransform::~OrganizerTodoProgressTransform__sub_object() 0x000115a3   Thumb Code     0  qtorganizer_symbian.in(i._ZN30OrganizerTodoProgressTransformD1Ev)
    OrganizerItemTimeStampTransform::~OrganizerItemTimeStampTransform__deallocating() 0x000115ab   Thumb Code    16  qtorganizer_symbian.in(i._ZN31OrganizerItemTimeStampTransformD0Ev)
    OrganizerItemTimeStampTransform::~OrganizerItemTimeStampTransform() 0x000115bb   Thumb Code     8  qtorganizer_symbian.in(i._ZN31OrganizerItemTimeStampTransformD1Ev)
    OrganizerItemTimeStampTransform::~OrganizerItemTimeStampTransform__sub_object() 0x000115bb   Thumb Code     0  qtorganizer_symbian.in(i._ZN31OrganizerItemTimeStampTransformD1Ev)
    OrganizerItemRecurrenceTransform::~OrganizerItemRecurrenceTransform__deallocating() 0x000115c3   Thumb Code    16  qtorganizer_symbian.in(i._ZN32OrganizerItemRecurrenceTransformD0Ev)
    OrganizerItemRecurrenceTransform::~OrganizerItemRecurrenceTransform() 0x000115d3   Thumb Code     8  qtorganizer_symbian.in(i._ZN32OrganizerItemRecurrenceTransformD1Ev)
    OrganizerItemRecurrenceTransform::~OrganizerItemRecurrenceTransform__sub_object() 0x000115d3   Thumb Code     0  qtorganizer_symbian.in(i._ZN32OrganizerItemRecurrenceTransformD1Ev)
    OrganizerItemDescriptionTransform::~OrganizerItemDescriptionTransform__deallocating() 0x000115db   Thumb Code    16  qtorganizer_symbian.in(i._ZN33OrganizerItemDescriptionTransformD0Ev)
    OrganizerItemDescriptionTransform::~OrganizerItemDescriptionTransform() 0x000115eb   Thumb Code     8  qtorganizer_symbian.in(i._ZN33OrganizerItemDescriptionTransformD1Ev)
    OrganizerItemDescriptionTransform::~OrganizerItemDescriptionTransform__sub_object() 0x000115eb   Thumb Code     0  qtorganizer_symbian.in(i._ZN33OrganizerItemDescriptionTransformD1Ev)
    OrganizerItemDisplayLabelTransform::~OrganizerItemDisplayLabelTransform__deallocating() 0x000115f3   Thumb Code    16  qtorganizer_symbian.in(i._ZN34OrganizerItemDisplayLabelTransformD0Ev)
    OrganizerItemDisplayLabelTransform::~OrganizerItemDisplayLabelTransform() 0x00011603   Thumb Code     8  qtorganizer_symbian.in(i._ZN34OrganizerItemDisplayLabelTransformD1Ev)
    OrganizerItemDisplayLabelTransform::~OrganizerItemDisplayLabelTransform__sub_object() 0x00011603   Thumb Code     0  qtorganizer_symbian.in(i._ZN34OrganizerItemDisplayLabelTransformD1Ev)
    QSet<QDate>::~QSet()                     0x0001160b   Thumb Code     8  qtorganizer_symbian.in(i._ZN4QSetI5QDateED1Ev)
    QSet<QDate>::~QSet__sub_object()         0x0001160b   Thumb Code     0  qtorganizer_symbian.in(i._ZN4QSetI5QDateED1Ev)
    QSet<QtMobility::QOrganizerItemId>::~QSet() 0x00011613   Thumb Code     8  qtorganizer_symbian.in(i._ZN4QSetIN10QtMobility16QOrganizerItemIdEED1Ev)
    QSet<QtMobility::QOrganizerItemId>::~QSet__sub_object() 0x00011613   Thumb Code     0  qtorganizer_symbian.in(i._ZN4QSetIN10QtMobility16QOrganizerItemIdEED1Ev)
    QSet<QtMobility::QOrganizerCollectionId>::~QSet() 0x0001161b   Thumb Code     8  qtorganizer_symbian.in(i._ZN4QSetIN10QtMobility22QOrganizerCollectionIdEED1Ev)
    QSet<QtMobility::QOrganizerCollectionId>::~QSet__sub_object() 0x0001161b   Thumb Code     0  qtorganizer_symbian.in(i._ZN4QSetIN10QtMobility22QOrganizerCollectionIdEED1Ev)
    QSet<QtMobility::QOrganizerRecurrenceRule::Month>::~QSet() 0x00011623   Thumb Code     8  qtorganizer_symbian.in(i._ZN4QSetIN10QtMobility24QOrganizerRecurrenceRule5MonthEED1Ev)
    QSet<QtMobility::QOrganizerRecurrenceRule::Month>::~QSet__sub_object() 0x00011623   Thumb Code     0  qtorganizer_symbian.in(i._ZN4QSetIN10QtMobility24QOrganizerRecurrenceRule5MonthEED1Ev)
    QSet<QtMobility::QOrganizerRecurrenceRule>::~QSet() 0x0001162b   Thumb Code     8  qtorganizer_symbian.in(i._ZN4QSetIN10QtMobility24QOrganizerRecurrenceRuleEED1Ev)
    QSet<QtMobility::QOrganizerRecurrenceRule>::~QSet__sub_object() 0x0001162b   Thumb Code     0  qtorganizer_symbian.in(i._ZN4QSetIN10QtMobility24QOrganizerRecurrenceRuleEED1Ev)
    QSet<Qt::DayOfWeek>::~QSet()             0x00011633   Thumb Code     8  qtorganizer_symbian.in(i._ZN4QSetIN2Qt9DayOfWeekEED1Ev)
    QSet<Qt::DayOfWeek>::~QSet__sub_object() 0x00011633   Thumb Code     0  qtorganizer_symbian.in(i._ZN4QSetIN2Qt9DayOfWeekEED1Ev)
    QSet<int>::~QSet()                       0x0001163b   Thumb Code     8  qtorganizer_symbian.in(i._ZN4QSetIiED1Ev)
    QSet<int>::~QSet__sub_object()           0x0001163b   Thumb Code     0  qtorganizer_symbian.in(i._ZN4QSetIiED1Ev)
    CBase::operator new(unsigned)            0x00011643   Thumb Code     8  qtorganizer_symbian.in(i._ZN5CBasenwEj)
    QDebug::maybeSpace()                     0x0001164b   Thumb Code    22  qtorganizer_symbian.in(i._ZN6QDebug10maybeSpaceEv)
    QDebug::QDebug(const QDebug&)            0x00011661   Thumb Code    12  qtorganizer_symbian.in(i._ZN6QDebugC1ERKS_)
    QDebug::QDebug__sub_object(const QDebug&) 0x00011661   Thumb Code     0  qtorganizer_symbian.in(i._ZN6QDebugC1ERKS_)
    QDebug::~QDebug()                        0x0001166d   Thumb Code   132  qtorganizer_symbian.in(i._ZN6QDebugD1Ev)
    QDebug::~QDebug__sub_object()            0x0001166d   Thumb Code     0  qtorganizer_symbian.in(i._ZN6QDebugD1Ev)
    QDebug::operator <<(const char*)         0x00011705   Thumb Code    36  qtorganizer_symbian.in(i._ZN6QDebuglsEPKc)
    QDebug::operator <<(const QString&)      0x00011733   Thumb Code    34  qtorganizer_symbian.in(i._ZN6QDebuglsERK7QString)
    QDebug::operator <<(int)                 0x00011755   Thumb Code    18  qtorganizer_symbian.in(i._ZN6QDebuglsEi)
    QDebug::operator <<(unsigned long long)  0x00011767   Thumb Code    40  qtorganizer_symbian.in(i._ZN6QDebuglsEy)
    QString::QString(const char*)            0x00011799   Thumb Code    20  qtorganizer_symbian.in(i._ZN7QStringC1EPKc)
    QString::QString__sub_object(const char*) 0x00011799   Thumb Code     0  qtorganizer_symbian.in(i._ZN7QStringC1EPKc)
    QString::QString(const QLatin1String&)   0x000117ad   Thumb Code    20  qtorganizer_symbian.in(i._ZN7QStringC1ERK13QLatin1String)
    QString::QString__sub_object(const QLatin1String&) 0x000117ad   Thumb Code     0  qtorganizer_symbian.in(i._ZN7QStringC1ERK13QLatin1String)
    QString::QString(const QString&)         0x000117c1   Thumb Code    16  qtorganizer_symbian.in(i._ZN7QStringC1ERKS_)
    QString::QString__sub_object(const QString&) 0x000117c1   Thumb Code     0  qtorganizer_symbian.in(i._ZN7QStringC1ERKS_)
    QString::QString()                       0x000117d1   Thumb Code    16  qtorganizer_symbian.in(i._ZN7QStringC1Ev)
    QString::QString__sub_object()           0x000117d1   Thumb Code     0  qtorganizer_symbian.in(i._ZN7QStringC1Ev)
    QString::~QString()                      0x000117e5   Thumb Code    24  qtorganizer_symbian.in(i._ZN7QStringD1Ev)
    QString::~QString__sub_object()          0x000117e5   Thumb Code     0  qtorganizer_symbian.in(i._ZN7QStringD1Ev)
    QString::operator =(const QLatin1String&) 0x000117fd   Thumb Code    34  qtorganizer_symbian.in(i._ZN7QStringaSERK13QLatin1String)
    QHashData::willGrow()                    0x00011829   Thumb Code    28  qtorganizer_symbian.in(i._ZN9QHashData8willGrowEv)
    QHashData::firstNode()                   0x00011845   Thumb Code    24  qtorganizer_symbian.in(i._ZN9QHashData9firstNodeEv)
    QtMobility::QOrganizerTodoTime::dueDateTime() const 0x0001185d   Thumb Code    10  qtorganizer_symbian.in(i._ZNK10QtMobility18QOrganizerTodoTime11dueDateTimeEv)
    QtMobility::QOrganizerTodoTime::startDateTime() const 0x0001186d   Thumb Code    10  qtorganizer_symbian.in(i._ZNK10QtMobility18QOrganizerTodoTime13startDateTimeEv)
    QtMobility::QOrganizerEventTime::endDateTime() const 0x0001187d   Thumb Code    10  qtorganizer_symbian.in(i._ZNK10QtMobility19QOrganizerEventTime11endDateTimeEv)
    QtMobility::QOrganizerEventTime::startDateTime() const 0x0001188d   Thumb Code    10  qtorganizer_symbian.in(i._ZNK10QtMobility19QOrganizerEventTime13startDateTimeEv)
    QtMobility::QOrganizerItemParent::originalDate() const 0x0001189d   Thumb Code    32  qtorganizer_symbian.in(i._ZNK10QtMobility20QOrganizerItemParent12originalDateEv)
    QtMobility::QOrganizerItemParent::parentId() const 0x000118cd   Thumb Code   116  qtorganizer_symbian.in(i._ZNK10QtMobility20QOrganizerItemParent8parentIdEv)
    QtMobility::QOrganizerItemLocation::label() const 0x0001195d   Thumb Code    10  qtorganizer_symbian.in(i._ZNK10QtMobility22QOrganizerItemLocation5labelEv)
    QtMobility::QOrganizerItemReminder::secondsBeforeStart() const 0x0001196d   Thumb Code    74  qtorganizer_symbian.in(i._ZNK10QtMobility22QOrganizerItemReminder18secondsBeforeStartEv)
    QtMobility::QOrganizerTodoProgress::finishedDateTime() const 0x000119cd   Thumb Code    10  qtorganizer_symbian.in(i._ZNK10QtMobility22QOrganizerTodoProgress16finishedDateTimeEv)
    QtMobility::QOrganizerTodoProgress::status() const 0x000119dd   Thumb Code    66  qtorganizer_symbian.in(i._ZNK10QtMobility22QOrganizerTodoProgress6statusEv)
    QtMobility::QOrganizerItemTimestamp::created() const 0x00011a31   Thumb Code    10  qtorganizer_symbian.in(i._ZNK10QtMobility23QOrganizerItemTimestamp7createdEv)
    QBasicAtomicInt::operator ==(int) const  0x00011a41   Thumb Code    14  qtorganizer_symbian.in(i._ZNK15QBasicAtomicInteqEi)
    QBasicAtomicInt::operator !=(int) const  0x00011a4f   Thumb Code    14  qtorganizer_symbian.in(i._ZNK15QBasicAtomicIntneEi)
    TTime::operator !=(TTime) const          0x00011a5d   Thumb Code    18  qtorganizer_symbian.in(i._ZNK5TTimeneES_)
    QString::isEmpty() const                 0x00011a6f   Thumb Code    16  qtorganizer_symbian.in(i._ZNK7QString7isEmptyEv)
    QString::operator !=(const QString&) const 0x00011a7f   Thumb Code    12  qtorganizer_symbian.in(i._ZNK7QStringneERKS_)
    QListData::at(int) const                 0x00011a8b   Thumb Code    16  qtorganizer_symbian.in(i._ZNK9QListData2atEi)
    QListData::end() const                   0x00011a9b   Thumb Code    12  qtorganizer_symbian.in(i._ZNK9QListData3endEv)
    QListData::size() const                  0x00011aa7   Thumb Code    10  qtorganizer_symbian.in(i._ZNK9QListData4sizeEv)
    QListData::begin() const                 0x00011ab1   Thumb Code    12  qtorganizer_symbian.in(i._ZNK9QListData5beginEv)
    thunk{-8} to QOrganizerItemSymbianFactory::~QOrganizerItemSymbianFactory__deallocating() 0x00011abd   Thumb Code    10  qtorganizer_symbian.in(i._ZThn8_N28QOrganizerItemSymbianFactoryD0Ev)
    thunk{-8} to QOrganizerItemSymbianFactory::~QOrganizerItemSymbianFactory() 0x00011ac7   Thumb Code    10  qtorganizer_symbian.in(i._ZThn8_N28QOrganizerItemSymbianFactoryD1Ev)
    operator delete (void*, void*)           0x00011ad1   Thumb Code     2  qtorganizer_symbian.in(i._ZdlPvS_)
    operator new(unsigned, void*)            0x00011ad3   Thumb Code     4  qtorganizer_symbian.in(i._ZnwjPv)
    qMapLessThanKey<QString>(const T1&, const T1&) 0x00011ad7   Thumb Code     8  qtorganizer_symbian.in(t._Z15qMapLessThanKeyI7QStringEbRKT_S3_)
    qMapLessThanKey<QtMobility::QOrganizerCollectionId>(const T1&, const T1&) 0x00011adf   Thumb Code     8  qtorganizer_symbian.in(t._Z15qMapLessThanKeyIN10QtMobility22QOrganizerCollectionIdEEbRKT_S4_)
    qMapLessThanKey<QtMobility::QOrganizerAbstractRequest*>(const T1&, const T1&) 0x00011ae7   Thumb Code    16  qtorganizer_symbian.in(t._Z15qMapLessThanKeyIPN10QtMobility25QOrganizerAbstractRequestEEbRKT_S5_)
    qMapLessThanKey<int>(const T1&, const T1&) 0x00011af7   Thumb Code    16  qtorganizer_symbian.in(t._Z15qMapLessThanKeyIiEbRKT_S2_)
    CleanupClosePushL<RArray<TDay>>(T1&)     0x00011b09   Thumb Code    12  qtorganizer_symbian.in(t._Z17CleanupClosePushLI6RArrayI4TDayEEvRT_)
    CleanupClosePushL<RArray<TMonth>>(T1&)   0x00011b19   Thumb Code    12  qtorganizer_symbian.in(t._Z17CleanupClosePushLI6RArrayI6TMonthEEvRT_)
    CleanupClosePushL<RArray<TCalTime>>(T1&) 0x00011b29   Thumb Code    12  qtorganizer_symbian.in(t._Z17CleanupClosePushLI6RArrayI8TCalTimeEEvRT_)
    CleanupClosePushL<RArray<TCalRRule::TDayOfMonth>>(T1&) 0x00011b39   Thumb Code    12  qtorganizer_symbian.in(t._Z17CleanupClosePushLI6RArrayIN9TCalRRule11TDayOfMonthEEEvRT_)
    CleanupClosePushL<RArray<int>>(T1&)      0x00011b49   Thumb Code    12  qtorganizer_symbian.in(t._Z17CleanupClosePushLI6RArrayIiEEvRT_)
    qRegisterMetaType<QtMobility::QOrganizerItemId>(const char*, T1*) 0x00011b59   Thumb Code    44  qtorganizer_symbian.in(t._Z17qRegisterMetaTypeIN10QtMobility16QOrganizerItemIdEEiPKcPT_)
    qForeachContainerNew<QSet<Qt::DayOfWeek>>(const T1&) 0x00011b8d   Thumb Code    54  qtorganizer_symbian.in(t._Z20qForeachContainerNewI4QSetIN2Qt9DayOfWeekEEE17QForeachContainerIT_ERKS5_)
    qForeachContainerNew<QSet<int>>(const T1&) 0x00011bcd   Thumb Code    54  qtorganizer_symbian.in(t._Z20qForeachContainerNewI4QSetIiEE17QForeachContainerIT_ERKS3_)
    qForeachContainerNew<QList<OrganizerSymbianCollection>>(const T1&) 0x00011c0d   Thumb Code    46  qtorganizer_symbian.in(t._Z20qForeachContainerNewI5QListI26OrganizerSymbianCollectionEE17QForeachContainerIT_ERKS4_)
    qForeachContainerNew<QList<QString>>(const T1&) 0x00011c45   Thumb Code    62  qtorganizer_symbian.in(t._Z20qForeachContainerNewI5QListI7QStringEE17QForeachContainerIT_ERKS4_)
    qForeachContainerNew<QList<QtMobility::QOrganizerItem>>(const T1&) 0x00011c8d   Thumb Code    46  qtorganizer_symbian.in(t._Z20qForeachContainerNewI5QListIN10QtMobility14QOrganizerItemEEE17QForeachContainerIT_ERKS5_)
    qForeachContainerNew<QList<QtMobility::QOrganizerItemId>>(const T1&) 0x00011cc5   Thumb Code    46  qtorganizer_symbian.in(t._Z20qForeachContainerNewI5QListIN10QtMobility16QOrganizerItemIdEEE17QForeachContainerIT_ERKS5_)
    qForeachContainerNew<QList<QtMobility::QOrganizerCollectionId>>(const T1&) 0x00011cfd   Thumb Code    60  qtorganizer_symbian.in(t._Z20qForeachContainerNewI5QListIN10QtMobility22QOrganizerCollectionIdEEE17QForeachContainerIT_ERKS5_)
    qForeachContainerNew<QList<OrganizerItemDetailTransform*>>(const T1&) 0x00011d43   Thumb Code    60  qtorganizer_symbian.in(t._Z20qForeachContainerNewI5QListIP28OrganizerItemDetailTransformEE17QForeachContainerIT_ERKS5_)
    qMetaTypeDeleteHelper<QtMobility::QOrganizerItemId>(T1*) 0x00011d89   Thumb Code    16  qtorganizer_symbian.in(t._Z21qMetaTypeDeleteHelperIN10QtMobility16QOrganizerItemIdEEvPT_)
    qMetaTypeConstructHelper<QtMobility::QOrganizerItemId>(const T1*) 0x00011d99   Thumb Code    48  qtorganizer_symbian.in(t._Z24qMetaTypeConstructHelperIN10QtMobility16QOrganizerItemIdEEPvPKT_)
    CleanupResetAndDestroyPushL<RPointerArray<CCalInstance>>(T1&) 0x00011dd9   Thumb Code    12  qtorganizer_symbian.in(t._Z27CleanupResetAndDestroyPushLI13RPointerArrayI12CCalInstanceEEvRT_)
    QtMobility::operator ==<(int)15>(const QString&, const QtMobility::QLatin1Constant<T1>&) 0x00011de9   Thumb Code    12  qtorganizer_symbian.in(t._ZN10QtMobilityeqILi15EEEbRK7QStringRKNS_15QLatin1ConstantIXT_EEE)
    QtMobility::operator ==<(int)16>(const QString&, const QtMobility::QLatin1Constant<T1>&) 0x00011df5   Thumb Code    12  qtorganizer_symbian.in(t._ZN10QtMobilityeqILi16EEEbRK7QStringRKNS_15QLatin1ConstantIXT_EEE)
    QtMobility::operator ==<(int)5>(const QString&, const QtMobility::QLatin1Constant<T1>&) 0x00011e01   Thumb Code    12  qtorganizer_symbian.in(t._ZN10QtMobilityeqILi5EEEbRK7QStringRKNS_15QLatin1ConstantIXT_EEE)
    QtMobility::operator ==<(int)5>(const QtMobility::QLatin1Constant<T1>&, const QString&) 0x00011e0d   Thumb Code    16  qtorganizer_symbian.in(t._ZN10QtMobilityeqILi5EEEbRKNS_15QLatin1ConstantIXT_EEERK7QString)
    QtMobility::operator ==<(int)6>(const QString&, const QtMobility::QLatin1Constant<T1>&) 0x00011e1d   Thumb Code    12  qtorganizer_symbian.in(t._ZN10QtMobilityeqILi6EEEbRK7QStringRKNS_15QLatin1ConstantIXT_EEE)
    QtMobility::operator ==<(int)8>(const QString&, const QtMobility::QLatin1Constant<T1>&) 0x00011e29   Thumb Code    12  qtorganizer_symbian.in(t._ZN10QtMobilityeqILi8EEEbRK7QStringRKNS_15QLatin1ConstantIXT_EEE)
    CleanupClose<RPointerArray<CCalEntry>>::Close(void*) 0x00011e35   Thumb Code     8  qtorganizer_symbian.in(t._ZN12CleanupCloseI13RPointerArrayI9CCalEntryEE5CloseEPv)
    CleanupClose<RArray<TDay>>::Close(void*) 0x00011e3d   Thumb Code     8  qtorganizer_symbian.in(t._ZN12CleanupCloseI6RArrayI4TDayEE5CloseEPv)
    CleanupClose<RArray<TMonth>>::Close(void*) 0x00011e45   Thumb Code     8  qtorganizer_symbian.in(t._ZN12CleanupCloseI6RArrayI6TMonthEE5CloseEPv)
    CleanupClose<RArray<TCalTime>>::Close(void*) 0x00011e4d   Thumb Code     8  qtorganizer_symbian.in(t._ZN12CleanupCloseI6RArrayI8TCalTimeEE5CloseEPv)
    CleanupClose<RArray<TCalRRule::TDayOfMonth>>::Close(void*) 0x00011e55   Thumb Code     8  qtorganizer_symbian.in(t._ZN12CleanupCloseI6RArrayIN9TCalRRule11TDayOfMonthEEE5CloseEPv)
    CleanupClose<RArray<int>>::Close(void*)  0x00011e5d   Thumb Code     8  qtorganizer_symbian.in(t._ZN12CleanupCloseI6RArrayIiEE5CloseEPv)
    CleanupClose<RArray<unsigned long>>::Close(void*) 0x00011e65   Thumb Code     8  qtorganizer_symbian.in(t._ZN12CleanupCloseI6RArrayImEE5CloseEPv)
    QMetaTypeId2<QtMobility::QOrganizerItemId>::qt_metatype_id() 0x00011e6d   Thumb Code    24  qtorganizer_symbian.in(t._ZN12QMetaTypeId2IN10QtMobility16QOrganizerItemIdEE14qt_metatype_idEv)
    QWeakPointer<QtMobility::QOrganizerAbstractRequest>::~QWeakPointer() 0x00011eb1   Thumb Code    36  qtorganizer_symbian.in(t._ZN12QWeakPointerIN10QtMobility25QOrganizerAbstractRequestEED1Ev)
    QWeakPointer<QtMobility::QOrganizerAbstractRequest>::~QWeakPointer__sub_object() 0x00011eb1   Thumb Code     0  qtorganizer_symbian.in(t._ZN12QWeakPointerIN10QtMobility25QOrganizerAbstractRequestEED1Ev)
    QHashDummyNode<QtMobility::QOrganizerItemId, QHashDummyValue>::QHashDummyNode(const QtMobility::QOrganizerItemId&) 0x00011ed5   Thumb Code    12  qtorganizer_symbian.in(t._ZN14QHashDummyNodeIN10QtMobility16QOrganizerItemIdE15QHashDummyValueEC1ERKS1_)
    QHashDummyNode<QtMobility::QOrganizerItemId, QHashDummyValue>::QHashDummyNode__sub_object(const QtMobility::QOrganizerItemId&) 0x00011ed5   Thumb Code     0  qtorganizer_symbian.in(t._ZN14QHashDummyNodeIN10QtMobility16QOrganizerItemIdE15QHashDummyValueEC1ERKS1_)
    QHashDummyNode<QtMobility::QOrganizerRecurrenceRule, QHashDummyValue>::QHashDummyNode(const QtMobility::QOrganizerRecurrenceRule&) 0x00011ee1   Thumb Code    12  qtorganizer_symbian.in(t._ZN14QHashDummyNodeIN10QtMobility24QOrganizerRecurrenceRuleE15QHashDummyValueEC1ERKS1_)
    QHashDummyNode<QtMobility::QOrganizerRecurrenceRule, QHashDummyValue>::QHashDummyNode__sub_object(const QtMobility::QOrganizerRecurrenceRule&) 0x00011ee1   Thumb Code     0  qtorganizer_symbian.in(t._ZN14QHashDummyNodeIN10QtMobility24QOrganizerRecurrenceRuleE15QHashDummyValueEC1ERKS1_)
    CleanupResetAndDestroy<RPointerArray<CCalInstance>>::ResetAndDestroy(void*) 0x00011eed   Thumb Code    48  qtorganizer_symbian.in(t._ZN22CleanupResetAndDestroyI13RPointerArrayI12CCalInstanceEE15ResetAndDestroyEPv)
    CleanupResetAndDestroy<RPointerArray<CCalEntry>>::ResetAndDestroy(void*) 0x00011f1d   Thumb Code    48  qtorganizer_symbian.in(t._ZN22CleanupResetAndDestroyI13RPointerArrayI9CCalEntryEE15ResetAndDestroyEPv)
    QExplicitlySharedDataPointer<OrganizerSymbianCollectionPrivate>::QExplicitlySharedDataPointer(OrganizerSymbianCollectionPrivate*) 0x00011f4d   Thumb Code    20  qtorganizer_symbian.in(t._ZN28QExplicitlySharedDataPointerI33OrganizerSymbianCollectionPrivateEC1EPS0_)
    QExplicitlySharedDataPointer<OrganizerSymbianCollectionPrivate>::QExplicitlySharedDataPointer__sub_object(OrganizerSymbianCollectionPrivate*) 0x00011f4d   Thumb Code     0  qtorganizer_symbian.in(t._ZN28QExplicitlySharedDataPointerI33OrganizerSymbianCollectionPrivateEC1EPS0_)
    QExplicitlySharedDataPointer<OrganizerSymbianCollectionPrivate>::~QExplicitlySharedDataPointer() 0x00011f61   Thumb Code    38  qtorganizer_symbian.in(t._ZN28QExplicitlySharedDataPointerI33OrganizerSymbianCollectionPrivateED1Ev)
    QExplicitlySharedDataPointer<OrganizerSymbianCollectionPrivate>::~QExplicitlySharedDataPointer__sub_object() 0x00011f61   Thumb Code     0  qtorganizer_symbian.in(t._ZN28QExplicitlySharedDataPointerI33OrganizerSymbianCollectionPrivateED1Ev)
    QExplicitlySharedDataPointer<OrganizerSymbianCollectionPrivate>::operator =(OrganizerSymbianCollectionPrivate*) 0x00011f87   Thumb Code    54  qtorganizer_symbian.in(t._ZN28QExplicitlySharedDataPointerI33OrganizerSymbianCollectionPrivateEaSEPS0_)
    QMap<QString, QVariant>::~QMap()         0x00011fbd   Thumb Code    64  qtorganizer_symbian.in(t._ZN4QMapI7QString8QVariantED1Ev)
    QMap<QString, QVariant>::~QMap__sub_object() 0x00011fbd   Thumb Code     0  qtorganizer_symbian.in(t._ZN4QMapI7QString8QVariantED1Ev)
    QMap<QString, QtMobility::QOrganizerItemDetailDefinition>::node_create(QMapData*, QMapData::Node**, const QString&, const QtMobility::QOrganizerItemDetailDefinition&) 0x00011ffd   Thumb Code   106  qtorganizer_symbian.in(t._ZN4QMapI7QStringN10QtMobility30QOrganizerItemDetailDefinitionEE11node_createEP8QMapDataPPNS4_4NodeERKS0_RKS2_)
    QMap<QString, QtMobility::QOrganizerItemDetailDefinition>::detach_helper() 0x0001208d   Thumb Code   114  qtorganizer_symbian.in(t._ZN4QMapI7QStringN10QtMobility30QOrganizerItemDetailDefinitionEE13detach_helperEv)
    QMap<QString, QtMobility::QOrganizerItemDetailDefinition>::detach() 0x00012107   Thumb Code    26  qtorganizer_symbian.in(t._ZN4QMapI7QStringN10QtMobility30QOrganizerItemDetailDefinitionEE6detachEv)
    QMap<QString, QtMobility::QOrganizerItemDetailDefinition>::insert(const QString&, const QtMobility::QOrganizerItemDetailDefinition&) 0x00012121   Thumb Code   128  qtorganizer_symbian.in(t._ZN4QMapI7QStringN10QtMobility30QOrganizerItemDetailDefinitionEE6insertERKS0_RKS2_)
    QMap<QString, QtMobility::QOrganizerItemDetailDefinition>::remove(const QString&) 0x000121a1   Thumb Code   168  qtorganizer_symbian.in(t._ZN4QMapI7QStringN10QtMobility30QOrganizerItemDetailDefinitionEE6removeERKS0_)
    QMap<QString, QtMobility::QOrganizerItemDetailDefinition>::freeData(QMapData*) 0x00012249   Thumb Code    42  qtorganizer_symbian.in(t._ZN4QMapI7QStringN10QtMobility30QOrganizerItemDetailDefinitionEE8freeDataEP8QMapData)
    QMap<QString, QtMobility::QOrganizerItemDetailDefinition>::QMap(const QMap<QString, QtMobility::QOrganizerItemDetailDefinition>&) 0x00012273   Thumb Code    32  qtorganizer_symbian.in(t._ZN4QMapI7QStringN10QtMobility30QOrganizerItemDetailDefinitionEEC1ERKS3_)
    QMap<QString, QtMobility::QOrganizerItemDetailDefinition>::QMap__sub_object(const QMap<QString, QtMobility::QOrganizerItemDetailDefinition>&) 0x00012273   Thumb Code     0  qtorganizer_symbian.in(t._ZN4QMapI7QStringN10QtMobility30QOrganizerItemDetailDefinitionEEC1ERKS3_)
    QMap<QString, QtMobility::QOrganizerItemDetailDefinition>::QMap() 0x00012295   Thumb Code    18  qtorganizer_symbian.in(t._ZN4QMapI7QStringN10QtMobility30QOrganizerItemDetailDefinitionEEC1Ev)
    QMap<QString, QtMobility::QOrganizerItemDetailDefinition>::QMap__sub_object() 0x00012295   Thumb Code     0  qtorganizer_symbian.in(t._ZN4QMapI7QStringN10QtMobility30QOrganizerItemDetailDefinitionEEC1Ev)
    QMap<QString, QtMobility::QOrganizerItemDetailDefinition>::~QMap() 0x000122ad   Thumb Code    32  qtorganizer_symbian.in(t._ZN4QMapI7QStringN10QtMobility30QOrganizerItemDetailDefinitionEED1Ev)
    QMap<QString, QtMobility::QOrganizerItemDetailDefinition>::~QMap__sub_object() 0x000122ad   Thumb Code     0  qtorganizer_symbian.in(t._ZN4QMapI7QStringN10QtMobility30QOrganizerItemDetailDefinitionEED1Ev)
    QMap<QString, QtMobility::QOrganizerItemDetailFieldDefinition>::node_create(QMapData*, QMapData::Node**, const QString&, const QtMobility::QOrganizerItemDetailFieldDefinition&) 0x000122cd   Thumb Code   106  qtorganizer_symbian.in(t._ZN4QMapI7QStringN10QtMobility35QOrganizerItemDetailFieldDefinitionEE11node_createEP8QMapDataPPNS4_4NodeERKS0_RKS2_)
    QMap<QString, QtMobility::QOrganizerItemDetailFieldDefinition>::detach_helper() 0x0001235d   Thumb Code   114  qtorganizer_symbian.in(t._ZN4QMapI7QStringN10QtMobility35QOrganizerItemDetailFieldDefinitionEE13detach_helperEv)
    QMap<QString, QtMobility::QOrganizerItemDetailFieldDefinition>::insert(const QString&, const QtMobility::QOrganizerItemDetailFieldDefinition&) 0x000123d7   Thumb Code   140  qtorganizer_symbian.in(t._ZN4QMapI7QStringN10QtMobility35QOrganizerItemDetailFieldDefinitionEE6insertERKS0_RKS2_)
    QMap<QString, QtMobility::QOrganizerItemDetailFieldDefinition>::freeData(QMapData*) 0x00012463   Thumb Code    42  qtorganizer_symbian.in(t._ZN4QMapI7QStringN10QtMobility35QOrganizerItemDetailFieldDefinitionEE8freeDataEP8QMapData)
    QMap<QString, QtMobility::QOrganizerItemDetailFieldDefinition>::~QMap() 0x0001248d   Thumb Code    32  qtorganizer_symbian.in(t._ZN4QMapI7QStringN10QtMobility35QOrganizerItemDetailFieldDefinitionEED1Ev)
    QMap<QString, QtMobility::QOrganizerItemDetailFieldDefinition>::~QMap__sub_object() 0x0001248d   Thumb Code     0  qtorganizer_symbian.in(t._ZN4QMapI7QStringN10QtMobility35QOrganizerItemDetailFieldDefinitionEED1Ev)
    QMap<QString, QMap<QString, QtMobility::QOrganizerItemDetailDefinition>>::node_create(QMapData*, QMapData::Node**, const QString&, const QMap<QString, QtMobility::QOrganizerItemDetailDefinition>&) 0x000124ad   Thumb Code   106  qtorganizer_symbian.in(t._ZN4QMapI7QStringS_IS0_N10QtMobility30QOrganizerItemDetailDefinitionEEE11node_createEP8QMapDataPPNS5_4NodeERKS0_RKS3_)
    QMap<QString, QMap<QString, QtMobility::QOrganizerItemDetailDefinition>>::detach_helper() 0x0001253d   Thumb Code   114  qtorganizer_symbian.in(t._ZN4QMapI7QStringS_IS0_N10QtMobility30QOrganizerItemDetailDefinitionEEE13detach_helperEv)
    QMap<QString, QMap<QString, QtMobility::QOrganizerItemDetailDefinition>>::remove(const QString&) 0x000125b7   Thumb Code   184  qtorganizer_symbian.in(t._ZN4QMapI7QStringS_IS0_N10QtMobility30QOrganizerItemDetailDefinitionEEE6removeERKS0_)
    QMap<QString, QMap<QString, QtMobility::QOrganizerItemDetailDefinition>>::freeData(QMapData*) 0x0001266f   Thumb Code    42  qtorganizer_symbian.in(t._ZN4QMapI7QStringS_IS0_N10QtMobility30QOrganizerItemDetailDefinitionEEE8freeDataEP8QMapData)
    QMap<QString, QMap<QString, QtMobility::QOrganizerItemDetailDefinition>>::~QMap() 0x00012699   Thumb Code    32  qtorganizer_symbian.in(t._ZN4QMapI7QStringS_IS0_N10QtMobility30QOrganizerItemDetailDefinitionEEED1Ev)
    QMap<QString, QMap<QString, QtMobility::QOrganizerItemDetailDefinition>>::~QMap__sub_object() 0x00012699   Thumb Code     0  qtorganizer_symbian.in(t._ZN4QMapI7QStringS_IS0_N10QtMobility30QOrganizerItemDetailDefinitionEEED1Ev)
    QMap<QString, QMap<QString, QtMobility::QOrganizerItemDetailDefinition>>::operator =(const QMap<QString, QMap<QString, QtMobility::QOrganizerItemDetailDefinition>>&) 0x000126b9   Thumb Code    58  qtorganizer_symbian.in(t._ZN4QMapI7QStringS_IS0_N10QtMobility30QOrganizerItemDetailDefinitionEEEaSERKS4_)
    QMap<QString, QMap<QString, QtMobility::QOrganizerItemDetailDefinition>>::operator [](const QString&) 0x000126f3   Thumb Code   142  qtorganizer_symbian.in(t._ZN4QMapI7QStringS_IS0_N10QtMobility30QOrganizerItemDetailDefinitionEEEixERKS0_)
    QMap<QtMobility::QOrganizerCollectionId, OrganizerSymbianCollection>::node_create(QMapData*, QMapData::Node**, const QtMobility::QOrganizerCollectionId&, const OrganizerSymbianCollection&) 0x0001278b   Thumb Code   106  qtorganizer_symbian.in(t._ZN4QMapIN10QtMobility22QOrganizerCollectionIdE26OrganizerSymbianCollectionE11node_createEP8QMapDataPPNS4_4NodeERKS1_RKS2_)
    QMap<QtMobility::QOrganizerCollectionId, OrganizerSymbianCollection>::detach_helper() 0x0001281b   Thumb Code   114  qtorganizer_symbian.in(t._ZN4QMapIN10QtMobility22QOrganizerCollectionIdE26OrganizerSymbianCollectionE13detach_helperEv)
    QMap<QtMobility::QOrganizerCollectionId, OrganizerSymbianCollection>::detach() 0x00012895   Thumb Code    26  qtorganizer_symbian.in(t._ZN4QMapIN10QtMobility22QOrganizerCollectionIdE26OrganizerSymbianCollectionE6detachEv)
    QMap<QtMobility::QOrganizerCollectionId, OrganizerSymbianCollection>::freeData(QMapData*) 0x000128af   Thumb Code    42  qtorganizer_symbian.in(t._ZN4QMapIN10QtMobility22QOrganizerCollectionIdE26OrganizerSymbianCollectionE8freeDataEP8QMapData)
    QMap<QtMobility::QOrganizerCollectionId, OrganizerSymbianCollection>::~QMap() 0x000128d9   Thumb Code    32  qtorganizer_symbian.in(t._ZN4QMapIN10QtMobility22QOrganizerCollectionIdE26OrganizerSymbianCollectionED1Ev)
    QMap<QtMobility::QOrganizerCollectionId, OrganizerSymbianCollection>::~QMap__sub_object() 0x000128d9   Thumb Code     0  qtorganizer_symbian.in(t._ZN4QMapIN10QtMobility22QOrganizerCollectionIdE26OrganizerSymbianCollectionED1Ev)
    QMap<QtMobility::QOrganizerAbstractRequest*, COrganizerItemRequestsServiceProvider*>::node_create(QMapData*, QMapData::Node**, QtMobility::QOrganizerAbstractRequest*const &, COrganizerItemRequestsServiceProvider*const &) 0x000128f9   Thumb Code    60  qtorganizer_symbian.in(t._ZN4QMapIPN10QtMobility25QOrganizerAbstractRequestEP37COrganizerItemRequestsServiceProviderE11node_createEP8QMapDataPPNS6_4NodeERKS2_RKS4_)
    QMap<QtMobility::QOrganizerAbstractRequest*, COrganizerItemRequestsServiceProvider*>::detach_helper() 0x00012935   Thumb Code   114  qtorganizer_symbian.in(t._ZN4QMapIPN10QtMobility25QOrganizerAbstractRequestEP37COrganizerItemRequestsServiceProviderE13detach_helperEv)
    QMap<QtMobility::QOrganizerAbstractRequest*, COrganizerItemRequestsServiceProvider*>::detach() 0x000129af   Thumb Code    26  qtorganizer_symbian.in(t._ZN4QMapIPN10QtMobility25QOrganizerAbstractRequestEP37COrganizerItemRequestsServiceProviderE6detachEv)
    QMap<QtMobility::QOrganizerAbstractRequest*, COrganizerItemRequestsServiceProvider*>::remove(QtMobility::QOrganizerAbstractRequest*const &) 0x000129c9   Thumb Code   150  qtorganizer_symbian.in(t._ZN4QMapIPN10QtMobility25QOrganizerAbstractRequestEP37COrganizerItemRequestsServiceProviderE6removeERKS2_)
    QMap<QtMobility::QOrganizerAbstractRequest*, COrganizerItemRequestsServiceProvider*>::freeData(QMapData*) 0x00012a5f   Thumb Code    12  qtorganizer_symbian.in(t._ZN4QMapIPN10QtMobility25QOrganizerAbstractRequestEP37COrganizerItemRequestsServiceProviderE8freeDataEP8QMapData)
    QMap<QtMobility::QOrganizerAbstractRequest*, COrganizerItemRequestsServiceProvider*>::QMap() 0x00012a6d   Thumb Code    18  qtorganizer_symbian.in(t._ZN4QMapIPN10QtMobility25QOrganizerAbstractRequestEP37COrganizerItemRequestsServiceProviderEC1Ev)
    QMap<QtMobility::QOrganizerAbstractRequest*, COrganizerItemRequestsServiceProvider*>::QMap__sub_object() 0x00012a6d   Thumb Code     0  qtorganizer_symbian.in(t._ZN4QMapIPN10QtMobility25QOrganizerAbstractRequestEP37COrganizerItemRequestsServiceProviderEC1Ev)
    QMap<QtMobility::QOrganizerAbstractRequest*, COrganizerItemRequestsServiceProvider*>::~QMap() 0x00012a85   Thumb Code    32  qtorganizer_symbian.in(t._ZN4QMapIPN10QtMobility25QOrganizerAbstractRequestEP37COrganizerItemRequestsServiceProviderED1Ev)
    QMap<QtMobility::QOrganizerAbstractRequest*, COrganizerItemRequestsServiceProvider*>::~QMap__sub_object() 0x00012a85   Thumb Code     0  qtorganizer_symbian.in(t._ZN4QMapIPN10QtMobility25QOrganizerAbstractRequestEP37COrganizerItemRequestsServiceProviderED1Ev)
    QMap<QtMobility::QOrganizerAbstractRequest*, COrganizerItemRequestsServiceProvider*>::operator [](QtMobility::QOrganizerAbstractRequest*const &) 0x00012aa5   Thumb Code    54  qtorganizer_symbian.in(t._ZN4QMapIPN10QtMobility25QOrganizerAbstractRequestEP37COrganizerItemRequestsServiceProviderEixERKS2_)
    QMap<int, QtMobility::QOrganizerManager::Error>::node_create(QMapData*, QMapData::Node**, const int&, const QtMobility::QOrganizerManager::Error&) 0x00012adb   Thumb Code    60  qtorganizer_symbian.in(t._ZN4QMapIiN10QtMobility17QOrganizerManager5ErrorEE11node_createEP8QMapDataPPNS4_4NodeERKiRKS2_)
    QMap<int, QtMobility::QOrganizerManager::Error>::detach_helper() 0x00012b17   Thumb Code   114  qtorganizer_symbian.in(t._ZN4QMapIiN10QtMobility17QOrganizerManager5ErrorEE13detach_helperEv)
    QMap<int, QtMobility::QOrganizerManager::Error>::insert(const int&, const QtMobility::QOrganizerManager::Error&) 0x00012b91   Thumb Code   142  qtorganizer_symbian.in(t._ZN4QMapIiN10QtMobility17QOrganizerManager5ErrorEE6insertERKiRKS2_)
    QMap<int, QtMobility::QOrganizerManager::Error>::freeData(QMapData*) 0x00012c1f   Thumb Code    22  qtorganizer_symbian.in(t._ZN4QMapIiN10QtMobility17QOrganizerManager5ErrorEE8freeDataEP8QMapData)
    QMap<int, QtMobility::QOrganizerManager::Error>::QMap() 0x00012c35   Thumb Code    18  qtorganizer_symbian.in(t._ZN4QMapIiN10QtMobility17QOrganizerManager5ErrorEEC1Ev)
    QMap<int, QtMobility::QOrganizerManager::Error>::QMap__sub_object() 0x00012c35   Thumb Code     0  qtorganizer_symbian.in(t._ZN4QMapIiN10QtMobility17QOrganizerManager5ErrorEEC1Ev)
    QMap<int, QtMobility::QOrganizerManager::Error>::~QMap() 0x00012c4d   Thumb Code    32  qtorganizer_symbian.in(t._ZN4QMapIiN10QtMobility17QOrganizerManager5ErrorEED1Ev)
    QMap<int, QtMobility::QOrganizerManager::Error>::~QMap__sub_object() 0x00012c4d   Thumb Code     0  qtorganizer_symbian.in(t._ZN4QMapIiN10QtMobility17QOrganizerManager5ErrorEED1Ev)
    QSet<QDate>::operator <<(const QDate&)   0x00012c6d   Thumb Code   106  qtorganizer_symbian.in(t._ZN4QSetI5QDateElsERKS0_)
    QSet<QtMobility::QOrganizerItemId>::operator <<(const QtMobility::QOrganizerItemId&) 0x00012cd7   Thumb Code    20  qtorganizer_symbian.in(t._ZN4QSetIN10QtMobility16QOrganizerItemIdEElsERKS1_)
    QSet<Qt::DayOfWeek>::const_iterator::operator ++() 0x00012ceb   Thumb Code    16  qtorganizer_symbian.in(t._ZN4QSetIN2Qt9DayOfWeekEE14const_iteratorppEv)
    QSet<Qt::DayOfWeek>::insert(const Qt::DayOfWeek&) 0x00012cfb   Thumb Code   114  qtorganizer_symbian.in(t._ZN4QSetIN2Qt9DayOfWeekEE6insertERKS1_)
    QSet<int>::const_iterator::operator ++() 0x00012d6d   Thumb Code    16  qtorganizer_symbian.in(t._ZN4QSetIiE14const_iteratorppEv)
    QSet<int>::insert(const int&)            0x00012d7d   Thumb Code   102  qtorganizer_symbian.in(t._ZN4QSetIiE6insertERKi)
    QSet<int>::QSet()                        0x00012de5   Thumb Code    18  qtorganizer_symbian.in(t._ZN4QSetIiEC1Ev)
    QSet<int>::QSet__sub_object()            0x00012de5   Thumb Code     0  qtorganizer_symbian.in(t._ZN4QSetIiEC1Ev)
    QSet<int>::operator <<(const int&)       0x00012dfd   Thumb Code    18  qtorganizer_symbian.in(t._ZN4QSetIiElsERKi)
    QHash<QDate, QHashDummyValue>::deleteNode2(QHashData::Node*) 0x00012e0f   Thumb Code     2  qtorganizer_symbian.in(t._ZN5QHashI5QDate15QHashDummyValueE11deleteNode2EPN9QHashData4NodeE)
    QHash<QDate, QHashDummyValue>::duplicateNode(QHashData::Node*, void*) 0x00012e11   Thumb Code    20  qtorganizer_symbian.in(t._ZN5QHashI5QDate15QHashDummyValueE13duplicateNodeEPN9QHashData4NodeEPv)
    QHash<QDate, QHashDummyValue>::detach()  0x00012e25   Thumb Code    60  qtorganizer_symbian.in(t._ZN5QHashI5QDate15QHashDummyValueE6detachEv)
    QHash<QDate, QHashDummyValue>::freeData(QHashData*) 0x00012e69   Thumb Code    12  qtorganizer_symbian.in(t._ZN5QHashI5QDate15QHashDummyValueE8freeDataEP9QHashData)
    QHash<QDate, QHashDummyValue>::~QHash()  0x00012e79   Thumb Code    28  qtorganizer_symbian.in(t._ZN5QHashI5QDate15QHashDummyValueED1Ev)
    QHash<QDate, QHashDummyValue>::~QHash__sub_object() 0x00012e79   Thumb Code     0  qtorganizer_symbian.in(t._ZN5QHashI5QDate15QHashDummyValueED1Ev)
    QHash<QtMobility::QOrganizerItemId, QHashDummyValue>::deleteNode2(QHashData::Node*) 0x00012e95   Thumb Code    10  qtorganizer_symbian.in(t._ZN5QHashIN10QtMobility16QOrganizerItemIdE15QHashDummyValueE11deleteNode2EPN9QHashData4NodeE)
    QHash<QtMobility::QOrganizerItemId, QHashDummyValue>::duplicateNode(QHashData::Node*, void*) 0x00012e9f   Thumb Code    28  qtorganizer_symbian.in(t._ZN5QHashIN10QtMobility16QOrganizerItemIdE15QHashDummyValueE13duplicateNodeEPN9QHashData4NodeEPv)
    QHash<QtMobility::QOrganizerItemId, QHashDummyValue>::insert(const QtMobility::QOrganizerItemId&, const QHashDummyValue&) 0x00012ec9   Thumb Code   170  qtorganizer_symbian.in(t._ZN5QHashIN10QtMobility16QOrganizerItemIdE15QHashDummyValueE6insertERKS1_RKS2_)
    QHash<QtMobility::QOrganizerItemId, QHashDummyValue>::freeData(QHashData*) 0x00012f89   Thumb Code    12  qtorganizer_symbian.in(t._ZN5QHashIN10QtMobility16QOrganizerItemIdE15QHashDummyValueE8freeDataEP9QHashData)
    QHash<QtMobility::QOrganizerItemId, QHashDummyValue>::~QHash() 0x00012f99   Thumb Code    28  qtorganizer_symbian.in(t._ZN5QHashIN10QtMobility16QOrganizerItemIdE15QHashDummyValueED1Ev)
    QHash<QtMobility::QOrganizerItemId, QHashDummyValue>::~QHash__sub_object() 0x00012f99   Thumb Code     0  qtorganizer_symbian.in(t._ZN5QHashIN10QtMobility16QOrganizerItemIdE15QHashDummyValueED1Ev)
    QHash<QtMobility::QOrganizerCollectionId, QHashDummyValue>::deleteNode2(QHashData::Node*) 0x00012fb5   Thumb Code    10  qtorganizer_symbian.in(t._ZN5QHashIN10QtMobility22QOrganizerCollectionIdE15QHashDummyValueE11deleteNode2EPN9QHashData4NodeE)
    QHash<QtMobility::QOrganizerCollectionId, QHashDummyValue>::~QHash() 0x00012fc1   Thumb Code    28  qtorganizer_symbian.in(t._ZN5QHashIN10QtMobility22QOrganizerCollectionIdE15QHashDummyValueED1Ev)
    QHash<QtMobility::QOrganizerCollectionId, QHashDummyValue>::~QHash__sub_object() 0x00012fc1   Thumb Code     0  qtorganizer_symbian.in(t._ZN5QHashIN10QtMobility22QOrganizerCollectionIdE15QHashDummyValueED1Ev)
    QHash<QtMobility::QOrganizerRecurrenceRule::Month, QHashDummyValue>::deleteNode2(QHashData::Node*) 0x00012fe1   Thumb Code     2  qtorganizer_symbian.in(t._ZN5QHashIN10QtMobility24QOrganizerRecurrenceRule5MonthE15QHashDummyValueE11deleteNode2EPN9QHashData4NodeE)
    QHash<QtMobility::QOrganizerRecurrenceRule::Month, QHashDummyValue>::duplicateNode(QHashData::Node*, void*) 0x00012fe3   Thumb Code    20  qtorganizer_symbian.in(t._ZN5QHashIN10QtMobility24QOrganizerRecurrenceRule5MonthE15QHashDummyValueE13duplicateNodeEPN9QHashData4NodeEPv)
    QHash<QtMobility::QOrganizerRecurrenceRule::Month, QHashDummyValue>::detach() 0x00012ff9   Thumb Code    60  qtorganizer_symbian.in(t._ZN5QHashIN10QtMobility24QOrganizerRecurrenceRule5MonthE15QHashDummyValueE6detachEv)
    QHash<QtMobility::QOrganizerRecurrenceRule::Month, QHashDummyValue>::freeData(QHashData*) 0x0001303d   Thumb Code    12  qtorganizer_symbian.in(t._ZN5QHashIN10QtMobility24QOrganizerRecurrenceRule5MonthE15QHashDummyValueE8freeDataEP9QHashData)
    QHash<QtMobility::QOrganizerRecurrenceRule::Month, QHashDummyValue>::~QHash() 0x0001304d   Thumb Code    28  qtorganizer_symbian.in(t._ZN5QHashIN10QtMobility24QOrganizerRecurrenceRule5MonthE15QHashDummyValueED1Ev)
    QHash<QtMobility::QOrganizerRecurrenceRule::Month, QHashDummyValue>::~QHash__sub_object() 0x0001304d   Thumb Code     0  qtorganizer_symbian.in(t._ZN5QHashIN10QtMobility24QOrganizerRecurrenceRule5MonthE15QHashDummyValueED1Ev)
    QHash<QtMobility::QOrganizerRecurrenceRule, QHashDummyValue>::deleteNode2(QHashData::Node*) 0x00013069   Thumb Code    10  qtorganizer_symbian.in(t._ZN5QHashIN10QtMobility24QOrganizerRecurrenceRuleE15QHashDummyValueE11deleteNode2EPN9QHashData4NodeE)
    QHash<QtMobility::QOrganizerRecurrenceRule, QHashDummyValue>::duplicateNode(QHashData::Node*, void*) 0x00013073   Thumb Code    28  qtorganizer_symbian.in(t._ZN5QHashIN10QtMobility24QOrganizerRecurrenceRuleE15QHashDummyValueE13duplicateNodeEPN9QHashData4NodeEPv)
    QHash<QtMobility::QOrganizerRecurrenceRule, QHashDummyValue>::insert(const QtMobility::QOrganizerRecurrenceRule&, const QHashDummyValue&) 0x0001309d   Thumb Code   160  qtorganizer_symbian.in(t._ZN5QHashIN10QtMobility24QOrganizerRecurrenceRuleE15QHashDummyValueE6insertERKS1_RKS2_)
    QHash<QtMobility::QOrganizerRecurrenceRule, QHashDummyValue>::freeData(QHashData*) 0x00013151   Thumb Code    12  qtorganizer_symbian.in(t._ZN5QHashIN10QtMobility24QOrganizerRecurrenceRuleE15QHashDummyValueE8freeDataEP9QHashData)
    QHash<QtMobility::QOrganizerRecurrenceRule, QHashDummyValue>::~QHash() 0x00013161   Thumb Code    28  qtorganizer_symbian.in(t._ZN5QHashIN10QtMobility24QOrganizerRecurrenceRuleE15QHashDummyValueED1Ev)
    QHash<QtMobility::QOrganizerRecurrenceRule, QHashDummyValue>::~QHash__sub_object() 0x00013161   Thumb Code     0  qtorganizer_symbian.in(t._ZN5QHashIN10QtMobility24QOrganizerRecurrenceRuleE15QHashDummyValueED1Ev)
    QHash<Qt::DayOfWeek, QHashDummyValue>::deleteNode2(QHashData::Node*) 0x0001317d   Thumb Code     2  qtorganizer_symbian.in(t._ZN5QHashIN2Qt9DayOfWeekE15QHashDummyValueE11deleteNode2EPN9QHashData4NodeE)
    QHash<Qt::DayOfWeek, QHashDummyValue>::duplicateNode(QHashData::Node*, void*) 0x0001317f   Thumb Code    20  qtorganizer_symbian.in(t._ZN5QHashIN2Qt9DayOfWeekE15QHashDummyValueE13duplicateNodeEPN9QHashData4NodeEPv)
    QHash<Qt::DayOfWeek, QHashDummyValue>::detach() 0x00013195   Thumb Code    60  qtorganizer_symbian.in(t._ZN5QHashIN2Qt9DayOfWeekE15QHashDummyValueE6detachEv)
    QHash<Qt::DayOfWeek, QHashDummyValue>::freeData(QHashData*) 0x000131d9   Thumb Code    12  qtorganizer_symbian.in(t._ZN5QHashIN2Qt9DayOfWeekE15QHashDummyValueE8freeDataEP9QHashData)
    QHash<Qt::DayOfWeek, QHashDummyValue>::~QHash() 0x000131e9   Thumb Code    28  qtorganizer_symbian.in(t._ZN5QHashIN2Qt9DayOfWeekE15QHashDummyValueED1Ev)
    QHash<Qt::DayOfWeek, QHashDummyValue>::~QHash__sub_object() 0x000131e9   Thumb Code     0  qtorganizer_symbian.in(t._ZN5QHashIN2Qt9DayOfWeekE15QHashDummyValueED1Ev)
    QHash<int, QHashDummyValue>::deleteNode2(QHashData::Node*) 0x00013205   Thumb Code     2  qtorganizer_symbian.in(t._ZN5QHashIi15QHashDummyValueE11deleteNode2EPN9QHashData4NodeE)
    QHash<int, QHashDummyValue>::duplicateNode(QHashData::Node*, void*) 0x00013207   Thumb Code    10  qtorganizer_symbian.in(t._ZN5QHashIi15QHashDummyValueE13duplicateNodeEPN9QHashData4NodeEPv)
    QHash<int, QHashDummyValue>::detach()    0x00013211   Thumb Code    60  qtorganizer_symbian.in(t._ZN5QHashIi15QHashDummyValueE6detachEv)
    QHash<int, QHashDummyValue>::freeData(QHashData*) 0x00013255   Thumb Code    12  qtorganizer_symbian.in(t._ZN5QHashIi15QHashDummyValueE8freeDataEP9QHashData)
    QHash<int, QHashDummyValue>::~QHash()    0x00013265   Thumb Code    28  qtorganizer_symbian.in(t._ZN5QHashIi15QHashDummyValueED1Ev)
    QHash<int, QHashDummyValue>::~QHash__sub_object() 0x00013265   Thumb Code     0  qtorganizer_symbian.in(t._ZN5QHashIi15QHashDummyValueED1Ev)
    QList<OrganizerSymbianCollection>::detach_helper(int) 0x00013281   Thumb Code    86  qtorganizer_symbian.in(t._ZN5QListI26OrganizerSymbianCollectionE13detach_helperEi)
    QList<OrganizerSymbianCollection>::node_destruct(QList<OrganizerSymbianCollection>::Node*, QList<OrganizerSymbianCollection>::Node*) 0x000132df   Thumb Code    30  qtorganizer_symbian.in(t._ZN5QListI26OrganizerSymbianCollectionE13node_destructEPNS1_4NodeES3_)
    QList<OrganizerSymbianCollection>::node_construct(QList<OrganizerSymbianCollection>::Node*, const OrganizerSymbianCollection&) 0x000132fd   Thumb Code    32  qtorganizer_symbian.in(t._ZN5QListI26OrganizerSymbianCollectionE14node_constructEPNS1_4NodeERKS0_)
    QList<OrganizerSymbianCollection>::detach_helper_grow(int, int) 0x00013327   Thumb Code   180  qtorganizer_symbian.in(t._ZN5QListI26OrganizerSymbianCollectionE18detach_helper_growEii)
    QList<OrganizerSymbianCollection>::free(QListData::Data*) 0x000133e3   Thumb Code    44  qtorganizer_symbian.in(t._ZN5QListI26OrganizerSymbianCollectionE4freeEPN9QListData4DataE)
    QList<OrganizerSymbianCollection>::append(const OrganizerSymbianCollection&) 0x00013411   Thumb Code    90  qtorganizer_symbian.in(t._ZN5QListI26OrganizerSymbianCollectionE6appendERKS0_)
    QList<OrganizerSymbianCollection>::node_copy(QList<OrganizerSymbianCollection>::Node*, QList<OrganizerSymbianCollection>::Node*, QList<OrganizerSymbianCollection>::Node*) 0x00013479   Thumb Code    80  qtorganizer_symbian.in(t._ZN5QListI26OrganizerSymbianCollectionE9node_copyEPNS1_4NodeES3_S3_)
    QList<OrganizerSymbianCollection>::QList(const QList<OrganizerSymbianCollection>&) 0x000134db   Thumb Code    32  qtorganizer_symbian.in(t._ZN5QListI26OrganizerSymbianCollectionEC1ERKS1_)
    QList<OrganizerSymbianCollection>::QList__sub_object(const QList<OrganizerSymbianCollection>&) 0x000134db   Thumb Code     0  qtorganizer_symbian.in(t._ZN5QListI26OrganizerSymbianCollectionEC1ERKS1_)
    QList<OrganizerSymbianCollection>::QList() 0x000134fd   Thumb Code    16  qtorganizer_symbian.in(t._ZN5QListI26OrganizerSymbianCollectionEC1Ev)
    QList<OrganizerSymbianCollection>::QList__sub_object() 0x000134fd   Thumb Code     0  qtorganizer_symbian.in(t._ZN5QListI26OrganizerSymbianCollectionEC1Ev)
    QList<OrganizerSymbianCollection>::~QList() 0x00013511   Thumb Code    30  qtorganizer_symbian.in(t._ZN5QListI26OrganizerSymbianCollectionED1Ev)
    QList<OrganizerSymbianCollection>::~QList__sub_object() 0x00013511   Thumb Code     0  qtorganizer_symbian.in(t._ZN5QListI26OrganizerSymbianCollectionED1Ev)
    QList<QString>::detach_helper(int)       0x0001352f   Thumb Code    86  qtorganizer_symbian.in(t._ZN5QListI7QStringE13detach_helperEi)
    QList<QString>::detach_helper()          0x0001358d   Thumb Code    12  qtorganizer_symbian.in(t._ZN5QListI7QStringE13detach_helperEv)
    QList<QString>::node_construct(QList<QString>::Node*, const QString&) 0x00013599   Thumb Code    26  qtorganizer_symbian.in(t._ZN5QListI7QStringE14node_constructEPNS1_4NodeERKS0_)
    QList<QString>::detach_helper_grow(int, int) 0x000135bf   Thumb Code   186  qtorganizer_symbian.in(t._ZN5QListI7QStringE18detach_helper_growEii)
    QList<QString>::free(QListData::Data*)   0x00013681   Thumb Code    48  qtorganizer_symbian.in(t._ZN5QListI7QStringE4freeEPN9QListData4DataE)
    QList<QString>::append(const QString&)   0x000136b1   Thumb Code    94  qtorganizer_symbian.in(t._ZN5QListI7QStringE6appendERKS0_)
    QList<QString>::reserve(int)             0x0001371d   Thumb Code    44  qtorganizer_symbian.in(t._ZN5QListI7QStringE7reserveEi)
    QList<QString>::node_copy(QList<QString>::Node*, QList<QString>::Node*, QList<QString>::Node*) 0x00013749   Thumb Code    70  qtorganizer_symbian.in(t._ZN5QListI7QStringE9node_copyEPNS1_4NodeES3_S3_)
    QList<QString>::QList(const QList<QString>&) 0x000137a5   Thumb Code    30  qtorganizer_symbian.in(t._ZN5QListI7QStringEC1ERKS1_)
    QList<QString>::QList__sub_object(const QList<QString>&) 0x000137a5   Thumb Code     0  qtorganizer_symbian.in(t._ZN5QListI7QStringEC1ERKS1_)
    QList<QString>::QList()                  0x000137c5   Thumb Code    16  qtorganizer_symbian.in(t._ZN5QListI7QStringEC1Ev)
    QList<QString>::QList__sub_object()      0x000137c5   Thumb Code     0  qtorganizer_symbian.in(t._ZN5QListI7QStringEC1Ev)
    QList<QString>::~QList()                 0x000137d9   Thumb Code    30  qtorganizer_symbian.in(t._ZN5QListI7QStringED1Ev)
    QList<QString>::~QList__sub_object()     0x000137d9   Thumb Code     0  qtorganizer_symbian.in(t._ZN5QListI7QStringED1Ev)
    QList<QString>::operator [](int)         0x000137f7   Thumb Code    34  qtorganizer_symbian.in(t._ZN5QListI7QStringEixEi)
    QList<QVariant>::~QList()                0x00013819   Thumb Code    74  qtorganizer_symbian.in(t._ZN5QListI8QVariantED1Ev)
    QList<QVariant>::~QList__sub_object()    0x00013819   Thumb Code     0  qtorganizer_symbian.in(t._ZN5QListI8QVariantED1Ev)
    QList<QtMobility::QOrganizerItem>::detach_helper() 0x00013863   Thumb Code    88  qtorganizer_symbian.in(t._ZN5QListIN10QtMobility14QOrganizerItemEE13detach_helperEv)
    QList<QtMobility::QOrganizerItem>::node_construct(QList<QtMobility::QOrganizerItem>::Node*, const QtMobility::QOrganizerItem&) 0x000138c3   Thumb Code    26  qtorganizer_symbian.in(t._ZN5QListIN10QtMobility14QOrganizerItemEE14node_constructEPNS2_4NodeERKS1_)
    QList<QtMobility::QOrganizerItem>::detach_helper_grow(int, int) 0x000138e9   Thumb Code   186  qtorganizer_symbian.in(t._ZN5QListIN10QtMobility14QOrganizerItemEE18detach_helper_growEii)
    QList<QtMobility::QOrganizerItem>::free(QListData::Data*) 0x000139ab   Thumb Code    54  qtorganizer_symbian.in(t._ZN5QListIN10QtMobility14QOrganizerItemEE4freeEPN9QListData4DataE)
    QList<QtMobility::QOrganizerItem>::append(const QtMobility::QOrganizerItem&) 0x000139e1   Thumb Code    94  qtorganizer_symbian.in(t._ZN5QListIN10QtMobility14QOrganizerItemEE6appendERKS1_)
    QList<QtMobility::QOrganizerItem>::detach() 0x00013a4d   Thumb Code    24  qtorganizer_symbian.in(t._ZN5QListIN10QtMobility14QOrganizerItemEE6detachEv)
    QList<QtMobility::QOrganizerItem>::node_copy(QList<QtMobility::QOrganizerItem>::Node*, QList<QtMobility::QOrganizerItem>::Node*, QList<QtMobility::QOrganizerItem>::Node*) 0x00013a65   Thumb Code    70  qtorganizer_symbian.in(t._ZN5QListIN10QtMobility14QOrganizerItemEE9node_copyEPNS2_4NodeES4_S4_)
    QList<QtMobility::QOrganizerItem>::QList(const QList<QtMobility::QOrganizerItem>&) 0x00013ac1   Thumb Code    30  qtorganizer_symbian.in(t._ZN5QListIN10QtMobility14QOrganizerItemEEC1ERKS2_)
    QList<QtMobility::QOrganizerItem>::QList__sub_object(const QList<QtMobility::QOrganizerItem>&) 0x00013ac1   Thumb Code     0  qtorganizer_symbian.in(t._ZN5QListIN10QtMobility14QOrganizerItemEEC1ERKS2_)
    QList<QtMobility::QOrganizerItem>::QList() 0x00013ae1   Thumb Code    16  qtorganizer_symbian.in(t._ZN5QListIN10QtMobility14QOrganizerItemEEC1Ev)
    QList<QtMobility::QOrganizerItem>::QList__sub_object() 0x00013ae1   Thumb Code     0  qtorganizer_symbian.in(t._ZN5QListIN10QtMobility14QOrganizerItemEEC1Ev)
    QList<QtMobility::QOrganizerItem>::~QList() 0x00013af5   Thumb Code    30  qtorganizer_symbian.in(t._ZN5QListIN10QtMobility14QOrganizerItemEED1Ev)
    QList<QtMobility::QOrganizerItem>::~QList__sub_object() 0x00013af5   Thumb Code     0  qtorganizer_symbian.in(t._ZN5QListIN10QtMobility14QOrganizerItemEED1Ev)
    QList<QtMobility::QOrganizerItem>::operator =(const QList<QtMobility::QOrganizerItem>&) 0x00013b13   Thumb Code    54  qtorganizer_symbian.in(t._ZN5QListIN10QtMobility14QOrganizerItemEEaSERKS2_)
    QList<QtMobility::QOrganizerItem>::operator [](int) 0x00013b49   Thumb Code    20  qtorganizer_symbian.in(t._ZN5QListIN10QtMobility14QOrganizerItemEEixEi)
    QList<QtMobility::QOrganizerItem>::operator +=(const QList<QtMobility::QOrganizerItem>&) 0x00013b5d   Thumb Code   132  qtorganizer_symbian.in(t._ZN5QListIN10QtMobility14QOrganizerItemEEpLERKS2_)
    QList<QtMobility::QOrganizerItemId>::detach_helper(int) 0x00013bed   Thumb Code    86  qtorganizer_symbian.in(t._ZN5QListIN10QtMobility16QOrganizerItemIdEE13detach_helperEi)
    QList<QtMobility::QOrganizerItemId>::detach_helper() 0x00013c4b   Thumb Code    12  qtorganizer_symbian.in(t._ZN5QListIN10QtMobility16QOrganizerItemIdEE13detach_helperEv)
    QList<QtMobility::QOrganizerItemId>::node_construct(QList<QtMobility::QOrganizerItemId>::Node*, const QtMobility::QOrganizerItemId&) 0x00013c57   Thumb Code    26  qtorganizer_symbian.in(t._ZN5QListIN10QtMobility16QOrganizerItemIdEE14node_constructEPNS2_4NodeERKS1_)
    QList<QtMobility::QOrganizerItemId>::detach_helper_grow(int, int) 0x00013c7d   Thumb Code   186  qtorganizer_symbian.in(t._ZN5QListIN10QtMobility16QOrganizerItemIdEE18detach_helper_growEii)
    QList<QtMobility::QOrganizerItemId>::free(QListData::Data*) 0x00013d3f   Thumb Code    54  qtorganizer_symbian.in(t._ZN5QListIN10QtMobility16QOrganizerItemIdEE4freeEPN9QListData4DataE)
    QList<QtMobility::QOrganizerItemId>::append(const QtMobility::QOrganizerItemId&) 0x00013d75   Thumb Code    94  qtorganizer_symbian.in(t._ZN5QListIN10QtMobility16QOrganizerItemIdEE6appendERKS1_)
    QList<QtMobility::QOrganizerItemId>::node_copy(QList<QtMobility::QOrganizerItemId>::Node*, QList<QtMobility::QOrganizerItemId>::Node*, QList<QtMobility::QOrganizerItemId>::Node*) 0x00013de1   Thumb Code    70  qtorganizer_symbian.in(t._ZN5QListIN10QtMobility16QOrganizerItemIdEE9node_copyEPNS2_4NodeES4_S4_)
    QList<QtMobility::QOrganizerItemId>::QList(const QList<QtMobility::QOrganizerItemId>&) 0x00013e3d   Thumb Code    30  qtorganizer_symbian.in(t._ZN5QListIN10QtMobility16QOrganizerItemIdEEC1ERKS2_)
    QList<QtMobility::QOrganizerItemId>::QList__sub_object(const QList<QtMobility::QOrganizerItemId>&) 0x00013e3d   Thumb Code     0  qtorganizer_symbian.in(t._ZN5QListIN10QtMobility16QOrganizerItemIdEEC1ERKS2_)
    QList<QtMobility::QOrganizerItemId>::QList() 0x00013e5d   Thumb Code    16  qtorganizer_symbian.in(t._ZN5QListIN10QtMobility16QOrganizerItemIdEEC1Ev)
    QList<QtMobility::QOrganizerItemId>::QList__sub_object() 0x00013e5d   Thumb Code     0  qtorganizer_symbian.in(t._ZN5QListIN10QtMobility16QOrganizerItemIdEEC1Ev)
    QList<QtMobility::QOrganizerItemId>::~QList() 0x00013e71   Thumb Code    30  qtorganizer_symbian.in(t._ZN5QListIN10QtMobility16QOrganizerItemIdEED1Ev)
    QList<QtMobility::QOrganizerItemId>::~QList__sub_object() 0x00013e71   Thumb Code     0  qtorganizer_symbian.in(t._ZN5QListIN10QtMobility16QOrganizerItemIdEED1Ev)
    QList<QtMobility::QOrganizerItemId>::operator =(const QList<QtMobility::QOrganizerItemId>&) 0x00013e8f   Thumb Code    56  qtorganizer_symbian.in(t._ZN5QListIN10QtMobility16QOrganizerItemIdEEaSERKS2_)
    QList<QtMobility::QOrganizerManager::Error>::node_destruct(QList<QtMobility::QOrganizerManager::Error>::Node*, QList<QtMobility::QOrganizerManager::Error>::Node*) 0x00013ec7   Thumb Code    22  qtorganizer_symbian.in(t._ZN5QListIN10QtMobility17QOrganizerManager5ErrorEE13node_destructEPNS3_4NodeES5_)
    QList<QtMobility::QOrganizerManager::Error>::node_construct(QList<QtMobility::QOrganizerManager::Error>::Node*, const QtMobility::QOrganizerManager::Error&) 0x00013edd   Thumb Code    28  qtorganizer_symbian.in(t._ZN5QListIN10QtMobility17QOrganizerManager5ErrorEE14node_constructEPNS3_4NodeERKS2_)
    QList<QtMobility::QOrganizerManager::Error>::detach_helper_grow(int, int) 0x00013ef9   Thumb Code   180  qtorganizer_symbian.in(t._ZN5QListIN10QtMobility17QOrganizerManager5ErrorEE18detach_helper_growEii)
    QList<QtMobility::QOrganizerManager::Error>::free(QListData::Data*) 0x00013fb5   Thumb Code    44  qtorganizer_symbian.in(t._ZN5QListIN10QtMobility17QOrganizerManager5ErrorEE4freeEPN9QListData4DataE)
    QList<QtMobility::QOrganizerManager::Error>::append(const QtMobility::QOrganizerManager::Error&) 0x00013fe1   Thumb Code    90  qtorganizer_symbian.in(t._ZN5QListIN10QtMobility17QOrganizerManager5ErrorEE6appendERKS2_)
    QList<QtMobility::QOrganizerManager::Error>::reserve(int) 0x00014049   Thumb Code   116  qtorganizer_symbian.in(t._ZN5QListIN10QtMobility17QOrganizerManager5ErrorEE7reserveEi)
    QList<QtMobility::QOrganizerManager::Error>::node_copy(QList<QtMobility::QOrganizerManager::Error>::Node*, QList<QtMobility::QOrganizerManager::Error>::Node*, QList<QtMobility::QOrganizerManager::Error>::Node*) 0x000140c5   Thumb Code    40  qtorganizer_symbian.in(t._ZN5QListIN10QtMobility17QOrganizerManager5ErrorEE9node_copyEPNS3_4NodeES5_S5_)
    QList<QtMobility::QOrganizerManager::Error>::~QList() 0x000140ed   Thumb Code    30  qtorganizer_symbian.in(t._ZN5QListIN10QtMobility17QOrganizerManager5ErrorEED1Ev)
    QList<QtMobility::QOrganizerManager::Error>::~QList__sub_object() 0x000140ed   Thumb Code     0  qtorganizer_symbian.in(t._ZN5QListIN10QtMobility17QOrganizerManager5ErrorEED1Ev)
    QList<QtMobility::QOrganizerCollection>::detach_helper(int) 0x0001410b   Thumb Code   142  qtorganizer_symbian.in(t._ZN5QListIN10QtMobility20QOrganizerCollectionEE13detach_helperEi)
    QList<QtMobility::QOrganizerCollection>::detach_helper() 0x000141ad   Thumb Code    88  qtorganizer_symbian.in(t._ZN5QListIN10QtMobility20QOrganizerCollectionEE13detach_helperEv)
    QList<QtMobility::QOrganizerCollection>::node_construct(QList<QtMobility::QOrganizerCollection>::Node*, const QtMobility::QOrganizerCollection&) 0x0001420d   Thumb Code    26  qtorganizer_symbian.in(t._ZN5QListIN10QtMobility20QOrganizerCollectionEE14node_constructEPNS2_4NodeERKS1_)
    QList<QtMobility::QOrganizerCollection>::detach_helper_grow(int, int) 0x00014233   Thumb Code   186  qtorganizer_symbian.in(t._ZN5QListIN10QtMobility20QOrganizerCollectionEE18detach_helper_growEii)
    QList<QtMobility::QOrganizerCollection>::free(QListData::Data*) 0x000142f5   Thumb Code    54  qtorganizer_symbian.in(t._ZN5QListIN10QtMobility20QOrganizerCollectionEE4freeEPN9QListData4DataE)
    QList<QtMobility::QOrganizerCollection>::append(const QtMobility::QOrganizerCollection&) 0x0001432d   Thumb Code    94  qtorganizer_symbian.in(t._ZN5QListIN10QtMobility20QOrganizerCollectionEE6appendERKS1_)
    QList<QtMobility::QOrganizerCollection>::node_copy(QList<QtMobility::QOrganizerCollection>::Node*, QList<QtMobility::QOrganizerCollection>::Node*, QList<QtMobility::QOrganizerCollection>::Node*) 0x00014399   Thumb Code    70  qtorganizer_symbian.in(t._ZN5QListIN10QtMobility20QOrganizerCollectionEE9node_copyEPNS2_4NodeES4_S4_)
    QList<QtMobility::QOrganizerCollection>::QList() 0x000143f5   Thumb Code    16  qtorganizer_symbian.in(t._ZN5QListIN10QtMobility20QOrganizerCollectionEEC1Ev)
    QList<QtMobility::QOrganizerCollection>::QList__sub_object() 0x000143f5   Thumb Code     0  qtorganizer_symbian.in(t._ZN5QListIN10QtMobility20QOrganizerCollectionEEC1Ev)
    QList<QtMobility::QOrganizerCollection>::~QList() 0x00014409   Thumb Code    30  qtorganizer_symbian.in(t._ZN5QListIN10QtMobility20QOrganizerCollectionEED1Ev)
    QList<QtMobility::QOrganizerCollection>::~QList__sub_object() 0x00014409   Thumb Code     0  qtorganizer_symbian.in(t._ZN5QListIN10QtMobility20QOrganizerCollectionEED1Ev)
    QList<QtMobility::QOrganizerItemFilter>::detach_helper() 0x00014427   Thumb Code    88  qtorganizer_symbian.in(t._ZN5QListIN10QtMobility20QOrganizerItemFilterEE13detach_helperEv)
    QList<QtMobility::QOrganizerItemFilter>::node_construct(QList<QtMobility::QOrganizerItemFilter>::Node*, const QtMobility::QOrganizerItemFilter&) 0x00014487   Thumb Code    26  qtorganizer_symbian.in(t._ZN5QListIN10QtMobility20QOrganizerItemFilterEE14node_constructEPNS2_4NodeERKS1_)
    QList<QtMobility::QOrganizerItemFilter>::detach_helper_grow(int, int) 0x000144ad   Thumb Code   186  qtorganizer_symbian.in(t._ZN5QListIN10QtMobility20QOrganizerItemFilterEE18detach_helper_growEii)
    QList<QtMobility::QOrganizerItemFilter>::free(QListData::Data*) 0x0001456f   Thumb Code    54  qtorganizer_symbian.in(t._ZN5QListIN10QtMobility20QOrganizerItemFilterEE4freeEPN9QListData4DataE)
    QList<QtMobility::QOrganizerItemFilter>::append(const QtMobility::QOrganizerItemFilter&) 0x000145a5   Thumb Code    94  qtorganizer_symbian.in(t._ZN5QListIN10QtMobility20QOrganizerItemFilterEE6appendERKS1_)
    QList<QtMobility::QOrganizerItemFilter>::node_copy(QList<QtMobility::QOrganizerItemFilter>::Node*, QList<QtMobility::QOrganizerItemFilter>::Node*, QList<QtMobility::QOrganizerItemFilter>::Node*) 0x00014611   Thumb Code    70  qtorganizer_symbian.in(t._ZN5QListIN10QtMobility20QOrganizerItemFilterEE9node_copyEPNS2_4NodeES4_S4_)
    QList<QtMobility::QOrganizerItemFilter>::~QList() 0x0001466d   Thumb Code    30  qtorganizer_symbian.in(t._ZN5QListIN10QtMobility20QOrganizerItemFilterEED1Ev)
    QList<QtMobility::QOrganizerItemFilter>::~QList__sub_object() 0x0001466d   Thumb Code     0  qtorganizer_symbian.in(t._ZN5QListIN10QtMobility20QOrganizerItemFilterEED1Ev)
    QList<QtMobility::QOrganizerCollectionId>::detach_helper(int) 0x0001468b   Thumb Code    86  qtorganizer_symbian.in(t._ZN5QListIN10QtMobility22QOrganizerCollectionIdEE13detach_helperEi)
    QList<QtMobility::QOrganizerCollectionId>::detach_helper() 0x000146e9   Thumb Code    12  qtorganizer_symbian.in(t._ZN5QListIN10QtMobility22QOrganizerCollectionIdEE13detach_helperEv)
    QList<QtMobility::QOrganizerCollectionId>::node_construct(QList<QtMobility::QOrganizerCollectionId>::Node*, const QtMobility::QOrganizerCollectionId&) 0x000146f5   Thumb Code    26  qtorganizer_symbian.in(t._ZN5QListIN10QtMobility22QOrganizerCollectionIdEE14node_constructEPNS2_4NodeERKS1_)
    QList<QtMobility::QOrganizerCollectionId>::detach_helper_grow(int, int) 0x0001471b   Thumb Code   186  qtorganizer_symbian.in(t._ZN5QListIN10QtMobility22QOrganizerCollectionIdEE18detach_helper_growEii)
    QList<QtMobility::QOrganizerCollectionId>::free(QListData::Data*) 0x000147dd   Thumb Code    54  qtorganizer_symbian.in(t._ZN5QListIN10QtMobility22QOrganizerCollectionIdEE4freeEPN9QListData4DataE)
    QList<QtMobility::QOrganizerCollectionId>::append(const QtMobility::QOrganizerCollectionId&) 0x00014815   Thumb Code    94  qtorganizer_symbian.in(t._ZN5QListIN10QtMobility22QOrganizerCollectionIdEE6appendERKS1_)
    QList<QtMobility::QOrganizerCollectionId>::reserve(int) 0x00014881   Thumb Code    44  qtorganizer_symbian.in(t._ZN5QListIN10QtMobility22QOrganizerCollectionIdEE7reserveEi)
    QList<QtMobility::QOrganizerCollectionId>::node_copy(QList<QtMobility::QOrganizerCollectionId>::Node*, QList<QtMobility::QOrganizerCollectionId>::Node*, QList<QtMobility::QOrganizerCollectionId>::Node*) 0x000148ad   Thumb Code    70  qtorganizer_symbian.in(t._ZN5QListIN10QtMobility22QOrganizerCollectionIdEE9node_copyEPNS2_4NodeES4_S4_)
    QList<QtMobility::QOrganizerCollectionId>::QList() 0x00014909   Thumb Code    16  qtorganizer_symbian.in(t._ZN5QListIN10QtMobility22QOrganizerCollectionIdEEC1Ev)
    QList<QtMobility::QOrganizerCollectionId>::QList__sub_object() 0x00014909   Thumb Code     0  qtorganizer_symbian.in(t._ZN5QListIN10QtMobility22QOrganizerCollectionIdEEC1Ev)
    QList<QtMobility::QOrganizerCollectionId>::~QList() 0x0001491d   Thumb Code    30  qtorganizer_symbian.in(t._ZN5QListIN10QtMobility22QOrganizerCollectionIdEED1Ev)
    QList<QtMobility::QOrganizerCollectionId>::~QList__sub_object() 0x0001491d   Thumb Code     0  qtorganizer_symbian.in(t._ZN5QListIN10QtMobility22QOrganizerCollectionIdEED1Ev)
    QList<QtMobility::QOrganizerCollectionId>::operator +=(const QList<QtMobility::QOrganizerCollectionId>&) 0x0001493d   Thumb Code   168  qtorganizer_symbian.in(t._ZN5QListIN10QtMobility22QOrganizerCollectionIdEEpLERKS2_)
    QList<QtMobility::QOrganizerItemSortOrder>::~QList() 0x000149f1   Thumb Code    72  qtorganizer_symbian.in(t._ZN5QListIN10QtMobility23QOrganizerItemSortOrderEED1Ev)
    QList<QtMobility::QOrganizerItemSortOrder>::~QList__sub_object() 0x000149f1   Thumb Code     0  qtorganizer_symbian.in(t._ZN5QListIN10QtMobility23QOrganizerItemSortOrderEED1Ev)
    QList<QtMobility::QOrganizerRecurrenceRule>::detach_helper(int) 0x00014a39   Thumb Code    86  qtorganizer_symbian.in(t._ZN5QListIN10QtMobility24QOrganizerRecurrenceRuleEE13detach_helperEi)
    QList<QtMobility::QOrganizerRecurrenceRule>::node_construct(QList<QtMobility::QOrganizerRecurrenceRule>::Node*, const QtMobility::QOrganizerRecurrenceRule&) 0x00014a97   Thumb Code    26  qtorganizer_symbian.in(t._ZN5QListIN10QtMobility24QOrganizerRecurrenceRuleEE14node_constructEPNS2_4NodeERKS1_)
    QList<QtMobility::QOrganizerRecurrenceRule>::detach_helper_grow(int, int) 0x00014abd   Thumb Code   186  qtorganizer_symbian.in(t._ZN5QListIN10QtMobility24QOrganizerRecurrenceRuleEE18detach_helper_growEii)
    QList<QtMobility::QOrganizerRecurrenceRule>::free(QListData::Data*) 0x00014b7f   Thumb Code    48  qtorganizer_symbian.in(t._ZN5QListIN10QtMobility24QOrganizerRecurrenceRuleEE4freeEPN9QListData4DataE)
    QList<QtMobility::QOrganizerRecurrenceRule>::append(const QtMobility::QOrganizerRecurrenceRule&) 0x00014bb1   Thumb Code    94  qtorganizer_symbian.in(t._ZN5QListIN10QtMobility24QOrganizerRecurrenceRuleEE6appendERKS1_)
    QList<QtMobility::QOrganizerRecurrenceRule>::node_copy(QList<QtMobility::QOrganizerRecurrenceRule>::Node*, QList<QtMobility::QOrganizerRecurrenceRule>::Node*, QList<QtMobility::QOrganizerRecurrenceRule>::Node*) 0x00014c1d   Thumb Code    70  qtorganizer_symbian.in(t._ZN5QListIN10QtMobility24QOrganizerRecurrenceRuleEE9node_copyEPNS2_4NodeES4_S4_)
    QList<QtMobility::QOrganizerRecurrenceRule>::~QList() 0x00014c79   Thumb Code    30  qtorganizer_symbian.in(t._ZN5QListIN10QtMobility24QOrganizerRecurrenceRuleEED1Ev)
    QList<QtMobility::QOrganizerRecurrenceRule>::~QList__sub_object() 0x00014c79   Thumb Code     0  qtorganizer_symbian.in(t._ZN5QListIN10QtMobility24QOrganizerRecurrenceRuleEED1Ev)
    QList<QtMobility::QOrganizerItemDetailDefinition>::~QList() 0x00014c97   Thumb Code    72  qtorganizer_symbian.in(t._ZN5QListIN10QtMobility30QOrganizerItemDetailDefinitionEED1Ev)
    QList<QtMobility::QOrganizerItemDetailDefinition>::~QList__sub_object() 0x00014c97   Thumb Code     0  qtorganizer_symbian.in(t._ZN5QListIN10QtMobility30QOrganizerItemDetailDefinitionEED1Ev)
    QList<OrganizerItemDetailTransform*>::detach_helper() 0x00014cdf   Thumb Code    88  qtorganizer_symbian.in(t._ZN5QListIP28OrganizerItemDetailTransformE13detach_helperEv)
    QList<OrganizerItemDetailTransform*>::detach_helper_grow(int, int) 0x00014d3f   Thumb Code   164  qtorganizer_symbian.in(t._ZN5QListIP28OrganizerItemDetailTransformE18detach_helper_growEii)
    QList<OrganizerItemDetailTransform*>::free(QListData::Data*) 0x00014deb   Thumb Code    16  qtorganizer_symbian.in(t._ZN5QListIP28OrganizerItemDetailTransformE4freeEPN9QListData4DataE)
    QList<OrganizerItemDetailTransform*>::append(OrganizerItemDetailTransform*const &) 0x00014dfd   Thumb Code    54  qtorganizer_symbian.in(t._ZN5QListIP28OrganizerItemDetailTransformE6appendERKS1_)
    QList<OrganizerItemDetailTransform*>::node_copy(QList<OrganizerItemDetailTransform*>::Node*, QList<OrganizerItemDetailTransform*>::Node*, QList<OrganizerItemDetailTransform*>::Node*) 0x00014e43   Thumb Code    28  qtorganizer_symbian.in(t._ZN5QListIP28OrganizerItemDetailTransformE9node_copyEPNS2_4NodeES4_S4_)
    QList<OrganizerItemDetailTransform*>::~QList() 0x00014e5f   Thumb Code    30  qtorganizer_symbian.in(t._ZN5QListIP28OrganizerItemDetailTransformED1Ev)
    QList<OrganizerItemDetailTransform*>::~QList__sub_object() 0x00014e5f   Thumb Code     0  qtorganizer_symbian.in(t._ZN5QListIP28OrganizerItemDetailTransformED1Ev)
    QList<QtMobility::QOrganizerAbstractRequest*>::detach_helper_grow(int, int) 0x00014e7d   Thumb Code   164  qtorganizer_symbian.in(t._ZN5QListIPN10QtMobility25QOrganizerAbstractRequestEE18detach_helper_growEii)
    QList<QtMobility::QOrganizerAbstractRequest*>::free(QListData::Data*) 0x00014f29   Thumb Code    16  qtorganizer_symbian.in(t._ZN5QListIPN10QtMobility25QOrganizerAbstractRequestEE4freeEPN9QListData4DataE)
    QList<QtMobility::QOrganizerAbstractRequest*>::reserve(int) 0x00014f39   Thumb Code   116  qtorganizer_symbian.in(t._ZN5QListIPN10QtMobility25QOrganizerAbstractRequestEE7reserveEi)
    QList<QtMobility::QOrganizerAbstractRequest*>::node_copy(QList<QtMobility::QOrganizerAbstractRequest*>::Node*, QList<QtMobility::QOrganizerAbstractRequest*>::Node*, QList<QtMobility::QOrganizerAbstractRequest*>::Node*) 0x00014fb5   Thumb Code    28  qtorganizer_symbian.in(t._ZN5QListIPN10QtMobility25QOrganizerAbstractRequestEE9node_copyEPNS3_4NodeES5_S5_)
    QList<QtMobility::QOrganizerAbstractRequest*>::~QList() 0x00014fd1   Thumb Code    30  qtorganizer_symbian.in(t._ZN5QListIPN10QtMobility25QOrganizerAbstractRequestEED1Ev)
    QList<QtMobility::QOrganizerAbstractRequest*>::~QList__sub_object() 0x00014fd1   Thumb Code     0  qtorganizer_symbian.in(t._ZN5QListIPN10QtMobility25QOrganizerAbstractRequestEED1Ev)
    QList<int>::detach_helper(int)           0x00014fef   Thumb Code    86  qtorganizer_symbian.in(t._ZN5QListIiE13detach_helperEi)
    QList<int>::detach_helper_grow(int, int) 0x0001504d   Thumb Code   164  qtorganizer_symbian.in(t._ZN5QListIiE18detach_helper_growEii)
    QList<int>::free(QListData::Data*)       0x000150f9   Thumb Code    24  qtorganizer_symbian.in(t._ZN5QListIiE4freeEPN9QListData4DataE)
    QList<int>::node_copy(QList<int>::Node*, QList<int>::Node*, QList<int>::Node*) 0x00015111   Thumb Code    28  qtorganizer_symbian.in(t._ZN5QListIiE9node_copyEPNS0_4NodeES2_S2_)
    QList<int>::~QList()                     0x0001512d   Thumb Code    30  qtorganizer_symbian.in(t._ZN5QListIiED1Ev)
    QList<int>::~QList__sub_object()         0x0001512d   Thumb Code     0  qtorganizer_symbian.in(t._ZN5QListIiED1Ev)
    QList<int>::operator <<(const int&)      0x0001514d   Thumb Code    56  qtorganizer_symbian.in(t._ZN5QListIiElsERKi)
    RArray<TDay>::AppendL(const TDay&)       0x00015193   Thumb Code    12  qtorganizer_symbian.in(t._ZN6RArrayI4TDayE7AppendLERKS0_)
    RArray<TCalTime>::RArray()               0x0001519f   Thumb Code    10  qtorganizer_symbian.in(t._ZN6RArrayI8TCalTimeEC1Ev)
    RArray<TCalTime>::RArray__sub_object()   0x0001519f   Thumb Code     0  qtorganizer_symbian.in(t._ZN6RArrayI8TCalTimeEC1Ev)
    QPointer<QObject>::~QPointer()           0x000151a9   Thumb Code    12  qtorganizer_symbian.in(t._ZN8QPointerI7QObjectED1Ev)
    QPointer<QObject>::~QPointer__sub_object() 0x000151a9   Thumb Code     0  qtorganizer_symbian.in(t._ZN8QPointerI7QObjectED1Ev)
    QtMobility::QOrganizerItem::detail<QtMobility::QOrganizerItemParent>() const 0x000151b5   Thumb Code    32  qtorganizer_symbian.in(t._ZNK10QtMobility14QOrganizerItem6detailINS_20QOrganizerItemParentEEET_v)
    QtMobility::QOrganizerItem::detail<QtMobility::QOrganizerItemTimestamp>() const 0x000151e5   Thumb Code    32  qtorganizer_symbian.in(t._ZNK10QtMobility14QOrganizerItem6detailINS_23QOrganizerItemTimestampEEET_v)
    QtMobility::QLatin1Constant<(int)9>::operator QString() const 0x00015213   Thumb Code    10  qtorganizer_symbian.in(t._ZNK10QtMobility15QLatin1ConstantILi9EEcv7QStringEv)
    QtMobility::QOrganizerItemDetail::value<QDateTime>(const char*) const 0x0001521d   Thumb Code    98  qtorganizer_symbian.in(t._ZNK10QtMobility20QOrganizerItemDetail5valueI9QDateTimeEET_PKc)
    QForeachContainer<QSet<Qt::DayOfWeek>>::condition() const 0x00015291   Thumb Code    26  qtorganizer_symbian.in(t._ZNK17QForeachContainerI4QSetIN2Qt9DayOfWeekEEE9conditionEv)
    QForeachContainer<QSet<int>>::condition() const 0x000152ab   Thumb Code    26  qtorganizer_symbian.in(t._ZNK17QForeachContainerI4QSetIiEE9conditionEv)
    QForeachContainer<QList<OrganizerSymbianCollection>>::condition() const 0x000152c5   Thumb Code    26  qtorganizer_symbian.in(t._ZNK17QForeachContainerI5QListI26OrganizerSymbianCollectionEE9conditionEv)
    QForeachContainer<QList<QString>>::condition() const 0x000152df   Thumb Code    26  qtorganizer_symbian.in(t._ZNK17QForeachContainerI5QListI7QStringEE9conditionEv)
    QForeachContainer<QList<QtMobility::QOrganizerItem>>::condition() const 0x000152f9   Thumb Code    26  qtorganizer_symbian.in(t._ZNK17QForeachContainerI5QListIN10QtMobility14QOrganizerItemEEE9conditionEv)
    QForeachContainer<QList<QtMobility::QOrganizerItemId>>::condition() const 0x00015313   Thumb Code    26  qtorganizer_symbian.in(t._ZNK17QForeachContainerI5QListIN10QtMobility16QOrganizerItemIdEEE9conditionEv)
    QForeachContainer<QList<QtMobility::QOrganizerCollectionId>>::condition() const 0x0001532d   Thumb Code    26  qtorganizer_symbian.in(t._ZNK17QForeachContainerI5QListIN10QtMobility22QOrganizerCollectionIdEEE9conditionEv)
    QForeachContainer<QList<OrganizerItemDetailTransform*>>::condition() const 0x00015347   Thumb Code    26  qtorganizer_symbian.in(t._ZNK17QForeachContainerI5QListIP28OrganizerItemDetailTransformEE9conditionEv)
    QMap<QString, QVariant>::contains(const QString&) const 0x00015361   Thumb Code    90  qtorganizer_symbian.in(t._ZNK4QMapI7QString8QVariantE8containsERKS0_)
    QMap<QString, QtMobility::QOrganizerItemDetailDefinition>::keys() const 0x000153bb   Thumb Code    50  qtorganizer_symbian.in(t._ZNK4QMapI7QStringN10QtMobility30QOrganizerItemDetailDefinitionEE4keysEv)
    QMap<QString, QtMobility::QOrganizerItemDetailDefinition>::findNode(const QString&) const 0x000153f7   Thumb Code    82  qtorganizer_symbian.in(t._ZNK4QMapI7QStringN10QtMobility30QOrganizerItemDetailDefinitionEE8findNodeERKS0_)
    QMap<QString, QtMobility::QOrganizerItemDetailFieldDefinition>::keys() const 0x00015449   Thumb Code    50  qtorganizer_symbian.in(t._ZNK4QMapI7QStringN10QtMobility35QOrganizerItemDetailFieldDefinitionEE4keysEv)
    QMap<QString, QMap<QString, QtMobility::QOrganizerItemDetailDefinition>>::keys() const 0x00015485   Thumb Code    50  qtorganizer_symbian.in(t._ZNK4QMapI7QStringS_IS0_N10QtMobility30QOrganizerItemDetailDefinitionEEE4keysEv)
    QMap<QString, QMap<QString, QtMobility::QOrganizerItemDetailDefinition>>::value(const QString&) const 0x000154c1   Thumb Code   108  qtorganizer_symbian.in(t._ZNK4QMapI7QStringS_IS0_N10QtMobility30QOrganizerItemDetailDefinitionEEE5valueERKS0_)
    QMap<QString, QMap<QString, QtMobility::QOrganizerItemDetailDefinition>>::isEmpty() const 0x0001552d   Thumb Code    16  qtorganizer_symbian.in(t._ZNK4QMapI7QStringS_IS0_N10QtMobility30QOrganizerItemDetailDefinitionEEE7isEmptyEv)
    QMap<QString, QMap<QString, QtMobility::QOrganizerItemDetailDefinition>>::findNode(const QString&) const 0x0001553d   Thumb Code    82  qtorganizer_symbian.in(t._ZNK4QMapI7QStringS_IS0_N10QtMobility30QOrganizerItemDetailDefinitionEEE8findNodeERKS0_)
    QMap<QtMobility::QOrganizerCollectionId, OrganizerSymbianCollection>::mutableFindNode(QMapData::Node**, const QtMobility::QOrganizerCollectionId&) const 0x0001558f   Thumb Code    86  qtorganizer_symbian.in(t._ZNK4QMapIN10QtMobility22QOrganizerCollectionIdE26OrganizerSymbianCollectionE15mutableFindNodeEPPN8QMapData4NodeERKS1_)
    QMap<QtMobility::QOrganizerCollectionId, OrganizerSymbianCollection>::keys() const 0x000155e5   Thumb Code    50  qtorganizer_symbian.in(t._ZNK4QMapIN10QtMobility22QOrganizerCollectionIdE26OrganizerSymbianCollectionE4keysEv)
    QMap<QtMobility::QOrganizerCollectionId, OrganizerSymbianCollection>::values() const 0x00015621   Thumb Code    78  qtorganizer_symbian.in(t._ZNK4QMapIN10QtMobility22QOrganizerCollectionIdE26OrganizerSymbianCollectionE6valuesEv)
    QMap<QtMobility::QOrganizerCollectionId, OrganizerSymbianCollection>::contains(const QtMobility::QOrganizerCollectionId&) const 0x00015679   Thumb Code    22  qtorganizer_symbian.in(t._ZNK4QMapIN10QtMobility22QOrganizerCollectionIdE26OrganizerSymbianCollectionE8containsERKS1_)
    QMap<QtMobility::QOrganizerCollectionId, OrganizerSymbianCollection>::findNode(const QtMobility::QOrganizerCollectionId&) const 0x0001568f   Thumb Code    82  qtorganizer_symbian.in(t._ZNK4QMapIN10QtMobility22QOrganizerCollectionIdE26OrganizerSymbianCollectionE8findNodeERKS1_)
    QMap<QtMobility::QOrganizerCollectionId, OrganizerSymbianCollection>::operator [](const QtMobility::QOrganizerCollectionId&) const 0x000156e1   Thumb Code    46  qtorganizer_symbian.in(t._ZNK4QMapIN10QtMobility22QOrganizerCollectionIdE26OrganizerSymbianCollectionEixERKS1_)
    QMap<QtMobility::QOrganizerAbstractRequest*, COrganizerItemRequestsServiceProvider*>::mutableFindNode(QMapData::Node**, QtMobility::QOrganizerAbstractRequest*const &) const 0x0001570f   Thumb Code    86  qtorganizer_symbian.in(t._ZNK4QMapIPN10QtMobility25QOrganizerAbstractRequestEP37COrganizerItemRequestsServiceProviderE15mutableFindNodeEPPN8QMapData4NodeERKS2_)
    QMap<QtMobility::QOrganizerAbstractRequest*, COrganizerItemRequestsServiceProvider*>::keys() const 0x00015765   Thumb Code   100  qtorganizer_symbian.in(t._ZNK4QMapIPN10QtMobility25QOrganizerAbstractRequestEP37COrganizerItemRequestsServiceProviderE4keysEv)
    QMap<int, QtMobility::QOrganizerManager::Error>::keys() const 0x000157e1   Thumb Code   130  qtorganizer_symbian.in(t._ZNK4QMapIiN10QtMobility17QOrganizerManager5ErrorEE4keysEv)
    QMap<int, QtMobility::QOrganizerManager::Error>::values() const 0x0001587d   Thumb Code    52  qtorganizer_symbian.in(t._ZNK4QMapIiN10QtMobility17QOrganizerManager5ErrorEE6valuesEv)
    QSet<QtMobility::QOrganizerItemId>::toList() const 0x000158bf   Thumb Code    90  qtorganizer_symbian.in(t._ZNK4QSetIN10QtMobility16QOrganizerItemIdEE6toListEv)
    QSet<QtMobility::QOrganizerCollectionId>::toList() const 0x00015923   Thumb Code    60  qtorganizer_symbian.in(t._ZNK4QSetIN10QtMobility22QOrganizerCollectionIdEE6toListEv)
    QSet<QtMobility::QOrganizerRecurrenceRule>::toList() const 0x00015969   Thumb Code    94  qtorganizer_symbian.in(t._ZNK4QSetIN10QtMobility24QOrganizerRecurrenceRuleEE6toListEv)
    QSet<Qt::DayOfWeek>::isEmpty() const     0x000159d7   Thumb Code    16  qtorganizer_symbian.in(t._ZNK4QSetIN2Qt9DayOfWeekEE7isEmptyEv)
    QSet<int>::isEmpty() const               0x000159e7   Thumb Code    16  qtorganizer_symbian.in(t._ZNK4QSetIiE7isEmptyEv)
    QHash<QDate, QHashDummyValue>::findNode(const QDate&, unsigned*) const 0x000159f7   Thumb Code    56  qtorganizer_symbian.in(t._ZNK5QHashI5QDate15QHashDummyValueE8findNodeERKS0_Pj)
    QHash<QtMobility::QOrganizerItemId, QHashDummyValue>::findNode(const QtMobility::QOrganizerItemId&, unsigned*) const 0x00015a2f   Thumb Code    90  qtorganizer_symbian.in(t._ZNK5QHashIN10QtMobility16QOrganizerItemIdE15QHashDummyValueE8findNodeERKS1_Pj)
    QHash<QtMobility::QOrganizerRecurrenceRule::Month, QHashDummyValue>::findNode(const QtMobility::QOrganizerRecurrenceRule::Month&, unsigned*) const 0x00015a89   Thumb Code    62  qtorganizer_symbian.in(t._ZNK5QHashIN10QtMobility24QOrganizerRecurrenceRule5MonthE15QHashDummyValueE8findNodeERKS2_Pj)
    QHash<QtMobility::QOrganizerRecurrenceRule, QHashDummyValue>::findNode(const QtMobility::QOrganizerRecurrenceRule&, unsigned*) const 0x00015ac7   Thumb Code    90  qtorganizer_symbian.in(t._ZNK5QHashIN10QtMobility24QOrganizerRecurrenceRuleE15QHashDummyValueE8findNodeERKS1_Pj)
    QHash<Qt::DayOfWeek, QHashDummyValue>::findNode(const Qt::DayOfWeek&, unsigned*) const 0x00015b21   Thumb Code    62  qtorganizer_symbian.in(t._ZNK5QHashIN2Qt9DayOfWeekE15QHashDummyValueE8findNodeERKS1_Pj)
    QHash<int, QHashDummyValue>::findNode(const int&, unsigned*) const 0x00015b5f   Thumb Code    50  qtorganizer_symbian.in(t._ZNK5QHashIi15QHashDummyValueE8findNodeERKiPj)
    QList<QtMobility::QOrganizerItem>::isEmpty() const 0x00015b91   Thumb Code    18  qtorganizer_symbian.in(t._ZNK5QListIN10QtMobility14QOrganizerItemEE7isEmptyEv)
    QList<QtMobility::QOrganizerItemId>::at(int) const 0x00015ba3   Thumb Code     8  qtorganizer_symbian.in(t._ZNK5QListIN10QtMobility16QOrganizerItemIdEE2atEi)
    QList<QtMobility::QOrganizerItemId>::count() const 0x00015bab   Thumb Code     8  qtorganizer_symbian.in(t._ZNK5QListIN10QtMobility16QOrganizerItemIdEE5countEv)
    QList<QtMobility::QOrganizerCollectionId>::isEmpty() const 0x00015bb3   Thumb Code    18  qtorganizer_symbian.in(t._ZNK5QListIN10QtMobility22QOrganizerCollectionIdEE7isEmptyEv)
    QOrganizerItemRequestQueue::staticMetaObject 0x00018ac0   Data          16  qtorganizer_symbian.in(.constdata)
    QOrganizerItemSymbianFactory::staticMetaObject 0x00018b48   Data          16  qtorganizer_symbian.in(.constdata)
    QOrganizerItemSymbianEngine::staticMetaObject 0x00018b58   Data          16  qtorganizer_symbian.in(.constdata)
    OrganizerSymbianCollection::KeyFileName  0x00018c43   Data           9  qtorganizer_symbian.in(.constdata)
    typeinfo for QSharedData                 0x00018c4c   Data           8  qtorganizer_symbian.in(.constdata__ZTI11QSharedData)
    typeinfo for MCalChangeCallBack2         0x00018c54   Data           8  qtorganizer_symbian.in(.constdata__ZTI19MCalChangeCallBack2)
    typeinfo for MCalProgressCallBack        0x00018c5c   Data           8  qtorganizer_symbian.in(.constdata__ZTI20MCalProgressCallBack)
    typeinfo for OrganizerItemGuidTransform  0x00018c64   Data          12  qtorganizer_symbian.in(.constdata__ZTI26OrganizerItemGuidTransform)
    typeinfo for OrganizerItemTypeTransform  0x00018c70   Data          12  qtorganizer_symbian.in(.constdata__ZTI26OrganizerItemTypeTransform)
    typeinfo for OrganizerTodoTimeTransform  0x00018c7c   Data          12  qtorganizer_symbian.in(.constdata__ZTI26OrganizerTodoTimeTransform)
    typeinfo for QOrganizerItemRequestQueue  0x00018c88   Data          12  qtorganizer_symbian.in(.constdata__ZTI26QOrganizerItemRequestQueue)
    typeinfo for OrganizerEventTimeTransform 0x00018c94   Data          12  qtorganizer_symbian.in(.constdata__ZTI27OrganizerEventTimeTransform)
    typeinfo for QOrganizerItemSymbianEngine 0x00018ca0   Data          12  qtorganizer_symbian.in(.constdata__ZTI27QOrganizerItemSymbianEngine)
    typeinfo for OrganizerItemDetailTransform 0x00018cac   Data           8  qtorganizer_symbian.in(.constdata__ZTI28OrganizerItemDetailTransform)
    typeinfo for OrganizerItemParentTransform 0x00018cb4   Data          12  qtorganizer_symbian.in(.constdata__ZTI28OrganizerItemParentTransform)
    typeinfo for QOrganizerItemSymbianFactory 0x00018cc0   Data          32  qtorganizer_symbian.in(.constdata__ZTI28QOrganizerItemSymbianFactory)
    typeinfo for OrganizerJournalTimeTransform 0x00018ce0   Data          12  qtorganizer_symbian.in(.constdata__ZTI29OrganizerJournalTimeTransform)
    typeinfo for QOrganizerItemSymbianEngineId 0x00018cec   Data          12  qtorganizer_symbian.in(.constdata__ZTI29QOrganizerItemSymbianEngineId)
    typeinfo for OrganizerItemLocationTransform 0x00018cf8   Data          12  qtorganizer_symbian.in(.constdata__ZTI30OrganizerItemLocationTransform)
    typeinfo for OrganizerItemPriorityTransform 0x00018d04   Data          12  qtorganizer_symbian.in(.constdata__ZTI30OrganizerItemPriorityTransform)
    typeinfo for OrganizerItemReminderTransform 0x00018d10   Data          12  qtorganizer_symbian.in(.constdata__ZTI30OrganizerItemReminderTransform)
    typeinfo for OrganizerTodoProgressTransform 0x00018d1c   Data          12  qtorganizer_symbian.in(.constdata__ZTI30OrganizerTodoProgressTransform)
    typeinfo for OrganizerItemTimeStampTransform 0x00018d28   Data          12  qtorganizer_symbian.in(.constdata__ZTI31OrganizerItemTimeStampTransform)
    typeinfo for OrganizerItemRecurrenceTransform 0x00018d34   Data          12  qtorganizer_symbian.in(.constdata__ZTI32OrganizerItemRecurrenceTransform)
    typeinfo for OrganizerItemDescriptionTransform 0x00018d40   Data          12  qtorganizer_symbian.in(.constdata__ZTI33OrganizerItemDescriptionTransform)
    typeinfo for OrganizerSymbianCollectionPrivate 0x00018d4c   Data          40  qtorganizer_symbian.in(.constdata__ZTI33OrganizerSymbianCollectionPrivate)
    typeinfo for OrganizerItemDisplayLabelTransform 0x00018d74   Data          12  qtorganizer_symbian.in(.constdata__ZTI34OrganizerItemDisplayLabelTransform)
    typeinfo for QOrganizerCollectionSymbianEngineId 0x00018d80   Data          12  qtorganizer_symbian.in(.constdata__ZTI35QOrganizerCollectionSymbianEngineId)
    typeinfo for COrganizerItemRequestsServiceProvider 0x00018d8c   Data          12  qtorganizer_symbian.in(.constdata__ZTI37COrganizerItemRequestsServiceProvider)
    typeinfo for QtMobility::QOrganizerItemEngineId 0x00018d98   Data          24  qtorganizer_symbian.in(.constdata__ZTIN10QtMobility22QOrganizerItemEngineIdE)
    typeinfo for QtMobility::QOrganizerCollectionEngineId 0x00018db0   Data          24  qtorganizer_symbian.in(.constdata__ZTIN10QtMobility28QOrganizerCollectionEngineIdE)
    typeinfo for std::bad_alloc              0x00018dc8   Data          12  qtorganizer_symbian.in(.constdata__ZTISt9bad_alloc)
    typeinfo name for QSharedData            0x00018dd4   Data          14  qtorganizer_symbian.in(.constdata__ZTS11QSharedData)
    typeinfo name for MCalChangeCallBack2    0x00018de2   Data          22  qtorganizer_symbian.in(.constdata__ZTS19MCalChangeCallBack2)
    typeinfo name for MCalProgressCallBack   0x00018df8   Data          23  qtorganizer_symbian.in(.constdata__ZTS20MCalProgressCallBack)
    typeinfo name for OrganizerItemGuidTransform 0x00018e0f   Data          29  qtorganizer_symbian.in(.constdata__ZTS26OrganizerItemGuidTransform)
    typeinfo name for OrganizerItemTypeTransform 0x00018e2c   Data          29  qtorganizer_symbian.in(.constdata__ZTS26OrganizerItemTypeTransform)
    typeinfo name for OrganizerTodoTimeTransform 0x00018e49   Data          29  qtorganizer_symbian.in(.constdata__ZTS26OrganizerTodoTimeTransform)
    typeinfo name for QOrganizerItemRequestQueue 0x00018e66   Data          29  qtorganizer_symbian.in(.constdata__ZTS26QOrganizerItemRequestQueue)
    typeinfo name for OrganizerEventTimeTransform 0x00018e83   Data          30  qtorganizer_symbian.in(.constdata__ZTS27OrganizerEventTimeTransform)
    typeinfo name for QOrganizerItemSymbianEngine 0x00018ea1   Data          30  qtorganizer_symbian.in(.constdata__ZTS27QOrganizerItemSymbianEngine)
    typeinfo name for OrganizerItemDetailTransform 0x00018ebf   Data          31  qtorganizer_symbian.in(.constdata__ZTS28OrganizerItemDetailTransform)
    typeinfo name for OrganizerItemParentTransform 0x00018ede   Data          31  qtorganizer_symbian.in(.constdata__ZTS28OrganizerItemParentTransform)
    typeinfo name for QOrganizerItemSymbianFactory 0x00018efd   Data          31  qtorganizer_symbian.in(.constdata__ZTS28QOrganizerItemSymbianFactory)
    typeinfo name for OrganizerJournalTimeTransform 0x00018f1c   Data          32  qtorganizer_symbian.in(.constdata__ZTS29OrganizerJournalTimeTransform)
    typeinfo name for QOrganizerItemSymbianEngineId 0x00018f3c   Data          32  qtorganizer_symbian.in(.constdata__ZTS29QOrganizerItemSymbianEngineId)
    typeinfo name for OrganizerItemLocationTransform 0x00018f5c   Data          33  qtorganizer_symbian.in(.constdata__ZTS30OrganizerItemLocationTransform)
    typeinfo name for OrganizerItemPriorityTransform 0x00018f7d   Data          33  qtorganizer_symbian.in(.constdata__ZTS30OrganizerItemPriorityTransform)
    typeinfo name for OrganizerItemReminderTransform 0x00018f9e   Data          33  qtorganizer_symbian.in(.constdata__ZTS30OrganizerItemReminderTransform)
    typeinfo name for OrganizerTodoProgressTransform 0x00018fbf   Data          33  qtorganizer_symbian.in(.constdata__ZTS30OrganizerTodoProgressTransform)
    typeinfo name for OrganizerItemTimeStampTransform 0x00018fe0   Data          34  qtorganizer_symbian.in(.constdata__ZTS31OrganizerItemTimeStampTransform)
    typeinfo name for OrganizerItemRecurrenceTransform 0x00019002   Data          35  qtorganizer_symbian.in(.constdata__ZTS32OrganizerItemRecurrenceTransform)
    typeinfo name for OrganizerItemDescriptionTransform 0x00019025   Data          36  qtorganizer_symbian.in(.constdata__ZTS33OrganizerItemDescriptionTransform)
    typeinfo name for OrganizerSymbianCollectionPrivate 0x00019049   Data          36  qtorganizer_symbian.in(.constdata__ZTS33OrganizerSymbianCollectionPrivate)
    typeinfo name for OrganizerItemDisplayLabelTransform 0x0001906d   Data          37  qtorganizer_symbian.in(.constdata__ZTS34OrganizerItemDisplayLabelTransform)
    typeinfo name for QOrganizerCollectionSymbianEngineId 0x00019092   Data          38  qtorganizer_symbian.in(.constdata__ZTS35QOrganizerCollectionSymbianEngineId)
    typeinfo name for COrganizerItemRequestsServiceProvider 0x000190b8   Data          40  qtorganizer_symbian.in(.constdata__ZTS37COrganizerItemRequestsServiceProvider)
    typeinfo name for QtMobility::QOrganizerItemEngineId 0x000190e0   Data          39  qtorganizer_symbian.in(.constdata__ZTSN10QtMobility22QOrganizerItemEngineIdE)
    typeinfo name for QtMobility::QOrganizerCollectionEngineId 0x00019107   Data          45  qtorganizer_symbian.in(.constdata__ZTSN10QtMobility28QOrganizerCollectionEngineIdE)
    typeinfo name for std::bad_alloc         0x00019134   Data          13  qtorganizer_symbian.in(.constdata__ZTSSt9bad_alloc)
    vtable for OrganizerItemGuidTransform    0x00019144   Data          40  qtorganizer_symbian.in(.constdata__ZTV26OrganizerItemGuidTransform)
    vtable for OrganizerItemTypeTransform    0x0001916c   Data          40  qtorganizer_symbian.in(.constdata__ZTV26OrganizerItemTypeTransform)
    vtable for OrganizerTodoTimeTransform    0x00019194   Data          40  qtorganizer_symbian.in(.constdata__ZTV26OrganizerTodoTimeTransform)
    vtable for QOrganizerItemRequestQueue    0x000191bc   Data          56  qtorganizer_symbian.in(.constdata__ZTV26QOrganizerItemRequestQueue)
    vtable for OrganizerEventTimeTransform   0x000191f4   Data          40  qtorganizer_symbian.in(.constdata__ZTV27OrganizerEventTimeTransform)
    vtable for QOrganizerItemSymbianEngine   0x0001921c   Data         188  qtorganizer_symbian.in(.constdata__ZTV27QOrganizerItemSymbianEngine)
    vtable for OrganizerItemDetailTransform  0x000192d8   Data          40  qtorganizer_symbian.in(.constdata__ZTV28OrganizerItemDetailTransform)
    vtable for OrganizerItemParentTransform  0x00019300   Data          40  qtorganizer_symbian.in(.constdata__ZTV28OrganizerItemParentTransform)
    vtable for QOrganizerItemSymbianFactory  0x00019328   Data         108  qtorganizer_symbian.in(.constdata__ZTV28QOrganizerItemSymbianFactory)
    vtable for OrganizerJournalTimeTransform 0x00019394   Data          40  qtorganizer_symbian.in(.constdata__ZTV29OrganizerJournalTimeTransform)
    vtable for QOrganizerItemSymbianEngineId 0x000193bc   Data          44  qtorganizer_symbian.in(.constdata__ZTV29QOrganizerItemSymbianEngineId)
    vtable for OrganizerItemLocationTransform 0x000193e8   Data          40  qtorganizer_symbian.in(.constdata__ZTV30OrganizerItemLocationTransform)
    vtable for OrganizerItemPriorityTransform 0x00019410   Data          40  qtorganizer_symbian.in(.constdata__ZTV30OrganizerItemPriorityTransform)
    vtable for OrganizerItemReminderTransform 0x00019438   Data          40  qtorganizer_symbian.in(.constdata__ZTV30OrganizerItemReminderTransform)
    vtable for OrganizerTodoProgressTransform 0x00019460   Data          40  qtorganizer_symbian.in(.constdata__ZTV30OrganizerTodoProgressTransform)
    vtable for OrganizerItemTimeStampTransform 0x00019488   Data          40  qtorganizer_symbian.in(.constdata__ZTV31OrganizerItemTimeStampTransform)
    vtable for OrganizerItemRecurrenceTransform 0x000194b0   Data          40  qtorganizer_symbian.in(.constdata__ZTV32OrganizerItemRecurrenceTransform)
    vtable for OrganizerItemDescriptionTransform 0x000194d8   Data          40  qtorganizer_symbian.in(.constdata__ZTV33OrganizerItemDescriptionTransform)
    vtable for OrganizerSymbianCollectionPrivate 0x00019500   Data          36  qtorganizer_symbian.in(.constdata__ZTV33OrganizerSymbianCollectionPrivate)
    vtable for OrganizerItemDisplayLabelTransform 0x00019524   Data          40  qtorganizer_symbian.in(.constdata__ZTV34OrganizerItemDisplayLabelTransform)
    vtable for QOrganizerCollectionSymbianEngineId 0x0001954c   Data          44  qtorganizer_symbian.in(.constdata__ZTV35QOrganizerCollectionSymbianEngineId)
    vtable for COrganizerItemRequestsServiceProvider 0x00019578   Data          32  qtorganizer_symbian.in(.constdata__ZTV37COrganizerItemRequestsServiceProvider)
    vtable for QtMobility::QOrganizerItemEngineId 0x00019598   Data          44  qtorganizer_symbian.in(.constdata__ZTVN10QtMobility22QOrganizerItemEngineIdE)
    vtable for QtMobility::QOrganizerCollectionEngineId 0x000195c4   Data          44  qtorganizer_symbian.in(.constdata__ZTVN10QtMobility28QOrganizerCollectionEngineIdE)
    .ARM.exidx$$Base                         0x000195f0   Number         0  ucppinit_aeabi.o(.ARM.exidx)
    .ARM.exidx$$Limit                        0x0001a770   Number         0  qtorganizer_symbian.in(.ARM.exidx)
    Image$$ER_RO$$Limit                      0x0001a770   Number         0  anon$$obj.o(linker$$defined$$symbols)
    __dso_handle                             0x00400018   Data           4  ucppfini.o(.data)
    QMetaTypeId<QtMobility::QOrganizerItemId>::qt_metatype_id()::metatype_id 0x0040001c   Data           4  qtorganizer_symbian.in(.data__ZZN11QMetaTypeIdIN10QtMobility16QOrganizerItemIdEE14qt_metatype_idEvE11metatype_id)

