ARM Linker, RVCT2.2 [Build 686]

================================================================================

Image Symbol Table

    Local Symbols

    Symbol Name                              Value     Ov Type        Size  Object(Section)

    [Anonymous Symbol]                       0x00000000   Number         0  QtCore{00040703}-835.o ABSOLUTE
    [Anonymous Symbol]                       0x00000000   Number         0  QtCore{00040703}-2405.o ABSOLUTE
    [Anonymous Symbol]                       0x00000000   Number         0  euser{000a0000}-1468.o ABSOLUTE
    [Anonymous Symbol]                       0x00000000   Number         0  QtCore{00040703}-836.o ABSOLUTE
    [Anonymous Symbol]                       0x00000000   Number         0  QtCore{00040703}-2406.o ABSOLUTE
    [Anonymous Symbol]                       0x00000000   Number         0  euser{000a0000}-1469.o ABSOLUTE
    [Anonymous Symbol]                       0x00000000   Number         0  QtCore{00040703}-837.o ABSOLUTE
    [Anonymous Symbol]                       0x00000000   Number         0  QtCore{00040703}-2407.o ABSOLUTE
    [Anonymous Symbol]                       0x00000000   Number         0  euser{000a0000}-1526.o ABSOLUTE
    [Anonymous Symbol]                       0x00000000   Number         0  QtCore{00040703}-839.o ABSOLUTE
    [Anonymous Symbol]                       0x00000000   Number         0  QtCore{00040703}-2408.o ABSOLUTE
    [Anonymous Symbol]                       0x00000000   Number         0  euser{000a0000}-1528.o ABSOLUTE
    [Anonymous Symbol]                       0x00000000   Number         0  QtCore{00040703}-852.o ABSOLUTE
    [Anonymous Symbol]                       0x00000000   Number         0  QtCore{00040703}-2411.o ABSOLUTE
    [Anonymous Symbol]                       0x00000000   Number         0  euser{000a0000}-1536.o ABSOLUTE
    [Anonymous Symbol]                       0x00000000   Number         0  QtCore{00040703}-863.o ABSOLUTE
    [Anonymous Symbol]                       0x00000000   Number         0  QtCore{00040703}-2412.o ABSOLUTE
    [Anonymous Symbol]                       0x00000000   Number         0  libstdcpp{00010000}-988.o ABSOLUTE
    [Anonymous Symbol]                       0x00000000   Number         0  QtCore{00040703}-864.o ABSOLUTE
    [Anonymous Symbol]                       0x00000000   Number         0  QtCore{00040703}-2419.o ABSOLUTE
    [Anonymous Symbol]                       0x00000000   Number         0  libstdcpp{00010000}-992.o ABSOLUTE
    [Anonymous Symbol]                       0x00000000   Number         0  QtCore{00040703}-869.o ABSOLUTE
    [Anonymous Symbol]                       0x00000000   Number         0  QtCore{00040703}-2422.o ABSOLUTE
    [Anonymous Symbol]                       0x00000000   Number         0  QtCore{00040703}-104.o ABSOLUTE
    [Anonymous Symbol]                       0x00000000   Number         0  QtCore{00040703}-875.o ABSOLUTE
    [Anonymous Symbol]                       0x00000000   Number         0  QtCore{00040703}-2423.o ABSOLUTE
    [Anonymous Symbol]                       0x00000000   Number         0  QtCore{00040703}-109.o ABSOLUTE
    [Anonymous Symbol]                       0x00000000   Number         0  QtCore{00040703}-90.o ABSOLUTE
    [Anonymous Symbol]                       0x00000000   Number         0  QtCore{00040703}-243.o ABSOLUTE
    [Anonymous Symbol]                       0x00000000   Number         0  QtCore{00040703}-1191.o ABSOLUTE
    [Anonymous Symbol]                       0x00000000   Number         0  QtCore{00040703}-91.o ABSOLUTE
    [Anonymous Symbol]                       0x00000000   Number         0  QtCore{00040703}-246.o ABSOLUTE
    [Anonymous Symbol]                       0x00000000   Number         0  QtCore{00040703}-125.o ABSOLUTE
    [Anonymous Symbol]                       0x00000000   Number         0  QtCore{00040703}-95.o ABSOLUTE
    [Anonymous Symbol]                       0x00000000   Number         0  QtCore{00040703}-247.o ABSOLUTE
    [Anonymous Symbol]                       0x00000000   Number         0  QtCore{00040703}-127.o ABSOLUTE
    [Anonymous Symbol]                       0x00000000   Number         0  QtCore{00040703}-96.o ABSOLUTE
    [Anonymous Symbol]                       0x00000000   Number         0  QtCore{00040703}-2486.o ABSOLUTE
    [Anonymous Symbol]                       0x00000000   Number         0  QtCore{00040703}-128.o ABSOLUTE
    [Anonymous Symbol]                       0x00000000   Number         0  libc{00010000}-232.o ABSOLUTE
    [Anonymous Symbol]                       0x00000000   Number         0  QtCore{00040703}-2487.o ABSOLUTE
    [Anonymous Symbol]                       0x00000000   Number         0  QtCore{00040703}-129.o ABSOLUTE
    [Anonymous Symbol]                       0x00000000   Number         0  libc{00010000}-350.o ABSOLUTE
    [Anonymous Symbol]                       0x00000000   Number         0  QtCore{00040703}-2489.o ABSOLUTE
    [Anonymous Symbol]                       0x00000000   Number         0  QtCore{00040703}-140.o ABSOLUTE
    [Anonymous Symbol]                       0x00000000   Number         0  euser{000a0000}-1033.o ABSOLUTE
    [Anonymous Symbol]                       0x00000000   Number         0  QtCore{00040703}-2490.o ABSOLUTE
    [Anonymous Symbol]                       0x00000000   Number         0  QtCore{00040703}-141.o ABSOLUTE
    [Anonymous Symbol]                       0x00000000   Number         0  euser{000a0000}-1088.o ABSOLUTE
    [Anonymous Symbol]                       0x00000000   Number         0  QtCore{00040703}-2491.o ABSOLUTE
    [Anonymous Symbol]                       0x00000000   Number         0  QtCore{00040703}-1453.o ABSOLUTE
    [Anonymous Symbol]                       0x00000000   Number         0  euser{000a0000}-1089.o ABSOLUTE
    [Anonymous Symbol]                       0x00000000   Number         0  QtCore{00040703}-2492.o ABSOLUTE
    [Anonymous Symbol]                       0x00000000   Number         0  QtCore{00040703}-1469.o ABSOLUTE
    [Anonymous Symbol]                       0x00000000   Number         0  euser{000a0000}-1090.o ABSOLUTE
    [Anonymous Symbol]                       0x00000000   Number         0  QtCore{00040703}-2493.o ABSOLUTE
    [Anonymous Symbol]                       0x00000000   Number         0  QtCore{00040703}-150.o ABSOLUTE
    [Anonymous Symbol]                       0x00000000   Number         0  euser{000a0000}-1091.o ABSOLUTE
    [Anonymous Symbol]                       0x00000000   Number         0  QtCore{00040703}-2494.o ABSOLUTE
    [Anonymous Symbol]                       0x00000000   Number         0  QtCore{00040703}-159.o ABSOLUTE
    [Anonymous Symbol]                       0x00000000   Number         0  euser{000a0000}-1094.o ABSOLUTE
    [Anonymous Symbol]                       0x00000000   Number         0  QtCore{00040703}-2495.o ABSOLUTE
    [Anonymous Symbol]                       0x00000000   Number         0  QtCore{00040703}-160.o ABSOLUTE
    [Anonymous Symbol]                       0x00000000   Number         0  euser{000a0000}-1116.o ABSOLUTE
    [Anonymous Symbol]                       0x00000000   Number         0  QtCore{00040703}-2497.o ABSOLUTE
    [Anonymous Symbol]                       0x00000000   Number         0  QtCore{00040703}-1610.o ABSOLUTE
    [Anonymous Symbol]                       0x00000000   Number         0  euser{000a0000}-1117.o ABSOLUTE
    [Anonymous Symbol]                       0x00000000   Number         0  QtCore{00040703}-2499.o ABSOLUTE
    [Anonymous Symbol]                       0x00000000   Number         0  QtCore{00040703}-162.o ABSOLUTE
    [Anonymous Symbol]                       0x00000000   Number         0  euser{000a0000}-1169.o ABSOLUTE
    [Anonymous Symbol]                       0x00000000   Number         0  QtCore{00040703}-250.o ABSOLUTE
    [Anonymous Symbol]                       0x00000000   Number         0  QtCore{00040703}-1622.o ABSOLUTE
    [Anonymous Symbol]                       0x00000000   Number         0  euser{000a0000}-120.o ABSOLUTE
    [Anonymous Symbol]                       0x00000000   Number         0  QtCore{00040703}-2500.o ABSOLUTE
    [Anonymous Symbol]                       0x00000000   Number         0  QtCore{00040703}-1639.o ABSOLUTE
    [Anonymous Symbol]                       0x00000000   Number         0  euser{000a0000}-1285.o ABSOLUTE
    [Anonymous Symbol]                       0x00000000   Number         0  QtCore{00040703}-2501.o ABSOLUTE
    [Anonymous Symbol]                       0x00000000   Number         0  QtCore{00040703}-1645.o ABSOLUTE
    [Anonymous Symbol]                       0x00000000   Number         0  euser{000a0000}-1288.o ABSOLUTE
    [Anonymous Symbol]                       0x00000000   Number         0  QtCore{00040703}-2502.o ABSOLUTE
    [Anonymous Symbol]                       0x00000000   Number         0  QtCore{00040703}-167.o ABSOLUTE
    [Anonymous Symbol]                       0x00000000   Number         0  euser{000a0000}-1290.o ABSOLUTE
    [Anonymous Symbol]                       0x00000000   Number         0  QtCore{00040703}-2503.o ABSOLUTE
    [Anonymous Symbol]                       0x00000000   Number         0  QtCore{00040703}-1670.o ABSOLUTE
    [Anonymous Symbol]                       0x00000000   Number         0  euser{000a0000}-1294.o ABSOLUTE
    [Anonymous Symbol]                       0x00000000   Number         0  QtCore{00040703}-2504.o ABSOLUTE
    [Anonymous Symbol]                       0x00000000   Number         0  QtCore{00040703}-1671.o ABSOLUTE
    [Anonymous Symbol]                       0x00000000   Number         0  euser{000a0000}-1314.o ABSOLUTE
    [Anonymous Symbol]                       0x00000000   Number         0  QtCore{00040703}-2506.o ABSOLUTE
    [Anonymous Symbol]                       0x00000000   Number         0  QtCore{00040703}-1674.o ABSOLUTE
    [Anonymous Symbol]                       0x00000000   Number         0  euser{000a0000}-1320.o ABSOLUTE
    [Anonymous Symbol]                       0x00000000   Number         0  QtCore{00040703}-2507.o ABSOLUTE
    [Anonymous Symbol]                       0x00000000   Number         0  QtCore{00040703}-1676.o ABSOLUTE
    [Anonymous Symbol]                       0x00000000   Number         0  euser{000a0000}-1324.o ABSOLUTE
    [Anonymous Symbol]                       0x00000000   Number         0  QtCore{00040703}-251.o ABSOLUTE
    [Anonymous Symbol]                       0x00000000   Number         0  QtCore{00040703}-168.o ABSOLUTE
    [Anonymous Symbol]                       0x00000000   Number         0  euser{000a0000}-1326.o ABSOLUTE
    [Anonymous Symbol]                       0x00000000   Number         0  QtCore{00040703}-254.o ABSOLUTE
    [Anonymous Symbol]                       0x00000000   Number         0  QtCore{00040703}-1706.o ABSOLUTE
    [Anonymous Symbol]                       0x00000000   Number         0  euser{000a0000}-1355.o ABSOLUTE
    [Anonymous Symbol]                       0x00000000   Number         0  QtCore{00040703}-255.o ABSOLUTE
    [Anonymous Symbol]                       0x00000000   Number         0  QtCore{00040703}-172.o ABSOLUTE
    [Anonymous Symbol]                       0x00000000   Number         0  euser{000a0000}-1356.o ABSOLUTE
    [Anonymous Symbol]                       0x00000000   Number         0  QtCore{00040703}-2553.o ABSOLUTE
    [Anonymous Symbol]                       0x00000000   Number         0  QtCore{00040703}-1760.o ABSOLUTE
    [Anonymous Symbol]                       0x00000000   Number         0  euser{000a0000}-1387.o ABSOLUTE
    [Anonymous Symbol]                       0x00000000   Number         0  QtCore{00040703}-2554.o ABSOLUTE
    [Anonymous Symbol]                       0x00000000   Number         0  QtCore{00040703}-1761.o ABSOLUTE
    [Anonymous Symbol]                       0x00000000   Number         0  euser{000a0000}-1388.o ABSOLUTE
    [Anonymous Symbol]                       0x00000000   Number         0  QtCore{00040703}-258.o ABSOLUTE
    [Anonymous Symbol]                       0x00000000   Number         0  QtCore{00040703}-1763.o ABSOLUTE
    [Anonymous Symbol]                       0x00000000   Number         0  euser{000a0000}-1389.o ABSOLUTE
    [Anonymous Symbol]                       0x00000000   Number         0  QtCore{00040703}-259.o ABSOLUTE
    [Anonymous Symbol]                       0x00000000   Number         0  QtCore{00040703}-1764.o ABSOLUTE
    [Anonymous Symbol]                       0x00000000   Number         0  euser{000a0000}-1392.o ABSOLUTE
    [Anonymous Symbol]                       0x00000000   Number         0  QtCore{00040703}-2611.o ABSOLUTE
    [Anonymous Symbol]                       0x00000000   Number         0  QtCore{00040703}-1766.o ABSOLUTE
    [Anonymous Symbol]                       0x00000000   Number         0  euser{000a0000}-1393.o ABSOLUTE
    [Anonymous Symbol]                       0x00000000   Number         0  QtCore{00040703}-2614.o ABSOLUTE
    [Anonymous Symbol]                       0x00000000   Number         0  QtCore{00040703}-1767.o ABSOLUTE
    [Anonymous Symbol]                       0x00000000   Number         0  euser{000a0000}-1396.o ABSOLUTE
    [Anonymous Symbol]                       0x00000000   Number         0  QtCore{00040703}-2635.o ABSOLUTE
    [Anonymous Symbol]                       0x00000000   Number         0  QtCore{00040703}-1768.o ABSOLUTE
    [Anonymous Symbol]                       0x00000000   Number         0  QtCore{00040703}-3212.o ABSOLUTE
    [Anonymous Symbol]                       0x00000000   Number         0  QtCore{00040703}-2637.o ABSOLUTE
    [Anonymous Symbol]                       0x00000000   Number         0  QtCore{00040703}-1770.o ABSOLUTE
    [Anonymous Symbol]                       0x00000000   Number         0  QtCore{00040703}-3238.o ABSOLUTE
    [Anonymous Symbol]                       0x00000000   Number         0  QtCore{00040703}-2643.o ABSOLUTE
    [Anonymous Symbol]                       0x00000000   Number         0  QtCore{00040703}-1773.o ABSOLUTE
    [Anonymous Symbol]                       0x00000000   Number         0  QtCore{00040703}-324.o ABSOLUTE
    [Anonymous Symbol]                       0x00000000   Number         0  QtCore{00040703}-273.o ABSOLUTE
    [Anonymous Symbol]                       0x00000000   Number         0  QtCore{00040703}-1777.o ABSOLUTE
    [Anonymous Symbol]                       0x00000000   Number         0  QtCore{00040703}-3244.o ABSOLUTE
    [Anonymous Symbol]                       0x00000000   Number         0  QtCore{00040703}-274.o ABSOLUTE
    [Anonymous Symbol]                       0x00000000   Number         0  QtCore{00040703}-1784.o ABSOLUTE
    [Anonymous Symbol]                       0x00000000   Number         0  QtCore{00040703}-3245.o ABSOLUTE
    [Anonymous Symbol]                       0x00000000   Number         0  QtCore{00040703}-275.o ABSOLUTE
    [Anonymous Symbol]                       0x00000000   Number         0  QtCore{00040703}-1785.o ABSOLUTE
    [Anonymous Symbol]                       0x00000000   Number         0  euser{000a0000}-1541.o ABSOLUTE
    [Anonymous Symbol]                       0x00000000   Number         0  QtCore{00040703}-2750.o ABSOLUTE
    [Anonymous Symbol]                       0x00000000   Number         0  QtCore{00040703}-1788.o ABSOLUTE
    [Anonymous Symbol]                       0x00000000   Number         0  euser{000a0000}-1544.o ABSOLUTE
    [Anonymous Symbol]                       0x00000000   Number         0  QtCore{00040703}-277.o ABSOLUTE
    [Anonymous Symbol]                       0x00000000   Number         0  QtCore{00040703}-1789.o ABSOLUTE
    [Anonymous Symbol]                       0x00000000   Number         0  euser{000a0000}-1547.o ABSOLUTE
    [Anonymous Symbol]                       0x00000000   Number         0  QtCore{00040703}-280.o ABSOLUTE
    [Anonymous Symbol]                       0x00000000   Number         0  QtCore{00040703}-179.o ABSOLUTE
    [Anonymous Symbol]                       0x00000000   Number         0  euser{000a0000}-1548.o ABSOLUTE
    [Anonymous Symbol]                       0x00000000   Number         0  QtCore{00040703}-281.o ABSOLUTE
    [Anonymous Symbol]                       0x00000000   Number         0  QtCore{00040703}-1794.o ABSOLUTE
    [Anonymous Symbol]                       0x00000000   Number         0  euser{000a0000}-159.o ABSOLUTE
    [Anonymous Symbol]                       0x00000000   Number         0  QtCore{00040703}-282.o ABSOLUTE
    [Anonymous Symbol]                       0x00000000   Number         0  QtCore{00040703}-1799.o ABSOLUTE
    [Anonymous Symbol]                       0x00000000   Number         0  euser{000a0000}-1719.o ABSOLUTE
    [Anonymous Symbol]                       0x00000000   Number         0  QtCore{00040703}-286.o ABSOLUTE
    [Anonymous Symbol]                       0x00000000   Number         0  QtCore{00040703}-1805.o ABSOLUTE
    [Anonymous Symbol]                       0x00000000   Number         0  euser{000a0000}-1807.o ABSOLUTE
    [Anonymous Symbol]                       0x00000000   Number         0  QtCore{00040703}-2919.o ABSOLUTE
    [Anonymous Symbol]                       0x00000000   Number         0  QtCore{00040703}-1811.o ABSOLUTE
    [Anonymous Symbol]                       0x00000000   Number         0  euser{000a0000}-1842.o ABSOLUTE
    [Anonymous Symbol]                       0x00000000   Number         0  QtCore{00040703}-2928.o ABSOLUTE
    [Anonymous Symbol]                       0x00000000   Number         0  QtCore{00040703}-1825.o ABSOLUTE
    [Anonymous Symbol]                       0x00000000   Number         0  euser{000a0000}-1992.o ABSOLUTE
    [Anonymous Symbol]                       0x00000000   Number         0  QtCore{00040703}-3003.o ABSOLUTE
    [Anonymous Symbol]                       0x00000000   Number         0  QtCore{00040703}-1826.o ABSOLUTE
    [Anonymous Symbol]                       0x00000000   Number         0  euser{000a0000}-1995.o ABSOLUTE
    [Anonymous Symbol]                       0x00000000   Number         0  QtCore{00040703}-3009.o ABSOLUTE
    [Anonymous Symbol]                       0x00000000   Number         0  QtCore{00040703}-1830.o ABSOLUTE
    [Anonymous Symbol]                       0x00000000   Number         0  euser{000a0000}-1997.o ABSOLUTE
    [Anonymous Symbol]                       0x00000000   Number         0  QtCore{00040703}-3010.o ABSOLUTE
    [Anonymous Symbol]                       0x00000000   Number         0  QtCore{00040703}-1831.o ABSOLUTE
    [Anonymous Symbol]                       0x00000000   Number         0  euser{000a0000}-1999.o ABSOLUTE
    [Anonymous Symbol]                       0x00000000   Number         0  QtCore{00040703}-3017.o ABSOLUTE
    [Anonymous Symbol]                       0x00000000   Number         0  QtCore{00040703}-1835.o ABSOLUTE
    [Anonymous Symbol]                       0x00000000   Number         0  euser{000a0000}-2000.o ABSOLUTE
    [Anonymous Symbol]                       0x00000000   Number         0  QtCore{00040703}-3022.o ABSOLUTE
    [Anonymous Symbol]                       0x00000000   Number         0  QtCore{00040703}-1836.o ABSOLUTE
    [Anonymous Symbol]                       0x00000000   Number         0  euser{000a0000}-205.o ABSOLUTE
    [Anonymous Symbol]                       0x00000000   Number         0  QtCore{00040703}-3033.o ABSOLUTE
    [Anonymous Symbol]                       0x00000000   Number         0  QtCore{00040703}-1842.o ABSOLUTE
    [Anonymous Symbol]                       0x00000000   Number         0  euser{000a0000}-2060.o ABSOLUTE
    [Anonymous Symbol]                       0x00000000   Number         0  QtCore{00040703}-3040.o ABSOLUTE
    [Anonymous Symbol]                       0x00000000   Number         0  QtCore{00040703}-1855.o ABSOLUTE
    [Anonymous Symbol]                       0x00000000   Number         0  euser{000a0000}-2061.o ABSOLUTE
    [Anonymous Symbol]                       0x00000000   Number         0  QtCore{00040703}-3049.o ABSOLUTE
    [Anonymous Symbol]                       0x00000000   Number         0  QtCore{00040703}-1874.o ABSOLUTE
    [Anonymous Symbol]                       0x00000000   Number         0  euser{000a0000}-208.o ABSOLUTE
    [Anonymous Symbol]                       0x00000000   Number         0  QtCore{00040703}-3052.o ABSOLUTE
    [Anonymous Symbol]                       0x00000000   Number         0  QtCore{00040703}-1875.o ABSOLUTE
    [Anonymous Symbol]                       0x00000000   Number         0  euser{000a0000}-2082.o ABSOLUTE
    [Anonymous Symbol]                       0x00000000   Number         0  QtCore{00040703}-3062.o ABSOLUTE
    [Anonymous Symbol]                       0x00000000   Number         0  QtCore{00040703}-1885.o ABSOLUTE
    [Anonymous Symbol]                       0x00000000   Number         0  euser{000a0000}-2120.o ABSOLUTE
    [Anonymous Symbol]                       0x00000000   Number         0  QtCore{00040703}-3063.o ABSOLUTE
    [Anonymous Symbol]                       0x00000000   Number         0  QtCore{00040703}-1927.o ABSOLUTE
    [Anonymous Symbol]                       0x00000000   Number         0  euser{000a0000}-2128.o ABSOLUTE
    [Anonymous Symbol]                       0x00000000   Number         0  QtCore{00040703}-3064.o ABSOLUTE
    [Anonymous Symbol]                       0x00000000   Number         0  QtCore{00040703}-1928.o ABSOLUTE
    [Anonymous Symbol]                       0x00000000   Number         0  euser{000a0000}-2131.o ABSOLUTE
    [Anonymous Symbol]                       0x00000000   Number         0  QtCore{00040703}-3083.o ABSOLUTE
    [Anonymous Symbol]                       0x00000000   Number         0  QtCore{00040703}-1935.o ABSOLUTE
    [Anonymous Symbol]                       0x00000000   Number         0  euser{000a0000}-403.o ABSOLUTE
    [Anonymous Symbol]                       0x00000000   Number         0  QtCore{00040703}-3097.o ABSOLUTE
    [Anonymous Symbol]                       0x00000000   Number         0  QtCore{00040703}-1943.o ABSOLUTE
    [Anonymous Symbol]                       0x00000000   Number         0  euser{000a0000}-424.o ABSOLUTE
    [Anonymous Symbol]                       0x00000000   Number         0  QtCore{00040703}-3098.o ABSOLUTE
    [Anonymous Symbol]                       0x00000000   Number         0  QtCore{00040703}-1949.o ABSOLUTE
    [Anonymous Symbol]                       0x00000000   Number         0  euser{000a0000}-604.o ABSOLUTE
    [Anonymous Symbol]                       0x00000000   Number         0  QtCore{00040703}-312.o ABSOLUTE
    [Anonymous Symbol]                       0x00000000   Number         0  QtCore{00040703}-2001.o ABSOLUTE
    [Anonymous Symbol]                       0x00000000   Number         0  euser{000a0000}-637.o ABSOLUTE
    [Anonymous Symbol]                       0x00000000   Number         0  QtCore{00040703}-3133.o ABSOLUTE
    [Anonymous Symbol]                       0x00000000   Number         0  QtCore{00040703}-2003.o ABSOLUTE
    [Anonymous Symbol]                       0x00000000   Number         0  euser{000a0000}-645.o ABSOLUTE
    [Anonymous Symbol]                       0x00000000   Number         0  QtCore{00040703}-3135.o ABSOLUTE
    [Anonymous Symbol]                       0x00000000   Number         0  QtCore{00040703}-2014.o ABSOLUTE
    [Anonymous Symbol]                       0x00000000   Number         0  euser{000a0000}-649.o ABSOLUTE
    [Anonymous Symbol]                       0x00000000   Number         0  QtCore{00040703}-3136.o ABSOLUTE
    [Anonymous Symbol]                       0x00000000   Number         0  QtCore{00040703}-2015.o ABSOLUTE
    [Anonymous Symbol]                       0x00000000   Number         0  euser{000a0000}-652.o ABSOLUTE
    [Anonymous Symbol]                       0x00000000   Number         0  QtCore{00040703}-3138.o ABSOLUTE
    [Anonymous Symbol]                       0x00000000   Number         0  QtCore{00040703}-2034.o ABSOLUTE
    [Anonymous Symbol]                       0x00000000   Number         0  euser{000a0000}-654.o ABSOLUTE
    [Anonymous Symbol]                       0x00000000   Number         0  QtCore{00040703}-3139.o ABSOLUTE
    [Anonymous Symbol]                       0x00000000   Number         0  QtCore{00040703}-2037.o ABSOLUTE
    [Anonymous Symbol]                       0x00000000   Number         0  euser{000a0000}-669.o ABSOLUTE
    [Anonymous Symbol]                       0x00000000   Number         0  QtCore{00040703}-3163.o ABSOLUTE
    [Anonymous Symbol]                       0x00000000   Number         0  QtCore{00040703}-2040.o ABSOLUTE
    [Anonymous Symbol]                       0x00000000   Number         0  euser{000a0000}-670.o ABSOLUTE
    [Anonymous Symbol]                       0x00000000   Number         0  QtCore{00040703}-3164.o ABSOLUTE
    [Anonymous Symbol]                       0x00000000   Number         0  QtCore{00040703}-2041.o ABSOLUTE
    [Anonymous Symbol]                       0x00000000   Number         0  euser{000a0000}-671.o ABSOLUTE
    [Anonymous Symbol]                       0x00000000   Number         0  QtCore{00040703}-3165.o ABSOLUTE
    [Anonymous Symbol]                       0x00000000   Number         0  QtCore{00040703}-2082.o ABSOLUTE
    [Anonymous Symbol]                       0x00000000   Number         0  euser{000a0000}-81.o ABSOLUTE
    [Anonymous Symbol]                       0x00000000   Number         0  QtCore{00040703}-3166.o ABSOLUTE
    [Anonymous Symbol]                       0x00000000   Number         0  QtCore{00040703}-2084.o ABSOLUTE
    [Anonymous Symbol]                       0x00000000   Number         0  euser{000a0000}-891.o ABSOLUTE
    [Anonymous Symbol]                       0x00000000   Number         0  QtCore{00040703}-32.o ABSOLUTE
    [Anonymous Symbol]                       0x00000000   Number         0  QtCore{00040703}-2122.o ABSOLUTE
    [Anonymous Symbol]                       0x00000000   Number         0  euser{000a0000}-892.o ABSOLUTE
    [Anonymous Symbol]                       0x00000000   Number         0  QtCore{00040703}-3201.o ABSOLUTE
    [Anonymous Symbol]                       0x00000000   Number         0  QtCore{00040703}-2130.o ABSOLUTE
    [Anonymous Symbol]                       0x00000000   Number         0  euser{000a0000}-953.o ABSOLUTE
    [Anonymous Symbol]                       0x00000000   Number         0  QtCore{00040703}-2204.o ABSOLUTE
    [Anonymous Symbol]                       0x00000000   Number         0  QtCore{00040703}-2134.o ABSOLUTE
    [Anonymous Symbol]                       0x00000000   Number         0  QtCore{00040703}-3486.o ABSOLUTE
    [Anonymous Symbol]                       0x00000000   Number         0  QtCore{00040703}-225.o ABSOLUTE
    [Anonymous Symbol]                       0x00000000   Number         0  QtCore{00040703}-2137.o ABSOLUTE
    [Anonymous Symbol]                       0x00000000   Number         0  QtCore{00040703}-3494.o ABSOLUTE
    [Anonymous Symbol]                       0x00000000   Number         0  QtCore{00040703}-233.o ABSOLUTE
    [Anonymous Symbol]                       0x00000000   Number         0  QtCore{00040703}-2141.o ABSOLUTE
    [Anonymous Symbol]                       0x00000000   Number         0  QtCore{00040703}-3502.o ABSOLUTE
    [Anonymous Symbol]                       0x00000000   Number         0  QtCore{00040703}-234.o ABSOLUTE
    [Anonymous Symbol]                       0x00000000   Number         0  QtCore{00040703}-2142.o ABSOLUTE
    [Anonymous Symbol]                       0x00000000   Number         0  QtCore{00040703}-3503.o ABSOLUTE
    [Anonymous Symbol]                       0x00000000   Number         0  QtCore{00040703}-2340.o ABSOLUTE
    [Anonymous Symbol]                       0x00000000   Number         0  QtCore{00040703}-2143.o ABSOLUTE
    [Anonymous Symbol]                       0x00000000   Number         0  QtCore{00040703}-3508.o ABSOLUTE
    [Anonymous Symbol]                       0x00000000   Number         0  QtCore{00040703}-3247.o ABSOLUTE
    [Anonymous Symbol]                       0x00000000   Number         0  QtCore{00040703}-2186.o ABSOLUTE
    [Anonymous Symbol]                       0x00000000   Number         0  QtCore{00040703}-3516.o ABSOLUTE
    [Anonymous Symbol]                       0x00000000   Number         0  QtCore{00040703}-3248.o ABSOLUTE
    [Anonymous Symbol]                       0x00000000   Number         0  QtCore{00040703}-2188.o ABSOLUTE
    [Anonymous Symbol]                       0x00000000   Number         0  QtCore{00040703}-3524.o ABSOLUTE
    [Anonymous Symbol]                       0x00000000   Number         0  QtCore{00040703}-3249.o ABSOLUTE
    [Anonymous Symbol]                       0x00000000   Number         0  QtCore{00040703}-2191.o ABSOLUTE
    [Anonymous Symbol]                       0x00000000   Number         0  QtCore{00040703}-3525.o ABSOLUTE
    [Anonymous Symbol]                       0x00000000   Number         0  QtCore{00040703}-328.o ABSOLUTE
    [Anonymous Symbol]                       0x00000000   Number         0  QtCore{00040703}-2196.o ABSOLUTE
    [Anonymous Symbol]                       0x00000000   Number         0  QtCore{00040703}-3583.o ABSOLUTE
    [Anonymous Symbol]                       0x00000000   Number         0  QtCore{00040703}-331.o ABSOLUTE
    [Anonymous Symbol]                       0x00000000   Number         0  QtCore{00040703}-2197.o ABSOLUTE
    [Anonymous Symbol]                       0x00000000   Number         0  QtCore{00040703}-3584.o ABSOLUTE
    [Anonymous Symbol]                       0x00000000   Number         0  QtCore{00040703}-332.o ABSOLUTE
    [Anonymous Symbol]                       0x00000000   Number         0  QtCore{00040703}-2199.o ABSOLUTE
    [Anonymous Symbol]                       0x00000000   Number         0  QtCore{00040703}-3585.o ABSOLUTE
    [Anonymous Symbol]                       0x00000000   Number         0  QtCore{00040703}-335.o ABSOLUTE
    [Anonymous Symbol]                       0x00000000   Number         0  QtCore{00040703}-2202.o ABSOLUTE
    [Anonymous Symbol]                       0x00000000   Number         0  QtCore{00040703}-3609.o ABSOLUTE
    [Anonymous Symbol]                       0x00000000   Number         0  QtCore{00040703}-3460.o ABSOLUTE
    [Anonymous Symbol]                       0x00000000   Number         0  QtCore{00040703}-2203.o ABSOLUTE
    [Anonymous Symbol]                       0x00000000   Number         0  QtCore{00040703}-3610.o ABSOLUTE
    [Anonymous Symbol]                       0x00000000   Number         0  QtCore{00040703}-3461.o ABSOLUTE
    [Anonymous Symbol]                       0x00000000   Number         0  QtCore{00040703}-499.o ABSOLUTE
    [Anonymous Symbol]                       0x00000000   Number         0  QtCore{00040703}-3689.o ABSOLUTE
    [Anonymous Symbol]                       0x00000000   Number         0  QtCore{00040703}-2389.o ABSOLUTE
    [Anonymous Symbol]                       0x00000000   Number         0  QtCore{00040703}-501.o ABSOLUTE
    [Anonymous Symbol]                       0x00000000   Number         0  QtCore{00040703}-3691.o ABSOLUTE
    [Anonymous Symbol]                       0x00000000   Number         0  QtCore{00040703}-2390.o ABSOLUTE
    [Anonymous Symbol]                       0x00000000   Number         0  QtCore{00040703}-56.o ABSOLUTE
    [Anonymous Symbol]                       0x00000000   Number         0  QtCore{00040703}-392.o ABSOLUTE
    [Anonymous Symbol]                       0x00000000   Number         0  QtCore{00040703}-2391.o ABSOLUTE
    [Anonymous Symbol]                       0x00000000   Number         0  QtCore{00040703}-70.o ABSOLUTE
    [Anonymous Symbol]                       0x00000000   Number         0  QtCore{00040703}-46.o ABSOLUTE
    [Anonymous Symbol]                       0x00000000   Number         0  QtCore{00040703}-2392.o ABSOLUTE
    [Anonymous Symbol]                       0x00000000   Number         0  QtCore{00040703}-712.o ABSOLUTE
    [Anonymous Symbol]                       0x00000000   Number         0  QtCore{00040703}-2398.o ABSOLUTE
    [Anonymous Symbol]                       0x00000000   Number         0  QtCore{00040703}-2393.o ABSOLUTE
    [Anonymous Symbol]                       0x00000000   Number         0  QtCore{00040703}-2354.o ABSOLUTE
    [Anonymous Symbol]                       0x00000000   Number         0  QtCore{00040703}-2400.o ABSOLUTE
    [Anonymous Symbol]                       0x00000000   Number         0  QtCore{00040703}-2394.o ABSOLUTE
    [Anonymous Symbol]                       0x00000000   Number         0  QtCore{00040703}-236.o ABSOLUTE
    [Anonymous Symbol]                       0x00000000   Number         0  QtCore{00040703}-2402.o ABSOLUTE
    [Anonymous Symbol]                       0x00000000   Number         0  QtCore{00040703}-2395.o ABSOLUTE
    [Anonymous Symbol]                       0x00000000   Number         0  QtCore{00040703}-2363.o ABSOLUTE
    [Anonymous Symbol]                       0x00000000   Number         0  QtCore{00040703}-2403.o ABSOLUTE
    [Anonymous Symbol]                       0x00000000   Number         0  QtCore{00040703}-2396.o ABSOLUTE
    [Anonymous Symbol]                       0x00000000   Number         0  QtCore{00040703}-2372.o ABSOLUTE
    [Anonymous Symbol]                       0x00000000   Number         0  QtCore{00040703}-2404.o ABSOLUTE
    [Anonymous Symbol]                       0x00000000   Number         0  QtCore{00040703}-2388.o ABSOLUTE
    [Anonymous Symbol]                       0x00000000   Number         0  QtCore{00040703}-2382.o ABSOLUTE
    [Anonymous Symbol]                       0x00000000   Number         0  QtCore{00040703}-73.o ABSOLUTE
    [Anonymous Symbol]                       0x00000000   Number         0  QtCore{00040703}-2385.o ABSOLUTE
    [Anonymous Symbol]                       0x00000000   Number         0  QtCore{00040703}-2383.o ABSOLUTE
    [Anonymous Symbol]                       0x00000000   Number         0  QtCore{00040703}-753.o ABSOLUTE
    [Anonymous Symbol]                       0x00000000   Number         0  QtCore{00040703}-2386.o ABSOLUTE
    [Anonymous Symbol]                       0x00000000   Number         0  QtCore{00040703}-834.o ABSOLUTE
    [Anonymous Symbol]                       0x00000000   Number         0  QtCore{00040703}-786.o ABSOLUTE
    [Anonymous Symbol]                       0x00000000   Number         0  drtaeabi{000a0000}-184.o ABSOLUTE
    [Anonymous Symbol]                       0x00000000   Number         0  drtaeabi{000a0000}-190.o ABSOLUTE
    [Anonymous Symbol]                       0x00000000   Number         0  drtaeabi{000a0000}-186.o ABSOLUTE
    [Anonymous Symbol]                       0x00000000   Number         0  drtaeabi{000a0000}-144.o ABSOLUTE
    [Anonymous Symbol]                       0x00000000   Number         0  drtrvct2_2{000a0000}-28.o ABSOLUTE
    [Anonymous Symbol]                       0x00000000   Number         0  drtaeabi{000a0000}-187.o ABSOLUTE
    [Anonymous Symbol]                       0x00000000   Number         0  drtaeabi{000a0000}-183.o ABSOLUTE
    [Anonymous Symbol]                       0x00000000   Number         0  drtaeabi{000a0000}-182.o ABSOLUTE
    [Anonymous Symbol]                       0x00000000   Number         0  drtaeabi{000a0000}-188.o ABSOLUTE
    [Anonymous Symbol]                       0x00000000   Number         0  drtaeabi{000a0000}-180.o ABSOLUTE
    [Anonymous Symbol]                       0x00000000   Number         0  drtaeabi{000a0000}-159.o ABSOLUTE
    [Anonymous Symbol]                       0x00000000   Number         0  drtaeabi{000a0000}-189.o ABSOLUTE
    [Anonymous Symbol]                       0x00000000   Number         0  drtaeabi{000a0000}-158.o ABSOLUTE
    [Anonymous Symbol]                       0x00000000   Number         0  drtaeabi{000a0000}-155.o ABSOLUTE
    [Anonymous Symbol]                       0x00000000   Number         0  drtaeabi{000a0000}-147.o ABSOLUTE
    [Anonymous Symbol]                       0x00000000   Number         0  drtaeabi{000a0000}-146.o ABSOLUTE
    ..\..\..\..\EPOC32\BUILD\s60\osext\mobileruntime\group\LIBSTDCPP\ARMV5\VtblExports.s 0x00000000   Number         0  VtblExports.o ABSOLUTE
    \EPOC32\BUILD\src\cedar\generic\base\e32\compsupp\DRTAEABI\ARMV5\VtblExports.s 0x00000000   Number         0  VtblExports.o ABSOLUTE
    \EPOC32\BUILD\src\cedar\generic\base\e32\euser\EDLL\ARMV5\urel\uc_dll_.cpp 0x00000000   Number         0  uc_dll_.o ABSOLUTE
    \EPOC32\BUILD\src\cedar\generic\base\e32\euser\EUSER\ARMV5\VtblExports.s 0x00000000   Number         0  VtblExports.o ABSOLUTE
    \EPOC32\BUILD\wk29\stdlibs\group\LIBC\ARMV5\VtblExports.s 0x00000000   Number         0  VtblExports.o ABSOLUTE
    \EPOC32\BUILD\wk29\stdlibs\group\LIBDL\ARMV5\VtblExports.s 0x00000000   Number         0  VtblExports.o ABSOLUTE
    \EPOC32\BUILD\wk29\stdlibs\group\LIBM\ARMV5\VtblExports.s 0x00000000   Number         0  VtblExports.o ABSOLUTE
    \EPOC32\BUILD\wk29\stdlibs\group\LIBPTHREAD\ARMV5\VtblExports.s 0x00000000   Number         0  VtblExports.o ABSOLUTE
    \\EPOC32\\BUILD\\src\\cedar\\generic\\base\\e32\\euser\\EDLL\\ARMV5\\urel\\uc_dll_.cpp 0x00000000   Number         0  uc_dll_.o ABSOLUTE
    \\src\\cedar\\generic\\base\\e32\\compsupp\\RVCT2_2\\ucppinit_aeabi.cpp 0x00000000   Number         0  ucppinit_aeabi.o ABSOLUTE
    \dev\symb\SDKs\32\EPOC32\BUILD\iwmake\buildS60____PADDING________\src\QTCORE_DLL\ARMV6\VtblExports.s 0x00000000   Number         0  VtblExports.o ABSOLUTE
    \dev\symb\SDKs\32\EPOC32\BUILD\iwmake\buildS60____PADDING________\src\QTSQL_DLL\ARMV6\VtblExports.s 0x00000000   Number         0  VtblExports.o ABSOLUTE
    \s60\5.0\EPOC32\BUILD\scripts\5.0\qtmobility\QTSERVICEFRAMEWORK_DLL\ARMV5\urel\QtServiceFramework{00010103}.s 0x00000000   Number         0  QtServiceFramework{00010103}.exp ABSOLUTE
    \scripts\5.0\qtmobility\src\serviceframework\databasemanager_symbian.cpp 0x00000000   Number         0  QtServiceFramework.in ABSOLUTE
    \scripts\5.0\qtmobility\src\serviceframework\dberror.cpp 0x00000000   Number         0  QtServiceFramework.in ABSOLUTE
    \scripts\5.0\qtmobility\src\serviceframework\ipc\instancemanager.cpp 0x00000000   Number         0  QtServiceFramework.in ABSOLUTE
    \scripts\5.0\qtmobility\src\serviceframework\ipc\ipcendpoint.cpp 0x00000000   Number         0  QtServiceFramework.in ABSOLUTE
    \scripts\5.0\qtmobility\src\serviceframework\ipc\objectendpoint.cpp 0x00000000   Number         0  QtServiceFramework.in ABSOLUTE
    \scripts\5.0\qtmobility\src\serviceframework\ipc\proxyobject.cpp 0x00000000   Number         0  QtServiceFramework.in ABSOLUTE
    \scripts\5.0\qtmobility\src\serviceframework\ipc\qmetaobjectbuilder.cpp 0x00000000   Number         0  QtServiceFramework.in ABSOLUTE
    \scripts\5.0\qtmobility\src\serviceframework\ipc\qremoteserviceregister_p.cpp 0x00000000   Number         0  QtServiceFramework.in ABSOLUTE
    \scripts\5.0\qtmobility\src\serviceframework\ipc\qremoteserviceregister_s60.cpp 0x00000000   Number         0  QtServiceFramework.in ABSOLUTE
    \scripts\5.0\qtmobility\src\serviceframework\ipc\qservicepackage.cpp 0x00000000   Number         0  QtServiceFramework.in ABSOLUTE
    \scripts\5.0\qtmobility\src\serviceframework\ipc\qsignalintercepter.cpp 0x00000000   Number         0  QtServiceFramework.in ABSOLUTE
    \scripts\5.0\qtmobility\src\serviceframework\ipc\qslotinvoker.cpp 0x00000000   Number         0  QtServiceFramework.in ABSOLUTE
    \scripts\5.0\qtmobility\src\serviceframework\qabstractsecuritysession.cpp 0x00000000   Number         0  QtServiceFramework.in ABSOLUTE
    \scripts\5.0\qtmobility\src\serviceframework\qremoteserviceregister.cpp 0x00000000   Number         0  QtServiceFramework.in ABSOLUTE
    \scripts\5.0\qtmobility\src\serviceframework\qservicecontext.cpp 0x00000000   Number         0  QtServiceFramework.in ABSOLUTE
    \scripts\5.0\qtmobility\src\serviceframework\qservicefilter.cpp 0x00000000   Number         0  QtServiceFramework.in ABSOLUTE
    \scripts\5.0\qtmobility\src\serviceframework\qserviceinterfacedescriptor.cpp 0x00000000   Number         0  QtServiceFramework.in ABSOLUTE
    \scripts\5.0\qtmobility\src\serviceframework\qservicemanager.cpp 0x00000000   Number         0  QtServiceFramework.in ABSOLUTE
    \scripts\5.0\qtmobility\src\serviceframework\qserviceplugininterface.cpp 0x00000000   Number         0  QtServiceFramework.in ABSOLUTE
    \scripts\5.0\qtmobility\src\serviceframework\servicemetadata.cpp 0x00000000   Number         0  QtServiceFramework.in ABSOLUTE
    \src\cedar\generic\base\e32\compsupp\RVCT2_2\ucppfini.cpp 0x00000000   Number         0  ucppfini.o ABSOLUTE
    \src\cedar\generic\base\e32\compsupp\RVCT2_2\ucppinit_aeabi.cpp 0x00000000   Number         0  ucppinit_aeabi.o ABSOLUTE
    \src\cedar\generic\base\e32\euser\epoc\arm\uc_dll.cpp 0x00000000   Number         0  uc_dll.o ABSOLUTE
    .emb_text                                0x00008000   Section       40  uc_dll_.o(.emb_text)
    .emb_text                                0x00008028   Section       72  ucppinit_aeabi.o(.emb_text)
    skip                                     0x0000803c   ARM Code       0  ucppinit_aeabi.o(.emb_text)
    loop                                     0x0000804c   ARM Code       0  ucppinit_aeabi.o(.emb_text)
    fpinit                                   0x00008064   Data           0  ucppinit_aeabi.o(.emb_text)
    base                                     0x00008068   Data           0  ucppinit_aeabi.o(.emb_text)
    limit                                    0x0000806c   Data           0  ucppinit_aeabi.o(.emb_text)
    .text                                    0x00008070   Section     5968  QtServiceFramework.in(.text)
    |L1.1340|                                0x000085ac   Data           0  QtServiceFramework.in(.text)
    |L1.1384|                                0x000085d8   Data           0  QtServiceFramework.in(.text)
    |L1.1392|                                0x000085e0   Data           0  QtServiceFramework.in(.text)
    |L1.2440|                                0x000089f8   Data           0  QtServiceFramework.in(.text)
    |L1.2488|                                0x00008a28   Data           0  QtServiceFramework.in(.text)
    |L1.3720|                                0x00008ef8   Data           0  QtServiceFramework.in(.text)
    |L1.3728|                                0x00008f00   Data           0  QtServiceFramework.in(.text)
    .text                                    0x000097c0   Section     3340  QtServiceFramework.in(.text)
    QtMobility::qservicemanager_resolveLibraryPath(const QString&) 0x00009a7b   Thumb Code   394  QtServiceFramework.in(.text)
    .text                                    0x0000a4cc   Section       28  QtServiceFramework.in(.text)
    .text                                    0x0000a4e8   Section      544  QtServiceFramework.in(.text)
    .text                                    0x0000a708   Section      108  QtServiceFramework.in(.text)
    .text                                    0x0000a774   Section     1660  QtServiceFramework.in(.text)
    .text                                    0x0000adf0   Section     1556  QtServiceFramework.in(.text)
    .text                                    0x0000b404   Section      272  QtServiceFramework.in(.text)
    .text                                    0x0000b514   Section     1244  QtServiceFramework.in(.text)
    .text                                    0x0000b9f0   Section     2124  QtServiceFramework.in(.text)
    .text                                    0x0000c23c   Section     3284  QtServiceFramework.in(.text)
    .text                                    0x0000cf10   Section     4372  QtServiceFramework.in(.text)
    QtMobility::openRequests()               0x0000cf71   Thumb Code   118  QtServiceFramework.in(.text)
    |L1.1048|                                0x0000d328   Data           0  QtServiceFramework.in(.text)
    |L1.1104|                                0x0000d360   Data           0  QtServiceFramework.in(.text)
    .text                                    0x0000e024   Section     1032  QtServiceFramework.in(.text)
    .text                                    0x0000e42c   Section     1008  QtServiceFramework.in(.text)
    .text                                    0x0000e81c   Section     8956  QtServiceFramework.in(.text)
    buildString(char*, char*, int*, const QByteArray&, int) 0x0000e89b   Thumb Code    66  QtServiceFramework.in(.text)
    buildParameterNames(const QByteArray&, const QList<QByteArray>&) 0x0000e8dd   Thumb Code   266  QtServiceFramework.in(.text)
    buildMetaObject(QMetaObjectBuilderPrivate*, char*, bool) 0x0000e9e7   Thumb Code  1518  QtServiceFramework.in(.text)
    resolveClassName(const QMap<QByteArray, const QMetaObject*>&, const QByteArray&) 0x00010a87   Thumb Code   134  QtServiceFramework.in(.text)
    .text                                    0x00010b18   Section     1568  QtServiceFramework.in(.text)
    |L1.1028|                                0x00010f1c   Data           0  QtServiceFramework.in(.text)
    QtMobility::typeRegister()               0x000110b3   Thumb Code   116  QtServiceFramework.in(.text)
    .text                                    0x00011138   Section     1064  QtServiceFramework.in(.text)
    .text                                    0x00011560   Section     1660  QtServiceFramework.in(.text)
    |L1.1184|                                0x00011a00   Data           0  QtServiceFramework.in(.text)
    .text                                    0x00011bdc   Section      364  QtServiceFramework.in(.text)
    .text                                    0x00011d48   Section      308  QtServiceFramework.in(.text)
    .text                                    0x00011e7c   Section       40  uc_dll.o(.text)
    .text                                    0x00011ea4   Section      148  ucppfini.o(.text)
    .text.clean                              0x00011f38   Section      816  QtServiceFramework.in(.text.clean)
    .text.clean                              0x00012268   Section      440  QtServiceFramework.in(.text.clean)
    .text.clean                              0x00012420   Section       90  QtServiceFramework.in(.text.clean)
    .text.clean                              0x0001247a   Section      122  QtServiceFramework.in(.text.clean)
    .text.clean                              0x000124f4   Section      118  QtServiceFramework.in(.text.clean)
    .text.clean                              0x0001256a   Section       16  QtServiceFramework.in(.text.clean)
    .text.clean                              0x0001257a   Section      106  QtServiceFramework.in(.text.clean)
    .text.clean                              0x000125e4   Section      182  QtServiceFramework.in(.text.clean)
    .text.clean                              0x0001269a   Section      354  QtServiceFramework.in(.text.clean)
    .text.clean                              0x000127fc   Section      520  QtServiceFramework.in(.text.clean)
    .text.clean                              0x00012a04   Section       92  QtServiceFramework.in(.text.clean)
    .text.clean                              0x00012a60   Section       68  QtServiceFramework.in(.text.clean)
    .text.clean                              0x00012aa4   Section      410  QtServiceFramework.in(.text.clean)
    .text.clean                              0x00012c40   Section      228  QtServiceFramework.in(.text.clean)
    .text.clean                              0x00012d24   Section       80  QtServiceFramework.in(.text.clean)
    .text.clean                              0x00012d74   Section      182  QtServiceFramework.in(.text.clean)
    .text.clean                              0x00012e2a   Section       48  QtServiceFramework.in(.text.clean)
    .text.clean                              0x00012e5a   Section       10  QtServiceFramework.in(.text.clean)
    ExportTable                              0x00012e64   Section      608  QtServiceFramework{00010103}.exp(ExportTable)
    StubCode                                 0x000130c4   Section        8  libstdcpp{00010000}-988.o(StubCode)
    theImportedSymbol                        0x000130c8   Data           0  libstdcpp{00010000}-988.o(StubCode)
    StubCode                                 0x000130cc   Section        8  libstdcpp{00010000}-992.o(StubCode)
    theImportedSymbol                        0x000130d0   Data           0  libstdcpp{00010000}-992.o(StubCode)
    StubCode                                 0x000130d4   Section        8  QtCore{00040703}-104.o(StubCode)
    theImportedSymbol                        0x000130d8   Data           0  QtCore{00040703}-104.o(StubCode)
    StubCode                                 0x000130dc   Section        8  QtCore{00040703}-109.o(StubCode)
    theImportedSymbol                        0x000130e0   Data           0  QtCore{00040703}-109.o(StubCode)
    StubCode                                 0x000130e4   Section        8  QtCore{00040703}-1191.o(StubCode)
    theImportedSymbol                        0x000130e8   Data           0  QtCore{00040703}-1191.o(StubCode)
    StubCode                                 0x000130ec   Section        8  QtCore{00040703}-125.o(StubCode)
    theImportedSymbol                        0x000130f0   Data           0  QtCore{00040703}-125.o(StubCode)
    StubCode                                 0x000130f4   Section        8  QtCore{00040703}-127.o(StubCode)
    theImportedSymbol                        0x000130f8   Data           0  QtCore{00040703}-127.o(StubCode)
    StubCode                                 0x000130fc   Section        8  QtCore{00040703}-128.o(StubCode)
    theImportedSymbol                        0x00013100   Data           0  QtCore{00040703}-128.o(StubCode)
    StubCode                                 0x00013104   Section        8  QtCore{00040703}-129.o(StubCode)
    theImportedSymbol                        0x00013108   Data           0  QtCore{00040703}-129.o(StubCode)
    StubCode                                 0x0001310c   Section        8  QtCore{00040703}-140.o(StubCode)
    theImportedSymbol                        0x00013110   Data           0  QtCore{00040703}-140.o(StubCode)
    StubCode                                 0x00013114   Section        8  QtCore{00040703}-141.o(StubCode)
    theImportedSymbol                        0x00013118   Data           0  QtCore{00040703}-141.o(StubCode)
    StubCode                                 0x0001311c   Section        8  QtCore{00040703}-1453.o(StubCode)
    theImportedSymbol                        0x00013120   Data           0  QtCore{00040703}-1453.o(StubCode)
    StubCode                                 0x00013124   Section        8  QtCore{00040703}-1469.o(StubCode)
    theImportedSymbol                        0x00013128   Data           0  QtCore{00040703}-1469.o(StubCode)
    StubCode                                 0x0001312c   Section        8  QtCore{00040703}-150.o(StubCode)
    theImportedSymbol                        0x00013130   Data           0  QtCore{00040703}-150.o(StubCode)
    StubCode                                 0x00013134   Section        8  QtCore{00040703}-159.o(StubCode)
    theImportedSymbol                        0x00013138   Data           0  QtCore{00040703}-159.o(StubCode)
    StubCode                                 0x0001313c   Section        8  QtCore{00040703}-160.o(StubCode)
    theImportedSymbol                        0x00013140   Data           0  QtCore{00040703}-160.o(StubCode)
    StubCode                                 0x00013144   Section        8  QtCore{00040703}-1610.o(StubCode)
    theImportedSymbol                        0x00013148   Data           0  QtCore{00040703}-1610.o(StubCode)
    StubCode                                 0x0001314c   Section        8  QtCore{00040703}-162.o(StubCode)
    theImportedSymbol                        0x00013150   Data           0  QtCore{00040703}-162.o(StubCode)
    StubCode                                 0x00013154   Section        8  QtCore{00040703}-1622.o(StubCode)
    theImportedSymbol                        0x00013158   Data           0  QtCore{00040703}-1622.o(StubCode)
    StubCode                                 0x0001315c   Section        8  QtCore{00040703}-1639.o(StubCode)
    theImportedSymbol                        0x00013160   Data           0  QtCore{00040703}-1639.o(StubCode)
    StubCode                                 0x00013164   Section        8  QtCore{00040703}-1645.o(StubCode)
    theImportedSymbol                        0x00013168   Data           0  QtCore{00040703}-1645.o(StubCode)
    StubCode                                 0x0001316c   Section        8  QtCore{00040703}-167.o(StubCode)
    theImportedSymbol                        0x00013170   Data           0  QtCore{00040703}-167.o(StubCode)
    StubCode                                 0x00013174   Section        8  QtCore{00040703}-1670.o(StubCode)
    theImportedSymbol                        0x00013178   Data           0  QtCore{00040703}-1670.o(StubCode)
    StubCode                                 0x0001317c   Section        8  QtCore{00040703}-1671.o(StubCode)
    theImportedSymbol                        0x00013180   Data           0  QtCore{00040703}-1671.o(StubCode)
    StubCode                                 0x00013184   Section        8  QtCore{00040703}-1674.o(StubCode)
    theImportedSymbol                        0x00013188   Data           0  QtCore{00040703}-1674.o(StubCode)
    StubCode                                 0x0001318c   Section        8  QtCore{00040703}-1676.o(StubCode)
    theImportedSymbol                        0x00013190   Data           0  QtCore{00040703}-1676.o(StubCode)
    StubCode                                 0x00013194   Section        8  QtCore{00040703}-168.o(StubCode)
    theImportedSymbol                        0x00013198   Data           0  QtCore{00040703}-168.o(StubCode)
    StubCode                                 0x0001319c   Section        8  QtCore{00040703}-1706.o(StubCode)
    theImportedSymbol                        0x000131a0   Data           0  QtCore{00040703}-1706.o(StubCode)
    StubCode                                 0x000131a4   Section        8  QtCore{00040703}-172.o(StubCode)
    theImportedSymbol                        0x000131a8   Data           0  QtCore{00040703}-172.o(StubCode)
    StubCode                                 0x000131ac   Section        8  QtCore{00040703}-1760.o(StubCode)
    theImportedSymbol                        0x000131b0   Data           0  QtCore{00040703}-1760.o(StubCode)
    StubCode                                 0x000131b4   Section        8  QtCore{00040703}-1761.o(StubCode)
    theImportedSymbol                        0x000131b8   Data           0  QtCore{00040703}-1761.o(StubCode)
    StubCode                                 0x000131bc   Section        8  QtCore{00040703}-1763.o(StubCode)
    theImportedSymbol                        0x000131c0   Data           0  QtCore{00040703}-1763.o(StubCode)
    StubCode                                 0x000131c4   Section        8  QtCore{00040703}-1764.o(StubCode)
    theImportedSymbol                        0x000131c8   Data           0  QtCore{00040703}-1764.o(StubCode)
    StubCode                                 0x000131cc   Section        8  QtCore{00040703}-1766.o(StubCode)
    theImportedSymbol                        0x000131d0   Data           0  QtCore{00040703}-1766.o(StubCode)
    StubCode                                 0x000131d4   Section        8  QtCore{00040703}-1767.o(StubCode)
    theImportedSymbol                        0x000131d8   Data           0  QtCore{00040703}-1767.o(StubCode)
    StubCode                                 0x000131dc   Section        8  QtCore{00040703}-1768.o(StubCode)
    theImportedSymbol                        0x000131e0   Data           0  QtCore{00040703}-1768.o(StubCode)
    StubCode                                 0x000131e4   Section        8  QtCore{00040703}-1770.o(StubCode)
    theImportedSymbol                        0x000131e8   Data           0  QtCore{00040703}-1770.o(StubCode)
    StubCode                                 0x000131ec   Section        8  QtCore{00040703}-1773.o(StubCode)
    theImportedSymbol                        0x000131f0   Data           0  QtCore{00040703}-1773.o(StubCode)
    StubCode                                 0x000131f4   Section        8  QtCore{00040703}-1777.o(StubCode)
    theImportedSymbol                        0x000131f8   Data           0  QtCore{00040703}-1777.o(StubCode)
    StubCode                                 0x000131fc   Section        8  QtCore{00040703}-1784.o(StubCode)
    theImportedSymbol                        0x00013200   Data           0  QtCore{00040703}-1784.o(StubCode)
    StubCode                                 0x00013204   Section        8  QtCore{00040703}-1785.o(StubCode)
    theImportedSymbol                        0x00013208   Data           0  QtCore{00040703}-1785.o(StubCode)
    StubCode                                 0x0001320c   Section        8  QtCore{00040703}-1788.o(StubCode)
    theImportedSymbol                        0x00013210   Data           0  QtCore{00040703}-1788.o(StubCode)
    StubCode                                 0x00013214   Section        8  QtCore{00040703}-1789.o(StubCode)
    theImportedSymbol                        0x00013218   Data           0  QtCore{00040703}-1789.o(StubCode)
    StubCode                                 0x0001321c   Section        8  QtCore{00040703}-179.o(StubCode)
    theImportedSymbol                        0x00013220   Data           0  QtCore{00040703}-179.o(StubCode)
    StubCode                                 0x00013224   Section        8  QtCore{00040703}-1794.o(StubCode)
    theImportedSymbol                        0x00013228   Data           0  QtCore{00040703}-1794.o(StubCode)
    StubCode                                 0x0001322c   Section        8  QtCore{00040703}-1799.o(StubCode)
    theImportedSymbol                        0x00013230   Data           0  QtCore{00040703}-1799.o(StubCode)
    StubCode                                 0x00013234   Section        8  QtCore{00040703}-1805.o(StubCode)
    theImportedSymbol                        0x00013238   Data           0  QtCore{00040703}-1805.o(StubCode)
    StubCode                                 0x0001323c   Section        8  QtCore{00040703}-1811.o(StubCode)
    theImportedSymbol                        0x00013240   Data           0  QtCore{00040703}-1811.o(StubCode)
    StubCode                                 0x00013244   Section        8  QtCore{00040703}-1825.o(StubCode)
    theImportedSymbol                        0x00013248   Data           0  QtCore{00040703}-1825.o(StubCode)
    StubCode                                 0x0001324c   Section        8  QtCore{00040703}-1826.o(StubCode)
    theImportedSymbol                        0x00013250   Data           0  QtCore{00040703}-1826.o(StubCode)
    StubCode                                 0x00013254   Section        8  QtCore{00040703}-1830.o(StubCode)
    theImportedSymbol                        0x00013258   Data           0  QtCore{00040703}-1830.o(StubCode)
    StubCode                                 0x0001325c   Section        8  QtCore{00040703}-1831.o(StubCode)
    theImportedSymbol                        0x00013260   Data           0  QtCore{00040703}-1831.o(StubCode)
    StubCode                                 0x00013264   Section        8  QtCore{00040703}-1835.o(StubCode)
    theImportedSymbol                        0x00013268   Data           0  QtCore{00040703}-1835.o(StubCode)
    StubCode                                 0x0001326c   Section        8  QtCore{00040703}-1836.o(StubCode)
    theImportedSymbol                        0x00013270   Data           0  QtCore{00040703}-1836.o(StubCode)
    StubCode                                 0x00013274   Section        8  QtCore{00040703}-1842.o(StubCode)
    theImportedSymbol                        0x00013278   Data           0  QtCore{00040703}-1842.o(StubCode)
    StubCode                                 0x0001327c   Section        8  QtCore{00040703}-1855.o(StubCode)
    theImportedSymbol                        0x00013280   Data           0  QtCore{00040703}-1855.o(StubCode)
    StubCode                                 0x00013284   Section        8  QtCore{00040703}-1874.o(StubCode)
    theImportedSymbol                        0x00013288   Data           0  QtCore{00040703}-1874.o(StubCode)
    StubCode                                 0x0001328c   Section        8  QtCore{00040703}-1875.o(StubCode)
    theImportedSymbol                        0x00013290   Data           0  QtCore{00040703}-1875.o(StubCode)
    StubCode                                 0x00013294   Section        8  QtCore{00040703}-1885.o(StubCode)
    theImportedSymbol                        0x00013298   Data           0  QtCore{00040703}-1885.o(StubCode)
    StubCode                                 0x0001329c   Section        8  QtCore{00040703}-1927.o(StubCode)
    theImportedSymbol                        0x000132a0   Data           0  QtCore{00040703}-1927.o(StubCode)
    StubCode                                 0x000132a4   Section        8  QtCore{00040703}-1928.o(StubCode)
    theImportedSymbol                        0x000132a8   Data           0  QtCore{00040703}-1928.o(StubCode)
    StubCode                                 0x000132ac   Section        8  QtCore{00040703}-1935.o(StubCode)
    theImportedSymbol                        0x000132b0   Data           0  QtCore{00040703}-1935.o(StubCode)
    StubCode                                 0x000132b4   Section        8  QtCore{00040703}-1943.o(StubCode)
    theImportedSymbol                        0x000132b8   Data           0  QtCore{00040703}-1943.o(StubCode)
    StubCode                                 0x000132bc   Section        8  QtCore{00040703}-1949.o(StubCode)
    theImportedSymbol                        0x000132c0   Data           0  QtCore{00040703}-1949.o(StubCode)
    StubCode                                 0x000132c4   Section        8  QtCore{00040703}-2001.o(StubCode)
    theImportedSymbol                        0x000132c8   Data           0  QtCore{00040703}-2001.o(StubCode)
    StubCode                                 0x000132cc   Section        8  QtCore{00040703}-2003.o(StubCode)
    theImportedSymbol                        0x000132d0   Data           0  QtCore{00040703}-2003.o(StubCode)
    StubCode                                 0x000132d4   Section        8  QtCore{00040703}-2014.o(StubCode)
    theImportedSymbol                        0x000132d8   Data           0  QtCore{00040703}-2014.o(StubCode)
    StubCode                                 0x000132dc   Section        8  QtCore{00040703}-2015.o(StubCode)
    theImportedSymbol                        0x000132e0   Data           0  QtCore{00040703}-2015.o(StubCode)
    StubCode                                 0x000132e4   Section        8  QtCore{00040703}-2034.o(StubCode)
    theImportedSymbol                        0x000132e8   Data           0  QtCore{00040703}-2034.o(StubCode)
    StubCode                                 0x000132ec   Section        8  QtCore{00040703}-2037.o(StubCode)
    theImportedSymbol                        0x000132f0   Data           0  QtCore{00040703}-2037.o(StubCode)
    StubCode                                 0x000132f4   Section        8  QtCore{00040703}-2040.o(StubCode)
    theImportedSymbol                        0x000132f8   Data           0  QtCore{00040703}-2040.o(StubCode)
    StubCode                                 0x000132fc   Section        8  QtCore{00040703}-2041.o(StubCode)
    theImportedSymbol                        0x00013300   Data           0  QtCore{00040703}-2041.o(StubCode)
    StubCode                                 0x00013304   Section        8  QtCore{00040703}-2082.o(StubCode)
    theImportedSymbol                        0x00013308   Data           0  QtCore{00040703}-2082.o(StubCode)
    StubCode                                 0x0001330c   Section        8  QtCore{00040703}-2084.o(StubCode)
    theImportedSymbol                        0x00013310   Data           0  QtCore{00040703}-2084.o(StubCode)
    StubCode                                 0x00013314   Section        8  QtCore{00040703}-2122.o(StubCode)
    theImportedSymbol                        0x00013318   Data           0  QtCore{00040703}-2122.o(StubCode)
    StubCode                                 0x0001331c   Section        8  QtCore{00040703}-2130.o(StubCode)
    theImportedSymbol                        0x00013320   Data           0  QtCore{00040703}-2130.o(StubCode)
    StubCode                                 0x00013324   Section        8  QtCore{00040703}-2134.o(StubCode)
    theImportedSymbol                        0x00013328   Data           0  QtCore{00040703}-2134.o(StubCode)
    StubCode                                 0x0001332c   Section        8  QtCore{00040703}-2137.o(StubCode)
    theImportedSymbol                        0x00013330   Data           0  QtCore{00040703}-2137.o(StubCode)
    StubCode                                 0x00013334   Section        8  QtCore{00040703}-2141.o(StubCode)
    theImportedSymbol                        0x00013338   Data           0  QtCore{00040703}-2141.o(StubCode)
    StubCode                                 0x0001333c   Section        8  QtCore{00040703}-2142.o(StubCode)
    theImportedSymbol                        0x00013340   Data           0  QtCore{00040703}-2142.o(StubCode)
    StubCode                                 0x00013344   Section        8  QtCore{00040703}-2143.o(StubCode)
    theImportedSymbol                        0x00013348   Data           0  QtCore{00040703}-2143.o(StubCode)
    StubCode                                 0x0001334c   Section        8  QtCore{00040703}-2186.o(StubCode)
    theImportedSymbol                        0x00013350   Data           0  QtCore{00040703}-2186.o(StubCode)
    StubCode                                 0x00013354   Section        8  QtCore{00040703}-2188.o(StubCode)
    theImportedSymbol                        0x00013358   Data           0  QtCore{00040703}-2188.o(StubCode)
    StubCode                                 0x0001335c   Section        8  QtCore{00040703}-2191.o(StubCode)
    theImportedSymbol                        0x00013360   Data           0  QtCore{00040703}-2191.o(StubCode)
    StubCode                                 0x00013364   Section        8  QtCore{00040703}-2196.o(StubCode)
    theImportedSymbol                        0x00013368   Data           0  QtCore{00040703}-2196.o(StubCode)
    StubCode                                 0x0001336c   Section        8  QtCore{00040703}-2197.o(StubCode)
    theImportedSymbol                        0x00013370   Data           0  QtCore{00040703}-2197.o(StubCode)
    StubCode                                 0x00013374   Section        8  QtCore{00040703}-2199.o(StubCode)
    theImportedSymbol                        0x00013378   Data           0  QtCore{00040703}-2199.o(StubCode)
    StubCode                                 0x0001337c   Section        8  QtCore{00040703}-2202.o(StubCode)
    theImportedSymbol                        0x00013380   Data           0  QtCore{00040703}-2202.o(StubCode)
    StubCode                                 0x00013384   Section        8  QtCore{00040703}-2203.o(StubCode)
    theImportedSymbol                        0x00013388   Data           0  QtCore{00040703}-2203.o(StubCode)
    StubCode                                 0x0001338c   Section        8  QtCore{00040703}-2204.o(StubCode)
    theImportedSymbol                        0x00013390   Data           0  QtCore{00040703}-2204.o(StubCode)
    StubCode                                 0x00013394   Section        8  QtCore{00040703}-225.o(StubCode)
    theImportedSymbol                        0x00013398   Data           0  QtCore{00040703}-225.o(StubCode)
    StubCode                                 0x0001339c   Section        8  QtCore{00040703}-233.o(StubCode)
    theImportedSymbol                        0x000133a0   Data           0  QtCore{00040703}-233.o(StubCode)
    StubCode                                 0x000133a4   Section        8  QtCore{00040703}-234.o(StubCode)
    theImportedSymbol                        0x000133a8   Data           0  QtCore{00040703}-234.o(StubCode)
    StubCode                                 0x000133ac   Section        8  QtCore{00040703}-2340.o(StubCode)
    theImportedSymbol                        0x000133b0   Data           0  QtCore{00040703}-2340.o(StubCode)
    StubCode                                 0x000133b4   Section        8  QtCore{00040703}-2354.o(StubCode)
    theImportedSymbol                        0x000133b8   Data           0  QtCore{00040703}-2354.o(StubCode)
    StubCode                                 0x000133bc   Section        8  QtCore{00040703}-236.o(StubCode)
    theImportedSymbol                        0x000133c0   Data           0  QtCore{00040703}-236.o(StubCode)
    StubCode                                 0x000133c4   Section        8  QtCore{00040703}-2363.o(StubCode)
    theImportedSymbol                        0x000133c8   Data           0  QtCore{00040703}-2363.o(StubCode)
    StubCode                                 0x000133cc   Section        8  QtCore{00040703}-2372.o(StubCode)
    theImportedSymbol                        0x000133d0   Data           0  QtCore{00040703}-2372.o(StubCode)
    StubCode                                 0x000133d4   Section        8  QtCore{00040703}-2382.o(StubCode)
    theImportedSymbol                        0x000133d8   Data           0  QtCore{00040703}-2382.o(StubCode)
    StubCode                                 0x000133dc   Section        8  QtCore{00040703}-2383.o(StubCode)
    theImportedSymbol                        0x000133e0   Data           0  QtCore{00040703}-2383.o(StubCode)
    StubCode                                 0x000133e4   Section        8  QtCore{00040703}-2385.o(StubCode)
    theImportedSymbol                        0x000133e8   Data           0  QtCore{00040703}-2385.o(StubCode)
    StubCode                                 0x000133ec   Section        8  QtCore{00040703}-2386.o(StubCode)
    theImportedSymbol                        0x000133f0   Data           0  QtCore{00040703}-2386.o(StubCode)
    StubCode                                 0x000133f4   Section        8  QtCore{00040703}-2388.o(StubCode)
    theImportedSymbol                        0x000133f8   Data           0  QtCore{00040703}-2388.o(StubCode)
    StubCode                                 0x000133fc   Section        8  QtCore{00040703}-2389.o(StubCode)
    theImportedSymbol                        0x00013400   Data           0  QtCore{00040703}-2389.o(StubCode)
    StubCode                                 0x00013404   Section        8  QtCore{00040703}-2390.o(StubCode)
    theImportedSymbol                        0x00013408   Data           0  QtCore{00040703}-2390.o(StubCode)
    StubCode                                 0x0001340c   Section        8  QtCore{00040703}-2391.o(StubCode)
    theImportedSymbol                        0x00013410   Data           0  QtCore{00040703}-2391.o(StubCode)
    StubCode                                 0x00013414   Section        8  QtCore{00040703}-2392.o(StubCode)
    theImportedSymbol                        0x00013418   Data           0  QtCore{00040703}-2392.o(StubCode)
    StubCode                                 0x0001341c   Section        8  QtCore{00040703}-2393.o(StubCode)
    theImportedSymbol                        0x00013420   Data           0  QtCore{00040703}-2393.o(StubCode)
    StubCode                                 0x00013424   Section        8  QtCore{00040703}-2394.o(StubCode)
    theImportedSymbol                        0x00013428   Data           0  QtCore{00040703}-2394.o(StubCode)
    StubCode                                 0x0001342c   Section        8  QtCore{00040703}-2395.o(StubCode)
    theImportedSymbol                        0x00013430   Data           0  QtCore{00040703}-2395.o(StubCode)
    StubCode                                 0x00013434   Section        8  QtCore{00040703}-2396.o(StubCode)
    theImportedSymbol                        0x00013438   Data           0  QtCore{00040703}-2396.o(StubCode)
    StubCode                                 0x0001343c   Section        8  QtCore{00040703}-2398.o(StubCode)
    theImportedSymbol                        0x00013440   Data           0  QtCore{00040703}-2398.o(StubCode)
    StubCode                                 0x00013444   Section        8  QtCore{00040703}-2400.o(StubCode)
    theImportedSymbol                        0x00013448   Data           0  QtCore{00040703}-2400.o(StubCode)
    StubCode                                 0x0001344c   Section        8  QtCore{00040703}-2402.o(StubCode)
    theImportedSymbol                        0x00013450   Data           0  QtCore{00040703}-2402.o(StubCode)
    StubCode                                 0x00013454   Section        8  QtCore{00040703}-2403.o(StubCode)
    theImportedSymbol                        0x00013458   Data           0  QtCore{00040703}-2403.o(StubCode)
    StubCode                                 0x0001345c   Section        8  QtCore{00040703}-2404.o(StubCode)
    theImportedSymbol                        0x00013460   Data           0  QtCore{00040703}-2404.o(StubCode)
    StubCode                                 0x00013464   Section        8  QtCore{00040703}-2405.o(StubCode)
    theImportedSymbol                        0x00013468   Data           0  QtCore{00040703}-2405.o(StubCode)
    StubCode                                 0x0001346c   Section        8  QtCore{00040703}-2406.o(StubCode)
    theImportedSymbol                        0x00013470   Data           0  QtCore{00040703}-2406.o(StubCode)
    StubCode                                 0x00013474   Section        8  QtCore{00040703}-2407.o(StubCode)
    theImportedSymbol                        0x00013478   Data           0  QtCore{00040703}-2407.o(StubCode)
    StubCode                                 0x0001347c   Section        8  QtCore{00040703}-2408.o(StubCode)
    theImportedSymbol                        0x00013480   Data           0  QtCore{00040703}-2408.o(StubCode)
    StubCode                                 0x00013484   Section        8  QtCore{00040703}-2411.o(StubCode)
    theImportedSymbol                        0x00013488   Data           0  QtCore{00040703}-2411.o(StubCode)
    StubCode                                 0x0001348c   Section        8  QtCore{00040703}-2412.o(StubCode)
    theImportedSymbol                        0x00013490   Data           0  QtCore{00040703}-2412.o(StubCode)
    StubCode                                 0x00013494   Section        8  QtCore{00040703}-2419.o(StubCode)
    theImportedSymbol                        0x00013498   Data           0  QtCore{00040703}-2419.o(StubCode)
    StubCode                                 0x0001349c   Section        8  QtCore{00040703}-2422.o(StubCode)
    theImportedSymbol                        0x000134a0   Data           0  QtCore{00040703}-2422.o(StubCode)
    StubCode                                 0x000134a4   Section        8  QtCore{00040703}-2423.o(StubCode)
    theImportedSymbol                        0x000134a8   Data           0  QtCore{00040703}-2423.o(StubCode)
    StubCode                                 0x000134ac   Section        8  QtCore{00040703}-243.o(StubCode)
    theImportedSymbol                        0x000134b0   Data           0  QtCore{00040703}-243.o(StubCode)
    StubCode                                 0x000134b4   Section        8  QtCore{00040703}-246.o(StubCode)
    theImportedSymbol                        0x000134b8   Data           0  QtCore{00040703}-246.o(StubCode)
    StubCode                                 0x000134bc   Section        8  QtCore{00040703}-247.o(StubCode)
    theImportedSymbol                        0x000134c0   Data           0  QtCore{00040703}-247.o(StubCode)
    StubCode                                 0x000134c4   Section        8  QtCore{00040703}-2486.o(StubCode)
    theImportedSymbol                        0x000134c8   Data           0  QtCore{00040703}-2486.o(StubCode)
    StubCode                                 0x000134cc   Section        8  QtCore{00040703}-2487.o(StubCode)
    theImportedSymbol                        0x000134d0   Data           0  QtCore{00040703}-2487.o(StubCode)
    StubCode                                 0x000134d4   Section        8  QtCore{00040703}-2489.o(StubCode)
    theImportedSymbol                        0x000134d8   Data           0  QtCore{00040703}-2489.o(StubCode)
    StubCode                                 0x000134dc   Section        8  QtCore{00040703}-2490.o(StubCode)
    theImportedSymbol                        0x000134e0   Data           0  QtCore{00040703}-2490.o(StubCode)
    StubCode                                 0x000134e4   Section        8  QtCore{00040703}-2491.o(StubCode)
    theImportedSymbol                        0x000134e8   Data           0  QtCore{00040703}-2491.o(StubCode)
    StubCode                                 0x000134ec   Section        8  QtCore{00040703}-2492.o(StubCode)
    theImportedSymbol                        0x000134f0   Data           0  QtCore{00040703}-2492.o(StubCode)
    StubCode                                 0x000134f4   Section        8  QtCore{00040703}-2493.o(StubCode)
    theImportedSymbol                        0x000134f8   Data           0  QtCore{00040703}-2493.o(StubCode)
    StubCode                                 0x000134fc   Section        8  QtCore{00040703}-2494.o(StubCode)
    theImportedSymbol                        0x00013500   Data           0  QtCore{00040703}-2494.o(StubCode)
    StubCode                                 0x00013504   Section        8  QtCore{00040703}-2495.o(StubCode)
    theImportedSymbol                        0x00013508   Data           0  QtCore{00040703}-2495.o(StubCode)
    StubCode                                 0x0001350c   Section        8  QtCore{00040703}-2497.o(StubCode)
    theImportedSymbol                        0x00013510   Data           0  QtCore{00040703}-2497.o(StubCode)
    StubCode                                 0x00013514   Section        8  QtCore{00040703}-2499.o(StubCode)
    theImportedSymbol                        0x00013518   Data           0  QtCore{00040703}-2499.o(StubCode)
    StubCode                                 0x0001351c   Section        8  QtCore{00040703}-250.o(StubCode)
    theImportedSymbol                        0x00013520   Data           0  QtCore{00040703}-250.o(StubCode)
    StubCode                                 0x00013524   Section        8  QtCore{00040703}-2500.o(StubCode)
    theImportedSymbol                        0x00013528   Data           0  QtCore{00040703}-2500.o(StubCode)
    StubCode                                 0x0001352c   Section        8  QtCore{00040703}-2501.o(StubCode)
    theImportedSymbol                        0x00013530   Data           0  QtCore{00040703}-2501.o(StubCode)
    StubCode                                 0x00013534   Section        8  QtCore{00040703}-2502.o(StubCode)
    theImportedSymbol                        0x00013538   Data           0  QtCore{00040703}-2502.o(StubCode)
    StubCode                                 0x0001353c   Section        8  QtCore{00040703}-2503.o(StubCode)
    theImportedSymbol                        0x00013540   Data           0  QtCore{00040703}-2503.o(StubCode)
    StubCode                                 0x00013544   Section        8  QtCore{00040703}-2504.o(StubCode)
    theImportedSymbol                        0x00013548   Data           0  QtCore{00040703}-2504.o(StubCode)
    StubCode                                 0x0001354c   Section        8  QtCore{00040703}-2506.o(StubCode)
    theImportedSymbol                        0x00013550   Data           0  QtCore{00040703}-2506.o(StubCode)
    StubCode                                 0x00013554   Section        8  QtCore{00040703}-2507.o(StubCode)
    theImportedSymbol                        0x00013558   Data           0  QtCore{00040703}-2507.o(StubCode)
    StubCode                                 0x0001355c   Section        8  QtCore{00040703}-251.o(StubCode)
    theImportedSymbol                        0x00013560   Data           0  QtCore{00040703}-251.o(StubCode)
    StubCode                                 0x00013564   Section        8  QtCore{00040703}-254.o(StubCode)
    theImportedSymbol                        0x00013568   Data           0  QtCore{00040703}-254.o(StubCode)
    StubCode                                 0x0001356c   Section        8  QtCore{00040703}-255.o(StubCode)
    theImportedSymbol                        0x00013570   Data           0  QtCore{00040703}-255.o(StubCode)
    StubCode                                 0x00013574   Section        8  QtCore{00040703}-2553.o(StubCode)
    theImportedSymbol                        0x00013578   Data           0  QtCore{00040703}-2553.o(StubCode)
    StubCode                                 0x0001357c   Section        8  QtCore{00040703}-2554.o(StubCode)
    theImportedSymbol                        0x00013580   Data           0  QtCore{00040703}-2554.o(StubCode)
    StubCode                                 0x00013584   Section        8  QtCore{00040703}-258.o(StubCode)
    theImportedSymbol                        0x00013588   Data           0  QtCore{00040703}-258.o(StubCode)
    StubCode                                 0x0001358c   Section        8  QtCore{00040703}-259.o(StubCode)
    theImportedSymbol                        0x00013590   Data           0  QtCore{00040703}-259.o(StubCode)
    StubCode                                 0x00013594   Section        8  QtCore{00040703}-2611.o(StubCode)
    theImportedSymbol                        0x00013598   Data           0  QtCore{00040703}-2611.o(StubCode)
    StubCode                                 0x0001359c   Section        8  QtCore{00040703}-2614.o(StubCode)
    theImportedSymbol                        0x000135a0   Data           0  QtCore{00040703}-2614.o(StubCode)
    StubCode                                 0x000135a4   Section        8  QtCore{00040703}-2635.o(StubCode)
    theImportedSymbol                        0x000135a8   Data           0  QtCore{00040703}-2635.o(StubCode)
    StubCode                                 0x000135ac   Section        8  QtCore{00040703}-2637.o(StubCode)
    theImportedSymbol                        0x000135b0   Data           0  QtCore{00040703}-2637.o(StubCode)
    StubCode                                 0x000135b4   Section        8  QtCore{00040703}-2643.o(StubCode)
    theImportedSymbol                        0x000135b8   Data           0  QtCore{00040703}-2643.o(StubCode)
    StubCode                                 0x000135bc   Section        8  QtCore{00040703}-273.o(StubCode)
    theImportedSymbol                        0x000135c0   Data           0  QtCore{00040703}-273.o(StubCode)
    StubCode                                 0x000135c4   Section        8  QtCore{00040703}-274.o(StubCode)
    theImportedSymbol                        0x000135c8   Data           0  QtCore{00040703}-274.o(StubCode)
    StubCode                                 0x000135cc   Section        8  QtCore{00040703}-275.o(StubCode)
    theImportedSymbol                        0x000135d0   Data           0  QtCore{00040703}-275.o(StubCode)
    StubCode                                 0x000135d4   Section        8  QtCore{00040703}-2750.o(StubCode)
    theImportedSymbol                        0x000135d8   Data           0  QtCore{00040703}-2750.o(StubCode)
    StubCode                                 0x000135dc   Section        8  QtCore{00040703}-277.o(StubCode)
    theImportedSymbol                        0x000135e0   Data           0  QtCore{00040703}-277.o(StubCode)
    StubCode                                 0x000135e4   Section        8  QtCore{00040703}-280.o(StubCode)
    theImportedSymbol                        0x000135e8   Data           0  QtCore{00040703}-280.o(StubCode)
    StubCode                                 0x000135ec   Section        8  QtCore{00040703}-281.o(StubCode)
    theImportedSymbol                        0x000135f0   Data           0  QtCore{00040703}-281.o(StubCode)
    StubCode                                 0x000135f4   Section        8  QtCore{00040703}-282.o(StubCode)
    theImportedSymbol                        0x000135f8   Data           0  QtCore{00040703}-282.o(StubCode)
    StubCode                                 0x000135fc   Section        8  QtCore{00040703}-286.o(StubCode)
    theImportedSymbol                        0x00013600   Data           0  QtCore{00040703}-286.o(StubCode)
    StubCode                                 0x00013604   Section        8  QtCore{00040703}-2919.o(StubCode)
    theImportedSymbol                        0x00013608   Data           0  QtCore{00040703}-2919.o(StubCode)
    StubCode                                 0x0001360c   Section        8  QtCore{00040703}-2928.o(StubCode)
    theImportedSymbol                        0x00013610   Data           0  QtCore{00040703}-2928.o(StubCode)
    StubCode                                 0x00013614   Section        8  QtCore{00040703}-3003.o(StubCode)
    theImportedSymbol                        0x00013618   Data           0  QtCore{00040703}-3003.o(StubCode)
    StubCode                                 0x0001361c   Section        8  QtCore{00040703}-3009.o(StubCode)
    theImportedSymbol                        0x00013620   Data           0  QtCore{00040703}-3009.o(StubCode)
    StubCode                                 0x00013624   Section        8  QtCore{00040703}-3010.o(StubCode)
    theImportedSymbol                        0x00013628   Data           0  QtCore{00040703}-3010.o(StubCode)
    StubCode                                 0x0001362c   Section        8  QtCore{00040703}-3017.o(StubCode)
    theImportedSymbol                        0x00013630   Data           0  QtCore{00040703}-3017.o(StubCode)
    StubCode                                 0x00013634   Section        8  QtCore{00040703}-3022.o(StubCode)
    theImportedSymbol                        0x00013638   Data           0  QtCore{00040703}-3022.o(StubCode)
    StubCode                                 0x0001363c   Section        8  QtCore{00040703}-3033.o(StubCode)
    theImportedSymbol                        0x00013640   Data           0  QtCore{00040703}-3033.o(StubCode)
    StubCode                                 0x00013644   Section        8  QtCore{00040703}-3040.o(StubCode)
    theImportedSymbol                        0x00013648   Data           0  QtCore{00040703}-3040.o(StubCode)
    StubCode                                 0x0001364c   Section        8  QtCore{00040703}-3049.o(StubCode)
    theImportedSymbol                        0x00013650   Data           0  QtCore{00040703}-3049.o(StubCode)
    StubCode                                 0x00013654   Section        8  QtCore{00040703}-3052.o(StubCode)
    theImportedSymbol                        0x00013658   Data           0  QtCore{00040703}-3052.o(StubCode)
    StubCode                                 0x0001365c   Section        8  QtCore{00040703}-3062.o(StubCode)
    theImportedSymbol                        0x00013660   Data           0  QtCore{00040703}-3062.o(StubCode)
    StubCode                                 0x00013664   Section        8  QtCore{00040703}-3063.o(StubCode)
    theImportedSymbol                        0x00013668   Data           0  QtCore{00040703}-3063.o(StubCode)
    StubCode                                 0x0001366c   Section        8  QtCore{00040703}-3064.o(StubCode)
    theImportedSymbol                        0x00013670   Data           0  QtCore{00040703}-3064.o(StubCode)
    StubCode                                 0x00013674   Section        8  QtCore{00040703}-3083.o(StubCode)
    theImportedSymbol                        0x00013678   Data           0  QtCore{00040703}-3083.o(StubCode)
    StubCode                                 0x0001367c   Section        8  QtCore{00040703}-3097.o(StubCode)
    theImportedSymbol                        0x00013680   Data           0  QtCore{00040703}-3097.o(StubCode)
    StubCode                                 0x00013684   Section        8  QtCore{00040703}-3098.o(StubCode)
    theImportedSymbol                        0x00013688   Data           0  QtCore{00040703}-3098.o(StubCode)
    StubCode                                 0x0001368c   Section        8  QtCore{00040703}-312.o(StubCode)
    theImportedSymbol                        0x00013690   Data           0  QtCore{00040703}-312.o(StubCode)
    StubCode                                 0x00013694   Section        8  QtCore{00040703}-3133.o(StubCode)
    theImportedSymbol                        0x00013698   Data           0  QtCore{00040703}-3133.o(StubCode)
    StubCode                                 0x0001369c   Section        8  QtCore{00040703}-3135.o(StubCode)
    theImportedSymbol                        0x000136a0   Data           0  QtCore{00040703}-3135.o(StubCode)
    StubCode                                 0x000136a4   Section        8  QtCore{00040703}-3136.o(StubCode)
    theImportedSymbol                        0x000136a8   Data           0  QtCore{00040703}-3136.o(StubCode)
    StubCode                                 0x000136ac   Section        8  QtCore{00040703}-3138.o(StubCode)
    theImportedSymbol                        0x000136b0   Data           0  QtCore{00040703}-3138.o(StubCode)
    StubCode                                 0x000136b4   Section        8  QtCore{00040703}-3139.o(StubCode)
    theImportedSymbol                        0x000136b8   Data           0  QtCore{00040703}-3139.o(StubCode)
    StubCode                                 0x000136bc   Section        8  QtCore{00040703}-3163.o(StubCode)
    theImportedSymbol                        0x000136c0   Data           0  QtCore{00040703}-3163.o(StubCode)
    StubCode                                 0x000136c4   Section        8  QtCore{00040703}-3164.o(StubCode)
    theImportedSymbol                        0x000136c8   Data           0  QtCore{00040703}-3164.o(StubCode)
    StubCode                                 0x000136cc   Section        8  QtCore{00040703}-3165.o(StubCode)
    theImportedSymbol                        0x000136d0   Data           0  QtCore{00040703}-3165.o(StubCode)
    StubCode                                 0x000136d4   Section        8  QtCore{00040703}-3166.o(StubCode)
    theImportedSymbol                        0x000136d8   Data           0  QtCore{00040703}-3166.o(StubCode)
    StubCode                                 0x000136dc   Section        8  QtCore{00040703}-32.o(StubCode)
    theImportedSymbol                        0x000136e0   Data           0  QtCore{00040703}-32.o(StubCode)
    StubCode                                 0x000136e4   Section        8  QtCore{00040703}-3201.o(StubCode)
    theImportedSymbol                        0x000136e8   Data           0  QtCore{00040703}-3201.o(StubCode)
    StubCode                                 0x000136ec   Section        8  QtCore{00040703}-3212.o(StubCode)
    theImportedSymbol                        0x000136f0   Data           0  QtCore{00040703}-3212.o(StubCode)
    StubCode                                 0x000136f4   Section        8  QtCore{00040703}-3238.o(StubCode)
    theImportedSymbol                        0x000136f8   Data           0  QtCore{00040703}-3238.o(StubCode)
    StubCode                                 0x000136fc   Section        8  QtCore{00040703}-324.o(StubCode)
    theImportedSymbol                        0x00013700   Data           0  QtCore{00040703}-324.o(StubCode)
    StubCode                                 0x00013704   Section        8  QtCore{00040703}-3244.o(StubCode)
    theImportedSymbol                        0x00013708   Data           0  QtCore{00040703}-3244.o(StubCode)
    StubCode                                 0x0001370c   Section        8  QtCore{00040703}-3245.o(StubCode)
    theImportedSymbol                        0x00013710   Data           0  QtCore{00040703}-3245.o(StubCode)
    StubCode                                 0x00013714   Section        8  QtCore{00040703}-3247.o(StubCode)
    theImportedSymbol                        0x00013718   Data           0  QtCore{00040703}-3247.o(StubCode)
    StubCode                                 0x0001371c   Section        8  QtCore{00040703}-3248.o(StubCode)
    theImportedSymbol                        0x00013720   Data           0  QtCore{00040703}-3248.o(StubCode)
    StubCode                                 0x00013724   Section        8  QtCore{00040703}-3249.o(StubCode)
    theImportedSymbol                        0x00013728   Data           0  QtCore{00040703}-3249.o(StubCode)
    StubCode                                 0x0001372c   Section        8  QtCore{00040703}-328.o(StubCode)
    theImportedSymbol                        0x00013730   Data           0  QtCore{00040703}-328.o(StubCode)
    StubCode                                 0x00013734   Section        8  QtCore{00040703}-331.o(StubCode)
    theImportedSymbol                        0x00013738   Data           0  QtCore{00040703}-331.o(StubCode)
    StubCode                                 0x0001373c   Section        8  QtCore{00040703}-332.o(StubCode)
    theImportedSymbol                        0x00013740   Data           0  QtCore{00040703}-332.o(StubCode)
    StubCode                                 0x00013744   Section        8  QtCore{00040703}-335.o(StubCode)
    theImportedSymbol                        0x00013748   Data           0  QtCore{00040703}-335.o(StubCode)
    StubCode                                 0x0001374c   Section        8  QtCore{00040703}-3460.o(StubCode)
    theImportedSymbol                        0x00013750   Data           0  QtCore{00040703}-3460.o(StubCode)
    StubCode                                 0x00013754   Section        8  QtCore{00040703}-3461.o(StubCode)
    theImportedSymbol                        0x00013758   Data           0  QtCore{00040703}-3461.o(StubCode)
    StubCode                                 0x0001375c   Section        8  QtCore{00040703}-3486.o(StubCode)
    theImportedSymbol                        0x00013760   Data           0  QtCore{00040703}-3486.o(StubCode)
    StubCode                                 0x00013764   Section        8  QtCore{00040703}-3494.o(StubCode)
    theImportedSymbol                        0x00013768   Data           0  QtCore{00040703}-3494.o(StubCode)
    StubCode                                 0x0001376c   Section        8  QtCore{00040703}-3502.o(StubCode)
    theImportedSymbol                        0x00013770   Data           0  QtCore{00040703}-3502.o(StubCode)
    StubCode                                 0x00013774   Section        8  QtCore{00040703}-3503.o(StubCode)
    theImportedSymbol                        0x00013778   Data           0  QtCore{00040703}-3503.o(StubCode)
    StubCode                                 0x0001377c   Section        8  QtCore{00040703}-3508.o(StubCode)
    theImportedSymbol                        0x00013780   Data           0  QtCore{00040703}-3508.o(StubCode)
    StubCode                                 0x00013784   Section        8  QtCore{00040703}-3516.o(StubCode)
    theImportedSymbol                        0x00013788   Data           0  QtCore{00040703}-3516.o(StubCode)
    StubCode                                 0x0001378c   Section        8  QtCore{00040703}-3524.o(StubCode)
    theImportedSymbol                        0x00013790   Data           0  QtCore{00040703}-3524.o(StubCode)
    StubCode                                 0x00013794   Section        8  QtCore{00040703}-3525.o(StubCode)
    theImportedSymbol                        0x00013798   Data           0  QtCore{00040703}-3525.o(StubCode)
    StubCode                                 0x0001379c   Section        8  QtCore{00040703}-3583.o(StubCode)
    theImportedSymbol                        0x000137a0   Data           0  QtCore{00040703}-3583.o(StubCode)
    StubCode                                 0x000137a4   Section        8  QtCore{00040703}-3584.o(StubCode)
    theImportedSymbol                        0x000137a8   Data           0  QtCore{00040703}-3584.o(StubCode)
    StubCode                                 0x000137ac   Section        8  QtCore{00040703}-3585.o(StubCode)
    theImportedSymbol                        0x000137b0   Data           0  QtCore{00040703}-3585.o(StubCode)
    StubCode                                 0x000137b4   Section        8  QtCore{00040703}-3609.o(StubCode)
    theImportedSymbol                        0x000137b8   Data           0  QtCore{00040703}-3609.o(StubCode)
    StubCode                                 0x000137bc   Section        8  QtCore{00040703}-3610.o(StubCode)
    theImportedSymbol                        0x000137c0   Data           0  QtCore{00040703}-3610.o(StubCode)
    StubCode                                 0x000137c4   Section        8  QtCore{00040703}-3689.o(StubCode)
    theImportedSymbol                        0x000137c8   Data           0  QtCore{00040703}-3689.o(StubCode)
    StubCode                                 0x000137cc   Section        8  QtCore{00040703}-3691.o(StubCode)
    theImportedSymbol                        0x000137d0   Data           0  QtCore{00040703}-3691.o(StubCode)
    StubCode                                 0x000137d4   Section        8  QtCore{00040703}-392.o(StubCode)
    theImportedSymbol                        0x000137d8   Data           0  QtCore{00040703}-392.o(StubCode)
    StubCode                                 0x000137dc   Section        8  QtCore{00040703}-46.o(StubCode)
    theImportedSymbol                        0x000137e0   Data           0  QtCore{00040703}-46.o(StubCode)
    StubCode                                 0x000137e4   Section        8  QtCore{00040703}-499.o(StubCode)
    theImportedSymbol                        0x000137e8   Data           0  QtCore{00040703}-499.o(StubCode)
    StubCode                                 0x000137ec   Section        8  QtCore{00040703}-501.o(StubCode)
    theImportedSymbol                        0x000137f0   Data           0  QtCore{00040703}-501.o(StubCode)
    StubCode                                 0x000137f4   Section        8  QtCore{00040703}-56.o(StubCode)
    theImportedSymbol                        0x000137f8   Data           0  QtCore{00040703}-56.o(StubCode)
    StubCode                                 0x000137fc   Section        8  QtCore{00040703}-70.o(StubCode)
    theImportedSymbol                        0x00013800   Data           0  QtCore{00040703}-70.o(StubCode)
    StubCode                                 0x00013804   Section        8  QtCore{00040703}-712.o(StubCode)
    theImportedSymbol                        0x00013808   Data           0  QtCore{00040703}-712.o(StubCode)
    StubCode                                 0x0001380c   Section        8  QtCore{00040703}-73.o(StubCode)
    theImportedSymbol                        0x00013810   Data           0  QtCore{00040703}-73.o(StubCode)
    StubCode                                 0x00013814   Section        8  QtCore{00040703}-753.o(StubCode)
    theImportedSymbol                        0x00013818   Data           0  QtCore{00040703}-753.o(StubCode)
    StubCode                                 0x0001381c   Section        8  QtCore{00040703}-786.o(StubCode)
    theImportedSymbol                        0x00013820   Data           0  QtCore{00040703}-786.o(StubCode)
    StubCode                                 0x00013824   Section        8  QtCore{00040703}-834.o(StubCode)
    theImportedSymbol                        0x00013828   Data           0  QtCore{00040703}-834.o(StubCode)
    StubCode                                 0x0001382c   Section        8  QtCore{00040703}-835.o(StubCode)
    theImportedSymbol                        0x00013830   Data           0  QtCore{00040703}-835.o(StubCode)
    StubCode                                 0x00013834   Section        8  QtCore{00040703}-836.o(StubCode)
    theImportedSymbol                        0x00013838   Data           0  QtCore{00040703}-836.o(StubCode)
    StubCode                                 0x0001383c   Section        8  QtCore{00040703}-837.o(StubCode)
    theImportedSymbol                        0x00013840   Data           0  QtCore{00040703}-837.o(StubCode)
    StubCode                                 0x00013844   Section        8  QtCore{00040703}-839.o(StubCode)
    theImportedSymbol                        0x00013848   Data           0  QtCore{00040703}-839.o(StubCode)
    StubCode                                 0x0001384c   Section        8  QtCore{00040703}-852.o(StubCode)
    theImportedSymbol                        0x00013850   Data           0  QtCore{00040703}-852.o(StubCode)
    StubCode                                 0x00013854   Section        8  QtCore{00040703}-863.o(StubCode)
    theImportedSymbol                        0x00013858   Data           0  QtCore{00040703}-863.o(StubCode)
    StubCode                                 0x0001385c   Section        8  QtCore{00040703}-864.o(StubCode)
    theImportedSymbol                        0x00013860   Data           0  QtCore{00040703}-864.o(StubCode)
    StubCode                                 0x00013864   Section        8  QtCore{00040703}-869.o(StubCode)
    theImportedSymbol                        0x00013868   Data           0  QtCore{00040703}-869.o(StubCode)
    StubCode                                 0x0001386c   Section        8  QtCore{00040703}-875.o(StubCode)
    theImportedSymbol                        0x00013870   Data           0  QtCore{00040703}-875.o(StubCode)
    StubCode                                 0x00013874   Section        8  QtCore{00040703}-90.o(StubCode)
    theImportedSymbol                        0x00013878   Data           0  QtCore{00040703}-90.o(StubCode)
    StubCode                                 0x0001387c   Section        8  QtCore{00040703}-91.o(StubCode)
    theImportedSymbol                        0x00013880   Data           0  QtCore{00040703}-91.o(StubCode)
    StubCode                                 0x00013884   Section        8  QtCore{00040703}-95.o(StubCode)
    theImportedSymbol                        0x00013888   Data           0  QtCore{00040703}-95.o(StubCode)
    StubCode                                 0x0001388c   Section        8  QtCore{00040703}-96.o(StubCode)
    theImportedSymbol                        0x00013890   Data           0  QtCore{00040703}-96.o(StubCode)
    StubCode                                 0x00013894   Section        8  libc{00010000}-232.o(StubCode)
    theImportedSymbol                        0x00013898   Data           0  libc{00010000}-232.o(StubCode)
    StubCode                                 0x0001389c   Section        8  libc{00010000}-350.o(StubCode)
    theImportedSymbol                        0x000138a0   Data           0  libc{00010000}-350.o(StubCode)
    StubCode                                 0x000138a4   Section        8  euser{000a0000}-1033.o(StubCode)
    theImportedSymbol                        0x000138a8   Data           0  euser{000a0000}-1033.o(StubCode)
    StubCode                                 0x000138ac   Section        8  euser{000a0000}-1088.o(StubCode)
    theImportedSymbol                        0x000138b0   Data           0  euser{000a0000}-1088.o(StubCode)
    StubCode                                 0x000138b4   Section        8  euser{000a0000}-1089.o(StubCode)
    theImportedSymbol                        0x000138b8   Data           0  euser{000a0000}-1089.o(StubCode)
    StubCode                                 0x000138bc   Section        8  euser{000a0000}-1090.o(StubCode)
    theImportedSymbol                        0x000138c0   Data           0  euser{000a0000}-1090.o(StubCode)
    StubCode                                 0x000138c4   Section        8  euser{000a0000}-1091.o(StubCode)
    theImportedSymbol                        0x000138c8   Data           0  euser{000a0000}-1091.o(StubCode)
    StubCode                                 0x000138cc   Section        8  euser{000a0000}-1094.o(StubCode)
    theImportedSymbol                        0x000138d0   Data           0  euser{000a0000}-1094.o(StubCode)
    StubCode                                 0x000138d4   Section        8  euser{000a0000}-1116.o(StubCode)
    theImportedSymbol                        0x000138d8   Data           0  euser{000a0000}-1116.o(StubCode)
    StubCode                                 0x000138dc   Section        8  euser{000a0000}-1117.o(StubCode)
    theImportedSymbol                        0x000138e0   Data           0  euser{000a0000}-1117.o(StubCode)
    StubCode                                 0x000138e4   Section        8  euser{000a0000}-1169.o(StubCode)
    theImportedSymbol                        0x000138e8   Data           0  euser{000a0000}-1169.o(StubCode)
    StubCode                                 0x000138ec   Section        8  euser{000a0000}-120.o(StubCode)
    theImportedSymbol                        0x000138f0   Data           0  euser{000a0000}-120.o(StubCode)
    StubCode                                 0x000138f4   Section        8  euser{000a0000}-1285.o(StubCode)
    theImportedSymbol                        0x000138f8   Data           0  euser{000a0000}-1285.o(StubCode)
    StubCode                                 0x000138fc   Section        8  euser{000a0000}-1288.o(StubCode)
    theImportedSymbol                        0x00013900   Data           0  euser{000a0000}-1288.o(StubCode)
    StubCode                                 0x00013904   Section        8  euser{000a0000}-1290.o(StubCode)
    theImportedSymbol                        0x00013908   Data           0  euser{000a0000}-1290.o(StubCode)
    StubCode                                 0x0001390c   Section        8  euser{000a0000}-1294.o(StubCode)
    theImportedSymbol                        0x00013910   Data           0  euser{000a0000}-1294.o(StubCode)
    StubCode                                 0x00013914   Section        8  euser{000a0000}-1314.o(StubCode)
    theImportedSymbol                        0x00013918   Data           0  euser{000a0000}-1314.o(StubCode)
    StubCode                                 0x0001391c   Section        8  euser{000a0000}-1320.o(StubCode)
    theImportedSymbol                        0x00013920   Data           0  euser{000a0000}-1320.o(StubCode)
    StubCode                                 0x00013924   Section        8  euser{000a0000}-1324.o(StubCode)
    theImportedSymbol                        0x00013928   Data           0  euser{000a0000}-1324.o(StubCode)
    StubCode                                 0x0001392c   Section        8  euser{000a0000}-1326.o(StubCode)
    theImportedSymbol                        0x00013930   Data           0  euser{000a0000}-1326.o(StubCode)
    StubCode                                 0x00013934   Section        8  euser{000a0000}-1355.o(StubCode)
    theImportedSymbol                        0x00013938   Data           0  euser{000a0000}-1355.o(StubCode)
    StubCode                                 0x0001393c   Section        8  euser{000a0000}-1356.o(StubCode)
    theImportedSymbol                        0x00013940   Data           0  euser{000a0000}-1356.o(StubCode)
    StubCode                                 0x00013944   Section        8  euser{000a0000}-1387.o(StubCode)
    theImportedSymbol                        0x00013948   Data           0  euser{000a0000}-1387.o(StubCode)
    StubCode                                 0x0001394c   Section        8  euser{000a0000}-1388.o(StubCode)
    theImportedSymbol                        0x00013950   Data           0  euser{000a0000}-1388.o(StubCode)
    StubCode                                 0x00013954   Section        8  euser{000a0000}-1389.o(StubCode)
    theImportedSymbol                        0x00013958   Data           0  euser{000a0000}-1389.o(StubCode)
    StubCode                                 0x0001395c   Section        8  euser{000a0000}-1392.o(StubCode)
    theImportedSymbol                        0x00013960   Data           0  euser{000a0000}-1392.o(StubCode)
    StubCode                                 0x00013964   Section        8  euser{000a0000}-1393.o(StubCode)
    theImportedSymbol                        0x00013968   Data           0  euser{000a0000}-1393.o(StubCode)
    StubCode                                 0x0001396c   Section        8  euser{000a0000}-1396.o(StubCode)
    theImportedSymbol                        0x00013970   Data           0  euser{000a0000}-1396.o(StubCode)
    StubCode                                 0x00013974   Section        8  euser{000a0000}-1468.o(StubCode)
    theImportedSymbol                        0x00013978   Data           0  euser{000a0000}-1468.o(StubCode)
    StubCode                                 0x0001397c   Section        8  euser{000a0000}-1469.o(StubCode)
    theImportedSymbol                        0x00013980   Data           0  euser{000a0000}-1469.o(StubCode)
    StubCode                                 0x00013984   Section        8  euser{000a0000}-1526.o(StubCode)
    theImportedSymbol                        0x00013988   Data           0  euser{000a0000}-1526.o(StubCode)
    StubCode                                 0x0001398c   Section        8  euser{000a0000}-1528.o(StubCode)
    theImportedSymbol                        0x00013990   Data           0  euser{000a0000}-1528.o(StubCode)
    StubCode                                 0x00013994   Section        8  euser{000a0000}-1536.o(StubCode)
    theImportedSymbol                        0x00013998   Data           0  euser{000a0000}-1536.o(StubCode)
    StubCode                                 0x0001399c   Section        8  euser{000a0000}-1541.o(StubCode)
    theImportedSymbol                        0x000139a0   Data           0  euser{000a0000}-1541.o(StubCode)
    StubCode                                 0x000139a4   Section        8  euser{000a0000}-1544.o(StubCode)
    theImportedSymbol                        0x000139a8   Data           0  euser{000a0000}-1544.o(StubCode)
    StubCode                                 0x000139ac   Section        8  euser{000a0000}-1547.o(StubCode)
    theImportedSymbol                        0x000139b0   Data           0  euser{000a0000}-1547.o(StubCode)
    StubCode                                 0x000139b4   Section        8  euser{000a0000}-1548.o(StubCode)
    theImportedSymbol                        0x000139b8   Data           0  euser{000a0000}-1548.o(StubCode)
    StubCode                                 0x000139bc   Section        8  euser{000a0000}-159.o(StubCode)
    theImportedSymbol                        0x000139c0   Data           0  euser{000a0000}-159.o(StubCode)
    StubCode                                 0x000139c4   Section        8  euser{000a0000}-1719.o(StubCode)
    theImportedSymbol                        0x000139c8   Data           0  euser{000a0000}-1719.o(StubCode)
    StubCode                                 0x000139cc   Section        8  euser{000a0000}-1807.o(StubCode)
    theImportedSymbol                        0x000139d0   Data           0  euser{000a0000}-1807.o(StubCode)
    StubCode                                 0x000139d4   Section        8  euser{000a0000}-1842.o(StubCode)
    theImportedSymbol                        0x000139d8   Data           0  euser{000a0000}-1842.o(StubCode)
    StubCode                                 0x000139dc   Section        8  euser{000a0000}-1992.o(StubCode)
    theImportedSymbol                        0x000139e0   Data           0  euser{000a0000}-1992.o(StubCode)
    StubCode                                 0x000139e4   Section        8  euser{000a0000}-1995.o(StubCode)
    theImportedSymbol                        0x000139e8   Data           0  euser{000a0000}-1995.o(StubCode)
    StubCode                                 0x000139ec   Section        8  euser{000a0000}-1997.o(StubCode)
    theImportedSymbol                        0x000139f0   Data           0  euser{000a0000}-1997.o(StubCode)
    StubCode                                 0x000139f4   Section        8  euser{000a0000}-1999.o(StubCode)
    theImportedSymbol                        0x000139f8   Data           0  euser{000a0000}-1999.o(StubCode)
    StubCode                                 0x000139fc   Section        8  euser{000a0000}-2000.o(StubCode)
    theImportedSymbol                        0x00013a00   Data           0  euser{000a0000}-2000.o(StubCode)
    StubCode                                 0x00013a04   Section        8  euser{000a0000}-205.o(StubCode)
    theImportedSymbol                        0x00013a08   Data           0  euser{000a0000}-205.o(StubCode)
    StubCode                                 0x00013a0c   Section        8  euser{000a0000}-2060.o(StubCode)
    theImportedSymbol                        0x00013a10   Data           0  euser{000a0000}-2060.o(StubCode)
    StubCode                                 0x00013a14   Section        8  euser{000a0000}-2061.o(StubCode)
    theImportedSymbol                        0x00013a18   Data           0  euser{000a0000}-2061.o(StubCode)
    StubCode                                 0x00013a1c   Section        8  euser{000a0000}-208.o(StubCode)
    theImportedSymbol                        0x00013a20   Data           0  euser{000a0000}-208.o(StubCode)
    StubCode                                 0x00013a24   Section        8  euser{000a0000}-2082.o(StubCode)
    theImportedSymbol                        0x00013a28   Data           0  euser{000a0000}-2082.o(StubCode)
    StubCode                                 0x00013a2c   Section        8  euser{000a0000}-2120.o(StubCode)
    theImportedSymbol                        0x00013a30   Data           0  euser{000a0000}-2120.o(StubCode)
    StubCode                                 0x00013a34   Section        8  euser{000a0000}-2128.o(StubCode)
    theImportedSymbol                        0x00013a38   Data           0  euser{000a0000}-2128.o(StubCode)
    StubCode                                 0x00013a3c   Section        8  euser{000a0000}-2131.o(StubCode)
    theImportedSymbol                        0x00013a40   Data           0  euser{000a0000}-2131.o(StubCode)
    StubCode                                 0x00013a44   Section        8  euser{000a0000}-403.o(StubCode)
    theImportedSymbol                        0x00013a48   Data           0  euser{000a0000}-403.o(StubCode)
    StubCode                                 0x00013a4c   Section        8  euser{000a0000}-424.o(StubCode)
    theImportedSymbol                        0x00013a50   Data           0  euser{000a0000}-424.o(StubCode)
    StubCode                                 0x00013a54   Section        8  euser{000a0000}-604.o(StubCode)
    theImportedSymbol                        0x00013a58   Data           0  euser{000a0000}-604.o(StubCode)
    StubCode                                 0x00013a5c   Section        8  euser{000a0000}-637.o(StubCode)
    theImportedSymbol                        0x00013a60   Data           0  euser{000a0000}-637.o(StubCode)
    StubCode                                 0x00013a64   Section        8  euser{000a0000}-645.o(StubCode)
    theImportedSymbol                        0x00013a68   Data           0  euser{000a0000}-645.o(StubCode)
    StubCode                                 0x00013a6c   Section        8  euser{000a0000}-649.o(StubCode)
    theImportedSymbol                        0x00013a70   Data           0  euser{000a0000}-649.o(StubCode)
    StubCode                                 0x00013a74   Section        8  euser{000a0000}-652.o(StubCode)
    theImportedSymbol                        0x00013a78   Data           0  euser{000a0000}-652.o(StubCode)
    StubCode                                 0x00013a7c   Section        8  euser{000a0000}-654.o(StubCode)
    theImportedSymbol                        0x00013a80   Data           0  euser{000a0000}-654.o(StubCode)
    StubCode                                 0x00013a84   Section        8  euser{000a0000}-669.o(StubCode)
    theImportedSymbol                        0x00013a88   Data           0  euser{000a0000}-669.o(StubCode)
    StubCode                                 0x00013a8c   Section        8  euser{000a0000}-670.o(StubCode)
    theImportedSymbol                        0x00013a90   Data           0  euser{000a0000}-670.o(StubCode)
    StubCode                                 0x00013a94   Section        8  euser{000a0000}-671.o(StubCode)
    theImportedSymbol                        0x00013a98   Data           0  euser{000a0000}-671.o(StubCode)
    StubCode                                 0x00013a9c   Section        8  euser{000a0000}-81.o(StubCode)
    theImportedSymbol                        0x00013aa0   Data           0  euser{000a0000}-81.o(StubCode)
    StubCode                                 0x00013aa4   Section        8  euser{000a0000}-891.o(StubCode)
    theImportedSymbol                        0x00013aa8   Data           0  euser{000a0000}-891.o(StubCode)
    StubCode                                 0x00013aac   Section        8  euser{000a0000}-892.o(StubCode)
    theImportedSymbol                        0x00013ab0   Data           0  euser{000a0000}-892.o(StubCode)
    StubCode                                 0x00013ab4   Section        8  euser{000a0000}-953.o(StubCode)
    theImportedSymbol                        0x00013ab8   Data           0  euser{000a0000}-953.o(StubCode)
    StubCode                                 0x00013abc   Section        8  drtaeabi{000a0000}-144.o(StubCode)
    theImportedSymbol                        0x00013ac0   Data           0  drtaeabi{000a0000}-144.o(StubCode)
    StubCode                                 0x00013ac4   Section        8  drtaeabi{000a0000}-146.o(StubCode)
    theImportedSymbol                        0x00013ac8   Data           0  drtaeabi{000a0000}-146.o(StubCode)
    StubCode                                 0x00013acc   Section        8  drtaeabi{000a0000}-147.o(StubCode)
    theImportedSymbol                        0x00013ad0   Data           0  drtaeabi{000a0000}-147.o(StubCode)
    StubCode                                 0x00013ad4   Section        8  drtaeabi{000a0000}-155.o(StubCode)
    theImportedSymbol                        0x00013ad8   Data           0  drtaeabi{000a0000}-155.o(StubCode)
    StubCode                                 0x00013adc   Section        8  drtaeabi{000a0000}-158.o(StubCode)
    theImportedSymbol                        0x00013ae0   Data           0  drtaeabi{000a0000}-158.o(StubCode)
    StubCode                                 0x00013ae4   Section        8  drtaeabi{000a0000}-159.o(StubCode)
    theImportedSymbol                        0x00013ae8   Data           0  drtaeabi{000a0000}-159.o(StubCode)
    StubCode                                 0x00013aec   Section        8  drtaeabi{000a0000}-180.o(StubCode)
    theImportedSymbol                        0x00013af0   Data           0  drtaeabi{000a0000}-180.o(StubCode)
    StubCode                                 0x00013af4   Section        8  drtaeabi{000a0000}-182.o(StubCode)
    theImportedSymbol                        0x00013af8   Data           0  drtaeabi{000a0000}-182.o(StubCode)
    StubCode                                 0x00013afc   Section        8  drtaeabi{000a0000}-183.o(StubCode)
    theImportedSymbol                        0x00013b00   Data           0  drtaeabi{000a0000}-183.o(StubCode)
    StubCode                                 0x00013b04   Section        8  drtaeabi{000a0000}-184.o(StubCode)
    theImportedSymbol                        0x00013b08   Data           0  drtaeabi{000a0000}-184.o(StubCode)
    StubCode                                 0x00013b0c   Section        8  drtaeabi{000a0000}-186.o(StubCode)
    theImportedSymbol                        0x00013b10   Data           0  drtaeabi{000a0000}-186.o(StubCode)
    StubCode                                 0x00013b14   Section        8  drtaeabi{000a0000}-187.o(StubCode)
    theImportedSymbol                        0x00013b18   Data           0  drtaeabi{000a0000}-187.o(StubCode)
    StubCode                                 0x00013b1c   Section        8  drtaeabi{000a0000}-188.o(StubCode)
    theImportedSymbol                        0x00013b20   Data           0  drtaeabi{000a0000}-188.o(StubCode)
    StubCode                                 0x00013b24   Section        8  drtaeabi{000a0000}-189.o(StubCode)
    theImportedSymbol                        0x00013b28   Data           0  drtaeabi{000a0000}-189.o(StubCode)
    StubCode                                 0x00013b2c   Section        8  drtaeabi{000a0000}-190.o(StubCode)
    theImportedSymbol                        0x00013b30   Data           0  drtaeabi{000a0000}-190.o(StubCode)
    StubCode                                 0x00013b34   Section        8  drtrvct2_2{000a0000}-28.o(StubCode)
    theImportedSymbol                        0x00013b38   Data           0  drtrvct2_2{000a0000}-28.o(StubCode)
    i._Z23qStringComparisonHelperRK10QStringRefPKc 0x00013b3c   Section       60  QtServiceFramework.in(i._Z23qStringComparisonHelperRK10QStringRefPKc)
    i._Z23qStringComparisonHelperRK10QStringRefPKc.clean 0x00013b78   Section       10  QtServiceFramework.in(i._Z23qStringComparisonHelperRK10QStringRefPKc.clean)
    i._Z6qDebugv                             0x00013b82   Section       10  QtServiceFramework.in(i._Z6qDebugv)
    i._Z8qWarningv                           0x00013b8c   Section       10  QtServiceFramework.in(i._Z8qWarningv)
    i._ZN10QByteArrayC1ERKS_                 0x00013b96   Section       16  QtServiceFramework.in(i._ZN10QByteArrayC1ERKS_)
    i._ZN10QByteArrayC1Ev                    0x00013ba8   Section       20  QtServiceFramework.in(i._ZN10QByteArrayC1Ev)
    i._ZN10QByteArrayD1Ev                    0x00013bbc   Section       24  QtServiceFramework.in(i._ZN10QByteArrayD1Ev)
    i._ZN10QStringRefD1Ev                    0x00013bd4   Section        2  QtServiceFramework.in(i._ZN10QStringRefD1Ev)
    i._ZN10QtMobility21ObjectEndPointPrivate21triggerConnectedSlotsEP7QObjectPK11QMetaObjectiPPv 0x00013bd6   Section       76  QtServiceFramework.in(i._ZN10QtMobility21ObjectEndPointPrivate21triggerConnectedSlotsEP7QObjectPK11QMetaObjectiPPv)
    i._ZN10QtMobility21ObjectEndPointPrivate23setupSignalInterceptersEP7QObject 0x00013c24   Section      220  QtServiceFramework.in(i._ZN10QtMobility21ObjectEndPointPrivate23setupSignalInterceptersEP7QObject)
    i._ZN10QtMobility21ObjectEndPointPrivate23setupSignalInterceptersEP7QObject.clean 0x00013d00   Section       30  QtServiceFramework.in(i._ZN10QtMobility21ObjectEndPointPrivate23setupSignalInterceptersEP7QObject.clean)
    i._ZN10QtMobility21QServiceFilterPrivateC1Ev 0x00013d1e   Section       40  QtServiceFramework.in(i._ZN10QtMobility21QServiceFilterPrivateC1Ev)
    i._ZN10QtMobility21QServiceFilterPrivateC1Ev.clean 0x00013d46   Section       30  QtServiceFramework.in(i._ZN10QtMobility21QServiceFilterPrivateC1Ev.clean)
    i._ZN10QtMobility21QServicePluginCleanupD0Ev 0x00013d64   Section       16  QtServiceFramework.in(i._ZN10QtMobility21QServicePluginCleanupD0Ev)
    i._ZN10QtMobility21QServicePluginCleanupD1Ev 0x00013d74   Section       32  QtServiceFramework.in(i._ZN10QtMobility21QServicePluginCleanupD1Ev)
    i._ZN10QtMobility21QServicePluginCleanupD1Ev.clean 0x00013d94   Section       10  QtServiceFramework.in(i._ZN10QtMobility21QServicePluginCleanupD1Ev.clean)
    i._ZN10QtMobility21SymbianClientEndPoint12flushPackageERKNS_15QServicePackageE 0x00013d9e   Section       10  QtServiceFramework.in(i._ZN10QtMobility21SymbianClientEndPoint12flushPackageERKNS_15QServicePackageE)
    i._ZN10QtMobility21SymbianClientEndPointD0Ev 0x00013da8   Section       16  QtServiceFramework.in(i._ZN10QtMobility21SymbianClientEndPointD0Ev)
    i._ZN10QtMobility21SymbianClientEndPointD1Ev 0x00013db8   Section        8  QtServiceFramework.in(i._ZN10QtMobility21SymbianClientEndPointD1Ev)
    i._ZN10QtMobility21SymbianServerEndPoint12flushPackageERKNS_15QServicePackageE 0x00013dc0   Section      140  QtServiceFramework.in(i._ZN10QtMobility21SymbianServerEndPoint12flushPackageERKNS_15QServicePackageE)
    i._ZN10QtMobility21SymbianServerEndPoint12flushPackageERKNS_15QServicePackageE.clean 0x00013e4c   Section       16  QtServiceFramework.in(i._ZN10QtMobility21SymbianServerEndPoint12flushPackageERKNS_15QServicePackageE.clean)
    i._ZN10QtMobility21SymbianServerEndPointD0Ev 0x00013e5c   Section       16  QtServiceFramework.in(i._ZN10QtMobility21SymbianServerEndPointD0Ev)
    i._ZN10QtMobility21SymbianServerEndPointD1Ev 0x00013e6c   Section       28  QtServiceFramework.in(i._ZN10QtMobility21SymbianServerEndPointD1Ev)
    i._ZN10QtMobility21SymbianServerEndPointD1Ev.clean 0x00013e88   Section       10  QtServiceFramework.in(i._ZN10QtMobility21SymbianServerEndPointD1Ev.clean)
    i._ZN10QtMobility22CServiceProviderServerD0Ev 0x00013e92   Section       16  QtServiceFramework.in(i._ZN10QtMobility22CServiceProviderServerD0Ev)
    i._ZN10QtMobility22CServiceProviderServerD1Ev 0x00013ea2   Section        8  QtServiceFramework.in(i._ZN10QtMobility22CServiceProviderServerD1Ev)
    i._ZN10QtMobility22QServiceManagerPrivate8setErrorEv 0x00013eac   Section      128  QtServiceFramework.in(i._ZN10QtMobility22QServiceManagerPrivate8setErrorEv)
    i._ZN10QtMobility22QServiceManagerPrivateC1EPNS_15QServiceManagerE 0x00013f2c   Section      288  QtServiceFramework.in(i._ZN10QtMobility22QServiceManagerPrivateC1EPNS_15QServiceManagerE)
    i._ZN10QtMobility22QServiceManagerPrivateC1EPNS_15QServiceManagerE.clean 0x0001404c   Section       16  QtServiceFramework.in(i._ZN10QtMobility22QServiceManagerPrivateC1EPNS_15QServiceManagerE.clean)
    i._ZN10QtMobility22QServiceManagerPrivateD0Ev 0x0001405c   Section       16  QtServiceFramework.in(i._ZN10QtMobility22QServiceManagerPrivateD0Ev)
    i._ZN10QtMobility22QServiceManagerPrivateD1Ev 0x0001406c   Section       32  QtServiceFramework.in(i._ZN10QtMobility22QServiceManagerPrivateD1Ev)
    i._ZN10QtMobility22QServiceManagerPrivateD1Ev.clean 0x0001408c   Section       10  QtServiceFramework.in(i._ZN10QtMobility22QServiceManagerPrivateD1Ev.clean)
    i._ZN10QtMobility22QServicePackagePrivate5cleanEv 0x00014096   Section       96  QtServiceFramework.in(i._ZN10QtMobility22QServicePackagePrivate5cleanEv)
    i._ZN10QtMobility22QServicePackagePrivate5cleanEv.clean 0x000140f6   Section       18  QtServiceFramework.in(i._ZN10QtMobility22QServicePackagePrivate5cleanEv.clean)
    i._ZN10QtMobility22QServicePackagePrivateC1Ev 0x00014108   Section      116  QtServiceFramework.in(i._ZN10QtMobility22QServicePackagePrivateC1Ev)
    i._ZN10QtMobility22QServicePackagePrivateC1Ev.clean 0x0001417c   Section       36  QtServiceFramework.in(i._ZN10QtMobility22QServicePackagePrivateC1Ev.clean)
    i._ZN10QtMobility22QServicePackagePrivateD1Ev 0x000141a0   Section       32  QtServiceFramework.in(i._ZN10QtMobility22QServicePackagePrivateD1Ev)
    i._ZN10QtMobility22QServicePackagePrivateD1Ev.clean 0x000141c0   Section       12  QtServiceFramework.in(i._ZN10QtMobility22QServicePackagePrivateD1Ev.clean)
    i._ZN10QtMobility22ServiceIdentDescriptorC1ERKS0_ 0x000141cc   Section       68  QtServiceFramework.in(i._ZN10QtMobility22ServiceIdentDescriptorC1ERKS0_)
    i._ZN10QtMobility22ServiceIdentDescriptorC1ERKS0_.clean 0x00014210   Section       10  QtServiceFramework.in(i._ZN10QtMobility22ServiceIdentDescriptorC1ERKS0_.clean)
    i._ZN10QtMobility22ServiceIdentDescriptorC1Ev 0x0001421c   Section       40  QtServiceFramework.in(i._ZN10QtMobility22ServiceIdentDescriptorC1Ev)
    i._ZN10QtMobility22ServiceIdentDescriptorC1Ev.clean 0x00014244   Section       18  QtServiceFramework.in(i._ZN10QtMobility22ServiceIdentDescriptorC1Ev.clean)
    i._ZN10QtMobility22ServiceIdentDescriptorD1Ev 0x00014256   Section       18  QtServiceFramework.in(i._ZN10QtMobility22ServiceIdentDescriptorD1Ev)
    i._ZN10QtMobility22ServiceIdentDescriptorD1Ev.clean 0x00014268   Section       10  QtServiceFramework.in(i._ZN10QtMobility22ServiceIdentDescriptorD1Ev.clean)
    i._ZN10QtMobility22ServiceMetaDataResultsD1Ev 0x00014272   Section       56  QtServiceFramework.in(i._ZN10QtMobility22ServiceMetaDataResultsD1Ev)
    i._ZN10QtMobility22ServiceMetaDataResultsD1Ev.clean 0x000142aa   Section       46  QtServiceFramework.in(i._ZN10QtMobility22ServiceMetaDataResultsD1Ev.clean)
    i._ZN10QtMobility24ServiceContextClientDataD0Ev 0x000142d8   Section       16  QtServiceFramework.in(i._ZN10QtMobility24ServiceContextClientDataD0Ev)
    i._ZN10QtMobility24ServiceContextClientDataD1Ev 0x000142e8   Section       28  QtServiceFramework.in(i._ZN10QtMobility24ServiceContextClientDataD1Ev)
    i._ZN10QtMobility24ServiceContextClientDataD1Ev.clean 0x00014304   Section       10  QtServiceFramework.in(i._ZN10QtMobility24ServiceContextClientDataD1Ev.clean)
    i._ZN10QtMobility24ServiceSignalIntercepter9activatedERK5QListI8QVariantE 0x0001430e   Section       30  QtServiceFramework.in(i._ZN10QtMobility24ServiceSignalIntercepter9activatedERK5QListI8QVariantE)
    i._ZN10QtMobility24ServiceSignalIntercepterD0Ev 0x0001432c   Section       16  QtServiceFramework.in(i._ZN10QtMobility24ServiceSignalIntercepterD0Ev)
    i._ZN10QtMobility24ServiceSignalIntercepterD1Ev 0x0001433c   Section        8  QtServiceFramework.in(i._ZN10QtMobility24ServiceSignalIntercepterD1Ev)
    i._ZN10QtMobility34QRemoteServiceRegisterEntryPrivateD1Ev 0x00014344   Section       32  QtServiceFramework.in(i._ZN10QtMobility34QRemoteServiceRegisterEntryPrivateD1Ev)
    i._ZN10QtMobility34QRemoteServiceRegisterEntryPrivateD1Ev.clean 0x00014364   Section       22  QtServiceFramework.in(i._ZN10QtMobility34QRemoteServiceRegisterEntryPrivateD1Ev.clean)
    i._ZN10QtMobility34QServiceInterfaceDescriptorPrivateC1Ev 0x0001437a   Section       50  QtServiceFramework.in(i._ZN10QtMobility34QServiceInterfaceDescriptorPrivateC1Ev)
    i._ZN10QtMobility34QServiceInterfaceDescriptorPrivateC1Ev.clean 0x000143ac   Section       30  QtServiceFramework.in(i._ZN10QtMobility34QServiceInterfaceDescriptorPrivateC1Ev.clean)
    i._ZN10QtMobility34QServiceInterfaceDescriptorPrivateD1Ev 0x000143ca   Section       40  QtServiceFramework.in(i._ZN10QtMobility34QServiceInterfaceDescriptorPrivateD1Ev)
    i._ZN10QtMobility34QServiceInterfaceDescriptorPrivateD1Ev.clean 0x000143f2   Section       30  QtServiceFramework.in(i._ZN10QtMobility34QServiceInterfaceDescriptorPrivateD1Ev.clean)
    i._ZN10QtMobility7DBErrorD1Ev            0x00014410   Section        8  QtServiceFramework.in(i._ZN10QtMobility7DBErrorD1Ev)
    i._ZN11QDataStreamlsEt                   0x00014418   Section       12  QtServiceFramework.in(i._ZN11QDataStreamlsEt)
    i._ZN11QStringListD1Ev                   0x00014424   Section        8  QtServiceFramework.in(i._ZN11QStringListD1Ev)
    i._ZN12QMutexLockerC1EP6QMutex           0x0001442c   Section       28  QtServiceFramework.in(i._ZN12QMutexLockerC1EP6QMutex)
    i._ZN12QMutexLockerD1Ev                  0x00014448   Section       28  QtServiceFramework.in(i._ZN12QMutexLockerD1Ev)
    i._ZN15QBasicAtomicInt3refEv             0x00014464   Section       18  QtServiceFramework.in(i._ZN15QBasicAtomicInt3refEv)
    i._ZN15QBasicAtomicInt5derefEv           0x00014476   Section       18  QtServiceFramework.in(i._ZN15QBasicAtomicInt5derefEv)
    i._ZN17QForeachContainerI5QListI10QByteArrayEED1Ev 0x00014488   Section        8  QtServiceFramework.in(i._ZN17QForeachContainerI5QListI10QByteArrayEED1Ev)
    i._ZN17QForeachContainerI5QListIN10QtMobility22QRemoteServiceRegister5EntryEEED1Ev 0x00014490   Section        8  QtServiceFramework.in(i._ZN17QForeachContainerI5QListIN10QtMobility22QRemoteServiceRegister5EntryEEED1Ev)
    i._ZN20QXmlStreamAttributesD1Ev          0x00014498   Section        8  QtServiceFramework.in(i._ZN20QXmlStreamAttributesD1Ev)
    i._ZN23QMetaEnumBuilderPrivateC1ERKS_    0x000144a0   Section       62  QtServiceFramework.in(i._ZN23QMetaEnumBuilderPrivateC1ERKS_)
    i._ZN23QMetaEnumBuilderPrivateC1ERKS_.clean 0x000144de   Section       22  QtServiceFramework.in(i._ZN23QMetaEnumBuilderPrivateC1ERKS_.clean)
    i._ZN23QMetaEnumBuilderPrivateD1Ev       0x000144f4   Section       30  QtServiceFramework.in(i._ZN23QMetaEnumBuilderPrivateD1Ev)
    i._ZN23QMetaEnumBuilderPrivateD1Ev.clean 0x00014512   Section       22  QtServiceFramework.in(i._ZN23QMetaEnumBuilderPrivateD1Ev.clean)
    i._ZN25QMetaMethodBuilderPrivateC1EN11QMetaMethod10MethodTypeERK10QByteArrayS4_NS0_6AccessE 0x00014528   Section       92  QtServiceFramework.in(i._ZN25QMetaMethodBuilderPrivateC1EN11QMetaMethod10MethodTypeERK10QByteArrayS4_NS0_6AccessE)
    i._ZN25QMetaMethodBuilderPrivateC1EN11QMetaMethod10MethodTypeERK10QByteArrayS4_NS0_6AccessE.clean 0x00014584   Section       42  QtServiceFramework.in(i._ZN25QMetaMethodBuilderPrivateC1EN11QMetaMethod10MethodTypeERK10QByteArrayS4_NS0_6AccessE.clean)
    i._ZN25QMetaMethodBuilderPrivateC1ERKS_  0x000145ae   Section       56  QtServiceFramework.in(i._ZN25QMetaMethodBuilderPrivateC1ERKS_)
    i._ZN25QMetaMethodBuilderPrivateC1ERKS_.clean 0x000145e6   Section       30  QtServiceFramework.in(i._ZN25QMetaMethodBuilderPrivateC1ERKS_.clean)
    i._ZN25QMetaMethodBuilderPrivateD1Ev     0x00014604   Section       40  QtServiceFramework.in(i._ZN25QMetaMethodBuilderPrivateD1Ev)
    i._ZN25QMetaMethodBuilderPrivateD1Ev.clean 0x0001462c   Section       30  QtServiceFramework.in(i._ZN25QMetaMethodBuilderPrivateD1Ev.clean)
    i._ZN25QMetaObjectBuilderPrivateC1Ev     0x0001464c   Section      104  QtServiceFramework.in(i._ZN25QMetaObjectBuilderPrivateC1Ev)
    i._ZN25QMetaObjectBuilderPrivateC1Ev.clean 0x000146b4   Section       82  QtServiceFramework.in(i._ZN25QMetaObjectBuilderPrivateC1Ev.clean)
    i._ZN25QMetaObjectBuilderPrivateD1Ev     0x00014706   Section       90  QtServiceFramework.in(i._ZN25QMetaObjectBuilderPrivateD1Ev)
    i._ZN25QMetaObjectBuilderPrivateD1Ev.clean 0x00014760   Section       82  QtServiceFramework.in(i._ZN25QMetaObjectBuilderPrivateD1Ev.clean)
    i._ZN27QMetaPropertyBuilderPrivate7setFlagEib 0x000147b2   Section       18  QtServiceFramework.in(i._ZN27QMetaPropertyBuilderPrivate7setFlagEib)
    i._ZN27QMetaPropertyBuilderPrivateC1ERKS_ 0x000147c4   Section       30  QtServiceFramework.in(i._ZN27QMetaPropertyBuilderPrivateC1ERKS_)
    i._ZN27QMetaPropertyBuilderPrivateC1ERKS_.clean 0x000147e2   Section       10  QtServiceFramework.in(i._ZN27QMetaPropertyBuilderPrivateC1ERKS_.clean)
    i._ZN27QMetaPropertyBuilderPrivateD1Ev   0x000147ec   Section       18  QtServiceFramework.in(i._ZN27QMetaPropertyBuilderPrivateD1Ev)
    i._ZN27QMetaPropertyBuilderPrivateD1Ev.clean 0x000147fe   Section       10  QtServiceFramework.in(i._ZN27QMetaPropertyBuilderPrivateD1Ev.clean)
    i._ZN4QSetI7QStringED1Ev                 0x00014808   Section        8  QtServiceFramework.in(i._ZN4QSetI7QStringED1Ev)
    i._ZN5CBasenwEj                          0x00014810   Section        8  QtServiceFramework.in(i._ZN5CBasenwEj)
    i._ZN5QUuidC1ERKS_                       0x00014818   Section       30  QtServiceFramework.in(i._ZN5QUuidC1ERKS_)
    i._ZN5QUuidC1Ev                          0x00014836   Section       22  QtServiceFramework.in(i._ZN5QUuidC1Ev)
    i._ZN6QDebug10maybeSpaceEv               0x0001484c   Section       22  QtServiceFramework.in(i._ZN6QDebug10maybeSpaceEv)
    i._ZN6QDebug5spaceEv                     0x00014862   Section       22  QtServiceFramework.in(i._ZN6QDebug5spaceEv)
    i._ZN6QDebugC1E9QtMsgType                0x00014878   Section       62  QtServiceFramework.in(i._ZN6QDebugC1E9QtMsgType)
    i._ZN6QDebugC1E9QtMsgType.clean          0x000148b6   Section       18  QtServiceFramework.in(i._ZN6QDebugC1E9QtMsgType.clean)
    i._ZN6QDebugC1ERKS_                      0x000148c8   Section       12  QtServiceFramework.in(i._ZN6QDebugC1ERKS_)
    i._ZN6QDebugD1Ev                         0x000148d4   Section      122  QtServiceFramework.in(i._ZN6QDebugD1Ev)
    i._ZN6QDebugD1Ev.clean                   0x0001494e   Section       20  QtServiceFramework.in(i._ZN6QDebugD1Ev.clean)
    i._ZN6QDebuglsEPKc                       0x00014962   Section       36  QtServiceFramework.in(i._ZN6QDebuglsEPKc)
    i._ZN6QDebuglsEPKc.clean                 0x00014986   Section       10  QtServiceFramework.in(i._ZN6QDebuglsEPKc.clean)
    i._ZN6QDebuglsERK7QString                0x00014990   Section       34  QtServiceFramework.in(i._ZN6QDebuglsERK7QString)
    i._ZN7QString5clearEv                    0x000149b2   Section       34  QtServiceFramework.in(i._ZN7QString5clearEv)
    i._ZN7QString5clearEv.clean              0x000149d4   Section       10  QtServiceFramework.in(i._ZN7QString5clearEv.clean)
    i._ZN7QStringC1EPKc                      0x000149de   Section       20  QtServiceFramework.in(i._ZN7QStringC1EPKc)
    i._ZN7QStringC1ERKS_                     0x000149f2   Section       16  QtServiceFramework.in(i._ZN7QStringC1ERKS_)
    i._ZN7QStringC1Ev                        0x00014a04   Section       20  QtServiceFramework.in(i._ZN7QStringC1Ev)
    i._ZN7QStringD1Ev                        0x00014a18   Section       24  QtServiceFramework.in(i._ZN7QStringD1Ev)
    i._ZN7QStringaSEPKc                      0x00014a30   Section       34  QtServiceFramework.in(i._ZN7QStringaSEPKc)
    i._ZN7QStringaSEPKc.clean                0x00014a52   Section       10  QtServiceFramework.in(i._ZN7QStringaSEPKc.clean)
    i._ZN8QVariantC1Ev                       0x00014a5c   Section       24  QtServiceFramework.in(i._ZN8QVariantC1Ev)
    i._ZN8TIpcArgs3SetEiP5TDes8              0x00014a74   Section       20  QtServiceFramework.in(i._ZN8TIpcArgs3SetEiP5TDes8)
    i._ZN9QHashData8willGrowEv               0x00014a88   Section       28  QtServiceFramework.in(i._ZN9QHashData8willGrowEv)
    i._ZN9QHashData9firstNodeEv              0x00014aa4   Section       24  QtServiceFramework.in(i._ZN9QHashData9firstNodeEv)
    i._ZN9QHashData9hasShrunkEv              0x00014abc   Section       60  QtServiceFramework.in(i._ZN9QHashData9hasShrunkEv)
    i._ZNK12RSessionBase11SendReceiveEiRK8TIpcArgs 0x00014af8   Section        8  QtServiceFramework.in(i._ZNK12RSessionBase11SendReceiveEiRK8TIpcArgs)
    i._ZNK13QLatin1StringeqEPKc              0x00014b00   Section       34  QtServiceFramework.in(i._ZNK13QLatin1StringeqEPKc)
    i._ZNK13QLatin1StringeqEPKc.clean        0x00014b22   Section       10  QtServiceFramework.in(i._ZNK13QLatin1StringeqEPKc.clean)
    i._ZNK15QBasicAtomicInteqEi              0x00014b2c   Section       14  QtServiceFramework.in(i._ZNK15QBasicAtomicInteqEi)
    i._ZNK15QBasicAtomicIntneEi              0x00014b3a   Section       14  QtServiceFramework.in(i._ZNK15QBasicAtomicIntneEi)
    i._ZNK16QXmlStreamReader12isEndElementEv 0x00014b48   Section       18  QtServiceFramework.in(i._ZNK16QXmlStreamReader12isEndElementEv)
    i._ZNK16QXmlStreamReader14isStartElementEv 0x00014b5a   Section       18  QtServiceFramework.in(i._ZNK16QXmlStreamReader14isStartElementEv)
    i._ZNK20QXmlStreamAttributes12hasAttributeERK7QString 0x00014b6c   Section       40  QtServiceFramework.in(i._ZNK20QXmlStreamAttributes12hasAttributeERK7QString)
    i._ZNK20QXmlStreamAttributes12hasAttributeERK7QString.clean 0x00014b94   Section       10  QtServiceFramework.in(i._ZNK20QXmlStreamAttributes12hasAttributeERK7QString.clean)
    i._ZNK25QMetaMethodBuilderPrivate10methodTypeEv 0x00014b9e   Section        8  QtServiceFramework.in(i._ZNK25QMetaMethodBuilderPrivate10methodTypeEv)
    i._ZNK27QMetaPropertyBuilderPrivate4flagEi 0x00014ba6   Section       14  QtServiceFramework.in(i._ZNK27QMetaPropertyBuilderPrivate4flagEi)
    i._ZNK7QObject7connectEPKS_PKcS3_N2Qt14ConnectionTypeE 0x00014bb4   Section       20  QtServiceFramework.in(i._ZNK7QObject7connectEPKS_PKcS3_N2Qt14ConnectionTypeE)
    i._ZNK7QString3argEiiiRK5QChar           0x00014bc8   Section       30  QtServiceFramework.in(i._ZNK7QString3argEiiiRK5QChar)
    i._ZNK7QString6isNullEv                  0x00014be8   Section       20  QtServiceFramework.in(i._ZNK7QString6isNullEv)
    i._ZNK7QString7isEmptyEv                 0x00014bfc   Section       16  QtServiceFramework.in(i._ZNK7QString7isEmptyEv)
    i._ZNK9QListData2atEi                    0x00014c0c   Section       16  QtServiceFramework.in(i._ZNK9QListData2atEi)
    i._ZNK9QListData3endEv                   0x00014c1c   Section       12  QtServiceFramework.in(i._ZNK9QListData3endEv)
    i._ZNK9QListData4sizeEv                  0x00014c28   Section       10  QtServiceFramework.in(i._ZNK9QListData4sizeEv)
    i._ZNK9QListData5beginEv                 0x00014c32   Section       12  QtServiceFramework.in(i._ZNK9QListData5beginEv)
    i._ZNK9QListData7isEmptyEv               0x00014c3e   Section       18  QtServiceFramework.in(i._ZNK9QListData7isEmptyEv)
    i._ZdlPvS_                               0x00014c50   Section        2  QtServiceFramework.in(i._ZdlPvS_)
    i._ZeqRK10QByteArrayPKc                  0x00014c52   Section       38  QtServiceFramework.in(i._ZeqRK10QByteArrayPKc)
    i._ZeqRK10QByteArrayS1_                  0x00014c78   Section       34  QtServiceFramework.in(i._ZeqRK10QByteArrayS1_)
    i._ZeqRK10QStringRefPKc                  0x00014c9a   Section        8  QtServiceFramework.in(i._ZeqRK10QStringRefPKc)
    i._ZneRK10QStringRefPKc                  0x00014ca2   Section       12  QtServiceFramework.in(i._ZneRK10QStringRefPKc)
    i._ZnwjPv                                0x00014cae   Section        4  QtServiceFramework.in(i._ZnwjPv)
    i._ZplRK7QString5QChar                   0x00014cb2   Section      104  QtServiceFramework.in(i._ZplRK7QString5QChar)
    i._ZplRK7QString5QChar.clean             0x00014d1a   Section       10  QtServiceFramework.in(i._ZplRK7QString5QChar.clean)
    i._ZplRK7QStringS1_                      0x00014d24   Section       36  QtServiceFramework.in(i._ZplRK7QStringS1_)
    i._ZplRK7QStringS1_.clean                0x00014d48   Section       10  QtServiceFramework.in(i._ZplRK7QStringS1_.clean)
    t._Z12qobject_castIPN10QtMobility23QServicePluginInterfaceEET_P7QObject 0x00014d54   Section       28  QtServiceFramework.in(t._Z12qobject_castIPN10QtMobility23QServicePluginInterfaceEET_P7QObject)
    t._Z15qMapLessThanKeyI10QByteArrayEbRKT_S3_ 0x00014d70   Section       10  QtServiceFramework.in(t._Z15qMapLessThanKeyI10QByteArrayEbRKT_S3_)
    t._Z21qMetaTypeDeleteHelperIN10QtMobility8QService21UnrecoverableIPCErrorEEvPT_ 0x00014d7a   Section        8  QtServiceFramework.in(t._Z21qMetaTypeDeleteHelperIN10QtMobility8QService21UnrecoverableIPCErrorEEvPT_)
    t._Z24qMetaTypeConstructHelperIN10QtMobility8QService21UnrecoverableIPCErrorEEPvPKT_ 0x00014d82   Section       34  QtServiceFramework.in(t._Z24qMetaTypeConstructHelperIN10QtMobility8QService21UnrecoverableIPCErrorEEPvPKT_)
    t._ZN12TAlignedBuf8ILi4EEC1Ei            0x00014da4   Section       10  QtServiceFramework.in(t._ZN12TAlignedBuf8ILi4EEC1Ei)
    t._ZN14QHashDummyNodeI7QString15QHashDummyValueEC1ERKS0_ 0x00014dae   Section       12  QtServiceFramework.in(t._ZN14QHashDummyNodeI7QString15QHashDummyValueEC1ERKS0_)
    t._ZN15QVarLengthArrayIPvLi32EED1Ev      0x00014dba   Section       22  QtServiceFramework.in(t._ZN15QVarLengthArrayIPvLi32EED1Ev)
    t._ZN20QGlobalStaticDeleterI5QHashI5QUuidPN10QtMobility8ResponseEEED1Ev 0x00014dd0   Section       36  QtServiceFramework.in(t._ZN20QGlobalStaticDeleterI5QHashI5QUuidPN10QtMobility8ResponseEEED1Ev)
    t._ZN20QGlobalStaticDeleterIN10QtMobility15InstanceManagerEED1Ev 0x00014df4   Section       34  QtServiceFramework.in(t._ZN20QGlobalStaticDeleterIN10QtMobility15InstanceManagerEED1Ev)
    t._ZN28QExplicitlySharedDataPointerIN10QtMobility22QServicePackagePrivateEE5cloneEv 0x00014e18   Section       96  QtServiceFramework.in(t._ZN28QExplicitlySharedDataPointerIN10QtMobility22QServicePackagePrivateEE5cloneEv)
    t._ZN28QExplicitlySharedDataPointerIN10QtMobility22QServicePackagePrivateEE5cloneEv.clean 0x00014e78   Section       20  QtServiceFramework.in(t._ZN28QExplicitlySharedDataPointerIN10QtMobility22QServicePackagePrivateEE5cloneEv.clean)
    t._ZN28QExplicitlySharedDataPointerIN10QtMobility22QServicePackagePrivateEED1Ev 0x00014e8c   Section       38  QtServiceFramework.in(t._ZN28QExplicitlySharedDataPointerIN10QtMobility22QServicePackagePrivateEED1Ev)
    t._ZN28QExplicitlySharedDataPointerIN10QtMobility22QServicePackagePrivateEEaSEPS1_ 0x00014eb2   Section       54  QtServiceFramework.in(t._ZN28QExplicitlySharedDataPointerIN10QtMobility22QServicePackagePrivateEEaSEPS1_)
    t._ZN28QExplicitlySharedDataPointerIN10QtMobility34QRemoteServiceRegisterEntryPrivateEED1Ev 0x00014ee8   Section       36  QtServiceFramework.in(t._ZN28QExplicitlySharedDataPointerIN10QtMobility34QRemoteServiceRegisterEntryPrivateEED1Ev)
    t._ZN28QExplicitlySharedDataPointerIN10QtMobility34QRemoteServiceRegisterEntryPrivateEEaSERKS2_ 0x00014f0c   Section       56  QtServiceFramework.in(t._ZN28QExplicitlySharedDataPointerIN10QtMobility34QRemoteServiceRegisterEntryPrivateEEaSERKS2_)
    t._ZN4QMapI10QByteArrayPK11QMetaObjectED1Ev 0x00014f44   Section       52  QtServiceFramework.in(t._ZN4QMapI10QByteArrayPK11QMetaObjectED1Ev)
    t._ZN4QSetI7QStringEC1Ev                 0x00014f78   Section        8  QtServiceFramework.in(t._ZN4QSetI7QStringEC1Ev)
    t._ZN5QHashI5QUuidP7QObjectE11deleteNode2EPN9QHashData4NodeE 0x00014f80   Section        2  QtServiceFramework.in(t._ZN5QHashI5QUuidP7QObjectE11deleteNode2EPN9QHashData4NodeE)
    t._ZN5QHashI5QUuidP7QObjectE13detach_helperEv 0x00014f84   Section       56  QtServiceFramework.in(t._ZN5QHashI5QUuidP7QObjectE13detach_helperEv)
    t._ZN5QHashI5QUuidP7QObjectE13duplicateNodeEPN9QHashData4NodeEPv 0x00014fbc   Section       32  QtServiceFramework.in(t._ZN5QHashI5QUuidP7QObjectE13duplicateNodeEPN9QHashData4NodeEPv)
    t._ZN5QHashI5QUuidP7QObjectE13duplicateNodeEPN9QHashData4NodeEPv.clean 0x00014fdc   Section       12  QtServiceFramework.in(t._ZN5QHashI5QUuidP7QObjectE13duplicateNodeEPN9QHashData4NodeEPv.clean)
    t._ZN5QHashI5QUuidP7QObjectE4takeERKS0_  0x00014fe8   Section       72  QtServiceFramework.in(t._ZN5QHashI5QUuidP7QObjectE4takeERKS0_)
    t._ZN5QHashI5QUuidP7QObjectE6detachEv    0x00015030   Section       26  QtServiceFramework.in(t._ZN5QHashI5QUuidP7QObjectE6detachEv)
    t._ZN5QHashI5QUuidP7QObjectE6insertERKS0_RKS2_ 0x0001504a   Section      118  QtServiceFramework.in(t._ZN5QHashI5QUuidP7QObjectE6insertERKS0_RKS2_)
    t._ZN5QHashI5QUuidP7QObjectE6insertERKS0_RKS2_.clean 0x000150c0   Section       12  QtServiceFramework.in(t._ZN5QHashI5QUuidP7QObjectE6insertERKS0_RKS2_.clean)
    t._ZN5QHashI5QUuidP7QObjectE8freeDataEP9QHashData 0x000150cc   Section       16  QtServiceFramework.in(t._ZN5QHashI5QUuidP7QObjectE8freeDataEP9QHashData)
    t._ZN5QHashI5QUuidP7QObjectED1Ev         0x000150dc   Section       28  QtServiceFramework.in(t._ZN5QHashI5QUuidP7QObjectED1Ev)
    t._ZN5QHashI5QUuidPN10QtMobility8ResponseEE11deleteNode2EPN9QHashData4NodeE 0x000150f8   Section        2  QtServiceFramework.in(t._ZN5QHashI5QUuidPN10QtMobility8ResponseEE11deleteNode2EPN9QHashData4NodeE)
    t._ZN5QHashI5QUuidPN10QtMobility8ResponseEE13duplicateNodeEPN9QHashData4NodeEPv 0x000150fa   Section       32  QtServiceFramework.in(t._ZN5QHashI5QUuidPN10QtMobility8ResponseEE13duplicateNodeEPN9QHashData4NodeEPv)
    t._ZN5QHashI5QUuidPN10QtMobility8ResponseEE13duplicateNodeEPN9QHashData4NodeEPv.clean 0x0001511a   Section       12  QtServiceFramework.in(t._ZN5QHashI5QUuidPN10QtMobility8ResponseEE13duplicateNodeEPN9QHashData4NodeEPv.clean)
    t._ZN5QHashI5QUuidPN10QtMobility8ResponseEE4takeERKS0_ 0x00015126   Section      130  QtServiceFramework.in(t._ZN5QHashI5QUuidPN10QtMobility8ResponseEE4takeERKS0_)
    t._ZN5QHashI5QUuidPN10QtMobility8ResponseEE6detachEv 0x000151a8   Section       68  QtServiceFramework.in(t._ZN5QHashI5QUuidPN10QtMobility8ResponseEE6detachEv)
    t._ZN5QHashI5QUuidPN10QtMobility8ResponseEE6insertERKS0_RKS3_ 0x000151ec   Section      128  QtServiceFramework.in(t._ZN5QHashI5QUuidPN10QtMobility8ResponseEE6insertERKS0_RKS3_)
    t._ZN5QHashI5QUuidPN10QtMobility8ResponseEE6insertERKS0_RKS3_.clean 0x0001526c   Section       12  QtServiceFramework.in(t._ZN5QHashI5QUuidPN10QtMobility8ResponseEE6insertERKS0_RKS3_.clean)
    t._ZN5QHashI5QUuidPN10QtMobility8ResponseEE8freeDataEP9QHashData 0x00015278   Section       16  QtServiceFramework.in(t._ZN5QHashI5QUuidPN10QtMobility8ResponseEE8freeDataEP9QHashData)
    t._ZN5QHashI5QUuidPN10QtMobility8ResponseEED1Ev 0x00015288   Section       28  QtServiceFramework.in(t._ZN5QHashI5QUuidPN10QtMobility8ResponseEED1Ev)
    t._ZN5QHashI7QString15QHashDummyValueE11deleteNode2EPN9QHashData4NodeE 0x000152a4   Section       10  QtServiceFramework.in(t._ZN5QHashI7QString15QHashDummyValueE11deleteNode2EPN9QHashData4NodeE)
    t._ZN5QHashI7QString15QHashDummyValueE13detach_helperEv 0x000152b0   Section       56  QtServiceFramework.in(t._ZN5QHashI7QString15QHashDummyValueE13detach_helperEv)
    t._ZN5QHashI7QString15QHashDummyValueE13duplicateNodeEPN9QHashData4NodeEPv 0x000152e8   Section       28  QtServiceFramework.in(t._ZN5QHashI7QString15QHashDummyValueE13duplicateNodeEPN9QHashData4NodeEPv)
    t._ZN5QHashI7QString15QHashDummyValueE13duplicateNodeEPN9QHashData4NodeEPv.clean 0x00015304   Section       12  QtServiceFramework.in(t._ZN5QHashI7QString15QHashDummyValueE13duplicateNodeEPN9QHashData4NodeEPv.clean)
    t._ZN5QHashI7QString15QHashDummyValueE6insertERKS0_RKS1_ 0x00015310   Section      126  QtServiceFramework.in(t._ZN5QHashI7QString15QHashDummyValueE6insertERKS0_RKS1_)
    t._ZN5QHashI7QString15QHashDummyValueE6insertERKS0_RKS1_.clean 0x0001538e   Section       12  QtServiceFramework.in(t._ZN5QHashI7QString15QHashDummyValueE6insertERKS0_RKS1_.clean)
    t._ZN5QHashI7QString15QHashDummyValueE8freeDataEP9QHashData 0x0001539c   Section       16  QtServiceFramework.in(t._ZN5QHashI7QString15QHashDummyValueE8freeDataEP9QHashData)
    t._ZN5QHashI7QString15QHashDummyValueEC1Ev 0x000153ac   Section       24  QtServiceFramework.in(t._ZN5QHashI7QString15QHashDummyValueEC1Ev)
    t._ZN5QHashI7QString15QHashDummyValueED1Ev 0x000153c4   Section       28  QtServiceFramework.in(t._ZN5QHashI7QString15QHashDummyValueED1Ev)
    t._ZN5QHashI7QString8QVariantE11deleteNode2EPN9QHashData4NodeE 0x000153e0   Section       18  QtServiceFramework.in(t._ZN5QHashI7QString8QVariantE11deleteNode2EPN9QHashData4NodeE)
    t._ZN5QHashI7QString8QVariantE11deleteNode2EPN9QHashData4NodeE.clean 0x000153f2   Section       12  QtServiceFramework.in(t._ZN5QHashI7QString8QVariantE11deleteNode2EPN9QHashData4NodeE.clean)
    t._ZN5QHashI7QString8QVariantE13detach_helperEv 0x00015400   Section       56  QtServiceFramework.in(t._ZN5QHashI7QString8QVariantE13detach_helperEv)
    t._ZN5QHashI7QString8QVariantE13duplicateNodeEPN9QHashData4NodeEPv 0x00015438   Section       32  QtServiceFramework.in(t._ZN5QHashI7QString8QVariantE13duplicateNodeEPN9QHashData4NodeEPv)
    t._ZN5QHashI7QString8QVariantE13duplicateNodeEPN9QHashData4NodeEPv.clean 0x00015458   Section       12  QtServiceFramework.in(t._ZN5QHashI7QString8QVariantE13duplicateNodeEPN9QHashData4NodeEPv.clean)
    t._ZN5QHashI7QString8QVariantE8freeDataEP9QHashData 0x00015464   Section       16  QtServiceFramework.in(t._ZN5QHashI7QString8QVariantE8freeDataEP9QHashData)
    t._ZN5QHashI7QString8QVariantEC1Ev       0x00015474   Section       24  QtServiceFramework.in(t._ZN5QHashI7QString8QVariantEC1Ev)
    t._ZN5QHashI7QString8QVariantED1Ev       0x0001548c   Section       28  QtServiceFramework.in(t._ZN5QHashI7QString8QVariantED1Ev)
    t._ZN5QHashI7QString8QVariantEixERKS0_   0x000154a8   Section      154  QtServiceFramework.in(t._ZN5QHashI7QString8QVariantEixERKS0_)
    t._ZN5QHashI7QString8QVariantEixERKS0_.clean 0x00015542   Section       20  QtServiceFramework.in(t._ZN5QHashI7QString8QVariantEixERKS0_.clean)
    t._ZN5QHashI7QStringS0_E10createNodeEjRKS0_S3_PP9QHashNodeIS0_S0_E 0x00015556   Section       66  QtServiceFramework.in(t._ZN5QHashI7QStringS0_E10createNodeEjRKS0_S3_PP9QHashNodeIS0_S0_E)
    t._ZN5QHashI7QStringS0_E10createNodeEjRKS0_S3_PP9QHashNodeIS0_S0_E.clean 0x00015598   Section       12  QtServiceFramework.in(t._ZN5QHashI7QStringS0_E10createNodeEjRKS0_S3_PP9QHashNodeIS0_S0_E.clean)
    t._ZN5QHashI7QStringS0_E11deleteNode2EPN9QHashData4NodeE 0x000155a4   Section       18  QtServiceFramework.in(t._ZN5QHashI7QStringS0_E11deleteNode2EPN9QHashData4NodeE)
    t._ZN5QHashI7QStringS0_E11deleteNode2EPN9QHashData4NodeE.clean 0x000155b6   Section       12  QtServiceFramework.in(t._ZN5QHashI7QStringS0_E11deleteNode2EPN9QHashData4NodeE.clean)
    t._ZN5QHashI7QStringS0_E13detach_helperEv 0x000155c4   Section       56  QtServiceFramework.in(t._ZN5QHashI7QStringS0_E13detach_helperEv)
    t._ZN5QHashI7QStringS0_E13duplicateNodeEPN9QHashData4NodeEPv 0x000155fc   Section       30  QtServiceFramework.in(t._ZN5QHashI7QStringS0_E13duplicateNodeEPN9QHashData4NodeEPv)
    t._ZN5QHashI7QStringS0_E13duplicateNodeEPN9QHashData4NodeEPv.clean 0x0001561a   Section       12  QtServiceFramework.in(t._ZN5QHashI7QStringS0_E13duplicateNodeEPN9QHashData4NodeEPv.clean)
    t._ZN5QHashI7QStringS0_E5clearEv         0x00015626   Section       26  QtServiceFramework.in(t._ZN5QHashI7QStringS0_E5clearEv)
    t._ZN5QHashI7QStringS0_E5clearEv.clean   0x00015640   Section       10  QtServiceFramework.in(t._ZN5QHashI7QStringS0_E5clearEv.clean)
    t._ZN5QHashI7QStringS0_E6detachEv        0x0001564a   Section       26  QtServiceFramework.in(t._ZN5QHashI7QStringS0_E6detachEv)
    t._ZN5QHashI7QStringS0_E6removeERKS0_    0x00015664   Section      184  QtServiceFramework.in(t._ZN5QHashI7QStringS0_E6removeERKS0_)
    t._ZN5QHashI7QStringS0_E8freeDataEP9QHashData 0x0001571c   Section       16  QtServiceFramework.in(t._ZN5QHashI7QStringS0_E8freeDataEP9QHashData)
    t._ZN5QHashI7QStringS0_EC1Ev             0x0001572c   Section       24  QtServiceFramework.in(t._ZN5QHashI7QStringS0_EC1Ev)
    t._ZN5QHashI7QStringS0_ED1Ev             0x00015744   Section       28  QtServiceFramework.in(t._ZN5QHashI7QStringS0_ED1Ev)
    t._ZN5QHashI7QStringS0_EaSERKS1_         0x00015760   Section       58  QtServiceFramework.in(t._ZN5QHashI7QStringS0_EaSERKS1_)
    t._ZN5QHashI7QStringS0_EixERKS0_         0x0001579c   Section      192  QtServiceFramework.in(t._ZN5QHashI7QStringS0_EixERKS0_)
    t._ZN5QHashI7QStringS0_EixERKS0_.clean   0x0001585c   Section       20  QtServiceFramework.in(t._ZN5QHashI7QStringS0_EixERKS0_.clean)
    t._ZN5QHashI7QStringiE11deleteNode2EPN9QHashData4NodeE 0x00015870   Section       10  QtServiceFramework.in(t._ZN5QHashI7QStringiE11deleteNode2EPN9QHashData4NodeE)
    t._ZN5QHashI7QStringiE13detach_helperEv  0x0001587c   Section       56  QtServiceFramework.in(t._ZN5QHashI7QStringiE13detach_helperEv)
    t._ZN5QHashI7QStringiE13duplicateNodeEPN9QHashData4NodeEPv 0x000158b4   Section       30  QtServiceFramework.in(t._ZN5QHashI7QStringiE13duplicateNodeEPN9QHashData4NodeEPv)
    t._ZN5QHashI7QStringiE13duplicateNodeEPN9QHashData4NodeEPv.clean 0x000158d2   Section       12  QtServiceFramework.in(t._ZN5QHashI7QStringiE13duplicateNodeEPN9QHashData4NodeEPv.clean)
    t._ZN5QHashI7QStringiE8freeDataEP9QHashData 0x000158e0   Section       16  QtServiceFramework.in(t._ZN5QHashI7QStringiE8freeDataEP9QHashData)
    t._ZN5QHashI7QStringiEC1Ev               0x000158f0   Section       24  QtServiceFramework.in(t._ZN5QHashI7QStringiEC1Ev)
    t._ZN5QHashI7QStringiED1Ev               0x00015908   Section       28  QtServiceFramework.in(t._ZN5QHashI7QStringiED1Ev)
    t._ZN5QHashI7QStringiEixERKS0_           0x00015924   Section      130  QtServiceFramework.in(t._ZN5QHashI7QStringiEixERKS0_)
    t._ZN5QHashI7QStringiEixERKS0_.clean     0x000159a6   Section       12  QtServiceFramework.in(t._ZN5QHashI7QStringiEixERKS0_.clean)
    t._ZN5QHashIN10QtMobility22QRemoteServiceRegister5EntryENS0_22ServiceIdentDescriptorEE10createNodeEjRKS2_RKS3_PP9QHashNodeIS2_S3_E 0x000159b2   Section       66  QtServiceFramework.in(t._ZN5QHashIN10QtMobility22QRemoteServiceRegister5EntryENS0_22ServiceIdentDescriptorEE10createNodeEjRKS2_RKS3_PP9QHashNodeIS2_S3_E)
    t._ZN5QHashIN10QtMobility22QRemoteServiceRegister5EntryENS0_22ServiceIdentDescriptorEE10createNodeEjRKS2_RKS3_PP9QHashNodeIS2_S3_E.clean 0x000159f4   Section       12  QtServiceFramework.in(t._ZN5QHashIN10QtMobility22QRemoteServiceRegister5EntryENS0_22ServiceIdentDescriptorEE10createNodeEjRKS2_RKS3_PP9QHashNodeIS2_S3_E.clean)
    t._ZN5QHashIN10QtMobility22QRemoteServiceRegister5EntryENS0_22ServiceIdentDescriptorEE11deleteNode2EPN9QHashData4NodeE 0x00015a00   Section       18  QtServiceFramework.in(t._ZN5QHashIN10QtMobility22QRemoteServiceRegister5EntryENS0_22ServiceIdentDescriptorEE11deleteNode2EPN9QHashData4NodeE)
    t._ZN5QHashIN10QtMobility22QRemoteServiceRegister5EntryENS0_22ServiceIdentDescriptorEE11deleteNode2EPN9QHashData4NodeE.clean 0x00015a12   Section       12  QtServiceFramework.in(t._ZN5QHashIN10QtMobility22QRemoteServiceRegister5EntryENS0_22ServiceIdentDescriptorEE11deleteNode2EPN9QHashData4NodeE.clean)
    t._ZN5QHashIN10QtMobility22QRemoteServiceRegister5EntryENS0_22ServiceIdentDescriptorEE13duplicateNodeEPN9QHashData4NodeEPv 0x00015a1e   Section       30  QtServiceFramework.in(t._ZN5QHashIN10QtMobility22QRemoteServiceRegister5EntryENS0_22ServiceIdentDescriptorEE13duplicateNodeEPN9QHashData4NodeEPv)
    t._ZN5QHashIN10QtMobility22QRemoteServiceRegister5EntryENS0_22ServiceIdentDescriptorEE13duplicateNodeEPN9QHashData4NodeEPv.clean 0x00015a3c   Section       12  QtServiceFramework.in(t._ZN5QHashIN10QtMobility22QRemoteServiceRegister5EntryENS0_22ServiceIdentDescriptorEE13duplicateNodeEPN9QHashData4NodeEPv.clean)
    t._ZN5QHashIN10QtMobility22QRemoteServiceRegister5EntryENS0_22ServiceIdentDescriptorEE4takeERKS2_ 0x00015a48   Section      114  QtServiceFramework.in(t._ZN5QHashIN10QtMobility22QRemoteServiceRegister5EntryENS0_22ServiceIdentDescriptorEE4takeERKS2_)
    t._ZN5QHashIN10QtMobility22QRemoteServiceRegister5EntryENS0_22ServiceIdentDescriptorEE4takeERKS2_.clean 0x00015aba   Section       10  QtServiceFramework.in(t._ZN5QHashIN10QtMobility22QRemoteServiceRegister5EntryENS0_22ServiceIdentDescriptorEE4takeERKS2_.clean)
    t._ZN5QHashIN10QtMobility22QRemoteServiceRegister5EntryENS0_22ServiceIdentDescriptorEE6detachEv 0x00015ac4   Section       68  QtServiceFramework.in(t._ZN5QHashIN10QtMobility22QRemoteServiceRegister5EntryENS0_22ServiceIdentDescriptorEE6detachEv)
    t._ZN5QHashIN10QtMobility22QRemoteServiceRegister5EntryENS0_22ServiceIdentDescriptorEE6insertERKS2_RKS3_ 0x00015b08   Section      158  QtServiceFramework.in(t._ZN5QHashIN10QtMobility22QRemoteServiceRegister5EntryENS0_22ServiceIdentDescriptorEE6insertERKS2_RKS3_)
    t._ZN5QHashIN10QtMobility22QRemoteServiceRegister5EntryENS0_22ServiceIdentDescriptorEE8freeDataEP9QHashData 0x00015ba8   Section       16  QtServiceFramework.in(t._ZN5QHashIN10QtMobility22QRemoteServiceRegister5EntryENS0_22ServiceIdentDescriptorEE8freeDataEP9QHashData)
    t._ZN5QHashIN10QtMobility22QRemoteServiceRegister5EntryENS0_22ServiceIdentDescriptorEED1Ev 0x00015bb8   Section       28  QtServiceFramework.in(t._ZN5QHashIN10QtMobility22QRemoteServiceRegister5EntryENS0_22ServiceIdentDescriptorEED1Ev)
    t._ZN5QHashIN10QtMobility22QRemoteServiceRegister5EntryENS0_22ServiceIdentDescriptorEEixERKS2_ 0x00015bd4   Section       94  QtServiceFramework.in(t._ZN5QHashIN10QtMobility22QRemoteServiceRegister5EntryENS0_22ServiceIdentDescriptorEEixERKS2_)
    t._ZN5QHashIN10QtMobility22QRemoteServiceRegister5EntryENS0_22ServiceIdentDescriptorEEixERKS2_.clean 0x00015c32   Section       10  QtServiceFramework.in(t._ZN5QHashIN10QtMobility22QRemoteServiceRegister5EntryENS0_22ServiceIdentDescriptorEEixERKS2_.clean)
    t._ZN5QHashIN10QtMobility27QServiceInterfaceDescriptor9AttributeE8QVariantE11deleteNode2EPN9QHashData4NodeE 0x00015c3c   Section       10  QtServiceFramework.in(t._ZN5QHashIN10QtMobility27QServiceInterfaceDescriptor9AttributeE8QVariantE11deleteNode2EPN9QHashData4NodeE)
    t._ZN5QHashIN10QtMobility27QServiceInterfaceDescriptor9AttributeE8QVariantE13detach_helperEv 0x00015c48   Section       56  QtServiceFramework.in(t._ZN5QHashIN10QtMobility27QServiceInterfaceDescriptor9AttributeE8QVariantE13detach_helperEv)
    t._ZN5QHashIN10QtMobility27QServiceInterfaceDescriptor9AttributeE8QVariantE13duplicateNodeEPN9QHashData4NodeEPv 0x00015c80   Section       32  QtServiceFramework.in(t._ZN5QHashIN10QtMobility27QServiceInterfaceDescriptor9AttributeE8QVariantE13duplicateNodeEPN9QHashData4NodeEPv)
    t._ZN5QHashIN10QtMobility27QServiceInterfaceDescriptor9AttributeE8QVariantE13duplicateNodeEPN9QHashData4NodeEPv.clean 0x00015ca0   Section       12  QtServiceFramework.in(t._ZN5QHashIN10QtMobility27QServiceInterfaceDescriptor9AttributeE8QVariantE13duplicateNodeEPN9QHashData4NodeEPv.clean)
    t._ZN5QHashIN10QtMobility27QServiceInterfaceDescriptor9AttributeE8QVariantE5clearEv 0x00015cac   Section       26  QtServiceFramework.in(t._ZN5QHashIN10QtMobility27QServiceInterfaceDescriptor9AttributeE8QVariantE5clearEv)
    t._ZN5QHashIN10QtMobility27QServiceInterfaceDescriptor9AttributeE8QVariantE5clearEv.clean 0x00015cc6   Section       10  QtServiceFramework.in(t._ZN5QHashIN10QtMobility27QServiceInterfaceDescriptor9AttributeE8QVariantE5clearEv.clean)
    t._ZN5QHashIN10QtMobility27QServiceInterfaceDescriptor9AttributeE8QVariantE8freeDataEP9QHashData 0x00015cd0   Section       16  QtServiceFramework.in(t._ZN5QHashIN10QtMobility27QServiceInterfaceDescriptor9AttributeE8QVariantE8freeDataEP9QHashData)
    t._ZN5QHashIN10QtMobility27QServiceInterfaceDescriptor9AttributeE8QVariantEC1Ev 0x00015ce0   Section       24  QtServiceFramework.in(t._ZN5QHashIN10QtMobility27QServiceInterfaceDescriptor9AttributeE8QVariantEC1Ev)
    t._ZN5QHashIN10QtMobility27QServiceInterfaceDescriptor9AttributeE8QVariantED1Ev 0x00015cf8   Section       28  QtServiceFramework.in(t._ZN5QHashIN10QtMobility27QServiceInterfaceDescriptor9AttributeE8QVariantED1Ev)
    t._ZN5QHashIN10QtMobility27QServiceInterfaceDescriptor9AttributeE8QVariantEaSERKS4_ 0x00015d14   Section       58  QtServiceFramework.in(t._ZN5QHashIN10QtMobility27QServiceInterfaceDescriptor9AttributeE8QVariantEaSERKS4_)
    t._ZN5QHashIN10QtMobility27QServiceInterfaceDescriptor9AttributeE8QVariantEixERKS2_ 0x00015d50   Section      216  QtServiceFramework.in(t._ZN5QHashIN10QtMobility27QServiceInterfaceDescriptor9AttributeE8QVariantEixERKS2_)
    t._ZN5QHashIN10QtMobility27QServiceInterfaceDescriptor9AttributeE8QVariantEixERKS2_.clean 0x00015e28   Section       20  QtServiceFramework.in(t._ZN5QHashIN10QtMobility27QServiceInterfaceDescriptor9AttributeE8QVariantEixERKS2_.clean)
    t._ZN5QListI10QByteArrayE13detach_helperEi 0x00015e3c   Section       86  QtServiceFramework.in(t._ZN5QListI10QByteArrayE13detach_helperEi)
    t._ZN5QListI10QByteArrayE13detach_helperEi.clean 0x00015e92   Section        8  QtServiceFramework.in(t._ZN5QListI10QByteArrayE13detach_helperEi.clean)
    t._ZN5QListI10QByteArrayE13detach_helperEv 0x00015e9a   Section       12  QtServiceFramework.in(t._ZN5QListI10QByteArrayE13detach_helperEv)
    t._ZN5QListI10QByteArrayE14node_constructEPNS1_4NodeERKS0_ 0x00015ea6   Section       26  QtServiceFramework.in(t._ZN5QListI10QByteArrayE14node_constructEPNS1_4NodeERKS0_)
    t._ZN5QListI10QByteArrayE14node_constructEPNS1_4NodeERKS0_.clean 0x00015ec0   Section       12  QtServiceFramework.in(t._ZN5QListI10QByteArrayE14node_constructEPNS1_4NodeERKS0_.clean)
    t._ZN5QListI10QByteArrayE18detach_helper_growEii 0x00015ecc   Section      186  QtServiceFramework.in(t._ZN5QListI10QByteArrayE18detach_helper_growEii)
    t._ZN5QListI10QByteArrayE18detach_helper_growEii.clean 0x00015f86   Section        8  QtServiceFramework.in(t._ZN5QListI10QByteArrayE18detach_helper_growEii.clean)
    t._ZN5QListI10QByteArrayE4freeEPN9QListData4DataE 0x00015f8e   Section       54  QtServiceFramework.in(t._ZN5QListI10QByteArrayE4freeEPN9QListData4DataE)
    t._ZN5QListI10QByteArrayE5clearEv        0x00015fc4   Section       26  QtServiceFramework.in(t._ZN5QListI10QByteArrayE5clearEv)
    t._ZN5QListI10QByteArrayE5clearEv.clean  0x00015fde   Section       10  QtServiceFramework.in(t._ZN5QListI10QByteArrayE5clearEv.clean)
    t._ZN5QListI10QByteArrayE6appendERKS0_   0x00015fe8   Section      100  QtServiceFramework.in(t._ZN5QListI10QByteArrayE6appendERKS0_)
    t._ZN5QListI10QByteArrayE6appendERKS0_.clean 0x0001604c   Section        8  QtServiceFramework.in(t._ZN5QListI10QByteArrayE6appendERKS0_.clean)
    t._ZN5QListI10QByteArrayE6detachEv       0x00016054   Section       24  QtServiceFramework.in(t._ZN5QListI10QByteArrayE6detachEv)
    t._ZN5QListI10QByteArrayE8removeAtEi     0x0001606c   Section       46  QtServiceFramework.in(t._ZN5QListI10QByteArrayE8removeAtEi)
    t._ZN5QListI10QByteArrayE9node_copyEPNS1_4NodeES3_S3_ 0x0001609a   Section       70  QtServiceFramework.in(t._ZN5QListI10QByteArrayE9node_copyEPNS1_4NodeES3_S3_)
    t._ZN5QListI10QByteArrayE9node_copyEPNS1_4NodeES3_S3_.clean 0x000160e0   Section       22  QtServiceFramework.in(t._ZN5QListI10QByteArrayE9node_copyEPNS1_4NodeES3_S3_.clean)
    t._ZN5QListI10QByteArrayEC1ERKS1_        0x000160f6   Section       30  QtServiceFramework.in(t._ZN5QListI10QByteArrayEC1ERKS1_)
    t._ZN5QListI10QByteArrayEC1Ev            0x00016114   Section       20  QtServiceFramework.in(t._ZN5QListI10QByteArrayEC1Ev)
    t._ZN5QListI10QByteArrayED1Ev            0x00016128   Section       30  QtServiceFramework.in(t._ZN5QListI10QByteArrayED1Ev)
    t._ZN5QListI10QByteArrayEaSERKS1_        0x00016146   Section       54  QtServiceFramework.in(t._ZN5QListI10QByteArrayEaSERKS1_)
    t._ZN5QListI10QByteArrayEixEi            0x0001617c   Section       20  QtServiceFramework.in(t._ZN5QListI10QByteArrayEixEi)
    t._ZN5QListI23QMetaEnumBuilderPrivateE13detach_helperEv 0x00016190   Section       88  QtServiceFramework.in(t._ZN5QListI23QMetaEnumBuilderPrivateE13detach_helperEv)
    t._ZN5QListI23QMetaEnumBuilderPrivateE13detach_helperEv.clean 0x000161e8   Section        8  QtServiceFramework.in(t._ZN5QListI23QMetaEnumBuilderPrivateE13detach_helperEv.clean)
    t._ZN5QListI23QMetaEnumBuilderPrivateE13node_destructEPNS1_4NodeE 0x000161f0   Section       18  QtServiceFramework.in(t._ZN5QListI23QMetaEnumBuilderPrivateE13node_destructEPNS1_4NodeE)
    t._ZN5QListI23QMetaEnumBuilderPrivateE13node_destructEPNS1_4NodeES3_ 0x00016202   Section       30  QtServiceFramework.in(t._ZN5QListI23QMetaEnumBuilderPrivateE13node_destructEPNS1_4NodeES3_)
    t._ZN5QListI23QMetaEnumBuilderPrivateE14node_constructEPNS1_4NodeERKS0_ 0x00016220   Section       32  QtServiceFramework.in(t._ZN5QListI23QMetaEnumBuilderPrivateE14node_constructEPNS1_4NodeERKS0_)
    t._ZN5QListI23QMetaEnumBuilderPrivateE14node_constructEPNS1_4NodeERKS0_.clean 0x00016240   Section       10  QtServiceFramework.in(t._ZN5QListI23QMetaEnumBuilderPrivateE14node_constructEPNS1_4NodeERKS0_.clean)
    t._ZN5QListI23QMetaEnumBuilderPrivateE18detach_helper_growEii 0x0001624a   Section      180  QtServiceFramework.in(t._ZN5QListI23QMetaEnumBuilderPrivateE18detach_helper_growEii)
    t._ZN5QListI23QMetaEnumBuilderPrivateE18detach_helper_growEii.clean 0x000162fe   Section        8  QtServiceFramework.in(t._ZN5QListI23QMetaEnumBuilderPrivateE18detach_helper_growEii.clean)
    t._ZN5QListI23QMetaEnumBuilderPrivateE4freeEPN9QListData4DataE 0x00016306   Section       44  QtServiceFramework.in(t._ZN5QListI23QMetaEnumBuilderPrivateE4freeEPN9QListData4DataE)
    t._ZN5QListI23QMetaEnumBuilderPrivateE6appendERKS0_ 0x00016334   Section       96  QtServiceFramework.in(t._ZN5QListI23QMetaEnumBuilderPrivateE6appendERKS0_)
    t._ZN5QListI23QMetaEnumBuilderPrivateE6appendERKS0_.clean 0x00016394   Section        8  QtServiceFramework.in(t._ZN5QListI23QMetaEnumBuilderPrivateE6appendERKS0_.clean)
    t._ZN5QListI23QMetaEnumBuilderPrivateE6detachEv 0x0001639c   Section       24  QtServiceFramework.in(t._ZN5QListI23QMetaEnumBuilderPrivateE6detachEv)
    t._ZN5QListI23QMetaEnumBuilderPrivateE9node_copyEPNS1_4NodeES3_S3_ 0x000163b4   Section       80  QtServiceFramework.in(t._ZN5QListI23QMetaEnumBuilderPrivateE9node_copyEPNS1_4NodeES3_S3_)
    t._ZN5QListI23QMetaEnumBuilderPrivateE9node_copyEPNS1_4NodeES3_S3_.clean 0x00016404   Section       18  QtServiceFramework.in(t._ZN5QListI23QMetaEnumBuilderPrivateE9node_copyEPNS1_4NodeES3_S3_.clean)
    t._ZN5QListI23QMetaEnumBuilderPrivateEC1Ev 0x00016418   Section       20  QtServiceFramework.in(t._ZN5QListI23QMetaEnumBuilderPrivateEC1Ev)
    t._ZN5QListI23QMetaEnumBuilderPrivateED1Ev 0x0001642c   Section       30  QtServiceFramework.in(t._ZN5QListI23QMetaEnumBuilderPrivateED1Ev)
    t._ZN5QListI23QMetaEnumBuilderPrivateEixEi 0x0001644a   Section       22  QtServiceFramework.in(t._ZN5QListI23QMetaEnumBuilderPrivateEixEi)
    t._ZN5QListI25QMetaMethodBuilderPrivateE13detach_helperEv 0x00016460   Section       88  QtServiceFramework.in(t._ZN5QListI25QMetaMethodBuilderPrivateE13detach_helperEv)
    t._ZN5QListI25QMetaMethodBuilderPrivateE13detach_helperEv.clean 0x000164b8   Section        8  QtServiceFramework.in(t._ZN5QListI25QMetaMethodBuilderPrivateE13detach_helperEv.clean)
    t._ZN5QListI25QMetaMethodBuilderPrivateE13node_destructEPNS1_4NodeE 0x000164c0   Section       18  QtServiceFramework.in(t._ZN5QListI25QMetaMethodBuilderPrivateE13node_destructEPNS1_4NodeE)
    t._ZN5QListI25QMetaMethodBuilderPrivateE13node_destructEPNS1_4NodeES3_ 0x000164d2   Section       30  QtServiceFramework.in(t._ZN5QListI25QMetaMethodBuilderPrivateE13node_destructEPNS1_4NodeES3_)
    t._ZN5QListI25QMetaMethodBuilderPrivateE14node_constructEPNS1_4NodeERKS0_ 0x000164f0   Section       32  QtServiceFramework.in(t._ZN5QListI25QMetaMethodBuilderPrivateE14node_constructEPNS1_4NodeERKS0_)
    t._ZN5QListI25QMetaMethodBuilderPrivateE14node_constructEPNS1_4NodeERKS0_.clean 0x00016510   Section       10  QtServiceFramework.in(t._ZN5QListI25QMetaMethodBuilderPrivateE14node_constructEPNS1_4NodeERKS0_.clean)
    t._ZN5QListI25QMetaMethodBuilderPrivateE18detach_helper_growEii 0x0001651a   Section      180  QtServiceFramework.in(t._ZN5QListI25QMetaMethodBuilderPrivateE18detach_helper_growEii)
    t._ZN5QListI25QMetaMethodBuilderPrivateE18detach_helper_growEii.clean 0x000165ce   Section        8  QtServiceFramework.in(t._ZN5QListI25QMetaMethodBuilderPrivateE18detach_helper_growEii.clean)
    t._ZN5QListI25QMetaMethodBuilderPrivateE4freeEPN9QListData4DataE 0x000165d6   Section       44  QtServiceFramework.in(t._ZN5QListI25QMetaMethodBuilderPrivateE4freeEPN9QListData4DataE)
    t._ZN5QListI25QMetaMethodBuilderPrivateE5clearEv 0x00016602   Section       64  QtServiceFramework.in(t._ZN5QListI25QMetaMethodBuilderPrivateE5clearEv)
    t._ZN5QListI25QMetaMethodBuilderPrivateE5clearEv.clean 0x00016642   Section       10  QtServiceFramework.in(t._ZN5QListI25QMetaMethodBuilderPrivateE5clearEv.clean)
    t._ZN5QListI25QMetaMethodBuilderPrivateE6appendERKS0_ 0x0001664c   Section       96  QtServiceFramework.in(t._ZN5QListI25QMetaMethodBuilderPrivateE6appendERKS0_)
    t._ZN5QListI25QMetaMethodBuilderPrivateE6appendERKS0_.clean 0x000166ac   Section        8  QtServiceFramework.in(t._ZN5QListI25QMetaMethodBuilderPrivateE6appendERKS0_.clean)
    t._ZN5QListI25QMetaMethodBuilderPrivateE6detachEv 0x000166b4   Section       24  QtServiceFramework.in(t._ZN5QListI25QMetaMethodBuilderPrivateE6detachEv)
    t._ZN5QListI25QMetaMethodBuilderPrivateE8removeAtEi 0x000166cc   Section       50  QtServiceFramework.in(t._ZN5QListI25QMetaMethodBuilderPrivateE8removeAtEi)
    t._ZN5QListI25QMetaMethodBuilderPrivateE9node_copyEPNS1_4NodeES3_S3_ 0x000166fe   Section       80  QtServiceFramework.in(t._ZN5QListI25QMetaMethodBuilderPrivateE9node_copyEPNS1_4NodeES3_S3_)
    t._ZN5QListI25QMetaMethodBuilderPrivateE9node_copyEPNS1_4NodeES3_S3_.clean 0x0001674e   Section       18  QtServiceFramework.in(t._ZN5QListI25QMetaMethodBuilderPrivateE9node_copyEPNS1_4NodeES3_S3_.clean)
    t._ZN5QListI25QMetaMethodBuilderPrivateEC1Ev 0x00016760   Section       20  QtServiceFramework.in(t._ZN5QListI25QMetaMethodBuilderPrivateEC1Ev)
    t._ZN5QListI25QMetaMethodBuilderPrivateED1Ev 0x00016774   Section       30  QtServiceFramework.in(t._ZN5QListI25QMetaMethodBuilderPrivateED1Ev)
    t._ZN5QListI25QMetaMethodBuilderPrivateEixEi 0x00016792   Section       22  QtServiceFramework.in(t._ZN5QListI25QMetaMethodBuilderPrivateEixEi)
    t._ZN5QListI27QMetaPropertyBuilderPrivateE13detach_helperEv 0x000167a8   Section       88  QtServiceFramework.in(t._ZN5QListI27QMetaPropertyBuilderPrivateE13detach_helperEv)
    t._ZN5QListI27QMetaPropertyBuilderPrivateE13detach_helperEv.clean 0x00016800   Section        8  QtServiceFramework.in(t._ZN5QListI27QMetaPropertyBuilderPrivateE13detach_helperEv.clean)
    t._ZN5QListI27QMetaPropertyBuilderPrivateE13node_destructEPNS1_4NodeE 0x00016808   Section       18  QtServiceFramework.in(t._ZN5QListI27QMetaPropertyBuilderPrivateE13node_destructEPNS1_4NodeE)
    t._ZN5QListI27QMetaPropertyBuilderPrivateE13node_destructEPNS1_4NodeES3_ 0x0001681a   Section       30  QtServiceFramework.in(t._ZN5QListI27QMetaPropertyBuilderPrivateE13node_destructEPNS1_4NodeES3_)
    t._ZN5QListI27QMetaPropertyBuilderPrivateE14node_constructEPNS1_4NodeERKS0_ 0x00016838   Section       32  QtServiceFramework.in(t._ZN5QListI27QMetaPropertyBuilderPrivateE14node_constructEPNS1_4NodeERKS0_)
    t._ZN5QListI27QMetaPropertyBuilderPrivateE14node_constructEPNS1_4NodeERKS0_.clean 0x00016858   Section       10  QtServiceFramework.in(t._ZN5QListI27QMetaPropertyBuilderPrivateE14node_constructEPNS1_4NodeERKS0_.clean)
    t._ZN5QListI27QMetaPropertyBuilderPrivateE18detach_helper_growEii 0x00016862   Section      180  QtServiceFramework.in(t._ZN5QListI27QMetaPropertyBuilderPrivateE18detach_helper_growEii)
    t._ZN5QListI27QMetaPropertyBuilderPrivateE18detach_helper_growEii.clean 0x00016916   Section        8  QtServiceFramework.in(t._ZN5QListI27QMetaPropertyBuilderPrivateE18detach_helper_growEii.clean)
    t._ZN5QListI27QMetaPropertyBuilderPrivateE4freeEPN9QListData4DataE 0x0001691e   Section       44  QtServiceFramework.in(t._ZN5QListI27QMetaPropertyBuilderPrivateE4freeEPN9QListData4DataE)
    t._ZN5QListI27QMetaPropertyBuilderPrivateE6appendERKS0_ 0x0001694c   Section       96  QtServiceFramework.in(t._ZN5QListI27QMetaPropertyBuilderPrivateE6appendERKS0_)
    t._ZN5QListI27QMetaPropertyBuilderPrivateE6appendERKS0_.clean 0x000169ac   Section        8  QtServiceFramework.in(t._ZN5QListI27QMetaPropertyBuilderPrivateE6appendERKS0_.clean)
    t._ZN5QListI27QMetaPropertyBuilderPrivateE6detachEv 0x000169b4   Section       24  QtServiceFramework.in(t._ZN5QListI27QMetaPropertyBuilderPrivateE6detachEv)
    t._ZN5QListI27QMetaPropertyBuilderPrivateE9node_copyEPNS1_4NodeES3_S3_ 0x000169cc   Section       80  QtServiceFramework.in(t._ZN5QListI27QMetaPropertyBuilderPrivateE9node_copyEPNS1_4NodeES3_S3_)
    t._ZN5QListI27QMetaPropertyBuilderPrivateE9node_copyEPNS1_4NodeES3_S3_.clean 0x00016a1c   Section       18  QtServiceFramework.in(t._ZN5QListI27QMetaPropertyBuilderPrivateE9node_copyEPNS1_4NodeES3_S3_.clean)
    t._ZN5QListI27QMetaPropertyBuilderPrivateEC1Ev 0x00016a30   Section       20  QtServiceFramework.in(t._ZN5QListI27QMetaPropertyBuilderPrivateEC1Ev)
    t._ZN5QListI27QMetaPropertyBuilderPrivateED1Ev 0x00016a44   Section       30  QtServiceFramework.in(t._ZN5QListI27QMetaPropertyBuilderPrivateED1Ev)
    t._ZN5QListI27QMetaPropertyBuilderPrivateEixEi 0x00016a62   Section       22  QtServiceFramework.in(t._ZN5QListI27QMetaPropertyBuilderPrivateEixEi)
    t._ZN5QListI5QUuidE13detach_helperEi     0x00016a78   Section       86  QtServiceFramework.in(t._ZN5QListI5QUuidE13detach_helperEi)
    t._ZN5QListI5QUuidE13detach_helperEi.clean 0x00016ace   Section        8  QtServiceFramework.in(t._ZN5QListI5QUuidE13detach_helperEi.clean)
    t._ZN5QListI5QUuidE13node_destructEPNS1_4NodeES3_ 0x00016ad6   Section       22  QtServiceFramework.in(t._ZN5QListI5QUuidE13node_destructEPNS1_4NodeES3_)
    t._ZN5QListI5QUuidE14node_constructEPNS1_4NodeERKS0_ 0x00016aec   Section       32  QtServiceFramework.in(t._ZN5QListI5QUuidE14node_constructEPNS1_4NodeERKS0_)
    t._ZN5QListI5QUuidE14node_constructEPNS1_4NodeERKS0_.clean 0x00016b0c   Section       10  QtServiceFramework.in(t._ZN5QListI5QUuidE14node_constructEPNS1_4NodeERKS0_.clean)
    t._ZN5QListI5QUuidE18detach_helper_growEii 0x00016b16   Section      180  QtServiceFramework.in(t._ZN5QListI5QUuidE18detach_helper_growEii)
    t._ZN5QListI5QUuidE18detach_helper_growEii.clean 0x00016bca   Section        8  QtServiceFramework.in(t._ZN5QListI5QUuidE18detach_helper_growEii.clean)
    t._ZN5QListI5QUuidE4freeEPN9QListData4DataE 0x00016bd2   Section       38  QtServiceFramework.in(t._ZN5QListI5QUuidE4freeEPN9QListData4DataE)
    t._ZN5QListI5QUuidE5beginEv              0x00016bf8   Section       38  QtServiceFramework.in(t._ZN5QListI5QUuidE5beginEv)
    t._ZN5QListI5QUuidE6appendERKS0_         0x00016c20   Section       96  QtServiceFramework.in(t._ZN5QListI5QUuidE6appendERKS0_)
    t._ZN5QListI5QUuidE6appendERKS0_.clean   0x00016c80   Section        8  QtServiceFramework.in(t._ZN5QListI5QUuidE6appendERKS0_.clean)
    t._ZN5QListI5QUuidE9node_copyEPNS1_4NodeES3_S3_ 0x00016c88   Section       72  QtServiceFramework.in(t._ZN5QListI5QUuidE9node_copyEPNS1_4NodeES3_S3_)
    t._ZN5QListI5QUuidE9node_copyEPNS1_4NodeES3_S3_.clean 0x00016cd0   Section       18  QtServiceFramework.in(t._ZN5QListI5QUuidE9node_copyEPNS1_4NodeES3_S3_.clean)
    t._ZN5QListI5QUuidED1Ev                  0x00016ce2   Section       30  QtServiceFramework.in(t._ZN5QListI5QUuidED1Ev)
    t._ZN5QListI7QStringE13detach_helperEi   0x00016d00   Section       86  QtServiceFramework.in(t._ZN5QListI7QStringE13detach_helperEi)
    t._ZN5QListI7QStringE13detach_helperEi.clean 0x00016d56   Section        8  QtServiceFramework.in(t._ZN5QListI7QStringE13detach_helperEi.clean)
    t._ZN5QListI7QStringE13detach_helperEv   0x00016d5e   Section       12  QtServiceFramework.in(t._ZN5QListI7QStringE13detach_helperEv)
    t._ZN5QListI7QStringE14node_constructEPNS1_4NodeERKS0_ 0x00016d6a   Section       26  QtServiceFramework.in(t._ZN5QListI7QStringE14node_constructEPNS1_4NodeERKS0_)
    t._ZN5QListI7QStringE14node_constructEPNS1_4NodeERKS0_.clean 0x00016d84   Section       12  QtServiceFramework.in(t._ZN5QListI7QStringE14node_constructEPNS1_4NodeERKS0_.clean)
    t._ZN5QListI7QStringE18detach_helper_growEii 0x00016d90   Section      186  QtServiceFramework.in(t._ZN5QListI7QStringE18detach_helper_growEii)
    t._ZN5QListI7QStringE18detach_helper_growEii.clean 0x00016e4a   Section        8  QtServiceFramework.in(t._ZN5QListI7QStringE18detach_helper_growEii.clean)
    t._ZN5QListI7QStringE4freeEPN9QListData4DataE 0x00016e52   Section       48  QtServiceFramework.in(t._ZN5QListI7QStringE4freeEPN9QListData4DataE)
    t._ZN5QListI7QStringE5clearEv            0x00016e82   Section       66  QtServiceFramework.in(t._ZN5QListI7QStringE5clearEv)
    t._ZN5QListI7QStringE5clearEv.clean      0x00016ec4   Section       10  QtServiceFramework.in(t._ZN5QListI7QStringE5clearEv.clean)
    t._ZN5QListI7QStringE6appendERKS0_       0x00016ed0   Section      100  QtServiceFramework.in(t._ZN5QListI7QStringE6appendERKS0_)
    t._ZN5QListI7QStringE6appendERKS0_.clean 0x00016f34   Section        8  QtServiceFramework.in(t._ZN5QListI7QStringE6appendERKS0_.clean)
    t._ZN5QListI7QStringE7reserveEi          0x00016f3c   Section       44  QtServiceFramework.in(t._ZN5QListI7QStringE7reserveEi)
    t._ZN5QListI7QStringE9node_copyEPNS1_4NodeES3_S3_ 0x00016f68   Section       70  QtServiceFramework.in(t._ZN5QListI7QStringE9node_copyEPNS1_4NodeES3_S3_)
    t._ZN5QListI7QStringE9node_copyEPNS1_4NodeES3_S3_.clean 0x00016fae   Section       22  QtServiceFramework.in(t._ZN5QListI7QStringE9node_copyEPNS1_4NodeES3_S3_.clean)
    t._ZN5QListI7QStringEC1ERKS1_            0x00016fc4   Section       30  QtServiceFramework.in(t._ZN5QListI7QStringEC1ERKS1_)
    t._ZN5QListI7QStringEC1Ev                0x00016fe4   Section       20  QtServiceFramework.in(t._ZN5QListI7QStringEC1Ev)
    t._ZN5QListI7QStringED1Ev                0x00016ff8   Section       30  QtServiceFramework.in(t._ZN5QListI7QStringED1Ev)
    t._ZN5QListI7QStringEaSERKS1_            0x00017016   Section       54  QtServiceFramework.in(t._ZN5QListI7QStringEaSERKS1_)
    t._ZN5QListI7QStringEixEi                0x0001704c   Section       34  QtServiceFramework.in(t._ZN5QListI7QStringEixEi)
    t._ZN5QListI8QVariantE13detach_helperEi  0x0001706e   Section       86  QtServiceFramework.in(t._ZN5QListI8QVariantE13detach_helperEi)
    t._ZN5QListI8QVariantE13detach_helperEi.clean 0x000170c4   Section        8  QtServiceFramework.in(t._ZN5QListI8QVariantE13detach_helperEi.clean)
    t._ZN5QListI8QVariantE13detach_helperEv  0x000170cc   Section       12  QtServiceFramework.in(t._ZN5QListI8QVariantE13detach_helperEv)
    t._ZN5QListI8QVariantE13node_destructEPNS1_4NodeES3_ 0x000170d8   Section       30  QtServiceFramework.in(t._ZN5QListI8QVariantE13node_destructEPNS1_4NodeES3_)
    t._ZN5QListI8QVariantE14node_constructEPNS1_4NodeERKS0_ 0x000170f6   Section       32  QtServiceFramework.in(t._ZN5QListI8QVariantE14node_constructEPNS1_4NodeERKS0_)
    t._ZN5QListI8QVariantE14node_constructEPNS1_4NodeERKS0_.clean 0x00017116   Section       10  QtServiceFramework.in(t._ZN5QListI8QVariantE14node_constructEPNS1_4NodeERKS0_.clean)
    t._ZN5QListI8QVariantE18detach_helper_growEii 0x00017120   Section      180  QtServiceFramework.in(t._ZN5QListI8QVariantE18detach_helper_growEii)
    t._ZN5QListI8QVariantE18detach_helper_growEii.clean 0x000171d4   Section        8  QtServiceFramework.in(t._ZN5QListI8QVariantE18detach_helper_growEii.clean)
    t._ZN5QListI8QVariantE4freeEPN9QListData4DataE 0x000171dc   Section       38  QtServiceFramework.in(t._ZN5QListI8QVariantE4freeEPN9QListData4DataE)
    t._ZN5QListI8QVariantE6appendERKS0_      0x00017204   Section       96  QtServiceFramework.in(t._ZN5QListI8QVariantE6appendERKS0_)
    t._ZN5QListI8QVariantE6appendERKS0_.clean 0x00017264   Section        8  QtServiceFramework.in(t._ZN5QListI8QVariantE6appendERKS0_.clean)
    t._ZN5QListI8QVariantE9node_copyEPNS1_4NodeES3_S3_ 0x0001726c   Section       80  QtServiceFramework.in(t._ZN5QListI8QVariantE9node_copyEPNS1_4NodeES3_S3_)
    t._ZN5QListI8QVariantE9node_copyEPNS1_4NodeES3_S3_.clean 0x000172bc   Section       18  QtServiceFramework.in(t._ZN5QListI8QVariantE9node_copyEPNS1_4NodeES3_S3_.clean)
    t._ZN5QListI8QVariantEC1Ev               0x000172d0   Section       20  QtServiceFramework.in(t._ZN5QListI8QVariantEC1Ev)
    t._ZN5QListI8QVariantED1Ev               0x000172e4   Section       30  QtServiceFramework.in(t._ZN5QListI8QVariantED1Ev)
    t._ZN5QListI8QVariantEixEi               0x00017302   Section       36  QtServiceFramework.in(t._ZN5QListI8QVariantEixEi)
    t._ZN5QListIN10QtMobility15QServicePackageEE13detach_helperEi 0x00017326   Section      154  QtServiceFramework.in(t._ZN5QListIN10QtMobility15QServicePackageEE13detach_helperEi)
    t._ZN5QListIN10QtMobility15QServicePackageEE13detach_helperEi.clean 0x000173c0   Section       18  QtServiceFramework.in(t._ZN5QListIN10QtMobility15QServicePackageEE13detach_helperEi.clean)
    t._ZN5QListIN10QtMobility15QServicePackageEE13detach_helperEv 0x000173d2   Section       12  QtServiceFramework.in(t._ZN5QListIN10QtMobility15QServicePackageEE13detach_helperEv)
    t._ZN5QListIN10QtMobility15QServicePackageEE13node_destructEPNS2_4NodeE 0x000173de   Section       18  QtServiceFramework.in(t._ZN5QListIN10QtMobility15QServicePackageEE13node_destructEPNS2_4NodeE)
    t._ZN5QListIN10QtMobility15QServicePackageEE13node_destructEPNS2_4NodeES4_ 0x000173f0   Section       30  QtServiceFramework.in(t._ZN5QListIN10QtMobility15QServicePackageEE13node_destructEPNS2_4NodeES4_)
    t._ZN5QListIN10QtMobility15QServicePackageEE14node_constructEPNS2_4NodeERKS1_ 0x0001740e   Section       32  QtServiceFramework.in(t._ZN5QListIN10QtMobility15QServicePackageEE14node_constructEPNS2_4NodeERKS1_)
    t._ZN5QListIN10QtMobility15QServicePackageEE14node_constructEPNS2_4NodeERKS1_.clean 0x0001742e   Section       10  QtServiceFramework.in(t._ZN5QListIN10QtMobility15QServicePackageEE14node_constructEPNS2_4NodeERKS1_.clean)
    t._ZN5QListIN10QtMobility15QServicePackageEE18detach_helper_growEii 0x00017438   Section      180  QtServiceFramework.in(t._ZN5QListIN10QtMobility15QServicePackageEE18detach_helper_growEii)
    t._ZN5QListIN10QtMobility15QServicePackageEE18detach_helper_growEii.clean 0x000174ec   Section        8  QtServiceFramework.in(t._ZN5QListIN10QtMobility15QServicePackageEE18detach_helper_growEii.clean)
    t._ZN5QListIN10QtMobility15QServicePackageEE4freeEPN9QListData4DataE 0x000174f4   Section       38  QtServiceFramework.in(t._ZN5QListIN10QtMobility15QServicePackageEE4freeEPN9QListData4DataE)
    t._ZN5QListIN10QtMobility15QServicePackageEE5beginEv 0x0001751a   Section       30  QtServiceFramework.in(t._ZN5QListIN10QtMobility15QServicePackageEE5beginEv)
    t._ZN5QListIN10QtMobility15QServicePackageEE6appendERKS1_ 0x00017538   Section       96  QtServiceFramework.in(t._ZN5QListIN10QtMobility15QServicePackageEE6appendERKS1_)
    t._ZN5QListIN10QtMobility15QServicePackageEE6appendERKS1_.clean 0x00017598   Section        8  QtServiceFramework.in(t._ZN5QListIN10QtMobility15QServicePackageEE6appendERKS1_.clean)
    t._ZN5QListIN10QtMobility15QServicePackageEE9node_copyEPNS2_4NodeES4_S4_ 0x000175a0   Section       80  QtServiceFramework.in(t._ZN5QListIN10QtMobility15QServicePackageEE9node_copyEPNS2_4NodeES4_S4_)
    t._ZN5QListIN10QtMobility15QServicePackageEE9node_copyEPNS2_4NodeES4_S4_.clean 0x000175f0   Section       18  QtServiceFramework.in(t._ZN5QListIN10QtMobility15QServicePackageEE9node_copyEPNS2_4NodeES4_S4_.clean)
    t._ZN5QListIN10QtMobility15QServicePackageEEC1Ev 0x00017604   Section       20  QtServiceFramework.in(t._ZN5QListIN10QtMobility15QServicePackageEEC1Ev)
    t._ZN5QListIN10QtMobility15QServicePackageEED1Ev 0x00017618   Section       30  QtServiceFramework.in(t._ZN5QListIN10QtMobility15QServicePackageEED1Ev)
    t._ZN5QListIN10QtMobility22QRemoteServiceRegister5EntryEE13detach_helperEi 0x00017636   Section       86  QtServiceFramework.in(t._ZN5QListIN10QtMobility22QRemoteServiceRegister5EntryEE13detach_helperEi)
    t._ZN5QListIN10QtMobility22QRemoteServiceRegister5EntryEE13detach_helperEi.clean 0x0001768c   Section        8  QtServiceFramework.in(t._ZN5QListIN10QtMobility22QRemoteServiceRegister5EntryEE13detach_helperEi.clean)
    t._ZN5QListIN10QtMobility22QRemoteServiceRegister5EntryEE13detach_helperEv 0x00017694   Section       12  QtServiceFramework.in(t._ZN5QListIN10QtMobility22QRemoteServiceRegister5EntryEE13detach_helperEv)
    t._ZN5QListIN10QtMobility22QRemoteServiceRegister5EntryEE13node_destructEPNS3_4NodeE 0x000176a0   Section       18  QtServiceFramework.in(t._ZN5QListIN10QtMobility22QRemoteServiceRegister5EntryEE13node_destructEPNS3_4NodeE)
    t._ZN5QListIN10QtMobility22QRemoteServiceRegister5EntryEE13node_destructEPNS3_4NodeES5_ 0x000176b2   Section       30  QtServiceFramework.in(t._ZN5QListIN10QtMobility22QRemoteServiceRegister5EntryEE13node_destructEPNS3_4NodeES5_)
    t._ZN5QListIN10QtMobility22QRemoteServiceRegister5EntryEE14node_constructEPNS3_4NodeERKS2_ 0x000176d0   Section       32  QtServiceFramework.in(t._ZN5QListIN10QtMobility22QRemoteServiceRegister5EntryEE14node_constructEPNS3_4NodeERKS2_)
    t._ZN5QListIN10QtMobility22QRemoteServiceRegister5EntryEE14node_constructEPNS3_4NodeERKS2_.clean 0x000176f0   Section       10  QtServiceFramework.in(t._ZN5QListIN10QtMobility22QRemoteServiceRegister5EntryEE14node_constructEPNS3_4NodeERKS2_.clean)
    t._ZN5QListIN10QtMobility22QRemoteServiceRegister5EntryEE18detach_helper_growEii 0x000176fa   Section      180  QtServiceFramework.in(t._ZN5QListIN10QtMobility22QRemoteServiceRegister5EntryEE18detach_helper_growEii)
    t._ZN5QListIN10QtMobility22QRemoteServiceRegister5EntryEE18detach_helper_growEii.clean 0x000177ae   Section        8  QtServiceFramework.in(t._ZN5QListIN10QtMobility22QRemoteServiceRegister5EntryEE18detach_helper_growEii.clean)
    t._ZN5QListIN10QtMobility22QRemoteServiceRegister5EntryEE4freeEPN9QListData4DataE 0x000177b6   Section       38  QtServiceFramework.in(t._ZN5QListIN10QtMobility22QRemoteServiceRegister5EntryEE4freeEPN9QListData4DataE)
    t._ZN5QListIN10QtMobility22QRemoteServiceRegister5EntryEE5beginEv 0x000177dc   Section       34  QtServiceFramework.in(t._ZN5QListIN10QtMobility22QRemoteServiceRegister5EntryEE5beginEv)
    t._ZN5QListIN10QtMobility22QRemoteServiceRegister5EntryEE6appendERKS2_ 0x00017800   Section       96  QtServiceFramework.in(t._ZN5QListIN10QtMobility22QRemoteServiceRegister5EntryEE6appendERKS2_)
    t._ZN5QListIN10QtMobility22QRemoteServiceRegister5EntryEE6appendERKS2_.clean 0x00017860   Section        8  QtServiceFramework.in(t._ZN5QListIN10QtMobility22QRemoteServiceRegister5EntryEE6appendERKS2_.clean)
    t._ZN5QListIN10QtMobility22QRemoteServiceRegister5EntryEE9node_copyEPNS3_4NodeES5_S5_ 0x00017868   Section       80  QtServiceFramework.in(t._ZN5QListIN10QtMobility22QRemoteServiceRegister5EntryEE9node_copyEPNS3_4NodeES5_S5_)
    t._ZN5QListIN10QtMobility22QRemoteServiceRegister5EntryEE9node_copyEPNS3_4NodeES5_S5_.clean 0x000178b8   Section       18  QtServiceFramework.in(t._ZN5QListIN10QtMobility22QRemoteServiceRegister5EntryEE9node_copyEPNS3_4NodeES5_S5_.clean)
    t._ZN5QListIN10QtMobility22QRemoteServiceRegister5EntryEED1Ev 0x000178ca   Section       30  QtServiceFramework.in(t._ZN5QListIN10QtMobility22QRemoteServiceRegister5EntryEED1Ev)
    t._ZN5QListIN10QtMobility27QServiceInterfaceDescriptorEE13detach_helperEi 0x000178e8   Section       86  QtServiceFramework.in(t._ZN5QListIN10QtMobility27QServiceInterfaceDescriptorEE13detach_helperEi)
    t._ZN5QListIN10QtMobility27QServiceInterfaceDescriptorEE13detach_helperEi.clean 0x0001793e   Section        8  QtServiceFramework.in(t._ZN5QListIN10QtMobility27QServiceInterfaceDescriptorEE13detach_helperEi.clean)
    t._ZN5QListIN10QtMobility27QServiceInterfaceDescriptorEE13detach_helperEv 0x00017946   Section       12  QtServiceFramework.in(t._ZN5QListIN10QtMobility27QServiceInterfaceDescriptorEE13detach_helperEv)
    t._ZN5QListIN10QtMobility27QServiceInterfaceDescriptorEE13node_destructEPNS2_4NodeES4_ 0x00017952   Section       30  QtServiceFramework.in(t._ZN5QListIN10QtMobility27QServiceInterfaceDescriptorEE13node_destructEPNS2_4NodeES4_)
    t._ZN5QListIN10QtMobility27QServiceInterfaceDescriptorEE14node_constructEPNS2_4NodeERKS1_ 0x00017970   Section       32  QtServiceFramework.in(t._ZN5QListIN10QtMobility27QServiceInterfaceDescriptorEE14node_constructEPNS2_4NodeERKS1_)
    t._ZN5QListIN10QtMobility27QServiceInterfaceDescriptorEE14node_constructEPNS2_4NodeERKS1_.clean 0x00017990   Section       10  QtServiceFramework.in(t._ZN5QListIN10QtMobility27QServiceInterfaceDescriptorEE14node_constructEPNS2_4NodeERKS1_.clean)
    t._ZN5QListIN10QtMobility27QServiceInterfaceDescriptorEE18detach_helper_growEii 0x0001799a   Section      180  QtServiceFramework.in(t._ZN5QListIN10QtMobility27QServiceInterfaceDescriptorEE18detach_helper_growEii)
    t._ZN5QListIN10QtMobility27QServiceInterfaceDescriptorEE18detach_helper_growEii.clean 0x00017a4e   Section        8  QtServiceFramework.in(t._ZN5QListIN10QtMobility27QServiceInterfaceDescriptorEE18detach_helper_growEii.clean)
    t._ZN5QListIN10QtMobility27QServiceInterfaceDescriptorEE4freeEPN9QListData4DataE 0x00017a56   Section       38  QtServiceFramework.in(t._ZN5QListIN10QtMobility27QServiceInterfaceDescriptorEE4freeEPN9QListData4DataE)
    t._ZN5QListIN10QtMobility27QServiceInterfaceDescriptorEE5clearEv 0x00017a7c   Section       26  QtServiceFramework.in(t._ZN5QListIN10QtMobility27QServiceInterfaceDescriptorEE5clearEv)
    t._ZN5QListIN10QtMobility27QServiceInterfaceDescriptorEE5clearEv.clean 0x00017a96   Section       10  QtServiceFramework.in(t._ZN5QListIN10QtMobility27QServiceInterfaceDescriptorEE5clearEv.clean)
    t._ZN5QListIN10QtMobility27QServiceInterfaceDescriptorEE6appendERKS1_ 0x00017aa0   Section       96  QtServiceFramework.in(t._ZN5QListIN10QtMobility27QServiceInterfaceDescriptorEE6appendERKS1_)
    t._ZN5QListIN10QtMobility27QServiceInterfaceDescriptorEE6appendERKS1_.clean 0x00017b00   Section        8  QtServiceFramework.in(t._ZN5QListIN10QtMobility27QServiceInterfaceDescriptorEE6appendERKS1_.clean)
    t._ZN5QListIN10QtMobility27QServiceInterfaceDescriptorEE9node_copyEPNS2_4NodeES4_S4_ 0x00017b08   Section       80  QtServiceFramework.in(t._ZN5QListIN10QtMobility27QServiceInterfaceDescriptorEE9node_copyEPNS2_4NodeES4_S4_)
    t._ZN5QListIN10QtMobility27QServiceInterfaceDescriptorEE9node_copyEPNS2_4NodeES4_S4_.clean 0x00017b58   Section       18  QtServiceFramework.in(t._ZN5QListIN10QtMobility27QServiceInterfaceDescriptorEE9node_copyEPNS2_4NodeES4_S4_.clean)
    t._ZN5QListIN10QtMobility27QServiceInterfaceDescriptorEEC1Ev 0x00017b6c   Section       20  QtServiceFramework.in(t._ZN5QListIN10QtMobility27QServiceInterfaceDescriptorEEC1Ev)
    t._ZN5QListIN10QtMobility27QServiceInterfaceDescriptorEED1Ev 0x00017b80   Section       30  QtServiceFramework.in(t._ZN5QListIN10QtMobility27QServiceInterfaceDescriptorEED1Ev)
    t._ZN5QListIN10QtMobility27QServiceInterfaceDescriptorEEaSERKS2_ 0x00017b9e   Section       54  QtServiceFramework.in(t._ZN5QListIN10QtMobility27QServiceInterfaceDescriptorEEaSERKS2_)
    t._ZN5QListIN10QtMobility27QServiceInterfaceDescriptorEEixEi 0x00017bd4   Section       36  QtServiceFramework.in(t._ZN5QListIN10QtMobility27QServiceInterfaceDescriptorEEixEi)
    t._ZN5QListIPFRK11QMetaObjectvEE13detach_helperEv 0x00017bf8   Section       88  QtServiceFramework.in(t._ZN5QListIPFRK11QMetaObjectvEE13detach_helperEv)
    t._ZN5QListIPFRK11QMetaObjectvEE13detach_helperEv.clean 0x00017c50   Section        8  QtServiceFramework.in(t._ZN5QListIPFRK11QMetaObjectvEE13detach_helperEv.clean)
    t._ZN5QListIPFRK11QMetaObjectvEE18detach_helper_growEii 0x00017c58   Section      164  QtServiceFramework.in(t._ZN5QListIPFRK11QMetaObjectvEE18detach_helper_growEii)
    t._ZN5QListIPFRK11QMetaObjectvEE18detach_helper_growEii.clean 0x00017cfc   Section        8  QtServiceFramework.in(t._ZN5QListIPFRK11QMetaObjectvEE18detach_helper_growEii.clean)
    t._ZN5QListIPFRK11QMetaObjectvEE4freeEPN9QListData4DataE 0x00017d04   Section       24  QtServiceFramework.in(t._ZN5QListIPFRK11QMetaObjectvEE4freeEPN9QListData4DataE)
    t._ZN5QListIPFRK11QMetaObjectvEE6detachEv 0x00017d1c   Section       24  QtServiceFramework.in(t._ZN5QListIPFRK11QMetaObjectvEE6detachEv)
    t._ZN5QListIPFRK11QMetaObjectvEE9node_copyEPNS5_4NodeES7_S7_ 0x00017d34   Section       28  QtServiceFramework.in(t._ZN5QListIPFRK11QMetaObjectvEE9node_copyEPNS5_4NodeES7_S7_)
    t._ZN5QListIPFRK11QMetaObjectvEEC1Ev     0x00017d50   Section       20  QtServiceFramework.in(t._ZN5QListIPFRK11QMetaObjectvEEC1Ev)
    t._ZN5QListIPFRK11QMetaObjectvEED1Ev     0x00017d64   Section       30  QtServiceFramework.in(t._ZN5QListIPFRK11QMetaObjectvEED1Ev)
    t._ZN5QListIPFRK11QMetaObjectvEEixEi     0x00017d82   Section       20  QtServiceFramework.in(t._ZN5QListIPFRK11QMetaObjectvEEixEi)
    t._ZN5QListIiE13detach_helperEi          0x00017d96   Section       86  QtServiceFramework.in(t._ZN5QListIiE13detach_helperEi)
    t._ZN5QListIiE13detach_helperEi.clean    0x00017dec   Section        8  QtServiceFramework.in(t._ZN5QListIiE13detach_helperEi.clean)
    t._ZN5QListIiE13detach_helperEv          0x00017df4   Section       12  QtServiceFramework.in(t._ZN5QListIiE13detach_helperEv)
    t._ZN5QListIiE18detach_helper_growEii    0x00017e00   Section      164  QtServiceFramework.in(t._ZN5QListIiE18detach_helper_growEii)
    t._ZN5QListIiE18detach_helper_growEii.clean 0x00017ea4   Section        8  QtServiceFramework.in(t._ZN5QListIiE18detach_helper_growEii.clean)
    t._ZN5QListIiE4freeEPN9QListData4DataE   0x00017eac   Section       24  QtServiceFramework.in(t._ZN5QListIiE4freeEPN9QListData4DataE)
    t._ZN5QListIiE6appendERKi                0x00017ec4   Section       60  QtServiceFramework.in(t._ZN5QListIiE6appendERKi)
    t._ZN5QListIiE6appendERKi.clean          0x00017f00   Section       10  QtServiceFramework.in(t._ZN5QListIiE6appendERKi.clean)
    t._ZN5QListIiE6detachEv                  0x00017f0a   Section       24  QtServiceFramework.in(t._ZN5QListIiE6detachEv)
    t._ZN5QListIiE9node_copyEPNS0_4NodeES2_S2_ 0x00017f22   Section       28  QtServiceFramework.in(t._ZN5QListIiE9node_copyEPNS0_4NodeES2_S2_)
    t._ZN5QListIiEC1Ev                       0x00017f40   Section       20  QtServiceFramework.in(t._ZN5QListIiEC1Ev)
    t._ZN5QListIiED1Ev                       0x00017f54   Section       30  QtServiceFramework.in(t._ZN5QListIiED1Ev)
    t._ZN5QListIiEixEi                       0x00017f72   Section       20  QtServiceFramework.in(t._ZN5QListIiEixEi)
    t._ZN6QQueueIN10QtMobility15QServicePackageEED1Ev 0x00017f86   Section        8  QtServiceFramework.in(t._ZN6QQueueIN10QtMobility15QServicePackageEED1Ev)
    t._ZN7QVectorI19QXmlStreamAttributeED1Ev 0x00017f8e   Section       60  QtServiceFramework.in(t._ZN7QVectorI19QXmlStreamAttributeED1Ev)
    t._ZN7QVectorIbE4fillERKbi               0x00017fca   Section       92  QtServiceFramework.in(t._ZN7QVectorIbE4fillERKbi)
    t._ZN7QVectorIbE4freeEP16QVectorTypedDataIbE 0x00018026   Section       12  QtServiceFramework.in(t._ZN7QVectorIbE4freeEP16QVectorTypedDataIbE)
    t._ZN7QVectorIbE7reallocEii              0x00018032   Section      234  QtServiceFramework.in(t._ZN7QVectorIbE7reallocEii)
    t._ZN7QVectorIbE7reallocEii.clean        0x0001811c   Section        8  QtServiceFramework.in(t._ZN7QVectorIbE7reallocEii.clean)
    t._ZN7QVectorIbED1Ev                     0x00018124   Section       30  QtServiceFramework.in(t._ZN7QVectorIbED1Ev)
    t._ZN8QPointerI7QObjectED1Ev             0x00018142   Section       12  QtServiceFramework.in(t._ZN8QPointerI7QObjectED1Ev)
    t._ZN8QPointerI7QObjectEaSEPS0_          0x0001814e   Section       20  QtServiceFramework.in(t._ZN8QPointerI7QObjectEaSEPS0_)
    t._ZN8TIpcArgsC1IP7HBufC16P8TPckgBufIiES5_EET_T0_T1_ 0x00018162   Section       12  QtServiceFramework.in(t._ZN8TIpcArgsC1IP7HBufC16P8TPckgBufIiES5_EET_T0_T1_)
    t._ZN8TPckgBufIiEC1ERKi                  0x0001816e   Section       34  QtServiceFramework.in(t._ZN8TPckgBufIiEC1ERKi)
    t._ZN8TPckgBufIiEC1Ev                    0x00018190   Section       24  QtServiceFramework.in(t._ZN8TPckgBufIiEC1Ev)
    t._ZN9QHashNodeI5QUuidP7QObjectEC1ERKS0_RKS2_ 0x000181a8   Section       18  QtServiceFramework.in(t._ZN9QHashNodeI5QUuidP7QObjectEC1ERKS0_RKS2_)
    t._ZN9QHashNodeI5QUuidPN10QtMobility8ResponseEEC1ERKS0_RKS3_ 0x000181ba   Section       18  QtServiceFramework.in(t._ZN9QHashNodeI5QUuidPN10QtMobility8ResponseEEC1ERKS0_RKS3_)
    t._ZN9QHashNodeI7QString8QVariantEC1ERKS0_RKS1_ 0x000181cc   Section       28  QtServiceFramework.in(t._ZN9QHashNodeI7QString8QVariantEC1ERKS0_RKS1_)
    t._ZN9QHashNodeI7QString8QVariantEC1ERKS0_RKS1_.clean 0x000181e8   Section       12  QtServiceFramework.in(t._ZN9QHashNodeI7QString8QVariantEC1ERKS0_RKS1_.clean)
    t._ZN9QHashNodeI7QStringS0_EC1ERKS0_S3_  0x000181f4   Section       28  QtServiceFramework.in(t._ZN9QHashNodeI7QStringS0_EC1ERKS0_S3_)
    t._ZN9QHashNodeI7QStringS0_EC1ERKS0_S3_.clean 0x00018210   Section       12  QtServiceFramework.in(t._ZN9QHashNodeI7QStringS0_EC1ERKS0_S3_.clean)
    t._ZN9QHashNodeI7QStringiEC1ERKS0_RKi    0x0001821c   Section       18  QtServiceFramework.in(t._ZN9QHashNodeI7QStringiEC1ERKS0_RKi)
    t._ZN9QHashNodeIN10QtMobility22QRemoteServiceRegister5EntryENS0_22ServiceIdentDescriptorEEC1ERKS2_RKS3_ 0x0001822e   Section       28  QtServiceFramework.in(t._ZN9QHashNodeIN10QtMobility22QRemoteServiceRegister5EntryENS0_22ServiceIdentDescriptorEEC1ERKS2_RKS3_)
    t._ZN9QHashNodeIN10QtMobility22QRemoteServiceRegister5EntryENS0_22ServiceIdentDescriptorEEC1ERKS2_RKS3_.clean 0x0001824a   Section       12  QtServiceFramework.in(t._ZN9QHashNodeIN10QtMobility22QRemoteServiceRegister5EntryENS0_22ServiceIdentDescriptorEEC1ERKS2_RKS3_.clean)
    t._ZN9QHashNodeIN10QtMobility27QServiceInterfaceDescriptor9AttributeE8QVariantEC1ERKS2_RKS3_ 0x00018256   Section       18  QtServiceFramework.in(t._ZN9QHashNodeIN10QtMobility27QServiceInterfaceDescriptor9AttributeE8QVariantEC1ERKS2_RKS3_)
    t._ZNK4QSetI7QStringE6toListEv           0x00018268   Section      110  QtServiceFramework.in(t._ZNK4QSetI7QStringE6toListEv)
    t._ZNK4QSetI7QStringE6toListEv.clean     0x000182d6   Section       10  QtServiceFramework.in(t._ZNK4QSetI7QStringE6toListEv.clean)
    t._ZNK5QHashI5QUuidP7QObjectE4keysEv     0x000182e0   Section      100  QtServiceFramework.in(t._ZNK5QHashI5QUuidP7QObjectE4keysEv)
    t._ZNK5QHashI5QUuidP7QObjectE4keysEv.clean 0x00018344   Section       10  QtServiceFramework.in(t._ZNK5QHashI5QUuidP7QObjectE4keysEv.clean)
    t._ZNK5QHashI5QUuidP7QObjectE8findNodeERKS0_Pj 0x0001834e   Section      134  QtServiceFramework.in(t._ZNK5QHashI5QUuidP7QObjectE8findNodeERKS0_Pj)
    t._ZNK5QHashI5QUuidP7QObjectE8findNodeERKS0_Pj.clean 0x000183d4   Section       10  QtServiceFramework.in(t._ZNK5QHashI5QUuidP7QObjectE8findNodeERKS0_Pj.clean)
    t._ZNK5QHashI5QUuidPN10QtMobility8ResponseEE5valueERKS0_ 0x000183de   Section       36  QtServiceFramework.in(t._ZNK5QHashI5QUuidPN10QtMobility8ResponseEE5valueERKS0_)
    t._ZNK5QHashI5QUuidPN10QtMobility8ResponseEE8findNodeERKS0_Pj 0x00018402   Section      134  QtServiceFramework.in(t._ZNK5QHashI5QUuidPN10QtMobility8ResponseEE8findNodeERKS0_Pj)
    t._ZNK5QHashI5QUuidPN10QtMobility8ResponseEE8findNodeERKS0_Pj.clean 0x00018488   Section       10  QtServiceFramework.in(t._ZNK5QHashI5QUuidPN10QtMobility8ResponseEE8findNodeERKS0_Pj.clean)
    t._ZNK5QHashI7QString15QHashDummyValueE8findNodeERKS0_Pj 0x00018492   Section       90  QtServiceFramework.in(t._ZNK5QHashI7QString15QHashDummyValueE8findNodeERKS0_Pj)
    t._ZNK5QHashI7QString8QVariantE8findNodeERKS0_Pj 0x000184ec   Section       90  QtServiceFramework.in(t._ZNK5QHashI7QString8QVariantE8findNodeERKS0_Pj)
    t._ZNK5QHashI7QStringS0_E14const_iteratorneERKS2_ 0x00018546   Section       16  QtServiceFramework.in(t._ZNK5QHashI7QStringS0_E14const_iteratorneERKS2_)
    t._ZNK5QHashI7QStringS0_E4keysEv         0x00018556   Section       60  QtServiceFramework.in(t._ZNK5QHashI7QStringS0_E4keysEv)
    t._ZNK5QHashI7QStringS0_E4keysEv.clean   0x00018592   Section       10  QtServiceFramework.in(t._ZNK5QHashI7QStringS0_E4keysEv.clean)
    t._ZNK5QHashI7QStringS0_E5beginEv        0x0001859c   Section       28  QtServiceFramework.in(t._ZNK5QHashI7QStringS0_E5beginEv)
    t._ZNK5QHashI7QStringS0_E8findNodeERKS0_Pj 0x000185b8   Section       90  QtServiceFramework.in(t._ZNK5QHashI7QStringS0_E8findNodeERKS0_Pj)
    t._ZNK5QHashI7QStringS0_EeqERKS1_        0x00018612   Section      164  QtServiceFramework.in(t._ZNK5QHashI7QStringS0_EeqERKS1_)
    t._ZNK5QHashI7QStringiE8containsERKS0_   0x000186b6   Section       26  QtServiceFramework.in(t._ZNK5QHashI7QStringiE8containsERKS0_)
    t._ZNK5QHashI7QStringiE8findNodeERKS0_Pj 0x000186d0   Section       90  QtServiceFramework.in(t._ZNK5QHashI7QStringiE8findNodeERKS0_Pj)
    t._ZNK5QHashIN10QtMobility22QRemoteServiceRegister5EntryENS0_22ServiceIdentDescriptorEE4keysEv 0x0001872c   Section      100  QtServiceFramework.in(t._ZNK5QHashIN10QtMobility22QRemoteServiceRegister5EntryENS0_22ServiceIdentDescriptorEE4keysEv)
    t._ZNK5QHashIN10QtMobility22QRemoteServiceRegister5EntryENS0_22ServiceIdentDescriptorEE4keysEv.clean 0x00018790   Section       10  QtServiceFramework.in(t._ZNK5QHashIN10QtMobility22QRemoteServiceRegister5EntryENS0_22ServiceIdentDescriptorEE4keysEv.clean)
    t._ZNK5QHashIN10QtMobility22QRemoteServiceRegister5EntryENS0_22ServiceIdentDescriptorEE8containsERKS2_ 0x0001879a   Section       26  QtServiceFramework.in(t._ZNK5QHashIN10QtMobility22QRemoteServiceRegister5EntryENS0_22ServiceIdentDescriptorEE8containsERKS2_)
    t._ZNK5QHashIN10QtMobility22QRemoteServiceRegister5EntryENS0_22ServiceIdentDescriptorEE8findNodeERKS2_Pj 0x000187b4   Section      152  QtServiceFramework.in(t._ZNK5QHashIN10QtMobility22QRemoteServiceRegister5EntryENS0_22ServiceIdentDescriptorEE8findNodeERKS2_Pj)
    t._ZNK5QHashIN10QtMobility22QRemoteServiceRegister5EntryENS0_22ServiceIdentDescriptorEE8findNodeERKS2_Pj.clean 0x0001884c   Section       22  QtServiceFramework.in(t._ZNK5QHashIN10QtMobility22QRemoteServiceRegister5EntryENS0_22ServiceIdentDescriptorEE8findNodeERKS2_Pj.clean)
    t._ZNK5QHashIN10QtMobility22QRemoteServiceRegister5EntryENS0_22ServiceIdentDescriptorEEixERKS2_ 0x00018862   Section       52  QtServiceFramework.in(t._ZNK5QHashIN10QtMobility22QRemoteServiceRegister5EntryENS0_22ServiceIdentDescriptorEEixERKS2_)
    t._ZNK5QHashIN10QtMobility27QServiceInterfaceDescriptor9AttributeE8QVariantE8findNodeERKS2_Pj 0x00018896   Section       62  QtServiceFramework.in(t._ZNK5QHashIN10QtMobility27QServiceInterfaceDescriptor9AttributeE8QVariantE8findNodeERKS2_Pj)
    t._ZNK5QHashIN10QtMobility27QServiceInterfaceDescriptor9AttributeE8QVariantEeqERKS4_ 0x000188d4   Section      136  QtServiceFramework.in(t._ZNK5QHashIN10QtMobility27QServiceInterfaceDescriptor9AttributeE8QVariantEeqERKS4_)
    t._ZNK5QListI10QByteArrayE4sizeEv        0x0001895c   Section        8  QtServiceFramework.in(t._ZNK5QListI10QByteArrayE4sizeEv)
    t._ZNK5QListI23QMetaEnumBuilderPrivateE4sizeEv 0x00018964   Section        8  QtServiceFramework.in(t._ZNK5QListI23QMetaEnumBuilderPrivateE4sizeEv)
    t._ZNK5QListI25QMetaMethodBuilderPrivateE4sizeEv 0x0001896c   Section        8  QtServiceFramework.in(t._ZNK5QListI25QMetaMethodBuilderPrivateE4sizeEv)
    t._ZNK5QListI27QMetaPropertyBuilderPrivateE4sizeEv 0x00018974   Section        8  QtServiceFramework.in(t._ZNK5QListI27QMetaPropertyBuilderPrivateE4sizeEv)
    t._ZNK5QListI8QVariantE4sizeEv           0x0001897c   Section       10  QtServiceFramework.in(t._ZNK5QListI8QVariantE4sizeEv)
    t._ZNK5QListI8QVariantEixEi              0x00018986   Section       18  QtServiceFramework.in(t._ZNK5QListI8QVariantEixEi)
    t._ZNK5QListIN10QtMobility15QServicePackageEE7isEmptyEv 0x00018998   Section       18  QtServiceFramework.in(t._ZNK5QListIN10QtMobility15QServicePackageEE7isEmptyEv)
    t._ZNK5QListIN10QtMobility27QServiceInterfaceDescriptorEE2atEi 0x000189aa   Section       10  QtServiceFramework.in(t._ZNK5QListIN10QtMobility27QServiceInterfaceDescriptorEE2atEi)
    t._ZNK5QListIPFRK11QMetaObjectvEE4sizeEv 0x000189b4   Section        8  QtServiceFramework.in(t._ZNK5QListIPFRK11QMetaObjectvEE4sizeEv)
    t._ZlsI10QByteArrayER11QDataStreamS2_RK5QListIT_E 0x000189bc   Section       56  QtServiceFramework.in(t._ZlsI10QByteArrayER11QDataStreamS2_RK5QListIT_E)
    t._ZlsI7QStringS0_ER11QDataStreamS2_RK5QHashIT_T0_E 0x000189f4   Section       66  QtServiceFramework.in(t._ZlsI7QStringS0_ER11QDataStreamS2_RK5QHashIT_T0_E)
    t._ZlsIN10QtMobility27QServiceInterfaceDescriptor9AttributeE8QVariantER11QDataStreamS5_RK5QHashIT_T0_E 0x00018a36   Section       68  QtServiceFramework.in(t._ZlsIN10QtMobility27QServiceInterfaceDescriptor9AttributeE8QVariantER11QDataStreamS5_RK5QHashIT_T0_E)
    t._ZlsIN10QtMobility27QServiceInterfaceDescriptorEER11QDataStreamS3_RK5QListIT_E 0x00018a7a   Section       58  QtServiceFramework.in(t._ZlsIN10QtMobility27QServiceInterfaceDescriptorEER11QDataStreamS3_RK5QListIT_E)
    t._ZrsI10QByteArrayER11QDataStreamS2_R5QListIT_E 0x00018ab4   Section      120  QtServiceFramework.in(t._ZrsI10QByteArrayER11QDataStreamS2_R5QListIT_E)
    t._ZrsI10QByteArrayER11QDataStreamS2_R5QListIT_E.clean 0x00018b2c   Section       10  QtServiceFramework.in(t._ZrsI10QByteArrayER11QDataStreamS2_R5QListIT_E.clean)
    t._ZrsI7QStringER11QDataStreamS2_R5QListIT_E 0x00018b36   Section      104  QtServiceFramework.in(t._ZrsI7QStringER11QDataStreamS2_R5QListIT_E)
    t._ZrsI7QStringER11QDataStreamS2_R5QListIT_E.clean 0x00018b9e   Section       18  QtServiceFramework.in(t._ZrsI7QStringER11QDataStreamS2_R5QListIT_E.clean)
    t._ZrsI7QStringS0_ER11QDataStreamS2_R5QHashIT_T0_E 0x00018bb0   Section      164  QtServiceFramework.in(t._ZrsI7QStringS0_ER11QDataStreamS2_R5QHashIT_T0_E)
    t._ZrsI7QStringS0_ER11QDataStreamS2_R5QHashIT_T0_E.clean 0x00018c54   Section       16  QtServiceFramework.in(t._ZrsI7QStringS0_ER11QDataStreamS2_R5QHashIT_T0_E.clean)
    t._ZrsI8QVariantER11QDataStreamS2_R5QListIT_E 0x00018c64   Section      176  QtServiceFramework.in(t._ZrsI8QVariantER11QDataStreamS2_R5QListIT_E)
    t._ZrsI8QVariantER11QDataStreamS2_R5QListIT_E.clean 0x00018d14   Section       18  QtServiceFramework.in(t._ZrsI8QVariantER11QDataStreamS2_R5QListIT_E.clean)
    t._ZrsIN10QtMobility27QServiceInterfaceDescriptor9AttributeE8QVariantER11QDataStreamS5_R5QHashIT_T0_E 0x00018d26   Section      212  QtServiceFramework.in(t._ZrsIN10QtMobility27QServiceInterfaceDescriptor9AttributeE8QVariantER11QDataStreamS5_R5QHashIT_T0_E)
    t._ZrsIN10QtMobility27QServiceInterfaceDescriptor9AttributeE8QVariantER11QDataStreamS5_R5QHashIT_T0_E.clean 0x00018dfa   Section       20  QtServiceFramework.in(t._ZrsIN10QtMobility27QServiceInterfaceDescriptor9AttributeE8QVariantER11QDataStreamS5_R5QHashIT_T0_E.clean)
    t._ZrsIN10QtMobility27QServiceInterfaceDescriptorEER11QDataStreamS3_R5QListIT_E 0x00018e0e   Section      120  QtServiceFramework.in(t._ZrsIN10QtMobility27QServiceInterfaceDescriptorEER11QDataStreamS3_R5QListIT_E)
    t._ZrsIN10QtMobility27QServiceInterfaceDescriptorEER11QDataStreamS3_R5QListIT_E.clean 0x00018e86   Section       10  QtServiceFramework.in(t._ZrsIN10QtMobility27QServiceInterfaceDescriptorEER11QDataStreamS3_R5QListIT_E.clean)
    t._ZrsIiER11QDataStreamS1_R5QListIT_E    0x00018e90   Section      152  QtServiceFramework.in(t._ZrsIiER11QDataStreamS1_R5QListIT_E)
    t._ZrsIiER11QDataStreamS1_R5QListIT_E.clean 0x00018f28   Section       10  QtServiceFramework.in(t._ZrsIiER11QDataStreamS1_R5QListIT_E.clean)
    .extab._ZN10QtMobility15ServiceMetaDataC1ERK7QString 0x00018f34   Data           0  QtServiceFramework.in(.ARM.extab)
    .extab._ZN10QtMobility15ServiceMetaDataC1EP9QIODevice 0x00018f74   Data           0  QtServiceFramework.in(.ARM.extab)
    .extab._ZN10QtMobility15ServiceMetaDataD1Ev 0x00018fac   Data           0  QtServiceFramework.in(.ARM.extab)
    .extab._ZN10QtMobility15ServiceMetaData13clearMetadataEv 0x00018fec   Data           0  QtServiceFramework.in(.ARM.extab)
    .extab._ZNK10QtMobility15ServiceMetaData12checkVersionERK7QString 0x0001900c   Data           0  QtServiceFramework.in(.ARM.extab)
    .extab._ZNK10QtMobility15ServiceMetaData16transformVersionERK7QStringPiS4_ 0x00019034   Data           0  QtServiceFramework.in(.ARM.extab)
    .extab._ZN10QtMobility15ServiceMetaData22latestInterfaceVersionERK7QString 0x0001905c   Data           0  QtServiceFramework.in(.ARM.extab)
    .extab._ZN10QtMobility15ServiceMetaData23processInterfaceElementER16QXmlStreamReader 0x0001908c   Data           0  QtServiceFramework.in(.ARM.extab)
    .extab._ZN10QtMobility15ServiceMetaData21processServiceElementER16QXmlStreamReader 0x000192ec   Data           0  QtServiceFramework.in(.ARM.extab)
    .extab._ZN10QtMobility15ServiceMetaData21processVersionElementER16QXmlStreamReader 0x0001937c   Data           0  QtServiceFramework.in(.ARM.extab)
    .extab._ZN10QtMobility15ServiceMetaData15extractMetadataEv 0x000193ec   Data           0  QtServiceFramework.in(.ARM.extab)
    .extab._ZNK10QtMobility15ServiceMetaData16latestInterfacesEv 0x000195a4   Data           0  QtServiceFramework.in(.ARM.extab)
    .extab._ZNK10QtMobility15ServiceMetaData12parseResultsEv 0x000195b4   Data           0  QtServiceFramework.in(.ARM.extab)
    .extab._ZplRK7QStringS1_                 0x000195f4   Data           0  QtServiceFramework.in(.ARM.extab)
    .extab._Z23qStringComparisonHelperRK10QStringRefPKc 0x00019604   Data           0  QtServiceFramework.in(.ARM.extab)
    .extab._ZN5QListIN10QtMobility27QServiceInterfaceDescriptorEE14node_constructEPNS2_4NodeERKS1_ 0x00019614   Data           0  QtServiceFramework.in(.ARM.extab)
    .extab._ZN5QListIN10QtMobility27QServiceInterfaceDescriptorEE9node_copyEPNS2_4NodeES4_S4_ 0x00019624   Data           0  QtServiceFramework.in(.ARM.extab)
    .extab._ZN5QListIN10QtMobility27QServiceInterfaceDescriptorEE18detach_helper_growEii 0x00019648   Data           0  QtServiceFramework.in(.ARM.extab)
    .extab._ZN5QListIN10QtMobility27QServiceInterfaceDescriptorEE6appendERKS1_ 0x00019678   Data           0  QtServiceFramework.in(.ARM.extab)
    .extab._ZN5QListIN10QtMobility27QServiceInterfaceDescriptorEE13detach_helperEi 0x000196a8   Data           0  QtServiceFramework.in(.ARM.extab)
    .extab._ZN5QListIN10QtMobility27QServiceInterfaceDescriptorEE5clearEv 0x000196c4   Data           0  QtServiceFramework.in(.ARM.extab)
    .extab._ZrsIN10QtMobility27QServiceInterfaceDescriptorEER11QDataStreamS3_R5QListIT_E 0x000196d4   Data           0  QtServiceFramework.in(.ARM.extab)
    .extab._ZN7QString5clearEv               0x000196e4   Data           0  QtServiceFramework.in(.ARM.extab)
    .extab._ZNK20QXmlStreamAttributes12hasAttributeERK7QString 0x000196f4   Data           0  QtServiceFramework.in(.ARM.extab)
    .extab._ZN6QDebuglsEPKc                  0x00019704   Data           0  QtServiceFramework.in(.ARM.extab)
    .extab._ZN9QHashNodeI7QStringS0_EC1ERKS0_S3_ 0x00019714   Data           0  QtServiceFramework.in(.ARM.extab)
    .extab._ZN5QHashIN10QtMobility27QServiceInterfaceDescriptor9AttributeE8QVariantEixERKS2_ 0x00019724   Data           0  QtServiceFramework.in(.ARM.extab)
    .extab._ZN5QHashI7QStringiEixERKS0_      0x0001973c   Data           0  QtServiceFramework.in(.ARM.extab)
    .extab._ZN10QtMobility22ServiceMetaDataResultsD1Ev 0x0001974c   Data           0  QtServiceFramework.in(.ARM.extab)
    .extab._ZN5QHashI7QStringiE13duplicateNodeEPN9QHashData4NodeEPv 0x00019774   Data           0  QtServiceFramework.in(.ARM.extab)
    .extab._ZN5QHashI7QString15QHashDummyValueE13duplicateNodeEPN9QHashData4NodeEPv 0x00019784   Data           0  QtServiceFramework.in(.ARM.extab)
    .extab._ZN5QHashIN10QtMobility27QServiceInterfaceDescriptor9AttributeE8QVariantE13duplicateNodeEPN9QHashData4NodeEPv 0x00019794   Data           0  QtServiceFramework.in(.ARM.extab)
    .extab._ZN5QHashI7QString15QHashDummyValueE6insertERKS0_RKS1_ 0x000197a4   Data           0  QtServiceFramework.in(.ARM.extab)
    .extab._ZN5QHashI7QStringS0_EixERKS0_    0x000197b4   Data           0  QtServiceFramework.in(.ARM.extab)
    .extab._ZN5QHashI7QStringS0_E11deleteNode2EPN9QHashData4NodeE 0x000197cc   Data           0  QtServiceFramework.in(.ARM.extab)
    .extab._ZN5QHashI7QStringS0_E13duplicateNodeEPN9QHashData4NodeEPv 0x000197dc   Data           0  QtServiceFramework.in(.ARM.extab)
    .extab._ZN10QtMobility15QServiceManagerC1EP7QObject 0x000197ec   Data           0  QtServiceFramework.in(.ARM.extab)
    .extab._ZN10QtMobility15QServiceManagerC1ENS_8QService5ScopeEP7QObject 0x00019804   Data           0  QtServiceFramework.in(.ARM.extab)
    .extab._ZN10QtMobility15QServiceManagerD1Ev 0x00019814   Data           0  QtServiceFramework.in(.ARM.extab)
    .extab._ZNK10QtMobility15QServiceManager12findServicesERK7QString 0x00019824   Data           0  QtServiceFramework.in(.ARM.extab)
    .extab._ZNK10QtMobility15QServiceManager14findInterfacesERKNS_14QServiceFilterE 0x00019844   Data           0  QtServiceFramework.in(.ARM.extab)
    .extab._ZNK10QtMobility15QServiceManager14findInterfacesERK7QString 0x00019854   Data           0  QtServiceFramework.in(.ARM.extab)
    .extab._ZNK10QtMobility15QServiceManager16interfaceDefaultERK7QString 0x00019864   Data           0  QtServiceFramework.in(.ARM.extab)
    .extab._ZN10QtMobility34qservicemanager_resolveLibraryPathERK7QString 0x00019874   Data           0  QtServiceFramework.in(.ARM.extab)
    .extab._ZN10QtMobility15QServiceManager13loadInterfaceERKNS_27QServiceInterfaceDescriptorEPNS_15QServiceContextEPNS_24QAbstractSecuritySessionE 0x0001992c   Data           0  QtServiceFramework.in(.ARM.extab)
    .extab._ZN10QtMobility15QServiceManager13loadInterfaceERK7QStringPNS_15QServiceContextEPNS_24QAbstractSecuritySessionE 0x00019ab4   Data           0  QtServiceFramework.in(.ARM.extab)
    .extab._ZN10QtMobility15QServiceManager10addServiceEP9QIODevice 0x00019ac4   Data           0  QtServiceFramework.in(.ARM.extab)
    .extab._ZN10QtMobility15QServiceManager10addServiceERK7QString 0x00019b1c   Data           0  QtServiceFramework.in(.ARM.extab)
    .extab._ZN10QtMobility15QServiceManager13removeServiceERK7QString 0x00019b2c   Data           0  QtServiceFramework.in(.ARM.extab)
    .extab._ZNK13QLatin1StringeqEPKc         0x00019bdc   Data           0  QtServiceFramework.in(.ARM.extab)
    .extab._ZN5QListI7QStringE9node_copyEPNS1_4NodeES3_S3_ 0x00019bec   Data           0  QtServiceFramework.in(.ARM.extab)
    .extab._ZN5QListI7QStringE13detach_helperEi 0x00019c10   Data           0  QtServiceFramework.in(.ARM.extab)
    .extab._ZN5QListI7QStringE18detach_helper_growEii 0x00019c2c   Data           0  QtServiceFramework.in(.ARM.extab)
    .extab._ZN10QtMobility22QServiceManagerPrivateC1EPNS_15QServiceManagerE 0x00019c5c   Data           0  QtServiceFramework.in(.ARM.extab)
    .extab._ZN10QtMobility21QServicePluginCleanupD1Ev 0x00019c74   Data           0  QtServiceFramework.in(.ARM.extab)
    .extab._ZN10QtMobility22QServiceManagerPrivateD1Ev 0x00019c84   Data           0  QtServiceFramework.in(.ARM.extab)
    .extab._ZplRK7QString5QChar              0x00019c94   Data           0  QtServiceFramework.in(.ARM.extab)
    .extab._ZNK4QSetI7QStringE6toListEv      0x00019ca4   Data           0  QtServiceFramework.in(.ARM.extab)
    .extab._ZN5QListI7QStringE6appendERKS0_  0x00019cb4   Data           0  QtServiceFramework.in(.ARM.extab)
    .extab._ZN5QListI7QStringE14node_constructEPNS1_4NodeERKS0_ 0x00019ce4   Data           0  QtServiceFramework.in(.ARM.extab)
    .extab._ZN10QtMobility15QServiceContext11qt_metacallEN11QMetaObject4CallEiPPv 0x00019cf4   Data           0  QtServiceFramework.in(.ARM.extab)
    .extab._ZN10QtMobility15QServiceContextC2EP7QObject 0x00019d0c   Data           0  QtServiceFramework.in(.ARM.extab)
    .extab._ZN10QtMobility15QServiceContextD2Ev 0x00019d3c   Data           0  QtServiceFramework.in(.ARM.extab)
    .extab._ZN10QtMobility15QServiceContext15resetClientDataEv 0x00019d54   Data           0  QtServiceFramework.in(.ARM.extab)
    .extab._ZN9QHashNodeI7QString8QVariantEC1ERKS0_RKS1_ 0x00019d64   Data           0  QtServiceFramework.in(.ARM.extab)
    .extab._ZN5QHashI7QString8QVariantE11deleteNode2EPN9QHashData4NodeE 0x00019d74   Data           0  QtServiceFramework.in(.ARM.extab)
    .extab._ZN5QHashI7QString8QVariantE13duplicateNodeEPN9QHashData4NodeEPv 0x00019d84   Data           0  QtServiceFramework.in(.ARM.extab)
    .extab._ZN5QHashI7QString8QVariantEixERKS0_ 0x00019d94   Data           0  QtServiceFramework.in(.ARM.extab)
    .extab._ZN10QtMobility24ServiceContextClientDataD1Ev 0x00019dac   Data           0  QtServiceFramework.in(.ARM.extab)
    .extab._ZN10QtMobility27QServiceInterfaceDescriptoraSERKS0_ 0x00019dbc   Data           0  QtServiceFramework.in(.ARM.extab)
    .extab._ZNK10QtMobility27QServiceInterfaceDescriptor11serviceNameEv 0x00019dcc   Data           0  QtServiceFramework.in(.ARM.extab)
    .extab._ZNK10QtMobility27QServiceInterfaceDescriptor13interfaceNameEv 0x00019ddc   Data           0  QtServiceFramework.in(.ARM.extab)
    .extab._ZNK10QtMobility27QServiceInterfaceDescriptor15customAttributeERK7QString 0x00019dec   Data           0  QtServiceFramework.in(.ARM.extab)
    .extab._ZNK10QtMobility27QServiceInterfaceDescriptor16customAttributesEv 0x00019dfc   Data           0  QtServiceFramework.in(.ARM.extab)
    .extab._ZN10QtMobilitylsE6QDebugRKNS_27QServiceInterfaceDescriptorE 0x00019e0c   Data           0  QtServiceFramework.in(.ARM.extab)
    .extab._ZN10QtMobilityrsER11QDataStreamRNS_27QServiceInterfaceDescriptorE 0x00019e64   Data           0  QtServiceFramework.in(.ARM.extab)
    .extab._ZN5QHashIN10QtMobility27QServiceInterfaceDescriptor9AttributeE8QVariantE5clearEv 0x00019e8c   Data           0  QtServiceFramework.in(.ARM.extab)
    .extab._ZrsIN10QtMobility27QServiceInterfaceDescriptor9AttributeE8QVariantER11QDataStreamS5_R5QHashIT_T0_E 0x00019e9c   Data           0  QtServiceFramework.in(.ARM.extab)
    .extab._ZN5QHashI7QStringS0_E5clearEv    0x00019eb4   Data           0  QtServiceFramework.in(.ARM.extab)
    .extab._ZN5QHashI7QStringS0_E10createNodeEjRKS0_S3_PP9QHashNodeIS0_S0_E 0x00019ec4   Data           0  QtServiceFramework.in(.ARM.extab)
    .extab._ZrsI7QStringS0_ER11QDataStreamS2_R5QHashIT_T0_E 0x00019ed4   Data           0  QtServiceFramework.in(.ARM.extab)
    .extab._ZN10QtMobility34QServiceInterfaceDescriptorPrivateC1Ev 0x00019ef4   Data           0  QtServiceFramework.in(.ARM.extab)
    .extab._ZN10QtMobility34QServiceInterfaceDescriptorPrivateD1Ev 0x00019f14   Data           0  QtServiceFramework.in(.ARM.extab)
    .extab._ZN10QtMobility14QServiceFilterC1Ev 0x00019f34   Data           0  QtServiceFramework.in(.ARM.extab)
    .extab._ZN10QtMobility14QServiceFilterD1Ev 0x00019f44   Data           0  QtServiceFramework.in(.ARM.extab)
    .extab._ZN10QtMobility14QServiceFilterC1ERKS0_ 0x00019f64   Data           0  QtServiceFramework.in(.ARM.extab)
    .extab._ZN10QtMobility14QServiceFilter12setInterfaceERK7QStringS3_NS0_16VersionMatchRuleE 0x00019f74   Data           0  QtServiceFramework.in(.ARM.extab)
    .extab._ZN10QtMobility14QServiceFilterC1ERK7QStringS3_NS0_16VersionMatchRuleE 0x00019fb4   Data           0  QtServiceFramework.in(.ARM.extab)
    .extab._ZNK10QtMobility14QServiceFilter16customAttributesEv 0x00019fc4   Data           0  QtServiceFramework.in(.ARM.extab)
    .extab._ZN10QtMobilityrsER11QDataStreamRNS_14QServiceFilterE 0x00019fd4   Data           0  QtServiceFramework.in(.ARM.extab)
    .extab._ZN10QtMobility21QServiceFilterPrivateC1Ev 0x00019fec   Data           0  QtServiceFramework.in(.ARM.extab)
    .extab._ZN5QHashI7QStringS0_E6removeERKS0_ 0x0001a00c   Data           0  QtServiceFramework.in(.ARM.extab)
    .extab._ZrsI7QStringER11QDataStreamS2_R5QListIT_E 0x0001a020   Data           0  QtServiceFramework.in(.ARM.extab)
    .extab._ZNK5QHashI7QStringS0_E4keysEv    0x0001a038   Data           0  QtServiceFramework.in(.ARM.extab)
    .extab._ZN10QtMobility7DBErrorC1Ev       0x0001a048   Data           0  QtServiceFramework.in(.ARM.extab)
    .extab._ZN7QStringaSEPKc                 0x0001a068   Data           0  QtServiceFramework.in(.ARM.extab)
    .extab._ZN10QtMobility22QRemoteServiceRegisterC1EP7QObject 0x0001a078   Data           0  QtServiceFramework.in(.ARM.extab)
    .extab._ZN10QtMobility22QRemoteServiceRegister5EntryC1Ev 0x0001a088   Data           0  QtServiceFramework.in(.ARM.extab)
    .extab._ZN10QtMobility22QRemoteServiceRegister11createEntryERK7QStringS3_S3_PFP7QObjectvEPK11QMetaObject 0x0001a0a8   Data           0  QtServiceFramework.in(.ARM.extab)
    .extab._ZN10QtMobilitylsE6QDebugRKNS_22QRemoteServiceRegister5EntryE 0x0001a0d0   Data           0  QtServiceFramework.in(.ARM.extab)
    .extab._ZN10QtMobility34QRemoteServiceRegisterEntryPrivateD1Ev 0x0001a100   Data           0  QtServiceFramework.in(.ARM.extab)
    .extab._ZN10QtMobility23RDatabaseManagerSession11StartServerEv 0x0001a118   Data           0  QtServiceFramework.in(.ARM.extab)
    .extab._ZN10QtMobility23RDatabaseManagerSession15RegisterServiceERNS_22ServiceMetaDataResultsE 0x0001a124   Data           0  QtServiceFramework.in(.ARM.extab)
    .extab._ZN10QtMobility23RDatabaseManagerSession10InterfacesERKNS_14QServiceFilterE 0x0001a144   Data           0  QtServiceFramework.in(.ARM.extab)
    .extab._ZN10QtMobility23RDatabaseManagerSession12ServiceNamesERK7QString 0x0001a18c   Data           0  QtServiceFramework.in(.ARM.extab)
    .extab._ZN10QtMobility23RDatabaseManagerSession16InterfaceDefaultERK7QString 0x0001a1b4   Data           0  QtServiceFramework.in(.ARM.extab)
    .extab._ZN10QtMobility23RDatabaseManagerSession19SetInterfaceDefaultERKNS_27QServiceInterfaceDescriptorE 0x0001a1dc   Data           0  QtServiceFramework.in(.ARM.extab)
    .extab._ZN10QtMobility23RDatabaseManagerSession9LastErrorEv 0x0001a1fc   Data           0  QtServiceFramework.in(.ARM.extab)
    .extab._ZN10QtMobility28DatabaseManagerSignalMonitorC1ERNS_15DatabaseManagerERNS_23RDatabaseManagerSessionE 0x0001a21c   Data           0  QtServiceFramework.in(.ARM.extab)
    .extab._ZN10QtMobility15DatabaseManagerC1Ev 0x0001a22c   Data           0  QtServiceFramework.in(.ARM.extab)
    .extab._ZN10QtMobility15DatabaseManagerD1Ev 0x0001a244   Data           0  QtServiceFramework.in(.ARM.extab)
    .extab._ZN10QtMobility28DatabaseManagerSignalMonitorD1Ev 0x0001a254   Data           0  QtServiceFramework.in(.ARM.extab)
    .extab._ZN10QtMobility28DatabaseManagerSignalMonitor4RunLEv 0x0001a264   Data           0  QtServiceFramework.in(.ARM.extab)
    .extab._ZN5CBasenwEj                     0x0001a274   Data           0  QtServiceFramework.in(.ARM.extab)
    .extab._ZN5QListI7QStringE5clearEv       0x0001a284   Data           0  QtServiceFramework.in(.ARM.extab)
    .extab._ZN10QtMobility22ServiceMessageListenerC1EPNS_15RServiceSessionEPNS_21SymbianClientEndPointE 0x0001a294   Data           0  QtServiceFramework.in(.ARM.extab)
    .extab._ZN10QtMobility15RServiceSession11StartServerEv 0x0001a2ac   Data           0  QtServiceFramework.in(.ARM.extab)
    .extab._ZN10QtMobility15RServiceSessionC1E7QString 0x0001a2c0   Data           0  QtServiceFramework.in(.ARM.extab)
    .extab._ZN10QtMobility29QRemoteServiceRegisterPrivate15proxyForServiceERKNS_22QRemoteServiceRegister5EntryERK7QString 0x0001a2d8   Data           0  QtServiceFramework.in(.ARM.extab)
    .extab._ZN10QtMobility29QRemoteServiceRegisterPrivate22constructPrivateObjectEP7QObject 0x0001a320   Data           0  QtServiceFramework.in(.ARM.extab)
    .extab._ZN10QtMobility15RServiceSessionD1Ev 0x0001a330   Data           0  QtServiceFramework.in(.ARM.extab)
    .extab._ZN10QtMobility15RServiceSession18SendServicePackageERKNS_15QServicePackageE 0x0001a348   Data           0  QtServiceFramework.in(.ARM.extab)
    .extab._ZN10QtMobility36QRemoteServiceRegisterSymbianPrivate15processIncomingEPNS_29CServiceProviderServerSessionE 0x0001a368   Data           0  QtServiceFramework.in(.ARM.extab)
    .extab._ZN10QtMobility29CServiceProviderServerSessionC1ERNS_22CServiceProviderServerE 0x0001a380   Data           0  QtServiceFramework.in(.ARM.extab)
    .extab._ZN10QtMobility29CServiceProviderServerSessionD1Ev 0x0001a398   Data           0  QtServiceFramework.in(.ARM.extab)
    .extab._ZN10QtMobility29CServiceProviderServerSession19SendServicePackageLERKNS_15QServicePackageE 0x0001a3b8   Data           0  QtServiceFramework.in(.ARM.extab)
    .extab._ZN10QtMobility29CServiceProviderServerSession21HandlePackageRequestLERK9RMessage2 0x0001a3f0   Data           0  QtServiceFramework.in(.ARM.extab)
    .extab._ZN10QtMobility29CServiceProviderServerSession21HandleServicePackageLERK9RMessage2 0x0001a408   Data           0  QtServiceFramework.in(.ARM.extab)
    .extab._ZN10QtMobility36QRemoteServiceRegisterSymbianPrivateD1Ev 0x0001a468   Data           0  QtServiceFramework.in(.ARM.extab)
    .extab._ZN10QtMobility36QRemoteServiceRegisterSymbianPrivate15publishServicesERK7QString 0x0001a478   Data           0  QtServiceFramework.in(.ARM.extab)
    .extab._ZN10QtMobility22ServiceMessageListenerD1Ev 0x0001a488   Data           0  QtServiceFramework.in(.ARM.extab)
    .extab._ZN10QtMobility22ServiceMessageListener4RunLEv 0x0001a4a0   Data           0  QtServiceFramework.in(.ARM.extab)
    .extab._ZN6QDebugC1E9QtMsgType           0x0001a4d0   Data           0  QtServiceFramework.in(.ARM.extab)
    .extab._ZN6QDebugD1Ev                    0x0001a4e8   Data           0  QtServiceFramework.in(.ARM.extab)
    .extab._ZN5QListIN10QtMobility15QServicePackageEE9node_copyEPNS2_4NodeES4_S4_ 0x0001a50c   Data           0  QtServiceFramework.in(.ARM.extab)
    .extab._ZN5QListIN10QtMobility15QServicePackageEE14node_constructEPNS2_4NodeERKS1_ 0x0001a530   Data           0  QtServiceFramework.in(.ARM.extab)
    .extab._ZN5QListIN10QtMobility15QServicePackageEE18detach_helper_growEii 0x0001a540   Data           0  QtServiceFramework.in(.ARM.extab)
    .extab._ZN10QtMobility21SymbianServerEndPointD1Ev 0x0001a570   Data           0  QtServiceFramework.in(.ARM.extab)
    .extab._ZN5QListIN10QtMobility15QServicePackageEE6appendERKS1_ 0x0001a580   Data           0  QtServiceFramework.in(.ARM.extab)
    .extab._ZN10QtMobility21SymbianServerEndPoint12flushPackageERKNS_15QServicePackageE 0x0001a5b0   Data           0  QtServiceFramework.in(.ARM.extab)
    .extab._ZN10QtMobility12openRequestsEv   0x0001a5e0   Data           0  QtServiceFramework.in(.ARM.extab)
    .extab._ZN10QtMobility14ObjectEndPoint12propertyCallERKNS_15QServicePackageE 0x0001a5f8   Data           0  QtServiceFramework.in(.ARM.extab)
    .extab._ZN10QtMobility14ObjectEndPoint10methodCallERKNS_15QServicePackageE 0x0001a678   Data           0  QtServiceFramework.in(.ARM.extab)
    .extab._ZN10QtMobility14ObjectEndPoint13objectRequestERKNS_15QServicePackageE 0x0001a728   Data           0  QtServiceFramework.in(.ARM.extab)
    .extab._ZN10QtMobility14ObjectEndPoint15newPackageReadyEv 0x0001a7f8   Data           0  QtServiceFramework.in(.ARM.extab)
    .extab._ZN10QtMobility14ObjectEndPointC1ENS0_4TypeEPNS_19QServiceIpcEndPointEP7QObject 0x0001a818   Data           0  QtServiceFramework.in(.ARM.extab)
    .extab._ZN10QtMobility14ObjectEndPointD1Ev 0x0001a840   Data           0  QtServiceFramework.in(.ARM.extab)
    .extab._ZN10QtMobility14ObjectEndPoint15waitForResponseERK5QUuid 0x0001a858   Data           0  QtServiceFramework.in(.ARM.extab)
    .extab._ZN10QtMobility14ObjectEndPoint14constructProxyERKNS_22QRemoteServiceRegister5EntryE 0x0001a880   Data           0  QtServiceFramework.in(.ARM.extab)
    .extab._ZN10QtMobility14ObjectEndPoint12invokeRemoteEiRK5QListI8QVariantEi 0x0001a8d0   Data           0  QtServiceFramework.in(.ARM.extab)
    .extab._ZN10QtMobility14ObjectEndPoint20invokeRemotePropertyEiRK8QVariantiN11QMetaObject4CallE 0x0001a970   Data           0  QtServiceFramework.in(.ARM.extab)
    .extab._ZN5QListI8QVariantE14node_constructEPNS1_4NodeERKS0_ 0x0001aa10   Data           0  QtServiceFramework.in(.ARM.extab)
    .extab._ZN5QListI8QVariantE9node_copyEPNS1_4NodeES3_S3_ 0x0001aa20   Data           0  QtServiceFramework.in(.ARM.extab)
    .extab._ZN5QListI8QVariantE18detach_helper_growEii 0x0001aa44   Data           0  QtServiceFramework.in(.ARM.extab)
    .extab._ZN5QListI8QVariantE13detach_helperEi 0x0001aa74   Data           0  QtServiceFramework.in(.ARM.extab)
    .extab._ZrsI8QVariantER11QDataStreamS2_R5QListIT_E 0x0001aa90   Data           0  QtServiceFramework.in(.ARM.extab)
    .extab._ZNK5QHashI5QUuidPN10QtMobility8ResponseEE8findNodeERKS0_Pj 0x0001aaa8   Data           0  QtServiceFramework.in(.ARM.extab)
    .extab._ZN5QHashI5QUuidPN10QtMobility8ResponseEE4takeERKS0_ 0x0001aab8   Data           0  QtServiceFramework.in(.ARM.extab)
    .extab._ZN5QHashI5QUuidPN10QtMobility8ResponseEE6insertERKS0_RKS3_ 0x0001aacc   Data           0  QtServiceFramework.in(.ARM.extab)
    .extab._ZN10QtMobility22QServicePackagePrivateC1Ev 0x0001aadc   Data           0  QtServiceFramework.in(.ARM.extab)
    .extab._ZN10QtMobility21ObjectEndPointPrivate23setupSignalInterceptersEP7QObject 0x0001ab0c   Data           0  QtServiceFramework.in(.ARM.extab)
    .extab._ZN5QListI8QVariantE6appendERKS0_ 0x0001ab34   Data           0  QtServiceFramework.in(.ARM.extab)
    .extab._ZN5QHashI5QUuidPN10QtMobility8ResponseEE13duplicateNodeEPN9QHashData4NodeEPv 0x0001ab64   Data           0  QtServiceFramework.in(.ARM.extab)
    .extab._ZN10QtMobility22QServicePackagePrivate5cleanEv 0x0001ab74   Data           0  QtServiceFramework.in(.ARM.extab)
    .extab._ZN10QtMobility12QSlotInvoker6invokeERK5QListI8QVariantE 0x0001ab8c   Data           0  QtServiceFramework.in(.ARM.extab)
    .extab._ZN10QtMobility12QSlotInvoker11qt_metacallEN11QMetaObject4CallEiPPv 0x0001abc4   Data           0  QtServiceFramework.in(.ARM.extab)
    .extab._ZN10QtMobility12QSlotInvokerC1EP7QObjectRK10QByteArrayS2_ 0x0001abd4   Data           0  QtServiceFramework.in(.ARM.extab)
    .extab._ZN10QtMobility12QSlotInvokerD1Ev 0x0001ac2c   Data           0  QtServiceFramework.in(.ARM.extab)
    .extab._ZN10QtMobility18QSignalIntercepter15connectionTypesERK10QByteArrayRi 0x0001ac44   Data           0  QtServiceFramework.in(.ARM.extab)
    .extab._ZN10QtMobility18QSignalIntercepterC2EP7QObjectRK10QByteArrayS2_ 0x0001ac54   Data           0  QtServiceFramework.in(.ARM.extab)
    .extab._ZN10QtMobility18QSignalIntercepterD2Ev 0x0001ac8c   Data           0  QtServiceFramework.in(.ARM.extab)
    .extab._ZN10QtMobility18QSignalIntercepter11qt_metacallEN11QMetaObject4CallEiPPv 0x0001aca4   Data           0  QtServiceFramework.in(.ARM.extab)
    .extab._Z19buildParameterNamesRK10QByteArrayRK5QListIS_E 0x0001acc4   Data           0  QtServiceFramework.in(.ARM.extab)
    .extab._ZN18QMetaObjectBuilderC1Ev       0x0001acec   Data           0  QtServiceFramework.in(.ARM.extab)
    .extab._ZN18QMetaObjectBuilder20addRelatedMetaObjectERKPFRK11QMetaObjectvE 0x0001acfc   Data           0  QtServiceFramework.in(.ARM.extab)
    .extab._ZN18QMetaObjectBuilder13addEnumeratorERK10QByteArray 0x0001ad18   Data           0  QtServiceFramework.in(.ARM.extab)
    .extab._ZN18QMetaObjectBuilder13addEnumeratorERK9QMetaEnum 0x0001ad38   Data           0  QtServiceFramework.in(.ARM.extab)
    .extab._ZN18QMetaMethodBuilder13setReturnTypeERK10QByteArray 0x0001ad50   Data           0  QtServiceFramework.in(.ARM.extab)
    .extab._ZN18QMetaObjectBuilder14addConstructorERK10QByteArray 0x0001ad60   Data           0  QtServiceFramework.in(.ARM.extab)
    .extab._ZN18QMetaObjectBuilder7addSlotERK10QByteArray 0x0001ad80   Data           0  QtServiceFramework.in(.ARM.extab)
    .extab._ZN18QMetaObjectBuilder9addSignalERK10QByteArray 0x0001ada0   Data           0  QtServiceFramework.in(.ARM.extab)
    .extab._ZN18QMetaObjectBuilder9addMethodERK10QByteArray 0x0001adc0   Data           0  QtServiceFramework.in(.ARM.extab)
    .extab._ZN18QMetaObjectBuilder9addMethodERK11QMetaMethod 0x0001ade0   Data           0  QtServiceFramework.in(.ARM.extab)
    .extab._ZN18QMetaObjectBuilder13indexOfMethodERK10QByteArray 0x0001ae20   Data           0  QtServiceFramework.in(.ARM.extab)
    .extab._ZN18QMetaObjectBuilder11addPropertyERK10QByteArrayS2_i 0x0001ae38   Data           0  QtServiceFramework.in(.ARM.extab)
    .extab._ZN18QMetaObjectBuilder11addPropertyERK13QMetaProperty 0x0001ae60   Data           0  QtServiceFramework.in(.ARM.extab)
    .extab._ZN18QMetaObjectBuilder14addConstructorERK11QMetaMethod 0x0001ae88   Data           0  QtServiceFramework.in(.ARM.extab)
    .extab._ZN18QMetaObjectBuilder13addMetaObjectEPK11QMetaObject6QFlagsINS_9AddMemberEE 0x0001aeb0   Data           0  QtServiceFramework.in(.ARM.extab)
    .extab._ZN18QMetaObjectBuilderC1EPK11QMetaObject6QFlagsINS_9AddMemberEE 0x0001aed0   Data           0  QtServiceFramework.in(.ARM.extab)
    .extab._ZN18QMetaObjectBuilder9addMethodERK10QByteArrayS2_ 0x0001aee0   Data           0  QtServiceFramework.in(.ARM.extab)
    .extab._ZN18QMetaObjectBuilder13indexOfSignalERK10QByteArray 0x0001aef0   Data           0  QtServiceFramework.in(.ARM.extab)
    .extab._ZN18QMetaObjectBuilder11indexOfSlotERK10QByteArray 0x0001af08   Data           0  QtServiceFramework.in(.ARM.extab)
    .extab._ZN18QMetaObjectBuilder18indexOfConstructorERK10QByteArray 0x0001af20   Data           0  QtServiceFramework.in(.ARM.extab)
    .extab._ZNK18QMetaObjectBuilder17toRelocatableDataEPb 0x0001af38   Data           0  QtServiceFramework.in(.ARM.extab)
    .extab._ZNK18QMetaObjectBuilder9serializeER11QDataStream 0x0001af48   Data           0  QtServiceFramework.in(.ARM.extab)
    .extab._ZN18QMetaObjectBuilder11deserializeER11QDataStreamRK4QMapI10QByteArrayPK11QMetaObjectE 0x0001af68   Data           0  QtServiceFramework.in(.ARM.extab)
    .extab._Z16resolveClassNameRK4QMapI10QByteArrayPK11QMetaObjectERKS0_ 0x0001afb0   Data           0  QtServiceFramework.in(.ARM.extab)
    .extab._ZN5QListI10QByteArrayE9node_copyEPNS1_4NodeES3_S3_ 0x0001afc0   Data           0  QtServiceFramework.in(.ARM.extab)
    .extab._ZN5QListI10QByteArrayE13detach_helperEi 0x0001afe4   Data           0  QtServiceFramework.in(.ARM.extab)
    .extab._ZN5QListIPFRK11QMetaObjectvEE13detach_helperEv 0x0001b000   Data           0  QtServiceFramework.in(.ARM.extab)
    .extab._ZN25QMetaMethodBuilderPrivateD1Ev 0x0001b01c   Data           0  QtServiceFramework.in(.ARM.extab)
    .extab._ZN25QMetaMethodBuilderPrivateC1ERKS_ 0x0001b03c   Data           0  QtServiceFramework.in(.ARM.extab)
    .extab._ZN5QListI25QMetaMethodBuilderPrivateE9node_copyEPNS1_4NodeES3_S3_ 0x0001b05c   Data           0  QtServiceFramework.in(.ARM.extab)
    .extab._ZN5QListI25QMetaMethodBuilderPrivateE13detach_helperEv 0x0001b080   Data           0  QtServiceFramework.in(.ARM.extab)
    .extab._ZN5QListIiE13detach_helperEi     0x0001b09c   Data           0  QtServiceFramework.in(.ARM.extab)
    .extab._ZN23QMetaEnumBuilderPrivateD1Ev  0x0001b0b8   Data           0  QtServiceFramework.in(.ARM.extab)
    .extab._ZN23QMetaEnumBuilderPrivateC1ERKS_ 0x0001b0d0   Data           0  QtServiceFramework.in(.ARM.extab)
    .extab._ZN5QListI23QMetaEnumBuilderPrivateE9node_copyEPNS1_4NodeES3_S3_ 0x0001b0e8   Data           0  QtServiceFramework.in(.ARM.extab)
    .extab._ZN5QListI23QMetaEnumBuilderPrivateE13detach_helperEv 0x0001b10c   Data           0  QtServiceFramework.in(.ARM.extab)
    .extab._ZN27QMetaPropertyBuilderPrivateC1ERKS_ 0x0001b128   Data           0  QtServiceFramework.in(.ARM.extab)
    .extab._ZN5QListI27QMetaPropertyBuilderPrivateE9node_copyEPNS1_4NodeES3_S3_ 0x0001b138   Data           0  QtServiceFramework.in(.ARM.extab)
    .extab._ZN5QListI27QMetaPropertyBuilderPrivateE13detach_helperEv 0x0001b15c   Data           0  QtServiceFramework.in(.ARM.extab)
    .extab._ZN5QListI10QByteArrayE18detach_helper_growEii 0x0001b178   Data           0  QtServiceFramework.in(.ARM.extab)
    .extab._ZN5QListI10QByteArrayE6appendERKS0_ 0x0001b1a8   Data           0  QtServiceFramework.in(.ARM.extab)
    .extab._ZN5QListI10QByteArrayE5clearEv   0x0001b1d8   Data           0  QtServiceFramework.in(.ARM.extab)
    .extab._ZrsI10QByteArrayER11QDataStreamS2_R5QListIT_E 0x0001b1e8   Data           0  QtServiceFramework.in(.ARM.extab)
    .extab._ZN5QListIiE18detach_helper_growEii 0x0001b1f8   Data           0  QtServiceFramework.in(.ARM.extab)
    .extab._ZN5QListIiE6appendERKi           0x0001b228   Data           0  QtServiceFramework.in(.ARM.extab)
    .extab._ZN25QMetaObjectBuilderPrivateC1Ev 0x0001b244   Data           0  QtServiceFramework.in(.ARM.extab)
    .extab._ZN5QListIPFRK11QMetaObjectvEE18detach_helper_growEii 0x0001b284   Data           0  QtServiceFramework.in(.ARM.extab)
    .extab._ZN5QListI23QMetaEnumBuilderPrivateE14node_constructEPNS1_4NodeERKS0_ 0x0001b2b4   Data           0  QtServiceFramework.in(.ARM.extab)
    .extab._ZN5QListI23QMetaEnumBuilderPrivateE18detach_helper_growEii 0x0001b2c4   Data           0  QtServiceFramework.in(.ARM.extab)
    .extab._ZN25QMetaMethodBuilderPrivateC1EN11QMetaMethod10MethodTypeERK10QByteArrayS4_NS0_6AccessE 0x0001b2f4   Data           0  QtServiceFramework.in(.ARM.extab)
    .extab._ZN5QListI25QMetaMethodBuilderPrivateE14node_constructEPNS1_4NodeERKS0_ 0x0001b32c   Data           0  QtServiceFramework.in(.ARM.extab)
    .extab._ZN5QListI25QMetaMethodBuilderPrivateE18detach_helper_growEii 0x0001b33c   Data           0  QtServiceFramework.in(.ARM.extab)
    .extab._ZN5QListI25QMetaMethodBuilderPrivateE6appendERKS0_ 0x0001b36c   Data           0  QtServiceFramework.in(.ARM.extab)
    .extab._ZN5QListI27QMetaPropertyBuilderPrivateE14node_constructEPNS1_4NodeERKS0_ 0x0001b39c   Data           0  QtServiceFramework.in(.ARM.extab)
    .extab._ZN5QListI27QMetaPropertyBuilderPrivateE18detach_helper_growEii 0x0001b3ac   Data           0  QtServiceFramework.in(.ARM.extab)
    .extab._ZN5QListI25QMetaMethodBuilderPrivateE5clearEv 0x0001b3dc   Data           0  QtServiceFramework.in(.ARM.extab)
    .extab._ZN27QMetaPropertyBuilderPrivateD1Ev 0x0001b3ec   Data           0  QtServiceFramework.in(.ARM.extab)
    .extab._ZN5QListI10QByteArrayE14node_constructEPNS1_4NodeERKS0_ 0x0001b3fc   Data           0  QtServiceFramework.in(.ARM.extab)
    .extab._ZrsIiER11QDataStreamS1_R5QListIT_E 0x0001b40c   Data           0  QtServiceFramework.in(.ARM.extab)
    .extab._ZN5QListI23QMetaEnumBuilderPrivateE6appendERKS0_ 0x0001b41c   Data           0  QtServiceFramework.in(.ARM.extab)
    .extab._ZN5QListI27QMetaPropertyBuilderPrivateE6appendERKS0_ 0x0001b44c   Data           0  QtServiceFramework.in(.ARM.extab)
    .extab._ZN25QMetaObjectBuilderPrivateD1Ev 0x0001b47c   Data           0  QtServiceFramework.in(.ARM.extab)
    .extab._ZN10QtMobility15InstanceManagerC1EP7QObject 0x0001b4bc   Data           0  QtServiceFramework.in(.ARM.extab)
    .extab._ZN10QtMobility15InstanceManagerD1Ev 0x0001b4d4   Data           0  QtServiceFramework.in(.ARM.extab)
    .extab._ZN10QtMobility15InstanceManager7addTypeERKNS_22QRemoteServiceRegister5EntryE 0x0001b53c   Data           0  QtServiceFramework.in(.ARM.extab)
    .extab._ZNK10QtMobility15InstanceManager10metaObjectERKNS_22QRemoteServiceRegister5EntryE 0x0001b5b4   Data           0  QtServiceFramework.in(.ARM.extab)
    .extab._ZNK10QtMobility15InstanceManager10allEntriesEv 0x0001b5c4   Data           0  QtServiceFramework.in(.ARM.extab)
    .extab._ZNK10QtMobility15InstanceManager14totalInstancesEv 0x0001b5d4   Data           0  QtServiceFramework.in(.ARM.extab)
    .extab._ZN10QtMobility15InstanceManager20createObjectInstanceERKNS_22QRemoteServiceRegister5EntryER5QUuid 0x0001b5fc   Data           0  QtServiceFramework.in(.ARM.extab)
    .extab._ZN10QtMobility15InstanceManager20removeObjectInstanceERKNS_22QRemoteServiceRegister5EntryERK5QUuid 0x0001b614   Data           0  QtServiceFramework.in(.ARM.extab)
    .extab._ZN10QtMobility12typeRegisterEv   0x0001b624   Data           0  QtServiceFramework.in(.ARM.extab)
    .extab._ZN5QListIN10QtMobility22QRemoteServiceRegister5EntryEE9node_copyEPNS3_4NodeES5_S5_ 0x0001b63c   Data           0  QtServiceFramework.in(.ARM.extab)
    .extab._ZN5QListIN10QtMobility22QRemoteServiceRegister5EntryEE13detach_helperEi 0x0001b660   Data           0  QtServiceFramework.in(.ARM.extab)
    .extab._ZN9QHashData9hasShrunkEv         0x0001b67c   Data           0  QtServiceFramework.in(.ARM.extab)
    .extab._ZN5QListIN10QtMobility22QRemoteServiceRegister5EntryEE14node_constructEPNS3_4NodeERKS2_ 0x0001b690   Data           0  QtServiceFramework.in(.ARM.extab)
    .extab._ZN5QListIN10QtMobility22QRemoteServiceRegister5EntryEE18detach_helper_growEii 0x0001b6a0   Data           0  QtServiceFramework.in(.ARM.extab)
    .extab._ZN5QListI5QUuidE9node_copyEPNS1_4NodeES3_S3_ 0x0001b6d0   Data           0  QtServiceFramework.in(.ARM.extab)
    .extab._ZN5QListI5QUuidE13detach_helperEi 0x0001b6f4   Data           0  QtServiceFramework.in(.ARM.extab)
    .extab._ZN5QListI5QUuidE14node_constructEPNS1_4NodeERKS0_ 0x0001b710   Data           0  QtServiceFramework.in(.ARM.extab)
    .extab._ZN5QListI5QUuidE18detach_helper_growEii 0x0001b720   Data           0  QtServiceFramework.in(.ARM.extab)
    .extab._ZN10QtMobility22ServiceIdentDescriptorC1ERKS0_ 0x0001b750   Data           0  QtServiceFramework.in(.ARM.extab)
    .extab._ZN9QHashNodeIN10QtMobility22QRemoteServiceRegister5EntryENS0_22ServiceIdentDescriptorEEC1ERKS2_RKS3_ 0x0001b760   Data           0  QtServiceFramework.in(.ARM.extab)
    .extab._ZN10QtMobility22ServiceIdentDescriptorC1Ev 0x0001b770   Data           0  QtServiceFramework.in(.ARM.extab)
    .extab._ZNK5QHashI5QUuidP7QObjectE8findNodeERKS0_Pj 0x0001b788   Data           0  QtServiceFramework.in(.ARM.extab)
    .extab._ZNK5QHashIN10QtMobility22QRemoteServiceRegister5EntryENS0_22ServiceIdentDescriptorEE8findNodeERKS2_Pj 0x0001b798   Data           0  QtServiceFramework.in(.ARM.extab)
    .extab._ZNK5QHashIN10QtMobility22QRemoteServiceRegister5EntryENS0_22ServiceIdentDescriptorEE4keysEv 0x0001b7c8   Data           0  QtServiceFramework.in(.ARM.extab)
    .extab._ZN5QHashIN10QtMobility22QRemoteServiceRegister5EntryENS0_22ServiceIdentDescriptorEE10createNodeEjRKS2_RKS3_PP9QHashNodeIS2_S3_E 0x0001b7d8   Data           0  QtServiceFramework.in(.ARM.extab)
    .extab._ZN5QHashIN10QtMobility22QRemoteServiceRegister5EntryENS0_22ServiceIdentDescriptorEEixERKS2_ 0x0001b7e8   Data           0  QtServiceFramework.in(.ARM.extab)
    .extab._ZN5QListIN10QtMobility22QRemoteServiceRegister5EntryEE6appendERKS2_ 0x0001b7f8   Data           0  QtServiceFramework.in(.ARM.extab)
    .extab._ZN10QtMobility22ServiceIdentDescriptorD1Ev 0x0001b828   Data           0  QtServiceFramework.in(.ARM.extab)
    .extab._ZN5QHashI5QUuidP7QObjectE13duplicateNodeEPN9QHashData4NodeEPv 0x0001b838   Data           0  QtServiceFramework.in(.ARM.extab)
    .extab._ZNK5QHashI5QUuidP7QObjectE4keysEv 0x0001b848   Data           0  QtServiceFramework.in(.ARM.extab)
    .extab._ZN5QHashI5QUuidP7QObjectE6insertERKS0_RKS2_ 0x0001b858   Data           0  QtServiceFramework.in(.ARM.extab)
    .extab._ZN5QHashIN10QtMobility22QRemoteServiceRegister5EntryENS0_22ServiceIdentDescriptorEE11deleteNode2EPN9QHashData4NodeE 0x0001b868   Data           0  QtServiceFramework.in(.ARM.extab)
    .extab._ZN5QHashIN10QtMobility22QRemoteServiceRegister5EntryENS0_22ServiceIdentDescriptorEE13duplicateNodeEPN9QHashData4NodeEPv 0x0001b878   Data           0  QtServiceFramework.in(.ARM.extab)
    .extab._ZN5QHashIN10QtMobility22QRemoteServiceRegister5EntryENS0_22ServiceIdentDescriptorEE4takeERKS2_ 0x0001b888   Data           0  QtServiceFramework.in(.ARM.extab)
    .extab._ZN5QListI5QUuidE6appendERKS0_    0x0001b898   Data           0  QtServiceFramework.in(.ARM.extab)
    .extab._ZNK10QtMobility15QServicePackage14createResponseEv 0x0001b8c8   Data           0  QtServiceFramework.in(.ARM.extab)
    .extab._ZN10QtMobilityrsER11QDataStreamRNS_15QServicePackageE 0x0001b8d8   Data           0  QtServiceFramework.in(.ARM.extab)
    .extab._ZN10QtMobilitylsE6QDebugRKNS_15QServicePackageE 0x0001b900   Data           0  QtServiceFramework.in(.ARM.extab)
    .extab._ZN10QtMobility22QServicePackagePrivateD1Ev 0x0001b960   Data           0  QtServiceFramework.in(.ARM.extab)
    .extab._ZN28QExplicitlySharedDataPointerIN10QtMobility22QServicePackagePrivateEE5cloneEv 0x0001b970   Data           0  QtServiceFramework.in(.ARM.extab)
    .extab._ZN10QtMobility13QServiceProxyC1ERK10QByteArrayPNS_14ObjectEndPointEP7QObject 0x0001b988   Data           0  QtServiceFramework.in(.ARM.extab)
    .extab._ZN10QtMobility13QServiceProxyD1Ev 0x0001b9f8   Data           0  QtServiceFramework.in(.ARM.extab)
    .extab._ZN10QtMobility13QServiceProxy11qt_metacallEN11QMetaObject4CallEiPPv 0x0001ba10   Data           0  QtServiceFramework.in(.ARM.extab)
    .extab._ZN7QVectorIbE7reallocEii         0x0001bb00   Data           0  QtServiceFramework.in(.ARM.extab)
    .extab._ZN10QtMobility19QServiceIpcEndPointC2EP7QObject 0x0001bb1c   Data           0  QtServiceFramework.in(.ARM.extab)
    .extab._ZN10QtMobility19QServiceIpcEndPointD2Ev 0x0001bb2c   Data           0  QtServiceFramework.in(.ARM.extab)
    .extab._ZN10QtMobility19QServiceIpcEndPoint11nextPackageEv 0x0001bb4c   Data           0  QtServiceFramework.in(.ARM.extab)
    .extab._ZN5QListIN10QtMobility15QServicePackageEE13detach_helperEi 0x0001bb5c   Data           0  QtServiceFramework.in(.ARM.extab)
    .extab._ZN10QtMobility29QRemoteServiceRegisterPrivateC2EP7QObject 0x0001bba0   Data           0  QtServiceFramework.in(.ARM.extab)
    .constdata$1                             0x0001bbb0   Data           0  QtServiceFramework.in(.constdata)
    .constdata                               0x0001bbb0   Section      140  QtServiceFramework.in(.constdata)
    .constdata$1                             0x0001bc3c   Data           0  QtServiceFramework.in(.constdata)
    .constdata                               0x0001bc3c   Section      440  QtServiceFramework.in(.constdata)
    QtMobility::qt_meta_stringdata_QServiceManager 0x0001bc6c   Data         114  QtServiceFramework.in(.constdata)
    QtMobility::qt_meta_stringdata_QServicePluginCleanup 0x0001bcde   Data          23  QtServiceFramework.in(.constdata)
    QtMobility::qt_meta_stringdata_QServiceManagerPrivate 0x0001bcf5   Data         137  QtServiceFramework.in(.constdata)
    .constdata$34                            0x0001bdf4   Data           0  QtServiceFramework.in(.constdata)
    QtMobility::qt_meta_data_QServiceManager 0x0001bdf4   Data         100  QtServiceFramework.in(.constdata)
    .constdata                               0x0001bdf4   Section      100  QtServiceFramework.in(.constdata)
    .constdata$40                            0x0001be58   Data           0  QtServiceFramework.in(.constdata)
    QtMobility::qt_meta_data_QServicePluginCleanup 0x0001be58   Data          60  QtServiceFramework.in(.constdata)
    .constdata                               0x0001be58   Section       60  QtServiceFramework.in(.constdata)
    .constdata$46                            0x0001be94   Data           0  QtServiceFramework.in(.constdata)
    QtMobility::qt_meta_data_QServiceManagerPrivate 0x0001be94   Data         100  QtServiceFramework.in(.constdata)
    .constdata                               0x0001be94   Section      100  QtServiceFramework.in(.constdata)
    .constdata$1                             0x0001bef8   Data           0  QtServiceFramework.in(.constdata)
    .constdata                               0x0001bef8   Section       61  QtServiceFramework.in(.constdata)
    QtMobility::qt_meta_stringdata_QServiceContext 0x0001bf08   Data          45  QtServiceFramework.in(.constdata)
    .constdata$28                            0x0001bf38   Data           0  QtServiceFramework.in(.constdata)
    QtMobility::qt_meta_data_QServiceContext 0x0001bf38   Data          84  QtServiceFramework.in(.constdata)
    .constdata                               0x0001bf38   Section       84  QtServiceFramework.in(.constdata)
    .constdata$1                             0x0001bf8c   Data           0  QtServiceFramework.in(.constdata)
    .constdata                               0x0001bf8c   Section       42  QtServiceFramework.in(.constdata)
    QtMobility::qt_meta_stringdata_QAbstractSecuritySession 0x0001bf9c   Data          26  QtServiceFramework.in(.constdata)
    .constdata$28                            0x0001bfb8   Data           0  QtServiceFramework.in(.constdata)
    QtMobility::qt_meta_data_QAbstractSecuritySession 0x0001bfb8   Data          60  QtServiceFramework.in(.constdata)
    .constdata                               0x0001bfb8   Section       60  QtServiceFramework.in(.constdata)
    .constdata$1                             0x0001bff4   Data           0  QtServiceFramework.in(.constdata)
    .constdata                               0x0001bff4   Section       68  QtServiceFramework.in(.constdata)
    .constdata$1                             0x0001c038   Data           0  QtServiceFramework.in(.constdata)
    .constdata                               0x0001c038   Section      244  QtServiceFramework.in(.constdata)
    QtMobility::qt_meta_stringdata_QRemoteServiceRegister 0x0001c048   Data         128  QtServiceFramework.in(.constdata)
    .constdata$28                            0x0001c12c   Data           0  QtServiceFramework.in(.constdata)
    QtMobility::qt_meta_data_QRemoteServiceRegister 0x0001c12c   Data         112  QtServiceFramework.in(.constdata)
    .constdata                               0x0001c12c   Section      112  QtServiceFramework.in(.constdata)
    .constdata$1                             0x0001c19c   Data           0  QtServiceFramework.in(.constdata)
    KNullDesC                                0x0001c19c   Data           8  QtServiceFramework.in(.constdata)
    .constdata                               0x0001c19c   Section      272  QtServiceFramework.in(.constdata)
    KDatabaseManagerServerName               0x0001c1a4   Data          60  QtServiceFramework.in(.constdata)
    KDatabaseManagerServerProcess            0x0001c1e0   Data          56  QtServiceFramework.in(.constdata)
    QtMobility::qt_meta_stringdata_DatabaseManager 0x0001c228   Data         132  QtServiceFramework.in(.constdata)
    .constdata$31                            0x0001c2ac   Data           0  QtServiceFramework.in(.constdata)
    QtMobility::qt_meta_data_DatabaseManager 0x0001c2ac   Data         100  QtServiceFramework.in(.constdata)
    .constdata                               0x0001c2ac   Section      100  QtServiceFramework.in(.constdata)
    .constdata$1                             0x0001c310   Data           0  QtServiceFramework.in(.constdata)
    KNullDesC                                0x0001c310   Data           8  QtServiceFramework.in(.constdata)
    .constdata                               0x0001c310   Section      400  QtServiceFramework.in(.constdata)
    QtMobility::myPolicy                     0x0001c358   Data          16  QtServiceFramework.in(.constdata)
    QtMobility::qt_meta_stringdata_RServiceSession 0x0001c368   Data         137  QtServiceFramework.in(.constdata)
    QtMobility::qt_meta_stringdata_QRemoteServiceRegisterSymbianPrivate 0x0001c3f1   Data          38  QtServiceFramework.in(.constdata)
    QtMobility::qt_meta_stringdata_SymbianClientEndPoint 0x0001c417   Data          23  QtServiceFramework.in(.constdata)
    QtMobility::qt_meta_stringdata_SymbianServerEndPoint 0x0001c42e   Data          23  QtServiceFramework.in(.constdata)
    .constdata$46                            0x0001c4a0   Data           0  QtServiceFramework.in(.constdata)
    QtMobility::myRanges                     0x0001c4a0   Data           4  QtServiceFramework.in(.constdata)
    .constdata                               0x0001c4a0   Section        4  QtServiceFramework.in(.constdata)
    .constdata$52                            0x0001c4a4   Data           0  QtServiceFramework.in(.constdata)
    QtMobility::myElementsIndex              0x0001c4a4   Data           1  QtServiceFramework.in(.constdata)
    .constdata                               0x0001c4a4   Section        1  QtServiceFramework.in(.constdata)
    .constdata$58                            0x0001c4a8   Data           0  QtServiceFramework.in(.constdata)
    QtMobility::myElements                   0x0001c4a8   Data          12  QtServiceFramework.in(.constdata)
    .constdata                               0x0001c4a8   Section       12  QtServiceFramework.in(.constdata)
    .constdata$64                            0x0001c4b4   Data           0  QtServiceFramework.in(.constdata)
    QtMobility::qt_meta_data_RServiceSession 0x0001c4b4   Data         120  QtServiceFramework.in(.constdata)
    .constdata                               0x0001c4b4   Section      120  QtServiceFramework.in(.constdata)
    .constdata$70                            0x0001c52c   Data           0  QtServiceFramework.in(.constdata)
    QtMobility::qt_meta_data_QRemoteServiceRegisterSymbianPrivate 0x0001c52c   Data          60  QtServiceFramework.in(.constdata)
    .constdata                               0x0001c52c   Section       60  QtServiceFramework.in(.constdata)
    .constdata$76                            0x0001c568   Data           0  QtServiceFramework.in(.constdata)
    QtMobility::qt_meta_data_SymbianClientEndPoint 0x0001c568   Data          60  QtServiceFramework.in(.constdata)
    .constdata                               0x0001c568   Section       60  QtServiceFramework.in(.constdata)
    .constdata$82                            0x0001c5a4   Data           0  QtServiceFramework.in(.constdata)
    QtMobility::qt_meta_data_SymbianServerEndPoint 0x0001c5a4   Data          60  QtServiceFramework.in(.constdata)
    .constdata                               0x0001c5a4   Section       60  QtServiceFramework.in(.constdata)
    .constdata$1                             0x0001c5e0   Data           0  QtServiceFramework.in(.constdata)
    .constdata                               0x0001c5e0   Section       91  QtServiceFramework.in(.constdata)
    QtMobility::qt_meta_stringdata_ObjectEndPoint 0x0001c5f0   Data          75  QtServiceFramework.in(.constdata)
    .constdata$28                            0x0001c63c   Data           0  QtServiceFramework.in(.constdata)
    QtMobility::qt_meta_data_ObjectEndPoint  0x0001c63c   Data         120  QtServiceFramework.in(.constdata)
    .constdata                               0x0001c63c   Section      120  QtServiceFramework.in(.constdata)
    .constdata$1                             0x0001c6b4   Data           0  QtServiceFramework.in(.constdata)
    .constdata                               0x0001c6b4   Section       89  QtServiceFramework.in(.constdata)
    QtMobility::qt_meta_stringdata_QSlotInvoker 0x0001c6c4   Data          73  QtServiceFramework.in(.constdata)
    .constdata$28                            0x0001c710   Data           0  QtServiceFramework.in(.constdata)
    QtMobility::qt_meta_data_QSlotInvoker    0x0001c710   Data         100  QtServiceFramework.in(.constdata)
    .constdata                               0x0001c710   Section      100  QtServiceFramework.in(.constdata)
    .constdata$1                             0x0001c774   Data           0  QtServiceFramework.in(.constdata)
    .constdata                               0x0001c774   Section       76  QtServiceFramework.in(.constdata)
    .constdata$1                             0x0001c7c0   Data           0  QtServiceFramework.in(.constdata)
    .constdata                               0x0001c7c0   Section      155  QtServiceFramework.in(.constdata)
    QtMobility::qt_meta_stringdata_InstanceManager 0x0001c7d0   Data         139  QtServiceFramework.in(.constdata)
    .constdata$28                            0x0001c85c   Data           0  QtServiceFramework.in(.constdata)
    QtMobility::qt_meta_data_InstanceManager 0x0001c85c   Data         120  QtServiceFramework.in(.constdata)
    .constdata                               0x0001c85c   Section      120  QtServiceFramework.in(.constdata)
    .constdata$1                             0x0001c8d4   Data           0  QtServiceFramework.in(.constdata)
    .constdata                               0x0001c8d4   Section       72  QtServiceFramework.in(.constdata)
    .constdata$1                             0x0001c91c   Data           0  QtServiceFramework.in(.constdata)
    .constdata                               0x0001c91c   Section       65  QtServiceFramework.in(.constdata)
    QtMobility::qt_meta_stringdata_QServiceIpcEndPoint 0x0001c92c   Data          49  QtServiceFramework.in(.constdata)
    .constdata$28                            0x0001c960   Data           0  QtServiceFramework.in(.constdata)
    QtMobility::qt_meta_data_QServiceIpcEndPoint 0x0001c960   Data         100  QtServiceFramework.in(.constdata)
    .constdata                               0x0001c960   Section      100  QtServiceFramework.in(.constdata)
    .constdata$1                             0x0001c9c4   Data           0  QtServiceFramework.in(.constdata)
    .constdata                               0x0001c9c4   Section       77  QtServiceFramework.in(.constdata)
    QtMobility::qt_meta_stringdata_QRemoteServiceRegisterPrivate 0x0001c9d4   Data          61  QtServiceFramework.in(.constdata)
    .constdata$28                            0x0001ca14   Data           0  QtServiceFramework.in(.constdata)
    QtMobility::qt_meta_data_QRemoteServiceRegisterPrivate 0x0001ca14   Data          72  QtServiceFramework.in(.constdata)
    .constdata                               0x0001ca14   Section       72  QtServiceFramework.in(.constdata)
    .constdata__ZTI11QSharedData             0x0001ca5c   Section        8  QtServiceFramework.in(.constdata__ZTI11QSharedData)
    .constdata__ZTI11RHandleBase             0x0001ca64   Section        8  QtServiceFramework.in(.constdata__ZTI11RHandleBase)
    .constdata__ZTI12RSessionBase            0x0001ca6c   Section       12  QtServiceFramework.in(.constdata__ZTI12RSessionBase)
    .constdata__ZTI18QMetaObjectBuilder      0x0001ca78   Section        8  QtServiceFramework.in(.constdata__ZTI18QMetaObjectBuilder)
    .constdata__ZTIN10QtMobility12QSlotInvokerE 0x0001ca80   Section       12  QtServiceFramework.in(.constdata__ZTIN10QtMobility12QSlotInvokerE)
    .constdata__ZTIN10QtMobility13QServiceProxyE 0x0001ca8c   Section       12  QtServiceFramework.in(.constdata__ZTIN10QtMobility13QServiceProxyE)
    .constdata__ZTIN10QtMobility14ObjectEndPointE 0x0001ca98   Section       12  QtServiceFramework.in(.constdata__ZTIN10QtMobility14ObjectEndPointE)
    .constdata__ZTIN10QtMobility15DatabaseManagerE 0x0001caa4   Section       12  QtServiceFramework.in(.constdata__ZTIN10QtMobility15DatabaseManagerE)
    .constdata__ZTIN10QtMobility15InstanceManagerE 0x0001cab0   Section       12  QtServiceFramework.in(.constdata__ZTIN10QtMobility15InstanceManagerE)
    .constdata__ZTIN10QtMobility15QServiceContextE 0x0001cabc   Section       12  QtServiceFramework.in(.constdata__ZTIN10QtMobility15QServiceContextE)
    .constdata__ZTIN10QtMobility15QServiceManagerE 0x0001cac8   Section       12  QtServiceFramework.in(.constdata__ZTIN10QtMobility15QServiceManagerE)
    .constdata__ZTIN10QtMobility15RServiceSessionE 0x0001cad4   Section       32  QtServiceFramework.in(.constdata__ZTIN10QtMobility15RServiceSessionE)
    .constdata__ZTIN10QtMobility18QSignalIntercepterE 0x0001caf4   Section       12  QtServiceFramework.in(.constdata__ZTIN10QtMobility18QSignalIntercepterE)
    .constdata__ZTIN10QtMobility19QServiceIpcEndPointE 0x0001cb00   Section       12  QtServiceFramework.in(.constdata__ZTIN10QtMobility19QServiceIpcEndPointE)
    .constdata__ZTIN10QtMobility21QServicePluginCleanupE 0x0001cb0c   Section       12  QtServiceFramework.in(.constdata__ZTIN10QtMobility21QServicePluginCleanupE)
    .constdata__ZTIN10QtMobility21SymbianClientEndPointE 0x0001cb18   Section       12  QtServiceFramework.in(.constdata__ZTIN10QtMobility21SymbianClientEndPointE)
    .constdata__ZTIN10QtMobility21SymbianServerEndPointE 0x0001cb24   Section       12  QtServiceFramework.in(.constdata__ZTIN10QtMobility21SymbianServerEndPointE)
    .constdata__ZTIN10QtMobility22CServiceProviderServerE 0x0001cb30   Section       12  QtServiceFramework.in(.constdata__ZTIN10QtMobility22CServiceProviderServerE)
    .constdata__ZTIN10QtMobility22QRemoteServiceRegisterE 0x0001cb3c   Section       12  QtServiceFramework.in(.constdata__ZTIN10QtMobility22QRemoteServiceRegisterE)
    .constdata__ZTIN10QtMobility22QServiceManagerPrivateE 0x0001cb48   Section       12  QtServiceFramework.in(.constdata__ZTIN10QtMobility22QServiceManagerPrivateE)
    .constdata__ZTIN10QtMobility22QServicePackagePrivateE 0x0001cb54   Section       24  QtServiceFramework.in(.constdata__ZTIN10QtMobility22QServicePackagePrivateE)
    .constdata__ZTIN10QtMobility22ServiceMessageListenerE 0x0001cb6c   Section       12  QtServiceFramework.in(.constdata__ZTIN10QtMobility22ServiceMessageListenerE)
    .constdata__ZTIN10QtMobility23QServicePluginInterfaceE 0x0001cb78   Section        8  QtServiceFramework.in(.constdata__ZTIN10QtMobility23QServicePluginInterfaceE)
    .constdata__ZTIN10QtMobility24QAbstractSecuritySessionE 0x0001cb80   Section       12  QtServiceFramework.in(.constdata__ZTIN10QtMobility24QAbstractSecuritySessionE)
    .constdata__ZTIN10QtMobility24ServiceContextClientDataE 0x0001cb8c   Section       12  QtServiceFramework.in(.constdata__ZTIN10QtMobility24ServiceContextClientDataE)
    .constdata__ZTIN10QtMobility24ServiceSignalIntercepterE 0x0001cb98   Section       12  QtServiceFramework.in(.constdata__ZTIN10QtMobility24ServiceSignalIntercepterE)
    .constdata__ZTIN10QtMobility28DatabaseManagerSignalMonitorE 0x0001cba4   Section       12  QtServiceFramework.in(.constdata__ZTIN10QtMobility28DatabaseManagerSignalMonitorE)
    .constdata__ZTIN10QtMobility29CServiceProviderServerSessionE 0x0001cbb0   Section       12  QtServiceFramework.in(.constdata__ZTIN10QtMobility29CServiceProviderServerSessionE)
    .constdata__ZTIN10QtMobility29QRemoteServiceRegisterPrivateE 0x0001cbbc   Section       12  QtServiceFramework.in(.constdata__ZTIN10QtMobility29QRemoteServiceRegisterPrivateE)
    .constdata__ZTIN10QtMobility36QRemoteServiceRegisterSymbianPrivateE 0x0001cbc8   Section       12  QtServiceFramework.in(.constdata__ZTIN10QtMobility36QRemoteServiceRegisterSymbianPrivateE)
    .constdata__ZTISt9bad_alloc              0x0001cbd4   Section       12  QtServiceFramework.in(.constdata__ZTISt9bad_alloc)
    .constdata__ZTS11QSharedData             0x0001cbe0   Section       14  QtServiceFramework.in(.constdata__ZTS11QSharedData)
    .constdata__ZTS11RHandleBase             0x0001cbee   Section       14  QtServiceFramework.in(.constdata__ZTS11RHandleBase)
    .constdata__ZTS12RSessionBase            0x0001cbfc   Section       15  QtServiceFramework.in(.constdata__ZTS12RSessionBase)
    .constdata__ZTS18QMetaObjectBuilder      0x0001cc0b   Section       21  QtServiceFramework.in(.constdata__ZTS18QMetaObjectBuilder)
    .constdata__ZTSN10QtMobility12QSlotInvokerE 0x0001cc20   Section       29  QtServiceFramework.in(.constdata__ZTSN10QtMobility12QSlotInvokerE)
    .constdata__ZTSN10QtMobility13QServiceProxyE 0x0001cc3d   Section       30  QtServiceFramework.in(.constdata__ZTSN10QtMobility13QServiceProxyE)
    .constdata__ZTSN10QtMobility14ObjectEndPointE 0x0001cc5b   Section       31  QtServiceFramework.in(.constdata__ZTSN10QtMobility14ObjectEndPointE)
    .constdata__ZTSN10QtMobility15DatabaseManagerE 0x0001cc7a   Section       32  QtServiceFramework.in(.constdata__ZTSN10QtMobility15DatabaseManagerE)
    .constdata__ZTSN10QtMobility15InstanceManagerE 0x0001cc9a   Section       32  QtServiceFramework.in(.constdata__ZTSN10QtMobility15InstanceManagerE)
    .constdata__ZTSN10QtMobility15QServiceContextE 0x0001ccba   Section       32  QtServiceFramework.in(.constdata__ZTSN10QtMobility15QServiceContextE)
    .constdata__ZTSN10QtMobility15QServiceManagerE 0x0001ccda   Section       32  QtServiceFramework.in(.constdata__ZTSN10QtMobility15QServiceManagerE)
    .constdata__ZTSN10QtMobility15RServiceSessionE 0x0001ccfa   Section       32  QtServiceFramework.in(.constdata__ZTSN10QtMobility15RServiceSessionE)
    .constdata__ZTSN10QtMobility18QSignalIntercepterE 0x0001cd1a   Section       35  QtServiceFramework.in(.constdata__ZTSN10QtMobility18QSignalIntercepterE)
    .constdata__ZTSN10QtMobility19QServiceIpcEndPointE 0x0001cd3d   Section       36  QtServiceFramework.in(.constdata__ZTSN10QtMobility19QServiceIpcEndPointE)
    .constdata__ZTSN10QtMobility21QServicePluginCleanupE 0x0001cd61   Section       38  QtServiceFramework.in(.constdata__ZTSN10QtMobility21QServicePluginCleanupE)
    .constdata__ZTSN10QtMobility21SymbianClientEndPointE 0x0001cd87   Section       38  QtServiceFramework.in(.constdata__ZTSN10QtMobility21SymbianClientEndPointE)
    .constdata__ZTSN10QtMobility21SymbianServerEndPointE 0x0001cdad   Section       38  QtServiceFramework.in(.constdata__ZTSN10QtMobility21SymbianServerEndPointE)
    .constdata__ZTSN10QtMobility22CServiceProviderServerE 0x0001cdd3   Section       39  QtServiceFramework.in(.constdata__ZTSN10QtMobility22CServiceProviderServerE)
    .constdata__ZTSN10QtMobility22QRemoteServiceRegisterE 0x0001cdfa   Section       39  QtServiceFramework.in(.constdata__ZTSN10QtMobility22QRemoteServiceRegisterE)
    .constdata__ZTSN10QtMobility22QServiceManagerPrivateE 0x0001ce21   Section       39  QtServiceFramework.in(.constdata__ZTSN10QtMobility22QServiceManagerPrivateE)
    .constdata__ZTSN10QtMobility22QServicePackagePrivateE 0x0001ce48   Section       39  QtServiceFramework.in(.constdata__ZTSN10QtMobility22QServicePackagePrivateE)
    .constdata__ZTSN10QtMobility22ServiceMessageListenerE 0x0001ce6f   Section       39  QtServiceFramework.in(.constdata__ZTSN10QtMobility22ServiceMessageListenerE)
    .constdata__ZTSN10QtMobility23QServicePluginInterfaceE 0x0001ce96   Section       40  QtServiceFramework.in(.constdata__ZTSN10QtMobility23QServicePluginInterfaceE)
    .constdata__ZTSN10QtMobility24QAbstractSecuritySessionE 0x0001cebe   Section       41  QtServiceFramework.in(.constdata__ZTSN10QtMobility24QAbstractSecuritySessionE)
    .constdata__ZTSN10QtMobility24ServiceContextClientDataE 0x0001cee7   Section       41  QtServiceFramework.in(.constdata__ZTSN10QtMobility24ServiceContextClientDataE)
    .constdata__ZTSN10QtMobility24ServiceSignalIntercepterE 0x0001cf10   Section       41  QtServiceFramework.in(.constdata__ZTSN10QtMobility24ServiceSignalIntercepterE)
    .constdata__ZTSN10QtMobility28DatabaseManagerSignalMonitorE 0x0001cf39   Section       45  QtServiceFramework.in(.constdata__ZTSN10QtMobility28DatabaseManagerSignalMonitorE)
    .constdata__ZTSN10QtMobility29CServiceProviderServerSessionE 0x0001cf66   Section       46  QtServiceFramework.in(.constdata__ZTSN10QtMobility29CServiceProviderServerSessionE)
    .constdata__ZTSN10QtMobility29QRemoteServiceRegisterPrivateE 0x0001cf94   Section       46  QtServiceFramework.in(.constdata__ZTSN10QtMobility29QRemoteServiceRegisterPrivateE)
    .constdata__ZTSN10QtMobility36QRemoteServiceRegisterSymbianPrivateE 0x0001cfc2   Section       53  QtServiceFramework.in(.constdata__ZTSN10QtMobility36QRemoteServiceRegisterSymbianPrivateE)
    .constdata__ZTSSt9bad_alloc              0x0001cff7   Section       13  QtServiceFramework.in(.constdata__ZTSSt9bad_alloc)
    .constdata__ZTV18QMetaObjectBuilder      0x0001d004   Section       16  QtServiceFramework.in(.constdata__ZTV18QMetaObjectBuilder)
    .constdata__ZTVN10QtMobility12QSlotInvokerE 0x0001d014   Section       56  QtServiceFramework.in(.constdata__ZTVN10QtMobility12QSlotInvokerE)
    .constdata__ZTVN10QtMobility13QServiceProxyE 0x0001d04c   Section       56  QtServiceFramework.in(.constdata__ZTVN10QtMobility13QServiceProxyE)
    .constdata__ZTVN10QtMobility14ObjectEndPointE 0x0001d084   Section       56  QtServiceFramework.in(.constdata__ZTVN10QtMobility14ObjectEndPointE)
    .constdata__ZTVN10QtMobility15DatabaseManagerE 0x0001d0bc   Section       56  QtServiceFramework.in(.constdata__ZTVN10QtMobility15DatabaseManagerE)
    .constdata__ZTVN10QtMobility15InstanceManagerE 0x0001d0f4   Section       56  QtServiceFramework.in(.constdata__ZTVN10QtMobility15InstanceManagerE)
    .constdata__ZTVN10QtMobility15QServiceContextE 0x0001d12c   Section       60  QtServiceFramework.in(.constdata__ZTVN10QtMobility15QServiceContextE)
    .constdata__ZTVN10QtMobility15QServiceManagerE 0x0001d168   Section       56  QtServiceFramework.in(.constdata__ZTVN10QtMobility15QServiceManagerE)
    .constdata__ZTVN10QtMobility15RServiceSessionE 0x0001d1a0   Section       56  QtServiceFramework.in(.constdata__ZTVN10QtMobility15RServiceSessionE)
    .constdata__ZTVN10QtMobility18QSignalIntercepterE 0x0001d1d8   Section       60  QtServiceFramework.in(.constdata__ZTVN10QtMobility18QSignalIntercepterE)
    .constdata__ZTVN10QtMobility19QServiceIpcEndPointE 0x0001d214   Section       60  QtServiceFramework.in(.constdata__ZTVN10QtMobility19QServiceIpcEndPointE)
    .constdata__ZTVN10QtMobility21QServicePluginCleanupE 0x0001d250   Section       56  QtServiceFramework.in(.constdata__ZTVN10QtMobility21QServicePluginCleanupE)
    .constdata__ZTVN10QtMobility21SymbianClientEndPointE 0x0001d288   Section       60  QtServiceFramework.in(.constdata__ZTVN10QtMobility21SymbianClientEndPointE)
    .constdata__ZTVN10QtMobility21SymbianServerEndPointE 0x0001d2c4   Section       60  QtServiceFramework.in(.constdata__ZTVN10QtMobility21SymbianServerEndPointE)
    .constdata__ZTVN10QtMobility22CServiceProviderServerE 0x0001d300   Section       48  QtServiceFramework.in(.constdata__ZTVN10QtMobility22CServiceProviderServerE)
    .constdata__ZTVN10QtMobility22QRemoteServiceRegisterE 0x0001d330   Section       56  QtServiceFramework.in(.constdata__ZTVN10QtMobility22QRemoteServiceRegisterE)
    .constdata__ZTVN10QtMobility22QServiceManagerPrivateE 0x0001d368   Section       56  QtServiceFramework.in(.constdata__ZTVN10QtMobility22QServiceManagerPrivateE)
    .constdata__ZTVN10QtMobility22QServicePackagePrivateE 0x0001d3a0   Section       12  QtServiceFramework.in(.constdata__ZTVN10QtMobility22QServicePackagePrivateE)
    .constdata__ZTVN10QtMobility22ServiceMessageListenerE 0x0001d3ac   Section       32  QtServiceFramework.in(.constdata__ZTVN10QtMobility22ServiceMessageListenerE)
    .constdata__ZTVN10QtMobility23QServicePluginInterfaceE 0x0001d3cc   Section       28  QtServiceFramework.in(.constdata__ZTVN10QtMobility23QServicePluginInterfaceE)
    .constdata__ZTVN10QtMobility24QAbstractSecuritySessionE 0x0001d3e8   Section       60  QtServiceFramework.in(.constdata__ZTVN10QtMobility24QAbstractSecuritySessionE)
    .constdata__ZTVN10QtMobility24ServiceContextClientDataE 0x0001d424   Section       16  QtServiceFramework.in(.constdata__ZTVN10QtMobility24ServiceContextClientDataE)
    .constdata__ZTVN10QtMobility24ServiceSignalIntercepterE 0x0001d434   Section       60  QtServiceFramework.in(.constdata__ZTVN10QtMobility24ServiceSignalIntercepterE)
    .constdata__ZTVN10QtMobility28DatabaseManagerSignalMonitorE 0x0001d470   Section       32  QtServiceFramework.in(.constdata__ZTVN10QtMobility28DatabaseManagerSignalMonitorE)
    .constdata__ZTVN10QtMobility29CServiceProviderServerSessionE 0x0001d490   Section       40  QtServiceFramework.in(.constdata__ZTVN10QtMobility29CServiceProviderServerSessionE)
    .constdata__ZTVN10QtMobility29QRemoteServiceRegisterPrivateE 0x0001d4b8   Section       76  QtServiceFramework.in(.constdata__ZTVN10QtMobility29QRemoteServiceRegisterPrivateE)
    .constdata__ZTVN10QtMobility36QRemoteServiceRegisterSymbianPrivateE 0x0001d504   Section       76  QtServiceFramework.in(.constdata__ZTVN10QtMobility36QRemoteServiceRegisterSymbianPrivateE)
    .ARM.exidx                               0x0001d550   Section        8  ucppinit_aeabi.o(.ARM.exidx)
    .data$0                                  0x00400000   Data           0  QtServiceFramework.in(.data)
    _ZGVcleanup@_ZN10QtMobility12openRequestsEv_0 0x00400000   Data           4  QtServiceFramework.in(.data)
    .data                                    0x00400000   Section       16  QtServiceFramework.in(.data)
    cleanup@_ZN10QtMobility12openRequestsEv_1 0x00400004   Data           4  QtServiceFramework.in(.data)
    QtMobility::this_openRequests            0x00400008   Data           8  QtServiceFramework.in(.data)
    .data$0                                  0x00400010   Data           0  QtServiceFramework.in(.data)
    _ZGVcleanup@_ZN10QtMobility12typeRegisterEv_0 0x00400010   Data           4  QtServiceFramework.in(.data)
    .data                                    0x00400010   Section       16  QtServiceFramework.in(.data)
    cleanup@_ZN10QtMobility12typeRegisterEv_1 0x00400014   Data           4  QtServiceFramework.in(.data)
    QtMobility::this_typeRegister            0x00400018   Data           8  QtServiceFramework.in(.data)
    .data$0                                  0x00400020   Data           0  ucppfini.o(.data)
    .data                                    0x00400020   Section        4  ucppfini.o(.data)
    .bss$5                                   0x00400024   Data           0  ucppfini.o(.bss)
    dtor_rec                                 0x00400024   Data        2048  ucppfini.o(.bss)
    .bss                                     0x00400024   Section     2048  ucppfini.o(.bss)

    Global Symbols

    Symbol Name                              Value     Ov Type        Size  Object(Section)

    BuildAttributes$$THUMB_ISAv2$ARM_ISAv5$M$PE$A:L22$X:L11$S22$IEEE1$IW$USESV6$~STKCKD$USESV7$~SHL$OSPACE$IEEEJ$EBA8$UX$REQ8$PRES8$EABIv2 0x00000000   Number         0  anon$$obj.o ABSOLUTE
    #<DLL>QtCore{00040703}[2001b2dc].dll#<\DLL>102  - Undefined Reference
    #<DLL>QtCore{00040703}[2001b2dc].dll#<\DLL>103  - Undefined Reference
    #<DLL>QtCore{00040703}[2001b2dc].dll#<\DLL>111  - Undefined Reference
    #<DLL>QtCore{00040703}[2001b2dc].dll#<\DLL>112  - Undefined Reference
    #<DLL>QtCore{00040703}[2001b2dc].dll#<\DLL>113  - Undefined Reference
    #<DLL>QtCore{00040703}[2001b2dc].dll#<\DLL>115  - Undefined Reference
    #<DLL>QtCore{00040703}[2001b2dc].dll#<\DLL>118  - Undefined Reference
    #<DLL>QtCore{00040703}[2001b2dc].dll#<\DLL>119  - Undefined Reference
    #<DLL>QtCore{00040703}[2001b2dc].dll#<\DLL>11a  - Undefined Reference
    #<DLL>QtCore{00040703}[2001b2dc].dll#<\DLL>11e  - Undefined Reference
    #<DLL>QtCore{00040703}[2001b2dc].dll#<\DLL>138  - Undefined Reference
    #<DLL>QtCore{00040703}[2001b2dc].dll#<\DLL>144  - Undefined Reference
    #<DLL>QtCore{00040703}[2001b2dc].dll#<\DLL>148  - Undefined Reference
    #<DLL>QtCore{00040703}[2001b2dc].dll#<\DLL>14b  - Undefined Reference
    #<DLL>QtCore{00040703}[2001b2dc].dll#<\DLL>14c  - Undefined Reference
    #<DLL>QtCore{00040703}[2001b2dc].dll#<\DLL>14f  - Undefined Reference
    #<DLL>QtCore{00040703}[2001b2dc].dll#<\DLL>188  - Undefined Reference
    #<DLL>QtCore{00040703}[2001b2dc].dll#<\DLL>1f3  - Undefined Reference
    #<DLL>QtCore{00040703}[2001b2dc].dll#<\DLL>1f5  - Undefined Reference
    #<DLL>QtCore{00040703}[2001b2dc].dll#<\DLL>20  - Undefined Reference
    #<DLL>QtCore{00040703}[2001b2dc].dll#<\DLL>2c8  - Undefined Reference
    #<DLL>QtCore{00040703}[2001b2dc].dll#<\DLL>2e  - Undefined Reference
    #<DLL>QtCore{00040703}[2001b2dc].dll#<\DLL>2f1  - Undefined Reference
    #<DLL>QtCore{00040703}[2001b2dc].dll#<\DLL>312  - Undefined Reference
    #<DLL>QtCore{00040703}[2001b2dc].dll#<\DLL>342  - Undefined Reference
    #<DLL>QtCore{00040703}[2001b2dc].dll#<\DLL>343  - Undefined Reference
    #<DLL>QtCore{00040703}[2001b2dc].dll#<\DLL>344  - Undefined Reference
    #<DLL>QtCore{00040703}[2001b2dc].dll#<\DLL>345  - Undefined Reference
    #<DLL>QtCore{00040703}[2001b2dc].dll#<\DLL>347  - Undefined Reference
    #<DLL>QtCore{00040703}[2001b2dc].dll#<\DLL>354  - Undefined Reference
    #<DLL>QtCore{00040703}[2001b2dc].dll#<\DLL>35f  - Undefined Reference
    #<DLL>QtCore{00040703}[2001b2dc].dll#<\DLL>360  - Undefined Reference
    #<DLL>QtCore{00040703}[2001b2dc].dll#<\DLL>365  - Undefined Reference
    #<DLL>QtCore{00040703}[2001b2dc].dll#<\DLL>36b  - Undefined Reference
    #<DLL>QtCore{00040703}[2001b2dc].dll#<\DLL>38  - Undefined Reference
    #<DLL>QtCore{00040703}[2001b2dc].dll#<\DLL>46  - Undefined Reference
    #<DLL>QtCore{00040703}[2001b2dc].dll#<\DLL>49  - Undefined Reference
    #<DLL>QtCore{00040703}[2001b2dc].dll#<\DLL>4a7  - Undefined Reference
    #<DLL>QtCore{00040703}[2001b2dc].dll#<\DLL>5a  - Undefined Reference
    #<DLL>QtCore{00040703}[2001b2dc].dll#<\DLL>5ad  - Undefined Reference
    #<DLL>QtCore{00040703}[2001b2dc].dll#<\DLL>5b  - Undefined Reference
    #<DLL>QtCore{00040703}[2001b2dc].dll#<\DLL>5bd  - Undefined Reference
    #<DLL>QtCore{00040703}[2001b2dc].dll#<\DLL>5f  - Undefined Reference
    #<DLL>QtCore{00040703}[2001b2dc].dll#<\DLL>60  - Undefined Reference
    #<DLL>QtCore{00040703}[2001b2dc].dll#<\DLL>64a  - Undefined Reference
    #<DLL>QtCore{00040703}[2001b2dc].dll#<\DLL>656  - Undefined Reference
    #<DLL>QtCore{00040703}[2001b2dc].dll#<\DLL>667  - Undefined Reference
    #<DLL>QtCore{00040703}[2001b2dc].dll#<\DLL>66d  - Undefined Reference
    #<DLL>QtCore{00040703}[2001b2dc].dll#<\DLL>68  - Undefined Reference
    #<DLL>QtCore{00040703}[2001b2dc].dll#<\DLL>686  - Undefined Reference
    #<DLL>QtCore{00040703}[2001b2dc].dll#<\DLL>687  - Undefined Reference
    #<DLL>QtCore{00040703}[2001b2dc].dll#<\DLL>68a  - Undefined Reference
    #<DLL>QtCore{00040703}[2001b2dc].dll#<\DLL>68c  - Undefined Reference
    #<DLL>QtCore{00040703}[2001b2dc].dll#<\DLL>6aa  - Undefined Reference
    #<DLL>QtCore{00040703}[2001b2dc].dll#<\DLL>6d  - Undefined Reference
    #<DLL>QtCore{00040703}[2001b2dc].dll#<\DLL>6e0  - Undefined Reference
    #<DLL>QtCore{00040703}[2001b2dc].dll#<\DLL>6e1  - Undefined Reference
    #<DLL>QtCore{00040703}[2001b2dc].dll#<\DLL>6e3  - Undefined Reference
    #<DLL>QtCore{00040703}[2001b2dc].dll#<\DLL>6e4  - Undefined Reference
    #<DLL>QtCore{00040703}[2001b2dc].dll#<\DLL>6e6  - Undefined Reference
    #<DLL>QtCore{00040703}[2001b2dc].dll#<\DLL>6e7  - Undefined Reference
    #<DLL>QtCore{00040703}[2001b2dc].dll#<\DLL>6e8  - Undefined Reference
    #<DLL>QtCore{00040703}[2001b2dc].dll#<\DLL>6ea  - Undefined Reference
    #<DLL>QtCore{00040703}[2001b2dc].dll#<\DLL>6ed  - Undefined Reference
    #<DLL>QtCore{00040703}[2001b2dc].dll#<\DLL>6f1  - Undefined Reference
    #<DLL>QtCore{00040703}[2001b2dc].dll#<\DLL>6f8  - Undefined Reference
    #<DLL>QtCore{00040703}[2001b2dc].dll#<\DLL>6f9  - Undefined Reference
    #<DLL>QtCore{00040703}[2001b2dc].dll#<\DLL>6fc  - Undefined Reference
    #<DLL>QtCore{00040703}[2001b2dc].dll#<\DLL>6fd  - Undefined Reference
    #<DLL>QtCore{00040703}[2001b2dc].dll#<\DLL>702  - Undefined Reference
    #<DLL>QtCore{00040703}[2001b2dc].dll#<\DLL>707  - Undefined Reference
    #<DLL>QtCore{00040703}[2001b2dc].dll#<\DLL>70d  - Undefined Reference
    #<DLL>QtCore{00040703}[2001b2dc].dll#<\DLL>713  - Undefined Reference
    #<DLL>QtCore{00040703}[2001b2dc].dll#<\DLL>721  - Undefined Reference
    #<DLL>QtCore{00040703}[2001b2dc].dll#<\DLL>722  - Undefined Reference
    #<DLL>QtCore{00040703}[2001b2dc].dll#<\DLL>726  - Undefined Reference
    #<DLL>QtCore{00040703}[2001b2dc].dll#<\DLL>727  - Undefined Reference
    #<DLL>QtCore{00040703}[2001b2dc].dll#<\DLL>72b  - Undefined Reference
    #<DLL>QtCore{00040703}[2001b2dc].dll#<\DLL>72c  - Undefined Reference
    #<DLL>QtCore{00040703}[2001b2dc].dll#<\DLL>732  - Undefined Reference
    #<DLL>QtCore{00040703}[2001b2dc].dll#<\DLL>73f  - Undefined Reference
    #<DLL>QtCore{00040703}[2001b2dc].dll#<\DLL>752  - Undefined Reference
    #<DLL>QtCore{00040703}[2001b2dc].dll#<\DLL>753  - Undefined Reference
    #<DLL>QtCore{00040703}[2001b2dc].dll#<\DLL>75d  - Undefined Reference
    #<DLL>QtCore{00040703}[2001b2dc].dll#<\DLL>787  - Undefined Reference
    #<DLL>QtCore{00040703}[2001b2dc].dll#<\DLL>788  - Undefined Reference
    #<DLL>QtCore{00040703}[2001b2dc].dll#<\DLL>78f  - Undefined Reference
    #<DLL>QtCore{00040703}[2001b2dc].dll#<\DLL>797  - Undefined Reference
    #<DLL>QtCore{00040703}[2001b2dc].dll#<\DLL>79d  - Undefined Reference
    #<DLL>QtCore{00040703}[2001b2dc].dll#<\DLL>7d  - Undefined Reference
    #<DLL>QtCore{00040703}[2001b2dc].dll#<\DLL>7d1  - Undefined Reference
    #<DLL>QtCore{00040703}[2001b2dc].dll#<\DLL>7d3  - Undefined Reference
    #<DLL>QtCore{00040703}[2001b2dc].dll#<\DLL>7de  - Undefined Reference
    #<DLL>QtCore{00040703}[2001b2dc].dll#<\DLL>7df  - Undefined Reference
    #<DLL>QtCore{00040703}[2001b2dc].dll#<\DLL>7f  - Undefined Reference
    #<DLL>QtCore{00040703}[2001b2dc].dll#<\DLL>7f2  - Undefined Reference
    #<DLL>QtCore{00040703}[2001b2dc].dll#<\DLL>7f5  - Undefined Reference
    #<DLL>QtCore{00040703}[2001b2dc].dll#<\DLL>7f8  - Undefined Reference
    #<DLL>QtCore{00040703}[2001b2dc].dll#<\DLL>7f9  - Undefined Reference
    #<DLL>QtCore{00040703}[2001b2dc].dll#<\DLL>80  - Undefined Reference
    #<DLL>QtCore{00040703}[2001b2dc].dll#<\DLL>81  - Undefined Reference
    #<DLL>QtCore{00040703}[2001b2dc].dll#<\DLL>822  - Undefined Reference
    #<DLL>QtCore{00040703}[2001b2dc].dll#<\DLL>824  - Undefined Reference
    #<DLL>QtCore{00040703}[2001b2dc].dll#<\DLL>84a  - Undefined Reference
    #<DLL>QtCore{00040703}[2001b2dc].dll#<\DLL>852  - Undefined Reference
    #<DLL>QtCore{00040703}[2001b2dc].dll#<\DLL>856  - Undefined Reference
    #<DLL>QtCore{00040703}[2001b2dc].dll#<\DLL>859  - Undefined Reference
    #<DLL>QtCore{00040703}[2001b2dc].dll#<\DLL>85d  - Undefined Reference
    #<DLL>QtCore{00040703}[2001b2dc].dll#<\DLL>85e  - Undefined Reference
    #<DLL>QtCore{00040703}[2001b2dc].dll#<\DLL>85f  - Undefined Reference
    #<DLL>QtCore{00040703}[2001b2dc].dll#<\DLL>88a  - Undefined Reference
    #<DLL>QtCore{00040703}[2001b2dc].dll#<\DLL>88c  - Undefined Reference
    #<DLL>QtCore{00040703}[2001b2dc].dll#<\DLL>88f  - Undefined Reference
    #<DLL>QtCore{00040703}[2001b2dc].dll#<\DLL>894  - Undefined Reference
    #<DLL>QtCore{00040703}[2001b2dc].dll#<\DLL>895  - Undefined Reference
    #<DLL>QtCore{00040703}[2001b2dc].dll#<\DLL>897  - Undefined Reference
    #<DLL>QtCore{00040703}[2001b2dc].dll#<\DLL>89a  - Undefined Reference
    #<DLL>QtCore{00040703}[2001b2dc].dll#<\DLL>89b  - Undefined Reference
    #<DLL>QtCore{00040703}[2001b2dc].dll#<\DLL>89c  - Undefined Reference
    #<DLL>QtCore{00040703}[2001b2dc].dll#<\DLL>8c  - Undefined Reference
    #<DLL>QtCore{00040703}[2001b2dc].dll#<\DLL>8d  - Undefined Reference
    #<DLL>QtCore{00040703}[2001b2dc].dll#<\DLL>924  - Undefined Reference
    #<DLL>QtCore{00040703}[2001b2dc].dll#<\DLL>932  - Undefined Reference
    #<DLL>QtCore{00040703}[2001b2dc].dll#<\DLL>93b  - Undefined Reference
    #<DLL>QtCore{00040703}[2001b2dc].dll#<\DLL>944  - Undefined Reference
    #<DLL>QtCore{00040703}[2001b2dc].dll#<\DLL>94e  - Undefined Reference
    #<DLL>QtCore{00040703}[2001b2dc].dll#<\DLL>94f  - Undefined Reference
    #<DLL>QtCore{00040703}[2001b2dc].dll#<\DLL>951  - Undefined Reference
    #<DLL>QtCore{00040703}[2001b2dc].dll#<\DLL>952  - Undefined Reference
    #<DLL>QtCore{00040703}[2001b2dc].dll#<\DLL>954  - Undefined Reference
    #<DLL>QtCore{00040703}[2001b2dc].dll#<\DLL>955  - Undefined Reference
    #<DLL>QtCore{00040703}[2001b2dc].dll#<\DLL>956  - Undefined Reference
    #<DLL>QtCore{00040703}[2001b2dc].dll#<\DLL>957  - Undefined Reference
    #<DLL>QtCore{00040703}[2001b2dc].dll#<\DLL>958  - Undefined Reference
    #<DLL>QtCore{00040703}[2001b2dc].dll#<\DLL>959  - Undefined Reference
    #<DLL>QtCore{00040703}[2001b2dc].dll#<\DLL>95a  - Undefined Reference
    #<DLL>QtCore{00040703}[2001b2dc].dll#<\DLL>95b  - Undefined Reference
    #<DLL>QtCore{00040703}[2001b2dc].dll#<\DLL>95c  - Undefined Reference
    #<DLL>QtCore{00040703}[2001b2dc].dll#<\DLL>95e  - Undefined Reference
    #<DLL>QtCore{00040703}[2001b2dc].dll#<\DLL>96  - Undefined Reference
    #<DLL>QtCore{00040703}[2001b2dc].dll#<\DLL>960  - Undefined Reference
    #<DLL>QtCore{00040703}[2001b2dc].dll#<\DLL>962  - Undefined Reference
    #<DLL>QtCore{00040703}[2001b2dc].dll#<\DLL>963  - Undefined Reference
    #<DLL>QtCore{00040703}[2001b2dc].dll#<\DLL>964  - Undefined Reference
    #<DLL>QtCore{00040703}[2001b2dc].dll#<\DLL>965  - Undefined Reference
    #<DLL>QtCore{00040703}[2001b2dc].dll#<\DLL>966  - Undefined Reference
    #<DLL>QtCore{00040703}[2001b2dc].dll#<\DLL>967  - Undefined Reference
    #<DLL>QtCore{00040703}[2001b2dc].dll#<\DLL>968  - Undefined Reference
    #<DLL>QtCore{00040703}[2001b2dc].dll#<\DLL>96b  - Undefined Reference
    #<DLL>QtCore{00040703}[2001b2dc].dll#<\DLL>96c  - Undefined Reference
    #<DLL>QtCore{00040703}[2001b2dc].dll#<\DLL>973  - Undefined Reference
    #<DLL>QtCore{00040703}[2001b2dc].dll#<\DLL>976  - Undefined Reference
    #<DLL>QtCore{00040703}[2001b2dc].dll#<\DLL>977  - Undefined Reference
    #<DLL>QtCore{00040703}[2001b2dc].dll#<\DLL>9b6  - Undefined Reference
    #<DLL>QtCore{00040703}[2001b2dc].dll#<\DLL>9b7  - Undefined Reference
    #<DLL>QtCore{00040703}[2001b2dc].dll#<\DLL>9b9  - Undefined Reference
    #<DLL>QtCore{00040703}[2001b2dc].dll#<\DLL>9ba  - Undefined Reference
    #<DLL>QtCore{00040703}[2001b2dc].dll#<\DLL>9bb  - Undefined Reference
    #<DLL>QtCore{00040703}[2001b2dc].dll#<\DLL>9bc  - Undefined Reference
    #<DLL>QtCore{00040703}[2001b2dc].dll#<\DLL>9bd  - Undefined Reference
    #<DLL>QtCore{00040703}[2001b2dc].dll#<\DLL>9be  - Undefined Reference
    #<DLL>QtCore{00040703}[2001b2dc].dll#<\DLL>9bf  - Undefined Reference
    #<DLL>QtCore{00040703}[2001b2dc].dll#<\DLL>9c1  - Undefined Reference
    #<DLL>QtCore{00040703}[2001b2dc].dll#<\DLL>9c3  - Undefined Reference
    #<DLL>QtCore{00040703}[2001b2dc].dll#<\DLL>9c4  - Undefined Reference
    #<DLL>QtCore{00040703}[2001b2dc].dll#<\DLL>9c5  - Undefined Reference
    #<DLL>QtCore{00040703}[2001b2dc].dll#<\DLL>9c6  - Undefined Reference
    #<DLL>QtCore{00040703}[2001b2dc].dll#<\DLL>9c7  - Undefined Reference
    #<DLL>QtCore{00040703}[2001b2dc].dll#<\DLL>9c8  - Undefined Reference
    #<DLL>QtCore{00040703}[2001b2dc].dll#<\DLL>9ca  - Undefined Reference
    #<DLL>QtCore{00040703}[2001b2dc].dll#<\DLL>9cb  - Undefined Reference
    #<DLL>QtCore{00040703}[2001b2dc].dll#<\DLL>9f  - Undefined Reference
    #<DLL>QtCore{00040703}[2001b2dc].dll#<\DLL>9f9  - Undefined Reference
    #<DLL>QtCore{00040703}[2001b2dc].dll#<\DLL>9fa  - Undefined Reference
    #<DLL>QtCore{00040703}[2001b2dc].dll#<\DLL>a0  - Undefined Reference
    #<DLL>QtCore{00040703}[2001b2dc].dll#<\DLL>a2  - Undefined Reference
    #<DLL>QtCore{00040703}[2001b2dc].dll#<\DLL>a33  - Undefined Reference
    #<DLL>QtCore{00040703}[2001b2dc].dll#<\DLL>a36  - Undefined Reference
    #<DLL>QtCore{00040703}[2001b2dc].dll#<\DLL>a4b  - Undefined Reference
    #<DLL>QtCore{00040703}[2001b2dc].dll#<\DLL>a4d  - Undefined Reference
    #<DLL>QtCore{00040703}[2001b2dc].dll#<\DLL>a53  - Undefined Reference
    #<DLL>QtCore{00040703}[2001b2dc].dll#<\DLL>a7  - Undefined Reference
    #<DLL>QtCore{00040703}[2001b2dc].dll#<\DLL>a8  - Undefined Reference
    #<DLL>QtCore{00040703}[2001b2dc].dll#<\DLL>abe  - Undefined Reference
    #<DLL>QtCore{00040703}[2001b2dc].dll#<\DLL>ac  - Undefined Reference
    #<DLL>QtCore{00040703}[2001b2dc].dll#<\DLL>b3  - Undefined Reference
    #<DLL>QtCore{00040703}[2001b2dc].dll#<\DLL>b67  - Undefined Reference
    #<DLL>QtCore{00040703}[2001b2dc].dll#<\DLL>b70  - Undefined Reference
    #<DLL>QtCore{00040703}[2001b2dc].dll#<\DLL>bbb  - Undefined Reference
    #<DLL>QtCore{00040703}[2001b2dc].dll#<\DLL>bc1  - Undefined Reference
    #<DLL>QtCore{00040703}[2001b2dc].dll#<\DLL>bc2  - Undefined Reference
    #<DLL>QtCore{00040703}[2001b2dc].dll#<\DLL>bc9  - Undefined Reference
    #<DLL>QtCore{00040703}[2001b2dc].dll#<\DLL>bce  - Undefined Reference
    #<DLL>QtCore{00040703}[2001b2dc].dll#<\DLL>bd9  - Undefined Reference
    #<DLL>QtCore{00040703}[2001b2dc].dll#<\DLL>be0  - Undefined Reference
    #<DLL>QtCore{00040703}[2001b2dc].dll#<\DLL>be9  - Undefined Reference
    #<DLL>QtCore{00040703}[2001b2dc].dll#<\DLL>bec  - Undefined Reference
    #<DLL>QtCore{00040703}[2001b2dc].dll#<\DLL>bf6  - Undefined Reference
    #<DLL>QtCore{00040703}[2001b2dc].dll#<\DLL>bf7  - Undefined Reference
    #<DLL>QtCore{00040703}[2001b2dc].dll#<\DLL>bf8  - Undefined Reference
    #<DLL>QtCore{00040703}[2001b2dc].dll#<\DLL>c0b  - Undefined Reference
    #<DLL>QtCore{00040703}[2001b2dc].dll#<\DLL>c19  - Undefined Reference
    #<DLL>QtCore{00040703}[2001b2dc].dll#<\DLL>c1a  - Undefined Reference
    #<DLL>QtCore{00040703}[2001b2dc].dll#<\DLL>c3d  - Undefined Reference
    #<DLL>QtCore{00040703}[2001b2dc].dll#<\DLL>c3f  - Undefined Reference
    #<DLL>QtCore{00040703}[2001b2dc].dll#<\DLL>c40  - Undefined Reference
    #<DLL>QtCore{00040703}[2001b2dc].dll#<\DLL>c42  - Undefined Reference
    #<DLL>QtCore{00040703}[2001b2dc].dll#<\DLL>c43  - Undefined Reference
    #<DLL>QtCore{00040703}[2001b2dc].dll#<\DLL>c5b  - Undefined Reference
    #<DLL>QtCore{00040703}[2001b2dc].dll#<\DLL>c5c  - Undefined Reference
    #<DLL>QtCore{00040703}[2001b2dc].dll#<\DLL>c5d  - Undefined Reference
    #<DLL>QtCore{00040703}[2001b2dc].dll#<\DLL>c5e  - Undefined Reference
    #<DLL>QtCore{00040703}[2001b2dc].dll#<\DLL>c81  - Undefined Reference
    #<DLL>QtCore{00040703}[2001b2dc].dll#<\DLL>c8c  - Undefined Reference
    #<DLL>QtCore{00040703}[2001b2dc].dll#<\DLL>ca6  - Undefined Reference
    #<DLL>QtCore{00040703}[2001b2dc].dll#<\DLL>cac  - Undefined Reference
    #<DLL>QtCore{00040703}[2001b2dc].dll#<\DLL>cad  - Undefined Reference
    #<DLL>QtCore{00040703}[2001b2dc].dll#<\DLL>caf  - Undefined Reference
    #<DLL>QtCore{00040703}[2001b2dc].dll#<\DLL>cb0  - Undefined Reference
    #<DLL>QtCore{00040703}[2001b2dc].dll#<\DLL>cb1  - Undefined Reference
    #<DLL>QtCore{00040703}[2001b2dc].dll#<\DLL>d84  - Undefined Reference
    #<DLL>QtCore{00040703}[2001b2dc].dll#<\DLL>d85  - Undefined Reference
    #<DLL>QtCore{00040703}[2001b2dc].dll#<\DLL>d9e  - Undefined Reference
    #<DLL>QtCore{00040703}[2001b2dc].dll#<\DLL>da6  - Undefined Reference
    #<DLL>QtCore{00040703}[2001b2dc].dll#<\DLL>dae  - Undefined Reference
    #<DLL>QtCore{00040703}[2001b2dc].dll#<\DLL>daf  - Undefined Reference
    #<DLL>QtCore{00040703}[2001b2dc].dll#<\DLL>db4  - Undefined Reference
    #<DLL>QtCore{00040703}[2001b2dc].dll#<\DLL>dbc  - Undefined Reference
    #<DLL>QtCore{00040703}[2001b2dc].dll#<\DLL>dc4  - Undefined Reference
    #<DLL>QtCore{00040703}[2001b2dc].dll#<\DLL>dc5  - Undefined Reference
    #<DLL>QtCore{00040703}[2001b2dc].dll#<\DLL>dff  - Undefined Reference
    #<DLL>QtCore{00040703}[2001b2dc].dll#<\DLL>e00  - Undefined Reference
    #<DLL>QtCore{00040703}[2001b2dc].dll#<\DLL>e01  - Undefined Reference
    #<DLL>QtCore{00040703}[2001b2dc].dll#<\DLL>e1  - Undefined Reference
    #<DLL>QtCore{00040703}[2001b2dc].dll#<\DLL>e19  - Undefined Reference
    #<DLL>QtCore{00040703}[2001b2dc].dll#<\DLL>e1a  - Undefined Reference
    #<DLL>QtCore{00040703}[2001b2dc].dll#<\DLL>e69  - Undefined Reference
    #<DLL>QtCore{00040703}[2001b2dc].dll#<\DLL>e6b  - Undefined Reference
    #<DLL>QtCore{00040703}[2001b2dc].dll#<\DLL>e9  - Undefined Reference
    #<DLL>QtCore{00040703}[2001b2dc].dll#<\DLL>ea  - Undefined Reference
    #<DLL>QtCore{00040703}[2001b2dc].dll#<\DLL>ec  - Undefined Reference
    #<DLL>QtCore{00040703}[2001b2dc].dll#<\DLL>f3  - Undefined Reference
    #<DLL>QtCore{00040703}[2001b2dc].dll#<\DLL>f6  - Undefined Reference
    #<DLL>QtCore{00040703}[2001b2dc].dll#<\DLL>f7  - Undefined Reference
    #<DLL>QtCore{00040703}[2001b2dc].dll#<\DLL>fa  - Undefined Reference
    #<DLL>QtCore{00040703}[2001b2dc].dll#<\DLL>fb  - Undefined Reference
    #<DLL>QtCore{00040703}[2001b2dc].dll#<\DLL>fe  - Undefined Reference
    #<DLL>QtCore{00040703}[2001b2dc].dll#<\DLL>ff  - Undefined Reference
    #<DLL>drtaeabi{000a0000}.dll#<\DLL>90     - Undefined Reference
    #<DLL>drtaeabi{000a0000}.dll#<\DLL>92     - Undefined Reference
    #<DLL>drtaeabi{000a0000}.dll#<\DLL>93     - Undefined Reference
    #<DLL>drtaeabi{000a0000}.dll#<\DLL>9b     - Undefined Reference
    #<DLL>drtaeabi{000a0000}.dll#<\DLL>9e     - Undefined Reference
    #<DLL>drtaeabi{000a0000}.dll#<\DLL>9f     - Undefined Reference
    #<DLL>drtaeabi{000a0000}.dll#<\DLL>b4     - Undefined Reference
    #<DLL>drtaeabi{000a0000}.dll#<\DLL>b6     - Undefined Reference
    #<DLL>drtaeabi{000a0000}.dll#<\DLL>b7     - Undefined Reference
    #<DLL>drtaeabi{000a0000}.dll#<\DLL>b8     - Undefined Reference
    #<DLL>drtaeabi{000a0000}.dll#<\DLL>ba     - Undefined Reference
    #<DLL>drtaeabi{000a0000}.dll#<\DLL>bb     - Undefined Reference
    #<DLL>drtaeabi{000a0000}.dll#<\DLL>bc     - Undefined Reference
    #<DLL>drtaeabi{000a0000}.dll#<\DLL>bd     - Undefined Reference
    #<DLL>drtaeabi{000a0000}.dll#<\DLL>be     - Undefined Reference
    #<DLL>drtrvct2_2{000a0000}.dll#<\DLL>1c   - Undefined Reference
    #<DLL>euser{000a0000}[100039e5].dll#<\DLL>193  - Undefined Reference
    #<DLL>euser{000a0000}[100039e5].dll#<\DLL>1a8  - Undefined Reference
    #<DLL>euser{000a0000}[100039e5].dll#<\DLL>25c  - Undefined Reference
    #<DLL>euser{000a0000}[100039e5].dll#<\DLL>27d  - Undefined Reference
    #<DLL>euser{000a0000}[100039e5].dll#<\DLL>285  - Undefined Reference
    #<DLL>euser{000a0000}[100039e5].dll#<\DLL>289  - Undefined Reference
    #<DLL>euser{000a0000}[100039e5].dll#<\DLL>28c  - Undefined Reference
    #<DLL>euser{000a0000}[100039e5].dll#<\DLL>28e  - Undefined Reference
    #<DLL>euser{000a0000}[100039e5].dll#<\DLL>29d  - Undefined Reference
    #<DLL>euser{000a0000}[100039e5].dll#<\DLL>29e  - Undefined Reference
    #<DLL>euser{000a0000}[100039e5].dll#<\DLL>29f  - Undefined Reference
    #<DLL>euser{000a0000}[100039e5].dll#<\DLL>37b  - Undefined Reference
    #<DLL>euser{000a0000}[100039e5].dll#<\DLL>37c  - Undefined Reference
    #<DLL>euser{000a0000}[100039e5].dll#<\DLL>3b9  - Undefined Reference
    #<DLL>euser{000a0000}[100039e5].dll#<\DLL>409  - Undefined Reference
    #<DLL>euser{000a0000}[100039e5].dll#<\DLL>440  - Undefined Reference
    #<DLL>euser{000a0000}[100039e5].dll#<\DLL>441  - Undefined Reference
    #<DLL>euser{000a0000}[100039e5].dll#<\DLL>442  - Undefined Reference
    #<DLL>euser{000a0000}[100039e5].dll#<\DLL>443  - Undefined Reference
    #<DLL>euser{000a0000}[100039e5].dll#<\DLL>446  - Undefined Reference
    #<DLL>euser{000a0000}[100039e5].dll#<\DLL>45c  - Undefined Reference
    #<DLL>euser{000a0000}[100039e5].dll#<\DLL>45d  - Undefined Reference
    #<DLL>euser{000a0000}[100039e5].dll#<\DLL>491  - Undefined Reference
    #<DLL>euser{000a0000}[100039e5].dll#<\DLL>505  - Undefined Reference
    #<DLL>euser{000a0000}[100039e5].dll#<\DLL>508  - Undefined Reference
    #<DLL>euser{000a0000}[100039e5].dll#<\DLL>50a  - Undefined Reference
    #<DLL>euser{000a0000}[100039e5].dll#<\DLL>50e  - Undefined Reference
    #<DLL>euser{000a0000}[100039e5].dll#<\DLL>51  - Undefined Reference
    #<DLL>euser{000a0000}[100039e5].dll#<\DLL>522  - Undefined Reference
    #<DLL>euser{000a0000}[100039e5].dll#<\DLL>528  - Undefined Reference
    #<DLL>euser{000a0000}[100039e5].dll#<\DLL>52c  - Undefined Reference
    #<DLL>euser{000a0000}[100039e5].dll#<\DLL>52e  - Undefined Reference
    #<DLL>euser{000a0000}[100039e5].dll#<\DLL>54b  - Undefined Reference
    #<DLL>euser{000a0000}[100039e5].dll#<\DLL>54c  - Undefined Reference
    #<DLL>euser{000a0000}[100039e5].dll#<\DLL>56b  - Undefined Reference
    #<DLL>euser{000a0000}[100039e5].dll#<\DLL>56c  - Undefined Reference
    #<DLL>euser{000a0000}[100039e5].dll#<\DLL>56d  - Undefined Reference
    #<DLL>euser{000a0000}[100039e5].dll#<\DLL>570  - Undefined Reference
    #<DLL>euser{000a0000}[100039e5].dll#<\DLL>571  - Undefined Reference
    #<DLL>euser{000a0000}[100039e5].dll#<\DLL>574  - Undefined Reference
    #<DLL>euser{000a0000}[100039e5].dll#<\DLL>5bc  - Undefined Reference
    #<DLL>euser{000a0000}[100039e5].dll#<\DLL>5bd  - Undefined Reference
    #<DLL>euser{000a0000}[100039e5].dll#<\DLL>5f6  - Undefined Reference
    #<DLL>euser{000a0000}[100039e5].dll#<\DLL>5f8  - Undefined Reference
    #<DLL>euser{000a0000}[100039e5].dll#<\DLL>600  - Undefined Reference
    #<DLL>euser{000a0000}[100039e5].dll#<\DLL>605  - Undefined Reference
    #<DLL>euser{000a0000}[100039e5].dll#<\DLL>608  - Undefined Reference
    #<DLL>euser{000a0000}[100039e5].dll#<\DLL>60b  - Undefined Reference
    #<DLL>euser{000a0000}[100039e5].dll#<\DLL>60c  - Undefined Reference
    #<DLL>euser{000a0000}[100039e5].dll#<\DLL>6b7  - Undefined Reference
    #<DLL>euser{000a0000}[100039e5].dll#<\DLL>70f  - Undefined Reference
    #<DLL>euser{000a0000}[100039e5].dll#<\DLL>732  - Undefined Reference
    #<DLL>euser{000a0000}[100039e5].dll#<\DLL>78  - Undefined Reference
    #<DLL>euser{000a0000}[100039e5].dll#<\DLL>7c8  - Undefined Reference
    #<DLL>euser{000a0000}[100039e5].dll#<\DLL>7cb  - Undefined Reference
    #<DLL>euser{000a0000}[100039e5].dll#<\DLL>7cd  - Undefined Reference
    #<DLL>euser{000a0000}[100039e5].dll#<\DLL>7cf  - Undefined Reference
    #<DLL>euser{000a0000}[100039e5].dll#<\DLL>7d0  - Undefined Reference
    #<DLL>euser{000a0000}[100039e5].dll#<\DLL>80c  - Undefined Reference
    #<DLL>euser{000a0000}[100039e5].dll#<\DLL>80d  - Undefined Reference
    #<DLL>euser{000a0000}[100039e5].dll#<\DLL>822  - Undefined Reference
    #<DLL>euser{000a0000}[100039e5].dll#<\DLL>848  - Undefined Reference
    #<DLL>euser{000a0000}[100039e5].dll#<\DLL>850  - Undefined Reference
    #<DLL>euser{000a0000}[100039e5].dll#<\DLL>853  - Undefined Reference
    #<DLL>euser{000a0000}[100039e5].dll#<\DLL>9f  - Undefined Reference
    #<DLL>euser{000a0000}[100039e5].dll#<\DLL>cd  - Undefined Reference
    #<DLL>euser{000a0000}[100039e5].dll#<\DLL>d0  - Undefined Reference
    #<DLL>libc{00010000}[10207369].dll#<\DLL>15e  - Undefined Reference
    #<DLL>libc{00010000}[10207369].dll#<\DLL>e8  - Undefined Reference
    #<DLL>libstdcpp{00010000}[10282872].dll#<\DLL>3dc  - Undefined Reference
    #<DLL>libstdcpp{00010000}[10282872].dll#<\DLL>3e0  - Undefined Reference
    SHT$$INIT_ARRAY$$Base                     - Undefined Weak Reference
    SHT$$INIT_ARRAY$$Limit                    - Undefined Weak Reference
    QByteArray::shared_null                   - Undefined Reference
    QVectorData::shared_null                  - Undefined Reference
    QCoreApplication::self                    - Undefined Reference
    QObject::staticMetaObject                 - Undefined Reference
    QString::shared_null                      - Undefined Reference
    QString::codecForCStrings                 - Undefined Reference
    QMapData::shared_null                     - Undefined Reference
    QHashData::shared_null                    - Undefined Reference
    QListData::shared_null                    - Undefined Reference
    typeinfo for CPolicyServer                - Undefined Reference
    typeinfo for QObjectUserData              - Undefined Reference
    typeinfo for XLeaveException              - Undefined Reference
    typeinfo for CActive                      - Undefined Reference
    typeinfo for QObject                      - Undefined Reference
    typeinfo for CSession2                    - Undefined Reference
    typeinfo for std::exception               - Undefined Reference
    vtable for __cxxabiv1::__class_type_info  - Undefined Reference
    vtable for __cxxabiv1::__si_class_type_info  - Undefined Reference
    vtable for __cxxabiv1::__vmi_class_type_info  - Undefined Reference
    _fp_init                                  - Undefined Weak Reference
    Image$$ER_RO$$Base                       0x00008000   Number         0  anon$$obj.o(linker$$defined$$symbols)
    _E32Dll                                  0x00008000   ARM Code      40  uc_dll_.o(.emb_text)
    Symbian$$CPP$$Exception$$Descriptor      0x00008014   Data           0  uc_dll_.o(.emb_text)
    __cpp_initialize__aeabi_                 0x00008028   ARM Code      72  ucppinit_aeabi.o(.emb_text)
    QtMobility::ServiceMetaData::ServiceMetaData(const QString&) 0x00008071   Thumb Code   122  QtServiceFramework.in(.text)
    QtMobility::ServiceMetaData::ServiceMetaData__sub_object(const QString&) 0x00008071   Thumb Code     0  QtServiceFramework.in(.text)
    std::nothrow                             0x00008071   Thumb Code     0  ucppinit_aeabi.o(.emb_text)
    QtMobility::ServiceMetaData::ServiceMetaData(QIODevice*) 0x000080eb   Thumb Code    94  QtServiceFramework.in(.text)
    QtMobility::ServiceMetaData::ServiceMetaData__sub_object(QIODevice*) 0x000080eb   Thumb Code     0  QtServiceFramework.in(.text)
    QtMobility::ServiceMetaData::~ServiceMetaData() 0x00008149   Thumb Code   102  QtServiceFramework.in(.text)
    QtMobility::ServiceMetaData::~ServiceMetaData__sub_object() 0x00008149   Thumb Code     0  QtServiceFramework.in(.text)
    QtMobility::ServiceMetaData::clearMetadata() 0x000081af   Thumb Code   204  QtServiceFramework.in(.text)
    QtMobility::ServiceMetaData::setDevice(QIODevice*) 0x0000827b   Thumb Code    18  QtServiceFramework.in(.text)
    QtMobility::ServiceMetaData::device() const 0x0000828d   Thumb Code     4  QtServiceFramework.in(.text)
    QtMobility::ServiceMetaData::checkVersion(const QString&) const 0x00008291   Thumb Code   148  QtServiceFramework.in(.text)
    QtMobility::ServiceMetaData::transformVersion(const QString&, int*, int*) const 0x00008325   Thumb Code   120  QtServiceFramework.in(.text)
    QtMobility::ServiceMetaData::greaterThan(const QString&, const QString&) const 0x0000839d   Thumb Code    64  QtServiceFramework.in(.text)
    QtMobility::ServiceMetaData::latestInterfaceVersion(const QString&) 0x000083dd   Thumb Code   126  QtServiceFramework.in(.text)
    QtMobility::ServiceMetaData::lessThan(const QtMobility::QServiceInterfaceDescriptor&, const QtMobility::QServiceInterfaceDescriptor&) const 0x0000845b   Thumb Code    68  QtServiceFramework.in(.text)
    QtMobility::ServiceMetaData::processInterfaceElement(QXmlStreamReader&) 0x0000849f   Thumb Code  1520  QtServiceFramework.in(.text)
    QtMobility::ServiceMetaData::processServiceElement(QXmlStreamReader&) 0x00008a8f   Thumb Code   912  QtServiceFramework.in(.text)
    QtMobility::ServiceMetaData::processVersionElement(QXmlStreamReader&) 0x00008e1f   Thumb Code   446  QtServiceFramework.in(.text)
    QtMobility::ServiceMetaData::extractMetadata() 0x00008fdd   Thumb Code  1616  QtServiceFramework.in(.text)
    QtMobility::ServiceMetaData::getLatestError() const 0x0000962d   Thumb Code     4  QtServiceFramework.in(.text)
    QtMobility::ServiceMetaData::latestInterfaces() const 0x00009631   Thumb Code    80  QtServiceFramework.in(.text)
    QtMobility::ServiceMetaData::parseResults() const 0x00009681   Thumb Code   136  QtServiceFramework.in(.text)
    QtMobility::operator <<(QDataStream&, const QtMobility::ServiceMetaDataResults&) 0x00009709   Thumb Code    56  QtServiceFramework.in(.text)
    QtMobility::operator >>(QDataStream&, QtMobility::ServiceMetaDataResults&) 0x00009741   Thumb Code    54  QtServiceFramework.in(.text)
    QtMobility::QServiceManager::getStaticMetaObject() 0x000097c1   Thumb Code     4  QtServiceFramework.in(.text)
    QtMobility::QServiceManager::metaObject() const 0x000097c5   Thumb Code    12  QtServiceFramework.in(.text)
    QtMobility::QServiceManager::qt_metacast(const char*) 0x000097d1   Thumb Code    40  QtServiceFramework.in(.text)
    QtMobility::QServiceManager::serviceRemoved(const QString&, QtMobility::QService::Scope) 0x000097f9   Thumb Code    36  QtServiceFramework.in(.text)
    QtMobility::QServiceManager::serviceAdded(const QString&, QtMobility::QService::Scope) 0x0000981d   Thumb Code    32  QtServiceFramework.in(.text)
    QtMobility::QServiceManager::qt_metacall(QMetaObject::Call, int, void**) 0x0000983d   Thumb Code    60  QtServiceFramework.in(.text)
    QtMobility::QServiceManager::QServiceManager(QObject*) 0x00009879   Thumb Code    56  QtServiceFramework.in(.text)
    QtMobility::QServiceManager::QServiceManager__sub_object(QObject*) 0x00009879   Thumb Code     0  QtServiceFramework.in(.text)
    QtMobility::QServiceManager::QServiceManager(QtMobility::QService::Scope, QObject*) 0x000098b1   Thumb Code    46  QtServiceFramework.in(.text)
    QtMobility::QServiceManager::QServiceManager__sub_object(QtMobility::QService::Scope, QObject*) 0x000098b1   Thumb Code     0  QtServiceFramework.in(.text)
    QtMobility::QServiceManager::~QServiceManager() 0x000098df   Thumb Code    28  QtServiceFramework.in(.text)
    QtMobility::QServiceManager::~QServiceManager__sub_object() 0x000098df   Thumb Code     0  QtServiceFramework.in(.text)
    QtMobility::QServiceManager::~QServiceManager__deallocating() 0x000098fb   Thumb Code    16  QtServiceFramework.in(.text)
    QtMobility::QServiceManager::scope() const 0x0000990b   Thumb Code     6  QtServiceFramework.in(.text)
    QtMobility::QServiceManager::findServices(const QString&) const 0x00009911   Thumb Code   100  QtServiceFramework.in(.text)
    QtMobility::QServiceManager::findInterfaces(const QtMobility::QServiceFilter&) const 0x00009975   Thumb Code   128  QtServiceFramework.in(.text)
    QtMobility::QServiceManager::findInterfaces(const QString&) const 0x000099f5   Thumb Code    50  QtServiceFramework.in(.text)
    QtMobility::QServiceManager::interfaceDefault(const QString&) const 0x00009a27   Thumb Code    84  QtServiceFramework.in(.text)
    QtMobility::QServiceManager::loadInterface(const QtMobility::QServiceInterfaceDescriptor&, QtMobility::QServiceContext*, QtMobility::QAbstractSecuritySession*) 0x00009c05   Thumb Code   786  QtServiceFramework.in(.text)
    QtMobility::QServiceManager::loadInterface(const QString&, QtMobility::QServiceContext*, QtMobility::QAbstractSecuritySession*) 0x00009f17   Thumb Code    42  QtServiceFramework.in(.text)
    QtMobility::QServiceManager::addService(QIODevice*) 0x00009f41   Thumb Code   250  QtServiceFramework.in(.text)
    QtMobility::QServiceManager::addService(const QString&) 0x0000a03b   Thumb Code   114  QtServiceFramework.in(.text)
    QtMobility::QServiceManager::removeService(const QString&) 0x0000a0ad   Thumb Code   466  QtServiceFramework.in(.text)
    QtMobility::QServiceManager::setInterfaceDefault(const QString&, const QString&) 0x0000a27f   Thumb Code    82  QtServiceFramework.in(.text)
    QtMobility::QServiceManager::setInterfaceDefault(const QtMobility::QServiceInterfaceDescriptor&) 0x0000a2d1   Thumb Code    46  QtServiceFramework.in(.text)
    QtMobility::QServiceManager::error() const 0x0000a2ff   Thumb Code     6  QtServiceFramework.in(.text)
    QtMobility::QServiceManager::connectNotify(const char*) 0x0000a305   Thumb Code    66  QtServiceFramework.in(.text)
    QtMobility::QServiceManager::disconnectNotify(const char*) 0x0000a347   Thumb Code    90  QtServiceFramework.in(.text)
    QtMobility::QServicePluginCleanup::getStaticMetaObject() 0x0000a3a1   Thumb Code     4  QtServiceFramework.in(.text)
    QtMobility::QServicePluginCleanup::metaObject() const 0x0000a3a5   Thumb Code    12  QtServiceFramework.in(.text)
    QtMobility::QServicePluginCleanup::qt_metacast(const char*) 0x0000a3b1   Thumb Code    40  QtServiceFramework.in(.text)
    QtMobility::QServicePluginCleanup::qt_metacall(QMetaObject::Call, int, void**) 0x0000a3d9   Thumb Code     8  QtServiceFramework.in(.text)
    QtMobility::QServiceManagerPrivate::getStaticMetaObject() 0x0000a3e1   Thumb Code     6  QtServiceFramework.in(.text)
    QtMobility::QServiceManagerPrivate::metaObject() const 0x0000a3e7   Thumb Code    14  QtServiceFramework.in(.text)
    QtMobility::QServiceManagerPrivate::qt_metacast(const char*) 0x0000a3f5   Thumb Code    40  QtServiceFramework.in(.text)
    QtMobility::QServiceManagerPrivate::qt_metacall(QMetaObject::Call, int, void**) 0x0000a41d   Thumb Code   176  QtServiceFramework.in(.text)
    QtMobility::QServicePluginInterface::QServicePluginInterface__sub_object() 0x0000a4cd   Thumb Code     6  QtServiceFramework.in(.text)
    QtMobility::QServicePluginInterface::~QServicePluginInterface() 0x0000a4d3   Thumb Code     0  QtServiceFramework.in(.text)
    QtMobility::QServicePluginInterface::~QServicePluginInterface__sub_object() 0x0000a4d3   Thumb Code     2  QtServiceFramework.in(.text)
    QtMobility::QServicePluginInterface::~QServicePluginInterface__deallocating() 0x0000a4d5   Thumb Code    12  QtServiceFramework.in(.text)
    QtMobility::QServicePluginInterface::installService() 0x0000a4e1   Thumb Code     2  QtServiceFramework.in(.text)
    QtMobility::QServicePluginInterface::uninstallService() 0x0000a4e3   Thumb Code     2  QtServiceFramework.in(.text)
    QtMobility::QServiceContext::getStaticMetaObject() 0x0000a4e9   Thumb Code     4  QtServiceFramework.in(.text)
    QtMobility::QServiceContext::metaObject() const 0x0000a4ed   Thumb Code    12  QtServiceFramework.in(.text)
    QtMobility::QServiceContext::qt_metacast(const char*) 0x0000a4f9   Thumb Code    40  QtServiceFramework.in(.text)
    QtMobility::QServiceContext::setClientName(const QString&) 0x0000a521   Thumb Code    10  QtServiceFramework.in(.text)
    QtMobility::QServiceContext::setClientId(const QString&) 0x0000a52b   Thumb Code    10  QtServiceFramework.in(.text)
    QtMobility::QServiceContext::clientName() const 0x0000a535   Thumb Code    10  QtServiceFramework.in(.text)
    QtMobility::QServiceContext::clientId() const 0x0000a53f   Thumb Code    10  QtServiceFramework.in(.text)
    QtMobility::QServiceContext::qt_metacall(QMetaObject::Call, int, void**) 0x0000a549   Thumb Code   136  QtServiceFramework.in(.text)
    QtMobility::QServiceContext::QServiceContext__sub_object(QObject*) 0x0000a5d1   Thumb Code    82  QtServiceFramework.in(.text)
    QtMobility::QServiceContext::~QServiceContext() 0x0000a623   Thumb Code     0  QtServiceFramework.in(.text)
    QtMobility::QServiceContext::~QServiceContext__sub_object() 0x0000a623   Thumb Code    36  QtServiceFramework.in(.text)
    QtMobility::QServiceContext::~QServiceContext__deallocating() 0x0000a647   Thumb Code    16  QtServiceFramework.in(.text)
    QtMobility::QServiceContext::clientData(const QString&) const 0x0000a657   Thumb Code    62  QtServiceFramework.in(.text)
    QtMobility::QServiceContext::setClientData(const QString&, const QVariant&) 0x0000a695   Thumb Code    28  QtServiceFramework.in(.text)
    QtMobility::QServiceContext::resetClientData() 0x0000a6b1   Thumb Code    74  QtServiceFramework.in(.text)
    QtMobility::QAbstractSecuritySession::getStaticMetaObject() 0x0000a709   Thumb Code     4  QtServiceFramework.in(.text)
    QtMobility::QAbstractSecuritySession::metaObject() const 0x0000a70d   Thumb Code    12  QtServiceFramework.in(.text)
    QtMobility::QAbstractSecuritySession::qt_metacast(const char*) 0x0000a719   Thumb Code    40  QtServiceFramework.in(.text)
    QtMobility::QAbstractSecuritySession::qt_metacall(QMetaObject::Call, int, void**) 0x0000a741   Thumb Code     8  QtServiceFramework.in(.text)
    QtMobility::QAbstractSecuritySession::QAbstractSecuritySession__sub_object(QObject*) 0x0000a749   Thumb Code    12  QtServiceFramework.in(.text)
    QtMobility::QAbstractSecuritySession::~QAbstractSecuritySession() 0x0000a755   Thumb Code     0  QtServiceFramework.in(.text)
    QtMobility::QAbstractSecuritySession::~QAbstractSecuritySession__sub_object() 0x0000a755   Thumb Code     8  QtServiceFramework.in(.text)
    QtMobility::QAbstractSecuritySession::~QAbstractSecuritySession__deallocating() 0x0000a75d   Thumb Code    16  QtServiceFramework.in(.text)
    QtMobility::operator <<(QDataStream&, const QtMobility::QServiceInterfaceDescriptor::Attribute&) 0x0000a775   Thumb Code    20  QtServiceFramework.in(.text)
    QtMobility::operator >>(QDataStream&, QtMobility::QServiceInterfaceDescriptor::Attribute&) 0x0000a789   Thumb Code    22  QtServiceFramework.in(.text)
    QtMobility::QServiceInterfaceDescriptor::QServiceInterfaceDescriptor() 0x0000a79f   Thumb Code     6  QtServiceFramework.in(.text)
    QtMobility::QServiceInterfaceDescriptor::QServiceInterfaceDescriptor__sub_object() 0x0000a79f   Thumb Code     0  QtServiceFramework.in(.text)
    QtMobility::QServiceInterfaceDescriptor::isValid() const 0x0000a7a5   Thumb Code    14  QtServiceFramework.in(.text)
    QtMobility::QServiceInterfaceDescriptor::operator =(const QtMobility::QServiceInterfaceDescriptor&) 0x0000a7b3   Thumb Code   122  QtServiceFramework.in(.text)
    QtMobility::QServiceInterfaceDescriptor::QServiceInterfaceDescriptor(const QtMobility::QServiceInterfaceDescriptor&) 0x0000a82d   Thumb Code    18  QtServiceFramework.in(.text)
    QtMobility::QServiceInterfaceDescriptor::QServiceInterfaceDescriptor__sub_object(const QtMobility::QServiceInterfaceDescriptor&) 0x0000a82d   Thumb Code     0  QtServiceFramework.in(.text)
    QtMobility::QServiceInterfaceDescriptor::~QServiceInterfaceDescriptor() 0x0000a83f   Thumb Code    22  QtServiceFramework.in(.text)
    QtMobility::QServiceInterfaceDescriptor::~QServiceInterfaceDescriptor__sub_object() 0x0000a83f   Thumb Code     0  QtServiceFramework.in(.text)
    QtMobility::QServiceInterfaceDescriptor::operator ==(const QtMobility::QServiceInterfaceDescriptor&) const 0x0000a855   Thumb Code   118  QtServiceFramework.in(.text)
    QtMobility::QServiceInterfaceDescriptor::serviceName() const 0x0000a8cb   Thumb Code    40  QtServiceFramework.in(.text)
    QtMobility::QServiceInterfaceDescriptor::interfaceName() const 0x0000a8f3   Thumb Code    44  QtServiceFramework.in(.text)
    QtMobility::QServiceInterfaceDescriptor::majorVersion() const 0x0000a91f   Thumb Code    16  QtServiceFramework.in(.text)
    QtMobility::QServiceInterfaceDescriptor::minorVersion() const 0x0000a92f   Thumb Code    16  QtServiceFramework.in(.text)
    QtMobility::QServiceInterfaceDescriptor::scope() const 0x0000a93f   Thumb Code    14  QtServiceFramework.in(.text)
    QtMobility::QServiceInterfaceDescriptor::attribute(QtMobility::QServiceInterfaceDescriptor::Attribute) const 0x0000a94d   Thumb Code    66  QtServiceFramework.in(.text)
    QtMobility::QServiceInterfaceDescriptor::customAttribute(const QString&) const 0x0000a98f   Thumb Code   116  QtServiceFramework.in(.text)
    QtMobility::QServiceInterfaceDescriptor::customAttributes() const 0x0000aa03   Thumb Code    56  QtServiceFramework.in(.text)
    QtMobility::operator <<(QDebug, const QtMobility::QServiceInterfaceDescriptor&) 0x0000aa3b   Thumb Code   342  QtServiceFramework.in(.text)
    QtMobility::operator <<(QDataStream&, const QtMobility::QServiceInterfaceDescriptor&) 0x0000ab91   Thumb Code   180  QtServiceFramework.in(.text)
    QtMobility::operator >>(QDataStream&, QtMobility::QServiceInterfaceDescriptor&) 0x0000ac45   Thumb Code   238  QtServiceFramework.in(.text)
    QtMobility::QServiceFilter::QServiceFilter() 0x0000adf1   Thumb Code    60  QtServiceFramework.in(.text)
    QtMobility::QServiceFilter::QServiceFilter__sub_object() 0x0000adf1   Thumb Code     0  QtServiceFramework.in(.text)
    QtMobility::QServiceFilter::~QServiceFilter() 0x0000ae2d   Thumb Code    54  QtServiceFramework.in(.text)
    QtMobility::QServiceFilter::~QServiceFilter__sub_object() 0x0000ae2d   Thumb Code     0  QtServiceFramework.in(.text)
    QtMobility::QServiceFilter::operator =(const QtMobility::QServiceFilter&) 0x0000ae63   Thumb Code    86  QtServiceFramework.in(.text)
    QtMobility::QServiceFilter::QServiceFilter(const QtMobility::QServiceFilter&) 0x0000aeb9   Thumb Code    48  QtServiceFramework.in(.text)
    QtMobility::QServiceFilter::QServiceFilter__sub_object(const QtMobility::QServiceFilter&) 0x0000aeb9   Thumb Code     0  QtServiceFramework.in(.text)
    QtMobility::QServiceFilter::setInterface(const QString&, const QString&, QtMobility::QServiceFilter::VersionMatchRule) 0x0000aee9   Thumb Code   352  QtServiceFramework.in(.text)
    QtMobility::QServiceFilter::QServiceFilter(const QString&, const QString&, QtMobility::QServiceFilter::VersionMatchRule) 0x0000b049   Thumb Code    80  QtServiceFramework.in(.text)
    QtMobility::QServiceFilter::QServiceFilter__sub_object(const QString&, const QString&, QtMobility::QServiceFilter::VersionMatchRule) 0x0000b049   Thumb Code     0  QtServiceFramework.in(.text)
    QtMobility::QServiceFilter::setServiceName(const QString&) 0x0000b099   Thumb Code    12  QtServiceFramework.in(.text)
    QtMobility::QServiceFilter::serviceName() const 0x0000b0a5   Thumb Code    12  QtServiceFramework.in(.text)
    QtMobility::QServiceFilter::interfaceName() const 0x0000b0b1   Thumb Code    10  QtServiceFramework.in(.text)
    QtMobility::QServiceFilter::majorVersion() const 0x0000b0bb   Thumb Code     6  QtServiceFramework.in(.text)
    QtMobility::QServiceFilter::minorVersion() const 0x0000b0c1   Thumb Code     6  QtServiceFramework.in(.text)
    QtMobility::QServiceFilter::versionMatchRule() const 0x0000b0c7   Thumb Code     6  QtServiceFramework.in(.text)
    QtMobility::QServiceFilter::customAttributes() const 0x0000b0cd   Thumb Code    30  QtServiceFramework.in(.text)
    QtMobility::QServiceFilter::customAttribute(const QString&) const 0x0000b0eb   Thumb Code    56  QtServiceFramework.in(.text)
    QtMobility::QServiceFilter::setCustomAttribute(const QString&, const QString&) 0x0000b123   Thumb Code    84  QtServiceFramework.in(.text)
    QtMobility::QServiceFilter::clearCustomAttribute(const QString&) 0x0000b177   Thumb Code    36  QtServiceFramework.in(.text)
    QtMobility::QServiceFilter::setCapabilities(QtMobility::QServiceFilter::CapabilityMatchRule, const QStringList&) 0x0000b19b   Thumb Code    20  QtServiceFramework.in(.text)
    QtMobility::QServiceFilter::capabilities() const 0x0000b1af   Thumb Code    12  QtServiceFramework.in(.text)
    QtMobility::QServiceFilter::capabilityMatchRule() const 0x0000b1bb   Thumb Code     6  QtServiceFramework.in(.text)
    QtMobility::operator <<(QDataStream&, const QtMobility::QServiceFilter&) 0x0000b1c1   Thumb Code   150  QtServiceFramework.in(.text)
    QtMobility::operator >>(QDataStream&, QtMobility::QServiceFilter&) 0x0000b257   Thumb Code   430  QtServiceFramework.in(.text)
    QtMobility::DBError::setError(QtMobility::DBError::ErrorCode, const QString&) 0x0000b405   Thumb Code   124  QtServiceFramework.in(.text)
    QtMobility::DBError::DBError()           0x0000b481   Thumb Code    34  QtServiceFramework.in(.text)
    QtMobility::DBError::DBError__sub_object() 0x0000b481   Thumb Code     0  QtServiceFramework.in(.text)
    QtMobility::QRemoteServiceRegister::getStaticMetaObject() 0x0000b515   Thumb Code     4  QtServiceFramework.in(.text)
    QtMobility::QRemoteServiceRegister::metaObject() const 0x0000b519   Thumb Code    12  QtServiceFramework.in(.text)
    QtMobility::QRemoteServiceRegister::qt_metacast(const char*) 0x0000b525   Thumb Code    40  QtServiceFramework.in(.text)
    QtMobility::QRemoteServiceRegister::setQuitOnLastInstanceClosed(bool) 0x0000b54d   Thumb Code     8  QtServiceFramework.in(.text)
    QtMobility::QRemoteServiceRegister::quitOnLastInstanceClosed() const 0x0000b555   Thumb Code     8  QtServiceFramework.in(.text)
    QtMobility::QRemoteServiceRegister::instanceClosed(const QtMobility::QRemoteServiceRegister::Entry&) 0x0000b55d   Thumb Code    24  QtServiceFramework.in(.text)
    QtMobility::QRemoteServiceRegister::allInstancesClosed() 0x0000b575   Thumb Code    14  QtServiceFramework.in(.text)
    QtMobility::QRemoteServiceRegister::qt_metacall(QMetaObject::Call, int, void**) 0x0000b583   Thumb Code   118  QtServiceFramework.in(.text)
    QtMobility::QRemoteServiceRegister::QRemoteServiceRegister(QObject*) 0x0000b5f9   Thumb Code    60  QtServiceFramework.in(.text)
    QtMobility::QRemoteServiceRegister::QRemoteServiceRegister__sub_object(QObject*) 0x0000b5f9   Thumb Code     0  QtServiceFramework.in(.text)
    QtMobility::QRemoteServiceRegister::~QRemoteServiceRegister() 0x0000b635   Thumb Code     8  QtServiceFramework.in(.text)
    QtMobility::QRemoteServiceRegister::~QRemoteServiceRegister__sub_object() 0x0000b635   Thumb Code     0  QtServiceFramework.in(.text)
    QtMobility::QRemoteServiceRegister::~QRemoteServiceRegister__deallocating() 0x0000b63d   Thumb Code    16  QtServiceFramework.in(.text)
    QtMobility::QRemoteServiceRegister::publishEntries(const QString&) 0x0000b64d   Thumb Code     8  QtServiceFramework.in(.text)
    QtMobility::QRemoteServiceRegister::setSecurityFilter(bool(*)(const void*)) 0x0000b655   Thumb Code     8  QtServiceFramework.in(.text)
    QtMobility::QRemoteServiceRegister::Entry::~Entry() 0x0000b65d   Thumb Code     8  QtServiceFramework.in(.text)
    QtMobility::QRemoteServiceRegister::Entry::~Entry__sub_object() 0x0000b65d   Thumb Code     0  QtServiceFramework.in(.text)
    QtMobility::QRemoteServiceRegister::Entry::Entry(const QtMobility::QRemoteServiceRegister::Entry&) 0x0000b665   Thumb Code    20  QtServiceFramework.in(.text)
    QtMobility::QRemoteServiceRegister::Entry::Entry__sub_object(const QtMobility::QRemoteServiceRegister::Entry&) 0x0000b665   Thumb Code     0  QtServiceFramework.in(.text)
    QtMobility::QRemoteServiceRegister::Entry::Entry() 0x0000b679   Thumb Code   126  QtServiceFramework.in(.text)
    QtMobility::QRemoteServiceRegister::Entry::Entry__sub_object() 0x0000b679   Thumb Code     0  QtServiceFramework.in(.text)
    QtMobility::QRemoteServiceRegister::createEntry(const QString&, const QString&, const QString&, QObject*(*)(), const QMetaObject*) 0x0000b6f7   Thumb Code   190  QtServiceFramework.in(.text)
    QtMobility::QRemoteServiceRegister::Entry::operator =(const QtMobility::QRemoteServiceRegister::Entry&) 0x0000b7b5   Thumb Code    56  QtServiceFramework.in(.text)
    QtMobility::QRemoteServiceRegister::Entry::operator ==(const QtMobility::QRemoteServiceRegister::Entry&) const 0x0000b7ed   Thumb Code    62  QtServiceFramework.in(.text)
    QtMobility::QRemoteServiceRegister::Entry::operator !=(const QtMobility::QRemoteServiceRegister::Entry&) const 0x0000b82b   Thumb Code    18  QtServiceFramework.in(.text)
    QtMobility::QRemoteServiceRegister::Entry::isValid() const 0x0000b83d   Thumb Code    62  QtServiceFramework.in(.text)
    QtMobility::QRemoteServiceRegister::Entry::interfaceName() const 0x0000b87b   Thumb Code    12  QtServiceFramework.in(.text)
    QtMobility::QRemoteServiceRegister::Entry::serviceName() const 0x0000b887   Thumb Code    12  QtServiceFramework.in(.text)
    QtMobility::QRemoteServiceRegister::Entry::version() const 0x0000b893   Thumb Code    12  QtServiceFramework.in(.text)
    QtMobility::QRemoteServiceRegister::Entry::setInstantiationType(QtMobility::QRemoteServiceRegister::InstanceType) 0x0000b89f   Thumb Code     6  QtServiceFramework.in(.text)
    QtMobility::QRemoteServiceRegister::Entry::instantiationType() const 0x0000b8a5   Thumb Code     6  QtServiceFramework.in(.text)
    QtMobility::QRemoteServiceRegister::Entry::metaObject() const 0x0000b8ab   Thumb Code     6  QtServiceFramework.in(.text)
    QtMobility::operator >>(QDataStream&, QtMobility::QRemoteServiceRegister::Entry&) 0x0000b8b1   Thumb Code   116  QtServiceFramework.in(.text)
    QtMobility::operator <<(QDataStream&, const QtMobility::QRemoteServiceRegister::Entry&) 0x0000b925   Thumb Code    36  QtServiceFramework.in(.text)
    QtMobility::operator <<(QDebug, const QtMobility::QRemoteServiceRegister::Entry&) 0x0000b949   Thumb Code   126  QtServiceFramework.in(.text)
    QtMobility::RDatabaseManagerSession::RDatabaseManagerSession() 0x0000b9f1   Thumb Code    50  QtServiceFramework.in(.text)
    QtMobility::RDatabaseManagerSession::RDatabaseManagerSession__sub_object() 0x0000b9f1   Thumb Code     0  QtServiceFramework.in(.text)
    QtMobility::RDatabaseManagerSession::StartServer() 0x0000ba23   Thumb Code   158  QtServiceFramework.in(.text)
    QtMobility::RDatabaseManagerSession::Connect() 0x0000bac1   Thumb Code    74  QtServiceFramework.in(.text)
    QtMobility::RDatabaseManagerSession::Close() 0x0000bb0b   Thumb Code     8  QtServiceFramework.in(.text)
    QtMobility::RDatabaseManagerSession::Version() const 0x0000bb13   Thumb Code    18  QtServiceFramework.in(.text)
    QtMobility::RDatabaseManagerSession::RegisterService(QtMobility::ServiceMetaDataResults&) 0x0000bb25   Thumb Code   108  QtServiceFramework.in(.text)
    QtMobility::RDatabaseManagerSession::UnregisterService(const QString&) 0x0000bb91   Thumb Code    62  QtServiceFramework.in(.text)
    QtMobility::RDatabaseManagerSession::ServiceInitialized(const QString&) 0x0000bbcf   Thumb Code    60  QtServiceFramework.in(.text)
    QtMobility::RDatabaseManagerSession::Interfaces(const QtMobility::QServiceFilter&) 0x0000bc0b   Thumb Code   222  QtServiceFramework.in(.text)
    QtMobility::RDatabaseManagerSession::ServiceNames(const QString&) 0x0000bce9   Thumb Code   208  QtServiceFramework.in(.text)
    QtMobility::RDatabaseManagerSession::InterfaceDefault(const QString&) 0x0000bdb9   Thumb Code   222  QtServiceFramework.in(.text)
    QtMobility::RDatabaseManagerSession::SetInterfaceDefault(const QString&, const QString&) 0x0000be97   Thumb Code    84  QtServiceFramework.in(.text)
    QtMobility::RDatabaseManagerSession::SetInterfaceDefault(const QtMobility::QServiceInterfaceDescriptor&) 0x0000beeb   Thumb Code   106  QtServiceFramework.in(.text)
    QtMobility::RDatabaseManagerSession::LastError() 0x0000bf55   Thumb Code    40  QtServiceFramework.in(.text)
    QtMobility::RDatabaseManagerSession::SetChangeNotificationsEnabled(bool) 0x0000bf7d   Thumb Code    30  QtServiceFramework.in(.text)
    QtMobility::RDatabaseManagerSession::NotifyServiceSignal(TRequestStatus&) 0x0000bf9b   Thumb Code    66  QtServiceFramework.in(.text)
    QtMobility::RDatabaseManagerSession::CancelNotifyServiceSignal() const 0x0000bfdd   Thumb Code    20  QtServiceFramework.in(.text)
    QtMobility::DatabaseManager::getStaticMetaObject() 0x0000bff1   Thumb Code     4  QtServiceFramework.in(.text)
    QtMobility::DatabaseManager::metaObject() const 0x0000bff5   Thumb Code    12  QtServiceFramework.in(.text)
    QtMobility::DatabaseManager::qt_metacast(const char*) 0x0000c001   Thumb Code    40  QtServiceFramework.in(.text)
    QtMobility::DatabaseManager::serviceRemoved(const QString&, QtMobility::DatabaseManager::DbScope) 0x0000c029   Thumb Code    34  QtServiceFramework.in(.text)
    QtMobility::DatabaseManager::serviceAdded(const QString&, QtMobility::DatabaseManager::DbScope) 0x0000c04b   Thumb Code    32  QtServiceFramework.in(.text)
    QtMobility::DatabaseManager::qt_metacall(QMetaObject::Call, int, void**) 0x0000c06b   Thumb Code    60  QtServiceFramework.in(.text)
    QtMobility::DatabaseManagerSignalMonitor::issueNotifyServiceSignal() 0x0000c0a7   Thumb Code    20  QtServiceFramework.in(.text)
    QtMobility::DatabaseManagerSignalMonitor::DatabaseManagerSignalMonitor(QtMobility::DatabaseManager&, QtMobility::RDatabaseManagerSession&) 0x0000c0bb   Thumb Code    38  QtServiceFramework.in(.text)
    QtMobility::DatabaseManagerSignalMonitor::DatabaseManagerSignalMonitor__sub_object(QtMobility::DatabaseManager&, QtMobility::RDatabaseManagerSession&) 0x0000c0bb   Thumb Code     0  QtServiceFramework.in(.text)
    QtMobility::DatabaseManager::DatabaseManager() 0x0000c0e1   Thumb Code    74  QtServiceFramework.in(.text)
    QtMobility::DatabaseManager::DatabaseManager__sub_object() 0x0000c0e1   Thumb Code     0  QtServiceFramework.in(.text)
    QtMobility::DatabaseManager::~DatabaseManager() 0x0000c12b   Thumb Code    36  QtServiceFramework.in(.text)
    QtMobility::DatabaseManager::~DatabaseManager__sub_object() 0x0000c12b   Thumb Code     0  QtServiceFramework.in(.text)
    QtMobility::DatabaseManager::~DatabaseManager__deallocating() 0x0000c14f   Thumb Code    16  QtServiceFramework.in(.text)
    QtMobility::DatabaseManager::registerService(QtMobility::ServiceMetaDataResults&, QtMobility::DatabaseManager::DbScope) 0x0000c15f   Thumb Code    10  QtServiceFramework.in(.text)
    QtMobility::DatabaseManager::unregisterService(const QString&, QtMobility::DatabaseManager::DbScope) 0x0000c169   Thumb Code    10  QtServiceFramework.in(.text)
    QtMobility::DatabaseManager::serviceInitialized(const QString&, QtMobility::DatabaseManager::DbScope) 0x0000c173   Thumb Code    10  QtServiceFramework.in(.text)
    QtMobility::DatabaseManager::getInterfaces(const QtMobility::QServiceFilter&, QtMobility::DatabaseManager::DbScope) 0x0000c17d   Thumb Code    10  QtServiceFramework.in(.text)
    QtMobility::DatabaseManager::getServiceNames(const QString&, QtMobility::DatabaseManager::DbScope) 0x0000c187   Thumb Code    10  QtServiceFramework.in(.text)
    QtMobility::DatabaseManager::interfaceDefault(const QString&, QtMobility::DatabaseManager::DbScope) 0x0000c191   Thumb Code    10  QtServiceFramework.in(.text)
    QtMobility::DatabaseManager::setInterfaceDefault(const QString&, const QString&, QtMobility::DatabaseManager::DbScope) 0x0000c19b   Thumb Code     4  QtServiceFramework.in(.text)
    QtMobility::DatabaseManager::setInterfaceDefault(const QtMobility::QServiceInterfaceDescriptor&, QtMobility::DatabaseManager::DbScope) 0x0000c19f   Thumb Code     4  QtServiceFramework.in(.text)
    QtMobility::DatabaseManager::lastError() 0x0000c1a3   Thumb Code     4  QtServiceFramework.in(.text)
    QtMobility::DatabaseManager::setChangeNotificationsEnabled(QtMobility::DatabaseManager::DbScope, bool) 0x0000c1a7   Thumb Code     6  QtServiceFramework.in(.text)
    QtMobility::DatabaseManagerSignalMonitor::~DatabaseManagerSignalMonitor() 0x0000c1ad   Thumb Code    22  QtServiceFramework.in(.text)
    QtMobility::DatabaseManagerSignalMonitor::~DatabaseManagerSignalMonitor__sub_object() 0x0000c1ad   Thumb Code     0  QtServiceFramework.in(.text)
    QtMobility::DatabaseManagerSignalMonitor::~DatabaseManagerSignalMonitor__deallocating() 0x0000c1c3   Thumb Code    16  QtServiceFramework.in(.text)
    QtMobility::DatabaseManagerSignalMonitor::DoCancel() 0x0000c1d3   Thumb Code     4  QtServiceFramework.in(.text)
    QtMobility::DatabaseManagerSignalMonitor::RunL() 0x0000c1d7   Thumb Code    88  QtServiceFramework.in(.text)
    QtMobility::RServiceSession::ListenForPackages(TRequestStatus&) 0x0000c23d   Thumb Code    68  QtServiceFramework.in(.text)
    QtMobility::ServiceMessageListener::StartListening() 0x0000c281   Thumb Code    20  QtServiceFramework.in(.text)
    QtMobility::RServiceSession::setListener(QtMobility::ServiceMessageListener*) 0x0000c295   Thumb Code     8  QtServiceFramework.in(.text)
    QtMobility::ServiceMessageListener::ServiceMessageListener(QtMobility::RServiceSession*, QtMobility::SymbianClientEndPoint*) 0x0000c29d   Thumb Code    56  QtServiceFramework.in(.text)
    QtMobility::ServiceMessageListener::ServiceMessageListener__sub_object(QtMobility::RServiceSession*, QtMobility::SymbianClientEndPoint*) 0x0000c29d   Thumb Code     0  QtServiceFramework.in(.text)
    QtMobility::RServiceSession::Version() const 0x0000c2d5   Thumb Code    18  QtServiceFramework.in(.text)
    QtMobility::RServiceSession::StartServer() 0x0000c2e7   Thumb Code   202  QtServiceFramework.in(.text)
    QtMobility::RServiceSession::Connect()   0x0000c3b1   Thumb Code    72  QtServiceFramework.in(.text)
    QtMobility::RServiceSession::RServiceSession(QString) 0x0000c3f9   Thumb Code   124  QtServiceFramework.in(.text)
    QtMobility::RServiceSession::RServiceSession__sub_object(QString) 0x0000c3f9   Thumb Code     0  QtServiceFramework.in(.text)
    QtMobility::QRemoteServiceRegisterPrivate::proxyForService(const QtMobility::QRemoteServiceRegister::Entry&, const QString&) 0x0000c475   Thumb Code   274  QtServiceFramework.in(.text)
    QtMobility::QRemoteServiceRegisterSymbianPrivate::QRemoteServiceRegisterSymbianPrivate(QObject*) 0x0000c587   Thumb Code    16  QtServiceFramework.in(.text)
    QtMobility::QRemoteServiceRegisterSymbianPrivate::QRemoteServiceRegisterSymbianPrivate__sub_object(QObject*) 0x0000c587   Thumb Code     0  QtServiceFramework.in(.text)
    QtMobility::QRemoteServiceRegisterPrivate::constructPrivateObject(QObject*) 0x0000c597   Thumb Code    28  QtServiceFramework.in(.text)
    QtMobility::RServiceSession::getStaticMetaObject() 0x0000c5b3   Thumb Code     6  QtServiceFramework.in(.text)
    QtMobility::RServiceSession::metaObject() const 0x0000c5b9   Thumb Code    14  QtServiceFramework.in(.text)
    QtMobility::RServiceSession::qt_metacast(const char*) 0x0000c5c7   Thumb Code    58  QtServiceFramework.in(.text)
    QtMobility::RServiceSession::errorUnrecoverableIPCFault(QtMobility::QService::UnrecoverableIPCError) 0x0000c601   Thumb Code    32  QtServiceFramework.in(.text)
    QtMobility::RServiceSession::ipcFailure(QtMobility::QService::UnrecoverableIPCError) 0x0000c621   Thumb Code     2  QtServiceFramework.in(.text)
    QtMobility::RServiceSession::Disconnected() 0x0000c623   Thumb Code    16  QtServiceFramework.in(.text)
    QtMobility::RServiceSession::qt_metacall(QMetaObject::Call, int, void**) 0x0000c633   Thumb Code   262  QtServiceFramework.in(.text)
    QtMobility::RServiceSession::Close()     0x0000c739   Thumb Code    10  QtServiceFramework.in(.text)
    QtMobility::RServiceSession::~RServiceSession() 0x0000c743   Thumb Code    56  QtServiceFramework.in(.text)
    QtMobility::RServiceSession::~RServiceSession__sub_object() 0x0000c743   Thumb Code     0  QtServiceFramework.in(.text)
    QtMobility::RServiceSession::~RServiceSession__deallocating() 0x0000c77b   Thumb Code    16  QtServiceFramework.in(.text)
    QtMobility::RServiceSession::SendServicePackage(const QtMobility::QServicePackage&) 0x0000c78b   Thumb Code   126  QtServiceFramework.in(.text)
    QtMobility::RServiceSession::CancelListenForPackages() 0x0000c809   Thumb Code    58  QtServiceFramework.in(.text)
    QtMobility::CServiceProviderServer::CServiceProviderServer(QtMobility::QRemoteServiceRegisterSymbianPrivate*) 0x0000c843   Thumb Code    28  QtServiceFramework.in(.text)
    QtMobility::CServiceProviderServer::CServiceProviderServer__sub_object(QtMobility::QRemoteServiceRegisterSymbianPrivate*) 0x0000c843   Thumb Code     0  QtServiceFramework.in(.text)
    QtMobility::CServiceProviderServerSession::SetParent(QtMobility::SymbianServerEndPoint*) 0x0000c85f   Thumb Code     4  QtServiceFramework.in(.text)
    QtMobility::QRemoteServiceRegisterSymbianPrivate::processIncoming(QtMobility::CServiceProviderServerSession*) 0x0000c863   Thumb Code    72  QtServiceFramework.in(.text)
    QtMobility::CServiceProviderServerSession::ConstructL() 0x0000c8ab   Thumb Code    14  QtServiceFramework.in(.text)
    QtMobility::CServiceProviderServer::IncreaseSessions() 0x0000c8b9   Thumb Code     8  QtServiceFramework.in(.text)
    QtMobility::CServiceProviderServerSession::CServiceProviderServerSession(QtMobility::CServiceProviderServer&) 0x0000c8c1   Thumb Code    48  QtServiceFramework.in(.text)
    QtMobility::CServiceProviderServerSession::CServiceProviderServerSession__sub_object(QtMobility::CServiceProviderServer&) 0x0000c8c1   Thumb Code     0  QtServiceFramework.in(.text)
    QtMobility::CServiceProviderServerSession::NewLC(QtMobility::CServiceProviderServer&) 0x0000c8f1   Thumb Code    32  QtServiceFramework.in(.text)
    QtMobility::CServiceProviderServerSession::NewL(QtMobility::CServiceProviderServer&) 0x0000c911   Thumb Code    16  QtServiceFramework.in(.text)
    QtMobility::CServiceProviderServer::NewSessionL(const TVersion&, const RMessage2&) const 0x0000c921   Thumb Code    54  QtServiceFramework.in(.text)
    QtMobility::CServiceProviderServer::DecreaseSessions() 0x0000c957   Thumb Code    38  QtServiceFramework.in(.text)
    QtMobility::CServiceProviderServer::setSecurityFilter(bool(*)(const void*)) 0x0000c97d   Thumb Code     4  QtServiceFramework.in(.text)
    QtMobility::CServiceProviderServer::CustomSecurityCheckL(const RMessage2&, int&, TSecurityInfo&) 0x0000c981   Thumb Code    26  QtServiceFramework.in(.text)
    QtMobility::CServiceProviderServerSession::~CServiceProviderServerSession() 0x0000c99b   Thumb Code    70  QtServiceFramework.in(.text)
    QtMobility::CServiceProviderServerSession::~CServiceProviderServerSession__sub_object() 0x0000c99b   Thumb Code     0  QtServiceFramework.in(.text)
    QtMobility::CServiceProviderServerSession::~CServiceProviderServerSession__deallocating() 0x0000c9e1   Thumb Code    16  QtServiceFramework.in(.text)
    QtMobility::CServiceProviderServerSession::HandlePackageRequestCancelL(const RMessage2&) 0x0000c9f1   Thumb Code    38  QtServiceFramework.in(.text)
    QtMobility::CServiceProviderServerSession::SendServicePackageL(const QtMobility::QServicePackage&) 0x0000ca17   Thumb Code   290  QtServiceFramework.in(.text)
    QtMobility::CServiceProviderServerSession::HandlePackageRequestL(const RMessage2&) 0x0000cb39   Thumb Code    94  QtServiceFramework.in(.text)
    QtMobility::CServiceProviderServerSession::HandleServicePackageL(const RMessage2&) 0x0000cb97   Thumb Code   234  QtServiceFramework.in(.text)
    QtMobility::CServiceProviderServerSession::ServiceL(const RMessage2&) 0x0000cc81   Thumb Code    50  QtServiceFramework.in(.text)
    QtMobility::QRemoteServiceRegisterSymbianPrivate::getStaticMetaObject() 0x0000ccb3   Thumb Code     4  QtServiceFramework.in(.text)
    QtMobility::QRemoteServiceRegisterSymbianPrivate::metaObject() const 0x0000ccb7   Thumb Code    12  QtServiceFramework.in(.text)
    QtMobility::QRemoteServiceRegisterSymbianPrivate::qt_metacast(const char*) 0x0000ccc3   Thumb Code    40  QtServiceFramework.in(.text)
    QtMobility::QRemoteServiceRegisterSymbianPrivate::qt_metacall(QMetaObject::Call, int, void**) 0x0000cceb   Thumb Code     8  QtServiceFramework.in(.text)
    QtMobility::QRemoteServiceRegisterSymbianPrivate::~QRemoteServiceRegisterSymbianPrivate() 0x0000ccf3   Thumb Code    28  QtServiceFramework.in(.text)
    QtMobility::QRemoteServiceRegisterSymbianPrivate::~QRemoteServiceRegisterSymbianPrivate__sub_object() 0x0000ccf3   Thumb Code     0  QtServiceFramework.in(.text)
    QtMobility::QRemoteServiceRegisterSymbianPrivate::~QRemoteServiceRegisterSymbianPrivate__deallocating() 0x0000cd0f   Thumb Code    16  QtServiceFramework.in(.text)
    QtMobility::QRemoteServiceRegisterSymbianPrivate::publishServices(const QString&) 0x0000cd1f   Thumb Code    84  QtServiceFramework.in(.text)
    QtMobility::QRemoteServiceRegisterSymbianPrivate::setSecurityFilter(bool(*)(const void*)) 0x0000cd73   Thumb Code    16  QtServiceFramework.in(.text)
    QtMobility::ServiceMessageListener::~ServiceMessageListener() 0x0000cd83   Thumb Code    32  QtServiceFramework.in(.text)
    QtMobility::ServiceMessageListener::~ServiceMessageListener__sub_object() 0x0000cd83   Thumb Code     0  QtServiceFramework.in(.text)
    QtMobility::ServiceMessageListener::~ServiceMessageListener__deallocating() 0x0000cda3   Thumb Code    16  QtServiceFramework.in(.text)
    QtMobility::ServiceMessageListener::DoCancel() 0x0000cdb3   Thumb Code    10  QtServiceFramework.in(.text)
    QtMobility::ServiceMessageListener::RunL() 0x0000cdbd   Thumb Code   190  QtServiceFramework.in(.text)
    QtMobility::SymbianClientEndPoint::getStaticMetaObject() 0x0000ce7b   Thumb Code     6  QtServiceFramework.in(.text)
    QtMobility::SymbianClientEndPoint::metaObject() const 0x0000ce81   Thumb Code    14  QtServiceFramework.in(.text)
    QtMobility::SymbianClientEndPoint::qt_metacast(const char*) 0x0000ce8f   Thumb Code    40  QtServiceFramework.in(.text)
    QtMobility::SymbianClientEndPoint::qt_metacall(QMetaObject::Call, int, void**) 0x0000ceb7   Thumb Code     8  QtServiceFramework.in(.text)
    QtMobility::SymbianServerEndPoint::getStaticMetaObject() 0x0000cebf   Thumb Code     6  QtServiceFramework.in(.text)
    QtMobility::SymbianServerEndPoint::metaObject() const 0x0000cec5   Thumb Code    14  QtServiceFramework.in(.text)
    QtMobility::SymbianServerEndPoint::qt_metacast(const char*) 0x0000ced3   Thumb Code    38  QtServiceFramework.in(.text)
    QtMobility::SymbianServerEndPoint::qt_metacall(QMetaObject::Call, int, void**) 0x0000cef9   Thumb Code     8  QtServiceFramework.in(.text)
    QtMobility::ObjectEndPoint::getStaticMetaObject() 0x0000cf11   Thumb Code     4  QtServiceFramework.in(.text)
    QtMobility::ObjectEndPoint::metaObject() const 0x0000cf15   Thumb Code    12  QtServiceFramework.in(.text)
    QtMobility::ObjectEndPoint::qt_metacast(const char*) 0x0000cf21   Thumb Code    40  QtServiceFramework.in(.text)
    QtMobility::ObjectEndPoint::disconnected() 0x0000cf49   Thumb Code    40  QtServiceFramework.in(.text)
    QtMobility::ObjectEndPoint::propertyCall(const QtMobility::QServicePackage&) 0x0000cfe7   Thumb Code   370  QtServiceFramework.in(.text)
    QtMobility::ObjectEndPoint::methodCall(const QtMobility::QServicePackage&) 0x0000d159   Thumb Code  1130  QtServiceFramework.in(.text)
    QtMobility::ObjectEndPoint::objectRequest(const QtMobility::QServicePackage&) 0x0000d5c3   Thumb Code   624  QtServiceFramework.in(.text)
    QtMobility::ObjectEndPoint::newPackageReady() 0x0000d833   Thumb Code   108  QtServiceFramework.in(.text)
    QtMobility::ObjectEndPoint::pendingRequestFinished() 0x0000d89f   Thumb Code    14  QtServiceFramework.in(.text)
    QtMobility::ObjectEndPoint::qt_metacall(QMetaObject::Call, int, void**) 0x0000d8ad   Thumb Code    58  QtServiceFramework.in(.text)
    QtMobility::ObjectEndPoint::ObjectEndPoint(QtMobility::ObjectEndPoint::Type, QtMobility::QServiceIpcEndPoint*, QObject*) 0x0000d8e7   Thumb Code   150  QtServiceFramework.in(.text)
    QtMobility::ObjectEndPoint::ObjectEndPoint__sub_object(QtMobility::ObjectEndPoint::Type, QtMobility::QServiceIpcEndPoint*, QObject*) 0x0000d8e7   Thumb Code     0  QtServiceFramework.in(.text)
    QtMobility::ObjectEndPoint::~ObjectEndPoint() 0x0000d97d   Thumb Code    46  QtServiceFramework.in(.text)
    QtMobility::ObjectEndPoint::~ObjectEndPoint__sub_object() 0x0000d97d   Thumb Code     0  QtServiceFramework.in(.text)
    QtMobility::ObjectEndPoint::~ObjectEndPoint__deallocating() 0x0000d9ab   Thumb Code    16  QtServiceFramework.in(.text)
    QtMobility::ObjectEndPoint::waitForResponse(const QUuid&) 0x0000d9bb   Thumb Code   238  QtServiceFramework.in(.text)
    QtMobility::ObjectEndPoint::constructProxy(const QtMobility::QRemoteServiceRegister::Entry&) 0x0000daa9   Thumb Code   536  QtServiceFramework.in(.text)
    QtMobility::ObjectEndPoint::invokeRemote(int, const QList<QVariant>&, int) 0x0000dcc1   Thumb Code   404  QtServiceFramework.in(.text)
    QtMobility::ObjectEndPoint::invokeRemoteProperty(int, const QVariant&, int, QMetaObject::Call) 0x0000de55   Thumb Code   368  QtServiceFramework.in(.text)
    QtMobility::QSlotInvoker::getStaticMetaObject() 0x0000e025   Thumb Code     4  QtServiceFramework.in(.text)
    QtMobility::QSlotInvoker::metaObject() const 0x0000e029   Thumb Code    12  QtServiceFramework.in(.text)
    QtMobility::QSlotInvoker::qt_metacast(const char*) 0x0000e035   Thumb Code    40  QtServiceFramework.in(.text)
    QtMobility::QSlotInvoker::receiverDestroyed() 0x0000e05d   Thumb Code     8  QtServiceFramework.in(.text)
    QtMobility::QSlotInvoker::invoke(const QList<QVariant>&) 0x0000e065   Thumb Code   286  QtServiceFramework.in(.text)
    QtMobility::QSlotInvoker::qt_metacall(QMetaObject::Call, int, void**) 0x0000e183   Thumb Code    72  QtServiceFramework.in(.text)
    QtMobility::QSlotInvoker::QSlotInvoker(QObject*, const QByteArray&, QObject*) 0x0000e1cb   Thumb Code   318  QtServiceFramework.in(.text)
    QtMobility::QSlotInvoker::QSlotInvoker__sub_object(QObject*, const QByteArray&, QObject*) 0x0000e1cb   Thumb Code     0  QtServiceFramework.in(.text)
    QtMobility::QSlotInvoker::~QSlotInvoker() 0x0000e309   Thumb Code    44  QtServiceFramework.in(.text)
    QtMobility::QSlotInvoker::~QSlotInvoker__sub_object() 0x0000e309   Thumb Code     0  QtServiceFramework.in(.text)
    QtMobility::QSlotInvoker::~QSlotInvoker__deallocating() 0x0000e335   Thumb Code    16  QtServiceFramework.in(.text)
    QtMobility::QSlotInvoker::memberPresent() const 0x0000e345   Thumb Code    16  QtServiceFramework.in(.text)
    QtMobility::QSlotInvoker::canInvoke(int) const 0x0000e355   Thumb Code    20  QtServiceFramework.in(.text)
    QtMobility::QSlotInvoker::receiver() const 0x0000e369   Thumb Code     6  QtServiceFramework.in(.text)
    QtMobility::QSlotInvoker::member() const 0x0000e36f   Thumb Code    16  QtServiceFramework.in(.text)
    QtMobility::QSlotInvoker::parameterTypes() const 0x0000e37f   Thumb Code     6  QtServiceFramework.in(.text)
    QtMobility::QSlotInvoker::parameterTypesCount() const 0x0000e385   Thumb Code     6  QtServiceFramework.in(.text)
    QtMobility::QSignalIntercepter::typeFromName(const QByteArray&) 0x0000e42d   Thumb Code    82  QtServiceFramework.in(.text)
    QtMobility::QSignalIntercepter::connectionTypes(const QByteArray&, int&) 0x0000e47f   Thumb Code   194  QtServiceFramework.in(.text)
    QtMobility::QSignalIntercepter::QSignalIntercepter__sub_object(QObject*, const QByteArray&, QObject*) 0x0000e541   Thumb Code   292  QtServiceFramework.in(.text)
    QtMobility::QSignalIntercepter::~QSignalIntercepter() 0x0000e665   Thumb Code     0  QtServiceFramework.in(.text)
    QtMobility::QSignalIntercepter::~QSignalIntercepter__sub_object() 0x0000e665   Thumb Code    82  QtServiceFramework.in(.text)
    QtMobility::QSignalIntercepter::~QSignalIntercepter__deallocating() 0x0000e6b7   Thumb Code    16  QtServiceFramework.in(.text)
    QtMobility::QSignalIntercepter::sender() const 0x0000e6c7   Thumb Code     6  QtServiceFramework.in(.text)
    QtMobility::QSignalIntercepter::signal() const 0x0000e6cd   Thumb Code    16  QtServiceFramework.in(.text)
    QtMobility::QSignalIntercepter::isValid() const 0x0000e6dd   Thumb Code    16  QtServiceFramework.in(.text)
    QtMobility::QSignalIntercepter::qt_metacall(QMetaObject::Call, int, void**) 0x0000e6ed   Thumb Code   144  QtServiceFramework.in(.text)
    qvariant_nameToType(const char*)         0x0000e81d   Thumb Code   108  QtServiceFramework.in(.text)
    isVariantType(const char*)               0x0000e889   Thumb Code    18  QtServiceFramework.in(.text)
    QMetaObjectBuilder::QMetaObjectBuilder() 0x0000efd5   Thumb Code    34  QtServiceFramework.in(.text)
    QMetaObjectBuilder::QMetaObjectBuilder__sub_object() 0x0000efd5   Thumb Code     0  QtServiceFramework.in(.text)
    QMetaObjectBuilder::setStaticMetacallFunction(int(*)(QMetaObject::Call, int, void**)) 0x0000eff7   Thumb Code     6  QtServiceFramework.in(.text)
    QMetaObjectBuilder::addRelatedMetaObject(const QMetaObject&(*const &)()) 0x0000effd   Thumb Code    70  QtServiceFramework.in(.text)
    QMetaObjectBuilder::addClassInfo(const QByteArray&, const QByteArray&) 0x0000f043   Thumb Code    42  QtServiceFramework.in(.text)
    QMetaEnumBuilder::d_func() const         0x0000f06d   Thumb Code    46  QtServiceFramework.in(.text)
    QMetaEnumBuilder::addKey(const QByteArray&, int) 0x0000f09b   Thumb Code    52  QtServiceFramework.in(.text)
    QMetaEnumBuilder::setIsFlag(bool)        0x0000f0cf   Thumb Code    16  QtServiceFramework.in(.text)
    QMetaObjectBuilder::addEnumerator(const QByteArray&) 0x0000f0df   Thumb Code    76  QtServiceFramework.in(.text)
    QMetaObjectBuilder::addEnumerator(const QMetaEnum&) 0x0000f12b   Thumb Code   122  QtServiceFramework.in(.text)
    QMetaMethodBuilder::d_func() const       0x0000f1a5   Thumb Code    88  QtServiceFramework.in(.text)
    QMetaMethodBuilder::setAttributes(int)   0x0000f1fd   Thumb Code    26  QtServiceFramework.in(.text)
    QMetaMethodBuilder::setAccess(QMetaMethod::Access) 0x0000f217   Thumb Code    32  QtServiceFramework.in(.text)
    QMetaMethodBuilder::setTag(const QByteArray&) 0x0000f237   Thumb Code    22  QtServiceFramework.in(.text)
    QMetaMethodBuilder::setParameterNames(const QList<QByteArray>&) 0x0000f24d   Thumb Code    22  QtServiceFramework.in(.text)
    QMetaMethodBuilder::setReturnType(const QByteArray&) 0x0000f263   Thumb Code    38  QtServiceFramework.in(.text)
    QMetaObjectBuilder::addConstructor(const QByteArray&) 0x0000f289   Thumb Code    76  QtServiceFramework.in(.text)
    QMetaObjectBuilder::addSlot(const QByteArray&) 0x0000f2d5   Thumb Code    68  QtServiceFramework.in(.text)
    QMetaObjectBuilder::addSignal(const QByteArray&) 0x0000f319   Thumb Code    68  QtServiceFramework.in(.text)
    QMetaObjectBuilder::addMethod(const QByteArray&) 0x0000f35d   Thumb Code    76  QtServiceFramework.in(.text)
    QMetaObjectBuilder::addMethod(const QMetaMethod&) 0x0000f3a9   Thumb Code   280  QtServiceFramework.in(.text)
    QMetaMethodBuilder::index() const        0x0000f4c1   Thumb Code    12  QtServiceFramework.in(.text)
    QMetaObjectBuilder::indexOfMethod(const QByteArray&) 0x0000f4cd   Thumb Code    76  QtServiceFramework.in(.text)
    QMetaPropertyBuilder::d_func() const     0x0000f519   Thumb Code    46  QtServiceFramework.in(.text)
    QMetaPropertyBuilder::setEnumOrFlag(bool) 0x0000f547   Thumb Code    22  QtServiceFramework.in(.text)
    QMetaPropertyBuilder::setStdCppSet(bool) 0x0000f55d   Thumb Code    24  QtServiceFramework.in(.text)
    QMetaPropertyBuilder::setUser(bool)      0x0000f575   Thumb Code    24  QtServiceFramework.in(.text)
    QMetaPropertyBuilder::setEditable(bool)  0x0000f58d   Thumb Code    24  QtServiceFramework.in(.text)
    QMetaPropertyBuilder::setStored(bool)    0x0000f5a5   Thumb Code    24  QtServiceFramework.in(.text)
    QMetaPropertyBuilder::setScriptable(bool) 0x0000f5bd   Thumb Code    24  QtServiceFramework.in(.text)
    QMetaPropertyBuilder::setDesignable(bool) 0x0000f5d5   Thumb Code    24  QtServiceFramework.in(.text)
    QMetaPropertyBuilder::setResettable(bool) 0x0000f5ed   Thumb Code    22  QtServiceFramework.in(.text)
    QMetaPropertyBuilder::setWritable(bool)  0x0000f603   Thumb Code    22  QtServiceFramework.in(.text)
    QMetaPropertyBuilder::setReadable(bool)  0x0000f619   Thumb Code    22  QtServiceFramework.in(.text)
    QMetaObjectBuilder::addProperty(const QByteArray&, const QByteArray&, int) 0x0000f62f   Thumb Code   102  QtServiceFramework.in(.text)
    QMetaObjectBuilder::addProperty(const QMetaProperty&) 0x0000f695   Thumb Code   328  QtServiceFramework.in(.text)
    QMetaObjectBuilder::addConstructor(const QMetaMethod&) 0x0000f7dd   Thumb Code   154  QtServiceFramework.in(.text)
    QMetaObjectBuilder::addMetaObject(const QMetaObject*, QFlags<QMetaObjectBuilder::AddMember>) 0x0000f877   Thumb Code   634  QtServiceFramework.in(.text)
    QMetaObjectBuilder::QMetaObjectBuilder(const QMetaObject*, QFlags<QMetaObjectBuilder::AddMember>) 0x0000faf1   Thumb Code    52  QtServiceFramework.in(.text)
    QMetaObjectBuilder::QMetaObjectBuilder__sub_object(const QMetaObject*, QFlags<QMetaObjectBuilder::AddMember>) 0x0000faf1   Thumb Code     0  QtServiceFramework.in(.text)
    QMetaObjectBuilder::~QMetaObjectBuilder() 0x0000fb25   Thumb Code    26  QtServiceFramework.in(.text)
    QMetaObjectBuilder::~QMetaObjectBuilder__sub_object() 0x0000fb25   Thumb Code     0  QtServiceFramework.in(.text)
    QMetaObjectBuilder::~QMetaObjectBuilder__deallocating() 0x0000fb3f   Thumb Code    16  QtServiceFramework.in(.text)
    QMetaObjectBuilder::className() const    0x0000fb4f   Thumb Code    10  QtServiceFramework.in(.text)
    QMetaObjectBuilder::setClassName(const QByteArray&) 0x0000fb59   Thumb Code    10  QtServiceFramework.in(.text)
    QMetaObjectBuilder::superClass() const   0x0000fb63   Thumb Code     6  QtServiceFramework.in(.text)
    QMetaObjectBuilder::setSuperClass(const QMetaObject*) 0x0000fb69   Thumb Code     6  QtServiceFramework.in(.text)
    QMetaObjectBuilder::flags() const        0x0000fb6f   Thumb Code     8  QtServiceFramework.in(.text)
    QMetaObjectBuilder::setFlags(QFlags<QMetaObjectBuilder::MetaObjectFlag>) 0x0000fb77   Thumb Code     8  QtServiceFramework.in(.text)
    QMetaObjectBuilder::methodCount() const  0x0000fb7f   Thumb Code    12  QtServiceFramework.in(.text)
    QMetaObjectBuilder::constructorCount() const 0x0000fb8b   Thumb Code    12  QtServiceFramework.in(.text)
    QMetaObjectBuilder::propertyCount() const 0x0000fb97   Thumb Code    12  QtServiceFramework.in(.text)
    QMetaObjectBuilder::enumeratorCount() const 0x0000fba3   Thumb Code    12  QtServiceFramework.in(.text)
    QMetaObjectBuilder::classInfoCount() const 0x0000fbaf   Thumb Code    12  QtServiceFramework.in(.text)
    QMetaObjectBuilder::relatedMetaObjectCount() const 0x0000fbbb   Thumb Code    12  QtServiceFramework.in(.text)
    QMetaObjectBuilder::addMethod(const QByteArray&, const QByteArray&) 0x0000fbc7   Thumb Code    58  QtServiceFramework.in(.text)
    QMetaObjectBuilder::method(int) const    0x0000fc01   Thumb Code    36  QtServiceFramework.in(.text)
    QMetaObjectBuilder::constructor(int) const 0x0000fc25   Thumb Code    38  QtServiceFramework.in(.text)
    QMetaObjectBuilder::property(int) const  0x0000fc4b   Thumb Code    36  QtServiceFramework.in(.text)
    QMetaObjectBuilder::enumerator(int) const 0x0000fc6f   Thumb Code    36  QtServiceFramework.in(.text)
    QMetaObjectBuilder::relatedMetaObject(int) const 0x0000fc93   Thumb Code    40  QtServiceFramework.in(.text)
    QMetaObjectBuilder::classInfoName(int) const 0x0000fcbb   Thumb Code    50  QtServiceFramework.in(.text)
    QMetaObjectBuilder::classInfoValue(int) const 0x0000fced   Thumb Code    50  QtServiceFramework.in(.text)
    QMetaObjectBuilder::removeMethod(int)    0x0000fd1f   Thumb Code   136  QtServiceFramework.in(.text)
    QMetaObjectBuilder::removeConstructor(int) 0x0000fda7   Thumb Code    32  QtServiceFramework.in(.text)
    QMetaObjectBuilder::removeProperty(int)  0x0000fdc7   Thumb Code    66  QtServiceFramework.in(.text)
    QMetaObjectBuilder::removeEnumerator(int) 0x0000fe09   Thumb Code    66  QtServiceFramework.in(.text)
    QMetaObjectBuilder::removeClassInfo(int) 0x0000fe4b   Thumb Code    42  QtServiceFramework.in(.text)
    QMetaObjectBuilder::removeRelatedMetaObject(int) 0x0000fe75   Thumb Code    64  QtServiceFramework.in(.text)
    QMetaObjectBuilder::indexOfSignal(const QByteArray&) 0x0000feb5   Thumb Code    94  QtServiceFramework.in(.text)
    QMetaObjectBuilder::indexOfSlot(const QByteArray&) 0x0000ff13   Thumb Code    94  QtServiceFramework.in(.text)
    QMetaObjectBuilder::indexOfConstructor(const QByteArray&) 0x0000ff71   Thumb Code    76  QtServiceFramework.in(.text)
    QMetaObjectBuilder::indexOfProperty(const QByteArray&) 0x0000ffbd   Thumb Code    56  QtServiceFramework.in(.text)
    QMetaObjectBuilder::indexOfEnumerator(const QByteArray&) 0x0000fff5   Thumb Code    56  QtServiceFramework.in(.text)
    QMetaObjectBuilder::indexOfClassInfo(const QByteArray&) 0x0001002d   Thumb Code    56  QtServiceFramework.in(.text)
    QMetaObjectBuilder::staticMetacallFunction() const 0x00010065   Thumb Code     6  QtServiceFramework.in(.text)
    QMetaObjectBuilder::toMetaObject() const 0x0001006b   Thumb Code    34  QtServiceFramework.in(.text)
    QMetaObjectBuilder::toRelocatableData(bool*) const 0x0001008d   Thumb Code   122  QtServiceFramework.in(.text)
    QMetaObjectBuilder::fromRelocatableData(QMetaObject*, const QMetaObject*, const QByteArray&) 0x00010107   Thumb Code    26  QtServiceFramework.in(.text)
    QMetaObjectBuilder::serialize(QDataStream&) const 0x00010121   Thumb Code   550  QtServiceFramework.in(.text)
    QMetaObjectBuilder::deserialize(QDataStream&, const QMap<QByteArray, const QMetaObject*>&) 0x00010347   Thumb Code   926  QtServiceFramework.in(.text)
    QMetaMethodBuilder::methodType() const   0x000106e5   Thumb Code    28  QtServiceFramework.in(.text)
    QMetaMethodBuilder::signature() const    0x00010701   Thumb Code    32  QtServiceFramework.in(.text)
    QMetaMethodBuilder::returnType() const   0x00010721   Thumb Code    32  QtServiceFramework.in(.text)
    QMetaMethodBuilder::parameterNames() const 0x00010741   Thumb Code    34  QtServiceFramework.in(.text)
    QMetaMethodBuilder::tag() const          0x00010763   Thumb Code    34  QtServiceFramework.in(.text)
    QMetaMethodBuilder::access() const       0x00010785   Thumb Code    22  QtServiceFramework.in(.text)
    QMetaMethodBuilder::attributes() const   0x0001079b   Thumb Code    20  QtServiceFramework.in(.text)
    QMetaPropertyBuilder::name() const       0x000107af   Thumb Code    32  QtServiceFramework.in(.text)
    QMetaPropertyBuilder::type() const       0x000107cf   Thumb Code    32  QtServiceFramework.in(.text)
    QMetaPropertyBuilder::hasNotifySignal() const 0x000107ef   Thumb Code    24  QtServiceFramework.in(.text)
    QMetaPropertyBuilder::notifySignal() const 0x00010807   Thumb Code    36  QtServiceFramework.in(.text)
    QMetaPropertyBuilder::setNotifySignal(const QMetaMethodBuilder&) 0x0001082b   Thumb Code    44  QtServiceFramework.in(.text)
    QMetaPropertyBuilder::removeNotifySignal() 0x00010857   Thumb Code    28  QtServiceFramework.in(.text)
    QMetaPropertyBuilder::isReadable() const 0x00010873   Thumb Code    22  QtServiceFramework.in(.text)
    QMetaPropertyBuilder::isWritable() const 0x00010889   Thumb Code    22  QtServiceFramework.in(.text)
    QMetaPropertyBuilder::isResettable() const 0x0001089f   Thumb Code    22  QtServiceFramework.in(.text)
    QMetaPropertyBuilder::isDesignable() const 0x000108b5   Thumb Code    24  QtServiceFramework.in(.text)
    QMetaPropertyBuilder::isScriptable() const 0x000108cd   Thumb Code    24  QtServiceFramework.in(.text)
    QMetaPropertyBuilder::isStored() const   0x000108e5   Thumb Code    24  QtServiceFramework.in(.text)
    QMetaPropertyBuilder::isEditable() const 0x000108fd   Thumb Code    24  QtServiceFramework.in(.text)
    QMetaPropertyBuilder::isUser() const     0x00010915   Thumb Code    24  QtServiceFramework.in(.text)
    QMetaPropertyBuilder::hasStdCppSet() const 0x0001092d   Thumb Code    24  QtServiceFramework.in(.text)
    QMetaPropertyBuilder::isEnumOrFlag() const 0x00010945   Thumb Code    22  QtServiceFramework.in(.text)
    QMetaPropertyBuilder::isDynamic() const  0x0001095b   Thumb Code    24  QtServiceFramework.in(.text)
    QMetaPropertyBuilder::setDynamic(bool)   0x00010973   Thumb Code    24  QtServiceFramework.in(.text)
    QMetaEnumBuilder::name() const           0x0001098b   Thumb Code    32  QtServiceFramework.in(.text)
    QMetaEnumBuilder::isFlag() const         0x000109ab   Thumb Code    18  QtServiceFramework.in(.text)
    QMetaEnumBuilder::keyCount() const       0x000109bd   Thumb Code    22  QtServiceFramework.in(.text)
    QMetaEnumBuilder::key(int) const         0x000109d3   Thumb Code    58  QtServiceFramework.in(.text)
    QMetaEnumBuilder::value(int) const       0x00010a0d   Thumb Code    48  QtServiceFramework.in(.text)
    QMetaEnumBuilder::removeKey(int)         0x00010a3d   Thumb Code    74  QtServiceFramework.in(.text)
    QtMobility::InstanceManager::getStaticMetaObject() 0x00010b19   Thumb Code     4  QtServiceFramework.in(.text)
    QtMobility::InstanceManager::metaObject() const 0x00010b1d   Thumb Code    12  QtServiceFramework.in(.text)
    QtMobility::InstanceManager::qt_metacast(const char*) 0x00010b29   Thumb Code    40  QtServiceFramework.in(.text)
    QtMobility::InstanceManager::instanceClosed(const QtMobility::QRemoteServiceRegister::Entry&, const QUuid&) 0x00010b51   Thumb Code    32  QtServiceFramework.in(.text)
    QtMobility::InstanceManager::instanceClosed(const QtMobility::QRemoteServiceRegister::Entry&) 0x00010b71   Thumb Code    24  QtServiceFramework.in(.text)
    QtMobility::InstanceManager::allInstancesClosed() 0x00010b89   Thumb Code    14  QtServiceFramework.in(.text)
    QtMobility::InstanceManager::qt_metacall(QMetaObject::Call, int, void**) 0x00010b97   Thumb Code    66  QtServiceFramework.in(.text)
    QtMobility::InstanceManager::InstanceManager(QObject*) 0x00010bd9   Thumb Code    46  QtServiceFramework.in(.text)
    QtMobility::InstanceManager::InstanceManager__sub_object(QObject*) 0x00010bd9   Thumb Code     0  QtServiceFramework.in(.text)
    QtMobility::InstanceManager::~InstanceManager() 0x00010c07   Thumb Code   256  QtServiceFramework.in(.text)
    QtMobility::InstanceManager::~InstanceManager__sub_object() 0x00010c07   Thumb Code     0  QtServiceFramework.in(.text)
    QtMobility::InstanceManager::~InstanceManager__deallocating() 0x00010d07   Thumb Code    16  QtServiceFramework.in(.text)
    QtMobility::InstanceManager::addType(const QtMobility::QRemoteServiceRegister::Entry&) 0x00010d17   Thumb Code   240  QtServiceFramework.in(.text)
    QtMobility::InstanceManager::metaObject(const QtMobility::QRemoteServiceRegister::Entry&) const 0x00010e07   Thumb Code    72  QtServiceFramework.in(.text)
    QtMobility::InstanceManager::allEntries() const 0x00010e4f   Thumb Code    32  QtServiceFramework.in(.text)
    QtMobility::InstanceManager::totalInstances() const 0x00010e6f   Thumb Code   234  QtServiceFramework.in(.text)
    QtMobility::InstanceManager::createObjectInstance(const QtMobility::QRemoteServiceRegister::Entry&, QUuid&) 0x00010f59   Thumb Code   174  QtServiceFramework.in(.text)
    QtMobility::InstanceManager::removeObjectInstance(const QtMobility::QRemoteServiceRegister::Entry&, const QUuid&) 0x00011007   Thumb Code   164  QtServiceFramework.in(.text)
    QtMobility::InstanceManager::instance()  0x000110ab   Thumb Code     8  QtServiceFramework.in(.text)
    QtMobility::QServicePackage::QServicePackage() 0x00011139   Thumb Code     6  QtServiceFramework.in(.text)
    QtMobility::QServicePackage::QServicePackage__sub_object() 0x00011139   Thumb Code     0  QtServiceFramework.in(.text)
    QtMobility::QServicePackage::QServicePackage(const QtMobility::QServicePackage&) 0x0001113f   Thumb Code    22  QtServiceFramework.in(.text)
    QtMobility::QServicePackage::QServicePackage__sub_object(const QtMobility::QServicePackage&) 0x0001113f   Thumb Code     0  QtServiceFramework.in(.text)
    QtMobility::QServicePackage::operator =(const QtMobility::QServicePackage&) 0x00011155   Thumb Code    58  QtServiceFramework.in(.text)
    QtMobility::QServicePackage::~QServicePackage() 0x0001118f   Thumb Code     8  QtServiceFramework.in(.text)
    QtMobility::QServicePackage::~QServicePackage__sub_object() 0x0001118f   Thumb Code     0  QtServiceFramework.in(.text)
    QtMobility::QServicePackage::createResponse() const 0x00011197   Thumb Code    86  QtServiceFramework.in(.text)
    QtMobility::QServicePackage::isValid() const 0x000111ed   Thumb Code    14  QtServiceFramework.in(.text)
    QtMobility::operator <<(QDataStream&, const QtMobility::QServicePackage&) 0x000111fb   Thumb Code   112  QtServiceFramework.in(.text)
    QtMobility::operator >>(QDataStream&, QtMobility::QServicePackage&) 0x0001126b   Thumb Code   328  QtServiceFramework.in(.text)
    QtMobility::operator <<(QDebug, const QtMobility::QServicePackage&) 0x000113b3   Thumb Code   272  QtServiceFramework.in(.text)
    QtMobility::QServiceProxy::QServiceProxy(const QByteArray&, QtMobility::ObjectEndPoint*, QObject*) 0x00011561   Thumb Code   272  QtServiceFramework.in(.text)
    QtMobility::QServiceProxy::QServiceProxy__sub_object(const QByteArray&, QtMobility::ObjectEndPoint*, QObject*) 0x00011561   Thumb Code     0  QtServiceFramework.in(.text)
    QtMobility::QServiceProxy::~QServiceProxy() 0x00011671   Thumb Code    52  QtServiceFramework.in(.text)
    QtMobility::QServiceProxy::~QServiceProxy__sub_object() 0x00011671   Thumb Code     0  QtServiceFramework.in(.text)
    QtMobility::QServiceProxy::~QServiceProxy__deallocating() 0x000116a5   Thumb Code    16  QtServiceFramework.in(.text)
    QtMobility::QServiceProxy::metaObject() const 0x000116b5   Thumb Code     6  QtServiceFramework.in(.text)
    QtMobility::QServiceProxy::qt_metacall(QMetaObject::Call, int, void**) 0x000116bb   Thumb Code  1230  QtServiceFramework.in(.text)
    QtMobility::QServiceProxy::qt_metacast(const char*) 0x00011b89   Thumb Code    16  QtServiceFramework.in(.text)
    QtMobility::QServiceIpcEndPoint::getStaticMetaObject() 0x00011bdd   Thumb Code     4  QtServiceFramework.in(.text)
    QtMobility::QServiceIpcEndPoint::metaObject() const 0x00011be1   Thumb Code    12  QtServiceFramework.in(.text)
    QtMobility::QServiceIpcEndPoint::qt_metacast(const char*) 0x00011bed   Thumb Code    40  QtServiceFramework.in(.text)
    QtMobility::QServiceIpcEndPoint::disconnected() 0x00011c15   Thumb Code    14  QtServiceFramework.in(.text)
    QtMobility::QServiceIpcEndPoint::readyRead() 0x00011c23   Thumb Code    14  QtServiceFramework.in(.text)
    QtMobility::QServiceIpcEndPoint::qt_metacall(QMetaObject::Call, int, void**) 0x00011c31   Thumb Code    46  QtServiceFramework.in(.text)
    QtMobility::QServiceIpcEndPoint::QServiceIpcEndPoint__sub_object(QObject*) 0x00011c5f   Thumb Code    24  QtServiceFramework.in(.text)
    QtMobility::QServiceIpcEndPoint::~QServiceIpcEndPoint() 0x00011c77   Thumb Code     0  QtServiceFramework.in(.text)
    QtMobility::QServiceIpcEndPoint::~QServiceIpcEndPoint__sub_object() 0x00011c77   Thumb Code    86  QtServiceFramework.in(.text)
    QtMobility::QServiceIpcEndPoint::~QServiceIpcEndPoint__deallocating() 0x00011ccd   Thumb Code    16  QtServiceFramework.in(.text)
    QtMobility::QServiceIpcEndPoint::packageAvailable() const 0x00011cdd   Thumb Code    14  QtServiceFramework.in(.text)
    QtMobility::QServiceIpcEndPoint::nextPackage() 0x00011ceb   Thumb Code    80  QtServiceFramework.in(.text)
    QtMobility::QServiceIpcEndPoint::writePackage(QtMobility::QServicePackage) 0x00011d3b   Thumb Code     6  QtServiceFramework.in(.text)
    QtMobility::QRemoteServiceRegisterPrivate::getStaticMetaObject() 0x00011d49   Thumb Code     4  QtServiceFramework.in(.text)
    QtMobility::QRemoteServiceRegisterPrivate::metaObject() const 0x00011d4d   Thumb Code    12  QtServiceFramework.in(.text)
    QtMobility::QRemoteServiceRegisterPrivate::qt_metacast(const char*) 0x00011d59   Thumb Code    40  QtServiceFramework.in(.text)
    QtMobility::QRemoteServiceRegisterPrivate::qt_metacall(QMetaObject::Call, int, void**) 0x00011d81   Thumb Code    90  QtServiceFramework.in(.text)
    QtMobility::QRemoteServiceRegisterPrivate::setQuitOnLastInstanceClosed(bool) 0x00011ddb   Thumb Code    48  QtServiceFramework.in(.text)
    QtMobility::QRemoteServiceRegisterPrivate::QRemoteServiceRegisterPrivate__sub_object(QObject*) 0x00011e0b   Thumb Code    28  QtServiceFramework.in(.text)
    QtMobility::QRemoteServiceRegisterPrivate::~QRemoteServiceRegisterPrivate() 0x00011e27   Thumb Code     0  QtServiceFramework.in(.text)
    QtMobility::QRemoteServiceRegisterPrivate::~QRemoteServiceRegisterPrivate__sub_object() 0x00011e27   Thumb Code     8  QtServiceFramework.in(.text)
    QtMobility::QRemoteServiceRegisterPrivate::~QRemoteServiceRegisterPrivate__deallocating() 0x00011e2f   Thumb Code    16  QtServiceFramework.in(.text)
    QtMobility::QRemoteServiceRegisterPrivate::quitOnLastInstanceClosed() const 0x00011e3f   Thumb Code     4  QtServiceFramework.in(.text)
    QtMobility::QRemoteServiceRegisterPrivate::setSecurityFilter(bool(*)(const void*)) 0x00011e43   Thumb Code     8  QtServiceFramework.in(.text)
    QtMobility::QRemoteServiceRegisterPrivate::getSecurityFilter() 0x00011e4b   Thumb Code     4  QtServiceFramework.in(.text)
    _E32Dll_Body                             0x00011e7d   Thumb Code    34  uc_dll.o(.text)
    CppBSSInitializationError                0x00011ea4   ARM Code       4  ucppfini.o(.text)
    __aeabi_atexit                           0x00011ea8   ARM Code      28  ucppfini.o(.text)
    __cxa_atexit                             0x00011ec4   ARM Code      48  ucppfini.o(.text)
    __cxa_finalize                           0x00011ef4   ARM Code      48  ucppfini.o(.text)
    run_static_dtors                         0x00011f24   ARM Code       8  ucppfini.o(.text)
    __DLL_Export_Table__                     0x00012e64   ARM Code       0  QtServiceFramework{00010103}.exp(ExportTable)
    DLL##ExportTableSize                     0x00012e68   Data           0  QtServiceFramework{00010103}.exp(ExportTable)
    DLL##ExportTable                         0x00012e6c   Data           0  QtServiceFramework{00010103}.exp(ExportTable)
    operator delete (void*)                  0x000130c4   ARM Code       0  libstdcpp{00010000}-988.o(StubCode)
    operator new(unsigned)                   0x000130cc   ARM Code       0  libstdcpp{00010000}-992.o(StubCode)
    qWarning(const char*, ...)               0x000130d4   ARM Code       0  QtCore{00040703}-104.o(StubCode)
    qBadAlloc()                              0x000130dc   ARM Code       0  QtCore{00040703}-109.o(StubCode)
    QXmlStreamAttribute::~QXmlStreamAttribute() 0x000130e4   ARM Code       0  QtCore{00040703}-1191.o(StubCode)
    QByteArray::clear()                      0x000130ec   ARM Code       0  QtCore{00040703}-125.o(StubCode)
    QByteArray::append(const char*, int)     0x000130f4   ARM Code       0  QtCore{00040703}-127.o(StubCode)
    QByteArray::append(const QByteArray&)    0x000130fc   ARM Code       0  QtCore{00040703}-128.o(StubCode)
    QByteArray::append(char)                 0x00013104   ARM Code       0  QtCore{00040703}-129.o(StubCode)
    QByteArray::remove(int, int)             0x0001310c   ARM Code       0  QtCore{00040703}-140.o(StubCode)
    QByteArray::resize(int)                  0x00013114   ARM Code       0  QtCore{00040703}-141.o(StubCode)
    QDir::toNativeSeparators(const QString&) 0x0001311c   ARM Code       0  QtCore{00040703}-1453.o(StubCode)
    QDir::separator()                        0x00013124   ARM Code       0  QtCore{00040703}-1469.o(StubCode)
    QByteArray::realloc(int)                 0x0001312c   ARM Code       0  QtCore{00040703}-150.o(StubCode)
    QByteArray::QByteArray(const char*)      0x00013134   ARM Code       0  QtCore{00040703}-159.o(StubCode)
    QByteArray::QByteArray(const char*, int) 0x0001313c   ARM Code       0  QtCore{00040703}-160.o(StubCode)
    QFile::exists(const QString&)            0x00013144   ARM Code       0  QtCore{00040703}-1610.o(StubCode)
    QByteArray::QByteArray(int, char)        0x0001314c   ARM Code       0  QtCore{00040703}-162.o(StubCode)
    QFile::QFile(const QString&)             0x00013154   ARM Code       0  QtCore{00040703}-1622.o(StubCode)
    QTime::start()                           0x0001315c   ARM Code       0  QtCore{00040703}-1639.o(StubCode)
    QUuid::createUuid()                      0x00013164   ARM Code       0  QtCore{00040703}-1645.o(StubCode)
    QByteArray::operator =(const char*)      0x0001316c   ARM Code       0  QtCore{00040703}-167.o(StubCode)
    QMutex::lock()                           0x00013174   ARM Code       0  QtCore{00040703}-1670.o(StubCode)
    QMutex::unlock()                         0x0001317c   ARM Code       0  QtCore{00040703}-1671.o(StubCode)
    QMutex::QMutex(QMutex::RecursionMode)    0x00013184   ARM Code       0  QtCore{00040703}-1674.o(StubCode)
    QMutex::~QMutex()                        0x0001318c   ARM Code       0  QtCore{00040703}-1676.o(StubCode)
    QByteArray::operator =(const QByteArray&) 0x00013194   ARM Code       0  QtCore{00040703}-168.o(StubCode)
    QTimer::singleShot(int, QObject*, const char*) 0x0001319c   ARM Code       0  QtCore{00040703}-1706.o(StubCode)
    QEventLoop::processEvents(QFlags<QEventLoop::ProcessEventsFlag>, int) 0x000131a4   ARM Code       0  QtCore{00040703}-172.o(StubCode)
    QObject::childEvent(QChildEvent*)        0x000131ac   ARM Code       0  QtCore{00040703}-1760.o(StubCode)
    QObject::disconnect(const QObject*, const char*, const QObject*, const char*) 0x000131b4   ARM Code       0  QtCore{00040703}-1761.o(StubCode)
    QObject::timerEvent(QTimerEvent*)        0x000131bc   ARM Code       0  QtCore{00040703}-1763.o(StubCode)
    QObject::customEvent(QEvent*)            0x000131c4   ARM Code       0  QtCore{00040703}-1764.o(StubCode)
    QObject::eventFilter(QObject*, QEvent*)  0x000131cc   ARM Code       0  QtCore{00040703}-1766.o(StubCode)
    QObject::qt_metacall(QMetaObject::Call, int, void**) 0x000131d4   ARM Code       0  QtCore{00040703}-1767.o(StubCode)
    QObject::qt_metacast(const char*)        0x000131dc   ARM Code       0  QtCore{00040703}-1768.o(StubCode)
    QObject::setUserData(unsigned, QObjectUserData*) 0x000131e4   ARM Code       0  QtCore{00040703}-1770.o(StubCode)
    QObject::connectNotify(const char*)      0x000131ec   ARM Code       0  QtCore{00040703}-1773.o(StubCode)
    QObject::disconnectNotify(const char*)   0x000131f4   ARM Code       0  QtCore{00040703}-1777.o(StubCode)
    QObject::event(QEvent*)                  0x000131fc   ARM Code       0  QtCore{00040703}-1784.o(StubCode)
    QObject::connect(const QObject*, const char*, const QObject*, const char*, Qt::ConnectionType) 0x00013204   ARM Code       0  QtCore{00040703}-1785.o(StubCode)
    QObject::setParent(QObject*)             0x0001320c   ARM Code       0  QtCore{00040703}-1788.o(StubCode)
    QObject::QObject(QObject*)               0x00013214   ARM Code       0  QtCore{00040703}-1789.o(StubCode)
    QEventLoop::QEventLoop(QObject*)         0x0001321c   ARM Code       0  QtCore{00040703}-179.o(StubCode)
    QObject::~QObject()                      0x00013224   ARM Code       0  QtCore{00040703}-1794.o(StubCode)
    QRegExp::capturedTexts()                 0x0001322c   ARM Code       0  QtCore{00040703}-1799.o(StubCode)
    QRegExp::QRegExp(const QString&, Qt::CaseSensitivity, QRegExp::PatternSyntax) 0x00013234   ARM Code       0  QtCore{00040703}-1805.o(StubCode)
    QRegExp::~QRegExp()                      0x0001323c   ARM Code       0  QtCore{00040703}-1811.o(StubCode)
    QString::fromAscii_helper(const char*, int) 0x00013244   ARM Code       0  QtCore{00040703}-1825.o(StubCode)
    QString::fromLatin1_helper(const char*, int) 0x0001324c   ARM Code       0  QtCore{00040703}-1826.o(StubCode)
    QString::free(QString::Data*)            0x00013254   ARM Code       0  QtCore{00040703}-1830.o(StubCode)
    QString::grow(int)                       0x0001325c   ARM Code       0  QtCore{00040703}-1831.o(StubCode)
    QString::append(const QLatin1String&)    0x00013264   ARM Code       0  QtCore{00040703}-1835.o(StubCode)
    QString::append(const QString&)          0x0001326c   ARM Code       0  QtCore{00040703}-1836.o(StubCode)
    QString::number(int, int)                0x00013274   ARM Code       0  QtCore{00040703}-1842.o(StubCode)
    QString::realloc(int)                    0x0001327c   ARM Code       0  QtCore{00040703}-1855.o(StubCode)
    QString::fromAscii(const char*, int)     0x00013284   ARM Code       0  QtCore{00040703}-1874.o(StubCode)
    QString::fromUtf16(const unsigned short*, int) 0x0001328c   ARM Code       0  QtCore{00040703}-1875.o(StubCode)
    QString::operator =(const QString&)      0x00013294   ARM Code       0  QtCore{00040703}-1885.o(StubCode)
    QLibrary::load()                         0x0001329c   ARM Code       0  QtCore{00040703}-1927.o(StubCode)
    QLibrary::unload()                       0x000132a4   ARM Code       0  QtCore{00040703}-1928.o(StubCode)
    QLibrary::QLibrary(const QString&, QObject*) 0x000132ac   ARM Code       0  QtCore{00040703}-1935.o(StubCode)
    QLibrary::~QLibrary()                    0x000132b4   ARM Code       0  QtCore{00040703}-1943.o(StubCode)
    QMapData::continueFreeData(int)          0x000132bc   ARM Code       0  QtCore{00040703}-1949.o(StubCode)
    QVariant::nameToType(const char*)        0x000132c4   ARM Code       0  QtCore{00040703}-2001.o(StubCode)
    QVariant::data()                         0x000132cc   ARM Code       0  QtCore{00040703}-2003.o(StubCode)
    QVariant::QVariant(const QByteArray&)    0x000132d4   ARM Code       0  QtCore{00040703}-2014.o(StubCode)
    QVariant::QVariant(const QStringList&)   0x000132dc   ARM Code       0  QtCore{00040703}-2015.o(StubCode)
    QVariant::QVariant(const QString&)       0x000132e4   ARM Code       0  QtCore{00040703}-2034.o(StubCode)
    QVariant::QVariant(const QVariant&)      0x000132ec   ARM Code       0  QtCore{00040703}-2037.o(StubCode)
    QVariant::QVariant(int)                  0x000132f4   ARM Code       0  QtCore{00040703}-2040.o(StubCode)
    QVariant::QVariant(int, const void*)     0x000132fc   ARM Code       0  QtCore{00040703}-2041.o(StubCode)
    QVariant::~QVariant()                    0x00013304   ARM Code       0  QtCore{00040703}-2082.o(StubCode)
    QVariant::operator =(const QVariant&)    0x0001330c   ARM Code       0  QtCore{00040703}-2084.o(StubCode)
    QFileInfo::QFileInfo(const QString&)     0x00013314   ARM Code       0  QtCore{00040703}-2122.o(StubCode)
    QFileInfo::~QFileInfo()                  0x0001331c   ARM Code       0  QtCore{00040703}-2130.o(StubCode)
    QHashData::free_helper(void(*)(QHashData::Node*)) 0x00013324   ARM Code       0  QtCore{00040703}-2134.o(StubCode)
    QHashData::previousNode(QHashData::Node*) 0x0001332c   ARM Code       0  QtCore{00040703}-2137.o(StubCode)
    QHashData::rehash(int)                   0x00013334   ARM Code       0  QtCore{00040703}-2141.o(StubCode)
    QHashData::freeNode(void*)               0x0001333c   ARM Code       0  QtCore{00040703}-2142.o(StubCode)
    QHashData::nextNode(QHashData::Node*)    0x00013344   ARM Code       0  QtCore{00040703}-2143.o(StubCode)
    QListData::erase(void**)                 0x0001334c   ARM Code       0  QtCore{00040703}-2186.o(StubCode)
    QListData::append()                      0x00013354   ARM Code       0  QtCore{00040703}-2188.o(StubCode)
    QListData::remove(int)                   0x0001335c   ARM Code       0  QtCore{00040703}-2191.o(StubCode)
    QListData::prepend()                     0x00013364   ARM Code       0  QtCore{00040703}-2196.o(StubCode)
    QListData::realloc(int)                  0x0001336c   ARM Code       0  QtCore{00040703}-2197.o(StubCode)
    QMetaType::registerType(const char*, void(*)(void*), void*(*)(const void*)) 0x00013374   ARM Code       0  QtCore{00040703}-2199.o(StubCode)
    QMetaType::load(QDataStream&, int, void*) 0x0001337c   ARM Code       0  QtCore{00040703}-2202.o(StubCode)
    QMetaType::save(QDataStream&, int, const void*) 0x00013384   ARM Code       0  QtCore{00040703}-2203.o(StubCode)
    QMetaType::type(const char*)             0x0001338c   ARM Code       0  QtCore{00040703}-2204.o(StubCode)
    QDataStream::resetStatus()               0x00013394   ARM Code       0  QtCore{00040703}-225.o(StubCode)
    QDataStream::setStatus(QDataStream::Status) 0x0001339c   ARM Code       0  QtCore{00040703}-233.o(StubCode)
    QDataStream::QDataStream(QByteArray*, QFlags<QIODevice::OpenModeFlag>) 0x000133a4   ARM Code       0  QtCore{00040703}-234.o(StubCode)
    QByteArray::mid(int, int) const          0x000133ac   ARM Code       0  QtCore{00040703}-2340.o(StubCode)
    QByteArray::indexOf(char, int) const     0x000133b4   ARM Code       0  QtCore{00040703}-2354.o(StubCode)
    QDataStream::QDataStream(const QByteArray&) 0x000133bc   ARM Code       0  QtCore{00040703}-236.o(StubCode)
    QByteArray::endsWith(char) const         0x000133c4   ARM Code       0  QtCore{00040703}-2363.o(StubCode)
    QStringRef::toString() const             0x000133cc   ARM Code       0  QtCore{00040703}-2372.o(StubCode)
    QDataStream::atEnd() const               0x000133d4   ARM Code       0  QtCore{00040703}-2382.o(StubCode)
    QDataStream::status() const              0x000133dc   ARM Code       0  QtCore{00040703}-2383.o(StubCode)
    QMetaMethod::attributes() const          0x000133e4   ARM Code       0  QtCore{00040703}-2385.o(StubCode)
    QMetaMethod::methodType() const          0x000133ec   ARM Code       0  QtCore{00040703}-2386.o(StubCode)
    QMetaMethod::parameterNames() const      0x000133f4   ARM Code       0  QtCore{00040703}-2388.o(StubCode)
    QMetaMethod::parameterTypes() const      0x000133fc   ARM Code       0  QtCore{00040703}-2389.o(StubCode)
    QMetaMethod::tag() const                 0x00013404   ARM Code       0  QtCore{00040703}-2390.o(StubCode)
    QMetaMethod::access() const              0x0001340c   ARM Code       0  QtCore{00040703}-2391.o(StubCode)
    QMetaMethod::invoke(QObject*, Qt::ConnectionType, QGenericReturnArgument, QGenericArgument, QGenericArgument, QGenericArgument, QGenericArgument, QGenericArgument, QGenericArgument, QGenericArgument, QGenericArgument, QGenericArgument, QGenericArgument) const 0x00013414   ARM Code       0  QtCore{00040703}-2392.o(StubCode)
    QMetaMethod::typeName() const            0x0001341c   ARM Code       0  QtCore{00040703}-2393.o(StubCode)
    QMetaMethod::signature() const           0x00013424   ARM Code       0  QtCore{00040703}-2394.o(StubCode)
    QMetaObject::enumerator(int) const       0x0001342c   ARM Code       0  QtCore{00040703}-2395.o(StubCode)
    QMetaObject::constructor(int) const      0x00013434   ARM Code       0  QtCore{00040703}-2396.o(StubCode)
    QMetaObject::methodCount() const         0x0001343c   ARM Code       0  QtCore{00040703}-2398.o(StubCode)
    QMetaObject::methodOffset() const        0x00013444   ARM Code       0  QtCore{00040703}-2400.o(StubCode)
    QMetaObject::indexOfMethod(const char*) const 0x0001344c   ARM Code       0  QtCore{00040703}-2402.o(StubCode)
    QMetaObject::indexOfSignal(const char*) const 0x00013454   ARM Code       0  QtCore{00040703}-2403.o(StubCode)
    QMetaObject::propertyCount() const       0x0001345c   ARM Code       0  QtCore{00040703}-2404.o(StubCode)
    QMetaObject::classInfoCount() const      0x00013464   ARM Code       0  QtCore{00040703}-2405.o(StubCode)
    QMetaObject::propertyOffset() const      0x0001346c   ARM Code       0  QtCore{00040703}-2406.o(StubCode)
    QMetaObject::classInfoOffset() const     0x00013474   ARM Code       0  QtCore{00040703}-2407.o(StubCode)
    QMetaObject::enumeratorCount() const     0x0001347c   ARM Code       0  QtCore{00040703}-2408.o(StubCode)
    QMetaObject::constructorCount() const    0x00013484   ARM Code       0  QtCore{00040703}-2411.o(StubCode)
    QMetaObject::enumeratorOffset() const    0x0001348c   ARM Code       0  QtCore{00040703}-2412.o(StubCode)
    QMetaObject::method(int) const           0x00013494   ARM Code       0  QtCore{00040703}-2419.o(StubCode)
    QMetaObject::property(int) const         0x0001349c   ARM Code       0  QtCore{00040703}-2422.o(StubCode)
    QMetaObject::classInfo(int) const        0x000134a4   ARM Code       0  QtCore{00040703}-2423.o(StubCode)
    QDataStream::~QDataStream()              0x000134ac   ARM Code       0  QtCore{00040703}-243.o(StubCode)
    QDataStream::operator <<(signed char)    0x000134b4   ARM Code       0  QtCore{00040703}-246.o(StubCode)
    QDataStream::operator <<(bool)           0x000134bc   ARM Code       0  QtCore{00040703}-247.o(StubCode)
    QMetaProperty::isEditable(const QObject*) const 0x000134c4   ARM Code       0  QtCore{00040703}-2486.o(StubCode)
    QMetaProperty::isEnumType() const        0x000134cc   ARM Code       0  QtCore{00040703}-2487.o(StubCode)
    QMetaProperty::isReadable() const        0x000134d4   ARM Code       0  QtCore{00040703}-2489.o(StubCode)
    QMetaProperty::isWritable() const        0x000134dc   ARM Code       0  QtCore{00040703}-2490.o(StubCode)
    QMetaProperty::hasStdCppSet() const      0x000134e4   ARM Code       0  QtCore{00040703}-2491.o(StubCode)
    QMetaProperty::isDesignable(const QObject*) const 0x000134ec   ARM Code       0  QtCore{00040703}-2492.o(StubCode)
    QMetaProperty::isResettable() const      0x000134f4   ARM Code       0  QtCore{00040703}-2493.o(StubCode)
    QMetaProperty::isScriptable(const QObject*) const 0x000134fc   ARM Code       0  QtCore{00040703}-2494.o(StubCode)
    QMetaProperty::notifySignal() const      0x00013504   ARM Code       0  QtCore{00040703}-2495.o(StubCode)
    QMetaProperty::hasNotifySignal() const   0x0001350c   ARM Code       0  QtCore{00040703}-2497.o(StubCode)
    QMetaProperty::name() const              0x00013514   ARM Code       0  QtCore{00040703}-2499.o(StubCode)
    QDataStream::operator <<(int)            0x0001351c   ARM Code       0  QtCore{00040703}-250.o(StubCode)
    QMetaProperty::read(const QObject*) const 0x00013524   ARM Code       0  QtCore{00040703}-2500.o(StubCode)
    QMetaProperty::type() const              0x0001352c   ARM Code       0  QtCore{00040703}-2501.o(StubCode)
    QMetaProperty::reset(QObject*) const     0x00013534   ARM Code       0  QtCore{00040703}-2502.o(StubCode)
    QMetaProperty::write(QObject*, const QVariant&) const 0x0001353c   ARM Code       0  QtCore{00040703}-2503.o(StubCode)
    QMetaProperty::isUser(const QObject*) const 0x00013544   ARM Code       0  QtCore{00040703}-2504.o(StubCode)
    QMetaProperty::isStored(const QObject*) const 0x0001354c   ARM Code       0  QtCore{00040703}-2506.o(StubCode)
    QMetaProperty::typeName() const          0x00013554   ARM Code       0  QtCore{00040703}-2507.o(StubCode)
    QDataStream::operator <<(short)          0x0001355c   ARM Code       0  QtCore{00040703}-251.o(StubCode)
    QDataStream::operator >>(signed char&)   0x00013564   ARM Code       0  QtCore{00040703}-254.o(StubCode)
    QDataStream::operator >>(bool&)          0x0001356c   ARM Code       0  QtCore{00040703}-255.o(StubCode)
    QMetaClassInfo::name() const             0x00013574   ARM Code       0  QtCore{00040703}-2553.o(StubCode)
    QMetaClassInfo::value() const            0x0001357c   ARM Code       0  QtCore{00040703}-2554.o(StubCode)
    QDataStream::operator >>(int&)           0x00013584   ARM Code       0  QtCore{00040703}-258.o(StubCode)
    QDataStream::operator >>(short&)         0x0001358c   ARM Code       0  QtCore{00040703}-259.o(StubCode)
    QSystemSemaphore::error() const          0x00013594   ARM Code       0  QtCore{00040703}-2611.o(StubCode)
    QXmlStreamReader::attributes() const     0x0001359c   ARM Code       0  QtCore{00040703}-2614.o(StubCode)
    QXmlStreamReader::name() const           0x000135a4   ARM Code       0  QtCore{00040703}-2635.o(StubCode)
    QXmlStreamReader::atEnd() const          0x000135ac   ARM Code       0  QtCore{00040703}-2637.o(StubCode)
    QXmlStreamReader::tokenType() const      0x000135b4   ARM Code       0  QtCore{00040703}-2643.o(StubCode)
    QMetaObject::disconnect(const QObject*, int, const QObject*, int) 0x000135bc   ARM Code       0  QtCore{00040703}-273.o(StubCode)
    QMetaObject::changeGuard(QObject**, QObject*) 0x000135c4   ARM Code       0  QtCore{00040703}-274.o(StubCode)
    QMetaObject::removeGuard(QObject**)      0x000135cc   ARM Code       0  QtCore{00040703}-275.o(StubCode)
    QXmlStreamAttributes::value(const QString&) const 0x000135d4   ARM Code       0  QtCore{00040703}-2750.o(StubCode)
    QMetaObject::normalizedType(const char*) 0x000135dc   ARM Code       0  QtCore{00040703}-277.o(StubCode)
    QMetaObject::normalizedSignature(const char*) 0x000135e4   ARM Code       0  QtCore{00040703}-280.o(StubCode)
    QMetaObject::connect(const QObject*, int, const QObject*, int, int, int*) 0x000135ec   ARM Code       0  QtCore{00040703}-281.o(StubCode)
    QMetaObject::activate(QObject*, const QMetaObject*, int, void**) 0x000135f4   ARM Code       0  QtCore{00040703}-282.o(StubCode)
    QMetaObject::addGuard(QObject**)         0x000135fc   ARM Code       0  QtCore{00040703}-286.o(StubCode)
    QTime::elapsed() const                   0x00013604   ARM Code       0  QtCore{00040703}-2919.o(StubCode)
    QUuid::toString() const                  0x0001360c   ARM Code       0  QtCore{00040703}-2928.o(StubCode)
    QObject::metaObject() const              0x00013614   ARM Code       0  QtCore{00040703}-3003.o(StubCode)
    QObject::userData(unsigned) const        0x0001361c   ARM Code       0  QtCore{00040703}-3009.o(StubCode)
    QObject::receivers(const char*) const    0x00013624   ARM Code       0  QtCore{00040703}-3010.o(StubCode)
    QRegExp::matchedLength() const           0x0001362c   ARM Code       0  QtCore{00040703}-3017.o(StubCode)
    QRegExp::indexIn(const QString&, int, QRegExp::CaretMode) const 0x00013634   ARM Code       0  QtCore{00040703}-3022.o(StubCode)
    QString::startsWith(const QString&, Qt::CaseSensitivity) const 0x0001363c   ARM Code       0  QtCore{00040703}-3033.o(StubCode)
    QString::toLocal8Bit() const             0x00013644   ARM Code       0  QtCore{00040703}-3040.o(StubCode)
    QString::arg(const QString&, int, const QChar&) const 0x0001364c   ARM Code       0  QtCore{00040703}-3049.o(StubCode)
    QString::arg(long long, int, int, const QChar&) const 0x00013654   ARM Code       0  QtCore{00040703}-3052.o(StubCode)
    QString::split(const QString&, QString::SplitBehavior, Qt::CaseSensitivity) const 0x0001365c   ARM Code       0  QtCore{00040703}-3062.o(StubCode)
    QString::toInt(bool*, int) const         0x00013664   ARM Code       0  QtCore{00040703}-3063.o(StubCode)
    QString::utf16() const                   0x0001366c   ARM Code       0  QtCore{00040703}-3064.o(StubCode)
    QString::toLower() const                 0x00013674   ARM Code       0  QtCore{00040703}-3083.o(StubCode)
    QString::operator ==(const QLatin1String&) const 0x0001367c   ARM Code       0  QtCore{00040703}-3097.o(StubCode)
    QString::operator ==(const QString&) const 0x00013684   ARM Code       0  QtCore{00040703}-3098.o(StubCode)
    QTextStream::QTextStream(QString*, QFlags<QIODevice::OpenModeFlag>) 0x0001368c   ARM Code       0  QtCore{00040703}-312.o(StubCode)
    QVariant::toByteArray() const            0x00013694   ARM Code       0  QtCore{00040703}-3133.o(StubCode)
    QVariant::toStringList() const           0x0001369c   ARM Code       0  QtCore{00040703}-3135.o(StubCode)
    QVariant::cmp(const QVariant&) const     0x000136a4   ARM Code       0  QtCore{00040703}-3136.o(StubCode)
    QVariant::type() const                   0x000136ac   ARM Code       0  QtCore{00040703}-3138.o(StubCode)
    QVariant::toInt(bool*) const             0x000136b4   ARM Code       0  QtCore{00040703}-3139.o(StubCode)
    QVariant::toString() const               0x000136bc   ARM Code       0  QtCore{00040703}-3163.o(StubCode)
    QVariant::typeName() const               0x000136c4   ARM Code       0  QtCore{00040703}-3164.o(StubCode)
    QVariant::userType() const               0x000136cc   ARM Code       0  QtCore{00040703}-3165.o(StubCode)
    QVariant::constData() const              0x000136d4   ARM Code       0  QtCore{00040703}-3166.o(StubCode)
    qt_message_output(QtMsgType, const char*) 0x000136dc   ARM Code       0  QtCore{00040703}-32.o(StubCode)
    QFileInfo::completeBaseName() const      0x000136e4   ARM Code       0  QtCore{00040703}-3201.o(StubCode)
    QFileInfo::suffix() const                0x000136ec   ARM Code       0  QtCore{00040703}-3212.o(StubCode)
    QIODevice::isOpen() const                0x000136f4   ARM Code       0  QtCore{00040703}-3238.o(StubCode)
    QTextStream::~QTextStream()              0x000136fc   ARM Code       0  QtCore{00040703}-324.o(StubCode)
    QMetaEnum::key(int) const                0x00013704   ARM Code       0  QtCore{00040703}-3244.o(StubCode)
    QMetaEnum::name() const                  0x0001370c   ARM Code       0  QtCore{00040703}-3245.o(StubCode)
    QMetaEnum::value(int) const              0x00013714   ARM Code       0  QtCore{00040703}-3247.o(StubCode)
    QMetaEnum::isFlag() const                0x0001371c   ARM Code       0  QtCore{00040703}-3248.o(StubCode)
    QMetaEnum::keyCount() const              0x00013724   ARM Code       0  QtCore{00040703}-3249.o(StubCode)
    QTextStream::operator <<(const char*)    0x0001372c   ARM Code       0  QtCore{00040703}-328.o(StubCode)
    QTextStream::operator <<(const QString&) 0x00013734   ARM Code       0  QtCore{00040703}-331.o(StubCode)
    QTextStream::operator <<(char)           0x0001373c   ARM Code       0  QtCore{00040703}-332.o(StubCode)
    QTextStream::operator <<(int)            0x00013744   ARM Code       0  QtCore{00040703}-335.o(StubCode)
    operator ==(const QLatin1String&, const QStringRef&) 0x0001374c   ARM Code       0  QtCore{00040703}-3460.o(StubCode)
    operator ==(const QString&, const QStringRef&) 0x00013754   ARM Code       0  QtCore{00040703}-3461.o(StubCode)
    operator <<(QDataStream&, const QByteArray&) 0x0001375c   ARM Code       0  QtCore{00040703}-3486.o(StubCode)
    operator <<(QDataStream&, const QUuid&)  0x00013764   ARM Code       0  QtCore{00040703}-3494.o(StubCode)
    operator <<(QDataStream&, const QString&) 0x0001376c   ARM Code       0  QtCore{00040703}-3502.o(StubCode)
    operator <<(QDataStream&, const QVariant&) 0x00013774   ARM Code       0  QtCore{00040703}-3503.o(StubCode)
    operator >>(QDataStream&, QByteArray&)   0x0001377c   ARM Code       0  QtCore{00040703}-3508.o(StubCode)
    operator >>(QDataStream&, QUuid&)        0x00013784   ARM Code       0  QtCore{00040703}-3516.o(StubCode)
    operator >>(QDataStream&, QString&)      0x0001378c   ARM Code       0  QtCore{00040703}-3524.o(StubCode)
    operator >>(QDataStream&, QVariant&)     0x00013794   ARM Code       0  QtCore{00040703}-3525.o(StubCode)
    QVectorData::reallocate(QVectorData*, int, int, int) 0x0001379c   ARM Code       0  QtCore{00040703}-3583.o(StubCode)
    QVectorData::free(QVectorData*, int)     0x000137a4   ARM Code       0  QtCore{00040703}-3584.o(StubCode)
    QVectorData::allocate(int, int)          0x000137ac   ARM Code       0  QtCore{00040703}-3585.o(StubCode)
    QHashData::allocateNode(int)             0x000137b4   ARM Code       0  QtCore{00040703}-3609.o(StubCode)
    QHashData::detach_helper2(void(*)(QHashData::Node*, void*), void(*)(QHashData::Node*), int, int) 0x000137bc   ARM Code       0  QtCore{00040703}-3610.o(StubCode)
    QListData::detach_grow(int*, int)        0x000137c4   ARM Code       0  QtCore{00040703}-3689.o(StubCode)
    QListData::detach(int)                   0x000137cc   ARM Code       0  QtCore{00040703}-3691.o(StubCode)
    QVectorData::grow(int, int, int, bool)   0x000137d4   ARM Code       0  QtCore{00040703}-392.o(StubCode)
    qt_symbian_throwIfError(int)             0x000137dc   ARM Code       0  QtCore{00040703}-46.o(StubCode)
    QPluginLoader::instance()                0x000137e4   ARM Code       0  QtCore{00040703}-499.o(StubCode)
    QPluginLoader::QPluginLoader(const QString&, QObject*) 0x000137ec   ARM Code       0  QtCore{00040703}-501.o(StubCode)
    QBasicAtomicPointer_testAndSetOrdered(void*volatile *, void*, void*) 0x000137f4   ARM Code       0  QtCore{00040703}-56.o(StubCode)
    qFree(void*)                             0x000137fc   ARM Code       0  QtCore{00040703}-70.o(StubCode)
    QObjectUserData::~QObjectUserData()      0x00013804   ARM Code       0  QtCore{00040703}-712.o(StubCode)
    qHash(const QString&)                    0x0001380c   ARM Code       0  QtCore{00040703}-73.o(StubCode)
    QCoreApplication::libraryPaths()         0x00013814   ARM Code       0  QtCore{00040703}-753.o(StubCode)
    QCoreApplication::exit(int)              0x0001381c   ARM Code       0  QtCore{00040703}-786.o(StubCode)
    QSystemSemaphore::setKey(const QString&, int, QSystemSemaphore::AccessMode) 0x00013824   ARM Code       0  QtCore{00040703}-834.o(StubCode)
    QSystemSemaphore::acquire()              0x0001382c   ARM Code       0  QtCore{00040703}-835.o(StubCode)
    QSystemSemaphore::release(int)           0x00013834   ARM Code       0  QtCore{00040703}-836.o(StubCode)
    QSystemSemaphore::QSystemSemaphore(const QString&, int, QSystemSemaphore::AccessMode) 0x0001383c   ARM Code       0  QtCore{00040703}-837.o(StubCode)
    QSystemSemaphore::~QSystemSemaphore()    0x00013844   ARM Code       0  QtCore{00040703}-839.o(StubCode)
    QXmlStreamReader::readElementText()      0x0001384c   ARM Code       0  QtCore{00040703}-852.o(StubCode)
    QXmlStreamReader::readNext()             0x00013854   ARM Code       0  QtCore{00040703}-863.o(StubCode)
    QXmlStreamReader::setDevice(QIODevice*)  0x0001385c   ARM Code       0  QtCore{00040703}-864.o(StubCode)
    QXmlStreamReader::QXmlStreamReader()     0x00013864   ARM Code       0  QtCore{00040703}-869.o(StubCode)
    QXmlStreamReader::~QXmlStreamReader()    0x0001386c   ARM Code       0  QtCore{00040703}-875.o(StubCode)
    qMalloc(unsigned)                        0x00013874   ARM Code       0  QtCore{00040703}-90.o(StubCode)
    qMemSet(void*, int, unsigned)            0x0001387c   ARM Code       0  QtCore{00040703}-91.o(StubCode)
    qstrcmp(const QByteArray&, const char*)  0x00013884   ARM Code       0  QtCore{00040703}-95.o(StubCode)
    qstrcmp(const QByteArray&, const QByteArray&) 0x0001388c   ARM Code       0  QtCore{00040703}-96.o(StubCode)
    memcmp                                   0x00013894   ARM Code       0  libc{00010000}-232.o(StubCode)
    strcmp                                   0x0001389c   ARM Code       0  libc{00010000}-350.o(StubCode)
    TPtrC8::TPtrC8(const unsigned char*, int) 0x000138a4   ARM Code       0  euser{000a0000}-1033.o(StubCode)
    CActive::Cancel()                        0x000138ac   ARM Code       0  euser{000a0000}-1088.o(StubCode)
    CActive::RunError(int)                   0x000138b4   ARM Code       0  euser{000a0000}-1089.o(StubCode)
    CActive::SetActive()                     0x000138bc   ARM Code       0  euser{000a0000}-1090.o(StubCode)
    CActive::CActive__sub_object(int)        0x000138c4   ARM Code       0  euser{000a0000}-1091.o(StubCode)
    CActive::~CActive__sub_object()          0x000138cc   ARM Code       0  euser{000a0000}-1094.o(StubCode)
    HBufC16::Des()                           0x000138d4   ARM Code       0  euser{000a0000}-1116.o(StubCode)
    HBufC16::New(int)                        0x000138dc   ARM Code       0  euser{000a0000}-1117.o(StubCode)
    TPtrC16::TPtrC16(const unsigned short*)  0x000138e4   ARM Code       0  euser{000a0000}-1169.o(StubCode)
    RHandleBase::Close()                     0x000138ec   ARM Code       0  euser{000a0000}-120.o(StubCode)
    CServer2::Start(const TDesC16&)          0x000138f4   ARM Code       0  euser{000a0000}-1285.o(StubCode)
    CServer2::DoCancel()                     0x000138fc   ARM Code       0  euser{000a0000}-1288.o(StubCode)
    CServer2::DoConnect(const RMessage2&)    0x00013904   ARM Code       0  euser{000a0000}-1290.o(StubCode)
    CServer2::~CServer2__sub_object()        0x0001390c   ARM Code       0  euser{000a0000}-1294.o(StubCode)
    RProcess::Rendezvous(int)                0x00013914   ARM Code       0  euser{000a0000}-1314.o(StubCode)
    RProcess::Kill(int)                      0x0001391c   ARM Code       0  euser{000a0000}-1320.o(StubCode)
    RProcess::Create(const TDesC16&, const TDesC16&, TOwnerType) 0x00013924   ARM Code       0  euser{000a0000}-1324.o(StubCode)
    RProcess::Resume()                       0x0001392c   ARM Code       0  euser{000a0000}-1326.o(StubCode)
    TVersion::TVersion(int, int, int)        0x00013934   ARM Code       0  euser{000a0000}-1355.o(StubCode)
    TVersion::TVersion()                     0x0001393c   ARM Code       0  euser{000a0000}-1356.o(StubCode)
    CSession2::Disconnect(const RMessage2&)  0x00013944   ARM Code       0  euser{000a0000}-1387.o(StubCode)
    CSession2::ServiceError(const RMessage2&, int) 0x0001394c   ARM Code       0  euser{000a0000}-1388.o(StubCode)
    CSession2::CountResources()              0x00013954   ARM Code       0  euser{000a0000}-1389.o(StubCode)
    CSession2::CreateL()                     0x0001395c   ARM Code       0  euser{000a0000}-1392.o(StubCode)
    CSession2::CSession2__sub_object()       0x00013964   ARM Code       0  euser{000a0000}-1393.o(StubCode)
    CSession2::~CSession2__sub_object()      0x0001396c   ARM Code       0  euser{000a0000}-1396.o(StubCode)
    TBufBase8::TBufBase8(int)                0x00013974   ARM Code       0  euser{000a0000}-1468.o(StubCode)
    TBufBase8::TBufBase8(int, int)           0x0001397c   ARM Code       0  euser{000a0000}-1469.o(StubCode)
    RMessagePtr2::GetDesLength(int) const    0x00013984   ARM Code       0  euser{000a0000}-1526.o(StubCode)
    RMessagePtr2::GetDesMaxLength(int) const 0x0001398c   ARM Code       0  euser{000a0000}-1528.o(StubCode)
    RMessagePtr2::ReadL(int, TDes8&, int) const 0x00013994   ARM Code       0  euser{000a0000}-1536.o(StubCode)
    RMessagePtr2::WriteL(int, const TDesC8&, int) const 0x0001399c   ARM Code       0  euser{000a0000}-1541.o(StubCode)
    RMessagePtr2::Complete(int) const        0x000139a4   ARM Code       0  euser{000a0000}-1544.o(StubCode)
    RSessionBase::DoSendReceive(int, const TIpcArgs*) const 0x000139ac   ARM Code       0  euser{000a0000}-1547.o(StubCode)
    RSessionBase::DoSendReceive(int, const TIpcArgs*, TRequestStatus&) const 0x000139b4   ARM Code       0  euser{000a0000}-1548.o(StubCode)
    TFindServer::Next(TBuf<(int)256>&)       0x000139bc   ARM Code       0  euser{000a0000}-159.o(StubCode)
    TDesC8::Ptr() const                      0x000139c4   ARM Code       0  euser{000a0000}-1719.o(StubCode)
    TDesC16::Ptr() const                     0x000139cc   ARM Code       0  euser{000a0000}-1807.o(StubCode)
    RProcess::Rendezvous(TRequestStatus&) const 0x000139d4   ARM Code       0  euser{000a0000}-1842.o(StubCode)
    RSessionBase::CreateSession(const TDesC16&, const TVersion&, int, TIpcSessionType, const TSecurityPolicy*, TRequestStatus*) 0x000139dc   ARM Code       0  euser{000a0000}-1992.o(StubCode)
    CPolicyServer::CustomFailureActionL(const RMessage2&, int, const TSecurityInfo&) 0x000139e4   ARM Code       0  euser{000a0000}-1995.o(StubCode)
    CPolicyServer::RunL()                    0x000139ec   ARM Code       0  euser{000a0000}-1997.o(StubCode)
    CPolicyServer::RunError(int)             0x000139f4   ARM Code       0  euser{000a0000}-1999.o(StubCode)
    CPolicyServer::CPolicyServer__sub_object(int, const CPolicyServer::TPolicy&, CServer2::TServerType) 0x000139fc   ARM Code       0  euser{000a0000}-2000.o(StubCode)
    CleanupStack::Pop()                      0x00013a04   ARM Code       0  euser{000a0000}-205.o(StubCode)
    User::MarkCleanupStack()                 0x00013a0c   ARM Code       0  euser{000a0000}-2060.o(StubCode)
    User::UnMarkCleanupStack(TTrapHandler*)  0x00013a14   ARM Code       0  euser{000a0000}-2061.o(StubCode)
    CleanupStack::PushL(CBase*)              0x00013a1c   ARM Code       0  euser{000a0000}-208.o(StubCode)
    XLeaveException::GetReason() const       0x00013a24   ARM Code       0  euser{000a0000}-2082.o(StubCode)
    CPolicyServer::Extension_(unsigned, void*&, void*) 0x00013a2c   ARM Code       0  euser{000a0000}-2120.o(StubCode)
    CActive::Extension_(unsigned, void*&, void*) 0x00013a34   ARM Code       0  euser{000a0000}-2128.o(StubCode)
    CSession2::Extension_(unsigned, void*&, void*) 0x00013a3c   ARM Code       0  euser{000a0000}-2131.o(StubCode)
    TFindHandleBase::TFindHandleBase(const TDesC16&) 0x00013a44   ARM Code       0  euser{000a0000}-403.o(StubCode)
    CActiveScheduler::Add(CActive*)          0x00013a4c   ARM Code       0  euser{000a0000}-424.o(StubCode)
    User::WaitForRequest(TRequestStatus&)    0x00013a54   ARM Code       0  euser{000a0000}-604.o(StubCode)
    User::QueryVersionSupported(const TVersion&, const TVersion&) 0x00013a5c   ARM Code       0  euser{000a0000}-637.o(StubCode)
    User::After(TTimeIntervalMicroSeconds32) 0x00013a64   ARM Code       0  euser{000a0000}-645.o(StubCode)
    User::Leave(int)                         0x00013a6c   ARM Code       0  euser{000a0000}-649.o(StubCode)
    User::AllocZ(int)                        0x00013a74   ARM Code       0  euser{000a0000}-652.o(StubCode)
    User::AllocZL(int)                       0x00013a7c   ARM Code       0  euser{000a0000}-654.o(StubCode)
    User::Invariant()                        0x00013a84   ARM Code       0  euser{000a0000}-669.o(StubCode)
    User::LockedDec(int&)                    0x00013a8c   ARM Code       0  euser{000a0000}-670.o(StubCode)
    User::LockedInc(int&)                    0x00013a94   ARM Code       0  euser{000a0000}-671.o(StubCode)
    TBufBase16::TBufBase16(int)              0x00013a9c   ARM Code       0  euser{000a0000}-81.o(StubCode)
    HBufC8::Des()                            0x00013aa4   ARM Code       0  euser{000a0000}-891.o(StubCode)
    HBufC8::New(int)                         0x00013aac   ARM Code       0  euser{000a0000}-892.o(StubCode)
    TDes16::Copy(const TDesC16&)             0x00013ab4   ARM Code       0  euser{000a0000}-953.o(StubCode)
    __aeabi_memclr4                          0x00013abc   ARM Code       0  drtaeabi{000a0000}-144.o(StubCode)
    __aeabi_memcpy                           0x00013ac4   ARM Code       0  drtaeabi{000a0000}-146.o(StubCode)
    __aeabi_memcpy4                          0x00013acc   ARM Code       0  drtaeabi{000a0000}-147.o(StubCode)
    __aeabi_uidivmod                         0x00013ad4   ARM Code       0  drtaeabi{000a0000}-155.o(StubCode)
    __aeabi_unwind_cpp_pr0                   0x00013adc   ARM Code       0  drtaeabi{000a0000}-158.o(StubCode)
    __aeabi_unwind_cpp_pr1                   0x00013ae4   ARM Code       0  drtaeabi{000a0000}-159.o(StubCode)
    __cxa_begin_catch                        0x00013aec   ARM Code       0  drtaeabi{000a0000}-180.o(StubCode)
    __cxa_call_unexpected                    0x00013af4   ARM Code       0  drtaeabi{000a0000}-182.o(StubCode)
    __cxa_end_catch                          0x00013afc   ARM Code       0  drtaeabi{000a0000}-183.o(StubCode)
    __cxa_end_cleanup                        0x00013b04   ARM Code       0  drtaeabi{000a0000}-184.o(StubCode)
    __cxa_guard_abort                        0x00013b0c   ARM Code       0  drtaeabi{000a0000}-186.o(StubCode)
    __cxa_guard_acquire                      0x00013b14   ARM Code       0  drtaeabi{000a0000}-187.o(StubCode)
    __cxa_guard_release                      0x00013b1c   ARM Code       0  drtaeabi{000a0000}-188.o(StubCode)
    __cxa_pure_virtual                       0x00013b24   ARM Code       0  drtaeabi{000a0000}-189.o(StubCode)
    __cxa_rethrow                            0x00013b2c   ARM Code       0  drtaeabi{000a0000}-190.o(StubCode)
    __ARM_switch8                            0x00013b34   ARM Code       0  drtrvct2_2{000a0000}-28.o(StubCode)
    qStringComparisonHelper(const QStringRef&, const char*) 0x00013b3d   Thumb Code    54  QtServiceFramework.in(i._Z23qStringComparisonHelperRK10QStringRefPKc)
    qDebug()                                 0x00013b83   Thumb Code    10  QtServiceFramework.in(i._Z6qDebugv)
    qWarning()                               0x00013b8d   Thumb Code    10  QtServiceFramework.in(i._Z8qWarningv)
    QByteArray::QByteArray(const QByteArray&) 0x00013b97   Thumb Code    16  QtServiceFramework.in(i._ZN10QByteArrayC1ERKS_)
    QByteArray::QByteArray__sub_object(const QByteArray&) 0x00013b97   Thumb Code     0  QtServiceFramework.in(i._ZN10QByteArrayC1ERKS_)
    QByteArray::QByteArray()                 0x00013ba9   Thumb Code    16  QtServiceFramework.in(i._ZN10QByteArrayC1Ev)
    QByteArray::QByteArray__sub_object()     0x00013ba9   Thumb Code     0  QtServiceFramework.in(i._ZN10QByteArrayC1Ev)
    QByteArray::~QByteArray()                0x00013bbd   Thumb Code    24  QtServiceFramework.in(i._ZN10QByteArrayD1Ev)
    QByteArray::~QByteArray__sub_object()    0x00013bbd   Thumb Code     0  QtServiceFramework.in(i._ZN10QByteArrayD1Ev)
    QStringRef::~QStringRef()                0x00013bd5   Thumb Code     2  QtServiceFramework.in(i._ZN10QStringRefD1Ev)
    QStringRef::~QStringRef__sub_object()    0x00013bd5   Thumb Code     0  QtServiceFramework.in(i._ZN10QStringRefD1Ev)
    QtMobility::ObjectEndPointPrivate::triggerConnectedSlots(QObject*, const QMetaObject*, int, void**) 0x00013bd7   Thumb Code    76  QtServiceFramework.in(i._ZN10QtMobility21ObjectEndPointPrivate21triggerConnectedSlotsEP7QObjectPK11QMetaObjectiPPv)
    QtMobility::ObjectEndPointPrivate::setupSignalIntercepters(QObject*) 0x00013c25   Thumb Code   204  QtServiceFramework.in(i._ZN10QtMobility21ObjectEndPointPrivate23setupSignalInterceptersEP7QObject)
    QtMobility::QServiceFilterPrivate::QServiceFilterPrivate() 0x00013d1f   Thumb Code    40  QtServiceFramework.in(i._ZN10QtMobility21QServiceFilterPrivateC1Ev)
    QtMobility::QServiceFilterPrivate::QServiceFilterPrivate__sub_object() 0x00013d1f   Thumb Code     0  QtServiceFramework.in(i._ZN10QtMobility21QServiceFilterPrivateC1Ev)
    QtMobility::QServicePluginCleanup::~QServicePluginCleanup__deallocating() 0x00013d65   Thumb Code    16  QtServiceFramework.in(i._ZN10QtMobility21QServicePluginCleanupD0Ev)
    QtMobility::QServicePluginCleanup::~QServicePluginCleanup() 0x00013d75   Thumb Code    28  QtServiceFramework.in(i._ZN10QtMobility21QServicePluginCleanupD1Ev)
    QtMobility::QServicePluginCleanup::~QServicePluginCleanup__sub_object() 0x00013d75   Thumb Code     0  QtServiceFramework.in(i._ZN10QtMobility21QServicePluginCleanupD1Ev)
    QtMobility::SymbianClientEndPoint::flushPackage(const QtMobility::QServicePackage&) 0x00013d9f   Thumb Code    10  QtServiceFramework.in(i._ZN10QtMobility21SymbianClientEndPoint12flushPackageERKNS_15QServicePackageE)
    QtMobility::SymbianClientEndPoint::~SymbianClientEndPoint__deallocating() 0x00013da9   Thumb Code    16  QtServiceFramework.in(i._ZN10QtMobility21SymbianClientEndPointD0Ev)
    QtMobility::SymbianClientEndPoint::~SymbianClientEndPoint() 0x00013db9   Thumb Code     8  QtServiceFramework.in(i._ZN10QtMobility21SymbianClientEndPointD1Ev)
    QtMobility::SymbianClientEndPoint::~SymbianClientEndPoint__sub_object() 0x00013db9   Thumb Code     0  QtServiceFramework.in(i._ZN10QtMobility21SymbianClientEndPointD1Ev)
    QtMobility::SymbianServerEndPoint::flushPackage(const QtMobility::QServicePackage&) 0x00013dc1   Thumb Code   100  QtServiceFramework.in(i._ZN10QtMobility21SymbianServerEndPoint12flushPackageERKNS_15QServicePackageE)
    QtMobility::SymbianServerEndPoint::~SymbianServerEndPoint__deallocating() 0x00013e5d   Thumb Code    16  QtServiceFramework.in(i._ZN10QtMobility21SymbianServerEndPointD0Ev)
    QtMobility::SymbianServerEndPoint::~SymbianServerEndPoint() 0x00013e6d   Thumb Code    22  QtServiceFramework.in(i._ZN10QtMobility21SymbianServerEndPointD1Ev)
    QtMobility::SymbianServerEndPoint::~SymbianServerEndPoint__sub_object() 0x00013e6d   Thumb Code     0  QtServiceFramework.in(i._ZN10QtMobility21SymbianServerEndPointD1Ev)
    QtMobility::CServiceProviderServer::~CServiceProviderServer__deallocating() 0x00013e93   Thumb Code    16  QtServiceFramework.in(i._ZN10QtMobility22CServiceProviderServerD0Ev)
    QtMobility::CServiceProviderServer::~CServiceProviderServer() 0x00013ea3   Thumb Code     8  QtServiceFramework.in(i._ZN10QtMobility22CServiceProviderServerD1Ev)
    QtMobility::CServiceProviderServer::~CServiceProviderServer__sub_object() 0x00013ea3   Thumb Code     0  QtServiceFramework.in(i._ZN10QtMobility22CServiceProviderServerD1Ev)
    QtMobility::QServiceManagerPrivate::setError() 0x00013ead   Thumb Code   120  QtServiceFramework.in(i._ZN10QtMobility22QServiceManagerPrivate8setErrorEv)
    QtMobility::QServiceManagerPrivate::QServiceManagerPrivate(QtMobility::QServiceManager*) 0x00013f2d   Thumb Code    76  QtServiceFramework.in(i._ZN10QtMobility22QServiceManagerPrivateC1EPNS_15QServiceManagerE)
    QtMobility::QServiceManagerPrivate::QServiceManagerPrivate__sub_object(QtMobility::QServiceManager*) 0x00013f2d   Thumb Code     0  QtServiceFramework.in(i._ZN10QtMobility22QServiceManagerPrivateC1EPNS_15QServiceManagerE)
    QtMobility::QServiceManagerPrivate::~QServiceManagerPrivate__deallocating() 0x0001405d   Thumb Code    16  QtServiceFramework.in(i._ZN10QtMobility22QServiceManagerPrivateD0Ev)
    QtMobility::QServiceManagerPrivate::~QServiceManagerPrivate() 0x0001406d   Thumb Code    28  QtServiceFramework.in(i._ZN10QtMobility22QServiceManagerPrivateD1Ev)
    QtMobility::QServiceManagerPrivate::~QServiceManagerPrivate__sub_object() 0x0001406d   Thumb Code     0  QtServiceFramework.in(i._ZN10QtMobility22QServiceManagerPrivateD1Ev)
    QtMobility::QServicePackagePrivate::clean() 0x00014097   Thumb Code    96  QtServiceFramework.in(i._ZN10QtMobility22QServicePackagePrivate5cleanEv)
    QtMobility::QServicePackagePrivate::QServicePackagePrivate() 0x00014109   Thumb Code   112  QtServiceFramework.in(i._ZN10QtMobility22QServicePackagePrivateC1Ev)
    QtMobility::QServicePackagePrivate::QServicePackagePrivate__sub_object() 0x00014109   Thumb Code     0  QtServiceFramework.in(i._ZN10QtMobility22QServicePackagePrivateC1Ev)
    QtMobility::QServicePackagePrivate::~QServicePackagePrivate() 0x000141a1   Thumb Code    26  QtServiceFramework.in(i._ZN10QtMobility22QServicePackagePrivateD1Ev)
    QtMobility::QServicePackagePrivate::~QServicePackagePrivate__sub_object() 0x000141a1   Thumb Code     0  QtServiceFramework.in(i._ZN10QtMobility22QServicePackagePrivateD1Ev)
    QtMobility::ServiceIdentDescriptor::ServiceIdentDescriptor(const QtMobility::ServiceIdentDescriptor&) 0x000141cd   Thumb Code    68  QtServiceFramework.in(i._ZN10QtMobility22ServiceIdentDescriptorC1ERKS0_)
    QtMobility::ServiceIdentDescriptor::ServiceIdentDescriptor__sub_object(const QtMobility::ServiceIdentDescriptor&) 0x000141cd   Thumb Code     0  QtServiceFramework.in(i._ZN10QtMobility22ServiceIdentDescriptorC1ERKS0_)
    QtMobility::ServiceIdentDescriptor::ServiceIdentDescriptor() 0x0001421d   Thumb Code    36  QtServiceFramework.in(i._ZN10QtMobility22ServiceIdentDescriptorC1Ev)
    QtMobility::ServiceIdentDescriptor::ServiceIdentDescriptor__sub_object() 0x0001421d   Thumb Code     0  QtServiceFramework.in(i._ZN10QtMobility22ServiceIdentDescriptorC1Ev)
    QtMobility::ServiceIdentDescriptor::~ServiceIdentDescriptor() 0x00014257   Thumb Code    18  QtServiceFramework.in(i._ZN10QtMobility22ServiceIdentDescriptorD1Ev)
    QtMobility::ServiceIdentDescriptor::~ServiceIdentDescriptor__sub_object() 0x00014257   Thumb Code     0  QtServiceFramework.in(i._ZN10QtMobility22ServiceIdentDescriptorD1Ev)
    QtMobility::ServiceMetaDataResults::~ServiceMetaDataResults() 0x00014273   Thumb Code    56  QtServiceFramework.in(i._ZN10QtMobility22ServiceMetaDataResultsD1Ev)
    QtMobility::ServiceMetaDataResults::~ServiceMetaDataResults__sub_object() 0x00014273   Thumb Code     0  QtServiceFramework.in(i._ZN10QtMobility22ServiceMetaDataResultsD1Ev)
    QtMobility::ServiceContextClientData::~ServiceContextClientData__deallocating() 0x000142d9   Thumb Code    16  QtServiceFramework.in(i._ZN10QtMobility24ServiceContextClientDataD0Ev)
    QtMobility::ServiceContextClientData::~ServiceContextClientData() 0x000142e9   Thumb Code    22  QtServiceFramework.in(i._ZN10QtMobility24ServiceContextClientDataD1Ev)
    QtMobility::ServiceContextClientData::~ServiceContextClientData__sub_object() 0x000142e9   Thumb Code     0  QtServiceFramework.in(i._ZN10QtMobility24ServiceContextClientDataD1Ev)
    QtMobility::ServiceSignalIntercepter::activated(const QList<QVariant>&) 0x0001430f   Thumb Code    30  QtServiceFramework.in(i._ZN10QtMobility24ServiceSignalIntercepter9activatedERK5QListI8QVariantE)
    QtMobility::ServiceSignalIntercepter::~ServiceSignalIntercepter__deallocating() 0x0001432d   Thumb Code    16  QtServiceFramework.in(i._ZN10QtMobility24ServiceSignalIntercepterD0Ev)
    QtMobility::ServiceSignalIntercepter::~ServiceSignalIntercepter() 0x0001433d   Thumb Code     8  QtServiceFramework.in(i._ZN10QtMobility24ServiceSignalIntercepterD1Ev)
    QtMobility::ServiceSignalIntercepter::~ServiceSignalIntercepter__sub_object() 0x0001433d   Thumb Code     0  QtServiceFramework.in(i._ZN10QtMobility24ServiceSignalIntercepterD1Ev)
    QtMobility::QRemoteServiceRegisterEntryPrivate::~QRemoteServiceRegisterEntryPrivate() 0x00014345   Thumb Code    32  QtServiceFramework.in(i._ZN10QtMobility34QRemoteServiceRegisterEntryPrivateD1Ev)
    QtMobility::QRemoteServiceRegisterEntryPrivate::~QRemoteServiceRegisterEntryPrivate__sub_object() 0x00014345   Thumb Code     0  QtServiceFramework.in(i._ZN10QtMobility34QRemoteServiceRegisterEntryPrivateD1Ev)
    QtMobility::QServiceInterfaceDescriptorPrivate::QServiceInterfaceDescriptorPrivate() 0x0001437b   Thumb Code    50  QtServiceFramework.in(i._ZN10QtMobility34QServiceInterfaceDescriptorPrivateC1Ev)
    QtMobility::QServiceInterfaceDescriptorPrivate::QServiceInterfaceDescriptorPrivate__sub_object() 0x0001437b   Thumb Code     0  QtServiceFramework.in(i._ZN10QtMobility34QServiceInterfaceDescriptorPrivateC1Ev)
    QtMobility::QServiceInterfaceDescriptorPrivate::~QServiceInterfaceDescriptorPrivate() 0x000143cb   Thumb Code    40  QtServiceFramework.in(i._ZN10QtMobility34QServiceInterfaceDescriptorPrivateD1Ev)
    QtMobility::QServiceInterfaceDescriptorPrivate::~QServiceInterfaceDescriptorPrivate__sub_object() 0x000143cb   Thumb Code     0  QtServiceFramework.in(i._ZN10QtMobility34QServiceInterfaceDescriptorPrivateD1Ev)
    QtMobility::DBError::~DBError()          0x00014411   Thumb Code     8  QtServiceFramework.in(i._ZN10QtMobility7DBErrorD1Ev)
    QtMobility::DBError::~DBError__sub_object() 0x00014411   Thumb Code     0  QtServiceFramework.in(i._ZN10QtMobility7DBErrorD1Ev)
    QDataStream::operator <<(unsigned short) 0x00014419   Thumb Code    12  QtServiceFramework.in(i._ZN11QDataStreamlsEt)
    QStringList::~QStringList()              0x00014425   Thumb Code     8  QtServiceFramework.in(i._ZN11QStringListD1Ev)
    QStringList::~QStringList__sub_object()  0x00014425   Thumb Code     0  QtServiceFramework.in(i._ZN11QStringListD1Ev)
    QMutexLocker::QMutexLocker(QMutex*)      0x0001442d   Thumb Code    28  QtServiceFramework.in(i._ZN12QMutexLockerC1EP6QMutex)
    QMutexLocker::QMutexLocker__sub_object(QMutex*) 0x0001442d   Thumb Code     0  QtServiceFramework.in(i._ZN12QMutexLockerC1EP6QMutex)
    QMutexLocker::~QMutexLocker()            0x00014449   Thumb Code    28  QtServiceFramework.in(i._ZN12QMutexLockerD1Ev)
    QMutexLocker::~QMutexLocker__sub_object() 0x00014449   Thumb Code     0  QtServiceFramework.in(i._ZN12QMutexLockerD1Ev)
    QBasicAtomicInt::ref()                   0x00014465   Thumb Code    18  QtServiceFramework.in(i._ZN15QBasicAtomicInt3refEv)
    QBasicAtomicInt::deref()                 0x00014477   Thumb Code    18  QtServiceFramework.in(i._ZN15QBasicAtomicInt5derefEv)
    QForeachContainer<QList<QByteArray>>::~QForeachContainer() 0x00014489   Thumb Code     8  QtServiceFramework.in(i._ZN17QForeachContainerI5QListI10QByteArrayEED1Ev)
    QForeachContainer<QList<QByteArray>>::~QForeachContainer__sub_object() 0x00014489   Thumb Code     0  QtServiceFramework.in(i._ZN17QForeachContainerI5QListI10QByteArrayEED1Ev)
    QForeachContainer<QList<QtMobility::QRemoteServiceRegister::Entry>>::~QForeachContainer() 0x00014491   Thumb Code     8  QtServiceFramework.in(i._ZN17QForeachContainerI5QListIN10QtMobility22QRemoteServiceRegister5EntryEEED1Ev)
    QForeachContainer<QList<QtMobility::QRemoteServiceRegister::Entry>>::~QForeachContainer__sub_object() 0x00014491   Thumb Code     0  QtServiceFramework.in(i._ZN17QForeachContainerI5QListIN10QtMobility22QRemoteServiceRegister5EntryEEED1Ev)
    QXmlStreamAttributes::~QXmlStreamAttributes() 0x00014499   Thumb Code     8  QtServiceFramework.in(i._ZN20QXmlStreamAttributesD1Ev)
    QXmlStreamAttributes::~QXmlStreamAttributes__sub_object() 0x00014499   Thumb Code     0  QtServiceFramework.in(i._ZN20QXmlStreamAttributesD1Ev)
    QMetaEnumBuilderPrivate::QMetaEnumBuilderPrivate(const QMetaEnumBuilderPrivate&) 0x000144a1   Thumb Code    62  QtServiceFramework.in(i._ZN23QMetaEnumBuilderPrivateC1ERKS_)
    QMetaEnumBuilderPrivate::QMetaEnumBuilderPrivate__sub_object(const QMetaEnumBuilderPrivate&) 0x000144a1   Thumb Code     0  QtServiceFramework.in(i._ZN23QMetaEnumBuilderPrivateC1ERKS_)
    QMetaEnumBuilderPrivate::~QMetaEnumBuilderPrivate() 0x000144f5   Thumb Code    30  QtServiceFramework.in(i._ZN23QMetaEnumBuilderPrivateD1Ev)
    QMetaEnumBuilderPrivate::~QMetaEnumBuilderPrivate__sub_object() 0x000144f5   Thumb Code     0  QtServiceFramework.in(i._ZN23QMetaEnumBuilderPrivateD1Ev)
    QMetaMethodBuilderPrivate::QMetaMethodBuilderPrivate(QMetaMethod::MethodType, const QByteArray&, const QByteArray&, QMetaMethod::Access) 0x00014529   Thumb Code    92  QtServiceFramework.in(i._ZN25QMetaMethodBuilderPrivateC1EN11QMetaMethod10MethodTypeERK10QByteArrayS4_NS0_6AccessE)
    QMetaMethodBuilderPrivate::QMetaMethodBuilderPrivate__sub_object(QMetaMethod::MethodType, const QByteArray&, const QByteArray&, QMetaMethod::Access) 0x00014529   Thumb Code     0  QtServiceFramework.in(i._ZN25QMetaMethodBuilderPrivateC1EN11QMetaMethod10MethodTypeERK10QByteArrayS4_NS0_6AccessE)
    QMetaMethodBuilderPrivate::QMetaMethodBuilderPrivate(const QMetaMethodBuilderPrivate&) 0x000145af   Thumb Code    56  QtServiceFramework.in(i._ZN25QMetaMethodBuilderPrivateC1ERKS_)
    QMetaMethodBuilderPrivate::QMetaMethodBuilderPrivate__sub_object(const QMetaMethodBuilderPrivate&) 0x000145af   Thumb Code     0  QtServiceFramework.in(i._ZN25QMetaMethodBuilderPrivateC1ERKS_)
    QMetaMethodBuilderPrivate::~QMetaMethodBuilderPrivate() 0x00014605   Thumb Code    40  QtServiceFramework.in(i._ZN25QMetaMethodBuilderPrivateD1Ev)
    QMetaMethodBuilderPrivate::~QMetaMethodBuilderPrivate__sub_object() 0x00014605   Thumb Code     0  QtServiceFramework.in(i._ZN25QMetaMethodBuilderPrivateD1Ev)
    QMetaObjectBuilderPrivate::QMetaObjectBuilderPrivate() 0x0001464d   Thumb Code   100  QtServiceFramework.in(i._ZN25QMetaObjectBuilderPrivateC1Ev)
    QMetaObjectBuilderPrivate::QMetaObjectBuilderPrivate__sub_object() 0x0001464d   Thumb Code     0  QtServiceFramework.in(i._ZN25QMetaObjectBuilderPrivateC1Ev)
    QMetaObjectBuilderPrivate::~QMetaObjectBuilderPrivate() 0x00014707   Thumb Code    90  QtServiceFramework.in(i._ZN25QMetaObjectBuilderPrivateD1Ev)
    QMetaObjectBuilderPrivate::~QMetaObjectBuilderPrivate__sub_object() 0x00014707   Thumb Code     0  QtServiceFramework.in(i._ZN25QMetaObjectBuilderPrivateD1Ev)
    QMetaPropertyBuilderPrivate::setFlag(int, bool) 0x000147b3   Thumb Code    18  QtServiceFramework.in(i._ZN27QMetaPropertyBuilderPrivate7setFlagEib)
    QMetaPropertyBuilderPrivate::QMetaPropertyBuilderPrivate(const QMetaPropertyBuilderPrivate&) 0x000147c5   Thumb Code    30  QtServiceFramework.in(i._ZN27QMetaPropertyBuilderPrivateC1ERKS_)
    QMetaPropertyBuilderPrivate::QMetaPropertyBuilderPrivate__sub_object(const QMetaPropertyBuilderPrivate&) 0x000147c5   Thumb Code     0  QtServiceFramework.in(i._ZN27QMetaPropertyBuilderPrivateC1ERKS_)
    QMetaPropertyBuilderPrivate::~QMetaPropertyBuilderPrivate() 0x000147ed   Thumb Code    18  QtServiceFramework.in(i._ZN27QMetaPropertyBuilderPrivateD1Ev)
    QMetaPropertyBuilderPrivate::~QMetaPropertyBuilderPrivate__sub_object() 0x000147ed   Thumb Code     0  QtServiceFramework.in(i._ZN27QMetaPropertyBuilderPrivateD1Ev)
    QSet<QString>::~QSet()                   0x00014809   Thumb Code     8  QtServiceFramework.in(i._ZN4QSetI7QStringED1Ev)
    QSet<QString>::~QSet__sub_object()       0x00014809   Thumb Code     0  QtServiceFramework.in(i._ZN4QSetI7QStringED1Ev)
    CBase::operator new(unsigned)            0x00014811   Thumb Code     8  QtServiceFramework.in(i._ZN5CBasenwEj)
    QUuid::QUuid(const QUuid&)               0x00014819   Thumb Code    30  QtServiceFramework.in(i._ZN5QUuidC1ERKS_)
    QUuid::QUuid__sub_object(const QUuid&)   0x00014819   Thumb Code     0  QtServiceFramework.in(i._ZN5QUuidC1ERKS_)
    QUuid::QUuid()                           0x00014837   Thumb Code    22  QtServiceFramework.in(i._ZN5QUuidC1Ev)
    QUuid::QUuid__sub_object()               0x00014837   Thumb Code     0  QtServiceFramework.in(i._ZN5QUuidC1Ev)
    QDebug::maybeSpace()                     0x0001484d   Thumb Code    22  QtServiceFramework.in(i._ZN6QDebug10maybeSpaceEv)
    QDebug::space()                          0x00014863   Thumb Code    22  QtServiceFramework.in(i._ZN6QDebug5spaceEv)
    QDebug::QDebug(QtMsgType)                0x00014879   Thumb Code    62  QtServiceFramework.in(i._ZN6QDebugC1E9QtMsgType)
    QDebug::QDebug__sub_object(QtMsgType)    0x00014879   Thumb Code     0  QtServiceFramework.in(i._ZN6QDebugC1E9QtMsgType)
    QDebug::QDebug(const QDebug&)            0x000148c9   Thumb Code    12  QtServiceFramework.in(i._ZN6QDebugC1ERKS_)
    QDebug::QDebug__sub_object(const QDebug&) 0x000148c9   Thumb Code     0  QtServiceFramework.in(i._ZN6QDebugC1ERKS_)
    QDebug::~QDebug()                        0x000148d5   Thumb Code   122  QtServiceFramework.in(i._ZN6QDebugD1Ev)
    QDebug::~QDebug__sub_object()            0x000148d5   Thumb Code     0  QtServiceFramework.in(i._ZN6QDebugD1Ev)
    QDebug::operator <<(const char*)         0x00014963   Thumb Code    36  QtServiceFramework.in(i._ZN6QDebuglsEPKc)
    QDebug::operator <<(const QString&)      0x00014991   Thumb Code    34  QtServiceFramework.in(i._ZN6QDebuglsERK7QString)
    QString::clear()                         0x000149b3   Thumb Code    34  QtServiceFramework.in(i._ZN7QString5clearEv)
    QString::QString(const char*)            0x000149df   Thumb Code    20  QtServiceFramework.in(i._ZN7QStringC1EPKc)
    QString::QString__sub_object(const char*) 0x000149df   Thumb Code     0  QtServiceFramework.in(i._ZN7QStringC1EPKc)
    QString::QString(const QString&)         0x000149f3   Thumb Code    16  QtServiceFramework.in(i._ZN7QStringC1ERKS_)
    QString::QString__sub_object(const QString&) 0x000149f3   Thumb Code     0  QtServiceFramework.in(i._ZN7QStringC1ERKS_)
    QString::QString()                       0x00014a05   Thumb Code    16  QtServiceFramework.in(i._ZN7QStringC1Ev)
    QString::QString__sub_object()           0x00014a05   Thumb Code     0  QtServiceFramework.in(i._ZN7QStringC1Ev)
    QString::~QString()                      0x00014a19   Thumb Code    24  QtServiceFramework.in(i._ZN7QStringD1Ev)
    QString::~QString__sub_object()          0x00014a19   Thumb Code     0  QtServiceFramework.in(i._ZN7QStringD1Ev)
    QString::operator =(const char*)         0x00014a31   Thumb Code    34  QtServiceFramework.in(i._ZN7QStringaSEPKc)
    QVariant::QVariant()                     0x00014a5d   Thumb Code    24  QtServiceFramework.in(i._ZN8QVariantC1Ev)
    QVariant::QVariant__sub_object()         0x00014a5d   Thumb Code     0  QtServiceFramework.in(i._ZN8QVariantC1Ev)
    TIpcArgs::Set(int, TDes8*)               0x00014a75   Thumb Code    20  QtServiceFramework.in(i._ZN8TIpcArgs3SetEiP5TDes8)
    QHashData::willGrow()                    0x00014a89   Thumb Code    28  QtServiceFramework.in(i._ZN9QHashData8willGrowEv)
    QHashData::firstNode()                   0x00014aa5   Thumb Code    24  QtServiceFramework.in(i._ZN9QHashData9firstNodeEv)
    QHashData::hasShrunk()                   0x00014abd   Thumb Code    60  QtServiceFramework.in(i._ZN9QHashData9hasShrunkEv)
    RSessionBase::SendReceive(int, const TIpcArgs&) const 0x00014af9   Thumb Code     8  QtServiceFramework.in(i._ZNK12RSessionBase11SendReceiveEiRK8TIpcArgs)
    QLatin1String::operator ==(const char*) const 0x00014b01   Thumb Code    34  QtServiceFramework.in(i._ZNK13QLatin1StringeqEPKc)
    QBasicAtomicInt::operator ==(int) const  0x00014b2d   Thumb Code    14  QtServiceFramework.in(i._ZNK15QBasicAtomicInteqEi)
    QBasicAtomicInt::operator !=(int) const  0x00014b3b   Thumb Code    14  QtServiceFramework.in(i._ZNK15QBasicAtomicIntneEi)
    QXmlStreamReader::isEndElement() const   0x00014b49   Thumb Code    18  QtServiceFramework.in(i._ZNK16QXmlStreamReader12isEndElementEv)
    QXmlStreamReader::isStartElement() const 0x00014b5b   Thumb Code    18  QtServiceFramework.in(i._ZNK16QXmlStreamReader14isStartElementEv)
    QXmlStreamAttributes::hasAttribute(const QString&) const 0x00014b6d   Thumb Code    40  QtServiceFramework.in(i._ZNK20QXmlStreamAttributes12hasAttributeERK7QString)
    QMetaMethodBuilderPrivate::methodType() const 0x00014b9f   Thumb Code     8  QtServiceFramework.in(i._ZNK25QMetaMethodBuilderPrivate10methodTypeEv)
    QMetaPropertyBuilderPrivate::flag(int) const 0x00014ba7   Thumb Code    14  QtServiceFramework.in(i._ZNK27QMetaPropertyBuilderPrivate4flagEi)
    QObject::connect(const QObject*, const char*, const char*, Qt::ConnectionType) const 0x00014bb5   Thumb Code    20  QtServiceFramework.in(i._ZNK7QObject7connectEPKS_PKcS3_N2Qt14ConnectionTypeE)
    QString::arg(int, int, int, const QChar&) const 0x00014bc9   Thumb Code    30  QtServiceFramework.in(i._ZNK7QString3argEiiiRK5QChar)
    QString::isNull() const                  0x00014be9   Thumb Code    16  QtServiceFramework.in(i._ZNK7QString6isNullEv)
    QString::isEmpty() const                 0x00014bfd   Thumb Code    16  QtServiceFramework.in(i._ZNK7QString7isEmptyEv)
    QListData::at(int) const                 0x00014c0d   Thumb Code    16  QtServiceFramework.in(i._ZNK9QListData2atEi)
    QListData::end() const                   0x00014c1d   Thumb Code    12  QtServiceFramework.in(i._ZNK9QListData3endEv)
    QListData::size() const                  0x00014c29   Thumb Code    10  QtServiceFramework.in(i._ZNK9QListData4sizeEv)
    QListData::begin() const                 0x00014c33   Thumb Code    12  QtServiceFramework.in(i._ZNK9QListData5beginEv)
    QListData::isEmpty() const               0x00014c3f   Thumb Code    18  QtServiceFramework.in(i._ZNK9QListData7isEmptyEv)
    operator delete (void*, void*)           0x00014c51   Thumb Code     2  QtServiceFramework.in(i._ZdlPvS_)
    operator ==(const QByteArray&, const char*) 0x00014c53   Thumb Code    38  QtServiceFramework.in(i._ZeqRK10QByteArrayPKc)
    operator ==(const QByteArray&, const QByteArray&) 0x00014c79   Thumb Code    34  QtServiceFramework.in(i._ZeqRK10QByteArrayS1_)
    operator ==(const QStringRef&, const char*) 0x00014c9b   Thumb Code     8  QtServiceFramework.in(i._ZeqRK10QStringRefPKc)
    operator !=(const QStringRef&, const char*) 0x00014ca3   Thumb Code    12  QtServiceFramework.in(i._ZneRK10QStringRefPKc)
    operator new(unsigned, void*)            0x00014caf   Thumb Code     4  QtServiceFramework.in(i._ZnwjPv)
    operator +(const QString&, QChar)        0x00014cb3   Thumb Code   104  QtServiceFramework.in(i._ZplRK7QString5QChar)
    operator +(const QString&, const QString&) 0x00014d25   Thumb Code    36  QtServiceFramework.in(i._ZplRK7QStringS1_)
    qobject_cast<QtMobility::QServicePluginInterface*>(QObject*) 0x00014d55   Thumb Code    22  QtServiceFramework.in(t._Z12qobject_castIPN10QtMobility23QServicePluginInterfaceEET_P7QObject)
    qMapLessThanKey<QByteArray>(const T1&, const T1&) 0x00014d71   Thumb Code    10  QtServiceFramework.in(t._Z15qMapLessThanKeyI10QByteArrayEbRKT_S3_)
    qMetaTypeDeleteHelper<QtMobility::QService::UnrecoverableIPCError>(T1*) 0x00014d7b   Thumb Code     8  QtServiceFramework.in(t._Z21qMetaTypeDeleteHelperIN10QtMobility8QService21UnrecoverableIPCErrorEEvPT_)
    qMetaTypeConstructHelper<QtMobility::QService::UnrecoverableIPCError>(const T1*) 0x00014d83   Thumb Code    34  QtServiceFramework.in(t._Z24qMetaTypeConstructHelperIN10QtMobility8QService21UnrecoverableIPCErrorEEPvPKT_)
    TAlignedBuf8<(int)4>::TAlignedBuf8(int)  0x00014da5   Thumb Code    10  QtServiceFramework.in(t._ZN12TAlignedBuf8ILi4EEC1Ei)
    TAlignedBuf8<(int)4>::TAlignedBuf8__sub_object(int) 0x00014da5   Thumb Code     0  QtServiceFramework.in(t._ZN12TAlignedBuf8ILi4EEC1Ei)
    QHashDummyNode<QString, QHashDummyValue>::QHashDummyNode(const QString&) 0x00014daf   Thumb Code    12  QtServiceFramework.in(t._ZN14QHashDummyNodeI7QString15QHashDummyValueEC1ERKS0_)
    QHashDummyNode<QString, QHashDummyValue>::QHashDummyNode__sub_object(const QString&) 0x00014daf   Thumb Code     0  QtServiceFramework.in(t._ZN14QHashDummyNodeI7QString15QHashDummyValueEC1ERKS0_)
    QVarLengthArray<void*, (int)32>::~QVarLengthArray() 0x00014dbb   Thumb Code    22  QtServiceFramework.in(t._ZN15QVarLengthArrayIPvLi32EED1Ev)
    QVarLengthArray<void*, (int)32>::~QVarLengthArray__sub_object() 0x00014dbb   Thumb Code     0  QtServiceFramework.in(t._ZN15QVarLengthArrayIPvLi32EED1Ev)
    QGlobalStaticDeleter<QHash<QUuid, QtMobility::Response*>>::~QGlobalStaticDeleter() 0x00014dd1   Thumb Code    36  QtServiceFramework.in(t._ZN20QGlobalStaticDeleterI5QHashI5QUuidPN10QtMobility8ResponseEEED1Ev)
    QGlobalStaticDeleter<QHash<QUuid, QtMobility::Response*>>::~QGlobalStaticDeleter__sub_object() 0x00014dd1   Thumb Code     0  QtServiceFramework.in(t._ZN20QGlobalStaticDeleterI5QHashI5QUuidPN10QtMobility8ResponseEEED1Ev)
    QGlobalStaticDeleter<QtMobility::InstanceManager>::~QGlobalStaticDeleter() 0x00014df5   Thumb Code    34  QtServiceFramework.in(t._ZN20QGlobalStaticDeleterIN10QtMobility15InstanceManagerEED1Ev)
    QGlobalStaticDeleter<QtMobility::InstanceManager>::~QGlobalStaticDeleter__sub_object() 0x00014df5   Thumb Code     0  QtServiceFramework.in(t._ZN20QGlobalStaticDeleterIN10QtMobility15InstanceManagerEED1Ev)
    QExplicitlySharedDataPointer<QtMobility::QServicePackagePrivate>::clone() 0x00014e19   Thumb Code    90  QtServiceFramework.in(t._ZN28QExplicitlySharedDataPointerIN10QtMobility22QServicePackagePrivateEE5cloneEv)
    QExplicitlySharedDataPointer<QtMobility::QServicePackagePrivate>::~QExplicitlySharedDataPointer() 0x00014e8d   Thumb Code    38  QtServiceFramework.in(t._ZN28QExplicitlySharedDataPointerIN10QtMobility22QServicePackagePrivateEED1Ev)
    QExplicitlySharedDataPointer<QtMobility::QServicePackagePrivate>::~QExplicitlySharedDataPointer__sub_object() 0x00014e8d   Thumb Code     0  QtServiceFramework.in(t._ZN28QExplicitlySharedDataPointerIN10QtMobility22QServicePackagePrivateEED1Ev)
    QExplicitlySharedDataPointer<QtMobility::QServicePackagePrivate>::operator =(QtMobility::QServicePackagePrivate*) 0x00014eb3   Thumb Code    54  QtServiceFramework.in(t._ZN28QExplicitlySharedDataPointerIN10QtMobility22QServicePackagePrivateEEaSEPS1_)
    QExplicitlySharedDataPointer<QtMobility::QRemoteServiceRegisterEntryPrivate>::~QExplicitlySharedDataPointer() 0x00014ee9   Thumb Code    36  QtServiceFramework.in(t._ZN28QExplicitlySharedDataPointerIN10QtMobility34QRemoteServiceRegisterEntryPrivateEED1Ev)
    QExplicitlySharedDataPointer<QtMobility::QRemoteServiceRegisterEntryPrivate>::~QExplicitlySharedDataPointer__sub_object() 0x00014ee9   Thumb Code     0  QtServiceFramework.in(t._ZN28QExplicitlySharedDataPointerIN10QtMobility34QRemoteServiceRegisterEntryPrivateEED1Ev)
    QExplicitlySharedDataPointer<QtMobility::QRemoteServiceRegisterEntryPrivate>::operator =(const QExplicitlySharedDataPointer<QtMobility::QRemoteServiceRegisterEntryPrivate>&) 0x00014f0d   Thumb Code    56  QtServiceFramework.in(t._ZN28QExplicitlySharedDataPointerIN10QtMobility34QRemoteServiceRegisterEntryPrivateEEaSERKS2_)
    QMap<QByteArray, const QMetaObject*>::~QMap() 0x00014f45   Thumb Code    52  QtServiceFramework.in(t._ZN4QMapI10QByteArrayPK11QMetaObjectED1Ev)
    QMap<QByteArray, const QMetaObject*>::~QMap__sub_object() 0x00014f45   Thumb Code     0  QtServiceFramework.in(t._ZN4QMapI10QByteArrayPK11QMetaObjectED1Ev)
    QSet<QString>::QSet()                    0x00014f79   Thumb Code     8  QtServiceFramework.in(t._ZN4QSetI7QStringEC1Ev)
    QSet<QString>::QSet__sub_object()        0x00014f79   Thumb Code     0  QtServiceFramework.in(t._ZN4QSetI7QStringEC1Ev)
    QHash<QUuid, QObject*>::deleteNode2(QHashData::Node*) 0x00014f81   Thumb Code     2  QtServiceFramework.in(t._ZN5QHashI5QUuidP7QObjectE11deleteNode2EPN9QHashData4NodeE)
    QHash<QUuid, QObject*>::detach_helper()  0x00014f85   Thumb Code    46  QtServiceFramework.in(t._ZN5QHashI5QUuidP7QObjectE13detach_helperEv)
    QHash<QUuid, QObject*>::duplicateNode(QHashData::Node*, void*) 0x00014fbd   Thumb Code    32  QtServiceFramework.in(t._ZN5QHashI5QUuidP7QObjectE13duplicateNodeEPN9QHashData4NodeEPv)
    QHash<QUuid, QObject*>::take(const QUuid&) 0x00014fe9   Thumb Code    72  QtServiceFramework.in(t._ZN5QHashI5QUuidP7QObjectE4takeERKS0_)
    QHash<QUuid, QObject*>::detach()         0x00015031   Thumb Code    26  QtServiceFramework.in(t._ZN5QHashI5QUuidP7QObjectE6detachEv)
    QHash<QUuid, QObject*>::insert(const QUuid&, QObject*const &) 0x0001504b   Thumb Code   118  QtServiceFramework.in(t._ZN5QHashI5QUuidP7QObjectE6insertERKS0_RKS2_)
    QHash<QUuid, QObject*>::freeData(QHashData*) 0x000150cd   Thumb Code    12  QtServiceFramework.in(t._ZN5QHashI5QUuidP7QObjectE8freeDataEP9QHashData)
    QHash<QUuid, QObject*>::~QHash()         0x000150dd   Thumb Code    28  QtServiceFramework.in(t._ZN5QHashI5QUuidP7QObjectED1Ev)
    QHash<QUuid, QObject*>::~QHash__sub_object() 0x000150dd   Thumb Code     0  QtServiceFramework.in(t._ZN5QHashI5QUuidP7QObjectED1Ev)
    QHash<QUuid, QtMobility::Response*>::deleteNode2(QHashData::Node*) 0x000150f9   Thumb Code     2  QtServiceFramework.in(t._ZN5QHashI5QUuidPN10QtMobility8ResponseEE11deleteNode2EPN9QHashData4NodeE)
    QHash<QUuid, QtMobility::Response*>::duplicateNode(QHashData::Node*, void*) 0x000150fb   Thumb Code    32  QtServiceFramework.in(t._ZN5QHashI5QUuidPN10QtMobility8ResponseEE13duplicateNodeEPN9QHashData4NodeEPv)
    QHash<QUuid, QtMobility::Response*>::take(const QUuid&) 0x00015127   Thumb Code   130  QtServiceFramework.in(t._ZN5QHashI5QUuidPN10QtMobility8ResponseEE4takeERKS0_)
    QHash<QUuid, QtMobility::Response*>::detach() 0x000151a9   Thumb Code    60  QtServiceFramework.in(t._ZN5QHashI5QUuidPN10QtMobility8ResponseEE6detachEv)
    QHash<QUuid, QtMobility::Response*>::insert(const QUuid&, QtMobility::Response*const &) 0x000151ed   Thumb Code   128  QtServiceFramework.in(t._ZN5QHashI5QUuidPN10QtMobility8ResponseEE6insertERKS0_RKS3_)
    QHash<QUuid, QtMobility::Response*>::freeData(QHashData*) 0x00015279   Thumb Code    12  QtServiceFramework.in(t._ZN5QHashI5QUuidPN10QtMobility8ResponseEE8freeDataEP9QHashData)
    QHash<QUuid, QtMobility::Response*>::~QHash() 0x00015289   Thumb Code    28  QtServiceFramework.in(t._ZN5QHashI5QUuidPN10QtMobility8ResponseEED1Ev)
    QHash<QUuid, QtMobility::Response*>::~QHash__sub_object() 0x00015289   Thumb Code     0  QtServiceFramework.in(t._ZN5QHashI5QUuidPN10QtMobility8ResponseEED1Ev)
    QHash<QString, QHashDummyValue>::deleteNode2(QHashData::Node*) 0x000152a5   Thumb Code    10  QtServiceFramework.in(t._ZN5QHashI7QString15QHashDummyValueE11deleteNode2EPN9QHashData4NodeE)
    QHash<QString, QHashDummyValue>::detach_helper() 0x000152b1   Thumb Code    46  QtServiceFramework.in(t._ZN5QHashI7QString15QHashDummyValueE13detach_helperEv)
    QHash<QString, QHashDummyValue>::duplicateNode(QHashData::Node*, void*) 0x000152e9   Thumb Code    28  QtServiceFramework.in(t._ZN5QHashI7QString15QHashDummyValueE13duplicateNodeEPN9QHashData4NodeEPv)
    QHash<QString, QHashDummyValue>::insert(const QString&, const QHashDummyValue&) 0x00015311   Thumb Code   126  QtServiceFramework.in(t._ZN5QHashI7QString15QHashDummyValueE6insertERKS0_RKS1_)
    QHash<QString, QHashDummyValue>::freeData(QHashData*) 0x0001539d   Thumb Code    12  QtServiceFramework.in(t._ZN5QHashI7QString15QHashDummyValueE8freeDataEP9QHashData)
    QHash<QString, QHashDummyValue>::QHash() 0x000153ad   Thumb Code    18  QtServiceFramework.in(t._ZN5QHashI7QString15QHashDummyValueEC1Ev)
    QHash<QString, QHashDummyValue>::QHash__sub_object() 0x000153ad   Thumb Code     0  QtServiceFramework.in(t._ZN5QHashI7QString15QHashDummyValueEC1Ev)
    QHash<QString, QHashDummyValue>::~QHash() 0x000153c5   Thumb Code    28  QtServiceFramework.in(t._ZN5QHashI7QString15QHashDummyValueED1Ev)
    QHash<QString, QHashDummyValue>::~QHash__sub_object() 0x000153c5   Thumb Code     0  QtServiceFramework.in(t._ZN5QHashI7QString15QHashDummyValueED1Ev)
    QHash<QString, QVariant>::deleteNode2(QHashData::Node*) 0x000153e1   Thumb Code    18  QtServiceFramework.in(t._ZN5QHashI7QString8QVariantE11deleteNode2EPN9QHashData4NodeE)
    QHash<QString, QVariant>::detach_helper() 0x00015401   Thumb Code    46  QtServiceFramework.in(t._ZN5QHashI7QString8QVariantE13detach_helperEv)
    QHash<QString, QVariant>::duplicateNode(QHashData::Node*, void*) 0x00015439   Thumb Code    32  QtServiceFramework.in(t._ZN5QHashI7QString8QVariantE13duplicateNodeEPN9QHashData4NodeEPv)
    QHash<QString, QVariant>::freeData(QHashData*) 0x00015465   Thumb Code    12  QtServiceFramework.in(t._ZN5QHashI7QString8QVariantE8freeDataEP9QHashData)
    QHash<QString, QVariant>::QHash()        0x00015475   Thumb Code    18  QtServiceFramework.in(t._ZN5QHashI7QString8QVariantEC1Ev)
    QHash<QString, QVariant>::QHash__sub_object() 0x00015475   Thumb Code     0  QtServiceFramework.in(t._ZN5QHashI7QString8QVariantEC1Ev)
    QHash<QString, QVariant>::~QHash()       0x0001548d   Thumb Code    28  QtServiceFramework.in(t._ZN5QHashI7QString8QVariantED1Ev)
    QHash<QString, QVariant>::~QHash__sub_object() 0x0001548d   Thumb Code     0  QtServiceFramework.in(t._ZN5QHashI7QString8QVariantED1Ev)
    QHash<QString, QVariant>::operator [](const QString&) 0x000154a9   Thumb Code   154  QtServiceFramework.in(t._ZN5QHashI7QString8QVariantEixERKS0_)
    QHash<QString, QString>::createNode(unsigned, const QString&, const QString&, QHashNode<QString, QString>**) 0x00015557   Thumb Code    66  QtServiceFramework.in(t._ZN5QHashI7QStringS0_E10createNodeEjRKS0_S3_PP9QHashNodeIS0_S0_E)
    QHash<QString, QString>::deleteNode2(QHashData::Node*) 0x000155a5   Thumb Code    18  QtServiceFramework.in(t._ZN5QHashI7QStringS0_E11deleteNode2EPN9QHashData4NodeE)
    QHash<QString, QString>::detach_helper() 0x000155c5   Thumb Code    46  QtServiceFramework.in(t._ZN5QHashI7QStringS0_E13detach_helperEv)
    QHash<QString, QString>::duplicateNode(QHashData::Node*, void*) 0x000155fd   Thumb Code    30  QtServiceFramework.in(t._ZN5QHashI7QStringS0_E13duplicateNodeEPN9QHashData4NodeEPv)
    QHash<QString, QString>::clear()         0x00015627   Thumb Code    26  QtServiceFramework.in(t._ZN5QHashI7QStringS0_E5clearEv)
    QHash<QString, QString>::detach()        0x0001564b   Thumb Code    26  QtServiceFramework.in(t._ZN5QHashI7QStringS0_E6detachEv)
    QHash<QString, QString>::remove(const QString&) 0x00015665   Thumb Code   184  QtServiceFramework.in(t._ZN5QHashI7QStringS0_E6removeERKS0_)
    QHash<QString, QString>::freeData(QHashData*) 0x0001571d   Thumb Code    12  QtServiceFramework.in(t._ZN5QHashI7QStringS0_E8freeDataEP9QHashData)
    QHash<QString, QString>::QHash()         0x0001572d   Thumb Code    18  QtServiceFramework.in(t._ZN5QHashI7QStringS0_EC1Ev)
    QHash<QString, QString>::QHash__sub_object() 0x0001572d   Thumb Code     0  QtServiceFramework.in(t._ZN5QHashI7QStringS0_EC1Ev)
    QHash<QString, QString>::~QHash()        0x00015745   Thumb Code    28  QtServiceFramework.in(t._ZN5QHashI7QStringS0_ED1Ev)
    QHash<QString, QString>::~QHash__sub_object() 0x00015745   Thumb Code     0  QtServiceFramework.in(t._ZN5QHashI7QStringS0_ED1Ev)
    QHash<QString, QString>::operator =(const QHash<QString, QString>&) 0x00015761   Thumb Code    58  QtServiceFramework.in(t._ZN5QHashI7QStringS0_EaSERKS1_)
    QHash<QString, QString>::operator [](const QString&) 0x0001579d   Thumb Code   184  QtServiceFramework.in(t._ZN5QHashI7QStringS0_EixERKS0_)
    QHash<QString, int>::deleteNode2(QHashData::Node*) 0x00015871   Thumb Code    10  QtServiceFramework.in(t._ZN5QHashI7QStringiE11deleteNode2EPN9QHashData4NodeE)
    QHash<QString, int>::detach_helper()     0x0001587d   Thumb Code    46  QtServiceFramework.in(t._ZN5QHashI7QStringiE13detach_helperEv)
    QHash<QString, int>::duplicateNode(QHashData::Node*, void*) 0x000158b5   Thumb Code    30  QtServiceFramework.in(t._ZN5QHashI7QStringiE13duplicateNodeEPN9QHashData4NodeEPv)
    QHash<QString, int>::freeData(QHashData*) 0x000158e1   Thumb Code    12  QtServiceFramework.in(t._ZN5QHashI7QStringiE8freeDataEP9QHashData)
    QHash<QString, int>::QHash()             0x000158f1   Thumb Code    18  QtServiceFramework.in(t._ZN5QHashI7QStringiEC1Ev)
    QHash<QString, int>::QHash__sub_object() 0x000158f1   Thumb Code     0  QtServiceFramework.in(t._ZN5QHashI7QStringiEC1Ev)
    QHash<QString, int>::~QHash()            0x00015909   Thumb Code    28  QtServiceFramework.in(t._ZN5QHashI7QStringiED1Ev)
    QHash<QString, int>::~QHash__sub_object() 0x00015909   Thumb Code     0  QtServiceFramework.in(t._ZN5QHashI7QStringiED1Ev)
    QHash<QString, int>::operator [](const QString&) 0x00015925   Thumb Code   130  QtServiceFramework.in(t._ZN5QHashI7QStringiEixERKS0_)
    QHash<QtMobility::QRemoteServiceRegister::Entry, QtMobility::ServiceIdentDescriptor>::createNode(unsigned, const QtMobility::QRemoteServiceRegister::Entry&, const QtMobility::ServiceIdentDescriptor&, QHashNode<QtMobility::QRemoteServiceRegister::Entry, QtMobility::ServiceIdentDescriptor>**) 0x000159b3   Thumb Code    66  QtServiceFramework.in(t._ZN5QHashIN10QtMobility22QRemoteServiceRegister5EntryENS0_22ServiceIdentDescriptorEE10createNodeEjRKS2_RKS3_PP9QHashNodeIS2_S3_E)
    QHash<QtMobility::QRemoteServiceRegister::Entry, QtMobility::ServiceIdentDescriptor>::deleteNode2(QHashData::Node*) 0x00015a01   Thumb Code    18  QtServiceFramework.in(t._ZN5QHashIN10QtMobility22QRemoteServiceRegister5EntryENS0_22ServiceIdentDescriptorEE11deleteNode2EPN9QHashData4NodeE)
    QHash<QtMobility::QRemoteServiceRegister::Entry, QtMobility::ServiceIdentDescriptor>::duplicateNode(QHashData::Node*, void*) 0x00015a1f   Thumb Code    30  QtServiceFramework.in(t._ZN5QHashIN10QtMobility22QRemoteServiceRegister5EntryENS0_22ServiceIdentDescriptorEE13duplicateNodeEPN9QHashData4NodeEPv)
    QHash<QtMobility::QRemoteServiceRegister::Entry, QtMobility::ServiceIdentDescriptor>::take(const QtMobility::QRemoteServiceRegister::Entry&) 0x00015a49   Thumb Code   114  QtServiceFramework.in(t._ZN5QHashIN10QtMobility22QRemoteServiceRegister5EntryENS0_22ServiceIdentDescriptorEE4takeERKS2_)
    QHash<QtMobility::QRemoteServiceRegister::Entry, QtMobility::ServiceIdentDescriptor>::detach() 0x00015ac5   Thumb Code    60  QtServiceFramework.in(t._ZN5QHashIN10QtMobility22QRemoteServiceRegister5EntryENS0_22ServiceIdentDescriptorEE6detachEv)
    QHash<QtMobility::QRemoteServiceRegister::Entry, QtMobility::ServiceIdentDescriptor>::insert(const QtMobility::QRemoteServiceRegister::Entry&, const QtMobility::ServiceIdentDescriptor&) 0x00015b09   Thumb Code   158  QtServiceFramework.in(t._ZN5QHashIN10QtMobility22QRemoteServiceRegister5EntryENS0_22ServiceIdentDescriptorEE6insertERKS2_RKS3_)
    QHash<QtMobility::QRemoteServiceRegister::Entry, QtMobility::ServiceIdentDescriptor>::freeData(QHashData*) 0x00015ba9   Thumb Code    12  QtServiceFramework.in(t._ZN5QHashIN10QtMobility22QRemoteServiceRegister5EntryENS0_22ServiceIdentDescriptorEE8freeDataEP9QHashData)
    QHash<QtMobility::QRemoteServiceRegister::Entry, QtMobility::ServiceIdentDescriptor>::~QHash() 0x00015bb9   Thumb Code    28  QtServiceFramework.in(t._ZN5QHashIN10QtMobility22QRemoteServiceRegister5EntryENS0_22ServiceIdentDescriptorEED1Ev)
    QHash<QtMobility::QRemoteServiceRegister::Entry, QtMobility::ServiceIdentDescriptor>::~QHash__sub_object() 0x00015bb9   Thumb Code     0  QtServiceFramework.in(t._ZN5QHashIN10QtMobility22QRemoteServiceRegister5EntryENS0_22ServiceIdentDescriptorEED1Ev)
    QHash<QtMobility::QRemoteServiceRegister::Entry, QtMobility::ServiceIdentDescriptor>::operator [](const QtMobility::QRemoteServiceRegister::Entry&) 0x00015bd5   Thumb Code    94  QtServiceFramework.in(t._ZN5QHashIN10QtMobility22QRemoteServiceRegister5EntryENS0_22ServiceIdentDescriptorEEixERKS2_)
    QHash<QtMobility::QServiceInterfaceDescriptor::Attribute, QVariant>::deleteNode2(QHashData::Node*) 0x00015c3d   Thumb Code    10  QtServiceFramework.in(t._ZN5QHashIN10QtMobility27QServiceInterfaceDescriptor9AttributeE8QVariantE11deleteNode2EPN9QHashData4NodeE)
    QHash<QtMobility::QServiceInterfaceDescriptor::Attribute, QVariant>::detach_helper() 0x00015c49   Thumb Code    46  QtServiceFramework.in(t._ZN5QHashIN10QtMobility27QServiceInterfaceDescriptor9AttributeE8QVariantE13detach_helperEv)
    QHash<QtMobility::QServiceInterfaceDescriptor::Attribute, QVariant>::duplicateNode(QHashData::Node*, void*) 0x00015c81   Thumb Code    32  QtServiceFramework.in(t._ZN5QHashIN10QtMobility27QServiceInterfaceDescriptor9AttributeE8QVariantE13duplicateNodeEPN9QHashData4NodeEPv)
    QHash<QtMobility::QServiceInterfaceDescriptor::Attribute, QVariant>::clear() 0x00015cad   Thumb Code    26  QtServiceFramework.in(t._ZN5QHashIN10QtMobility27QServiceInterfaceDescriptor9AttributeE8QVariantE5clearEv)
    QHash<QtMobility::QServiceInterfaceDescriptor::Attribute, QVariant>::freeData(QHashData*) 0x00015cd1   Thumb Code    12  QtServiceFramework.in(t._ZN5QHashIN10QtMobility27QServiceInterfaceDescriptor9AttributeE8QVariantE8freeDataEP9QHashData)
    QHash<QtMobility::QServiceInterfaceDescriptor::Attribute, QVariant>::QHash() 0x00015ce1   Thumb Code    18  QtServiceFramework.in(t._ZN5QHashIN10QtMobility27QServiceInterfaceDescriptor9AttributeE8QVariantEC1Ev)
    QHash<QtMobility::QServiceInterfaceDescriptor::Attribute, QVariant>::QHash__sub_object() 0x00015ce1   Thumb Code     0  QtServiceFramework.in(t._ZN5QHashIN10QtMobility27QServiceInterfaceDescriptor9AttributeE8QVariantEC1Ev)
    QHash<QtMobility::QServiceInterfaceDescriptor::Attribute, QVariant>::~QHash() 0x00015cf9   Thumb Code    28  QtServiceFramework.in(t._ZN5QHashIN10QtMobility27QServiceInterfaceDescriptor9AttributeE8QVariantED1Ev)
    QHash<QtMobility::QServiceInterfaceDescriptor::Attribute, QVariant>::~QHash__sub_object() 0x00015cf9   Thumb Code     0  QtServiceFramework.in(t._ZN5QHashIN10QtMobility27QServiceInterfaceDescriptor9AttributeE8QVariantED1Ev)
    QHash<QtMobility::QServiceInterfaceDescriptor::Attribute, QVariant>::operator =(const QHash<QtMobility::QServiceInterfaceDescriptor::Attribute, QVariant>&) 0x00015d15   Thumb Code    58  QtServiceFramework.in(t._ZN5QHashIN10QtMobility27QServiceInterfaceDescriptor9AttributeE8QVariantEaSERKS4_)
    QHash<QtMobility::QServiceInterfaceDescriptor::Attribute, QVariant>::operator [](const QtMobility::QServiceInterfaceDescriptor::Attribute&) 0x00015d51   Thumb Code   206  QtServiceFramework.in(t._ZN5QHashIN10QtMobility27QServiceInterfaceDescriptor9AttributeE8QVariantEixERKS2_)
    QList<QByteArray>::detach_helper(int)    0x00015e3d   Thumb Code    86  QtServiceFramework.in(t._ZN5QListI10QByteArrayE13detach_helperEi)
    QList<QByteArray>::detach_helper()       0x00015e9b   Thumb Code    12  QtServiceFramework.in(t._ZN5QListI10QByteArrayE13detach_helperEv)
    QList<QByteArray>::node_construct(QList<QByteArray>::Node*, const QByteArray&) 0x00015ea7   Thumb Code    26  QtServiceFramework.in(t._ZN5QListI10QByteArrayE14node_constructEPNS1_4NodeERKS0_)
    QList<QByteArray>::detach_helper_grow(int, int) 0x00015ecd   Thumb Code   186  QtServiceFramework.in(t._ZN5QListI10QByteArrayE18detach_helper_growEii)
    QList<QByteArray>::free(QListData::Data*) 0x00015f8f   Thumb Code    54  QtServiceFramework.in(t._ZN5QListI10QByteArrayE4freeEPN9QListData4DataE)
    QList<QByteArray>::clear()               0x00015fc5   Thumb Code    26  QtServiceFramework.in(t._ZN5QListI10QByteArrayE5clearEv)
    QList<QByteArray>::append(const QByteArray&) 0x00015fe9   Thumb Code    94  QtServiceFramework.in(t._ZN5QListI10QByteArrayE6appendERKS0_)
    QList<QByteArray>::detach()              0x00016055   Thumb Code    24  QtServiceFramework.in(t._ZN5QListI10QByteArrayE6detachEv)
    QList<QByteArray>::removeAt(int)         0x0001606d   Thumb Code    46  QtServiceFramework.in(t._ZN5QListI10QByteArrayE8removeAtEi)
    QList<QByteArray>::node_copy(QList<QByteArray>::Node*, QList<QByteArray>::Node*, QList<QByteArray>::Node*) 0x0001609b   Thumb Code    70  QtServiceFramework.in(t._ZN5QListI10QByteArrayE9node_copyEPNS1_4NodeES3_S3_)
    QList<QByteArray>::QList(const QList<QByteArray>&) 0x000160f7   Thumb Code    30  QtServiceFramework.in(t._ZN5QListI10QByteArrayEC1ERKS1_)
    QList<QByteArray>::QList__sub_object(const QList<QByteArray>&) 0x000160f7   Thumb Code     0  QtServiceFramework.in(t._ZN5QListI10QByteArrayEC1ERKS1_)
    QList<QByteArray>::QList()               0x00016115   Thumb Code    16  QtServiceFramework.in(t._ZN5QListI10QByteArrayEC1Ev)
    QList<QByteArray>::QList__sub_object()   0x00016115   Thumb Code     0  QtServiceFramework.in(t._ZN5QListI10QByteArrayEC1Ev)
    QList<QByteArray>::~QList()              0x00016129   Thumb Code    30  QtServiceFramework.in(t._ZN5QListI10QByteArrayED1Ev)
    QList<QByteArray>::~QList__sub_object()  0x00016129   Thumb Code     0  QtServiceFramework.in(t._ZN5QListI10QByteArrayED1Ev)
    QList<QByteArray>::operator =(const QList<QByteArray>&) 0x00016147   Thumb Code    54  QtServiceFramework.in(t._ZN5QListI10QByteArrayEaSERKS1_)
    QList<QByteArray>::operator [](int)      0x0001617d   Thumb Code    20  QtServiceFramework.in(t._ZN5QListI10QByteArrayEixEi)
    QList<QMetaEnumBuilderPrivate>::detach_helper() 0x00016191   Thumb Code    88  QtServiceFramework.in(t._ZN5QListI23QMetaEnumBuilderPrivateE13detach_helperEv)
    QList<QMetaEnumBuilderPrivate>::node_destruct(QList<QMetaEnumBuilderPrivate>::Node*) 0x000161f1   Thumb Code    18  QtServiceFramework.in(t._ZN5QListI23QMetaEnumBuilderPrivateE13node_destructEPNS1_4NodeE)
    QList<QMetaEnumBuilderPrivate>::node_destruct(QList<QMetaEnumBuilderPrivate>::Node*, QList<QMetaEnumBuilderPrivate>::Node*) 0x00016203   Thumb Code    30  QtServiceFramework.in(t._ZN5QListI23QMetaEnumBuilderPrivateE13node_destructEPNS1_4NodeES3_)
    QList<QMetaEnumBuilderPrivate>::node_construct(QList<QMetaEnumBuilderPrivate>::Node*, const QMetaEnumBuilderPrivate&) 0x00016221   Thumb Code    32  QtServiceFramework.in(t._ZN5QListI23QMetaEnumBuilderPrivateE14node_constructEPNS1_4NodeERKS0_)
    QList<QMetaEnumBuilderPrivate>::detach_helper_grow(int, int) 0x0001624b   Thumb Code   180  QtServiceFramework.in(t._ZN5QListI23QMetaEnumBuilderPrivateE18detach_helper_growEii)
    QList<QMetaEnumBuilderPrivate>::free(QListData::Data*) 0x00016307   Thumb Code    44  QtServiceFramework.in(t._ZN5QListI23QMetaEnumBuilderPrivateE4freeEPN9QListData4DataE)
    QList<QMetaEnumBuilderPrivate>::append(const QMetaEnumBuilderPrivate&) 0x00016335   Thumb Code    90  QtServiceFramework.in(t._ZN5QListI23QMetaEnumBuilderPrivateE6appendERKS0_)
    QList<QMetaEnumBuilderPrivate>::detach() 0x0001639d   Thumb Code    24  QtServiceFramework.in(t._ZN5QListI23QMetaEnumBuilderPrivateE6detachEv)
    QList<QMetaEnumBuilderPrivate>::node_copy(QList<QMetaEnumBuilderPrivate>::Node*, QList<QMetaEnumBuilderPrivate>::Node*, QList<QMetaEnumBuilderPrivate>::Node*) 0x000163b5   Thumb Code    80  QtServiceFramework.in(t._ZN5QListI23QMetaEnumBuilderPrivateE9node_copyEPNS1_4NodeES3_S3_)
    QList<QMetaEnumBuilderPrivate>::QList()  0x00016419   Thumb Code    16  QtServiceFramework.in(t._ZN5QListI23QMetaEnumBuilderPrivateEC1Ev)
    QList<QMetaEnumBuilderPrivate>::QList__sub_object() 0x00016419   Thumb Code     0  QtServiceFramework.in(t._ZN5QListI23QMetaEnumBuilderPrivateEC1Ev)
    QList<QMetaEnumBuilderPrivate>::~QList() 0x0001642d   Thumb Code    30  QtServiceFramework.in(t._ZN5QListI23QMetaEnumBuilderPrivateED1Ev)
    QList<QMetaEnumBuilderPrivate>::~QList__sub_object() 0x0001642d   Thumb Code     0  QtServiceFramework.in(t._ZN5QListI23QMetaEnumBuilderPrivateED1Ev)
    QList<QMetaEnumBuilderPrivate>::operator [](int) 0x0001644b   Thumb Code    22  QtServiceFramework.in(t._ZN5QListI23QMetaEnumBuilderPrivateEixEi)
    QList<QMetaMethodBuilderPrivate>::detach_helper() 0x00016461   Thumb Code    88  QtServiceFramework.in(t._ZN5QListI25QMetaMethodBuilderPrivateE13detach_helperEv)
    QList<QMetaMethodBuilderPrivate>::node_destruct(QList<QMetaMethodBuilderPrivate>::Node*) 0x000164c1   Thumb Code    18  QtServiceFramework.in(t._ZN5QListI25QMetaMethodBuilderPrivateE13node_destructEPNS1_4NodeE)
    QList<QMetaMethodBuilderPrivate>::node_destruct(QList<QMetaMethodBuilderPrivate>::Node*, QList<QMetaMethodBuilderPrivate>::Node*) 0x000164d3   Thumb Code    30  QtServiceFramework.in(t._ZN5QListI25QMetaMethodBuilderPrivateE13node_destructEPNS1_4NodeES3_)
    QList<QMetaMethodBuilderPrivate>::node_construct(QList<QMetaMethodBuilderPrivate>::Node*, const QMetaMethodBuilderPrivate&) 0x000164f1   Thumb Code    32  QtServiceFramework.in(t._ZN5QListI25QMetaMethodBuilderPrivateE14node_constructEPNS1_4NodeERKS0_)
    QList<QMetaMethodBuilderPrivate>::detach_helper_grow(int, int) 0x0001651b   Thumb Code   180  QtServiceFramework.in(t._ZN5QListI25QMetaMethodBuilderPrivateE18detach_helper_growEii)
    QList<QMetaMethodBuilderPrivate>::free(QListData::Data*) 0x000165d7   Thumb Code    44  QtServiceFramework.in(t._ZN5QListI25QMetaMethodBuilderPrivateE4freeEPN9QListData4DataE)
    QList<QMetaMethodBuilderPrivate>::clear() 0x00016603   Thumb Code    64  QtServiceFramework.in(t._ZN5QListI25QMetaMethodBuilderPrivateE5clearEv)
    QList<QMetaMethodBuilderPrivate>::append(const QMetaMethodBuilderPrivate&) 0x0001664d   Thumb Code    90  QtServiceFramework.in(t._ZN5QListI25QMetaMethodBuilderPrivateE6appendERKS0_)
    QList<QMetaMethodBuilderPrivate>::detach() 0x000166b5   Thumb Code    24  QtServiceFramework.in(t._ZN5QListI25QMetaMethodBuilderPrivateE6detachEv)
    QList<QMetaMethodBuilderPrivate>::removeAt(int) 0x000166cd   Thumb Code    50  QtServiceFramework.in(t._ZN5QListI25QMetaMethodBuilderPrivateE8removeAtEi)
    QList<QMetaMethodBuilderPrivate>::node_copy(QList<QMetaMethodBuilderPrivate>::Node*, QList<QMetaMethodBuilderPrivate>::Node*, QList<QMetaMethodBuilderPrivate>::Node*) 0x000166ff   Thumb Code    80  QtServiceFramework.in(t._ZN5QListI25QMetaMethodBuilderPrivateE9node_copyEPNS1_4NodeES3_S3_)
    QList<QMetaMethodBuilderPrivate>::QList() 0x00016761   Thumb Code    16  QtServiceFramework.in(t._ZN5QListI25QMetaMethodBuilderPrivateEC1Ev)
    QList<QMetaMethodBuilderPrivate>::QList__sub_object() 0x00016761   Thumb Code     0  QtServiceFramework.in(t._ZN5QListI25QMetaMethodBuilderPrivateEC1Ev)
    QList<QMetaMethodBuilderPrivate>::~QList() 0x00016775   Thumb Code    30  QtServiceFramework.in(t._ZN5QListI25QMetaMethodBuilderPrivateED1Ev)
    QList<QMetaMethodBuilderPrivate>::~QList__sub_object() 0x00016775   Thumb Code     0  QtServiceFramework.in(t._ZN5QListI25QMetaMethodBuilderPrivateED1Ev)
    QList<QMetaMethodBuilderPrivate>::operator [](int) 0x00016793   Thumb Code    22  QtServiceFramework.in(t._ZN5QListI25QMetaMethodBuilderPrivateEixEi)
    QList<QMetaPropertyBuilderPrivate>::detach_helper() 0x000167a9   Thumb Code    88  QtServiceFramework.in(t._ZN5QListI27QMetaPropertyBuilderPrivateE13detach_helperEv)
    QList<QMetaPropertyBuilderPrivate>::node_destruct(QList<QMetaPropertyBuilderPrivate>::Node*) 0x00016809   Thumb Code    18  QtServiceFramework.in(t._ZN5QListI27QMetaPropertyBuilderPrivateE13node_destructEPNS1_4NodeE)
    QList<QMetaPropertyBuilderPrivate>::node_destruct(QList<QMetaPropertyBuilderPrivate>::Node*, QList<QMetaPropertyBuilderPrivate>::Node*) 0x0001681b   Thumb Code    30  QtServiceFramework.in(t._ZN5QListI27QMetaPropertyBuilderPrivateE13node_destructEPNS1_4NodeES3_)
    QList<QMetaPropertyBuilderPrivate>::node_construct(QList<QMetaPropertyBuilderPrivate>::Node*, const QMetaPropertyBuilderPrivate&) 0x00016839   Thumb Code    32  QtServiceFramework.in(t._ZN5QListI27QMetaPropertyBuilderPrivateE14node_constructEPNS1_4NodeERKS0_)
    QList<QMetaPropertyBuilderPrivate>::detach_helper_grow(int, int) 0x00016863   Thumb Code   180  QtServiceFramework.in(t._ZN5QListI27QMetaPropertyBuilderPrivateE18detach_helper_growEii)
    QList<QMetaPropertyBuilderPrivate>::free(QListData::Data*) 0x0001691f   Thumb Code    44  QtServiceFramework.in(t._ZN5QListI27QMetaPropertyBuilderPrivateE4freeEPN9QListData4DataE)
    QList<QMetaPropertyBuilderPrivate>::append(const QMetaPropertyBuilderPrivate&) 0x0001694d   Thumb Code    90  QtServiceFramework.in(t._ZN5QListI27QMetaPropertyBuilderPrivateE6appendERKS0_)
    QList<QMetaPropertyBuilderPrivate>::detach() 0x000169b5   Thumb Code    24  QtServiceFramework.in(t._ZN5QListI27QMetaPropertyBuilderPrivateE6detachEv)
    QList<QMetaPropertyBuilderPrivate>::node_copy(QList<QMetaPropertyBuilderPrivate>::Node*, QList<QMetaPropertyBuilderPrivate>::Node*, QList<QMetaPropertyBuilderPrivate>::Node*) 0x000169cd   Thumb Code    80  QtServiceFramework.in(t._ZN5QListI27QMetaPropertyBuilderPrivateE9node_copyEPNS1_4NodeES3_S3_)
    QList<QMetaPropertyBuilderPrivate>::QList() 0x00016a31   Thumb Code    16  QtServiceFramework.in(t._ZN5QListI27QMetaPropertyBuilderPrivateEC1Ev)
    QList<QMetaPropertyBuilderPrivate>::QList__sub_object() 0x00016a31   Thumb Code     0  QtServiceFramework.in(t._ZN5QListI27QMetaPropertyBuilderPrivateEC1Ev)
    QList<QMetaPropertyBuilderPrivate>::~QList() 0x00016a45   Thumb Code    30  QtServiceFramework.in(t._ZN5QListI27QMetaPropertyBuilderPrivateED1Ev)
    QList<QMetaPropertyBuilderPrivate>::~QList__sub_object() 0x00016a45   Thumb Code     0  QtServiceFramework.in(t._ZN5QListI27QMetaPropertyBuilderPrivateED1Ev)
    QList<QMetaPropertyBuilderPrivate>::operator [](int) 0x00016a63   Thumb Code    22  QtServiceFramework.in(t._ZN5QListI27QMetaPropertyBuilderPrivateEixEi)
    QList<QUuid>::detach_helper(int)         0x00016a79   Thumb Code    86  QtServiceFramework.in(t._ZN5QListI5QUuidE13detach_helperEi)
    QList<QUuid>::node_destruct(QList<QUuid>::Node*, QList<QUuid>::Node*) 0x00016ad7   Thumb Code    22  QtServiceFramework.in(t._ZN5QListI5QUuidE13node_destructEPNS1_4NodeES3_)
    QList<QUuid>::node_construct(QList<QUuid>::Node*, const QUuid&) 0x00016aed   Thumb Code    32  QtServiceFramework.in(t._ZN5QListI5QUuidE14node_constructEPNS1_4NodeERKS0_)
    QList<QUuid>::detach_helper_grow(int, int) 0x00016b17   Thumb Code   180  QtServiceFramework.in(t._ZN5QListI5QUuidE18detach_helper_growEii)
    QList<QUuid>::free(QListData::Data*)     0x00016bd3   Thumb Code    38  QtServiceFramework.in(t._ZN5QListI5QUuidE4freeEPN9QListData4DataE)
    QList<QUuid>::begin()                    0x00016bf9   Thumb Code    38  QtServiceFramework.in(t._ZN5QListI5QUuidE5beginEv)
    QList<QUuid>::append(const QUuid&)       0x00016c21   Thumb Code    90  QtServiceFramework.in(t._ZN5QListI5QUuidE6appendERKS0_)
    QList<QUuid>::node_copy(QList<QUuid>::Node*, QList<QUuid>::Node*, QList<QUuid>::Node*) 0x00016c89   Thumb Code    72  QtServiceFramework.in(t._ZN5QListI5QUuidE9node_copyEPNS1_4NodeES3_S3_)
    QList<QUuid>::~QList()                   0x00016ce3   Thumb Code    30  QtServiceFramework.in(t._ZN5QListI5QUuidED1Ev)
    QList<QUuid>::~QList__sub_object()       0x00016ce3   Thumb Code     0  QtServiceFramework.in(t._ZN5QListI5QUuidED1Ev)
    QList<QString>::detach_helper(int)       0x00016d01   Thumb Code    86  QtServiceFramework.in(t._ZN5QListI7QStringE13detach_helperEi)
    QList<QString>::detach_helper()          0x00016d5f   Thumb Code    12  QtServiceFramework.in(t._ZN5QListI7QStringE13detach_helperEv)
    QList<QString>::node_construct(QList<QString>::Node*, const QString&) 0x00016d6b   Thumb Code    26  QtServiceFramework.in(t._ZN5QListI7QStringE14node_constructEPNS1_4NodeERKS0_)
    QList<QString>::detach_helper_grow(int, int) 0x00016d91   Thumb Code   186  QtServiceFramework.in(t._ZN5QListI7QStringE18detach_helper_growEii)
    QList<QString>::free(QListData::Data*)   0x00016e53   Thumb Code    48  QtServiceFramework.in(t._ZN5QListI7QStringE4freeEPN9QListData4DataE)
    QList<QString>::clear()                  0x00016e83   Thumb Code    66  QtServiceFramework.in(t._ZN5QListI7QStringE5clearEv)
    QList<QString>::append(const QString&)   0x00016ed1   Thumb Code    94  QtServiceFramework.in(t._ZN5QListI7QStringE6appendERKS0_)
    QList<QString>::reserve(int)             0x00016f3d   Thumb Code    44  QtServiceFramework.in(t._ZN5QListI7QStringE7reserveEi)
    QList<QString>::node_copy(QList<QString>::Node*, QList<QString>::Node*, QList<QString>::Node*) 0x00016f69   Thumb Code    70  QtServiceFramework.in(t._ZN5QListI7QStringE9node_copyEPNS1_4NodeES3_S3_)
    QList<QString>::QList(const QList<QString>&) 0x00016fc5   Thumb Code    30  QtServiceFramework.in(t._ZN5QListI7QStringEC1ERKS1_)
    QList<QString>::QList__sub_object(const QList<QString>&) 0x00016fc5   Thumb Code     0  QtServiceFramework.in(t._ZN5QListI7QStringEC1ERKS1_)
    QList<QString>::QList()                  0x00016fe5   Thumb Code    16  QtServiceFramework.in(t._ZN5QListI7QStringEC1Ev)
    QList<QString>::QList__sub_object()      0x00016fe5   Thumb Code     0  QtServiceFramework.in(t._ZN5QListI7QStringEC1Ev)
    QList<QString>::~QList()                 0x00016ff9   Thumb Code    30  QtServiceFramework.in(t._ZN5QListI7QStringED1Ev)
    QList<QString>::~QList__sub_object()     0x00016ff9   Thumb Code     0  QtServiceFramework.in(t._ZN5QListI7QStringED1Ev)
    QList<QString>::operator =(const QList<QString>&) 0x00017017   Thumb Code    54  QtServiceFramework.in(t._ZN5QListI7QStringEaSERKS1_)
    QList<QString>::operator [](int)         0x0001704d   Thumb Code    34  QtServiceFramework.in(t._ZN5QListI7QStringEixEi)
    QList<QVariant>::detach_helper(int)      0x0001706f   Thumb Code    86  QtServiceFramework.in(t._ZN5QListI8QVariantE13detach_helperEi)
    QList<QVariant>::detach_helper()         0x000170cd   Thumb Code    12  QtServiceFramework.in(t._ZN5QListI8QVariantE13detach_helperEv)
    QList<QVariant>::node_destruct(QList<QVariant>::Node*, QList<QVariant>::Node*) 0x000170d9   Thumb Code    30  QtServiceFramework.in(t._ZN5QListI8QVariantE13node_destructEPNS1_4NodeES3_)
    QList<QVariant>::node_construct(QList<QVariant>::Node*, const QVariant&) 0x000170f7   Thumb Code    32  QtServiceFramework.in(t._ZN5QListI8QVariantE14node_constructEPNS1_4NodeERKS0_)
    QList<QVariant>::detach_helper_grow(int, int) 0x00017121   Thumb Code   180  QtServiceFramework.in(t._ZN5QListI8QVariantE18detach_helper_growEii)
    QList<QVariant>::free(QListData::Data*)  0x000171dd   Thumb Code    38  QtServiceFramework.in(t._ZN5QListI8QVariantE4freeEPN9QListData4DataE)
    QList<QVariant>::append(const QVariant&) 0x00017205   Thumb Code    90  QtServiceFramework.in(t._ZN5QListI8QVariantE6appendERKS0_)
    QList<QVariant>::node_copy(QList<QVariant>::Node*, QList<QVariant>::Node*, QList<QVariant>::Node*) 0x0001726d   Thumb Code    80  QtServiceFramework.in(t._ZN5QListI8QVariantE9node_copyEPNS1_4NodeES3_S3_)
    QList<QVariant>::QList()                 0x000172d1   Thumb Code    16  QtServiceFramework.in(t._ZN5QListI8QVariantEC1Ev)
    QList<QVariant>::QList__sub_object()     0x000172d1   Thumb Code     0  QtServiceFramework.in(t._ZN5QListI8QVariantEC1Ev)
    QList<QVariant>::~QList()                0x000172e5   Thumb Code    30  QtServiceFramework.in(t._ZN5QListI8QVariantED1Ev)
    QList<QVariant>::~QList__sub_object()    0x000172e5   Thumb Code     0  QtServiceFramework.in(t._ZN5QListI8QVariantED1Ev)
    QList<QVariant>::operator [](int)        0x00017303   Thumb Code    36  QtServiceFramework.in(t._ZN5QListI8QVariantEixEi)
    QList<QtMobility::QServicePackage>::detach_helper(int) 0x00017327   Thumb Code   154  QtServiceFramework.in(t._ZN5QListIN10QtMobility15QServicePackageEE13detach_helperEi)
    QList<QtMobility::QServicePackage>::detach_helper() 0x000173d3   Thumb Code    12  QtServiceFramework.in(t._ZN5QListIN10QtMobility15QServicePackageEE13detach_helperEv)
    QList<QtMobility::QServicePackage>::node_destruct(QList<QtMobility::QServicePackage>::Node*) 0x000173df   Thumb Code    18  QtServiceFramework.in(t._ZN5QListIN10QtMobility15QServicePackageEE13node_destructEPNS2_4NodeE)
    QList<QtMobility::QServicePackage>::node_destruct(QList<QtMobility::QServicePackage>::Node*, QList<QtMobility::QServicePackage>::Node*) 0x000173f1   Thumb Code    30  QtServiceFramework.in(t._ZN5QListIN10QtMobility15QServicePackageEE13node_destructEPNS2_4NodeES4_)
    QList<QtMobility::QServicePackage>::node_construct(QList<QtMobility::QServicePackage>::Node*, const QtMobility::QServicePackage&) 0x0001740f   Thumb Code    32  QtServiceFramework.in(t._ZN5QListIN10QtMobility15QServicePackageEE14node_constructEPNS2_4NodeERKS1_)
    QList<QtMobility::QServicePackage>::detach_helper_grow(int, int) 0x00017439   Thumb Code   180  QtServiceFramework.in(t._ZN5QListIN10QtMobility15QServicePackageEE18detach_helper_growEii)
    QList<QtMobility::QServicePackage>::free(QListData::Data*) 0x000174f5   Thumb Code    38  QtServiceFramework.in(t._ZN5QListIN10QtMobility15QServicePackageEE4freeEPN9QListData4DataE)
    QList<QtMobility::QServicePackage>::begin() 0x0001751b   Thumb Code    30  QtServiceFramework.in(t._ZN5QListIN10QtMobility15QServicePackageEE5beginEv)
    QList<QtMobility::QServicePackage>::append(const QtMobility::QServicePackage&) 0x00017539   Thumb Code    90  QtServiceFramework.in(t._ZN5QListIN10QtMobility15QServicePackageEE6appendERKS1_)
    QList<QtMobility::QServicePackage>::node_copy(QList<QtMobility::QServicePackage>::Node*, QList<QtMobility::QServicePackage>::Node*, QList<QtMobility::QServicePackage>::Node*) 0x000175a1   Thumb Code    80  QtServiceFramework.in(t._ZN5QListIN10QtMobility15QServicePackageEE9node_copyEPNS2_4NodeES4_S4_)
    QList<QtMobility::QServicePackage>::QList() 0x00017605   Thumb Code    16  QtServiceFramework.in(t._ZN5QListIN10QtMobility15QServicePackageEEC1Ev)
    QList<QtMobility::QServicePackage>::QList__sub_object() 0x00017605   Thumb Code     0  QtServiceFramework.in(t._ZN5QListIN10QtMobility15QServicePackageEEC1Ev)
    QList<QtMobility::QServicePackage>::~QList() 0x00017619   Thumb Code    30  QtServiceFramework.in(t._ZN5QListIN10QtMobility15QServicePackageEED1Ev)
    QList<QtMobility::QServicePackage>::~QList__sub_object() 0x00017619   Thumb Code     0  QtServiceFramework.in(t._ZN5QListIN10QtMobility15QServicePackageEED1Ev)
    QList<QtMobility::QRemoteServiceRegister::Entry>::detach_helper(int) 0x00017637   Thumb Code    86  QtServiceFramework.in(t._ZN5QListIN10QtMobility22QRemoteServiceRegister5EntryEE13detach_helperEi)
    QList<QtMobility::QRemoteServiceRegister::Entry>::detach_helper() 0x00017695   Thumb Code    12  QtServiceFramework.in(t._ZN5QListIN10QtMobility22QRemoteServiceRegister5EntryEE13detach_helperEv)
    QList<QtMobility::QRemoteServiceRegister::Entry>::node_destruct(QList<QtMobility::QRemoteServiceRegister::Entry>::Node*) 0x000176a1   Thumb Code    18  QtServiceFramework.in(t._ZN5QListIN10QtMobility22QRemoteServiceRegister5EntryEE13node_destructEPNS3_4NodeE)
    QList<QtMobility::QRemoteServiceRegister::Entry>::node_destruct(QList<QtMobility::QRemoteServiceRegister::Entry>::Node*, QList<QtMobility::QRemoteServiceRegister::Entry>::Node*) 0x000176b3   Thumb Code    30  QtServiceFramework.in(t._ZN5QListIN10QtMobility22QRemoteServiceRegister5EntryEE13node_destructEPNS3_4NodeES5_)
    QList<QtMobility::QRemoteServiceRegister::Entry>::node_construct(QList<QtMobility::QRemoteServiceRegister::Entry>::Node*, const QtMobility::QRemoteServiceRegister::Entry&) 0x000176d1   Thumb Code    32  QtServiceFramework.in(t._ZN5QListIN10QtMobility22QRemoteServiceRegister5EntryEE14node_constructEPNS3_4NodeERKS2_)
    QList<QtMobility::QRemoteServiceRegister::Entry>::detach_helper_grow(int, int) 0x000176fb   Thumb Code   180  QtServiceFramework.in(t._ZN5QListIN10QtMobility22QRemoteServiceRegister5EntryEE18detach_helper_growEii)
    QList<QtMobility::QRemoteServiceRegister::Entry>::free(QListData::Data*) 0x000177b7   Thumb Code    38  QtServiceFramework.in(t._ZN5QListIN10QtMobility22QRemoteServiceRegister5EntryEE4freeEPN9QListData4DataE)
    QList<QtMobility::QRemoteServiceRegister::Entry>::begin() 0x000177dd   Thumb Code    34  QtServiceFramework.in(t._ZN5QListIN10QtMobility22QRemoteServiceRegister5EntryEE5beginEv)
    QList<QtMobility::QRemoteServiceRegister::Entry>::append(const QtMobility::QRemoteServiceRegister::Entry&) 0x00017801   Thumb Code    90  QtServiceFramework.in(t._ZN5QListIN10QtMobility22QRemoteServiceRegister5EntryEE6appendERKS2_)
    QList<QtMobility::QRemoteServiceRegister::Entry>::node_copy(QList<QtMobility::QRemoteServiceRegister::Entry>::Node*, QList<QtMobility::QRemoteServiceRegister::Entry>::Node*, QList<QtMobility::QRemoteServiceRegister::Entry>::Node*) 0x00017869   Thumb Code    80  QtServiceFramework.in(t._ZN5QListIN10QtMobility22QRemoteServiceRegister5EntryEE9node_copyEPNS3_4NodeES5_S5_)
    QList<QtMobility::QRemoteServiceRegister::Entry>::~QList() 0x000178cb   Thumb Code    30  QtServiceFramework.in(t._ZN5QListIN10QtMobility22QRemoteServiceRegister5EntryEED1Ev)
    QList<QtMobility::QRemoteServiceRegister::Entry>::~QList__sub_object() 0x000178cb   Thumb Code     0  QtServiceFramework.in(t._ZN5QListIN10QtMobility22QRemoteServiceRegister5EntryEED1Ev)
    QList<QtMobility::QServiceInterfaceDescriptor>::detach_helper(int) 0x000178e9   Thumb Code    86  QtServiceFramework.in(t._ZN5QListIN10QtMobility27QServiceInterfaceDescriptorEE13detach_helperEi)
    QList<QtMobility::QServiceInterfaceDescriptor>::detach_helper() 0x00017947   Thumb Code    12  QtServiceFramework.in(t._ZN5QListIN10QtMobility27QServiceInterfaceDescriptorEE13detach_helperEv)
    QList<QtMobility::QServiceInterfaceDescriptor>::node_destruct(QList<QtMobility::QServiceInterfaceDescriptor>::Node*, QList<QtMobility::QServiceInterfaceDescriptor>::Node*) 0x00017953   Thumb Code    30  QtServiceFramework.in(t._ZN5QListIN10QtMobility27QServiceInterfaceDescriptorEE13node_destructEPNS2_4NodeES4_)
    QList<QtMobility::QServiceInterfaceDescriptor>::node_construct(QList<QtMobility::QServiceInterfaceDescriptor>::Node*, const QtMobility::QServiceInterfaceDescriptor&) 0x00017971   Thumb Code    32  QtServiceFramework.in(t._ZN5QListIN10QtMobility27QServiceInterfaceDescriptorEE14node_constructEPNS2_4NodeERKS1_)
    QList<QtMobility::QServiceInterfaceDescriptor>::detach_helper_grow(int, int) 0x0001799b   Thumb Code   180  QtServiceFramework.in(t._ZN5QListIN10QtMobility27QServiceInterfaceDescriptorEE18detach_helper_growEii)
    QList<QtMobility::QServiceInterfaceDescriptor>::free(QListData::Data*) 0x00017a57   Thumb Code    38  QtServiceFramework.in(t._ZN5QListIN10QtMobility27QServiceInterfaceDescriptorEE4freeEPN9QListData4DataE)
    QList<QtMobility::QServiceInterfaceDescriptor>::clear() 0x00017a7d   Thumb Code    26  QtServiceFramework.in(t._ZN5QListIN10QtMobility27QServiceInterfaceDescriptorEE5clearEv)
    QList<QtMobility::QServiceInterfaceDescriptor>::append(const QtMobility::QServiceInterfaceDescriptor&) 0x00017aa1   Thumb Code    90  QtServiceFramework.in(t._ZN5QListIN10QtMobility27QServiceInterfaceDescriptorEE6appendERKS1_)
    QList<QtMobility::QServiceInterfaceDescriptor>::node_copy(QList<QtMobility::QServiceInterfaceDescriptor>::Node*, QList<QtMobility::QServiceInterfaceDescriptor>::Node*, QList<QtMobility::QServiceInterfaceDescriptor>::Node*) 0x00017b09   Thumb Code    80  QtServiceFramework.in(t._ZN5QListIN10QtMobility27QServiceInterfaceDescriptorEE9node_copyEPNS2_4NodeES4_S4_)
    QList<QtMobility::QServiceInterfaceDescriptor>::QList() 0x00017b6d   Thumb Code    16  QtServiceFramework.in(t._ZN5QListIN10QtMobility27QServiceInterfaceDescriptorEEC1Ev)
    QList<QtMobility::QServiceInterfaceDescriptor>::QList__sub_object() 0x00017b6d   Thumb Code     0  QtServiceFramework.in(t._ZN5QListIN10QtMobility27QServiceInterfaceDescriptorEEC1Ev)
    QList<QtMobility::QServiceInterfaceDescriptor>::~QList() 0x00017b81   Thumb Code    30  QtServiceFramework.in(t._ZN5QListIN10QtMobility27QServiceInterfaceDescriptorEED1Ev)
    QList<QtMobility::QServiceInterfaceDescriptor>::~QList__sub_object() 0x00017b81   Thumb Code     0  QtServiceFramework.in(t._ZN5QListIN10QtMobility27QServiceInterfaceDescriptorEED1Ev)
    QList<QtMobility::QServiceInterfaceDescriptor>::operator =(const QList<QtMobility::QServiceInterfaceDescriptor>&) 0x00017b9f   Thumb Code    54  QtServiceFramework.in(t._ZN5QListIN10QtMobility27QServiceInterfaceDescriptorEEaSERKS2_)
    QList<QtMobility::QServiceInterfaceDescriptor>::operator [](int) 0x00017bd5   Thumb Code    36  QtServiceFramework.in(t._ZN5QListIN10QtMobility27QServiceInterfaceDescriptorEEixEi)
    QList<const QMetaObject&(*)()>::detach_helper() 0x00017bf9   Thumb Code    88  QtServiceFramework.in(t._ZN5QListIPFRK11QMetaObjectvEE13detach_helperEv)
    QList<const QMetaObject&(*)()>::detach_helper_grow(int, int) 0x00017c59   Thumb Code   164  QtServiceFramework.in(t._ZN5QListIPFRK11QMetaObjectvEE18detach_helper_growEii)
    QList<const QMetaObject&(*)()>::free(QListData::Data*) 0x00017d05   Thumb Code    24  QtServiceFramework.in(t._ZN5QListIPFRK11QMetaObjectvEE4freeEPN9QListData4DataE)
    QList<const QMetaObject&(*)()>::detach() 0x00017d1d   Thumb Code    24  QtServiceFramework.in(t._ZN5QListIPFRK11QMetaObjectvEE6detachEv)
    QList<const QMetaObject&(*)()>::node_copy(QList<const QMetaObject&(*)()>::Node*, QList<const QMetaObject&(*)()>::Node*, QList<const QMetaObject&(*)()>::Node*) 0x00017d35   Thumb Code    28  QtServiceFramework.in(t._ZN5QListIPFRK11QMetaObjectvEE9node_copyEPNS5_4NodeES7_S7_)
    QList<const QMetaObject&(*)()>::QList()  0x00017d51   Thumb Code    16  QtServiceFramework.in(t._ZN5QListIPFRK11QMetaObjectvEEC1Ev)
    QList<const QMetaObject&(*)()>::QList__sub_object() 0x00017d51   Thumb Code     0  QtServiceFramework.in(t._ZN5QListIPFRK11QMetaObjectvEEC1Ev)
    QList<const QMetaObject&(*)()>::~QList() 0x00017d65   Thumb Code    30  QtServiceFramework.in(t._ZN5QListIPFRK11QMetaObjectvEED1Ev)
    QList<const QMetaObject&(*)()>::~QList__sub_object() 0x00017d65   Thumb Code     0  QtServiceFramework.in(t._ZN5QListIPFRK11QMetaObjectvEED1Ev)
    QList<const QMetaObject&(*)()>::operator [](int) 0x00017d83   Thumb Code    20  QtServiceFramework.in(t._ZN5QListIPFRK11QMetaObjectvEEixEi)
    QList<int>::detach_helper(int)           0x00017d97   Thumb Code    86  QtServiceFramework.in(t._ZN5QListIiE13detach_helperEi)
    QList<int>::detach_helper()              0x00017df5   Thumb Code    12  QtServiceFramework.in(t._ZN5QListIiE13detach_helperEv)
    QList<int>::detach_helper_grow(int, int) 0x00017e01   Thumb Code   164  QtServiceFramework.in(t._ZN5QListIiE18detach_helper_growEii)
    QList<int>::free(QListData::Data*)       0x00017ead   Thumb Code    24  QtServiceFramework.in(t._ZN5QListIiE4freeEPN9QListData4DataE)
    QList<int>::append(const int&)           0x00017ec5   Thumb Code    54  QtServiceFramework.in(t._ZN5QListIiE6appendERKi)
    QList<int>::detach()                     0x00017f0b   Thumb Code    24  QtServiceFramework.in(t._ZN5QListIiE6detachEv)
    QList<int>::node_copy(QList<int>::Node*, QList<int>::Node*, QList<int>::Node*) 0x00017f23   Thumb Code    28  QtServiceFramework.in(t._ZN5QListIiE9node_copyEPNS0_4NodeES2_S2_)
    QList<int>::QList()                      0x00017f41   Thumb Code    16  QtServiceFramework.in(t._ZN5QListIiEC1Ev)
    QList<int>::QList__sub_object()          0x00017f41   Thumb Code     0  QtServiceFramework.in(t._ZN5QListIiEC1Ev)
    QList<int>::~QList()                     0x00017f55   Thumb Code    30  QtServiceFramework.in(t._ZN5QListIiED1Ev)
    QList<int>::~QList__sub_object()         0x00017f55   Thumb Code     0  QtServiceFramework.in(t._ZN5QListIiED1Ev)
    QList<int>::operator [](int)             0x00017f73   Thumb Code    20  QtServiceFramework.in(t._ZN5QListIiEixEi)
    QQueue<QtMobility::QServicePackage>::~QQueue() 0x00017f87   Thumb Code     8  QtServiceFramework.in(t._ZN6QQueueIN10QtMobility15QServicePackageEED1Ev)
    QQueue<QtMobility::QServicePackage>::~QQueue__sub_object() 0x00017f87   Thumb Code     0  QtServiceFramework.in(t._ZN6QQueueIN10QtMobility15QServicePackageEED1Ev)
    QVector<QXmlStreamAttribute>::~QVector() 0x00017f8f   Thumb Code    60  QtServiceFramework.in(t._ZN7QVectorI19QXmlStreamAttributeED1Ev)
    QVector<QXmlStreamAttribute>::~QVector__sub_object() 0x00017f8f   Thumb Code     0  QtServiceFramework.in(t._ZN7QVectorI19QXmlStreamAttributeED1Ev)
    QVector<bool>::fill(const bool&, int)    0x00017fcb   Thumb Code    92  QtServiceFramework.in(t._ZN7QVectorIbE4fillERKbi)
    QVector<bool>::free(QVectorTypedData<bool>*) 0x00018027   Thumb Code    12  QtServiceFramework.in(t._ZN7QVectorIbE4freeEP16QVectorTypedDataIbE)
    QVector<bool>::realloc(int, int)         0x00018033   Thumb Code   234  QtServiceFramework.in(t._ZN7QVectorIbE7reallocEii)
    QVector<bool>::~QVector()                0x00018125   Thumb Code    30  QtServiceFramework.in(t._ZN7QVectorIbED1Ev)
    QVector<bool>::~QVector__sub_object()    0x00018125   Thumb Code     0  QtServiceFramework.in(t._ZN7QVectorIbED1Ev)
    QPointer<QObject>::~QPointer()           0x00018143   Thumb Code    12  QtServiceFramework.in(t._ZN8QPointerI7QObjectED1Ev)
    QPointer<QObject>::~QPointer__sub_object() 0x00018143   Thumb Code     0  QtServiceFramework.in(t._ZN8QPointerI7QObjectED1Ev)
    QPointer<QObject>::operator =(QObject*)  0x0001814f   Thumb Code    20  QtServiceFramework.in(t._ZN8QPointerI7QObjectEaSEPS0_)
    TIpcArgs::TIpcArgs<HBufC16*, TPckgBuf<int>*, TPckgBuf<int>*>(T1, T2, T3) 0x00018163   Thumb Code    12  QtServiceFramework.in(t._ZN8TIpcArgsC1IP7HBufC16P8TPckgBufIiES5_EET_T0_T1_)
    TIpcArgs::TIpcArgs__sub_object<HBufC16*, TPckgBuf<int>*, TPckgBuf<int>*>(T1, T2, T3) 0x00018163   Thumb Code     0  QtServiceFramework.in(t._ZN8TIpcArgsC1IP7HBufC16P8TPckgBufIiES5_EET_T0_T1_)
    TPckgBuf<int>::TPckgBuf(const int&)      0x0001816f   Thumb Code    34  QtServiceFramework.in(t._ZN8TPckgBufIiEC1ERKi)
    TPckgBuf<int>::TPckgBuf__sub_object(const int&) 0x0001816f   Thumb Code     0  QtServiceFramework.in(t._ZN8TPckgBufIiEC1ERKi)
    TPckgBuf<int>::TPckgBuf()                0x00018191   Thumb Code    24  QtServiceFramework.in(t._ZN8TPckgBufIiEC1Ev)
    TPckgBuf<int>::TPckgBuf__sub_object()    0x00018191   Thumb Code     0  QtServiceFramework.in(t._ZN8TPckgBufIiEC1Ev)
    QHashNode<QUuid, QObject*>::QHashNode(const QUuid&, QObject*const &) 0x000181a9   Thumb Code    18  QtServiceFramework.in(t._ZN9QHashNodeI5QUuidP7QObjectEC1ERKS0_RKS2_)
    QHashNode<QUuid, QObject*>::QHashNode__sub_object(const QUuid&, QObject*const &) 0x000181a9   Thumb Code     0  QtServiceFramework.in(t._ZN9QHashNodeI5QUuidP7QObjectEC1ERKS0_RKS2_)
    QHashNode<QUuid, QtMobility::Response*>::QHashNode(const QUuid&, QtMobility::Response*const &) 0x000181bb   Thumb Code    18  QtServiceFramework.in(t._ZN9QHashNodeI5QUuidPN10QtMobility8ResponseEEC1ERKS0_RKS3_)
    QHashNode<QUuid, QtMobility::Response*>::QHashNode__sub_object(const QUuid&, QtMobility::Response*const &) 0x000181bb   Thumb Code     0  QtServiceFramework.in(t._ZN9QHashNodeI5QUuidPN10QtMobility8ResponseEEC1ERKS0_RKS3_)
    QHashNode<QString, QVariant>::QHashNode(const QString&, const QVariant&) 0x000181cd   Thumb Code    28  QtServiceFramework.in(t._ZN9QHashNodeI7QString8QVariantEC1ERKS0_RKS1_)
    QHashNode<QString, QVariant>::QHashNode__sub_object(const QString&, const QVariant&) 0x000181cd   Thumb Code     0  QtServiceFramework.in(t._ZN9QHashNodeI7QString8QVariantEC1ERKS0_RKS1_)
    QHashNode<QString, QString>::QHashNode(const QString&, const QString&) 0x000181f5   Thumb Code    28  QtServiceFramework.in(t._ZN9QHashNodeI7QStringS0_EC1ERKS0_S3_)
    QHashNode<QString, QString>::QHashNode__sub_object(const QString&, const QString&) 0x000181f5   Thumb Code     0  QtServiceFramework.in(t._ZN9QHashNodeI7QStringS0_EC1ERKS0_S3_)
    QHashNode<QString, int>::QHashNode(const QString&, const int&) 0x0001821d   Thumb Code    18  QtServiceFramework.in(t._ZN9QHashNodeI7QStringiEC1ERKS0_RKi)
    QHashNode<QString, int>::QHashNode__sub_object(const QString&, const int&) 0x0001821d   Thumb Code     0  QtServiceFramework.in(t._ZN9QHashNodeI7QStringiEC1ERKS0_RKi)
    QHashNode<QtMobility::QRemoteServiceRegister::Entry, QtMobility::ServiceIdentDescriptor>::QHashNode(const QtMobility::QRemoteServiceRegister::Entry&, const QtMobility::ServiceIdentDescriptor&) 0x0001822f   Thumb Code    28  QtServiceFramework.in(t._ZN9QHashNodeIN10QtMobility22QRemoteServiceRegister5EntryENS0_22ServiceIdentDescriptorEEC1ERKS2_RKS3_)
    QHashNode<QtMobility::QRemoteServiceRegister::Entry, QtMobility::ServiceIdentDescriptor>::QHashNode__sub_object(const QtMobility::QRemoteServiceRegister::Entry&, const QtMobility::ServiceIdentDescriptor&) 0x0001822f   Thumb Code     0  QtServiceFramework.in(t._ZN9QHashNodeIN10QtMobility22QRemoteServiceRegister5EntryENS0_22ServiceIdentDescriptorEEC1ERKS2_RKS3_)
    QHashNode<QtMobility::QServiceInterfaceDescriptor::Attribute, QVariant>::QHashNode(const QtMobility::QServiceInterfaceDescriptor::Attribute&, const QVariant&) 0x00018257   Thumb Code    18  QtServiceFramework.in(t._ZN9QHashNodeIN10QtMobility27QServiceInterfaceDescriptor9AttributeE8QVariantEC1ERKS2_RKS3_)
    QHashNode<QtMobility::QServiceInterfaceDescriptor::Attribute, QVariant>::QHashNode__sub_object(const QtMobility::QServiceInterfaceDescriptor::Attribute&, const QVariant&) 0x00018257   Thumb Code     0  QtServiceFramework.in(t._ZN9QHashNodeIN10QtMobility27QServiceInterfaceDescriptor9AttributeE8QVariantEC1ERKS2_RKS3_)
    QSet<QString>::toList() const            0x00018269   Thumb Code   110  QtServiceFramework.in(t._ZNK4QSetI7QStringE6toListEv)
    QHash<QUuid, QObject*>::keys() const     0x000182e1   Thumb Code    94  QtServiceFramework.in(t._ZNK5QHashI5QUuidP7QObjectE4keysEv)
    QHash<QUuid, QObject*>::findNode(const QUuid&, unsigned*) const 0x0001834f   Thumb Code   134  QtServiceFramework.in(t._ZNK5QHashI5QUuidP7QObjectE8findNodeERKS0_Pj)
    QHash<QUuid, QtMobility::Response*>::value(const QUuid&) const 0x000183df   Thumb Code    36  QtServiceFramework.in(t._ZNK5QHashI5QUuidPN10QtMobility8ResponseEE5valueERKS0_)
    QHash<QUuid, QtMobility::Response*>::findNode(const QUuid&, unsigned*) const 0x00018403   Thumb Code   134  QtServiceFramework.in(t._ZNK5QHashI5QUuidPN10QtMobility8ResponseEE8findNodeERKS0_Pj)
    QHash<QString, QHashDummyValue>::findNode(const QString&, unsigned*) const 0x00018493   Thumb Code    90  QtServiceFramework.in(t._ZNK5QHashI7QString15QHashDummyValueE8findNodeERKS0_Pj)
    QHash<QString, QVariant>::findNode(const QString&, unsigned*) const 0x000184ed   Thumb Code    90  QtServiceFramework.in(t._ZNK5QHashI7QString8QVariantE8findNodeERKS0_Pj)
    QHash<QString, QString>::const_iterator::operator !=(const QHash<QString, QString>::const_iterator&) const 0x00018547   Thumb Code    16  QtServiceFramework.in(t._ZNK5QHashI7QStringS0_E14const_iteratorneERKS2_)
    QHash<QString, QString>::keys() const    0x00018557   Thumb Code    60  QtServiceFramework.in(t._ZNK5QHashI7QStringS0_E4keysEv)
    QHash<QString, QString>::begin() const   0x0001859d   Thumb Code    28  QtServiceFramework.in(t._ZNK5QHashI7QStringS0_E5beginEv)
    QHash<QString, QString>::findNode(const QString&, unsigned*) const 0x000185b9   Thumb Code    90  QtServiceFramework.in(t._ZNK5QHashI7QStringS0_E8findNodeERKS0_Pj)
    QHash<QString, QString>::operator ==(const QHash<QString, QString>&) const 0x00018613   Thumb Code   164  QtServiceFramework.in(t._ZNK5QHashI7QStringS0_EeqERKS1_)
    QHash<QString, int>::contains(const QString&) const 0x000186b7   Thumb Code    26  QtServiceFramework.in(t._ZNK5QHashI7QStringiE8containsERKS0_)
    QHash<QString, int>::findNode(const QString&, unsigned*) const 0x000186d1   Thumb Code    90  QtServiceFramework.in(t._ZNK5QHashI7QStringiE8findNodeERKS0_Pj)
    QHash<QtMobility::QRemoteServiceRegister::Entry, QtMobility::ServiceIdentDescriptor>::keys() const 0x0001872d   Thumb Code    94  QtServiceFramework.in(t._ZNK5QHashIN10QtMobility22QRemoteServiceRegister5EntryENS0_22ServiceIdentDescriptorEE4keysEv)
    QHash<QtMobility::QRemoteServiceRegister::Entry, QtMobility::ServiceIdentDescriptor>::contains(const QtMobility::QRemoteServiceRegister::Entry&) const 0x0001879b   Thumb Code    26  QtServiceFramework.in(t._ZNK5QHashIN10QtMobility22QRemoteServiceRegister5EntryENS0_22ServiceIdentDescriptorEE8containsERKS2_)
    QHash<QtMobility::QRemoteServiceRegister::Entry, QtMobility::ServiceIdentDescriptor>::findNode(const QtMobility::QRemoteServiceRegister::Entry&, unsigned*) const 0x000187b5   Thumb Code   152  QtServiceFramework.in(t._ZNK5QHashIN10QtMobility22QRemoteServiceRegister5EntryENS0_22ServiceIdentDescriptorEE8findNodeERKS2_Pj)
    QHash<QtMobility::QRemoteServiceRegister::Entry, QtMobility::ServiceIdentDescriptor>::operator [](const QtMobility::QRemoteServiceRegister::Entry&) const 0x00018863   Thumb Code    52  QtServiceFramework.in(t._ZNK5QHashIN10QtMobility22QRemoteServiceRegister5EntryENS0_22ServiceIdentDescriptorEEixERKS2_)
    QHash<QtMobility::QServiceInterfaceDescriptor::Attribute, QVariant>::findNode(const QtMobility::QServiceInterfaceDescriptor::Attribute&, unsigned*) const 0x00018897   Thumb Code    62  QtServiceFramework.in(t._ZNK5QHashIN10QtMobility27QServiceInterfaceDescriptor9AttributeE8QVariantE8findNodeERKS2_Pj)
    QHash<QtMobility::QServiceInterfaceDescriptor::Attribute, QVariant>::operator ==(const QHash<QtMobility::QServiceInterfaceDescriptor::Attribute, QVariant>&) const 0x000188d5   Thumb Code   136  QtServiceFramework.in(t._ZNK5QHashIN10QtMobility27QServiceInterfaceDescriptor9AttributeE8QVariantEeqERKS4_)
    QList<QByteArray>::size() const          0x0001895d   Thumb Code     8  QtServiceFramework.in(t._ZNK5QListI10QByteArrayE4sizeEv)
    QList<QMetaEnumBuilderPrivate>::size() const 0x00018965   Thumb Code     8  QtServiceFramework.in(t._ZNK5QListI23QMetaEnumBuilderPrivateE4sizeEv)
    QList<QMetaMethodBuilderPrivate>::size() const 0x0001896d   Thumb Code     8  QtServiceFramework.in(t._ZNK5QListI25QMetaMethodBuilderPrivateE4sizeEv)
    QList<QMetaPropertyBuilderPrivate>::size() const 0x00018975   Thumb Code     8  QtServiceFramework.in(t._ZNK5QListI27QMetaPropertyBuilderPrivateE4sizeEv)
    QList<QVariant>::size() const            0x0001897d   Thumb Code    10  QtServiceFramework.in(t._ZNK5QListI8QVariantE4sizeEv)
    QList<QVariant>::operator [](int) const  0x00018987   Thumb Code    18  QtServiceFramework.in(t._ZNK5QListI8QVariantEixEi)
    QList<QtMobility::QServicePackage>::isEmpty() const 0x00018999   Thumb Code    18  QtServiceFramework.in(t._ZNK5QListIN10QtMobility15QServicePackageEE7isEmptyEv)
    QList<QtMobility::QServiceInterfaceDescriptor>::at(int) const 0x000189ab   Thumb Code    10  QtServiceFramework.in(t._ZNK5QListIN10QtMobility27QServiceInterfaceDescriptorEE2atEi)
    QList<const QMetaObject&(*)()>::size() const 0x000189b5   Thumb Code     8  QtServiceFramework.in(t._ZNK5QListIPFRK11QMetaObjectvEE4sizeEv)
    operator <<<QByteArray>(QDataStream&, const QList<T1>&) 0x000189bd   Thumb Code    56  QtServiceFramework.in(t._ZlsI10QByteArrayER11QDataStreamS2_RK5QListIT_E)
    operator <<<QString, QString>(QDataStream&, const QHash<T1, T2>&) 0x000189f5   Thumb Code    66  QtServiceFramework.in(t._ZlsI7QStringS0_ER11QDataStreamS2_RK5QHashIT_T0_E)
    operator <<<QtMobility::QServiceInterfaceDescriptor::Attribute, QVariant>(QDataStream&, const QHash<T1, T2>&) 0x00018a37   Thumb Code    68  QtServiceFramework.in(t._ZlsIN10QtMobility27QServiceInterfaceDescriptor9AttributeE8QVariantER11QDataStreamS5_RK5QHashIT_T0_E)
    operator <<<QtMobility::QServiceInterfaceDescriptor>(QDataStream&, const QList<T1>&) 0x00018a7b   Thumb Code    58  QtServiceFramework.in(t._ZlsIN10QtMobility27QServiceInterfaceDescriptorEER11QDataStreamS3_RK5QListIT_E)
    operator >><QByteArray>(QDataStream&, QList<T1>&) 0x00018ab5   Thumb Code   120  QtServiceFramework.in(t._ZrsI10QByteArrayER11QDataStreamS2_R5QListIT_E)
    operator >><QString>(QDataStream&, QList<T1>&) 0x00018b37   Thumb Code   104  QtServiceFramework.in(t._ZrsI7QStringER11QDataStreamS2_R5QListIT_E)
    operator >><QString, QString>(QDataStream&, QHash<T1, T2>&) 0x00018bb1   Thumb Code   164  QtServiceFramework.in(t._ZrsI7QStringS0_ER11QDataStreamS2_R5QHashIT_T0_E)
    operator >><QVariant>(QDataStream&, QList<T1>&) 0x00018c65   Thumb Code   176  QtServiceFramework.in(t._ZrsI8QVariantER11QDataStreamS2_R5QListIT_E)
    operator >><QtMobility::QServiceInterfaceDescriptor::Attribute, QVariant>(QDataStream&, QHash<T1, T2>&) 0x00018d27   Thumb Code   212  QtServiceFramework.in(t._ZrsIN10QtMobility27QServiceInterfaceDescriptor9AttributeE8QVariantER11QDataStreamS5_R5QHashIT_T0_E)
    operator >><QtMobility::QServiceInterfaceDescriptor>(QDataStream&, QList<T1>&) 0x00018e0f   Thumb Code   120  QtServiceFramework.in(t._ZrsIN10QtMobility27QServiceInterfaceDescriptorEER11QDataStreamS3_R5QListIT_E)
    operator >><int>(QDataStream&, QList<T1>&) 0x00018e91   Thumb Code   152  QtServiceFramework.in(t._ZrsIiER11QDataStreamS1_R5QListIT_E)
    QtMobility::QServiceManager::staticMetaObject 0x0001bc3c   Data          16  QtServiceFramework.in(.constdata)
    QtMobility::QServicePluginCleanup::staticMetaObject 0x0001bc4c   Data          16  QtServiceFramework.in(.constdata)
    QtMobility::QServiceManagerPrivate::staticMetaObject 0x0001bc5c   Data          16  QtServiceFramework.in(.constdata)
    QtMobility::QServiceContext::staticMetaObject 0x0001bef8   Data          16  QtServiceFramework.in(.constdata)
    QtMobility::QAbstractSecuritySession::staticMetaObject 0x0001bf8c   Data          16  QtServiceFramework.in(.constdata)
    QtMobility::QRemoteServiceRegister::staticMetaObject 0x0001c038   Data          16  QtServiceFramework.in(.constdata)
    QtMobility::DatabaseManager::staticMetaObject 0x0001c218   Data          16  QtServiceFramework.in(.constdata)
    QtMobility::RServiceSession::staticMetaObject 0x0001c318   Data          16  QtServiceFramework.in(.constdata)
    QtMobility::QRemoteServiceRegisterSymbianPrivate::staticMetaObject 0x0001c328   Data          16  QtServiceFramework.in(.constdata)
    QtMobility::SymbianClientEndPoint::staticMetaObject 0x0001c338   Data          16  QtServiceFramework.in(.constdata)
    QtMobility::SymbianServerEndPoint::staticMetaObject 0x0001c348   Data          16  QtServiceFramework.in(.constdata)
    QtMobility::ObjectEndPoint::staticMetaObject 0x0001c5e0   Data          16  QtServiceFramework.in(.constdata)
    QtMobility::QSlotInvoker::staticMetaObject 0x0001c6b4   Data          16  QtServiceFramework.in(.constdata)
    QtMobility::InstanceManager::staticMetaObject 0x0001c7c0   Data          16  QtServiceFramework.in(.constdata)
    QtMobility::QServiceIpcEndPoint::staticMetaObject 0x0001c91c   Data          16  QtServiceFramework.in(.constdata)
    QtMobility::QRemoteServiceRegisterPrivate::staticMetaObject 0x0001c9c4   Data          16  QtServiceFramework.in(.constdata)
    typeinfo for QSharedData                 0x0001ca5c   Data           8  QtServiceFramework.in(.constdata__ZTI11QSharedData)
    typeinfo for RHandleBase                 0x0001ca64   Data           8  QtServiceFramework.in(.constdata__ZTI11RHandleBase)
    typeinfo for RSessionBase                0x0001ca6c   Data          12  QtServiceFramework.in(.constdata__ZTI12RSessionBase)
    typeinfo for QMetaObjectBuilder          0x0001ca78   Data           8  QtServiceFramework.in(.constdata__ZTI18QMetaObjectBuilder)
    typeinfo for QtMobility::QSlotInvoker    0x0001ca80   Data          12  QtServiceFramework.in(.constdata__ZTIN10QtMobility12QSlotInvokerE)
    typeinfo for QtMobility::QServiceProxy   0x0001ca8c   Data          12  QtServiceFramework.in(.constdata__ZTIN10QtMobility13QServiceProxyE)
    typeinfo for QtMobility::ObjectEndPoint  0x0001ca98   Data          12  QtServiceFramework.in(.constdata__ZTIN10QtMobility14ObjectEndPointE)
    typeinfo for QtMobility::DatabaseManager 0x0001caa4   Data          12  QtServiceFramework.in(.constdata__ZTIN10QtMobility15DatabaseManagerE)
    typeinfo for QtMobility::InstanceManager 0x0001cab0   Data          12  QtServiceFramework.in(.constdata__ZTIN10QtMobility15InstanceManagerE)
    typeinfo for QtMobility::QServiceContext 0x0001cabc   Data          12  QtServiceFramework.in(.constdata__ZTIN10QtMobility15QServiceContextE)
    typeinfo for QtMobility::QServiceManager 0x0001cac8   Data          12  QtServiceFramework.in(.constdata__ZTIN10QtMobility15QServiceManagerE)
    typeinfo for QtMobility::RServiceSession 0x0001cad4   Data          32  QtServiceFramework.in(.constdata__ZTIN10QtMobility15RServiceSessionE)
    typeinfo for QtMobility::QSignalIntercepter 0x0001caf4   Data          12  QtServiceFramework.in(.constdata__ZTIN10QtMobility18QSignalIntercepterE)
    typeinfo for QtMobility::QServiceIpcEndPoint 0x0001cb00   Data          12  QtServiceFramework.in(.constdata__ZTIN10QtMobility19QServiceIpcEndPointE)
    typeinfo for QtMobility::QServicePluginCleanup 0x0001cb0c   Data          12  QtServiceFramework.in(.constdata__ZTIN10QtMobility21QServicePluginCleanupE)
    typeinfo for QtMobility::SymbianClientEndPoint 0x0001cb18   Data          12  QtServiceFramework.in(.constdata__ZTIN10QtMobility21SymbianClientEndPointE)
    typeinfo for QtMobility::SymbianServerEndPoint 0x0001cb24   Data          12  QtServiceFramework.in(.constdata__ZTIN10QtMobility21SymbianServerEndPointE)
    typeinfo for QtMobility::CServiceProviderServer 0x0001cb30   Data          12  QtServiceFramework.in(.constdata__ZTIN10QtMobility22CServiceProviderServerE)
    typeinfo for QtMobility::QRemoteServiceRegister 0x0001cb3c   Data          12  QtServiceFramework.in(.constdata__ZTIN10QtMobility22QRemoteServiceRegisterE)
    typeinfo for QtMobility::QServiceManagerPrivate 0x0001cb48   Data          12  QtServiceFramework.in(.constdata__ZTIN10QtMobility22QServiceManagerPrivateE)
    typeinfo for QtMobility::QServicePackagePrivate 0x0001cb54   Data          24  QtServiceFramework.in(.constdata__ZTIN10QtMobility22QServicePackagePrivateE)
    typeinfo for QtMobility::ServiceMessageListener 0x0001cb6c   Data          12  QtServiceFramework.in(.constdata__ZTIN10QtMobility22ServiceMessageListenerE)
    typeinfo for QtMobility::QServicePluginInterface 0x0001cb78   Data           8  QtServiceFramework.in(.constdata__ZTIN10QtMobility23QServicePluginInterfaceE)
    typeinfo for QtMobility::QAbstractSecuritySession 0x0001cb80   Data          12  QtServiceFramework.in(.constdata__ZTIN10QtMobility24QAbstractSecuritySessionE)
    typeinfo for QtMobility::ServiceContextClientData 0x0001cb8c   Data          12  QtServiceFramework.in(.constdata__ZTIN10QtMobility24ServiceContextClientDataE)
    typeinfo for QtMobility::ServiceSignalIntercepter 0x0001cb98   Data          12  QtServiceFramework.in(.constdata__ZTIN10QtMobility24ServiceSignalIntercepterE)
    typeinfo for QtMobility::DatabaseManagerSignalMonitor 0x0001cba4   Data          12  QtServiceFramework.in(.constdata__ZTIN10QtMobility28DatabaseManagerSignalMonitorE)
    typeinfo for QtMobility::CServiceProviderServerSession 0x0001cbb0   Data          12  QtServiceFramework.in(.constdata__ZTIN10QtMobility29CServiceProviderServerSessionE)
    typeinfo for QtMobility::QRemoteServiceRegisterPrivate 0x0001cbbc   Data          12  QtServiceFramework.in(.constdata__ZTIN10QtMobility29QRemoteServiceRegisterPrivateE)
    typeinfo for QtMobility::QRemoteServiceRegisterSymbianPrivate 0x0001cbc8   Data          12  QtServiceFramework.in(.constdata__ZTIN10QtMobility36QRemoteServiceRegisterSymbianPrivateE)
    typeinfo for std::bad_alloc              0x0001cbd4   Data          12  QtServiceFramework.in(.constdata__ZTISt9bad_alloc)
    typeinfo name for QSharedData            0x0001cbe0   Data          14  QtServiceFramework.in(.constdata__ZTS11QSharedData)
    typeinfo name for RHandleBase            0x0001cbee   Data          14  QtServiceFramework.in(.constdata__ZTS11RHandleBase)
    typeinfo name for RSessionBase           0x0001cbfc   Data          15  QtServiceFramework.in(.constdata__ZTS12RSessionBase)
    typeinfo name for QMetaObjectBuilder     0x0001cc0b   Data          21  QtServiceFramework.in(.constdata__ZTS18QMetaObjectBuilder)
    typeinfo name for QtMobility::QSlotInvoker 0x0001cc20   Data          29  QtServiceFramework.in(.constdata__ZTSN10QtMobility12QSlotInvokerE)
    typeinfo name for QtMobility::QServiceProxy 0x0001cc3d   Data          30  QtServiceFramework.in(.constdata__ZTSN10QtMobility13QServiceProxyE)
    typeinfo name for QtMobility::ObjectEndPoint 0x0001cc5b   Data          31  QtServiceFramework.in(.constdata__ZTSN10QtMobility14ObjectEndPointE)
    typeinfo name for QtMobility::DatabaseManager 0x0001cc7a   Data          32  QtServiceFramework.in(.constdata__ZTSN10QtMobility15DatabaseManagerE)
    typeinfo name for QtMobility::InstanceManager 0x0001cc9a   Data          32  QtServiceFramework.in(.constdata__ZTSN10QtMobility15InstanceManagerE)
    typeinfo name for QtMobility::QServiceContext 0x0001ccba   Data          32  QtServiceFramework.in(.constdata__ZTSN10QtMobility15QServiceContextE)
    typeinfo name for QtMobility::QServiceManager 0x0001ccda   Data          32  QtServiceFramework.in(.constdata__ZTSN10QtMobility15QServiceManagerE)
    typeinfo name for QtMobility::RServiceSession 0x0001ccfa   Data          32  QtServiceFramework.in(.constdata__ZTSN10QtMobility15RServiceSessionE)
    typeinfo name for QtMobility::QSignalIntercepter 0x0001cd1a   Data          35  QtServiceFramework.in(.constdata__ZTSN10QtMobility18QSignalIntercepterE)
    typeinfo name for QtMobility::QServiceIpcEndPoint 0x0001cd3d   Data          36  QtServiceFramework.in(.constdata__ZTSN10QtMobility19QServiceIpcEndPointE)
    typeinfo name for QtMobility::QServicePluginCleanup 0x0001cd61   Data          38  QtServiceFramework.in(.constdata__ZTSN10QtMobility21QServicePluginCleanupE)
    typeinfo name for QtMobility::SymbianClientEndPoint 0x0001cd87   Data          38  QtServiceFramework.in(.constdata__ZTSN10QtMobility21SymbianClientEndPointE)
    typeinfo name for QtMobility::SymbianServerEndPoint 0x0001cdad   Data          38  QtServiceFramework.in(.constdata__ZTSN10QtMobility21SymbianServerEndPointE)
    typeinfo name for QtMobility::CServiceProviderServer 0x0001cdd3   Data          39  QtServiceFramework.in(.constdata__ZTSN10QtMobility22CServiceProviderServerE)
    typeinfo name for QtMobility::QRemoteServiceRegister 0x0001cdfa   Data          39  QtServiceFramework.in(.constdata__ZTSN10QtMobility22QRemoteServiceRegisterE)
    typeinfo name for QtMobility::QServiceManagerPrivate 0x0001ce21   Data          39  QtServiceFramework.in(.constdata__ZTSN10QtMobility22QServiceManagerPrivateE)
    typeinfo name for QtMobility::QServicePackagePrivate 0x0001ce48   Data          39  QtServiceFramework.in(.constdata__ZTSN10QtMobility22QServicePackagePrivateE)
    typeinfo name for QtMobility::ServiceMessageListener 0x0001ce6f   Data          39  QtServiceFramework.in(.constdata__ZTSN10QtMobility22ServiceMessageListenerE)
    typeinfo name for QtMobility::QServicePluginInterface 0x0001ce96   Data          40  QtServiceFramework.in(.constdata__ZTSN10QtMobility23QServicePluginInterfaceE)
    typeinfo name for QtMobility::QAbstractSecuritySession 0x0001cebe   Data          41  QtServiceFramework.in(.constdata__ZTSN10QtMobility24QAbstractSecuritySessionE)
    typeinfo name for QtMobility::ServiceContextClientData 0x0001cee7   Data          41  QtServiceFramework.in(.constdata__ZTSN10QtMobility24ServiceContextClientDataE)
    typeinfo name for QtMobility::ServiceSignalIntercepter 0x0001cf10   Data          41  QtServiceFramework.in(.constdata__ZTSN10QtMobility24ServiceSignalIntercepterE)
    typeinfo name for QtMobility::DatabaseManagerSignalMonitor 0x0001cf39   Data          45  QtServiceFramework.in(.constdata__ZTSN10QtMobility28DatabaseManagerSignalMonitorE)
    typeinfo name for QtMobility::CServiceProviderServerSession 0x0001cf66   Data          46  QtServiceFramework.in(.constdata__ZTSN10QtMobility29CServiceProviderServerSessionE)
    typeinfo name for QtMobility::QRemoteServiceRegisterPrivate 0x0001cf94   Data          46  QtServiceFramework.in(.constdata__ZTSN10QtMobility29QRemoteServiceRegisterPrivateE)
    typeinfo name for QtMobility::QRemoteServiceRegisterSymbianPrivate 0x0001cfc2   Data          53  QtServiceFramework.in(.constdata__ZTSN10QtMobility36QRemoteServiceRegisterSymbianPrivateE)
    typeinfo name for std::bad_alloc         0x0001cff7   Data          13  QtServiceFramework.in(.constdata__ZTSSt9bad_alloc)
    vtable for QMetaObjectBuilder            0x0001d004   Data          16  QtServiceFramework.in(.constdata__ZTV18QMetaObjectBuilder)
    vtable for QtMobility::QSlotInvoker      0x0001d014   Data          56  QtServiceFramework.in(.constdata__ZTVN10QtMobility12QSlotInvokerE)
    vtable for QtMobility::QServiceProxy     0x0001d04c   Data          56  QtServiceFramework.in(.constdata__ZTVN10QtMobility13QServiceProxyE)
    vtable for QtMobility::ObjectEndPoint    0x0001d084   Data          56  QtServiceFramework.in(.constdata__ZTVN10QtMobility14ObjectEndPointE)
    vtable for QtMobility::DatabaseManager   0x0001d0bc   Data          56  QtServiceFramework.in(.constdata__ZTVN10QtMobility15DatabaseManagerE)
    vtable for QtMobility::InstanceManager   0x0001d0f4   Data          56  QtServiceFramework.in(.constdata__ZTVN10QtMobility15InstanceManagerE)
    vtable for QtMobility::QServiceContext   0x0001d12c   Data          60  QtServiceFramework.in(.constdata__ZTVN10QtMobility15QServiceContextE)
    vtable for QtMobility::QServiceManager   0x0001d168   Data          56  QtServiceFramework.in(.constdata__ZTVN10QtMobility15QServiceManagerE)
    vtable for QtMobility::RServiceSession   0x0001d1a0   Data          56  QtServiceFramework.in(.constdata__ZTVN10QtMobility15RServiceSessionE)
    vtable for QtMobility::QSignalIntercepter 0x0001d1d8   Data          60  QtServiceFramework.in(.constdata__ZTVN10QtMobility18QSignalIntercepterE)
    vtable for QtMobility::QServiceIpcEndPoint 0x0001d214   Data          60  QtServiceFramework.in(.constdata__ZTVN10QtMobility19QServiceIpcEndPointE)
    vtable for QtMobility::QServicePluginCleanup 0x0001d250   Data          56  QtServiceFramework.in(.constdata__ZTVN10QtMobility21QServicePluginCleanupE)
    vtable for QtMobility::SymbianClientEndPoint 0x0001d288   Data          60  QtServiceFramework.in(.constdata__ZTVN10QtMobility21SymbianClientEndPointE)
    vtable for QtMobility::SymbianServerEndPoint 0x0001d2c4   Data          60  QtServiceFramework.in(.constdata__ZTVN10QtMobility21SymbianServerEndPointE)
    vtable for QtMobility::CServiceProviderServer 0x0001d300   Data          48  QtServiceFramework.in(.constdata__ZTVN10QtMobility22CServiceProviderServerE)
    vtable for QtMobility::QRemoteServiceRegister 0x0001d330   Data          56  QtServiceFramework.in(.constdata__ZTVN10QtMobility22QRemoteServiceRegisterE)
    vtable for QtMobility::QServiceManagerPrivate 0x0001d368   Data          56  QtServiceFramework.in(.constdata__ZTVN10QtMobility22QServiceManagerPrivateE)
    vtable for QtMobility::QServicePackagePrivate 0x0001d3a0   Data          12  QtServiceFramework.in(.constdata__ZTVN10QtMobility22QServicePackagePrivateE)
    vtable for QtMobility::ServiceMessageListener 0x0001d3ac   Data          32  QtServiceFramework.in(.constdata__ZTVN10QtMobility22ServiceMessageListenerE)
    vtable for QtMobility::QServicePluginInterface 0x0001d3cc   Data          28  QtServiceFramework.in(.constdata__ZTVN10QtMobility23QServicePluginInterfaceE)
    vtable for QtMobility::QAbstractSecuritySession 0x0001d3e8   Data          60  QtServiceFramework.in(.constdata__ZTVN10QtMobility24QAbstractSecuritySessionE)
    vtable for QtMobility::ServiceContextClientData 0x0001d424   Data          16  QtServiceFramework.in(.constdata__ZTVN10QtMobility24ServiceContextClientDataE)
    vtable for QtMobility::ServiceSignalIntercepter 0x0001d434   Data          60  QtServiceFramework.in(.constdata__ZTVN10QtMobility24ServiceSignalIntercepterE)
    vtable for QtMobility::DatabaseManagerSignalMonitor 0x0001d470   Data          32  QtServiceFramework.in(.constdata__ZTVN10QtMobility28DatabaseManagerSignalMonitorE)
    vtable for QtMobility::CServiceProviderServerSession 0x0001d490   Data          40  QtServiceFramework.in(.constdata__ZTVN10QtMobility29CServiceProviderServerSessionE)
    vtable for QtMobility::QRemoteServiceRegisterPrivate 0x0001d4b8   Data          76  QtServiceFramework.in(.constdata__ZTVN10QtMobility29QRemoteServiceRegisterPrivateE)
    vtable for QtMobility::QRemoteServiceRegisterSymbianPrivate 0x0001d504   Data          76  QtServiceFramework.in(.constdata__ZTVN10QtMobility36QRemoteServiceRegisterSymbianPrivateE)
    .ARM.exidx$$Base                         0x0001d550   Number         0  ucppinit_aeabi.o(.ARM.exidx)
    .ARM.exidx$$Limit                        0x0001eb88   Number         0  QtServiceFramework.in(.ARM.exidx)
    Image$$ER_RO$$Limit                      0x0001eb88   Number         0  anon$$obj.o(linker$$defined$$symbols)
    __dso_handle                             0x00400020   Data           4  ucppfini.o(.data)

