ARM Linker, RVCT2.2 [Build 686]

================================================================================

Image Symbol Table

    Local Symbols

    Symbol Name                              Value     Ov Type        Size  Object(Section)

    [Anonymous Symbol]                       0x00000000   Number         0  QtCore{00040703}-3049.o ABSOLUTE
    [Anonymous Symbol]                       0x00000000   Number         0  QtCore{00040703}-1830.o ABSOLUTE
    [Anonymous Symbol]                       0x00000000   Number         0  QtCore{00040703}-1760.o ABSOLUTE
    [Anonymous Symbol]                       0x00000000   Number         0  QtCore{00040703}-3064.o ABSOLUTE
    [Anonymous Symbol]                       0x00000000   Number         0  QtCore{00040703}-1836.o ABSOLUTE
    [Anonymous Symbol]                       0x00000000   Number         0  QtCore{00040703}-1763.o ABSOLUTE
    [Anonymous Symbol]                       0x00000000   Number         0  QtCore{00040703}-3088.o ABSOLUTE
    [Anonymous Symbol]                       0x00000000   Number         0  QtCore{00040703}-1874.o ABSOLUTE
    [Anonymous Symbol]                       0x00000000   Number         0  QtCore{00040703}-1764.o ABSOLUTE
    [Anonymous Symbol]                       0x00000000   Number         0  QtCore{00040703}-3098.o ABSOLUTE
    [Anonymous Symbol]                       0x00000000   Number         0  QtCore{00040703}-1885.o ABSOLUTE
    [Anonymous Symbol]                       0x00000000   Number         0  QtCore{00040703}-1766.o ABSOLUTE
    [Anonymous Symbol]                       0x00000000   Number         0  QtCore{00040703}-312.o ABSOLUTE
    [Anonymous Symbol]                       0x00000000   Number         0  QtCore{00040703}-2082.o ABSOLUTE
    [Anonymous Symbol]                       0x00000000   Number         0  QtCore{00040703}-1767.o ABSOLUTE
    [Anonymous Symbol]                       0x00000000   Number         0  QtCore{00040703}-3133.o ABSOLUTE
    [Anonymous Symbol]                       0x00000000   Number         0  QtCore{00040703}-2134.o ABSOLUTE
    [Anonymous Symbol]                       0x00000000   Number         0  QtCore{00040703}-1768.o ABSOLUTE
    [Anonymous Symbol]                       0x00000000   Number         0  QtCore{00040703}-3142.o ABSOLUTE
    [Anonymous Symbol]                       0x00000000   Number         0  QtCore{00040703}-2141.o ABSOLUTE
    [Anonymous Symbol]                       0x00000000   Number         0  QtCore{00040703}-1773.o ABSOLUTE
    [Anonymous Symbol]                       0x00000000   Number         0  QtCore{00040703}-32.o ABSOLUTE
    [Anonymous Symbol]                       0x00000000   Number         0  QtCore{00040703}-2143.o ABSOLUTE
    [Anonymous Symbol]                       0x00000000   Number         0  QtCore{00040703}-1777.o ABSOLUTE
    [Anonymous Symbol]                       0x00000000   Number         0  QtCore{00040703}-324.o ABSOLUTE
    [Anonymous Symbol]                       0x00000000   Number         0  QtCore{00040703}-2188.o ABSOLUTE
    [Anonymous Symbol]                       0x00000000   Number         0  QtCore{00040703}-1784.o ABSOLUTE
    [Anonymous Symbol]                       0x00000000   Number         0  QtCore{00040703}-3282.o ABSOLUTE
    [Anonymous Symbol]                       0x00000000   Number         0  QtCore{00040703}-2191.o ABSOLUTE
    [Anonymous Symbol]                       0x00000000   Number         0  QtCore{00040703}-1789.o ABSOLUTE
    [Anonymous Symbol]                       0x00000000   Number         0  QtCore{00040703}-331.o ABSOLUTE
    [Anonymous Symbol]                       0x00000000   Number         0  QtCore{00040703}-2197.o ABSOLUTE
    [Anonymous Symbol]                       0x00000000   Number         0  QtCore{00040703}-1794.o ABSOLUTE
    [Anonymous Symbol]                       0x00000000   Number         0  QtCore{00040703}-332.o ABSOLUTE
    [Anonymous Symbol]                       0x00000000   Number         0  QtCore{00040703}-2199.o ABSOLUTE
    [Anonymous Symbol]                       0x00000000   Number         0  QtCore{00040703}-1814.o ABSOLUTE
    [Anonymous Symbol]                       0x00000000   Number         0  QtCore{00040703}-335.o ABSOLUTE
    [Anonymous Symbol]                       0x00000000   Number         0  QtCore{00040703}-2261.o ABSOLUTE
    [Anonymous Symbol]                       0x00000000   Number         0  QtCore{00040703}-1826.o ABSOLUTE
    [Anonymous Symbol]                       0x00000000   Number         0  QtCore{00040703}-3609.o ABSOLUTE
    [Anonymous Symbol]                       0x00000000   Number         0  QtCore{00040703}-2272.o ABSOLUTE
    [Anonymous Symbol]                       0x00000000   Number         0  QtCore{00040703}-772.o ABSOLUTE
    [Anonymous Symbol]                       0x00000000   Number         0  QtCore{00040703}-3610.o ABSOLUTE
    [Anonymous Symbol]                       0x00000000   Number         0  QtCore{00040703}-2404.o ABSOLUTE
    [Anonymous Symbol]                       0x00000000   Number         0  libc{00010000}-232.o ABSOLUTE
    [Anonymous Symbol]                       0x00000000   Number         0  QtCore{00040703}-3689.o ABSOLUTE
    [Anonymous Symbol]                       0x00000000   Number         0  QtCore{00040703}-2406.o ABSOLUTE
    [Anonymous Symbol]                       0x00000000   Number         0  libc{00010000}-350.o ABSOLUTE
    [Anonymous Symbol]                       0x00000000   Number         0  QtCore{00040703}-3691.o ABSOLUTE
    [Anonymous Symbol]                       0x00000000   Number         0  QtCore{00040703}-2422.o ABSOLUTE
    [Anonymous Symbol]                       0x00000000   Number         0  euser{000a0000}-1170.o ABSOLUTE
    [Anonymous Symbol]                       0x00000000   Number         0  QtCore{00040703}-3692.o ABSOLUTE
    [Anonymous Symbol]                       0x00000000   Number         0  QtCore{00040703}-2500.o ABSOLUTE
    [Anonymous Symbol]                       0x00000000   Number         0  euser{000a0000}-120.o ABSOLUTE
    [Anonymous Symbol]                       0x00000000   Number         0  QtCore{00040703}-46.o ABSOLUTE
    [Anonymous Symbol]                       0x00000000   Number         0  QtCore{00040703}-2510.o ABSOLUTE
    [Anonymous Symbol]                       0x00000000   Number         0  euser{000a0000}-670.o ABSOLUTE
    [Anonymous Symbol]                       0x00000000   Number         0  QtCore{00040703}-498.o ABSOLUTE
    [Anonymous Symbol]                       0x00000000   Number         0  QtCore{00040703}-2511.o ABSOLUTE
    [Anonymous Symbol]                       0x00000000   Number         0  euser{000a0000}-671.o ABSOLUTE
    [Anonymous Symbol]                       0x00000000   Number         0  QtCore{00040703}-499.o ABSOLUTE
    [Anonymous Symbol]                       0x00000000   Number         0  QtCore{00040703}-2791.o ABSOLUTE
    [Anonymous Symbol]                       0x00000000   Number         0  QtCore{00040703}-1457.o ABSOLUTE
    [Anonymous Symbol]                       0x00000000   Number         0  QtCore{00040703}-501.o ABSOLUTE
    [Anonymous Symbol]                       0x00000000   Number         0  QtCore{00040703}-2795.o ABSOLUTE
    [Anonymous Symbol]                       0x00000000   Number         0  QtCore{00040703}-1471.o ABSOLUTE
    [Anonymous Symbol]                       0x00000000   Number         0  QtCore{00040703}-56.o ABSOLUTE
    [Anonymous Symbol]                       0x00000000   Number         0  QtCore{00040703}-2797.o ABSOLUTE
    [Anonymous Symbol]                       0x00000000   Number         0  QtCore{00040703}-1477.o ABSOLUTE
    [Anonymous Symbol]                       0x00000000   Number         0  QtCore{00040703}-70.o ABSOLUTE
    [Anonymous Symbol]                       0x00000000   Number         0  QtCore{00040703}-2810.o ABSOLUTE
    [Anonymous Symbol]                       0x00000000   Number         0  QtCore{00040703}-150.o ABSOLUTE
    [Anonymous Symbol]                       0x00000000   Number         0  QtCore{00040703}-71.o ABSOLUTE
    [Anonymous Symbol]                       0x00000000   Number         0  QtCore{00040703}-2811.o ABSOLUTE
    [Anonymous Symbol]                       0x00000000   Number         0  QtCore{00040703}-159.o ABSOLUTE
    [Anonymous Symbol]                       0x00000000   Number         0  QtCore{00040703}-73.o ABSOLUTE
    [Anonymous Symbol]                       0x00000000   Number         0  QtCore{00040703}-282.o ABSOLUTE
    [Anonymous Symbol]                       0x00000000   Number         0  QtCore{00040703}-168.o ABSOLUTE
    [Anonymous Symbol]                       0x00000000   Number         0  QtCore{00040703}-753.o ABSOLUTE
    [Anonymous Symbol]                       0x00000000   Number         0  QtCore{00040703}-3040.o ABSOLUTE
    [Anonymous Symbol]                       0x00000000   Number         0  QtCore{00040703}-1706.o ABSOLUTE
    [Anonymous Symbol]                       0x00000000   Number         0  drtaeabi{000a0000}-180.o ABSOLUTE
    [Anonymous Symbol]                       0x00000000   Number         0  drtaeabi{000a0000}-189.o ABSOLUTE
    [Anonymous Symbol]                       0x00000000   Number         0  drtaeabi{000a0000}-188.o ABSOLUTE
    [Anonymous Symbol]                       0x00000000   Number         0  drtaeabi{000a0000}-183.o ABSOLUTE
    [Anonymous Symbol]                       0x00000000   Number         0  drtaeabi{000a0000}-190.o ABSOLUTE
    [Anonymous Symbol]                       0x00000000   Number         0  drtaeabi{000a0000}-186.o ABSOLUTE
    [Anonymous Symbol]                       0x00000000   Number         0  drtaeabi{000a0000}-184.o ABSOLUTE
    [Anonymous Symbol]                       0x00000000   Number         0  efsrv{000a0000}-231.o ABSOLUTE
    [Anonymous Symbol]                       0x00000000   Number         0  drtaeabi{000a0000}-187.o ABSOLUTE
    [Anonymous Symbol]                       0x00000000   Number         0  libstdcpp{00010000}-988.o ABSOLUTE
    [Anonymous Symbol]                       0x00000000   Number         0  efsrv{000a0000}-68.o ABSOLUTE
    [Anonymous Symbol]                       0x00000000   Number         0  drtrvct2_2{000a0000}-28.o ABSOLUTE
    [Anonymous Symbol]                       0x00000000   Number         0  libstdcpp{00010000}-992.o ABSOLUTE
    [Anonymous Symbol]                       0x00000000   Number         0  drtaeabi{000a0000}-155.o ABSOLUTE
    [Anonymous Symbol]                       0x00000000   Number         0  drtaeabi{000a0000}-147.o ABSOLUTE
    [Anonymous Symbol]                       0x00000000   Number         0  dfpaeabi{000a0000}-25.o ABSOLUTE
    [Anonymous Symbol]                       0x00000000   Number         0  drtaeabi{000a0000}-158.o ABSOLUTE
    [Anonymous Symbol]                       0x00000000   Number         0  QtCore{00040703}-1453.o ABSOLUTE
    ..\..\..\..\EPOC32\BUILD\s60\osext\mobileruntime\group\LIBSTDCPP\ARMV5\VtblExports.s 0x00000000   Number         0  VtblExports.o ABSOLUTE
    \EPOC32\BUILD\src\cedar\generic\base\e32\compsupp\DRTAEABI\ARMV5\VtblExports.s 0x00000000   Number         0  VtblExports.o ABSOLUTE
    \EPOC32\BUILD\src\cedar\generic\base\e32\euser\EDLL\ARMV5\urel\uc_dll_.cpp 0x00000000   Number         0  uc_dll_.o ABSOLUTE
    \EPOC32\BUILD\src\cedar\generic\base\e32\euser\EUSER\ARMV5\VtblExports.s 0x00000000   Number         0  VtblExports.o ABSOLUTE
    \EPOC32\BUILD\src\cedar\generic\base\f32\group\EFSRV\ARMV5\VtblExports.s 0x00000000   Number         0  VtblExports.o ABSOLUTE
    \EPOC32\BUILD\wk29\stdlibs\group\LIBC\ARMV5\VtblExports.s 0x00000000   Number         0  VtblExports.o ABSOLUTE
    \EPOC32\BUILD\wk29\stdlibs\group\LIBDL\ARMV5\VtblExports.s 0x00000000   Number         0  VtblExports.o ABSOLUTE
    \EPOC32\BUILD\wk29\stdlibs\group\LIBM\ARMV5\VtblExports.s 0x00000000   Number         0  VtblExports.o ABSOLUTE
    \EPOC32\BUILD\wk29\stdlibs\group\LIBPTHREAD\ARMV5\VtblExports.s 0x00000000   Number         0  VtblExports.o ABSOLUTE
    \\EPOC32\\BUILD\\src\\cedar\\generic\\base\\e32\\euser\\EDLL\\ARMV5\\urel\\uc_dll_.cpp 0x00000000   Number         0  uc_dll_.o ABSOLUTE
    \\src\\cedar\\generic\\base\\e32\\compsupp\\RVCT2_2\\ucppinit_aeabi.cpp 0x00000000   Number         0  ucppinit_aeabi.o ABSOLUTE
    \dev\symb\SDKs\32\EPOC32\BUILD\iwmake\buildS60____PADDING________\src\QTCORE_DLL\ARMV6\VtblExports.s 0x00000000   Number         0  VtblExports.o ABSOLUTE
    \dev\symb\SDKs\32\EPOC32\BUILD\iwmake\buildS60____PADDING________\src\QTGUI_DLL\ARMV6\VtblExports.s 0x00000000   Number         0  VtblExports.o ABSOLUTE
    \s60\5.0\EPOC32\BUILD\scripts\5.0\qtmobility\QTSENSORS_DLL\ARMV5\urel\QtSensors{00010103}.s 0x00000000   Number         0  QtSensors{00010103}.exp ABSOLUTE
    \scripts\5.0\qtmobility\src\sensors\qaccelerometer.cpp 0x00000000   Number         0  QtSensors.in ABSOLUTE
    \scripts\5.0\qtmobility\src\sensors\qambientlightsensor.cpp 0x00000000   Number         0  QtSensors.in ABSOLUTE
    \scripts\5.0\qtmobility\src\sensors\qcompass.cpp 0x00000000   Number         0  QtSensors.in ABSOLUTE
    \scripts\5.0\qtmobility\src\sensors\qmagnetometer.cpp 0x00000000   Number         0  QtSensors.in ABSOLUTE
    \scripts\5.0\qtmobility\src\sensors\qorientationsensor.cpp 0x00000000   Number         0  QtSensors.in ABSOLUTE
    \scripts\5.0\qtmobility\src\sensors\qproximitysensor.cpp 0x00000000   Number         0  QtSensors.in ABSOLUTE
    \scripts\5.0\qtmobility\src\sensors\qrotationsensor.cpp 0x00000000   Number         0  QtSensors.in ABSOLUTE
    \scripts\5.0\qtmobility\src\sensors\qsensor.cpp 0x00000000   Number         0  QtSensors.in ABSOLUTE
    \scripts\5.0\qtmobility\src\sensors\qsensorbackend.cpp 0x00000000   Number         0  QtSensors.in ABSOLUTE
    \scripts\5.0\qtmobility\src\sensors\qsensormanager.cpp 0x00000000   Number         0  QtSensors.in ABSOLUTE
    \scripts\5.0\qtmobility\src\sensors\qsensorplugin.cpp 0x00000000   Number         0  QtSensors.in ABSOLUTE
    \scripts\5.0\qtmobility\src\sensors\qsensorpluginloader.cpp 0x00000000   Number         0  QtSensors.in ABSOLUTE
    \scripts\5.0\qtmobility\src\sensors\qtapsensor.cpp 0x00000000   Number         0  QtSensors.in ABSOLUTE
    \src\cedar\generic\base\e32\compsupp\RVCT2_2\ucppfini.cpp 0x00000000   Number         0  ucppfini.o ABSOLUTE
    \src\cedar\generic\base\e32\compsupp\RVCT2_2\ucppinit_aeabi.cpp 0x00000000   Number         0  ucppinit_aeabi.o ABSOLUTE
    \src\cedar\generic\base\e32\euser\epoc\arm\uc_dll.cpp 0x00000000   Number         0  uc_dll.o ABSOLUTE
    .emb_text                                0x00008000   Section       40  uc_dll_.o(.emb_text)
    .emb_text                                0x00008028   Section       72  ucppinit_aeabi.o(.emb_text)
    skip                                     0x0000803c   ARM Code       0  ucppinit_aeabi.o(.emb_text)
    loop                                     0x0000804c   ARM Code       0  ucppinit_aeabi.o(.emb_text)
    fpinit                                   0x00008064   Data           0  ucppinit_aeabi.o(.emb_text)
    base                                     0x00008068   Data           0  ucppinit_aeabi.o(.emb_text)
    limit                                    0x0000806c   Data           0  ucppinit_aeabi.o(.emb_text)
    .text                                    0x00008070   Section      568  QtSensors.in(.text)
    QtMobility::pluginLoader()               0x000082a9   Thumb Code   156  QtSensors.in(.text)
    .text                                    0x000082a8   Section     1764  QtSensors.in(.text)
    QtMobility::sensorManagerPrivate()       0x00008345   Thumb Code   150  QtSensors.in(.text)
    QtMobility::loadPlugins()                0x000083db   Thumb Code   224  QtSensors.in(.text)
    QtMobility::qSymbian_CheckDir(const QDir&, RFs&) 0x0000898d   Thumb Code    78  QtSensors.in(.text)
    .text                                    0x0000898c   Section     1088  QtSensors.in(.text)
    .text                                    0x00008dcc   Section     2268  QtSensors.in(.text)
    __sti___11_qsensor_cpp                   0x000095b1   Thumb Code    46  QtSensors.in(.text)
    .text                                    0x000096a8   Section      360  QtSensors.in(.text)
    .text                                    0x00009810   Section      328  QtSensors.in(.text)
    .text                                    0x00009958   Section      332  QtSensors.in(.text)
    .text                                    0x00009aa4   Section      388  QtSensors.in(.text)
    .text                                    0x00009c28   Section      332  QtSensors.in(.text)
    .text                                    0x00009d74   Section      308  QtSensors.in(.text)
    .text                                    0x00009ea8   Section      360  QtSensors.in(.text)
    .text                                    0x0000a010   Section      388  QtSensors.in(.text)
    .text                                    0x0000a194   Section       40  uc_dll.o(.text)
    .text                                    0x0000a1bc   Section      148  ucppfini.o(.text)
    .text.clean                              0x0000a250   Section       18  QtSensors.in(.text.clean)
    .text.clean                              0x0000a264   Section      244  QtSensors.in(.text.clean)
    .text.clean                              0x0000a358   Section      200  QtSensors.in(.text.clean)
    .text.clean                              0x0000a420   Section      164  QtSensors.in(.text.clean)
    .text.clean                              0x0000a4c4   Section       14  QtSensors.in(.text.clean)
    .text.clean                              0x0000a4d2   Section       14  QtSensors.in(.text.clean)
    .text.clean                              0x0000a4e0   Section       14  QtSensors.in(.text.clean)
    .text.clean                              0x0000a4ee   Section       14  QtSensors.in(.text.clean)
    .text.clean                              0x0000a4fc   Section       14  QtSensors.in(.text.clean)
    .text.clean                              0x0000a50a   Section       14  QtSensors.in(.text.clean)
    .text.clean                              0x0000a518   Section       14  QtSensors.in(.text.clean)
    .text.clean                              0x0000a526   Section       14  QtSensors.in(.text.clean)
    ExportTable                              0x0000a534   Section     1168  QtSensors{00010103}.exp(ExportTable)
    StubCode                                 0x0000a9c4   Section        8  efsrv{000a0000}-231.o(StubCode)
    theImportedSymbol                        0x0000a9c8   Data           0  efsrv{000a0000}-231.o(StubCode)
    StubCode                                 0x0000a9cc   Section        8  efsrv{000a0000}-68.o(StubCode)
    theImportedSymbol                        0x0000a9d0   Data           0  efsrv{000a0000}-68.o(StubCode)
    StubCode                                 0x0000a9d4   Section        8  libstdcpp{00010000}-988.o(StubCode)
    theImportedSymbol                        0x0000a9d8   Data           0  libstdcpp{00010000}-988.o(StubCode)
    StubCode                                 0x0000a9dc   Section        8  libstdcpp{00010000}-992.o(StubCode)
    theImportedSymbol                        0x0000a9e0   Data           0  libstdcpp{00010000}-992.o(StubCode)
    StubCode                                 0x0000a9e4   Section        8  QtCore{00040703}-1453.o(StubCode)
    theImportedSymbol                        0x0000a9e8   Data           0  QtCore{00040703}-1453.o(StubCode)
    StubCode                                 0x0000a9ec   Section        8  QtCore{00040703}-1457.o(StubCode)
    theImportedSymbol                        0x0000a9f0   Data           0  QtCore{00040703}-1457.o(StubCode)
    StubCode                                 0x0000a9f4   Section        8  QtCore{00040703}-1471.o(StubCode)
    theImportedSymbol                        0x0000a9f8   Data           0  QtCore{00040703}-1471.o(StubCode)
    StubCode                                 0x0000a9fc   Section        8  QtCore{00040703}-1477.o(StubCode)
    theImportedSymbol                        0x0000aa00   Data           0  QtCore{00040703}-1477.o(StubCode)
    StubCode                                 0x0000aa04   Section        8  QtCore{00040703}-150.o(StubCode)
    theImportedSymbol                        0x0000aa08   Data           0  QtCore{00040703}-150.o(StubCode)
    StubCode                                 0x0000aa0c   Section        8  QtCore{00040703}-159.o(StubCode)
    theImportedSymbol                        0x0000aa10   Data           0  QtCore{00040703}-159.o(StubCode)
    StubCode                                 0x0000aa14   Section        8  QtCore{00040703}-168.o(StubCode)
    theImportedSymbol                        0x0000aa18   Data           0  QtCore{00040703}-168.o(StubCode)
    StubCode                                 0x0000aa1c   Section        8  QtCore{00040703}-1706.o(StubCode)
    theImportedSymbol                        0x0000aa20   Data           0  QtCore{00040703}-1706.o(StubCode)
    StubCode                                 0x0000aa24   Section        8  QtCore{00040703}-1760.o(StubCode)
    theImportedSymbol                        0x0000aa28   Data           0  QtCore{00040703}-1760.o(StubCode)
    StubCode                                 0x0000aa2c   Section        8  QtCore{00040703}-1763.o(StubCode)
    theImportedSymbol                        0x0000aa30   Data           0  QtCore{00040703}-1763.o(StubCode)
    StubCode                                 0x0000aa34   Section        8  QtCore{00040703}-1764.o(StubCode)
    theImportedSymbol                        0x0000aa38   Data           0  QtCore{00040703}-1764.o(StubCode)
    StubCode                                 0x0000aa3c   Section        8  QtCore{00040703}-1766.o(StubCode)
    theImportedSymbol                        0x0000aa40   Data           0  QtCore{00040703}-1766.o(StubCode)
    StubCode                                 0x0000aa44   Section        8  QtCore{00040703}-1767.o(StubCode)
    theImportedSymbol                        0x0000aa48   Data           0  QtCore{00040703}-1767.o(StubCode)
    StubCode                                 0x0000aa4c   Section        8  QtCore{00040703}-1768.o(StubCode)
    theImportedSymbol                        0x0000aa50   Data           0  QtCore{00040703}-1768.o(StubCode)
    StubCode                                 0x0000aa54   Section        8  QtCore{00040703}-1773.o(StubCode)
    theImportedSymbol                        0x0000aa58   Data           0  QtCore{00040703}-1773.o(StubCode)
    StubCode                                 0x0000aa5c   Section        8  QtCore{00040703}-1777.o(StubCode)
    theImportedSymbol                        0x0000aa60   Data           0  QtCore{00040703}-1777.o(StubCode)
    StubCode                                 0x0000aa64   Section        8  QtCore{00040703}-1784.o(StubCode)
    theImportedSymbol                        0x0000aa68   Data           0  QtCore{00040703}-1784.o(StubCode)
    StubCode                                 0x0000aa6c   Section        8  QtCore{00040703}-1789.o(StubCode)
    theImportedSymbol                        0x0000aa70   Data           0  QtCore{00040703}-1789.o(StubCode)
    StubCode                                 0x0000aa74   Section        8  QtCore{00040703}-1794.o(StubCode)
    theImportedSymbol                        0x0000aa78   Data           0  QtCore{00040703}-1794.o(StubCode)
    StubCode                                 0x0000aa7c   Section        8  QtCore{00040703}-1814.o(StubCode)
    theImportedSymbol                        0x0000aa80   Data           0  QtCore{00040703}-1814.o(StubCode)
    StubCode                                 0x0000aa84   Section        8  QtCore{00040703}-1826.o(StubCode)
    theImportedSymbol                        0x0000aa88   Data           0  QtCore{00040703}-1826.o(StubCode)
    StubCode                                 0x0000aa8c   Section        8  QtCore{00040703}-1830.o(StubCode)
    theImportedSymbol                        0x0000aa90   Data           0  QtCore{00040703}-1830.o(StubCode)
    StubCode                                 0x0000aa94   Section        8  QtCore{00040703}-1836.o(StubCode)
    theImportedSymbol                        0x0000aa98   Data           0  QtCore{00040703}-1836.o(StubCode)
    StubCode                                 0x0000aa9c   Section        8  QtCore{00040703}-1874.o(StubCode)
    theImportedSymbol                        0x0000aaa0   Data           0  QtCore{00040703}-1874.o(StubCode)
    StubCode                                 0x0000aaa4   Section        8  QtCore{00040703}-1885.o(StubCode)
    theImportedSymbol                        0x0000aaa8   Data           0  QtCore{00040703}-1885.o(StubCode)
    StubCode                                 0x0000aaac   Section        8  QtCore{00040703}-2082.o(StubCode)
    theImportedSymbol                        0x0000aab0   Data           0  QtCore{00040703}-2082.o(StubCode)
    StubCode                                 0x0000aab4   Section        8  QtCore{00040703}-2134.o(StubCode)
    theImportedSymbol                        0x0000aab8   Data           0  QtCore{00040703}-2134.o(StubCode)
    StubCode                                 0x0000aabc   Section        8  QtCore{00040703}-2141.o(StubCode)
    theImportedSymbol                        0x0000aac0   Data           0  QtCore{00040703}-2141.o(StubCode)
    StubCode                                 0x0000aac4   Section        8  QtCore{00040703}-2143.o(StubCode)
    theImportedSymbol                        0x0000aac8   Data           0  QtCore{00040703}-2143.o(StubCode)
    StubCode                                 0x0000aacc   Section        8  QtCore{00040703}-2188.o(StubCode)
    theImportedSymbol                        0x0000aad0   Data           0  QtCore{00040703}-2188.o(StubCode)
    StubCode                                 0x0000aad4   Section        8  QtCore{00040703}-2191.o(StubCode)
    theImportedSymbol                        0x0000aad8   Data           0  QtCore{00040703}-2191.o(StubCode)
    StubCode                                 0x0000aadc   Section        8  QtCore{00040703}-2197.o(StubCode)
    theImportedSymbol                        0x0000aae0   Data           0  QtCore{00040703}-2197.o(StubCode)
    StubCode                                 0x0000aae4   Section        8  QtCore{00040703}-2199.o(StubCode)
    theImportedSymbol                        0x0000aae8   Data           0  QtCore{00040703}-2199.o(StubCode)
    StubCode                                 0x0000aaec   Section        8  QtCore{00040703}-2261.o(StubCode)
    theImportedSymbol                        0x0000aaf0   Data           0  QtCore{00040703}-2261.o(StubCode)
    StubCode                                 0x0000aaf4   Section        8  QtCore{00040703}-2272.o(StubCode)
    theImportedSymbol                        0x0000aaf8   Data           0  QtCore{00040703}-2272.o(StubCode)
    StubCode                                 0x0000aafc   Section        8  QtCore{00040703}-2404.o(StubCode)
    theImportedSymbol                        0x0000ab00   Data           0  QtCore{00040703}-2404.o(StubCode)
    StubCode                                 0x0000ab04   Section        8  QtCore{00040703}-2406.o(StubCode)
    theImportedSymbol                        0x0000ab08   Data           0  QtCore{00040703}-2406.o(StubCode)
    StubCode                                 0x0000ab0c   Section        8  QtCore{00040703}-2422.o(StubCode)
    theImportedSymbol                        0x0000ab10   Data           0  QtCore{00040703}-2422.o(StubCode)
    StubCode                                 0x0000ab14   Section        8  QtCore{00040703}-2500.o(StubCode)
    theImportedSymbol                        0x0000ab18   Data           0  QtCore{00040703}-2500.o(StubCode)
    StubCode                                 0x0000ab1c   Section        8  QtCore{00040703}-2510.o(StubCode)
    theImportedSymbol                        0x0000ab20   Data           0  QtCore{00040703}-2510.o(StubCode)
    StubCode                                 0x0000ab24   Section        8  QtCore{00040703}-2511.o(StubCode)
    theImportedSymbol                        0x0000ab28   Data           0  QtCore{00040703}-2511.o(StubCode)
    StubCode                                 0x0000ab2c   Section        8  QtCore{00040703}-2791.o(StubCode)
    theImportedSymbol                        0x0000ab30   Data           0  QtCore{00040703}-2791.o(StubCode)
    StubCode                                 0x0000ab34   Section        8  QtCore{00040703}-2795.o(StubCode)
    theImportedSymbol                        0x0000ab38   Data           0  QtCore{00040703}-2795.o(StubCode)
    StubCode                                 0x0000ab3c   Section        8  QtCore{00040703}-2797.o(StubCode)
    theImportedSymbol                        0x0000ab40   Data           0  QtCore{00040703}-2797.o(StubCode)
    StubCode                                 0x0000ab44   Section        8  QtCore{00040703}-2810.o(StubCode)
    theImportedSymbol                        0x0000ab48   Data           0  QtCore{00040703}-2810.o(StubCode)
    StubCode                                 0x0000ab4c   Section        8  QtCore{00040703}-2811.o(StubCode)
    theImportedSymbol                        0x0000ab50   Data           0  QtCore{00040703}-2811.o(StubCode)
    StubCode                                 0x0000ab54   Section        8  QtCore{00040703}-282.o(StubCode)
    theImportedSymbol                        0x0000ab58   Data           0  QtCore{00040703}-282.o(StubCode)
    StubCode                                 0x0000ab5c   Section        8  QtCore{00040703}-3040.o(StubCode)
    theImportedSymbol                        0x0000ab60   Data           0  QtCore{00040703}-3040.o(StubCode)
    StubCode                                 0x0000ab64   Section        8  QtCore{00040703}-3049.o(StubCode)
    theImportedSymbol                        0x0000ab68   Data           0  QtCore{00040703}-3049.o(StubCode)
    StubCode                                 0x0000ab6c   Section        8  QtCore{00040703}-3064.o(StubCode)
    theImportedSymbol                        0x0000ab70   Data           0  QtCore{00040703}-3064.o(StubCode)
    StubCode                                 0x0000ab74   Section        8  QtCore{00040703}-3088.o(StubCode)
    theImportedSymbol                        0x0000ab78   Data           0  QtCore{00040703}-3088.o(StubCode)
    StubCode                                 0x0000ab7c   Section        8  QtCore{00040703}-3098.o(StubCode)
    theImportedSymbol                        0x0000ab80   Data           0  QtCore{00040703}-3098.o(StubCode)
    StubCode                                 0x0000ab84   Section        8  QtCore{00040703}-312.o(StubCode)
    theImportedSymbol                        0x0000ab88   Data           0  QtCore{00040703}-312.o(StubCode)
    StubCode                                 0x0000ab8c   Section        8  QtCore{00040703}-3133.o(StubCode)
    theImportedSymbol                        0x0000ab90   Data           0  QtCore{00040703}-3133.o(StubCode)
    StubCode                                 0x0000ab94   Section        8  QtCore{00040703}-3142.o(StubCode)
    theImportedSymbol                        0x0000ab98   Data           0  QtCore{00040703}-3142.o(StubCode)
    StubCode                                 0x0000ab9c   Section        8  QtCore{00040703}-32.o(StubCode)
    theImportedSymbol                        0x0000aba0   Data           0  QtCore{00040703}-32.o(StubCode)
    StubCode                                 0x0000aba4   Section        8  QtCore{00040703}-324.o(StubCode)
    theImportedSymbol                        0x0000aba8   Data           0  QtCore{00040703}-324.o(StubCode)
    StubCode                                 0x0000abac   Section        8  QtCore{00040703}-3282.o(StubCode)
    theImportedSymbol                        0x0000abb0   Data           0  QtCore{00040703}-3282.o(StubCode)
    StubCode                                 0x0000abb4   Section        8  QtCore{00040703}-331.o(StubCode)
    theImportedSymbol                        0x0000abb8   Data           0  QtCore{00040703}-331.o(StubCode)
    StubCode                                 0x0000abbc   Section        8  QtCore{00040703}-332.o(StubCode)
    theImportedSymbol                        0x0000abc0   Data           0  QtCore{00040703}-332.o(StubCode)
    StubCode                                 0x0000abc4   Section        8  QtCore{00040703}-335.o(StubCode)
    theImportedSymbol                        0x0000abc8   Data           0  QtCore{00040703}-335.o(StubCode)
    StubCode                                 0x0000abcc   Section        8  QtCore{00040703}-3609.o(StubCode)
    theImportedSymbol                        0x0000abd0   Data           0  QtCore{00040703}-3609.o(StubCode)
    StubCode                                 0x0000abd4   Section        8  QtCore{00040703}-3610.o(StubCode)
    theImportedSymbol                        0x0000abd8   Data           0  QtCore{00040703}-3610.o(StubCode)
    StubCode                                 0x0000abdc   Section        8  QtCore{00040703}-3689.o(StubCode)
    theImportedSymbol                        0x0000abe0   Data           0  QtCore{00040703}-3689.o(StubCode)
    StubCode                                 0x0000abe4   Section        8  QtCore{00040703}-3691.o(StubCode)
    theImportedSymbol                        0x0000abe8   Data           0  QtCore{00040703}-3691.o(StubCode)
    StubCode                                 0x0000abec   Section        8  QtCore{00040703}-3692.o(StubCode)
    theImportedSymbol                        0x0000abf0   Data           0  QtCore{00040703}-3692.o(StubCode)
    StubCode                                 0x0000abf4   Section        8  QtCore{00040703}-46.o(StubCode)
    theImportedSymbol                        0x0000abf8   Data           0  QtCore{00040703}-46.o(StubCode)
    StubCode                                 0x0000abfc   Section        8  QtCore{00040703}-498.o(StubCode)
    theImportedSymbol                        0x0000ac00   Data           0  QtCore{00040703}-498.o(StubCode)
    StubCode                                 0x0000ac04   Section        8  QtCore{00040703}-499.o(StubCode)
    theImportedSymbol                        0x0000ac08   Data           0  QtCore{00040703}-499.o(StubCode)
    StubCode                                 0x0000ac0c   Section        8  QtCore{00040703}-501.o(StubCode)
    theImportedSymbol                        0x0000ac10   Data           0  QtCore{00040703}-501.o(StubCode)
    StubCode                                 0x0000ac14   Section        8  QtCore{00040703}-56.o(StubCode)
    theImportedSymbol                        0x0000ac18   Data           0  QtCore{00040703}-56.o(StubCode)
    StubCode                                 0x0000ac1c   Section        8  QtCore{00040703}-70.o(StubCode)
    theImportedSymbol                        0x0000ac20   Data           0  QtCore{00040703}-70.o(StubCode)
    StubCode                                 0x0000ac24   Section        8  QtCore{00040703}-71.o(StubCode)
    theImportedSymbol                        0x0000ac28   Data           0  QtCore{00040703}-71.o(StubCode)
    StubCode                                 0x0000ac2c   Section        8  QtCore{00040703}-73.o(StubCode)
    theImportedSymbol                        0x0000ac30   Data           0  QtCore{00040703}-73.o(StubCode)
    StubCode                                 0x0000ac34   Section        8  QtCore{00040703}-753.o(StubCode)
    theImportedSymbol                        0x0000ac38   Data           0  QtCore{00040703}-753.o(StubCode)
    StubCode                                 0x0000ac3c   Section        8  QtCore{00040703}-772.o(StubCode)
    theImportedSymbol                        0x0000ac40   Data           0  QtCore{00040703}-772.o(StubCode)
    StubCode                                 0x0000ac44   Section        8  libc{00010000}-232.o(StubCode)
    theImportedSymbol                        0x0000ac48   Data           0  libc{00010000}-232.o(StubCode)
    StubCode                                 0x0000ac4c   Section        8  libc{00010000}-350.o(StubCode)
    theImportedSymbol                        0x0000ac50   Data           0  libc{00010000}-350.o(StubCode)
    StubCode                                 0x0000ac54   Section        8  euser{000a0000}-1170.o(StubCode)
    theImportedSymbol                        0x0000ac58   Data           0  euser{000a0000}-1170.o(StubCode)
    StubCode                                 0x0000ac5c   Section        8  euser{000a0000}-120.o(StubCode)
    theImportedSymbol                        0x0000ac60   Data           0  euser{000a0000}-120.o(StubCode)
    StubCode                                 0x0000ac64   Section        8  euser{000a0000}-670.o(StubCode)
    theImportedSymbol                        0x0000ac68   Data           0  euser{000a0000}-670.o(StubCode)
    StubCode                                 0x0000ac6c   Section        8  euser{000a0000}-671.o(StubCode)
    theImportedSymbol                        0x0000ac70   Data           0  euser{000a0000}-671.o(StubCode)
    StubCode                                 0x0000ac74   Section        8  dfpaeabi{000a0000}-25.o(StubCode)
    theImportedSymbol                        0x0000ac78   Data           0  dfpaeabi{000a0000}-25.o(StubCode)
    StubCode                                 0x0000ac7c   Section        8  drtaeabi{000a0000}-147.o(StubCode)
    theImportedSymbol                        0x0000ac80   Data           0  drtaeabi{000a0000}-147.o(StubCode)
    StubCode                                 0x0000ac84   Section        8  drtaeabi{000a0000}-155.o(StubCode)
    theImportedSymbol                        0x0000ac88   Data           0  drtaeabi{000a0000}-155.o(StubCode)
    StubCode                                 0x0000ac8c   Section        8  drtaeabi{000a0000}-158.o(StubCode)
    theImportedSymbol                        0x0000ac90   Data           0  drtaeabi{000a0000}-158.o(StubCode)
    StubCode                                 0x0000ac94   Section        8  drtaeabi{000a0000}-180.o(StubCode)
    theImportedSymbol                        0x0000ac98   Data           0  drtaeabi{000a0000}-180.o(StubCode)
    StubCode                                 0x0000ac9c   Section        8  drtaeabi{000a0000}-183.o(StubCode)
    theImportedSymbol                        0x0000aca0   Data           0  drtaeabi{000a0000}-183.o(StubCode)
    StubCode                                 0x0000aca4   Section        8  drtaeabi{000a0000}-184.o(StubCode)
    theImportedSymbol                        0x0000aca8   Data           0  drtaeabi{000a0000}-184.o(StubCode)
    StubCode                                 0x0000acac   Section        8  drtaeabi{000a0000}-186.o(StubCode)
    theImportedSymbol                        0x0000acb0   Data           0  drtaeabi{000a0000}-186.o(StubCode)
    StubCode                                 0x0000acb4   Section        8  drtaeabi{000a0000}-187.o(StubCode)
    theImportedSymbol                        0x0000acb8   Data           0  drtaeabi{000a0000}-187.o(StubCode)
    StubCode                                 0x0000acbc   Section        8  drtaeabi{000a0000}-188.o(StubCode)
    theImportedSymbol                        0x0000acc0   Data           0  drtaeabi{000a0000}-188.o(StubCode)
    StubCode                                 0x0000acc4   Section        8  drtaeabi{000a0000}-189.o(StubCode)
    theImportedSymbol                        0x0000acc8   Data           0  drtaeabi{000a0000}-189.o(StubCode)
    StubCode                                 0x0000accc   Section        8  drtaeabi{000a0000}-190.o(StubCode)
    theImportedSymbol                        0x0000acd0   Data           0  drtaeabi{000a0000}-190.o(StubCode)
    StubCode                                 0x0000acd4   Section        8  drtrvct2_2{000a0000}-28.o(StubCode)
    theImportedSymbol                        0x0000acd8   Data           0  drtrvct2_2{000a0000}-28.o(StubCode)
    i._Z8qWarningv                           0x0000acdc   Section       58  QtSensors.in(i._Z8qWarningv)
    i._Z8qWarningv.clean                     0x0000ad16   Section       18  QtSensors.in(i._Z8qWarningv.clean)
    i._ZN10QByteArrayC1ERKS_                 0x0000ad28   Section       16  QtSensors.in(i._ZN10QByteArrayC1ERKS_)
    i._ZN10QByteArrayC1Ev                    0x0000ad38   Section       20  QtSensors.in(i._ZN10QByteArrayC1Ev)
    i._ZN10QByteArrayD1Ev                    0x0000ad4c   Section       24  QtSensors.in(i._ZN10QByteArrayD1Ev)
    i._ZN10QtMobility10QTapSensorD0Ev        0x0000ad64   Section       16  QtSensors.in(i._ZN10QtMobility10QTapSensorD0Ev)
    i._ZN10QtMobility10QTapSensorD1Ev        0x0000ad74   Section        8  QtSensors.in(i._ZN10QtMobility10QTapSensorD1Ev)
    i._ZN10QtMobility13QMagnetometerD0Ev     0x0000ad7c   Section       16  QtSensors.in(i._ZN10QtMobility13QMagnetometerD0Ev)
    i._ZN10QtMobility13QMagnetometerD1Ev     0x0000ad8c   Section        8  QtSensors.in(i._ZN10QtMobility13QMagnetometerD1Ev)
    i._ZN10QtMobility14QAccelerometerD0Ev    0x0000ad94   Section       16  QtSensors.in(i._ZN10QtMobility14QAccelerometerD0Ev)
    i._ZN10QtMobility14QAccelerometerD1Ev    0x0000ada4   Section        8  QtSensors.in(i._ZN10QtMobility14QAccelerometerD1Ev)
    i._ZN10QtMobility14QSensorPrivateC1Ev    0x0000adac   Section      100  QtSensors.in(i._ZN10QtMobility14QSensorPrivateC1Ev)
    i._ZN10QtMobility14QSensorPrivateC1Ev.clean 0x0000ae10   Section       54  QtSensors.in(i._ZN10QtMobility14QSensorPrivateC1Ev.clean)
    i._ZN10QtMobility15QRotationSensorD0Ev   0x0000ae46   Section       16  QtSensors.in(i._ZN10QtMobility15QRotationSensorD0Ev)
    i._ZN10QtMobility15QRotationSensorD1Ev   0x0000ae56   Section        8  QtSensors.in(i._ZN10QtMobility15QRotationSensorD1Ev)
    i._ZN10QtMobility15mobilityPluginsERK7QString 0x0000ae60   Section      620  QtSensors.in(i._ZN10QtMobility15mobilityPluginsERK7QString)
    i._ZN10QtMobility15mobilityPluginsERK7QString.clean 0x0000b0cc   Section      108  QtSensors.in(i._ZN10QtMobility15mobilityPluginsERK7QString.clean)
    i._ZN10QtMobility16QProximitySensorD0Ev  0x0000b138   Section       16  QtSensors.in(i._ZN10QtMobility16QProximitySensorD0Ev)
    i._ZN10QtMobility16QProximitySensorD1Ev  0x0000b148   Section        8  QtSensors.in(i._ZN10QtMobility16QProximitySensorD1Ev)
    i._ZN10QtMobility18QOrientationSensorD0Ev 0x0000b150   Section       16  QtSensors.in(i._ZN10QtMobility18QOrientationSensorD0Ev)
    i._ZN10QtMobility18QOrientationSensorD1Ev 0x0000b160   Section        8  QtSensors.in(i._ZN10QtMobility18QOrientationSensorD1Ev)
    i._ZN10QtMobility19QAmbientLightSensorD0Ev 0x0000b168   Section       16  QtSensors.in(i._ZN10QtMobility19QAmbientLightSensorD0Ev)
    i._ZN10QtMobility19QAmbientLightSensorD1Ev 0x0000b178   Section        8  QtSensors.in(i._ZN10QtMobility19QAmbientLightSensorD1Ev)
    i._ZN10QtMobility21QSensorManagerPrivateD1Ev 0x0000b180   Section       32  QtSensors.in(i._ZN10QtMobility21QSensorManagerPrivateD1Ev)
    i._ZN10QtMobility21QSensorManagerPrivateD1Ev.clean 0x0000b1a0   Section       22  QtSensors.in(i._ZN10QtMobility21QSensorManagerPrivateD1Ev.clean)
    i._ZN10QtMobility8QCompassD0Ev           0x0000b1b6   Section       16  QtSensors.in(i._ZN10QtMobility8QCompassD0Ev)
    i._ZN10QtMobility8QCompassD1Ev           0x0000b1c6   Section        8  QtSensors.in(i._ZN10QtMobility8QCompassD1Ev)
    i._ZN11QStringListC1Ev                   0x0000b1d0   Section       20  QtSensors.in(i._ZN11QStringListC1Ev)
    i._ZN11QStringListD1Ev                   0x0000b1e4   Section        8  QtSensors.in(i._ZN11QStringListD1Ev)
    i._ZN15QBasicAtomicInt3refEv             0x0000b1ec   Section       18  QtSensors.in(i._ZN15QBasicAtomicInt3refEv)
    i._ZN15QBasicAtomicInt5derefEv           0x0000b1fe   Section       18  QtSensors.in(i._ZN15QBasicAtomicInt5derefEv)
    i._ZN17QForeachContainerI5QListI10QByteArrayEED1Ev 0x0000b210   Section        8  QtSensors.in(i._ZN17QForeachContainerI5QListI10QByteArrayEED1Ev)
    i._ZN17QForeachContainerI5QListIP13QPluginLoaderEED1Ev 0x0000b218   Section        8  QtSensors.in(i._ZN17QForeachContainerI5QListIP13QPluginLoaderEED1Ev)
    i._ZN17QForeachContainerI5QListIPFPN10QtMobility22QSensorPluginInterfaceEvEEED1Ev 0x0000b220   Section        8  QtSensors.in(i._ZN17QForeachContainerI5QListIPFPN10QtMobility22QSensorPluginInterfaceEvEEED1Ev)
    i._ZN17QForeachContainerI5QListIPN10QtMobility13QSensorFilterEEED1Ev 0x0000b228   Section        8  QtSensors.in(i._ZN17QForeachContainerI5QListIPN10QtMobility13QSensorFilterEEED1Ev)
    i._ZN17QForeachContainerI5QListIPN10QtMobility22QSensorPluginInterfaceEEED1Ev 0x0000b230   Section        8  QtSensors.in(i._ZN17QForeachContainerI5QListIPN10QtMobility22QSensorPluginInterfaceEEED1Ev)
    i._ZN4QSetI7QStringED1Ev                 0x0000b238   Section        8  QtSensors.in(i._ZN4QSetI7QStringED1Ev)
    i._ZN6QDebug10maybeSpaceEv               0x0000b240   Section       22  QtSensors.in(i._ZN6QDebug10maybeSpaceEv)
    i._ZN6QDebugD1Ev                         0x0000b256   Section      122  QtSensors.in(i._ZN6QDebugD1Ev)
    i._ZN6QDebugD1Ev.clean                   0x0000b2d0   Section       20  QtSensors.in(i._ZN6QDebugD1Ev.clean)
    i._ZN6QDebuglsEPKc                       0x0000b2e4   Section       36  QtSensors.in(i._ZN6QDebuglsEPKc)
    i._ZN6QDebuglsEPKc.clean                 0x0000b308   Section       10  QtSensors.in(i._ZN6QDebuglsEPKc.clean)
    i._ZN6QDebuglsERK7QString                0x0000b312   Section       34  QtSensors.in(i._ZN6QDebuglsERK7QString)
    i._ZN6QDebuglsEi                         0x0000b334   Section       18  QtSensors.in(i._ZN6QDebuglsEi)
    i._ZN7QStringC1ERK13QLatin1String        0x0000b346   Section       20  QtSensors.in(i._ZN7QStringC1ERK13QLatin1String)
    i._ZN7QStringC1ERKS_                     0x0000b35a   Section       16  QtSensors.in(i._ZN7QStringC1ERKS_)
    i._ZN7QStringC1Ev                        0x0000b36c   Section       20  QtSensors.in(i._ZN7QStringC1Ev)
    i._ZN7QStringD1Ev                        0x0000b380   Section       24  QtSensors.in(i._ZN7QStringD1Ev)
    i._ZN9QHashData8willGrowEv               0x0000b398   Section       28  QtSensors.in(i._ZN9QHashData8willGrowEv)
    i._ZN9QHashData9firstNodeEv              0x0000b3b4   Section       24  QtSensors.in(i._ZN9QHashData9firstNodeEv)
    i._ZNK15QBasicAtomicIntneEi              0x0000b3cc   Section       14  QtSensors.in(i._ZNK15QBasicAtomicIntneEi)
    i._ZNK15QBasicAtomicIntntEv              0x0000b3da   Section       14  QtSensors.in(i._ZNK15QBasicAtomicIntntEv)
    i._ZNK9QListData2atEi                    0x0000b3e8   Section       16  QtSensors.in(i._ZNK9QListData2atEi)
    i._ZNK9QListData3endEv                   0x0000b3f8   Section       12  QtSensors.in(i._ZNK9QListData3endEv)
    i._ZNK9QListData4sizeEv                  0x0000b404   Section       10  QtSensors.in(i._ZNK9QListData4sizeEv)
    i._ZNK9QListData5beginEv                 0x0000b40e   Section       12  QtSensors.in(i._ZNK9QListData5beginEv)
    i._ZdlPvS_                               0x0000b41a   Section        2  QtSensors.in(i._ZdlPvS_)
    i._ZeqRK10QByteArrayS1_                  0x0000b41c   Section       34  QtSensors.in(i._ZeqRK10QByteArrayS1_)
    i._ZnwjPv                                0x0000b43e   Section        4  QtSensors.in(i._ZnwjPv)
    t._Z17qRegisterMetaTypeI5QListI5QPairIiiEEEiPKcPT_ 0x0000b444   Section      100  QtSensors.in(t._Z17qRegisterMetaTypeI5QListI5QPairIiiEEEiPKcPT_)
    t._Z17qRegisterMetaTypeI5QListIN10QtMobility12qoutputrangeEEEiPKcPT_ 0x0000b4a8   Section      108  QtSensors.in(t._Z17qRegisterMetaTypeI5QListIN10QtMobility12qoutputrangeEEEiPKcPT_)
    t._Z17qRegisterMetaTypeI5QPairIiiEEiPKcPT_ 0x0000b514   Section       96  QtSensors.in(t._Z17qRegisterMetaTypeI5QPairIiiEEiPKcPT_)
    t._Z17qRegisterMetaTypeIN10QtMobility10qtimestampEEiPKcPT_ 0x0000b574   Section      100  QtSensors.in(t._Z17qRegisterMetaTypeIN10QtMobility10qtimestampEEiPKcPT_)
    t._Z20qForeachContainerNewI5QListIPN10QtMobility22QSensorPluginInterfaceEEE17QForeachContainerIT_ERKS6_ 0x0000b5d8   Section       46  QtSensors.in(t._Z20qForeachContainerNewI5QListIPN10QtMobility22QSensorPluginInterfaceEEE17QForeachContainerIT_ERKS6_)
    t._Z20qForeachContainerNewI5QListIPN10QtMobility22QSensorPluginInterfaceEEE17QForeachContainerIT_ERKS6_.clean 0x0000b606   Section       10  QtSensors.in(t._Z20qForeachContainerNewI5QListIPN10QtMobility22QSensorPluginInterfaceEEE17QForeachContainerIT_ERKS6_.clean)
    t._Z21qMetaTypeDeleteHelperI5QListI5QPairIiiEEEvPT_ 0x0000b610   Section       16  QtSensors.in(t._Z21qMetaTypeDeleteHelperI5QListI5QPairIiiEEEvPT_)
    t._Z21qMetaTypeDeleteHelperI5QListIN10QtMobility12qoutputrangeEEEvPT_ 0x0000b620   Section       16  QtSensors.in(t._Z21qMetaTypeDeleteHelperI5QListIN10QtMobility12qoutputrangeEEEvPT_)
    t._Z21qMetaTypeDeleteHelperI5QPairIiiEEvPT_ 0x0000b630   Section        8  QtSensors.in(t._Z21qMetaTypeDeleteHelperI5QPairIiiEEvPT_)
    t._Z21qMetaTypeDeleteHelperIN10QtMobility10qtimestampEEvPT_ 0x0000b638   Section        8  QtSensors.in(t._Z21qMetaTypeDeleteHelperIN10QtMobility10qtimestampEEvPT_)
    t._Z24qMetaTypeConstructHelperI5QListI5QPairIiiEEEPvPKT_ 0x0000b640   Section       48  QtSensors.in(t._Z24qMetaTypeConstructHelperI5QListI5QPairIiiEEEPvPKT_)
    t._Z24qMetaTypeConstructHelperI5QListI5QPairIiiEEEPvPKT_.clean 0x0000b670   Section       16  QtSensors.in(t._Z24qMetaTypeConstructHelperI5QListI5QPairIiiEEEPvPKT_.clean)
    t._Z24qMetaTypeConstructHelperI5QListIN10QtMobility12qoutputrangeEEEPvPKT_ 0x0000b680   Section       48  QtSensors.in(t._Z24qMetaTypeConstructHelperI5QListIN10QtMobility12qoutputrangeEEEPvPKT_)
    t._Z24qMetaTypeConstructHelperI5QListIN10QtMobility12qoutputrangeEEEPvPKT_.clean 0x0000b6b0   Section       16  QtSensors.in(t._Z24qMetaTypeConstructHelperI5QListIN10QtMobility12qoutputrangeEEEPvPKT_.clean)
    t._Z24qMetaTypeConstructHelperI5QPairIiiEEPvPKT_ 0x0000b6c0   Section       46  QtSensors.in(t._Z24qMetaTypeConstructHelperI5QPairIiiEEPvPKT_)
    t._Z24qMetaTypeConstructHelperIN10QtMobility10qtimestampEEPvPKT_ 0x0000b6ee   Section       46  QtSensors.in(t._Z24qMetaTypeConstructHelperIN10QtMobility10qtimestampEEPvPKT_)
    t._ZN14QHashDummyNodeI7QString15QHashDummyValueEC1ERKS0_ 0x0000b71c   Section       12  QtSensors.in(t._ZN14QHashDummyNodeI7QString15QHashDummyValueEC1ERKS0_)
    t._ZN14QScopedPointerIN10QtMobility14QSensorPrivateE21QScopedPointerDeleterIS1_EED1Ev 0x0000b728   Section       82  QtSensors.in(t._ZN14QScopedPointerIN10QtMobility14QSensorPrivateE21QScopedPointerDeleterIS1_EED1Ev)
    t._ZN14QScopedPointerIN10QtMobility14QSensorPrivateE21QScopedPointerDeleterIS1_EED1Ev.clean 0x0000b77a   Section       54  QtSensors.in(t._ZN14QScopedPointerIN10QtMobility14QSensorPrivateE21QScopedPointerDeleterIS1_EED1Ev.clean)
    t._ZN14QScopedPointerIN10QtMobility18QTapReadingPrivateE21QScopedPointerDeleterIS1_EED1Ev 0x0000b7b0   Section       18  QtSensors.in(t._ZN14QScopedPointerIN10QtMobility18QTapReadingPrivateE21QScopedPointerDeleterIS1_EED1Ev)
    t._ZN14QScopedPointerIN10QtMobility21QSensorReadingPrivateE21QScopedPointerDeleterIS1_EED1Ev 0x0000b7c2   Section       18  QtSensors.in(t._ZN14QScopedPointerIN10QtMobility21QSensorReadingPrivateE21QScopedPointerDeleterIS1_EED1Ev)
    t._ZN14QScopedPointerIN10QtMobility22QCompassReadingPrivateE21QScopedPointerDeleterIS1_EED1Ev 0x0000b7d4   Section       18  QtSensors.in(t._ZN14QScopedPointerIN10QtMobility22QCompassReadingPrivateE21QScopedPointerDeleterIS1_EED1Ev)
    t._ZN14QScopedPointerIN10QtMobility23QRotationReadingPrivateE21QScopedPointerDeleterIS1_EED1Ev 0x0000b7e6   Section       18  QtSensors.in(t._ZN14QScopedPointerIN10QtMobility23QRotationReadingPrivateE21QScopedPointerDeleterIS1_EED1Ev)
    t._ZN14QScopedPointerIN10QtMobility24QProximityReadingPrivateE21QScopedPointerDeleterIS1_EED1Ev 0x0000b7f8   Section       18  QtSensors.in(t._ZN14QScopedPointerIN10QtMobility24QProximityReadingPrivateE21QScopedPointerDeleterIS1_EED1Ev)
    t._ZN14QScopedPointerIN10QtMobility26QOrientationReadingPrivateE21QScopedPointerDeleterIS1_EED1Ev 0x0000b80a   Section       18  QtSensors.in(t._ZN14QScopedPointerIN10QtMobility26QOrientationReadingPrivateE21QScopedPointerDeleterIS1_EED1Ev)
    t._ZN14QScopedPointerIN10QtMobility27QAmbientLightReadingPrivateE21QScopedPointerDeleterIS1_EED1Ev 0x0000b81c   Section       18  QtSensors.in(t._ZN14QScopedPointerIN10QtMobility27QAmbientLightReadingPrivateE21QScopedPointerDeleterIS1_EED1Ev)
    t._ZN14QScopedPointerIN10QtMobility27QMagnetometerReadingPrivateE21QScopedPointerDeleterIS1_EED1Ev 0x0000b82e   Section       18  QtSensors.in(t._ZN14QScopedPointerIN10QtMobility27QMagnetometerReadingPrivateE21QScopedPointerDeleterIS1_EED1Ev)
    t._ZN14QScopedPointerIN10QtMobility28QAccelerometerReadingPrivateE21QScopedPointerDeleterIS1_EED1Ev 0x0000b840   Section       18  QtSensors.in(t._ZN14QScopedPointerIN10QtMobility28QAccelerometerReadingPrivateE21QScopedPointerDeleterIS1_EED1Ev)
    t._ZN20QGlobalStaticDeleterIN10QtMobility19QSensorPluginLoaderEED1Ev 0x0000b852   Section       36  QtSensors.in(t._ZN20QGlobalStaticDeleterIN10QtMobility19QSensorPluginLoaderEED1Ev)
    t._ZN20QGlobalStaticDeleterIN10QtMobility21QSensorManagerPrivateEED1Ev 0x0000b876   Section       36  QtSensors.in(t._ZN20QGlobalStaticDeleterIN10QtMobility21QSensorManagerPrivateEED1Ev)
    t._ZN4QSetI7QStringE6insertERKS0_        0x0000b89a   Section       22  QtSensors.in(t._ZN4QSetI7QStringE6insertERKS0_)
    t._ZN5QHashI10QByteArrayPN10QtMobility21QSensorBackendFactoryEE11deleteNode2EPN9QHashData4NodeE 0x0000b8b0   Section       10  QtSensors.in(t._ZN5QHashI10QByteArrayPN10QtMobility21QSensorBackendFactoryEE11deleteNode2EPN9QHashData4NodeE)
    t._ZN5QHashI10QByteArrayPN10QtMobility21QSensorBackendFactoryEE13duplicateNodeEPN9QHashData4NodeEPv 0x0000b8ba   Section       30  QtSensors.in(t._ZN5QHashI10QByteArrayPN10QtMobility21QSensorBackendFactoryEE13duplicateNodeEPN9QHashData4NodeEPv)
    t._ZN5QHashI10QByteArrayPN10QtMobility21QSensorBackendFactoryEE13duplicateNodeEPN9QHashData4NodeEPv.clean 0x0000b8d8   Section       12  QtSensors.in(t._ZN5QHashI10QByteArrayPN10QtMobility21QSensorBackendFactoryEE13duplicateNodeEPN9QHashData4NodeEPv.clean)
    t._ZN5QHashI10QByteArrayPN10QtMobility21QSensorBackendFactoryEE6detachEv 0x0000b8e4   Section       68  QtSensors.in(t._ZN5QHashI10QByteArrayPN10QtMobility21QSensorBackendFactoryEE6detachEv)
    t._ZN5QHashI10QByteArrayPN10QtMobility21QSensorBackendFactoryEE8freeDataEP9QHashData 0x0000b928   Section       16  QtSensors.in(t._ZN5QHashI10QByteArrayPN10QtMobility21QSensorBackendFactoryEE8freeDataEP9QHashData)
    t._ZN5QHashI10QByteArrayPN10QtMobility21QSensorBackendFactoryEED1Ev 0x0000b938   Section       28  QtSensors.in(t._ZN5QHashI10QByteArrayPN10QtMobility21QSensorBackendFactoryEED1Ev)
    t._ZN5QHashI10QByteArrayPN10QtMobility21QSensorBackendFactoryEEixERKS0_ 0x0000b954   Section      114  QtSensors.in(t._ZN5QHashI10QByteArrayPN10QtMobility21QSensorBackendFactoryEEixERKS0_)
    t._ZN5QHashI10QByteArrayPN10QtMobility21QSensorBackendFactoryEEixERKS0_.clean 0x0000b9c6   Section       12  QtSensors.in(t._ZN5QHashI10QByteArrayPN10QtMobility21QSensorBackendFactoryEEixERKS0_.clean)
    t._ZN5QHashI10QByteArrayS0_E11deleteNode2EPN9QHashData4NodeE 0x0000b9d2   Section       18  QtSensors.in(t._ZN5QHashI10QByteArrayS0_E11deleteNode2EPN9QHashData4NodeE)
    t._ZN5QHashI10QByteArrayS0_E11deleteNode2EPN9QHashData4NodeE.clean 0x0000b9e4   Section       12  QtSensors.in(t._ZN5QHashI10QByteArrayS0_E11deleteNode2EPN9QHashData4NodeE.clean)
    t._ZN5QHashI10QByteArrayS0_E13duplicateNodeEPN9QHashData4NodeEPv 0x0000b9f0   Section       30  QtSensors.in(t._ZN5QHashI10QByteArrayS0_E13duplicateNodeEPN9QHashData4NodeEPv)
    t._ZN5QHashI10QByteArrayS0_E13duplicateNodeEPN9QHashData4NodeEPv.clean 0x0000ba0e   Section       12  QtSensors.in(t._ZN5QHashI10QByteArrayS0_E13duplicateNodeEPN9QHashData4NodeEPv.clean)
    t._ZN5QHashI10QByteArrayS0_E8freeDataEP9QHashData 0x0000ba1c   Section       16  QtSensors.in(t._ZN5QHashI10QByteArrayS0_E8freeDataEP9QHashData)
    t._ZN5QHashI10QByteArrayS0_ED1Ev         0x0000ba2c   Section       28  QtSensors.in(t._ZN5QHashI10QByteArrayS0_ED1Ev)
    t._ZN5QHashI10QByteArrayS0_EixERKS0_     0x0000ba48   Section      192  QtSensors.in(t._ZN5QHashI10QByteArrayS0_EixERKS0_)
    t._ZN5QHashI10QByteArrayS0_EixERKS0_.clean 0x0000bb08   Section       20  QtSensors.in(t._ZN5QHashI10QByteArrayS0_EixERKS0_.clean)
    t._ZN5QHashI10QByteArrayS_IS0_PN10QtMobility21QSensorBackendFactoryEEE11deleteNode2EPN9QHashData4NodeE 0x0000bb1c   Section       18  QtSensors.in(t._ZN5QHashI10QByteArrayS_IS0_PN10QtMobility21QSensorBackendFactoryEEE11deleteNode2EPN9QHashData4NodeE)
    t._ZN5QHashI10QByteArrayS_IS0_PN10QtMobility21QSensorBackendFactoryEEE11deleteNode2EPN9QHashData4NodeE.clean 0x0000bb2e   Section       12  QtSensors.in(t._ZN5QHashI10QByteArrayS_IS0_PN10QtMobility21QSensorBackendFactoryEEE11deleteNode2EPN9QHashData4NodeE.clean)
    t._ZN5QHashI10QByteArrayS_IS0_PN10QtMobility21QSensorBackendFactoryEEE13duplicateNodeEPN9QHashData4NodeEPv 0x0000bb3a   Section       30  QtSensors.in(t._ZN5QHashI10QByteArrayS_IS0_PN10QtMobility21QSensorBackendFactoryEEE13duplicateNodeEPN9QHashData4NodeEPv)
    t._ZN5QHashI10QByteArrayS_IS0_PN10QtMobility21QSensorBackendFactoryEEE13duplicateNodeEPN9QHashData4NodeEPv.clean 0x0000bb58   Section       12  QtSensors.in(t._ZN5QHashI10QByteArrayS_IS0_PN10QtMobility21QSensorBackendFactoryEEE13duplicateNodeEPN9QHashData4NodeEPv.clean)
    t._ZN5QHashI10QByteArrayS_IS0_PN10QtMobility21QSensorBackendFactoryEEE8freeDataEP9QHashData 0x0000bb64   Section       16  QtSensors.in(t._ZN5QHashI10QByteArrayS_IS0_PN10QtMobility21QSensorBackendFactoryEEE8freeDataEP9QHashData)
    t._ZN5QHashI10QByteArrayS_IS0_PN10QtMobility21QSensorBackendFactoryEEED1Ev 0x0000bb74   Section       28  QtSensors.in(t._ZN5QHashI10QByteArrayS_IS0_PN10QtMobility21QSensorBackendFactoryEEED1Ev)
    t._ZN5QHashI10QByteArrayS_IS0_PN10QtMobility21QSensorBackendFactoryEEEixERKS0_ 0x0000bb90   Section      204  QtSensors.in(t._ZN5QHashI10QByteArrayS_IS0_PN10QtMobility21QSensorBackendFactoryEEEixERKS0_)
    t._ZN5QHashI10QByteArrayS_IS0_PN10QtMobility21QSensorBackendFactoryEEEixERKS0_.clean 0x0000bc5c   Section       20  QtSensors.in(t._ZN5QHashI10QByteArrayS_IS0_PN10QtMobility21QSensorBackendFactoryEEEixERKS0_.clean)
    t._ZN5QHashI7QString15QHashDummyValueE11deleteNode2EPN9QHashData4NodeE 0x0000bc70   Section       10  QtSensors.in(t._ZN5QHashI7QString15QHashDummyValueE11deleteNode2EPN9QHashData4NodeE)
    t._ZN5QHashI7QString15QHashDummyValueE13duplicateNodeEPN9QHashData4NodeEPv 0x0000bc7a   Section       28  QtSensors.in(t._ZN5QHashI7QString15QHashDummyValueE13duplicateNodeEPN9QHashData4NodeEPv)
    t._ZN5QHashI7QString15QHashDummyValueE13duplicateNodeEPN9QHashData4NodeEPv.clean 0x0000bc96   Section       12  QtSensors.in(t._ZN5QHashI7QString15QHashDummyValueE13duplicateNodeEPN9QHashData4NodeEPv.clean)
    t._ZN5QHashI7QString15QHashDummyValueE6insertERKS0_RKS1_ 0x0000bca4   Section      180  QtSensors.in(t._ZN5QHashI7QString15QHashDummyValueE6insertERKS0_RKS1_)
    t._ZN5QHashI7QString15QHashDummyValueE6insertERKS0_RKS1_.clean 0x0000bd58   Section       12  QtSensors.in(t._ZN5QHashI7QString15QHashDummyValueE6insertERKS0_RKS1_.clean)
    t._ZN5QHashI7QString15QHashDummyValueE8freeDataEP9QHashData 0x0000bd64   Section       16  QtSensors.in(t._ZN5QHashI7QString15QHashDummyValueE8freeDataEP9QHashData)
    t._ZN5QHashI7QString15QHashDummyValueED1Ev 0x0000bd74   Section       28  QtSensors.in(t._ZN5QHashI7QString15QHashDummyValueED1Ev)
    t._ZN5QListI10QByteArrayE13detach_helperEi 0x0000bd90   Section       86  QtSensors.in(t._ZN5QListI10QByteArrayE13detach_helperEi)
    t._ZN5QListI10QByteArrayE13detach_helperEi.clean 0x0000bde6   Section        8  QtSensors.in(t._ZN5QListI10QByteArrayE13detach_helperEi.clean)
    t._ZN5QListI10QByteArrayE14node_constructEPNS1_4NodeERKS0_ 0x0000bdee   Section       26  QtSensors.in(t._ZN5QListI10QByteArrayE14node_constructEPNS1_4NodeERKS0_)
    t._ZN5QListI10QByteArrayE14node_constructEPNS1_4NodeERKS0_.clean 0x0000be08   Section       12  QtSensors.in(t._ZN5QListI10QByteArrayE14node_constructEPNS1_4NodeERKS0_.clean)
    t._ZN5QListI10QByteArrayE18detach_helper_growEii 0x0000be14   Section      186  QtSensors.in(t._ZN5QListI10QByteArrayE18detach_helper_growEii)
    t._ZN5QListI10QByteArrayE18detach_helper_growEii.clean 0x0000bece   Section        8  QtSensors.in(t._ZN5QListI10QByteArrayE18detach_helper_growEii.clean)
    t._ZN5QListI10QByteArrayE4freeEPN9QListData4DataE 0x0000bed6   Section       48  QtSensors.in(t._ZN5QListI10QByteArrayE4freeEPN9QListData4DataE)
    t._ZN5QListI10QByteArrayE6appendERKS0_   0x0000bf08   Section      100  QtSensors.in(t._ZN5QListI10QByteArrayE6appendERKS0_)
    t._ZN5QListI10QByteArrayE6appendERKS0_.clean 0x0000bf6c   Section        8  QtSensors.in(t._ZN5QListI10QByteArrayE6appendERKS0_.clean)
    t._ZN5QListI10QByteArrayE7reserveEi      0x0000bf74   Section       44  QtSensors.in(t._ZN5QListI10QByteArrayE7reserveEi)
    t._ZN5QListI10QByteArrayE9node_copyEPNS1_4NodeES3_S3_ 0x0000bfa0   Section       70  QtSensors.in(t._ZN5QListI10QByteArrayE9node_copyEPNS1_4NodeES3_S3_)
    t._ZN5QListI10QByteArrayE9node_copyEPNS1_4NodeES3_S3_.clean 0x0000bfe6   Section       22  QtSensors.in(t._ZN5QListI10QByteArrayE9node_copyEPNS1_4NodeES3_S3_.clean)
    t._ZN5QListI10QByteArrayEC1Ev            0x0000bffc   Section       20  QtSensors.in(t._ZN5QListI10QByteArrayEC1Ev)
    t._ZN5QListI10QByteArrayED1Ev            0x0000c010   Section       30  QtSensors.in(t._ZN5QListI10QByteArrayED1Ev)
    t._ZN5QListI5QPairIiiEE13detach_helperEi 0x0000c02e   Section      112  QtSensors.in(t._ZN5QListI5QPairIiiEE13detach_helperEi)
    t._ZN5QListI5QPairIiiEE13detach_helperEi.clean 0x0000c09e   Section        8  QtSensors.in(t._ZN5QListI5QPairIiiEE13detach_helperEi.clean)
    t._ZN5QListI5QPairIiiEE13detach_helperEv 0x0000c0a6   Section       12  QtSensors.in(t._ZN5QListI5QPairIiiEE13detach_helperEv)
    t._ZN5QListI5QPairIiiEE13node_destructEPNS2_4NodeES4_ 0x0000c0b2   Section       22  QtSensors.in(t._ZN5QListI5QPairIiiEE13node_destructEPNS2_4NodeES4_)
    t._ZN5QListI5QPairIiiEE14node_constructEPNS2_4NodeERKS1_ 0x0000c0c8   Section       32  QtSensors.in(t._ZN5QListI5QPairIiiEE14node_constructEPNS2_4NodeERKS1_)
    t._ZN5QListI5QPairIiiEE18detach_helper_growEii 0x0000c0e8   Section      180  QtSensors.in(t._ZN5QListI5QPairIiiEE18detach_helper_growEii)
    t._ZN5QListI5QPairIiiEE18detach_helper_growEii.clean 0x0000c19c   Section        8  QtSensors.in(t._ZN5QListI5QPairIiiEE18detach_helper_growEii.clean)
    t._ZN5QListI5QPairIiiEE4freeEPN9QListData4DataE 0x0000c1a4   Section       38  QtSensors.in(t._ZN5QListI5QPairIiiEE4freeEPN9QListData4DataE)
    t._ZN5QListI5QPairIiiEE6appendERKS1_     0x0000c1cc   Section       96  QtSensors.in(t._ZN5QListI5QPairIiiEE6appendERKS1_)
    t._ZN5QListI5QPairIiiEE6appendERKS1_.clean 0x0000c22c   Section        8  QtSensors.in(t._ZN5QListI5QPairIiiEE6appendERKS1_.clean)
    t._ZN5QListI5QPairIiiEE9node_copyEPNS2_4NodeES4_S4_ 0x0000c234   Section       44  QtSensors.in(t._ZN5QListI5QPairIiiEE9node_copyEPNS2_4NodeES4_S4_)
    t._ZN5QListI5QPairIiiEEC1ERKS2_          0x0000c260   Section       30  QtSensors.in(t._ZN5QListI5QPairIiiEEC1ERKS2_)
    t._ZN5QListI5QPairIiiEEC1Ev              0x0000c280   Section       20  QtSensors.in(t._ZN5QListI5QPairIiiEEC1Ev)
    t._ZN5QListI5QPairIiiEED1Ev              0x0000c294   Section       30  QtSensors.in(t._ZN5QListI5QPairIiiEED1Ev)
    t._ZN5QListI7QStringE13detach_helperEv   0x0000c2b2   Section       88  QtSensors.in(t._ZN5QListI7QStringE13detach_helperEv)
    t._ZN5QListI7QStringE13detach_helperEv.clean 0x0000c30a   Section        8  QtSensors.in(t._ZN5QListI7QStringE13detach_helperEv.clean)
    t._ZN5QListI7QStringE14node_constructEPNS1_4NodeERKS0_ 0x0000c312   Section       26  QtSensors.in(t._ZN5QListI7QStringE14node_constructEPNS1_4NodeERKS0_)
    t._ZN5QListI7QStringE14node_constructEPNS1_4NodeERKS0_.clean 0x0000c32c   Section       12  QtSensors.in(t._ZN5QListI7QStringE14node_constructEPNS1_4NodeERKS0_.clean)
    t._ZN5QListI7QStringE18detach_helper_growEii 0x0000c338   Section      186  QtSensors.in(t._ZN5QListI7QStringE18detach_helper_growEii)
    t._ZN5QListI7QStringE18detach_helper_growEii.clean 0x0000c3f2   Section        8  QtSensors.in(t._ZN5QListI7QStringE18detach_helper_growEii.clean)
    t._ZN5QListI7QStringE4freeEPN9QListData4DataE 0x0000c3fa   Section       48  QtSensors.in(t._ZN5QListI7QStringE4freeEPN9QListData4DataE)
    t._ZN5QListI7QStringE6appendERKS0_       0x0000c42c   Section      100  QtSensors.in(t._ZN5QListI7QStringE6appendERKS0_)
    t._ZN5QListI7QStringE6appendERKS0_.clean 0x0000c490   Section        8  QtSensors.in(t._ZN5QListI7QStringE6appendERKS0_.clean)
    t._ZN5QListI7QStringE9node_copyEPNS1_4NodeES3_S3_ 0x0000c498   Section       70  QtSensors.in(t._ZN5QListI7QStringE9node_copyEPNS1_4NodeES3_S3_)
    t._ZN5QListI7QStringE9node_copyEPNS1_4NodeES3_S3_.clean 0x0000c4de   Section       22  QtSensors.in(t._ZN5QListI7QStringE9node_copyEPNS1_4NodeES3_S3_.clean)
    t._ZN5QListI7QStringED1Ev                0x0000c4f4   Section       30  QtSensors.in(t._ZN5QListI7QStringED1Ev)
    t._ZN5QListIN10QtMobility12qoutputrangeEE13detach_helperEi 0x0000c512   Section      110  QtSensors.in(t._ZN5QListIN10QtMobility12qoutputrangeEE13detach_helperEi)
    t._ZN5QListIN10QtMobility12qoutputrangeEE13detach_helperEi.clean 0x0000c580   Section        8  QtSensors.in(t._ZN5QListIN10QtMobility12qoutputrangeEE13detach_helperEi.clean)
    t._ZN5QListIN10QtMobility12qoutputrangeEE13detach_helperEv 0x0000c588   Section       12  QtSensors.in(t._ZN5QListIN10QtMobility12qoutputrangeEE13detach_helperEv)
    t._ZN5QListIN10QtMobility12qoutputrangeEE13node_destructEPNS2_4NodeES4_ 0x0000c594   Section       22  QtSensors.in(t._ZN5QListIN10QtMobility12qoutputrangeEE13node_destructEPNS2_4NodeES4_)
    t._ZN5QListIN10QtMobility12qoutputrangeEE14node_constructEPNS2_4NodeERKS1_ 0x0000c5aa   Section       30  QtSensors.in(t._ZN5QListIN10QtMobility12qoutputrangeEE14node_constructEPNS2_4NodeERKS1_)
    t._ZN5QListIN10QtMobility12qoutputrangeEE18detach_helper_growEii 0x0000c5c8   Section      206  QtSensors.in(t._ZN5QListIN10QtMobility12qoutputrangeEE18detach_helper_growEii)
    t._ZN5QListIN10QtMobility12qoutputrangeEE18detach_helper_growEii.clean 0x0000c696   Section        8  QtSensors.in(t._ZN5QListIN10QtMobility12qoutputrangeEE18detach_helper_growEii.clean)
    t._ZN5QListIN10QtMobility12qoutputrangeEE4freeEPN9QListData4DataE 0x0000c69e   Section       48  QtSensors.in(t._ZN5QListIN10QtMobility12qoutputrangeEE4freeEPN9QListData4DataE)
    t._ZN5QListIN10QtMobility12qoutputrangeEE6appendERKS1_ 0x0000c6d0   Section       96  QtSensors.in(t._ZN5QListIN10QtMobility12qoutputrangeEE6appendERKS1_)
    t._ZN5QListIN10QtMobility12qoutputrangeEE6appendERKS1_.clean 0x0000c730   Section        8  QtSensors.in(t._ZN5QListIN10QtMobility12qoutputrangeEE6appendERKS1_.clean)
    t._ZN5QListIN10QtMobility12qoutputrangeEE9node_copyEPNS2_4NodeES4_S4_ 0x0000c738   Section       42  QtSensors.in(t._ZN5QListIN10QtMobility12qoutputrangeEE9node_copyEPNS2_4NodeES4_S4_)
    t._ZN5QListIN10QtMobility12qoutputrangeEEC1ERKS2_ 0x0000c762   Section       30  QtSensors.in(t._ZN5QListIN10QtMobility12qoutputrangeEEC1ERKS2_)
    t._ZN5QListIN10QtMobility12qoutputrangeEEC1Ev 0x0000c780   Section       20  QtSensors.in(t._ZN5QListIN10QtMobility12qoutputrangeEEC1Ev)
    t._ZN5QListIN10QtMobility12qoutputrangeEED1Ev 0x0000c794   Section       30  QtSensors.in(t._ZN5QListIN10QtMobility12qoutputrangeEED1Ev)
    t._ZN5QListIP13QPluginLoaderE13detach_helperEv 0x0000c7b2   Section       88  QtSensors.in(t._ZN5QListIP13QPluginLoaderE13detach_helperEv)
    t._ZN5QListIP13QPluginLoaderE13detach_helperEv.clean 0x0000c80a   Section        8  QtSensors.in(t._ZN5QListIP13QPluginLoaderE13detach_helperEv.clean)
    t._ZN5QListIP13QPluginLoaderE18detach_helper_growEii 0x0000c812   Section      164  QtSensors.in(t._ZN5QListIP13QPluginLoaderE18detach_helper_growEii)
    t._ZN5QListIP13QPluginLoaderE18detach_helper_growEii.clean 0x0000c8b6   Section        8  QtSensors.in(t._ZN5QListIP13QPluginLoaderE18detach_helper_growEii.clean)
    t._ZN5QListIP13QPluginLoaderE4freeEPN9QListData4DataE 0x0000c8be   Section       16  QtSensors.in(t._ZN5QListIP13QPluginLoaderE4freeEPN9QListData4DataE)
    t._ZN5QListIP13QPluginLoaderE9node_copyEPNS2_4NodeES4_S4_ 0x0000c8ce   Section       28  QtSensors.in(t._ZN5QListIP13QPluginLoaderE9node_copyEPNS2_4NodeES4_S4_)
    t._ZN5QListIP13QPluginLoaderED1Ev        0x0000c8ea   Section       30  QtSensors.in(t._ZN5QListIP13QPluginLoaderED1Ev)
    t._ZN5QListIPFPN10QtMobility22QSensorPluginInterfaceEvEE13detach_helperEv 0x0000c908   Section       88  QtSensors.in(t._ZN5QListIPFPN10QtMobility22QSensorPluginInterfaceEvEE13detach_helperEv)
    t._ZN5QListIPFPN10QtMobility22QSensorPluginInterfaceEvEE13detach_helperEv.clean 0x0000c960   Section        8  QtSensors.in(t._ZN5QListIPFPN10QtMobility22QSensorPluginInterfaceEvEE13detach_helperEv.clean)
    t._ZN5QListIPFPN10QtMobility22QSensorPluginInterfaceEvEE18detach_helper_growEii 0x0000c968   Section      164  QtSensors.in(t._ZN5QListIPFPN10QtMobility22QSensorPluginInterfaceEvEE18detach_helper_growEii)
    t._ZN5QListIPFPN10QtMobility22QSensorPluginInterfaceEvEE18detach_helper_growEii.clean 0x0000ca0c   Section        8  QtSensors.in(t._ZN5QListIPFPN10QtMobility22QSensorPluginInterfaceEvEE18detach_helper_growEii.clean)
    t._ZN5QListIPFPN10QtMobility22QSensorPluginInterfaceEvEE4freeEPN9QListData4DataE 0x0000ca14   Section       16  QtSensors.in(t._ZN5QListIPFPN10QtMobility22QSensorPluginInterfaceEvEE4freeEPN9QListData4DataE)
    t._ZN5QListIPFPN10QtMobility22QSensorPluginInterfaceEvEE9node_copyEPNS5_4NodeES7_S7_ 0x0000ca24   Section       28  QtSensors.in(t._ZN5QListIPFPN10QtMobility22QSensorPluginInterfaceEvEE9node_copyEPNS5_4NodeES7_S7_)
    t._ZN5QListIPFPN10QtMobility22QSensorPluginInterfaceEvEED1Ev 0x0000ca40   Section       30  QtSensors.in(t._ZN5QListIPFPN10QtMobility22QSensorPluginInterfaceEvEED1Ev)
    t._ZN5QListIPN10QtMobility13QSensorFilterEE13detach_helperEv 0x0000ca5e   Section       88  QtSensors.in(t._ZN5QListIPN10QtMobility13QSensorFilterEE13detach_helperEv)
    t._ZN5QListIPN10QtMobility13QSensorFilterEE13detach_helperEv.clean 0x0000cab6   Section        8  QtSensors.in(t._ZN5QListIPN10QtMobility13QSensorFilterEE13detach_helperEv.clean)
    t._ZN5QListIPN10QtMobility13QSensorFilterEE18detach_helper_growEii 0x0000cabe   Section      164  QtSensors.in(t._ZN5QListIPN10QtMobility13QSensorFilterEE18detach_helper_growEii)
    t._ZN5QListIPN10QtMobility13QSensorFilterEE18detach_helper_growEii.clean 0x0000cb62   Section        8  QtSensors.in(t._ZN5QListIPN10QtMobility13QSensorFilterEE18detach_helper_growEii.clean)
    t._ZN5QListIPN10QtMobility13QSensorFilterEE4freeEPN9QListData4DataE 0x0000cb6a   Section       16  QtSensors.in(t._ZN5QListIPN10QtMobility13QSensorFilterEE4freeEPN9QListData4DataE)
    t._ZN5QListIPN10QtMobility13QSensorFilterEE9node_copyEPNS3_4NodeES5_S5_ 0x0000cb7a   Section       28  QtSensors.in(t._ZN5QListIPN10QtMobility13QSensorFilterEE9node_copyEPNS3_4NodeES5_S5_)
    t._ZN5QListIPN10QtMobility13QSensorFilterEE9removeOneERKS2_ 0x0000cb98   Section      156  QtSensors.in(t._ZN5QListIPN10QtMobility13QSensorFilterEE9removeOneERKS2_)
    t._ZN5QListIPN10QtMobility13QSensorFilterEED1Ev 0x0000cc34   Section       30  QtSensors.in(t._ZN5QListIPN10QtMobility13QSensorFilterEED1Ev)
    t._ZN5QListIPN10QtMobility22QSensorPluginInterfaceEE13detach_helperEi 0x0000cc52   Section       98  QtSensors.in(t._ZN5QListIPN10QtMobility22QSensorPluginInterfaceEE13detach_helperEi)
    t._ZN5QListIPN10QtMobility22QSensorPluginInterfaceEE13detach_helperEi.clean 0x0000ccb4   Section        8  QtSensors.in(t._ZN5QListIPN10QtMobility22QSensorPluginInterfaceEE13detach_helperEi.clean)
    t._ZN5QListIPN10QtMobility22QSensorPluginInterfaceEE18detach_helper_growEii 0x0000ccbc   Section      164  QtSensors.in(t._ZN5QListIPN10QtMobility22QSensorPluginInterfaceEE18detach_helper_growEii)
    t._ZN5QListIPN10QtMobility22QSensorPluginInterfaceEE18detach_helper_growEii.clean 0x0000cd60   Section        8  QtSensors.in(t._ZN5QListIPN10QtMobility22QSensorPluginInterfaceEE18detach_helper_growEii.clean)
    t._ZN5QListIPN10QtMobility22QSensorPluginInterfaceEE4freeEPN9QListData4DataE 0x0000cd68   Section       16  QtSensors.in(t._ZN5QListIPN10QtMobility22QSensorPluginInterfaceEE4freeEPN9QListData4DataE)
    t._ZN5QListIPN10QtMobility22QSensorPluginInterfaceEE9node_copyEPNS3_4NodeES5_S5_ 0x0000cd78   Section       28  QtSensors.in(t._ZN5QListIPN10QtMobility22QSensorPluginInterfaceEE9node_copyEPNS3_4NodeES5_S5_)
    t._ZN5QListIPN10QtMobility22QSensorPluginInterfaceEEC1ERKS3_ 0x0000cd94   Section       32  QtSensors.in(t._ZN5QListIPN10QtMobility22QSensorPluginInterfaceEEC1ERKS3_)
    t._ZN5QListIPN10QtMobility22QSensorPluginInterfaceEED1Ev 0x0000cdb4   Section       30  QtSensors.in(t._ZN5QListIPN10QtMobility22QSensorPluginInterfaceEED1Ev)
    t._ZN9QHashNodeI10QByteArray5QHashIS0_PN10QtMobility21QSensorBackendFactoryEEEC1ERKS0_RKS5_ 0x0000cdd2   Section       48  QtSensors.in(t._ZN9QHashNodeI10QByteArray5QHashIS0_PN10QtMobility21QSensorBackendFactoryEEEC1ERKS0_RKS5_)
    t._ZN9QHashNodeI10QByteArray5QHashIS0_PN10QtMobility21QSensorBackendFactoryEEEC1ERKS0_RKS5_.clean 0x0000ce02   Section       12  QtSensors.in(t._ZN9QHashNodeI10QByteArray5QHashIS0_PN10QtMobility21QSensorBackendFactoryEEEC1ERKS0_RKS5_.clean)
    t._ZN9QHashNodeI10QByteArrayPN10QtMobility21QSensorBackendFactoryEEC1ERKS0_RKS3_ 0x0000ce0e   Section       18  QtSensors.in(t._ZN9QHashNodeI10QByteArrayPN10QtMobility21QSensorBackendFactoryEEC1ERKS0_RKS3_)
    t._ZN9QHashNodeI10QByteArrayS0_EC1ERKS0_S3_ 0x0000ce20   Section       28  QtSensors.in(t._ZN9QHashNodeI10QByteArrayS0_EC1ERKS0_S3_)
    t._ZN9QHashNodeI10QByteArrayS0_EC1ERKS0_S3_.clean 0x0000ce3c   Section       12  QtSensors.in(t._ZN9QHashNodeI10QByteArrayS0_EC1ERKS0_S3_.clean)
    t._ZNK17QForeachContainerI5QListIPN10QtMobility22QSensorPluginInterfaceEEE9conditionEv 0x0000ce48   Section       26  QtSensors.in(t._ZNK17QForeachContainerI5QListIPN10QtMobility22QSensorPluginInterfaceEEE9conditionEv)
    t._ZNK4QSetI7QStringE8containsERKS0_     0x0000ce62   Section       26  QtSensors.in(t._ZNK4QSetI7QStringE8containsERKS0_)
    t._ZNK5QHashI10QByteArrayPN10QtMobility21QSensorBackendFactoryEE4keysEv 0x0000ce7c   Section       60  QtSensors.in(t._ZNK5QHashI10QByteArrayPN10QtMobility21QSensorBackendFactoryEE4keysEv)
    t._ZNK5QHashI10QByteArrayPN10QtMobility21QSensorBackendFactoryEE4keysEv.clean 0x0000ceb8   Section       10  QtSensors.in(t._ZNK5QHashI10QByteArrayPN10QtMobility21QSensorBackendFactoryEE4keysEv.clean)
    t._ZNK5QHashI10QByteArrayPN10QtMobility21QSensorBackendFactoryEE8containsERKS0_ 0x0000cec2   Section       26  QtSensors.in(t._ZNK5QHashI10QByteArrayPN10QtMobility21QSensorBackendFactoryEE8containsERKS0_)
    t._ZNK5QHashI10QByteArrayPN10QtMobility21QSensorBackendFactoryEE8findNodeERKS0_Pj 0x0000cedc   Section       90  QtSensors.in(t._ZNK5QHashI10QByteArrayPN10QtMobility21QSensorBackendFactoryEE8findNodeERKS0_Pj)
    t._ZNK5QHashI10QByteArrayPN10QtMobility21QSensorBackendFactoryEEixERKS0_ 0x0000cf36   Section       36  QtSensors.in(t._ZNK5QHashI10QByteArrayPN10QtMobility21QSensorBackendFactoryEEixERKS0_)
    t._ZNK5QHashI10QByteArrayS0_E8findNodeERKS0_Pj 0x0000cf5a   Section       90  QtSensors.in(t._ZNK5QHashI10QByteArrayS0_E8findNodeERKS0_Pj)
    t._ZNK5QHashI10QByteArrayS_IS0_PN10QtMobility21QSensorBackendFactoryEEE4keysEv 0x0000cfb4   Section       60  QtSensors.in(t._ZNK5QHashI10QByteArrayS_IS0_PN10QtMobility21QSensorBackendFactoryEEE4keysEv)
    t._ZNK5QHashI10QByteArrayS_IS0_PN10QtMobility21QSensorBackendFactoryEEE4keysEv.clean 0x0000cff0   Section       10  QtSensors.in(t._ZNK5QHashI10QByteArrayS_IS0_PN10QtMobility21QSensorBackendFactoryEEE4keysEv.clean)
    t._ZNK5QHashI10QByteArrayS_IS0_PN10QtMobility21QSensorBackendFactoryEEE8containsERKS0_ 0x0000cffa   Section       26  QtSensors.in(t._ZNK5QHashI10QByteArrayS_IS0_PN10QtMobility21QSensorBackendFactoryEEE8containsERKS0_)
    t._ZNK5QHashI10QByteArrayS_IS0_PN10QtMobility21QSensorBackendFactoryEEE8findNodeERKS0_Pj 0x0000d014   Section       90  QtSensors.in(t._ZNK5QHashI10QByteArrayS_IS0_PN10QtMobility21QSensorBackendFactoryEEE8findNodeERKS0_Pj)
    t._ZNK5QHashI7QString15QHashDummyValueE8findNodeERKS0_Pj 0x0000d06e   Section       90  QtSensors.in(t._ZNK5QHashI7QString15QHashDummyValueE8findNodeERKS0_Pj)
    t._ZNK5QListI7QStringE2atEi              0x0000d0c8   Section       16  QtSensors.in(t._ZNK5QListI7QStringE2atEi)
    t._ZNK5QListI7QStringE5countEv           0x0000d0d8   Section       10  QtSensors.in(t._ZNK5QListI7QStringE5countEv)
    .extab._ZN10QtMobility14QSensorBackend12setDataRatesEPKNS_7QSensorE 0x0000d0e4   Data           0  QtSensors.in(.ARM.extab)
    .extab._ZN5QListI5QPairIiiEE18detach_helper_growEii 0x0000d104   Data           0  QtSensors.in(.ARM.extab)
    .extab._ZN5QListIN10QtMobility12qoutputrangeEE18detach_helper_growEii 0x0000d134   Data           0  QtSensors.in(.ARM.extab)
    .extab._ZN6QDebugD1Ev                    0x0000d164   Data           0  QtSensors.in(.ARM.extab)
    .extab._ZN5QListI5QPairIiiEE6appendERKS1_ 0x0000d188   Data           0  QtSensors.in(.ARM.extab)
    .extab._ZN5QListIN10QtMobility12qoutputrangeEE6appendERKS1_ 0x0000d1b8   Data           0  QtSensors.in(.ARM.extab)
    .extab._ZN10QtMobility12pluginLoaderEv   0x0000d1e8   Data           0  QtSensors.in(.ARM.extab)
    .extab._ZN10QtMobility20sensorManagerPrivateEv 0x0000d210   Data           0  QtSensors.in(.ARM.extab)
    .extab._ZN10QtMobility11loadPluginsEv    0x0000d238   Data           0  QtSensors.in(.ARM.extab)
    .extab._ZN10QtMobility7QSensor20defaultSensorForTypeERK10QByteArray 0x0000d260   Data           0  QtSensors.in(.ARM.extab)
    .extab._ZN10QtMobility14QSensorManager13createBackendEPNS_7QSensorE 0x0000d2e8   Data           0  QtSensors.in(.ARM.extab)
    .extab._ZN10QtMobility14QSensorManager20registerStaticPluginEPFPNS_22QSensorPluginInterfaceEvE 0x0000d360   Data           0  QtSensors.in(.ARM.extab)
    .extab._ZN10QtMobility22sensors_unit_test_hookEi 0x0000d37c   Data           0  QtSensors.in(.ARM.extab)
    .extab._Z20qForeachContainerNewI5QListIPN10QtMobility22QSensorPluginInterfaceEEE17QForeachContainerIT_ERKS6_ 0x0000d394   Data           0  QtSensors.in(.ARM.extab)
    .extab._ZN5QListI10QByteArrayE9node_copyEPNS1_4NodeES3_S3_ 0x0000d3a4   Data           0  QtSensors.in(.ARM.extab)
    .extab._ZN5QListI10QByteArrayE13detach_helperEi 0x0000d3c8   Data           0  QtSensors.in(.ARM.extab)
    .extab._ZN10QtMobility21QSensorManagerPrivateD1Ev 0x0000d3e4   Data           0  QtSensors.in(.ARM.extab)
    .extab._ZN5QListI10QByteArrayE18detach_helper_growEii 0x0000d3fc   Data           0  QtSensors.in(.ARM.extab)
    .extab._ZN5QListI10QByteArrayE6appendERKS0_ 0x0000d42c   Data           0  QtSensors.in(.ARM.extab)
    .extab._ZNK5QHashI10QByteArrayPN10QtMobility21QSensorBackendFactoryEE4keysEv 0x0000d45c   Data           0  QtSensors.in(.ARM.extab)
    .extab._ZN9QHashNodeI10QByteArray5QHashIS0_PN10QtMobility21QSensorBackendFactoryEEEC1ERKS0_RKS5_ 0x0000d46c   Data           0  QtSensors.in(.ARM.extab)
    .extab._ZN9QHashNodeI10QByteArrayS0_EC1ERKS0_S3_ 0x0000d47c   Data           0  QtSensors.in(.ARM.extab)
    .extab._ZN5QHashI10QByteArrayS_IS0_PN10QtMobility21QSensorBackendFactoryEEEixERKS0_ 0x0000d48c   Data           0  QtSensors.in(.ARM.extab)
    .extab._ZN5QHashI10QByteArrayS0_EixERKS0_ 0x0000d4a4   Data           0  QtSensors.in(.ARM.extab)
    .extab._ZN5QListIPFPN10QtMobility22QSensorPluginInterfaceEvEE18detach_helper_growEii 0x0000d4bc   Data           0  QtSensors.in(.ARM.extab)
    .extab._ZN5QListIPN10QtMobility22QSensorPluginInterfaceEE13detach_helperEi 0x0000d4ec   Data           0  QtSensors.in(.ARM.extab)
    .extab._ZN5QListIPFPN10QtMobility22QSensorPluginInterfaceEvEE13detach_helperEv 0x0000d508   Data           0  QtSensors.in(.ARM.extab)
    .extab._ZN5QHashI10QByteArrayS0_E11deleteNode2EPN9QHashData4NodeE 0x0000d524   Data           0  QtSensors.in(.ARM.extab)
    .extab._ZN5QHashI10QByteArrayS_IS0_PN10QtMobility21QSensorBackendFactoryEEE11deleteNode2EPN9QHashData4NodeE 0x0000d534   Data           0  QtSensors.in(.ARM.extab)
    .extab._ZN5QHashI10QByteArrayPN10QtMobility21QSensorBackendFactoryEE13duplicateNodeEPN9QHashData4NodeEPv 0x0000d544   Data           0  QtSensors.in(.ARM.extab)
    .extab._ZN5QHashI10QByteArrayPN10QtMobility21QSensorBackendFactoryEEixERKS0_ 0x0000d554   Data           0  QtSensors.in(.ARM.extab)
    .extab._ZN5QListI10QByteArrayE14node_constructEPNS1_4NodeERKS0_ 0x0000d564   Data           0  QtSensors.in(.ARM.extab)
    .extab._ZNK5QHashI10QByteArrayS_IS0_PN10QtMobility21QSensorBackendFactoryEEE4keysEv 0x0000d574   Data           0  QtSensors.in(.ARM.extab)
    .extab._ZN5QHashI10QByteArrayS_IS0_PN10QtMobility21QSensorBackendFactoryEEE13duplicateNodeEPN9QHashData4NodeEPv 0x0000d584   Data           0  QtSensors.in(.ARM.extab)
    .extab._ZN5QHashI10QByteArrayS0_E13duplicateNodeEPN9QHashData4NodeEPv 0x0000d594   Data           0  QtSensors.in(.ARM.extab)
    .extab._ZN10QtMobility17qSymbian_CheckDirERK4QDirR3RFs 0x0000d5a4   Data           0  QtSensors.in(.ARM.extab)
    .extab._ZN10QtMobility19QSensorPluginLoader4loadEv 0x0000d5bc   Data           0  QtSensors.in(.ARM.extab)
    .extab._ZN10QtMobility19QSensorPluginLoaderC1EPKcRK7QString 0x0000d69c   Data           0  QtSensors.in(.ARM.extab)
    .extab._ZN10QtMobility19QSensorPluginLoaderD1Ev 0x0000d6ec   Data           0  QtSensors.in(.ARM.extab)
    .extab._Z8qWarningv                      0x0000d74c   Data           0  QtSensors.in(.ARM.extab)
    .extab._ZN5QListI7QStringE9node_copyEPNS1_4NodeES3_S3_ 0x0000d764   Data           0  QtSensors.in(.ARM.extab)
    .extab._ZN5QListI7QStringE18detach_helper_growEii 0x0000d788   Data           0  QtSensors.in(.ARM.extab)
    .extab._ZN6QDebuglsEPKc                  0x0000d7b8   Data           0  QtSensors.in(.ARM.extab)
    .extab._ZN5QListIP13QPluginLoaderE18detach_helper_growEii 0x0000d7c8   Data           0  QtSensors.in(.ARM.extab)
    .extab._ZN5QListIPN10QtMobility22QSensorPluginInterfaceEE18detach_helper_growEii 0x0000d7f8   Data           0  QtSensors.in(.ARM.extab)
    .extab._ZN10QtMobility15mobilityPluginsERK7QString 0x0000d828   Data           0  QtSensors.in(.ARM.extab)
    .extab._ZN5QListIP13QPluginLoaderE13detach_helperEv 0x0000d930   Data           0  QtSensors.in(.ARM.extab)
    .extab._ZN5QListI7QStringE13detach_helperEv 0x0000d94c   Data           0  QtSensors.in(.ARM.extab)
    .extab._ZN5QListI7QStringE6appendERKS0_  0x0000d968   Data           0  QtSensors.in(.ARM.extab)
    .extab._ZN5QListI7QStringE14node_constructEPNS1_4NodeERKS0_ 0x0000d998   Data           0  QtSensors.in(.ARM.extab)
    .extab._ZN5QHashI7QString15QHashDummyValueE6insertERKS0_RKS1_ 0x0000d9a8   Data           0  QtSensors.in(.ARM.extab)
    .extab._ZN5QHashI7QString15QHashDummyValueE13duplicateNodeEPN9QHashData4NodeEPv 0x0000d9b8   Data           0  QtSensors.in(.ARM.extab)
    .extab._ZN10QtMobility7QSensor14setOutputRangeEi 0x0000d9c8   Data           0  QtSensors.in(.ARM.extab)
    .extab._ZN10QtMobility7QSensor11setDataRateEi 0x0000d9d8   Data           0  QtSensors.in(.ARM.extab)
    .extab._ZN10QtMobility7QSensor13setIdentifierERK10QByteArray 0x0000d9f0   Data           0  QtSensors.in(.ARM.extab)
    .extab._ZN10QtMobility7QSensor11qt_metacallEN11QMetaObject4CallEiPPv 0x0000da00   Data           0  QtSensors.in(.ARM.extab)
    .extab._ZN10QtMobility7QSensorC1ERK10QByteArrayP7QObject 0x0000da30   Data           0  QtSensors.in(.ARM.extab)
    .extab._ZN10QtMobility7QSensorD1Ev       0x0000da48   Data           0  QtSensors.in(.ARM.extab)
    .extab._ZN10QtMobility7QSensor9addFilterEPNS_13QSensorFilterE 0x0000da78   Data           0  QtSensors.in(.ARM.extab)
    .extab._ZN10QtMobility7QSensor12removeFilterEPNS_13QSensorFilterE 0x0000da9c   Data           0  QtSensors.in(.ARM.extab)
    .extab._ZN10QtMobility14QSensorReadingD1Ev 0x0000daac   Data           0  QtSensors.in(.ARM.extab)
    .extab._Z24qMetaTypeConstructHelperI5QListI5QPairIiiEEEPvPKT_ 0x0000dabc   Data           0  QtSensors.in(.ARM.extab)
    .extab._Z24qMetaTypeConstructHelperI5QListIN10QtMobility12qoutputrangeEEEPvPKT_ 0x0000dad4   Data           0  QtSensors.in(.ARM.extab)
    .extab._ZN5QListIPN10QtMobility13QSensorFilterEE13detach_helperEv 0x0000daec   Data           0  QtSensors.in(.ARM.extab)
    .extab._ZN14QScopedPointerIN10QtMobility14QSensorPrivateE21QScopedPointerDeleterIS1_EED1Ev 0x0000db08   Data           0  QtSensors.in(.ARM.extab)
    .extab._ZN5QListIPN10QtMobility13QSensorFilterEE18detach_helper_growEii 0x0000db38   Data           0  QtSensors.in(.ARM.extab)
    .extab._ZN10QtMobility14QSensorPrivateC1Ev 0x0000db68   Data           0  QtSensors.in(.ARM.extab)
    .extab._ZN5QListI5QPairIiiEE13detach_helperEi 0x0000db98   Data           0  QtSensors.in(.ARM.extab)
    .extab._ZN5QListIN10QtMobility12qoutputrangeEE13detach_helperEi 0x0000dbb4   Data           0  QtSensors.in(.ARM.extab)
    .extab._ZN10QtMobility21QAccelerometerReadingD1Ev 0x0000dbd0   Data           0  QtSensors.in(.ARM.extab)
    .extab._ZN10QtMobility20QAmbientLightReadingD1Ev 0x0000dbe0   Data           0  QtSensors.in(.ARM.extab)
    .extab._ZN10QtMobility15QCompassReadingD1Ev 0x0000dbf0   Data           0  QtSensors.in(.ARM.extab)
    .extab._ZN10QtMobility20QMagnetometerReadingD1Ev 0x0000dc00   Data           0  QtSensors.in(.ARM.extab)
    .extab._ZN10QtMobility19QOrientationReadingD1Ev 0x0000dc10   Data           0  QtSensors.in(.ARM.extab)
    .extab._ZN10QtMobility17QProximityReadingD1Ev 0x0000dc20   Data           0  QtSensors.in(.ARM.extab)
    .extab._ZN10QtMobility16QRotationReadingD1Ev 0x0000dc30   Data           0  QtSensors.in(.ARM.extab)
    .extab._ZN10QtMobility11QTapReadingD1Ev  0x0000dc40   Data           0  QtSensors.in(.ARM.extab)
    .constdata$1                             0x0000dc50   Data           0  QtSensors.in(.constdata)
    .constdata                               0x0000dc50   Section      104  QtSensors.in(.constdata)
    QtMobility::qt_meta_stringdata_QSensorBackend 0x0000dc60   Data          16  QtSensors.in(.constdata)
    .constdata$28                            0x0000dcb8   Data           0  QtSensors.in(.constdata)
    QtMobility::qt_meta_data_QSensorBackend  0x0000dcb8   Data          60  QtSensors.in(.constdata)
    .constdata                               0x0000dcb8   Section       60  QtSensors.in(.constdata)
    .constdata$1                             0x0000dcf4   Data           0  QtSensors.in(.constdata)
    .constdata                               0x0000dcf4   Section      484  QtSensors.in(.constdata)
    QtMobility::qt_meta_stringdata_QSensor   0x0000dd14   Data         328  QtSensors.in(.constdata)
    QtMobility::qt_meta_stringdata_QSensorReading 0x0000de5c   Data          49  QtSensors.in(.constdata)
    .constdata$34                            0x0000ded8   Data           0  QtSensors.in(.constdata)
    QtMobility::qt_meta_data_QSensor         0x0000ded8   Data         392  QtSensors.in(.constdata)
    .constdata                               0x0000ded8   Section      392  QtSensors.in(.constdata)
    .constdata$40                            0x0000e060   Data           0  QtSensors.in(.constdata)
    QtMobility::qt_meta_data_QSensorReading  0x0000e060   Data          72  QtSensors.in(.constdata)
    .constdata                               0x0000e060   Section       72  QtSensors.in(.constdata)
    .constdata$1                             0x0000e0a8   Data           0  QtSensors.in(.constdata)
    .constdata                               0x0000e0a8   Section       83  QtSensors.in(.constdata)
    QtMobility::qt_meta_stringdata_QAccelerometerReading 0x0000e0c8   Data          35  QtSensors.in(.constdata)
    QtMobility::qt_meta_stringdata_QAccelerometer 0x0000e0eb   Data          16  QtSensors.in(.constdata)
    .constdata$31                            0x0000e0fc   Data           0  QtSensors.in(.constdata)
    .constdata                               0x0000e0fc   Section        4  QtSensors.in(.constdata)
    .constdata$37                            0x0000e100   Data           0  QtSensors.in(.constdata)
    QtMobility::qt_meta_data_QAccelerometerReading 0x0000e100   Data          96  QtSensors.in(.constdata)
    .constdata                               0x0000e100   Section       96  QtSensors.in(.constdata)
    .constdata$43                            0x0000e160   Data           0  QtSensors.in(.constdata)
    QtMobility::qt_meta_data_QAccelerometer  0x0000e160   Data          60  QtSensors.in(.constdata)
    .constdata                               0x0000e160   Section       60  QtSensors.in(.constdata)
    .constdata$1                             0x0000e19c   Data           0  QtSensors.in(.constdata)
    .constdata                               0x0000e19c   Section      140  QtSensors.in(.constdata)
    QtMobility::qt_meta_stringdata_QAmbientLightReading 0x0000e1bc   Data          87  QtSensors.in(.constdata)
    QtMobility::qt_meta_stringdata_QAmbientLightSensor 0x0000e213   Data          21  QtSensors.in(.constdata)
    .constdata$31                            0x0000e228   Data           0  QtSensors.in(.constdata)
    .constdata                               0x0000e228   Section        4  QtSensors.in(.constdata)
    .constdata$37                            0x0000e22c   Data           0  QtSensors.in(.constdata)
    QtMobility::qt_meta_data_QAmbientLightReading 0x0000e22c   Data         136  QtSensors.in(.constdata)
    .constdata                               0x0000e22c   Section      136  QtSensors.in(.constdata)
    .constdata$43                            0x0000e2b4   Data           0  QtSensors.in(.constdata)
    QtMobility::qt_meta_data_QAmbientLightSensor 0x0000e2b4   Data          60  QtSensors.in(.constdata)
    .constdata                               0x0000e2b4   Section       60  QtSensors.in(.constdata)
    .constdata$1                             0x0000e2f0   Data           0  QtSensors.in(.constdata)
    .constdata                               0x0000e2f0   Section       90  QtSensors.in(.constdata)
    QtMobility::qt_meta_stringdata_QCompassReading 0x0000e310   Data          48  QtSensors.in(.constdata)
    QtMobility::qt_meta_stringdata_QCompass  0x0000e340   Data          10  QtSensors.in(.constdata)
    .constdata$31                            0x0000e34c   Data           0  QtSensors.in(.constdata)
    .constdata                               0x0000e34c   Section        4  QtSensors.in(.constdata)
    .constdata$37                            0x0000e350   Data           0  QtSensors.in(.constdata)
    QtMobility::qt_meta_data_QCompassReading 0x0000e350   Data          84  QtSensors.in(.constdata)
    .constdata                               0x0000e350   Section       84  QtSensors.in(.constdata)
    .constdata$43                            0x0000e3a4   Data           0  QtSensors.in(.constdata)
    QtMobility::qt_meta_data_QCompass        0x0000e3a4   Data          60  QtSensors.in(.constdata)
    .constdata                               0x0000e3a4   Section       60  QtSensors.in(.constdata)
    .constdata$1                             0x0000e3e0   Data           0  QtSensors.in(.constdata)
    .constdata                               0x0000e3e0   Section       98  QtSensors.in(.constdata)
    QtMobility::qt_meta_stringdata_QMagnetometerReading 0x0000e400   Data          51  QtSensors.in(.constdata)
    QtMobility::qt_meta_stringdata_QMagnetometer 0x0000e433   Data          15  QtSensors.in(.constdata)
    .constdata$31                            0x0000e444   Data           0  QtSensors.in(.constdata)
    .constdata                               0x0000e444   Section        4  QtSensors.in(.constdata)
    .constdata$37                            0x0000e448   Data           0  QtSensors.in(.constdata)
    QtMobility::qt_meta_data_QMagnetometerReading 0x0000e448   Data         108  QtSensors.in(.constdata)
    .constdata                               0x0000e448   Section      108  QtSensors.in(.constdata)
    .constdata$43                            0x0000e4b4   Data           0  QtSensors.in(.constdata)
    QtMobility::qt_meta_data_QMagnetometer   0x0000e4b4   Data          60  QtSensors.in(.constdata)
    .constdata                               0x0000e4b4   Section       60  QtSensors.in(.constdata)
    .constdata$1                             0x0000e4f0   Data           0  QtSensors.in(.constdata)
    .constdata                               0x0000e4f0   Section      152  QtSensors.in(.constdata)
    QtMobility::qt_meta_stringdata_QOrientationReading 0x0000e510   Data         100  QtSensors.in(.constdata)
    QtMobility::qt_meta_stringdata_QOrientationSensor 0x0000e574   Data          20  QtSensors.in(.constdata)
    .constdata$31                            0x0000e588   Data           0  QtSensors.in(.constdata)
    .constdata                               0x0000e588   Section        4  QtSensors.in(.constdata)
    .constdata$37                            0x0000e58c   Data           0  QtSensors.in(.constdata)
    QtMobility::qt_meta_data_QOrientationReading 0x0000e58c   Data         144  QtSensors.in(.constdata)
    .constdata                               0x0000e58c   Section      144  QtSensors.in(.constdata)
    .constdata$43                            0x0000e61c   Data           0  QtSensors.in(.constdata)
    QtMobility::qt_meta_data_QOrientationSensor 0x0000e61c   Data          60  QtSensors.in(.constdata)
    .constdata                               0x0000e61c   Section       60  QtSensors.in(.constdata)
    .constdata$1                             0x0000e658   Data           0  QtSensors.in(.constdata)
    .constdata                               0x0000e658   Section       80  QtSensors.in(.constdata)
    QtMobility::qt_meta_stringdata_QProximityReading 0x0000e678   Data          30  QtSensors.in(.constdata)
    QtMobility::qt_meta_stringdata_QProximitySensor 0x0000e696   Data          18  QtSensors.in(.constdata)
    .constdata$31                            0x0000e6a8   Data           0  QtSensors.in(.constdata)
    .constdata                               0x0000e6a8   Section        4  QtSensors.in(.constdata)
    .constdata$37                            0x0000e6ac   Data           0  QtSensors.in(.constdata)
    QtMobility::qt_meta_data_QProximityReading 0x0000e6ac   Data          72  QtSensors.in(.constdata)
    .constdata                               0x0000e6ac   Section       72  QtSensors.in(.constdata)
    .constdata$43                            0x0000e6f4   Data           0  QtSensors.in(.constdata)
    QtMobility::qt_meta_data_QProximitySensor 0x0000e6f4   Data          60  QtSensors.in(.constdata)
    .constdata                               0x0000e6f4   Section       60  QtSensors.in(.constdata)
    .constdata$1                             0x0000e730   Data           0  QtSensors.in(.constdata)
    .constdata                               0x0000e730   Section       79  QtSensors.in(.constdata)
    QtMobility::qt_meta_stringdata_QRotationReading 0x0000e750   Data          30  QtSensors.in(.constdata)
    QtMobility::qt_meta_stringdata_QRotationSensor 0x0000e76e   Data          17  QtSensors.in(.constdata)
    .constdata$31                            0x0000e780   Data           0  QtSensors.in(.constdata)
    .constdata                               0x0000e780   Section        4  QtSensors.in(.constdata)
    .constdata$37                            0x0000e784   Data           0  QtSensors.in(.constdata)
    QtMobility::qt_meta_data_QRotationReading 0x0000e784   Data          96  QtSensors.in(.constdata)
    .constdata                               0x0000e784   Section       96  QtSensors.in(.constdata)
    .constdata$43                            0x0000e7e4   Data           0  QtSensors.in(.constdata)
    QtMobility::qt_meta_data_QRotationSensor 0x0000e7e4   Data          60  QtSensors.in(.constdata)
    .constdata                               0x0000e7e4   Section       60  QtSensors.in(.constdata)
    .constdata$1                             0x0000e820   Data           0  QtSensors.in(.constdata)
    .constdata                               0x0000e820   Section      150  QtSensors.in(.constdata)
    QtMobility::qt_meta_stringdata_QTapReading 0x0000e840   Data         106  QtSensors.in(.constdata)
    QtMobility::qt_meta_stringdata_QTapSensor 0x0000e8aa   Data          12  QtSensors.in(.constdata)
    .constdata$31                            0x0000e8b8   Data           0  QtSensors.in(.constdata)
    .constdata                               0x0000e8b8   Section        4  QtSensors.in(.constdata)
    .constdata$37                            0x0000e8bc   Data           0  QtSensors.in(.constdata)
    QtMobility::qt_meta_data_QTapReading     0x0000e8bc   Data         180  QtSensors.in(.constdata)
    .constdata                               0x0000e8bc   Section      180  QtSensors.in(.constdata)
    .constdata$43                            0x0000e970   Data           0  QtSensors.in(.constdata)
    QtMobility::qt_meta_data_QTapSensor      0x0000e970   Data          60  QtSensors.in(.constdata)
    .constdata                               0x0000e970   Section       60  QtSensors.in(.constdata)
    .constdata__ZTIN10QtMobility10QTapSensorE 0x0000e9ac   Section       12  QtSensors.in(.constdata__ZTIN10QtMobility10QTapSensorE)
    .constdata__ZTIN10QtMobility11QTapReadingE 0x0000e9b8   Section       12  QtSensors.in(.constdata__ZTIN10QtMobility11QTapReadingE)
    .constdata__ZTIN10QtMobility13QMagnetometerE 0x0000e9c4   Section       12  QtSensors.in(.constdata__ZTIN10QtMobility13QMagnetometerE)
    .constdata__ZTIN10QtMobility13QSensorFilterE 0x0000e9d0   Section        8  QtSensors.in(.constdata__ZTIN10QtMobility13QSensorFilterE)
    .constdata__ZTIN10QtMobility14QAccelerometerE 0x0000e9d8   Section       12  QtSensors.in(.constdata__ZTIN10QtMobility14QAccelerometerE)
    .constdata__ZTIN10QtMobility14QSensorBackendE 0x0000e9e4   Section       12  QtSensors.in(.constdata__ZTIN10QtMobility14QSensorBackendE)
    .constdata__ZTIN10QtMobility14QSensorReadingE 0x0000e9f0   Section       12  QtSensors.in(.constdata__ZTIN10QtMobility14QSensorReadingE)
    .constdata__ZTIN10QtMobility15QCompassReadingE 0x0000e9fc   Section       12  QtSensors.in(.constdata__ZTIN10QtMobility15QCompassReadingE)
    .constdata__ZTIN10QtMobility15QRotationSensorE 0x0000ea08   Section       12  QtSensors.in(.constdata__ZTIN10QtMobility15QRotationSensorE)
    .constdata__ZTIN10QtMobility16QProximitySensorE 0x0000ea14   Section       12  QtSensors.in(.constdata__ZTIN10QtMobility16QProximitySensorE)
    .constdata__ZTIN10QtMobility16QRotationReadingE 0x0000ea20   Section       12  QtSensors.in(.constdata__ZTIN10QtMobility16QRotationReadingE)
    .constdata__ZTIN10QtMobility17QProximityReadingE 0x0000ea2c   Section       12  QtSensors.in(.constdata__ZTIN10QtMobility17QProximityReadingE)
    .constdata__ZTIN10QtMobility18QOrientationSensorE 0x0000ea38   Section       12  QtSensors.in(.constdata__ZTIN10QtMobility18QOrientationSensorE)
    .constdata__ZTIN10QtMobility19QAmbientLightSensorE 0x0000ea44   Section       12  QtSensors.in(.constdata__ZTIN10QtMobility19QAmbientLightSensorE)
    .constdata__ZTIN10QtMobility19QOrientationReadingE 0x0000ea50   Section       12  QtSensors.in(.constdata__ZTIN10QtMobility19QOrientationReadingE)
    .constdata__ZTIN10QtMobility20QAmbientLightReadingE 0x0000ea5c   Section       12  QtSensors.in(.constdata__ZTIN10QtMobility20QAmbientLightReadingE)
    .constdata__ZTIN10QtMobility20QMagnetometerReadingE 0x0000ea68   Section       12  QtSensors.in(.constdata__ZTIN10QtMobility20QMagnetometerReadingE)
    .constdata__ZTIN10QtMobility21QAccelerometerReadingE 0x0000ea74   Section       12  QtSensors.in(.constdata__ZTIN10QtMobility21QAccelerometerReadingE)
    .constdata__ZTIN10QtMobility7QSensorE    0x0000ea80   Section       12  QtSensors.in(.constdata__ZTIN10QtMobility7QSensorE)
    .constdata__ZTIN10QtMobility8QCompassE   0x0000ea8c   Section       12  QtSensors.in(.constdata__ZTIN10QtMobility8QCompassE)
    .constdata__ZTISt9bad_alloc              0x0000ea98   Section       12  QtSensors.in(.constdata__ZTISt9bad_alloc)
    .constdata__ZTSN10QtMobility10QTapSensorE 0x0000eaa4   Section       27  QtSensors.in(.constdata__ZTSN10QtMobility10QTapSensorE)
    .constdata__ZTSN10QtMobility11QTapReadingE 0x0000eabf   Section       28  QtSensors.in(.constdata__ZTSN10QtMobility11QTapReadingE)
    .constdata__ZTSN10QtMobility13QMagnetometerE 0x0000eadb   Section       30  QtSensors.in(.constdata__ZTSN10QtMobility13QMagnetometerE)
    .constdata__ZTSN10QtMobility13QSensorFilterE 0x0000eaf9   Section       30  QtSensors.in(.constdata__ZTSN10QtMobility13QSensorFilterE)
    .constdata__ZTSN10QtMobility14QAccelerometerE 0x0000eb17   Section       31  QtSensors.in(.constdata__ZTSN10QtMobility14QAccelerometerE)
    .constdata__ZTSN10QtMobility14QSensorBackendE 0x0000eb36   Section       31  QtSensors.in(.constdata__ZTSN10QtMobility14QSensorBackendE)
    .constdata__ZTSN10QtMobility14QSensorReadingE 0x0000eb55   Section       31  QtSensors.in(.constdata__ZTSN10QtMobility14QSensorReadingE)
    .constdata__ZTSN10QtMobility15QCompassReadingE 0x0000eb74   Section       32  QtSensors.in(.constdata__ZTSN10QtMobility15QCompassReadingE)
    .constdata__ZTSN10QtMobility15QRotationSensorE 0x0000eb94   Section       32  QtSensors.in(.constdata__ZTSN10QtMobility15QRotationSensorE)
    .constdata__ZTSN10QtMobility16QProximitySensorE 0x0000ebb4   Section       33  QtSensors.in(.constdata__ZTSN10QtMobility16QProximitySensorE)
    .constdata__ZTSN10QtMobility16QRotationReadingE 0x0000ebd5   Section       33  QtSensors.in(.constdata__ZTSN10QtMobility16QRotationReadingE)
    .constdata__ZTSN10QtMobility17QProximityReadingE 0x0000ebf6   Section       34  QtSensors.in(.constdata__ZTSN10QtMobility17QProximityReadingE)
    .constdata__ZTSN10QtMobility18QOrientationSensorE 0x0000ec18   Section       35  QtSensors.in(.constdata__ZTSN10QtMobility18QOrientationSensorE)
    .constdata__ZTSN10QtMobility19QAmbientLightSensorE 0x0000ec3b   Section       36  QtSensors.in(.constdata__ZTSN10QtMobility19QAmbientLightSensorE)
    .constdata__ZTSN10QtMobility19QOrientationReadingE 0x0000ec5f   Section       36  QtSensors.in(.constdata__ZTSN10QtMobility19QOrientationReadingE)
    .constdata__ZTSN10QtMobility20QAmbientLightReadingE 0x0000ec83   Section       37  QtSensors.in(.constdata__ZTSN10QtMobility20QAmbientLightReadingE)
    .constdata__ZTSN10QtMobility20QMagnetometerReadingE 0x0000eca8   Section       37  QtSensors.in(.constdata__ZTSN10QtMobility20QMagnetometerReadingE)
    .constdata__ZTSN10QtMobility21QAccelerometerReadingE 0x0000eccd   Section       38  QtSensors.in(.constdata__ZTSN10QtMobility21QAccelerometerReadingE)
    .constdata__ZTSN10QtMobility7QSensorE    0x0000ecf3   Section       23  QtSensors.in(.constdata__ZTSN10QtMobility7QSensorE)
    .constdata__ZTSN10QtMobility8QCompassE   0x0000ed0a   Section       24  QtSensors.in(.constdata__ZTSN10QtMobility8QCompassE)
    .constdata__ZTSSt9bad_alloc              0x0000ed22   Section       13  QtSensors.in(.constdata__ZTSSt9bad_alloc)
    .constdata__ZTVN10QtMobility10QTapSensorE 0x0000ed30   Section       56  QtSensors.in(.constdata__ZTVN10QtMobility10QTapSensorE)
    .constdata__ZTVN10QtMobility11QTapReadingE 0x0000ed68   Section       60  QtSensors.in(.constdata__ZTVN10QtMobility11QTapReadingE)
    .constdata__ZTVN10QtMobility13QMagnetometerE 0x0000eda4   Section       56  QtSensors.in(.constdata__ZTVN10QtMobility13QMagnetometerE)
    .constdata__ZTVN10QtMobility13QSensorFilterE 0x0000eddc   Section       16  QtSensors.in(.constdata__ZTVN10QtMobility13QSensorFilterE)
    .constdata__ZTVN10QtMobility14QAccelerometerE 0x0000edec   Section       56  QtSensors.in(.constdata__ZTVN10QtMobility14QAccelerometerE)
    .constdata__ZTVN10QtMobility14QSensorBackendE 0x0000ee24   Section       64  QtSensors.in(.constdata__ZTVN10QtMobility14QSensorBackendE)
    .constdata__ZTVN10QtMobility14QSensorReadingE 0x0000ee64   Section       60  QtSensors.in(.constdata__ZTVN10QtMobility14QSensorReadingE)
    .constdata__ZTVN10QtMobility15QCompassReadingE 0x0000eea0   Section       60  QtSensors.in(.constdata__ZTVN10QtMobility15QCompassReadingE)
    .constdata__ZTVN10QtMobility15QRotationSensorE 0x0000eedc   Section       56  QtSensors.in(.constdata__ZTVN10QtMobility15QRotationSensorE)
    .constdata__ZTVN10QtMobility16QProximitySensorE 0x0000ef14   Section       56  QtSensors.in(.constdata__ZTVN10QtMobility16QProximitySensorE)
    .constdata__ZTVN10QtMobility16QRotationReadingE 0x0000ef4c   Section       60  QtSensors.in(.constdata__ZTVN10QtMobility16QRotationReadingE)
    .constdata__ZTVN10QtMobility17QProximityReadingE 0x0000ef88   Section       60  QtSensors.in(.constdata__ZTVN10QtMobility17QProximityReadingE)
    .constdata__ZTVN10QtMobility18QOrientationSensorE 0x0000efc4   Section       56  QtSensors.in(.constdata__ZTVN10QtMobility18QOrientationSensorE)
    .constdata__ZTVN10QtMobility19QAmbientLightSensorE 0x0000effc   Section       56  QtSensors.in(.constdata__ZTVN10QtMobility19QAmbientLightSensorE)
    .constdata__ZTVN10QtMobility19QOrientationReadingE 0x0000f034   Section       60  QtSensors.in(.constdata__ZTVN10QtMobility19QOrientationReadingE)
    .constdata__ZTVN10QtMobility20QAmbientLightReadingE 0x0000f070   Section       60  QtSensors.in(.constdata__ZTVN10QtMobility20QAmbientLightReadingE)
    .constdata__ZTVN10QtMobility20QMagnetometerReadingE 0x0000f0ac   Section       60  QtSensors.in(.constdata__ZTVN10QtMobility20QMagnetometerReadingE)
    .constdata__ZTVN10QtMobility21QAccelerometerReadingE 0x0000f0e8   Section       60  QtSensors.in(.constdata__ZTVN10QtMobility21QAccelerometerReadingE)
    .constdata__ZTVN10QtMobility7QSensorE    0x0000f124   Section       56  QtSensors.in(.constdata__ZTVN10QtMobility7QSensorE)
    .constdata__ZTVN10QtMobility8QCompassE   0x0000f15c   Section       56  QtSensors.in(.constdata__ZTVN10QtMobility8QCompassE)
    .conststring$33                          0x0000f194   Data           0  QtSensors.in(.conststring)
    .conststring                             0x0000f194   Section       15  QtSensors.in(.conststring)
    .conststring$33                          0x0000f1a3   Data           0  QtSensors.in(.conststring)
    .conststring                             0x0000f1a3   Section       20  QtSensors.in(.conststring)
    .conststring$33                          0x0000f1b7   Data           0  QtSensors.in(.conststring)
    .conststring                             0x0000f1b7   Section        9  QtSensors.in(.conststring)
    .conststring$33                          0x0000f1c0   Data           0  QtSensors.in(.conststring)
    .conststring                             0x0000f1c0   Section       14  QtSensors.in(.conststring)
    .conststring$33                          0x0000f1ce   Data           0  QtSensors.in(.conststring)
    .conststring                             0x0000f1ce   Section       19  QtSensors.in(.conststring)
    .conststring$33                          0x0000f1e1   Data           0  QtSensors.in(.conststring)
    .conststring                             0x0000f1e1   Section       17  QtSensors.in(.conststring)
    .conststring$33                          0x0000f1f2   Data           0  QtSensors.in(.conststring)
    .conststring                             0x0000f1f2   Section       16  QtSensors.in(.conststring)
    .conststring$33                          0x0000f202   Data           0  QtSensors.in(.conststring)
    .conststring                             0x0000f202   Section       11  QtSensors.in(.conststring)
    .init_array                              0x0000f210   Section        4  QtSensors.in(.init_array)
    .ARM.exidx                               0x0000f214   Section        8  ucppinit_aeabi.o(.ARM.exidx)
    .data$0                                  0x00400000   Data           0  QtSensors.in(.data)
    QtMobility::settings_use_user_scope      0x00400000   Data           1  QtSensors.in(.data)
    .data                                    0x00400000   Section       36  QtSensors.in(.data)
    QtMobility::load_external_plugins        0x00400001   Data           1  QtSensors.in(.data)
    _ZGVcleanup@_ZN10QtMobility12pluginLoaderEv_0 0x00400004   Data           4  QtSensors.in(.data)
    cleanup@_ZN10QtMobility12pluginLoaderEv_1 0x00400008   Data           4  QtSensors.in(.data)
    _ZGVcleanup@_ZN10QtMobility20sensorManagerPrivateEv_0 0x0040000c   Data           4  QtSensors.in(.data)
    cleanup@_ZN10QtMobility20sensorManagerPrivateEv_1 0x00400010   Data           4  QtSensors.in(.data)
    QtMobility::this_pluginLoader            0x00400014   Data           8  QtSensors.in(.data)
    QtMobility::this_sensorManagerPrivate    0x0040001c   Data           8  QtSensors.in(.data)
    .data$0                                  0x00400024   Data           0  QtSensors.in(.data)
    QtMobility::qtimestamp_id                0x00400024   Data           4  QtSensors.in(.data)
    .data                                    0x00400024   Section       16  QtSensors.in(.data)
    QtMobility::qrange_id                    0x00400028   Data           4  QtSensors.in(.data)
    QtMobility::qrangelist_id                0x0040002c   Data           4  QtSensors.in(.data)
    QtMobility::qoutputrangelist_id          0x00400030   Data           4  QtSensors.in(.data)
    .data$0                                  0x00400034   Data           0  ucppfini.o(.data)
    .data                                    0x00400034   Section        4  ucppfini.o(.data)
    .data__ZZN11QMetaTypeIdI5QListI5QPairIiiEEE14qt_metatype_idEvE11metatype_id 0x00400038   Section        4  QtSensors.in(.data__ZZN11QMetaTypeIdI5QListI5QPairIiiEEE14qt_metatype_idEvE11metatype_id)
    .data__ZZN11QMetaTypeIdI5QListIN10QtMobility12qoutputrangeEEE14qt_metatype_idEvE11metatype_id 0x0040003c   Section        4  QtSensors.in(.data__ZZN11QMetaTypeIdI5QListIN10QtMobility12qoutputrangeEEE14qt_metatype_idEvE11metatype_id)
    .data__ZZN11QMetaTypeIdI5QPairIiiEE14qt_metatype_idEvE11metatype_id 0x00400040   Section        4  QtSensors.in(.data__ZZN11QMetaTypeIdI5QPairIiiEE14qt_metatype_idEvE11metatype_id)
    .data__ZZN11QMetaTypeIdIN10QtMobility10qtimestampEE14qt_metatype_idEvE11metatype_id 0x00400044   Section        4  QtSensors.in(.data__ZZN11QMetaTypeIdIN10QtMobility10qtimestampEE14qt_metatype_idEvE11metatype_id)
    .bss$5                                   0x00400048   Data           0  ucppfini.o(.bss)
    dtor_rec                                 0x00400048   Data        2048  ucppfini.o(.bss)
    .bss                                     0x00400048   Section     2048  ucppfini.o(.bss)

    Global Symbols

    Symbol Name                              Value     Ov Type        Size  Object(Section)

    BuildAttributes$$THUMB_ISAv2$ARM_ISAv5$M$PE$A:L22$X:L11$S22$IEEE1$IW$USESV6$~STKCKD$USESV7$~SHL$OSPACE$IEEEJ$EBA8$UX$REQ8$PRES8$EABIv2 0x00000000   Number         0  anon$$obj.o ABSOLUTE
    #<DLL>QtCore{00040703}[2001b2dc].dll#<\DLL>11a  - Undefined Reference
    #<DLL>QtCore{00040703}[2001b2dc].dll#<\DLL>138  - Undefined Reference
    #<DLL>QtCore{00040703}[2001b2dc].dll#<\DLL>144  - Undefined Reference
    #<DLL>QtCore{00040703}[2001b2dc].dll#<\DLL>14b  - Undefined Reference
    #<DLL>QtCore{00040703}[2001b2dc].dll#<\DLL>14c  - Undefined Reference
    #<DLL>QtCore{00040703}[2001b2dc].dll#<\DLL>14f  - Undefined Reference
    #<DLL>QtCore{00040703}[2001b2dc].dll#<\DLL>1f2  - Undefined Reference
    #<DLL>QtCore{00040703}[2001b2dc].dll#<\DLL>1f3  - Undefined Reference
    #<DLL>QtCore{00040703}[2001b2dc].dll#<\DLL>1f5  - Undefined Reference
    #<DLL>QtCore{00040703}[2001b2dc].dll#<\DLL>20  - Undefined Reference
    #<DLL>QtCore{00040703}[2001b2dc].dll#<\DLL>2e  - Undefined Reference
    #<DLL>QtCore{00040703}[2001b2dc].dll#<\DLL>2f1  - Undefined Reference
    #<DLL>QtCore{00040703}[2001b2dc].dll#<\DLL>304  - Undefined Reference
    #<DLL>QtCore{00040703}[2001b2dc].dll#<\DLL>38  - Undefined Reference
    #<DLL>QtCore{00040703}[2001b2dc].dll#<\DLL>46  - Undefined Reference
    #<DLL>QtCore{00040703}[2001b2dc].dll#<\DLL>47  - Undefined Reference
    #<DLL>QtCore{00040703}[2001b2dc].dll#<\DLL>49  - Undefined Reference
    #<DLL>QtCore{00040703}[2001b2dc].dll#<\DLL>5ad  - Undefined Reference
    #<DLL>QtCore{00040703}[2001b2dc].dll#<\DLL>5b1  - Undefined Reference
    #<DLL>QtCore{00040703}[2001b2dc].dll#<\DLL>5bf  - Undefined Reference
    #<DLL>QtCore{00040703}[2001b2dc].dll#<\DLL>5c5  - Undefined Reference
    #<DLL>QtCore{00040703}[2001b2dc].dll#<\DLL>6aa  - Undefined Reference
    #<DLL>QtCore{00040703}[2001b2dc].dll#<\DLL>6e0  - Undefined Reference
    #<DLL>QtCore{00040703}[2001b2dc].dll#<\DLL>6e3  - Undefined Reference
    #<DLL>QtCore{00040703}[2001b2dc].dll#<\DLL>6e4  - Undefined Reference
    #<DLL>QtCore{00040703}[2001b2dc].dll#<\DLL>6e6  - Undefined Reference
    #<DLL>QtCore{00040703}[2001b2dc].dll#<\DLL>6e7  - Undefined Reference
    #<DLL>QtCore{00040703}[2001b2dc].dll#<\DLL>6e8  - Undefined Reference
    #<DLL>QtCore{00040703}[2001b2dc].dll#<\DLL>6ed  - Undefined Reference
    #<DLL>QtCore{00040703}[2001b2dc].dll#<\DLL>6f1  - Undefined Reference
    #<DLL>QtCore{00040703}[2001b2dc].dll#<\DLL>6f8  - Undefined Reference
    #<DLL>QtCore{00040703}[2001b2dc].dll#<\DLL>6fd  - Undefined Reference
    #<DLL>QtCore{00040703}[2001b2dc].dll#<\DLL>702  - Undefined Reference
    #<DLL>QtCore{00040703}[2001b2dc].dll#<\DLL>716  - Undefined Reference
    #<DLL>QtCore{00040703}[2001b2dc].dll#<\DLL>722  - Undefined Reference
    #<DLL>QtCore{00040703}[2001b2dc].dll#<\DLL>726  - Undefined Reference
    #<DLL>QtCore{00040703}[2001b2dc].dll#<\DLL>72c  - Undefined Reference
    #<DLL>QtCore{00040703}[2001b2dc].dll#<\DLL>752  - Undefined Reference
    #<DLL>QtCore{00040703}[2001b2dc].dll#<\DLL>75d  - Undefined Reference
    #<DLL>QtCore{00040703}[2001b2dc].dll#<\DLL>822  - Undefined Reference
    #<DLL>QtCore{00040703}[2001b2dc].dll#<\DLL>856  - Undefined Reference
    #<DLL>QtCore{00040703}[2001b2dc].dll#<\DLL>85d  - Undefined Reference
    #<DLL>QtCore{00040703}[2001b2dc].dll#<\DLL>85f  - Undefined Reference
    #<DLL>QtCore{00040703}[2001b2dc].dll#<\DLL>88c  - Undefined Reference
    #<DLL>QtCore{00040703}[2001b2dc].dll#<\DLL>88f  - Undefined Reference
    #<DLL>QtCore{00040703}[2001b2dc].dll#<\DLL>895  - Undefined Reference
    #<DLL>QtCore{00040703}[2001b2dc].dll#<\DLL>897  - Undefined Reference
    #<DLL>QtCore{00040703}[2001b2dc].dll#<\DLL>8d5  - Undefined Reference
    #<DLL>QtCore{00040703}[2001b2dc].dll#<\DLL>8e0  - Undefined Reference
    #<DLL>QtCore{00040703}[2001b2dc].dll#<\DLL>96  - Undefined Reference
    #<DLL>QtCore{00040703}[2001b2dc].dll#<\DLL>964  - Undefined Reference
    #<DLL>QtCore{00040703}[2001b2dc].dll#<\DLL>966  - Undefined Reference
    #<DLL>QtCore{00040703}[2001b2dc].dll#<\DLL>976  - Undefined Reference
    #<DLL>QtCore{00040703}[2001b2dc].dll#<\DLL>9c4  - Undefined Reference
    #<DLL>QtCore{00040703}[2001b2dc].dll#<\DLL>9ce  - Undefined Reference
    #<DLL>QtCore{00040703}[2001b2dc].dll#<\DLL>9cf  - Undefined Reference
    #<DLL>QtCore{00040703}[2001b2dc].dll#<\DLL>9f  - Undefined Reference
    #<DLL>QtCore{00040703}[2001b2dc].dll#<\DLL>a8  - Undefined Reference
    #<DLL>QtCore{00040703}[2001b2dc].dll#<\DLL>ae7  - Undefined Reference
    #<DLL>QtCore{00040703}[2001b2dc].dll#<\DLL>aeb  - Undefined Reference
    #<DLL>QtCore{00040703}[2001b2dc].dll#<\DLL>aed  - Undefined Reference
    #<DLL>QtCore{00040703}[2001b2dc].dll#<\DLL>afa  - Undefined Reference
    #<DLL>QtCore{00040703}[2001b2dc].dll#<\DLL>afb  - Undefined Reference
    #<DLL>QtCore{00040703}[2001b2dc].dll#<\DLL>be0  - Undefined Reference
    #<DLL>QtCore{00040703}[2001b2dc].dll#<\DLL>be9  - Undefined Reference
    #<DLL>QtCore{00040703}[2001b2dc].dll#<\DLL>bf8  - Undefined Reference
    #<DLL>QtCore{00040703}[2001b2dc].dll#<\DLL>c10  - Undefined Reference
    #<DLL>QtCore{00040703}[2001b2dc].dll#<\DLL>c1a  - Undefined Reference
    #<DLL>QtCore{00040703}[2001b2dc].dll#<\DLL>c3d  - Undefined Reference
    #<DLL>QtCore{00040703}[2001b2dc].dll#<\DLL>c46  - Undefined Reference
    #<DLL>QtCore{00040703}[2001b2dc].dll#<\DLL>cd2  - Undefined Reference
    #<DLL>QtCore{00040703}[2001b2dc].dll#<\DLL>e19  - Undefined Reference
    #<DLL>QtCore{00040703}[2001b2dc].dll#<\DLL>e1a  - Undefined Reference
    #<DLL>QtCore{00040703}[2001b2dc].dll#<\DLL>e69  - Undefined Reference
    #<DLL>QtCore{00040703}[2001b2dc].dll#<\DLL>e6b  - Undefined Reference
    #<DLL>QtCore{00040703}[2001b2dc].dll#<\DLL>e6c  - Undefined Reference
    #<DLL>dfpaeabi{000a0000}.dll#<\DLL>19     - Undefined Reference
    #<DLL>drtaeabi{000a0000}.dll#<\DLL>93     - Undefined Reference
    #<DLL>drtaeabi{000a0000}.dll#<\DLL>9b     - Undefined Reference
    #<DLL>drtaeabi{000a0000}.dll#<\DLL>9e     - Undefined Reference
    #<DLL>drtaeabi{000a0000}.dll#<\DLL>b4     - Undefined Reference
    #<DLL>drtaeabi{000a0000}.dll#<\DLL>b7     - Undefined Reference
    #<DLL>drtaeabi{000a0000}.dll#<\DLL>b8     - Undefined Reference
    #<DLL>drtaeabi{000a0000}.dll#<\DLL>ba     - Undefined Reference
    #<DLL>drtaeabi{000a0000}.dll#<\DLL>bb     - Undefined Reference
    #<DLL>drtaeabi{000a0000}.dll#<\DLL>bc     - Undefined Reference
    #<DLL>drtaeabi{000a0000}.dll#<\DLL>bd     - Undefined Reference
    #<DLL>drtaeabi{000a0000}.dll#<\DLL>be     - Undefined Reference
    #<DLL>drtrvct2_2{000a0000}.dll#<\DLL>1c   - Undefined Reference
    #<DLL>efsrv{000a0000}[100039e4].dll#<\DLL>44  - Undefined Reference
    #<DLL>efsrv{000a0000}[100039e4].dll#<\DLL>e7  - Undefined Reference
    #<DLL>euser{000a0000}[100039e5].dll#<\DLL>29e  - Undefined Reference
    #<DLL>euser{000a0000}[100039e5].dll#<\DLL>29f  - Undefined Reference
    #<DLL>euser{000a0000}[100039e5].dll#<\DLL>492  - Undefined Reference
    #<DLL>euser{000a0000}[100039e5].dll#<\DLL>78  - Undefined Reference
    #<DLL>libc{00010000}[10207369].dll#<\DLL>15e  - Undefined Reference
    #<DLL>libc{00010000}[10207369].dll#<\DLL>e8  - Undefined Reference
    #<DLL>libstdcpp{00010000}[10282872].dll#<\DLL>3dc  - Undefined Reference
    #<DLL>libstdcpp{00010000}[10282872].dll#<\DLL>3e0  - Undefined Reference
    QByteArray::shared_null                   - Undefined Reference
    QObject::staticMetaObject                 - Undefined Reference
    QString::shared_null                      - Undefined Reference
    QHashData::shared_null                    - Undefined Reference
    QListData::shared_null                    - Undefined Reference
    typeinfo for QObject                      - Undefined Reference
    typeinfo for std::exception               - Undefined Reference
    vtable for __cxxabiv1::__class_type_info  - Undefined Reference
    vtable for __cxxabiv1::__si_class_type_info  - Undefined Reference
    _fp_init                                  - Undefined Weak Reference
    Image$$ER_RO$$Base                       0x00008000   Number         0  anon$$obj.o(linker$$defined$$symbols)
    _E32Dll                                  0x00008000   ARM Code      40  uc_dll_.o(.emb_text)
    Symbian$$CPP$$Exception$$Descriptor      0x00008014   Data           0  uc_dll_.o(.emb_text)
    __cpp_initialize__aeabi_                 0x00008028   ARM Code      72  ucppinit_aeabi.o(.emb_text)
    QtMobility::QSensorBackend::getStaticMetaObject() 0x00008071   Thumb Code     4  QtSensors.in(.text)
    std::nothrow                             0x00008071   Thumb Code     0  ucppinit_aeabi.o(.emb_text)
    QtMobility::QSensorBackend::metaObject() const 0x00008075   Thumb Code    12  QtSensors.in(.text)
    QtMobility::QSensorBackend::qt_metacast(const char*) 0x00008081   Thumb Code    40  QtSensors.in(.text)
    QtMobility::QSensorBackend::qt_metacall(QMetaObject::Call, int, void**) 0x000080a9   Thumb Code     8  QtSensors.in(.text)
    QtMobility::QSensorBackend::QSensorBackend__sub_object(QtMobility::QSensor*) 0x000080b1   Thumb Code    18  QtSensors.in(.text)
    QtMobility::QSensorBackend::~QSensorBackend() 0x000080c3   Thumb Code     0  QtSensors.in(.text)
    QtMobility::QSensorBackend::~QSensorBackend__sub_object() 0x000080c3   Thumb Code     8  QtSensors.in(.text)
    QtMobility::QSensorBackend::~QSensorBackend__deallocating() 0x000080cb   Thumb Code    16  QtSensors.in(.text)
    QtMobility::QSensorBackend::addDataRate(float, float) 0x000080db   Thumb Code    42  QtSensors.in(.text)
    QtMobility::QSensorBackend::setDataRates(const QtMobility::QSensor*) 0x00008105   Thumb Code   172  QtSensors.in(.text)
    QtMobility::QSensorBackend::addOutputRange(float, float, float) 0x000081b1   Thumb Code    22  QtSensors.in(.text)
    QtMobility::QSensorBackend::setDescription(const QString&) 0x000081c7   Thumb Code    14  QtSensors.in(.text)
    QtMobility::QSensorBackend::reading() const 0x000081d5   Thumb Code     8  QtSensors.in(.text)
    QtMobility::QSensorBackend::newReadingAvailable() 0x000081dd   Thumb Code    84  QtSensors.in(.text)
    QtMobility::QSensorBackend::sensorStopped() 0x00008231   Thumb Code    12  QtSensors.in(.text)
    QtMobility::QSensorBackend::sensorBusy() 0x0000823d   Thumb Code    16  QtSensors.in(.text)
    QtMobility::QSensorBackend::sensorError(int) 0x0000824d   Thumb Code    16  QtSensors.in(.text)
    QtMobility::QSensorBackend::setReadings(QtMobility::QSensorReading*, QtMobility::QSensorReading*, QtMobility::QSensorReading*) 0x0000825d   Thumb Code    10  QtSensors.in(.text)
    QtMobility::QSensor::sensorTypes()       0x000084bb   Thumb Code    32  QtSensors.in(.text)
    QtMobility::QSensor::sensorsForType(const QByteArray&) 0x000084db   Thumb Code    64  QtSensors.in(.text)
    QtMobility::QSensor::defaultSensorForType(const QByteArray&) 0x0000851b   Thumb Code   426  QtSensors.in(.text)
    QtMobility::QSensorManager::registerBackend(const QByteArray&, const QByteArray&, QtMobility::QSensorBackendFactory*) 0x000086c5   Thumb Code    70  QtSensors.in(.text)
    QtMobility::QSensorManager::createBackend(QtMobility::QSensor*) 0x0000870b   Thumb Code   468  QtSensors.in(.text)
    QtMobility::QSensorManager::registerStaticPlugin(QtMobility::QSensorPluginInterface*(*)()) 0x000088df   Thumb Code    52  QtSensors.in(.text)
    QtMobility::sensors_unit_test_hook(int)  0x00008913   Thumb Code   112  QtSensors.in(.text)
    QtMobility::QSensorPluginLoader::load()  0x000089db   Thumb Code   476  QtSensors.in(.text)
    QtMobility::QSensorPluginLoader::QSensorPluginLoader(const char*, const QString&) 0x00008bb7   Thumb Code   132  QtSensors.in(.text)
    QtMobility::QSensorPluginLoader::QSensorPluginLoader__sub_object(const char*, const QString&) 0x00008bb7   Thumb Code     0  QtSensors.in(.text)
    QtMobility::QSensorPluginLoader::~QSensorPluginLoader() 0x00008c3b   Thumb Code   214  QtSensors.in(.text)
    QtMobility::QSensorPluginLoader::~QSensorPluginLoader__sub_object() 0x00008c3b   Thumb Code     0  QtSensors.in(.text)
    QtMobility::QSensor::getStaticMetaObject() 0x00008dcd   Thumb Code     4  QtSensors.in(.text)
    QtMobility::QSensor::metaObject() const  0x00008dd1   Thumb Code    12  QtSensors.in(.text)
    QtMobility::QSensor::qt_metacast(const char*) 0x00008ddd   Thumb Code    40  QtSensors.in(.text)
    QtMobility::QSensor::setOutputRange(int) 0x00008e05   Thumb Code    62  QtSensors.in(.text)
    QtMobility::QSensor::activeChanged()     0x00008e43   Thumb Code    14  QtSensors.in(.text)
    QtMobility::QSensor::stop()              0x00008e51   Thumb Code    44  QtSensors.in(.text)
    QtMobility::QSensor::setActive(bool)     0x00008e7d   Thumb Code    34  QtSensors.in(.text)
    QtMobility::QSensor::setDataRate(int)    0x00008e9f   Thumb Code   182  QtSensors.in(.text)
    QtMobility::QSensor::setIdentifier(const QByteArray&) 0x00008f55   Thumb Code    38  QtSensors.in(.text)
    QtMobility::QSensor::error() const       0x00008f7b   Thumb Code     6  QtSensors.in(.text)
    QtMobility::QSensor::description() const 0x00008f81   Thumb Code    16  QtSensors.in(.text)
    QtMobility::QSensor::outputRange() const 0x00008f91   Thumb Code     6  QtSensors.in(.text)
    QtMobility::QSensor::outputRanges() const 0x00008f97   Thumb Code    12  QtSensors.in(.text)
    QtMobility::QSensor::isActive() const    0x00008fa3   Thumb Code     8  QtSensors.in(.text)
    QtMobility::QSensor::isBusy() const      0x00008fab   Thumb Code     8  QtSensors.in(.text)
    QtMobility::QSensor::reading() const     0x00008fb3   Thumb Code     6  QtSensors.in(.text)
    QtMobility::QSensor::dataRate() const    0x00008fb9   Thumb Code     6  QtSensors.in(.text)
    QtMobility::QSensor::availableDataRates() const 0x00008fbf   Thumb Code    12  QtSensors.in(.text)
    QtMobility::QSensor::isConnectedToBackend() const 0x00008fcb   Thumb Code    16  QtSensors.in(.text)
    QtMobility::QSensor::type() const        0x00008fdb   Thumb Code    12  QtSensors.in(.text)
    QtMobility::QSensor::identifier() const  0x00008fe7   Thumb Code    10  QtSensors.in(.text)
    QtMobility::QSensor::connectToBackend()  0x00008ff1   Thumb Code    34  QtSensors.in(.text)
    QtMobility::QSensor::start()             0x00009013   Thumb Code    70  QtSensors.in(.text)
    QtMobility::QSensor::sensorError(int)    0x00009059   Thumb Code    30  QtSensors.in(.text)
    QtMobility::QSensor::readingChanged()    0x00009077   Thumb Code    14  QtSensors.in(.text)
    QtMobility::QSensor::busyChanged()       0x00009085   Thumb Code    14  QtSensors.in(.text)
    QtMobility::QSensor::qt_metacall(QMetaObject::Call, int, void**) 0x00009093   Thumb Code   580  QtSensors.in(.text)
    QtMobility::QSensor::QSensor(const QByteArray&, QObject*) 0x000092d7   Thumb Code    58  QtSensors.in(.text)
    QtMobility::QSensor::QSensor__sub_object(const QByteArray&, QObject*) 0x000092d7   Thumb Code     0  QtSensors.in(.text)
    QtMobility::QSensor::~QSensor()          0x00009311   Thumb Code   182  QtSensors.in(.text)
    QtMobility::QSensor::~QSensor__sub_object() 0x00009311   Thumb Code     0  QtSensors.in(.text)
    QtMobility::QSensor::~QSensor__deallocating() 0x000093c7   Thumb Code    16  QtSensors.in(.text)
    QtMobility::QSensor::addFilter(QtMobility::QSensorFilter*) 0x000093d7   Thumb Code    76  QtSensors.in(.text)
    QtMobility::QSensor::removeFilter(QtMobility::QSensorFilter*) 0x00009423   Thumb Code    54  QtSensors.in(.text)
    QtMobility::QSensorFilter::QSensorFilter__sub_object() 0x00009459   Thumb Code    10  QtSensors.in(.text)
    QtMobility::QSensorFilter::~QSensorFilter() 0x00009463   Thumb Code     0  QtSensors.in(.text)
    QtMobility::QSensorFilter::~QSensorFilter__sub_object() 0x00009463   Thumb Code    24  QtSensors.in(.text)
    QtMobility::QSensorFilter::setSensor(QtMobility::QSensor*) 0x0000947b   Thumb Code     4  QtSensors.in(.text)
    QtMobility::QSensorReading::getStaticMetaObject() 0x0000947f   Thumb Code     4  QtSensors.in(.text)
    QtMobility::QSensorReading::metaObject() const 0x00009483   Thumb Code    12  QtSensors.in(.text)
    QtMobility::QSensorReading::qt_metacast(const char*) 0x0000948f   Thumb Code    38  QtSensors.in(.text)
    QtMobility::QSensorReading::timestamp() const 0x000094b5   Thumb Code     8  QtSensors.in(.text)
    QtMobility::QSensorReading::qt_metacall(QMetaObject::Call, int, void**) 0x000094bd   Thumb Code    68  QtSensors.in(.text)
    QtMobility::QSensorReading::~QSensorReading() 0x00009501   Thumb Code    24  QtSensors.in(.text)
    QtMobility::QSensorReading::~QSensorReading__sub_object() 0x00009501   Thumb Code     0  QtSensors.in(.text)
    QtMobility::QSensorReading::~QSensorReading__deallocating() 0x00009519   Thumb Code    16  QtSensors.in(.text)
    QtMobility::QSensorReading::setTimestamp(QtMobility::qtimestamp) 0x00009529   Thumb Code     6  QtSensors.in(.text)
    QtMobility::QSensorReading::valueCount() const 0x0000952f   Thumb Code    26  QtSensors.in(.text)
    QtMobility::QSensorReading::value(int) const 0x00009549   Thumb Code    46  QtSensors.in(.text)
    QtMobility::QSensorReading::QSensorReading(QObject*, QtMobility::QSensorReadingPrivate*) 0x00009577   Thumb Code    48  QtSensors.in(.text)
    QtMobility::QSensorReading::QSensorReading__sub_object(QObject*, QtMobility::QSensorReadingPrivate*) 0x00009577   Thumb Code     0  QtSensors.in(.text)
    QtMobility::QSensorReading::copyValuesFrom(QtMobility::QSensorReading*) 0x000095a7   Thumb Code    10  QtSensors.in(.text)
    QtMobility::QAccelerometerReading::getStaticMetaObject() 0x000096a9   Thumb Code     4  QtSensors.in(.text)
    QtMobility::QAccelerometerReading::metaObject() const 0x000096ad   Thumb Code    12  QtSensors.in(.text)
    QtMobility::QAccelerometerReading::qt_metacast(const char*) 0x000096b9   Thumb Code    40  QtSensors.in(.text)
    QtMobility::QAccelerometerReading::z() const 0x000096e1   Thumb Code     6  QtSensors.in(.text)
    QtMobility::QAccelerometerReading::y() const 0x000096e7   Thumb Code     6  QtSensors.in(.text)
    QtMobility::QAccelerometerReading::x() const 0x000096ed   Thumb Code     6  QtSensors.in(.text)
    QtMobility::QAccelerometerReading::qt_metacall(QMetaObject::Call, int, void**) 0x000096f3   Thumb Code    86  QtSensors.in(.text)
    QtMobility::QAccelerometerReading::QAccelerometerReading(QObject*) 0x00009749   Thumb Code    46  QtSensors.in(.text)
    QtMobility::QAccelerometerReading::QAccelerometerReading__sub_object(QObject*) 0x00009749   Thumb Code     0  QtSensors.in(.text)
    QtMobility::QAccelerometerReading::~QAccelerometerReading() 0x00009777   Thumb Code    24  QtSensors.in(.text)
    QtMobility::QAccelerometerReading::~QAccelerometerReading__sub_object() 0x00009777   Thumb Code     0  QtSensors.in(.text)
    QtMobility::QAccelerometerReading::~QAccelerometerReading__deallocating() 0x0000978f   Thumb Code    16  QtSensors.in(.text)
    QtMobility::QAccelerometerReading::copyValuesFrom(QtMobility::QSensorReading*) 0x0000979f   Thumb Code    20  QtSensors.in(.text)
    QtMobility::QAccelerometerReading::setX(float) 0x000097b3   Thumb Code     6  QtSensors.in(.text)
    QtMobility::QAccelerometerReading::setY(float) 0x000097b9   Thumb Code     6  QtSensors.in(.text)
    QtMobility::QAccelerometerReading::setZ(float) 0x000097bf   Thumb Code     6  QtSensors.in(.text)
    QtMobility::QAccelerometer::getStaticMetaObject() 0x000097c5   Thumb Code     6  QtSensors.in(.text)
    QtMobility::QAccelerometer::metaObject() const 0x000097cb   Thumb Code    14  QtSensors.in(.text)
    QtMobility::QAccelerometer::qt_metacast(const char*) 0x000097d9   Thumb Code    40  QtSensors.in(.text)
    QtMobility::QAccelerometer::qt_metacall(QMetaObject::Call, int, void**) 0x00009801   Thumb Code     8  QtSensors.in(.text)
    QtMobility::QAmbientLightReading::getStaticMetaObject() 0x00009811   Thumb Code     4  QtSensors.in(.text)
    QtMobility::QAmbientLightReading::metaObject() const 0x00009815   Thumb Code    12  QtSensors.in(.text)
    QtMobility::QAmbientLightReading::qt_metacast(const char*) 0x00009821   Thumb Code    40  QtSensors.in(.text)
    QtMobility::QAmbientLightReading::lightLevel() const 0x00009849   Thumb Code     6  QtSensors.in(.text)
    QtMobility::QAmbientLightReading::qt_metacall(QMetaObject::Call, int, void**) 0x0000984f   Thumb Code    66  QtSensors.in(.text)
    QtMobility::QAmbientLightReading::QAmbientLightReading(QObject*) 0x00009891   Thumb Code    42  QtSensors.in(.text)
    QtMobility::QAmbientLightReading::QAmbientLightReading__sub_object(QObject*) 0x00009891   Thumb Code     0  QtSensors.in(.text)
    QtMobility::QAmbientLightReading::~QAmbientLightReading() 0x000098bb   Thumb Code    24  QtSensors.in(.text)
    QtMobility::QAmbientLightReading::~QAmbientLightReading__sub_object() 0x000098bb   Thumb Code     0  QtSensors.in(.text)
    QtMobility::QAmbientLightReading::~QAmbientLightReading__deallocating() 0x000098d3   Thumb Code    16  QtSensors.in(.text)
    QtMobility::QAmbientLightReading::copyValuesFrom(QtMobility::QSensorReading*) 0x000098e3   Thumb Code    16  QtSensors.in(.text)
    QtMobility::QAmbientLightReading::setLightLevel(QtMobility::QAmbientLightReading::LightLevel) 0x000098f3   Thumb Code    26  QtSensors.in(.text)
    QtMobility::QAmbientLightSensor::getStaticMetaObject() 0x0000990d   Thumb Code     6  QtSensors.in(.text)
    QtMobility::QAmbientLightSensor::metaObject() const 0x00009913   Thumb Code    14  QtSensors.in(.text)
    QtMobility::QAmbientLightSensor::qt_metacast(const char*) 0x00009921   Thumb Code    40  QtSensors.in(.text)
    QtMobility::QAmbientLightSensor::qt_metacall(QMetaObject::Call, int, void**) 0x00009949   Thumb Code     8  QtSensors.in(.text)
    QtMobility::QCompassReading::getStaticMetaObject() 0x00009959   Thumb Code     4  QtSensors.in(.text)
    QtMobility::QCompassReading::metaObject() const 0x0000995d   Thumb Code    12  QtSensors.in(.text)
    QtMobility::QCompassReading::qt_metacast(const char*) 0x00009969   Thumb Code    40  QtSensors.in(.text)
    QtMobility::QCompassReading::calibrationLevel() const 0x00009991   Thumb Code     6  QtSensors.in(.text)
    QtMobility::QCompassReading::azimuth() const 0x00009997   Thumb Code     6  QtSensors.in(.text)
    QtMobility::QCompassReading::qt_metacall(QMetaObject::Call, int, void**) 0x0000999d   Thumb Code    76  QtSensors.in(.text)
    QtMobility::QCompassReading::QCompassReading(QObject*) 0x000099e9   Thumb Code    44  QtSensors.in(.text)
    QtMobility::QCompassReading::QCompassReading__sub_object(QObject*) 0x000099e9   Thumb Code     0  QtSensors.in(.text)
    QtMobility::QCompassReading::~QCompassReading() 0x00009a15   Thumb Code    24  QtSensors.in(.text)
    QtMobility::QCompassReading::~QCompassReading__sub_object() 0x00009a15   Thumb Code     0  QtSensors.in(.text)
    QtMobility::QCompassReading::~QCompassReading__deallocating() 0x00009a2d   Thumb Code    16  QtSensors.in(.text)
    QtMobility::QCompassReading::copyValuesFrom(QtMobility::QSensorReading*) 0x00009a3d   Thumb Code    16  QtSensors.in(.text)
    QtMobility::QCompassReading::setAzimuth(float) 0x00009a4d   Thumb Code     6  QtSensors.in(.text)
    QtMobility::QCompassReading::setCalibrationLevel(float) 0x00009a53   Thumb Code     6  QtSensors.in(.text)
    QtMobility::QCompass::getStaticMetaObject() 0x00009a59   Thumb Code     6  QtSensors.in(.text)
    QtMobility::QCompass::metaObject() const 0x00009a5f   Thumb Code    14  QtSensors.in(.text)
    QtMobility::QCompass::qt_metacast(const char*) 0x00009a6d   Thumb Code    40  QtSensors.in(.text)
    QtMobility::QCompass::qt_metacall(QMetaObject::Call, int, void**) 0x00009a95   Thumb Code     8  QtSensors.in(.text)
    QtMobility::QMagnetometerReading::getStaticMetaObject() 0x00009aa5   Thumb Code     4  QtSensors.in(.text)
    QtMobility::QMagnetometerReading::metaObject() const 0x00009aa9   Thumb Code    12  QtSensors.in(.text)
    QtMobility::QMagnetometerReading::qt_metacast(const char*) 0x00009ab5   Thumb Code    40  QtSensors.in(.text)
    QtMobility::QMagnetometerReading::calibrationLevel() const 0x00009add   Thumb Code     6  QtSensors.in(.text)
    QtMobility::QMagnetometerReading::z() const 0x00009ae3   Thumb Code     6  QtSensors.in(.text)
    QtMobility::QMagnetometerReading::y() const 0x00009ae9   Thumb Code     6  QtSensors.in(.text)
    QtMobility::QMagnetometerReading::x() const 0x00009aef   Thumb Code     6  QtSensors.in(.text)
    QtMobility::QMagnetometerReading::qt_metacall(QMetaObject::Call, int, void**) 0x00009af5   Thumb Code    98  QtSensors.in(.text)
    QtMobility::QMagnetometerReading::QMagnetometerReading(QObject*) 0x00009b57   Thumb Code    48  QtSensors.in(.text)
    QtMobility::QMagnetometerReading::QMagnetometerReading__sub_object(QObject*) 0x00009b57   Thumb Code     0  QtSensors.in(.text)
    QtMobility::QMagnetometerReading::~QMagnetometerReading() 0x00009b87   Thumb Code    24  QtSensors.in(.text)
    QtMobility::QMagnetometerReading::~QMagnetometerReading__sub_object() 0x00009b87   Thumb Code     0  QtSensors.in(.text)
    QtMobility::QMagnetometerReading::~QMagnetometerReading__deallocating() 0x00009b9f   Thumb Code    16  QtSensors.in(.text)
    QtMobility::QMagnetometerReading::copyValuesFrom(QtMobility::QSensorReading*) 0x00009baf   Thumb Code    20  QtSensors.in(.text)
    QtMobility::QMagnetometerReading::setX(float) 0x00009bc3   Thumb Code     6  QtSensors.in(.text)
    QtMobility::QMagnetometerReading::setY(float) 0x00009bc9   Thumb Code     6  QtSensors.in(.text)
    QtMobility::QMagnetometerReading::setZ(float) 0x00009bcf   Thumb Code     6  QtSensors.in(.text)
    QtMobility::QMagnetometerReading::setCalibrationLevel(float) 0x00009bd5   Thumb Code     6  QtSensors.in(.text)
    QtMobility::QMagnetometer::getStaticMetaObject() 0x00009bdb   Thumb Code     6  QtSensors.in(.text)
    QtMobility::QMagnetometer::metaObject() const 0x00009be1   Thumb Code    14  QtSensors.in(.text)
    QtMobility::QMagnetometer::qt_metacast(const char*) 0x00009bef   Thumb Code    40  QtSensors.in(.text)
    QtMobility::QMagnetometer::qt_metacall(QMetaObject::Call, int, void**) 0x00009c17   Thumb Code     8  QtSensors.in(.text)
    QtMobility::QOrientationReading::getStaticMetaObject() 0x00009c29   Thumb Code     4  QtSensors.in(.text)
    QtMobility::QOrientationReading::metaObject() const 0x00009c2d   Thumb Code    12  QtSensors.in(.text)
    QtMobility::QOrientationReading::qt_metacast(const char*) 0x00009c39   Thumb Code    40  QtSensors.in(.text)
    QtMobility::QOrientationReading::orientation() const 0x00009c61   Thumb Code     6  QtSensors.in(.text)
    QtMobility::QOrientationReading::qt_metacall(QMetaObject::Call, int, void**) 0x00009c67   Thumb Code    66  QtSensors.in(.text)
    QtMobility::QOrientationReading::QOrientationReading(QObject*) 0x00009ca9   Thumb Code    42  QtSensors.in(.text)
    QtMobility::QOrientationReading::QOrientationReading__sub_object(QObject*) 0x00009ca9   Thumb Code     0  QtSensors.in(.text)
    QtMobility::QOrientationReading::~QOrientationReading() 0x00009cd3   Thumb Code    24  QtSensors.in(.text)
    QtMobility::QOrientationReading::~QOrientationReading__sub_object() 0x00009cd3   Thumb Code     0  QtSensors.in(.text)
    QtMobility::QOrientationReading::~QOrientationReading__deallocating() 0x00009ceb   Thumb Code    16  QtSensors.in(.text)
    QtMobility::QOrientationReading::copyValuesFrom(QtMobility::QSensorReading*) 0x00009cfb   Thumb Code    16  QtSensors.in(.text)
    QtMobility::QOrientationReading::setOrientation(QtMobility::QOrientationReading::Orientation) 0x00009d0b   Thumb Code    28  QtSensors.in(.text)
    QtMobility::QOrientationSensor::getStaticMetaObject() 0x00009d27   Thumb Code     6  QtSensors.in(.text)
    QtMobility::QOrientationSensor::metaObject() const 0x00009d2d   Thumb Code    14  QtSensors.in(.text)
    QtMobility::QOrientationSensor::qt_metacast(const char*) 0x00009d3b   Thumb Code    40  QtSensors.in(.text)
    QtMobility::QOrientationSensor::qt_metacall(QMetaObject::Call, int, void**) 0x00009d63   Thumb Code     8  QtSensors.in(.text)
    QtMobility::QProximityReading::getStaticMetaObject() 0x00009d75   Thumb Code     4  QtSensors.in(.text)
    QtMobility::QProximityReading::metaObject() const 0x00009d79   Thumb Code    12  QtSensors.in(.text)
    QtMobility::QProximityReading::qt_metacast(const char*) 0x00009d85   Thumb Code    40  QtSensors.in(.text)
    QtMobility::QProximityReading::close() const 0x00009dad   Thumb Code     6  QtSensors.in(.text)
    QtMobility::QProximityReading::qt_metacall(QMetaObject::Call, int, void**) 0x00009db3   Thumb Code    66  QtSensors.in(.text)
    QtMobility::QProximityReading::QProximityReading(QObject*) 0x00009df5   Thumb Code    42  QtSensors.in(.text)
    QtMobility::QProximityReading::QProximityReading__sub_object(QObject*) 0x00009df5   Thumb Code     0  QtSensors.in(.text)
    QtMobility::QProximityReading::~QProximityReading() 0x00009e1f   Thumb Code    24  QtSensors.in(.text)
    QtMobility::QProximityReading::~QProximityReading__sub_object() 0x00009e1f   Thumb Code     0  QtSensors.in(.text)
    QtMobility::QProximityReading::~QProximityReading__deallocating() 0x00009e37   Thumb Code    16  QtSensors.in(.text)
    QtMobility::QProximityReading::copyValuesFrom(QtMobility::QSensorReading*) 0x00009e47   Thumb Code    16  QtSensors.in(.text)
    QtMobility::QProximityReading::setClose(bool) 0x00009e57   Thumb Code     6  QtSensors.in(.text)
    QtMobility::QProximitySensor::getStaticMetaObject() 0x00009e5d   Thumb Code     6  QtSensors.in(.text)
    QtMobility::QProximitySensor::metaObject() const 0x00009e63   Thumb Code    14  QtSensors.in(.text)
    QtMobility::QProximitySensor::qt_metacast(const char*) 0x00009e71   Thumb Code    40  QtSensors.in(.text)
    QtMobility::QProximitySensor::qt_metacall(QMetaObject::Call, int, void**) 0x00009e99   Thumb Code     8  QtSensors.in(.text)
    QtMobility::QRotationReading::getStaticMetaObject() 0x00009ea9   Thumb Code     4  QtSensors.in(.text)
    QtMobility::QRotationReading::metaObject() const 0x00009ead   Thumb Code    12  QtSensors.in(.text)
    QtMobility::QRotationReading::qt_metacast(const char*) 0x00009eb9   Thumb Code    40  QtSensors.in(.text)
    QtMobility::QRotationReading::z() const  0x00009ee1   Thumb Code     6  QtSensors.in(.text)
    QtMobility::QRotationReading::y() const  0x00009ee7   Thumb Code     6  QtSensors.in(.text)
    QtMobility::QRotationReading::x() const  0x00009eed   Thumb Code     6  QtSensors.in(.text)
    QtMobility::QRotationReading::qt_metacall(QMetaObject::Call, int, void**) 0x00009ef3   Thumb Code    86  QtSensors.in(.text)
    QtMobility::QRotationReading::QRotationReading(QObject*) 0x00009f49   Thumb Code    46  QtSensors.in(.text)
    QtMobility::QRotationReading::QRotationReading__sub_object(QObject*) 0x00009f49   Thumb Code     0  QtSensors.in(.text)
    QtMobility::QRotationReading::~QRotationReading() 0x00009f77   Thumb Code    24  QtSensors.in(.text)
    QtMobility::QRotationReading::~QRotationReading__sub_object() 0x00009f77   Thumb Code     0  QtSensors.in(.text)
    QtMobility::QRotationReading::~QRotationReading__deallocating() 0x00009f8f   Thumb Code    16  QtSensors.in(.text)
    QtMobility::QRotationReading::copyValuesFrom(QtMobility::QSensorReading*) 0x00009f9f   Thumb Code    20  QtSensors.in(.text)
    QtMobility::QRotationReading::setX(float) 0x00009fb3   Thumb Code     6  QtSensors.in(.text)
    QtMobility::QRotationReading::setY(float) 0x00009fb9   Thumb Code     6  QtSensors.in(.text)
    QtMobility::QRotationReading::setZ(float) 0x00009fbf   Thumb Code     6  QtSensors.in(.text)
    QtMobility::QRotationSensor::getStaticMetaObject() 0x00009fc5   Thumb Code     6  QtSensors.in(.text)
    QtMobility::QRotationSensor::metaObject() const 0x00009fcb   Thumb Code    14  QtSensors.in(.text)
    QtMobility::QRotationSensor::qt_metacast(const char*) 0x00009fd9   Thumb Code    40  QtSensors.in(.text)
    QtMobility::QRotationSensor::qt_metacall(QMetaObject::Call, int, void**) 0x0000a001   Thumb Code     8  QtSensors.in(.text)
    QtMobility::QTapReading::getStaticMetaObject() 0x0000a011   Thumb Code     4  QtSensors.in(.text)
    QtMobility::QTapReading::metaObject() const 0x0000a015   Thumb Code    12  QtSensors.in(.text)
    QtMobility::QTapReading::qt_metacast(const char*) 0x0000a021   Thumb Code    40  QtSensors.in(.text)
    QtMobility::QTapReading::isDoubleTap() const 0x0000a049   Thumb Code     6  QtSensors.in(.text)
    QtMobility::QTapReading::tapDirection() const 0x0000a04f   Thumb Code     6  QtSensors.in(.text)
    QtMobility::QTapReading::qt_metacall(QMetaObject::Call, int, void**) 0x0000a055   Thumb Code    78  QtSensors.in(.text)
    QtMobility::QTapReading::QTapReading(QObject*) 0x0000a0a3   Thumb Code    44  QtSensors.in(.text)
    QtMobility::QTapReading::QTapReading__sub_object(QObject*) 0x0000a0a3   Thumb Code     0  QtSensors.in(.text)
    QtMobility::QTapReading::~QTapReading()  0x0000a0cf   Thumb Code    24  QtSensors.in(.text)
    QtMobility::QTapReading::~QTapReading__sub_object() 0x0000a0cf   Thumb Code     0  QtSensors.in(.text)
    QtMobility::QTapReading::~QTapReading__deallocating() 0x0000a0e7   Thumb Code    16  QtSensors.in(.text)
    QtMobility::QTapReading::copyValuesFrom(QtMobility::QSensorReading*) 0x0000a0f7   Thumb Code    26  QtSensors.in(.text)
    QtMobility::QTapReading::setTapDirection(QtMobility::QTapReading::TapDirection) 0x0000a111   Thumb Code    50  QtSensors.in(.text)
    QtMobility::QTapReading::setDoubleTap(bool) 0x0000a143   Thumb Code     6  QtSensors.in(.text)
    QtMobility::QTapSensor::getStaticMetaObject() 0x0000a149   Thumb Code     6  QtSensors.in(.text)
    QtMobility::QTapSensor::metaObject() const 0x0000a14f   Thumb Code    14  QtSensors.in(.text)
    QtMobility::QTapSensor::qt_metacast(const char*) 0x0000a15d   Thumb Code    40  QtSensors.in(.text)
    QtMobility::QTapSensor::qt_metacall(QMetaObject::Call, int, void**) 0x0000a185   Thumb Code     8  QtSensors.in(.text)
    _E32Dll_Body                             0x0000a195   Thumb Code    34  uc_dll.o(.text)
    CppBSSInitializationError                0x0000a1bc   ARM Code       4  ucppfini.o(.text)
    __aeabi_atexit                           0x0000a1c0   ARM Code      28  ucppfini.o(.text)
    __cxa_atexit                             0x0000a1dc   ARM Code      48  ucppfini.o(.text)
    __cxa_finalize                           0x0000a20c   ARM Code      48  ucppfini.o(.text)
    run_static_dtors                         0x0000a23c   ARM Code       8  ucppfini.o(.text)
    __DLL_Export_Table__                     0x0000a534   ARM Code       0  QtSensors{00010103}.exp(ExportTable)
    DLL##ExportTableSize                     0x0000a538   Data           0  QtSensors{00010103}.exp(ExportTable)
    DLL##ExportTable                         0x0000a53c   Data           0  QtSensors{00010103}.exp(ExportTable)
    RFs::Att(const TDesC16&, unsigned&) const 0x0000a9c4   ARM Code       0  efsrv{000a0000}-231.o(StubCode)
    RFs::Connect(int)                        0x0000a9cc   ARM Code       0  efsrv{000a0000}-68.o(StubCode)
    operator delete (void*)                  0x0000a9d4   ARM Code       0  libstdcpp{00010000}-988.o(StubCode)
    operator new(unsigned)                   0x0000a9dc   ARM Code       0  libstdcpp{00010000}-992.o(StubCode)
    QDir::toNativeSeparators(const QString&) 0x0000a9e4   ARM Code       0  QtCore{00040703}-1453.o(StubCode)
    QDir::cd(const QString&)                 0x0000a9ec   ARM Code       0  QtCore{00040703}-1457.o(StubCode)
    QDir::QDir(const QString&)               0x0000a9f4   ARM Code       0  QtCore{00040703}-1471.o(StubCode)
    QDir::~QDir()                            0x0000a9fc   ARM Code       0  QtCore{00040703}-1477.o(StubCode)
    QByteArray::realloc(int)                 0x0000aa04   ARM Code       0  QtCore{00040703}-150.o(StubCode)
    QByteArray::QByteArray(const char*)      0x0000aa0c   ARM Code       0  QtCore{00040703}-159.o(StubCode)
    QByteArray::operator =(const QByteArray&) 0x0000aa14   ARM Code       0  QtCore{00040703}-168.o(StubCode)
    QTimer::singleShot(int, QObject*, const char*) 0x0000aa1c   ARM Code       0  QtCore{00040703}-1706.o(StubCode)
    QObject::childEvent(QChildEvent*)        0x0000aa24   ARM Code       0  QtCore{00040703}-1760.o(StubCode)
    QObject::timerEvent(QTimerEvent*)        0x0000aa2c   ARM Code       0  QtCore{00040703}-1763.o(StubCode)
    QObject::customEvent(QEvent*)            0x0000aa34   ARM Code       0  QtCore{00040703}-1764.o(StubCode)
    QObject::eventFilter(QObject*, QEvent*)  0x0000aa3c   ARM Code       0  QtCore{00040703}-1766.o(StubCode)
    QObject::qt_metacall(QMetaObject::Call, int, void**) 0x0000aa44   ARM Code       0  QtCore{00040703}-1767.o(StubCode)
    QObject::qt_metacast(const char*)        0x0000aa4c   ARM Code       0  QtCore{00040703}-1768.o(StubCode)
    QObject::connectNotify(const char*)      0x0000aa54   ARM Code       0  QtCore{00040703}-1773.o(StubCode)
    QObject::disconnectNotify(const char*)   0x0000aa5c   ARM Code       0  QtCore{00040703}-1777.o(StubCode)
    QObject::event(QEvent*)                  0x0000aa64   ARM Code       0  QtCore{00040703}-1784.o(StubCode)
    QObject::QObject(QObject*)               0x0000aa6c   ARM Code       0  QtCore{00040703}-1789.o(StubCode)
    QObject::~QObject()                      0x0000aa74   ARM Code       0  QtCore{00040703}-1794.o(StubCode)
    QString::fromLatin1(const char*, int)    0x0000aa7c   ARM Code       0  QtCore{00040703}-1814.o(StubCode)
    QString::fromLatin1_helper(const char*, int) 0x0000aa84   ARM Code       0  QtCore{00040703}-1826.o(StubCode)
    QString::free(QString::Data*)            0x0000aa8c   ARM Code       0  QtCore{00040703}-1830.o(StubCode)
    QString::append(const QString&)          0x0000aa94   ARM Code       0  QtCore{00040703}-1836.o(StubCode)
    QString::fromAscii(const char*, int)     0x0000aa9c   ARM Code       0  QtCore{00040703}-1874.o(StubCode)
    QString::operator =(const QString&)      0x0000aaa4   ARM Code       0  QtCore{00040703}-1885.o(StubCode)
    QVariant::~QVariant()                    0x0000aaac   ARM Code       0  QtCore{00040703}-2082.o(StubCode)
    QHashData::free_helper(void(*)(QHashData::Node*)) 0x0000aab4   ARM Code       0  QtCore{00040703}-2134.o(StubCode)
    QHashData::rehash(int)                   0x0000aabc   ARM Code       0  QtCore{00040703}-2141.o(StubCode)
    QHashData::nextNode(QHashData::Node*)    0x0000aac4   ARM Code       0  QtCore{00040703}-2143.o(StubCode)
    QListData::append()                      0x0000aacc   ARM Code       0  QtCore{00040703}-2188.o(StubCode)
    QListData::remove(int)                   0x0000aad4   ARM Code       0  QtCore{00040703}-2191.o(StubCode)
    QListData::realloc(int)                  0x0000aadc   ARM Code       0  QtCore{00040703}-2197.o(StubCode)
    QMetaType::registerType(const char*, void(*)(void*), void*(*)(const void*)) 0x0000aae4   ARM Code       0  QtCore{00040703}-2199.o(StubCode)
    QSettings::QSettings(QSettings::Scope, const QString&, const QString&, QObject*) 0x0000aaec   ARM Code       0  QtCore{00040703}-2261.o(StubCode)
    QSettings::~QSettings()                  0x0000aaf4   ARM Code       0  QtCore{00040703}-2272.o(StubCode)
    QMetaObject::propertyCount() const       0x0000aafc   ARM Code       0  QtCore{00040703}-2404.o(StubCode)
    QMetaObject::propertyOffset() const      0x0000ab04   ARM Code       0  QtCore{00040703}-2406.o(StubCode)
    QMetaObject::property(int) const         0x0000ab0c   ARM Code       0  QtCore{00040703}-2422.o(StubCode)
    QMetaProperty::read(const QObject*) const 0x0000ab14   ARM Code       0  QtCore{00040703}-2500.o(StubCode)
    QPluginLoader::errorString() const       0x0000ab1c   ARM Code       0  QtCore{00040703}-2510.o(StubCode)
    QPluginLoader::fileName() const          0x0000ab24   ARM Code       0  QtCore{00040703}-2511.o(StubCode)
    QDir::absolutePath() const               0x0000ab2c   ARM Code       0  QtCore{00040703}-2791.o(StubCode)
    QDir::absoluteFilePath(const QString&) const 0x0000ab34   ARM Code       0  QtCore{00040703}-2795.o(StubCode)
    QDir::path() const                       0x0000ab3c   ARM Code       0  QtCore{00040703}-2797.o(StubCode)
    QDir::filePath(const QString&) const     0x0000ab44   ARM Code       0  QtCore{00040703}-2810.o(StubCode)
    QDir::entryList(QFlags<QDir::Filter>, QFlags<QDir::SortFlag>) const 0x0000ab4c   ARM Code       0  QtCore{00040703}-2811.o(StubCode)
    QMetaObject::activate(QObject*, const QMetaObject*, int, void**) 0x0000ab54   ARM Code       0  QtCore{00040703}-282.o(StubCode)
    QString::toLocal8Bit() const             0x0000ab5c   ARM Code       0  QtCore{00040703}-3040.o(StubCode)
    QString::arg(const QString&, int, const QChar&) const 0x0000ab64   ARM Code       0  QtCore{00040703}-3049.o(StubCode)
    QString::utf16() const                   0x0000ab6c   ARM Code       0  QtCore{00040703}-3064.o(StubCode)
    QString::endsWith(const QLatin1String&, Qt::CaseSensitivity) const 0x0000ab74   ARM Code       0  QtCore{00040703}-3088.o(StubCode)
    QString::operator ==(const QString&) const 0x0000ab7c   ARM Code       0  QtCore{00040703}-3098.o(StubCode)
    QTextStream::QTextStream(QString*, QFlags<QIODevice::OpenModeFlag>) 0x0000ab84   ARM Code       0  QtCore{00040703}-312.o(StubCode)
    QVariant::toByteArray() const            0x0000ab8c   ARM Code       0  QtCore{00040703}-3133.o(StubCode)
    QVariant::isNull() const                 0x0000ab94   ARM Code       0  QtCore{00040703}-3142.o(StubCode)
    qt_message_output(QtMsgType, const char*) 0x0000ab9c   ARM Code       0  QtCore{00040703}-32.o(StubCode)
    QTextStream::~QTextStream()              0x0000aba4   ARM Code       0  QtCore{00040703}-324.o(StubCode)
    QSettings::value(const QString&, const QVariant&) const 0x0000abac   ARM Code       0  QtCore{00040703}-3282.o(StubCode)
    QTextStream::operator <<(const QString&) 0x0000abb4   ARM Code       0  QtCore{00040703}-331.o(StubCode)
    QTextStream::operator <<(char)           0x0000abbc   ARM Code       0  QtCore{00040703}-332.o(StubCode)
    QTextStream::operator <<(int)            0x0000abc4   ARM Code       0  QtCore{00040703}-335.o(StubCode)
    QHashData::allocateNode(int)             0x0000abcc   ARM Code       0  QtCore{00040703}-3609.o(StubCode)
    QHashData::detach_helper2(void(*)(QHashData::Node*, void*), void(*)(QHashData::Node*), int, int) 0x0000abd4   ARM Code       0  QtCore{00040703}-3610.o(StubCode)
    QListData::detach_grow(int*, int)        0x0000abdc   ARM Code       0  QtCore{00040703}-3689.o(StubCode)
    QListData::detach(int)                   0x0000abe4   ARM Code       0  QtCore{00040703}-3691.o(StubCode)
    QMetaType::registerTypedef(const char*, int) 0x0000abec   ARM Code       0  QtCore{00040703}-3692.o(StubCode)
    qt_symbian_throwIfError(int)             0x0000abf4   ARM Code       0  QtCore{00040703}-46.o(StubCode)
    QPluginLoader::unload()                  0x0000abfc   ARM Code       0  QtCore{00040703}-498.o(StubCode)
    QPluginLoader::instance()                0x0000ac04   ARM Code       0  QtCore{00040703}-499.o(StubCode)
    QPluginLoader::QPluginLoader(const QString&, QObject*) 0x0000ac0c   ARM Code       0  QtCore{00040703}-501.o(StubCode)
    QBasicAtomicPointer_testAndSetOrdered(void*volatile *, void*, void*) 0x0000ac14   ARM Code       0  QtCore{00040703}-56.o(StubCode)
    qFree(void*)                             0x0000ac1c   ARM Code       0  QtCore{00040703}-70.o(StubCode)
    qHash(const QByteArray&)                 0x0000ac24   ARM Code       0  QtCore{00040703}-71.o(StubCode)
    qHash(const QString&)                    0x0000ac2c   ARM Code       0  QtCore{00040703}-73.o(StubCode)
    QCoreApplication::libraryPaths()         0x0000ac34   ARM Code       0  QtCore{00040703}-753.o(StubCode)
    QCoreApplication::applicationDirPath()   0x0000ac3c   ARM Code       0  QtCore{00040703}-772.o(StubCode)
    memcmp                                   0x0000ac44   ARM Code       0  libc{00010000}-232.o(StubCode)
    strcmp                                   0x0000ac4c   ARM Code       0  libc{00010000}-350.o(StubCode)
    TPtrC16::TPtrC16(const unsigned short*, int) 0x0000ac54   ARM Code       0  euser{000a0000}-1170.o(StubCode)
    RHandleBase::Close()                     0x0000ac5c   ARM Code       0  euser{000a0000}-120.o(StubCode)
    User::LockedDec(int&)                    0x0000ac64   ARM Code       0  euser{000a0000}-670.o(StubCode)
    User::LockedInc(int&)                    0x0000ac6c   ARM Code       0  euser{000a0000}-671.o(StubCode)
    __aeabi_f2iz                             0x0000ac74   ARM Code       0  dfpaeabi{000a0000}-25.o(StubCode)
    __aeabi_memcpy4                          0x0000ac7c   ARM Code       0  drtaeabi{000a0000}-147.o(StubCode)
    __aeabi_uidivmod                         0x0000ac84   ARM Code       0  drtaeabi{000a0000}-155.o(StubCode)
    __aeabi_unwind_cpp_pr0                   0x0000ac8c   ARM Code       0  drtaeabi{000a0000}-158.o(StubCode)
    __cxa_begin_catch                        0x0000ac94   ARM Code       0  drtaeabi{000a0000}-180.o(StubCode)
    __cxa_end_catch                          0x0000ac9c   ARM Code       0  drtaeabi{000a0000}-183.o(StubCode)
    __cxa_end_cleanup                        0x0000aca4   ARM Code       0  drtaeabi{000a0000}-184.o(StubCode)
    __cxa_guard_abort                        0x0000acac   ARM Code       0  drtaeabi{000a0000}-186.o(StubCode)
    __cxa_guard_acquire                      0x0000acb4   ARM Code       0  drtaeabi{000a0000}-187.o(StubCode)
    __cxa_guard_release                      0x0000acbc   ARM Code       0  drtaeabi{000a0000}-188.o(StubCode)
    __cxa_pure_virtual                       0x0000acc4   ARM Code       0  drtaeabi{000a0000}-189.o(StubCode)
    __cxa_rethrow                            0x0000accc   ARM Code       0  drtaeabi{000a0000}-190.o(StubCode)
    __ARM_switch8                            0x0000acd4   ARM Code       0  drtrvct2_2{000a0000}-28.o(StubCode)
    qWarning()                               0x0000acdd   Thumb Code    58  QtSensors.in(i._Z8qWarningv)
    QByteArray::QByteArray(const QByteArray&) 0x0000ad29   Thumb Code    16  QtSensors.in(i._ZN10QByteArrayC1ERKS_)
    QByteArray::QByteArray__sub_object(const QByteArray&) 0x0000ad29   Thumb Code     0  QtSensors.in(i._ZN10QByteArrayC1ERKS_)
    QByteArray::QByteArray()                 0x0000ad39   Thumb Code    16  QtSensors.in(i._ZN10QByteArrayC1Ev)
    QByteArray::QByteArray__sub_object()     0x0000ad39   Thumb Code     0  QtSensors.in(i._ZN10QByteArrayC1Ev)
    QByteArray::~QByteArray()                0x0000ad4d   Thumb Code    24  QtSensors.in(i._ZN10QByteArrayD1Ev)
    QByteArray::~QByteArray__sub_object()    0x0000ad4d   Thumb Code     0  QtSensors.in(i._ZN10QByteArrayD1Ev)
    QtMobility::QTapSensor::~QTapSensor__deallocating() 0x0000ad65   Thumb Code    16  QtSensors.in(i._ZN10QtMobility10QTapSensorD0Ev)
    QtMobility::QTapSensor::~QTapSensor()    0x0000ad75   Thumb Code     8  QtSensors.in(i._ZN10QtMobility10QTapSensorD1Ev)
    QtMobility::QTapSensor::~QTapSensor__sub_object() 0x0000ad75   Thumb Code     0  QtSensors.in(i._ZN10QtMobility10QTapSensorD1Ev)
    QtMobility::QMagnetometer::~QMagnetometer__deallocating() 0x0000ad7d   Thumb Code    16  QtSensors.in(i._ZN10QtMobility13QMagnetometerD0Ev)
    QtMobility::QMagnetometer::~QMagnetometer() 0x0000ad8d   Thumb Code     8  QtSensors.in(i._ZN10QtMobility13QMagnetometerD1Ev)
    QtMobility::QMagnetometer::~QMagnetometer__sub_object() 0x0000ad8d   Thumb Code     0  QtSensors.in(i._ZN10QtMobility13QMagnetometerD1Ev)
    QtMobility::QAccelerometer::~QAccelerometer__deallocating() 0x0000ad95   Thumb Code    16  QtSensors.in(i._ZN10QtMobility14QAccelerometerD0Ev)
    QtMobility::QAccelerometer::~QAccelerometer() 0x0000ada5   Thumb Code     8  QtSensors.in(i._ZN10QtMobility14QAccelerometerD1Ev)
    QtMobility::QAccelerometer::~QAccelerometer__sub_object() 0x0000ada5   Thumb Code     0  QtSensors.in(i._ZN10QtMobility14QAccelerometerD1Ev)
    QtMobility::QSensorPrivate::QSensorPrivate() 0x0000adad   Thumb Code    96  QtSensors.in(i._ZN10QtMobility14QSensorPrivateC1Ev)
    QtMobility::QSensorPrivate::QSensorPrivate__sub_object() 0x0000adad   Thumb Code     0  QtSensors.in(i._ZN10QtMobility14QSensorPrivateC1Ev)
    QtMobility::QRotationSensor::~QRotationSensor__deallocating() 0x0000ae47   Thumb Code    16  QtSensors.in(i._ZN10QtMobility15QRotationSensorD0Ev)
    QtMobility::QRotationSensor::~QRotationSensor() 0x0000ae57   Thumb Code     8  QtSensors.in(i._ZN10QtMobility15QRotationSensorD1Ev)
    QtMobility::QRotationSensor::~QRotationSensor__sub_object() 0x0000ae57   Thumb Code     0  QtSensors.in(i._ZN10QtMobility15QRotationSensorD1Ev)
    QtMobility::mobilityPlugins(const QString&) 0x0000ae61   Thumb Code   578  QtSensors.in(i._ZN10QtMobility15mobilityPluginsERK7QString)
    QtMobility::QProximitySensor::~QProximitySensor__deallocating() 0x0000b139   Thumb Code    16  QtSensors.in(i._ZN10QtMobility16QProximitySensorD0Ev)
    QtMobility::QProximitySensor::~QProximitySensor() 0x0000b149   Thumb Code     8  QtSensors.in(i._ZN10QtMobility16QProximitySensorD1Ev)
    QtMobility::QProximitySensor::~QProximitySensor__sub_object() 0x0000b149   Thumb Code     0  QtSensors.in(i._ZN10QtMobility16QProximitySensorD1Ev)
    QtMobility::QOrientationSensor::~QOrientationSensor__deallocating() 0x0000b151   Thumb Code    16  QtSensors.in(i._ZN10QtMobility18QOrientationSensorD0Ev)
    QtMobility::QOrientationSensor::~QOrientationSensor() 0x0000b161   Thumb Code     8  QtSensors.in(i._ZN10QtMobility18QOrientationSensorD1Ev)
    QtMobility::QOrientationSensor::~QOrientationSensor__sub_object() 0x0000b161   Thumb Code     0  QtSensors.in(i._ZN10QtMobility18QOrientationSensorD1Ev)
    QtMobility::QAmbientLightSensor::~QAmbientLightSensor__deallocating() 0x0000b169   Thumb Code    16  QtSensors.in(i._ZN10QtMobility19QAmbientLightSensorD0Ev)
    QtMobility::QAmbientLightSensor::~QAmbientLightSensor() 0x0000b179   Thumb Code     8  QtSensors.in(i._ZN10QtMobility19QAmbientLightSensorD1Ev)
    QtMobility::QAmbientLightSensor::~QAmbientLightSensor__sub_object() 0x0000b179   Thumb Code     0  QtSensors.in(i._ZN10QtMobility19QAmbientLightSensorD1Ev)
    QtMobility::QSensorManagerPrivate::~QSensorManagerPrivate() 0x0000b181   Thumb Code    32  QtSensors.in(i._ZN10QtMobility21QSensorManagerPrivateD1Ev)
    QtMobility::QSensorManagerPrivate::~QSensorManagerPrivate__sub_object() 0x0000b181   Thumb Code     0  QtSensors.in(i._ZN10QtMobility21QSensorManagerPrivateD1Ev)
    QtMobility::QCompass::~QCompass__deallocating() 0x0000b1b7   Thumb Code    16  QtSensors.in(i._ZN10QtMobility8QCompassD0Ev)
    QtMobility::QCompass::~QCompass()        0x0000b1c7   Thumb Code     8  QtSensors.in(i._ZN10QtMobility8QCompassD1Ev)
    QtMobility::QCompass::~QCompass__sub_object() 0x0000b1c7   Thumb Code     0  QtSensors.in(i._ZN10QtMobility8QCompassD1Ev)
    QStringList::QStringList()               0x0000b1d1   Thumb Code    16  QtSensors.in(i._ZN11QStringListC1Ev)
    QStringList::QStringList__sub_object()   0x0000b1d1   Thumb Code     0  QtSensors.in(i._ZN11QStringListC1Ev)
    QStringList::~QStringList()              0x0000b1e5   Thumb Code     8  QtSensors.in(i._ZN11QStringListD1Ev)
    QStringList::~QStringList__sub_object()  0x0000b1e5   Thumb Code     0  QtSensors.in(i._ZN11QStringListD1Ev)
    QBasicAtomicInt::ref()                   0x0000b1ed   Thumb Code    18  QtSensors.in(i._ZN15QBasicAtomicInt3refEv)
    QBasicAtomicInt::deref()                 0x0000b1ff   Thumb Code    18  QtSensors.in(i._ZN15QBasicAtomicInt5derefEv)
    QForeachContainer<QList<QByteArray>>::~QForeachContainer() 0x0000b211   Thumb Code     8  QtSensors.in(i._ZN17QForeachContainerI5QListI10QByteArrayEED1Ev)
    QForeachContainer<QList<QByteArray>>::~QForeachContainer__sub_object() 0x0000b211   Thumb Code     0  QtSensors.in(i._ZN17QForeachContainerI5QListI10QByteArrayEED1Ev)
    QForeachContainer<QList<QPluginLoader*>>::~QForeachContainer() 0x0000b219   Thumb Code     8  QtSensors.in(i._ZN17QForeachContainerI5QListIP13QPluginLoaderEED1Ev)
    QForeachContainer<QList<QPluginLoader*>>::~QForeachContainer__sub_object() 0x0000b219   Thumb Code     0  QtSensors.in(i._ZN17QForeachContainerI5QListIP13QPluginLoaderEED1Ev)
    QForeachContainer<QList<QtMobility::QSensorPluginInterface*(*)()>>::~QForeachContainer() 0x0000b221   Thumb Code     8  QtSensors.in(i._ZN17QForeachContainerI5QListIPFPN10QtMobility22QSensorPluginInterfaceEvEEED1Ev)
    QForeachContainer<QList<QtMobility::QSensorPluginInterface*(*)()>>::~QForeachContainer__sub_object() 0x0000b221   Thumb Code     0  QtSensors.in(i._ZN17QForeachContainerI5QListIPFPN10QtMobility22QSensorPluginInterfaceEvEEED1Ev)
    QForeachContainer<QList<QtMobility::QSensorFilter*>>::~QForeachContainer() 0x0000b229   Thumb Code     8  QtSensors.in(i._ZN17QForeachContainerI5QListIPN10QtMobility13QSensorFilterEEED1Ev)
    QForeachContainer<QList<QtMobility::QSensorFilter*>>::~QForeachContainer__sub_object() 0x0000b229   Thumb Code     0  QtSensors.in(i._ZN17QForeachContainerI5QListIPN10QtMobility13QSensorFilterEEED1Ev)
    QForeachContainer<QList<QtMobility::QSensorPluginInterface*>>::~QForeachContainer() 0x0000b231   Thumb Code     8  QtSensors.in(i._ZN17QForeachContainerI5QListIPN10QtMobility22QSensorPluginInterfaceEEED1Ev)
    QForeachContainer<QList<QtMobility::QSensorPluginInterface*>>::~QForeachContainer__sub_object() 0x0000b231   Thumb Code     0  QtSensors.in(i._ZN17QForeachContainerI5QListIPN10QtMobility22QSensorPluginInterfaceEEED1Ev)
    QSet<QString>::~QSet()                   0x0000b239   Thumb Code     8  QtSensors.in(i._ZN4QSetI7QStringED1Ev)
    QSet<QString>::~QSet__sub_object()       0x0000b239   Thumb Code     0  QtSensors.in(i._ZN4QSetI7QStringED1Ev)
    QDebug::maybeSpace()                     0x0000b241   Thumb Code    22  QtSensors.in(i._ZN6QDebug10maybeSpaceEv)
    QDebug::~QDebug()                        0x0000b257   Thumb Code   122  QtSensors.in(i._ZN6QDebugD1Ev)
    QDebug::~QDebug__sub_object()            0x0000b257   Thumb Code     0  QtSensors.in(i._ZN6QDebugD1Ev)
    QDebug::operator <<(const char*)         0x0000b2e5   Thumb Code    36  QtSensors.in(i._ZN6QDebuglsEPKc)
    QDebug::operator <<(const QString&)      0x0000b313   Thumb Code    34  QtSensors.in(i._ZN6QDebuglsERK7QString)
    QDebug::operator <<(int)                 0x0000b335   Thumb Code    18  QtSensors.in(i._ZN6QDebuglsEi)
    QString::QString(const QLatin1String&)   0x0000b347   Thumb Code    20  QtSensors.in(i._ZN7QStringC1ERK13QLatin1String)
    QString::QString__sub_object(const QLatin1String&) 0x0000b347   Thumb Code     0  QtSensors.in(i._ZN7QStringC1ERK13QLatin1String)
    QString::QString(const QString&)         0x0000b35b   Thumb Code    16  QtSensors.in(i._ZN7QStringC1ERKS_)
    QString::QString__sub_object(const QString&) 0x0000b35b   Thumb Code     0  QtSensors.in(i._ZN7QStringC1ERKS_)
    QString::QString()                       0x0000b36d   Thumb Code    16  QtSensors.in(i._ZN7QStringC1Ev)
    QString::QString__sub_object()           0x0000b36d   Thumb Code     0  QtSensors.in(i._ZN7QStringC1Ev)
    QString::~QString()                      0x0000b381   Thumb Code    24  QtSensors.in(i._ZN7QStringD1Ev)
    QString::~QString__sub_object()          0x0000b381   Thumb Code     0  QtSensors.in(i._ZN7QStringD1Ev)
    QHashData::willGrow()                    0x0000b399   Thumb Code    28  QtSensors.in(i._ZN9QHashData8willGrowEv)
    QHashData::firstNode()                   0x0000b3b5   Thumb Code    24  QtSensors.in(i._ZN9QHashData9firstNodeEv)
    QBasicAtomicInt::operator !=(int) const  0x0000b3cd   Thumb Code    14  QtSensors.in(i._ZNK15QBasicAtomicIntneEi)
    QBasicAtomicInt::operator !() const      0x0000b3db   Thumb Code    14  QtSensors.in(i._ZNK15QBasicAtomicIntntEv)
    QListData::at(int) const                 0x0000b3e9   Thumb Code    16  QtSensors.in(i._ZNK9QListData2atEi)
    QListData::end() const                   0x0000b3f9   Thumb Code    12  QtSensors.in(i._ZNK9QListData3endEv)
    QListData::size() const                  0x0000b405   Thumb Code    10  QtSensors.in(i._ZNK9QListData4sizeEv)
    QListData::begin() const                 0x0000b40f   Thumb Code    12  QtSensors.in(i._ZNK9QListData5beginEv)
    operator delete (void*, void*)           0x0000b41b   Thumb Code     2  QtSensors.in(i._ZdlPvS_)
    operator ==(const QByteArray&, const QByteArray&) 0x0000b41d   Thumb Code    34  QtSensors.in(i._ZeqRK10QByteArrayS1_)
    operator new(unsigned, void*)            0x0000b43f   Thumb Code     4  QtSensors.in(i._ZnwjPv)
    qRegisterMetaType<QList<QPair<int, int>>>(const char*, T1*) 0x0000b445   Thumb Code    64  QtSensors.in(t._Z17qRegisterMetaTypeI5QListI5QPairIiiEEEiPKcPT_)
    qRegisterMetaType<QList<QtMobility::qoutputrange>>(const char*, T1*) 0x0000b4a9   Thumb Code    64  QtSensors.in(t._Z17qRegisterMetaTypeI5QListIN10QtMobility12qoutputrangeEEEiPKcPT_)
    qRegisterMetaType<QPair<int, int>>(const char*, T1*) 0x0000b515   Thumb Code    64  QtSensors.in(t._Z17qRegisterMetaTypeI5QPairIiiEEiPKcPT_)
    qRegisterMetaType<QtMobility::qtimestamp>(const char*, T1*) 0x0000b575   Thumb Code    64  QtSensors.in(t._Z17qRegisterMetaTypeIN10QtMobility10qtimestampEEiPKcPT_)
    qForeachContainerNew<QList<QtMobility::QSensorPluginInterface*>>(const T1&) 0x0000b5d9   Thumb Code    46  QtSensors.in(t._Z20qForeachContainerNewI5QListIPN10QtMobility22QSensorPluginInterfaceEEE17QForeachContainerIT_ERKS6_)
    qMetaTypeDeleteHelper<QList<QPair<int, int>>>(T1*) 0x0000b611   Thumb Code    16  QtSensors.in(t._Z21qMetaTypeDeleteHelperI5QListI5QPairIiiEEEvPT_)
    qMetaTypeDeleteHelper<QList<QtMobility::qoutputrange>>(T1*) 0x0000b621   Thumb Code    16  QtSensors.in(t._Z21qMetaTypeDeleteHelperI5QListIN10QtMobility12qoutputrangeEEEvPT_)
    qMetaTypeDeleteHelper<QPair<int, int>>(T1*) 0x0000b631   Thumb Code     8  QtSensors.in(t._Z21qMetaTypeDeleteHelperI5QPairIiiEEvPT_)
    qMetaTypeDeleteHelper<QtMobility::qtimestamp>(T1*) 0x0000b639   Thumb Code     8  QtSensors.in(t._Z21qMetaTypeDeleteHelperIN10QtMobility10qtimestampEEvPT_)
    qMetaTypeConstructHelper<QList<QPair<int, int>>>(const T1*) 0x0000b641   Thumb Code    48  QtSensors.in(t._Z24qMetaTypeConstructHelperI5QListI5QPairIiiEEEPvPKT_)
    qMetaTypeConstructHelper<QList<QtMobility::qoutputrange>>(const T1*) 0x0000b681   Thumb Code    48  QtSensors.in(t._Z24qMetaTypeConstructHelperI5QListIN10QtMobility12qoutputrangeEEEPvPKT_)
    qMetaTypeConstructHelper<QPair<int, int>>(const T1*) 0x0000b6c1   Thumb Code    46  QtSensors.in(t._Z24qMetaTypeConstructHelperI5QPairIiiEEPvPKT_)
    qMetaTypeConstructHelper<QtMobility::qtimestamp>(const T1*) 0x0000b6ef   Thumb Code    46  QtSensors.in(t._Z24qMetaTypeConstructHelperIN10QtMobility10qtimestampEEPvPKT_)
    QHashDummyNode<QString, QHashDummyValue>::QHashDummyNode(const QString&) 0x0000b71d   Thumb Code    12  QtSensors.in(t._ZN14QHashDummyNodeI7QString15QHashDummyValueEC1ERKS0_)
    QHashDummyNode<QString, QHashDummyValue>::QHashDummyNode__sub_object(const QString&) 0x0000b71d   Thumb Code     0  QtSensors.in(t._ZN14QHashDummyNodeI7QString15QHashDummyValueEC1ERKS0_)
    QScopedPointer<QtMobility::QSensorPrivate, QScopedPointerDeleter<QtMobility::QSensorPrivate>>::~QScopedPointer() 0x0000b729   Thumb Code    82  QtSensors.in(t._ZN14QScopedPointerIN10QtMobility14QSensorPrivateE21QScopedPointerDeleterIS1_EED1Ev)
    QScopedPointer<QtMobility::QSensorPrivate, QScopedPointerDeleter<QtMobility::QSensorPrivate>>::~QScopedPointer__sub_object() 0x0000b729   Thumb Code     0  QtSensors.in(t._ZN14QScopedPointerIN10QtMobility14QSensorPrivateE21QScopedPointerDeleterIS1_EED1Ev)
    QScopedPointer<QtMobility::QTapReadingPrivate, QScopedPointerDeleter<QtMobility::QTapReadingPrivate>>::~QScopedPointer() 0x0000b7b1   Thumb Code    18  QtSensors.in(t._ZN14QScopedPointerIN10QtMobility18QTapReadingPrivateE21QScopedPointerDeleterIS1_EED1Ev)
    QScopedPointer<QtMobility::QTapReadingPrivate, QScopedPointerDeleter<QtMobility::QTapReadingPrivate>>::~QScopedPointer__sub_object() 0x0000b7b1   Thumb Code     0  QtSensors.in(t._ZN14QScopedPointerIN10QtMobility18QTapReadingPrivateE21QScopedPointerDeleterIS1_EED1Ev)
    QScopedPointer<QtMobility::QSensorReadingPrivate, QScopedPointerDeleter<QtMobility::QSensorReadingPrivate>>::~QScopedPointer() 0x0000b7c3   Thumb Code    18  QtSensors.in(t._ZN14QScopedPointerIN10QtMobility21QSensorReadingPrivateE21QScopedPointerDeleterIS1_EED1Ev)
    QScopedPointer<QtMobility::QSensorReadingPrivate, QScopedPointerDeleter<QtMobility::QSensorReadingPrivate>>::~QScopedPointer__sub_object() 0x0000b7c3   Thumb Code     0  QtSensors.in(t._ZN14QScopedPointerIN10QtMobility21QSensorReadingPrivateE21QScopedPointerDeleterIS1_EED1Ev)
    QScopedPointer<QtMobility::QCompassReadingPrivate, QScopedPointerDeleter<QtMobility::QCompassReadingPrivate>>::~QScopedPointer() 0x0000b7d5   Thumb Code    18  QtSensors.in(t._ZN14QScopedPointerIN10QtMobility22QCompassReadingPrivateE21QScopedPointerDeleterIS1_EED1Ev)
    QScopedPointer<QtMobility::QCompassReadingPrivate, QScopedPointerDeleter<QtMobility::QCompassReadingPrivate>>::~QScopedPointer__sub_object() 0x0000b7d5   Thumb Code     0  QtSensors.in(t._ZN14QScopedPointerIN10QtMobility22QCompassReadingPrivateE21QScopedPointerDeleterIS1_EED1Ev)
    QScopedPointer<QtMobility::QRotationReadingPrivate, QScopedPointerDeleter<QtMobility::QRotationReadingPrivate>>::~QScopedPointer() 0x0000b7e7   Thumb Code    18  QtSensors.in(t._ZN14QScopedPointerIN10QtMobility23QRotationReadingPrivateE21QScopedPointerDeleterIS1_EED1Ev)
    QScopedPointer<QtMobility::QRotationReadingPrivate, QScopedPointerDeleter<QtMobility::QRotationReadingPrivate>>::~QScopedPointer__sub_object() 0x0000b7e7   Thumb Code     0  QtSensors.in(t._ZN14QScopedPointerIN10QtMobility23QRotationReadingPrivateE21QScopedPointerDeleterIS1_EED1Ev)
    QScopedPointer<QtMobility::QProximityReadingPrivate, QScopedPointerDeleter<QtMobility::QProximityReadingPrivate>>::~QScopedPointer() 0x0000b7f9   Thumb Code    18  QtSensors.in(t._ZN14QScopedPointerIN10QtMobility24QProximityReadingPrivateE21QScopedPointerDeleterIS1_EED1Ev)
    QScopedPointer<QtMobility::QProximityReadingPrivate, QScopedPointerDeleter<QtMobility::QProximityReadingPrivate>>::~QScopedPointer__sub_object() 0x0000b7f9   Thumb Code     0  QtSensors.in(t._ZN14QScopedPointerIN10QtMobility24QProximityReadingPrivateE21QScopedPointerDeleterIS1_EED1Ev)
    QScopedPointer<QtMobility::QOrientationReadingPrivate, QScopedPointerDeleter<QtMobility::QOrientationReadingPrivate>>::~QScopedPointer() 0x0000b80b   Thumb Code    18  QtSensors.in(t._ZN14QScopedPointerIN10QtMobility26QOrientationReadingPrivateE21QScopedPointerDeleterIS1_EED1Ev)
    QScopedPointer<QtMobility::QOrientationReadingPrivate, QScopedPointerDeleter<QtMobility::QOrientationReadingPrivate>>::~QScopedPointer__sub_object() 0x0000b80b   Thumb Code     0  QtSensors.in(t._ZN14QScopedPointerIN10QtMobility26QOrientationReadingPrivateE21QScopedPointerDeleterIS1_EED1Ev)
    QScopedPointer<QtMobility::QAmbientLightReadingPrivate, QScopedPointerDeleter<QtMobility::QAmbientLightReadingPrivate>>::~QScopedPointer() 0x0000b81d   Thumb Code    18  QtSensors.in(t._ZN14QScopedPointerIN10QtMobility27QAmbientLightReadingPrivateE21QScopedPointerDeleterIS1_EED1Ev)
    QScopedPointer<QtMobility::QAmbientLightReadingPrivate, QScopedPointerDeleter<QtMobility::QAmbientLightReadingPrivate>>::~QScopedPointer__sub_object() 0x0000b81d   Thumb Code     0  QtSensors.in(t._ZN14QScopedPointerIN10QtMobility27QAmbientLightReadingPrivateE21QScopedPointerDeleterIS1_EED1Ev)
    QScopedPointer<QtMobility::QMagnetometerReadingPrivate, QScopedPointerDeleter<QtMobility::QMagnetometerReadingPrivate>>::~QScopedPointer() 0x0000b82f   Thumb Code    18  QtSensors.in(t._ZN14QScopedPointerIN10QtMobility27QMagnetometerReadingPrivateE21QScopedPointerDeleterIS1_EED1Ev)
    QScopedPointer<QtMobility::QMagnetometerReadingPrivate, QScopedPointerDeleter<QtMobility::QMagnetometerReadingPrivate>>::~QScopedPointer__sub_object() 0x0000b82f   Thumb Code     0  QtSensors.in(t._ZN14QScopedPointerIN10QtMobility27QMagnetometerReadingPrivateE21QScopedPointerDeleterIS1_EED1Ev)
    QScopedPointer<QtMobility::QAccelerometerReadingPrivate, QScopedPointerDeleter<QtMobility::QAccelerometerReadingPrivate>>::~QScopedPointer() 0x0000b841   Thumb Code    18  QtSensors.in(t._ZN14QScopedPointerIN10QtMobility28QAccelerometerReadingPrivateE21QScopedPointerDeleterIS1_EED1Ev)
    QScopedPointer<QtMobility::QAccelerometerReadingPrivate, QScopedPointerDeleter<QtMobility::QAccelerometerReadingPrivate>>::~QScopedPointer__sub_object() 0x0000b841   Thumb Code     0  QtSensors.in(t._ZN14QScopedPointerIN10QtMobility28QAccelerometerReadingPrivateE21QScopedPointerDeleterIS1_EED1Ev)
    QGlobalStaticDeleter<QtMobility::QSensorPluginLoader>::~QGlobalStaticDeleter() 0x0000b853   Thumb Code    36  QtSensors.in(t._ZN20QGlobalStaticDeleterIN10QtMobility19QSensorPluginLoaderEED1Ev)
    QGlobalStaticDeleter<QtMobility::QSensorPluginLoader>::~QGlobalStaticDeleter__sub_object() 0x0000b853   Thumb Code     0  QtSensors.in(t._ZN20QGlobalStaticDeleterIN10QtMobility19QSensorPluginLoaderEED1Ev)
    QGlobalStaticDeleter<QtMobility::QSensorManagerPrivate>::~QGlobalStaticDeleter() 0x0000b877   Thumb Code    36  QtSensors.in(t._ZN20QGlobalStaticDeleterIN10QtMobility21QSensorManagerPrivateEED1Ev)
    QGlobalStaticDeleter<QtMobility::QSensorManagerPrivate>::~QGlobalStaticDeleter__sub_object() 0x0000b877   Thumb Code     0  QtSensors.in(t._ZN20QGlobalStaticDeleterIN10QtMobility21QSensorManagerPrivateEED1Ev)
    QSet<QString>::insert(const QString&)    0x0000b89b   Thumb Code    22  QtSensors.in(t._ZN4QSetI7QStringE6insertERKS0_)
    QHash<QByteArray, QtMobility::QSensorBackendFactory*>::deleteNode2(QHashData::Node*) 0x0000b8b1   Thumb Code    10  QtSensors.in(t._ZN5QHashI10QByteArrayPN10QtMobility21QSensorBackendFactoryEE11deleteNode2EPN9QHashData4NodeE)
    QHash<QByteArray, QtMobility::QSensorBackendFactory*>::duplicateNode(QHashData::Node*, void*) 0x0000b8bb   Thumb Code    30  QtSensors.in(t._ZN5QHashI10QByteArrayPN10QtMobility21QSensorBackendFactoryEE13duplicateNodeEPN9QHashData4NodeEPv)
    QHash<QByteArray, QtMobility::QSensorBackendFactory*>::detach() 0x0000b8e5   Thumb Code    60  QtSensors.in(t._ZN5QHashI10QByteArrayPN10QtMobility21QSensorBackendFactoryEE6detachEv)
    QHash<QByteArray, QtMobility::QSensorBackendFactory*>::freeData(QHashData*) 0x0000b929   Thumb Code    12  QtSensors.in(t._ZN5QHashI10QByteArrayPN10QtMobility21QSensorBackendFactoryEE8freeDataEP9QHashData)
    QHash<QByteArray, QtMobility::QSensorBackendFactory*>::~QHash() 0x0000b939   Thumb Code    28  QtSensors.in(t._ZN5QHashI10QByteArrayPN10QtMobility21QSensorBackendFactoryEED1Ev)
    QHash<QByteArray, QtMobility::QSensorBackendFactory*>::~QHash__sub_object() 0x0000b939   Thumb Code     0  QtSensors.in(t._ZN5QHashI10QByteArrayPN10QtMobility21QSensorBackendFactoryEED1Ev)
    QHash<QByteArray, QtMobility::QSensorBackendFactory*>::operator [](const QByteArray&) 0x0000b955   Thumb Code   114  QtSensors.in(t._ZN5QHashI10QByteArrayPN10QtMobility21QSensorBackendFactoryEEixERKS0_)
    QHash<QByteArray, QByteArray>::deleteNode2(QHashData::Node*) 0x0000b9d3   Thumb Code    18  QtSensors.in(t._ZN5QHashI10QByteArrayS0_E11deleteNode2EPN9QHashData4NodeE)
    QHash<QByteArray, QByteArray>::duplicateNode(QHashData::Node*, void*) 0x0000b9f1   Thumb Code    30  QtSensors.in(t._ZN5QHashI10QByteArrayS0_E13duplicateNodeEPN9QHashData4NodeEPv)
    QHash<QByteArray, QByteArray>::freeData(QHashData*) 0x0000ba1d   Thumb Code    12  QtSensors.in(t._ZN5QHashI10QByteArrayS0_E8freeDataEP9QHashData)
    QHash<QByteArray, QByteArray>::~QHash()  0x0000ba2d   Thumb Code    28  QtSensors.in(t._ZN5QHashI10QByteArrayS0_ED1Ev)
    QHash<QByteArray, QByteArray>::~QHash__sub_object() 0x0000ba2d   Thumb Code     0  QtSensors.in(t._ZN5QHashI10QByteArrayS0_ED1Ev)
    QHash<QByteArray, QByteArray>::operator [](const QByteArray&) 0x0000ba49   Thumb Code   184  QtSensors.in(t._ZN5QHashI10QByteArrayS0_EixERKS0_)
    QHash<QByteArray, QHash<QByteArray, QtMobility::QSensorBackendFactory*>>::deleteNode2(QHashData::Node*) 0x0000bb1d   Thumb Code    18  QtSensors.in(t._ZN5QHashI10QByteArrayS_IS0_PN10QtMobility21QSensorBackendFactoryEEE11deleteNode2EPN9QHashData4NodeE)
    QHash<QByteArray, QHash<QByteArray, QtMobility::QSensorBackendFactory*>>::duplicateNode(QHashData::Node*, void*) 0x0000bb3b   Thumb Code    30  QtSensors.in(t._ZN5QHashI10QByteArrayS_IS0_PN10QtMobility21QSensorBackendFactoryEEE13duplicateNodeEPN9QHashData4NodeEPv)
    QHash<QByteArray, QHash<QByteArray, QtMobility::QSensorBackendFactory*>>::freeData(QHashData*) 0x0000bb65   Thumb Code    12  QtSensors.in(t._ZN5QHashI10QByteArrayS_IS0_PN10QtMobility21QSensorBackendFactoryEEE8freeDataEP9QHashData)
    QHash<QByteArray, QHash<QByteArray, QtMobility::QSensorBackendFactory*>>::~QHash() 0x0000bb75   Thumb Code    28  QtSensors.in(t._ZN5QHashI10QByteArrayS_IS0_PN10QtMobility21QSensorBackendFactoryEEED1Ev)
    QHash<QByteArray, QHash<QByteArray, QtMobility::QSensorBackendFactory*>>::~QHash__sub_object() 0x0000bb75   Thumb Code     0  QtSensors.in(t._ZN5QHashI10QByteArrayS_IS0_PN10QtMobility21QSensorBackendFactoryEEED1Ev)
    QHash<QByteArray, QHash<QByteArray, QtMobility::QSensorBackendFactory*>>::operator [](const QByteArray&) 0x0000bb91   Thumb Code   190  QtSensors.in(t._ZN5QHashI10QByteArrayS_IS0_PN10QtMobility21QSensorBackendFactoryEEEixERKS0_)
    QHash<QString, QHashDummyValue>::deleteNode2(QHashData::Node*) 0x0000bc71   Thumb Code    10  QtSensors.in(t._ZN5QHashI7QString15QHashDummyValueE11deleteNode2EPN9QHashData4NodeE)
    QHash<QString, QHashDummyValue>::duplicateNode(QHashData::Node*, void*) 0x0000bc7b   Thumb Code    28  QtSensors.in(t._ZN5QHashI7QString15QHashDummyValueE13duplicateNodeEPN9QHashData4NodeEPv)
    QHash<QString, QHashDummyValue>::insert(const QString&, const QHashDummyValue&) 0x0000bca5   Thumb Code   170  QtSensors.in(t._ZN5QHashI7QString15QHashDummyValueE6insertERKS0_RKS1_)
    QHash<QString, QHashDummyValue>::freeData(QHashData*) 0x0000bd65   Thumb Code    12  QtSensors.in(t._ZN5QHashI7QString15QHashDummyValueE8freeDataEP9QHashData)
    QHash<QString, QHashDummyValue>::~QHash() 0x0000bd75   Thumb Code    28  QtSensors.in(t._ZN5QHashI7QString15QHashDummyValueED1Ev)
    QHash<QString, QHashDummyValue>::~QHash__sub_object() 0x0000bd75   Thumb Code     0  QtSensors.in(t._ZN5QHashI7QString15QHashDummyValueED1Ev)
    QList<QByteArray>::detach_helper(int)    0x0000bd91   Thumb Code    86  QtSensors.in(t._ZN5QListI10QByteArrayE13detach_helperEi)
    QList<QByteArray>::node_construct(QList<QByteArray>::Node*, const QByteArray&) 0x0000bdef   Thumb Code    26  QtSensors.in(t._ZN5QListI10QByteArrayE14node_constructEPNS1_4NodeERKS0_)
    QList<QByteArray>::detach_helper_grow(int, int) 0x0000be15   Thumb Code   186  QtSensors.in(t._ZN5QListI10QByteArrayE18detach_helper_growEii)
    QList<QByteArray>::free(QListData::Data*) 0x0000bed7   Thumb Code    48  QtSensors.in(t._ZN5QListI10QByteArrayE4freeEPN9QListData4DataE)
    QList<QByteArray>::append(const QByteArray&) 0x0000bf09   Thumb Code    94  QtSensors.in(t._ZN5QListI10QByteArrayE6appendERKS0_)
    QList<QByteArray>::reserve(int)          0x0000bf75   Thumb Code    44  QtSensors.in(t._ZN5QListI10QByteArrayE7reserveEi)
    QList<QByteArray>::node_copy(QList<QByteArray>::Node*, QList<QByteArray>::Node*, QList<QByteArray>::Node*) 0x0000bfa1   Thumb Code    70  QtSensors.in(t._ZN5QListI10QByteArrayE9node_copyEPNS1_4NodeES3_S3_)
    QList<QByteArray>::QList()               0x0000bffd   Thumb Code    16  QtSensors.in(t._ZN5QListI10QByteArrayEC1Ev)
    QList<QByteArray>::QList__sub_object()   0x0000bffd   Thumb Code     0  QtSensors.in(t._ZN5QListI10QByteArrayEC1Ev)
    QList<QByteArray>::~QList()              0x0000c011   Thumb Code    30  QtSensors.in(t._ZN5QListI10QByteArrayED1Ev)
    QList<QByteArray>::~QList__sub_object()  0x0000c011   Thumb Code     0  QtSensors.in(t._ZN5QListI10QByteArrayED1Ev)
    QList<QPair<int, int>>::detach_helper(int) 0x0000c02f   Thumb Code   112  QtSensors.in(t._ZN5QListI5QPairIiiEE13detach_helperEi)
    QList<QPair<int, int>>::detach_helper()  0x0000c0a7   Thumb Code    12  QtSensors.in(t._ZN5QListI5QPairIiiEE13detach_helperEv)
    QList<QPair<int, int>>::node_destruct(QList<QPair<int, int>>::Node*, QList<QPair<int, int>>::Node*) 0x0000c0b3   Thumb Code    22  QtSensors.in(t._ZN5QListI5QPairIiiEE13node_destructEPNS2_4NodeES4_)
    QList<QPair<int, int>>::node_construct(QList<QPair<int, int>>::Node*, const QPair<int, int>&) 0x0000c0c9   Thumb Code    32  QtSensors.in(t._ZN5QListI5QPairIiiEE14node_constructEPNS2_4NodeERKS1_)
    QList<QPair<int, int>>::detach_helper_grow(int, int) 0x0000c0e9   Thumb Code   180  QtSensors.in(t._ZN5QListI5QPairIiiEE18detach_helper_growEii)
    QList<QPair<int, int>>::free(QListData::Data*) 0x0000c1a5   Thumb Code    38  QtSensors.in(t._ZN5QListI5QPairIiiEE4freeEPN9QListData4DataE)
    QList<QPair<int, int>>::append(const QPair<int, int>&) 0x0000c1cd   Thumb Code    90  QtSensors.in(t._ZN5QListI5QPairIiiEE6appendERKS1_)
    QList<QPair<int, int>>::node_copy(QList<QPair<int, int>>::Node*, QList<QPair<int, int>>::Node*, QList<QPair<int, int>>::Node*) 0x0000c235   Thumb Code    44  QtSensors.in(t._ZN5QListI5QPairIiiEE9node_copyEPNS2_4NodeES4_S4_)
    QList<QPair<int, int>>::QList(const QList<QPair<int, int>>&) 0x0000c261   Thumb Code    30  QtSensors.in(t._ZN5QListI5QPairIiiEEC1ERKS2_)
    QList<QPair<int, int>>::QList__sub_object(const QList<QPair<int, int>>&) 0x0000c261   Thumb Code     0  QtSensors.in(t._ZN5QListI5QPairIiiEEC1ERKS2_)
    QList<QPair<int, int>>::QList()          0x0000c281   Thumb Code    16  QtSensors.in(t._ZN5QListI5QPairIiiEEC1Ev)
    QList<QPair<int, int>>::QList__sub_object() 0x0000c281   Thumb Code     0  QtSensors.in(t._ZN5QListI5QPairIiiEEC1Ev)
    QList<QPair<int, int>>::~QList()         0x0000c295   Thumb Code    30  QtSensors.in(t._ZN5QListI5QPairIiiEED1Ev)
    QList<QPair<int, int>>::~QList__sub_object() 0x0000c295   Thumb Code     0  QtSensors.in(t._ZN5QListI5QPairIiiEED1Ev)
    QList<QString>::detach_helper()          0x0000c2b3   Thumb Code    88  QtSensors.in(t._ZN5QListI7QStringE13detach_helperEv)
    QList<QString>::node_construct(QList<QString>::Node*, const QString&) 0x0000c313   Thumb Code    26  QtSensors.in(t._ZN5QListI7QStringE14node_constructEPNS1_4NodeERKS0_)
    QList<QString>::detach_helper_grow(int, int) 0x0000c339   Thumb Code   186  QtSensors.in(t._ZN5QListI7QStringE18detach_helper_growEii)
    QList<QString>::free(QListData::Data*)   0x0000c3fb   Thumb Code    48  QtSensors.in(t._ZN5QListI7QStringE4freeEPN9QListData4DataE)
    QList<QString>::append(const QString&)   0x0000c42d   Thumb Code    94  QtSensors.in(t._ZN5QListI7QStringE6appendERKS0_)
    QList<QString>::node_copy(QList<QString>::Node*, QList<QString>::Node*, QList<QString>::Node*) 0x0000c499   Thumb Code    70  QtSensors.in(t._ZN5QListI7QStringE9node_copyEPNS1_4NodeES3_S3_)
    QList<QString>::~QList()                 0x0000c4f5   Thumb Code    30  QtSensors.in(t._ZN5QListI7QStringED1Ev)
    QList<QString>::~QList__sub_object()     0x0000c4f5   Thumb Code     0  QtSensors.in(t._ZN5QListI7QStringED1Ev)
    QList<QtMobility::qoutputrange>::detach_helper(int) 0x0000c513   Thumb Code   110  QtSensors.in(t._ZN5QListIN10QtMobility12qoutputrangeEE13detach_helperEi)
    QList<QtMobility::qoutputrange>::detach_helper() 0x0000c589   Thumb Code    12  QtSensors.in(t._ZN5QListIN10QtMobility12qoutputrangeEE13detach_helperEv)
    QList<QtMobility::qoutputrange>::node_destruct(QList<QtMobility::qoutputrange>::Node*, QList<QtMobility::qoutputrange>::Node*) 0x0000c595   Thumb Code    22  QtSensors.in(t._ZN5QListIN10QtMobility12qoutputrangeEE13node_destructEPNS2_4NodeES4_)
    QList<QtMobility::qoutputrange>::node_construct(QList<QtMobility::qoutputrange>::Node*, const QtMobility::qoutputrange&) 0x0000c5ab   Thumb Code    30  QtSensors.in(t._ZN5QListIN10QtMobility12qoutputrangeEE14node_constructEPNS2_4NodeERKS1_)
    QList<QtMobility::qoutputrange>::detach_helper_grow(int, int) 0x0000c5c9   Thumb Code   206  QtSensors.in(t._ZN5QListIN10QtMobility12qoutputrangeEE18detach_helper_growEii)
    QList<QtMobility::qoutputrange>::free(QListData::Data*) 0x0000c69f   Thumb Code    48  QtSensors.in(t._ZN5QListIN10QtMobility12qoutputrangeEE4freeEPN9QListData4DataE)
    QList<QtMobility::qoutputrange>::append(const QtMobility::qoutputrange&) 0x0000c6d1   Thumb Code    90  QtSensors.in(t._ZN5QListIN10QtMobility12qoutputrangeEE6appendERKS1_)
    QList<QtMobility::qoutputrange>::node_copy(QList<QtMobility::qoutputrange>::Node*, QList<QtMobility::qoutputrange>::Node*, QList<QtMobility::qoutputrange>::Node*) 0x0000c739   Thumb Code    42  QtSensors.in(t._ZN5QListIN10QtMobility12qoutputrangeEE9node_copyEPNS2_4NodeES4_S4_)
    QList<QtMobility::qoutputrange>::QList(const QList<QtMobility::qoutputrange>&) 0x0000c763   Thumb Code    30  QtSensors.in(t._ZN5QListIN10QtMobility12qoutputrangeEEC1ERKS2_)
    QList<QtMobility::qoutputrange>::QList__sub_object(const QList<QtMobility::qoutputrange>&) 0x0000c763   Thumb Code     0  QtSensors.in(t._ZN5QListIN10QtMobility12qoutputrangeEEC1ERKS2_)
    QList<QtMobility::qoutputrange>::QList() 0x0000c781   Thumb Code    16  QtSensors.in(t._ZN5QListIN10QtMobility12qoutputrangeEEC1Ev)
    QList<QtMobility::qoutputrange>::QList__sub_object() 0x0000c781   Thumb Code     0  QtSensors.in(t._ZN5QListIN10QtMobility12qoutputrangeEEC1Ev)
    QList<QtMobility::qoutputrange>::~QList() 0x0000c795   Thumb Code    30  QtSensors.in(t._ZN5QListIN10QtMobility12qoutputrangeEED1Ev)
    QList<QtMobility::qoutputrange>::~QList__sub_object() 0x0000c795   Thumb Code     0  QtSensors.in(t._ZN5QListIN10QtMobility12qoutputrangeEED1Ev)
    QList<QPluginLoader*>::detach_helper()   0x0000c7b3   Thumb Code    88  QtSensors.in(t._ZN5QListIP13QPluginLoaderE13detach_helperEv)
    QList<QPluginLoader*>::detach_helper_grow(int, int) 0x0000c813   Thumb Code   164  QtSensors.in(t._ZN5QListIP13QPluginLoaderE18detach_helper_growEii)
    QList<QPluginLoader*>::free(QListData::Data*) 0x0000c8bf   Thumb Code    16  QtSensors.in(t._ZN5QListIP13QPluginLoaderE4freeEPN9QListData4DataE)
    QList<QPluginLoader*>::node_copy(QList<QPluginLoader*>::Node*, QList<QPluginLoader*>::Node*, QList<QPluginLoader*>::Node*) 0x0000c8cf   Thumb Code    28  QtSensors.in(t._ZN5QListIP13QPluginLoaderE9node_copyEPNS2_4NodeES4_S4_)
    QList<QPluginLoader*>::~QList()          0x0000c8eb   Thumb Code    30  QtSensors.in(t._ZN5QListIP13QPluginLoaderED1Ev)
    QList<QPluginLoader*>::~QList__sub_object() 0x0000c8eb   Thumb Code     0  QtSensors.in(t._ZN5QListIP13QPluginLoaderED1Ev)
    QList<QtMobility::QSensorPluginInterface*(*)()>::detach_helper() 0x0000c909   Thumb Code    88  QtSensors.in(t._ZN5QListIPFPN10QtMobility22QSensorPluginInterfaceEvEE13detach_helperEv)
    QList<QtMobility::QSensorPluginInterface*(*)()>::detach_helper_grow(int, int) 0x0000c969   Thumb Code   164  QtSensors.in(t._ZN5QListIPFPN10QtMobility22QSensorPluginInterfaceEvEE18detach_helper_growEii)
    QList<QtMobility::QSensorPluginInterface*(*)()>::free(QListData::Data*) 0x0000ca15   Thumb Code    16  QtSensors.in(t._ZN5QListIPFPN10QtMobility22QSensorPluginInterfaceEvEE4freeEPN9QListData4DataE)
    QList<QtMobility::QSensorPluginInterface*(*)()>::node_copy(QList<QtMobility::QSensorPluginInterface*(*)()>::Node*, QList<QtMobility::QSensorPluginInterface*(*)()>::Node*, QList<QtMobility::QSensorPluginInterface*(*)()>::Node*) 0x0000ca25   Thumb Code    28  QtSensors.in(t._ZN5QListIPFPN10QtMobility22QSensorPluginInterfaceEvEE9node_copyEPNS5_4NodeES7_S7_)
    QList<QtMobility::QSensorPluginInterface*(*)()>::~QList() 0x0000ca41   Thumb Code    30  QtSensors.in(t._ZN5QListIPFPN10QtMobility22QSensorPluginInterfaceEvEED1Ev)
    QList<QtMobility::QSensorPluginInterface*(*)()>::~QList__sub_object() 0x0000ca41   Thumb Code     0  QtSensors.in(t._ZN5QListIPFPN10QtMobility22QSensorPluginInterfaceEvEED1Ev)
    QList<QtMobility::QSensorFilter*>::detach_helper() 0x0000ca5f   Thumb Code    88  QtSensors.in(t._ZN5QListIPN10QtMobility13QSensorFilterEE13detach_helperEv)
    QList<QtMobility::QSensorFilter*>::detach_helper_grow(int, int) 0x0000cabf   Thumb Code   164  QtSensors.in(t._ZN5QListIPN10QtMobility13QSensorFilterEE18detach_helper_growEii)
    QList<QtMobility::QSensorFilter*>::free(QListData::Data*) 0x0000cb6b   Thumb Code    16  QtSensors.in(t._ZN5QListIPN10QtMobility13QSensorFilterEE4freeEPN9QListData4DataE)
    QList<QtMobility::QSensorFilter*>::node_copy(QList<QtMobility::QSensorFilter*>::Node*, QList<QtMobility::QSensorFilter*>::Node*, QList<QtMobility::QSensorFilter*>::Node*) 0x0000cb7b   Thumb Code    28  QtSensors.in(t._ZN5QListIPN10QtMobility13QSensorFilterEE9node_copyEPNS3_4NodeES5_S5_)
    QList<QtMobility::QSensorFilter*>::removeOne(QtMobility::QSensorFilter*const &) 0x0000cb99   Thumb Code   150  QtSensors.in(t._ZN5QListIPN10QtMobility13QSensorFilterEE9removeOneERKS2_)
    QList<QtMobility::QSensorFilter*>::~QList() 0x0000cc35   Thumb Code    30  QtSensors.in(t._ZN5QListIPN10QtMobility13QSensorFilterEED1Ev)
    QList<QtMobility::QSensorFilter*>::~QList__sub_object() 0x0000cc35   Thumb Code     0  QtSensors.in(t._ZN5QListIPN10QtMobility13QSensorFilterEED1Ev)
    QList<QtMobility::QSensorPluginInterface*>::detach_helper(int) 0x0000cc53   Thumb Code    98  QtSensors.in(t._ZN5QListIPN10QtMobility22QSensorPluginInterfaceEE13detach_helperEi)
    QList<QtMobility::QSensorPluginInterface*>::detach_helper_grow(int, int) 0x0000ccbd   Thumb Code   164  QtSensors.in(t._ZN5QListIPN10QtMobility22QSensorPluginInterfaceEE18detach_helper_growEii)
    QList<QtMobility::QSensorPluginInterface*>::free(QListData::Data*) 0x0000cd69   Thumb Code    16  QtSensors.in(t._ZN5QListIPN10QtMobility22QSensorPluginInterfaceEE4freeEPN9QListData4DataE)
    QList<QtMobility::QSensorPluginInterface*>::node_copy(QList<QtMobility::QSensorPluginInterface*>::Node*, QList<QtMobility::QSensorPluginInterface*>::Node*, QList<QtMobility::QSensorPluginInterface*>::Node*) 0x0000cd79   Thumb Code    28  QtSensors.in(t._ZN5QListIPN10QtMobility22QSensorPluginInterfaceEE9node_copyEPNS3_4NodeES5_S5_)
    QList<QtMobility::QSensorPluginInterface*>::QList(const QList<QtMobility::QSensorPluginInterface*>&) 0x0000cd95   Thumb Code    32  QtSensors.in(t._ZN5QListIPN10QtMobility22QSensorPluginInterfaceEEC1ERKS3_)
    QList<QtMobility::QSensorPluginInterface*>::QList__sub_object(const QList<QtMobility::QSensorPluginInterface*>&) 0x0000cd95   Thumb Code     0  QtSensors.in(t._ZN5QListIPN10QtMobility22QSensorPluginInterfaceEEC1ERKS3_)
    QList<QtMobility::QSensorPluginInterface*>::~QList() 0x0000cdb5   Thumb Code    30  QtSensors.in(t._ZN5QListIPN10QtMobility22QSensorPluginInterfaceEED1Ev)
    QList<QtMobility::QSensorPluginInterface*>::~QList__sub_object() 0x0000cdb5   Thumb Code     0  QtSensors.in(t._ZN5QListIPN10QtMobility22QSensorPluginInterfaceEED1Ev)
    QHashNode<QByteArray, QHash<QByteArray, QtMobility::QSensorBackendFactory*>>::QHashNode(const QByteArray&, const QHash<QByteArray, QtMobility::QSensorBackendFactory*>&) 0x0000cdd3   Thumb Code    48  QtSensors.in(t._ZN9QHashNodeI10QByteArray5QHashIS0_PN10QtMobility21QSensorBackendFactoryEEEC1ERKS0_RKS5_)
    QHashNode<QByteArray, QHash<QByteArray, QtMobility::QSensorBackendFactory*>>::QHashNode__sub_object(const QByteArray&, const QHash<QByteArray, QtMobility::QSensorBackendFactory*>&) 0x0000cdd3   Thumb Code     0  QtSensors.in(t._ZN9QHashNodeI10QByteArray5QHashIS0_PN10QtMobility21QSensorBackendFactoryEEEC1ERKS0_RKS5_)
    QHashNode<QByteArray, QtMobility::QSensorBackendFactory*>::QHashNode(const QByteArray&, QtMobility::QSensorBackendFactory*const &) 0x0000ce0f   Thumb Code    18  QtSensors.in(t._ZN9QHashNodeI10QByteArrayPN10QtMobility21QSensorBackendFactoryEEC1ERKS0_RKS3_)
    QHashNode<QByteArray, QtMobility::QSensorBackendFactory*>::QHashNode__sub_object(const QByteArray&, QtMobility::QSensorBackendFactory*const &) 0x0000ce0f   Thumb Code     0  QtSensors.in(t._ZN9QHashNodeI10QByteArrayPN10QtMobility21QSensorBackendFactoryEEC1ERKS0_RKS3_)
    QHashNode<QByteArray, QByteArray>::QHashNode(const QByteArray&, const QByteArray&) 0x0000ce21   Thumb Code    28  QtSensors.in(t._ZN9QHashNodeI10QByteArrayS0_EC1ERKS0_S3_)
    QHashNode<QByteArray, QByteArray>::QHashNode__sub_object(const QByteArray&, const QByteArray&) 0x0000ce21   Thumb Code     0  QtSensors.in(t._ZN9QHashNodeI10QByteArrayS0_EC1ERKS0_S3_)
    QForeachContainer<QList<QtMobility::QSensorPluginInterface*>>::condition() const 0x0000ce49   Thumb Code    26  QtSensors.in(t._ZNK17QForeachContainerI5QListIPN10QtMobility22QSensorPluginInterfaceEEE9conditionEv)
    QSet<QString>::contains(const QString&) const 0x0000ce63   Thumb Code    26  QtSensors.in(t._ZNK4QSetI7QStringE8containsERKS0_)
    QHash<QByteArray, QtMobility::QSensorBackendFactory*>::keys() const 0x0000ce7d   Thumb Code    60  QtSensors.in(t._ZNK5QHashI10QByteArrayPN10QtMobility21QSensorBackendFactoryEE4keysEv)
    QHash<QByteArray, QtMobility::QSensorBackendFactory*>::contains(const QByteArray&) const 0x0000cec3   Thumb Code    26  QtSensors.in(t._ZNK5QHashI10QByteArrayPN10QtMobility21QSensorBackendFactoryEE8containsERKS0_)
    QHash<QByteArray, QtMobility::QSensorBackendFactory*>::findNode(const QByteArray&, unsigned*) const 0x0000cedd   Thumb Code    90  QtSensors.in(t._ZNK5QHashI10QByteArrayPN10QtMobility21QSensorBackendFactoryEE8findNodeERKS0_Pj)
    QHash<QByteArray, QtMobility::QSensorBackendFactory*>::operator [](const QByteArray&) const 0x0000cf37   Thumb Code    36  QtSensors.in(t._ZNK5QHashI10QByteArrayPN10QtMobility21QSensorBackendFactoryEEixERKS0_)
    QHash<QByteArray, QByteArray>::findNode(const QByteArray&, unsigned*) const 0x0000cf5b   Thumb Code    90  QtSensors.in(t._ZNK5QHashI10QByteArrayS0_E8findNodeERKS0_Pj)
    QHash<QByteArray, QHash<QByteArray, QtMobility::QSensorBackendFactory*>>::keys() const 0x0000cfb5   Thumb Code    60  QtSensors.in(t._ZNK5QHashI10QByteArrayS_IS0_PN10QtMobility21QSensorBackendFactoryEEE4keysEv)
    QHash<QByteArray, QHash<QByteArray, QtMobility::QSensorBackendFactory*>>::contains(const QByteArray&) const 0x0000cffb   Thumb Code    26  QtSensors.in(t._ZNK5QHashI10QByteArrayS_IS0_PN10QtMobility21QSensorBackendFactoryEEE8containsERKS0_)
    QHash<QByteArray, QHash<QByteArray, QtMobility::QSensorBackendFactory*>>::findNode(const QByteArray&, unsigned*) const 0x0000d015   Thumb Code    90  QtSensors.in(t._ZNK5QHashI10QByteArrayS_IS0_PN10QtMobility21QSensorBackendFactoryEEE8findNodeERKS0_Pj)
    QHash<QString, QHashDummyValue>::findNode(const QString&, unsigned*) const 0x0000d06f   Thumb Code    90  QtSensors.in(t._ZNK5QHashI7QString15QHashDummyValueE8findNodeERKS0_Pj)
    QList<QString>::at(int) const            0x0000d0c9   Thumb Code    16  QtSensors.in(t._ZNK5QListI7QStringE2atEi)
    QList<QString>::count() const            0x0000d0d9   Thumb Code    10  QtSensors.in(t._ZNK5QListI7QStringE5countEv)
    QtMobility::QSensorBackend::staticMetaObject 0x0000dc50   Data          16  QtSensors.in(.constdata)
    QtMobility::QSensor::staticMetaObject    0x0000dcf4   Data          16  QtSensors.in(.constdata)
    QtMobility::QSensorReading::staticMetaObject 0x0000dd04   Data          16  QtSensors.in(.constdata)
    QtMobility::QAccelerometerReading::staticMetaObject 0x0000e0a8   Data          16  QtSensors.in(.constdata)
    QtMobility::QAccelerometer::staticMetaObject 0x0000e0b8   Data          16  QtSensors.in(.constdata)
    QtMobility::QAccelerometer::type         0x0000e0fc   Data           4  QtSensors.in(.constdata)
    QtMobility::QAmbientLightReading::staticMetaObject 0x0000e19c   Data          16  QtSensors.in(.constdata)
    QtMobility::QAmbientLightSensor::staticMetaObject 0x0000e1ac   Data          16  QtSensors.in(.constdata)
    QtMobility::QAmbientLightSensor::type    0x0000e228   Data           4  QtSensors.in(.constdata)
    QtMobility::QCompassReading::staticMetaObject 0x0000e2f0   Data          16  QtSensors.in(.constdata)
    QtMobility::QCompass::staticMetaObject   0x0000e300   Data          16  QtSensors.in(.constdata)
    QtMobility::QCompass::type               0x0000e34c   Data           4  QtSensors.in(.constdata)
    QtMobility::QMagnetometerReading::staticMetaObject 0x0000e3e0   Data          16  QtSensors.in(.constdata)
    QtMobility::QMagnetometer::staticMetaObject 0x0000e3f0   Data          16  QtSensors.in(.constdata)
    QtMobility::QMagnetometer::type          0x0000e444   Data           4  QtSensors.in(.constdata)
    QtMobility::QOrientationReading::staticMetaObject 0x0000e4f0   Data          16  QtSensors.in(.constdata)
    QtMobility::QOrientationSensor::staticMetaObject 0x0000e500   Data          16  QtSensors.in(.constdata)
    QtMobility::QOrientationSensor::type     0x0000e588   Data           4  QtSensors.in(.constdata)
    QtMobility::QProximityReading::staticMetaObject 0x0000e658   Data          16  QtSensors.in(.constdata)
    QtMobility::QProximitySensor::staticMetaObject 0x0000e668   Data          16  QtSensors.in(.constdata)
    QtMobility::QProximitySensor::type       0x0000e6a8   Data           4  QtSensors.in(.constdata)
    QtMobility::QRotationReading::staticMetaObject 0x0000e730   Data          16  QtSensors.in(.constdata)
    QtMobility::QRotationSensor::staticMetaObject 0x0000e740   Data          16  QtSensors.in(.constdata)
    QtMobility::QRotationSensor::type        0x0000e780   Data           4  QtSensors.in(.constdata)
    QtMobility::QTapReading::staticMetaObject 0x0000e820   Data          16  QtSensors.in(.constdata)
    QtMobility::QTapSensor::staticMetaObject 0x0000e830   Data          16  QtSensors.in(.constdata)
    QtMobility::QTapSensor::type             0x0000e8b8   Data           4  QtSensors.in(.constdata)
    typeinfo for QtMobility::QTapSensor      0x0000e9ac   Data          12  QtSensors.in(.constdata__ZTIN10QtMobility10QTapSensorE)
    typeinfo for QtMobility::QTapReading     0x0000e9b8   Data          12  QtSensors.in(.constdata__ZTIN10QtMobility11QTapReadingE)
    typeinfo for QtMobility::QMagnetometer   0x0000e9c4   Data          12  QtSensors.in(.constdata__ZTIN10QtMobility13QMagnetometerE)
    typeinfo for QtMobility::QSensorFilter   0x0000e9d0   Data           8  QtSensors.in(.constdata__ZTIN10QtMobility13QSensorFilterE)
    typeinfo for QtMobility::QAccelerometer  0x0000e9d8   Data          12  QtSensors.in(.constdata__ZTIN10QtMobility14QAccelerometerE)
    typeinfo for QtMobility::QSensorBackend  0x0000e9e4   Data          12  QtSensors.in(.constdata__ZTIN10QtMobility14QSensorBackendE)
    typeinfo for QtMobility::QSensorReading  0x0000e9f0   Data          12  QtSensors.in(.constdata__ZTIN10QtMobility14QSensorReadingE)
    typeinfo for QtMobility::QCompassReading 0x0000e9fc   Data          12  QtSensors.in(.constdata__ZTIN10QtMobility15QCompassReadingE)
    typeinfo for QtMobility::QRotationSensor 0x0000ea08   Data          12  QtSensors.in(.constdata__ZTIN10QtMobility15QRotationSensorE)
    typeinfo for QtMobility::QProximitySensor 0x0000ea14   Data          12  QtSensors.in(.constdata__ZTIN10QtMobility16QProximitySensorE)
    typeinfo for QtMobility::QRotationReading 0x0000ea20   Data          12  QtSensors.in(.constdata__ZTIN10QtMobility16QRotationReadingE)
    typeinfo for QtMobility::QProximityReading 0x0000ea2c   Data          12  QtSensors.in(.constdata__ZTIN10QtMobility17QProximityReadingE)
    typeinfo for QtMobility::QOrientationSensor 0x0000ea38   Data          12  QtSensors.in(.constdata__ZTIN10QtMobility18QOrientationSensorE)
    typeinfo for QtMobility::QAmbientLightSensor 0x0000ea44   Data          12  QtSensors.in(.constdata__ZTIN10QtMobility19QAmbientLightSensorE)
    typeinfo for QtMobility::QOrientationReading 0x0000ea50   Data          12  QtSensors.in(.constdata__ZTIN10QtMobility19QOrientationReadingE)
    typeinfo for QtMobility::QAmbientLightReading 0x0000ea5c   Data          12  QtSensors.in(.constdata__ZTIN10QtMobility20QAmbientLightReadingE)
    typeinfo for QtMobility::QMagnetometerReading 0x0000ea68   Data          12  QtSensors.in(.constdata__ZTIN10QtMobility20QMagnetometerReadingE)
    typeinfo for QtMobility::QAccelerometerReading 0x0000ea74   Data          12  QtSensors.in(.constdata__ZTIN10QtMobility21QAccelerometerReadingE)
    typeinfo for QtMobility::QSensor         0x0000ea80   Data          12  QtSensors.in(.constdata__ZTIN10QtMobility7QSensorE)
    typeinfo for QtMobility::QCompass        0x0000ea8c   Data          12  QtSensors.in(.constdata__ZTIN10QtMobility8QCompassE)
    typeinfo for std::bad_alloc              0x0000ea98   Data          12  QtSensors.in(.constdata__ZTISt9bad_alloc)
    typeinfo name for QtMobility::QTapSensor 0x0000eaa4   Data          27  QtSensors.in(.constdata__ZTSN10QtMobility10QTapSensorE)
    typeinfo name for QtMobility::QTapReading 0x0000eabf   Data          28  QtSensors.in(.constdata__ZTSN10QtMobility11QTapReadingE)
    typeinfo name for QtMobility::QMagnetometer 0x0000eadb   Data          30  QtSensors.in(.constdata__ZTSN10QtMobility13QMagnetometerE)
    typeinfo name for QtMobility::QSensorFilter 0x0000eaf9   Data          30  QtSensors.in(.constdata__ZTSN10QtMobility13QSensorFilterE)
    typeinfo name for QtMobility::QAccelerometer 0x0000eb17   Data          31  QtSensors.in(.constdata__ZTSN10QtMobility14QAccelerometerE)
    typeinfo name for QtMobility::QSensorBackend 0x0000eb36   Data          31  QtSensors.in(.constdata__ZTSN10QtMobility14QSensorBackendE)
    typeinfo name for QtMobility::QSensorReading 0x0000eb55   Data          31  QtSensors.in(.constdata__ZTSN10QtMobility14QSensorReadingE)
    typeinfo name for QtMobility::QCompassReading 0x0000eb74   Data          32  QtSensors.in(.constdata__ZTSN10QtMobility15QCompassReadingE)
    typeinfo name for QtMobility::QRotationSensor 0x0000eb94   Data          32  QtSensors.in(.constdata__ZTSN10QtMobility15QRotationSensorE)
    typeinfo name for QtMobility::QProximitySensor 0x0000ebb4   Data          33  QtSensors.in(.constdata__ZTSN10QtMobility16QProximitySensorE)
    typeinfo name for QtMobility::QRotationReading 0x0000ebd5   Data          33  QtSensors.in(.constdata__ZTSN10QtMobility16QRotationReadingE)
    typeinfo name for QtMobility::QProximityReading 0x0000ebf6   Data          34  QtSensors.in(.constdata__ZTSN10QtMobility17QProximityReadingE)
    typeinfo name for QtMobility::QOrientationSensor 0x0000ec18   Data          35  QtSensors.in(.constdata__ZTSN10QtMobility18QOrientationSensorE)
    typeinfo name for QtMobility::QAmbientLightSensor 0x0000ec3b   Data          36  QtSensors.in(.constdata__ZTSN10QtMobility19QAmbientLightSensorE)
    typeinfo name for QtMobility::QOrientationReading 0x0000ec5f   Data          36  QtSensors.in(.constdata__ZTSN10QtMobility19QOrientationReadingE)
    typeinfo name for QtMobility::QAmbientLightReading 0x0000ec83   Data          37  QtSensors.in(.constdata__ZTSN10QtMobility20QAmbientLightReadingE)
    typeinfo name for QtMobility::QMagnetometerReading 0x0000eca8   Data          37  QtSensors.in(.constdata__ZTSN10QtMobility20QMagnetometerReadingE)
    typeinfo name for QtMobility::QAccelerometerReading 0x0000eccd   Data          38  QtSensors.in(.constdata__ZTSN10QtMobility21QAccelerometerReadingE)
    typeinfo name for QtMobility::QSensor    0x0000ecf3   Data          23  QtSensors.in(.constdata__ZTSN10QtMobility7QSensorE)
    typeinfo name for QtMobility::QCompass   0x0000ed0a   Data          24  QtSensors.in(.constdata__ZTSN10QtMobility8QCompassE)
    typeinfo name for std::bad_alloc         0x0000ed22   Data          13  QtSensors.in(.constdata__ZTSSt9bad_alloc)
    vtable for QtMobility::QTapSensor        0x0000ed30   Data          56  QtSensors.in(.constdata__ZTVN10QtMobility10QTapSensorE)
    vtable for QtMobility::QTapReading       0x0000ed68   Data          60  QtSensors.in(.constdata__ZTVN10QtMobility11QTapReadingE)
    vtable for QtMobility::QMagnetometer     0x0000eda4   Data          56  QtSensors.in(.constdata__ZTVN10QtMobility13QMagnetometerE)
    vtable for QtMobility::QSensorFilter     0x0000eddc   Data          16  QtSensors.in(.constdata__ZTVN10QtMobility13QSensorFilterE)
    vtable for QtMobility::QAccelerometer    0x0000edec   Data          56  QtSensors.in(.constdata__ZTVN10QtMobility14QAccelerometerE)
    vtable for QtMobility::QSensorBackend    0x0000ee24   Data          64  QtSensors.in(.constdata__ZTVN10QtMobility14QSensorBackendE)
    vtable for QtMobility::QSensorReading    0x0000ee64   Data          60  QtSensors.in(.constdata__ZTVN10QtMobility14QSensorReadingE)
    vtable for QtMobility::QCompassReading   0x0000eea0   Data          60  QtSensors.in(.constdata__ZTVN10QtMobility15QCompassReadingE)
    vtable for QtMobility::QRotationSensor   0x0000eedc   Data          56  QtSensors.in(.constdata__ZTVN10QtMobility15QRotationSensorE)
    vtable for QtMobility::QProximitySensor  0x0000ef14   Data          56  QtSensors.in(.constdata__ZTVN10QtMobility16QProximitySensorE)
    vtable for QtMobility::QRotationReading  0x0000ef4c   Data          60  QtSensors.in(.constdata__ZTVN10QtMobility16QRotationReadingE)
    vtable for QtMobility::QProximityReading 0x0000ef88   Data          60  QtSensors.in(.constdata__ZTVN10QtMobility17QProximityReadingE)
    vtable for QtMobility::QOrientationSensor 0x0000efc4   Data          56  QtSensors.in(.constdata__ZTVN10QtMobility18QOrientationSensorE)
    vtable for QtMobility::QAmbientLightSensor 0x0000effc   Data          56  QtSensors.in(.constdata__ZTVN10QtMobility19QAmbientLightSensorE)
    vtable for QtMobility::QOrientationReading 0x0000f034   Data          60  QtSensors.in(.constdata__ZTVN10QtMobility19QOrientationReadingE)
    vtable for QtMobility::QAmbientLightReading 0x0000f070   Data          60  QtSensors.in(.constdata__ZTVN10QtMobility20QAmbientLightReadingE)
    vtable for QtMobility::QMagnetometerReading 0x0000f0ac   Data          60  QtSensors.in(.constdata__ZTVN10QtMobility20QMagnetometerReadingE)
    vtable for QtMobility::QAccelerometerReading 0x0000f0e8   Data          60  QtSensors.in(.constdata__ZTVN10QtMobility21QAccelerometerReadingE)
    vtable for QtMobility::QSensor           0x0000f124   Data          56  QtSensors.in(.constdata__ZTVN10QtMobility7QSensorE)
    vtable for QtMobility::QCompass          0x0000f15c   Data          56  QtSensors.in(.constdata__ZTVN10QtMobility8QCompassE)
    SHT$$INIT_ARRAY$$Base                    0x0000f210   Number         0  QtSensors.in(.init_array)
    .ARM.exidx$$Base                         0x0000f214   Number         0  ucppinit_aeabi.o(.ARM.exidx)
    SHT$$INIT_ARRAY$$Limit                   0x0000f214   Data           0  QtSensors.in(.init_array)
    .ARM.exidx$$Limit                        0x0000f99c   Number         0  QtSensors.in(.ARM.exidx)
    Image$$ER_RO$$Limit                      0x0000f99c   Number         0  anon$$obj.o(linker$$defined$$symbols)
    __dso_handle                             0x00400034   Data           4  ucppfini.o(.data)
    QMetaTypeId<QList<QPair<int, int>>>::qt_metatype_id()::metatype_id 0x00400038   Data           4  QtSensors.in(.data__ZZN11QMetaTypeIdI5QListI5QPairIiiEEE14qt_metatype_idEvE11metatype_id)
    QMetaTypeId<QList<QtMobility::qoutputrange>>::qt_metatype_id()::metatype_id 0x0040003c   Data           4  QtSensors.in(.data__ZZN11QMetaTypeIdI5QListIN10QtMobility12qoutputrangeEEE14qt_metatype_idEvE11metatype_id)
    QMetaTypeId<QPair<int, int>>::qt_metatype_id()::metatype_id 0x00400040   Data           4  QtSensors.in(.data__ZZN11QMetaTypeIdI5QPairIiiEE14qt_metatype_idEvE11metatype_id)
    QMetaTypeId<QtMobility::qtimestamp>::qt_metatype_id()::metatype_id 0x00400044   Data           4  QtSensors.in(.data__ZZN11QMetaTypeIdIN10QtMobility10qtimestampEE14qt_metatype_idEvE11metatype_id)

