ARM Linker, RVCT2.2 [Build 686]

================================================================================

Image Symbol Table

    Local Symbols

    Symbol Name                              Value     Ov Type        Size  Object(Section)

    ../../unhosted.s                         0x00000000   Number         0  switch8.o ABSOLUTE
    M:\\epoc32\\build\\euser\\c_e18a23aea4fd210f\\eexe_lib\\armv5\\urel\\uc_exe_.cpp 0x00000000   Number         0  uc_exe_.o ABSOLUTE
    M:\\sf\\os\\kernelhwsrv\\kernel\\eka\\compsupp\\rvct\\ucppinit.cpp 0x00000000   Number         0  ucppinit.o ABSOLUTE
    M:\epoc32\build\euser\c_e18a23aea4fd210f\eexe_lib\armv5\urel\uc_exe_.cpp 0x00000000   Number         0  uc_exe_.o ABSOLUTE
    M:\sf\os\kernelhwsrv\kernel\eka\compsupp\rvct\dllexp.cpp 0x00000000   Number         0  dllexp.o ABSOLUTE
    M:\sf\os\kernelhwsrv\kernel\eka\compsupp\rvct\ucppfini.cpp 0x00000000   Number         0  ucppfini.o ABSOLUTE
    M:\sf\os\kernelhwsrv\kernel\eka\compsupp\rvct\ucppinit.cpp 0x00000000   Number         0  ucppinit.o ABSOLUTE
    M:\sf\os\kernelhwsrv\kernel\eka\compsupp\symaehabi\callfirstprocessfn.cpp 0x00000000   Number         0  callfirstprocessfn.o ABSOLUTE
    M:\sf\os\kernelhwsrv\kernel\eka\euser\epoc\arm\uc_exe.cpp 0x00000000   Number         0  uc_exe.o ABSOLUTE
    S:\\sf\\mw\\qt\\src\\s60main\\qts60main_mcrt0.cpp 0x00000000   Number         0  qts60main_mcrt0.o ABSOLUTE
    S:\sf\mw\qt\src\s60main\newallocator_hook.cpp 0x00000000   Number         0  newallocator_hook.o ABSOLUTE
    S:\sf\mw\qt\src\s60main\qts60main.cpp    0x00000000   Number         0  qts60main.o ABSOLUTE
    S:\sf\mw\qt\src\s60main\qts60main_mcrt0.cpp 0x00000000   Number         0  qts60main_mcrt0.o ABSOLUTE
    S:\sf\mw\qtwebkit\WebKitTools\QtTestBrowser\fpstimer.cpp 0x00000000   Number         0  fpstimer.o ABSOLUTE
    S:\sf\mw\qtwebkit\WebKitTools\QtTestBrowser\launcherwindow.cpp 0x00000000   Number         0  launcherwindow.o ABSOLUTE
    S:\sf\mw\qtwebkit\WebKitTools\QtTestBrowser\locationedit.cpp 0x00000000   Number         0  locationedit.o ABSOLUTE
    S:\sf\mw\qtwebkit\WebKitTools\QtTestBrowser\main.cpp 0x00000000   Number         0  main.o ABSOLUTE
    S:\sf\mw\qtwebkit\WebKitTools\QtTestBrowser\mainwindow.cpp 0x00000000   Number         0  mainwindow.o ABSOLUTE
    S:\sf\mw\qtwebkit\WebKitTools\QtTestBrowser\moc_fpstimer.cpp 0x00000000   Number         0  moc_fpstimer.o ABSOLUTE
    S:\sf\mw\qtwebkit\WebKitTools\QtTestBrowser\moc_launcherwindow.cpp 0x00000000   Number         0  moc_launcherwindow.o ABSOLUTE
    S:\sf\mw\qtwebkit\WebKitTools\QtTestBrowser\moc_locationedit.cpp 0x00000000   Number         0  moc_locationedit.o ABSOLUTE
    S:\sf\mw\qtwebkit\WebKitTools\QtTestBrowser\moc_mainwindow.cpp 0x00000000   Number         0  moc_mainwindow.o ABSOLUTE
    S:\sf\mw\qtwebkit\WebKitTools\QtTestBrowser\moc_urlloader.cpp 0x00000000   Number         0  moc_urlloader.o ABSOLUTE
    S:\sf\mw\qtwebkit\WebKitTools\QtTestBrowser\moc_webinspector.cpp 0x00000000   Number         0  moc_webinspector.o ABSOLUTE
    S:\sf\mw\qtwebkit\WebKitTools\QtTestBrowser\moc_webpage.cpp 0x00000000   Number         0  moc_webpage.o ABSOLUTE
    S:\sf\mw\qtwebkit\WebKitTools\QtTestBrowser\moc_webview.cpp 0x00000000   Number         0  moc_webview.o ABSOLUTE
    S:\sf\mw\qtwebkit\WebKitTools\QtTestBrowser\qrc_QtTestBrowser.cpp 0x00000000   Number         0  qrc_QtTestBrowser.o ABSOLUTE
    S:\sf\mw\qtwebkit\WebKitTools\QtTestBrowser\urlloader.cpp 0x00000000   Number         0  urlloader.o ABSOLUTE
    S:\sf\mw\qtwebkit\WebKitTools\QtTestBrowser\utils.cpp 0x00000000   Number         0  utils.o ABSOLUTE
    S:\sf\mw\qtwebkit\WebKitTools\QtTestBrowser\webpage.cpp 0x00000000   Number         0  webpage.o ABSOLUTE
    S:\sf\mw\qtwebkit\WebKitTools\QtTestBrowser\webview.cpp 0x00000000   Number         0  webview.o ABSOLUTE
    .emb_text                                0x00008000   Section      112  uc_exe_.o(.emb_text)
    $v0                                      0x00008070   ARM Code       0  qts60main_mcrt0.o(.emb_text)
    .emb_text                                0x00008070   Section        4  qts60main_mcrt0.o(.emb_text)
    .emb_text                                0x00008074   Section       52  ucppinit.o(.emb_text)
    loop                                     0x00008088   ARM Code       0  ucppinit.o(.emb_text)
    base                                     0x000080a0   Data           0  ucppinit.o(.emb_text)
    limit                                    0x000080a4   Data           0  ucppinit.o(.emb_text)
    .text                                    0x00008df8   Section        8  uc_exe_.o(.text)
    .text                                    0x00008e00   Section      420  locationedit.o(.text)
    .text                                    0x00008fa4   Section    10236  launcherwindow.o(.text)
    |L1.2556|                                0x000099a0   Data           0  launcherwindow.o(.text)
    |L1.2588|                                0x000099c0   Data           0  launcherwindow.o(.text)
    |L1.3004|                                0x00009b60   Data           0  launcherwindow.o(.text)
    |L1.4236|                                0x0000a030   Data           0  launcherwindow.o(.text)
    |L1.4256|                                0x0000a044   Data           0  launcherwindow.o(.text)
    |L1.4612|                                0x0000a1a8   Data           0  launcherwindow.o(.text)
    |L1.9692|                                0x0000b580   Data           0  launcherwindow.o(.text)
    __sti___18_launcherwindow_cpp            0x0000b763   Thumb Code    24  launcherwindow.o(.text)
    .text                                    0x0000b7a0   Section     3268  main.o(.text)
    requiresGraphicsView(const QString&)     0x0000b7a9   Thumb Code    62  main.o(.text)
    |L1.632|                                 0x0000ba18   Data           0  main.o(.text)
    __sti___8_main_cpp                       0x0000c425   Thumb Code    46  main.o(.text)
    .text                                    0x0000c464   Section     2048  mainwindow.o(.text)
    .text                                    0x0000cc64   Section     1040  urlloader.o(.text)
    .text                                    0x0000d074   Section      672  utils.o(.text)
    .text                                    0x0000d314   Section     1898  webpage.o(.text)
    createContextMenu(QWebPage*, QPoint)     0x0000da81   Thumb Code   232  webview.o(.text)
    .text                                    0x0000da80   Section     2044  webview.o(.text)
    .text                                    0x0000e27c   Section      340  fpstimer.o(.text)
    .text                                    0x0000e3d0   Section      112  moc_locationedit.o(.text)
    .text                                    0x0000e440   Section      512  moc_launcherwindow.o(.text)
    .text                                    0x0000e640   Section      144  moc_mainwindow.o(.text)
    .text                                    0x0000e6d0   Section      152  moc_urlloader.o(.text)
    .text                                    0x0000e768   Section      128  moc_webinspector.o(.text)
    .text                                    0x0000e7e8   Section      212  moc_webpage.o(.text)
    .text                                    0x0000e8bc   Section      500  moc_webview.o(.text)
    .text                                    0x0000eab0   Section      128  moc_fpstimer.o(.text)
    .text                                    0x0000eb30   Section       84  qrc_QtTestBrowser.o(.text)
    __sti___21_qrc_QtTestBrowser_cpp         0x0000eb59   Thumb Code    22  qrc_QtTestBrowser.o(.text)
    .text                                    0x0000eb84   Section       24  switch8.o(.text)
    .text                                    0x0000eb9c   Section       96  uc_exe.o(.text)
    .text                                    0x0000ebfc   Section      144  ucppfini.o(.text)
    .text                                    0x0000ec8c   Section      180  qts60main_mcrt0.o(.text)
    .text                                    0x0000ed40   Section      120  callfirstprocessfn.o(.text)
    .text                                    0x0000edb8   Section        4  newallocator_hook.o(.text)
    .text                                    0x0000edbc   Section        4  dllexp.o(.text)
    .text                                    0x0000edc0   Section      120  qts60main.o(.text)
    .text.clean                              0x0000ee38   Section       56  locationedit.o(.text.clean)
    .text.clean                              0x0000ee70   Section      618  launcherwindow.o(.text.clean)
    .text.clean                              0x0000f0da   Section      412  main.o(.text.clean)
    .text.clean                              0x0000f278   Section      248  mainwindow.o(.text.clean)
    .text.clean                              0x0000f370   Section      146  urlloader.o(.text.clean)
    .text.clean                              0x0000f402   Section      130  utils.o(.text.clean)
    .text.clean                              0x0000f484   Section      248  webpage.o(.text.clean)
    .text.clean                              0x0000f57c   Section      174  webview.o(.text.clean)
    .text.clean                              0x0000f62a   Section       20  fpstimer.o(.text.clean)
    .text.clean                              0x0000f63e   Section       10  moc_webpage.o(.text.clean)
    .text.clean                              0x0000f648   Section        4  qrc_QtTestBrowser.o(.text.clean)
    .text.clean                              0x0000f64c   Section       16  qts60main_mcrt0.o(.text.clean)
    .text.clean                              0x0000f65c   Section        8  callfirstprocessfn.o(.text.clean)
    .text.clean                              0x0000f664   Section        8  qts60main.o(.text.clean)
    i._Z6qRoundf                             0x0000f67c   Section       70  webview.o(i._Z6qRoundf)
    i._ZN10MainWindowD0Ev                    0x0000f6c2   Section       16  moc_mainwindow.o(i._ZN10MainWindowD0Ev)
    i._ZN10MainWindowD1Ev                    0x0000f6d4   Section       44  launcherwindow.o(i._ZN10MainWindowD1Ev)
    i._ZN10MainWindowD1Ev.clean              0x0000f700   Section       22  launcherwindow.o(i._ZN10MainWindowD1Ev.clean)
    i._ZN10QByteArray4dataEv                 0x0000f716   Section       42  main.o(i._ZN10QByteArray4dataEv)
    i._ZN10QByteArrayD1Ev                    0x0000f740   Section       24  launcherwindow.o(i._ZN10QByteArrayD1Ev)
    i._ZN11QStringListC1ERKS_                0x0000f758   Section        8  main.o(i._ZN11QStringListC1ERKS_)
    i._ZN11QStringListD1Ev                   0x0000f760   Section        8  launcherwindow.o(i._ZN11QStringListD1Ev)
    i._ZN11QStringListaSERKS_                0x0000f768   Section       54  main.o(i._ZN11QStringListaSERKS_)
    i._ZN12LocationEditD0Ev                  0x0000f79e   Section       16  moc_locationedit.o(i._ZN12LocationEditD0Ev)
    i._ZN12LocationEditD1Ev                  0x0000f7b0   Section       32  moc_locationedit.o(i._ZN12LocationEditD1Ev)
    i._ZN12LocationEditD1Ev.clean            0x0000f7d0   Section       10  moc_locationedit.o(i._ZN12LocationEditD1Ev.clean)
    i._ZN12WebInspector9hideEventEP10QHideEvent 0x0000f7da   Section       18  moc_webinspector.o(i._ZN12WebInspector9hideEventEP10QHideEvent)
    i._ZN12WebInspector9showEventEP10QShowEvent 0x0000f7ec   Section       18  moc_webinspector.o(i._ZN12WebInspector9showEventEP10QShowEvent)
    i._ZN12WebInspectorD0Ev                  0x0000f7fe   Section       16  moc_webinspector.o(i._ZN12WebInspectorD0Ev)
    i._ZN12WebInspectorD1Ev                  0x0000f80e   Section        8  moc_webinspector.o(i._ZN12WebInspectorD1Ev)
    i._ZN13WindowOptionsD1Ev                 0x0000f816   Section       12  launcherwindow.o(i._ZN13WindowOptionsD1Ev)
    i._ZN14LauncherWindow2trEPKcS1_          0x0000f824   Section       20  launcherwindow.o(i._ZN14LauncherWindow2trEPKcS1_)
    i._ZN15GraphicsWebViewD0Ev               0x0000f838   Section       16  moc_webview.o(i._ZN15GraphicsWebViewD0Ev)
    i._ZN15GraphicsWebViewD1Ev               0x0000f848   Section        8  moc_webview.o(i._ZN15GraphicsWebViewD1Ev)
    i._ZN15QBasicAtomicInt3refEv             0x0000f850   Section       18  launcherwindow.o(i._ZN15QBasicAtomicInt3refEv)
    i._ZN15QBasicAtomicInt5derefEv           0x0000f862   Section       18  launcherwindow.o(i._ZN15QBasicAtomicInt5derefEv)
    i._ZN15QLinearGradientD1Ev               0x0000f874   Section        8  locationedit.o(i._ZN15QLinearGradientD1Ev)
    i._ZN16QStringListModelD1Ev              0x0000f87c   Section       28  launcherwindow.o(i._ZN16QStringListModelD1Ev)
    i._ZN16QStringListModelD1Ev.clean        0x0000f898   Section       10  launcherwindow.o(i._ZN16QStringListModelD1Ev.clean)
    i._ZN17QForeachContainerI11QStringListED1Ev 0x0000f8a2   Section        8  main.o(i._ZN17QForeachContainerI11QStringListED1Ev)
    i._ZN17QForeachContainerI21QWebElementCollectionED1Ev 0x0000f8aa   Section        8  launcherwindow.o(i._ZN17QForeachContainerI21QWebElementCollectionED1Ev)
    i._ZN18WebViewTraditionalD0Ev            0x0000f8b2   Section       16  moc_webview.o(i._ZN18WebViewTraditionalD0Ev)
    i._ZN18WebViewTraditionalD1Ev            0x0000f8c2   Section        8  moc_webview.o(i._ZN18WebViewTraditionalD1Ev)
    i._ZN19LauncherApplicationD0Ev           0x0000f8ca   Section       16  main.o(i._ZN19LauncherApplicationD0Ev)
    i._ZN19LauncherApplicationD1Ev           0x0000f8dc   Section       28  main.o(i._ZN19LauncherApplicationD1Ev)
    i._ZN19LauncherApplicationD1Ev.clean     0x0000f8f8   Section       10  main.o(i._ZN19LauncherApplicationD1Ev.clean)
    i._ZN20WebViewGraphicsBasedD0Ev          0x0000f902   Section       16  moc_webview.o(i._ZN20WebViewGraphicsBasedD0Ev)
    i._ZN20WebViewGraphicsBasedD1Ev          0x0000f914   Section       32  moc_webview.o(i._ZN20WebViewGraphicsBasedD1Ev)
    i._ZN20WebViewGraphicsBasedD1Ev.clean    0x0000f934   Section       10  moc_webview.o(i._ZN20WebViewGraphicsBasedD1Ev.clean)
    i._ZN45qCleanupResources_QtTestBrowser__dest_class__D1Ev 0x0000f93e   Section       12  qrc_QtTestBrowser.o(i._ZN45qCleanupResources_QtTestBrowser__dest_class__D1Ev)
    i._ZN6QDebug10maybeSpaceEv               0x0000f94a   Section       22  launcherwindow.o(i._ZN6QDebug10maybeSpaceEv)
    i._ZN6QDebugD1Ev                         0x0000f960   Section       94  main.o(i._ZN6QDebugD1Ev)
    i._ZN6QDebugD1Ev.clean                   0x0000f9be   Section       20  main.o(i._ZN6QDebugD1Ev.clean)
    i._ZN6QDebuglsEPKc                       0x0000f9d2   Section       46  main.o(i._ZN6QDebuglsEPKc)
    i._ZN6QDebuglsEPKc.clean                 0x0000fa00   Section       10  main.o(i._ZN6QDebuglsEPKc.clean)
    i._ZN6QRectFC1ERK5QRect                  0x0000fa0a   Section       54  webview.o(i._ZN6QRectFC1ERK5QRect)
    i._ZN6QRectFC1ERK7QPointFRK6QSizeF       0x0000fa40   Section       18  webview.o(i._ZN6QRectFC1ERK7QPointFRK6QSizeF)
    i._ZN6QSizeFC1ERK5QSize                  0x0000fa52   Section       26  webview.o(i._ZN6QSizeFC1ERK5QSize)
    i._ZN7QPointFC1ERK6QPoint                0x0000fa6c   Section       26  launcherwindow.o(i._ZN7QPointFC1ERK6QPoint)
    i._ZN7QStringC1EPKc                      0x0000fa86   Section       20  launcherwindow.o(i._ZN7QStringC1EPKc)
    i._ZN7QStringC1ERKS_                     0x0000fa9a   Section       16  launcherwindow.o(i._ZN7QStringC1ERKS_)
    i._ZN7QStringC1Ev                        0x0000faac   Section       20  launcherwindow.o(i._ZN7QStringC1Ev)
    i._ZN7QStringD1Ev                        0x0000fac0   Section       24  launcherwindow.o(i._ZN7QStringD1Ev)
    i._ZN7QWidget4hideEv                     0x0000fad8   Section        8  launcherwindow.o(i._ZN7QWidget4hideEv)
    i._ZN7WebPageD0Ev                        0x0000fae0   Section       16  moc_webpage.o(i._ZN7WebPageD0Ev)
    i._ZN7WebPageD1Ev                        0x0000faf0   Section       28  moc_webpage.o(i._ZN7WebPageD1Ev)
    i._ZN7WebPageD1Ev.clean                  0x0000fb0c   Section       10  moc_webpage.o(i._ZN7WebPageD1Ev.clean)
    i._ZN8FpsTimerD0Ev                       0x0000fb16   Section       16  moc_fpstimer.o(i._ZN8FpsTimerD0Ev)
    i._ZN8FpsTimerD1Ev                       0x0000fb28   Section       28  webview.o(i._ZN8FpsTimerD1Ev)
    i._ZN8FpsTimerD1Ev.clean                 0x0000fb44   Section       10  webview.o(i._ZN8FpsTimerD1Ev.clean)
    i._ZN8QVariant7PrivateC1Ev               0x0000fb4e   Section       24  launcherwindow.o(i._ZN8QVariant7PrivateC1Ev)
    i._ZN9QGradientD1Ev                      0x0000fb66   Section       12  locationedit.o(i._ZN9QGradientD1Ev)
    i._ZN9UrlLoaderD0Ev                      0x0000fb72   Section       16  moc_urlloader.o(i._ZN9UrlLoaderD0Ev)
    i._ZN9UrlLoaderD1Ev                      0x0000fb84   Section       76  main.o(i._ZN9UrlLoaderD1Ev)
    i._ZN9UrlLoaderD1Ev.clean                0x0000fbd0   Section       58  main.o(i._ZN9UrlLoaderD1Ev.clean)
    i._ZNK11QStringList8containsERK7QStringN2Qt15CaseSensitivityE 0x0000fc0a   Section        8  main.o(i._ZNK11QStringList8containsERK7QStringN2Qt15CaseSensitivityE)
    i._ZNK15QBasicAtomicIntneEi              0x0000fc12   Section       14  launcherwindow.o(i._ZNK15QBasicAtomicIntneEi)
    i._ZNK5QBoolcvPKvEv                      0x0000fc20   Section       14  main.o(i._ZNK5QBoolcvPKvEv)
    i._ZNK7QObject7connectEPKS_PKcS3_N2Qt14ConnectionTypeE 0x0000fc2e   Section       20  launcherwindow.o(i._ZNK7QObject7connectEPKS_PKcS3_N2Qt14ConnectionTypeE)
    i._ZNK7QString3argEiiiRK5QChar           0x0000fc42   Section       30  launcherwindow.o(i._ZNK7QString3argEiiiRK5QChar)
    i._ZNK7QString7isEmptyEv                 0x0000fc60   Section       16  launcherwindow.o(i._ZNK7QString7isEmptyEv)
    i._ZNK7QWidget4sizeEv                    0x0000fc70   Section       26  launcherwindow.o(i._ZNK7QWidget4sizeEv)
    i._ZNK9QListData2atEi                    0x0000fc8a   Section       16  launcherwindow.o(i._ZNK9QListData2atEi)
    i._ZNK9QListData3endEv                   0x0000fc9a   Section       12  launcherwindow.o(i._ZNK9QListData3endEv)
    i._ZNK9QListData5beginEv                 0x0000fca6   Section       12  launcherwindow.o(i._ZNK9QListData5beginEv)
    i._ZThn16_N15GraphicsWebViewD0Ev         0x0000fcb2   Section       10  moc_webview.o(i._ZThn16_N15GraphicsWebViewD0Ev)
    i._ZThn16_N15GraphicsWebViewD1Ev         0x0000fcbc   Section       10  moc_webview.o(i._ZThn16_N15GraphicsWebViewD1Ev)
    i._ZThn8_N10MainWindowD0Ev               0x0000fcc6   Section       10  moc_mainwindow.o(i._ZThn8_N10MainWindowD0Ev)
    i._ZThn8_N10MainWindowD1Ev               0x0000fcd0   Section       10  moc_mainwindow.o(i._ZThn8_N10MainWindowD1Ev)
    i._ZThn8_N12LocationEditD0Ev             0x0000fcda   Section       10  moc_locationedit.o(i._ZThn8_N12LocationEditD0Ev)
    i._ZThn8_N12LocationEditD1Ev             0x0000fce4   Section       10  moc_locationedit.o(i._ZThn8_N12LocationEditD1Ev)
    i._ZThn8_N12WebInspectorD0Ev             0x0000fcee   Section       10  moc_webinspector.o(i._ZThn8_N12WebInspectorD0Ev)
    i._ZThn8_N12WebInspectorD1Ev             0x0000fcf8   Section       10  moc_webinspector.o(i._ZThn8_N12WebInspectorD1Ev)
    i._ZThn8_N15GraphicsWebViewD0Ev          0x0000fd02   Section       10  moc_webview.o(i._ZThn8_N15GraphicsWebViewD0Ev)
    i._ZThn8_N15GraphicsWebViewD1Ev          0x0000fd0c   Section       10  moc_webview.o(i._ZThn8_N15GraphicsWebViewD1Ev)
    i._ZThn8_N18WebViewTraditionalD0Ev       0x0000fd16   Section       10  moc_webview.o(i._ZThn8_N18WebViewTraditionalD0Ev)
    i._ZThn8_N18WebViewTraditionalD1Ev       0x0000fd20   Section       10  moc_webview.o(i._ZThn8_N18WebViewTraditionalD1Ev)
    i._ZThn8_N20WebViewGraphicsBasedD0Ev     0x0000fd2a   Section       10  moc_webview.o(i._ZThn8_N20WebViewGraphicsBasedD0Ev)
    i._ZThn8_N20WebViewGraphicsBasedD1Ev     0x0000fd34   Section       10  moc_webview.o(i._ZThn8_N20WebViewGraphicsBasedD1Ev)
    i._ZdlPvS_                               0x0000fd3e   Section        2  launcherwindow.o(i._ZdlPvS_)
    i._ZnwjPv                                0x0000fd40   Section        4  launcherwindow.o(i._ZnwjPv)
    t._Z12qobject_castIP13QGraphicsViewET_P7QObject 0x0000fd44   Section       16  launcherwindow.o(t._Z12qobject_castIP13QGraphicsViewET_P7QObject)
    t._Z12qobject_castIP20WebViewGraphicsBasedET_P7QObject 0x0000fd54   Section       16  launcherwindow.o(t._Z12qobject_castIP20WebViewGraphicsBasedET_P7QObject)
    t._ZN5QListI5QTimeE13detach_helperEv     0x0000fd64   Section       88  fpstimer.o(t._ZN5QListI5QTimeE13detach_helperEv)
    t._ZN5QListI5QTimeE13detach_helperEv.clean 0x0000fdbc   Section        8  fpstimer.o(t._ZN5QListI5QTimeE13detach_helperEv.clean)
    t._ZN5QListI5QTimeE18detach_helper_growEii 0x0000fdc4   Section      180  fpstimer.o(t._ZN5QListI5QTimeE18detach_helper_growEii)
    t._ZN5QListI5QTimeE18detach_helper_growEii.clean 0x0000fe78   Section        8  fpstimer.o(t._ZN5QListI5QTimeE18detach_helper_growEii.clean)
    t._ZN5QListI5QTimeE4freeEPN9QListData4DataE 0x0000fe80   Section       40  fpstimer.o(t._ZN5QListI5QTimeE4freeEPN9QListData4DataE)
    t._ZN5QListI5QTimeE5beginEv              0x0000fea8   Section       22  fpstimer.o(t._ZN5QListI5QTimeE5beginEv)
    t._ZN5QListI5QTimeE6appendERKS0_         0x0000fec0   Section       88  fpstimer.o(t._ZN5QListI5QTimeE6appendERKS0_)
    t._ZN5QListI5QTimeE6appendERKS0_.clean   0x0000ff18   Section       10  fpstimer.o(t._ZN5QListI5QTimeE6appendERKS0_.clean)
    t._ZN5QListI5QTimeE6detachEv             0x0000ff22   Section       24  fpstimer.o(t._ZN5QListI5QTimeE6detachEv)
    t._ZN5QListI5QTimeE9node_copyEPNS1_4NodeES3_S3_ 0x0000ff3a   Section       36  fpstimer.o(t._ZN5QListI5QTimeE9node_copyEPNS1_4NodeES3_S3_)
    t._ZN5QListI5QTimeEC1Ev                  0x0000ff60   Section       20  fpstimer.o(t._ZN5QListI5QTimeEC1Ev)
    t._ZN5QListI5QTimeED1Ev                  0x0000ff74   Section       30  fpstimer.o(t._ZN5QListI5QTimeED1Ev)
    t._ZN5QListI7QStringE13detach_helperEi   0x0000ff92   Section       86  main.o(t._ZN5QListI7QStringE13detach_helperEi)
    t._ZN5QListI7QStringE13detach_helperEi.clean 0x0000ffe8   Section        8  main.o(t._ZN5QListI7QStringE13detach_helperEi.clean)
    t._ZN5QListI7QStringE13detach_helperEv   0x0000fff0   Section       12  main.o(t._ZN5QListI7QStringE13detach_helperEv)
    t._ZN5QListI7QStringE14node_constructEPNS1_4NodeERKS0_ 0x0000fffc   Section       26  launcherwindow.o(t._ZN5QListI7QStringE14node_constructEPNS1_4NodeERKS0_)
    t._ZN5QListI7QStringE14node_constructEPNS1_4NodeERKS0_.clean 0x00010016   Section       12  launcherwindow.o(t._ZN5QListI7QStringE14node_constructEPNS1_4NodeERKS0_.clean)
    t._ZN5QListI7QStringE18detach_helper_growEii 0x00010022   Section      186  launcherwindow.o(t._ZN5QListI7QStringE18detach_helper_growEii)
    t._ZN5QListI7QStringE18detach_helper_growEii.clean 0x000100dc   Section        8  launcherwindow.o(t._ZN5QListI7QStringE18detach_helper_growEii.clean)
    t._ZN5QListI7QStringE4freeEPN9QListData4DataE 0x000100e4   Section       48  launcherwindow.o(t._ZN5QListI7QStringE4freeEPN9QListData4DataE)
    t._ZN5QListI7QStringE6appendERKS0_       0x00010114   Section      100  launcherwindow.o(t._ZN5QListI7QStringE6appendERKS0_)
    t._ZN5QListI7QStringE6appendERKS0_.clean 0x00010178   Section        8  launcherwindow.o(t._ZN5QListI7QStringE6appendERKS0_.clean)
    t._ZN5QListI7QStringE6detachEv           0x00010180   Section       24  utils.o(t._ZN5QListI7QStringE6detachEv)
    t._ZN5QListI7QStringE9node_copyEPNS1_4NodeES3_S3_ 0x00010198   Section       70  launcherwindow.o(t._ZN5QListI7QStringE9node_copyEPNS1_4NodeES3_S3_)
    t._ZN5QListI7QStringE9node_copyEPNS1_4NodeES3_S3_.clean 0x000101de   Section       22  launcherwindow.o(t._ZN5QListI7QStringE9node_copyEPNS1_4NodeES3_S3_.clean)
    t._ZN5QListI7QStringEC1ERKS1_            0x000101f4   Section       30  main.o(t._ZN5QListI7QStringEC1ERKS1_)
    t._ZN5QListI7QStringEC1Ev                0x00010214   Section       20  main.o(t._ZN5QListI7QStringEC1Ev)
    t._ZN5QListI7QStringED1Ev                0x00010228   Section       30  launcherwindow.o(t._ZN5QListI7QStringED1Ev)
    t._ZN5QListIN11QTouchEvent10TouchPointEE13detach_helperEv 0x00010246   Section       88  launcherwindow.o(t._ZN5QListIN11QTouchEvent10TouchPointEE13detach_helperEv)
    t._ZN5QListIN11QTouchEvent10TouchPointEE13detach_helperEv.clean 0x0001029e   Section        8  launcherwindow.o(t._ZN5QListIN11QTouchEvent10TouchPointEE13detach_helperEv.clean)
    t._ZN5QListIN11QTouchEvent10TouchPointEE13node_destructEPNS2_4NodeE 0x000102a6   Section       18  launcherwindow.o(t._ZN5QListIN11QTouchEvent10TouchPointEE13node_destructEPNS2_4NodeE)
    t._ZN5QListIN11QTouchEvent10TouchPointEE13node_destructEPNS2_4NodeES4_ 0x000102b8   Section       30  launcherwindow.o(t._ZN5QListIN11QTouchEvent10TouchPointEE13node_destructEPNS2_4NodeES4_)
    t._ZN5QListIN11QTouchEvent10TouchPointEE14node_constructEPNS2_4NodeERKS1_ 0x000102d6   Section       24  launcherwindow.o(t._ZN5QListIN11QTouchEvent10TouchPointEE14node_constructEPNS2_4NodeERKS1_)
    t._ZN5QListIN11QTouchEvent10TouchPointEE14node_constructEPNS2_4NodeERKS1_.clean 0x000102ee   Section       10  launcherwindow.o(t._ZN5QListIN11QTouchEvent10TouchPointEE14node_constructEPNS2_4NodeERKS1_.clean)
    t._ZN5QListIN11QTouchEvent10TouchPointEE18detach_helper_growEii 0x000102f8   Section      180  launcherwindow.o(t._ZN5QListIN11QTouchEvent10TouchPointEE18detach_helper_growEii)
    t._ZN5QListIN11QTouchEvent10TouchPointEE18detach_helper_growEii.clean 0x000103ac   Section        8  launcherwindow.o(t._ZN5QListIN11QTouchEvent10TouchPointEE18detach_helper_growEii.clean)
    t._ZN5QListIN11QTouchEvent10TouchPointEE4freeEPN9QListData4DataE 0x000103b4   Section       38  launcherwindow.o(t._ZN5QListIN11QTouchEvent10TouchPointEE4freeEPN9QListData4DataE)
    t._ZN5QListIN11QTouchEvent10TouchPointEE6appendERKS1_ 0x000103dc   Section       96  launcherwindow.o(t._ZN5QListIN11QTouchEvent10TouchPointEE6appendERKS1_)
    t._ZN5QListIN11QTouchEvent10TouchPointEE6appendERKS1_.clean 0x0001043c   Section        8  launcherwindow.o(t._ZN5QListIN11QTouchEvent10TouchPointEE6appendERKS1_.clean)
    t._ZN5QListIN11QTouchEvent10TouchPointEE6detachEv 0x00010444   Section       24  launcherwindow.o(t._ZN5QListIN11QTouchEvent10TouchPointEE6detachEv)
    t._ZN5QListIN11QTouchEvent10TouchPointEE8removeAtEi 0x0001045c   Section       52  launcherwindow.o(t._ZN5QListIN11QTouchEvent10TouchPointEE8removeAtEi)
    t._ZN5QListIN11QTouchEvent10TouchPointEE9node_copyEPNS2_4NodeES4_S4_ 0x00010490   Section       72  launcherwindow.o(t._ZN5QListIN11QTouchEvent10TouchPointEE9node_copyEPNS2_4NodeES4_S4_)
    t._ZN5QListIN11QTouchEvent10TouchPointEE9node_copyEPNS2_4NodeES4_S4_.clean 0x000104d8   Section       18  launcherwindow.o(t._ZN5QListIN11QTouchEvent10TouchPointEE9node_copyEPNS2_4NodeES4_S4_.clean)
    t._ZN5QListIN11QTouchEvent10TouchPointEEC1Ev 0x000104ec   Section       20  launcherwindow.o(t._ZN5QListIN11QTouchEvent10TouchPointEEC1Ev)
    t._ZN5QListIN11QTouchEvent10TouchPointEED1Ev 0x00010500   Section       30  launcherwindow.o(t._ZN5QListIN11QTouchEvent10TouchPointEED1Ev)
    t._ZN5QListIN11QTouchEvent10TouchPointEEixEi 0x0001051e   Section       22  launcherwindow.o(t._ZN5QListIN11QTouchEvent10TouchPointEEixEi)
    t._ZN5QListIP7QActionED1Ev               0x00010534   Section       34  webview.o(t._ZN5QListIP7QActionED1Ev)
    t._ZN7QVectorI5QPairIf6QColorEED1Ev      0x00010556   Section       58  locationedit.o(t._ZN7QVectorI5QPairIf6QColorEED1Ev)
    t._ZN7QVectorI7QStringE4freeEP16QVectorTypedDataIS0_E 0x00010590   Section       40  urlloader.o(t._ZN7QVectorI7QStringE4freeEP16QVectorTypedDataIS0_E)
    t._ZN7QVectorI7QStringE6appendERKS0_     0x000105b8   Section      140  urlloader.o(t._ZN7QVectorI7QStringE6appendERKS0_)
    t._ZN7QVectorI7QStringE6appendERKS0_.clean 0x00010644   Section       28  urlloader.o(t._ZN7QVectorI7QStringE6appendERKS0_.clean)
    t._ZN7QVectorI7QStringE7reallocEii       0x00010660   Section      364  urlloader.o(t._ZN7QVectorI7QStringE7reallocEii)
    t._ZN7QVectorI7QStringE7reallocEii.clean 0x000107cc   Section       28  urlloader.o(t._ZN7QVectorI7QStringE7reallocEii.clean)
    t._ZN7QVectorI7QStringED1Ev              0x000107e8   Section       30  urlloader.o(t._ZN7QVectorI7QStringED1Ev)
    t._ZN7QVectorIiE4freeEP16QVectorTypedDataIiE 0x00010806   Section       12  launcherwindow.o(t._ZN7QVectorIiE4freeEP16QVectorTypedDataIiE)
    t._ZN7QVectorIiE6appendERKi              0x00010812   Section       90  launcherwindow.o(t._ZN7QVectorIiE6appendERKi)
    t._ZN7QVectorIiE7reallocEii              0x0001086c   Section      250  launcherwindow.o(t._ZN7QVectorIiE7reallocEii)
    t._ZN7QVectorIiE7reallocEii.clean        0x00010966   Section        8  launcherwindow.o(t._ZN7QVectorIiE7reallocEii.clean)
    t._ZN7QVectorIiED1Ev                     0x0001096e   Section       30  launcherwindow.o(t._ZN7QVectorIiED1Ev)
    t._ZN7QVectorIiEixEi                     0x0001098c   Section       40  launcherwindow.o(t._ZN7QVectorIiEixEi)
    t._ZN7QVectorIiElsERKi                   0x000109b4   Section       12  launcherwindow.o(t._ZN7QVectorIiElsERKi)
    t._ZN8QVariant9fromValueIiEES_RKT_       0x000109c0   Section       14  webview.o(t._ZN8QVariant9fromValueIiEES_RKT_)
    t._ZNK5QListI7QStringE3midEii            0x000109ce   Section      178  main.o(t._ZNK5QListI7QStringE3midEii)
    t._ZNK5QListI7QStringE3midEii.clean      0x00010a80   Section       14  main.o(t._ZNK5QListI7QStringE3midEii.clean)
    t._ZNK5QListI7QStringE7indexOfERKS0_i    0x00010a8e   Section      108  main.o(t._ZNK5QListI7QStringE7indexOfERKS0_i)
    t._ZNK5QListIN11QTouchEvent10TouchPointEE4sizeEv 0x00010afa   Section       10  launcherwindow.o(t._ZNK5QListIN11QTouchEvent10TouchPointEE4sizeEv)
    t._ZNK7QVectorIiE7indexOfERKii           0x00010b04   Section       82  launcherwindow.o(t._ZNK7QVectorIiE7indexOfERKii)
    .ARM.extab                               0x00010b58   Section       16  uc_exe_.o(.ARM.extab)
    .extab._ZN12LocationEditC1EP7QWidget     0x00010b68   Data           0  locationedit.o(.ARM.extab)
    .extab._ZN12LocationEdit10paintEventEP11QPaintEvent 0x00010b80   Data           0  locationedit.o(.ARM.extab)
    .extab._ZN14LauncherWindow12createChromeEv 0x00010bc8   Data           0  launcherwindow.o(.ARM.extab)
    .extab._ZN14LauncherWindow14initializeViewEv 0x00010f58   Data           0  launcherwindow.o(.ARM.extab)
    .extab._ZN14LauncherWindow4initEv        0x00010f98   Data           0  launcherwindow.o(.ARM.extab)
    .extab._ZN14LauncherWindowC1EP13WindowOptionsP14QGraphicsScene 0x00010fb8   Data           0  launcherwindow.o(.ARM.extab)
    .extab._ZN14LauncherWindowD1Ev           0x00010fe0   Data           0  launcherwindow.o(.ARM.extab)
    .extab._ZN14LauncherWindow14sendTouchEventEv 0x00010ff8   Data           0  launcherwindow.o(.ARM.extab)
    .extab._ZN14LauncherWindow11eventFilterEP7QObjectP6QEvent 0x00011010   Data           0  launcherwindow.o(.ARM.extab)
    .extab._ZN14LauncherWindow12loadFinishedEv 0x00011028   Data           0  launcherwindow.o(.ARM.extab)
    .extab._ZN14LauncherWindow9applyZoomEv   0x00011048   Data           0  launcherwindow.o(.ARM.extab)
    .extab._ZN14LauncherWindow10screenshotEv 0x00011080   Data           0  launcherwindow.o(.ARM.extab)
    .extab._ZN14LauncherWindow8dumpHtmlEv    0x000110d0   Data           0  launcherwindow.o(.ARM.extab)
    .extab._ZN14LauncherWindow23toggleQGLWidgetViewportEb 0x00011108   Data           0  launcherwindow.o(.ARM.extab)
    .extab._ZN14LauncherWindow14selectElementsEv 0x00011118   Data           0  launcherwindow.o(.ARM.extab)
    .extab._ZN14LauncherWindow19showUserAgentDialogEv 0x000111c8   Data           0  launcherwindow.o(.ARM.extab)
    .extab._ZN14LauncherWindow9newWindowEv   0x00011350   Data           0  launcherwindow.o(.ARM.extab)
    .extab._ZN14LauncherWindow11cloneWindowEv 0x00011360   Data           0  launcherwindow.o(.ARM.extab)
    .extab._ZN14LauncherWindow9updateFPSEi   0x00011370   Data           0  launcherwindow.o(.ARM.extab)
    .extab.__sti___18_launcherwindow_cpp     0x00011388   Data           0  launcherwindow.o(.ARM.extab)
    .extab._ZN5QListI7QStringE9node_copyEPNS1_4NodeES3_S3_ 0x00011398   Data           0  launcherwindow.o(.ARM.extab)
    .extab._ZN5QListI7QStringE18detach_helper_growEii 0x000113bc   Data           0  launcherwindow.o(.ARM.extab)
    .extab._ZN5QListIN11QTouchEvent10TouchPointEE9node_copyEPNS2_4NodeES4_S4_ 0x000113ec   Data           0  launcherwindow.o(.ARM.extab)
    .extab._ZN5QListIN11QTouchEvent10TouchPointEE13detach_helperEv 0x00011410   Data           0  launcherwindow.o(.ARM.extab)
    .extab._ZN5QListIN11QTouchEvent10TouchPointEE14node_constructEPNS2_4NodeERKS1_ 0x0001142c   Data           0  launcherwindow.o(.ARM.extab)
    .extab._ZN5QListIN11QTouchEvent10TouchPointEE18detach_helper_growEii 0x0001143c   Data           0  launcherwindow.o(.ARM.extab)
    .extab._ZN5QListIN11QTouchEvent10TouchPointEE6appendERKS1_ 0x0001146c   Data           0  launcherwindow.o(.ARM.extab)
    .extab._ZN10MainWindowD1Ev               0x0001149c   Data           0  launcherwindow.o(.ARM.extab)
    .extab._ZN7QVectorIiE7reallocEii         0x000114b4   Data           0  launcherwindow.o(.ARM.extab)
    .extab._ZN5QListI7QStringE6appendERKS0_  0x000114d0   Data           0  launcherwindow.o(.ARM.extab)
    .extab._ZN16QStringListModelD1Ev         0x00011500   Data           0  launcherwindow.o(.ARM.extab)
    .extab._ZN5QListI7QStringE14node_constructEPNS1_4NodeERKS0_ 0x00011510   Data           0  launcherwindow.o(.ARM.extab)
    .extab._Z20requiresGraphicsViewRK7QString 0x00011520   Data           0  main.o(.ARM.extab)
    .extab._ZN19LauncherApplication17handleUserOptionsEv 0x00011538   Data           0  main.o(.ARM.extab)
    .extab._ZN19LauncherApplication20applyDefaultSettingsEv 0x00011888   Data           0  main.o(.ARM.extab)
    .extab._ZN19LauncherApplicationC1ERiPPc  0x00011898   Data           0  main.o(.ARM.extab)
    .extab.main                              0x000118e0   Data           0  main.o(.ARM.extab)
    .extab.__sti___8_main_cpp                0x000119e0   Data           0  main.o(.ARM.extab)
    .extab._ZN9UrlLoaderD1Ev                 0x000119f0   Data           0  main.o(.ARM.extab)
    .extab._ZN19LauncherApplicationD1Ev      0x00011a20   Data           0  main.o(.ARM.extab)
    .extab._ZN5QListI7QStringE13detach_helperEi 0x00011a30   Data           0  main.o(.ARM.extab)
    .extab._ZNK5QListI7QStringE3midEii       0x00011a4c   Data           0  main.o(.ARM.extab)
    .extab._ZN6QDebuglsEPKc                  0x00011a78   Data           0  main.o(.ARM.extab)
    .extab._ZN6QDebugD1Ev                    0x00011a88   Data           0  main.o(.ARM.extab)
    .extab._ZN10MainWindow7buildUIEv         0x00011aac   Data           0  mainwindow.o(.ARM.extab)
    .extab._ZN10MainWindowC1ERK7QString      0x00011b34   Data           0  mainwindow.o(.ARM.extab)
    .extab._ZN10MainWindow17addCompleterEntryERK4QUrl 0x00011b74   Data           0  mainwindow.o(.ARM.extab)
    .extab._ZN10MainWindow4loadERK4QUrl      0x00011b94   Data           0  mainwindow.o(.ARM.extab)
    .extab._ZN10MainWindow4loadERK7QString   0x00011ba4   Data           0  mainwindow.o(.ARM.extab)
    .extab._ZN10MainWindow13setAddressUrlERK4QUrl 0x00011c14   Data           0  mainwindow.o(.ARM.extab)
    .extab._ZN10MainWindow8openFileEv        0x00011c24   Data           0  mainwindow.o(.ARM.extab)
    .extab._ZN10MainWindow14changeLocationEv 0x00011c8c   Data           0  mainwindow.o(.ARM.extab)
    .extab._ZN9UrlLoader11loadUrlListERK7QString 0x00011cc4   Data           0  urlloader.o(.ARM.extab)
    .extab._ZN9UrlLoaderC1EP9QWebFrameRK7QStringii 0x00011d34   Data           0  urlloader.o(.ARM.extab)
    .extab._ZN9UrlLoader8loadNextEv          0x00011d6c   Data           0  urlloader.o(.ARM.extab)
    .extab._ZN7QVectorI7QStringE7reallocEii  0x00011d8c   Data           0  urlloader.o(.ARM.extab)
    .extab._ZN7QVectorI7QStringE6appendERKS0_ 0x00011dcc   Data           0  urlloader.o(.ARM.extab)
    .extab._Z15takeOptionValueP11QStringListi 0x00011dec   Data           0  utils.o(.ARM.extab)
    .extab._Z10formatKeys5QListI7QStringE    0x00011e24   Data           0  utils.o(.ARM.extab)
    .extab._Z10enumToKeys11QMetaObjectRK7QStringS2_ 0x00011e5c   Data           0  utils.o(.ARM.extab)
    .extab._Z7appQuitiRK7QString             0x00011e8c   Data           0  utils.o(.ARM.extab)
    .extab._Z16urlFromUserInputRK7QString    0x00011eb4   Data           0  utils.o(.ARM.extab)
    .extab._ZN7WebPage10applyProxyEv         0x00011ee4   Data           0  webpage.o(.ARM.extab)
    .extab._ZN7WebPageC1EP7QObject           0x00011f5c   Data           0  webpage.o(.ARM.extab)
    .extab._ZN7WebPage12createWindowEN8QWebPage13WebWindowTypeE 0x00011f74   Data           0  webpage.o(.ARM.extab)
    .extab._ZN7WebPage12createPluginERK7QStringRK4QUrlRK11QStringListS8_ 0x00011f84   Data           0  webpage.o(.ARM.extab)
    .extab._ZN7WebPage9extensionEN8QWebPage9ExtensionEPKNS0_15ExtensionOptionEPNS0_15ExtensionReturnE 0x00011f9c   Data           0  webpage.o(.ARM.extab)
    .extab._ZN7WebPage23openUrlInDefaultBrowserERK4QUrl 0x00011fcc   Data           0  webpage.o(.ARM.extab)
    .extab._ZN7WebPage23acceptNavigationRequestEP9QWebFrameRK15QNetworkRequestN8QWebPage14NavigationTypeE 0x00011fec   Data           0  webpage.o(.ARM.extab)
    .extab._ZN7WebPage22authenticationRequiredEP13QNetworkReplyP14QAuthenticator 0x00012024   Data           0  webpage.o(.ARM.extab)
    .extab._Z17createContextMenuP8QWebPage6QPoint 0x00012114   Data           0  webview.o(.ARM.extab)
    .extab._ZN18WebViewTraditional15mousePressEventEP11QMouseEvent 0x00012184   Data           0  webview.o(.ARM.extab)
    .extab._ZN15GraphicsWebView15mousePressEventEP24QGraphicsSceneMouseEvent 0x0001219c   Data           0  webview.o(.ARM.extab)
    .extab._ZN20WebViewGraphicsBasedC1EP7QWidget 0x000121b4   Data           0  webview.o(.ARM.extab)
    .extab._ZN20WebViewGraphicsBased12animatedFlipEv 0x0001228c   Data           0  webview.o(.ARM.extab)
    .extab._ZN8FpsTimerD1Ev                  0x000122bc   Data           0  webview.o(.ARM.extab)
    .extab._ZN8FpsTimerC1EP7QObject          0x000122cc   Data           0  fpstimer.o(.ARM.extab)
    .extab._ZN8FpsTimer4stopEv               0x000122dc   Data           0  fpstimer.o(.ARM.extab)
    .extab._ZN5QListI5QTimeE13detach_helperEv 0x000122ec   Data           0  fpstimer.o(.ARM.extab)
    .extab._ZN5QListI5QTimeE18detach_helper_growEii 0x00012308   Data           0  fpstimer.o(.ARM.extab)
    .extab._ZN5QListI5QTimeE6appendERKS0_    0x00012338   Data           0  fpstimer.o(.ARM.extab)
    .extab._ZN12LocationEditD1Ev             0x00012354   Data           0  moc_locationedit.o(.ARM.extab)
    .extab._ZN7WebPage11qt_metacallEN11QMetaObject4CallEiPPv 0x00012364   Data           0  moc_webpage.o(.ARM.extab)
    .extab._ZN7WebPageD1Ev                   0x00012374   Data           0  moc_webpage.o(.ARM.extab)
    .extab._ZN20WebViewGraphicsBasedD1Ev     0x00012384   Data           0  moc_webview.o(.ARM.extab)
    .extab.__sti___21_qrc_QtTestBrowser_cpp  0x00012394   Data           0  qrc_QtTestBrowser.o(.ARM.extab)
    .extab._Z13QtMainWrapperv                0x000123a4   Data           0  qts60main_mcrt0.o(.ARM.extab)
    .extab.CallThrdProcEntry                 0x000123e0   Data           0  callfirstprocessfn.o(.ARM.extab)
    .extab._Z7E32Mainv                       0x000123fc   Data           0  qts60main.o(.ARM.extab)
    .constdata$1                             0x00012424   Data           0  main.o(.constdata)
    qt_meta_stringdata_LauncherApplication   0x00012424   Data          21  main.o(.constdata)
    .constdata                               0x00012424   Section       40  main.o(.constdata)
    .constdata$10                            0x0001244c   Data           0  main.o(.constdata)
    qt_meta_data_LauncherApplication         0x0001244c   Data          60  main.o(.constdata)
    .constdata                               0x0001244c   Section       60  main.o(.constdata)
    .constdata$1                             0x00012488   Data           0  mainwindow.o(.constdata)
    .constdata                               0x00012488   Section       96  mainwindow.o(.constdata)
    .constdata$1                             0x000124e8   Data           0  webpage.o(.constdata)
    .constdata                               0x000124e8   Section      212  webpage.o(.constdata)
    .constdata$1                             0x000125bc   Data           0  moc_locationedit.o(.constdata)
    qt_meta_stringdata_LocationEdit          0x000125bc   Data          49  moc_locationedit.o(.constdata)
    .constdata                               0x000125bc   Section       68  moc_locationedit.o(.constdata)
    .constdata$10                            0x00012600   Data           0  moc_locationedit.o(.constdata)
    qt_meta_data_LocationEdit                0x00012600   Data         100  moc_locationedit.o(.constdata)
    .constdata                               0x00012600   Section      100  moc_locationedit.o(.constdata)
    .constdata$1                             0x00012664   Data           0  moc_launcherwindow.o(.constdata)
    qt_meta_stringdata_LauncherWindow        0x00012664   Data         809  moc_launcherwindow.o(.constdata)
    .constdata                               0x00012664   Section      828  moc_launcherwindow.o(.constdata)
    .constdata$10                            0x000129a0   Data           0  moc_launcherwindow.o(.constdata)
    qt_meta_data_LauncherWindow              0x000129a0   Data         740  moc_launcherwindow.o(.constdata)
    .constdata                               0x000129a0   Section      740  moc_launcherwindow.o(.constdata)
    .constdata$1                             0x00012c84   Data           0  moc_mainwindow.o(.constdata)
    qt_meta_stringdata_MainWindow            0x00012c84   Data         103  moc_mainwindow.o(.constdata)
    .constdata                               0x00012c84   Section      120  moc_mainwindow.o(.constdata)
    .constdata$10                            0x00012cfc   Data           0  moc_mainwindow.o(.constdata)
    qt_meta_data_MainWindow                  0x00012cfc   Data         160  moc_mainwindow.o(.constdata)
    .constdata                               0x00012cfc   Section      160  moc_mainwindow.o(.constdata)
    .constdata$1                             0x00012d9c   Data           0  moc_urlloader.o(.constdata)
    qt_meta_stringdata_UrlLoader             0x00012d9c   Data          99  moc_urlloader.o(.constdata)
    .constdata                               0x00012d9c   Section      116  moc_urlloader.o(.constdata)
    .constdata$10                            0x00012e10   Data           0  moc_urlloader.o(.constdata)
    qt_meta_data_UrlLoader                   0x00012e10   Data         160  moc_urlloader.o(.constdata)
    .constdata                               0x00012e10   Section      160  moc_urlloader.o(.constdata)
    .constdata$1                             0x00012eb0   Data           0  moc_webinspector.o(.constdata)
    qt_meta_stringdata_WebInspector          0x00012eb0   Data          47  moc_webinspector.o(.constdata)
    .constdata                               0x00012eb0   Section       64  moc_webinspector.o(.constdata)
    .constdata$10                            0x00012ef0   Data           0  moc_webinspector.o(.constdata)
    qt_meta_data_WebInspector                0x00012ef0   Data          80  moc_webinspector.o(.constdata)
    .constdata                               0x00012ef0   Section       80  moc_webinspector.o(.constdata)
    .constdata$1                             0x00012f40   Data           0  moc_webpage.o(.constdata)
    qt_meta_stringdata_WebPage               0x00012f40   Data         310  moc_webpage.o(.constdata)
    .constdata                               0x00012f40   Section      328  moc_webpage.o(.constdata)
    .constdata$10                            0x00013088   Data           0  moc_webpage.o(.constdata)
    qt_meta_data_WebPage                     0x00013088   Data         200  moc_webpage.o(.constdata)
    .constdata                               0x00013088   Section      200  moc_webpage.o(.constdata)
    .constdata$1                             0x00013150   Data           0  moc_webview.o(.constdata)
    qt_meta_stringdata_WebViewTraditional    0x00013150   Data          20  moc_webview.o(.constdata)
    .constdata                               0x00013150   Section      244  moc_webview.o(.constdata)
    qt_meta_stringdata_GraphicsWebView       0x00013164   Data          17  moc_webview.o(.constdata)
    qt_meta_stringdata_WebViewGraphicsBased  0x00013175   Data         157  moc_webview.o(.constdata)
    .constdata$16                            0x00013244   Data           0  moc_webview.o(.constdata)
    qt_meta_data_WebViewTraditional          0x00013244   Data          60  moc_webview.o(.constdata)
    .constdata                               0x00013244   Section       60  moc_webview.o(.constdata)
    .constdata$22                            0x00013280   Data           0  moc_webview.o(.constdata)
    qt_meta_data_GraphicsWebView             0x00013280   Data          60  moc_webview.o(.constdata)
    .constdata                               0x00013280   Section       60  moc_webview.o(.constdata)
    .constdata$28                            0x000132bc   Data           0  moc_webview.o(.constdata)
    qt_meta_data_WebViewGraphicsBased        0x000132bc   Data         192  moc_webview.o(.constdata)
    .constdata                               0x000132bc   Section      192  moc_webview.o(.constdata)
    .constdata$1                             0x0001337c   Data           0  moc_fpstimer.o(.constdata)
    qt_meta_stringdata_FpsTimer              0x0001337c   Data          51  moc_fpstimer.o(.constdata)
    .constdata                               0x0001337c   Section       68  moc_fpstimer.o(.constdata)
    .constdata$10                            0x000133c0   Data           0  moc_fpstimer.o(.constdata)
    qt_meta_data_FpsTimer                    0x000133c0   Data         120  moc_fpstimer.o(.constdata)
    .constdata                               0x000133c0   Section      120  moc_fpstimer.o(.constdata)
    .constdata$1                             0x00013438   Data           0  qrc_QtTestBrowser.o(.constdata)
    qt_resource_data                         0x00013438   Data        1094  qrc_QtTestBrowser.o(.constdata)
    .constdata                               0x00013438   Section     1162  qrc_QtTestBrowser.o(.constdata)
    qt_resource_name                         0x0001387e   Data          40  qrc_QtTestBrowser.o(.constdata)
    qt_resource_struct                       0x000138a6   Data          28  qrc_QtTestBrowser.o(.constdata)
    .constdata$1                             0x000138c4   Data           0  callfirstprocessfn.o(.constdata)
    KLitUser                                 0x000138c4   Data          16  callfirstprocessfn.o(.constdata)
    .constdata                               0x000138c4   Section       16  callfirstprocessfn.o(.constdata)
    .constdata__ZN9stlp_priv15_Integer_limitsIaLan128ELa127ELin1ELb1EE6digitsE 0x000138d4   Section        4  locationedit.o(.constdata__ZN9stlp_priv15_Integer_limitsIaLan128ELa127ELin1ELb1EE6digitsE)
    .constdata__ZN9stlp_priv15_Integer_limitsIbLb0ELb1ELi1ELb0EE6digitsE 0x000138d8   Section        4  locationedit.o(.constdata__ZN9stlp_priv15_Integer_limitsIbLb0ELb1ELi1ELb0EE6digitsE)
    .constdata__ZN9stlp_priv15_Integer_limitsIcLc128ELc127ELin1ELb1EE6digitsE 0x000138dc   Section        4  locationedit.o(.constdata__ZN9stlp_priv15_Integer_limitsIcLc128ELc127ELin1ELb1EE6digitsE)
    .constdata__ZN9stlp_priv15_Integer_limitsIhLh0ELh255ELin1ELb1EE6digitsE 0x000138e0   Section        4  locationedit.o(.constdata__ZN9stlp_priv15_Integer_limitsIhLh0ELh255ELin1ELb1EE6digitsE)
    .constdata__ZN9stlp_priv15_Integer_limitsIiLin2147483648ELi2147483647ELin1ELb1EE6digitsE 0x000138e4   Section        4  locationedit.o(.constdata__ZN9stlp_priv15_Integer_limitsIiLin2147483648ELi2147483647ELin1ELb1EE6digitsE)
    .constdata__ZN9stlp_priv15_Integer_limitsIjLj0ELj4294967295ELin1ELb1EE6digitsE 0x000138e8   Section        4  locationedit.o(.constdata__ZN9stlp_priv15_Integer_limitsIjLj0ELj4294967295ELin1ELb1EE6digitsE)
    .constdata__ZN9stlp_priv15_Integer_limitsIlLln2147483648ELl2147483647ELin1ELb1EE6digitsE 0x000138ec   Section        4  locationedit.o(.constdata__ZN9stlp_priv15_Integer_limitsIlLln2147483648ELl2147483647ELin1ELb1EE6digitsE)
    .constdata__ZN9stlp_priv15_Integer_limitsImLm0ELm4294967295ELin1ELb1EE6digitsE 0x000138f0   Section        4  locationedit.o(.constdata__ZN9stlp_priv15_Integer_limitsImLm0ELm4294967295ELin1ELb1EE6digitsE)
    .constdata__ZN9stlp_priv15_Integer_limitsIsLsn32768ELs32767ELin1ELb1EE6digitsE 0x000138f4   Section        4  locationedit.o(.constdata__ZN9stlp_priv15_Integer_limitsIsLsn32768ELs32767ELin1ELb1EE6digitsE)
    .constdata__ZN9stlp_priv15_Integer_limitsItLt0ELt65535ELin1ELb1EE6digitsE 0x000138f8   Section        4  locationedit.o(.constdata__ZN9stlp_priv15_Integer_limitsItLt0ELt65535ELin1ELb1EE6digitsE)
    .constdata__ZN9stlp_priv15_Integer_limitsIwLw0ELw65535ELin1ELb1EE6digitsE 0x000138fc   Section        4  locationedit.o(.constdata__ZN9stlp_priv15_Integer_limitsIwLw0ELw65535ELin1ELb1EE6digitsE)
    .constdata__ZTI10MainWindow              0x00013900   Section       12  moc_mainwindow.o(.constdata__ZTI10MainWindow)
    .constdata__ZTI12LocationEdit            0x0001390c   Section       12  moc_locationedit.o(.constdata__ZTI12LocationEdit)
    .constdata__ZTI12WebInspector            0x00013918   Section       12  moc_webinspector.o(.constdata__ZTI12WebInspector)
    .constdata__ZTI14LauncherWindow          0x00013924   Section       12  moc_launcherwindow.o(.constdata__ZTI14LauncherWindow)
    .constdata__ZTI15GraphicsWebView         0x00013930   Section       12  moc_webview.o(.constdata__ZTI15GraphicsWebView)
    .constdata__ZTI18WebViewTraditional      0x0001393c   Section       12  moc_webview.o(.constdata__ZTI18WebViewTraditional)
    .constdata__ZTI19LauncherApplication     0x00013948   Section       12  main.o(.constdata__ZTI19LauncherApplication)
    .constdata__ZTI20WebViewGraphicsBased    0x00013954   Section       12  moc_webview.o(.constdata__ZTI20WebViewGraphicsBased)
    .constdata__ZTI7WebPage                  0x00013960   Section       12  moc_webpage.o(.constdata__ZTI7WebPage)
    .constdata__ZTI8FpsTimer                 0x0001396c   Section       12  moc_fpstimer.o(.constdata__ZTI8FpsTimer)
    .constdata__ZTI9UrlLoader                0x00013978   Section       12  moc_urlloader.o(.constdata__ZTI9UrlLoader)
    .constdata__ZTS10MainWindow              0x00013984   Section       13  moc_mainwindow.o(.constdata__ZTS10MainWindow)
    .constdata__ZTS12LocationEdit            0x00013991   Section       15  moc_locationedit.o(.constdata__ZTS12LocationEdit)
    .constdata__ZTS12WebInspector            0x000139a0   Section       15  moc_webinspector.o(.constdata__ZTS12WebInspector)
    .constdata__ZTS14LauncherWindow          0x000139af   Section       17  moc_launcherwindow.o(.constdata__ZTS14LauncherWindow)
    .constdata__ZTS15GraphicsWebView         0x000139c0   Section       18  moc_webview.o(.constdata__ZTS15GraphicsWebView)
    .constdata__ZTS18WebViewTraditional      0x000139d2   Section       21  moc_webview.o(.constdata__ZTS18WebViewTraditional)
    .constdata__ZTS19LauncherApplication     0x000139e7   Section       22  main.o(.constdata__ZTS19LauncherApplication)
    .constdata__ZTS20WebViewGraphicsBased    0x000139fd   Section       23  moc_webview.o(.constdata__ZTS20WebViewGraphicsBased)
    .constdata__ZTS7WebPage                  0x00013a14   Section        9  moc_webpage.o(.constdata__ZTS7WebPage)
    .constdata__ZTS8FpsTimer                 0x00013a1d   Section       10  moc_fpstimer.o(.constdata__ZTS8FpsTimer)
    .constdata__ZTS9UrlLoader                0x00013a27   Section       11  moc_urlloader.o(.constdata__ZTS9UrlLoader)
    .constdata__ZTV10MainWindow              0x00013a34   Section      252  moc_mainwindow.o(.constdata__ZTV10MainWindow)
    .constdata__ZTV12LocationEdit            0x00013b30   Section      248  moc_locationedit.o(.constdata__ZTV12LocationEdit)
    .constdata__ZTV12WebInspector            0x00013c28   Section      248  moc_webinspector.o(.constdata__ZTV12WebInspector)
    .constdata__ZTV14LauncherWindow          0x00013d20   Section      252  moc_launcherwindow.o(.constdata__ZTV14LauncherWindow)
    .constdata__ZTV15GraphicsWebView         0x00013e1c   Section      424  moc_webview.o(.constdata__ZTV15GraphicsWebView)
    .constdata__ZTV18WebViewTraditional      0x00013fc4   Section      252  moc_webview.o(.constdata__ZTV18WebViewTraditional)
    .constdata__ZTV19LauncherApplication     0x000140c0   Section       76  main.o(.constdata__ZTV19LauncherApplication)
    .constdata__ZTV20WebViewGraphicsBased    0x0001410c   Section      268  moc_webview.o(.constdata__ZTV20WebViewGraphicsBased)
    .constdata__ZTV7WebPage                  0x00014218   Section      104  moc_webpage.o(.constdata__ZTV7WebPage)
    .constdata__ZTV8FpsTimer                 0x00014280   Section       56  moc_fpstimer.o(.constdata__ZTV8FpsTimer)
    .constdata__ZTV9UrlLoader                0x000142b8   Section       56  moc_urlloader.o(.constdata__ZTV9UrlLoader)
    .init_array                              0x000142f0   Section        4  launcherwindow.o(.init_array)
    .init_array                              0x000142f4   Section        4  main.o(.init_array)
    .init_array                              0x000142f8   Section        4  qrc_QtTestBrowser.o(.init_array)
    .ARM.exidx                               0x000142fc   Section        8  uc_exe_.o(.ARM.exidx)
    .ARM.exidx                               0x00014304   Section        8  qts60main_mcrt0.o(.ARM.exidx)
    .ARM.exidx                               0x00014c6c   Number         8  ucppinit.o(.ARM.exidx)
    .data$0                                  0x00400000   Data           0  launcherwindow.o(.data)
    .data                                    0x00400000   Section        4  launcherwindow.o(.data)
    .data$0                                  0x00400004   Data           0  mainwindow.o(.data)
    _ZGVfilter@_ZN10MainWindow8openFileEv_0  0x00400004   Data           4  mainwindow.o(.data)
    .data                                    0x00400004   Section        8  mainwindow.o(.data)
    filter@_ZN10MainWindow8openFileEv_1      0x00400008   Data           4  mainwindow.o(.data)
    .data$0                                  0x0040000c   Data           0  qrc_QtTestBrowser.o(.data)
    .data                                    0x0040000c   Section        8  qrc_QtTestBrowser.o(.data)
    qInitResources_QtTestBrowser__init_variable__ 0x00400010   Data           4  qrc_QtTestBrowser.o(.data)
    .data$0                                  0x00400014   Data           0  ucppfini.o(.data)
    .data                                    0x00400014   Section        4  ucppfini.o(.data)
    .data__ZNSt19_Atomic_swap_structILi1EE12_S_swap_lockE 0x00400018   Section       12  locationedit.o(.data__ZNSt19_Atomic_swap_structILi1EE12_S_swap_lockE)
    .bss$5                                   0x00400024   Data           0  main.o(.bss)
    .bss                                     0x00400024   Section       20  main.o(.bss)
    .bss$5                                   0x00400038   Data           0  ucppfini.o(.bss)
    .bss                                     0x00400038   Section     2048  ucppfini.o(.bss)

    Global Symbols

    Symbol Name                              Value     Ov Type        Size  Object(Section)

    BuildAttributes$$THUMB_ISAv2$ARM_ISAv5$M$VFPv2$PE$A:L22$X:L11$S22$IEEE1$IW$USESV6$~STKCKD$USESV7$~SHL$OSPACE$ROPI$IEEEJ$EBA8$UX$FPIC$INDIRECT$REQ8$PRES8$EABIv2 0x00000000   Number         0  anon$$obj.o ABSOLUTE
    QtCore{00040703}[2001b2dc].dll           0x00000000   Data           0  anon$$obj.o ABSOLUTE
    QtGui{00040703}[2001b2dd].dll            0x00000000   Data           0  anon$$obj.o ABSOLUTE
    QtNetwork{00040703}[2001b2de].dll        0x00000000   Data           0  anon$$obj.o ABSOLUTE
    QtOpenGL{00040703}[2002131a].dll         0x00000000   Data           0  anon$$obj.o ABSOLUTE
    QtTestBrowser{000a0000}[a000e543].exe    0x00000000   Data           0  anon$$obj.o ABSOLUTE
    QtWebKit{00040800}[200267c2].dll         0x00000000   Data           0  anon$$obj.o ABSOLUTE
    dfpaeabi{000a0000}.dll                   0x00000000   Data           0  anon$$obj.o ABSOLUTE
    drtaeabi{000a0000}.dll                   0x00000000   Data           0  anon$$obj.o ABSOLUTE
    euser{000a0000}[100039e5].dll            0x00000000   Data           0  anon$$obj.o ABSOLUTE
    libc{00010001}[10207369].dll             0x00000000   Data           0  anon$$obj.o ABSOLUTE
    stdnew{000a0000}[20022178].dll           0x00000000   Data           0  anon$$obj.o ABSOLUTE
    qt_message_output(QtMsgType, const char*)  - Undefined Reference
    _Z17qt_message_output9QtMsgTypePKc@QtCore{00040703}[2001b2dc].dll  - Undefined Reference
    qRegisterResourceData(int, const unsigned char*, const unsigned char*, const unsigned char*)  - Undefined Reference
    _Z21qRegisterResourceDataiPKhS0_S0_@QtCore{00040703}[2001b2dc].dll  - Undefined Reference
    qUnregisterResourceData(int, const unsigned char*, const unsigned char*, const unsigned char*)  - Undefined Reference
    _Z23qUnregisterResourceDataiPKhS0_S0_@QtCore{00040703}[2001b2dc].dll  - Undefined Reference
    qt_symbian_SetupThreadHeap(int, SStdEpocThreadCreateInfo&)  - Undefined Reference
    _Z26qt_symbian_SetupThreadHeapiR24SStdEpocThreadCreateInfo@QtCore{00040703}[2001b2dc].dll  - Undefined Reference
    qt_symbian_exception2Error(const std::exception&)  - Undefined Reference
    _Z26qt_symbian_exception2ErrorRKSt9exception@QtCore{00040703}[2001b2dc].dll  - Undefined Reference
    endl(QTextStream&)                        - Undefined Reference
    _Z4endlR11QTextStream@QtCore{00040703}[2001b2dc].dll  - Undefined Reference
    qFree(void*)                              - Undefined Reference
    _Z5qFreePv@QtCore{00040703}[2001b2dc].dll  - Undefined Reference
    __crt0(int&, char**&, char**&)            - Undefined Reference
    _Z6__crt0RiRPPcS2_@libc{00010001}[10207369].dll  - Undefined Reference
    qDebug(const char*, ...)                  - Undefined Reference
    _Z6qDebugPKcz@QtCore{00040703}[2001b2dc].dll  - Undefined Reference
    qMemSet(void*, int, unsigned)             - Undefined Reference
    _Z7qMemSetPvij@QtCore{00040703}[2001b2dc].dll  - Undefined Reference
    qgetenv(const char*)                      - Undefined Reference
    _Z7qgetenvPKc@QtCore{00040703}[2001b2dc].dll  - Undefined Reference
    qBadAlloc()                               - Undefined Reference
    _Z9qBadAllocv@QtCore{00040703}[2001b2dc].dll  - Undefined Reference
    QBoxLayout::addWidget(QWidget*, int, QFlags<Qt::AlignmentFlag>)  - Undefined Reference
    _ZN10QBoxLayout9addWidgetEP7QWidgeti6QFlagsIN2Qt13AlignmentFlagEE@QtGui{00040703}[2001b2dd].dll  - Undefined Reference
    QByteArray::shared_null                   - Undefined Reference
    _ZN10QByteArray11shared_nullE@QtCore{00040703}[2001b2dc].dll  - Undefined Reference
    QByteArray::realloc(int)                  - Undefined Reference
    _ZN10QByteArray7reallocEi@QtCore{00040703}[2001b2dc].dll  - Undefined Reference
    QByteArray::QByteArray(const char*)       - Undefined Reference
    _ZN10QByteArrayC1EPKc@QtCore{00040703}[2001b2dc].dll  - Undefined Reference
    QByteArray::operator =(const QByteArray&)  - Undefined Reference
    _ZN10QByteArrayaSERKS_@QtCore{00040703}[2001b2dc].dll  - Undefined Reference
    QCompleter::setModel(QAbstractItemModel*)  - Undefined Reference
    _ZN10QCompleter8setModelEP18QAbstractItemModel@QtGui{00040703}[2001b2dd].dll  - Undefined Reference
    QCompleter::QCompleter(QObject*)          - Undefined Reference
    _ZN10QCompleterC1EP7QObject@QtGui{00040703}[2001b2dd].dll  - Undefined Reference
    QStatusBar::showMessage(const QString&, int)  - Undefined Reference
    _ZN10QStatusBar11showMessageERK7QStringi@QtGui{00040703}[2001b2dd].dll  - Undefined Reference
    QStatusBar::clearMessage()                - Undefined Reference
    _ZN10QStatusBar12clearMessageEv@QtGui{00040703}[2001b2dd].dll  - Undefined Reference
    QTransform::rotate(float, Qt::Axis)       - Undefined Reference
    _ZN10QTransform6rotateEfN2Qt4AxisE@QtGui{00040703}[2001b2dd].dll  - Undefined Reference
    QTransform::translate(float, float)       - Undefined Reference
    _ZN10QTransform9translateEff@QtGui{00040703}[2001b2dd].dll  - Undefined Reference
    QTransform::QTransform()                  - Undefined Reference
    _ZN10QTransformC1Ev@QtGui{00040703}[2001b2dd].dll  - Undefined Reference
    QFileDialog::setOptions(QFlags<QFileDialog::Option>)  - Undefined Reference
    _ZN11QFileDialog10setOptionsE6QFlagsINS_6OptionEE@QtGui{00040703}[2001b2dd].dll  - Undefined Reference
    QFileDialog::setFileMode(QFileDialog::FileMode)  - Undefined Reference
    _ZN11QFileDialog11setFileModeENS_8FileModeE@QtGui{00040703}[2001b2dd].dll  - Undefined Reference
    QFileDialog::setAcceptMode(QFileDialog::AcceptMode)  - Undefined Reference
    _ZN11QFileDialog13setAcceptModeENS_10AcceptModeE@QtGui{00040703}[2001b2dd].dll  - Undefined Reference
    QFileDialog::getSaveFileName(QWidget*, const QString&, const QString&, const QString&, QString*, QFlags<QFileDialog::Option>)  - Undefined Reference
    _ZN11QFileDialog15getSaveFileNameEP7QWidgetRK7QStringS4_S4_PS2_6QFlagsINS_6OptionEE@QtGui{00040703}[2001b2dd].dll  - Undefined Reference
    QFileDialog::QFileDialog(QWidget*, const QString&, const QString&, const QString&)  - Undefined Reference
    _ZN11QFileDialogC1EP7QWidgetRK7QStringS4_S4_@QtGui{00040703}[2001b2dd].dll  - Undefined Reference
    QFileDialog::~QFileDialog()               - Undefined Reference
    _ZN11QFileDialogD1Ev@QtGui{00040703}[2001b2dd].dll  - Undefined Reference
    QGridLayout::addWidget(QWidget*, int, int, QFlags<Qt::AlignmentFlag>)  - Undefined Reference
    _ZN11QGridLayout9addWidgetEP7QWidgetii6QFlagsIN2Qt13AlignmentFlagEE@QtGui{00040703}[2001b2dd].dll  - Undefined Reference
    QGridLayout::QGridLayout(QWidget*)        - Undefined Reference
    _ZN11QGridLayoutC1EP7QWidget@QtGui{00040703}[2001b2dd].dll  - Undefined Reference
    QMainWindow::addToolBar(const QString&)   - Undefined Reference
    _ZN11QMainWindow10addToolBarERK7QString@QtGui{00040703}[2001b2dd].dll  - Undefined Reference
    QMainWindow::qt_metacall(QMetaObject::Call, int, void**)  - Undefined Reference
    _ZN11QMainWindow11qt_metacallEN11QMetaObject4CallEiPPv@QtGui{00040703}[2001b2dd].dll  - Undefined Reference
    QMainWindow::qt_metacast(const char*)     - Undefined Reference
    _ZN11QMainWindow11qt_metacastEPKc@QtGui{00040703}[2001b2dd].dll  - Undefined Reference
    QMainWindow::addToolBarBreak(Qt::ToolBarArea)  - Undefined Reference
    _ZN11QMainWindow15addToolBarBreakEN2Qt11ToolBarAreaE@QtGui{00040703}[2001b2dd].dll  - Undefined Reference
    QMainWindow::createPopupMenu()            - Undefined Reference
    _ZN11QMainWindow15createPopupMenuEv@QtGui{00040703}[2001b2dd].dll  - Undefined Reference
    QMainWindow::contextMenuEvent(QContextMenuEvent*)  - Undefined Reference
    _ZN11QMainWindow16contextMenuEventEP17QContextMenuEvent@QtGui{00040703}[2001b2dd].dll  - Undefined Reference
    QMainWindow::setCentralWidget(QWidget*)   - Undefined Reference
    _ZN11QMainWindow16setCentralWidgetEP7QWidget@QtGui{00040703}[2001b2dd].dll  - Undefined Reference
    QMainWindow::staticMetaObject             - Undefined Reference
    _ZN11QMainWindow16staticMetaObjectE@QtGui{00040703}[2001b2dd].dll  - Undefined Reference
    QMainWindow::event(QEvent*)               - Undefined Reference
    _ZN11QMainWindow5eventEP6QEvent@QtGui{00040703}[2001b2dd].dll  - Undefined Reference
    QMainWindow::QMainWindow(QWidget*, QFlags<Qt::WindowType>)  - Undefined Reference
    _ZN11QMainWindowC1EP7QWidget6QFlagsIN2Qt10WindowTypeEE@QtGui{00040703}[2001b2dd].dll  - Undefined Reference
    QMainWindow::~QMainWindow()               - Undefined Reference
    _ZN11QMainWindowD1Ev@QtGui{00040703}[2001b2dd].dll  - Undefined Reference
    QMetaObject::activate(QObject*, const QMetaObject*, int, void**)  - Undefined Reference
    _ZN11QMetaObject8activateEP7QObjectPKS_iPPv@QtCore{00040703}[2001b2dc].dll  - Undefined Reference
    QTextStream::readLine(long long)          - Undefined Reference
    _ZN11QTextStream8readLineEx@QtCore{00040703}[2001b2dc].dll  - Undefined Reference
    QTextStream::QTextStream(QString*, QFlags<QIODevice::OpenModeFlag>)  - Undefined Reference
    _ZN11QTextStreamC1EP7QString6QFlagsIN9QIODevice12OpenModeFlagEE@QtCore{00040703}[2001b2dc].dll  - Undefined Reference
    QTextStream::QTextStream(__sFILE*, QFlags<QIODevice::OpenModeFlag>)  - Undefined Reference
    _ZN11QTextStreamC1EP7__sFILE6QFlagsIN9QIODevice12OpenModeFlagEE@QtCore{00040703}[2001b2dc].dll  - Undefined Reference
    QTextStream::QTextStream(QIODevice*)      - Undefined Reference
    _ZN11QTextStreamC1EP9QIODevice@QtCore{00040703}[2001b2dc].dll  - Undefined Reference
    QTextStream::~QTextStream()               - Undefined Reference
    _ZN11QTextStreamD1Ev@QtCore{00040703}[2001b2dc].dll  - Undefined Reference
    QTextStream::operator <<(const char*)     - Undefined Reference
    _ZN11QTextStreamlsEPKc@QtCore{00040703}[2001b2dc].dll  - Undefined Reference
    QTextStream::operator <<(const QString&)  - Undefined Reference
    _ZN11QTextStreamlsERK7QString@QtCore{00040703}[2001b2dc].dll  - Undefined Reference
    QTextStream::operator <<(char)            - Undefined Reference
    _ZN11QTextStreamlsEc@QtCore{00040703}[2001b2dc].dll  - Undefined Reference
    QTextStream::operator <<(int)             - Undefined Reference
    _ZN11QTextStreamlsEi@QtCore{00040703}[2001b2dc].dll  - Undefined Reference
    QTouchEvent::TouchPoint::setPressure(float)  - Undefined Reference
    _ZN11QTouchEvent10TouchPoint11setPressureEf@QtGui{00040703}[2001b2dd].dll  - Undefined Reference
    QTouchEvent::TouchPoint::setScreenPos(const QPointF&)  - Undefined Reference
    _ZN11QTouchEvent10TouchPoint12setScreenPosERK7QPointF@QtGui{00040703}[2001b2dd].dll  - Undefined Reference
    QTouchEvent::TouchPoint::setId(int)       - Undefined Reference
    _ZN11QTouchEvent10TouchPoint5setIdEi@QtGui{00040703}[2001b2dd].dll  - Undefined Reference
    QTouchEvent::TouchPoint::setPos(const QPointF&)  - Undefined Reference
    _ZN11QTouchEvent10TouchPoint6setPosERK7QPointF@QtGui{00040703}[2001b2dd].dll  - Undefined Reference
    QTouchEvent::TouchPoint::setState(QFlags<Qt::TouchPointState>)  - Undefined Reference
    _ZN11QTouchEvent10TouchPoint8setStateE6QFlagsIN2Qt15TouchPointStateEE@QtGui{00040703}[2001b2dd].dll  - Undefined Reference
    QTouchEvent::TouchPoint::TouchPoint(const QTouchEvent::TouchPoint&)  - Undefined Reference
    _ZN11QTouchEvent10TouchPointC1ERKS0_@QtGui{00040703}[2001b2dd].dll  - Undefined Reference
    QTouchEvent::TouchPoint::TouchPoint(int)  - Undefined Reference
    _ZN11QTouchEvent10TouchPointC1Ei@QtGui{00040703}[2001b2dd].dll  - Undefined Reference
    QTouchEvent::TouchPoint::~TouchPoint()    - Undefined Reference
    _ZN11QTouchEvent10TouchPointD1Ev@QtGui{00040703}[2001b2dd].dll  - Undefined Reference
    QTouchEvent::TouchPoint::operator =(const QTouchEvent::TouchPoint&)  - Undefined Reference
    _ZN11QTouchEvent10TouchPointaSERKS0_@QtGui{00040703}[2001b2dd].dll  - Undefined Reference
    QTouchEvent::QTouchEvent(QEvent::Type, QTouchEvent::DeviceType, QFlags<Qt::KeyboardModifier>, QFlags<Qt::TouchPointState>, const QList<QTouchEvent::TouchPoint>&)  - Undefined Reference
    _ZN11QTouchEventC1EN6QEvent4TypeENS_10DeviceTypeE6QFlagsIN2Qt16KeyboardModifierEES3_INS4_15TouchPointStateEERK5QListINS_10TouchPointEE@QtGui{00040703}[2001b2dd].dll  - Undefined Reference
    QTouchEvent::~QTouchEvent()               - Undefined Reference
    _ZN11QTouchEventD1Ev@QtGui{00040703}[2001b2dd].dll  - Undefined Reference
    QVBoxLayout::QVBoxLayout(QWidget*)        - Undefined Reference
    _ZN11QVBoxLayoutC1EP7QWidget@QtGui{00040703}[2001b2dd].dll  - Undefined Reference
    QVectorData::reallocate(QVectorData*, int, int, int)  - Undefined Reference
    _ZN11QVectorData10reallocateEPS_iii@QtCore{00040703}[2001b2dc].dll  - Undefined Reference
    QVectorData::shared_null                  - Undefined Reference
    _ZN11QVectorData11shared_nullE@QtCore{00040703}[2001b2dc].dll  - Undefined Reference
    QVectorData::free(QVectorData*, int)      - Undefined Reference
    _ZN11QVectorData4freeEPS_i@QtCore{00040703}[2001b2dc].dll  - Undefined Reference
    QVectorData::grow(int, int, int, bool)    - Undefined Reference
    _ZN11QVectorData4growEiiib@QtCore{00040703}[2001b2dc].dll  - Undefined Reference
    QVectorData::allocate(int, int)           - Undefined Reference
    _ZN11QVectorData8allocateEii@QtCore{00040703}[2001b2dc].dll  - Undefined Reference
    QWebElement::setStyleProperty(const QString&, const QString&)  - Undefined Reference
    _ZN11QWebElement16setStylePropertyERK7QStringS2_@QtWebKit{00040800}[200267c2].dll  - Undefined Reference
    QWebElement::~QWebElement()               - Undefined Reference
    _ZN11QWebElementD1Ev@QtWebKit{00040800}[200267c2].dll  - Undefined Reference
    CTrapCleanup::New()                       - Undefined Reference
    _ZN12CTrapCleanup3NewEv@euser{000a0000}[100039e5].dll  - Undefined Reference
    QActionGroup::addAction(QAction*)         - Undefined Reference
    _ZN12QActionGroup9addActionEP7QAction@QtGui{00040703}[2001b2dd].dll  - Undefined Reference
    QActionGroup::QActionGroup(QObject*)      - Undefined Reference
    _ZN12QActionGroupC1EP7QObject@QtGui{00040703}[2001b2dd].dll  - Undefined Reference
    QApplication::commitData(QSessionManager&)  - Undefined Reference
    _ZN12QApplication10commitDataER15QSessionManager@QtGui{00040703}[2001b2dd].dll  - Undefined Reference
    QApplication::qt_metacall(QMetaObject::Call, int, void**)  - Undefined Reference
    _ZN12QApplication11qt_metacallEN11QMetaObject4CallEiPPv@QtGui{00040703}[2001b2dd].dll  - Undefined Reference
    QApplication::qt_metacast(const char*)    - Undefined Reference
    _ZN12QApplication11qt_metacastEPKc@QtGui{00040703}[2001b2dd].dll  - Undefined Reference
    QApplication::activeWindow()              - Undefined Reference
    _ZN12QApplication12activeWindowEv@QtGui{00040703}[2001b2dd].dll  - Undefined Reference
    QApplication::compressEvent(QEvent*, QObject*, QPostEventList*)  - Undefined Reference
    _ZN12QApplication13compressEventEP6QEventP7QObjectP14QPostEventList@QtGui{00040703}[2001b2dd].dll  - Undefined Reference
    QApplication::staticMetaObject            - Undefined Reference
    _ZN12QApplication16staticMetaObjectE@QtGui{00040703}[2001b2dd].dll  - Undefined Reference
    QApplication::symbianEventFilter(const QSymbianEvent*)  - Undefined Reference
    _ZN12QApplication18symbianEventFilterEPK13QSymbianEvent@QtGui{00040703}[2001b2dd].dll  - Undefined Reference
    QApplication::exec()                      - Undefined Reference
    _ZN12QApplication4execEv@QtGui{00040703}[2001b2dd].dll  - Undefined Reference
    QApplication::event(QEvent*)              - Undefined Reference
    _ZN12QApplication5eventEP6QEvent@QtGui{00040703}[2001b2dd].dll  - Undefined Reference
    QApplication::notify(QObject*, QEvent*)   - Undefined Reference
    _ZN12QApplication6notifyEP7QObjectP6QEvent@QtGui{00040703}[2001b2dd].dll  - Undefined Reference
    QApplication::palette()                   - Undefined Reference
    _ZN12QApplication7paletteEv@QtGui{00040703}[2001b2dd].dll  - Undefined Reference
    QApplication::saveState(QSessionManager&)  - Undefined Reference
    _ZN12QApplication9saveStateER15QSessionManager@QtGui{00040703}[2001b2dd].dll  - Undefined Reference
    QApplication::QApplication(int&, char**, QApplication::Type, int)  - Undefined Reference
    _ZN12QApplicationC1ERiPPcNS_4TypeEi@QtGui{00040703}[2001b2dd].dll  - Undefined Reference
    QApplication::~QApplication()             - Undefined Reference
    _ZN12QApplicationD1Ev@QtGui{00040703}[2001b2dd].dll  - Undefined Reference
    QInputDialog::getText(QWidget*, const QString&, const QString&, QLineEdit::EchoMode, const QString&, bool*, QFlags<Qt::WindowType>)  - Undefined Reference
    _ZN12QInputDialog7getTextEP7QWidgetRK7QStringS4_N9QLineEdit8EchoModeES4_Pb6QFlagsIN2Qt10WindowTypeEE@QtGui{00040703}[2001b2dd].dll  - Undefined Reference
    QKeySequence::QKeySequence(QKeySequence::StandardKey)  - Undefined Reference
    _ZN12QKeySequenceC1ENS_11StandardKeyE@QtGui{00040703}[2001b2dd].dll  - Undefined Reference
    QKeySequence::QKeySequence(int, int, int, int)  - Undefined Reference
    _ZN12QKeySequenceC1Eiiii@QtGui{00040703}[2001b2dd].dll  - Undefined Reference
    QKeySequence::~QKeySequence()             - Undefined Reference
    _ZN12QKeySequenceD1Ev@QtGui{00040703}[2001b2dd].dll  - Undefined Reference
    QWebSettings::setAttribute(QWebSettings::WebAttribute, bool)  - Undefined Reference
    _ZN12QWebSettings12setAttributeENS_12WebAttributeEb@QtWebKit{00040800}[200267c2].dll  - Undefined Reference
    QWebSettings::globalSettings()            - Undefined Reference
    _ZN12QWebSettings14globalSettingsEv@QtWebKit{00040800}[200267c2].dll  - Undefined Reference
    QWebSettings::setMaximumPagesInCache(int)  - Undefined Reference
    _ZN12QWebSettings22setMaximumPagesInCacheEi@QtWebKit{00040800}[200267c2].dll  - Undefined Reference
    QWebSettings::enablePersistentStorage(const QString&)  - Undefined Reference
    _ZN12QWebSettings23enablePersistentStorageERK7QString@QtWebKit{00040800}[200267c2].dll  - Undefined Reference
    QWebSettings::setObjectCacheCapacities(int, int, int)  - Undefined Reference
    _ZN12QWebSettings24setObjectCacheCapacitiesEiii@QtWebKit{00040800}[200267c2].dll  - Undefined Reference
    QGraphicsItem::setCacheMode(QGraphicsItem::CacheMode, const QSize&)  - Undefined Reference
    _ZN13QGraphicsItem12setCacheModeENS_9CacheModeERK5QSize@QtGui{00040703}[2001b2dd].dll  - Undefined Reference
    QGraphicsItem::setExtension(QGraphicsItem::Extension, const QVariant&)  - Undefined Reference
    _ZN13QGraphicsItem12setExtensionENS_9ExtensionERK8QVariant@QtGui{00040703}[2001b2dd].dll  - Undefined Reference
    QGraphicsItem::setTransform(const QTransform&, bool)  - Undefined Reference
    _ZN13QGraphicsItem12setTransformERK10QTransformb@QtGui{00040703}[2001b2dd].dll  - Undefined Reference
    QGraphicsItem::hoverEnterEvent(QGraphicsSceneHoverEvent*)  - Undefined Reference
    _ZN13QGraphicsItem15hoverEnterEventEP24QGraphicsSceneHoverEvent@QtGui{00040703}[2001b2dd].dll  - Undefined Reference
    QGraphicsItem::sceneEventFilter(QGraphicsItem*, QEvent*)  - Undefined Reference
    _ZN13QGraphicsItem16sceneEventFilterEPS_P6QEvent@QtGui{00040703}[2001b2dd].dll  - Undefined Reference
    QGraphicsItem::setTransformOriginPoint(const QPointF&)  - Undefined Reference
    _ZN13QGraphicsItem23setTransformOriginPointERK7QPointF@QtGui{00040703}[2001b2dd].dll  - Undefined Reference
    QGraphicsItem::advance(int)               - Undefined Reference
    _ZN13QGraphicsItem7advanceEi@QtGui{00040703}[2001b2dd].dll  - Undefined Reference
    QGraphicsView::paintEvent(QPaintEvent*)   - Undefined Reference
    _ZN13QGraphicsView10paintEventEP11QPaintEvent@QtGui{00040703}[2001b2dd].dll  - Undefined Reference
    QGraphicsView::wheelEvent(QWheelEvent*)   - Undefined Reference
    _ZN13QGraphicsView10wheelEventEP11QWheelEvent@QtGui{00040703}[2001b2dd].dll  - Undefined Reference
    QGraphicsView::qt_metacall(QMetaObject::Call, int, void**)  - Undefined Reference
    _ZN13QGraphicsView11qt_metacallEN11QMetaObject4CallEiPPv@QtGui{00040703}[2001b2dd].dll  - Undefined Reference
    QGraphicsView::qt_metacast(const char*)   - Undefined Reference
    _ZN13QGraphicsView11qt_metacastEPKc@QtGui{00040703}[2001b2dd].dll  - Undefined Reference
    QGraphicsView::resizeEvent(QResizeEvent*)  - Undefined Reference
    _ZN13QGraphicsView11resizeEventEP12QResizeEvent@QtGui{00040703}[2001b2dd].dll  - Undefined Reference
    QGraphicsView::focusInEvent(QFocusEvent*)  - Undefined Reference
    _ZN13QGraphicsView12focusInEventEP11QFocusEvent@QtGui{00040703}[2001b2dd].dll  - Undefined Reference
    QGraphicsView::dragMoveEvent(QDragMoveEvent*)  - Undefined Reference
    _ZN13QGraphicsView13dragMoveEventEP14QDragMoveEvent@QtGui{00040703}[2001b2dd].dll  - Undefined Reference
    QGraphicsView::focusOutEvent(QFocusEvent*)  - Undefined Reference
    _ZN13QGraphicsView13focusOutEventEP11QFocusEvent@QtGui{00040703}[2001b2dd].dll  - Undefined Reference
    QGraphicsView::keyPressEvent(QKeyEvent*)  - Undefined Reference
    _ZN13QGraphicsView13keyPressEventEP9QKeyEvent@QtGui{00040703}[2001b2dd].dll  - Undefined Reference
    QGraphicsView::viewportEvent(QEvent*)     - Undefined Reference
    _ZN13QGraphicsView13viewportEventEP6QEvent@QtGui{00040703}[2001b2dd].dll  - Undefined Reference
    QGraphicsView::dragEnterEvent(QDragEnterEvent*)  - Undefined Reference
    _ZN13QGraphicsView14dragEnterEventEP15QDragEnterEvent@QtGui{00040703}[2001b2dd].dll  - Undefined Reference
    QGraphicsView::dragLeaveEvent(QDragLeaveEvent*)  - Undefined Reference
    _ZN13QGraphicsView14dragLeaveEventEP15QDragLeaveEvent@QtGui{00040703}[2001b2dd].dll  - Undefined Reference
    QGraphicsView::drawBackground(QPainter*, const QRectF&)  - Undefined Reference
    _ZN13QGraphicsView14drawBackgroundEP8QPainterRK6QRectF@QtGui{00040703}[2001b2dd].dll  - Undefined Reference
    QGraphicsView::drawForeground(QPainter*, const QRectF&)  - Undefined Reference
    _ZN13QGraphicsView14drawForegroundEP8QPainterRK6QRectF@QtGui{00040703}[2001b2dd].dll  - Undefined Reference
    QGraphicsView::mouseMoveEvent(QMouseEvent*)  - Undefined Reference
    _ZN13QGraphicsView14mouseMoveEventEP11QMouseEvent@QtGui{00040703}[2001b2dd].dll  - Undefined Reference
    QGraphicsView::keyReleaseEvent(QKeyEvent*)  - Undefined Reference
    _ZN13QGraphicsView15keyReleaseEventEP9QKeyEvent@QtGui{00040703}[2001b2dd].dll  - Undefined Reference
    QGraphicsView::mousePressEvent(QMouseEvent*)  - Undefined Reference
    _ZN13QGraphicsView15mousePressEventEP11QMouseEvent@QtGui{00040703}[2001b2dd].dll  - Undefined Reference
    QGraphicsView::contextMenuEvent(QContextMenuEvent*)  - Undefined Reference
    _ZN13QGraphicsView16contextMenuEventEP17QContextMenuEvent@QtGui{00040703}[2001b2dd].dll  - Undefined Reference
    QGraphicsView::inputMethodEvent(QInputMethodEvent*)  - Undefined Reference
    _ZN13QGraphicsView16inputMethodEventEP17QInputMethodEvent@QtGui{00040703}[2001b2dd].dll  - Undefined Reference
    QGraphicsView::scrollContentsBy(int, int)  - Undefined Reference
    _ZN13QGraphicsView16scrollContentsByEii@QtGui{00040703}[2001b2dd].dll  - Undefined Reference
    QGraphicsView::staticMetaObject           - Undefined Reference
    _ZN13QGraphicsView16staticMetaObjectE@QtGui{00040703}[2001b2dd].dll  - Undefined Reference
    QGraphicsView::mouseReleaseEvent(QMouseEvent*)  - Undefined Reference
    _ZN13QGraphicsView17mouseReleaseEventEP11QMouseEvent@QtGui{00040703}[2001b2dd].dll  - Undefined Reference
    QGraphicsView::focusNextPrevChild(bool)   - Undefined Reference
    _ZN13QGraphicsView18focusNextPrevChildEb@QtGui{00040703}[2001b2dd].dll  - Undefined Reference
    QGraphicsView::mouseDoubleClickEvent(QMouseEvent*)  - Undefined Reference
    _ZN13QGraphicsView21mouseDoubleClickEventEP11QMouseEvent@QtGui{00040703}[2001b2dd].dll  - Undefined Reference
    QGraphicsView::setViewportUpdateMode(QGraphicsView::ViewportUpdateMode)  - Undefined Reference
    _ZN13QGraphicsView21setViewportUpdateModeENS_18ViewportUpdateModeE@QtGui{00040703}[2001b2dd].dll  - Undefined Reference
    QGraphicsView::event(QEvent*)             - Undefined Reference
    _ZN13QGraphicsView5eventEP6QEvent@QtGui{00040703}[2001b2dd].dll  - Undefined Reference
    QGraphicsView::setScene(QGraphicsScene*)  - Undefined Reference
    _ZN13QGraphicsView8setSceneEP14QGraphicsScene@QtGui{00040703}[2001b2dd].dll  - Undefined Reference
    QGraphicsView::drawItems(QPainter*, int, QGraphicsItem**, const QStyleOptionGraphicsItem*)  - Undefined Reference
    _ZN13QGraphicsView9drawItemsEP8QPainteriPP13QGraphicsItemPK24QStyleOptionGraphicsItem@QtGui{00040703}[2001b2dd].dll  - Undefined Reference
    QGraphicsView::dropEvent(QDropEvent*)     - Undefined Reference
    _ZN13QGraphicsView9dropEventEP10QDropEvent@QtGui{00040703}[2001b2dd].dll  - Undefined Reference
    QGraphicsView::showEvent(QShowEvent*)     - Undefined Reference
    _ZN13QGraphicsView9showEventEP10QShowEvent@QtGui{00040703}[2001b2dd].dll  - Undefined Reference
    QGraphicsView::QGraphicsView(QWidget*)    - Undefined Reference
    _ZN13QGraphicsViewC1EP7QWidget@QtGui{00040703}[2001b2dd].dll  - Undefined Reference
    QGraphicsView::~QGraphicsView()           - Undefined Reference
    _ZN13QGraphicsViewD1Ev@QtGui{00040703}[2001b2dd].dll  - Undefined Reference
    QNetworkProxy::QNetworkProxy(QNetworkProxy::ProxyType, const QString&, unsigned short, const QString&, const QString&)  - Undefined Reference
    _ZN13QNetworkProxyC1ENS_9ProxyTypeERK7QStringtS3_S3_@QtNetwork{00040703}[2001b2de].dll  - Undefined Reference
    QNetworkProxy::~QNetworkProxy()           - Undefined Reference
    _ZN13QNetworkProxyD1Ev@QtNetwork{00040703}[2001b2de].dll  - Undefined Reference
    QSignalMapper::setMapping(QObject*, int)  - Undefined Reference
    _ZN13QSignalMapper10setMappingEP7QObjecti@QtCore{00040703}[2001b2dc].dll  - Undefined Reference
    QSignalMapper::QSignalMapper(QObject*)    - Undefined Reference
    _ZN13QSignalMapperC1EP7QObject@QtCore{00040703}[2001b2dc].dll  - Undefined Reference
    QStateMachine::start()                    - Undefined Reference
    _ZN13QStateMachine5startEv@QtCore{00040703}[2001b2dc].dll  - Undefined Reference
    QStateMachine::QStateMachine(QObject*)    - Undefined Reference
    _ZN13QStateMachineC1EP7QObject@QtCore{00040703}[2001b2dc].dll  - Undefined Reference
    QWebInspector::closeEvent(QCloseEvent*)   - Undefined Reference
    _ZN13QWebInspector10closeEventEP11QCloseEvent@QtWebKit{00040800}[200267c2].dll  - Undefined Reference
    QWebInspector::qt_metacall(QMetaObject::Call, int, void**)  - Undefined Reference
    _ZN13QWebInspector11qt_metacallEN11QMetaObject4CallEiPPv@QtWebKit{00040800}[200267c2].dll  - Undefined Reference
    QWebInspector::qt_metacast(const char*)   - Undefined Reference
    _ZN13QWebInspector11qt_metacastEPKc@QtWebKit{00040800}[200267c2].dll  - Undefined Reference
    QWebInspector::resizeEvent(QResizeEvent*)  - Undefined Reference
    _ZN13QWebInspector11resizeEventEP12QResizeEvent@QtWebKit{00040800}[200267c2].dll  - Undefined Reference
    QWebInspector::staticMetaObject           - Undefined Reference
    _ZN13QWebInspector16staticMetaObjectE@QtWebKit{00040800}[200267c2].dll  - Undefined Reference
    QWebInspector::event(QEvent*)             - Undefined Reference
    _ZN13QWebInspector5eventEP6QEvent@QtWebKit{00040800}[200267c2].dll  - Undefined Reference
    QWebInspector::setPage(QWebPage*)         - Undefined Reference
    _ZN13QWebInspector7setPageEP8QWebPage@QtWebKit{00040800}[200267c2].dll  - Undefined Reference
    QWebInspector::hideEvent(QHideEvent*)     - Undefined Reference
    _ZN13QWebInspector9hideEventEP10QHideEvent@QtWebKit{00040800}[200267c2].dll  - Undefined Reference
    QWebInspector::showEvent(QShowEvent*)     - Undefined Reference
    _ZN13QWebInspector9showEventEP10QShowEvent@QtWebKit{00040800}[200267c2].dll  - Undefined Reference
    QWebInspector::QWebInspector(QWidget*)    - Undefined Reference
    _ZN13QWebInspectorC1EP7QWidget@QtWebKit{00040800}[200267c2].dll  - Undefined Reference
    QWebInspector::~QWebInspector()           - Undefined Reference
    _ZN13QWebInspectorD1Ev@QtWebKit{00040800}[200267c2].dll  - Undefined Reference
    QAuthenticator::setPassword(const QString&)  - Undefined Reference
    _ZN14QAuthenticator11setPasswordERK7QString@QtNetwork{00040703}[2001b2de].dll  - Undefined Reference
    QAuthenticator::setUser(const QString&)   - Undefined Reference
    _ZN14QAuthenticator7setUserERK7QString@QtNetwork{00040703}[2001b2de].dll  - Undefined Reference
    QGraphicsScene::setSceneRect(const QRectF&)  - Undefined Reference
    _ZN14QGraphicsScene12setSceneRectERK6QRectF@QtGui{00040703}[2001b2dd].dll  - Undefined Reference
    QGraphicsScene::addItem(QGraphicsItem*)   - Undefined Reference
    _ZN14QGraphicsScene7addItemEP13QGraphicsItem@QtGui{00040703}[2001b2dd].dll  - Undefined Reference
    QGraphicsScene::QGraphicsScene(QObject*)  - Undefined Reference
    _ZN14QGraphicsSceneC1EP7QObject@QtGui{00040703}[2001b2dd].dll  - Undefined Reference
    QGraphicsWidget::closeEvent(QCloseEvent*)  - Undefined Reference
    _ZN15QGraphicsWidget10closeEventEP11QCloseEvent@QtGui{00040703}[2001b2dd].dll  - Undefined Reference
    QGraphicsWidget::changeEvent(QEvent*)     - Undefined Reference
    _ZN15QGraphicsWidget11changeEventEP6QEvent@QtGui{00040703}[2001b2dd].dll  - Undefined Reference
    QGraphicsWidget::polishEvent()            - Undefined Reference
    _ZN15QGraphicsWidget11polishEventEv@QtGui{00040703}[2001b2dd].dll  - Undefined Reference
    QGraphicsWidget::resizeEvent(QGraphicsSceneResizeEvent*)  - Undefined Reference
    _ZN15QGraphicsWidget11resizeEventEP25QGraphicsSceneResizeEvent@QtGui{00040703}[2001b2dd].dll  - Undefined Reference
    QGraphicsWidget::grabMouseEvent(QEvent*)  - Undefined Reference
    _ZN15QGraphicsWidget14grabMouseEventEP6QEvent@QtGui{00040703}[2001b2dd].dll  - Undefined Reference
    QGraphicsWidget::propertyChange(const QString&, const QVariant&)  - Undefined Reference
    _ZN15QGraphicsWidget14propertyChangeERK7QStringRK8QVariant@QtGui{00040703}[2001b2dd].dll  - Undefined Reference
    QGraphicsWidget::paintWindowFrame(QPainter*, const QStyleOptionGraphicsItem*, QWidget*)  - Undefined Reference
    _ZN15QGraphicsWidget16paintWindowFrameEP8QPainterPK24QStyleOptionGraphicsItemP7QWidget@QtGui{00040703}[2001b2dd].dll  - Undefined Reference
    QGraphicsWidget::ungrabMouseEvent(QEvent*)  - Undefined Reference
    _ZN15QGraphicsWidget16ungrabMouseEventEP6QEvent@QtGui{00040703}[2001b2dd].dll  - Undefined Reference
    QGraphicsWidget::windowFrameEvent(QEvent*)  - Undefined Reference
    _ZN15QGraphicsWidget16windowFrameEventEP6QEvent@QtGui{00040703}[2001b2dd].dll  - Undefined Reference
    QGraphicsWidget::grabKeyboardEvent(QEvent*)  - Undefined Reference
    _ZN15QGraphicsWidget17grabKeyboardEventEP6QEvent@QtGui{00040703}[2001b2dd].dll  - Undefined Reference
    QGraphicsWidget::ungrabKeyboardEvent(QEvent*)  - Undefined Reference
    _ZN15QGraphicsWidget19ungrabKeyboardEventEP6QEvent@QtGui{00040703}[2001b2dd].dll  - Undefined Reference
    QGraphicsWidget::hideEvent(QHideEvent*)   - Undefined Reference
    _ZN15QGraphicsWidget9hideEventEP10QHideEvent@QtGui{00040703}[2001b2dd].dll  - Undefined Reference
    QGraphicsWidget::moveEvent(QGraphicsSceneMoveEvent*)  - Undefined Reference
    _ZN15QGraphicsWidget9moveEventEP23QGraphicsSceneMoveEvent@QtGui{00040703}[2001b2dd].dll  - Undefined Reference
    QGraphicsWidget::showEvent(QShowEvent*)   - Undefined Reference
    _ZN15QGraphicsWidget9showEventEP10QShowEvent@QtGui{00040703}[2001b2dd].dll  - Undefined Reference
    QLinearGradient::QLinearGradient(float, float, float, float)  - Undefined Reference
    _ZN15QLinearGradientC1Effff@QtGui{00040703}[2001b2dd].dll  - Undefined Reference
    QCoreApplication::notifyInternal(QObject*, QEvent*)  - Undefined Reference
    _ZN16QCoreApplication14notifyInternalEP7QObjectP6QEvent@QtCore{00040703}[2001b2dc].dll  - Undefined Reference
    QCoreApplication::setApplicationName(const QString&)  - Undefined Reference
    _ZN16QCoreApplication18setApplicationNameERK7QString@QtCore{00040703}[2001b2dc].dll  - Undefined Reference
    QCoreApplication::setOrganizationName(const QString&)  - Undefined Reference
    _ZN16QCoreApplication19setOrganizationNameERK7QString@QtCore{00040703}[2001b2dc].dll  - Undefined Reference
    QCoreApplication::setApplicationVersion(const QString&)  - Undefined Reference
    _ZN16QCoreApplication21setApplicationVersionERK7QString@QtCore{00040703}[2001b2dc].dll  - Undefined Reference
    QCoreApplication::self                    - Undefined Reference
    _ZN16QCoreApplication4selfE@QtCore{00040703}[2001b2dc].dll  - Undefined Reference
    QCoreApplication::arguments()             - Undefined Reference
    _ZN16QCoreApplication9argumentsEv@QtCore{00040703}[2001b2dc].dll  - Undefined Reference
    QDesktopServices::openUrl(const QUrl&)    - Undefined Reference
    _ZN16QDesktopServices7openUrlERK4QUrl@QtGui{00040703}[2001b2dd].dll  - Undefined Reference
    QDialogButtonBox::QDialogButtonBox(QFlags<QDialogButtonBox::StandardButton>, Qt::Orientation, QWidget*)  - Undefined Reference
    _ZN16QDialogButtonBoxC1E6QFlagsINS_14StandardButtonEEN2Qt11OrientationEP7QWidget@QtGui{00040703}[2001b2dd].dll  - Undefined Reference
    QGraphicsWebView::itemChange(QGraphicsItem::GraphicsItemChange, const QVariant&)  - Undefined Reference
    _ZN16QGraphicsWebView10itemChangeEN13QGraphicsItem18GraphicsItemChangeERK8QVariant@QtWebKit{00040800}[200267c2].dll  - Undefined Reference
    QGraphicsWebView::sceneEvent(QEvent*)     - Undefined Reference
    _ZN16QGraphicsWebView10sceneEventEP6QEvent@QtWebKit{00040800}[200267c2].dll  - Undefined Reference
    QGraphicsWebView::wheelEvent(QGraphicsSceneWheelEvent*)  - Undefined Reference
    _ZN16QGraphicsWebView10wheelEventEP24QGraphicsSceneWheelEvent@QtWebKit{00040800}[200267c2].dll  - Undefined Reference
    QGraphicsWebView::qt_metacall(QMetaObject::Call, int, void**)  - Undefined Reference
    _ZN16QGraphicsWebView11qt_metacallEN11QMetaObject4CallEiPPv@QtWebKit{00040800}[200267c2].dll  - Undefined Reference
    QGraphicsWebView::qt_metacast(const char*)  - Undefined Reference
    _ZN16QGraphicsWebView11qt_metacastEPKc@QtWebKit{00040800}[200267c2].dll  - Undefined Reference
    QGraphicsWebView::setGeometry(const QRectF&)  - Undefined Reference
    _ZN16QGraphicsWebView11setGeometryERK6QRectF@QtWebKit{00040800}[200267c2].dll  - Undefined Reference
    QGraphicsWebView::focusInEvent(QFocusEvent*)  - Undefined Reference
    _ZN16QGraphicsWebView12focusInEventEP11QFocusEvent@QtWebKit{00040800}[200267c2].dll  - Undefined Reference
    QGraphicsWebView::dragMoveEvent(QGraphicsSceneDragDropEvent*)  - Undefined Reference
    _ZN16QGraphicsWebView13dragMoveEventEP27QGraphicsSceneDragDropEvent@QtWebKit{00040800}[200267c2].dll  - Undefined Reference
    QGraphicsWebView::focusOutEvent(QFocusEvent*)  - Undefined Reference
    _ZN16QGraphicsWebView13focusOutEventEP11QFocusEvent@QtWebKit{00040800}[200267c2].dll  - Undefined Reference
    QGraphicsWebView::keyPressEvent(QKeyEvent*)  - Undefined Reference
    _ZN16QGraphicsWebView13keyPressEventEP9QKeyEvent@QtWebKit{00040800}[200267c2].dll  - Undefined Reference
    QGraphicsWebView::dragEnterEvent(QGraphicsSceneDragDropEvent*)  - Undefined Reference
    _ZN16QGraphicsWebView14dragEnterEventEP27QGraphicsSceneDragDropEvent@QtWebKit{00040800}[200267c2].dll  - Undefined Reference
    QGraphicsWebView::dragLeaveEvent(QGraphicsSceneDragDropEvent*)  - Undefined Reference
    _ZN16QGraphicsWebView14dragLeaveEventEP27QGraphicsSceneDragDropEvent@QtWebKit{00040800}[200267c2].dll  - Undefined Reference
    QGraphicsWebView::hoverMoveEvent(QGraphicsSceneHoverEvent*)  - Undefined Reference
    _ZN16QGraphicsWebView14hoverMoveEventEP24QGraphicsSceneHoverEvent@QtWebKit{00040800}[200267c2].dll  - Undefined Reference
    QGraphicsWebView::mouseMoveEvent(QGraphicsSceneMouseEvent*)  - Undefined Reference
    _ZN16QGraphicsWebView14mouseMoveEventEP24QGraphicsSceneMouseEvent@QtWebKit{00040800}[200267c2].dll  - Undefined Reference
    QGraphicsWebView::updateGeometry()        - Undefined Reference
    _ZN16QGraphicsWebView14updateGeometryEv@QtWebKit{00040800}[200267c2].dll  - Undefined Reference
    QGraphicsWebView::hoverLeaveEvent(QGraphicsSceneHoverEvent*)  - Undefined Reference
    _ZN16QGraphicsWebView15hoverLeaveEventEP24QGraphicsSceneHoverEvent@QtWebKit{00040800}[200267c2].dll  - Undefined Reference
    QGraphicsWebView::keyReleaseEvent(QKeyEvent*)  - Undefined Reference
    _ZN16QGraphicsWebView15keyReleaseEventEP9QKeyEvent@QtWebKit{00040800}[200267c2].dll  - Undefined Reference
    QGraphicsWebView::mousePressEvent(QGraphicsSceneMouseEvent*)  - Undefined Reference
    _ZN16QGraphicsWebView15mousePressEventEP24QGraphicsSceneMouseEvent@QtWebKit{00040800}[200267c2].dll  - Undefined Reference
    QGraphicsWebView::inputMethodEvent(QInputMethodEvent*)  - Undefined Reference
    _ZN16QGraphicsWebView16inputMethodEventEP17QInputMethodEvent@QtWebKit{00040800}[200267c2].dll  - Undefined Reference
    QGraphicsWebView::staticMetaObject        - Undefined Reference
    _ZN16QGraphicsWebView16staticMetaObjectE@QtWebKit{00040800}[200267c2].dll  - Undefined Reference
    QGraphicsWebView::mouseReleaseEvent(QGraphicsSceneMouseEvent*)  - Undefined Reference
    _ZN16QGraphicsWebView17mouseReleaseEventEP24QGraphicsSceneMouseEvent@QtWebKit{00040800}[200267c2].dll  - Undefined Reference
    QGraphicsWebView::focusNextPrevChild(bool)  - Undefined Reference
    _ZN16QGraphicsWebView18focusNextPrevChildEb@QtWebKit{00040800}[200267c2].dll  - Undefined Reference
    QGraphicsWebView::setResizesToContents(bool)  - Undefined Reference
    _ZN16QGraphicsWebView20setResizesToContentsEb@QtWebKit{00040800}[200267c2].dll  - Undefined Reference
    QGraphicsWebView::mouseDoubleClickEvent(QGraphicsSceneMouseEvent*)  - Undefined Reference
    _ZN16QGraphicsWebView21mouseDoubleClickEventEP24QGraphicsSceneMouseEvent@QtWebKit{00040800}[200267c2].dll  - Undefined Reference
    QGraphicsWebView::setTiledBackingStoreFrozen(bool)  - Undefined Reference
    _ZN16QGraphicsWebView26setTiledBackingStoreFrozenEb@QtWebKit{00040800}[200267c2].dll  - Undefined Reference
    QGraphicsWebView::event(QEvent*)          - Undefined Reference
    _ZN16QGraphicsWebView5eventEP6QEvent@QtWebKit{00040800}[200267c2].dll  - Undefined Reference
    QGraphicsWebView::paint(QPainter*, const QStyleOptionGraphicsItem*, QWidget*)  - Undefined Reference
    _ZN16QGraphicsWebView5paintEP8QPainterPK24QStyleOptionGraphicsItemP7QWidget@QtWebKit{00040800}[200267c2].dll  - Undefined Reference
    QGraphicsWebView::setPage(QWebPage*)      - Undefined Reference
    _ZN16QGraphicsWebView7setPageEP8QWebPage@QtWebKit{00040800}[200267c2].dll  - Undefined Reference
    QGraphicsWebView::dropEvent(QGraphicsSceneDragDropEvent*)  - Undefined Reference
    _ZN16QGraphicsWebView9dropEventEP27QGraphicsSceneDragDropEvent@QtWebKit{00040800}[200267c2].dll  - Undefined Reference
    QGraphicsWebView::QGraphicsWebView(QGraphicsItem*)  - Undefined Reference
    _ZN16QGraphicsWebViewC1EP13QGraphicsItem@QtWebKit{00040800}[200267c2].dll  - Undefined Reference
    QGraphicsWebView::~QGraphicsWebView()     - Undefined Reference
    _ZN16QGraphicsWebViewD1Ev@QtWebKit{00040800}[200267c2].dll  - Undefined Reference
    QStringListModel::setStringList(const QStringList&)  - Undefined Reference
    _ZN16QStringListModel13setStringListERK11QStringList@QtGui{00040703}[2001b2dd].dll  - Undefined Reference
    QStringListModel::QStringListModel(QObject*)  - Undefined Reference
    _ZN16QStringListModelC1EP7QObject@QtGui{00040703}[2001b2dd].dll  - Undefined Reference
    QVariantAnimation::setDuration(int)       - Undefined Reference
    _ZN17QVariantAnimation11setDurationEi@QtCore{00040703}[2001b2dc].dll  - Undefined Reference
    QVariantAnimation::setEndValue(const QVariant&)  - Undefined Reference
    _ZN17QVariantAnimation11setEndValueERK8QVariant@QtCore{00040703}[2001b2dc].dll  - Undefined Reference
    QVariantAnimation::setStartValue(const QVariant&)  - Undefined Reference
    _ZN17QVariantAnimation13setStartValueERK8QVariant@QtCore{00040703}[2001b2dc].dll  - Undefined Reference
    QWebHitTestResult::~QWebHitTestResult()   - Undefined Reference
    _ZN17QWebHitTestResultD1Ev@QtWebKit{00040800}[200267c2].dll  - Undefined Reference
    QAbstractAnimation::stop()                - Undefined Reference
    _ZN18QAbstractAnimation4stopEv@QtCore{00040703}[2001b2dc].dll  - Undefined Reference
    QAbstractAnimation::start(QAbstractAnimation::DeletionPolicy)  - Undefined Reference
    _ZN18QAbstractAnimation5startENS_14DeletionPolicyE@QtCore{00040703}[2001b2dc].dll  - Undefined Reference
    QAbstractListModel::~QAbstractListModel__sub_object()  - Undefined Reference
    _ZN18QAbstractListModelD2Ev@QtCore{00040703}[2001b2dc].dll  - Undefined Reference
    QPropertyAnimation::QPropertyAnimation(QObject*, const QByteArray&, QObject*)  - Undefined Reference
    _ZN18QPropertyAnimationC1EP7QObjectRK10QByteArrayS1_@QtCore{00040703}[2001b2dc].dll  - Undefined Reference
    QAbstractScrollArea::setViewport(QWidget*)  - Undefined Reference
    _ZN19QAbstractScrollArea11setViewportEP7QWidget@QtGui{00040703}[2001b2dd].dll  - Undefined Reference
    QAbstractScrollArea::setVerticalScrollBarPolicy(Qt::ScrollBarPolicy)  - Undefined Reference
    _ZN19QAbstractScrollArea26setVerticalScrollBarPolicyEN2Qt15ScrollBarPolicyE@QtGui{00040703}[2001b2dd].dll  - Undefined Reference
    QAbstractScrollArea::setHorizontalScrollBarPolicy(Qt::ScrollBarPolicy)  - Undefined Reference
    _ZN19QAbstractScrollArea28setHorizontalScrollBarPolicyEN2Qt15ScrollBarPolicyE@QtGui{00040703}[2001b2dd].dll  - Undefined Reference
    QAbstractTransition::addAnimation(QAbstractAnimation*)  - Undefined Reference
    _ZN19QAbstractTransition12addAnimationEP18QAbstractAnimation@QtCore{00040703}[2001b2dc].dll  - Undefined Reference
    QNetworkAccessManager::setProxy(const QNetworkProxy&)  - Undefined Reference
    _ZN21QNetworkAccessManager8setProxyERK13QNetworkProxy@QtNetwork{00040703}[2001b2de].dll  - Undefined Reference
    QWebElementCollection::QWebElementCollection(const QWebElementCollection&)  - Undefined Reference
    _ZN21QWebElementCollectionC1ERKS_@QtWebKit{00040800}[200267c2].dll  - Undefined Reference
    QWebElementCollection::~QWebElementCollection()  - Undefined Reference
    _ZN21QWebElementCollectionD1Ev@QtWebKit{00040800}[200267c2].dll  - Undefined Reference
    TCppRTExceptionsGlobals::TCppRTExceptionsGlobals()  - Undefined Reference
    _ZN23TCppRTExceptionsGlobalsC1Ev@drtaeabi{000a0000}.dll  - Undefined Reference
    QDir::homePath()                          - Undefined Reference
    _ZN4QDir8homePathEv@QtCore{00040703}[2001b2dc].dll  - Undefined Reference
    QDir::QDir(const QString&)                - Undefined Reference
    _ZN4QDirC1ERK7QString@QtCore{00040703}[2001b2dc].dll  - Undefined Reference
    QDir::~QDir()                             - Undefined Reference
    _ZN4QDirD1Ev@QtCore{00040703}[2001b2dc].dll  - Undefined Reference
    QUrl::fromLocalFile(const QString&)       - Undefined Reference
    _ZN4QUrl13fromLocalFileERK7QString@QtCore{00040703}[2001b2dc].dll  - Undefined Reference
    QUrl::fromUserInput(const QString&)       - Undefined Reference
    _ZN4QUrl13fromUserInputERK7QString@QtCore{00040703}[2001b2dc].dll  - Undefined Reference
    QUrl::QUrl(const QString&)                - Undefined Reference
    _ZN4QUrlC1ERK7QString@QtCore{00040703}[2001b2dc].dll  - Undefined Reference
    QUrl::QUrl(const QString&, QUrl::ParsingMode)  - Undefined Reference
    _ZN4QUrlC1ERK7QStringNS_11ParsingModeE@QtCore{00040703}[2001b2dc].dll  - Undefined Reference
    QUrl::QUrl()                              - Undefined Reference
    _ZN4QUrlC1Ev@QtCore{00040703}[2001b2dc].dll  - Undefined Reference
    QUrl::~QUrl()                             - Undefined Reference
    _ZN4QUrlD1Ev@QtCore{00040703}[2001b2dc].dll  - Undefined Reference
    QUrl::operator =(const QString&)          - Undefined Reference
    _ZN4QUrlaSERK7QString@QtCore{00040703}[2001b2dc].dll  - Undefined Reference
    QUrl::operator =(const QUrl&)             - Undefined Reference
    _ZN4QUrlaSERKS_@QtCore{00040703}[2001b2dc].dll  - Undefined Reference
    User::InitProcess()                       - Undefined Reference
    _ZN4User11InitProcessEv@euser{000a0000}[100039e5].dll  - Undefined Reference
    User::LeaveIfError(int)                   - Undefined Reference
    _ZN4User12LeaveIfErrorEi@euser{000a0000}[100039e5].dll  - Undefined Reference
    User::HandleException(void*)              - Undefined Reference
    _ZN4User15HandleExceptionEPv@euser{000a0000}[100039e5].dll  - Undefined Reference
    User::MarkCleanupStack()                  - Undefined Reference
    _ZN4User16MarkCleanupStackEv@euser{000a0000}[100039e5].dll  - Undefined Reference
    User::UnMarkCleanupStack(TTrapHandler*)   - Undefined Reference
    _ZN4User18UnMarkCleanupStackEP12TTrapHandler@euser{000a0000}[100039e5].dll  - Undefined Reference
    User::Exit(int)                           - Undefined Reference
    _ZN4User4ExitEi@euser{000a0000}[100039e5].dll  - Undefined Reference
    User::Panic(const TDesC16&, int)          - Undefined Reference
    _ZN4User5PanicERK7TDesC16i@euser{000a0000}[100039e5].dll  - Undefined Reference
    User::Invariant()                         - Undefined Reference
    _ZN4User9InvariantEv@euser{000a0000}[100039e5].dll  - Undefined Reference
    User::LockedDec(int&)                     - Undefined Reference
    _ZN4User9LockedDecERi@euser{000a0000}[100039e5].dll  - Undefined Reference
    User::LockedInc(int&)                     - Undefined Reference
    _ZN4User9LockedIncERi@euser{000a0000}[100039e5].dll  - Undefined Reference
    QFile::open(QFlags<QIODevice::OpenModeFlag>)  - Undefined Reference
    _ZN5QFile4openE6QFlagsIN9QIODevice12OpenModeFlagEE@QtCore{00040703}[2001b2dc].dll  - Undefined Reference
    QFile::close()                            - Undefined Reference
    _ZN5QFile5closeEv@QtCore{00040703}[2001b2dc].dll  - Undefined Reference
    QFile::exists(const QString&)             - Undefined Reference
    _ZN5QFile6existsERK7QString@QtCore{00040703}[2001b2dc].dll  - Undefined Reference
    QFile::QFile(const QString&)              - Undefined Reference
    _ZN5QFileC1ERK7QString@QtCore{00040703}[2001b2dc].dll  - Undefined Reference
    QFile::~QFile()                           - Undefined Reference
    _ZN5QFileD1Ev@QtCore{00040703}[2001b2dc].dll  - Undefined Reference
    QMenu::addSeparator()                     - Undefined Reference
    _ZN5QMenu12addSeparatorEv@QtGui{00040703}[2001b2dd].dll  - Undefined Reference
    QMenu::exec(const QPoint&, QAction*)      - Undefined Reference
    _ZN5QMenu4execERK6QPointP7QAction@QtGui{00040703}[2001b2dd].dll  - Undefined Reference
    QMenu::addMenu(const QString&)            - Undefined Reference
    _ZN5QMenu7addMenuERK7QString@QtGui{00040703}[2001b2dd].dll  - Undefined Reference
    QMenu::addAction(const QString&)          - Undefined Reference
    _ZN5QMenu9addActionERK7QString@QtGui{00040703}[2001b2dd].dll  - Undefined Reference
    QMenu::addAction(const QString&, const QObject*, const char*, const QKeySequence&)  - Undefined Reference
    _ZN5QMenu9addActionERK7QStringPK7QObjectPKcRK12QKeySequence@QtGui{00040703}[2001b2dd].dll  - Undefined Reference
    QMenu::QMenu(const QString&, QWidget*)    - Undefined Reference
    _ZN5QMenuC1ERK7QStringP7QWidget@QtGui{00040703}[2001b2dd].dll  - Undefined Reference
    QTime::currentTime()                      - Undefined Reference
    _ZN5QTime11currentTimeEv@QtCore{00040703}[2001b2dc].dll  - Undefined Reference
    QBrush::QBrush(const QColor&, Qt::BrushStyle)  - Undefined Reference
    _ZN6QBrushC1ERK6QColorN2Qt10BrushStyleE@QtGui{00040703}[2001b2dd].dll  - Undefined Reference
    QBrush::QBrush(const QGradient&)          - Undefined Reference
    _ZN6QBrushC1ERK9QGradient@QtGui{00040703}[2001b2dd].dll  - Undefined Reference
    QBrush::~QBrush()                         - Undefined Reference
    _ZN6QBrushD1Ev@QtGui{00040703}[2001b2dd].dll  - Undefined Reference
    QColor::setRgb(int, int, int, int)        - Undefined Reference
    _ZN6QColor6setRgbEiiii@QtGui{00040703}[2001b2dd].dll  - Undefined Reference
    QFrame::changeEvent(QEvent*)              - Undefined Reference
    _ZN6QFrame11changeEventEP6QEvent@QtGui{00040703}[2001b2dd].dll  - Undefined Reference
    QFrame::setFrameShape(QFrame::Shape)      - Undefined Reference
    _ZN6QFrame13setFrameShapeENS_5ShapeE@QtGui{00040703}[2001b2dd].dll  - Undefined Reference
    QLabel::setWordWrap(bool)                 - Undefined Reference
    _ZN6QLabel11setWordWrapEb@QtGui{00040703}[2001b2dd].dll  - Undefined Reference
    QLabel::setText(const QString&)           - Undefined Reference
    _ZN6QLabel7setTextERK7QString@QtGui{00040703}[2001b2dd].dll  - Undefined Reference
    QLabel::QLabel(QWidget*, QFlags<Qt::WindowType>)  - Undefined Reference
    _ZN6QLabelC1EP7QWidget6QFlagsIN2Qt10WindowTypeEE@QtGui{00040703}[2001b2dd].dll  - Undefined Reference
    QLabel::QLabel(const QString&, QWidget*, QFlags<Qt::WindowType>)  - Undefined Reference
    _ZN6QLabelC1ERK7QStringP7QWidget6QFlagsIN2Qt10WindowTypeEE@QtGui{00040703}[2001b2dd].dll  - Undefined Reference
    QState::addTransition(QAbstractState*)    - Undefined Reference
    _ZN6QState13addTransitionEP14QAbstractState@QtCore{00040703}[2001b2dc].dll  - Undefined Reference
    QState::addTransition(QObject*, const char*, QAbstractState*)  - Undefined Reference
    _ZN6QState13addTransitionEP7QObjectPKcP14QAbstractState@QtCore{00040703}[2001b2dc].dll  - Undefined Reference
    QState::assignProperty(QObject*, const char*, const QVariant&)  - Undefined Reference
    _ZN6QState14assignPropertyEP7QObjectPKcRK8QVariant@QtCore{00040703}[2001b2dc].dll  - Undefined Reference
    QState::setInitialState(QAbstractState*)  - Undefined Reference
    _ZN6QState15setInitialStateEP14QAbstractState@QtCore{00040703}[2001b2dc].dll  - Undefined Reference
    QState::QState(QState*)                   - Undefined Reference
    _ZN6QStateC1EPS_@QtCore{00040703}[2001b2dc].dll  - Undefined Reference
    QTimer::setInterval(int)                  - Undefined Reference
    _ZN6QTimer11setIntervalEi@QtCore{00040703}[2001b2dc].dll  - Undefined Reference
    QTimer::stop()                            - Undefined Reference
    _ZN6QTimer4stopEv@QtCore{00040703}[2001b2dc].dll  - Undefined Reference
    QTimer::start(int)                        - Undefined Reference
    _ZN6QTimer5startEi@QtCore{00040703}[2001b2dc].dll  - Undefined Reference
    QTimer::start()                           - Undefined Reference
    _ZN6QTimer5startEv@QtCore{00040703}[2001b2dc].dll  - Undefined Reference
    QTimer::QTimer(QObject*)                  - Undefined Reference
    _ZN6QTimerC1EP7QObject@QtCore{00040703}[2001b2dc].dll  - Undefined Reference
    QTimer::~QTimer()                         - Undefined Reference
    _ZN6QTimerD1Ev@QtCore{00040703}[2001b2dc].dll  - Undefined Reference
    QAction::setChecked(bool)                 - Undefined Reference
    _ZN7QAction10setCheckedEb@QtGui{00040703}[2001b2dd].dll  - Undefined Reference
    QAction::setEnabled(bool)                 - Undefined Reference
    _ZN7QAction10setEnabledEb@QtGui{00040703}[2001b2dd].dll  - Undefined Reference
    QAction::setVisible(bool)                 - Undefined Reference
    _ZN7QAction10setVisibleEb@QtGui{00040703}[2001b2dd].dll  - Undefined Reference
    QAction::setShortcut(const QKeySequence&)  - Undefined Reference
    _ZN7QAction11setShortcutERK12QKeySequence@QtGui{00040703}[2001b2dd].dll  - Undefined Reference
    QAction::setCheckable(bool)               - Undefined Reference
    _ZN7QAction12setCheckableEb@QtGui{00040703}[2001b2dd].dll  - Undefined Reference
    QAction::staticMetaObject                 - Undefined Reference
    _ZN7QAction16staticMetaObjectE@QtGui{00040703}[2001b2dd].dll  - Undefined Reference
    QAction::setData(const QVariant&)         - Undefined Reference
    _ZN7QAction7setDataERK8QVariant@QtGui{00040703}[2001b2dd].dll  - Undefined Reference
    QCursor::pos()                            - Undefined Reference
    _ZN7QCursor3posEv@QtGui{00040703}[2001b2dd].dll  - Undefined Reference
    QDialog::exec()                           - Undefined Reference
    _ZN7QDialog4execEv@QtGui{00040703}[2001b2dd].dll  - Undefined Reference
    QDialog::QDialog(QWidget*, QFlags<Qt::WindowType>)  - Undefined Reference
    _ZN7QDialogC1EP7QWidget6QFlagsIN2Qt10WindowTypeEE@QtGui{00040703}[2001b2dd].dll  - Undefined Reference
    QObject::childEvent(QChildEvent*)         - Undefined Reference
    _ZN7QObject10childEventEP11QChildEvent@QtCore{00040703}[2001b2dc].dll  - Undefined Reference
    QObject::disconnect(const QObject*, const char*, const QObject*, const char*)  - Undefined Reference
    _ZN7QObject10disconnectEPKS_PKcS1_S3_@QtCore{00040703}[2001b2dc].dll  - Undefined Reference
    QObject::startTimer(int)                  - Undefined Reference
    _ZN7QObject10startTimerEi@QtCore{00040703}[2001b2dc].dll  - Undefined Reference
    QObject::timerEvent(QTimerEvent*)         - Undefined Reference
    _ZN7QObject10timerEventEP11QTimerEvent@QtCore{00040703}[2001b2dc].dll  - Undefined Reference
    QObject::customEvent(QEvent*)             - Undefined Reference
    _ZN7QObject11customEventEP6QEvent@QtCore{00040703}[2001b2dc].dll  - Undefined Reference
    QObject::eventFilter(QObject*, QEvent*)   - Undefined Reference
    _ZN7QObject11eventFilterEPS_P6QEvent@QtCore{00040703}[2001b2dc].dll  - Undefined Reference
    QObject::qt_metacall(QMetaObject::Call, int, void**)  - Undefined Reference
    _ZN7QObject11qt_metacallEN11QMetaObject4CallEiPPv@QtCore{00040703}[2001b2dc].dll  - Undefined Reference
    QObject::qt_metacast(const char*)         - Undefined Reference
    _ZN7QObject11qt_metacastEPKc@QtCore{00040703}[2001b2dc].dll  - Undefined Reference
    QObject::setProperty(const char*, const QVariant&)  - Undefined Reference
    _ZN7QObject11setPropertyEPKcRK8QVariant@QtCore{00040703}[2001b2dc].dll  - Undefined Reference
    QObject::connectNotify(const char*)       - Undefined Reference
    _ZN7QObject13connectNotifyEPKc@QtCore{00040703}[2001b2dc].dll  - Undefined Reference
    QObject::disconnectNotify(const char*)    - Undefined Reference
    _ZN7QObject16disconnectNotifyEPKc@QtCore{00040703}[2001b2dc].dll  - Undefined Reference
    QObject::staticMetaObject                 - Undefined Reference
    _ZN7QObject16staticMetaObjectE@QtCore{00040703}[2001b2dc].dll  - Undefined Reference
    QObject::installEventFilter(QObject*)     - Undefined Reference
    _ZN7QObject18installEventFilterEPS_@QtCore{00040703}[2001b2dc].dll  - Undefined Reference
    QObject::event(QEvent*)                   - Undefined Reference
    _ZN7QObject5eventEP6QEvent@QtCore{00040703}[2001b2dc].dll  - Undefined Reference
    QObject::connect(const QObject*, const char*, const QObject*, const char*, Qt::ConnectionType)  - Undefined Reference
    _ZN7QObject7connectEPKS_PKcS1_S3_N2Qt14ConnectionTypeE@QtCore{00040703}[2001b2dc].dll  - Undefined Reference
    QObject::killTimer(int)                   - Undefined Reference
    _ZN7QObject9killTimerEi@QtCore{00040703}[2001b2dc].dll  - Undefined Reference
    QObject::QObject(QObject*)                - Undefined Reference
    _ZN7QObjectC1EPS_@QtCore{00040703}[2001b2dc].dll  - Undefined Reference
    QObject::~QObject()                       - Undefined Reference
    _ZN7QObjectD1Ev@QtCore{00040703}[2001b2dc].dll  - Undefined Reference
    QPixmap::grabWidget(QWidget*, const QRect&)  - Undefined Reference
    _ZN7QPixmap10grabWidgetEP7QWidgetRK5QRect@QtGui{00040703}[2001b2dd].dll  - Undefined Reference
    QPixmap::~QPixmap()                       - Undefined Reference
    _ZN7QPixmapD1Ev@QtGui{00040703}[2001b2dd].dll  - Undefined Reference
    QRegExp::QRegExp(const QString&, Qt::CaseSensitivity, QRegExp::PatternSyntax)  - Undefined Reference
    _ZN7QRegExpC1ERK7QStringN2Qt15CaseSensitivityENS_13PatternSyntaxE@QtCore{00040703}[2001b2dc].dll  - Undefined Reference
    QRegExp::~QRegExp()                       - Undefined Reference
    _ZN7QRegExpD1Ev@QtCore{00040703}[2001b2dc].dll  - Undefined Reference
    QString::shared_null                      - Undefined Reference
    _ZN7QString11shared_nullE@QtCore{00040703}[2001b2dc].dll  - Undefined Reference
    QString::codecForCStrings                 - Undefined Reference
    _ZN7QString16codecForCStringsE@QtCore{00040703}[2001b2dc].dll  - Undefined Reference
    QString::fromAscii_helper(const char*, int)  - Undefined Reference
    _ZN7QString16fromAscii_helperEPKci@QtCore{00040703}[2001b2dc].dll  - Undefined Reference
    QString::fromLatin1_helper(const char*, int)  - Undefined Reference
    _ZN7QString17fromLatin1_helperEPKci@QtCore{00040703}[2001b2dc].dll  - Undefined Reference
    QString::free(QString::Data*)             - Undefined Reference
    _ZN7QString4freeEPNS_4DataE@QtCore{00040703}[2001b2dc].dll  - Undefined Reference
    QString::append(const QString&)           - Undefined Reference
    _ZN7QString6appendERKS_@QtCore{00040703}[2001b2dc].dll  - Undefined Reference
    QString::remove(const QString&, Qt::CaseSensitivity)  - Undefined Reference
    _ZN7QString6removeERKS_N2Qt15CaseSensitivityE@QtCore{00040703}[2001b2dc].dll  - Undefined Reference
    QString::fromAscii(const char*, int)      - Undefined Reference
    _ZN7QString9fromAsciiEPKci@QtCore{00040703}[2001b2dc].dll  - Undefined Reference
    QString::operator =(const QString&)       - Undefined Reference
    _ZN7QStringaSERKS_@QtCore{00040703}[2001b2dc].dll  - Undefined Reference
    QWidget::closeEvent(QCloseEvent*)         - Undefined Reference
    _ZN7QWidget10closeEventEP11QCloseEvent@QtGui{00040703}[2001b2dd].dll  - Undefined Reference
    QWidget::enterEvent(QEvent*)              - Undefined Reference
    _ZN7QWidget10enterEventEP6QEvent@QtGui{00040703}[2001b2dd].dll  - Undefined Reference
    QWidget::fontChange(const QFont&)         - Undefined Reference
    _ZN7QWidget10fontChangeERK5QFont@QtGui{00040703}[2001b2dd].dll  - Undefined Reference
    QWidget::leaveEvent(QEvent*)              - Undefined Reference
    _ZN7QWidget10leaveEventEP6QEvent@QtGui{00040703}[2001b2dd].dll  - Undefined Reference
    QWidget::paintEvent(QPaintEvent*)         - Undefined Reference
    _ZN7QWidget10paintEventEP11QPaintEvent@QtGui{00040703}[2001b2dd].dll  - Undefined Reference
    QWidget::setEnabled(bool)                 - Undefined Reference
    _ZN7QWidget10setEnabledEb@QtGui{00040703}[2001b2dd].dll  - Undefined Reference
    QWidget::setPalette(const QPalette&)      - Undefined Reference
    _ZN7QWidget10setPaletteERK8QPalette@QtGui{00040703}[2001b2dd].dll  - Undefined Reference
    QWidget::setVisible(bool)                 - Undefined Reference
    _ZN7QWidget10setVisibleEb@QtGui{00040703}[2001b2dd].dll  - Undefined Reference
    QWidget::wheelEvent(QWheelEvent*)         - Undefined Reference
    _ZN7QWidget10wheelEventEP11QWheelEvent@QtGui{00040703}[2001b2dd].dll  - Undefined Reference
    QWidget::actionEvent(QActionEvent*)       - Undefined Reference
    _ZN7QWidget11actionEventEP12QActionEvent@QtGui{00040703}[2001b2dd].dll  - Undefined Reference
    QWidget::changeEvent(QEvent*)             - Undefined Reference
    _ZN7QWidget11changeEventEP6QEvent@QtGui{00040703}[2001b2dd].dll  - Undefined Reference
    QWidget::resizeEvent(QResizeEvent*)       - Undefined Reference
    _ZN7QWidget11resizeEventEP12QResizeEvent@QtGui{00040703}[2001b2dd].dll  - Undefined Reference
    QWidget::styleChange(QStyle&)             - Undefined Reference
    _ZN7QWidget11styleChangeER6QStyle@QtGui{00040703}[2001b2dd].dll  - Undefined Reference
    QWidget::tabletEvent(QTabletEvent*)       - Undefined Reference
    _ZN7QWidget11tabletEventEP12QTabletEvent@QtGui{00040703}[2001b2dd].dll  - Undefined Reference
    QWidget::focusInEvent(QFocusEvent*)       - Undefined Reference
    _ZN7QWidget12focusInEventEP11QFocusEvent@QtGui{00040703}[2001b2dd].dll  - Undefined Reference
    QWidget::insertAction(QAction*, QAction*)  - Undefined Reference
    _ZN7QWidget12insertActionEP7QActionS1_@QtGui{00040703}[2001b2dd].dll  - Undefined Reference
    QWidget::setAttribute(Qt::WidgetAttribute, bool)  - Undefined Reference
    _ZN7QWidget12setAttributeEN2Qt15WidgetAttributeEb@QtGui{00040703}[2001b2dd].dll  - Undefined Reference
    QWidget::dragMoveEvent(QDragMoveEvent*)   - Undefined Reference
    _ZN7QWidget13dragMoveEventEP14QDragMoveEvent@QtGui{00040703}[2001b2dd].dll  - Undefined Reference
    QWidget::enabledChange(bool)              - Undefined Reference
    _ZN7QWidget13enabledChangeEb@QtGui{00040703}[2001b2dd].dll  - Undefined Reference
    QWidget::focusOutEvent(QFocusEvent*)      - Undefined Reference
    _ZN7QWidget13focusOutEventEP11QFocusEvent@QtGui{00040703}[2001b2dd].dll  - Undefined Reference
    QWidget::keyPressEvent(QKeyEvent*)        - Undefined Reference
    _ZN7QWidget13keyPressEventEP9QKeyEvent@QtGui{00040703}[2001b2dd].dll  - Undefined Reference
    QWidget::paletteChange(const QPalette&)   - Undefined Reference
    _ZN7QWidget13paletteChangeERK8QPalette@QtGui{00040703}[2001b2dd].dll  - Undefined Reference
    QWidget::setSizePolicy(QSizePolicy)       - Undefined Reference
    _ZN7QWidget13setSizePolicyE11QSizePolicy@QtGui{00040703}[2001b2dd].dll  - Undefined Reference
    QWidget::dragEnterEvent(QDragEnterEvent*)  - Undefined Reference
    _ZN7QWidget14dragEnterEventEP15QDragEnterEvent@QtGui{00040703}[2001b2dd].dll  - Undefined Reference
    QWidget::dragLeaveEvent(QDragLeaveEvent*)  - Undefined Reference
    _ZN7QWidget14dragLeaveEventEP15QDragLeaveEvent@QtGui{00040703}[2001b2dd].dll  - Undefined Reference
    QWidget::languageChange()                 - Undefined Reference
    _ZN7QWidget14languageChangeEv@QtGui{00040703}[2001b2dd].dll  - Undefined Reference
    QWidget::mouseMoveEvent(QMouseEvent*)     - Undefined Reference
    _ZN7QWidget14mouseMoveEventEP11QMouseEvent@QtGui{00040703}[2001b2dd].dll  - Undefined Reference
    QWidget::setWindowState(QFlags<Qt::WindowState>)  - Undefined Reference
    _ZN7QWidget14setWindowStateE6QFlagsIN2Qt11WindowStateEE@QtGui{00040703}[2001b2dd].dll  - Undefined Reference
    QWidget::setWindowTitle(const QString&)   - Undefined Reference
    _ZN7QWidget14setWindowTitleERK7QString@QtGui{00040703}[2001b2dd].dll  - Undefined Reference
    QWidget::keyReleaseEvent(QKeyEvent*)      - Undefined Reference
    _ZN7QWidget15keyReleaseEventEP9QKeyEvent@QtGui{00040703}[2001b2dd].dll  - Undefined Reference
    QWidget::mousePressEvent(QMouseEvent*)    - Undefined Reference
    _ZN7QWidget15mousePressEventEP11QMouseEvent@QtGui{00040703}[2001b2dd].dll  - Undefined Reference
    QWidget::contextMenuEvent(QContextMenuEvent*)  - Undefined Reference
    _ZN7QWidget16contextMenuEventEP17QContextMenuEvent@QtGui{00040703}[2001b2dd].dll  - Undefined Reference
    QWidget::inputMethodEvent(QInputMethodEvent*)  - Undefined Reference
    _ZN7QWidget16inputMethodEventEP17QInputMethodEvent@QtGui{00040703}[2001b2dd].dll  - Undefined Reference
    QWidget::setMaximumHeight(int)            - Undefined Reference
    _ZN7QWidget16setMaximumHeightEi@QtGui{00040703}[2001b2dd].dll  - Undefined Reference
    QWidget::mouseReleaseEvent(QMouseEvent*)  - Undefined Reference
    _ZN7QWidget17mouseReleaseEventEP11QMouseEvent@QtGui{00040703}[2001b2dd].dll  - Undefined Reference
    QWidget::setWindowModality(Qt::WindowModality)  - Undefined Reference
    _ZN7QWidget17setWindowModalityEN2Qt14WindowModalityE@QtGui{00040703}[2001b2dd].dll  - Undefined Reference
    QWidget::focusNextPrevChild(bool)         - Undefined Reference
    _ZN7QWidget18focusNextPrevChildEb@QtGui{00040703}[2001b2dd].dll  - Undefined Reference
    QWidget::mouseDoubleClickEvent(QMouseEvent*)  - Undefined Reference
    _ZN7QWidget21mouseDoubleClickEventEP11QMouseEvent@QtGui{00040703}[2001b2dd].dll  - Undefined Reference
    QWidget::windowActivationChange(bool)     - Undefined Reference
    _ZN7QWidget22windowActivationChangeEb@QtGui{00040703}[2001b2dd].dll  - Undefined Reference
    QWidget::resize(const QSize&)             - Undefined Reference
    _ZN7QWidget6resizeERK5QSize@QtGui{00040703}[2001b2dd].dll  - Undefined Reference
    QWidget::update()                         - Undefined Reference
    _ZN7QWidget6updateEv@QtGui{00040703}[2001b2dd].dll  - Undefined Reference
    QWidget::setFocus(Qt::FocusReason)        - Undefined Reference
    _ZN7QWidget8setFocusEN2Qt11FocusReasonE@QtGui{00040703}[2001b2dd].dll  - Undefined Reference
    QWidget::addAction(QAction*)              - Undefined Reference
    _ZN7QWidget9addActionEP7QAction@QtGui{00040703}[2001b2dd].dll  - Undefined Reference
    QWidget::dropEvent(QDropEvent*)           - Undefined Reference
    _ZN7QWidget9dropEventEP10QDropEvent@QtGui{00040703}[2001b2dd].dll  - Undefined Reference
    QWidget::hideEvent(QHideEvent*)           - Undefined Reference
    _ZN7QWidget9hideEventEP10QHideEvent@QtGui{00040703}[2001b2dd].dll  - Undefined Reference
    QWidget::moveEvent(QMoveEvent*)           - Undefined Reference
    _ZN7QWidget9moveEventEP10QMoveEvent@QtGui{00040703}[2001b2dd].dll  - Undefined Reference
    QWidget::setLayout(QLayout*)              - Undefined Reference
    _ZN7QWidget9setLayoutEP7QLayout@QtGui{00040703}[2001b2dd].dll  - Undefined Reference
    QWidget::showEvent(QShowEvent*)           - Undefined Reference
    _ZN7QWidget9showEventEP10QShowEvent@QtGui{00040703}[2001b2dd].dll  - Undefined Reference
    UserSvr::DllSetTls(int, int, void*)       - Undefined Reference
    _ZN7UserSvr9DllSetTlsEiiPv@euser{000a0000}[100039e5].dll  - Undefined Reference
    QMenuBar::clear()                         - Undefined Reference
    _ZN8QMenuBar5clearEv@QtGui{00040703}[2001b2dd].dll  - Undefined Reference
    QMenuBar::addMenu(QMenu*)                 - Undefined Reference
    _ZN8QMenuBar7addMenuEP5QMenu@QtGui{00040703}[2001b2dd].dll  - Undefined Reference
    QMenuBar::addMenu(const QString&)         - Undefined Reference
    _ZN8QMenuBar7addMenuERK7QString@QtGui{00040703}[2001b2dd].dll  - Undefined Reference
    QPalette::setBrush(QPalette::ColorGroup, QPalette::ColorRole, const QBrush&)  - Undefined Reference
    _ZN8QPalette8setBrushENS_10ColorGroupENS_9ColorRoleERK6QBrush@QtGui{00040703}[2001b2dd].dll  - Undefined Reference
    QPalette::QPalette(const QPalette&)       - Undefined Reference
    _ZN8QPaletteC1ERKS_@QtGui{00040703}[2001b2dd].dll  - Undefined Reference
    QPalette::~QPalette()                     - Undefined Reference
    _ZN8QPaletteD1Ev@QtGui{00040703}[2001b2dd].dll  - Undefined Reference
    QToolBar::setIconSize(const QSize&)       - Undefined Reference
    _ZN8QToolBar11setIconSizeERK5QSize@QtGui{00040703}[2001b2dd].dll  - Undefined Reference
    QToolBar::addWidget(QWidget*)             - Undefined Reference
    _ZN8QToolBar9addWidgetEP7QWidget@QtGui{00040703}[2001b2dd].dll  - Undefined Reference
    QToolTip::showText(const QPoint&, const QString&, QWidget*)  - Undefined Reference
    _ZN8QToolTip8showTextERK6QPointRK7QStringP7QWidget@QtGui{00040703}[2001b2dd].dll  - Undefined Reference
    QVariant::QVariant(const QUrl&)           - Undefined Reference
    _ZN8QVariantC1ERK4QUrl@QtCore{00040703}[2001b2dc].dll  - Undefined Reference
    QVariant::QVariant(const QString&)        - Undefined Reference
    _ZN8QVariantC1ERK7QString@QtCore{00040703}[2001b2dc].dll  - Undefined Reference
    QVariant::QVariant(double)                - Undefined Reference
    _ZN8QVariantC1Ed@QtCore{00040703}[2001b2dc].dll  - Undefined Reference
    QVariant::QVariant(int)                   - Undefined Reference
    _ZN8QVariantC1Ei@QtCore{00040703}[2001b2dc].dll  - Undefined Reference
    QVariant::QVariant(int, const void*, unsigned)  - Undefined Reference
    _ZN8QVariantC1EiPKvj@QtCore{00040703}[2001b2dc].dll  - Undefined Reference
    QVariant::~QVariant()                     - Undefined Reference
    _ZN8QVariantD1Ev@QtCore{00040703}[2001b2dc].dll  - Undefined Reference
    QWebPage::chooseFile(QWebFrame*, const QString&)  - Undefined Reference
    _ZN8QWebPage10chooseFileEP9QWebFrameRK7QString@QtWebKit{00040800}[200267c2].dll  - Undefined Reference
    QWebPage::qt_metacall(QMetaObject::Call, int, void**)  - Undefined Reference
    _ZN8QWebPage11qt_metacallEN11QMetaObject4CallEiPPv@QtWebKit{00040800}[200267c2].dll  - Undefined Reference
    QWebPage::qt_metacast(const char*)        - Undefined Reference
    _ZN8QWebPage11qt_metacastEPKc@QtWebKit{00040800}[200267c2].dll  - Undefined Reference
    QWebPage::triggerAction(QWebPage::WebAction, bool)  - Undefined Reference
    _ZN8QWebPage13triggerActionENS_9WebActionEb@QtWebKit{00040800}[200267c2].dll  - Undefined Reference
    QWebPage::javaScriptAlert(QWebFrame*, const QString&)  - Undefined Reference
    _ZN8QWebPage15javaScriptAlertEP9QWebFrameRK7QString@QtWebKit{00040800}[200267c2].dll  - Undefined Reference
    QWebPage::javaScriptPrompt(QWebFrame*, const QString&, const QString&, QString*)  - Undefined Reference
    _ZN8QWebPage16javaScriptPromptEP9QWebFrameRK7QStringS4_PS2_@QtWebKit{00040800}[200267c2].dll  - Undefined Reference
    QWebPage::staticMetaObject                - Undefined Reference
    _ZN8QWebPage16staticMetaObjectE@QtWebKit{00040800}[200267c2].dll  - Undefined Reference
    QWebPage::javaScriptConfirm(QWebFrame*, const QString&)  - Undefined Reference
    _ZN8QWebPage17javaScriptConfirmEP9QWebFrameRK7QString@QtWebKit{00040800}[200267c2].dll  - Undefined Reference
    QWebPage::setContentEditable(bool)        - Undefined Reference
    _ZN8QWebPage18setContentEditableEb@QtWebKit{00040800}[200267c2].dll  - Undefined Reference
    QWebPage::setFeaturePermission(QWebFrame*, QWebPage::Feature, QWebPage::PermissionPolicy)  - Undefined Reference
    _ZN8QWebPage20setFeaturePermissionEP9QWebFrameNS_7FeatureENS_16PermissionPolicyE@QtWebKit{00040800}[200267c2].dll  - Undefined Reference
    QWebPage::acceptNavigationRequest(QWebFrame*, const QNetworkRequest&, QWebPage::NavigationType)  - Undefined Reference
    _ZN8QWebPage23acceptNavigationRequestEP9QWebFrameRK15QNetworkRequestNS_14NavigationTypeE@QtWebKit{00040800}[200267c2].dll  - Undefined Reference
    QWebPage::javaScriptConsoleMessage(const QString&, int, const QString&)  - Undefined Reference
    _ZN8QWebPage24javaScriptConsoleMessageERK7QStringiS2_@QtWebKit{00040800}[200267c2].dll  - Undefined Reference
    QWebPage::createStandardContextMenu()     - Undefined Reference
    _ZN8QWebPage25createStandardContextMenuEv@QtWebKit{00040800}[200267c2].dll  - Undefined Reference
    QWebPage::shouldInterruptJavaScript()     - Undefined Reference
    _ZN8QWebPage25shouldInterruptJavaScriptEv@QtWebKit{00040800}[200267c2].dll  - Undefined Reference
    QWebPage::event(QEvent*)                  - Undefined Reference
    _ZN8QWebPage5eventEP6QEvent@QtWebKit{00040800}[200267c2].dll  - Undefined Reference
    QWebPage::QWebPage(QObject*)              - Undefined Reference
    _ZN8QWebPageC1EP7QObject@QtWebKit{00040800}[200267c2].dll  - Undefined Reference
    QWebPage::~QWebPage()                     - Undefined Reference
    _ZN8QWebPageD1Ev@QtWebKit{00040800}[200267c2].dll  - Undefined Reference
    QWebView::paintEvent(QPaintEvent*)        - Undefined Reference
    _ZN8QWebView10paintEventEP11QPaintEvent@QtWebKit{00040800}[200267c2].dll  - Undefined Reference
    QWebView::wheelEvent(QWheelEvent*)        - Undefined Reference
    _ZN8QWebView10wheelEventEP11QWheelEvent@QtWebKit{00040800}[200267c2].dll  - Undefined Reference
    QWebView::changeEvent(QEvent*)            - Undefined Reference
    _ZN8QWebView11changeEventEP6QEvent@QtWebKit{00040800}[200267c2].dll  - Undefined Reference
    QWebView::qt_metacall(QMetaObject::Call, int, void**)  - Undefined Reference
    _ZN8QWebView11qt_metacallEN11QMetaObject4CallEiPPv@QtWebKit{00040800}[200267c2].dll  - Undefined Reference
    QWebView::qt_metacast(const char*)        - Undefined Reference
    _ZN8QWebView11qt_metacastEPKc@QtWebKit{00040800}[200267c2].dll  - Undefined Reference
    QWebView::resizeEvent(QResizeEvent*)      - Undefined Reference
    _ZN8QWebView11resizeEventEP12QResizeEvent@QtWebKit{00040800}[200267c2].dll  - Undefined Reference
    QWebView::createWindow(QWebPage::WebWindowType)  - Undefined Reference
    _ZN8QWebView12createWindowEN8QWebPage13WebWindowTypeE@QtWebKit{00040800}[200267c2].dll  - Undefined Reference
    QWebView::focusInEvent(QFocusEvent*)      - Undefined Reference
    _ZN8QWebView12focusInEventEP11QFocusEvent@QtWebKit{00040800}[200267c2].dll  - Undefined Reference
    QWebView::dragMoveEvent(QDragMoveEvent*)  - Undefined Reference
    _ZN8QWebView13dragMoveEventEP14QDragMoveEvent@QtWebKit{00040800}[200267c2].dll  - Undefined Reference
    QWebView::focusOutEvent(QFocusEvent*)     - Undefined Reference
    _ZN8QWebView13focusOutEventEP11QFocusEvent@QtWebKit{00040800}[200267c2].dll  - Undefined Reference
    QWebView::keyPressEvent(QKeyEvent*)       - Undefined Reference
    _ZN8QWebView13keyPressEventEP9QKeyEvent@QtWebKit{00040800}[200267c2].dll  - Undefined Reference
    QWebView::dragEnterEvent(QDragEnterEvent*)  - Undefined Reference
    _ZN8QWebView14dragEnterEventEP15QDragEnterEvent@QtWebKit{00040800}[200267c2].dll  - Undefined Reference
    QWebView::dragLeaveEvent(QDragLeaveEvent*)  - Undefined Reference
    _ZN8QWebView14dragLeaveEventEP15QDragLeaveEvent@QtWebKit{00040800}[200267c2].dll  - Undefined Reference
    QWebView::mouseMoveEvent(QMouseEvent*)    - Undefined Reference
    _ZN8QWebView14mouseMoveEventEP11QMouseEvent@QtWebKit{00040800}[200267c2].dll  - Undefined Reference
    QWebView::keyReleaseEvent(QKeyEvent*)     - Undefined Reference
    _ZN8QWebView15keyReleaseEventEP9QKeyEvent@QtWebKit{00040800}[200267c2].dll  - Undefined Reference
    QWebView::mousePressEvent(QMouseEvent*)   - Undefined Reference
    _ZN8QWebView15mousePressEventEP11QMouseEvent@QtWebKit{00040800}[200267c2].dll  - Undefined Reference
    QWebView::inputMethodEvent(QInputMethodEvent*)  - Undefined Reference
    _ZN8QWebView16inputMethodEventEP17QInputMethodEvent@QtWebKit{00040800}[200267c2].dll  - Undefined Reference
    QWebView::staticMetaObject                - Undefined Reference
    _ZN8QWebView16staticMetaObjectE@QtWebKit{00040800}[200267c2].dll  - Undefined Reference
    QWebView::mouseReleaseEvent(QMouseEvent*)  - Undefined Reference
    _ZN8QWebView17mouseReleaseEventEP11QMouseEvent@QtWebKit{00040800}[200267c2].dll  - Undefined Reference
    QWebView::focusNextPrevChild(bool)        - Undefined Reference
    _ZN8QWebView18focusNextPrevChildEb@QtWebKit{00040800}[200267c2].dll  - Undefined Reference
    QWebView::mouseDoubleClickEvent(QMouseEvent*)  - Undefined Reference
    _ZN8QWebView21mouseDoubleClickEventEP11QMouseEvent@QtWebKit{00040800}[200267c2].dll  - Undefined Reference
    QWebView::event(QEvent*)                  - Undefined Reference
    _ZN8QWebView5eventEP6QEvent@QtWebKit{00040800}[200267c2].dll  - Undefined Reference
    QWebView::setPage(QWebPage*)              - Undefined Reference
    _ZN8QWebView7setPageEP8QWebPage@QtWebKit{00040800}[200267c2].dll  - Undefined Reference
    QWebView::dropEvent(QDropEvent*)          - Undefined Reference
    _ZN8QWebView9dropEventEP10QDropEvent@QtWebKit{00040800}[200267c2].dll  - Undefined Reference
    QWebView::QWebView(QWidget*)              - Undefined Reference
    _ZN8QWebViewC1EP7QWidget@QtWebKit{00040800}[200267c2].dll  - Undefined Reference
    QWebView::~QWebView()                     - Undefined Reference
    _ZN8QWebViewD1Ev@QtWebKit{00040800}[200267c2].dll  - Undefined Reference
    QComboBox::insertItems(int, const QStringList&)  - Undefined Reference
    _ZN9QComboBox11insertItemsEiRK11QStringList@QtGui{00040703}[2001b2dd].dll  - Undefined Reference
    QComboBox::setEditable(bool)              - Undefined Reference
    _ZN9QComboBox11setEditableEb@QtGui{00040703}[2001b2dd].dll  - Undefined Reference
    QComboBox::setCurrentIndex(int)           - Undefined Reference
    _ZN9QComboBox15setCurrentIndexEi@QtGui{00040703}[2001b2dd].dll  - Undefined Reference
    QComboBox::setSizeAdjustPolicy(QComboBox::SizeAdjustPolicy)  - Undefined Reference
    _ZN9QComboBox19setSizeAdjustPolicyENS_16SizeAdjustPolicyE@QtGui{00040703}[2001b2dd].dll  - Undefined Reference
    QComboBox::QComboBox(QWidget*)            - Undefined Reference
    _ZN9QComboBoxC1EP7QWidget@QtGui{00040703}[2001b2dd].dll  - Undefined Reference
    QFileInfo::QFileInfo(const QString&)      - Undefined Reference
    _ZN9QFileInfoC1ERK7QString@QtCore{00040703}[2001b2dc].dll  - Undefined Reference
    QFileInfo::~QFileInfo()                   - Undefined Reference
    _ZN9QFileInfoD1Ev@QtCore{00040703}[2001b2dc].dll  - Undefined Reference
    QGLWidget::QGLWidget(QWidget*, const QGLWidget*, QFlags<Qt::WindowType>)  - Undefined Reference
    _ZN9QGLWidgetC1EP7QWidgetPKS_6QFlagsIN2Qt10WindowTypeEE@QtOpenGL{00040703}[2002131a].dll  - Undefined Reference
    QGradient::setColorAt(float, const QColor&)  - Undefined Reference
    _ZN9QGradient10setColorAtEfRK6QColor@QtGui{00040703}[2001b2dd].dll  - Undefined Reference
    QIODevice::readLine(long long)            - Undefined Reference
    _ZN9QIODevice8readLineEx@QtCore{00040703}[2001b2dc].dll  - Undefined Reference
    QLineEdit::paintEvent(QPaintEvent*)       - Undefined Reference
    _ZN9QLineEdit10paintEventEP11QPaintEvent@QtGui{00040703}[2001b2dd].dll  - Undefined Reference
    QLineEdit::changeEvent(QEvent*)           - Undefined Reference
    _ZN9QLineEdit11changeEventEP6QEvent@QtGui{00040703}[2001b2dd].dll  - Undefined Reference
    QLineEdit::qt_metacall(QMetaObject::Call, int, void**)  - Undefined Reference
    _ZN9QLineEdit11qt_metacallEN11QMetaObject4CallEiPPv@QtGui{00040703}[2001b2dd].dll  - Undefined Reference
    QLineEdit::qt_metacast(const char*)       - Undefined Reference
    _ZN9QLineEdit11qt_metacastEPKc@QtGui{00040703}[2001b2dd].dll  - Undefined Reference
    QLineEdit::setEchoMode(QLineEdit::EchoMode)  - Undefined Reference
    _ZN9QLineEdit11setEchoModeENS_8EchoModeE@QtGui{00040703}[2001b2dd].dll  - Undefined Reference
    QLineEdit::focusInEvent(QFocusEvent*)     - Undefined Reference
    _ZN9QLineEdit12focusInEventEP11QFocusEvent@QtGui{00040703}[2001b2dd].dll  - Undefined Reference
    QLineEdit::setCompleter(QCompleter*)      - Undefined Reference
    _ZN9QLineEdit12setCompleterEP10QCompleter@QtGui{00040703}[2001b2dd].dll  - Undefined Reference
    QLineEdit::dragMoveEvent(QDragMoveEvent*)  - Undefined Reference
    _ZN9QLineEdit13dragMoveEventEP14QDragMoveEvent@QtGui{00040703}[2001b2dd].dll  - Undefined Reference
    QLineEdit::focusOutEvent(QFocusEvent*)    - Undefined Reference
    _ZN9QLineEdit13focusOutEventEP11QFocusEvent@QtGui{00040703}[2001b2dd].dll  - Undefined Reference
    QLineEdit::keyPressEvent(QKeyEvent*)      - Undefined Reference
    _ZN9QLineEdit13keyPressEventEP9QKeyEvent@QtGui{00040703}[2001b2dd].dll  - Undefined Reference
    QLineEdit::dragEnterEvent(QDragEnterEvent*)  - Undefined Reference
    _ZN9QLineEdit14dragEnterEventEP15QDragEnterEvent@QtGui{00040703}[2001b2dd].dll  - Undefined Reference
    QLineEdit::dragLeaveEvent(QDragLeaveEvent*)  - Undefined Reference
    _ZN9QLineEdit14dragLeaveEventEP15QDragLeaveEvent@QtGui{00040703}[2001b2dd].dll  - Undefined Reference
    QLineEdit::mouseMoveEvent(QMouseEvent*)   - Undefined Reference
    _ZN9QLineEdit14mouseMoveEventEP11QMouseEvent@QtGui{00040703}[2001b2dd].dll  - Undefined Reference
    QLineEdit::mousePressEvent(QMouseEvent*)  - Undefined Reference
    _ZN9QLineEdit15mousePressEventEP11QMouseEvent@QtGui{00040703}[2001b2dd].dll  - Undefined Reference
    QLineEdit::contextMenuEvent(QContextMenuEvent*)  - Undefined Reference
    _ZN9QLineEdit16contextMenuEventEP17QContextMenuEvent@QtGui{00040703}[2001b2dd].dll  - Undefined Reference
    QLineEdit::inputMethodEvent(QInputMethodEvent*)  - Undefined Reference
    _ZN9QLineEdit16inputMethodEventEP17QInputMethodEvent@QtGui{00040703}[2001b2dd].dll  - Undefined Reference
    QLineEdit::staticMetaObject               - Undefined Reference
    _ZN9QLineEdit16staticMetaObjectE@QtGui{00040703}[2001b2dd].dll  - Undefined Reference
    QLineEdit::mouseReleaseEvent(QMouseEvent*)  - Undefined Reference
    _ZN9QLineEdit17mouseReleaseEventEP11QMouseEvent@QtGui{00040703}[2001b2dd].dll  - Undefined Reference
    QLineEdit::mouseDoubleClickEvent(QMouseEvent*)  - Undefined Reference
    _ZN9QLineEdit21mouseDoubleClickEventEP11QMouseEvent@QtGui{00040703}[2001b2dd].dll  - Undefined Reference
    QLineEdit::event(QEvent*)                 - Undefined Reference
    _ZN9QLineEdit5eventEP6QEvent@QtGui{00040703}[2001b2dd].dll  - Undefined Reference
    QLineEdit::setText(const QString&)        - Undefined Reference
    _ZN9QLineEdit7setTextERK7QString@QtGui{00040703}[2001b2dd].dll  - Undefined Reference
    QLineEdit::dropEvent(QDropEvent*)         - Undefined Reference
    _ZN9QLineEdit9dropEventEP10QDropEvent@QtGui{00040703}[2001b2dd].dll  - Undefined Reference
    QLineEdit::selectAll()                    - Undefined Reference
    _ZN9QLineEdit9selectAllEv@QtGui{00040703}[2001b2dd].dll  - Undefined Reference
    QLineEdit::QLineEdit(QWidget*)            - Undefined Reference
    _ZN9QLineEditC1EP7QWidget@QtGui{00040703}[2001b2dd].dll  - Undefined Reference
    QLineEdit::~QLineEdit()                   - Undefined Reference
    _ZN9QLineEditD1Ev@QtGui{00040703}[2001b2dd].dll  - Undefined Reference
    QListData::detach_grow(int*, int)         - Undefined Reference
    _ZN9QListData11detach_growEPii@QtCore{00040703}[2001b2dc].dll  - Undefined Reference
    QListData::shared_null                    - Undefined Reference
    _ZN9QListData11shared_nullE@QtCore{00040703}[2001b2dc].dll  - Undefined Reference
    QListData::append()                       - Undefined Reference
    _ZN9QListData6appendEv@QtCore{00040703}[2001b2dc].dll  - Undefined Reference
    QListData::detach(int)                    - Undefined Reference
    _ZN9QListData6detachEi@QtCore{00040703}[2001b2dc].dll  - Undefined Reference
    QListData::remove(int)                    - Undefined Reference
    _ZN9QListData6removeEi@QtCore{00040703}[2001b2dc].dll  - Undefined Reference
    QListData::remove(int, int)               - Undefined Reference
    _ZN9QListData6removeEii@QtCore{00040703}[2001b2dc].dll  - Undefined Reference
    QListData::realloc(int)                   - Undefined Reference
    _ZN9QListData7reallocEi@QtCore{00040703}[2001b2dc].dll  - Undefined Reference
    QSettings::setValue(const QString&, const QVariant&)  - Undefined Reference
    _ZN9QSettings8setValueERK7QStringRK8QVariant@QtCore{00040703}[2001b2dc].dll  - Undefined Reference
    QSettings::QSettings(QObject*)            - Undefined Reference
    _ZN9QSettingsC1EP7QObject@QtCore{00040703}[2001b2dc].dll  - Undefined Reference
    QSettings::~QSettings()                   - Undefined Reference
    _ZN9QSettingsD1Ev@QtCore{00040703}[2001b2dc].dll  - Undefined Reference
    QSplitter::QSplitter(Qt::Orientation, QWidget*)  - Undefined Reference
    _ZN9QSplitterC1EN2Qt11OrientationEP7QWidget@QtGui{00040703}[2001b2dd].dll  - Undefined Reference
    QWebFrame::setZoomFactor(float)           - Undefined Reference
    _ZN9QWebFrame13setZoomFactorEf@QtWebKit{00040800}[200267c2].dll  - Undefined Reference
    QWebFrame::load(const QNetworkRequest&, QNetworkAccessManager::Operation, const QByteArray&)  - Undefined Reference
    _ZN9QWebFrame4loadERK15QNetworkRequestN21QNetworkAccessManager9OperationERK10QByteArray@QtWebKit{00040800}[200267c2].dll  - Undefined Reference
    QWebFrame::load(const QUrl&)              - Undefined Reference
    _ZN9QWebFrame4loadERK4QUrl@QtWebKit{00040800}[200267c2].dll  - Undefined Reference
    QtPrivate::QStringList_contains(const QStringList*, const QString&, Qt::CaseSensitivity)  - Undefined Reference
    _ZN9QtPrivate20QStringList_containsEPK11QStringListRK7QStringN2Qt15CaseSensitivityE@QtCore{00040703}[2001b2dc].dll  - Undefined Reference
    QtPrivate::QStringList_lastIndexOf(const QStringList*, const QRegExp&, int)  - Undefined Reference
    _ZN9QtPrivate23QStringList_lastIndexOfEPK11QStringListRK7QRegExpi@QtCore{00040703}[2001b2dc].dll  - Undefined Reference
    QByteArray::toInt(bool*, int) const       - Undefined Reference
    _ZNK10QByteArray5toIntEPbi@QtCore{00040703}[2001b2dc].dll  - Undefined Reference
    QByteArray::trimmed() const               - Undefined Reference
    _ZNK10QByteArray7trimmedEv@QtCore{00040703}[2001b2dc].dll  - Undefined Reference
    QFileDialog::selectedFiles() const        - Undefined Reference
    _ZNK11QFileDialog13selectedFilesEv@QtGui{00040703}[2001b2dd].dll  - Undefined Reference
    QMainWindow::centralWidget() const        - Undefined Reference
    _ZNK11QMainWindow13centralWidgetEv@QtGui{00040703}[2001b2dd].dll  - Undefined Reference
    QMainWindow::menuBar() const              - Undefined Reference
    _ZNK11QMainWindow7menuBarEv@QtGui{00040703}[2001b2dd].dll  - Undefined Reference
    QMainWindow::statusBar() const            - Undefined Reference
    _ZNK11QMainWindow9statusBarEv@QtGui{00040703}[2001b2dd].dll  - Undefined Reference
    QMetaObject::enumerator(int) const        - Undefined Reference
    _ZNK11QMetaObject10enumeratorEi@QtCore{00040703}[2001b2dc].dll  - Undefined Reference
    QMetaObject::indexOfEnumerator(const char*) const  - Undefined Reference
    _ZNK11QMetaObject17indexOfEnumeratorEPKc@QtCore{00040703}[2001b2dc].dll  - Undefined Reference
    QMetaObject::tr(const char*, const char*) const  - Undefined Reference
    _ZNK11QMetaObject2trEPKcS1_@QtCore{00040703}[2001b2dc].dll  - Undefined Reference
    QMetaObject::cast(QObject*) const         - Undefined Reference
    _ZNK11QMetaObject4castEP7QObject@QtCore{00040703}[2001b2dc].dll  - Undefined Reference
    QTouchEvent::TouchPoint::id() const       - Undefined Reference
    _ZNK11QTouchEvent10TouchPoint2idEv@QtGui{00040703}[2001b2dd].dll  - Undefined Reference
    QTouchEvent::TouchPoint::state() const    - Undefined Reference
    _ZNK11QTouchEvent10TouchPoint5stateEv@QtGui{00040703}[2001b2dd].dll  - Undefined Reference
    QWebSettings::testAttribute(QWebSettings::WebAttribute) const  - Undefined Reference
    _ZNK12QWebSettings13testAttributeENS_12WebAttributeE@QtWebKit{00040800}[200267c2].dll  - Undefined Reference
    QGraphicsItem::opaqueArea() const         - Undefined Reference
    _ZNK13QGraphicsItem10opaqueAreaEv@QtGui{00040703}[2001b2dd].dll  - Undefined Reference
    QGraphicsItem::isObscuredBy(const QGraphicsItem*) const  - Undefined Reference
    _ZNK13QGraphicsItem12isObscuredByEPKS_@QtGui{00040703}[2001b2dd].dll  - Undefined Reference
    QGraphicsItem::collidesWithItem(const QGraphicsItem*, Qt::ItemSelectionMode) const  - Undefined Reference
    _ZNK13QGraphicsItem16collidesWithItemEPKS_N2Qt17ItemSelectionModeE@QtGui{00040703}[2001b2dd].dll  - Undefined Reference
    QGraphicsItem::collidesWithPath(const QPainterPath&, Qt::ItemSelectionMode) const  - Undefined Reference
    _ZNK13QGraphicsItem16collidesWithPathERK12QPainterPathN2Qt17ItemSelectionModeE@QtGui{00040703}[2001b2dd].dll  - Undefined Reference
    QGraphicsItem::supportsExtension(QGraphicsItem::Extension) const  - Undefined Reference
    _ZNK13QGraphicsItem17supportsExtensionENS_9ExtensionE@QtGui{00040703}[2001b2dd].dll  - Undefined Reference
    QGraphicsItem::scale() const              - Undefined Reference
    _ZNK13QGraphicsItem5scaleEv@QtGui{00040703}[2001b2dd].dll  - Undefined Reference
    QGraphicsItem::contains(const QPointF&) const  - Undefined Reference
    _ZNK13QGraphicsItem8containsERK7QPointF@QtGui{00040703}[2001b2dd].dll  - Undefined Reference
    QGraphicsItem::rotation() const           - Undefined Reference
    _ZNK13QGraphicsItem8rotationEv@QtGui{00040703}[2001b2dd].dll  - Undefined Reference
    QGraphicsItem::extension(const QVariant&) const  - Undefined Reference
    _ZNK13QGraphicsItem9extensionERK8QVariant@QtGui{00040703}[2001b2dd].dll  - Undefined Reference
    QGraphicsView::inputMethodQuery(Qt::InputMethodQuery) const  - Undefined Reference
    _ZNK13QGraphicsView16inputMethodQueryEN2Qt16InputMethodQueryE@QtGui{00040703}[2001b2dd].dll  - Undefined Reference
    QGraphicsView::scene() const              - Undefined Reference
    _ZNK13QGraphicsView5sceneEv@QtGui{00040703}[2001b2dd].dll  - Undefined Reference
    QGraphicsView::sizeHint() const           - Undefined Reference
    _ZNK13QGraphicsView8sizeHintEv@QtGui{00040703}[2001b2dd].dll  - Undefined Reference
    QNetworkReply::url() const                - Undefined Reference
    _ZNK13QNetworkReply3urlEv@QtNetwork{00040703}[2001b2de].dll  - Undefined Reference
    QWebInspector::sizeHint() const           - Undefined Reference
    _ZNK13QWebInspector8sizeHintEv@QtWebKit{00040800}[200267c2].dll  - Undefined Reference
    QGraphicsWidget::boundingRect() const     - Undefined Reference
    _ZNK15QGraphicsWidget12boundingRectEv@QtGui{00040703}[2001b2dd].dll  - Undefined Reference
    QGraphicsWidget::initStyleOption(QStyleOption*) const  - Undefined Reference
    _ZNK15QGraphicsWidget15initStyleOptionEP12QStyleOption@QtGui{00040703}[2001b2dd].dll  - Undefined Reference
    QGraphicsWidget::getContentsMargins(float*, float*, float*, float*) const  - Undefined Reference
    _ZNK15QGraphicsWidget18getContentsMarginsEPfS0_S0_S0_@QtGui{00040703}[2001b2dd].dll  - Undefined Reference
    QGraphicsWidget::windowFrameSectionAt(const QPointF&) const  - Undefined Reference
    _ZNK15QGraphicsWidget20windowFrameSectionAtERK7QPointF@QtGui{00040703}[2001b2dd].dll  - Undefined Reference
    QGraphicsWidget::type() const             - Undefined Reference
    _ZNK15QGraphicsWidget4typeEv@QtGui{00040703}[2001b2dd].dll  - Undefined Reference
    QGraphicsWidget::shape() const            - Undefined Reference
    _ZNK15QGraphicsWidget5shapeEv@QtGui{00040703}[2001b2dd].dll  - Undefined Reference
    QNetworkRequest::url() const              - Undefined Reference
    _ZNK15QNetworkRequest3urlEv@QtNetwork{00040703}[2001b2de].dll  - Undefined Reference
    XLeaveException::GetReason() const        - Undefined Reference
    _ZNK15XLeaveException9GetReasonEv@euser{000a0000}[100039e5].dll  - Undefined Reference
    QGraphicsWebView::inputMethodQuery(Qt::InputMethodQuery) const  - Undefined Reference
    _ZNK16QGraphicsWebView16inputMethodQueryEN2Qt16InputMethodQueryE@QtWebKit{00040800}[200267c2].dll  - Undefined Reference
    QGraphicsWebView::page() const            - Undefined Reference
    _ZNK16QGraphicsWebView4pageEv@QtWebKit{00040800}[200267c2].dll  - Undefined Reference
    QGraphicsWebView::sizeHint(Qt::SizeHint, const QSizeF&) const  - Undefined Reference
    _ZNK16QGraphicsWebView8sizeHintEN2Qt8SizeHintERK6QSizeF@QtWebKit{00040800}[200267c2].dll  - Undefined Reference
    QVariantAnimation::currentValue() const   - Undefined Reference
    _ZNK17QVariantAnimation12currentValueEv@QtCore{00040703}[2001b2dc].dll  - Undefined Reference
    QWebHitTestResult::linkUrl() const        - Undefined Reference
    _ZNK17QWebHitTestResult7linkUrlEv@QtWebKit{00040800}[200267c2].dll  - Undefined Reference
    QAbstractScrollArea::minimumSizeHint() const  - Undefined Reference
    _ZNK19QAbstractScrollArea15minimumSizeHintEv@QtGui{00040703}[2001b2dd].dll  - Undefined Reference
    QAbstractScrollArea::viewport() const     - Undefined Reference
    _ZNK19QAbstractScrollArea8viewportEv@QtGui{00040703}[2001b2dd].dll  - Undefined Reference
    QGraphicsLayoutItem::geometry() const     - Undefined Reference
    _ZNK19QGraphicsLayoutItem8geometryEv@QtGui{00040703}[2001b2dd].dll  - Undefined Reference
    QWebElementCollection::at(int) const      - Undefined Reference
    _ZNK21QWebElementCollection2atEi@QtWebKit{00040800}[200267c2].dll  - Undefined Reference
    QWebElementCollection::count() const      - Undefined Reference
    _ZNK21QWebElementCollection5countEv@QtWebKit{00040800}[200267c2].dll  - Undefined Reference
    QGraphicsSceneMouseEvent::buttons() const  - Undefined Reference
    _ZNK24QGraphicsSceneMouseEvent7buttonsEv@QtGui{00040703}[2001b2dd].dll  - Undefined Reference
    QGraphicsSceneMouseEvent::modifiers() const  - Undefined Reference
    _ZNK24QGraphicsSceneMouseEvent9modifiersEv@QtGui{00040703}[2001b2dd].dll  - Undefined Reference
    QGraphicsSceneContextMenuEvent::pos() const  - Undefined Reference
    _ZNK30QGraphicsSceneContextMenuEvent3posEv@QtGui{00040703}[2001b2dd].dll  - Undefined Reference
    QGraphicsSceneContextMenuEvent::screenPos() const  - Undefined Reference
    _ZNK30QGraphicsSceneContextMenuEvent9screenPosEv@QtGui{00040703}[2001b2dd].dll  - Undefined Reference
    QDir::exists() const                      - Undefined Reference
    _ZNK4QDir6existsEv@QtCore{00040703}[2001b2dc].dll  - Undefined Reference
    QUrl::host() const                        - Undefined Reference
    _ZNK4QUrl4hostEv@QtCore{00040703}[2001b2dc].dll  - Undefined Reference
    QUrl::port() const                        - Undefined Reference
    _ZNK4QUrl4portEv@QtCore{00040703}[2001b2dc].dll  - Undefined Reference
    QUrl::scheme() const                      - Undefined Reference
    _ZNK4QUrl6schemeEv@QtCore{00040703}[2001b2dc].dll  - Undefined Reference
    QUrl::isEmpty() const                     - Undefined Reference
    _ZNK4QUrl7isEmptyEv@QtCore{00040703}[2001b2dc].dll  - Undefined Reference
    QUrl::isValid() const                     - Undefined Reference
    _ZNK4QUrl7isValidEv@QtCore{00040703}[2001b2dc].dll  - Undefined Reference
    QUrl::toString(QFlags<QUrl::FormattingOption>) const  - Undefined Reference
    _ZNK4QUrl8toStringE6QFlagsINS_16FormattingOptionEE@QtCore{00040703}[2001b2dc].dll  - Undefined Reference
    QFile::atEnd() const                      - Undefined Reference
    _ZNK5QFile5atEndEv@QtCore{00040703}[2001b2dc].dll  - Undefined Reference
    QTime::msecsTo(const QTime&) const        - Undefined Reference
    _ZNK5QTime7msecsToERKS_@QtCore{00040703}[2001b2dc].dll  - Undefined Reference
    QAction::data() const                     - Undefined Reference
    _ZNK7QAction4dataEv@QtGui{00040703}[2001b2dd].dll  - Undefined Reference
    QObject::sender() const                   - Undefined Reference
    _ZNK7QObject6senderEv@QtCore{00040703}[2001b2dc].dll  - Undefined Reference
    QObject::property(const char*) const      - Undefined Reference
    _ZNK7QObject8propertyEPKc@QtCore{00040703}[2001b2dc].dll  - Undefined Reference
    QPixmap::save(const QString&, const char*, int) const  - Undefined Reference
    _ZNK7QPixmap4saveERK7QStringPKci@QtGui{00040703}[2001b2dd].dll  - Undefined Reference
    QString::startsWith(const QString&, Qt::CaseSensitivity) const  - Undefined Reference
    _ZNK7QString10startsWithERKS_N2Qt15CaseSensitivityE@QtCore{00040703}[2001b2dc].dll  - Undefined Reference
    QString::toLocal8Bit() const              - Undefined Reference
    _ZNK7QString11toLocal8BitEv@QtCore{00040703}[2001b2dc].dll  - Undefined Reference
    QString::arg(const QString&, int, const QChar&) const  - Undefined Reference
    _ZNK7QString3argERKS_iRK5QChar@QtCore{00040703}[2001b2dc].dll  - Undefined Reference
    QString::arg(long long, int, int, const QChar&) const  - Undefined Reference
    _ZNK7QString3argExiiRK5QChar@QtCore{00040703}[2001b2dc].dll  - Undefined Reference
    QString::mid(int, int) const              - Undefined Reference
    _ZNK7QString3midEii@QtCore{00040703}[2001b2dc].dll  - Undefined Reference
    QString::toInt(bool*, int) const          - Undefined Reference
    _ZNK7QString5toIntEPbi@QtCore{00040703}[2001b2dc].dll  - Undefined Reference
    QString::toUtf8() const                   - Undefined Reference
    _ZNK7QString6toUtf8Ev@QtCore{00040703}[2001b2dc].dll  - Undefined Reference
    QString::toLatin1() const                 - Undefined Reference
    _ZNK7QString8toLatin1Ev@QtCore{00040703}[2001b2dc].dll  - Undefined Reference
    QString::operator ==(const QLatin1String&) const  - Undefined Reference
    _ZNK7QStringeqERK13QLatin1String@QtCore{00040703}[2001b2dc].dll  - Undefined Reference
    QString::operator ==(const QString&) const  - Undefined Reference
    _ZNK7QStringeqERKS_@QtCore{00040703}[2001b2dc].dll  - Undefined Reference
    QWidget::sizePolicy() const               - Undefined Reference
    _ZNK7QWidget10sizePolicyEv@QtGui{00040703}[2001b2dd].dll  - Undefined Reference
    QWidget::paintEngine() const              - Undefined Reference
    _ZNK7QWidget11paintEngineEv@QtGui{00040703}[2001b2dd].dll  - Undefined Reference
    QWidget::windowState() const              - Undefined Reference
    _ZNK7QWidget11windowStateEv@QtGui{00040703}[2001b2dd].dll  - Undefined Reference
    QWidget::mapFromGlobal(const QPoint&) const  - Undefined Reference
    _ZNK7QWidget13mapFromGlobalERK6QPoint@QtGui{00040703}[2001b2dd].dll  - Undefined Reference
    QWidget::heightForWidth(int) const        - Undefined Reference
    _ZNK7QWidget14heightForWidthEi@QtGui{00040703}[2001b2dd].dll  - Undefined Reference
    QWidget::minimumSizeHint() const          - Undefined Reference
    _ZNK7QWidget15minimumSizeHintEv@QtGui{00040703}[2001b2dd].dll  - Undefined Reference
    QWidget::inputMethodQuery(Qt::InputMethodQuery) const  - Undefined Reference
    _ZNK7QWidget16inputMethodQueryEN2Qt16InputMethodQueryE@QtGui{00040703}[2001b2dd].dll  - Undefined Reference
    QWidget::winId() const                    - Undefined Reference
    _ZNK7QWidget5winIdEv@QtGui{00040703}[2001b2dd].dll  - Undefined Reference
    QWidget::metric(QPaintDevice::PaintDeviceMetric) const  - Undefined Reference
    _ZNK7QWidget6metricEN12QPaintDevice17PaintDeviceMetricE@QtGui{00040703}[2001b2dd].dll  - Undefined Reference
    QWidget::actions() const                  - Undefined Reference
    _ZNK7QWidget7actionsEv@QtGui{00040703}[2001b2dd].dll  - Undefined Reference
    QWidget::devType() const                  - Undefined Reference
    _ZNK7QWidget7devTypeEv@QtGui{00040703}[2001b2dd].dll  - Undefined Reference
    QWidget::palette() const                  - Undefined Reference
    _ZNK7QWidget7paletteEv@QtGui{00040703}[2001b2dd].dll  - Undefined Reference
    QWidget::sizeHint() const                 - Undefined Reference
    _ZNK7QWidget8sizeHintEv@QtGui{00040703}[2001b2dd].dll  - Undefined Reference
    QPalette::brush(QPalette::ColorGroup, QPalette::ColorRole) const  - Undefined Reference
    _ZNK8QPalette5brushENS_10ColorGroupENS_9ColorRoleE@QtGui{00040703}[2001b2dd].dll  - Undefined Reference
    QVariant::toInt(bool*) const              - Undefined Reference
    _ZNK8QVariant5toIntEPb@QtCore{00040703}[2001b2dc].dll  - Undefined Reference
    QVariant::toUrl() const                   - Undefined Reference
    _ZNK8QVariant5toUrlEv@QtCore{00040703}[2001b2dc].dll  - Undefined Reference
    QVariant::isNull() const                  - Undefined Reference
    _ZNK8QVariant6isNullEv@QtCore{00040703}[2001b2dc].dll  - Undefined Reference
    QVariant::toString() const                - Undefined Reference
    _ZNK8QVariant8toStringEv@QtCore{00040703}[2001b2dc].dll  - Undefined Reference
    QWebPage::userAgentForUrl(const QUrl&) const  - Undefined Reference
    _ZNK8QWebPage15userAgentForUrlERK4QUrl@QtWebKit{00040800}[200267c2].dll  - Undefined Reference
    QWebPage::networkAccessManager() const    - Undefined Reference
    _ZNK8QWebPage20networkAccessManagerEv@QtWebKit{00040800}[200267c2].dll  - Undefined Reference
    QWebPage::setPreferredContentsSize(const QSize&) const  - Undefined Reference
    _ZNK8QWebPage24setPreferredContentsSizeERK5QSize@QtWebKit{00040800}[200267c2].dll  - Undefined Reference
    QWebPage::action(QWebPage::WebAction) const  - Undefined Reference
    _ZNK8QWebPage6actionENS_9WebActionE@QtWebKit{00040800}[200267c2].dll  - Undefined Reference
    QWebPage::settings() const                - Undefined Reference
    _ZNK8QWebPage8settingsEv@QtWebKit{00040800}[200267c2].dll  - Undefined Reference
    QWebPage::mainFrame() const               - Undefined Reference
    _ZNK8QWebPage9mainFrameEv@QtWebKit{00040800}[200267c2].dll  - Undefined Reference
    QWebView::inputMethodQuery(Qt::InputMethodQuery) const  - Undefined Reference
    _ZNK8QWebView16inputMethodQueryEN2Qt16InputMethodQueryE@QtWebKit{00040800}[200267c2].dll  - Undefined Reference
    QWebView::page() const                    - Undefined Reference
    _ZNK8QWebView4pageEv@QtWebKit{00040800}[200267c2].dll  - Undefined Reference
    QWebView::sizeHint() const                - Undefined Reference
    _ZNK8QWebView8sizeHintEv@QtWebKit{00040800}[200267c2].dll  - Undefined Reference
    QComboBox::currentText() const            - Undefined Reference
    _ZNK9QComboBox11currentTextEv@QtGui{00040703}[2001b2dd].dll  - Undefined Reference
    QComboBox::findData(const QVariant&, int, QFlags<Qt::MatchFlag>) const  - Undefined Reference
    _ZNK9QComboBox8findDataERK8QVarianti6QFlagsIN2Qt9MatchFlagEE@QtGui{00040703}[2001b2dd].dll  - Undefined Reference
    QFileInfo::isRelative() const             - Undefined Reference
    _ZNK9QFileInfo10isRelativeEv@QtCore{00040703}[2001b2dc].dll  - Undefined Reference
    QFileInfo::absoluteFilePath() const       - Undefined Reference
    _ZNK9QFileInfo16absoluteFilePathEv@QtCore{00040703}[2001b2dc].dll  - Undefined Reference
    QFileInfo::exists() const                 - Undefined Reference
    _ZNK9QFileInfo6existsEv@QtCore{00040703}[2001b2dc].dll  - Undefined Reference
    QFileInfo::baseName() const               - Undefined Reference
    _ZNK9QFileInfo8baseNameEv@QtCore{00040703}[2001b2dc].dll  - Undefined Reference
    QKeyEvent::modifiers() const              - Undefined Reference
    _ZNK9QKeyEvent9modifiersEv@QtGui{00040703}[2001b2dd].dll  - Undefined Reference
    QLineEdit::minimumSizeHint() const        - Undefined Reference
    _ZNK9QLineEdit15minimumSizeHintEv@QtGui{00040703}[2001b2dd].dll  - Undefined Reference
    QLineEdit::inputMethodQuery(Qt::InputMethodQuery) const  - Undefined Reference
    _ZNK9QLineEdit16inputMethodQueryEN2Qt16InputMethodQueryE@QtGui{00040703}[2001b2dd].dll  - Undefined Reference
    QLineEdit::text() const                   - Undefined Reference
    _ZNK9QLineEdit4textEv@QtGui{00040703}[2001b2dd].dll  - Undefined Reference
    QLineEdit::sizeHint() const               - Undefined Reference
    _ZNK9QLineEdit8sizeHintEv@QtGui{00040703}[2001b2dd].dll  - Undefined Reference
    QMetaEnum::valueToKey(int) const          - Undefined Reference
    _ZNK9QMetaEnum10valueToKeyEi@QtCore{00040703}[2001b2dc].dll  - Undefined Reference
    QMetaEnum::name() const                   - Undefined Reference
    _ZNK9QMetaEnum4nameEv@QtCore{00040703}[2001b2dc].dll  - Undefined Reference
    QMetaEnum::keyCount() const               - Undefined Reference
    _ZNK9QMetaEnum8keyCountEv@QtCore{00040703}[2001b2dc].dll  - Undefined Reference
    QSettings::value(const QString&, const QVariant&) const  - Undefined Reference
    _ZNK9QSettings5valueERK7QStringRK8QVariant@QtCore{00040703}[2001b2dc].dll  - Undefined Reference
    QWebFrame::contentsSize() const           - Undefined Reference
    _ZNK9QWebFrame12contentsSizeEv@QtWebKit{00040800}[200267c2].dll  - Undefined Reference
    QWebFrame::hitTestContent(const QPoint&) const  - Undefined Reference
    _ZNK9QWebFrame14hitTestContentERK6QPoint@QtWebKit{00040800}[200267c2].dll  - Undefined Reference
    QWebFrame::findAllElements(const QString&) const  - Undefined Reference
    _ZNK9QWebFrame15findAllElementsERK7QString@QtWebKit{00040800}[200267c2].dll  - Undefined Reference
    QWebFrame::url() const                    - Undefined Reference
    _ZNK9QWebFrame3urlEv@QtWebKit{00040800}[200267c2].dll  - Undefined Reference
    QWebFrame::page() const                   - Undefined Reference
    _ZNK9QWebFrame4pageEv@QtWebKit{00040800}[200267c2].dll  - Undefined Reference
    QWebFrame::toHtml() const                 - Undefined Reference
    _ZNK9QWebFrame6toHtmlEv@QtWebKit{00040800}[200267c2].dll  - Undefined Reference
    typeinfo for QMainWindow                  - Undefined Reference
    _ZTI11QMainWindow@QtGui{00040703}[2001b2dd].dll  - Undefined Reference
    typeinfo for QApplication                 - Undefined Reference
    _ZTI12QApplication@QtGui{00040703}[2001b2dd].dll  - Undefined Reference
    typeinfo for QGraphicsView                - Undefined Reference
    _ZTI13QGraphicsView@QtGui{00040703}[2001b2dd].dll  - Undefined Reference
    typeinfo for QWebInspector                - Undefined Reference
    _ZTI13QWebInspector@QtWebKit{00040800}[200267c2].dll  - Undefined Reference
    typeinfo for XLeaveException              - Undefined Reference
    _ZTI15XLeaveException@drtaeabi{000a0000}.dll  - Undefined Reference
    typeinfo for QGraphicsWebView             - Undefined Reference
    _ZTI16QGraphicsWebView@QtWebKit{00040800}[200267c2].dll  - Undefined Reference
    typeinfo for QObject                      - Undefined Reference
    _ZTI7QObject@QtCore{00040703}[2001b2dc].dll  - Undefined Reference
    typeinfo for QWebPage                     - Undefined Reference
    _ZTI8QWebPage@QtWebKit{00040800}[200267c2].dll  - Undefined Reference
    typeinfo for QWebView                     - Undefined Reference
    _ZTI8QWebView@QtWebKit{00040800}[200267c2].dll  - Undefined Reference
    typeinfo for QLineEdit                    - Undefined Reference
    _ZTI9QLineEdit@QtGui{00040703}[2001b2dd].dll  - Undefined Reference
    typeinfo for std::bad_alloc               - Undefined Reference
    _ZTISt9bad_alloc@stdnew{000a0000}[20022178].dll  - Undefined Reference
    typeinfo for std::exception               - Undefined Reference
    _ZTISt9exception@stdnew{000a0000}[20022178].dll  - Undefined Reference
    vtable for QStringListModel               - Undefined Reference
    _ZTV16QStringListModel@QtGui{00040703}[2001b2dd].dll  - Undefined Reference
    vtable for __cxxabiv1::__si_class_type_info  - Undefined Reference
    _ZTVN10__cxxabiv120__si_class_type_infoE@drtaeabi{000a0000}.dll  - Undefined Reference
    thunk{-16} to QGraphicsWebView::setGeometry(const QRectF&)  - Undefined Reference
    _ZThn16_N16QGraphicsWebView11setGeometryERK6QRectF@QtWebKit{00040800}[200267c2].dll  - Undefined Reference
    thunk{-16} to QGraphicsWebView::updateGeometry()  - Undefined Reference
    _ZThn16_N16QGraphicsWebView14updateGeometryEv@QtWebKit{00040800}[200267c2].dll  - Undefined Reference
    thunk{-16} to QGraphicsWidget::getContentsMargins(float*, float*, float*, float*) const  - Undefined Reference
    _ZThn16_NK15QGraphicsWidget18getContentsMarginsEPfS0_S0_S0_@QtGui{00040703}[2001b2dd].dll  - Undefined Reference
    thunk{-16} to QGraphicsWebView::sizeHint(Qt::SizeHint, const QSizeF&) const  - Undefined Reference
    _ZThn16_NK16QGraphicsWebView8sizeHintEN2Qt8SizeHintERK6QSizeF@QtWebKit{00040800}[200267c2].dll  - Undefined Reference
    thunk{-8} to QGraphicsWebView::itemChange(QGraphicsItem::GraphicsItemChange, const QVariant&)  - Undefined Reference
    _ZThn8_N16QGraphicsWebView10itemChangeEN13QGraphicsItem18GraphicsItemChangeERK8QVariant@QtWebKit{00040800}[200267c2].dll  - Undefined Reference
    thunk{-8} to QGraphicsWebView::sceneEvent(QEvent*)  - Undefined Reference
    _ZThn8_N16QGraphicsWebView10sceneEventEP6QEvent@QtWebKit{00040800}[200267c2].dll  - Undefined Reference
    thunk{-8} to QGraphicsWebView::wheelEvent(QGraphicsSceneWheelEvent*)  - Undefined Reference
    _ZThn8_N16QGraphicsWebView10wheelEventEP24QGraphicsSceneWheelEvent@QtWebKit{00040800}[200267c2].dll  - Undefined Reference
    thunk{-8} to QGraphicsWebView::focusInEvent(QFocusEvent*)  - Undefined Reference
    _ZThn8_N16QGraphicsWebView12focusInEventEP11QFocusEvent@QtWebKit{00040800}[200267c2].dll  - Undefined Reference
    thunk{-8} to QGraphicsWebView::dragMoveEvent(QGraphicsSceneDragDropEvent*)  - Undefined Reference
    _ZThn8_N16QGraphicsWebView13dragMoveEventEP27QGraphicsSceneDragDropEvent@QtWebKit{00040800}[200267c2].dll  - Undefined Reference
    thunk{-8} to QGraphicsWebView::focusOutEvent(QFocusEvent*)  - Undefined Reference
    _ZThn8_N16QGraphicsWebView13focusOutEventEP11QFocusEvent@QtWebKit{00040800}[200267c2].dll  - Undefined Reference
    thunk{-8} to QGraphicsWebView::keyPressEvent(QKeyEvent*)  - Undefined Reference
    _ZThn8_N16QGraphicsWebView13keyPressEventEP9QKeyEvent@QtWebKit{00040800}[200267c2].dll  - Undefined Reference
    thunk{-8} to QGraphicsWebView::dragEnterEvent(QGraphicsSceneDragDropEvent*)  - Undefined Reference
    _ZThn8_N16QGraphicsWebView14dragEnterEventEP27QGraphicsSceneDragDropEvent@QtWebKit{00040800}[200267c2].dll  - Undefined Reference
    thunk{-8} to QGraphicsWebView::dragLeaveEvent(QGraphicsSceneDragDropEvent*)  - Undefined Reference
    _ZThn8_N16QGraphicsWebView14dragLeaveEventEP27QGraphicsSceneDragDropEvent@QtWebKit{00040800}[200267c2].dll  - Undefined Reference
    thunk{-8} to QGraphicsWebView::hoverMoveEvent(QGraphicsSceneHoverEvent*)  - Undefined Reference
    _ZThn8_N16QGraphicsWebView14hoverMoveEventEP24QGraphicsSceneHoverEvent@QtWebKit{00040800}[200267c2].dll  - Undefined Reference
    thunk{-8} to QGraphicsWebView::mouseMoveEvent(QGraphicsSceneMouseEvent*)  - Undefined Reference
    _ZThn8_N16QGraphicsWebView14mouseMoveEventEP24QGraphicsSceneMouseEvent@QtWebKit{00040800}[200267c2].dll  - Undefined Reference
    thunk{-8} to QGraphicsWebView::hoverLeaveEvent(QGraphicsSceneHoverEvent*)  - Undefined Reference
    _ZThn8_N16QGraphicsWebView15hoverLeaveEventEP24QGraphicsSceneHoverEvent@QtWebKit{00040800}[200267c2].dll  - Undefined Reference
    thunk{-8} to QGraphicsWebView::keyReleaseEvent(QKeyEvent*)  - Undefined Reference
    _ZThn8_N16QGraphicsWebView15keyReleaseEventEP9QKeyEvent@QtWebKit{00040800}[200267c2].dll  - Undefined Reference
    thunk{-8} to QGraphicsWebView::inputMethodEvent(QInputMethodEvent*)  - Undefined Reference
    _ZThn8_N16QGraphicsWebView16inputMethodEventEP17QInputMethodEvent@QtWebKit{00040800}[200267c2].dll  - Undefined Reference
    thunk{-8} to QGraphicsWebView::mouseReleaseEvent(QGraphicsSceneMouseEvent*)  - Undefined Reference
    _ZThn8_N16QGraphicsWebView17mouseReleaseEventEP24QGraphicsSceneMouseEvent@QtWebKit{00040800}[200267c2].dll  - Undefined Reference
    thunk{-8} to QGraphicsWebView::mouseDoubleClickEvent(QGraphicsSceneMouseEvent*)  - Undefined Reference
    _ZThn8_N16QGraphicsWebView21mouseDoubleClickEventEP24QGraphicsSceneMouseEvent@QtWebKit{00040800}[200267c2].dll  - Undefined Reference
    thunk{-8} to QGraphicsWebView::paint(QPainter*, const QStyleOptionGraphicsItem*, QWidget*)  - Undefined Reference
    _ZThn8_N16QGraphicsWebView5paintEP8QPainterPK24QStyleOptionGraphicsItemP7QWidget@QtWebKit{00040800}[200267c2].dll  - Undefined Reference
    thunk{-8} to QGraphicsWebView::dropEvent(QGraphicsSceneDragDropEvent*)  - Undefined Reference
    _ZThn8_N16QGraphicsWebView9dropEventEP27QGraphicsSceneDragDropEvent@QtWebKit{00040800}[200267c2].dll  - Undefined Reference
    thunk{-8} to QGraphicsWidget::boundingRect() const  - Undefined Reference
    _ZThn8_NK15QGraphicsWidget12boundingRectEv@QtGui{00040703}[2001b2dd].dll  - Undefined Reference
    thunk{-8} to QGraphicsWidget::type() const  - Undefined Reference
    _ZThn8_NK15QGraphicsWidget4typeEv@QtGui{00040703}[2001b2dd].dll  - Undefined Reference
    thunk{-8} to QGraphicsWidget::shape() const  - Undefined Reference
    _ZThn8_NK15QGraphicsWidget5shapeEv@QtGui{00040703}[2001b2dd].dll  - Undefined Reference
    thunk{-8} to QGraphicsWebView::inputMethodQuery(Qt::InputMethodQuery) const  - Undefined Reference
    _ZThn8_NK16QGraphicsWebView16inputMethodQueryEN2Qt16InputMethodQueryE@QtWebKit{00040800}[200267c2].dll  - Undefined Reference
    thunk{-8} to QWidget::paintEngine() const  - Undefined Reference
    _ZThn8_NK7QWidget11paintEngineEv@QtGui{00040703}[2001b2dd].dll  - Undefined Reference
    thunk{-8} to QWidget::metric(QPaintDevice::PaintDeviceMetric) const  - Undefined Reference
    _ZThn8_NK7QWidget6metricEN12QPaintDevice17PaintDeviceMetricE@QtGui{00040703}[2001b2dd].dll  - Undefined Reference
    thunk{-8} to QWidget::devType() const     - Undefined Reference
    _ZThn8_NK7QWidget7devTypeEv@QtGui{00040703}[2001b2dd].dll  - Undefined Reference
    operator delete[] (void*)                 - Undefined Reference
    _ZdaPv@stdnew{000a0000}[20022178].dll     - Undefined Reference
    operator delete (void*)                   - Undefined Reference
    _ZdlPv@stdnew{000a0000}[20022178].dll     - Undefined Reference
    operator new(unsigned)                    - Undefined Reference
    _Znwj@stdnew{000a0000}[20022178].dll      - Undefined Reference
    __aeabi_dmul                              - Undefined Reference
    __aeabi_dmul@dfpaeabi{000a0000}.dll       - Undefined Reference
    __aeabi_f2iz                              - Undefined Reference
    __aeabi_f2iz@dfpaeabi{000a0000}.dll       - Undefined Reference
    __aeabi_fadd                              - Undefined Reference
    __aeabi_fadd@dfpaeabi{000a0000}.dll       - Undefined Reference
    __aeabi_fdiv                              - Undefined Reference
    __aeabi_fdiv@dfpaeabi{000a0000}.dll       - Undefined Reference
    __aeabi_fmul                              - Undefined Reference
    __aeabi_fmul@dfpaeabi{000a0000}.dll       - Undefined Reference
    __aeabi_frsub                             - Undefined Reference
    __aeabi_frsub@dfpaeabi{000a0000}.dll      - Undefined Reference
    __aeabi_fsub                              - Undefined Reference
    __aeabi_fsub@dfpaeabi{000a0000}.dll       - Undefined Reference
    __aeabi_i2d                               - Undefined Reference
    __aeabi_i2d@dfpaeabi{000a0000}.dll        - Undefined Reference
    __aeabi_i2f                               - Undefined Reference
    __aeabi_i2f@dfpaeabi{000a0000}.dll        - Undefined Reference
    __aeabi_idivmod                           - Undefined Reference
    __aeabi_idivmod@drtaeabi{000a0000}.dll    - Undefined Reference
    __aeabi_memcpy4                           - Undefined Reference
    __aeabi_memcpy4@drtaeabi{000a0000}.dll    - Undefined Reference
    __aeabi_unwind_cpp_pr0                    - Undefined Reference
    __aeabi_unwind_cpp_pr0@drtaeabi{000a0000}.dll  - Undefined Reference
    __aeabi_unwind_cpp_pr1                    - Undefined Reference
    __aeabi_unwind_cpp_pr1@drtaeabi{000a0000}.dll  - Undefined Reference
    __cxa_begin_catch                         - Undefined Reference
    __cxa_begin_catch@drtaeabi{000a0000}.dll  - Undefined Reference
    __cxa_end_catch                           - Undefined Reference
    __cxa_end_catch@drtaeabi{000a0000}.dll    - Undefined Reference
    __cxa_end_cleanup                         - Undefined Reference
    __cxa_end_cleanup@drtaeabi{000a0000}.dll  - Undefined Reference
    __cxa_guard_abort                         - Undefined Reference
    __cxa_guard_abort@drtaeabi{000a0000}.dll  - Undefined Reference
    __cxa_guard_acquire                       - Undefined Reference
    __cxa_guard_acquire@drtaeabi{000a0000}.dll  - Undefined Reference
    __cxa_guard_release                       - Undefined Reference
    __cxa_guard_release@drtaeabi{000a0000}.dll  - Undefined Reference
    __cxa_rethrow                             - Undefined Reference
    __cxa_rethrow@drtaeabi{000a0000}.dll      - Undefined Reference
    __stdout                                  - Undefined Reference
    __stdout@libc{00010001}[10207369].dll     - Undefined Reference
    exit                                      - Undefined Reference
    exit@libc{00010001}[10207369].dll         - Undefined Reference
    strcmp                                    - Undefined Reference
    strcmp@libc{00010001}[10207369].dll       - Undefined Reference
    Image$$ER_RO$$Base                       0x00008000   Number         0  anon$$obj.o(linker$$defined$$symbols)
    _E32Startup                              0x00008000   ARM Code     112  uc_exe_.o(.emb_text)
    Symbian$$CPP$$Exception$$Descriptor      0x0000805c   Data           0  uc_exe_.o(.emb_text)
    CallMain(int, char**, char**)            0x00008070   ARM Code       4  qts60main_mcrt0.o(.emb_text)
    __cpp_initialize__aeabi_                 0x00008074   ARM Code      52  ucppinit.o(.emb_text)
    std::nothrow                             0x000080a8   ARM Code       0  ucppinit.o(.emb_text)
    __PLT                                    0x000080a8   ARM Code       0  anon$$obj.o(.plt)
    _xxxx_call_user_invariant                0x00008df8   ARM Code       4  uc_exe_.o(.text)
    _xxxx_call_user_handle_exception         0x00008dfc   ARM Code       4  uc_exe_.o(.text)
    LocationEdit::LocationEdit(QWidget*)     0x00008e01   Thumb Code    68  locationedit.o(.text)
    LocationEdit::LocationEdit__sub_object(QWidget*) 0x00008e01   Thumb Code     0  locationedit.o(.text)
    LocationEdit::setProgress(int)           0x00008e45   Thumb Code    22  locationedit.o(.text)
    LocationEdit::reset()                    0x00008e5b   Thumb Code     4  locationedit.o(.text)
    LocationEdit::paintEvent(QPaintEvent*)   0x00008e5f   Thumb Code   282  locationedit.o(.text)
    LocationEdit::focusInEvent(QFocusEvent*) 0x00008f79   Thumb Code     8  locationedit.o(.text)
    LauncherWindow::isGraphicsBased() const  0x00008fa5   Thumb Code    20  launcherwindow.o(.text)
    LauncherWindow::createChrome()           0x00008fb9   Thumb Code  4962  launcherwindow.o(.text)
    LauncherWindow::toggleResizesToContents(bool) 0x0000a31b   Thumb Code    14  launcherwindow.o(.text)
    LauncherWindow::applyPrefs()             0x0000a329   Thumb Code   120  launcherwindow.o(.text)
    LauncherWindow::initializeView()         0x0000a3a1   Thumb Code   712  launcherwindow.o(.text)
    LauncherWindow::grabZoomKeys(bool)       0x0000a669   Thumb Code     2  launcherwindow.o(.text)
    LauncherWindow::init()                   0x0000a66b   Thumb Code   296  launcherwindow.o(.text)
    LauncherWindow::LauncherWindow(WindowOptions*, QGraphicsScene*) 0x0000a793   Thumb Code   192  launcherwindow.o(.text)
    LauncherWindow::LauncherWindow__sub_object(WindowOptions*, QGraphicsScene*) 0x0000a793   Thumb Code     0  launcherwindow.o(.text)
    LauncherWindow::~LauncherWindow()        0x0000a853   Thumb Code    40  launcherwindow.o(.text)
    LauncherWindow::~LauncherWindow__sub_object() 0x0000a853   Thumb Code     0  launcherwindow.o(.text)
    LauncherWindow::~LauncherWindow__deallocating() 0x0000a87b   Thumb Code    16  launcherwindow.o(.text)
    thunk{-8} to LauncherWindow::~LauncherWindow__deallocating() 0x0000a88b   Thumb Code     4  launcherwindow.o(.text)
    thunk{-8} to LauncherWindow::~LauncherWindow() 0x0000a88f   Thumb Code     4  launcherwindow.o(.text)
    LauncherWindow::keyPressEvent(QKeyEvent*) 0x0000a893   Thumb Code     8  launcherwindow.o(.text)
    LauncherWindow::sendTouchEvent()         0x0000a89b   Thumb Code   256  launcherwindow.o(.text)
    LauncherWindow::eventFilter(QObject*, QEvent*) 0x0000a99b   Thumb Code   670  launcherwindow.o(.text)
    LauncherWindow::loadStarted()            0x0000ac39   Thumb Code    12  launcherwindow.o(.text)
    LauncherWindow::loadFinished()           0x0000ac45   Thumb Code    64  launcherwindow.o(.text)
    LauncherWindow::showLinkHover(const QString&, const QString&) 0x0000ac85   Thumb Code    46  launcherwindow.o(.text)
    LauncherWindow::applyZoom()              0x0000acb3   Thumb Code   278  launcherwindow.o(.text)
    LauncherWindow::zoomIn()                 0x0000adc9   Thumb Code    48  launcherwindow.o(.text)
    LauncherWindow::zoomOut()                0x0000adf9   Thumb Code    40  launcherwindow.o(.text)
    LauncherWindow::resetZoom()              0x0000ae21   Thumb Code     6  launcherwindow.o(.text)
    LauncherWindow::toggleZoomTextOnly(bool) 0x0000ae27   Thumb Code    22  launcherwindow.o(.text)
    LauncherWindow::zoomAnimationFinished()  0x0000ae3d   Thumb Code    24  launcherwindow.o(.text)
    LauncherWindow::print()                  0x0000ae55   Thumb Code     2  launcherwindow.o(.text)
    LauncherWindow::screenshot()             0x0000ae57   Thumb Code   134  launcherwindow.o(.text)
    LauncherWindow::setEditable(bool)        0x0000aedd   Thumb Code    26  launcherwindow.o(.text)
    LauncherWindow::dumpHtml()               0x0000aef7   Thumb Code   140  launcherwindow.o(.text)
    LauncherWindow::setTouchMocking(bool)    0x0000af83   Thumb Code     6  launcherwindow.o(.text)
    LauncherWindow::toggleWebView(bool)      0x0000af89   Thumb Code    32  launcherwindow.o(.text)
    LauncherWindow::toggleAcceleratedCompositing(bool) 0x0000afa9   Thumb Code    26  launcherwindow.o(.text)
    LauncherWindow::toggleTiledBackingStore(bool) 0x0000afc3   Thumb Code    22  launcherwindow.o(.text)
    LauncherWindow::toggleSpatialNavigation(bool) 0x0000afd9   Thumb Code    22  launcherwindow.o(.text)
    LauncherWindow::toggleFullScreenMode(bool) 0x0000afef   Thumb Code    22  launcherwindow.o(.text)
    LauncherWindow::toggleFrameFlattening(bool) 0x0000b005   Thumb Code    26  launcherwindow.o(.text)
    LauncherWindow::toggleInterruptingJavaScriptEnabled(bool) 0x0000b01f   Thumb Code    12  launcherwindow.o(.text)
    LauncherWindow::toggleJavascriptCanOpenWindows(bool) 0x0000b02b   Thumb Code    22  launcherwindow.o(.text)
    LauncherWindow::toggleQGLWidgetViewport(bool) 0x0000b041   Thumb Code    66  launcherwindow.o(.text)
    LauncherWindow::changeViewportUpdateMode(int) 0x0000b083   Thumb Code   114  launcherwindow.o(.text)
    LauncherWindow::animatedFlip()           0x0000b0f5   Thumb Code    14  launcherwindow.o(.text)
    LauncherWindow::animatedYFlip()          0x0000b103   Thumb Code    14  launcherwindow.o(.text)
    LauncherWindow::selectElements()         0x0000b111   Thumb Code   376  launcherwindow.o(.text)
    LauncherWindow::showFPS(bool)            0x0000b289   Thumb Code    42  launcherwindow.o(.text)
    LauncherWindow::showUserAgentDialog()    0x0000b2b3   Thumb Code  1034  launcherwindow.o(.text)
    LauncherWindow::newWindow()              0x0000b6bd   Thumb Code    38  launcherwindow.o(.text)
    LauncherWindow::cloneWindow()            0x0000b6e3   Thumb Code    50  launcherwindow.o(.text)
    LauncherWindow::updateFPS(int)           0x0000b715   Thumb Code    78  launcherwindow.o(.text)
    launcherMain(const QApplication&)        0x0000b7a1   Thumb Code     8  main.o(.text)
    LauncherApplication::handleUserOptions() 0x0000b7e7   Thumb Code  2298  main.o(.text)
    LauncherApplication::applyDefaultSettings() 0x0000c0e1   Thumb Code    62  main.o(.text)
    LauncherApplication::LauncherApplication(int&, char**) 0x0000c11f   Thumb Code   112  main.o(.text)
    LauncherApplication::LauncherApplication__sub_object(int&, char**) 0x0000c11f   Thumb Code     0  main.o(.text)
    main                                     0x0000c18f   Thumb Code   598  main.o(.text)
    LauncherApplication::getStaticMetaObject() 0x0000c3e5   Thumb Code     4  main.o(.text)
    LauncherApplication::metaObject() const  0x0000c3e9   Thumb Code    12  main.o(.text)
    LauncherApplication::qt_metacast(const char*) 0x0000c3f5   Thumb Code    40  main.o(.text)
    LauncherApplication::qt_metacall(QMetaObject::Call, int, void**) 0x0000c41d   Thumb Code     8  main.o(.text)
    MainWindow::page()                       0x0000c465   Thumb Code     4  mainwindow.o(.text)
    MainWindow::buildUI()                    0x0000c469   Thumb Code  1008  mainwindow.o(.text)
    MainWindow::MainWindow(const QString&)   0x0000c859   Thumb Code   152  mainwindow.o(.text)
    MainWindow::MainWindow__sub_object(const QString&) 0x0000c859   Thumb Code     0  mainwindow.o(.text)
    MainWindow::addCompleterEntry(const QUrl&) 0x0000c8f1   Thumb Code   110  mainwindow.o(.text)
    MainWindow::setAddressUrl(const QString&) 0x0000c95f   Thumb Code    10  mainwindow.o(.text)
    MainWindow::load(const QUrl&)            0x0000c969   Thumb Code    58  mainwindow.o(.text)
    MainWindow::load(const QString&)         0x0000c9a3   Thumb Code   178  mainwindow.o(.text)
    MainWindow::setPage(WebPage*)            0x0000ca55   Thumb Code    28  mainwindow.o(.text)
    MainWindow::setAddressUrl(const QUrl&)   0x0000ca71   Thumb Code    32  mainwindow.o(.text)
    MainWindow::openFile()                   0x0000ca91   Thumb Code   238  mainwindow.o(.text)
    MainWindow::openLocation()               0x0000cb7f   Thumb Code    20  mainwindow.o(.text)
    MainWindow::changeLocation()             0x0000cb93   Thumb Code   210  mainwindow.o(.text)
    UrlLoader::loadUrlList(const QString&)   0x0000cc65   Thumb Code   220  urlloader.o(.text)
    UrlLoader::UrlLoader(QWebFrame*, const QString&, int, int) 0x0000cd41   Thumb Code   346  urlloader.o(.text)
    UrlLoader::UrlLoader__sub_object(QWebFrame*, const QString&, int, int) 0x0000cd41   Thumb Code     0  urlloader.o(.text)
    UrlLoader::getUrl(QString&)              0x0000ce9b   Thumb Code    68  urlloader.o(.text)
    UrlLoader::loadNext()                    0x0000cedf   Thumb Code   148  urlloader.o(.text)
    UrlLoader::checkIfFinished()             0x0000cf73   Thumb Code    14  urlloader.o(.text)
    UrlLoader::frameLoadStarted()            0x0000cf81   Thumb Code    16  urlloader.o(.text)
    UrlLoader::frameLoadFinished()           0x0000cf91   Thumb Code    16  urlloader.o(.text)
    takeOptionValue(QStringList*, int)       0x0000d075   Thumb Code   142  utils.o(.text)
    formatKeys(QList<QString>)               0x0000d103   Thumb Code   134  utils.o(.text)
    enumToKeys(QMetaObject, const QString&, const QString&) 0x0000d189   Thumb Code   148  utils.o(.text)
    appQuit(int, const QString&)             0x0000d21d   Thumb Code   140  utils.o(.text)
    urlFromUserInput(const QString&)         0x0000d2a9   Thumb Code    82  utils.o(.text)
    WebPage::applyProxy()                    0x0000d315   Thumb Code   236  webpage.o(.text)
    WebPage::WebPage(QObject*)               0x0000d401   Thumb Code   348  webpage.o(.text)
    WebPage::WebPage__sub_object(QObject*)   0x0000d401   Thumb Code     0  webpage.o(.text)
    WebPage::createWindow(QWebPage::WebWindowType) 0x0000d55d   Thumb Code    52  webpage.o(.text)
    WebPage::createPlugin(const QString&, const QUrl&, const QStringList&, const QStringList&) 0x0000d591   Thumb Code    90  webpage.o(.text)
    WebPage::supportsExtension(QWebPage::Extension) const 0x0000d5eb   Thumb Code    12  webpage.o(.text)
    WebPage::extension(QWebPage::Extension, const QWebPage::ExtensionOption*, QWebPage::ExtensionReturn*) 0x0000d5f7   Thumb Code    88  webpage.o(.text)
    WebPage::openUrlInDefaultBrowser(const QUrl&) 0x0000d64f   Thumb Code    66  webpage.o(.text)
    WebPage::acceptNavigationRequest(QWebFrame*, const QNetworkRequest&, QWebPage::NavigationType) 0x0000d691   Thumb Code   168  webpage.o(.text)
    WebPage::userAgentForUrl(const QUrl&) const 0x0000d739   Thumb Code    44  webpage.o(.text)
    WebPage::shouldInterruptJavaScript()     0x0000d765   Thumb Code    18  webpage.o(.text)
    WebPage::authenticationRequired(QNetworkReply*, QAuthenticator*) 0x0000d777   Thumb Code   764  webpage.o(.text)
    WebPage::requestPermission(QWebFrame*, QWebPage::Feature) 0x0000da73   Thumb Code    10  webpage.o(.text)
    WebPage::featurePermissionRequestCanceled(QWebFrame*, QWebPage::Feature) 0x0000da7d   Thumb Code     2  webpage.o(.text)
    WebViewTraditional::contextMenuEvent(QContextMenuEvent*) 0x0000db69   Thumb Code    44  webview.o(.text)
    WebViewTraditional::mousePressEvent(QMouseEvent*) 0x0000db95   Thumb Code    80  webview.o(.text)
    GraphicsWebView::contextMenuEvent(QGraphicsSceneContextMenuEvent*) 0x0000dbe5   Thumb Code    80  webview.o(.text)
    thunk{-8} to GraphicsWebView::contextMenuEvent(QGraphicsSceneContextMenuEvent*) 0x0000dc35   Thumb Code     4  webview.o(.text)
    GraphicsWebView::mousePressEvent(QGraphicsSceneMouseEvent*) 0x0000dc39   Thumb Code    88  webview.o(.text)
    thunk{-8} to GraphicsWebView::mousePressEvent(QGraphicsSceneMouseEvent*) 0x0000dc91   Thumb Code     4  webview.o(.text)
    WebViewGraphicsBased::WebViewGraphicsBased(QWidget*) 0x0000dc95   Thumb Code   644  webview.o(.text)
    WebViewGraphicsBased::WebViewGraphicsBased__sub_object(QWidget*) 0x0000dc95   Thumb Code     0  webview.o(.text)
    WebViewGraphicsBased::setPage(QWebPage*) 0x0000df19   Thumb Code    36  webview.o(.text)
    WebViewGraphicsBased::setFrameRateMeasurementEnabled(bool) 0x0000df3d   Thumb Code    54  webview.o(.text)
    WebViewGraphicsBased::resizeEvent(QResizeEvent*) 0x0000df73   Thumb Code    96  webview.o(.text)
    WebViewGraphicsBased::paintEvent(QPaintEvent*) 0x0000dfd3   Thumb Code    14  webview.o(.text)
    WebViewGraphicsBased::setResizesToContents(bool) 0x0000dfe1   Thumb Code   272  webview.o(.text)
    WebViewGraphicsBased::updateFrameRate()  0x0000e0f1   Thumb Code    66  webview.o(.text)
    WebViewGraphicsBased::animatedFlip()     0x0000e133   Thumb Code   184  webview.o(.text)
    WebViewGraphicsBased::animatedYFlip()    0x0000e1eb   Thumb Code     8  webview.o(.text)
    WebViewGraphicsBased::contentsSizeChanged(const QSize&) 0x0000e1f3   Thumb Code    52  webview.o(.text)
    FpsTimer::FpsTimer(QObject*)             0x0000e27d   Thumb Code    24  fpstimer.o(.text)
    FpsTimer::FpsTimer__sub_object(QObject*) 0x0000e27d   Thumb Code     0  fpstimer.o(.text)
    FpsTimer::numFrames(int)                 0x0000e295   Thumb Code    82  fpstimer.o(.text)
    FpsTimer::start()                        0x0000e2e7   Thumb Code    14  fpstimer.o(.text)
    FpsTimer::stop()                         0x0000e2f5   Thumb Code    72  fpstimer.o(.text)
    FpsTimer::timerEvent(QTimerEvent*)       0x0000e33d   Thumb Code   134  fpstimer.o(.text)
    LocationEdit::getStaticMetaObject()      0x0000e3d1   Thumb Code     4  moc_locationedit.o(.text)
    LocationEdit::metaObject() const         0x0000e3d5   Thumb Code    12  moc_locationedit.o(.text)
    LocationEdit::qt_metacast(const char*)   0x0000e3e1   Thumb Code    40  moc_locationedit.o(.text)
    LocationEdit::qt_metacall(QMetaObject::Call, int, void**) 0x0000e409   Thumb Code    52  moc_locationedit.o(.text)
    LauncherWindow::getStaticMetaObject()    0x0000e441   Thumb Code     4  moc_launcherwindow.o(.text)
    LauncherWindow::metaObject() const       0x0000e445   Thumb Code    12  moc_launcherwindow.o(.text)
    LauncherWindow::qt_metacast(const char*) 0x0000e451   Thumb Code    38  moc_launcherwindow.o(.text)
    LauncherWindow::enteredFullScreenMode(bool) 0x0000e477   Thumb Code    28  moc_launcherwindow.o(.text)
    LauncherWindow::qt_metacall(QMetaObject::Call, int, void**) 0x0000e493   Thumb Code   420  moc_launcherwindow.o(.text)
    MainWindow::getStaticMetaObject()        0x0000e641   Thumb Code     4  moc_mainwindow.o(.text)
    MainWindow::metaObject() const           0x0000e645   Thumb Code    12  moc_mainwindow.o(.text)
    MainWindow::qt_metacast(const char*)     0x0000e651   Thumb Code    40  moc_mainwindow.o(.text)
    MainWindow::qt_metacall(QMetaObject::Call, int, void**) 0x0000e679   Thumb Code    82  moc_mainwindow.o(.text)
    UrlLoader::getStaticMetaObject()         0x0000e6d1   Thumb Code     4  moc_urlloader.o(.text)
    UrlLoader::metaObject() const            0x0000e6d5   Thumb Code    12  moc_urlloader.o(.text)
    UrlLoader::qt_metacast(const char*)      0x0000e6e1   Thumb Code    40  moc_urlloader.o(.text)
    UrlLoader::pageLoadFinished()            0x0000e709   Thumb Code    14  moc_urlloader.o(.text)
    UrlLoader::qt_metacall(QMetaObject::Call, int, void**) 0x0000e717   Thumb Code    76  moc_urlloader.o(.text)
    WebInspector::getStaticMetaObject()      0x0000e769   Thumb Code     4  moc_webinspector.o(.text)
    WebInspector::metaObject() const         0x0000e76d   Thumb Code    12  moc_webinspector.o(.text)
    WebInspector::qt_metacast(const char*)   0x0000e779   Thumb Code    40  moc_webinspector.o(.text)
    WebInspector::visibleChanged(bool)       0x0000e7a1   Thumb Code    28  moc_webinspector.o(.text)
    WebInspector::qt_metacall(QMetaObject::Call, int, void**) 0x0000e7bd   Thumb Code    40  moc_webinspector.o(.text)
    WebPage::getStaticMetaObject()           0x0000e7e9   Thumb Code     4  moc_webpage.o(.text)
    WebPage::metaObject() const              0x0000e7ed   Thumb Code    12  moc_webpage.o(.text)
    WebPage::qt_metacast(const char*)        0x0000e7f9   Thumb Code    38  moc_webpage.o(.text)
    WebPage::qt_metacall(QMetaObject::Call, int, void**) 0x0000e81f   Thumb Code   148  moc_webpage.o(.text)
    WebViewTraditional::getStaticMetaObject() 0x0000e8bd   Thumb Code     4  moc_webview.o(.text)
    WebViewTraditional::metaObject() const   0x0000e8c1   Thumb Code    12  moc_webview.o(.text)
    WebViewTraditional::qt_metacast(const char*) 0x0000e8cd   Thumb Code    40  moc_webview.o(.text)
    WebViewTraditional::qt_metacall(QMetaObject::Call, int, void**) 0x0000e8f5   Thumb Code     8  moc_webview.o(.text)
    GraphicsWebView::getStaticMetaObject()   0x0000e8fd   Thumb Code     6  moc_webview.o(.text)
    GraphicsWebView::metaObject() const      0x0000e903   Thumb Code    14  moc_webview.o(.text)
    GraphicsWebView::qt_metacast(const char*) 0x0000e911   Thumb Code    40  moc_webview.o(.text)
    GraphicsWebView::qt_metacall(QMetaObject::Call, int, void**) 0x0000e939   Thumb Code     8  moc_webview.o(.text)
    WebViewGraphicsBased::getStaticMetaObject() 0x0000e941   Thumb Code     6  moc_webview.o(.text)
    WebViewGraphicsBased::metaObject() const 0x0000e947   Thumb Code    14  moc_webview.o(.text)
    WebViewGraphicsBased::qt_metacast(const char*) 0x0000e955   Thumb Code    40  moc_webview.o(.text)
    WebViewGraphicsBased::currentFPSUpdated(int) 0x0000e97d   Thumb Code    32  moc_webview.o(.text)
    WebViewGraphicsBased::yFlipRequest()     0x0000e99d   Thumb Code    16  moc_webview.o(.text)
    WebViewGraphicsBased::qt_metacall(QMetaObject::Call, int, void**) 0x0000e9ad   Thumb Code   256  moc_webview.o(.text)
    FpsTimer::getStaticMetaObject()          0x0000eab1   Thumb Code     4  moc_fpstimer.o(.text)
    FpsTimer::metaObject() const             0x0000eab5   Thumb Code    12  moc_fpstimer.o(.text)
    FpsTimer::qt_metacast(const char*)       0x0000eac1   Thumb Code    40  moc_fpstimer.o(.text)
    FpsTimer::qt_metacall(QMetaObject::Call, int, void**) 0x0000eae9   Thumb Code    66  moc_fpstimer.o(.text)
    qInitResources_QtTestBrowser()           0x0000eb31   Thumb Code    20  qrc_QtTestBrowser.o(.text)
    qCleanupResources_QtTestBrowser()        0x0000eb45   Thumb Code    20  qrc_QtTestBrowser.o(.text)
    __ARM_switch8                            0x0000eb84   ARM Code      24  switch8.o(.text)
    __rt_switch8                             0x0000eb84   ARM Code       0  switch8.o(.text)
    globalDestructorFunc                     0x0000eb9c   ARM Code      24  uc_exe.o(.text)
    RunThread                                0x0000ebb4   ARM Code      68  uc_exe.o(.text)
    __aeabi_atexit                           0x0000ebfc   ARM Code      28  ucppfini.o(.text)
    __cxa_atexit                             0x0000ec18   ARM Code      48  ucppfini.o(.text)
    __cxa_finalize                           0x0000ec48   ARM Code      48  ucppfini.o(.text)
    run_static_dtors                         0x0000ec78   ARM Code       8  ucppfini.o(.text)
    __GccGlueInit                            0x0000ec8c   ARM Code       8  qts60main_mcrt0.o(.text)
    QtMainWrapper()                          0x0000ec94   ARM Code     168  qts60main_mcrt0.o(.text)
    __main                                   0x0000ed3c   ARM Code       4  qts60main_mcrt0.o(.text)
    CallThrdProcEntry                        0x0000ed40   ARM Code     116  callfirstprocessfn.o(.text)
    UserHeap::SetupThreadHeap(int, SStdEpocThreadCreateInfo&) 0x0000edb8   ARM Code       4  newallocator_hook.o(.text)
    __DLL_Export_Table__                     0x0000edbc   ARM Code       4  dllexp.o(.text)
    E32Main()                                0x0000edc0   ARM Code     120  qts60main.o(.text)
    Position Independent Long ARM to Thumb Veneer to main 0x0000f66c   ARM Code       0  anon$$obj.o(Veneer$$Code)
    qRound(float)                            0x0000f67d   Thumb Code    70  webview.o(i._Z6qRoundf)
    MainWindow::~MainWindow__deallocating()  0x0000f6c3   Thumb Code    16  moc_mainwindow.o(i._ZN10MainWindowD0Ev)
    MainWindow::~MainWindow()                0x0000f6d5   Thumb Code    40  launcherwindow.o(i._ZN10MainWindowD1Ev)
    MainWindow::~MainWindow__sub_object()    0x0000f6d5   Thumb Code     0  launcherwindow.o(i._ZN10MainWindowD1Ev)
    QByteArray::data()                       0x0000f717   Thumb Code    42  main.o(i._ZN10QByteArray4dataEv)
    QByteArray::~QByteArray()                0x0000f741   Thumb Code    24  launcherwindow.o(i._ZN10QByteArrayD1Ev)
    QByteArray::~QByteArray__sub_object()    0x0000f741   Thumb Code     0  launcherwindow.o(i._ZN10QByteArrayD1Ev)
    QStringList::QStringList(const QStringList&) 0x0000f759   Thumb Code     8  main.o(i._ZN11QStringListC1ERKS_)
    QStringList::QStringList__sub_object(const QStringList&) 0x0000f759   Thumb Code     0  main.o(i._ZN11QStringListC1ERKS_)
    QStringList::~QStringList()              0x0000f761   Thumb Code     8  launcherwindow.o(i._ZN11QStringListD1Ev)
    QStringList::~QStringList__sub_object()  0x0000f761   Thumb Code     0  launcherwindow.o(i._ZN11QStringListD1Ev)
    QStringList::operator =(const QStringList&) 0x0000f769   Thumb Code    54  main.o(i._ZN11QStringListaSERKS_)
    LocationEdit::~LocationEdit__deallocating() 0x0000f79f   Thumb Code    16  moc_locationedit.o(i._ZN12LocationEditD0Ev)
    LocationEdit::~LocationEdit()            0x0000f7b1   Thumb Code    28  moc_locationedit.o(i._ZN12LocationEditD1Ev)
    LocationEdit::~LocationEdit__sub_object() 0x0000f7b1   Thumb Code     0  moc_locationedit.o(i._ZN12LocationEditD1Ev)
    WebInspector::hideEvent(QHideEvent*)     0x0000f7db   Thumb Code    18  moc_webinspector.o(i._ZN12WebInspector9hideEventEP10QHideEvent)
    WebInspector::showEvent(QShowEvent*)     0x0000f7ed   Thumb Code    18  moc_webinspector.o(i._ZN12WebInspector9showEventEP10QShowEvent)
    WebInspector::~WebInspector__deallocating() 0x0000f7ff   Thumb Code    16  moc_webinspector.o(i._ZN12WebInspectorD0Ev)
    WebInspector::~WebInspector()            0x0000f80f   Thumb Code     8  moc_webinspector.o(i._ZN12WebInspectorD1Ev)
    WebInspector::~WebInspector__sub_object() 0x0000f80f   Thumb Code     0  moc_webinspector.o(i._ZN12WebInspectorD1Ev)
    WindowOptions::~WindowOptions()          0x0000f817   Thumb Code    12  launcherwindow.o(i._ZN13WindowOptionsD1Ev)
    WindowOptions::~WindowOptions__sub_object() 0x0000f817   Thumb Code     0  launcherwindow.o(i._ZN13WindowOptionsD1Ev)
    LauncherWindow::tr(const char*, const char*) 0x0000f825   Thumb Code    14  launcherwindow.o(i._ZN14LauncherWindow2trEPKcS1_)
    GraphicsWebView::~GraphicsWebView__deallocating() 0x0000f839   Thumb Code    16  moc_webview.o(i._ZN15GraphicsWebViewD0Ev)
    GraphicsWebView::~GraphicsWebView()      0x0000f849   Thumb Code     8  moc_webview.o(i._ZN15GraphicsWebViewD1Ev)
    GraphicsWebView::~GraphicsWebView__sub_object() 0x0000f849   Thumb Code     0  moc_webview.o(i._ZN15GraphicsWebViewD1Ev)
    QBasicAtomicInt::ref()                   0x0000f851   Thumb Code    18  launcherwindow.o(i._ZN15QBasicAtomicInt3refEv)
    QBasicAtomicInt::deref()                 0x0000f863   Thumb Code    18  launcherwindow.o(i._ZN15QBasicAtomicInt5derefEv)
    QLinearGradient::~QLinearGradient()      0x0000f875   Thumb Code     8  locationedit.o(i._ZN15QLinearGradientD1Ev)
    QLinearGradient::~QLinearGradient__sub_object() 0x0000f875   Thumb Code     0  locationedit.o(i._ZN15QLinearGradientD1Ev)
    QStringListModel::~QStringListModel()    0x0000f87d   Thumb Code    24  launcherwindow.o(i._ZN16QStringListModelD1Ev)
    QStringListModel::~QStringListModel__sub_object() 0x0000f87d   Thumb Code     0  launcherwindow.o(i._ZN16QStringListModelD1Ev)
    QForeachContainer<QStringList>::~QForeachContainer() 0x0000f8a3   Thumb Code     8  main.o(i._ZN17QForeachContainerI11QStringListED1Ev)
    QForeachContainer<QStringList>::~QForeachContainer__sub_object() 0x0000f8a3   Thumb Code     0  main.o(i._ZN17QForeachContainerI11QStringListED1Ev)
    QForeachContainer<QWebElementCollection>::~QForeachContainer() 0x0000f8ab   Thumb Code     8  launcherwindow.o(i._ZN17QForeachContainerI21QWebElementCollectionED1Ev)
    QForeachContainer<QWebElementCollection>::~QForeachContainer__sub_object() 0x0000f8ab   Thumb Code     0  launcherwindow.o(i._ZN17QForeachContainerI21QWebElementCollectionED1Ev)
    WebViewTraditional::~WebViewTraditional__deallocating() 0x0000f8b3   Thumb Code    16  moc_webview.o(i._ZN18WebViewTraditionalD0Ev)
    WebViewTraditional::~WebViewTraditional() 0x0000f8c3   Thumb Code     8  moc_webview.o(i._ZN18WebViewTraditionalD1Ev)
    WebViewTraditional::~WebViewTraditional__sub_object() 0x0000f8c3   Thumb Code     0  moc_webview.o(i._ZN18WebViewTraditionalD1Ev)
    LauncherApplication::~LauncherApplication__deallocating() 0x0000f8cb   Thumb Code    16  main.o(i._ZN19LauncherApplicationD0Ev)
    LauncherApplication::~LauncherApplication() 0x0000f8dd   Thumb Code    24  main.o(i._ZN19LauncherApplicationD1Ev)
    LauncherApplication::~LauncherApplication__sub_object() 0x0000f8dd   Thumb Code     0  main.o(i._ZN19LauncherApplicationD1Ev)
    WebViewGraphicsBased::~WebViewGraphicsBased__deallocating() 0x0000f903   Thumb Code    16  moc_webview.o(i._ZN20WebViewGraphicsBasedD0Ev)
    WebViewGraphicsBased::~WebViewGraphicsBased() 0x0000f915   Thumb Code    28  moc_webview.o(i._ZN20WebViewGraphicsBasedD1Ev)
    WebViewGraphicsBased::~WebViewGraphicsBased__sub_object() 0x0000f915   Thumb Code     0  moc_webview.o(i._ZN20WebViewGraphicsBasedD1Ev)
    qCleanupResources_QtTestBrowser__dest_class__::~qCleanupResources_QtTestBrowser__dest_class__() 0x0000f93f   Thumb Code    12  qrc_QtTestBrowser.o(i._ZN45qCleanupResources_QtTestBrowser__dest_class__D1Ev)
    qCleanupResources_QtTestBrowser__dest_class__::~qCleanupResources_QtTestBrowser__dest_class____sub_object() 0x0000f93f   Thumb Code     0  qrc_QtTestBrowser.o(i._ZN45qCleanupResources_QtTestBrowser__dest_class__D1Ev)
    QDebug::maybeSpace()                     0x0000f94b   Thumb Code    22  launcherwindow.o(i._ZN6QDebug10maybeSpaceEv)
    QDebug::~QDebug()                        0x0000f961   Thumb Code    94  main.o(i._ZN6QDebugD1Ev)
    QDebug::~QDebug__sub_object()            0x0000f961   Thumb Code     0  main.o(i._ZN6QDebugD1Ev)
    QDebug::operator <<(const char*)         0x0000f9d3   Thumb Code    46  main.o(i._ZN6QDebuglsEPKc)
    QRectF::QRectF(const QRect&)             0x0000fa0b   Thumb Code    54  webview.o(i._ZN6QRectFC1ERK5QRect)
    QRectF::QRectF__sub_object(const QRect&) 0x0000fa0b   Thumb Code     0  webview.o(i._ZN6QRectFC1ERK5QRect)
    QRectF::QRectF(const QPointF&, const QSizeF&) 0x0000fa41   Thumb Code    18  webview.o(i._ZN6QRectFC1ERK7QPointFRK6QSizeF)
    QRectF::QRectF__sub_object(const QPointF&, const QSizeF&) 0x0000fa41   Thumb Code     0  webview.o(i._ZN6QRectFC1ERK7QPointFRK6QSizeF)
    QSizeF::QSizeF(const QSize&)             0x0000fa53   Thumb Code    26  webview.o(i._ZN6QSizeFC1ERK5QSize)
    QSizeF::QSizeF__sub_object(const QSize&) 0x0000fa53   Thumb Code     0  webview.o(i._ZN6QSizeFC1ERK5QSize)
    QPointF::QPointF(const QPoint&)          0x0000fa6d   Thumb Code    26  launcherwindow.o(i._ZN7QPointFC1ERK6QPoint)
    QPointF::QPointF__sub_object(const QPoint&) 0x0000fa6d   Thumb Code     0  launcherwindow.o(i._ZN7QPointFC1ERK6QPoint)
    QString::QString(const char*)            0x0000fa87   Thumb Code    20  launcherwindow.o(i._ZN7QStringC1EPKc)
    QString::QString__sub_object(const char*) 0x0000fa87   Thumb Code     0  launcherwindow.o(i._ZN7QStringC1EPKc)
    QString::QString(const QString&)         0x0000fa9b   Thumb Code    16  launcherwindow.o(i._ZN7QStringC1ERKS_)
    QString::QString__sub_object(const QString&) 0x0000fa9b   Thumb Code     0  launcherwindow.o(i._ZN7QStringC1ERKS_)
    QString::QString()                       0x0000faad   Thumb Code    16  launcherwindow.o(i._ZN7QStringC1Ev)
    QString::QString__sub_object()           0x0000faad   Thumb Code     0  launcherwindow.o(i._ZN7QStringC1Ev)
    QString::~QString()                      0x0000fac1   Thumb Code    24  launcherwindow.o(i._ZN7QStringD1Ev)
    QString::~QString__sub_object()          0x0000fac1   Thumb Code     0  launcherwindow.o(i._ZN7QStringD1Ev)
    QWidget::hide()                          0x0000fad9   Thumb Code     8  launcherwindow.o(i._ZN7QWidget4hideEv)
    WebPage::~WebPage__deallocating()        0x0000fae1   Thumb Code    16  moc_webpage.o(i._ZN7WebPageD0Ev)
    WebPage::~WebPage()                      0x0000faf1   Thumb Code    24  moc_webpage.o(i._ZN7WebPageD1Ev)
    WebPage::~WebPage__sub_object()          0x0000faf1   Thumb Code     0  moc_webpage.o(i._ZN7WebPageD1Ev)
    FpsTimer::~FpsTimer__deallocating()      0x0000fb17   Thumb Code    16  moc_fpstimer.o(i._ZN8FpsTimerD0Ev)
    FpsTimer::~FpsTimer()                    0x0000fb29   Thumb Code    24  webview.o(i._ZN8FpsTimerD1Ev)
    FpsTimer::~FpsTimer__sub_object()        0x0000fb29   Thumb Code     0  webview.o(i._ZN8FpsTimerD1Ev)
    QVariant::Private::Private()             0x0000fb4f   Thumb Code    24  launcherwindow.o(i._ZN8QVariant7PrivateC1Ev)
    QVariant::Private::Private__sub_object() 0x0000fb4f   Thumb Code     0  launcherwindow.o(i._ZN8QVariant7PrivateC1Ev)
    QGradient::~QGradient()                  0x0000fb67   Thumb Code    12  locationedit.o(i._ZN9QGradientD1Ev)
    QGradient::~QGradient__sub_object()      0x0000fb67   Thumb Code     0  locationedit.o(i._ZN9QGradientD1Ev)
    UrlLoader::~UrlLoader__deallocating()    0x0000fb73   Thumb Code    16  moc_urlloader.o(i._ZN9UrlLoaderD0Ev)
    UrlLoader::~UrlLoader()                  0x0000fb85   Thumb Code    72  main.o(i._ZN9UrlLoaderD1Ev)
    UrlLoader::~UrlLoader__sub_object()      0x0000fb85   Thumb Code     0  main.o(i._ZN9UrlLoaderD1Ev)
    QStringList::contains(const QString&, Qt::CaseSensitivity) const 0x0000fc0b   Thumb Code     8  main.o(i._ZNK11QStringList8containsERK7QStringN2Qt15CaseSensitivityE)
    QBasicAtomicInt::operator !=(int) const  0x0000fc13   Thumb Code    14  launcherwindow.o(i._ZNK15QBasicAtomicIntneEi)
    QBool::operator const void*() const      0x0000fc21   Thumb Code    14  main.o(i._ZNK5QBoolcvPKvEv)
    QObject::connect(const QObject*, const char*, const char*, Qt::ConnectionType) const 0x0000fc2f   Thumb Code    20  launcherwindow.o(i._ZNK7QObject7connectEPKS_PKcS3_N2Qt14ConnectionTypeE)
    QString::arg(int, int, int, const QChar&) const 0x0000fc43   Thumb Code    30  launcherwindow.o(i._ZNK7QString3argEiiiRK5QChar)
    QString::isEmpty() const                 0x0000fc61   Thumb Code    16  launcherwindow.o(i._ZNK7QString7isEmptyEv)
    QWidget::size() const                    0x0000fc71   Thumb Code    26  launcherwindow.o(i._ZNK7QWidget4sizeEv)
    QListData::at(int) const                 0x0000fc8b   Thumb Code    16  launcherwindow.o(i._ZNK9QListData2atEi)
    QListData::end() const                   0x0000fc9b   Thumb Code    12  launcherwindow.o(i._ZNK9QListData3endEv)
    QListData::begin() const                 0x0000fca7   Thumb Code    12  launcherwindow.o(i._ZNK9QListData5beginEv)
    thunk{-16} to GraphicsWebView::~GraphicsWebView__deallocating() 0x0000fcb3   Thumb Code    10  moc_webview.o(i._ZThn16_N15GraphicsWebViewD0Ev)
    thunk{-16} to GraphicsWebView::~GraphicsWebView() 0x0000fcbd   Thumb Code    10  moc_webview.o(i._ZThn16_N15GraphicsWebViewD1Ev)
    thunk{-8} to MainWindow::~MainWindow__deallocating() 0x0000fcc7   Thumb Code    10  moc_mainwindow.o(i._ZThn8_N10MainWindowD0Ev)
    thunk{-8} to MainWindow::~MainWindow()   0x0000fcd1   Thumb Code    10  moc_mainwindow.o(i._ZThn8_N10MainWindowD1Ev)
    thunk{-8} to LocationEdit::~LocationEdit__deallocating() 0x0000fcdb   Thumb Code    10  moc_locationedit.o(i._ZThn8_N12LocationEditD0Ev)
    thunk{-8} to LocationEdit::~LocationEdit() 0x0000fce5   Thumb Code    10  moc_locationedit.o(i._ZThn8_N12LocationEditD1Ev)
    thunk{-8} to WebInspector::~WebInspector__deallocating() 0x0000fcef   Thumb Code    10  moc_webinspector.o(i._ZThn8_N12WebInspectorD0Ev)
    thunk{-8} to WebInspector::~WebInspector() 0x0000fcf9   Thumb Code    10  moc_webinspector.o(i._ZThn8_N12WebInspectorD1Ev)
    thunk{-8} to GraphicsWebView::~GraphicsWebView__deallocating() 0x0000fd03   Thumb Code    10  moc_webview.o(i._ZThn8_N15GraphicsWebViewD0Ev)
    thunk{-8} to GraphicsWebView::~GraphicsWebView() 0x0000fd0d   Thumb Code    10  moc_webview.o(i._ZThn8_N15GraphicsWebViewD1Ev)
    thunk{-8} to WebViewTraditional::~WebViewTraditional__deallocating() 0x0000fd17   Thumb Code    10  moc_webview.o(i._ZThn8_N18WebViewTraditionalD0Ev)
    thunk{-8} to WebViewTraditional::~WebViewTraditional() 0x0000fd21   Thumb Code    10  moc_webview.o(i._ZThn8_N18WebViewTraditionalD1Ev)
    thunk{-8} to WebViewGraphicsBased::~WebViewGraphicsBased__deallocating() 0x0000fd2b   Thumb Code    10  moc_webview.o(i._ZThn8_N20WebViewGraphicsBasedD0Ev)
    thunk{-8} to WebViewGraphicsBased::~WebViewGraphicsBased() 0x0000fd35   Thumb Code    10  moc_webview.o(i._ZThn8_N20WebViewGraphicsBasedD1Ev)
    operator delete (void*, void*)           0x0000fd3f   Thumb Code     2  launcherwindow.o(i._ZdlPvS_)
    operator new(unsigned, void*)            0x0000fd41   Thumb Code     4  launcherwindow.o(i._ZnwjPv)
    qobject_cast<QGraphicsView*>(QObject*)   0x0000fd45   Thumb Code    12  launcherwindow.o(t._Z12qobject_castIP13QGraphicsViewET_P7QObject)
    qobject_cast<WebViewGraphicsBased*>(QObject*) 0x0000fd55   Thumb Code    12  launcherwindow.o(t._Z12qobject_castIP20WebViewGraphicsBasedET_P7QObject)
    QList<QTime>::detach_helper()            0x0000fd65   Thumb Code    88  fpstimer.o(t._ZN5QListI5QTimeE13detach_helperEv)
    QList<QTime>::detach_helper_grow(int, int) 0x0000fdc5   Thumb Code   180  fpstimer.o(t._ZN5QListI5QTimeE18detach_helper_growEii)
    QList<QTime>::free(QListData::Data*)     0x0000fe81   Thumb Code    40  fpstimer.o(t._ZN5QListI5QTimeE4freeEPN9QListData4DataE)
    QList<QTime>::begin()                    0x0000fea9   Thumb Code    22  fpstimer.o(t._ZN5QListI5QTimeE5beginEv)
    QList<QTime>::append(const QTime&)       0x0000fec1   Thumb Code    82  fpstimer.o(t._ZN5QListI5QTimeE6appendERKS0_)
    QList<QTime>::detach()                   0x0000ff23   Thumb Code    24  fpstimer.o(t._ZN5QListI5QTimeE6detachEv)
    QList<QTime>::node_copy(QList<QTime>::Node*, QList<QTime>::Node*, QList<QTime>::Node*) 0x0000ff3b   Thumb Code    36  fpstimer.o(t._ZN5QListI5QTimeE9node_copyEPNS1_4NodeES3_S3_)
    QList<QTime>::QList()                    0x0000ff61   Thumb Code    16  fpstimer.o(t._ZN5QListI5QTimeEC1Ev)
    QList<QTime>::QList__sub_object()        0x0000ff61   Thumb Code     0  fpstimer.o(t._ZN5QListI5QTimeEC1Ev)
    QList<QTime>::~QList()                   0x0000ff75   Thumb Code    30  fpstimer.o(t._ZN5QListI5QTimeED1Ev)
    QList<QTime>::~QList__sub_object()       0x0000ff75   Thumb Code     0  fpstimer.o(t._ZN5QListI5QTimeED1Ev)
    QList<QString>::detach_helper(int)       0x0000ff93   Thumb Code    86  main.o(t._ZN5QListI7QStringE13detach_helperEi)
    QList<QString>::detach_helper()          0x0000fff1   Thumb Code    12  main.o(t._ZN5QListI7QStringE13detach_helperEv)
    QList<QString>::node_construct(QList<QString>::Node*, const QString&) 0x0000fffd   Thumb Code    26  launcherwindow.o(t._ZN5QListI7QStringE14node_constructEPNS1_4NodeERKS0_)
    QList<QString>::detach_helper_grow(int, int) 0x00010023   Thumb Code   186  launcherwindow.o(t._ZN5QListI7QStringE18detach_helper_growEii)
    QList<QString>::free(QListData::Data*)   0x000100e5   Thumb Code    48  launcherwindow.o(t._ZN5QListI7QStringE4freeEPN9QListData4DataE)
    QList<QString>::append(const QString&)   0x00010115   Thumb Code    94  launcherwindow.o(t._ZN5QListI7QStringE6appendERKS0_)
    QList<QString>::detach()                 0x00010181   Thumb Code    24  utils.o(t._ZN5QListI7QStringE6detachEv)
    QList<QString>::node_copy(QList<QString>::Node*, QList<QString>::Node*, QList<QString>::Node*) 0x00010199   Thumb Code    70  launcherwindow.o(t._ZN5QListI7QStringE9node_copyEPNS1_4NodeES3_S3_)
    QList<QString>::QList(const QList<QString>&) 0x000101f5   Thumb Code    30  main.o(t._ZN5QListI7QStringEC1ERKS1_)
    QList<QString>::QList__sub_object(const QList<QString>&) 0x000101f5   Thumb Code     0  main.o(t._ZN5QListI7QStringEC1ERKS1_)
    QList<QString>::QList()                  0x00010215   Thumb Code    16  main.o(t._ZN5QListI7QStringEC1Ev)
    QList<QString>::QList__sub_object()      0x00010215   Thumb Code     0  main.o(t._ZN5QListI7QStringEC1Ev)
    QList<QString>::~QList()                 0x00010229   Thumb Code    30  launcherwindow.o(t._ZN5QListI7QStringED1Ev)
    QList<QString>::~QList__sub_object()     0x00010229   Thumb Code     0  launcherwindow.o(t._ZN5QListI7QStringED1Ev)
    QList<QTouchEvent::TouchPoint>::detach_helper() 0x00010247   Thumb Code    88  launcherwindow.o(t._ZN5QListIN11QTouchEvent10TouchPointEE13detach_helperEv)
    QList<QTouchEvent::TouchPoint>::node_destruct(QList<QTouchEvent::TouchPoint>::Node*) 0x000102a7   Thumb Code    18  launcherwindow.o(t._ZN5QListIN11QTouchEvent10TouchPointEE13node_destructEPNS2_4NodeE)
    QList<QTouchEvent::TouchPoint>::node_destruct(QList<QTouchEvent::TouchPoint>::Node*, QList<QTouchEvent::TouchPoint>::Node*) 0x000102b9   Thumb Code    30  launcherwindow.o(t._ZN5QListIN11QTouchEvent10TouchPointEE13node_destructEPNS2_4NodeES4_)
    QList<QTouchEvent::TouchPoint>::node_construct(QList<QTouchEvent::TouchPoint>::Node*, const QTouchEvent::TouchPoint&) 0x000102d7   Thumb Code    24  launcherwindow.o(t._ZN5QListIN11QTouchEvent10TouchPointEE14node_constructEPNS2_4NodeERKS1_)
    QList<QTouchEvent::TouchPoint>::detach_helper_grow(int, int) 0x000102f9   Thumb Code   180  launcherwindow.o(t._ZN5QListIN11QTouchEvent10TouchPointEE18detach_helper_growEii)
    QList<QTouchEvent::TouchPoint>::free(QListData::Data*) 0x000103b5   Thumb Code    38  launcherwindow.o(t._ZN5QListIN11QTouchEvent10TouchPointEE4freeEPN9QListData4DataE)
    QList<QTouchEvent::TouchPoint>::append(const QTouchEvent::TouchPoint&) 0x000103dd   Thumb Code    90  launcherwindow.o(t._ZN5QListIN11QTouchEvent10TouchPointEE6appendERKS1_)
    QList<QTouchEvent::TouchPoint>::detach() 0x00010445   Thumb Code    24  launcherwindow.o(t._ZN5QListIN11QTouchEvent10TouchPointEE6detachEv)
    QList<QTouchEvent::TouchPoint>::removeAt(int) 0x0001045d   Thumb Code    52  launcherwindow.o(t._ZN5QListIN11QTouchEvent10TouchPointEE8removeAtEi)
    QList<QTouchEvent::TouchPoint>::node_copy(QList<QTouchEvent::TouchPoint>::Node*, QList<QTouchEvent::TouchPoint>::Node*, QList<QTouchEvent::TouchPoint>::Node*) 0x00010491   Thumb Code    72  launcherwindow.o(t._ZN5QListIN11QTouchEvent10TouchPointEE9node_copyEPNS2_4NodeES4_S4_)
    QList<QTouchEvent::TouchPoint>::QList()  0x000104ed   Thumb Code    16  launcherwindow.o(t._ZN5QListIN11QTouchEvent10TouchPointEEC1Ev)
    QList<QTouchEvent::TouchPoint>::QList__sub_object() 0x000104ed   Thumb Code     0  launcherwindow.o(t._ZN5QListIN11QTouchEvent10TouchPointEEC1Ev)
    QList<QTouchEvent::TouchPoint>::~QList() 0x00010501   Thumb Code    30  launcherwindow.o(t._ZN5QListIN11QTouchEvent10TouchPointEED1Ev)
    QList<QTouchEvent::TouchPoint>::~QList__sub_object() 0x00010501   Thumb Code     0  launcherwindow.o(t._ZN5QListIN11QTouchEvent10TouchPointEED1Ev)
    QList<QTouchEvent::TouchPoint>::operator [](int) 0x0001051f   Thumb Code    22  launcherwindow.o(t._ZN5QListIN11QTouchEvent10TouchPointEEixEi)
    QList<QAction*>::~QList()                0x00010535   Thumb Code    34  webview.o(t._ZN5QListIP7QActionED1Ev)
    QList<QAction*>::~QList__sub_object()    0x00010535   Thumb Code     0  webview.o(t._ZN5QListIP7QActionED1Ev)
    QVector<QPair<float, QColor>>::~QVector() 0x00010557   Thumb Code    58  locationedit.o(t._ZN7QVectorI5QPairIf6QColorEED1Ev)
    QVector<QPair<float, QColor>>::~QVector__sub_object() 0x00010557   Thumb Code     0  locationedit.o(t._ZN7QVectorI5QPairIf6QColorEED1Ev)
    QVector<QString>::free(QVectorTypedData<QString>*) 0x00010591   Thumb Code    40  urlloader.o(t._ZN7QVectorI7QStringE4freeEP16QVectorTypedDataIS0_E)
    QVector<QString>::append(const QString&) 0x000105b9   Thumb Code   140  urlloader.o(t._ZN7QVectorI7QStringE6appendERKS0_)
    QVector<QString>::realloc(int, int)      0x00010661   Thumb Code   364  urlloader.o(t._ZN7QVectorI7QStringE7reallocEii)
    QVector<QString>::~QVector()             0x000107e9   Thumb Code    30  urlloader.o(t._ZN7QVectorI7QStringED1Ev)
    QVector<QString>::~QVector__sub_object() 0x000107e9   Thumb Code     0  urlloader.o(t._ZN7QVectorI7QStringED1Ev)
    QVector<int>::free(QVectorTypedData<int>*) 0x00010807   Thumb Code    12  launcherwindow.o(t._ZN7QVectorIiE4freeEP16QVectorTypedDataIiE)
    QVector<int>::append(const int&)         0x00010813   Thumb Code    90  launcherwindow.o(t._ZN7QVectorIiE6appendERKi)
    QVector<int>::realloc(int, int)          0x0001086d   Thumb Code   250  launcherwindow.o(t._ZN7QVectorIiE7reallocEii)
    QVector<int>::~QVector()                 0x0001096f   Thumb Code    30  launcherwindow.o(t._ZN7QVectorIiED1Ev)
    QVector<int>::~QVector__sub_object()     0x0001096f   Thumb Code     0  launcherwindow.o(t._ZN7QVectorIiED1Ev)
    QVector<int>::operator [](int)           0x0001098d   Thumb Code    40  launcherwindow.o(t._ZN7QVectorIiEixEi)
    QVector<int>::operator <<(const int&)    0x000109b5   Thumb Code    12  launcherwindow.o(t._ZN7QVectorIiElsERKi)
    QVariant::fromValue<int>(const T1&)      0x000109c1   Thumb Code    14  webview.o(t._ZN8QVariant9fromValueIiEES_RKT_)
    QList<QString>::mid(int, int) const      0x000109cf   Thumb Code   178  main.o(t._ZNK5QListI7QStringE3midEii)
    QList<QString>::indexOf(const QString&, int) const 0x00010a8f   Thumb Code   108  main.o(t._ZNK5QListI7QStringE7indexOfERKS0_i)
    QList<QTouchEvent::TouchPoint>::size() const 0x00010afb   Thumb Code    10  launcherwindow.o(t._ZNK5QListIN11QTouchEvent10TouchPointEE4sizeEv)
    QVector<int>::indexOf(const int&, int) const 0x00010b05   Thumb Code    82  launcherwindow.o(t._ZNK7QVectorIiE7indexOfERKii)
    LauncherApplication::staticMetaObject    0x0001243c   Data          16  main.o(.constdata)
    LocationEdit::staticMetaObject           0x000125f0   Data          16  moc_locationedit.o(.constdata)
    LauncherWindow::staticMetaObject         0x00012990   Data          16  moc_launcherwindow.o(.constdata)
    MainWindow::staticMetaObject             0x00012cec   Data          16  moc_mainwindow.o(.constdata)
    UrlLoader::staticMetaObject              0x00012e00   Data          16  moc_urlloader.o(.constdata)
    WebInspector::staticMetaObject           0x00012ee0   Data          16  moc_webinspector.o(.constdata)
    WebPage::staticMetaObject                0x00013078   Data          16  moc_webpage.o(.constdata)
    WebViewTraditional::staticMetaObject     0x00013214   Data          16  moc_webview.o(.constdata)
    GraphicsWebView::staticMetaObject        0x00013224   Data          16  moc_webview.o(.constdata)
    WebViewGraphicsBased::staticMetaObject   0x00013234   Data          16  moc_webview.o(.constdata)
    FpsTimer::staticMetaObject               0x000133b0   Data          16  moc_fpstimer.o(.constdata)
    stlp_priv::_Integer_limits<signed char, (signed char)-128, (signed char)127, (int)-1, (bool)1>::digits 0x000138d4   Data           4  locationedit.o(.constdata__ZN9stlp_priv15_Integer_limitsIaLan128ELa127ELin1ELb1EE6digitsE)
    stlp_priv::_Integer_limits<bool, (bool)0, (bool)1, (int)1, (bool)0>::digits 0x000138d8   Data           4  locationedit.o(.constdata__ZN9stlp_priv15_Integer_limitsIbLb0ELb1ELi1ELb0EE6digitsE)
    stlp_priv::_Integer_limits<char, (char)128, (char)127, (int)-1, (bool)1>::digits 0x000138dc   Data           4  locationedit.o(.constdata__ZN9stlp_priv15_Integer_limitsIcLc128ELc127ELin1ELb1EE6digitsE)
    stlp_priv::_Integer_limits<unsigned char, (unsigned char)0, (unsigned char)255, (int)-1, (bool)1>::digits 0x000138e0   Data           4  locationedit.o(.constdata__ZN9stlp_priv15_Integer_limitsIhLh0ELh255ELin1ELb1EE6digitsE)
    stlp_priv::_Integer_limits<int, (int)-2147483648, (int)2147483647, (int)-1, (bool)1>::digits 0x000138e4   Data           4  locationedit.o(.constdata__ZN9stlp_priv15_Integer_limitsIiLin2147483648ELi2147483647ELin1ELb1EE6digitsE)
    stlp_priv::_Integer_limits<unsigned, (unsigned)0, (unsigned)4294967295, (int)-1, (bool)1>::digits 0x000138e8   Data           4  locationedit.o(.constdata__ZN9stlp_priv15_Integer_limitsIjLj0ELj4294967295ELin1ELb1EE6digitsE)
    stlp_priv::_Integer_limits<long, (long)-2147483648, (long)2147483647, (int)-1, (bool)1>::digits 0x000138ec   Data           4  locationedit.o(.constdata__ZN9stlp_priv15_Integer_limitsIlLln2147483648ELl2147483647ELin1ELb1EE6digitsE)
    stlp_priv::_Integer_limits<unsigned long, (unsigned long)0, (unsigned long)4294967295, (int)-1, (bool)1>::digits 0x000138f0   Data           4  locationedit.o(.constdata__ZN9stlp_priv15_Integer_limitsImLm0ELm4294967295ELin1ELb1EE6digitsE)
    stlp_priv::_Integer_limits<short, (short)-32768, (short)32767, (int)-1, (bool)1>::digits 0x000138f4   Data           4  locationedit.o(.constdata__ZN9stlp_priv15_Integer_limitsIsLsn32768ELs32767ELin1ELb1EE6digitsE)
    stlp_priv::_Integer_limits<unsigned short, (unsigned short)0, (unsigned short)65535, (int)-1, (bool)1>::digits 0x000138f8   Data           4  locationedit.o(.constdata__ZN9stlp_priv15_Integer_limitsItLt0ELt65535ELin1ELb1EE6digitsE)
    stlp_priv::_Integer_limits<wchar_t, (wchar_t)0, (wchar_t)65535, (int)-1, (bool)1>::digits 0x000138fc   Data           4  locationedit.o(.constdata__ZN9stlp_priv15_Integer_limitsIwLw0ELw65535ELin1ELb1EE6digitsE)
    typeinfo for MainWindow                  0x00013900   Data          12  moc_mainwindow.o(.constdata__ZTI10MainWindow)
    typeinfo for LocationEdit                0x0001390c   Data          12  moc_locationedit.o(.constdata__ZTI12LocationEdit)
    typeinfo for WebInspector                0x00013918   Data          12  moc_webinspector.o(.constdata__ZTI12WebInspector)
    typeinfo for LauncherWindow              0x00013924   Data          12  moc_launcherwindow.o(.constdata__ZTI14LauncherWindow)
    typeinfo for GraphicsWebView             0x00013930   Data          12  moc_webview.o(.constdata__ZTI15GraphicsWebView)
    typeinfo for WebViewTraditional          0x0001393c   Data          12  moc_webview.o(.constdata__ZTI18WebViewTraditional)
    typeinfo for LauncherApplication         0x00013948   Data          12  main.o(.constdata__ZTI19LauncherApplication)
    typeinfo for WebViewGraphicsBased        0x00013954   Data          12  moc_webview.o(.constdata__ZTI20WebViewGraphicsBased)
    typeinfo for WebPage                     0x00013960   Data          12  moc_webpage.o(.constdata__ZTI7WebPage)
    typeinfo for FpsTimer                    0x0001396c   Data          12  moc_fpstimer.o(.constdata__ZTI8FpsTimer)
    typeinfo for UrlLoader                   0x00013978   Data          12  moc_urlloader.o(.constdata__ZTI9UrlLoader)
    typeinfo name for MainWindow             0x00013984   Data          13  moc_mainwindow.o(.constdata__ZTS10MainWindow)
    typeinfo name for LocationEdit           0x00013991   Data          15  moc_locationedit.o(.constdata__ZTS12LocationEdit)
    typeinfo name for WebInspector           0x000139a0   Data          15  moc_webinspector.o(.constdata__ZTS12WebInspector)
    typeinfo name for LauncherWindow         0x000139af   Data          17  moc_launcherwindow.o(.constdata__ZTS14LauncherWindow)
    typeinfo name for GraphicsWebView        0x000139c0   Data          18  moc_webview.o(.constdata__ZTS15GraphicsWebView)
    typeinfo name for WebViewTraditional     0x000139d2   Data          21  moc_webview.o(.constdata__ZTS18WebViewTraditional)
    typeinfo name for LauncherApplication    0x000139e7   Data          22  main.o(.constdata__ZTS19LauncherApplication)
    typeinfo name for WebViewGraphicsBased   0x000139fd   Data          23  moc_webview.o(.constdata__ZTS20WebViewGraphicsBased)
    typeinfo name for WebPage                0x00013a14   Data           9  moc_webpage.o(.constdata__ZTS7WebPage)
    typeinfo name for FpsTimer               0x00013a1d   Data          10  moc_fpstimer.o(.constdata__ZTS8FpsTimer)
    typeinfo name for UrlLoader              0x00013a27   Data          11  moc_urlloader.o(.constdata__ZTS9UrlLoader)
    vtable for MainWindow                    0x00013a34   Data         252  moc_mainwindow.o(.constdata__ZTV10MainWindow)
    vtable for LocationEdit                  0x00013b30   Data         248  moc_locationedit.o(.constdata__ZTV12LocationEdit)
    vtable for WebInspector                  0x00013c28   Data         248  moc_webinspector.o(.constdata__ZTV12WebInspector)
    vtable for LauncherWindow                0x00013d20   Data         252  moc_launcherwindow.o(.constdata__ZTV14LauncherWindow)
    vtable for GraphicsWebView               0x00013e1c   Data         424  moc_webview.o(.constdata__ZTV15GraphicsWebView)
    vtable for WebViewTraditional            0x00013fc4   Data         252  moc_webview.o(.constdata__ZTV18WebViewTraditional)
    vtable for LauncherApplication           0x000140c0   Data          76  main.o(.constdata__ZTV19LauncherApplication)
    vtable for WebViewGraphicsBased          0x0001410c   Data         268  moc_webview.o(.constdata__ZTV20WebViewGraphicsBased)
    vtable for WebPage                       0x00014218   Data         104  moc_webpage.o(.constdata__ZTV7WebPage)
    vtable for FpsTimer                      0x00014280   Data          56  moc_fpstimer.o(.constdata__ZTV8FpsTimer)
    vtable for UrlLoader                     0x000142b8   Data          56  moc_urlloader.o(.constdata__ZTV9UrlLoader)
    SHT$$INIT_ARRAY$$Base                    0x000142f0   Number         0  launcherwindow.o(.init_array)
    .ARM.exidx$$Base                         0x000142fc   Number         0  uc_exe_.o(.ARM.exidx)
    SHT$$INIT_ARRAY$$Limit                   0x000142fc   Data           0  qrc_QtTestBrowser.o(.init_array)
    .ARM.exidx$$Limit                        0x00014a3c   Number         0  launcherwindow.o(.ARM.exidx)
    Image$$ER_RO$$Limit                      0x00014a3c   Number         0  anon$$obj.o(linker$$defined$$symbols)
    LauncherWindow::m_zoomLevels             0x00400000   Data           4  launcherwindow.o(.data)
    qCleanupResources_QtTestBrowser__dest_instance__ 0x0040000c   Data           1  qrc_QtTestBrowser.o(.data)
    __dso_handle                             0x00400014   Data           4  ucppfini.o(.data)
    std::_Atomic_swap_struct<(int)1>::_S_swap_lock 0x00400018   Data          12  locationedit.o(.data__ZNSt19_Atomic_swap_structILi1EE12_S_swap_lockE)
    windowOptions                            0x00400024   Data          20  main.o(.bss)
    dtor_rec                                 0x00400038   Data        2048  ucppfini.o(.bss)

