ARM Linker, RVCT2.2 [Build 686]

================================================================================

Image Symbol Table

    Local Symbols

    Symbol Name                              Value     Ov Type        Size  Object(Section)

    [Anonymous Symbol]                       0x00000000   Number         0  QtCore{00040703}-2811.o ABSOLUTE
    [Anonymous Symbol]                       0x00000000   Number         0  QtOrganizer{00010103}-14.o ABSOLUTE
    [Anonymous Symbol]                       0x00000000   Number         0  QtCore{00040703}-2867.o ABSOLUTE
    [Anonymous Symbol]                       0x00000000   Number         0  QtOrganizer{00010103}-613.o ABSOLUTE
    [Anonymous Symbol]                       0x00000000   Number         0  QtOrganizer{00010103}-140.o ABSOLUTE
    [Anonymous Symbol]                       0x00000000   Number         0  QtCore{00040703}-2875.o ABSOLUTE
    [Anonymous Symbol]                       0x00000000   Number         0  QtOrganizer{00010103}-633.o ABSOLUTE
    [Anonymous Symbol]                       0x00000000   Number         0  QtOrganizer{00010103}-141.o ABSOLUTE
    [Anonymous Symbol]                       0x00000000   Number         0  QtCore{00040703}-2887.o ABSOLUTE
    [Anonymous Symbol]                       0x00000000   Number         0  QtOrganizer{00010103}-658.o ABSOLUTE
    [Anonymous Symbol]                       0x00000000   Number         0  QtOrganizer{00010103}-142.o ABSOLUTE
    [Anonymous Symbol]                       0x00000000   Number         0  QtCore{00040703}-2888.o ABSOLUTE
    [Anonymous Symbol]                       0x00000000   Number         0  QtOrganizer{00010103}-677.o ABSOLUTE
    [Anonymous Symbol]                       0x00000000   Number         0  QtOrganizer{00010103}-143.o ABSOLUTE
    [Anonymous Symbol]                       0x00000000   Number         0  QtCore{00040703}-2891.o ABSOLUTE
    [Anonymous Symbol]                       0x00000000   Number         0  QtOrganizer{00010103}-680.o ABSOLUTE
    [Anonymous Symbol]                       0x00000000   Number         0  QtOrganizer{00010103}-152.o ABSOLUTE
    [Anonymous Symbol]                       0x00000000   Number         0  QtCore{00040703}-3054.o ABSOLUTE
    [Anonymous Symbol]                       0x00000000   Number         0  QtOrganizer{00010103}-683.o ABSOLUTE
    [Anonymous Symbol]                       0x00000000   Number         0  QtOrganizer{00010103}-154.o ABSOLUTE
    [Anonymous Symbol]                       0x00000000   Number         0  QtCore{00040703}-3055.o ABSOLUTE
    [Anonymous Symbol]                       0x00000000   Number         0  QtOrganizer{00010103}-684.o ABSOLUTE
    [Anonymous Symbol]                       0x00000000   Number         0  QtOrganizer{00010103}-16.o ABSOLUTE
    [Anonymous Symbol]                       0x00000000   Number         0  QtCore{00040703}-3059.o ABSOLUTE
    [Anonymous Symbol]                       0x00000000   Number         0  QtOrganizer{00010103}-685.o ABSOLUTE
    [Anonymous Symbol]                       0x00000000   Number         0  QtOrganizer{00010103}-17.o ABSOLUTE
    [Anonymous Symbol]                       0x00000000   Number         0  QtCore{00040703}-3060.o ABSOLUTE
    [Anonymous Symbol]                       0x00000000   Number         0  QtOrganizer{00010103}-686.o ABSOLUTE
    [Anonymous Symbol]                       0x00000000   Number         0  QtOrganizer{00010103}-18.o ABSOLUTE
    [Anonymous Symbol]                       0x00000000   Number         0  QtCore{00040703}-3063.o ABSOLUTE
    [Anonymous Symbol]                       0x00000000   Number         0  QtOrganizer{00010103}-732.o ABSOLUTE
    [Anonymous Symbol]                       0x00000000   Number         0  QtOrganizer{00010103}-19.o ABSOLUTE
    [Anonymous Symbol]                       0x00000000   Number         0  QtCore{00040703}-3064.o ABSOLUTE
    [Anonymous Symbol]                       0x00000000   Number         0  QtOrganizer{00010103}-733.o ABSOLUTE
    [Anonymous Symbol]                       0x00000000   Number         0  QtOrganizer{00010103}-2.o ABSOLUTE
    [Anonymous Symbol]                       0x00000000   Number         0  QtCore{00040703}-3073.o ABSOLUTE
    [Anonymous Symbol]                       0x00000000   Number         0  QtOrganizer{00010103}-734.o ABSOLUTE
    [Anonymous Symbol]                       0x00000000   Number         0  QtOrganizer{00010103}-230.o ABSOLUTE
    [Anonymous Symbol]                       0x00000000   Number         0  QtCore{00040703}-3088.o ABSOLUTE
    [Anonymous Symbol]                       0x00000000   Number         0  QtOrganizer{00010103}-735.o ABSOLUTE
    [Anonymous Symbol]                       0x00000000   Number         0  QtOrganizer{00010103}-233.o ABSOLUTE
    [Anonymous Symbol]                       0x00000000   Number         0  QtCore{00040703}-3089.o ABSOLUTE
    [Anonymous Symbol]                       0x00000000   Number         0  QtOrganizer{00010103}-737.o ABSOLUTE
    [Anonymous Symbol]                       0x00000000   Number         0  QtOrganizer{00010103}-24.o ABSOLUTE
    [Anonymous Symbol]                       0x00000000   Number         0  QtCore{00040703}-3097.o ABSOLUTE
    [Anonymous Symbol]                       0x00000000   Number         0  QtOrganizer{00010103}-738.o ABSOLUTE
    [Anonymous Symbol]                       0x00000000   Number         0  QtOrganizer{00010103}-297.o ABSOLUTE
    [Anonymous Symbol]                       0x00000000   Number         0  QtCore{00040703}-3098.o ABSOLUTE
    [Anonymous Symbol]                       0x00000000   Number         0  QtOrganizer{00010103}-739.o ABSOLUTE
    [Anonymous Symbol]                       0x00000000   Number         0  QtOrganizer{00010103}-298.o ABSOLUTE
    [Anonymous Symbol]                       0x00000000   Number         0  QtCore{00040703}-3101.o ABSOLUTE
    [Anonymous Symbol]                       0x00000000   Number         0  QtOrganizer{00010103}-740.o ABSOLUTE
    [Anonymous Symbol]                       0x00000000   Number         0  QtOrganizer{00010103}-299.o ABSOLUTE
    [Anonymous Symbol]                       0x00000000   Number         0  QtCore{00040703}-3145.o ABSOLUTE
    [Anonymous Symbol]                       0x00000000   Number         0  QtOrganizer{00010103}-741.o ABSOLUTE
    [Anonymous Symbol]                       0x00000000   Number         0  QtOrganizer{00010103}-300.o ABSOLUTE
    [Anonymous Symbol]                       0x00000000   Number         0  QtCore{00040703}-3165.o ABSOLUTE
    [Anonymous Symbol]                       0x00000000   Number         0  QtOrganizer{00010103}-742.o ABSOLUTE
    [Anonymous Symbol]                       0x00000000   Number         0  QtOrganizer{00010103}-306.o ABSOLUTE
    [Anonymous Symbol]                       0x00000000   Number         0  QtCore{00040703}-3166.o ABSOLUTE
    [Anonymous Symbol]                       0x00000000   Number         0  QtOrganizer{00010103}-743.o ABSOLUTE
    [Anonymous Symbol]                       0x00000000   Number         0  QtOrganizer{00010103}-307.o ABSOLUTE
    [Anonymous Symbol]                       0x00000000   Number         0  QtCore{00040703}-3169.o ABSOLUTE
    [Anonymous Symbol]                       0x00000000   Number         0  QtOrganizer{00010103}-744.o ABSOLUTE
    [Anonymous Symbol]                       0x00000000   Number         0  QtOrganizer{00010103}-308.o ABSOLUTE
    [Anonymous Symbol]                       0x00000000   Number         0  QtCore{00040703}-3170.o ABSOLUTE
    [Anonymous Symbol]                       0x00000000   Number         0  QtOrganizer{00010103}-745.o ABSOLUTE
    [Anonymous Symbol]                       0x00000000   Number         0  QtOrganizer{00010103}-309.o ABSOLUTE
    [Anonymous Symbol]                       0x00000000   Number         0  QtCore{00040703}-3171.o ABSOLUTE
    [Anonymous Symbol]                       0x00000000   Number         0  QtOrganizer{00010103}-746.o ABSOLUTE
    [Anonymous Symbol]                       0x00000000   Number         0  QtOrganizer{00010103}-310.o ABSOLUTE
    [Anonymous Symbol]                       0x00000000   Number         0  QtCore{00040703}-3172.o ABSOLUTE
    [Anonymous Symbol]                       0x00000000   Number         0  QtOrganizer{00010103}-747.o ABSOLUTE
    [Anonymous Symbol]                       0x00000000   Number         0  QtOrganizer{00010103}-311.o ABSOLUTE
    [Anonymous Symbol]                       0x00000000   Number         0  QtCore{00040703}-3174.o ABSOLUTE
    [Anonymous Symbol]                       0x00000000   Number         0  QtOrganizer{00010103}-748.o ABSOLUTE
    [Anonymous Symbol]                       0x00000000   Number         0  QtOrganizer{00010103}-312.o ABSOLUTE
    [Anonymous Symbol]                       0x00000000   Number         0  QtCore{00040703}-3175.o ABSOLUTE
    [Anonymous Symbol]                       0x00000000   Number         0  QtOrganizer{00010103}-749.o ABSOLUTE
    [Anonymous Symbol]                       0x00000000   Number         0  QtOrganizer{00010103}-313.o ABSOLUTE
    [Anonymous Symbol]                       0x00000000   Number         0  QtCore{00040703}-3176.o ABSOLUTE
    [Anonymous Symbol]                       0x00000000   Number         0  QtOrganizer{00010103}-769.o ABSOLUTE
    [Anonymous Symbol]                       0x00000000   Number         0  QtOrganizer{00010103}-314.o ABSOLUTE
    [Anonymous Symbol]                       0x00000000   Number         0  QtCore{00040703}-3177.o ABSOLUTE
    [Anonymous Symbol]                       0x00000000   Number         0  QtOrganizer{00010103}-93.o ABSOLUTE
    [Anonymous Symbol]                       0x00000000   Number         0  QtOrganizer{00010103}-315.o ABSOLUTE
    [Anonymous Symbol]                       0x00000000   Number         0  QtCore{00040703}-3180.o ABSOLUTE
    [Anonymous Symbol]                       0x00000000   Number         0  efsrv{000a0000}-231.o ABSOLUTE
    [Anonymous Symbol]                       0x00000000   Number         0  QtOrganizer{00010103}-316.o ABSOLUTE
    [Anonymous Symbol]                       0x00000000   Number         0  QtCore{00040703}-3182.o ABSOLUTE
    [Anonymous Symbol]                       0x00000000   Number         0  efsrv{000a0000}-68.o ABSOLUTE
    [Anonymous Symbol]                       0x00000000   Number         0  QtOrganizer{00010103}-317.o ABSOLUTE
    [Anonymous Symbol]                       0x00000000   Number         0  QtCore{00040703}-3187.o ABSOLUTE
    [Anonymous Symbol]                       0x00000000   Number         0  libstdcpp{00010000}-988.o ABSOLUTE
    [Anonymous Symbol]                       0x00000000   Number         0  QtOrganizer{00010103}-318.o ABSOLUTE
    [Anonymous Symbol]                       0x00000000   Number         0  QtCore{00040703}-3607.o ABSOLUTE
    [Anonymous Symbol]                       0x00000000   Number         0  libstdcpp{00010000}-992.o ABSOLUTE
    [Anonymous Symbol]                       0x00000000   Number         0  QtOrganizer{00010103}-321.o ABSOLUTE
    [Anonymous Symbol]                       0x00000000   Number         0  QtCore{00040703}-3608.o ABSOLUTE
    [Anonymous Symbol]                       0x00000000   Number         0  QtCore{00040703}-1453.o ABSOLUTE
    [Anonymous Symbol]                       0x00000000   Number         0  QtOrganizer{00010103}-323.o ABSOLUTE
    [Anonymous Symbol]                       0x00000000   Number         0  QtCore{00040703}-3609.o ABSOLUTE
    [Anonymous Symbol]                       0x00000000   Number         0  QtCore{00040703}-1457.o ABSOLUTE
    [Anonymous Symbol]                       0x00000000   Number         0  QtOrganizer{00010103}-45.o ABSOLUTE
    [Anonymous Symbol]                       0x00000000   Number         0  QtCore{00040703}-3610.o ABSOLUTE
    [Anonymous Symbol]                       0x00000000   Number         0  QtCore{00040703}-1471.o ABSOLUTE
    [Anonymous Symbol]                       0x00000000   Number         0  QtOrganizer{00010103}-50.o ABSOLUTE
    [Anonymous Symbol]                       0x00000000   Number         0  QtCore{00040703}-3689.o ABSOLUTE
    [Anonymous Symbol]                       0x00000000   Number         0  QtCore{00040703}-1477.o ABSOLUTE
    [Anonymous Symbol]                       0x00000000   Number         0  QtOrganizer{00010103}-51.o ABSOLUTE
    [Anonymous Symbol]                       0x00000000   Number         0  QtCore{00040703}-3691.o ABSOLUTE
    [Anonymous Symbol]                       0x00000000   Number         0  QtCore{00040703}-1565.o ABSOLUTE
    [Anonymous Symbol]                       0x00000000   Number         0  QtOrganizer{00010103}-575.o ABSOLUTE
    [Anonymous Symbol]                       0x00000000   Number         0  QtCore{00040703}-46.o ABSOLUTE
    [Anonymous Symbol]                       0x00000000   Number         0  QtCore{00040703}-1582.o ABSOLUTE
    [Anonymous Symbol]                       0x00000000   Number         0  QtOrganizer{00010103}-608.o ABSOLUTE
    [Anonymous Symbol]                       0x00000000   Number         0  QtCore{00040703}-499.o ABSOLUTE
    [Anonymous Symbol]                       0x00000000   Number         0  QtCore{00040703}-1643.o ABSOLUTE
    [Anonymous Symbol]                       0x00000000   Number         0  QtOrganizer{00010103}-609.o ABSOLUTE
    [Anonymous Symbol]                       0x00000000   Number         0  QtCore{00040703}-501.o ABSOLUTE
    [Anonymous Symbol]                       0x00000000   Number         0  QtCore{00040703}-1814.o ABSOLUTE
    [Anonymous Symbol]                       0x00000000   Number         0  QtOrganizer{00010103}-610.o ABSOLUTE
    [Anonymous Symbol]                       0x00000000   Number         0  QtCore{00040703}-505.o ABSOLUTE
    [Anonymous Symbol]                       0x00000000   Number         0  QtCore{00040703}-1825.o ABSOLUTE
    [Anonymous Symbol]                       0x00000000   Number         0  drtaeabi{000a0000}-184.o ABSOLUTE
    [Anonymous Symbol]                       0x00000000   Number         0  QtCore{00040703}-70.o ABSOLUTE
    [Anonymous Symbol]                       0x00000000   Number         0  QtCore{00040703}-1826.o ABSOLUTE
    [Anonymous Symbol]                       0x00000000   Number         0  drtaeabi{000a0000}-186.o ABSOLUTE
    [Anonymous Symbol]                       0x00000000   Number         0  QtCore{00040703}-73.o ABSOLUTE
    [Anonymous Symbol]                       0x00000000   Number         0  QtCore{00040703}-1828.o ABSOLUTE
    [Anonymous Symbol]                       0x00000000   Number         0  drtaeabi{000a0000}-187.o ABSOLUTE
    [Anonymous Symbol]                       0x00000000   Number         0  QtCore{00040703}-753.o ABSOLUTE
    [Anonymous Symbol]                       0x00000000   Number         0  QtCore{00040703}-1830.o ABSOLUTE
    [Anonymous Symbol]                       0x00000000   Number         0  drtaeabi{000a0000}-188.o ABSOLUTE
    [Anonymous Symbol]                       0x00000000   Number         0  QtCore{00040703}-772.o ABSOLUTE
    [Anonymous Symbol]                       0x00000000   Number         0  QtCore{00040703}-1831.o ABSOLUTE
    [Anonymous Symbol]                       0x00000000   Number         0  drtaeabi{000a0000}-190.o ABSOLUTE
    [Anonymous Symbol]                       0x00000000   Number         0  euser{000a0000}-1170.o ABSOLUTE
    [Anonymous Symbol]                       0x00000000   Number         0  QtCore{00040703}-1835.o ABSOLUTE
    [Anonymous Symbol]                       0x00000000   Number         0  drtrvct2_2{000a0000}-28.o ABSOLUTE
    [Anonymous Symbol]                       0x00000000   Number         0  euser{000a0000}-120.o ABSOLUTE
    [Anonymous Symbol]                       0x00000000   Number         0  QtCore{00040703}-1836.o ABSOLUTE
    [Anonymous Symbol]                       0x00000000   Number         0  QtCore{00040703}-2186.o ABSOLUTE
    [Anonymous Symbol]                       0x00000000   Number         0  euser{000a0000}-670.o ABSOLUTE
    [Anonymous Symbol]                       0x00000000   Number         0  QtCore{00040703}-1842.o ABSOLUTE
    [Anonymous Symbol]                       0x00000000   Number         0  QtCore{00040703}-2188.o ABSOLUTE
    [Anonymous Symbol]                       0x00000000   Number         0  euser{000a0000}-671.o ABSOLUTE
    [Anonymous Symbol]                       0x00000000   Number         0  QtCore{00040703}-1855.o ABSOLUTE
    [Anonymous Symbol]                       0x00000000   Number         0  QtCore{00040703}-2197.o ABSOLUTE
    [Anonymous Symbol]                       0x00000000   Number         0  drtaeabi{000a0000}-147.o ABSOLUTE
    [Anonymous Symbol]                       0x00000000   Number         0  QtCore{00040703}-1874.o ABSOLUTE
    [Anonymous Symbol]                       0x00000000   Number         0  QtCore{00040703}-2791.o ABSOLUTE
    [Anonymous Symbol]                       0x00000000   Number         0  drtaeabi{000a0000}-155.o ABSOLUTE
    [Anonymous Symbol]                       0x00000000   Number         0  QtCore{00040703}-1885.o ABSOLUTE
    [Anonymous Symbol]                       0x00000000   Number         0  QtCore{00040703}-2795.o ABSOLUTE
    [Anonymous Symbol]                       0x00000000   Number         0  drtaeabi{000a0000}-158.o ABSOLUTE
    [Anonymous Symbol]                       0x00000000   Number         0  QtCore{00040703}-1947.o ABSOLUTE
    [Anonymous Symbol]                       0x00000000   Number         0  QtCore{00040703}-2797.o ABSOLUTE
    [Anonymous Symbol]                       0x00000000   Number         0  drtaeabi{000a0000}-180.o ABSOLUTE
    [Anonymous Symbol]                       0x00000000   Number         0  QtCore{00040703}-1949.o ABSOLUTE
    [Anonymous Symbol]                       0x00000000   Number         0  QtCore{00040703}-2810.o ABSOLUTE
    [Anonymous Symbol]                       0x00000000   Number         0  drtaeabi{000a0000}-183.o ABSOLUTE
    [Anonymous Symbol]                       0x00000000   Number         0  QtCore{00040703}-2016.o ABSOLUTE
    [Anonymous Symbol]                       0x00000000   Number         0  QtCore{00040703}-2141.o ABSOLUTE
    [Anonymous Symbol]                       0x00000000   Number         0  QtCore{00040703}-2110.o ABSOLUTE
    [Anonymous Symbol]                       0x00000000   Number         0  QtCore{00040703}-2020.o ABSOLUTE
    [Anonymous Symbol]                       0x00000000   Number         0  QtVersit{00010103}-107.o ABSOLUTE
    [Anonymous Symbol]                       0x00000000   Number         0  QtCore{00040703}-2112.o ABSOLUTE
    [Anonymous Symbol]                       0x00000000   Number         0  QtCore{00040703}-2034.o ABSOLUTE
    [Anonymous Symbol]                       0x00000000   Number         0  QtVersit{00010103}-108.o ABSOLUTE
    [Anonymous Symbol]                       0x00000000   Number         0  QtCore{00040703}-2134.o ABSOLUTE
    [Anonymous Symbol]                       0x00000000   Number         0  QtCore{00040703}-2036.o ABSOLUTE
    [Anonymous Symbol]                       0x00000000   Number         0  QtVersit{00010103}-112.o ABSOLUTE
    [Anonymous Symbol]                       0x00000000   Number         0  QtCore{00040703}-2137.o ABSOLUTE
    [Anonymous Symbol]                       0x00000000   Number         0  QtCore{00040703}-2038.o ABSOLUTE
    [Anonymous Symbol]                       0x00000000   Number         0  QtVersit{00010103}-114.o ABSOLUTE
    [Anonymous Symbol]                       0x00000000   Number         0  QtCore{00040703}-2099.o ABSOLUTE
    [Anonymous Symbol]                       0x00000000   Number         0  QtCore{00040703}-2040.o ABSOLUTE
    [Anonymous Symbol]                       0x00000000   Number         0  QtVersit{00010103}-115.o ABSOLUTE
    [Anonymous Symbol]                       0x00000000   Number         0  QtCore{00040703}-2143.o ABSOLUTE
    [Anonymous Symbol]                       0x00000000   Number         0  QtCore{00040703}-2082.o ABSOLUTE
    [Anonymous Symbol]                       0x00000000   Number         0  QtVersit{00010103}-141.o ABSOLUTE
    [Anonymous Symbol]                       0x00000000   Number         0  QtCore{00040703}-2102.o ABSOLUTE
    [Anonymous Symbol]                       0x00000000   Number         0  QtCore{00040703}-2093.o ABSOLUTE
    [Anonymous Symbol]                       0x00000000   Number         0  QtVersit{00010103}-142.o ABSOLUTE
    [Anonymous Symbol]                       0x00000000   Number         0  QtCore{00040703}-2104.o ABSOLUTE
    [Anonymous Symbol]                       0x00000000   Number         0  QtCore{00040703}-2095.o ABSOLUTE
    [Anonymous Symbol]                       0x00000000   Number         0  QtVersit{00010103}-156.o ABSOLUTE
    [Anonymous Symbol]                       0x00000000   Number         0  QtCore{00040703}-2105.o ABSOLUTE
    [Anonymous Symbol]                       0x00000000   Number         0  QtVersit{00010103}-45.o ABSOLUTE
    [Anonymous Symbol]                       0x00000000   Number         0  QtVersit{00010103}-157.o ABSOLUTE
    [Anonymous Symbol]                       0x00000000   Number         0  QtVersit{00010103}-57.o ABSOLUTE
    [Anonymous Symbol]                       0x00000000   Number         0  QtCore{00040703}-2100.o ABSOLUTE
    [Anonymous Symbol]                       0x00000000   Number         0  QtVersit{00010103}-41.o ABSOLUTE
    [Anonymous Symbol]                       0x00000000   Number         0  QtVersit{00010103}-61.o ABSOLUTE
    [Anonymous Symbol]                       0x00000000   Number         0  QtVersit{00010103}-48.o ABSOLUTE
    [Anonymous Symbol]                       0x00000000   Number         0  QtVersit{00010103}-42.o ABSOLUTE
    [Anonymous Symbol]                       0x00000000   Number         0  QtVersit{00010103}-62.o ABSOLUTE
    [Anonymous Symbol]                       0x00000000   Number         0  QtVersit{00010103}-52.o ABSOLUTE
    [Anonymous Symbol]                       0x00000000   Number         0  QtVersit{00010103}-44.o ABSOLUTE
    [Anonymous Symbol]                       0x00000000   Number         0  QtVersit{00010103}-64.o ABSOLUTE
    [Anonymous Symbol]                       0x00000000   Number         0  QtVersit{00010103}-55.o ABSOLUTE
    [Anonymous Symbol]                       0x00000000   Number         0  QtOrganizer{00010103}-139.o ABSOLUTE
    [Anonymous Symbol]                       0x00000000   Number         0  QtVersit{00010103}-65.o ABSOLUTE
    [Anonymous Symbol]                       0x00000000   Number         0  QtOrganizer{00010103}-138.o ABSOLUTE
    [Anonymous Symbol]                       0x00000000   Number         0  QtVersit{00010103}-47.o ABSOLUTE
    [Anonymous Symbol]                       0x00000000   Number         0  QtVersit{00010103}-68.o ABSOLUTE
    [Anonymous Symbol]                       0x00000000   Number         0  QtVersit{00010103}-70.o ABSOLUTE
    ..\..\..\..\EPOC32\BUILD\s60\osext\mobileruntime\group\LIBSTDCPP\ARMV5\VtblExports.s 0x00000000   Number         0  VtblExports.o ABSOLUTE
    \EPOC32\BUILD\src\cedar\generic\base\e32\compsupp\DRTAEABI\ARMV5\VtblExports.s 0x00000000   Number         0  VtblExports.o ABSOLUTE
    \EPOC32\BUILD\src\cedar\generic\base\e32\euser\EDLL\ARMV5\urel\uc_dll_.cpp 0x00000000   Number         0  uc_dll_.o ABSOLUTE
    \EPOC32\BUILD\src\cedar\generic\base\e32\euser\EUSER\ARMV5\VtblExports.s 0x00000000   Number         0  VtblExports.o ABSOLUTE
    \EPOC32\BUILD\src\cedar\generic\base\f32\group\EFSRV\ARMV5\VtblExports.s 0x00000000   Number         0  VtblExports.o ABSOLUTE
    \EPOC32\BUILD\wk29\stdlibs\group\LIBC\ARMV5\VtblExports.s 0x00000000   Number         0  VtblExports.o ABSOLUTE
    \EPOC32\BUILD\wk29\stdlibs\group\LIBDL\ARMV5\VtblExports.s 0x00000000   Number         0  VtblExports.o ABSOLUTE
    \EPOC32\BUILD\wk29\stdlibs\group\LIBM\ARMV5\VtblExports.s 0x00000000   Number         0  VtblExports.o ABSOLUTE
    \EPOC32\BUILD\wk29\stdlibs\group\LIBPTHREAD\ARMV5\VtblExports.s 0x00000000   Number         0  VtblExports.o ABSOLUTE
    \\EPOC32\\BUILD\\src\\cedar\\generic\\base\\e32\\euser\\EDLL\\ARMV5\\urel\\uc_dll_.cpp 0x00000000   Number         0  uc_dll_.o ABSOLUTE
    \\src\\cedar\\generic\\base\\e32\\compsupp\\RVCT2_2\\ucppinit_aeabi.cpp 0x00000000   Number         0  ucppinit_aeabi.o ABSOLUTE
    \dev\symb\SDKs\32\EPOC32\BUILD\iwmake\buildS60____PADDING________\src\QTCORE_DLL\ARMV6\VtblExports.s 0x00000000   Number         0  VtblExports.o ABSOLUTE
    \dev\symb\SDKs\32\EPOC32\BUILD\iwmake\buildS60____PADDING________\src\QTGUI_DLL\ARMV6\VtblExports.s 0x00000000   Number         0  VtblExports.o ABSOLUTE
    \s60\5.0\EPOC32\BUILD\scripts\5.0\qtmobility\QTORGANIZER_DLL\ARMV5\VtblExports.s 0x00000000   Number         0  VtblExports.o ABSOLUTE
    \s60\5.0\EPOC32\BUILD\scripts\5.0\qtmobility\QTVERSITORGANIZER_DLL\ARMV5\urel\QtVersitOrganizer{00010103}.s 0x00000000   Number         0  QtVersitOrganizer{00010103}.exp ABSOLUTE
    \s60\5.0\EPOC32\BUILD\scripts\5.0\qtmobility\QTVERSIT_DLL\ARMV5\VtblExports.s 0x00000000   Number         0  VtblExports.o ABSOLUTE
    \scripts\5.0\qtmobility\src\versitorganizer\qversitorganizerexporter.cpp 0x00000000   Number         0  QtVersitOrganizer.in ABSOLUTE
    \scripts\5.0\qtmobility\src\versitorganizer\qversitorganizerexporter_p.cpp 0x00000000   Number         0  QtVersitOrganizer.in ABSOLUTE
    \scripts\5.0\qtmobility\src\versitorganizer\qversitorganizerhandler.cpp 0x00000000   Number         0  QtVersitOrganizer.in ABSOLUTE
    \scripts\5.0\qtmobility\src\versitorganizer\qversitorganizerimporter.cpp 0x00000000   Number         0  QtVersitOrganizer.in ABSOLUTE
    \scripts\5.0\qtmobility\src\versitorganizer\qversitorganizerimporter_p.cpp 0x00000000   Number         0  QtVersitOrganizer.in ABSOLUTE
    \scripts\5.0\qtmobility\src\versitorganizer\qversitorganizerpluginloader_p.cpp 0x00000000   Number         0  QtVersitOrganizer.in ABSOLUTE
    \scripts\5.0\qtmobility\src\versitorganizer\timezones_p.cpp 0x00000000   Number         0  QtVersitOrganizer.in ABSOLUTE
    \src\cedar\generic\base\e32\compsupp\RVCT2_2\ucppinit_aeabi.cpp 0x00000000   Number         0  ucppinit_aeabi.o ABSOLUTE
    \src\cedar\generic\base\e32\euser\epoc\arm\uc_dll.cpp 0x00000000   Number         0  uc_dll.o ABSOLUTE
    .emb_text                                0x00008000   Section       40  uc_dll_.o(.emb_text)
    .emb_text                                0x00008028   Section       72  ucppinit_aeabi.o(.emb_text)
    skip                                     0x0000803c   ARM Code       0  ucppinit_aeabi.o(.emb_text)
    loop                                     0x0000804c   ARM Code       0  ucppinit_aeabi.o(.emb_text)
    fpinit                                   0x00008064   Data           0  ucppinit_aeabi.o(.emb_text)
    base                                     0x00008068   Data           0  ucppinit_aeabi.o(.emb_text)
    limit                                    0x0000806c   Data           0  ucppinit_aeabi.o(.emb_text)
    .text                                    0x00008070   Section      576  QtVersitOrganizer.in(.text)
    .text                                    0x000082b0   Section     8712  QtVersitOrganizer.in(.text)
    |L1.1032|                                0x000086b8   Data           0  QtVersitOrganizer.in(.text)
    |L1.2072|                                0x00008ac8   Data           0  QtVersitOrganizer.in(.text)
    |L1.2160|                                0x00008b20   Data           0  QtVersitOrganizer.in(.text)
    |L1.3264|                                0x00008f70   Data           0  QtVersitOrganizer.in(.text)
    |L1.3272|                                0x00008f78   Data           0  QtVersitOrganizer.in(.text)
    |L1.5692|                                0x000098ec   Data           0  QtVersitOrganizer.in(.text)
    __sti___30_qversitorganizerexporter_p_cpp 0x0000a44f   Thumb Code    28  QtVersitOrganizer.in(.text)
    .text                                    0x0000a4b8   Section      548  QtVersitOrganizer.in(.text)
    .text                                    0x0000a6dc   Section    11512  QtVersitOrganizer.in(.text)
    |L1.2172|                                0x0000af58   Data           0  QtVersitOrganizer.in(.text)
    |L1.3224|                                0x0000b374   Data           0  QtVersitOrganizer.in(.text)
    |L1.3264|                                0x0000b39c   Data           0  QtVersitOrganizer.in(.text)
    |L1.4620|                                0x0000b8e8   Data           0  QtVersitOrganizer.in(.text)
    |L1.4628|                                0x0000b8f0   Data           0  QtVersitOrganizer.in(.text)
    |L1.6812|                                0x0000c178   Data           0  QtVersitOrganizer.in(.text)
    |L1.6820|                                0x0000c180   Data           0  QtVersitOrganizer.in(.text)
    |L1.9032|                                0x0000ca24   Data           0  QtVersitOrganizer.in(.text)
    |L1.9040|                                0x0000ca2c   Data           0  QtVersitOrganizer.in(.text)
    |L1.9084|                                0x0000ca58   Data           0  QtVersitOrganizer.in(.text)
    |L1.9100|                                0x0000ca68   Data           0  QtVersitOrganizer.in(.text)
    |L1.10196|                               0x0000ceb0   Data           0  QtVersitOrganizer.in(.text)
    __sti___30_qversitorganizerimporter_p_cpp 0x0000d39d   Thumb Code    28  QtVersitOrganizer.in(.text)
    .text                                    0x0000d3d4   Section     1228  QtVersitOrganizer.in(.text)
    QtMobility::qSymbian_CheckDir(const QDir&, RFs&) 0x0000d489   Thumb Code    78  QtVersitOrganizer.in(.text)
    .text                                    0x0000d8a0   Section      736  QtVersitOrganizer.in(.text)
    .text                                    0x0000db80   Section       40  uc_dll.o(.text)
    .text.clean                              0x0000dba8   Section       68  QtVersitOrganizer.in(.text.clean)
    .text.clean                              0x0000dbec   Section     1322  QtVersitOrganizer.in(.text.clean)
    .text.clean                              0x0000e116   Section       66  QtVersitOrganizer.in(.text.clean)
    .text.clean                              0x0000e158   Section     1708  QtVersitOrganizer.in(.text.clean)
    .text.clean                              0x0000e804   Section      136  QtVersitOrganizer.in(.text.clean)
    .text.clean                              0x0000e88c   Section      152  QtVersitOrganizer.in(.text.clean)
    ExportTable                              0x0000e924   Section       96  QtVersitOrganizer{00010103}.exp(ExportTable)
    StubCode                                 0x0000e984   Section        8  QtVersit{00010103}-107.o(StubCode)
    theImportedSymbol                        0x0000e988   Data           0  QtVersit{00010103}-107.o(StubCode)
    StubCode                                 0x0000e98c   Section        8  QtVersit{00010103}-108.o(StubCode)
    theImportedSymbol                        0x0000e990   Data           0  QtVersit{00010103}-108.o(StubCode)
    StubCode                                 0x0000e994   Section        8  QtVersit{00010103}-112.o(StubCode)
    theImportedSymbol                        0x0000e998   Data           0  QtVersit{00010103}-112.o(StubCode)
    StubCode                                 0x0000e99c   Section        8  QtVersit{00010103}-114.o(StubCode)
    theImportedSymbol                        0x0000e9a0   Data           0  QtVersit{00010103}-114.o(StubCode)
    StubCode                                 0x0000e9a4   Section        8  QtVersit{00010103}-115.o(StubCode)
    theImportedSymbol                        0x0000e9a8   Data           0  QtVersit{00010103}-115.o(StubCode)
    StubCode                                 0x0000e9ac   Section        8  QtVersit{00010103}-141.o(StubCode)
    theImportedSymbol                        0x0000e9b0   Data           0  QtVersit{00010103}-141.o(StubCode)
    StubCode                                 0x0000e9b4   Section        8  QtVersit{00010103}-142.o(StubCode)
    theImportedSymbol                        0x0000e9b8   Data           0  QtVersit{00010103}-142.o(StubCode)
    StubCode                                 0x0000e9bc   Section        8  QtVersit{00010103}-156.o(StubCode)
    theImportedSymbol                        0x0000e9c0   Data           0  QtVersit{00010103}-156.o(StubCode)
    StubCode                                 0x0000e9c4   Section        8  QtVersit{00010103}-157.o(StubCode)
    theImportedSymbol                        0x0000e9c8   Data           0  QtVersit{00010103}-157.o(StubCode)
    StubCode                                 0x0000e9cc   Section        8  QtVersit{00010103}-41.o(StubCode)
    theImportedSymbol                        0x0000e9d0   Data           0  QtVersit{00010103}-41.o(StubCode)
    StubCode                                 0x0000e9d4   Section        8  QtVersit{00010103}-42.o(StubCode)
    theImportedSymbol                        0x0000e9d8   Data           0  QtVersit{00010103}-42.o(StubCode)
    StubCode                                 0x0000e9dc   Section        8  QtVersit{00010103}-44.o(StubCode)
    theImportedSymbol                        0x0000e9e0   Data           0  QtVersit{00010103}-44.o(StubCode)
    StubCode                                 0x0000e9e4   Section        8  QtVersit{00010103}-45.o(StubCode)
    theImportedSymbol                        0x0000e9e8   Data           0  QtVersit{00010103}-45.o(StubCode)
    StubCode                                 0x0000e9ec   Section        8  QtVersit{00010103}-47.o(StubCode)
    theImportedSymbol                        0x0000e9f0   Data           0  QtVersit{00010103}-47.o(StubCode)
    StubCode                                 0x0000e9f4   Section        8  QtVersit{00010103}-48.o(StubCode)
    theImportedSymbol                        0x0000e9f8   Data           0  QtVersit{00010103}-48.o(StubCode)
    StubCode                                 0x0000e9fc   Section        8  QtVersit{00010103}-52.o(StubCode)
    theImportedSymbol                        0x0000ea00   Data           0  QtVersit{00010103}-52.o(StubCode)
    StubCode                                 0x0000ea04   Section        8  QtVersit{00010103}-55.o(StubCode)
    theImportedSymbol                        0x0000ea08   Data           0  QtVersit{00010103}-55.o(StubCode)
    StubCode                                 0x0000ea0c   Section        8  QtVersit{00010103}-57.o(StubCode)
    theImportedSymbol                        0x0000ea10   Data           0  QtVersit{00010103}-57.o(StubCode)
    StubCode                                 0x0000ea14   Section        8  QtVersit{00010103}-61.o(StubCode)
    theImportedSymbol                        0x0000ea18   Data           0  QtVersit{00010103}-61.o(StubCode)
    StubCode                                 0x0000ea1c   Section        8  QtVersit{00010103}-62.o(StubCode)
    theImportedSymbol                        0x0000ea20   Data           0  QtVersit{00010103}-62.o(StubCode)
    StubCode                                 0x0000ea24   Section        8  QtVersit{00010103}-64.o(StubCode)
    theImportedSymbol                        0x0000ea28   Data           0  QtVersit{00010103}-64.o(StubCode)
    StubCode                                 0x0000ea2c   Section        8  QtVersit{00010103}-65.o(StubCode)
    theImportedSymbol                        0x0000ea30   Data           0  QtVersit{00010103}-65.o(StubCode)
    StubCode                                 0x0000ea34   Section        8  QtVersit{00010103}-68.o(StubCode)
    theImportedSymbol                        0x0000ea38   Data           0  QtVersit{00010103}-68.o(StubCode)
    StubCode                                 0x0000ea3c   Section        8  QtVersit{00010103}-70.o(StubCode)
    theImportedSymbol                        0x0000ea40   Data           0  QtVersit{00010103}-70.o(StubCode)
    StubCode                                 0x0000ea44   Section        8  QtOrganizer{00010103}-138.o(StubCode)
    theImportedSymbol                        0x0000ea48   Data           0  QtOrganizer{00010103}-138.o(StubCode)
    StubCode                                 0x0000ea4c   Section        8  QtOrganizer{00010103}-139.o(StubCode)
    theImportedSymbol                        0x0000ea50   Data           0  QtOrganizer{00010103}-139.o(StubCode)
    StubCode                                 0x0000ea54   Section        8  QtOrganizer{00010103}-14.o(StubCode)
    theImportedSymbol                        0x0000ea58   Data           0  QtOrganizer{00010103}-14.o(StubCode)
    StubCode                                 0x0000ea5c   Section        8  QtOrganizer{00010103}-140.o(StubCode)
    theImportedSymbol                        0x0000ea60   Data           0  QtOrganizer{00010103}-140.o(StubCode)
    StubCode                                 0x0000ea64   Section        8  QtOrganizer{00010103}-141.o(StubCode)
    theImportedSymbol                        0x0000ea68   Data           0  QtOrganizer{00010103}-141.o(StubCode)
    StubCode                                 0x0000ea6c   Section        8  QtOrganizer{00010103}-142.o(StubCode)
    theImportedSymbol                        0x0000ea70   Data           0  QtOrganizer{00010103}-142.o(StubCode)
    StubCode                                 0x0000ea74   Section        8  QtOrganizer{00010103}-143.o(StubCode)
    theImportedSymbol                        0x0000ea78   Data           0  QtOrganizer{00010103}-143.o(StubCode)
    StubCode                                 0x0000ea7c   Section        8  QtOrganizer{00010103}-152.o(StubCode)
    theImportedSymbol                        0x0000ea80   Data           0  QtOrganizer{00010103}-152.o(StubCode)
    StubCode                                 0x0000ea84   Section        8  QtOrganizer{00010103}-154.o(StubCode)
    theImportedSymbol                        0x0000ea88   Data           0  QtOrganizer{00010103}-154.o(StubCode)
    StubCode                                 0x0000ea8c   Section        8  QtOrganizer{00010103}-16.o(StubCode)
    theImportedSymbol                        0x0000ea90   Data           0  QtOrganizer{00010103}-16.o(StubCode)
    StubCode                                 0x0000ea94   Section        8  QtOrganizer{00010103}-17.o(StubCode)
    theImportedSymbol                        0x0000ea98   Data           0  QtOrganizer{00010103}-17.o(StubCode)
    StubCode                                 0x0000ea9c   Section        8  QtOrganizer{00010103}-18.o(StubCode)
    theImportedSymbol                        0x0000eaa0   Data           0  QtOrganizer{00010103}-18.o(StubCode)
    StubCode                                 0x0000eaa4   Section        8  QtOrganizer{00010103}-19.o(StubCode)
    theImportedSymbol                        0x0000eaa8   Data           0  QtOrganizer{00010103}-19.o(StubCode)
    StubCode                                 0x0000eaac   Section        8  QtOrganizer{00010103}-2.o(StubCode)
    theImportedSymbol                        0x0000eab0   Data           0  QtOrganizer{00010103}-2.o(StubCode)
    StubCode                                 0x0000eab4   Section        8  QtOrganizer{00010103}-230.o(StubCode)
    theImportedSymbol                        0x0000eab8   Data           0  QtOrganizer{00010103}-230.o(StubCode)
    StubCode                                 0x0000eabc   Section        8  QtOrganizer{00010103}-233.o(StubCode)
    theImportedSymbol                        0x0000eac0   Data           0  QtOrganizer{00010103}-233.o(StubCode)
    StubCode                                 0x0000eac4   Section        8  QtOrganizer{00010103}-24.o(StubCode)
    theImportedSymbol                        0x0000eac8   Data           0  QtOrganizer{00010103}-24.o(StubCode)
    StubCode                                 0x0000eacc   Section        8  QtOrganizer{00010103}-297.o(StubCode)
    theImportedSymbol                        0x0000ead0   Data           0  QtOrganizer{00010103}-297.o(StubCode)
    StubCode                                 0x0000ead4   Section        8  QtOrganizer{00010103}-298.o(StubCode)
    theImportedSymbol                        0x0000ead8   Data           0  QtOrganizer{00010103}-298.o(StubCode)
    StubCode                                 0x0000eadc   Section        8  QtOrganizer{00010103}-299.o(StubCode)
    theImportedSymbol                        0x0000eae0   Data           0  QtOrganizer{00010103}-299.o(StubCode)
    StubCode                                 0x0000eae4   Section        8  QtOrganizer{00010103}-300.o(StubCode)
    theImportedSymbol                        0x0000eae8   Data           0  QtOrganizer{00010103}-300.o(StubCode)
    StubCode                                 0x0000eaec   Section        8  QtOrganizer{00010103}-306.o(StubCode)
    theImportedSymbol                        0x0000eaf0   Data           0  QtOrganizer{00010103}-306.o(StubCode)
    StubCode                                 0x0000eaf4   Section        8  QtOrganizer{00010103}-307.o(StubCode)
    theImportedSymbol                        0x0000eaf8   Data           0  QtOrganizer{00010103}-307.o(StubCode)
    StubCode                                 0x0000eafc   Section        8  QtOrganizer{00010103}-308.o(StubCode)
    theImportedSymbol                        0x0000eb00   Data           0  QtOrganizer{00010103}-308.o(StubCode)
    StubCode                                 0x0000eb04   Section        8  QtOrganizer{00010103}-309.o(StubCode)
    theImportedSymbol                        0x0000eb08   Data           0  QtOrganizer{00010103}-309.o(StubCode)
    StubCode                                 0x0000eb0c   Section        8  QtOrganizer{00010103}-310.o(StubCode)
    theImportedSymbol                        0x0000eb10   Data           0  QtOrganizer{00010103}-310.o(StubCode)
    StubCode                                 0x0000eb14   Section        8  QtOrganizer{00010103}-311.o(StubCode)
    theImportedSymbol                        0x0000eb18   Data           0  QtOrganizer{00010103}-311.o(StubCode)
    StubCode                                 0x0000eb1c   Section        8  QtOrganizer{00010103}-312.o(StubCode)
    theImportedSymbol                        0x0000eb20   Data           0  QtOrganizer{00010103}-312.o(StubCode)
    StubCode                                 0x0000eb24   Section        8  QtOrganizer{00010103}-313.o(StubCode)
    theImportedSymbol                        0x0000eb28   Data           0  QtOrganizer{00010103}-313.o(StubCode)
    StubCode                                 0x0000eb2c   Section        8  QtOrganizer{00010103}-314.o(StubCode)
    theImportedSymbol                        0x0000eb30   Data           0  QtOrganizer{00010103}-314.o(StubCode)
    StubCode                                 0x0000eb34   Section        8  QtOrganizer{00010103}-315.o(StubCode)
    theImportedSymbol                        0x0000eb38   Data           0  QtOrganizer{00010103}-315.o(StubCode)
    StubCode                                 0x0000eb3c   Section        8  QtOrganizer{00010103}-316.o(StubCode)
    theImportedSymbol                        0x0000eb40   Data           0  QtOrganizer{00010103}-316.o(StubCode)
    StubCode                                 0x0000eb44   Section        8  QtOrganizer{00010103}-317.o(StubCode)
    theImportedSymbol                        0x0000eb48   Data           0  QtOrganizer{00010103}-317.o(StubCode)
    StubCode                                 0x0000eb4c   Section        8  QtOrganizer{00010103}-318.o(StubCode)
    theImportedSymbol                        0x0000eb50   Data           0  QtOrganizer{00010103}-318.o(StubCode)
    StubCode                                 0x0000eb54   Section        8  QtOrganizer{00010103}-321.o(StubCode)
    theImportedSymbol                        0x0000eb58   Data           0  QtOrganizer{00010103}-321.o(StubCode)
    StubCode                                 0x0000eb5c   Section        8  QtOrganizer{00010103}-323.o(StubCode)
    theImportedSymbol                        0x0000eb60   Data           0  QtOrganizer{00010103}-323.o(StubCode)
    StubCode                                 0x0000eb64   Section        8  QtOrganizer{00010103}-45.o(StubCode)
    theImportedSymbol                        0x0000eb68   Data           0  QtOrganizer{00010103}-45.o(StubCode)
    StubCode                                 0x0000eb6c   Section        8  QtOrganizer{00010103}-50.o(StubCode)
    theImportedSymbol                        0x0000eb70   Data           0  QtOrganizer{00010103}-50.o(StubCode)
    StubCode                                 0x0000eb74   Section        8  QtOrganizer{00010103}-51.o(StubCode)
    theImportedSymbol                        0x0000eb78   Data           0  QtOrganizer{00010103}-51.o(StubCode)
    StubCode                                 0x0000eb7c   Section        8  QtOrganizer{00010103}-575.o(StubCode)
    theImportedSymbol                        0x0000eb80   Data           0  QtOrganizer{00010103}-575.o(StubCode)
    StubCode                                 0x0000eb84   Section        8  QtOrganizer{00010103}-608.o(StubCode)
    theImportedSymbol                        0x0000eb88   Data           0  QtOrganizer{00010103}-608.o(StubCode)
    StubCode                                 0x0000eb8c   Section        8  QtOrganizer{00010103}-609.o(StubCode)
    theImportedSymbol                        0x0000eb90   Data           0  QtOrganizer{00010103}-609.o(StubCode)
    StubCode                                 0x0000eb94   Section        8  QtOrganizer{00010103}-610.o(StubCode)
    theImportedSymbol                        0x0000eb98   Data           0  QtOrganizer{00010103}-610.o(StubCode)
    StubCode                                 0x0000eb9c   Section        8  QtOrganizer{00010103}-613.o(StubCode)
    theImportedSymbol                        0x0000eba0   Data           0  QtOrganizer{00010103}-613.o(StubCode)
    StubCode                                 0x0000eba4   Section        8  QtOrganizer{00010103}-633.o(StubCode)
    theImportedSymbol                        0x0000eba8   Data           0  QtOrganizer{00010103}-633.o(StubCode)
    StubCode                                 0x0000ebac   Section        8  QtOrganizer{00010103}-658.o(StubCode)
    theImportedSymbol                        0x0000ebb0   Data           0  QtOrganizer{00010103}-658.o(StubCode)
    StubCode                                 0x0000ebb4   Section        8  QtOrganizer{00010103}-677.o(StubCode)
    theImportedSymbol                        0x0000ebb8   Data           0  QtOrganizer{00010103}-677.o(StubCode)
    StubCode                                 0x0000ebbc   Section        8  QtOrganizer{00010103}-680.o(StubCode)
    theImportedSymbol                        0x0000ebc0   Data           0  QtOrganizer{00010103}-680.o(StubCode)
    StubCode                                 0x0000ebc4   Section        8  QtOrganizer{00010103}-683.o(StubCode)
    theImportedSymbol                        0x0000ebc8   Data           0  QtOrganizer{00010103}-683.o(StubCode)
    StubCode                                 0x0000ebcc   Section        8  QtOrganizer{00010103}-684.o(StubCode)
    theImportedSymbol                        0x0000ebd0   Data           0  QtOrganizer{00010103}-684.o(StubCode)
    StubCode                                 0x0000ebd4   Section        8  QtOrganizer{00010103}-685.o(StubCode)
    theImportedSymbol                        0x0000ebd8   Data           0  QtOrganizer{00010103}-685.o(StubCode)
    StubCode                                 0x0000ebdc   Section        8  QtOrganizer{00010103}-686.o(StubCode)
    theImportedSymbol                        0x0000ebe0   Data           0  QtOrganizer{00010103}-686.o(StubCode)
    StubCode                                 0x0000ebe4   Section        8  QtOrganizer{00010103}-732.o(StubCode)
    theImportedSymbol                        0x0000ebe8   Data           0  QtOrganizer{00010103}-732.o(StubCode)
    StubCode                                 0x0000ebec   Section        8  QtOrganizer{00010103}-733.o(StubCode)
    theImportedSymbol                        0x0000ebf0   Data           0  QtOrganizer{00010103}-733.o(StubCode)
    StubCode                                 0x0000ebf4   Section        8  QtOrganizer{00010103}-734.o(StubCode)
    theImportedSymbol                        0x0000ebf8   Data           0  QtOrganizer{00010103}-734.o(StubCode)
    StubCode                                 0x0000ebfc   Section        8  QtOrganizer{00010103}-735.o(StubCode)
    theImportedSymbol                        0x0000ec00   Data           0  QtOrganizer{00010103}-735.o(StubCode)
    StubCode                                 0x0000ec04   Section        8  QtOrganizer{00010103}-737.o(StubCode)
    theImportedSymbol                        0x0000ec08   Data           0  QtOrganizer{00010103}-737.o(StubCode)
    StubCode                                 0x0000ec0c   Section        8  QtOrganizer{00010103}-738.o(StubCode)
    theImportedSymbol                        0x0000ec10   Data           0  QtOrganizer{00010103}-738.o(StubCode)
    StubCode                                 0x0000ec14   Section        8  QtOrganizer{00010103}-739.o(StubCode)
    theImportedSymbol                        0x0000ec18   Data           0  QtOrganizer{00010103}-739.o(StubCode)
    StubCode                                 0x0000ec1c   Section        8  QtOrganizer{00010103}-740.o(StubCode)
    theImportedSymbol                        0x0000ec20   Data           0  QtOrganizer{00010103}-740.o(StubCode)
    StubCode                                 0x0000ec24   Section        8  QtOrganizer{00010103}-741.o(StubCode)
    theImportedSymbol                        0x0000ec28   Data           0  QtOrganizer{00010103}-741.o(StubCode)
    StubCode                                 0x0000ec2c   Section        8  QtOrganizer{00010103}-742.o(StubCode)
    theImportedSymbol                        0x0000ec30   Data           0  QtOrganizer{00010103}-742.o(StubCode)
    StubCode                                 0x0000ec34   Section        8  QtOrganizer{00010103}-743.o(StubCode)
    theImportedSymbol                        0x0000ec38   Data           0  QtOrganizer{00010103}-743.o(StubCode)
    StubCode                                 0x0000ec3c   Section        8  QtOrganizer{00010103}-744.o(StubCode)
    theImportedSymbol                        0x0000ec40   Data           0  QtOrganizer{00010103}-744.o(StubCode)
    StubCode                                 0x0000ec44   Section        8  QtOrganizer{00010103}-745.o(StubCode)
    theImportedSymbol                        0x0000ec48   Data           0  QtOrganizer{00010103}-745.o(StubCode)
    StubCode                                 0x0000ec4c   Section        8  QtOrganizer{00010103}-746.o(StubCode)
    theImportedSymbol                        0x0000ec50   Data           0  QtOrganizer{00010103}-746.o(StubCode)
    StubCode                                 0x0000ec54   Section        8  QtOrganizer{00010103}-747.o(StubCode)
    theImportedSymbol                        0x0000ec58   Data           0  QtOrganizer{00010103}-747.o(StubCode)
    StubCode                                 0x0000ec5c   Section        8  QtOrganizer{00010103}-748.o(StubCode)
    theImportedSymbol                        0x0000ec60   Data           0  QtOrganizer{00010103}-748.o(StubCode)
    StubCode                                 0x0000ec64   Section        8  QtOrganizer{00010103}-749.o(StubCode)
    theImportedSymbol                        0x0000ec68   Data           0  QtOrganizer{00010103}-749.o(StubCode)
    StubCode                                 0x0000ec6c   Section        8  QtOrganizer{00010103}-769.o(StubCode)
    theImportedSymbol                        0x0000ec70   Data           0  QtOrganizer{00010103}-769.o(StubCode)
    StubCode                                 0x0000ec74   Section        8  QtOrganizer{00010103}-93.o(StubCode)
    theImportedSymbol                        0x0000ec78   Data           0  QtOrganizer{00010103}-93.o(StubCode)
    StubCode                                 0x0000ec7c   Section        8  efsrv{000a0000}-231.o(StubCode)
    theImportedSymbol                        0x0000ec80   Data           0  efsrv{000a0000}-231.o(StubCode)
    StubCode                                 0x0000ec84   Section        8  efsrv{000a0000}-68.o(StubCode)
    theImportedSymbol                        0x0000ec88   Data           0  efsrv{000a0000}-68.o(StubCode)
    StubCode                                 0x0000ec8c   Section        8  libstdcpp{00010000}-988.o(StubCode)
    theImportedSymbol                        0x0000ec90   Data           0  libstdcpp{00010000}-988.o(StubCode)
    StubCode                                 0x0000ec94   Section        8  libstdcpp{00010000}-992.o(StubCode)
    theImportedSymbol                        0x0000ec98   Data           0  libstdcpp{00010000}-992.o(StubCode)
    StubCode                                 0x0000ec9c   Section        8  QtCore{00040703}-1453.o(StubCode)
    theImportedSymbol                        0x0000eca0   Data           0  QtCore{00040703}-1453.o(StubCode)
    StubCode                                 0x0000eca4   Section        8  QtCore{00040703}-1457.o(StubCode)
    theImportedSymbol                        0x0000eca8   Data           0  QtCore{00040703}-1457.o(StubCode)
    StubCode                                 0x0000ecac   Section        8  QtCore{00040703}-1471.o(StubCode)
    theImportedSymbol                        0x0000ecb0   Data           0  QtCore{00040703}-1471.o(StubCode)
    StubCode                                 0x0000ecb4   Section        8  QtCore{00040703}-1477.o(StubCode)
    theImportedSymbol                        0x0000ecb8   Data           0  QtCore{00040703}-1477.o(StubCode)
    StubCode                                 0x0000ecbc   Section        8  QtCore{00040703}-1565.o(StubCode)
    theImportedSymbol                        0x0000ecc0   Data           0  QtCore{00040703}-1565.o(StubCode)
    StubCode                                 0x0000ecc4   Section        8  QtCore{00040703}-1582.o(StubCode)
    theImportedSymbol                        0x0000ecc8   Data           0  QtCore{00040703}-1582.o(StubCode)
    StubCode                                 0x0000eccc   Section        8  QtCore{00040703}-1643.o(StubCode)
    theImportedSymbol                        0x0000ecd0   Data           0  QtCore{00040703}-1643.o(StubCode)
    StubCode                                 0x0000ecd4   Section        8  QtCore{00040703}-1814.o(StubCode)
    theImportedSymbol                        0x0000ecd8   Data           0  QtCore{00040703}-1814.o(StubCode)
    StubCode                                 0x0000ecdc   Section        8  QtCore{00040703}-1825.o(StubCode)
    theImportedSymbol                        0x0000ece0   Data           0  QtCore{00040703}-1825.o(StubCode)
    StubCode                                 0x0000ece4   Section        8  QtCore{00040703}-1826.o(StubCode)
    theImportedSymbol                        0x0000ece8   Data           0  QtCore{00040703}-1826.o(StubCode)
    StubCode                                 0x0000ecec   Section        8  QtCore{00040703}-1828.o(StubCode)
    theImportedSymbol                        0x0000ecf0   Data           0  QtCore{00040703}-1828.o(StubCode)
    StubCode                                 0x0000ecf4   Section        8  QtCore{00040703}-1830.o(StubCode)
    theImportedSymbol                        0x0000ecf8   Data           0  QtCore{00040703}-1830.o(StubCode)
    StubCode                                 0x0000ecfc   Section        8  QtCore{00040703}-1831.o(StubCode)
    theImportedSymbol                        0x0000ed00   Data           0  QtCore{00040703}-1831.o(StubCode)
    StubCode                                 0x0000ed04   Section        8  QtCore{00040703}-1835.o(StubCode)
    theImportedSymbol                        0x0000ed08   Data           0  QtCore{00040703}-1835.o(StubCode)
    StubCode                                 0x0000ed0c   Section        8  QtCore{00040703}-1836.o(StubCode)
    theImportedSymbol                        0x0000ed10   Data           0  QtCore{00040703}-1836.o(StubCode)
    StubCode                                 0x0000ed14   Section        8  QtCore{00040703}-1842.o(StubCode)
    theImportedSymbol                        0x0000ed18   Data           0  QtCore{00040703}-1842.o(StubCode)
    StubCode                                 0x0000ed1c   Section        8  QtCore{00040703}-1855.o(StubCode)
    theImportedSymbol                        0x0000ed20   Data           0  QtCore{00040703}-1855.o(StubCode)
    StubCode                                 0x0000ed24   Section        8  QtCore{00040703}-1874.o(StubCode)
    theImportedSymbol                        0x0000ed28   Data           0  QtCore{00040703}-1874.o(StubCode)
    StubCode                                 0x0000ed2c   Section        8  QtCore{00040703}-1885.o(StubCode)
    theImportedSymbol                        0x0000ed30   Data           0  QtCore{00040703}-1885.o(StubCode)
    StubCode                                 0x0000ed34   Section        8  QtCore{00040703}-1947.o(StubCode)
    theImportedSymbol                        0x0000ed38   Data           0  QtCore{00040703}-1947.o(StubCode)
    StubCode                                 0x0000ed3c   Section        8  QtCore{00040703}-1949.o(StubCode)
    theImportedSymbol                        0x0000ed40   Data           0  QtCore{00040703}-1949.o(StubCode)
    StubCode                                 0x0000ed44   Section        8  QtCore{00040703}-2016.o(StubCode)
    theImportedSymbol                        0x0000ed48   Data           0  QtCore{00040703}-2016.o(StubCode)
    StubCode                                 0x0000ed4c   Section        8  QtCore{00040703}-2020.o(StubCode)
    theImportedSymbol                        0x0000ed50   Data           0  QtCore{00040703}-2020.o(StubCode)
    StubCode                                 0x0000ed54   Section        8  QtCore{00040703}-2034.o(StubCode)
    theImportedSymbol                        0x0000ed58   Data           0  QtCore{00040703}-2034.o(StubCode)
    StubCode                                 0x0000ed5c   Section        8  QtCore{00040703}-2036.o(StubCode)
    theImportedSymbol                        0x0000ed60   Data           0  QtCore{00040703}-2036.o(StubCode)
    StubCode                                 0x0000ed64   Section        8  QtCore{00040703}-2038.o(StubCode)
    theImportedSymbol                        0x0000ed68   Data           0  QtCore{00040703}-2038.o(StubCode)
    StubCode                                 0x0000ed6c   Section        8  QtCore{00040703}-2040.o(StubCode)
    theImportedSymbol                        0x0000ed70   Data           0  QtCore{00040703}-2040.o(StubCode)
    StubCode                                 0x0000ed74   Section        8  QtCore{00040703}-2082.o(StubCode)
    theImportedSymbol                        0x0000ed78   Data           0  QtCore{00040703}-2082.o(StubCode)
    StubCode                                 0x0000ed7c   Section        8  QtCore{00040703}-2093.o(StubCode)
    theImportedSymbol                        0x0000ed80   Data           0  QtCore{00040703}-2093.o(StubCode)
    StubCode                                 0x0000ed84   Section        8  QtCore{00040703}-2095.o(StubCode)
    theImportedSymbol                        0x0000ed88   Data           0  QtCore{00040703}-2095.o(StubCode)
    StubCode                                 0x0000ed8c   Section        8  QtCore{00040703}-2099.o(StubCode)
    theImportedSymbol                        0x0000ed90   Data           0  QtCore{00040703}-2099.o(StubCode)
    StubCode                                 0x0000ed94   Section        8  QtCore{00040703}-2100.o(StubCode)
    theImportedSymbol                        0x0000ed98   Data           0  QtCore{00040703}-2100.o(StubCode)
    StubCode                                 0x0000ed9c   Section        8  QtCore{00040703}-2102.o(StubCode)
    theImportedSymbol                        0x0000eda0   Data           0  QtCore{00040703}-2102.o(StubCode)
    StubCode                                 0x0000eda4   Section        8  QtCore{00040703}-2104.o(StubCode)
    theImportedSymbol                        0x0000eda8   Data           0  QtCore{00040703}-2104.o(StubCode)
    StubCode                                 0x0000edac   Section        8  QtCore{00040703}-2105.o(StubCode)
    theImportedSymbol                        0x0000edb0   Data           0  QtCore{00040703}-2105.o(StubCode)
    StubCode                                 0x0000edb4   Section        8  QtCore{00040703}-2110.o(StubCode)
    theImportedSymbol                        0x0000edb8   Data           0  QtCore{00040703}-2110.o(StubCode)
    StubCode                                 0x0000edbc   Section        8  QtCore{00040703}-2112.o(StubCode)
    theImportedSymbol                        0x0000edc0   Data           0  QtCore{00040703}-2112.o(StubCode)
    StubCode                                 0x0000edc4   Section        8  QtCore{00040703}-2134.o(StubCode)
    theImportedSymbol                        0x0000edc8   Data           0  QtCore{00040703}-2134.o(StubCode)
    StubCode                                 0x0000edcc   Section        8  QtCore{00040703}-2137.o(StubCode)
    theImportedSymbol                        0x0000edd0   Data           0  QtCore{00040703}-2137.o(StubCode)
    StubCode                                 0x0000edd4   Section        8  QtCore{00040703}-2141.o(StubCode)
    theImportedSymbol                        0x0000edd8   Data           0  QtCore{00040703}-2141.o(StubCode)
    StubCode                                 0x0000eddc   Section        8  QtCore{00040703}-2143.o(StubCode)
    theImportedSymbol                        0x0000ede0   Data           0  QtCore{00040703}-2143.o(StubCode)
    StubCode                                 0x0000ede4   Section        8  QtCore{00040703}-2186.o(StubCode)
    theImportedSymbol                        0x0000ede8   Data           0  QtCore{00040703}-2186.o(StubCode)
    StubCode                                 0x0000edec   Section        8  QtCore{00040703}-2188.o(StubCode)
    theImportedSymbol                        0x0000edf0   Data           0  QtCore{00040703}-2188.o(StubCode)
    StubCode                                 0x0000edf4   Section        8  QtCore{00040703}-2197.o(StubCode)
    theImportedSymbol                        0x0000edf8   Data           0  QtCore{00040703}-2197.o(StubCode)
    StubCode                                 0x0000edfc   Section        8  QtCore{00040703}-2791.o(StubCode)
    theImportedSymbol                        0x0000ee00   Data           0  QtCore{00040703}-2791.o(StubCode)
    StubCode                                 0x0000ee04   Section        8  QtCore{00040703}-2795.o(StubCode)
    theImportedSymbol                        0x0000ee08   Data           0  QtCore{00040703}-2795.o(StubCode)
    StubCode                                 0x0000ee0c   Section        8  QtCore{00040703}-2797.o(StubCode)
    theImportedSymbol                        0x0000ee10   Data           0  QtCore{00040703}-2797.o(StubCode)
    StubCode                                 0x0000ee14   Section        8  QtCore{00040703}-2810.o(StubCode)
    theImportedSymbol                        0x0000ee18   Data           0  QtCore{00040703}-2810.o(StubCode)
    StubCode                                 0x0000ee1c   Section        8  QtCore{00040703}-2811.o(StubCode)
    theImportedSymbol                        0x0000ee20   Data           0  QtCore{00040703}-2811.o(StubCode)
    StubCode                                 0x0000ee24   Section        8  QtCore{00040703}-2867.o(StubCode)
    theImportedSymbol                        0x0000ee28   Data           0  QtCore{00040703}-2867.o(StubCode)
    StubCode                                 0x0000ee2c   Section        8  QtCore{00040703}-2875.o(StubCode)
    theImportedSymbol                        0x0000ee30   Data           0  QtCore{00040703}-2875.o(StubCode)
    StubCode                                 0x0000ee34   Section        8  QtCore{00040703}-2887.o(StubCode)
    theImportedSymbol                        0x0000ee38   Data           0  QtCore{00040703}-2887.o(StubCode)
    StubCode                                 0x0000ee3c   Section        8  QtCore{00040703}-2888.o(StubCode)
    theImportedSymbol                        0x0000ee40   Data           0  QtCore{00040703}-2888.o(StubCode)
    StubCode                                 0x0000ee44   Section        8  QtCore{00040703}-2891.o(StubCode)
    theImportedSymbol                        0x0000ee48   Data           0  QtCore{00040703}-2891.o(StubCode)
    StubCode                                 0x0000ee4c   Section        8  QtCore{00040703}-3054.o(StubCode)
    theImportedSymbol                        0x0000ee50   Data           0  QtCore{00040703}-3054.o(StubCode)
    StubCode                                 0x0000ee54   Section        8  QtCore{00040703}-3055.o(StubCode)
    theImportedSymbol                        0x0000ee58   Data           0  QtCore{00040703}-3055.o(StubCode)
    StubCode                                 0x0000ee5c   Section        8  QtCore{00040703}-3059.o(StubCode)
    theImportedSymbol                        0x0000ee60   Data           0  QtCore{00040703}-3059.o(StubCode)
    StubCode                                 0x0000ee64   Section        8  QtCore{00040703}-3060.o(StubCode)
    theImportedSymbol                        0x0000ee68   Data           0  QtCore{00040703}-3060.o(StubCode)
    StubCode                                 0x0000ee6c   Section        8  QtCore{00040703}-3063.o(StubCode)
    theImportedSymbol                        0x0000ee70   Data           0  QtCore{00040703}-3063.o(StubCode)
    StubCode                                 0x0000ee74   Section        8  QtCore{00040703}-3064.o(StubCode)
    theImportedSymbol                        0x0000ee78   Data           0  QtCore{00040703}-3064.o(StubCode)
    StubCode                                 0x0000ee7c   Section        8  QtCore{00040703}-3073.o(StubCode)
    theImportedSymbol                        0x0000ee80   Data           0  QtCore{00040703}-3073.o(StubCode)
    StubCode                                 0x0000ee84   Section        8  QtCore{00040703}-3088.o(StubCode)
    theImportedSymbol                        0x0000ee88   Data           0  QtCore{00040703}-3088.o(StubCode)
    StubCode                                 0x0000ee8c   Section        8  QtCore{00040703}-3089.o(StubCode)
    theImportedSymbol                        0x0000ee90   Data           0  QtCore{00040703}-3089.o(StubCode)
    StubCode                                 0x0000ee94   Section        8  QtCore{00040703}-3097.o(StubCode)
    theImportedSymbol                        0x0000ee98   Data           0  QtCore{00040703}-3097.o(StubCode)
    StubCode                                 0x0000ee9c   Section        8  QtCore{00040703}-3098.o(StubCode)
    theImportedSymbol                        0x0000eea0   Data           0  QtCore{00040703}-3098.o(StubCode)
    StubCode                                 0x0000eea4   Section        8  QtCore{00040703}-3101.o(StubCode)
    theImportedSymbol                        0x0000eea8   Data           0  QtCore{00040703}-3101.o(StubCode)
    StubCode                                 0x0000eeac   Section        8  QtCore{00040703}-3145.o(StubCode)
    theImportedSymbol                        0x0000eeb0   Data           0  QtCore{00040703}-3145.o(StubCode)
    StubCode                                 0x0000eeb4   Section        8  QtCore{00040703}-3165.o(StubCode)
    theImportedSymbol                        0x0000eeb8   Data           0  QtCore{00040703}-3165.o(StubCode)
    StubCode                                 0x0000eebc   Section        8  QtCore{00040703}-3166.o(StubCode)
    theImportedSymbol                        0x0000eec0   Data           0  QtCore{00040703}-3166.o(StubCode)
    StubCode                                 0x0000eec4   Section        8  QtCore{00040703}-3169.o(StubCode)
    theImportedSymbol                        0x0000eec8   Data           0  QtCore{00040703}-3169.o(StubCode)
    StubCode                                 0x0000eecc   Section        8  QtCore{00040703}-3170.o(StubCode)
    theImportedSymbol                        0x0000eed0   Data           0  QtCore{00040703}-3170.o(StubCode)
    StubCode                                 0x0000eed4   Section        8  QtCore{00040703}-3171.o(StubCode)
    theImportedSymbol                        0x0000eed8   Data           0  QtCore{00040703}-3171.o(StubCode)
    StubCode                                 0x0000eedc   Section        8  QtCore{00040703}-3172.o(StubCode)
    theImportedSymbol                        0x0000eee0   Data           0  QtCore{00040703}-3172.o(StubCode)
    StubCode                                 0x0000eee4   Section        8  QtCore{00040703}-3174.o(StubCode)
    theImportedSymbol                        0x0000eee8   Data           0  QtCore{00040703}-3174.o(StubCode)
    StubCode                                 0x0000eeec   Section        8  QtCore{00040703}-3175.o(StubCode)
    theImportedSymbol                        0x0000eef0   Data           0  QtCore{00040703}-3175.o(StubCode)
    StubCode                                 0x0000eef4   Section        8  QtCore{00040703}-3176.o(StubCode)
    theImportedSymbol                        0x0000eef8   Data           0  QtCore{00040703}-3176.o(StubCode)
    StubCode                                 0x0000eefc   Section        8  QtCore{00040703}-3177.o(StubCode)
    theImportedSymbol                        0x0000ef00   Data           0  QtCore{00040703}-3177.o(StubCode)
    StubCode                                 0x0000ef04   Section        8  QtCore{00040703}-3180.o(StubCode)
    theImportedSymbol                        0x0000ef08   Data           0  QtCore{00040703}-3180.o(StubCode)
    StubCode                                 0x0000ef0c   Section        8  QtCore{00040703}-3182.o(StubCode)
    theImportedSymbol                        0x0000ef10   Data           0  QtCore{00040703}-3182.o(StubCode)
    StubCode                                 0x0000ef14   Section        8  QtCore{00040703}-3187.o(StubCode)
    theImportedSymbol                        0x0000ef18   Data           0  QtCore{00040703}-3187.o(StubCode)
    StubCode                                 0x0000ef1c   Section        8  QtCore{00040703}-3607.o(StubCode)
    theImportedSymbol                        0x0000ef20   Data           0  QtCore{00040703}-3607.o(StubCode)
    StubCode                                 0x0000ef24   Section        8  QtCore{00040703}-3608.o(StubCode)
    theImportedSymbol                        0x0000ef28   Data           0  QtCore{00040703}-3608.o(StubCode)
    StubCode                                 0x0000ef2c   Section        8  QtCore{00040703}-3609.o(StubCode)
    theImportedSymbol                        0x0000ef30   Data           0  QtCore{00040703}-3609.o(StubCode)
    StubCode                                 0x0000ef34   Section        8  QtCore{00040703}-3610.o(StubCode)
    theImportedSymbol                        0x0000ef38   Data           0  QtCore{00040703}-3610.o(StubCode)
    StubCode                                 0x0000ef3c   Section        8  QtCore{00040703}-3689.o(StubCode)
    theImportedSymbol                        0x0000ef40   Data           0  QtCore{00040703}-3689.o(StubCode)
    StubCode                                 0x0000ef44   Section        8  QtCore{00040703}-3691.o(StubCode)
    theImportedSymbol                        0x0000ef48   Data           0  QtCore{00040703}-3691.o(StubCode)
    StubCode                                 0x0000ef4c   Section        8  QtCore{00040703}-46.o(StubCode)
    theImportedSymbol                        0x0000ef50   Data           0  QtCore{00040703}-46.o(StubCode)
    StubCode                                 0x0000ef54   Section        8  QtCore{00040703}-499.o(StubCode)
    theImportedSymbol                        0x0000ef58   Data           0  QtCore{00040703}-499.o(StubCode)
    StubCode                                 0x0000ef5c   Section        8  QtCore{00040703}-501.o(StubCode)
    theImportedSymbol                        0x0000ef60   Data           0  QtCore{00040703}-501.o(StubCode)
    StubCode                                 0x0000ef64   Section        8  QtCore{00040703}-505.o(StubCode)
    theImportedSymbol                        0x0000ef68   Data           0  QtCore{00040703}-505.o(StubCode)
    StubCode                                 0x0000ef6c   Section        8  QtCore{00040703}-70.o(StubCode)
    theImportedSymbol                        0x0000ef70   Data           0  QtCore{00040703}-70.o(StubCode)
    StubCode                                 0x0000ef74   Section        8  QtCore{00040703}-73.o(StubCode)
    theImportedSymbol                        0x0000ef78   Data           0  QtCore{00040703}-73.o(StubCode)
    StubCode                                 0x0000ef7c   Section        8  QtCore{00040703}-753.o(StubCode)
    theImportedSymbol                        0x0000ef80   Data           0  QtCore{00040703}-753.o(StubCode)
    StubCode                                 0x0000ef84   Section        8  QtCore{00040703}-772.o(StubCode)
    theImportedSymbol                        0x0000ef88   Data           0  QtCore{00040703}-772.o(StubCode)
    StubCode                                 0x0000ef8c   Section        8  euser{000a0000}-1170.o(StubCode)
    theImportedSymbol                        0x0000ef90   Data           0  euser{000a0000}-1170.o(StubCode)
    StubCode                                 0x0000ef94   Section        8  euser{000a0000}-120.o(StubCode)
    theImportedSymbol                        0x0000ef98   Data           0  euser{000a0000}-120.o(StubCode)
    StubCode                                 0x0000ef9c   Section        8  euser{000a0000}-670.o(StubCode)
    theImportedSymbol                        0x0000efa0   Data           0  euser{000a0000}-670.o(StubCode)
    StubCode                                 0x0000efa4   Section        8  euser{000a0000}-671.o(StubCode)
    theImportedSymbol                        0x0000efa8   Data           0  euser{000a0000}-671.o(StubCode)
    StubCode                                 0x0000efac   Section        8  drtaeabi{000a0000}-147.o(StubCode)
    theImportedSymbol                        0x0000efb0   Data           0  drtaeabi{000a0000}-147.o(StubCode)
    StubCode                                 0x0000efb4   Section        8  drtaeabi{000a0000}-155.o(StubCode)
    theImportedSymbol                        0x0000efb8   Data           0  drtaeabi{000a0000}-155.o(StubCode)
    StubCode                                 0x0000efbc   Section        8  drtaeabi{000a0000}-158.o(StubCode)
    theImportedSymbol                        0x0000efc0   Data           0  drtaeabi{000a0000}-158.o(StubCode)
    StubCode                                 0x0000efc4   Section        8  drtaeabi{000a0000}-180.o(StubCode)
    theImportedSymbol                        0x0000efc8   Data           0  drtaeabi{000a0000}-180.o(StubCode)
    StubCode                                 0x0000efcc   Section        8  drtaeabi{000a0000}-183.o(StubCode)
    theImportedSymbol                        0x0000efd0   Data           0  drtaeabi{000a0000}-183.o(StubCode)
    StubCode                                 0x0000efd4   Section        8  drtaeabi{000a0000}-184.o(StubCode)
    theImportedSymbol                        0x0000efd8   Data           0  drtaeabi{000a0000}-184.o(StubCode)
    StubCode                                 0x0000efdc   Section        8  drtaeabi{000a0000}-186.o(StubCode)
    theImportedSymbol                        0x0000efe0   Data           0  drtaeabi{000a0000}-186.o(StubCode)
    StubCode                                 0x0000efe4   Section        8  drtaeabi{000a0000}-187.o(StubCode)
    theImportedSymbol                        0x0000efe8   Data           0  drtaeabi{000a0000}-187.o(StubCode)
    StubCode                                 0x0000efec   Section        8  drtaeabi{000a0000}-188.o(StubCode)
    theImportedSymbol                        0x0000eff0   Data           0  drtaeabi{000a0000}-188.o(StubCode)
    StubCode                                 0x0000eff4   Section        8  drtaeabi{000a0000}-190.o(StubCode)
    theImportedSymbol                        0x0000eff8   Data           0  drtaeabi{000a0000}-190.o(StubCode)
    StubCode                                 0x0000effc   Section        8  drtrvct2_2{000a0000}-28.o(StubCode)
    theImportedSymbol                        0x0000f000   Data           0  drtrvct2_2{000a0000}-28.o(StubCode)
    i._Z20qvariant_cast_helperRK8QVariantNS_4TypeEPv 0x0000f004   Section       20  QtVersitOrganizer.in(i._Z20qvariant_cast_helperRK8QVariantNS_4TypeEPv)
    i._ZN10QMultiHashI7QStringS0_ED1Ev       0x0000f018   Section        8  QtVersitOrganizer.in(i._ZN10QMultiHashI7QStringS0_ED1Ev)
    i._ZN10QtMobility15QOrganizerEventD1Ev   0x0000f020   Section        8  QtVersitOrganizer.in(i._ZN10QtMobility15QOrganizerEventD1Ev)
    i._ZN10QtMobility15mobilityPluginsERK7QString 0x0000f028   Section      616  QtVersitOrganizer.in(i._ZN10QtMobility15mobilityPluginsERK7QString)
    i._ZN10QtMobility15mobilityPluginsERK7QString.clean 0x0000f290   Section      108  QtVersitOrganizer.in(i._ZN10QtMobility15mobilityPluginsERK7QString.clean)
    i._ZN10QtMobility18QOrganizerTodoTime9setAllDayEb 0x0000f2fc   Section       32  QtVersitOrganizer.in(i._ZN10QtMobility18QOrganizerTodoTime9setAllDayEb)
    i._ZN10QtMobility18QOrganizerTodoTime9setAllDayEb.clean 0x0000f31c   Section       10  QtVersitOrganizer.in(i._ZN10QtMobility18QOrganizerTodoTime9setAllDayEb.clean)
    i._ZN10QtMobility18QOrganizerTodoTimeD1Ev 0x0000f326   Section        8  QtVersitOrganizer.in(i._ZN10QtMobility18QOrganizerTodoTimeD1Ev)
    i._ZN10QtMobility19QOrganizerEventTime14setEndDateTimeERK9QDateTime 0x0000f330   Section       32  QtVersitOrganizer.in(i._ZN10QtMobility19QOrganizerEventTime14setEndDateTimeERK9QDateTime)
    i._ZN10QtMobility19QOrganizerEventTime14setEndDateTimeERK9QDateTime.clean 0x0000f350   Section       10  QtVersitOrganizer.in(i._ZN10QtMobility19QOrganizerEventTime14setEndDateTimeERK9QDateTime.clean)
    i._ZN10QtMobility19QOrganizerEventTime9setAllDayEb 0x0000f35c   Section       32  QtVersitOrganizer.in(i._ZN10QtMobility19QOrganizerEventTime9setAllDayEb)
    i._ZN10QtMobility19QOrganizerEventTime9setAllDayEb.clean 0x0000f37c   Section       10  QtVersitOrganizer.in(i._ZN10QtMobility19QOrganizerEventTime9setAllDayEb.clean)
    i._ZN10QtMobility19QOrganizerEventTimeD1Ev 0x0000f386   Section        8  QtVersitOrganizer.in(i._ZN10QtMobility19QOrganizerEventTimeD1Ev)
    i._ZN10QtMobility20QOrganizerItemParentD1Ev 0x0000f38e   Section        8  QtVersitOrganizer.in(i._ZN10QtMobility20QOrganizerItemParentD1Ev)
    i._ZN10QtMobility21QOrganizerItemCommentD1Ev 0x0000f396   Section        8  QtVersitOrganizer.in(i._ZN10QtMobility21QOrganizerItemCommentD1Ev)
    i._ZN10QtMobility21QOrganizerJournalTimeD1Ev 0x0000f39e   Section        8  QtVersitOrganizer.in(i._ZN10QtMobility21QOrganizerJournalTimeD1Ev)
    i._ZN10QtMobility22QOrganizerItemPriorityD1Ev 0x0000f3a6   Section        8  QtVersitOrganizer.in(i._ZN10QtMobility22QOrganizerItemPriorityD1Ev)
    i._ZN10QtMobility22QOrganizerTodoProgressD1Ev 0x0000f3ae   Section        8  QtVersitOrganizer.in(i._ZN10QtMobility22QOrganizerTodoProgressD1Ev)
    i._ZN10QtMobility23QOrganizerItemTimestampD1Ev 0x0000f3b6   Section        8  QtVersitOrganizer.in(i._ZN10QtMobility23QOrganizerItemTimestampD1Ev)
    i._ZN10QtMobility24QOrganizerItemRecurrenceD1Ev 0x0000f3be   Section        8  QtVersitOrganizer.in(i._ZN10QtMobility24QOrganizerItemRecurrenceD1Ev)
    i._ZN10QtMobility25QOrganizerEventOccurrenceD1Ev 0x0000f3c6   Section        8  QtVersitOrganizer.in(i._ZN10QtMobility25QOrganizerEventOccurrenceD1Ev)
    i._ZN10QtMobility8Duration15invalidDurationEv 0x0000f3ce   Section       32  QtVersitOrganizer.in(i._ZN10QtMobility8Duration15invalidDurationEv)
    i._ZN10QtMobility8DurationC1Ev           0x0000f3ee   Section       20  QtVersitOrganizer.in(i._ZN10QtMobility8DurationC1Ev)
    i._ZN11QStringListC1Ev                   0x0000f404   Section       20  QtVersitOrganizer.in(i._ZN11QStringListC1Ev)
    i._ZN11QStringListD1Ev                   0x0000f418   Section        8  QtVersitOrganizer.in(i._ZN11QStringListD1Ev)
    i._ZN13TimeZonePhaseC1ERKS_              0x0000f420   Section       58  QtVersitOrganizer.in(i._ZN13TimeZonePhaseC1ERKS_)
    i._ZN13TimeZonePhaseC1ERKS_.clean        0x0000f45a   Section       24  QtVersitOrganizer.in(i._ZN13TimeZonePhaseC1ERKS_.clean)
    i._ZN13TimeZonePhaseD1Ev                 0x0000f472   Section       32  QtVersitOrganizer.in(i._ZN13TimeZonePhaseD1Ev)
    i._ZN13TimeZonePhaseD1Ev.clean           0x0000f492   Section       24  QtVersitOrganizer.in(i._ZN13TimeZonePhaseD1Ev.clean)
    i._ZN15QBasicAtomicInt3refEv             0x0000f4aa   Section       18  QtVersitOrganizer.in(i._ZN15QBasicAtomicInt3refEv)
    i._ZN15QBasicAtomicInt5derefEv           0x0000f4bc   Section       18  QtVersitOrganizer.in(i._ZN15QBasicAtomicInt5derefEv)
    i._ZN17QForeachContainerI11QStringListED1Ev 0x0000f4ce   Section        8  QtVersitOrganizer.in(i._ZN17QForeachContainerI11QStringListED1Ev)
    i._ZN17QForeachContainerI4QSetIN10QtMobility24QOrganizerRecurrenceRuleEEED1Ev 0x0000f4d6   Section        8  QtVersitOrganizer.in(i._ZN17QForeachContainerI4QSetIN10QtMobility24QOrganizerRecurrenceRuleEEED1Ev)
    i._ZN17QForeachContainerI5QListI13TimeZonePhaseEED1Ev 0x0000f4de   Section        8  QtVersitOrganizer.in(i._ZN17QForeachContainerI5QListI13TimeZonePhaseEED1Ev)
    i._ZN17QForeachContainerI5QListI5QDateEED1Ev 0x0000f4e6   Section        8  QtVersitOrganizer.in(i._ZN17QForeachContainerI5QListI5QDateEED1Ev)
    i._ZN17QForeachContainerI5QListIN10QtMobility14QOrganizerItemEEED1Ev 0x0000f4ee   Section        8  QtVersitOrganizer.in(i._ZN17QForeachContainerI5QListIN10QtMobility14QOrganizerItemEEED1Ev)
    i._ZN17QForeachContainerI5QListIN10QtMobility15QVersitDocumentEEED1Ev 0x0000f4f6   Section        8  QtVersitOrganizer.in(i._ZN17QForeachContainerI5QListIN10QtMobility15QVersitDocumentEEED1Ev)
    i._ZN17QForeachContainerI5QListIN10QtMobility15QVersitPropertyEEED1Ev 0x0000f4fe   Section        8  QtVersitOrganizer.in(i._ZN17QForeachContainerI5QListIN10QtMobility15QVersitPropertyEEED1Ev)
    i._ZN17QForeachContainerI5QListIN10QtMobility20QOrganizerItemDetailEEED1Ev 0x0000f506   Section        8  QtVersitOrganizer.in(i._ZN17QForeachContainerI5QListIN10QtMobility20QOrganizerItemDetailEEED1Ev)
    i._ZN17QForeachContainerI5QListIN10QtMobility24QOrganizerRecurrenceRule5MonthEEED1Ev 0x0000f50e   Section        8  QtVersitOrganizer.in(i._ZN17QForeachContainerI5QListIN10QtMobility24QOrganizerRecurrenceRule5MonthEEED1Ev)
    i._ZN17QForeachContainerI5QListIN2Qt9DayOfWeekEEED1Ev 0x0000f516   Section        8  QtVersitOrganizer.in(i._ZN17QForeachContainerI5QListIN2Qt9DayOfWeekEEED1Ev)
    i._ZN17QForeachContainerI5QListIPN10QtMobility23QVersitOrganizerHandlerEEED1Ev 0x0000f51e   Section        8  QtVersitOrganizer.in(i._ZN17QForeachContainerI5QListIPN10QtMobility23QVersitOrganizerHandlerEEED1Ev)
    i._ZN17QForeachContainerI5QListIPN10QtMobility30QVersitOrganizerHandlerFactoryEEED1Ev 0x0000f526   Section        8  QtVersitOrganizer.in(i._ZN17QForeachContainerI5QListIPN10QtMobility30QVersitOrganizerHandlerFactoryEEED1Ev)
    i._ZN17QForeachContainerI5QListIiEED1Ev  0x0000f52e   Section        8  QtVersitOrganizer.in(i._ZN17QForeachContainerI5QListIiEED1Ev)
    i._ZN4QSetI5QDateED1Ev                   0x0000f536   Section        8  QtVersitOrganizer.in(i._ZN4QSetI5QDateED1Ev)
    i._ZN4QSetI7QStringED1Ev                 0x0000f53e   Section        8  QtVersitOrganizer.in(i._ZN4QSetI7QStringED1Ev)
    i._ZN4QSetIN10QtMobility24QOrganizerRecurrenceRule5MonthEED1Ev 0x0000f546   Section        8  QtVersitOrganizer.in(i._ZN4QSetIN10QtMobility24QOrganizerRecurrenceRule5MonthEED1Ev)
    i._ZN4QSetIN10QtMobility24QOrganizerRecurrenceRuleEED1Ev 0x0000f54e   Section        8  QtVersitOrganizer.in(i._ZN4QSetIN10QtMobility24QOrganizerRecurrenceRuleEED1Ev)
    i._ZN4QSetIN2Qt9DayOfWeekEED1Ev          0x0000f556   Section        8  QtVersitOrganizer.in(i._ZN4QSetIN2Qt9DayOfWeekEED1Ev)
    i._ZN4QSetIiED1Ev                        0x0000f55e   Section        8  QtVersitOrganizer.in(i._ZN4QSetIiED1Ev)
    i._ZN5QPairI7QStringS0_EC1ERKS1_         0x0000f566   Section       22  QtVersitOrganizer.in(i._ZN5QPairI7QStringS0_EC1ERKS1_)
    i._ZN5QPairI7QStringS0_EC1ERKS1_.clean   0x0000f57c   Section       10  QtVersitOrganizer.in(i._ZN5QPairI7QStringS0_EC1ERKS1_.clean)
    i._ZN5QPairI7QStringS0_ED1Ev             0x0000f586   Section       18  QtVersitOrganizer.in(i._ZN5QPairI7QStringS0_ED1Ev)
    i._ZN5QPairI7QStringS0_ED1Ev.clean       0x0000f598   Section       10  QtVersitOrganizer.in(i._ZN5QPairI7QStringS0_ED1Ev.clean)
    i._ZN7QStringC1ERK13QLatin1String        0x0000f5a2   Section       20  QtVersitOrganizer.in(i._ZN7QStringC1ERK13QLatin1String)
    i._ZN7QStringC1ERKS_                     0x0000f5b6   Section       16  QtVersitOrganizer.in(i._ZN7QStringC1ERKS_)
    i._ZN7QStringC1Ev                        0x0000f5c8   Section       20  QtVersitOrganizer.in(i._ZN7QStringC1Ev)
    i._ZN7QStringD1Ev                        0x0000f5dc   Section       24  QtVersitOrganizer.in(i._ZN7QStringD1Ev)
    i._ZN8TimeZoneD1Ev                       0x0000f5f4   Section       18  QtVersitOrganizer.in(i._ZN8TimeZoneD1Ev)
    i._ZN8TimeZoneD1Ev.clean                 0x0000f606   Section       10  QtVersitOrganizer.in(i._ZN8TimeZoneD1Ev.clean)
    i._ZN9QHashData8willGrowEv               0x0000f610   Section       28  QtVersitOrganizer.in(i._ZN9QHashData8willGrowEv)
    i._ZN9QHashData9firstNodeEv              0x0000f62c   Section       24  QtVersitOrganizer.in(i._ZN9QHashData9firstNodeEv)
    i._ZN9TimeZonesD1Ev                      0x0000f644   Section        8  QtVersitOrganizer.in(i._ZN9TimeZonesD1Ev)
    i._ZNK10QtMobility18QOrganizerTodoTime11dueDateTimeEv 0x0000f64c   Section       16  QtVersitOrganizer.in(i._ZNK10QtMobility18QOrganizerTodoTime11dueDateTimeEv)
    i._ZNK10QtMobility18QOrganizerTodoTime13startDateTimeEv 0x0000f65c   Section       16  QtVersitOrganizer.in(i._ZNK10QtMobility18QOrganizerTodoTime13startDateTimeEv)
    i._ZNK10QtMobility19QOrganizerEventTime11endDateTimeEv 0x0000f66c   Section       16  QtVersitOrganizer.in(i._ZNK10QtMobility19QOrganizerEventTime11endDateTimeEv)
    i._ZNK10QtMobility19QOrganizerEventTime13startDateTimeEv 0x0000f67c   Section       16  QtVersitOrganizer.in(i._ZNK10QtMobility19QOrganizerEventTime13startDateTimeEv)
    i._ZNK10QtMobility22QOrganizerTodoProgress16finishedDateTimeEv 0x0000f68c   Section       16  QtVersitOrganizer.in(i._ZNK10QtMobility22QOrganizerTodoProgress16finishedDateTimeEv)
    i._ZNK15QBasicAtomicInteqEi              0x0000f69c   Section       14  QtVersitOrganizer.in(i._ZNK15QBasicAtomicInteqEi)
    i._ZNK15QBasicAtomicIntneEi              0x0000f6aa   Section       14  QtVersitOrganizer.in(i._ZNK15QBasicAtomicIntneEi)
    i._ZNK7QString2atEi                      0x0000f6b8   Section       14  QtVersitOrganizer.in(i._ZNK7QString2atEi)
    i._ZNK7QString7isEmptyEv                 0x0000f6c6   Section       16  QtVersitOrganizer.in(i._ZNK7QString7isEmptyEv)
    i._ZNK7QStringneERK13QLatin1String       0x0000f6d6   Section       12  QtVersitOrganizer.in(i._ZNK7QStringneERK13QLatin1String)
    i._ZNK8TimeZone7isValidEv                0x0000f6e4   Section      136  QtVersitOrganizer.in(i._ZNK8TimeZone7isValidEv)
    i._ZNK8TimeZone7isValidEv.clean          0x0000f76c   Section       10  QtVersitOrganizer.in(i._ZNK8TimeZone7isValidEv.clean)
    i._ZNK9QListData3endEv                   0x0000f776   Section       12  QtVersitOrganizer.in(i._ZNK9QListData3endEv)
    i._ZNK9QListData5beginEv                 0x0000f782   Section       12  QtVersitOrganizer.in(i._ZNK9QListData5beginEv)
    i._ZNK9QListData7isEmptyEv               0x0000f78e   Section       18  QtVersitOrganizer.in(i._ZNK9QListData7isEmptyEv)
    i._ZdlPvS_                               0x0000f7a0   Section        2  QtVersitOrganizer.in(i._ZdlPvS_)
    i._Zeq5QCharS_                           0x0000f7a2   Section       20  QtVersitOrganizer.in(i._Zeq5QCharS_)
    i._ZnwjPv                                0x0000f7b6   Section        4  QtVersitOrganizer.in(i._ZnwjPv)
    t._Z15qMapLessThanKeyI7QStringEbRKT_S3_  0x0000f7ba   Section        8  QtVersitOrganizer.in(t._Z15qMapLessThanKeyI7QStringEbRKT_S3_)
    t._Z15qMapLessThanKeyIiEbRKT_S2_         0x0000f7c2   Section       16  QtVersitOrganizer.in(t._Z15qMapLessThanKeyIiEbRKT_S2_)
    t._Z20qForeachContainerNewI11QStringListE17QForeachContainerIT_ERKS2_ 0x0000f7d2   Section       58  QtVersitOrganizer.in(t._Z20qForeachContainerNewI11QStringListE17QForeachContainerIT_ERKS2_)
    t._Z20qForeachContainerNewI11QStringListE17QForeachContainerIT_ERKS2_.clean 0x0000f80c   Section       10  QtVersitOrganizer.in(t._Z20qForeachContainerNewI11QStringListE17QForeachContainerIT_ERKS2_.clean)
    t._Z20qForeachContainerNewI5QListI13TimeZonePhaseEE17QForeachContainerIT_ERKS4_ 0x0000f816   Section       46  QtVersitOrganizer.in(t._Z20qForeachContainerNewI5QListI13TimeZonePhaseEE17QForeachContainerIT_ERKS4_)
    t._Z20qForeachContainerNewI5QListI13TimeZonePhaseEE17QForeachContainerIT_ERKS4_.clean 0x0000f844   Section       10  QtVersitOrganizer.in(t._Z20qForeachContainerNewI5QListI13TimeZonePhaseEE17QForeachContainerIT_ERKS4_.clean)
    t._Z20qForeachContainerNewI5QListIN10QtMobility15QVersitPropertyEEE17QForeachContainerIT_ERKS5_ 0x0000f84e   Section       60  QtVersitOrganizer.in(t._Z20qForeachContainerNewI5QListIN10QtMobility15QVersitPropertyEEE17QForeachContainerIT_ERKS5_)
    t._Z20qForeachContainerNewI5QListIN10QtMobility15QVersitPropertyEEE17QForeachContainerIT_ERKS5_.clean 0x0000f88a   Section       10  QtVersitOrganizer.in(t._Z20qForeachContainerNewI5QListIN10QtMobility15QVersitPropertyEEE17QForeachContainerIT_ERKS5_.clean)
    t._Z20qForeachContainerNewI5QListIPN10QtMobility23QVersitOrganizerHandlerEEE17QForeachContainerIT_ERKS6_ 0x0000f894   Section       60  QtVersitOrganizer.in(t._Z20qForeachContainerNewI5QListIPN10QtMobility23QVersitOrganizerHandlerEEE17QForeachContainerIT_ERKS6_)
    t._Z20qForeachContainerNewI5QListIPN10QtMobility23QVersitOrganizerHandlerEEE17QForeachContainerIT_ERKS6_.clean 0x0000f8d0   Section       10  QtVersitOrganizer.in(t._Z20qForeachContainerNewI5QListIPN10QtMobility23QVersitOrganizerHandlerEEE17QForeachContainerIT_ERKS6_.clean)
    t._Z5qSwapI5QDateEvRT_S2_                0x0000f8da   Section       10  QtVersitOrganizer.in(t._Z5qSwapI5QDateEvRT_S2_)
    t._Z5qSwapIN10QtMobility24QOrganizerRecurrenceRule5MonthEEvRT_S4_ 0x0000f8e4   Section       10  QtVersitOrganizer.in(t._Z5qSwapIN10QtMobility24QOrganizerRecurrenceRule5MonthEEvRT_S4_)
    t._Z5qSwapIN2Qt9DayOfWeekEEvRT_S3_       0x0000f8ee   Section       10  QtVersitOrganizer.in(t._Z5qSwapIN2Qt9DayOfWeekEEvRT_S3_)
    t._Z5qSwapIPN10QtMobility30QVersitOrganizerHandlerFactoryEEvRT_S4_ 0x0000f8f8   Section       10  QtVersitOrganizer.in(t._Z5qSwapIPN10QtMobility30QVersitOrganizerHandlerFactoryEEvRT_S4_)
    t._Z5qSwapIiEvRT_S1_                     0x0000f902   Section       10  QtVersitOrganizer.in(t._Z5qSwapIiEvRT_S1_)
    t._ZN10QtMobilityeqILi10EEEbRK7QStringRKNS_15QLatin1ConstantIXT_EEE 0x0000f90c   Section       12  QtVersitOrganizer.in(t._ZN10QtMobilityeqILi10EEEbRK7QStringRKNS_15QLatin1ConstantIXT_EEE)
    t._ZN10QtMobilityeqILi16EEEbRK7QStringRKNS_15QLatin1ConstantIXT_EEE 0x0000f918   Section       12  QtVersitOrganizer.in(t._ZN10QtMobilityeqILi16EEEbRK7QStringRKNS_15QLatin1ConstantIXT_EEE)
    t._ZN10QtMobilityeqILi8EEEbRK7QStringRKNS_15QLatin1ConstantIXT_EEE 0x0000f924   Section       12  QtVersitOrganizer.in(t._ZN10QtMobilityeqILi8EEEbRK7QStringRKNS_15QLatin1ConstantIXT_EEE)
    t._ZN10QtMobilityeqILi9EEEbRK7QStringRKNS_15QLatin1ConstantIXT_EEE 0x0000f930   Section       12  QtVersitOrganizer.in(t._ZN10QtMobilityeqILi9EEEbRK7QStringRKNS_15QLatin1ConstantIXT_EEE)
    t._ZN14QHashDummyNodeI7QString15QHashDummyValueEC1ERKS0_ 0x0000f93c   Section       12  QtVersitOrganizer.in(t._ZN14QHashDummyNodeI7QString15QHashDummyValueEC1ERKS0_)
    t._ZN14QHashDummyNodeIN10QtMobility24QOrganizerRecurrenceRuleE15QHashDummyValueEC1ERKS1_ 0x0000f948   Section       12  QtVersitOrganizer.in(t._ZN14QHashDummyNodeIN10QtMobility24QOrganizerRecurrenceRuleE15QHashDummyValueEC1ERKS1_)
    t._ZN17QForeachContainerI4QSetIN10QtMobility24QOrganizerRecurrenceRuleEEEC1ERKS3_ 0x0000f954   Section      112  QtVersitOrganizer.in(t._ZN17QForeachContainerI4QSetIN10QtMobility24QOrganizerRecurrenceRuleEEEC1ERKS3_)
    t._ZN17QForeachContainerI4QSetIN10QtMobility24QOrganizerRecurrenceRuleEEEC1ERKS3_.clean 0x0000f9c4   Section       10  QtVersitOrganizer.in(t._ZN17QForeachContainerI4QSetIN10QtMobility24QOrganizerRecurrenceRuleEEEC1ERKS3_.clean)
    t._ZN18QAlgorithmsPrivate11qSortHelperIN5QListI5QDateE8iteratorES2_5qLessIS2_EEEvT_S7_RKT0_T1_ 0x0000f9ce   Section      294  QtVersitOrganizer.in(t._ZN18QAlgorithmsPrivate11qSortHelperIN5QListI5QDateE8iteratorES2_5qLessIS2_EEEvT_S7_RKT0_T1_)
    t._ZN18QAlgorithmsPrivate11qSortHelperIN5QListIN10QtMobility24QOrganizerRecurrenceRule5MonthEE8iteratorES4_5qLessIS4_EEEvT_S9_RKT0_T1_ 0x0000faf4   Section      342  QtVersitOrganizer.in(t._ZN18QAlgorithmsPrivate11qSortHelperIN5QListIN10QtMobility24QOrganizerRecurrenceRule5MonthEE8iteratorES4_5qLessIS4_EEEvT_S9_RKT0_T1_)
    t._ZN18QAlgorithmsPrivate11qSortHelperIN5QListIN2Qt9DayOfWeekEE8iteratorES3_5qLessIS3_EEEvT_S8_RKT0_T1_ 0x0000fc4a   Section      342  QtVersitOrganizer.in(t._ZN18QAlgorithmsPrivate11qSortHelperIN5QListIN2Qt9DayOfWeekEE8iteratorES3_5qLessIS3_EEEvT_S8_RKT0_T1_)
    t._ZN18QAlgorithmsPrivate11qSortHelperIN5QListIPN10QtMobility30QVersitOrganizerHandlerFactoryEE8iteratorES4_PFbS4_S4_EEEvT_S9_RKT0_T1_ 0x0000fda0   Section      294  QtVersitOrganizer.in(t._ZN18QAlgorithmsPrivate11qSortHelperIN5QListIPN10QtMobility30QVersitOrganizerHandlerFactoryEE8iteratorES4_PFbS4_S4_EEEvT_S9_RKT0_T1_)
    t._ZN18QAlgorithmsPrivate11qSortHelperIN5QListIiE8iteratorEi5qLessIiEEEvT_S6_RKT0_T1_ 0x0000fec6   Section      294  QtVersitOrganizer.in(t._ZN18QAlgorithmsPrivate11qSortHelperIN5QListIiE8iteratorEi5qLessIiEEEvT_S6_RKT0_T1_)
    t._ZN4QMapI7QString5QPairIS0_S0_EE11node_createEP8QMapDataPPNS4_4NodeERKS0_RKS2_ 0x0000ffec   Section      106  QtVersitOrganizer.in(t._ZN4QMapI7QString5QPairIS0_S0_EE11node_createEP8QMapDataPPNS4_4NodeERKS0_RKS2_)
    t._ZN4QMapI7QString5QPairIS0_S0_EE11node_createEP8QMapDataPPNS4_4NodeERKS0_RKS2_.clean 0x00010056   Section       38  QtVersitOrganizer.in(t._ZN4QMapI7QString5QPairIS0_S0_EE11node_createEP8QMapDataPPNS4_4NodeERKS0_RKS2_.clean)
    t._ZN4QMapI7QString5QPairIS0_S0_EE13detach_helperEv 0x0001007c   Section      114  QtVersitOrganizer.in(t._ZN4QMapI7QString5QPairIS0_S0_EE13detach_helperEv)
    t._ZN4QMapI7QString5QPairIS0_S0_EE13detach_helperEv.clean 0x000100ee   Section        8  QtVersitOrganizer.in(t._ZN4QMapI7QString5QPairIS0_S0_EE13detach_helperEv.clean)
    t._ZN4QMapI7QString5QPairIS0_S0_EE6detachEv 0x000100f6   Section       26  QtVersitOrganizer.in(t._ZN4QMapI7QString5QPairIS0_S0_EE6detachEv)
    t._ZN4QMapI7QString5QPairIS0_S0_EE8freeDataEP8QMapData 0x00010110   Section       42  QtVersitOrganizer.in(t._ZN4QMapI7QString5QPairIS0_S0_EE8freeDataEP8QMapData)
    t._ZN4QMapI7QString5QPairIS0_S0_EED1Ev   0x0001013a   Section       32  QtVersitOrganizer.in(t._ZN4QMapI7QString5QPairIS0_S0_EED1Ev)
    t._ZN4QMapI7QString5QPairIS0_S0_EEixERKS0_ 0x0001015a   Section      106  QtVersitOrganizer.in(t._ZN4QMapI7QString5QPairIS0_S0_EEixERKS0_)
    t._ZN4QMapI7QString5QPairIS0_S0_EEixERKS0_.clean 0x000101c4   Section       28  QtVersitOrganizer.in(t._ZN4QMapI7QString5QPairIS0_S0_EEixERKS0_.clean)
    t._ZN4QMapI7QStringS0_ED1Ev              0x000101e0   Section       62  QtVersitOrganizer.in(t._ZN4QMapI7QStringS0_ED1Ev)
    t._ZN4QMapIiN10QtMobility24QVersitOrganizerExporter5ErrorEE11node_createEP8QMapDataPPNS4_4NodeERKiRKS2_ 0x0001021e   Section       60  QtVersitOrganizer.in(t._ZN4QMapIiN10QtMobility24QVersitOrganizerExporter5ErrorEE11node_createEP8QMapDataPPNS4_4NodeERKiRKS2_)
    t._ZN4QMapIiN10QtMobility24QVersitOrganizerExporter5ErrorEE13detach_helperEv 0x0001025a   Section      114  QtVersitOrganizer.in(t._ZN4QMapIiN10QtMobility24QVersitOrganizerExporter5ErrorEE13detach_helperEv)
    t._ZN4QMapIiN10QtMobility24QVersitOrganizerExporter5ErrorEE13detach_helperEv.clean 0x000102cc   Section        8  QtVersitOrganizer.in(t._ZN4QMapIiN10QtMobility24QVersitOrganizerExporter5ErrorEE13detach_helperEv.clean)
    t._ZN4QMapIiN10QtMobility24QVersitOrganizerExporter5ErrorEE5clearEv 0x000102d4   Section       96  QtVersitOrganizer.in(t._ZN4QMapIiN10QtMobility24QVersitOrganizerExporter5ErrorEE5clearEv)
    t._ZN4QMapIiN10QtMobility24QVersitOrganizerExporter5ErrorEE5clearEv.clean 0x00010334   Section       10  QtVersitOrganizer.in(t._ZN4QMapIiN10QtMobility24QVersitOrganizerExporter5ErrorEE5clearEv.clean)
    t._ZN4QMapIiN10QtMobility24QVersitOrganizerExporter5ErrorEE6detachEv 0x0001033e   Section       26  QtVersitOrganizer.in(t._ZN4QMapIiN10QtMobility24QVersitOrganizerExporter5ErrorEE6detachEv)
    t._ZN4QMapIiN10QtMobility24QVersitOrganizerExporter5ErrorEE8freeDataEP8QMapData 0x00010358   Section       22  QtVersitOrganizer.in(t._ZN4QMapIiN10QtMobility24QVersitOrganizerExporter5ErrorEE8freeDataEP8QMapData)
    t._ZN4QMapIiN10QtMobility24QVersitOrganizerExporter5ErrorEED1Ev 0x0001036e   Section       32  QtVersitOrganizer.in(t._ZN4QMapIiN10QtMobility24QVersitOrganizerExporter5ErrorEED1Ev)
    t._ZN4QMapIiN10QtMobility24QVersitOrganizerImporter5ErrorEE11node_createEP8QMapDataPPNS4_4NodeERKiRKS2_ 0x0001038e   Section       60  QtVersitOrganizer.in(t._ZN4QMapIiN10QtMobility24QVersitOrganizerImporter5ErrorEE11node_createEP8QMapDataPPNS4_4NodeERKiRKS2_)
    t._ZN4QMapIiN10QtMobility24QVersitOrganizerImporter5ErrorEE13detach_helperEv 0x000103ca   Section      114  QtVersitOrganizer.in(t._ZN4QMapIiN10QtMobility24QVersitOrganizerImporter5ErrorEE13detach_helperEv)
    t._ZN4QMapIiN10QtMobility24QVersitOrganizerImporter5ErrorEE13detach_helperEv.clean 0x0001043c   Section        8  QtVersitOrganizer.in(t._ZN4QMapIiN10QtMobility24QVersitOrganizerImporter5ErrorEE13detach_helperEv.clean)
    t._ZN4QMapIiN10QtMobility24QVersitOrganizerImporter5ErrorEE5clearEv 0x00010444   Section       96  QtVersitOrganizer.in(t._ZN4QMapIiN10QtMobility24QVersitOrganizerImporter5ErrorEE5clearEv)
    t._ZN4QMapIiN10QtMobility24QVersitOrganizerImporter5ErrorEE5clearEv.clean 0x000104a4   Section       10  QtVersitOrganizer.in(t._ZN4QMapIiN10QtMobility24QVersitOrganizerImporter5ErrorEE5clearEv.clean)
    t._ZN4QMapIiN10QtMobility24QVersitOrganizerImporter5ErrorEE6detachEv 0x000104ae   Section       26  QtVersitOrganizer.in(t._ZN4QMapIiN10QtMobility24QVersitOrganizerImporter5ErrorEE6detachEv)
    t._ZN4QMapIiN10QtMobility24QVersitOrganizerImporter5ErrorEE6insertERKiRKS2_ 0x000104c8   Section      130  QtVersitOrganizer.in(t._ZN4QMapIiN10QtMobility24QVersitOrganizerImporter5ErrorEE6insertERKiRKS2_)
    t._ZN4QMapIiN10QtMobility24QVersitOrganizerImporter5ErrorEE8freeDataEP8QMapData 0x0001054a   Section       22  QtVersitOrganizer.in(t._ZN4QMapIiN10QtMobility24QVersitOrganizerImporter5ErrorEE8freeDataEP8QMapData)
    t._ZN4QMapIiN10QtMobility24QVersitOrganizerImporter5ErrorEED1Ev 0x00010560   Section       32  QtVersitOrganizer.in(t._ZN4QMapIiN10QtMobility24QVersitOrganizerImporter5ErrorEED1Ev)
    t._ZN4QSetI5QDateE5uniteERKS1_           0x00010580   Section       82  QtVersitOrganizer.in(t._ZN4QSetI5QDateE5uniteERKS1_)
    t._ZN4QSetI5QDateE5uniteERKS1_.clean     0x000105d2   Section       10  QtVersitOrganizer.in(t._ZN4QSetI5QDateE5uniteERKS1_.clean)
    t._ZN4QSetI5QDateE6insertERKS0_          0x000105dc   Section      114  QtVersitOrganizer.in(t._ZN4QSetI5QDateE6insertERKS0_)
    t._ZN4QSetI5QDateEC1ERKS1_               0x0001064e   Section       32  QtVersitOrganizer.in(t._ZN4QSetI5QDateEC1ERKS1_)
    t._ZN4QSetI5QDateEC1Ev                   0x00010670   Section       24  QtVersitOrganizer.in(t._ZN4QSetI5QDateEC1Ev)
    t._ZN4QSetI5QDateEplERKS1_               0x00010688   Section       18  QtVersitOrganizer.in(t._ZN4QSetI5QDateEplERKS1_)
    t._ZN4QSetI5QDateEplERKS1_.clean         0x0001069a   Section       10  QtVersitOrganizer.in(t._ZN4QSetI5QDateEplERKS1_.clean)
    t._ZN4QSetI7QStringE6insertERKS0_        0x000106a4   Section       22  QtVersitOrganizer.in(t._ZN4QSetI7QStringE6insertERKS0_)
    t._ZN4QSetI7QStringEC1Ev                 0x000106bc   Section       24  QtVersitOrganizer.in(t._ZN4QSetI7QStringEC1Ev)
    t._ZN4QSetI7QStringElsERKS0_             0x000106d4   Section       20  QtVersitOrganizer.in(t._ZN4QSetI7QStringElsERKS0_)
    t._ZN4QSetIN10QtMobility24QOrganizerRecurrenceRuleEE14const_iteratorppEv 0x000106e8   Section       16  QtVersitOrganizer.in(t._ZN4QSetIN10QtMobility24QOrganizerRecurrenceRuleEE14const_iteratorppEv)
    t._ZN4QSetIN10QtMobility24QOrganizerRecurrenceRuleEElsERKS1_ 0x000106f8   Section       20  QtVersitOrganizer.in(t._ZN4QSetIN10QtMobility24QOrganizerRecurrenceRuleEElsERKS1_)
    t._ZN4QSetIiEC1Ev                        0x0001070c   Section       24  QtVersitOrganizer.in(t._ZN4QSetIiEC1Ev)
    t._ZN4QSetIiElsERKi                      0x00010724   Section       20  QtVersitOrganizer.in(t._ZN4QSetIiElsERKi)
    t._ZN5QHashI5QDate15QHashDummyValueE11deleteNode2EPN9QHashData4NodeE 0x00010738   Section        2  QtVersitOrganizer.in(t._ZN5QHashI5QDate15QHashDummyValueE11deleteNode2EPN9QHashData4NodeE)
    t._ZN5QHashI5QDate15QHashDummyValueE13detach_helperEv 0x0001073c   Section       56  QtVersitOrganizer.in(t._ZN5QHashI5QDate15QHashDummyValueE13detach_helperEv)
    t._ZN5QHashI5QDate15QHashDummyValueE13duplicateNodeEPN9QHashData4NodeEPv 0x00010774   Section       20  QtVersitOrganizer.in(t._ZN5QHashI5QDate15QHashDummyValueE13duplicateNodeEPN9QHashData4NodeEPv)
    t._ZN5QHashI5QDate15QHashDummyValueE6detachEv 0x00010788   Section       26  QtVersitOrganizer.in(t._ZN5QHashI5QDate15QHashDummyValueE6detachEv)
    t._ZN5QHashI5QDate15QHashDummyValueE8freeDataEP9QHashData 0x000107a4   Section       16  QtVersitOrganizer.in(t._ZN5QHashI5QDate15QHashDummyValueE8freeDataEP9QHashData)
    t._ZN5QHashI5QDate15QHashDummyValueED1Ev 0x000107b4   Section       28  QtVersitOrganizer.in(t._ZN5QHashI5QDate15QHashDummyValueED1Ev)
    t._ZN5QHashI7QString15QHashDummyValueE11deleteNode2EPN9QHashData4NodeE 0x000107d0   Section       10  QtVersitOrganizer.in(t._ZN5QHashI7QString15QHashDummyValueE11deleteNode2EPN9QHashData4NodeE)
    t._ZN5QHashI7QString15QHashDummyValueE13duplicateNodeEPN9QHashData4NodeEPv 0x000107da   Section       28  QtVersitOrganizer.in(t._ZN5QHashI7QString15QHashDummyValueE13duplicateNodeEPN9QHashData4NodeEPv)
    t._ZN5QHashI7QString15QHashDummyValueE13duplicateNodeEPN9QHashData4NodeEPv.clean 0x000107f6   Section       12  QtVersitOrganizer.in(t._ZN5QHashI7QString15QHashDummyValueE13duplicateNodeEPN9QHashData4NodeEPv.clean)
    t._ZN5QHashI7QString15QHashDummyValueE6insertERKS0_RKS1_ 0x00010804   Section      180  QtVersitOrganizer.in(t._ZN5QHashI7QString15QHashDummyValueE6insertERKS0_RKS1_)
    t._ZN5QHashI7QString15QHashDummyValueE6insertERKS0_RKS1_.clean 0x000108b8   Section       12  QtVersitOrganizer.in(t._ZN5QHashI7QString15QHashDummyValueE6insertERKS0_RKS1_.clean)
    t._ZN5QHashI7QString15QHashDummyValueE8freeDataEP9QHashData 0x000108c4   Section       16  QtVersitOrganizer.in(t._ZN5QHashI7QString15QHashDummyValueE8freeDataEP9QHashData)
    t._ZN5QHashI7QString15QHashDummyValueED1Ev 0x000108d4   Section       28  QtVersitOrganizer.in(t._ZN5QHashI7QString15QHashDummyValueED1Ev)
    t._ZN5QHashI7QString8TimeZoneE11deleteNode2EPN9QHashData4NodeE 0x000108f0   Section       18  QtVersitOrganizer.in(t._ZN5QHashI7QString8TimeZoneE11deleteNode2EPN9QHashData4NodeE)
    t._ZN5QHashI7QString8TimeZoneE11deleteNode2EPN9QHashData4NodeE.clean 0x00010902   Section       12  QtVersitOrganizer.in(t._ZN5QHashI7QString8TimeZoneE11deleteNode2EPN9QHashData4NodeE.clean)
    t._ZN5QHashI7QString8TimeZoneE13duplicateNodeEPN9QHashData4NodeEPv 0x0001090e   Section       30  QtVersitOrganizer.in(t._ZN5QHashI7QString8TimeZoneE13duplicateNodeEPN9QHashData4NodeEPv)
    t._ZN5QHashI7QString8TimeZoneE13duplicateNodeEPN9QHashData4NodeEPv.clean 0x0001092c   Section       12  QtVersitOrganizer.in(t._ZN5QHashI7QString8TimeZoneE13duplicateNodeEPN9QHashData4NodeEPv.clean)
    t._ZN5QHashI7QString8TimeZoneE6insertERKS0_RKS1_ 0x00010938   Section      232  QtVersitOrganizer.in(t._ZN5QHashI7QString8TimeZoneE6insertERKS0_RKS1_)
    t._ZN5QHashI7QString8TimeZoneE6insertERKS0_RKS1_.clean 0x00010a20   Section       12  QtVersitOrganizer.in(t._ZN5QHashI7QString8TimeZoneE6insertERKS0_RKS1_.clean)
    t._ZN5QHashI7QString8TimeZoneE8freeDataEP9QHashData 0x00010a2c   Section       16  QtVersitOrganizer.in(t._ZN5QHashI7QString8TimeZoneE8freeDataEP9QHashData)
    t._ZN5QHashI7QString8TimeZoneED1Ev       0x00010a3c   Section       28  QtVersitOrganizer.in(t._ZN5QHashI7QString8TimeZoneED1Ev)
    t._ZN5QHashI7QStringS0_E11deleteNode2EPN9QHashData4NodeE 0x00010a58   Section       18  QtVersitOrganizer.in(t._ZN5QHashI7QStringS0_E11deleteNode2EPN9QHashData4NodeE)
    t._ZN5QHashI7QStringS0_E11deleteNode2EPN9QHashData4NodeE.clean 0x00010a6a   Section       12  QtVersitOrganizer.in(t._ZN5QHashI7QStringS0_E11deleteNode2EPN9QHashData4NodeE.clean)
    t._ZN5QHashI7QStringS0_ED1Ev             0x00010a78   Section       32  QtVersitOrganizer.in(t._ZN5QHashI7QStringS0_ED1Ev)
    t._ZN5QHashIN10QtMobility24QOrganizerRecurrenceRule5MonthE15QHashDummyValueE11deleteNode2EPN9QHashData4NodeE 0x00010a98   Section        2  QtVersitOrganizer.in(t._ZN5QHashIN10QtMobility24QOrganizerRecurrenceRule5MonthE15QHashDummyValueE11deleteNode2EPN9QHashData4NodeE)
    t._ZN5QHashIN10QtMobility24QOrganizerRecurrenceRule5MonthE15QHashDummyValueE13duplicateNodeEPN9QHashData4NodeEPv 0x00010a9a   Section       20  QtVersitOrganizer.in(t._ZN5QHashIN10QtMobility24QOrganizerRecurrenceRule5MonthE15QHashDummyValueE13duplicateNodeEPN9QHashData4NodeEPv)
    t._ZN5QHashIN10QtMobility24QOrganizerRecurrenceRule5MonthE15QHashDummyValueE6insertERKS2_RKS3_ 0x00010ab0   Section      160  QtVersitOrganizer.in(t._ZN5QHashIN10QtMobility24QOrganizerRecurrenceRule5MonthE15QHashDummyValueE6insertERKS2_RKS3_)
    t._ZN5QHashIN10QtMobility24QOrganizerRecurrenceRule5MonthE15QHashDummyValueE8freeDataEP9QHashData 0x00010b50   Section       16  QtVersitOrganizer.in(t._ZN5QHashIN10QtMobility24QOrganizerRecurrenceRule5MonthE15QHashDummyValueE8freeDataEP9QHashData)
    t._ZN5QHashIN10QtMobility24QOrganizerRecurrenceRule5MonthE15QHashDummyValueED1Ev 0x00010b60   Section       28  QtVersitOrganizer.in(t._ZN5QHashIN10QtMobility24QOrganizerRecurrenceRule5MonthE15QHashDummyValueED1Ev)
    t._ZN5QHashIN10QtMobility24QOrganizerRecurrenceRuleE15QHashDummyValueE11deleteNode2EPN9QHashData4NodeE 0x00010b7c   Section       10  QtVersitOrganizer.in(t._ZN5QHashIN10QtMobility24QOrganizerRecurrenceRuleE15QHashDummyValueE11deleteNode2EPN9QHashData4NodeE)
    t._ZN5QHashIN10QtMobility24QOrganizerRecurrenceRuleE15QHashDummyValueE13duplicateNodeEPN9QHashData4NodeEPv 0x00010b86   Section       28  QtVersitOrganizer.in(t._ZN5QHashIN10QtMobility24QOrganizerRecurrenceRuleE15QHashDummyValueE13duplicateNodeEPN9QHashData4NodeEPv)
    t._ZN5QHashIN10QtMobility24QOrganizerRecurrenceRuleE15QHashDummyValueE13duplicateNodeEPN9QHashData4NodeEPv.clean 0x00010ba2   Section       12  QtVersitOrganizer.in(t._ZN5QHashIN10QtMobility24QOrganizerRecurrenceRuleE15QHashDummyValueE13duplicateNodeEPN9QHashData4NodeEPv.clean)
    t._ZN5QHashIN10QtMobility24QOrganizerRecurrenceRuleE15QHashDummyValueE6insertERKS1_RKS2_ 0x00010bb0   Section      168  QtVersitOrganizer.in(t._ZN5QHashIN10QtMobility24QOrganizerRecurrenceRuleE15QHashDummyValueE6insertERKS1_RKS2_)
    t._ZN5QHashIN10QtMobility24QOrganizerRecurrenceRuleE15QHashDummyValueE6insertERKS1_RKS2_.clean 0x00010c58   Section       12  QtVersitOrganizer.in(t._ZN5QHashIN10QtMobility24QOrganizerRecurrenceRuleE15QHashDummyValueE6insertERKS1_RKS2_.clean)
    t._ZN5QHashIN10QtMobility24QOrganizerRecurrenceRuleE15QHashDummyValueE8freeDataEP9QHashData 0x00010c64   Section       16  QtVersitOrganizer.in(t._ZN5QHashIN10QtMobility24QOrganizerRecurrenceRuleE15QHashDummyValueE8freeDataEP9QHashData)
    t._ZN5QHashIN10QtMobility24QOrganizerRecurrenceRuleE15QHashDummyValueED1Ev 0x00010c74   Section       28  QtVersitOrganizer.in(t._ZN5QHashIN10QtMobility24QOrganizerRecurrenceRuleE15QHashDummyValueED1Ev)
    t._ZN5QHashIN2Qt9DayOfWeekE15QHashDummyValueE11deleteNode2EPN9QHashData4NodeE 0x00010c90   Section        2  QtVersitOrganizer.in(t._ZN5QHashIN2Qt9DayOfWeekE15QHashDummyValueE11deleteNode2EPN9QHashData4NodeE)
    t._ZN5QHashIN2Qt9DayOfWeekE15QHashDummyValueE13duplicateNodeEPN9QHashData4NodeEPv 0x00010c92   Section       20  QtVersitOrganizer.in(t._ZN5QHashIN2Qt9DayOfWeekE15QHashDummyValueE13duplicateNodeEPN9QHashData4NodeEPv)
    t._ZN5QHashIN2Qt9DayOfWeekE15QHashDummyValueE6insertERKS1_RKS2_ 0x00010ca8   Section      160  QtVersitOrganizer.in(t._ZN5QHashIN2Qt9DayOfWeekE15QHashDummyValueE6insertERKS1_RKS2_)
    t._ZN5QHashIN2Qt9DayOfWeekE15QHashDummyValueE8freeDataEP9QHashData 0x00010d48   Section       16  QtVersitOrganizer.in(t._ZN5QHashIN2Qt9DayOfWeekE15QHashDummyValueE8freeDataEP9QHashData)
    t._ZN5QHashIN2Qt9DayOfWeekE15QHashDummyValueED1Ev 0x00010d58   Section       28  QtVersitOrganizer.in(t._ZN5QHashIN2Qt9DayOfWeekE15QHashDummyValueED1Ev)
    t._ZN5QHashIi15QHashDummyValueE11deleteNode2EPN9QHashData4NodeE 0x00010d74   Section        2  QtVersitOrganizer.in(t._ZN5QHashIi15QHashDummyValueE11deleteNode2EPN9QHashData4NodeE)
    t._ZN5QHashIi15QHashDummyValueE13duplicateNodeEPN9QHashData4NodeEPv 0x00010d76   Section       10  QtVersitOrganizer.in(t._ZN5QHashIi15QHashDummyValueE13duplicateNodeEPN9QHashData4NodeEPv)
    t._ZN5QHashIi15QHashDummyValueE6insertERKiRKS0_ 0x00010d80   Section      152  QtVersitOrganizer.in(t._ZN5QHashIi15QHashDummyValueE6insertERKiRKS0_)
    t._ZN5QHashIi15QHashDummyValueE8freeDataEP9QHashData 0x00010e18   Section       16  QtVersitOrganizer.in(t._ZN5QHashIi15QHashDummyValueE8freeDataEP9QHashData)
    t._ZN5QHashIi15QHashDummyValueED1Ev      0x00010e28   Section       28  QtVersitOrganizer.in(t._ZN5QHashIi15QHashDummyValueED1Ev)
    t._ZN5QListI13TimeZonePhaseE13detach_helperEi 0x00010e44   Section      152  QtVersitOrganizer.in(t._ZN5QListI13TimeZonePhaseE13detach_helperEi)
    t._ZN5QListI13TimeZonePhaseE13detach_helperEi.clean 0x00010edc   Section       18  QtVersitOrganizer.in(t._ZN5QListI13TimeZonePhaseE13detach_helperEi.clean)
    t._ZN5QListI13TimeZonePhaseE13detach_helperEv 0x00010eee   Section       88  QtVersitOrganizer.in(t._ZN5QListI13TimeZonePhaseE13detach_helperEv)
    t._ZN5QListI13TimeZonePhaseE13detach_helperEv.clean 0x00010f46   Section        8  QtVersitOrganizer.in(t._ZN5QListI13TimeZonePhaseE13detach_helperEv.clean)
    t._ZN5QListI13TimeZonePhaseE13node_destructEPNS1_4NodeES3_ 0x00010f4e   Section       30  QtVersitOrganizer.in(t._ZN5QListI13TimeZonePhaseE13node_destructEPNS1_4NodeES3_)
    t._ZN5QListI13TimeZonePhaseE14node_constructEPNS1_4NodeERKS0_ 0x00010f6c   Section       32  QtVersitOrganizer.in(t._ZN5QListI13TimeZonePhaseE14node_constructEPNS1_4NodeERKS0_)
    t._ZN5QListI13TimeZonePhaseE14node_constructEPNS1_4NodeERKS0_.clean 0x00010f8c   Section       10  QtVersitOrganizer.in(t._ZN5QListI13TimeZonePhaseE14node_constructEPNS1_4NodeERKS0_.clean)
    t._ZN5QListI13TimeZonePhaseE18detach_helper_growEii 0x00010f96   Section      180  QtVersitOrganizer.in(t._ZN5QListI13TimeZonePhaseE18detach_helper_growEii)
    t._ZN5QListI13TimeZonePhaseE18detach_helper_growEii.clean 0x0001104a   Section        8  QtVersitOrganizer.in(t._ZN5QListI13TimeZonePhaseE18detach_helper_growEii.clean)
    t._ZN5QListI13TimeZonePhaseE4freeEPN9QListData4DataE 0x00011052   Section       44  QtVersitOrganizer.in(t._ZN5QListI13TimeZonePhaseE4freeEPN9QListData4DataE)
    t._ZN5QListI13TimeZonePhaseE6appendERKS0_ 0x00011080   Section       96  QtVersitOrganizer.in(t._ZN5QListI13TimeZonePhaseE6appendERKS0_)
    t._ZN5QListI13TimeZonePhaseE6appendERKS0_.clean 0x000110e0   Section        8  QtVersitOrganizer.in(t._ZN5QListI13TimeZonePhaseE6appendERKS0_.clean)
    t._ZN5QListI13TimeZonePhaseE9node_copyEPNS1_4NodeES3_S3_ 0x000110e8   Section       80  QtVersitOrganizer.in(t._ZN5QListI13TimeZonePhaseE9node_copyEPNS1_4NodeES3_S3_)
    t._ZN5QListI13TimeZonePhaseE9node_copyEPNS1_4NodeES3_S3_.clean 0x00011138   Section       18  QtVersitOrganizer.in(t._ZN5QListI13TimeZonePhaseE9node_copyEPNS1_4NodeES3_S3_.clean)
    t._ZN5QListI13TimeZonePhaseEC1ERKS1_     0x0001114a   Section       32  QtVersitOrganizer.in(t._ZN5QListI13TimeZonePhaseEC1ERKS1_)
    t._ZN5QListI13TimeZonePhaseED1Ev         0x0001116a   Section       30  QtVersitOrganizer.in(t._ZN5QListI13TimeZonePhaseED1Ev)
    t._ZN5QListI5QDateE13detach_helperEi     0x00011188   Section       86  QtVersitOrganizer.in(t._ZN5QListI5QDateE13detach_helperEi)
    t._ZN5QListI5QDateE13detach_helperEi.clean 0x000111de   Section        8  QtVersitOrganizer.in(t._ZN5QListI5QDateE13detach_helperEi.clean)
    t._ZN5QListI5QDateE13detach_helperEv     0x000111e6   Section       12  QtVersitOrganizer.in(t._ZN5QListI5QDateE13detach_helperEv)
    t._ZN5QListI5QDateE18detach_helper_growEii 0x000111f2   Section      180  QtVersitOrganizer.in(t._ZN5QListI5QDateE18detach_helper_growEii)
    t._ZN5QListI5QDateE18detach_helper_growEii.clean 0x000112a6   Section        8  QtVersitOrganizer.in(t._ZN5QListI5QDateE18detach_helper_growEii.clean)
    t._ZN5QListI5QDateE4freeEPN9QListData4DataE 0x000112ae   Section       48  QtVersitOrganizer.in(t._ZN5QListI5QDateE4freeEPN9QListData4DataE)
    t._ZN5QListI5QDateE5beginEv              0x000112de   Section       22  QtVersitOrganizer.in(t._ZN5QListI5QDateE5beginEv)
    t._ZN5QListI5QDateE6appendERKS0_         0x000112f4   Section       88  QtVersitOrganizer.in(t._ZN5QListI5QDateE6appendERKS0_)
    t._ZN5QListI5QDateE6appendERKS0_.clean   0x0001134c   Section       10  QtVersitOrganizer.in(t._ZN5QListI5QDateE6appendERKS0_.clean)
    t._ZN5QListI5QDateE6detachEv             0x00011356   Section       24  QtVersitOrganizer.in(t._ZN5QListI5QDateE6detachEv)
    t._ZN5QListI5QDateE9node_copyEPNS1_4NodeES3_S3_ 0x0001136e   Section       36  QtVersitOrganizer.in(t._ZN5QListI5QDateE9node_copyEPNS1_4NodeES3_S3_)
    t._ZN5QListI5QDateEC1ERKS1_              0x00011392   Section       30  QtVersitOrganizer.in(t._ZN5QListI5QDateEC1ERKS1_)
    t._ZN5QListI5QDateED1Ev                  0x000113b0   Section       30  QtVersitOrganizer.in(t._ZN5QListI5QDateED1Ev)
    t._ZN5QListI7QStringE13detach_helperEi   0x000113ce   Section      142  QtVersitOrganizer.in(t._ZN5QListI7QStringE13detach_helperEi)
    t._ZN5QListI7QStringE13detach_helperEi.clean 0x0001145c   Section       20  QtVersitOrganizer.in(t._ZN5QListI7QStringE13detach_helperEi.clean)
    t._ZN5QListI7QStringE13detach_helperEv   0x00011470   Section       12  QtVersitOrganizer.in(t._ZN5QListI7QStringE13detach_helperEv)
    t._ZN5QListI7QStringE14node_constructEPNS1_4NodeERKS0_ 0x0001147c   Section       26  QtVersitOrganizer.in(t._ZN5QListI7QStringE14node_constructEPNS1_4NodeERKS0_)
    t._ZN5QListI7QStringE14node_constructEPNS1_4NodeERKS0_.clean 0x00011496   Section       12  QtVersitOrganizer.in(t._ZN5QListI7QStringE14node_constructEPNS1_4NodeERKS0_.clean)
    t._ZN5QListI7QStringE18detach_helper_growEii 0x000114a2   Section      186  QtVersitOrganizer.in(t._ZN5QListI7QStringE18detach_helper_growEii)
    t._ZN5QListI7QStringE18detach_helper_growEii.clean 0x0001155c   Section        8  QtVersitOrganizer.in(t._ZN5QListI7QStringE18detach_helper_growEii.clean)
    t._ZN5QListI7QStringE4freeEPN9QListData4DataE 0x00011564   Section       48  QtVersitOrganizer.in(t._ZN5QListI7QStringE4freeEPN9QListData4DataE)
    t._ZN5QListI7QStringE5beginEv            0x00011594   Section       34  QtVersitOrganizer.in(t._ZN5QListI7QStringE5beginEv)
    t._ZN5QListI7QStringE6appendERKS0_       0x000115b8   Section      100  QtVersitOrganizer.in(t._ZN5QListI7QStringE6appendERKS0_)
    t._ZN5QListI7QStringE6appendERKS0_.clean 0x0001161c   Section        8  QtVersitOrganizer.in(t._ZN5QListI7QStringE6appendERKS0_.clean)
    t._ZN5QListI7QStringE9node_copyEPNS1_4NodeES3_S3_ 0x00011624   Section       70  QtVersitOrganizer.in(t._ZN5QListI7QStringE9node_copyEPNS1_4NodeES3_S3_)
    t._ZN5QListI7QStringE9node_copyEPNS1_4NodeES3_S3_.clean 0x0001166a   Section       22  QtVersitOrganizer.in(t._ZN5QListI7QStringE9node_copyEPNS1_4NodeES3_S3_.clean)
    t._ZN5QListI7QStringED1Ev                0x00011680   Section       30  QtVersitOrganizer.in(t._ZN5QListI7QStringED1Ev)
    t._ZN5QListIN10QtMobility14QOrganizerItemEE13detach_helperEi 0x0001169e   Section      142  QtVersitOrganizer.in(t._ZN5QListIN10QtMobility14QOrganizerItemEE13detach_helperEi)
    t._ZN5QListIN10QtMobility14QOrganizerItemEE13detach_helperEi.clean 0x0001172c   Section       20  QtVersitOrganizer.in(t._ZN5QListIN10QtMobility14QOrganizerItemEE13detach_helperEi.clean)
    t._ZN5QListIN10QtMobility14QOrganizerItemEE13detach_helperEv 0x00011740   Section       88  QtVersitOrganizer.in(t._ZN5QListIN10QtMobility14QOrganizerItemEE13detach_helperEv)
    t._ZN5QListIN10QtMobility14QOrganizerItemEE13detach_helperEv.clean 0x00011798   Section        8  QtVersitOrganizer.in(t._ZN5QListIN10QtMobility14QOrganizerItemEE13detach_helperEv.clean)
    t._ZN5QListIN10QtMobility14QOrganizerItemEE14node_constructEPNS2_4NodeERKS1_ 0x000117a0   Section       26  QtVersitOrganizer.in(t._ZN5QListIN10QtMobility14QOrganizerItemEE14node_constructEPNS2_4NodeERKS1_)
    t._ZN5QListIN10QtMobility14QOrganizerItemEE14node_constructEPNS2_4NodeERKS1_.clean 0x000117ba   Section       12  QtVersitOrganizer.in(t._ZN5QListIN10QtMobility14QOrganizerItemEE14node_constructEPNS2_4NodeERKS1_.clean)
    t._ZN5QListIN10QtMobility14QOrganizerItemEE18detach_helper_growEii 0x000117c6   Section      186  QtVersitOrganizer.in(t._ZN5QListIN10QtMobility14QOrganizerItemEE18detach_helper_growEii)
    t._ZN5QListIN10QtMobility14QOrganizerItemEE18detach_helper_growEii.clean 0x00011880   Section        8  QtVersitOrganizer.in(t._ZN5QListIN10QtMobility14QOrganizerItemEE18detach_helper_growEii.clean)
    t._ZN5QListIN10QtMobility14QOrganizerItemEE4freeEPN9QListData4DataE 0x00011888   Section       48  QtVersitOrganizer.in(t._ZN5QListIN10QtMobility14QOrganizerItemEE4freeEPN9QListData4DataE)
    t._ZN5QListIN10QtMobility14QOrganizerItemEE5clearEv 0x000118b8   Section       88  QtVersitOrganizer.in(t._ZN5QListIN10QtMobility14QOrganizerItemEE5clearEv)
    t._ZN5QListIN10QtMobility14QOrganizerItemEE5clearEv.clean 0x00011910   Section       10  QtVersitOrganizer.in(t._ZN5QListIN10QtMobility14QOrganizerItemEE5clearEv.clean)
    t._ZN5QListIN10QtMobility14QOrganizerItemEE6appendERKS1_ 0x0001191c   Section      100  QtVersitOrganizer.in(t._ZN5QListIN10QtMobility14QOrganizerItemEE6appendERKS1_)
    t._ZN5QListIN10QtMobility14QOrganizerItemEE6appendERKS1_.clean 0x00011980   Section        8  QtVersitOrganizer.in(t._ZN5QListIN10QtMobility14QOrganizerItemEE6appendERKS1_.clean)
    t._ZN5QListIN10QtMobility14QOrganizerItemEE9node_copyEPNS2_4NodeES4_S4_ 0x00011988   Section       70  QtVersitOrganizer.in(t._ZN5QListIN10QtMobility14QOrganizerItemEE9node_copyEPNS2_4NodeES4_S4_)
    t._ZN5QListIN10QtMobility14QOrganizerItemEE9node_copyEPNS2_4NodeES4_S4_.clean 0x000119ce   Section       22  QtVersitOrganizer.in(t._ZN5QListIN10QtMobility14QOrganizerItemEE9node_copyEPNS2_4NodeES4_S4_.clean)
    t._ZN5QListIN10QtMobility14QOrganizerItemEED1Ev 0x000119e4   Section       30  QtVersitOrganizer.in(t._ZN5QListIN10QtMobility14QOrganizerItemEED1Ev)
    t._ZN5QListIN10QtMobility15QVersitDocumentEE13detach_helperEi 0x00011a02   Section      152  QtVersitOrganizer.in(t._ZN5QListIN10QtMobility15QVersitDocumentEE13detach_helperEi)
    t._ZN5QListIN10QtMobility15QVersitDocumentEE13detach_helperEi.clean 0x00011a9a   Section       18  QtVersitOrganizer.in(t._ZN5QListIN10QtMobility15QVersitDocumentEE13detach_helperEi.clean)
    t._ZN5QListIN10QtMobility15QVersitDocumentEE13node_destructEPNS2_4NodeES4_ 0x00011aac   Section       30  QtVersitOrganizer.in(t._ZN5QListIN10QtMobility15QVersitDocumentEE13node_destructEPNS2_4NodeES4_)
    t._ZN5QListIN10QtMobility15QVersitDocumentEE14node_constructEPNS2_4NodeERKS1_ 0x00011aca   Section       32  QtVersitOrganizer.in(t._ZN5QListIN10QtMobility15QVersitDocumentEE14node_constructEPNS2_4NodeERKS1_)
    t._ZN5QListIN10QtMobility15QVersitDocumentEE14node_constructEPNS2_4NodeERKS1_.clean 0x00011aea   Section       10  QtVersitOrganizer.in(t._ZN5QListIN10QtMobility15QVersitDocumentEE14node_constructEPNS2_4NodeERKS1_.clean)
    t._ZN5QListIN10QtMobility15QVersitDocumentEE18detach_helper_growEii 0x00011af4   Section      180  QtVersitOrganizer.in(t._ZN5QListIN10QtMobility15QVersitDocumentEE18detach_helper_growEii)
    t._ZN5QListIN10QtMobility15QVersitDocumentEE18detach_helper_growEii.clean 0x00011ba8   Section        8  QtVersitOrganizer.in(t._ZN5QListIN10QtMobility15QVersitDocumentEE18detach_helper_growEii.clean)
    t._ZN5QListIN10QtMobility15QVersitDocumentEE4freeEPN9QListData4DataE 0x00011bb0   Section       38  QtVersitOrganizer.in(t._ZN5QListIN10QtMobility15QVersitDocumentEE4freeEPN9QListData4DataE)
    t._ZN5QListIN10QtMobility15QVersitDocumentEE6appendERKS1_ 0x00011bd8   Section       96  QtVersitOrganizer.in(t._ZN5QListIN10QtMobility15QVersitDocumentEE6appendERKS1_)
    t._ZN5QListIN10QtMobility15QVersitDocumentEE6appendERKS1_.clean 0x00011c38   Section        8  QtVersitOrganizer.in(t._ZN5QListIN10QtMobility15QVersitDocumentEE6appendERKS1_.clean)
    t._ZN5QListIN10QtMobility15QVersitDocumentEE9node_copyEPNS2_4NodeES4_S4_ 0x00011c40   Section       80  QtVersitOrganizer.in(t._ZN5QListIN10QtMobility15QVersitDocumentEE9node_copyEPNS2_4NodeES4_S4_)
    t._ZN5QListIN10QtMobility15QVersitDocumentEE9node_copyEPNS2_4NodeES4_S4_.clean 0x00011c90   Section       18  QtVersitOrganizer.in(t._ZN5QListIN10QtMobility15QVersitDocumentEE9node_copyEPNS2_4NodeES4_S4_.clean)
    t._ZN5QListIN10QtMobility15QVersitDocumentEED1Ev 0x00011ca2   Section       30  QtVersitOrganizer.in(t._ZN5QListIN10QtMobility15QVersitDocumentEED1Ev)
    t._ZN5QListIN10QtMobility15QVersitPropertyEE13detach_helperEi 0x00011cc0   Section      152  QtVersitOrganizer.in(t._ZN5QListIN10QtMobility15QVersitPropertyEE13detach_helperEi)
    t._ZN5QListIN10QtMobility15QVersitPropertyEE13detach_helperEi.clean 0x00011d58   Section       18  QtVersitOrganizer.in(t._ZN5QListIN10QtMobility15QVersitPropertyEE13detach_helperEi.clean)
    t._ZN5QListIN10QtMobility15QVersitPropertyEE13detach_helperEv 0x00011d6a   Section       88  QtVersitOrganizer.in(t._ZN5QListIN10QtMobility15QVersitPropertyEE13detach_helperEv)
    t._ZN5QListIN10QtMobility15QVersitPropertyEE13detach_helperEv.clean 0x00011dc2   Section        8  QtVersitOrganizer.in(t._ZN5QListIN10QtMobility15QVersitPropertyEE13detach_helperEv.clean)
    t._ZN5QListIN10QtMobility15QVersitPropertyEE13node_destructEPNS2_4NodeES4_ 0x00011dca   Section       30  QtVersitOrganizer.in(t._ZN5QListIN10QtMobility15QVersitPropertyEE13node_destructEPNS2_4NodeES4_)
    t._ZN5QListIN10QtMobility15QVersitPropertyEE14node_constructEPNS2_4NodeERKS1_ 0x00011de8   Section       32  QtVersitOrganizer.in(t._ZN5QListIN10QtMobility15QVersitPropertyEE14node_constructEPNS2_4NodeERKS1_)
    t._ZN5QListIN10QtMobility15QVersitPropertyEE14node_constructEPNS2_4NodeERKS1_.clean 0x00011e08   Section       10  QtVersitOrganizer.in(t._ZN5QListIN10QtMobility15QVersitPropertyEE14node_constructEPNS2_4NodeERKS1_.clean)
    t._ZN5QListIN10QtMobility15QVersitPropertyEE18detach_helper_growEii 0x00011e12   Section      180  QtVersitOrganizer.in(t._ZN5QListIN10QtMobility15QVersitPropertyEE18detach_helper_growEii)
    t._ZN5QListIN10QtMobility15QVersitPropertyEE18detach_helper_growEii.clean 0x00011ec6   Section        8  QtVersitOrganizer.in(t._ZN5QListIN10QtMobility15QVersitPropertyEE18detach_helper_growEii.clean)
    t._ZN5QListIN10QtMobility15QVersitPropertyEE4freeEPN9QListData4DataE 0x00011ece   Section       44  QtVersitOrganizer.in(t._ZN5QListIN10QtMobility15QVersitPropertyEE4freeEPN9QListData4DataE)
    t._ZN5QListIN10QtMobility15QVersitPropertyEE6appendERKS1_ 0x00011efc   Section       96  QtVersitOrganizer.in(t._ZN5QListIN10QtMobility15QVersitPropertyEE6appendERKS1_)
    t._ZN5QListIN10QtMobility15QVersitPropertyEE6appendERKS1_.clean 0x00011f5c   Section        8  QtVersitOrganizer.in(t._ZN5QListIN10QtMobility15QVersitPropertyEE6appendERKS1_.clean)
    t._ZN5QListIN10QtMobility15QVersitPropertyEE9node_copyEPNS2_4NodeES4_S4_ 0x00011f64   Section       80  QtVersitOrganizer.in(t._ZN5QListIN10QtMobility15QVersitPropertyEE9node_copyEPNS2_4NodeES4_S4_)
    t._ZN5QListIN10QtMobility15QVersitPropertyEE9node_copyEPNS2_4NodeES4_S4_.clean 0x00011fb4   Section       18  QtVersitOrganizer.in(t._ZN5QListIN10QtMobility15QVersitPropertyEE9node_copyEPNS2_4NodeES4_S4_.clean)
    t._ZN5QListIN10QtMobility15QVersitPropertyEEC1Ev 0x00011fc8   Section       20  QtVersitOrganizer.in(t._ZN5QListIN10QtMobility15QVersitPropertyEEC1Ev)
    t._ZN5QListIN10QtMobility15QVersitPropertyEED1Ev 0x00011fdc   Section       30  QtVersitOrganizer.in(t._ZN5QListIN10QtMobility15QVersitPropertyEED1Ev)
    t._ZN5QListIN10QtMobility20QOrganizerItemDetailEE13detach_helperEi 0x00011ffa   Section      142  QtVersitOrganizer.in(t._ZN5QListIN10QtMobility20QOrganizerItemDetailEE13detach_helperEi)
    t._ZN5QListIN10QtMobility20QOrganizerItemDetailEE13detach_helperEi.clean 0x00012088   Section       20  QtVersitOrganizer.in(t._ZN5QListIN10QtMobility20QOrganizerItemDetailEE13detach_helperEi.clean)
    t._ZN5QListIN10QtMobility20QOrganizerItemDetailEE13detach_helperEv 0x0001209c   Section       88  QtVersitOrganizer.in(t._ZN5QListIN10QtMobility20QOrganizerItemDetailEE13detach_helperEv)
    t._ZN5QListIN10QtMobility20QOrganizerItemDetailEE13detach_helperEv.clean 0x000120f4   Section        8  QtVersitOrganizer.in(t._ZN5QListIN10QtMobility20QOrganizerItemDetailEE13detach_helperEv.clean)
    t._ZN5QListIN10QtMobility20QOrganizerItemDetailEE14node_constructEPNS2_4NodeERKS1_ 0x000120fc   Section       26  QtVersitOrganizer.in(t._ZN5QListIN10QtMobility20QOrganizerItemDetailEE14node_constructEPNS2_4NodeERKS1_)
    t._ZN5QListIN10QtMobility20QOrganizerItemDetailEE14node_constructEPNS2_4NodeERKS1_.clean 0x00012116   Section       12  QtVersitOrganizer.in(t._ZN5QListIN10QtMobility20QOrganizerItemDetailEE14node_constructEPNS2_4NodeERKS1_.clean)
    t._ZN5QListIN10QtMobility20QOrganizerItemDetailEE18detach_helper_growEii 0x00012122   Section      186  QtVersitOrganizer.in(t._ZN5QListIN10QtMobility20QOrganizerItemDetailEE18detach_helper_growEii)
    t._ZN5QListIN10QtMobility20QOrganizerItemDetailEE18detach_helper_growEii.clean 0x000121dc   Section        8  QtVersitOrganizer.in(t._ZN5QListIN10QtMobility20QOrganizerItemDetailEE18detach_helper_growEii.clean)
    t._ZN5QListIN10QtMobility20QOrganizerItemDetailEE4freeEPN9QListData4DataE 0x000121e4   Section       54  QtVersitOrganizer.in(t._ZN5QListIN10QtMobility20QOrganizerItemDetailEE4freeEPN9QListData4DataE)
    t._ZN5QListIN10QtMobility20QOrganizerItemDetailEE6appendERKS1_ 0x0001221c   Section      100  QtVersitOrganizer.in(t._ZN5QListIN10QtMobility20QOrganizerItemDetailEE6appendERKS1_)
    t._ZN5QListIN10QtMobility20QOrganizerItemDetailEE6appendERKS1_.clean 0x00012280   Section        8  QtVersitOrganizer.in(t._ZN5QListIN10QtMobility20QOrganizerItemDetailEE6appendERKS1_.clean)
    t._ZN5QListIN10QtMobility20QOrganizerItemDetailEE9node_copyEPNS2_4NodeES4_S4_ 0x00012288   Section       70  QtVersitOrganizer.in(t._ZN5QListIN10QtMobility20QOrganizerItemDetailEE9node_copyEPNS2_4NodeES4_S4_)
    t._ZN5QListIN10QtMobility20QOrganizerItemDetailEE9node_copyEPNS2_4NodeES4_S4_.clean 0x000122ce   Section       22  QtVersitOrganizer.in(t._ZN5QListIN10QtMobility20QOrganizerItemDetailEE9node_copyEPNS2_4NodeES4_S4_.clean)
    t._ZN5QListIN10QtMobility20QOrganizerItemDetailEED1Ev 0x000122e4   Section       30  QtVersitOrganizer.in(t._ZN5QListIN10QtMobility20QOrganizerItemDetailEED1Ev)
    t._ZN5QListIN10QtMobility24QOrganizerRecurrenceRule5MonthEE13detach_helperEi 0x00012302   Section       86  QtVersitOrganizer.in(t._ZN5QListIN10QtMobility24QOrganizerRecurrenceRule5MonthEE13detach_helperEi)
    t._ZN5QListIN10QtMobility24QOrganizerRecurrenceRule5MonthEE13detach_helperEi.clean 0x00012358   Section        8  QtVersitOrganizer.in(t._ZN5QListIN10QtMobility24QOrganizerRecurrenceRule5MonthEE13detach_helperEi.clean)
    t._ZN5QListIN10QtMobility24QOrganizerRecurrenceRule5MonthEE13detach_helperEv 0x00012360   Section       12  QtVersitOrganizer.in(t._ZN5QListIN10QtMobility24QOrganizerRecurrenceRule5MonthEE13detach_helperEv)
    t._ZN5QListIN10QtMobility24QOrganizerRecurrenceRule5MonthEE13node_destructEPNS3_4NodeES5_ 0x0001236c   Section       22  QtVersitOrganizer.in(t._ZN5QListIN10QtMobility24QOrganizerRecurrenceRule5MonthEE13node_destructEPNS3_4NodeES5_)
    t._ZN5QListIN10QtMobility24QOrganizerRecurrenceRule5MonthEE14node_constructEPNS3_4NodeERKS2_ 0x00012382   Section       28  QtVersitOrganizer.in(t._ZN5QListIN10QtMobility24QOrganizerRecurrenceRule5MonthEE14node_constructEPNS3_4NodeERKS2_)
    t._ZN5QListIN10QtMobility24QOrganizerRecurrenceRule5MonthEE18detach_helper_growEii 0x0001239e   Section      180  QtVersitOrganizer.in(t._ZN5QListIN10QtMobility24QOrganizerRecurrenceRule5MonthEE18detach_helper_growEii)
    t._ZN5QListIN10QtMobility24QOrganizerRecurrenceRule5MonthEE18detach_helper_growEii.clean 0x00012452   Section        8  QtVersitOrganizer.in(t._ZN5QListIN10QtMobility24QOrganizerRecurrenceRule5MonthEE18detach_helper_growEii.clean)
    t._ZN5QListIN10QtMobility24QOrganizerRecurrenceRule5MonthEE4freeEPN9QListData4DataE 0x0001245a   Section       44  QtVersitOrganizer.in(t._ZN5QListIN10QtMobility24QOrganizerRecurrenceRule5MonthEE4freeEPN9QListData4DataE)
    t._ZN5QListIN10QtMobility24QOrganizerRecurrenceRule5MonthEE5beginEv 0x00012486   Section       22  QtVersitOrganizer.in(t._ZN5QListIN10QtMobility24QOrganizerRecurrenceRule5MonthEE5beginEv)
    t._ZN5QListIN10QtMobility24QOrganizerRecurrenceRule5MonthEE6appendERKS2_ 0x0001249c   Section       96  QtVersitOrganizer.in(t._ZN5QListIN10QtMobility24QOrganizerRecurrenceRule5MonthEE6appendERKS2_)
    t._ZN5QListIN10QtMobility24QOrganizerRecurrenceRule5MonthEE6appendERKS2_.clean 0x000124fc   Section        8  QtVersitOrganizer.in(t._ZN5QListIN10QtMobility24QOrganizerRecurrenceRule5MonthEE6appendERKS2_.clean)
    t._ZN5QListIN10QtMobility24QOrganizerRecurrenceRule5MonthEE6detachEv 0x00012504   Section       24  QtVersitOrganizer.in(t._ZN5QListIN10QtMobility24QOrganizerRecurrenceRule5MonthEE6detachEv)
    t._ZN5QListIN10QtMobility24QOrganizerRecurrenceRule5MonthEE9node_copyEPNS3_4NodeES5_S5_ 0x0001251c   Section       40  QtVersitOrganizer.in(t._ZN5QListIN10QtMobility24QOrganizerRecurrenceRule5MonthEE9node_copyEPNS3_4NodeES5_S5_)
    t._ZN5QListIN10QtMobility24QOrganizerRecurrenceRule5MonthEEC1ERKS3_ 0x00012544   Section       30  QtVersitOrganizer.in(t._ZN5QListIN10QtMobility24QOrganizerRecurrenceRule5MonthEEC1ERKS3_)
    t._ZN5QListIN10QtMobility24QOrganizerRecurrenceRule5MonthEED1Ev 0x00012562   Section       30  QtVersitOrganizer.in(t._ZN5QListIN10QtMobility24QOrganizerRecurrenceRule5MonthEED1Ev)
    t._ZN5QListIN2Qt9DayOfWeekEE13detach_helperEi 0x00012580   Section       86  QtVersitOrganizer.in(t._ZN5QListIN2Qt9DayOfWeekEE13detach_helperEi)
    t._ZN5QListIN2Qt9DayOfWeekEE13detach_helperEi.clean 0x000125d6   Section        8  QtVersitOrganizer.in(t._ZN5QListIN2Qt9DayOfWeekEE13detach_helperEi.clean)
    t._ZN5QListIN2Qt9DayOfWeekEE13detach_helperEv 0x000125de   Section       12  QtVersitOrganizer.in(t._ZN5QListIN2Qt9DayOfWeekEE13detach_helperEv)
    t._ZN5QListIN2Qt9DayOfWeekEE13node_destructEPNS2_4NodeES4_ 0x000125ea   Section       22  QtVersitOrganizer.in(t._ZN5QListIN2Qt9DayOfWeekEE13node_destructEPNS2_4NodeES4_)
    t._ZN5QListIN2Qt9DayOfWeekEE14node_constructEPNS2_4NodeERKS1_ 0x00012600   Section       28  QtVersitOrganizer.in(t._ZN5QListIN2Qt9DayOfWeekEE14node_constructEPNS2_4NodeERKS1_)
    t._ZN5QListIN2Qt9DayOfWeekEE18detach_helper_growEii 0x0001261c   Section      180  QtVersitOrganizer.in(t._ZN5QListIN2Qt9DayOfWeekEE18detach_helper_growEii)
    t._ZN5QListIN2Qt9DayOfWeekEE18detach_helper_growEii.clean 0x000126d0   Section        8  QtVersitOrganizer.in(t._ZN5QListIN2Qt9DayOfWeekEE18detach_helper_growEii.clean)
    t._ZN5QListIN2Qt9DayOfWeekEE4freeEPN9QListData4DataE 0x000126d8   Section       44  QtVersitOrganizer.in(t._ZN5QListIN2Qt9DayOfWeekEE4freeEPN9QListData4DataE)
    t._ZN5QListIN2Qt9DayOfWeekEE5beginEv     0x00012704   Section       22  QtVersitOrganizer.in(t._ZN5QListIN2Qt9DayOfWeekEE5beginEv)
    t._ZN5QListIN2Qt9DayOfWeekEE6appendERKS1_ 0x0001271c   Section       96  QtVersitOrganizer.in(t._ZN5QListIN2Qt9DayOfWeekEE6appendERKS1_)
    t._ZN5QListIN2Qt9DayOfWeekEE6appendERKS1_.clean 0x0001277c   Section        8  QtVersitOrganizer.in(t._ZN5QListIN2Qt9DayOfWeekEE6appendERKS1_.clean)
    t._ZN5QListIN2Qt9DayOfWeekEE6detachEv    0x00012784   Section       24  QtVersitOrganizer.in(t._ZN5QListIN2Qt9DayOfWeekEE6detachEv)
    t._ZN5QListIN2Qt9DayOfWeekEE9node_copyEPNS2_4NodeES4_S4_ 0x0001279c   Section       40  QtVersitOrganizer.in(t._ZN5QListIN2Qt9DayOfWeekEE9node_copyEPNS2_4NodeES4_S4_)
    t._ZN5QListIN2Qt9DayOfWeekEEC1ERKS2_     0x000127c4   Section       30  QtVersitOrganizer.in(t._ZN5QListIN2Qt9DayOfWeekEEC1ERKS2_)
    t._ZN5QListIN2Qt9DayOfWeekEED1Ev         0x000127e2   Section       30  QtVersitOrganizer.in(t._ZN5QListIN2Qt9DayOfWeekEED1Ev)
    t._ZN5QListIPN10QtMobility23QVersitOrganizerHandlerEE13detach_helperEi 0x00012800   Section       98  QtVersitOrganizer.in(t._ZN5QListIPN10QtMobility23QVersitOrganizerHandlerEE13detach_helperEi)
    t._ZN5QListIPN10QtMobility23QVersitOrganizerHandlerEE13detach_helperEi.clean 0x00012862   Section        8  QtVersitOrganizer.in(t._ZN5QListIPN10QtMobility23QVersitOrganizerHandlerEE13detach_helperEi.clean)
    t._ZN5QListIPN10QtMobility23QVersitOrganizerHandlerEE13detach_helperEv 0x0001286a   Section       12  QtVersitOrganizer.in(t._ZN5QListIPN10QtMobility23QVersitOrganizerHandlerEE13detach_helperEv)
    t._ZN5QListIPN10QtMobility23QVersitOrganizerHandlerEE18detach_helper_growEii 0x00012876   Section      164  QtVersitOrganizer.in(t._ZN5QListIPN10QtMobility23QVersitOrganizerHandlerEE18detach_helper_growEii)
    t._ZN5QListIPN10QtMobility23QVersitOrganizerHandlerEE18detach_helper_growEii.clean 0x0001291a   Section        8  QtVersitOrganizer.in(t._ZN5QListIPN10QtMobility23QVersitOrganizerHandlerEE18detach_helper_growEii.clean)
    t._ZN5QListIPN10QtMobility23QVersitOrganizerHandlerEE4freeEPN9QListData4DataE 0x00012922   Section       16  QtVersitOrganizer.in(t._ZN5QListIPN10QtMobility23QVersitOrganizerHandlerEE4freeEPN9QListData4DataE)
    t._ZN5QListIPN10QtMobility23QVersitOrganizerHandlerEE9node_copyEPNS3_4NodeES5_S5_ 0x00012932   Section       28  QtVersitOrganizer.in(t._ZN5QListIPN10QtMobility23QVersitOrganizerHandlerEE9node_copyEPNS3_4NodeES5_S5_)
    t._ZN5QListIPN10QtMobility23QVersitOrganizerHandlerEED1Ev 0x0001294e   Section       30  QtVersitOrganizer.in(t._ZN5QListIPN10QtMobility23QVersitOrganizerHandlerEED1Ev)
    t._ZN5QListIPN10QtMobility30QVersitOrganizerHandlerFactoryEE13detach_helperEv 0x0001296c   Section       88  QtVersitOrganizer.in(t._ZN5QListIPN10QtMobility30QVersitOrganizerHandlerFactoryEE13detach_helperEv)
    t._ZN5QListIPN10QtMobility30QVersitOrganizerHandlerFactoryEE13detach_helperEv.clean 0x000129c4   Section        8  QtVersitOrganizer.in(t._ZN5QListIPN10QtMobility30QVersitOrganizerHandlerFactoryEE13detach_helperEv.clean)
    t._ZN5QListIPN10QtMobility30QVersitOrganizerHandlerFactoryEE18detach_helper_growEii 0x000129cc   Section      164  QtVersitOrganizer.in(t._ZN5QListIPN10QtMobility30QVersitOrganizerHandlerFactoryEE18detach_helper_growEii)
    t._ZN5QListIPN10QtMobility30QVersitOrganizerHandlerFactoryEE18detach_helper_growEii.clean 0x00012a70   Section        8  QtVersitOrganizer.in(t._ZN5QListIPN10QtMobility30QVersitOrganizerHandlerFactoryEE18detach_helper_growEii.clean)
    t._ZN5QListIPN10QtMobility30QVersitOrganizerHandlerFactoryEE4freeEPN9QListData4DataE 0x00012a78   Section       16  QtVersitOrganizer.in(t._ZN5QListIPN10QtMobility30QVersitOrganizerHandlerFactoryEE4freeEPN9QListData4DataE)
    t._ZN5QListIPN10QtMobility30QVersitOrganizerHandlerFactoryEE6detachEv 0x00012a88   Section       24  QtVersitOrganizer.in(t._ZN5QListIPN10QtMobility30QVersitOrganizerHandlerFactoryEE6detachEv)
    t._ZN5QListIPN10QtMobility30QVersitOrganizerHandlerFactoryEE9node_copyEPNS3_4NodeES5_S5_ 0x00012aa0   Section       28  QtVersitOrganizer.in(t._ZN5QListIPN10QtMobility30QVersitOrganizerHandlerFactoryEE9node_copyEPNS3_4NodeES5_S5_)
    t._ZN5QListIPN10QtMobility30QVersitOrganizerHandlerFactoryEED1Ev 0x00012abc   Section       30  QtVersitOrganizer.in(t._ZN5QListIPN10QtMobility30QVersitOrganizerHandlerFactoryEED1Ev)
    t._ZN5QListIiE13detach_helperEi          0x00012ada   Section       86  QtVersitOrganizer.in(t._ZN5QListIiE13detach_helperEi)
    t._ZN5QListIiE13detach_helperEi.clean    0x00012b30   Section        8  QtVersitOrganizer.in(t._ZN5QListIiE13detach_helperEi.clean)
    t._ZN5QListIiE13detach_helperEv          0x00012b38   Section       12  QtVersitOrganizer.in(t._ZN5QListIiE13detach_helperEv)
    t._ZN5QListIiE18detach_helper_growEii    0x00012b44   Section      164  QtVersitOrganizer.in(t._ZN5QListIiE18detach_helper_growEii)
    t._ZN5QListIiE18detach_helper_growEii.clean 0x00012be8   Section        8  QtVersitOrganizer.in(t._ZN5QListIiE18detach_helper_growEii.clean)
    t._ZN5QListIiE4freeEPN9QListData4DataE   0x00012bf0   Section       24  QtVersitOrganizer.in(t._ZN5QListIiE4freeEPN9QListData4DataE)
    t._ZN5QListIiE5beginEv                   0x00012c08   Section       22  QtVersitOrganizer.in(t._ZN5QListIiE5beginEv)
    t._ZN5QListIiE6detachEv                  0x00012c1e   Section       24  QtVersitOrganizer.in(t._ZN5QListIiE6detachEv)
    t._ZN5QListIiE9node_copyEPNS0_4NodeES2_S2_ 0x00012c36   Section       28  QtVersitOrganizer.in(t._ZN5QListIiE9node_copyEPNS0_4NodeES2_S2_)
    t._ZN5QListIiEC1ERKS0_                   0x00012c52   Section       30  QtVersitOrganizer.in(t._ZN5QListIiEC1ERKS0_)
    t._ZN5QListIiED1Ev                       0x00012c70   Section       30  QtVersitOrganizer.in(t._ZN5QListIiED1Ev)
    t._ZN9QHashNodeI7QString8TimeZoneEC1ERKS0_RKS1_ 0x00012c8e   Section       56  QtVersitOrganizer.in(t._ZN9QHashNodeI7QString8TimeZoneEC1ERKS0_RKS1_)
    t._ZN9QHashNodeI7QString8TimeZoneEC1ERKS0_RKS1_.clean 0x00012cc6   Section       16  QtVersitOrganizer.in(t._ZN9QHashNodeI7QString8TimeZoneEC1ERKS0_RKS1_.clean)
    t._ZNK10QtMobility14QOrganizerItem6detailINS_18QOrganizerTodoTimeEEET_v 0x00012cd8   Section       36  QtVersitOrganizer.in(t._ZNK10QtMobility14QOrganizerItem6detailINS_18QOrganizerTodoTimeEEET_v)
    t._ZNK10QtMobility14QOrganizerItem6detailINS_18QOrganizerTodoTimeEEET_v.clean 0x00012cfc   Section       10  QtVersitOrganizer.in(t._ZNK10QtMobility14QOrganizerItem6detailINS_18QOrganizerTodoTimeEEET_v.clean)
    t._ZNK10QtMobility14QOrganizerItem6detailINS_19QOrganizerEventTimeEEET_v 0x00012d08   Section       36  QtVersitOrganizer.in(t._ZNK10QtMobility14QOrganizerItem6detailINS_19QOrganizerEventTimeEEET_v)
    t._ZNK10QtMobility14QOrganizerItem6detailINS_19QOrganizerEventTimeEEET_v.clean 0x00012d2c   Section       10  QtVersitOrganizer.in(t._ZNK10QtMobility14QOrganizerItem6detailINS_19QOrganizerEventTimeEEET_v.clean)
    t._ZNK10QtMobility14QOrganizerItem6detailINS_22QOrganizerTodoProgressEEET_v 0x00012d38   Section       36  QtVersitOrganizer.in(t._ZNK10QtMobility14QOrganizerItem6detailINS_22QOrganizerTodoProgressEEET_v)
    t._ZNK10QtMobility14QOrganizerItem6detailINS_22QOrganizerTodoProgressEEET_v.clean 0x00012d5c   Section       10  QtVersitOrganizer.in(t._ZNK10QtMobility14QOrganizerItem6detailINS_22QOrganizerTodoProgressEEET_v.clean)
    t._ZNK10QtMobility14QOrganizerItem6detailINS_23QOrganizerItemTimestampEEET_v 0x00012d68   Section       36  QtVersitOrganizer.in(t._ZNK10QtMobility14QOrganizerItem6detailINS_23QOrganizerItemTimestampEEET_v)
    t._ZNK10QtMobility14QOrganizerItem6detailINS_23QOrganizerItemTimestampEEET_v.clean 0x00012d8c   Section       10  QtVersitOrganizer.in(t._ZNK10QtMobility14QOrganizerItem6detailINS_23QOrganizerItemTimestampEEET_v.clean)
    t._ZNK10QtMobility14QOrganizerItem6detailINS_24QOrganizerItemRecurrenceEEET_v 0x00012d98   Section       36  QtVersitOrganizer.in(t._ZNK10QtMobility14QOrganizerItem6detailINS_24QOrganizerItemRecurrenceEEET_v)
    t._ZNK10QtMobility14QOrganizerItem6detailINS_24QOrganizerItemRecurrenceEEET_v.clean 0x00012dbc   Section       10  QtVersitOrganizer.in(t._ZNK10QtMobility14QOrganizerItem6detailINS_24QOrganizerItemRecurrenceEEET_v.clean)
    t._ZNK10QtMobility20QOrganizerItemDetail5valueI9QDateTimeEET_PKc 0x00012dc6   Section       98  QtVersitOrganizer.in(t._ZNK10QtMobility20QOrganizerItemDetail5valueI9QDateTimeEET_PKc)
    t._ZNK10QtMobility20QOrganizerItemDetail5valueI9QDateTimeEET_PKc.clean 0x00012e28   Section       18  QtVersitOrganizer.in(t._ZNK10QtMobility20QOrganizerItemDetail5valueI9QDateTimeEET_PKc.clean)
    t._ZNK10QtMobility20QOrganizerItemDetail5valueIbLi7EEET_RKNS_15QLatin1ConstantIXT0_EEE 0x00012e3a   Section       68  QtVersitOrganizer.in(t._ZNK10QtMobility20QOrganizerItemDetail5valueIbLi7EEET_RKNS_15QLatin1ConstantIXT0_EEE)
    t._ZNK10QtMobility20QOrganizerItemDetail5valueIbLi7EEET_RKNS_15QLatin1ConstantIXT0_EEE.clean 0x00012e7e   Section       10  QtVersitOrganizer.in(t._ZNK10QtMobility20QOrganizerItemDetail5valueIbLi7EEET_RKNS_15QLatin1ConstantIXT0_EEE.clean)
    t._ZNK10QtMobility20QOrganizerItemDetail5valueIiEET_PKc 0x00012e88   Section       66  QtVersitOrganizer.in(t._ZNK10QtMobility20QOrganizerItemDetail5valueIiEET_PKc)
    t._ZNK10QtMobility20QOrganizerItemDetail5valueIiEET_PKc.clean 0x00012eca   Section       10  QtVersitOrganizer.in(t._ZNK10QtMobility20QOrganizerItemDetail5valueIiEET_PKc.clean)
    t._ZNK17QForeachContainerI11QStringListE9conditionEv 0x00012ed4   Section       26  QtVersitOrganizer.in(t._ZNK17QForeachContainerI11QStringListE9conditionEv)
    t._ZNK17QForeachContainerI4QSetIN10QtMobility24QOrganizerRecurrenceRuleEEE9conditionEv 0x00012eee   Section       26  QtVersitOrganizer.in(t._ZNK17QForeachContainerI4QSetIN10QtMobility24QOrganizerRecurrenceRuleEEE9conditionEv)
    t._ZNK17QForeachContainerI5QListI13TimeZonePhaseEE9conditionEv 0x00012f08   Section       26  QtVersitOrganizer.in(t._ZNK17QForeachContainerI5QListI13TimeZonePhaseEE9conditionEv)
    t._ZNK17QForeachContainerI5QListIN10QtMobility15QVersitPropertyEEE9conditionEv 0x00012f22   Section       26  QtVersitOrganizer.in(t._ZNK17QForeachContainerI5QListIN10QtMobility15QVersitPropertyEEE9conditionEv)
    t._ZNK17QForeachContainerI5QListIPN10QtMobility23QVersitOrganizerHandlerEEE9conditionEv 0x00012f3c   Section       26  QtVersitOrganizer.in(t._ZNK17QForeachContainerI5QListIPN10QtMobility23QVersitOrganizerHandlerEEE9conditionEv)
    t._ZNK4QMapI7QString5QPairIS0_S0_EE15mutableFindNodeEPPN8QMapData4NodeERKS0_ 0x00012f56   Section       86  QtVersitOrganizer.in(t._ZNK4QMapI7QString5QPairIS0_S0_EE15mutableFindNodeEPPN8QMapData4NodeERKS0_)
    t._ZNK4QSetI5QDateE6toListEv             0x00012fac   Section      100  QtVersitOrganizer.in(t._ZNK4QSetI5QDateE6toListEv)
    t._ZNK4QSetI5QDateE6toListEv.clean       0x00013010   Section       10  QtVersitOrganizer.in(t._ZNK4QSetI5QDateE6toListEv.clean)
    t._ZNK4QSetI5QDateE7isEmptyEv            0x0001301a   Section       16  QtVersitOrganizer.in(t._ZNK4QSetI5QDateE7isEmptyEv)
    t._ZNK4QSetI7QStringE8containsERKS0_     0x0001302a   Section       26  QtVersitOrganizer.in(t._ZNK4QSetI7QStringE8containsERKS0_)
    t._ZNK4QSetIN10QtMobility24QOrganizerRecurrenceRule5MonthEE6toListEv 0x00013044   Section      100  QtVersitOrganizer.in(t._ZNK4QSetIN10QtMobility24QOrganizerRecurrenceRule5MonthEE6toListEv)
    t._ZNK4QSetIN10QtMobility24QOrganizerRecurrenceRule5MonthEE6toListEv.clean 0x000130a8   Section       10  QtVersitOrganizer.in(t._ZNK4QSetIN10QtMobility24QOrganizerRecurrenceRule5MonthEE6toListEv.clean)
    t._ZNK4QSetIN10QtMobility24QOrganizerRecurrenceRuleEE7isEmptyEv 0x000130b2   Section       16  QtVersitOrganizer.in(t._ZNK4QSetIN10QtMobility24QOrganizerRecurrenceRuleEE7isEmptyEv)
    t._ZNK4QSetIN2Qt9DayOfWeekEE6toListEv    0x000130c4   Section      100  QtVersitOrganizer.in(t._ZNK4QSetIN2Qt9DayOfWeekEE6toListEv)
    t._ZNK4QSetIN2Qt9DayOfWeekEE6toListEv.clean 0x00013128   Section       10  QtVersitOrganizer.in(t._ZNK4QSetIN2Qt9DayOfWeekEE6toListEv.clean)
    t._ZNK4QSetIiE6toListEv                  0x00013134   Section      144  QtVersitOrganizer.in(t._ZNK4QSetIiE6toListEv)
    t._ZNK4QSetIiE6toListEv.clean            0x000131c4   Section       16  QtVersitOrganizer.in(t._ZNK4QSetIiE6toListEv.clean)
    t._ZNK4QSetIiE7isEmptyEv                 0x000131d4   Section       16  QtVersitOrganizer.in(t._ZNK4QSetIiE7isEmptyEv)
    t._ZNK5QHashI5QDate15QHashDummyValueE8findNodeERKS0_Pj 0x000131e4   Section       56  QtVersitOrganizer.in(t._ZNK5QHashI5QDate15QHashDummyValueE8findNodeERKS0_Pj)
    t._ZNK5QHashI7QString15QHashDummyValueE8findNodeERKS0_Pj 0x0001321c   Section       90  QtVersitOrganizer.in(t._ZNK5QHashI7QString15QHashDummyValueE8findNodeERKS0_Pj)
    t._ZNK5QHashI7QString8TimeZoneE5valueERKS0_ 0x00013278   Section       88  QtVersitOrganizer.in(t._ZNK5QHashI7QString8TimeZoneE5valueERKS0_)
    t._ZNK5QHashI7QString8TimeZoneE5valueERKS0_.clean 0x000132d0   Section       10  QtVersitOrganizer.in(t._ZNK5QHashI7QString8TimeZoneE5valueERKS0_.clean)
    t._ZNK5QHashI7QString8TimeZoneE8findNodeERKS0_Pj 0x000132da   Section       90  QtVersitOrganizer.in(t._ZNK5QHashI7QString8TimeZoneE8findNodeERKS0_Pj)
    t._ZNK5QHashI7QStringS0_E8findNodeERKS0_Pj 0x00013334   Section       90  QtVersitOrganizer.in(t._ZNK5QHashI7QStringS0_E8findNodeERKS0_Pj)
    t._ZNK5QHashIN10QtMobility24QOrganizerRecurrenceRule5MonthE15QHashDummyValueE8findNodeERKS2_Pj 0x0001338e   Section       62  QtVersitOrganizer.in(t._ZNK5QHashIN10QtMobility24QOrganizerRecurrenceRule5MonthE15QHashDummyValueE8findNodeERKS2_Pj)
    t._ZNK5QHashIN10QtMobility24QOrganizerRecurrenceRuleE15QHashDummyValueE8findNodeERKS1_Pj 0x000133cc   Section       90  QtVersitOrganizer.in(t._ZNK5QHashIN10QtMobility24QOrganizerRecurrenceRuleE15QHashDummyValueE8findNodeERKS1_Pj)
    t._ZNK5QHashIN2Qt9DayOfWeekE15QHashDummyValueE8findNodeERKS1_Pj 0x00013426   Section       62  QtVersitOrganizer.in(t._ZNK5QHashIN2Qt9DayOfWeekE15QHashDummyValueE8findNodeERKS1_Pj)
    t._ZNK5QHashIi15QHashDummyValueE8findNodeERKiPj 0x00013464   Section       50  QtVersitOrganizer.in(t._ZNK5QHashIi15QHashDummyValueE8findNodeERKiPj)
    t._ZNK5QListI7QStringE2atEi              0x00013496   Section       16  QtVersitOrganizer.in(t._ZNK5QListI7QStringE2atEi)
    t._ZNK5QListI7QStringE4sizeEv            0x000134a6   Section       10  QtVersitOrganizer.in(t._ZNK5QListI7QStringE4sizeEv)
    t._ZNK5qLessI5QDateEclERKS0_S3_          0x000134b0   Section       14  QtVersitOrganizer.in(t._ZNK5qLessI5QDateEclERKS0_S3_)
    t._ZNK5qLessIN10QtMobility24QOrganizerRecurrenceRule5MonthEEclERKS2_S5_ 0x000134be   Section       14  QtVersitOrganizer.in(t._ZNK5qLessIN10QtMobility24QOrganizerRecurrenceRule5MonthEEclERKS2_S5_)
    t._ZNK5qLessIN2Qt9DayOfWeekEEclERKS1_S4_ 0x000134cc   Section       14  QtVersitOrganizer.in(t._ZNK5qLessIN2Qt9DayOfWeekEEclERKS1_S4_)
    t._ZNK5qLessIiEclERKiS2_                 0x000134da   Section       14  QtVersitOrganizer.in(t._ZNK5qLessIiEclERKiS2_)
    .extab._ZN10QtMobility24QVersitOrganizerExporterC1Ev 0x000134e8   Data           0  QtVersitOrganizer.in(.ARM.extab)
    .extab._ZN10QtMobility24QVersitOrganizerExporterC1ERK7QString 0x00013508   Data           0  QtVersitOrganizer.in(.ARM.extab)
    .extab._ZN10QtMobility24QVersitOrganizerExporter11exportItemsERK5QListINS_14QOrganizerItemEENS_15QVersitDocument10VersitTypeE 0x00013518   Data           0  QtVersitOrganizer.in(.ARM.extab)
    .extab._ZN5QListIN10QtMobility15QVersitDocumentEE14node_constructEPNS2_4NodeERKS1_ 0x00013558   Data           0  QtVersitOrganizer.in(.ARM.extab)
    .extab._ZN5QListIN10QtMobility15QVersitDocumentEE9node_copyEPNS2_4NodeES4_S4_ 0x00013568   Data           0  QtVersitOrganizer.in(.ARM.extab)
    .extab._ZN5QListIN10QtMobility15QVersitDocumentEE18detach_helper_growEii 0x0001358c   Data           0  QtVersitOrganizer.in(.ARM.extab)
    .extab._ZN4QMapIiN10QtMobility24QVersitOrganizerExporter5ErrorEE13detach_helperEv 0x000135bc   Data           0  QtVersitOrganizer.in(.ARM.extab)
    .extab._ZN5QListIN10QtMobility14QOrganizerItemEE13detach_helperEi 0x000135d8   Data           0  QtVersitOrganizer.in(.ARM.extab)
    .extab._ZN5QListIN10QtMobility15QVersitDocumentEE6appendERKS1_ 0x0001361c   Data           0  QtVersitOrganizer.in(.ARM.extab)
    .extab._ZN4QMapIiN10QtMobility24QVersitOrganizerExporter5ErrorEE5clearEv 0x0001364c   Data           0  QtVersitOrganizer.in(.ARM.extab)
    .extab._ZN10QtMobility31QVersitOrganizerExporterPrivateC1ERK7QString 0x0001365c   Data           0  QtVersitOrganizer.in(.ARM.extab)
    .extab._ZN10QtMobility31QVersitOrganizerExporterPrivateD1Ev 0x000136dc   Data           0  QtVersitOrganizer.in(.ARM.extab)
    .extab._ZN10QtMobility31QVersitOrganizerExporterPrivate34documentContainsUidAndRecurrenceIdERKNS_15QVersitDocumentE 0x00013714   Data           0  QtVersitOrganizer.in(.ARM.extab)
    .extab._ZN10QtMobility31QVersitOrganizerExporterPrivate12takePropertyERKNS_15QVersitDocumentERK7QStringP5QListINS_15QVersitPropertyEE 0x00013744   Data           0  QtVersitOrganizer.in(.ARM.extab)
    .extab._ZN10QtMobility31QVersitOrganizerExporterPrivate20encodeSimplePropertyERKNS_20QOrganizerItemDetailERKNS_15QVersitDocumentEP5QListINS_15QVersitPropertyEESA_P4QSetI7QStringE 0x00013774   Data           0  QtVersitOrganizer.in(.ARM.extab)
    .extab._ZN10QtMobility31QVersitOrganizerExporterPrivate13encodeCommentERKNS_20QOrganizerItemDetailEP5QListINS_15QVersitPropertyEEP4QSetI7QStringE 0x000137bc   Data           0  QtVersitOrganizer.in(.ARM.extab)
    .extab._ZN10QtMobility31QVersitOrganizerExporterPrivate18encodeTodoProgressERKNS_20QOrganizerItemDetailERKNS_15QVersitDocumentEP5QListINS_15QVersitPropertyEESA_P4QSetI7QStringE 0x0001381c   Data           0  QtVersitOrganizer.in(.ARM.extab)
    .extab._ZN10QtMobility31QVersitOrganizerExporterPrivate20encodeInstanceOriginERKNS_20QOrganizerItemDetailERKNS_15QVersitDocumentEP5QListINS_15QVersitPropertyEESA_P4QSetI7QStringE 0x00013994   Data           0  QtVersitOrganizer.in(.ARM.extab)
    .extab._ZN10QtMobility31QVersitOrganizerExporterPrivate14encodePriorityERKNS_20QOrganizerItemDetailERKNS_15QVersitDocumentEP5QListINS_15QVersitPropertyEESA_P4QSetI7QStringE 0x00013a1c   Data           0  QtVersitOrganizer.in(.ARM.extab)
    .extab._ZN10QtMobility31QVersitOrganizerExporterPrivate16encodeRecurDatesERK7QStringRKNS_14QOrganizerItemERK4QSetI5QDateERKNS_15QVersitDocumentEP5QListINS_15QVersitPropertyEESI_ 0x00013a8c   Data           0  QtVersitOrganizer.in(.ARM.extab)
    .extab._ZN10QtMobility31QVersitOrganizerExporterPrivate10appendIntsEP7QStringRK4QSetIiE 0x00013b74   Data           0  QtVersitOrganizer.in(.ARM.extab)
    .extab._ZN10QtMobility31QVersitOrganizerExporterPrivate15encodeRecurRuleERK7QStringRKNS_24QOrganizerRecurrenceRuleEP5QListINS_15QVersitPropertyEE 0x00013bb4   Data           0  QtVersitOrganizer.in(.ARM.extab)
    .extab._ZN10QtMobility31QVersitOrganizerExporterPrivate16encodeRecurrenceERKNS_14QOrganizerItemERKNS_20QOrganizerItemDetailERKNS_15QVersitDocumentEP5QListINS_15QVersitPropertyEESD_P4QSetI7QStringE 0x00013d64   Data           0  QtVersitOrganizer.in(.ARM.extab)
    .extab._ZN10QtMobility31QVersitOrganizerExporterPrivate14encodeDateTimeERK9QDateTime 0x00013e54   Data           0  QtVersitOrganizer.in(.ARM.extab)
    .extab._ZN10QtMobility31QVersitOrganizerExporterPrivate15encodeTimestampERKNS_20QOrganizerItemDetailERKNS_15QVersitDocumentEP5QListINS_15QVersitPropertyEESA_P4QSetI7QStringE 0x00013e6c   Data           0  QtVersitOrganizer.in(.ARM.extab)
    .extab._ZN10QtMobility31QVersitOrganizerExporterPrivate22encodeJournalTimeRangeERKNS_20QOrganizerItemDetailERKNS_15QVersitDocumentEP5QListINS_15QVersitPropertyEESA_P4QSetI7QStringE 0x00013f7c   Data           0  QtVersitOrganizer.in(.ARM.extab)
    .extab._ZN10QtMobility31QVersitOrganizerExporterPrivate19encodeTodoTimeRangeERKNS_20QOrganizerItemDetailERKNS_15QVersitDocumentEP5QListINS_15QVersitPropertyEESA_P4QSetI7QStringE 0x00013ffc   Data           0  QtVersitOrganizer.in(.ARM.extab)
    .extab._ZN10QtMobility31QVersitOrganizerExporterPrivate20encodeEventTimeRangeERKNS_20QOrganizerItemDetailERKNS_15QVersitDocumentEP5QListINS_15QVersitPropertyEESA_P4QSetI7QStringE 0x000141ac   Data           0  QtVersitOrganizer.in(.ARM.extab)
    .extab._ZN10QtMobility31QVersitOrganizerExporterPrivate12exportDetailERKNS_14QOrganizerItemERKNS_20QOrganizerItemDetailEPNS_15QVersitDocumentE 0x0001435c   Data           0  QtVersitOrganizer.in(.ARM.extab)
    .extab._ZN10QtMobility31QVersitOrganizerExporterPrivate10exportItemERKNS_14QOrganizerItemEPNS_15QVersitDocumentEPNS_24QVersitOrganizerExporter5ErrorE 0x0001445c   Data           0  QtVersitOrganizer.in(.ARM.extab)
    .extab._Z20qForeachContainerNewI5QListIPN10QtMobility23QVersitOrganizerHandlerEEE17QForeachContainerIT_ERKS6_ 0x000144fc   Data           0  QtVersitOrganizer.in(.ARM.extab)
    .extab._ZN5QListIN10QtMobility15QVersitPropertyEE9node_copyEPNS2_4NodeES4_S4_ 0x0001450c   Data           0  QtVersitOrganizer.in(.ARM.extab)
    .extab._Z20qForeachContainerNewI5QListIN10QtMobility15QVersitPropertyEEE17QForeachContainerIT_ERKS5_ 0x00014530   Data           0  QtVersitOrganizer.in(.ARM.extab)
    .extab._ZN5QListIN2Qt9DayOfWeekEE13detach_helperEi 0x00014540   Data           0  QtVersitOrganizer.in(.ARM.extab)
    .extab._ZN5QListIN10QtMobility24QOrganizerRecurrenceRule5MonthEE13detach_helperEi 0x0001455c   Data           0  QtVersitOrganizer.in(.ARM.extab)
    .extab._ZN5QListIiE13detach_helperEi     0x00014578   Data           0  QtVersitOrganizer.in(.ARM.extab)
    .extab._ZN5QListI5QDateE13detach_helperEi 0x00014594   Data           0  QtVersitOrganizer.in(.ARM.extab)
    .extab._ZN5QListI5QDateE18detach_helper_growEii 0x000145b0   Data           0  QtVersitOrganizer.in(.ARM.extab)
    .extab._ZN5QPairI7QStringS0_EC1ERKS1_    0x000145e0   Data           0  QtVersitOrganizer.in(.ARM.extab)
    .extab._ZN5QListIN10QtMobility15QVersitPropertyEE14node_constructEPNS2_4NodeERKS1_ 0x000145f0   Data           0  QtVersitOrganizer.in(.ARM.extab)
    .extab._ZN5QListIN10QtMobility15QVersitPropertyEE18detach_helper_growEii 0x00014600   Data           0  QtVersitOrganizer.in(.ARM.extab)
    .extab._ZN5QListIN2Qt9DayOfWeekEE18detach_helper_growEii 0x00014630   Data           0  QtVersitOrganizer.in(.ARM.extab)
    .extab._ZN5QListIiE18detach_helper_growEii 0x00014660   Data           0  QtVersitOrganizer.in(.ARM.extab)
    .extab._ZNK4QSetIiE6toListEv             0x00014690   Data           0  QtVersitOrganizer.in(.ARM.extab)
    .extab._ZN5QListIN10QtMobility24QOrganizerRecurrenceRule5MonthEE18detach_helper_growEii 0x000146bc   Data           0  QtVersitOrganizer.in(.ARM.extab)
    .extab._ZNK10QtMobility20QOrganizerItemDetail5valueIiEET_PKc 0x000146ec   Data           0  QtVersitOrganizer.in(.ARM.extab)
    .extab._ZNK10QtMobility20QOrganizerItemDetail5valueI9QDateTimeEET_PKc 0x000146fc   Data           0  QtVersitOrganizer.in(.ARM.extab)
    .extab._ZNK10QtMobility20QOrganizerItemDetail5valueIbLi7EEET_RKNS_15QLatin1ConstantIXT0_EEE 0x00014714   Data           0  QtVersitOrganizer.in(.ARM.extab)
    .extab._ZN4QMapI7QString5QPairIS0_S0_EE11node_createEP8QMapDataPPNS4_4NodeERKS0_RKS2_ 0x00014724   Data           0  QtVersitOrganizer.in(.ARM.extab)
    .extab._ZN5QListIN10QtMobility20QOrganizerItemDetailEE13detach_helperEi 0x00014770   Data           0  QtVersitOrganizer.in(.ARM.extab)
    .extab._ZN5QListIN10QtMobility15QVersitPropertyEE13detach_helperEv 0x000147b4   Data           0  QtVersitOrganizer.in(.ARM.extab)
    .extab._ZN17QForeachContainerI4QSetIN10QtMobility24QOrganizerRecurrenceRuleEEEC1ERKS3_ 0x000147d0   Data           0  QtVersitOrganizer.in(.ARM.extab)
    .extab._ZNK4QSetI5QDateE6toListEv        0x000147e0   Data           0  QtVersitOrganizer.in(.ARM.extab)
    .extab._ZN5QPairI7QStringS0_ED1Ev        0x000147f0   Data           0  QtVersitOrganizer.in(.ARM.extab)
    .extab._ZN5QListIN10QtMobility15QVersitPropertyEE6appendERKS1_ 0x00014800   Data           0  QtVersitOrganizer.in(.ARM.extab)
    .extab._ZNK4QSetIN2Qt9DayOfWeekEE6toListEv 0x00014830   Data           0  QtVersitOrganizer.in(.ARM.extab)
    .extab._ZNK4QSetIN10QtMobility24QOrganizerRecurrenceRule5MonthEE6toListEv 0x00014840   Data           0  QtVersitOrganizer.in(.ARM.extab)
    .extab._ZN4QMapI7QString5QPairIS0_S0_EEixERKS0_ 0x00014850   Data           0  QtVersitOrganizer.in(.ARM.extab)
    .extab._ZN5QListIPN10QtMobility23QVersitOrganizerHandlerEE13detach_helperEi 0x00014880   Data           0  QtVersitOrganizer.in(.ARM.extab)
    .extab._ZN5QListI5QDateE6appendERKS0_    0x0001489c   Data           0  QtVersitOrganizer.in(.ARM.extab)
    .extab._ZN5QHashI7QString15QHashDummyValueE6insertERKS0_RKS1_ 0x000148b8   Data           0  QtVersitOrganizer.in(.ARM.extab)
    .extab._ZN5QListIN2Qt9DayOfWeekEE6appendERKS1_ 0x000148c8   Data           0  QtVersitOrganizer.in(.ARM.extab)
    .extab._ZN5QListIN10QtMobility24QOrganizerRecurrenceRule5MonthEE6appendERKS2_ 0x000148f8   Data           0  QtVersitOrganizer.in(.ARM.extab)
    .extab._ZN4QMapI7QString5QPairIS0_S0_EE13detach_helperEv 0x00014928   Data           0  QtVersitOrganizer.in(.ARM.extab)
    .extab._ZN5QHashI7QString15QHashDummyValueE13duplicateNodeEPN9QHashData4NodeEPv 0x00014944   Data           0  QtVersitOrganizer.in(.ARM.extab)
    .extab._ZN10QtMobility24QVersitOrganizerImporterC1Ev 0x00014954   Data           0  QtVersitOrganizer.in(.ARM.extab)
    .extab._ZN10QtMobility24QVersitOrganizerImporterC1ERK7QString 0x00014974   Data           0  QtVersitOrganizer.in(.ARM.extab)
    .extab._ZN10QtMobility24QVersitOrganizerImporter14importDocumentERKNS_15QVersitDocumentE 0x00014984   Data           0  QtVersitOrganizer.in(.ARM.extab)
    .extab._ZN5QListIN10QtMobility15QVersitDocumentEE13detach_helperEi 0x000149cc   Data           0  QtVersitOrganizer.in(.ARM.extab)
    .extab._ZN4QMapIiN10QtMobility24QVersitOrganizerImporter5ErrorEE13detach_helperEv 0x00014a10   Data           0  QtVersitOrganizer.in(.ARM.extab)
    .extab._ZN5QListIN10QtMobility14QOrganizerItemEE9node_copyEPNS2_4NodeES4_S4_ 0x00014a2c   Data           0  QtVersitOrganizer.in(.ARM.extab)
    .extab._ZN5QListIN10QtMobility14QOrganizerItemEE18detach_helper_growEii 0x00014a50   Data           0  QtVersitOrganizer.in(.ARM.extab)
    .extab._ZN5QListIN10QtMobility14QOrganizerItemEE13detach_helperEv 0x00014a80   Data           0  QtVersitOrganizer.in(.ARM.extab)
    .extab._ZN5QListIN10QtMobility14QOrganizerItemEE6appendERKS1_ 0x00014a9c   Data           0  QtVersitOrganizer.in(.ARM.extab)
    .extab._ZN4QMapIiN10QtMobility24QVersitOrganizerImporter5ErrorEE5clearEv 0x00014acc   Data           0  QtVersitOrganizer.in(.ARM.extab)
    .extab._ZN5QListIN10QtMobility14QOrganizerItemEE5clearEv 0x00014adc   Data           0  QtVersitOrganizer.in(.ARM.extab)
    .extab._ZN5QListIN10QtMobility14QOrganizerItemEE14node_constructEPNS2_4NodeERKS1_ 0x00014aec   Data           0  QtVersitOrganizer.in(.ARM.extab)
    .extab._ZN10QtMobility8Duration9nextTokenEP7QString 0x00014afc   Data           0  QtVersitOrganizer.in(.ARM.extab)
    .extab._ZN10QtMobility8Duration20parseDurationSecondsEP7QStringPS0_ 0x00014b3c   Data           0  QtVersitOrganizer.in(.ARM.extab)
    .extab._ZN10QtMobility8Duration20parseDurationMinutesEP7QStringPS0_ 0x00014b5c   Data           0  QtVersitOrganizer.in(.ARM.extab)
    .extab._ZN10QtMobility8Duration17parseDurationTimeEP7QStringPS0_ 0x00014b7c   Data           0  QtVersitOrganizer.in(.ARM.extab)
    .extab._ZN10QtMobility8Duration13parseDurationE7QString 0x00014b9c   Data           0  QtVersitOrganizer.in(.ARM.extab)
    .extab._ZN10QtMobility31QVersitOrganizerImporterPrivateC1ERK7QString 0x00014c2c   Data           0  QtVersitOrganizer.in(.ARM.extab)
    .extab._ZN10QtMobility31QVersitOrganizerImporterPrivateD1Ev 0x00014cb4   Data           0  QtVersitOrganizer.in(.ARM.extab)
    .extab._ZNK10QtMobility31QVersitOrganizerImporterPrivate13parseDateTimeE7QString 0x00014cf4   Data           0  QtVersitOrganizer.in(.ARM.extab)
    .extab._ZNK10QtMobility31QVersitOrganizerImporterPrivate13parseDateTimeERKNS_15QVersitPropertyEPb 0x00014d1c   Data           0  QtVersitOrganizer.in(.ARM.extab)
    .extab._ZN10QtMobility31QVersitOrganizerImporterPrivate26createJournalEntryDateTimeERKNS_15QVersitPropertyEPNS_14QOrganizerItemEP5QListINS_20QOrganizerItemDetailEE 0x00014dfc   Data           0  QtVersitOrganizer.in(.ARM.extab)
    .extab._ZNK10QtMobility31QVersitOrganizerImporterPrivate9parseDateE7QString 0x00014e4c   Data           0  QtVersitOrganizer.in(.ARM.extab)
    .extab._ZN10QtMobility31QVersitOrganizerImporterPrivate18createRecurrenceIdERKNS_15QVersitPropertyEPNS_14QOrganizerItemEP5QListINS_20QOrganizerItemDetailEE 0x00014e64   Data           0  QtVersitOrganizer.in(.ARM.extab)
    .extab._ZN10QtMobility31QVersitOrganizerImporterPrivate22createFinishedDateTimeERKNS_15QVersitPropertyEPNS_14QOrganizerItemEP5QListINS_20QOrganizerItemDetailEE 0x00014ea4   Data           0  QtVersitOrganizer.in(.ARM.extab)
    .extab._ZN10QtMobility31QVersitOrganizerImporterPrivate24createPercentageCompleteERKNS_15QVersitPropertyEPNS_14QOrganizerItemEP5QListINS_20QOrganizerItemDetailEE 0x00014eec   Data           0  QtVersitOrganizer.in(.ARM.extab)
    .extab._ZN10QtMobility31QVersitOrganizerImporterPrivate12createStatusERKNS_15QVersitPropertyEPNS_14QOrganizerItemEP5QListINS_20QOrganizerItemDetailEE 0x00014f14   Data           0  QtVersitOrganizer.in(.ARM.extab)
    .extab._ZNK10QtMobility31QVersitOrganizerImporterPrivate10parseDatesERK7QStringP4QSetI5QDateE 0x00014f4c   Data           0  QtVersitOrganizer.in(.ARM.extab)
    .extab._ZN10QtMobility31QVersitOrganizerImporterPrivate21createRecurrenceDatesERKNS_15QVersitPropertyEPNS_14QOrganizerItemEP5QListINS_20QOrganizerItemDetailEE 0x00014fa4   Data           0  QtVersitOrganizer.in(.ARM.extab)
    .extab._ZNK10QtMobility31QVersitOrganizerImporterPrivate9parseIntsERK7QStringii 0x00015054   Data           0  QtVersitOrganizer.in(.ARM.extab)
    .extab._ZNK10QtMobility31QVersitOrganizerImporterPrivate18parseRecurFragmentERK7QStringS3_PNS_24QOrganizerRecurrenceRuleE 0x00015084   Data           0  QtVersitOrganizer.in(.ARM.extab)
    .extab._ZNK10QtMobility31QVersitOrganizerImporterPrivate14parseRecurRuleERK7QStringPNS_24QOrganizerRecurrenceRuleE 0x00015164   Data           0  QtVersitOrganizer.in(.ARM.extab)
    .extab._ZN10QtMobility31QVersitOrganizerImporterPrivate20createRecurrenceRuleERKNS_15QVersitPropertyEPNS_14QOrganizerItemEP5QListINS_20QOrganizerItemDetailEE 0x0001520c   Data           0  QtVersitOrganizer.in(.ARM.extab)
    .extab._ZN10QtMobility31QVersitOrganizerImporterPrivate17createDueDateTimeERKNS_15QVersitPropertyEPNS_14QOrganizerItemEP5QListINS_20QOrganizerItemDetailEE 0x0001529c   Data           0  QtVersitOrganizer.in(.ARM.extab)
    .extab._ZN10QtMobility31QVersitOrganizerImporterPrivate23createTodoStartDateTimeERKNS_15QVersitPropertyEPNS_14QOrganizerItemEP5QListINS_20QOrganizerItemDetailEE 0x000152e4   Data           0  QtVersitOrganizer.in(.ARM.extab)
    .extab._ZN10QtMobility31QVersitOrganizerImporterPrivate14createDurationERKNS_15QVersitPropertyEPNS_14QOrganizerItemEP5QListINS_20QOrganizerItemDetailEE 0x0001532c   Data           0  QtVersitOrganizer.in(.ARM.extab)
    .extab._ZN10QtMobility31QVersitOrganizerImporterPrivate17createEndDateTimeERKNS_15QVersitPropertyEPNS_14QOrganizerItemEP5QListINS_20QOrganizerItemDetailEE 0x00015394   Data           0  QtVersitOrganizer.in(.ARM.extab)
    .extab._ZN10QtMobility31QVersitOrganizerImporterPrivate19createStartDateTimeERKNS_15QVersitPropertyEPNS_14QOrganizerItemEP5QListINS_20QOrganizerItemDetailEE 0x000153e4   Data           0  QtVersitOrganizer.in(.ARM.extab)
    .extab._ZN10QtMobility31QVersitOrganizerImporterPrivate18createSimpleDetailERKNS_15QVersitPropertyEPNS_14QOrganizerItemEP5QListINS_20QOrganizerItemDetailEE 0x0001548c   Data           0  QtVersitOrganizer.in(.ARM.extab)
    .extab._ZN10QtMobility31QVersitOrganizerImporterPrivate13createCommentERKNS_15QVersitPropertyEP5QListINS_20QOrganizerItemDetailEE 0x0001551c   Data           0  QtVersitOrganizer.in(.ARM.extab)
    .extab._ZN10QtMobility31QVersitOrganizerImporterPrivate14createPriorityERKNS_15QVersitPropertyEPNS_14QOrganizerItemEP5QListINS_20QOrganizerItemDetailEE 0x0001554c   Data           0  QtVersitOrganizer.in(.ARM.extab)
    .extab._ZN10QtMobility31QVersitOrganizerImporterPrivate23createTimestampModifiedERKNS_15QVersitPropertyEPNS_14QOrganizerItemEP5QListINS_20QOrganizerItemDetailEE 0x0001557c   Data           0  QtVersitOrganizer.in(.ARM.extab)
    .extab._ZN10QtMobility31QVersitOrganizerImporterPrivate22createTimestampCreatedERKNS_15QVersitPropertyEPNS_14QOrganizerItemEP5QListINS_20QOrganizerItemDetailEE 0x000155c4   Data           0  QtVersitOrganizer.in(.ARM.extab)
    .extab._ZN10QtMobility31QVersitOrganizerImporterPrivate14importPropertyERKNS_15QVersitDocumentERKNS_15QVersitPropertyEPNS_14QOrganizerItemE 0x0001560c   Data           0  QtVersitOrganizer.in(.ARM.extab)
    .extab._ZNK10QtMobility31QVersitOrganizerImporterPrivate19importTimeZonePhaseERKNS_15QVersitDocumentE 0x00015804   Data           0  QtVersitOrganizer.in(.ARM.extab)
    .extab._ZNK10QtMobility31QVersitOrganizerImporterPrivate14importTimeZoneERKNS_15QVersitDocumentE 0x00015944   Data           0  QtVersitOrganizer.in(.ARM.extab)
    .extab._ZN10QtMobility31QVersitOrganizerImporterPrivate14importDocumentERKNS_15QVersitDocumentES3_PNS_14QOrganizerItemEPNS_24QVersitOrganizerImporter5ErrorE 0x000159e4   Data           0  QtVersitOrganizer.in(.ARM.extab)
    .extab._ZN5QListIN10QtMobility15QVersitPropertyEE13detach_helperEi 0x00015a64   Data           0  QtVersitOrganizer.in(.ARM.extab)
    .extab._ZN5QListIN10QtMobility20QOrganizerItemDetailEE9node_copyEPNS2_4NodeES4_S4_ 0x00015aa8   Data           0  QtVersitOrganizer.in(.ARM.extab)
    .extab._Z20qForeachContainerNewI11QStringListE17QForeachContainerIT_ERKS2_ 0x00015acc   Data           0  QtVersitOrganizer.in(.ARM.extab)
    .extab._ZN5QListIN10QtMobility20QOrganizerItemDetailEE18detach_helper_growEii 0x00015adc   Data           0  QtVersitOrganizer.in(.ARM.extab)
    .extab._ZN5QListIN10QtMobility20QOrganizerItemDetailEE6appendERKS1_ 0x00015b0c   Data           0  QtVersitOrganizer.in(.ARM.extab)
    .extab._ZN13TimeZonePhaseC1ERKS_         0x00015b3c   Data           0  QtVersitOrganizer.in(.ARM.extab)
    .extab._ZN13TimeZonePhaseD1Ev            0x00015b54   Data           0  QtVersitOrganizer.in(.ARM.extab)
    .extab._ZN5QListI13TimeZonePhaseE14node_constructEPNS1_4NodeERKS0_ 0x00015b6c   Data           0  QtVersitOrganizer.in(.ARM.extab)
    .extab._ZN5QListI13TimeZonePhaseE9node_copyEPNS1_4NodeES3_S3_ 0x00015b7c   Data           0  QtVersitOrganizer.in(.ARM.extab)
    .extab._ZN5QListI13TimeZonePhaseE18detach_helper_growEii 0x00015ba0   Data           0  QtVersitOrganizer.in(.ARM.extab)
    .extab._ZN5QListI13TimeZonePhaseE13detach_helperEv 0x00015bd0   Data           0  QtVersitOrganizer.in(.ARM.extab)
    .extab._ZN9QHashNodeI7QString8TimeZoneEC1ERKS0_RKS1_ 0x00015bec   Data           0  QtVersitOrganizer.in(.ARM.extab)
    .extab._ZN5QHashI7QString8TimeZoneE6insertERKS0_RKS1_ 0x00015c04   Data           0  QtVersitOrganizer.in(.ARM.extab)
    .extab._ZNK10QtMobility14QOrganizerItem6detailINS_23QOrganizerItemTimestampEEET_v 0x00015c14   Data           0  QtVersitOrganizer.in(.ARM.extab)
    .extab._ZNK10QtMobility14QOrganizerItem6detailINS_19QOrganizerEventTimeEEET_v 0x00015c24   Data           0  QtVersitOrganizer.in(.ARM.extab)
    .extab._ZNK10QtMobility14QOrganizerItem6detailINS_18QOrganizerTodoTimeEEET_v 0x00015c34   Data           0  QtVersitOrganizer.in(.ARM.extab)
    .extab._ZNK10QtMobility14QOrganizerItem6detailINS_24QOrganizerItemRecurrenceEEET_v 0x00015c44   Data           0  QtVersitOrganizer.in(.ARM.extab)
    .extab._ZNK10QtMobility14QOrganizerItem6detailINS_22QOrganizerTodoProgressEEET_v 0x00015c54   Data           0  QtVersitOrganizer.in(.ARM.extab)
    .extab._ZN10QtMobility18QOrganizerTodoTime9setAllDayEb 0x00015c64   Data           0  QtVersitOrganizer.in(.ARM.extab)
    .extab._ZN10QtMobility19QOrganizerEventTime14setEndDateTimeERK9QDateTime 0x00015c74   Data           0  QtVersitOrganizer.in(.ARM.extab)
    .extab._ZN10QtMobility19QOrganizerEventTime9setAllDayEb 0x00015c84   Data           0  QtVersitOrganizer.in(.ARM.extab)
    .extab._ZN5QListIN10QtMobility20QOrganizerItemDetailEE13detach_helperEv 0x00015c94   Data           0  QtVersitOrganizer.in(.ARM.extab)
    .extab._ZN5QListIN10QtMobility20QOrganizerItemDetailEE14node_constructEPNS2_4NodeERKS1_ 0x00015cb0   Data           0  QtVersitOrganizer.in(.ARM.extab)
    .extab._ZN4QSetI5QDateEplERKS1_          0x00015cc0   Data           0  QtVersitOrganizer.in(.ARM.extab)
    .extab._ZN5QListI13TimeZonePhaseE6appendERKS0_ 0x00015cd0   Data           0  QtVersitOrganizer.in(.ARM.extab)
    .extab._ZN8TimeZoneD1Ev                  0x00015d00   Data           0  QtVersitOrganizer.in(.ARM.extab)
    .extab._ZN5QHashI7QString8TimeZoneE11deleteNode2EPN9QHashData4NodeE 0x00015d10   Data           0  QtVersitOrganizer.in(.ARM.extab)
    .extab._ZN5QHashI7QString8TimeZoneE13duplicateNodeEPN9QHashData4NodeEPv 0x00015d20   Data           0  QtVersitOrganizer.in(.ARM.extab)
    .extab._ZN5QListI7QStringE13detach_helperEi 0x00015d30   Data           0  QtVersitOrganizer.in(.ARM.extab)
    .extab._ZN5QHashIN10QtMobility24QOrganizerRecurrenceRuleE15QHashDummyValueE6insertERKS1_RKS2_ 0x00015d74   Data           0  QtVersitOrganizer.in(.ARM.extab)
    .extab._ZN4QSetI5QDateE5uniteERKS1_      0x00015d84   Data           0  QtVersitOrganizer.in(.ARM.extab)
    .extab._ZN5QHashIN10QtMobility24QOrganizerRecurrenceRuleE15QHashDummyValueE13duplicateNodeEPN9QHashData4NodeEPv 0x00015d94   Data           0  QtVersitOrganizer.in(.ARM.extab)
    .extab._ZN5QHashI7QStringS0_E11deleteNode2EPN9QHashData4NodeE 0x00015da4   Data           0  QtVersitOrganizer.in(.ARM.extab)
    .extab._ZN10QtMobility28QVersitOrganizerPluginLoaderC1Ev 0x00015db4   Data           0  QtVersitOrganizer.in(.ARM.extab)
    .extab._ZN10QtMobility28QVersitOrganizerPluginLoader8instanceEv 0x00015dcc   Data           0  QtVersitOrganizer.in(.ARM.extab)
    .extab._ZN10QtMobility17qSymbian_CheckDirERK4QDirR3RFs 0x00015ddc   Data           0  QtVersitOrganizer.in(.ARM.extab)
    .extab._ZN10QtMobility28QVersitOrganizerPluginLoader11loadPluginsEv 0x00015df4   Data           0  QtVersitOrganizer.in(.ARM.extab)
    .extab._ZN10QtMobility28QVersitOrganizerPluginLoader23createOrganizerHandlersERK7QString 0x00015e70   Data           0  QtVersitOrganizer.in(.ARM.extab)
    .extab._ZN5QListI7QStringE9node_copyEPNS1_4NodeES3_S3_ 0x00015ed4   Data           0  QtVersitOrganizer.in(.ARM.extab)
    .extab._ZN5QListIPN10QtMobility30QVersitOrganizerHandlerFactoryEE13detach_helperEv 0x00015ef8   Data           0  QtVersitOrganizer.in(.ARM.extab)
    .extab._ZN5QListI7QStringE18detach_helper_growEii 0x00015f14   Data           0  QtVersitOrganizer.in(.ARM.extab)
    .extab._ZN5QListIPN10QtMobility23QVersitOrganizerHandlerEE18detach_helper_growEii 0x00015f44   Data           0  QtVersitOrganizer.in(.ARM.extab)
    .extab._ZN5QListIPN10QtMobility30QVersitOrganizerHandlerFactoryEE18detach_helper_growEii 0x00015f74   Data           0  QtVersitOrganizer.in(.ARM.extab)
    .extab._ZN10QtMobility15mobilityPluginsERK7QString 0x00015fa4   Data           0  QtVersitOrganizer.in(.ARM.extab)
    .extab._ZN5QListI7QStringE6appendERKS0_  0x000160ac   Data           0  QtVersitOrganizer.in(.ARM.extab)
    .extab._ZN5QListI7QStringE14node_constructEPNS1_4NodeERKS0_ 0x000160dc   Data           0  QtVersitOrganizer.in(.ARM.extab)
    .extab._ZN8TimeZone10getManagerEv        0x000160ec   Data           0  QtVersitOrganizer.in(.ARM.extab)
    .extab._ZNK8TimeZone7convertERK9QDateTime 0x0001611c   Data           0  QtVersitOrganizer.in(.ARM.extab)
    .extab._ZNK9TimeZones7convertERK9QDateTimeRK7QString 0x00016204   Data           0  QtVersitOrganizer.in(.ARM.extab)
    .extab._ZN5QListI13TimeZonePhaseE13detach_helperEi 0x00016214   Data           0  QtVersitOrganizer.in(.ARM.extab)
    .extab._Z20qForeachContainerNewI5QListI13TimeZonePhaseEE17QForeachContainerIT_ERKS4_ 0x00016258   Data           0  QtVersitOrganizer.in(.ARM.extab)
    .extab._ZNK8TimeZone7isValidEv           0x00016268   Data           0  QtVersitOrganizer.in(.ARM.extab)
    .extab._ZNK5QHashI7QString8TimeZoneE5valueERKS0_ 0x00016280   Data           0  QtVersitOrganizer.in(.ARM.extab)
    .constdata$25                            0x00016298   Data           0  QtVersitOrganizer.in(.constdata)
    .constdata                               0x00016298   Section        5  QtVersitOrganizer.in(.constdata)
    .constdata$31                            0x0001629d   Data           0  QtVersitOrganizer.in(.constdata)
    .constdata                               0x0001629d   Section        7  QtVersitOrganizer.in(.constdata)
    .conststring$3                           0x000162a4   Data           0  QtVersitOrganizer.in(.conststring)
    .conststring                             0x000162a4   Section       24  QtVersitOrganizer.in(.conststring)
    .init_array                              0x000162bc   Section        4  QtVersitOrganizer.in(.init_array)
    .init_array                              0x000162c0   Section        4  QtVersitOrganizer.in(.init_array)
    .ARM.exidx                               0x000162c4   Section        8  ucppinit_aeabi.o(.ARM.exidx)
    .data$0                                  0x00400000   Data           0  QtVersitOrganizer.in(.data)
    QtMobility::versitOrganizerDetailMappings 0x00400000   Data          36  QtVersitOrganizer.in(.data)
    .data                                    0x00400000   Section       36  QtVersitOrganizer.in(.data)
    .data$0                                  0x00400024   Data           0  QtVersitOrganizer.in(.data)
    QtMobility::versitOrganizerDetailMappings 0x00400024   Data          36  QtVersitOrganizer.in(.data)
    .data                                    0x00400024   Section       36  QtVersitOrganizer.in(.data)
    .data$0                                  0x00400048   Data           0  QtVersitOrganizer.in(.data)
    .data                                    0x00400048   Section        4  QtVersitOrganizer.in(.data)
    .data$0                                  0x0040004c   Data           0  QtVersitOrganizer.in(.data)
    _ZGVmanager@_ZN8TimeZone10getManagerEv_0 0x0040004c   Data           4  QtVersitOrganizer.in(.data)
    .data                                    0x0040004c   Section        8  QtVersitOrganizer.in(.data)
    manager@_ZN8TimeZone10getManagerEv_1     0x00400050   Data           4  QtVersitOrganizer.in(.data)

    Global Symbols

    Symbol Name                              Value     Ov Type        Size  Object(Section)

    BuildAttributes$$THUMB_ISAv2$ARM_ISAv5$M$PE$A:L22$X:L11$S22$IEEE1$IW$USESV6$~STKCKD$USESV7$~SHL$OSPACE$IEEEJ$EBA8$UX$REQ8$PRES8$EABIv2 0x00000000   Number         0  anon$$obj.o ABSOLUTE
    #<DLL>QtCore{00040703}[2001b2dc].dll#<\DLL>1f3  - Undefined Reference
    #<DLL>QtCore{00040703}[2001b2dc].dll#<\DLL>1f5  - Undefined Reference
    #<DLL>QtCore{00040703}[2001b2dc].dll#<\DLL>1f9  - Undefined Reference
    #<DLL>QtCore{00040703}[2001b2dc].dll#<\DLL>2e  - Undefined Reference
    #<DLL>QtCore{00040703}[2001b2dc].dll#<\DLL>2f1  - Undefined Reference
    #<DLL>QtCore{00040703}[2001b2dc].dll#<\DLL>304  - Undefined Reference
    #<DLL>QtCore{00040703}[2001b2dc].dll#<\DLL>46  - Undefined Reference
    #<DLL>QtCore{00040703}[2001b2dc].dll#<\DLL>49  - Undefined Reference
    #<DLL>QtCore{00040703}[2001b2dc].dll#<\DLL>5ad  - Undefined Reference
    #<DLL>QtCore{00040703}[2001b2dc].dll#<\DLL>5b1  - Undefined Reference
    #<DLL>QtCore{00040703}[2001b2dc].dll#<\DLL>5bf  - Undefined Reference
    #<DLL>QtCore{00040703}[2001b2dc].dll#<\DLL>5c5  - Undefined Reference
    #<DLL>QtCore{00040703}[2001b2dc].dll#<\DLL>61d  - Undefined Reference
    #<DLL>QtCore{00040703}[2001b2dc].dll#<\DLL>62e  - Undefined Reference
    #<DLL>QtCore{00040703}[2001b2dc].dll#<\DLL>66b  - Undefined Reference
    #<DLL>QtCore{00040703}[2001b2dc].dll#<\DLL>716  - Undefined Reference
    #<DLL>QtCore{00040703}[2001b2dc].dll#<\DLL>721  - Undefined Reference
    #<DLL>QtCore{00040703}[2001b2dc].dll#<\DLL>722  - Undefined Reference
    #<DLL>QtCore{00040703}[2001b2dc].dll#<\DLL>724  - Undefined Reference
    #<DLL>QtCore{00040703}[2001b2dc].dll#<\DLL>726  - Undefined Reference
    #<DLL>QtCore{00040703}[2001b2dc].dll#<\DLL>727  - Undefined Reference
    #<DLL>QtCore{00040703}[2001b2dc].dll#<\DLL>72b  - Undefined Reference
    #<DLL>QtCore{00040703}[2001b2dc].dll#<\DLL>72c  - Undefined Reference
    #<DLL>QtCore{00040703}[2001b2dc].dll#<\DLL>732  - Undefined Reference
    #<DLL>QtCore{00040703}[2001b2dc].dll#<\DLL>73f  - Undefined Reference
    #<DLL>QtCore{00040703}[2001b2dc].dll#<\DLL>752  - Undefined Reference
    #<DLL>QtCore{00040703}[2001b2dc].dll#<\DLL>75d  - Undefined Reference
    #<DLL>QtCore{00040703}[2001b2dc].dll#<\DLL>79b  - Undefined Reference
    #<DLL>QtCore{00040703}[2001b2dc].dll#<\DLL>79d  - Undefined Reference
    #<DLL>QtCore{00040703}[2001b2dc].dll#<\DLL>7e0  - Undefined Reference
    #<DLL>QtCore{00040703}[2001b2dc].dll#<\DLL>7e4  - Undefined Reference
    #<DLL>QtCore{00040703}[2001b2dc].dll#<\DLL>7f2  - Undefined Reference
    #<DLL>QtCore{00040703}[2001b2dc].dll#<\DLL>7f4  - Undefined Reference
    #<DLL>QtCore{00040703}[2001b2dc].dll#<\DLL>7f6  - Undefined Reference
    #<DLL>QtCore{00040703}[2001b2dc].dll#<\DLL>7f8  - Undefined Reference
    #<DLL>QtCore{00040703}[2001b2dc].dll#<\DLL>822  - Undefined Reference
    #<DLL>QtCore{00040703}[2001b2dc].dll#<\DLL>82d  - Undefined Reference
    #<DLL>QtCore{00040703}[2001b2dc].dll#<\DLL>82f  - Undefined Reference
    #<DLL>QtCore{00040703}[2001b2dc].dll#<\DLL>833  - Undefined Reference
    #<DLL>QtCore{00040703}[2001b2dc].dll#<\DLL>834  - Undefined Reference
    #<DLL>QtCore{00040703}[2001b2dc].dll#<\DLL>836  - Undefined Reference
    #<DLL>QtCore{00040703}[2001b2dc].dll#<\DLL>838  - Undefined Reference
    #<DLL>QtCore{00040703}[2001b2dc].dll#<\DLL>839  - Undefined Reference
    #<DLL>QtCore{00040703}[2001b2dc].dll#<\DLL>83e  - Undefined Reference
    #<DLL>QtCore{00040703}[2001b2dc].dll#<\DLL>840  - Undefined Reference
    #<DLL>QtCore{00040703}[2001b2dc].dll#<\DLL>856  - Undefined Reference
    #<DLL>QtCore{00040703}[2001b2dc].dll#<\DLL>859  - Undefined Reference
    #<DLL>QtCore{00040703}[2001b2dc].dll#<\DLL>85d  - Undefined Reference
    #<DLL>QtCore{00040703}[2001b2dc].dll#<\DLL>85f  - Undefined Reference
    #<DLL>QtCore{00040703}[2001b2dc].dll#<\DLL>88a  - Undefined Reference
    #<DLL>QtCore{00040703}[2001b2dc].dll#<\DLL>88c  - Undefined Reference
    #<DLL>QtCore{00040703}[2001b2dc].dll#<\DLL>895  - Undefined Reference
    #<DLL>QtCore{00040703}[2001b2dc].dll#<\DLL>ae7  - Undefined Reference
    #<DLL>QtCore{00040703}[2001b2dc].dll#<\DLL>aeb  - Undefined Reference
    #<DLL>QtCore{00040703}[2001b2dc].dll#<\DLL>aed  - Undefined Reference
    #<DLL>QtCore{00040703}[2001b2dc].dll#<\DLL>afa  - Undefined Reference
    #<DLL>QtCore{00040703}[2001b2dc].dll#<\DLL>afb  - Undefined Reference
    #<DLL>QtCore{00040703}[2001b2dc].dll#<\DLL>b33  - Undefined Reference
    #<DLL>QtCore{00040703}[2001b2dc].dll#<\DLL>b3b  - Undefined Reference
    #<DLL>QtCore{00040703}[2001b2dc].dll#<\DLL>b47  - Undefined Reference
    #<DLL>QtCore{00040703}[2001b2dc].dll#<\DLL>b48  - Undefined Reference
    #<DLL>QtCore{00040703}[2001b2dc].dll#<\DLL>b4b  - Undefined Reference
    #<DLL>QtCore{00040703}[2001b2dc].dll#<\DLL>bee  - Undefined Reference
    #<DLL>QtCore{00040703}[2001b2dc].dll#<\DLL>bef  - Undefined Reference
    #<DLL>QtCore{00040703}[2001b2dc].dll#<\DLL>bf3  - Undefined Reference
    #<DLL>QtCore{00040703}[2001b2dc].dll#<\DLL>bf4  - Undefined Reference
    #<DLL>QtCore{00040703}[2001b2dc].dll#<\DLL>bf7  - Undefined Reference
    #<DLL>QtCore{00040703}[2001b2dc].dll#<\DLL>bf8  - Undefined Reference
    #<DLL>QtCore{00040703}[2001b2dc].dll#<\DLL>c01  - Undefined Reference
    #<DLL>QtCore{00040703}[2001b2dc].dll#<\DLL>c10  - Undefined Reference
    #<DLL>QtCore{00040703}[2001b2dc].dll#<\DLL>c11  - Undefined Reference
    #<DLL>QtCore{00040703}[2001b2dc].dll#<\DLL>c19  - Undefined Reference
    #<DLL>QtCore{00040703}[2001b2dc].dll#<\DLL>c1a  - Undefined Reference
    #<DLL>QtCore{00040703}[2001b2dc].dll#<\DLL>c1d  - Undefined Reference
    #<DLL>QtCore{00040703}[2001b2dc].dll#<\DLL>c49  - Undefined Reference
    #<DLL>QtCore{00040703}[2001b2dc].dll#<\DLL>c5d  - Undefined Reference
    #<DLL>QtCore{00040703}[2001b2dc].dll#<\DLL>c5e  - Undefined Reference
    #<DLL>QtCore{00040703}[2001b2dc].dll#<\DLL>c61  - Undefined Reference
    #<DLL>QtCore{00040703}[2001b2dc].dll#<\DLL>c62  - Undefined Reference
    #<DLL>QtCore{00040703}[2001b2dc].dll#<\DLL>c63  - Undefined Reference
    #<DLL>QtCore{00040703}[2001b2dc].dll#<\DLL>c64  - Undefined Reference
    #<DLL>QtCore{00040703}[2001b2dc].dll#<\DLL>c66  - Undefined Reference
    #<DLL>QtCore{00040703}[2001b2dc].dll#<\DLL>c67  - Undefined Reference
    #<DLL>QtCore{00040703}[2001b2dc].dll#<\DLL>c68  - Undefined Reference
    #<DLL>QtCore{00040703}[2001b2dc].dll#<\DLL>c69  - Undefined Reference
    #<DLL>QtCore{00040703}[2001b2dc].dll#<\DLL>c6c  - Undefined Reference
    #<DLL>QtCore{00040703}[2001b2dc].dll#<\DLL>c6e  - Undefined Reference
    #<DLL>QtCore{00040703}[2001b2dc].dll#<\DLL>c73  - Undefined Reference
    #<DLL>QtCore{00040703}[2001b2dc].dll#<\DLL>e17  - Undefined Reference
    #<DLL>QtCore{00040703}[2001b2dc].dll#<\DLL>e18  - Undefined Reference
    #<DLL>QtCore{00040703}[2001b2dc].dll#<\DLL>e19  - Undefined Reference
    #<DLL>QtCore{00040703}[2001b2dc].dll#<\DLL>e1a  - Undefined Reference
    #<DLL>QtCore{00040703}[2001b2dc].dll#<\DLL>e69  - Undefined Reference
    #<DLL>QtCore{00040703}[2001b2dc].dll#<\DLL>e6b  - Undefined Reference
    #<DLL>QtOrganizer{00010103}[2002bfcd].dll#<\DLL>10  - Undefined Reference
    #<DLL>QtOrganizer{00010103}[2002bfcd].dll#<\DLL>11  - Undefined Reference
    #<DLL>QtOrganizer{00010103}[2002bfcd].dll#<\DLL>12  - Undefined Reference
    #<DLL>QtOrganizer{00010103}[2002bfcd].dll#<\DLL>129  - Undefined Reference
    #<DLL>QtOrganizer{00010103}[2002bfcd].dll#<\DLL>12a  - Undefined Reference
    #<DLL>QtOrganizer{00010103}[2002bfcd].dll#<\DLL>12b  - Undefined Reference
    #<DLL>QtOrganizer{00010103}[2002bfcd].dll#<\DLL>12c  - Undefined Reference
    #<DLL>QtOrganizer{00010103}[2002bfcd].dll#<\DLL>13  - Undefined Reference
    #<DLL>QtOrganizer{00010103}[2002bfcd].dll#<\DLL>132  - Undefined Reference
    #<DLL>QtOrganizer{00010103}[2002bfcd].dll#<\DLL>133  - Undefined Reference
    #<DLL>QtOrganizer{00010103}[2002bfcd].dll#<\DLL>134  - Undefined Reference
    #<DLL>QtOrganizer{00010103}[2002bfcd].dll#<\DLL>135  - Undefined Reference
    #<DLL>QtOrganizer{00010103}[2002bfcd].dll#<\DLL>136  - Undefined Reference
    #<DLL>QtOrganizer{00010103}[2002bfcd].dll#<\DLL>137  - Undefined Reference
    #<DLL>QtOrganizer{00010103}[2002bfcd].dll#<\DLL>138  - Undefined Reference
    #<DLL>QtOrganizer{00010103}[2002bfcd].dll#<\DLL>139  - Undefined Reference
    #<DLL>QtOrganizer{00010103}[2002bfcd].dll#<\DLL>13a  - Undefined Reference
    #<DLL>QtOrganizer{00010103}[2002bfcd].dll#<\DLL>13b  - Undefined Reference
    #<DLL>QtOrganizer{00010103}[2002bfcd].dll#<\DLL>13c  - Undefined Reference
    #<DLL>QtOrganizer{00010103}[2002bfcd].dll#<\DLL>13d  - Undefined Reference
    #<DLL>QtOrganizer{00010103}[2002bfcd].dll#<\DLL>13e  - Undefined Reference
    #<DLL>QtOrganizer{00010103}[2002bfcd].dll#<\DLL>141  - Undefined Reference
    #<DLL>QtOrganizer{00010103}[2002bfcd].dll#<\DLL>143  - Undefined Reference
    #<DLL>QtOrganizer{00010103}[2002bfcd].dll#<\DLL>18  - Undefined Reference
    #<DLL>QtOrganizer{00010103}[2002bfcd].dll#<\DLL>2  - Undefined Reference
    #<DLL>QtOrganizer{00010103}[2002bfcd].dll#<\DLL>23f  - Undefined Reference
    #<DLL>QtOrganizer{00010103}[2002bfcd].dll#<\DLL>260  - Undefined Reference
    #<DLL>QtOrganizer{00010103}[2002bfcd].dll#<\DLL>261  - Undefined Reference
    #<DLL>QtOrganizer{00010103}[2002bfcd].dll#<\DLL>262  - Undefined Reference
    #<DLL>QtOrganizer{00010103}[2002bfcd].dll#<\DLL>265  - Undefined Reference
    #<DLL>QtOrganizer{00010103}[2002bfcd].dll#<\DLL>279  - Undefined Reference
    #<DLL>QtOrganizer{00010103}[2002bfcd].dll#<\DLL>292  - Undefined Reference
    #<DLL>QtOrganizer{00010103}[2002bfcd].dll#<\DLL>2a5  - Undefined Reference
    #<DLL>QtOrganizer{00010103}[2002bfcd].dll#<\DLL>2a8  - Undefined Reference
    #<DLL>QtOrganizer{00010103}[2002bfcd].dll#<\DLL>2ab  - Undefined Reference
    #<DLL>QtOrganizer{00010103}[2002bfcd].dll#<\DLL>2ac  - Undefined Reference
    #<DLL>QtOrganizer{00010103}[2002bfcd].dll#<\DLL>2ad  - Undefined Reference
    #<DLL>QtOrganizer{00010103}[2002bfcd].dll#<\DLL>2ae  - Undefined Reference
    #<DLL>QtOrganizer{00010103}[2002bfcd].dll#<\DLL>2d  - Undefined Reference
    #<DLL>QtOrganizer{00010103}[2002bfcd].dll#<\DLL>2dc  - Undefined Reference
    #<DLL>QtOrganizer{00010103}[2002bfcd].dll#<\DLL>2dd  - Undefined Reference
    #<DLL>QtOrganizer{00010103}[2002bfcd].dll#<\DLL>2de  - Undefined Reference
    #<DLL>QtOrganizer{00010103}[2002bfcd].dll#<\DLL>2df  - Undefined Reference
    #<DLL>QtOrganizer{00010103}[2002bfcd].dll#<\DLL>2e1  - Undefined Reference
    #<DLL>QtOrganizer{00010103}[2002bfcd].dll#<\DLL>2e2  - Undefined Reference
    #<DLL>QtOrganizer{00010103}[2002bfcd].dll#<\DLL>2e3  - Undefined Reference
    #<DLL>QtOrganizer{00010103}[2002bfcd].dll#<\DLL>2e4  - Undefined Reference
    #<DLL>QtOrganizer{00010103}[2002bfcd].dll#<\DLL>2e5  - Undefined Reference
    #<DLL>QtOrganizer{00010103}[2002bfcd].dll#<\DLL>2e6  - Undefined Reference
    #<DLL>QtOrganizer{00010103}[2002bfcd].dll#<\DLL>2e7  - Undefined Reference
    #<DLL>QtOrganizer{00010103}[2002bfcd].dll#<\DLL>2e8  - Undefined Reference
    #<DLL>QtOrganizer{00010103}[2002bfcd].dll#<\DLL>2e9  - Undefined Reference
    #<DLL>QtOrganizer{00010103}[2002bfcd].dll#<\DLL>2ea  - Undefined Reference
    #<DLL>QtOrganizer{00010103}[2002bfcd].dll#<\DLL>2eb  - Undefined Reference
    #<DLL>QtOrganizer{00010103}[2002bfcd].dll#<\DLL>2ec  - Undefined Reference
    #<DLL>QtOrganizer{00010103}[2002bfcd].dll#<\DLL>2ed  - Undefined Reference
    #<DLL>QtOrganizer{00010103}[2002bfcd].dll#<\DLL>301  - Undefined Reference
    #<DLL>QtOrganizer{00010103}[2002bfcd].dll#<\DLL>32  - Undefined Reference
    #<DLL>QtOrganizer{00010103}[2002bfcd].dll#<\DLL>33  - Undefined Reference
    #<DLL>QtOrganizer{00010103}[2002bfcd].dll#<\DLL>5d  - Undefined Reference
    #<DLL>QtOrganizer{00010103}[2002bfcd].dll#<\DLL>8a  - Undefined Reference
    #<DLL>QtOrganizer{00010103}[2002bfcd].dll#<\DLL>8b  - Undefined Reference
    #<DLL>QtOrganizer{00010103}[2002bfcd].dll#<\DLL>8c  - Undefined Reference
    #<DLL>QtOrganizer{00010103}[2002bfcd].dll#<\DLL>8d  - Undefined Reference
    #<DLL>QtOrganizer{00010103}[2002bfcd].dll#<\DLL>8e  - Undefined Reference
    #<DLL>QtOrganizer{00010103}[2002bfcd].dll#<\DLL>8f  - Undefined Reference
    #<DLL>QtOrganizer{00010103}[2002bfcd].dll#<\DLL>98  - Undefined Reference
    #<DLL>QtOrganizer{00010103}[2002bfcd].dll#<\DLL>9a  - Undefined Reference
    #<DLL>QtOrganizer{00010103}[2002bfcd].dll#<\DLL>e  - Undefined Reference
    #<DLL>QtOrganizer{00010103}[2002bfcd].dll#<\DLL>e6  - Undefined Reference
    #<DLL>QtOrganizer{00010103}[2002bfcd].dll#<\DLL>e9  - Undefined Reference
    #<DLL>QtVersit{00010103}[2002bfbf].dll#<\DLL>29  - Undefined Reference
    #<DLL>QtVersit{00010103}[2002bfbf].dll#<\DLL>2a  - Undefined Reference
    #<DLL>QtVersit{00010103}[2002bfbf].dll#<\DLL>2c  - Undefined Reference
    #<DLL>QtVersit{00010103}[2002bfbf].dll#<\DLL>2d  - Undefined Reference
    #<DLL>QtVersit{00010103}[2002bfbf].dll#<\DLL>2f  - Undefined Reference
    #<DLL>QtVersit{00010103}[2002bfbf].dll#<\DLL>30  - Undefined Reference
    #<DLL>QtVersit{00010103}[2002bfbf].dll#<\DLL>34  - Undefined Reference
    #<DLL>QtVersit{00010103}[2002bfbf].dll#<\DLL>37  - Undefined Reference
    #<DLL>QtVersit{00010103}[2002bfbf].dll#<\DLL>39  - Undefined Reference
    #<DLL>QtVersit{00010103}[2002bfbf].dll#<\DLL>3d  - Undefined Reference
    #<DLL>QtVersit{00010103}[2002bfbf].dll#<\DLL>3e  - Undefined Reference
    #<DLL>QtVersit{00010103}[2002bfbf].dll#<\DLL>40  - Undefined Reference
    #<DLL>QtVersit{00010103}[2002bfbf].dll#<\DLL>41  - Undefined Reference
    #<DLL>QtVersit{00010103}[2002bfbf].dll#<\DLL>44  - Undefined Reference
    #<DLL>QtVersit{00010103}[2002bfbf].dll#<\DLL>46  - Undefined Reference
    #<DLL>QtVersit{00010103}[2002bfbf].dll#<\DLL>6b  - Undefined Reference
    #<DLL>QtVersit{00010103}[2002bfbf].dll#<\DLL>6c  - Undefined Reference
    #<DLL>QtVersit{00010103}[2002bfbf].dll#<\DLL>70  - Undefined Reference
    #<DLL>QtVersit{00010103}[2002bfbf].dll#<\DLL>72  - Undefined Reference
    #<DLL>QtVersit{00010103}[2002bfbf].dll#<\DLL>73  - Undefined Reference
    #<DLL>QtVersit{00010103}[2002bfbf].dll#<\DLL>8d  - Undefined Reference
    #<DLL>QtVersit{00010103}[2002bfbf].dll#<\DLL>8e  - Undefined Reference
    #<DLL>QtVersit{00010103}[2002bfbf].dll#<\DLL>9c  - Undefined Reference
    #<DLL>QtVersit{00010103}[2002bfbf].dll#<\DLL>9d  - Undefined Reference
    #<DLL>drtaeabi{000a0000}.dll#<\DLL>93     - Undefined Reference
    #<DLL>drtaeabi{000a0000}.dll#<\DLL>9b     - Undefined Reference
    #<DLL>drtaeabi{000a0000}.dll#<\DLL>9e     - Undefined Reference
    #<DLL>drtaeabi{000a0000}.dll#<\DLL>b4     - Undefined Reference
    #<DLL>drtaeabi{000a0000}.dll#<\DLL>b7     - Undefined Reference
    #<DLL>drtaeabi{000a0000}.dll#<\DLL>b8     - Undefined Reference
    #<DLL>drtaeabi{000a0000}.dll#<\DLL>ba     - Undefined Reference
    #<DLL>drtaeabi{000a0000}.dll#<\DLL>bb     - Undefined Reference
    #<DLL>drtaeabi{000a0000}.dll#<\DLL>bc     - Undefined Reference
    #<DLL>drtaeabi{000a0000}.dll#<\DLL>be     - Undefined Reference
    #<DLL>drtrvct2_2{000a0000}.dll#<\DLL>1c   - Undefined Reference
    #<DLL>efsrv{000a0000}[100039e4].dll#<\DLL>44  - Undefined Reference
    #<DLL>efsrv{000a0000}[100039e4].dll#<\DLL>e7  - Undefined Reference
    #<DLL>euser{000a0000}[100039e5].dll#<\DLL>29e  - Undefined Reference
    #<DLL>euser{000a0000}[100039e5].dll#<\DLL>29f  - Undefined Reference
    #<DLL>euser{000a0000}[100039e5].dll#<\DLL>492  - Undefined Reference
    #<DLL>euser{000a0000}[100039e5].dll#<\DLL>78  - Undefined Reference
    #<DLL>libstdcpp{00010000}[10282872].dll#<\DLL>3dc  - Undefined Reference
    #<DLL>libstdcpp{00010000}[10282872].dll#<\DLL>3e0  - Undefined Reference
    QtMobility::QOrganizerItemGuid::DefinitionName  - Undefined Reference
    QtMobility::QOrganizerItemGuid::FieldGuid  - Undefined Reference
    QtMobility::QOrganizerItemType::TypeJournal  - Undefined Reference
    QtMobility::QOrganizerItemType::TypeTodoOccurrence  - Undefined Reference
    QtMobility::QOrganizerItemType::TypeEventOccurrence  - Undefined Reference
    QtMobility::QOrganizerItemType::TypeTodo  - Undefined Reference
    QtMobility::QOrganizerItemType::TypeEvent  - Undefined Reference
    QtMobility::QOrganizerTodoTime::FieldAllDay  - Undefined Reference
    QtMobility::QOrganizerTodoTime::DefinitionName  - Undefined Reference
    QtMobility::QOrganizerTodoTime::FieldDueDateTime  - Undefined Reference
    QtMobility::QOrganizerTodoTime::FieldStartDateTime  - Undefined Reference
    QtMobility::QOrganizerEventTime::FieldAllDay  - Undefined Reference
    QtMobility::QOrganizerEventTime::DefinitionName  - Undefined Reference
    QtMobility::QOrganizerEventTime::FieldEndDateTime  - Undefined Reference
    QtMobility::QOrganizerEventTime::FieldStartDateTime  - Undefined Reference
    QtMobility::QOrganizerItemParent::DefinitionName  - Undefined Reference
    QtMobility::QOrganizerItemParent::FieldOriginalDate  - Undefined Reference
    QtMobility::QOrganizerItemComment::FieldComment  - Undefined Reference
    QtMobility::QOrganizerItemComment::DefinitionName  - Undefined Reference
    QtMobility::QOrganizerJournalTime::DefinitionName  - Undefined Reference
    QtMobility::QOrganizerJournalTime::FieldEntryDateTime  - Undefined Reference
    QtMobility::QOrganizerItemPriority::FieldPriority  - Undefined Reference
    QtMobility::QOrganizerItemPriority::DefinitionName  - Undefined Reference
    QtMobility::QOrganizerTodoProgress::FieldStatus  - Undefined Reference
    QtMobility::QOrganizerTodoProgress::DefinitionName  - Undefined Reference
    QtMobility::QOrganizerTodoProgress::FieldFinishedDateTime  - Undefined Reference
    QtMobility::QOrganizerTodoProgress::FieldPercentageComplete  - Undefined Reference
    QtMobility::QOrganizerItemTimestamp::DefinitionName  - Undefined Reference
    QtMobility::QOrganizerItemTimestamp::FieldCreationTimestamp  - Undefined Reference
    QtMobility::QOrganizerItemTimestamp::FieldModificationTimestamp  - Undefined Reference
    QtMobility::QOrganizerItemRecurrence::DefinitionName  - Undefined Reference
    QtMobility::QOrganizerItemRecurrence::FieldExceptionDates  - Undefined Reference
    QtMobility::QOrganizerItemRecurrence::FieldExceptionRules  - Undefined Reference
    QtMobility::QOrganizerItemRecurrence::FieldRecurrenceDates  - Undefined Reference
    QtMobility::QOrganizerItemRecurrence::FieldRecurrenceRules  - Undefined Reference
    QtMobility::QOrganizerItemDescription::DefinitionName  - Undefined Reference
    QtMobility::QOrganizerItemDescription::FieldDescription  - Undefined Reference
    QtMobility::QOrganizerItemDisplayLabel::FieldLabel  - Undefined Reference
    QtMobility::QOrganizerItemDisplayLabel::DefinitionName  - Undefined Reference
    QString::shared_null                      - Undefined Reference
    QMapData::shared_null                     - Undefined Reference
    QVariant::handler                         - Undefined Reference
    QHashData::shared_null                    - Undefined Reference
    QListData::shared_null                    - Undefined Reference
    _fp_init                                  - Undefined Weak Reference
    run_static_dtors                          - Undefined Weak Reference
    Image$$ER_RO$$Base                       0x00008000   Number         0  anon$$obj.o(linker$$defined$$symbols)
    _E32Dll                                  0x00008000   ARM Code      40  uc_dll_.o(.emb_text)
    Symbian$$CPP$$Exception$$Descriptor      0x00008014   Data           0  uc_dll_.o(.emb_text)
    __cpp_initialize__aeabi_                 0x00008028   ARM Code      72  ucppinit_aeabi.o(.emb_text)
    QtMobility::QVersitOrganizerExporter::QVersitOrganizerExporter() 0x00008071   Thumb Code    62  QtVersitOrganizer.in(.text)
    QtMobility::QVersitOrganizerExporter::QVersitOrganizerExporter__sub_object() 0x00008071   Thumb Code     0  QtVersitOrganizer.in(.text)
    std::nothrow                             0x00008071   Thumb Code     0  ucppinit_aeabi.o(.emb_text)
    QtMobility::QVersitOrganizerExporter::QVersitOrganizerExporter(const QString&) 0x000080af   Thumb Code    34  QtVersitOrganizer.in(.text)
    QtMobility::QVersitOrganizerExporter::QVersitOrganizerExporter__sub_object(const QString&) 0x000080af   Thumb Code     0  QtVersitOrganizer.in(.text)
    QtMobility::QVersitOrganizerExporter::~QVersitOrganizerExporter() 0x000080d1   Thumb Code    22  QtVersitOrganizer.in(.text)
    QtMobility::QVersitOrganizerExporter::~QVersitOrganizerExporter__sub_object() 0x000080d1   Thumb Code     0  QtVersitOrganizer.in(.text)
    QtMobility::QVersitOrganizerExporter::exportItems(const QList<QtMobility::QOrganizerItem>&, QtMobility::QVersitDocument::VersitType) 0x000080e7   Thumb Code   390  QtVersitOrganizer.in(.text)
    QtMobility::QVersitOrganizerExporter::document() const 0x0000826d   Thumb Code    10  QtVersitOrganizer.in(.text)
    QtMobility::QVersitOrganizerExporter::errorMap() const 0x00008277   Thumb Code    32  QtVersitOrganizer.in(.text)
    QtMobility::QVersitOrganizerExporter::setDetailHandler(QtMobility::QVersitOrganizerExporterDetailHandler*) 0x00008297   Thumb Code     6  QtVersitOrganizer.in(.text)
    QtMobility::QVersitOrganizerExporterPrivate::QVersitOrganizerExporterPrivate(const QString&) 0x000082b1   Thumb Code   334  QtVersitOrganizer.in(.text)
    QtMobility::QVersitOrganizerExporterPrivate::QVersitOrganizerExporterPrivate__sub_object(const QString&) 0x000082b1   Thumb Code     0  QtVersitOrganizer.in(.text)
    QtMobility::QVersitOrganizerExporterPrivate::~QVersitOrganizerExporterPrivate() 0x000083ff   Thumb Code   118  QtVersitOrganizer.in(.text)
    QtMobility::QVersitOrganizerExporterPrivate::~QVersitOrganizerExporterPrivate__sub_object() 0x000083ff   Thumb Code     0  QtVersitOrganizer.in(.text)
    QtMobility::QVersitOrganizerExporterPrivate::documentContainsUidAndRecurrenceId(const QtMobility::QVersitDocument&) 0x00008475   Thumb Code   166  QtVersitOrganizer.in(.text)
    QtMobility::QVersitOrganizerExporterPrivate::takeProperty(const QtMobility::QVersitDocument&, const QString&, QList<QtMobility::QVersitProperty>*) 0x0000851b   Thumb Code   134  QtVersitOrganizer.in(.text)
    QtMobility::QVersitOrganizerExporterPrivate::encodeSimpleProperty(const QtMobility::QOrganizerItemDetail&, const QtMobility::QVersitDocument&, QList<QtMobility::QVersitProperty>*, QList<QtMobility::QVersitProperty>*, QSet<QString>*) 0x000085a1   Thumb Code   138  QtVersitOrganizer.in(.text)
    QtMobility::QVersitOrganizerExporterPrivate::encodeComment(const QtMobility::QOrganizerItemDetail&, QList<QtMobility::QVersitProperty>*, QSet<QString>*) 0x0000862b   Thumb Code   184  QtVersitOrganizer.in(.text)
    QtMobility::QVersitOrganizerExporterPrivate::encodeTodoProgress(const QtMobility::QOrganizerItemDetail&, const QtMobility::QVersitDocument&, QList<QtMobility::QVersitProperty>*, QList<QtMobility::QVersitProperty>*, QSet<QString>*) 0x000086e3   Thumb Code   596  QtVersitOrganizer.in(.text)
    QtMobility::QVersitOrganizerExporterPrivate::encodeInstanceOrigin(const QtMobility::QOrganizerItemDetail&, const QtMobility::QVersitDocument&, QList<QtMobility::QVersitProperty>*, QList<QtMobility::QVersitProperty>*, QSet<QString>*) 0x00008937   Thumb Code   210  QtVersitOrganizer.in(.text)
    QtMobility::QVersitOrganizerExporterPrivate::encodePriority(const QtMobility::QOrganizerItemDetail&, const QtMobility::QVersitDocument&, QList<QtMobility::QVersitProperty>*, QList<QtMobility::QVersitProperty>*, QSet<QString>*) 0x00008a09   Thumb Code   316  QtVersitOrganizer.in(.text)
    QtMobility::QVersitOrganizerExporterPrivate::encodeRecurDates(const QString&, const QtMobility::QOrganizerItem&, const QSet<QDate>&, const QtMobility::QVersitDocument&, QList<QtMobility::QVersitProperty>*, QList<QtMobility::QVersitProperty>*) 0x00008b45   Thumb Code   558  QtVersitOrganizer.in(.text)
    QtMobility::QVersitOrganizerExporterPrivate::weekString(Qt::DayOfWeek) 0x00008d73   Thumb Code    88  QtVersitOrganizer.in(.text)
    QtMobility::QVersitOrganizerExporterPrivate::appendInts(QString*, const QSet<int>&) 0x00008dcb   Thumb Code   246  QtVersitOrganizer.in(.text)
    QtMobility::QVersitOrganizerExporterPrivate::encodeRecurRule(const QString&, const QtMobility::QOrganizerRecurrenceRule&, QList<QtMobility::QVersitProperty>*) 0x00008ec1   Thumb Code  1468  QtVersitOrganizer.in(.text)
    QtMobility::QVersitOrganizerExporterPrivate::encodeRecurrence(const QtMobility::QOrganizerItem&, const QtMobility::QOrganizerItemDetail&, const QtMobility::QVersitDocument&, QList<QtMobility::QVersitProperty>*, QList<QtMobility::QVersitProperty>*, QSet<QString>*) 0x0000947d   Thumb Code   474  QtVersitOrganizer.in(.text)
    QtMobility::QVersitOrganizerExporterPrivate::encodeDateTime(const QDateTime&) 0x00009657   Thumb Code    70  QtVersitOrganizer.in(.text)
    QtMobility::QVersitOrganizerExporterPrivate::encodeTimestamp(const QtMobility::QOrganizerItemDetail&, const QtMobility::QVersitDocument&, QList<QtMobility::QVersitProperty>*, QList<QtMobility::QVersitProperty>*, QSet<QString>*) 0x0000969d   Thumb Code   368  QtVersitOrganizer.in(.text)
    QtMobility::QVersitOrganizerExporterPrivate::encodeJournalTimeRange(const QtMobility::QOrganizerItemDetail&, const QtMobility::QVersitDocument&, QList<QtMobility::QVersitProperty>*, QList<QtMobility::QVersitProperty>*, QSet<QString>*) 0x0000980d   Thumb Code   310  QtVersitOrganizer.in(.text)
    QtMobility::QVersitOrganizerExporterPrivate::encodeTodoTimeRange(const QtMobility::QOrganizerItemDetail&, const QtMobility::QVersitDocument&, QList<QtMobility::QVersitProperty>*, QList<QtMobility::QVersitProperty>*, QSet<QString>*) 0x00009943   Thumb Code   614  QtVersitOrganizer.in(.text)
    QtMobility::QVersitOrganizerExporterPrivate::encodeEventTimeRange(const QtMobility::QOrganizerItemDetail&, const QtMobility::QVersitDocument&, QList<QtMobility::QVersitProperty>*, QList<QtMobility::QVersitProperty>*, QSet<QString>*) 0x00009ba9   Thumb Code   682  QtVersitOrganizer.in(.text)
    QtMobility::QVersitOrganizerExporterPrivate::exportDetail(const QtMobility::QOrganizerItem&, const QtMobility::QOrganizerItemDetail&, QtMobility::QVersitDocument*) 0x00009e53   Thumb Code   940  QtVersitOrganizer.in(.text)
    QtMobility::QVersitOrganizerExporterPrivate::exportItem(const QtMobility::QOrganizerItem&, QtMobility::QVersitDocument*, QtMobility::QVersitOrganizerExporter::Error*) 0x0000a1ff   Thumb Code   592  QtVersitOrganizer.in(.text)
    QtMobility::QVersitOrganizerImporter::QVersitOrganizerImporter() 0x0000a4b9   Thumb Code    62  QtVersitOrganizer.in(.text)
    QtMobility::QVersitOrganizerImporter::QVersitOrganizerImporter__sub_object() 0x0000a4b9   Thumb Code     0  QtVersitOrganizer.in(.text)
    QtMobility::QVersitOrganizerImporter::QVersitOrganizerImporter(const QString&) 0x0000a4f7   Thumb Code    34  QtVersitOrganizer.in(.text)
    QtMobility::QVersitOrganizerImporter::QVersitOrganizerImporter__sub_object(const QString&) 0x0000a4f7   Thumb Code     0  QtVersitOrganizer.in(.text)
    QtMobility::QVersitOrganizerImporter::~QVersitOrganizerImporter() 0x0000a519   Thumb Code    22  QtVersitOrganizer.in(.text)
    QtMobility::QVersitOrganizerImporter::~QVersitOrganizerImporter__sub_object() 0x0000a519   Thumb Code     0  QtVersitOrganizer.in(.text)
    QtMobility::QVersitOrganizerImporter::importDocument(const QtMobility::QVersitDocument&) 0x0000a52f   Thumb Code   344  QtVersitOrganizer.in(.text)
    QtMobility::QVersitOrganizerImporter::items() const 0x0000a687   Thumb Code    30  QtVersitOrganizer.in(.text)
    QtMobility::QVersitOrganizerImporter::errorMap() const 0x0000a6a5   Thumb Code    32  QtVersitOrganizer.in(.text)
    QtMobility::QVersitOrganizerImporter::setPropertyHandler(QtMobility::QVersitOrganizerImporterPropertyHandler*) 0x0000a6c5   Thumb Code     6  QtVersitOrganizer.in(.text)
    QtMobility::Duration::nextToken(QString*) 0x0000a6dd   Thumb Code   266  QtVersitOrganizer.in(.text)
    QtMobility::Duration::parseDurationSeconds(QString*, QtMobility::Duration*) 0x0000a7e7   Thumb Code   116  QtVersitOrganizer.in(.text)
    QtMobility::Duration::parseDurationMinutes(QString*, QtMobility::Duration*) 0x0000a85b   Thumb Code   132  QtVersitOrganizer.in(.text)
    QtMobility::Duration::parseDurationTime(QString*, QtMobility::Duration*) 0x0000a8df   Thumb Code   188  QtVersitOrganizer.in(.text)
    QtMobility::Duration::parseDuration(QString) 0x0000a99b   Thumb Code   520  QtVersitOrganizer.in(.text)
    QtMobility::QVersitOrganizerImporterPrivate::QVersitOrganizerImporterPrivate(const QString&) 0x0000aba3   Thumb Code   336  QtVersitOrganizer.in(.text)
    QtMobility::QVersitOrganizerImporterPrivate::QVersitOrganizerImporterPrivate__sub_object(const QString&) 0x0000aba3   Thumb Code     0  QtVersitOrganizer.in(.text)
    QtMobility::QVersitOrganizerImporterPrivate::~QVersitOrganizerImporterPrivate() 0x0000acf3   Thumb Code   128  QtVersitOrganizer.in(.text)
    QtMobility::QVersitOrganizerImporterPrivate::~QVersitOrganizerImporterPrivate__sub_object() 0x0000acf3   Thumb Code     0  QtVersitOrganizer.in(.text)
    QtMobility::QVersitOrganizerImporterPrivate::parseDateTime(QString) const 0x0000ad73   Thumb Code   100  QtVersitOrganizer.in(.text)
    QtMobility::QVersitOrganizerImporterPrivate::parseDateTime(const QtMobility::QVersitProperty&, bool*) const 0x0000add7   Thumb Code   586  QtVersitOrganizer.in(.text)
    QtMobility::QVersitOrganizerImporterPrivate::createJournalEntryDateTime(const QtMobility::QVersitProperty&, QtMobility::QOrganizerItem*, QList<QtMobility::QOrganizerItemDetail>*) 0x0000b021   Thumb Code   162  QtVersitOrganizer.in(.text)
    QtMobility::QVersitOrganizerImporterPrivate::parseDate(QString) const 0x0000b0c3   Thumb Code    90  QtVersitOrganizer.in(.text)
    QtMobility::QVersitOrganizerImporterPrivate::createRecurrenceId(const QtMobility::QVersitProperty&, QtMobility::QOrganizerItem*, QList<QtMobility::QOrganizerItemDetail>*) 0x0000b11d   Thumb Code   154  QtVersitOrganizer.in(.text)
    QtMobility::QVersitOrganizerImporterPrivate::createFinishedDateTime(const QtMobility::QVersitProperty&, QtMobility::QOrganizerItem*, QList<QtMobility::QOrganizerItemDetail>*) 0x0000b1b7   Thumb Code   138  QtVersitOrganizer.in(.text)
    QtMobility::QVersitOrganizerImporterPrivate::createPercentageComplete(const QtMobility::QVersitProperty&, QtMobility::QOrganizerItem*, QList<QtMobility::QOrganizerItemDetail>*) 0x0000b241   Thumb Code   118  QtVersitOrganizer.in(.text)
    QtMobility::QVersitOrganizerImporterPrivate::createStatus(const QtMobility::QVersitProperty&, QtMobility::QOrganizerItem*, QList<QtMobility::QOrganizerItemDetail>*) 0x0000b2b7   Thumb Code   274  QtVersitOrganizer.in(.text)
    QtMobility::QVersitOrganizerImporterPrivate::parseDates(const QString&, QSet<QDate>*) const 0x0000b3c9   Thumb Code   192  QtVersitOrganizer.in(.text)
    QtMobility::QVersitOrganizerImporterPrivate::createRecurrenceDates(const QtMobility::QVersitProperty&, QtMobility::QOrganizerItem*, QList<QtMobility::QOrganizerItemDetail>*) 0x0000b489   Thumb Code   272  QtVersitOrganizer.in(.text)
    QtMobility::QVersitOrganizerImporterPrivate::parseDayOfWeek(const QString&) const 0x0000b599   Thumb Code   154  QtVersitOrganizer.in(.text)
    QtMobility::QVersitOrganizerImporterPrivate::parseInts(const QString&, int, int) const 0x0000b633   Thumb Code   152  QtVersitOrganizer.in(.text)
    QtMobility::QVersitOrganizerImporterPrivate::parseRecurFragment(const QString&, const QString&, QtMobility::QOrganizerRecurrenceRule*) const 0x0000b6cb   Thumb Code  1100  QtVersitOrganizer.in(.text)
    QtMobility::QVersitOrganizerImporterPrivate::parseRecurRule(const QString&, QtMobility::QOrganizerRecurrenceRule*) const 0x0000bb17   Thumb Code   458  QtVersitOrganizer.in(.text)
    QtMobility::QVersitOrganizerImporterPrivate::createRecurrenceRule(const QtMobility::QVersitProperty&, QtMobility::QOrganizerItem*, QList<QtMobility::QOrganizerItemDetail>*) 0x0000bce1   Thumb Code   370  QtVersitOrganizer.in(.text)
    QtMobility::QVersitOrganizerImporterPrivate::createDueDateTime(const QtMobility::QVersitProperty&, QtMobility::QOrganizerItem*, QList<QtMobility::QOrganizerItemDetail>*) 0x0000be53   Thumb Code   166  QtVersitOrganizer.in(.text)
    QtMobility::QVersitOrganizerImporterPrivate::createTodoStartDateTime(const QtMobility::QVersitProperty&, QtMobility::QOrganizerItem*, QList<QtMobility::QOrganizerItemDetail>*) 0x0000bef9   Thumb Code   162  QtVersitOrganizer.in(.text)
    QtMobility::QVersitOrganizerImporterPrivate::createDuration(const QtMobility::QVersitProperty&, QtMobility::QOrganizerItem*, QList<QtMobility::QOrganizerItemDetail>*) 0x0000bf9b   Thumb Code   286  QtVersitOrganizer.in(.text)
    QtMobility::QVersitOrganizerImporterPrivate::createEndDateTime(const QtMobility::QVersitProperty&, QtMobility::QOrganizerItem*, QList<QtMobility::QOrganizerItemDetail>*) 0x0000c0b9   Thumb Code   228  QtVersitOrganizer.in(.text)
    QtMobility::QVersitOrganizerImporterPrivate::createStartDateTime(const QtMobility::QVersitProperty&, QtMobility::QOrganizerItem*, QList<QtMobility::QOrganizerItemDetail>*) 0x0000c19d   Thumb Code   330  QtVersitOrganizer.in(.text)
    QtMobility::QVersitOrganizerImporterPrivate::createSimpleDetail(const QtMobility::QVersitProperty&, QtMobility::QOrganizerItem*, QList<QtMobility::QOrganizerItemDetail>*) 0x0000c2e7   Thumb Code   220  QtVersitOrganizer.in(.text)
    QtMobility::QVersitOrganizerImporterPrivate::createComment(const QtMobility::QVersitProperty&, QList<QtMobility::QOrganizerItemDetail>*) 0x0000c3c3   Thumb Code   102  QtVersitOrganizer.in(.text)
    QtMobility::QVersitOrganizerImporterPrivate::createPriority(const QtMobility::QVersitProperty&, QtMobility::QOrganizerItem*, QList<QtMobility::QOrganizerItemDetail>*) 0x0000c429   Thumb Code   152  QtVersitOrganizer.in(.text)
    QtMobility::QVersitOrganizerImporterPrivate::createTimestampModified(const QtMobility::QVersitProperty&, QtMobility::QOrganizerItem*, QList<QtMobility::QOrganizerItemDetail>*) 0x0000c4c1   Thumb Code   138  QtVersitOrganizer.in(.text)
    QtMobility::QVersitOrganizerImporterPrivate::createTimestampCreated(const QtMobility::QVersitProperty&, QtMobility::QOrganizerItem*, QList<QtMobility::QOrganizerItemDetail>*) 0x0000c54b   Thumb Code   178  QtVersitOrganizer.in(.text)
    QtMobility::QVersitOrganizerImporterPrivate::importProperty(const QtMobility::QVersitDocument&, const QtMobility::QVersitProperty&, QtMobility::QOrganizerItem*) 0x0000c5fd   Thumb Code  1674  QtVersitOrganizer.in(.text)
    QtMobility::QVersitOrganizerImporterPrivate::importTimeZonePhase(const QtMobility::QVersitDocument&) const 0x0000cc87   Thumb Code   902  QtVersitOrganizer.in(.text)
    QtMobility::QVersitOrganizerImporterPrivate::importTimeZone(const QtMobility::QVersitDocument&) const 0x0000d00d   Thumb Code   356  QtVersitOrganizer.in(.text)
    QtMobility::QVersitOrganizerImporterPrivate::importDocument(const QtMobility::QVersitDocument&, const QtMobility::QVersitDocument&, QtMobility::QOrganizerItem*, QtMobility::QVersitOrganizerImporter::Error*) 0x0000d171   Thumb Code   556  QtVersitOrganizer.in(.text)
    factoryLessThan(QtMobility::QVersitOrganizerHandlerFactory*, QtMobility::QVersitOrganizerHandlerFactory*) 0x0000d3d5   Thumb Code   108  QtVersitOrganizer.in(.text)
    QtMobility::QVersitOrganizerPluginLoader::QVersitOrganizerPluginLoader() 0x0000d441   Thumb Code    36  QtVersitOrganizer.in(.text)
    QtMobility::QVersitOrganizerPluginLoader::QVersitOrganizerPluginLoader__sub_object() 0x0000d441   Thumb Code     0  QtVersitOrganizer.in(.text)
    QtMobility::QVersitOrganizerPluginLoader::instance() 0x0000d465   Thumb Code    36  QtVersitOrganizer.in(.text)
    QtMobility::QVersitOrganizerPluginLoader::loadPlugins() 0x0000d4d7   Thumb Code   550  QtVersitOrganizer.in(.text)
    QtMobility::QVersitOrganizerPluginLoader::createOrganizerHandlers(const QString&) 0x0000d6fd   Thumb Code   408  QtVersitOrganizer.in(.text)
    QtMobility::QVersitOrganizerPluginLoader::timeZoneHandler() 0x0000d895   Thumb Code    12  QtVersitOrganizer.in(.text)
    TimeZone::getManager()                   0x0000d8a1   Thumb Code   168  QtVersitOrganizer.in(.text)
    TimeZone::convert(const QDateTime&) const 0x0000d949   Thumb Code   436  QtVersitOrganizer.in(.text)
    TimeZones::convert(const QDateTime&, const QString&) const 0x0000dafd   Thumb Code    92  QtVersitOrganizer.in(.text)
    _E32Dll_Body                             0x0000db81   Thumb Code    34  uc_dll.o(.text)
    __DLL_Export_Table__                     0x0000e924   ARM Code       0  QtVersitOrganizer{00010103}.exp(ExportTable)
    DLL##ExportTableSize                     0x0000e928   Data           0  QtVersitOrganizer{00010103}.exp(ExportTable)
    DLL##ExportTable                         0x0000e92c   Data           0  QtVersitOrganizer{00010103}.exp(ExportTable)
    QtMobility::QVersitDocument::properties() const 0x0000e984   ARM Code       0  QtVersit{00010103}-107.o(StubCode)
    QtMobility::QVersitDocument::type() const 0x0000e98c   ARM Code       0  QtVersit{00010103}-108.o(StubCode)
    QtMobility::QVersitProperty::parameters() const 0x0000e994   ARM Code       0  QtVersit{00010103}-112.o(StubCode)
    QtMobility::QVersitProperty::name() const 0x0000e99c   ARM Code       0  QtVersit{00010103}-114.o(StubCode)
    QtMobility::QVersitProperty::value() const 0x0000e9a4   ARM Code       0  QtVersit{00010103}-115.o(StubCode)
    QtMobility::QVersitDocument::setSubDocuments(const QList<QtMobility::QVersitDocument>&) 0x0000e9ac   ARM Code       0  QtVersit{00010103}-141.o(StubCode)
    QtMobility::QVersitDocument::setComponentType(QString) 0x0000e9b4   ARM Code       0  QtVersit{00010103}-142.o(StubCode)
    QtMobility::QVersitDocument::subDocuments() const 0x0000e9bc   ARM Code       0  QtVersit{00010103}-156.o(StubCode)
    QtMobility::QVersitDocument::componentType() const 0x0000e9c4   ARM Code       0  QtVersit{00010103}-157.o(StubCode)
    QtMobility::QVersitDocument::addProperty(const QtMobility::QVersitProperty&) 0x0000e9cc   ARM Code       0  QtVersit{00010103}-41.o(StubCode)
    QtMobility::QVersitDocument::removeProperty(const QtMobility::QVersitProperty&) 0x0000e9d4   ARM Code       0  QtVersit{00010103}-42.o(StubCode)
    QtMobility::QVersitDocument::clear()     0x0000e9dc   ARM Code       0  QtVersit{00010103}-44.o(StubCode)
    QtMobility::QVersitDocument::setType(QtMobility::QVersitDocument::VersitType) 0x0000e9e4   ARM Code       0  QtVersit{00010103}-45.o(StubCode)
    QtMobility::QVersitDocument::QVersitDocument(const QtMobility::QVersitDocument&) 0x0000e9ec   ARM Code       0  QtVersit{00010103}-47.o(StubCode)
    QtMobility::QVersitDocument::QVersitDocument() 0x0000e9f4   ARM Code       0  QtVersit{00010103}-48.o(StubCode)
    QtMobility::QVersitDocument::~QVersitDocument() 0x0000e9fc   ARM Code       0  QtVersit{00010103}-52.o(StubCode)
    QtMobility::QVersitProperty::setValueType(QtMobility::QVersitProperty::ValueType) 0x0000ea04   ARM Code       0  QtVersit{00010103}-55.o(StubCode)
    QtMobility::QVersitProperty::insertParameter(const QString&, const QString&) 0x0000ea0c   ARM Code       0  QtVersit{00010103}-57.o(StubCode)
    QtMobility::QVersitProperty::setName(const QString&) 0x0000ea14   ARM Code       0  QtVersit{00010103}-61.o(StubCode)
    QtMobility::QVersitProperty::setValue(const QVariant&) 0x0000ea1c   ARM Code       0  QtVersit{00010103}-62.o(StubCode)
    QtMobility::QVersitProperty::QVersitProperty(const QtMobility::QVersitProperty&) 0x0000ea24   ARM Code       0  QtVersit{00010103}-64.o(StubCode)
    QtMobility::QVersitProperty::QVersitProperty() 0x0000ea2c   ARM Code       0  QtVersit{00010103}-65.o(StubCode)
    QtMobility::QVersitProperty::~QVersitProperty() 0x0000ea34   ARM Code       0  QtVersit{00010103}-68.o(StubCode)
    QtMobility::QVersitProperty::operator =(const QtMobility::QVersitProperty&) 0x0000ea3c   ARM Code       0  QtVersit{00010103}-70.o(StubCode)
    QtMobility::QOrganizerItemDetail::setValue(const char*, const QVariant&) 0x0000ea44   ARM Code       0  QtOrganizer{00010103}-138.o(StubCode)
    QtMobility::QOrganizerItemDetail::setValue(const QString&, const QVariant&) 0x0000ea4c   ARM Code       0  QtOrganizer{00010103}-139.o(StubCode)
    QtMobility::QOrganizerItem::setType(const QString&) 0x0000ea54   ARM Code       0  QtOrganizer{00010103}-14.o(StubCode)
    QtMobility::QOrganizerItemDetail::QOrganizerItemDetail(const char*) 0x0000ea5c   ARM Code       0  QtOrganizer{00010103}-140.o(StubCode)
    QtMobility::QOrganizerItemDetail::QOrganizerItemDetail(const QString&) 0x0000ea64   ARM Code       0  QtOrganizer{00010103}-141.o(StubCode)
    QtMobility::QOrganizerItemDetail::QOrganizerItemDetail(const QtMobility::QOrganizerItemDetail&) 0x0000ea6c   ARM Code       0  QtOrganizer{00010103}-142.o(StubCode)
    QtMobility::QOrganizerItemDetail::QOrganizerItemDetail(const QtMobility::QOrganizerItemDetail&, const char*) 0x0000ea74   ARM Code       0  QtOrganizer{00010103}-143.o(StubCode)
    QtMobility::QOrganizerItemDetail::~QOrganizerItemDetail() 0x0000ea7c   ARM Code       0  QtOrganizer{00010103}-152.o(StubCode)
    QtMobility::QOrganizerItemDetail::operator =(const QtMobility::QOrganizerItemDetail&) 0x0000ea84   ARM Code       0  QtOrganizer{00010103}-154.o(StubCode)
    QtMobility::QOrganizerItem::QOrganizerItem(const char*) 0x0000ea8c   ARM Code       0  QtOrganizer{00010103}-16.o(StubCode)
    QtMobility::QOrganizerItem::QOrganizerItem(const QtMobility::QOrganizerItem&) 0x0000ea94   ARM Code       0  QtOrganizer{00010103}-17.o(StubCode)
    QtMobility::QOrganizerItem::QOrganizerItem(const QtMobility::QOrganizerItem&, const char*) 0x0000ea9c   ARM Code       0  QtOrganizer{00010103}-18.o(StubCode)
    QtMobility::QOrganizerItem::QOrganizerItem() 0x0000eaa4   ARM Code       0  QtOrganizer{00010103}-19.o(StubCode)
    QtMobility::QOrganizerItem::saveDetail(QtMobility::QOrganizerItemDetail*) 0x0000eaac   ARM Code       0  QtOrganizer{00010103}-2.o(StubCode)
    QtMobility::QOrganizerItemFetchHint::QOrganizerItemFetchHint() 0x0000eab4   ARM Code       0  QtOrganizer{00010103}-230.o(StubCode)
    QtMobility::QOrganizerItemFetchHint::~QOrganizerItemFetchHint() 0x0000eabc   ARM Code       0  QtOrganizer{00010103}-233.o(StubCode)
    QtMobility::QOrganizerItem::~QOrganizerItem() 0x0000eac4   ARM Code       0  QtOrganizer{00010103}-24.o(StubCode)
    QtMobility::QOrganizerItemRecurrence::setExceptionDates(const QSet<QDate>&) 0x0000eacc   ARM Code       0  QtOrganizer{00010103}-297.o(StubCode)
    QtMobility::QOrganizerItemRecurrence::setExceptionRules(const QSet<QtMobility::QOrganizerRecurrenceRule>&) 0x0000ead4   ARM Code       0  QtOrganizer{00010103}-298.o(StubCode)
    QtMobility::QOrganizerItemRecurrence::setRecurrenceDates(const QSet<QDate>&) 0x0000eadc   ARM Code       0  QtOrganizer{00010103}-299.o(StubCode)
    QtMobility::QOrganizerItemRecurrence::setRecurrenceRules(const QSet<QtMobility::QOrganizerRecurrenceRule>&) 0x0000eae4   ARM Code       0  QtOrganizer{00010103}-300.o(StubCode)
    QtMobility::QOrganizerRecurrenceRule::setInterval(int) 0x0000eaec   ARM Code       0  QtOrganizer{00010103}-306.o(StubCode)
    QtMobility::QOrganizerRecurrenceRule::setFrequency(QtMobility::QOrganizerRecurrenceRule::Frequency) 0x0000eaf4   ARM Code       0  QtOrganizer{00010103}-307.o(StubCode)
    QtMobility::QOrganizerRecurrenceRule::setPositions(const QSet<int>&) 0x0000eafc   ARM Code       0  QtOrganizer{00010103}-308.o(StubCode)
    QtMobility::QOrganizerRecurrenceRule::setDaysOfWeek(const QSet<Qt::DayOfWeek>&) 0x0000eb04   ARM Code       0  QtOrganizer{00010103}-309.o(StubCode)
    QtMobility::QOrganizerRecurrenceRule::setDaysOfYear(const QSet<int>&) 0x0000eb0c   ARM Code       0  QtOrganizer{00010103}-310.o(StubCode)
    QtMobility::QOrganizerRecurrenceRule::setDaysOfMonth(const QSet<int>&) 0x0000eb14   ARM Code       0  QtOrganizer{00010103}-311.o(StubCode)
    QtMobility::QOrganizerRecurrenceRule::setWeeksOfYear(const QSet<int>&) 0x0000eb1c   ARM Code       0  QtOrganizer{00010103}-312.o(StubCode)
    QtMobility::QOrganizerRecurrenceRule::setMonthsOfYear(const QSet<QtMobility::QOrganizerRecurrenceRule::Month>&) 0x0000eb24   ARM Code       0  QtOrganizer{00010103}-313.o(StubCode)
    QtMobility::QOrganizerRecurrenceRule::setFirstDayOfWeek(Qt::DayOfWeek) 0x0000eb2c   ARM Code       0  QtOrganizer{00010103}-314.o(StubCode)
    QtMobility::QOrganizerRecurrenceRule::setLimit(const QDate&) 0x0000eb34   ARM Code       0  QtOrganizer{00010103}-315.o(StubCode)
    QtMobility::QOrganizerRecurrenceRule::setLimit(int) 0x0000eb3c   ARM Code       0  QtOrganizer{00010103}-316.o(StubCode)
    QtMobility::QOrganizerRecurrenceRule::QOrganizerRecurrenceRule(const QtMobility::QOrganizerRecurrenceRule&) 0x0000eb44   ARM Code       0  QtOrganizer{00010103}-317.o(StubCode)
    QtMobility::QOrganizerRecurrenceRule::QOrganizerRecurrenceRule() 0x0000eb4c   ARM Code       0  QtOrganizer{00010103}-318.o(StubCode)
    QtMobility::QOrganizerRecurrenceRule::~QOrganizerRecurrenceRule() 0x0000eb54   ARM Code       0  QtOrganizer{00010103}-321.o(StubCode)
    QtMobility::QOrganizerRecurrenceRule::operator =(const QtMobility::QOrganizerRecurrenceRule&) 0x0000eb5c   ARM Code       0  QtOrganizer{00010103}-323.o(StubCode)
    QtMobility::QOrganizerEvent::setStartDateTime(const QDateTime&) 0x0000eb64   ARM Code       0  QtOrganizer{00010103}-45.o(StubCode)
    QtMobility::QOrganizerEvent::setRecurrenceDates(const QSet<QDate>&) 0x0000eb6c   ARM Code       0  QtOrganizer{00010103}-50.o(StubCode)
    QtMobility::QOrganizerEvent::setRecurrenceRules(const QSet<QtMobility::QOrganizerRecurrenceRule>&) 0x0000eb74   ARM Code       0  QtOrganizer{00010103}-51.o(StubCode)
    QtMobility::qHash(const QtMobility::QOrganizerRecurrenceRule&) 0x0000eb7c   ARM Code       0  QtOrganizer{00010103}-575.o(StubCode)
    QtMobility::QOrganizerItem::type() const 0x0000eb84   ARM Code       0  QtOrganizer{00010103}-608.o(StubCode)
    QtMobility::QOrganizerItem::detail(const char*) const 0x0000eb8c   ARM Code       0  QtOrganizer{00010103}-609.o(StubCode)
    QtMobility::QOrganizerItem::detail(const QString&) const 0x0000eb94   ARM Code       0  QtOrganizer{00010103}-610.o(StubCode)
    QtMobility::QOrganizerItem::details(const QString&) const 0x0000eb9c   ARM Code       0  QtOrganizer{00010103}-613.o(StubCode)
    QtMobility::QOrganizerEvent::startDateTime() const 0x0000eba4   ARM Code       0  QtOrganizer{00010103}-633.o(StubCode)
    QtMobility::QOrganizerManager::itemOccurrences(const QtMobility::QOrganizerItem&, const QDateTime&, const QDateTime&, int, const QtMobility::QOrganizerItemFetchHint&) const 0x0000ebac   ARM Code       0  QtOrganizer{00010103}-658.o(StubCode)
    QtMobility::QOrganizerItemDetail::variantValue(const char*) const 0x0000ebb4   ARM Code       0  QtOrganizer{00010103}-677.o(StubCode)
    QtMobility::QOrganizerItemDetail::definitionName() const 0x0000ebbc   ARM Code       0  QtOrganizer{00010103}-680.o(StubCode)
    QtMobility::QOrganizerItemDetail::value(const char*) const 0x0000ebc4   ARM Code       0  QtOrganizer{00010103}-683.o(StubCode)
    QtMobility::QOrganizerItemDetail::value(const QString&) const 0x0000ebcc   ARM Code       0  QtOrganizer{00010103}-684.o(StubCode)
    QtMobility::QOrganizerItemDetail::isEmpty() const 0x0000ebd4   ARM Code       0  QtOrganizer{00010103}-685.o(StubCode)
    QtMobility::QOrganizerItemDetail::hasValue(const char*) const 0x0000ebdc   ARM Code       0  QtOrganizer{00010103}-686.o(StubCode)
    QtMobility::QOrganizerItemRecurrence::exceptionDates() const 0x0000ebe4   ARM Code       0  QtOrganizer{00010103}-732.o(StubCode)
    QtMobility::QOrganizerItemRecurrence::exceptionRules() const 0x0000ebec   ARM Code       0  QtOrganizer{00010103}-733.o(StubCode)
    QtMobility::QOrganizerItemRecurrence::recurrenceDates() const 0x0000ebf4   ARM Code       0  QtOrganizer{00010103}-734.o(StubCode)
    QtMobility::QOrganizerItemRecurrence::recurrenceRules() const 0x0000ebfc   ARM Code       0  QtOrganizer{00010103}-735.o(StubCode)
    QtMobility::QOrganizerRecurrenceRule::daysOfWeek() const 0x0000ec04   ARM Code       0  QtOrganizer{00010103}-737.o(StubCode)
    QtMobility::QOrganizerRecurrenceRule::daysOfYear() const 0x0000ec0c   ARM Code       0  QtOrganizer{00010103}-738.o(StubCode)
    QtMobility::QOrganizerRecurrenceRule::limitCount() const 0x0000ec14   ARM Code       0  QtOrganizer{00010103}-739.o(StubCode)
    QtMobility::QOrganizerRecurrenceRule::daysOfMonth() const 0x0000ec1c   ARM Code       0  QtOrganizer{00010103}-740.o(StubCode)
    QtMobility::QOrganizerRecurrenceRule::weeksOfYear() const 0x0000ec24   ARM Code       0  QtOrganizer{00010103}-741.o(StubCode)
    QtMobility::QOrganizerRecurrenceRule::monthsOfYear() const 0x0000ec2c   ARM Code       0  QtOrganizer{00010103}-742.o(StubCode)
    QtMobility::QOrganizerRecurrenceRule::firstDayOfWeek() const 0x0000ec34   ARM Code       0  QtOrganizer{00010103}-743.o(StubCode)
    QtMobility::QOrganizerRecurrenceRule::interval() const 0x0000ec3c   ARM Code       0  QtOrganizer{00010103}-744.o(StubCode)
    QtMobility::QOrganizerRecurrenceRule::frequency() const 0x0000ec44   ARM Code       0  QtOrganizer{00010103}-745.o(StubCode)
    QtMobility::QOrganizerRecurrenceRule::limitDate() const 0x0000ec4c   ARM Code       0  QtOrganizer{00010103}-746.o(StubCode)
    QtMobility::QOrganizerRecurrenceRule::limitType() const 0x0000ec54   ARM Code       0  QtOrganizer{00010103}-747.o(StubCode)
    QtMobility::QOrganizerRecurrenceRule::positions() const 0x0000ec5c   ARM Code       0  QtOrganizer{00010103}-748.o(StubCode)
    QtMobility::QOrganizerRecurrenceRule::operator ==(const QtMobility::QOrganizerRecurrenceRule&) const 0x0000ec64   ARM Code       0  QtOrganizer{00010103}-749.o(StubCode)
    QtMobility::QOrganizerEventOccurrence::startDateTime() const 0x0000ec6c   ARM Code       0  QtOrganizer{00010103}-769.o(StubCode)
    QtMobility::QOrganizerManager::QOrganizerManager(const QString&, const QMap<QString, QString>&, QObject*) 0x0000ec74   ARM Code       0  QtOrganizer{00010103}-93.o(StubCode)
    RFs::Att(const TDesC16&, unsigned&) const 0x0000ec7c   ARM Code       0  efsrv{000a0000}-231.o(StubCode)
    RFs::Connect(int)                        0x0000ec84   ARM Code       0  efsrv{000a0000}-68.o(StubCode)
    operator delete (void*)                  0x0000ec8c   ARM Code       0  libstdcpp{00010000}-988.o(StubCode)
    operator new(unsigned)                   0x0000ec94   ARM Code       0  libstdcpp{00010000}-992.o(StubCode)
    QDir::toNativeSeparators(const QString&) 0x0000ec9c   ARM Code       0  QtCore{00040703}-1453.o(StubCode)
    QDir::cd(const QString&)                 0x0000eca4   ARM Code       0  QtCore{00040703}-1457.o(StubCode)
    QDir::QDir(const QString&)               0x0000ecac   ARM Code       0  QtCore{00040703}-1471.o(StubCode)
    QDir::~QDir()                            0x0000ecb4   ARM Code       0  QtCore{00040703}-1477.o(StubCode)
    QDate::fromString(const QString&, const QString&) 0x0000ecbc   ARM Code       0  QtCore{00040703}-1565.o(StubCode)
    QDate::QDate(int, int, int)              0x0000ecc4   ARM Code       0  QtCore{00040703}-1582.o(StubCode)
    QTime::QTime(int, int, int, int)         0x0000eccc   ARM Code       0  QtCore{00040703}-1643.o(StubCode)
    QString::fromLatin1(const char*, int)    0x0000ecd4   ARM Code       0  QtCore{00040703}-1814.o(StubCode)
    QString::fromAscii_helper(const char*, int) 0x0000ecdc   ARM Code       0  QtCore{00040703}-1825.o(StubCode)
    QString::fromLatin1_helper(const char*, int) 0x0000ece4   ARM Code       0  QtCore{00040703}-1826.o(StubCode)
    QString::chop(int)                       0x0000ecec   ARM Code       0  QtCore{00040703}-1828.o(StubCode)
    QString::free(QString::Data*)            0x0000ecf4   ARM Code       0  QtCore{00040703}-1830.o(StubCode)
    QString::grow(int)                       0x0000ecfc   ARM Code       0  QtCore{00040703}-1831.o(StubCode)
    QString::append(const QLatin1String&)    0x0000ed04   ARM Code       0  QtCore{00040703}-1835.o(StubCode)
    QString::append(const QString&)          0x0000ed0c   ARM Code       0  QtCore{00040703}-1836.o(StubCode)
    QString::number(int, int)                0x0000ed14   ARM Code       0  QtCore{00040703}-1842.o(StubCode)
    QString::realloc(int)                    0x0000ed1c   ARM Code       0  QtCore{00040703}-1855.o(StubCode)
    QString::fromAscii(const char*, int)     0x0000ed24   ARM Code       0  QtCore{00040703}-1874.o(StubCode)
    QString::operator =(const QString&)      0x0000ed2c   ARM Code       0  QtCore{00040703}-1885.o(StubCode)
    QMapData::node_delete(QMapData::Node**, int, QMapData::Node*) 0x0000ed34   ARM Code       0  QtCore{00040703}-1947.o(StubCode)
    QMapData::continueFreeData(int)          0x0000ed3c   ARM Code       0  QtCore{00040703}-1949.o(StubCode)
    QVariant::QVariant(const QLatin1String&) 0x0000ed44   ARM Code       0  QtCore{00040703}-2016.o(StubCode)
    QVariant::QVariant(const QDate&)         0x0000ed4c   ARM Code       0  QtCore{00040703}-2020.o(StubCode)
    QVariant::QVariant(const QString&)       0x0000ed54   ARM Code       0  QtCore{00040703}-2034.o(StubCode)
    QVariant::QVariant(const QDateTime&)     0x0000ed5c   ARM Code       0  QtCore{00040703}-2036.o(StubCode)
    QVariant::QVariant(bool)                 0x0000ed64   ARM Code       0  QtCore{00040703}-2038.o(StubCode)
    QVariant::QVariant(int)                  0x0000ed6c   ARM Code       0  QtCore{00040703}-2040.o(StubCode)
    QVariant::~QVariant()                    0x0000ed74   ARM Code       0  QtCore{00040703}-2082.o(StubCode)
    QDateTime::fromString(const QString&, const QString&) 0x0000ed7c   ARM Code       0  QtCore{00040703}-2093.o(StubCode)
    QDateTime::setTimeSpec(Qt::TimeSpec)     0x0000ed84   ARM Code       0  QtCore{00040703}-2095.o(StubCode)
    QDateTime::setDate(const QDate&)         0x0000ed8c   ARM Code       0  QtCore{00040703}-2099.o(StubCode)
    QDateTime::setTime(const QTime&)         0x0000ed94   ARM Code       0  QtCore{00040703}-2100.o(StubCode)
    QDateTime::QDateTime(const QDate&)       0x0000ed9c   ARM Code       0  QtCore{00040703}-2102.o(StubCode)
    QDateTime::QDateTime(const QDateTime&)   0x0000eda4   ARM Code       0  QtCore{00040703}-2104.o(StubCode)
    QDateTime::QDateTime()                   0x0000edac   ARM Code       0  QtCore{00040703}-2105.o(StubCode)
    QDateTime::~QDateTime()                  0x0000edb4   ARM Code       0  QtCore{00040703}-2110.o(StubCode)
    QDateTime::operator =(const QDateTime&)  0x0000edbc   ARM Code       0  QtCore{00040703}-2112.o(StubCode)
    QHashData::free_helper(void(*)(QHashData::Node*)) 0x0000edc4   ARM Code       0  QtCore{00040703}-2134.o(StubCode)
    QHashData::previousNode(QHashData::Node*) 0x0000edcc   ARM Code       0  QtCore{00040703}-2137.o(StubCode)
    QHashData::rehash(int)                   0x0000edd4   ARM Code       0  QtCore{00040703}-2141.o(StubCode)
    QHashData::nextNode(QHashData::Node*)    0x0000eddc   ARM Code       0  QtCore{00040703}-2143.o(StubCode)
    QListData::erase(void**)                 0x0000ede4   ARM Code       0  QtCore{00040703}-2186.o(StubCode)
    QListData::append()                      0x0000edec   ARM Code       0  QtCore{00040703}-2188.o(StubCode)
    QListData::realloc(int)                  0x0000edf4   ARM Code       0  QtCore{00040703}-2197.o(StubCode)
    QDir::absolutePath() const               0x0000edfc   ARM Code       0  QtCore{00040703}-2791.o(StubCode)
    QDir::absoluteFilePath(const QString&) const 0x0000ee04   ARM Code       0  QtCore{00040703}-2795.o(StubCode)
    QDir::path() const                       0x0000ee0c   ARM Code       0  QtCore{00040703}-2797.o(StubCode)
    QDir::filePath(const QString&) const     0x0000ee14   ARM Code       0  QtCore{00040703}-2810.o(StubCode)
    QDir::entryList(QFlags<QDir::Filter>, QFlags<QDir::SortFlag>) const 0x0000ee1c   ARM Code       0  QtCore{00040703}-2811.o(StubCode)
    QChar::isDigit() const                   0x0000ee24   ARM Code       0  QtCore{00040703}-2867.o(StubCode)
    QChar::category() const                  0x0000ee2c   ARM Code       0  QtCore{00040703}-2875.o(StubCode)
    QDate::addDays(int) const                0x0000ee34   ARM Code       0  QtCore{00040703}-2887.o(StubCode)
    QDate::isValid() const                   0x0000ee3c   ARM Code       0  QtCore{00040703}-2888.o(StubCode)
    QDate::toString(const QString&) const    0x0000ee44   ARM Code       0  QtCore{00040703}-2891.o(StubCode)
    QString::mid(int, int) const             0x0000ee4c   ARM Code       0  QtCore{00040703}-3054.o(StubCode)
    QString::left(int) const                 0x0000ee54   ARM Code       0  QtCore{00040703}-3055.o(StubCode)
    QString::right(int) const                0x0000ee5c   ARM Code       0  QtCore{00040703}-3059.o(StubCode)
    QString::split(const QChar&, QString::SplitBehavior, Qt::CaseSensitivity) const 0x0000ee64   ARM Code       0  QtCore{00040703}-3060.o(StubCode)
    QString::toInt(bool*, int) const         0x0000ee6c   ARM Code       0  QtCore{00040703}-3063.o(StubCode)
    QString::utf16() const                   0x0000ee74   ARM Code       0  QtCore{00040703}-3064.o(StubCode)
    QString::indexOf(QChar, int, Qt::CaseSensitivity) const 0x0000ee7c   ARM Code       0  QtCore{00040703}-3073.o(StubCode)
    QString::endsWith(const QLatin1String&, Qt::CaseSensitivity) const 0x0000ee84   ARM Code       0  QtCore{00040703}-3088.o(StubCode)
    QString::endsWith(const QChar&, Qt::CaseSensitivity) const 0x0000ee8c   ARM Code       0  QtCore{00040703}-3089.o(StubCode)
    QString::operator ==(const QLatin1String&) const 0x0000ee94   ARM Code       0  QtCore{00040703}-3097.o(StubCode)
    QString::operator ==(const QString&) const 0x0000ee9c   ARM Code       0  QtCore{00040703}-3098.o(StubCode)
    QString::operator <(const QString&) const 0x0000eea4   ARM Code       0  QtCore{00040703}-3101.o(StubCode)
    QVariant::toDate() const                 0x0000eeac   ARM Code       0  QtCore{00040703}-3145.o(StubCode)
    QVariant::userType() const               0x0000eeb4   ARM Code       0  QtCore{00040703}-3165.o(StubCode)
    QVariant::constData() const              0x0000eebc   ARM Code       0  QtCore{00040703}-3166.o(StubCode)
    QDateTime::toTimeSpec(Qt::TimeSpec) const 0x0000eec4   ARM Code       0  QtCore{00040703}-3169.o(StubCode)
    QDateTime::date() const                  0x0000eecc   ARM Code       0  QtCore{00040703}-3170.o(StubCode)
    QDateTime::time() const                  0x0000eed4   ARM Code       0  QtCore{00040703}-3171.o(StubCode)
    QDateTime::daysTo(const QDateTime&) const 0x0000eedc   ARM Code       0  QtCore{00040703}-3172.o(StubCode)
    QDateTime::secsTo(const QDateTime&) const 0x0000eee4   ARM Code       0  QtCore{00040703}-3174.o(StubCode)
    QDateTime::addDays(int) const            0x0000eeec   ARM Code       0  QtCore{00040703}-3175.o(StubCode)
    QDateTime::addSecs(int) const            0x0000eef4   ARM Code       0  QtCore{00040703}-3176.o(StubCode)
    QDateTime::isValid() const               0x0000eefc   ARM Code       0  QtCore{00040703}-3177.o(StubCode)
    QDateTime::timeSpec() const              0x0000ef04   ARM Code       0  QtCore{00040703}-3180.o(StubCode)
    QDateTime::toString(const QString&) const 0x0000ef0c   ARM Code       0  QtCore{00040703}-3182.o(StubCode)
    QDateTime::operator <(const QDateTime&) const 0x0000ef14   ARM Code       0  QtCore{00040703}-3187.o(StubCode)
    QMapData::createData(int)                0x0000ef1c   ARM Code       0  QtCore{00040703}-3607.o(StubCode)
    QMapData::node_create(QMapData::Node**, int, int) 0x0000ef24   ARM Code       0  QtCore{00040703}-3608.o(StubCode)
    QHashData::allocateNode(int)             0x0000ef2c   ARM Code       0  QtCore{00040703}-3609.o(StubCode)
    QHashData::detach_helper2(void(*)(QHashData::Node*, void*), void(*)(QHashData::Node*), int, int) 0x0000ef34   ARM Code       0  QtCore{00040703}-3610.o(StubCode)
    QListData::detach_grow(int*, int)        0x0000ef3c   ARM Code       0  QtCore{00040703}-3689.o(StubCode)
    QListData::detach(int)                   0x0000ef44   ARM Code       0  QtCore{00040703}-3691.o(StubCode)
    qt_symbian_throwIfError(int)             0x0000ef4c   ARM Code       0  QtCore{00040703}-46.o(StubCode)
    QPluginLoader::instance()                0x0000ef54   ARM Code       0  QtCore{00040703}-499.o(StubCode)
    QPluginLoader::QPluginLoader(const QString&, QObject*) 0x0000ef5c   ARM Code       0  QtCore{00040703}-501.o(StubCode)
    QPluginLoader::~QPluginLoader()          0x0000ef64   ARM Code       0  QtCore{00040703}-505.o(StubCode)
    qFree(void*)                             0x0000ef6c   ARM Code       0  QtCore{00040703}-70.o(StubCode)
    qHash(const QString&)                    0x0000ef74   ARM Code       0  QtCore{00040703}-73.o(StubCode)
    QCoreApplication::libraryPaths()         0x0000ef7c   ARM Code       0  QtCore{00040703}-753.o(StubCode)
    QCoreApplication::applicationDirPath()   0x0000ef84   ARM Code       0  QtCore{00040703}-772.o(StubCode)
    TPtrC16::TPtrC16(const unsigned short*, int) 0x0000ef8c   ARM Code       0  euser{000a0000}-1170.o(StubCode)
    RHandleBase::Close()                     0x0000ef94   ARM Code       0  euser{000a0000}-120.o(StubCode)
    User::LockedDec(int&)                    0x0000ef9c   ARM Code       0  euser{000a0000}-670.o(StubCode)
    User::LockedInc(int&)                    0x0000efa4   ARM Code       0  euser{000a0000}-671.o(StubCode)
    __aeabi_memcpy4                          0x0000efac   ARM Code       0  drtaeabi{000a0000}-147.o(StubCode)
    __aeabi_uidivmod                         0x0000efb4   ARM Code       0  drtaeabi{000a0000}-155.o(StubCode)
    __aeabi_unwind_cpp_pr0                   0x0000efbc   ARM Code       0  drtaeabi{000a0000}-158.o(StubCode)
    __cxa_begin_catch                        0x0000efc4   ARM Code       0  drtaeabi{000a0000}-180.o(StubCode)
    __cxa_end_catch                          0x0000efcc   ARM Code       0  drtaeabi{000a0000}-183.o(StubCode)
    __cxa_end_cleanup                        0x0000efd4   ARM Code       0  drtaeabi{000a0000}-184.o(StubCode)
    __cxa_guard_abort                        0x0000efdc   ARM Code       0  drtaeabi{000a0000}-186.o(StubCode)
    __cxa_guard_acquire                      0x0000efe4   ARM Code       0  drtaeabi{000a0000}-187.o(StubCode)
    __cxa_guard_release                      0x0000efec   ARM Code       0  drtaeabi{000a0000}-188.o(StubCode)
    __cxa_rethrow                            0x0000eff4   ARM Code       0  drtaeabi{000a0000}-190.o(StubCode)
    __ARM_switch8                            0x0000effc   ARM Code       0  drtrvct2_2{000a0000}-28.o(StubCode)
    qvariant_cast_helper(const QVariant&, QVariant::Type, void*) 0x0000f005   Thumb Code    16  QtVersitOrganizer.in(i._Z20qvariant_cast_helperRK8QVariantNS_4TypeEPv)
    QMultiHash<QString, QString>::~QMultiHash() 0x0000f019   Thumb Code     8  QtVersitOrganizer.in(i._ZN10QMultiHashI7QStringS0_ED1Ev)
    QMultiHash<QString, QString>::~QMultiHash__sub_object() 0x0000f019   Thumb Code     0  QtVersitOrganizer.in(i._ZN10QMultiHashI7QStringS0_ED1Ev)
    QtMobility::QOrganizerEvent::~QOrganizerEvent() 0x0000f021   Thumb Code     8  QtVersitOrganizer.in(i._ZN10QtMobility15QOrganizerEventD1Ev)
    QtMobility::QOrganizerEvent::~QOrganizerEvent__sub_object() 0x0000f021   Thumb Code     0  QtVersitOrganizer.in(i._ZN10QtMobility15QOrganizerEventD1Ev)
    QtMobility::mobilityPlugins(const QString&) 0x0000f029   Thumb Code   580  QtVersitOrganizer.in(i._ZN10QtMobility15mobilityPluginsERK7QString)
    QtMobility::QOrganizerTodoTime::setAllDay(bool) 0x0000f2fd   Thumb Code    28  QtVersitOrganizer.in(i._ZN10QtMobility18QOrganizerTodoTime9setAllDayEb)
    QtMobility::QOrganizerTodoTime::~QOrganizerTodoTime() 0x0000f327   Thumb Code     8  QtVersitOrganizer.in(i._ZN10QtMobility18QOrganizerTodoTimeD1Ev)
    QtMobility::QOrganizerTodoTime::~QOrganizerTodoTime__sub_object() 0x0000f327   Thumb Code     0  QtVersitOrganizer.in(i._ZN10QtMobility18QOrganizerTodoTimeD1Ev)
    QtMobility::QOrganizerEventTime::setEndDateTime(const QDateTime&) 0x0000f331   Thumb Code    28  QtVersitOrganizer.in(i._ZN10QtMobility19QOrganizerEventTime14setEndDateTimeERK9QDateTime)
    QtMobility::QOrganizerEventTime::setAllDay(bool) 0x0000f35d   Thumb Code    28  QtVersitOrganizer.in(i._ZN10QtMobility19QOrganizerEventTime9setAllDayEb)
    QtMobility::QOrganizerEventTime::~QOrganizerEventTime() 0x0000f387   Thumb Code     8  QtVersitOrganizer.in(i._ZN10QtMobility19QOrganizerEventTimeD1Ev)
    QtMobility::QOrganizerEventTime::~QOrganizerEventTime__sub_object() 0x0000f387   Thumb Code     0  QtVersitOrganizer.in(i._ZN10QtMobility19QOrganizerEventTimeD1Ev)
    QtMobility::QOrganizerItemParent::~QOrganizerItemParent() 0x0000f38f   Thumb Code     8  QtVersitOrganizer.in(i._ZN10QtMobility20QOrganizerItemParentD1Ev)
    QtMobility::QOrganizerItemParent::~QOrganizerItemParent__sub_object() 0x0000f38f   Thumb Code     0  QtVersitOrganizer.in(i._ZN10QtMobility20QOrganizerItemParentD1Ev)
    QtMobility::QOrganizerItemComment::~QOrganizerItemComment() 0x0000f397   Thumb Code     8  QtVersitOrganizer.in(i._ZN10QtMobility21QOrganizerItemCommentD1Ev)
    QtMobility::QOrganizerItemComment::~QOrganizerItemComment__sub_object() 0x0000f397   Thumb Code     0  QtVersitOrganizer.in(i._ZN10QtMobility21QOrganizerItemCommentD1Ev)
    QtMobility::QOrganizerJournalTime::~QOrganizerJournalTime() 0x0000f39f   Thumb Code     8  QtVersitOrganizer.in(i._ZN10QtMobility21QOrganizerJournalTimeD1Ev)
    QtMobility::QOrganizerJournalTime::~QOrganizerJournalTime__sub_object() 0x0000f39f   Thumb Code     0  QtVersitOrganizer.in(i._ZN10QtMobility21QOrganizerJournalTimeD1Ev)
    QtMobility::QOrganizerItemPriority::~QOrganizerItemPriority() 0x0000f3a7   Thumb Code     8  QtVersitOrganizer.in(i._ZN10QtMobility22QOrganizerItemPriorityD1Ev)
    QtMobility::QOrganizerItemPriority::~QOrganizerItemPriority__sub_object() 0x0000f3a7   Thumb Code     0  QtVersitOrganizer.in(i._ZN10QtMobility22QOrganizerItemPriorityD1Ev)
    QtMobility::QOrganizerTodoProgress::~QOrganizerTodoProgress() 0x0000f3af   Thumb Code     8  QtVersitOrganizer.in(i._ZN10QtMobility22QOrganizerTodoProgressD1Ev)
    QtMobility::QOrganizerTodoProgress::~QOrganizerTodoProgress__sub_object() 0x0000f3af   Thumb Code     0  QtVersitOrganizer.in(i._ZN10QtMobility22QOrganizerTodoProgressD1Ev)
    QtMobility::QOrganizerItemTimestamp::~QOrganizerItemTimestamp() 0x0000f3b7   Thumb Code     8  QtVersitOrganizer.in(i._ZN10QtMobility23QOrganizerItemTimestampD1Ev)
    QtMobility::QOrganizerItemTimestamp::~QOrganizerItemTimestamp__sub_object() 0x0000f3b7   Thumb Code     0  QtVersitOrganizer.in(i._ZN10QtMobility23QOrganizerItemTimestampD1Ev)
    QtMobility::QOrganizerItemRecurrence::~QOrganizerItemRecurrence() 0x0000f3bf   Thumb Code     8  QtVersitOrganizer.in(i._ZN10QtMobility24QOrganizerItemRecurrenceD1Ev)
    QtMobility::QOrganizerItemRecurrence::~QOrganizerItemRecurrence__sub_object() 0x0000f3bf   Thumb Code     0  QtVersitOrganizer.in(i._ZN10QtMobility24QOrganizerItemRecurrenceD1Ev)
    QtMobility::QOrganizerEventOccurrence::~QOrganizerEventOccurrence() 0x0000f3c7   Thumb Code     8  QtVersitOrganizer.in(i._ZN10QtMobility25QOrganizerEventOccurrenceD1Ev)
    QtMobility::QOrganizerEventOccurrence::~QOrganizerEventOccurrence__sub_object() 0x0000f3c7   Thumb Code     0  QtVersitOrganizer.in(i._ZN10QtMobility25QOrganizerEventOccurrenceD1Ev)
    QtMobility::Duration::invalidDuration()  0x0000f3cf   Thumb Code    32  QtVersitOrganizer.in(i._ZN10QtMobility8Duration15invalidDurationEv)
    QtMobility::Duration::Duration()         0x0000f3ef   Thumb Code    20  QtVersitOrganizer.in(i._ZN10QtMobility8DurationC1Ev)
    QtMobility::Duration::Duration__sub_object() 0x0000f3ef   Thumb Code     0  QtVersitOrganizer.in(i._ZN10QtMobility8DurationC1Ev)
    QStringList::QStringList()               0x0000f405   Thumb Code    16  QtVersitOrganizer.in(i._ZN11QStringListC1Ev)
    QStringList::QStringList__sub_object()   0x0000f405   Thumb Code     0  QtVersitOrganizer.in(i._ZN11QStringListC1Ev)
    QStringList::~QStringList()              0x0000f419   Thumb Code     8  QtVersitOrganizer.in(i._ZN11QStringListD1Ev)
    QStringList::~QStringList__sub_object()  0x0000f419   Thumb Code     0  QtVersitOrganizer.in(i._ZN11QStringListD1Ev)
    TimeZonePhase::TimeZonePhase(const TimeZonePhase&) 0x0000f421   Thumb Code    58  QtVersitOrganizer.in(i._ZN13TimeZonePhaseC1ERKS_)
    TimeZonePhase::TimeZonePhase__sub_object(const TimeZonePhase&) 0x0000f421   Thumb Code     0  QtVersitOrganizer.in(i._ZN13TimeZonePhaseC1ERKS_)
    TimeZonePhase::~TimeZonePhase()          0x0000f473   Thumb Code    32  QtVersitOrganizer.in(i._ZN13TimeZonePhaseD1Ev)
    TimeZonePhase::~TimeZonePhase__sub_object() 0x0000f473   Thumb Code     0  QtVersitOrganizer.in(i._ZN13TimeZonePhaseD1Ev)
    QBasicAtomicInt::ref()                   0x0000f4ab   Thumb Code    18  QtVersitOrganizer.in(i._ZN15QBasicAtomicInt3refEv)
    QBasicAtomicInt::deref()                 0x0000f4bd   Thumb Code    18  QtVersitOrganizer.in(i._ZN15QBasicAtomicInt5derefEv)
    QForeachContainer<QStringList>::~QForeachContainer() 0x0000f4cf   Thumb Code     8  QtVersitOrganizer.in(i._ZN17QForeachContainerI11QStringListED1Ev)
    QForeachContainer<QStringList>::~QForeachContainer__sub_object() 0x0000f4cf   Thumb Code     0  QtVersitOrganizer.in(i._ZN17QForeachContainerI11QStringListED1Ev)
    QForeachContainer<QSet<QtMobility::QOrganizerRecurrenceRule>>::~QForeachContainer() 0x0000f4d7   Thumb Code     8  QtVersitOrganizer.in(i._ZN17QForeachContainerI4QSetIN10QtMobility24QOrganizerRecurrenceRuleEEED1Ev)
    QForeachContainer<QSet<QtMobility::QOrganizerRecurrenceRule>>::~QForeachContainer__sub_object() 0x0000f4d7   Thumb Code     0  QtVersitOrganizer.in(i._ZN17QForeachContainerI4QSetIN10QtMobility24QOrganizerRecurrenceRuleEEED1Ev)
    QForeachContainer<QList<TimeZonePhase>>::~QForeachContainer() 0x0000f4df   Thumb Code     8  QtVersitOrganizer.in(i._ZN17QForeachContainerI5QListI13TimeZonePhaseEED1Ev)
    QForeachContainer<QList<TimeZonePhase>>::~QForeachContainer__sub_object() 0x0000f4df   Thumb Code     0  QtVersitOrganizer.in(i._ZN17QForeachContainerI5QListI13TimeZonePhaseEED1Ev)
    QForeachContainer<QList<QDate>>::~QForeachContainer() 0x0000f4e7   Thumb Code     8  QtVersitOrganizer.in(i._ZN17QForeachContainerI5QListI5QDateEED1Ev)
    QForeachContainer<QList<QDate>>::~QForeachContainer__sub_object() 0x0000f4e7   Thumb Code     0  QtVersitOrganizer.in(i._ZN17QForeachContainerI5QListI5QDateEED1Ev)
    QForeachContainer<QList<QtMobility::QOrganizerItem>>::~QForeachContainer() 0x0000f4ef   Thumb Code     8  QtVersitOrganizer.in(i._ZN17QForeachContainerI5QListIN10QtMobility14QOrganizerItemEEED1Ev)
    QForeachContainer<QList<QtMobility::QOrganizerItem>>::~QForeachContainer__sub_object() 0x0000f4ef   Thumb Code     0  QtVersitOrganizer.in(i._ZN17QForeachContainerI5QListIN10QtMobility14QOrganizerItemEEED1Ev)
    QForeachContainer<QList<QtMobility::QVersitDocument>>::~QForeachContainer() 0x0000f4f7   Thumb Code     8  QtVersitOrganizer.in(i._ZN17QForeachContainerI5QListIN10QtMobility15QVersitDocumentEEED1Ev)
    QForeachContainer<QList<QtMobility::QVersitDocument>>::~QForeachContainer__sub_object() 0x0000f4f7   Thumb Code     0  QtVersitOrganizer.in(i._ZN17QForeachContainerI5QListIN10QtMobility15QVersitDocumentEEED1Ev)
    QForeachContainer<QList<QtMobility::QVersitProperty>>::~QForeachContainer() 0x0000f4ff   Thumb Code     8  QtVersitOrganizer.in(i._ZN17QForeachContainerI5QListIN10QtMobility15QVersitPropertyEEED1Ev)
    QForeachContainer<QList<QtMobility::QVersitProperty>>::~QForeachContainer__sub_object() 0x0000f4ff   Thumb Code     0  QtVersitOrganizer.in(i._ZN17QForeachContainerI5QListIN10QtMobility15QVersitPropertyEEED1Ev)
    QForeachContainer<QList<QtMobility::QOrganizerItemDetail>>::~QForeachContainer() 0x0000f507   Thumb Code     8  QtVersitOrganizer.in(i._ZN17QForeachContainerI5QListIN10QtMobility20QOrganizerItemDetailEEED1Ev)
    QForeachContainer<QList<QtMobility::QOrganizerItemDetail>>::~QForeachContainer__sub_object() 0x0000f507   Thumb Code     0  QtVersitOrganizer.in(i._ZN17QForeachContainerI5QListIN10QtMobility20QOrganizerItemDetailEEED1Ev)
    QForeachContainer<QList<QtMobility::QOrganizerRecurrenceRule::Month>>::~QForeachContainer() 0x0000f50f   Thumb Code     8  QtVersitOrganizer.in(i._ZN17QForeachContainerI5QListIN10QtMobility24QOrganizerRecurrenceRule5MonthEEED1Ev)
    QForeachContainer<QList<QtMobility::QOrganizerRecurrenceRule::Month>>::~QForeachContainer__sub_object() 0x0000f50f   Thumb Code     0  QtVersitOrganizer.in(i._ZN17QForeachContainerI5QListIN10QtMobility24QOrganizerRecurrenceRule5MonthEEED1Ev)
    QForeachContainer<QList<Qt::DayOfWeek>>::~QForeachContainer() 0x0000f517   Thumb Code     8  QtVersitOrganizer.in(i._ZN17QForeachContainerI5QListIN2Qt9DayOfWeekEEED1Ev)
    QForeachContainer<QList<Qt::DayOfWeek>>::~QForeachContainer__sub_object() 0x0000f517   Thumb Code     0  QtVersitOrganizer.in(i._ZN17QForeachContainerI5QListIN2Qt9DayOfWeekEEED1Ev)
    QForeachContainer<QList<QtMobility::QVersitOrganizerHandler*>>::~QForeachContainer() 0x0000f51f   Thumb Code     8  QtVersitOrganizer.in(i._ZN17QForeachContainerI5QListIPN10QtMobility23QVersitOrganizerHandlerEEED1Ev)
    QForeachContainer<QList<QtMobility::QVersitOrganizerHandler*>>::~QForeachContainer__sub_object() 0x0000f51f   Thumb Code     0  QtVersitOrganizer.in(i._ZN17QForeachContainerI5QListIPN10QtMobility23QVersitOrganizerHandlerEEED1Ev)
    QForeachContainer<QList<QtMobility::QVersitOrganizerHandlerFactory*>>::~QForeachContainer() 0x0000f527   Thumb Code     8  QtVersitOrganizer.in(i._ZN17QForeachContainerI5QListIPN10QtMobility30QVersitOrganizerHandlerFactoryEEED1Ev)
    QForeachContainer<QList<QtMobility::QVersitOrganizerHandlerFactory*>>::~QForeachContainer__sub_object() 0x0000f527   Thumb Code     0  QtVersitOrganizer.in(i._ZN17QForeachContainerI5QListIPN10QtMobility30QVersitOrganizerHandlerFactoryEEED1Ev)
    QForeachContainer<QList<int>>::~QForeachContainer() 0x0000f52f   Thumb Code     8  QtVersitOrganizer.in(i._ZN17QForeachContainerI5QListIiEED1Ev)
    QForeachContainer<QList<int>>::~QForeachContainer__sub_object() 0x0000f52f   Thumb Code     0  QtVersitOrganizer.in(i._ZN17QForeachContainerI5QListIiEED1Ev)
    QSet<QDate>::~QSet()                     0x0000f537   Thumb Code     8  QtVersitOrganizer.in(i._ZN4QSetI5QDateED1Ev)
    QSet<QDate>::~QSet__sub_object()         0x0000f537   Thumb Code     0  QtVersitOrganizer.in(i._ZN4QSetI5QDateED1Ev)
    QSet<QString>::~QSet()                   0x0000f53f   Thumb Code     8  QtVersitOrganizer.in(i._ZN4QSetI7QStringED1Ev)
    QSet<QString>::~QSet__sub_object()       0x0000f53f   Thumb Code     0  QtVersitOrganizer.in(i._ZN4QSetI7QStringED1Ev)
    QSet<QtMobility::QOrganizerRecurrenceRule::Month>::~QSet() 0x0000f547   Thumb Code     8  QtVersitOrganizer.in(i._ZN4QSetIN10QtMobility24QOrganizerRecurrenceRule5MonthEED1Ev)
    QSet<QtMobility::QOrganizerRecurrenceRule::Month>::~QSet__sub_object() 0x0000f547   Thumb Code     0  QtVersitOrganizer.in(i._ZN4QSetIN10QtMobility24QOrganizerRecurrenceRule5MonthEED1Ev)
    QSet<QtMobility::QOrganizerRecurrenceRule>::~QSet() 0x0000f54f   Thumb Code     8  QtVersitOrganizer.in(i._ZN4QSetIN10QtMobility24QOrganizerRecurrenceRuleEED1Ev)
    QSet<QtMobility::QOrganizerRecurrenceRule>::~QSet__sub_object() 0x0000f54f   Thumb Code     0  QtVersitOrganizer.in(i._ZN4QSetIN10QtMobility24QOrganizerRecurrenceRuleEED1Ev)
    QSet<Qt::DayOfWeek>::~QSet()             0x0000f557   Thumb Code     8  QtVersitOrganizer.in(i._ZN4QSetIN2Qt9DayOfWeekEED1Ev)
    QSet<Qt::DayOfWeek>::~QSet__sub_object() 0x0000f557   Thumb Code     0  QtVersitOrganizer.in(i._ZN4QSetIN2Qt9DayOfWeekEED1Ev)
    QSet<int>::~QSet()                       0x0000f55f   Thumb Code     8  QtVersitOrganizer.in(i._ZN4QSetIiED1Ev)
    QSet<int>::~QSet__sub_object()           0x0000f55f   Thumb Code     0  QtVersitOrganizer.in(i._ZN4QSetIiED1Ev)
    QPair<QString, QString>::QPair(const QPair<QString, QString>&) 0x0000f567   Thumb Code    22  QtVersitOrganizer.in(i._ZN5QPairI7QStringS0_EC1ERKS1_)
    QPair<QString, QString>::QPair__sub_object(const QPair<QString, QString>&) 0x0000f567   Thumb Code     0  QtVersitOrganizer.in(i._ZN5QPairI7QStringS0_EC1ERKS1_)
    QPair<QString, QString>::~QPair()        0x0000f587   Thumb Code    18  QtVersitOrganizer.in(i._ZN5QPairI7QStringS0_ED1Ev)
    QPair<QString, QString>::~QPair__sub_object() 0x0000f587   Thumb Code     0  QtVersitOrganizer.in(i._ZN5QPairI7QStringS0_ED1Ev)
    QString::QString(const QLatin1String&)   0x0000f5a3   Thumb Code    20  QtVersitOrganizer.in(i._ZN7QStringC1ERK13QLatin1String)
    QString::QString__sub_object(const QLatin1String&) 0x0000f5a3   Thumb Code     0  QtVersitOrganizer.in(i._ZN7QStringC1ERK13QLatin1String)
    QString::QString(const QString&)         0x0000f5b7   Thumb Code    16  QtVersitOrganizer.in(i._ZN7QStringC1ERKS_)
    QString::QString__sub_object(const QString&) 0x0000f5b7   Thumb Code     0  QtVersitOrganizer.in(i._ZN7QStringC1ERKS_)
    QString::QString()                       0x0000f5c9   Thumb Code    16  QtVersitOrganizer.in(i._ZN7QStringC1Ev)
    QString::QString__sub_object()           0x0000f5c9   Thumb Code     0  QtVersitOrganizer.in(i._ZN7QStringC1Ev)
    QString::~QString()                      0x0000f5dd   Thumb Code    24  QtVersitOrganizer.in(i._ZN7QStringD1Ev)
    QString::~QString__sub_object()          0x0000f5dd   Thumb Code     0  QtVersitOrganizer.in(i._ZN7QStringD1Ev)
    TimeZone::~TimeZone()                    0x0000f5f5   Thumb Code    18  QtVersitOrganizer.in(i._ZN8TimeZoneD1Ev)
    TimeZone::~TimeZone__sub_object()        0x0000f5f5   Thumb Code     0  QtVersitOrganizer.in(i._ZN8TimeZoneD1Ev)
    QHashData::willGrow()                    0x0000f611   Thumb Code    28  QtVersitOrganizer.in(i._ZN9QHashData8willGrowEv)
    QHashData::firstNode()                   0x0000f62d   Thumb Code    24  QtVersitOrganizer.in(i._ZN9QHashData9firstNodeEv)
    TimeZones::~TimeZones()                  0x0000f645   Thumb Code     8  QtVersitOrganizer.in(i._ZN9TimeZonesD1Ev)
    TimeZones::~TimeZones__sub_object()      0x0000f645   Thumb Code     0  QtVersitOrganizer.in(i._ZN9TimeZonesD1Ev)
    QtMobility::QOrganizerTodoTime::dueDateTime() const 0x0000f64d   Thumb Code    10  QtVersitOrganizer.in(i._ZNK10QtMobility18QOrganizerTodoTime11dueDateTimeEv)
    QtMobility::QOrganizerTodoTime::startDateTime() const 0x0000f65d   Thumb Code    10  QtVersitOrganizer.in(i._ZNK10QtMobility18QOrganizerTodoTime13startDateTimeEv)
    QtMobility::QOrganizerEventTime::endDateTime() const 0x0000f66d   Thumb Code    10  QtVersitOrganizer.in(i._ZNK10QtMobility19QOrganizerEventTime11endDateTimeEv)
    QtMobility::QOrganizerEventTime::startDateTime() const 0x0000f67d   Thumb Code    10  QtVersitOrganizer.in(i._ZNK10QtMobility19QOrganizerEventTime13startDateTimeEv)
    QtMobility::QOrganizerTodoProgress::finishedDateTime() const 0x0000f68d   Thumb Code    10  QtVersitOrganizer.in(i._ZNK10QtMobility22QOrganizerTodoProgress16finishedDateTimeEv)
    QBasicAtomicInt::operator ==(int) const  0x0000f69d   Thumb Code    14  QtVersitOrganizer.in(i._ZNK15QBasicAtomicInteqEi)
    QBasicAtomicInt::operator !=(int) const  0x0000f6ab   Thumb Code    14  QtVersitOrganizer.in(i._ZNK15QBasicAtomicIntneEi)
    QString::at(int) const                   0x0000f6b9   Thumb Code    14  QtVersitOrganizer.in(i._ZNK7QString2atEi)
    QString::isEmpty() const                 0x0000f6c7   Thumb Code    16  QtVersitOrganizer.in(i._ZNK7QString7isEmptyEv)
    QString::operator !=(const QLatin1String&) const 0x0000f6d7   Thumb Code    12  QtVersitOrganizer.in(i._ZNK7QStringneERK13QLatin1String)
    TimeZone::isValid() const                0x0000f6e5   Thumb Code   130  QtVersitOrganizer.in(i._ZNK8TimeZone7isValidEv)
    QListData::end() const                   0x0000f777   Thumb Code    12  QtVersitOrganizer.in(i._ZNK9QListData3endEv)
    QListData::begin() const                 0x0000f783   Thumb Code    12  QtVersitOrganizer.in(i._ZNK9QListData5beginEv)
    QListData::isEmpty() const               0x0000f78f   Thumb Code    18  QtVersitOrganizer.in(i._ZNK9QListData7isEmptyEv)
    operator delete (void*, void*)           0x0000f7a1   Thumb Code     2  QtVersitOrganizer.in(i._ZdlPvS_)
    operator ==(QChar, QChar)                0x0000f7a3   Thumb Code    20  QtVersitOrganizer.in(i._Zeq5QCharS_)
    operator new(unsigned, void*)            0x0000f7b7   Thumb Code     4  QtVersitOrganizer.in(i._ZnwjPv)
    qMapLessThanKey<QString>(const T1&, const T1&) 0x0000f7bb   Thumb Code     8  QtVersitOrganizer.in(t._Z15qMapLessThanKeyI7QStringEbRKT_S3_)
    qMapLessThanKey<int>(const T1&, const T1&) 0x0000f7c3   Thumb Code    16  QtVersitOrganizer.in(t._Z15qMapLessThanKeyIiEbRKT_S2_)
    qForeachContainerNew<QStringList>(const T1&) 0x0000f7d3   Thumb Code    58  QtVersitOrganizer.in(t._Z20qForeachContainerNewI11QStringListE17QForeachContainerIT_ERKS2_)
    qForeachContainerNew<QList<TimeZonePhase>>(const T1&) 0x0000f817   Thumb Code    46  QtVersitOrganizer.in(t._Z20qForeachContainerNewI5QListI13TimeZonePhaseEE17QForeachContainerIT_ERKS4_)
    qForeachContainerNew<QList<QtMobility::QVersitProperty>>(const T1&) 0x0000f84f   Thumb Code    60  QtVersitOrganizer.in(t._Z20qForeachContainerNewI5QListIN10QtMobility15QVersitPropertyEEE17QForeachContainerIT_ERKS5_)
    qForeachContainerNew<QList<QtMobility::QVersitOrganizerHandler*>>(const T1&) 0x0000f895   Thumb Code    60  QtVersitOrganizer.in(t._Z20qForeachContainerNewI5QListIPN10QtMobility23QVersitOrganizerHandlerEEE17QForeachContainerIT_ERKS6_)
    qSwap<QDate>(T1&, T1&)                   0x0000f8db   Thumb Code    10  QtVersitOrganizer.in(t._Z5qSwapI5QDateEvRT_S2_)
    qSwap<QtMobility::QOrganizerRecurrenceRule::Month>(T1&, T1&) 0x0000f8e5   Thumb Code    10  QtVersitOrganizer.in(t._Z5qSwapIN10QtMobility24QOrganizerRecurrenceRule5MonthEEvRT_S4_)
    qSwap<Qt::DayOfWeek>(T1&, T1&)           0x0000f8ef   Thumb Code    10  QtVersitOrganizer.in(t._Z5qSwapIN2Qt9DayOfWeekEEvRT_S3_)
    qSwap<QtMobility::QVersitOrganizerHandlerFactory*>(T1&, T1&) 0x0000f8f9   Thumb Code    10  QtVersitOrganizer.in(t._Z5qSwapIPN10QtMobility30QVersitOrganizerHandlerFactoryEEvRT_S4_)
    qSwap<int>(T1&, T1&)                     0x0000f903   Thumb Code    10  QtVersitOrganizer.in(t._Z5qSwapIiEvRT_S1_)
    QtMobility::operator ==<(int)10>(const QString&, const QtMobility::QLatin1Constant<T1>&) 0x0000f90d   Thumb Code    12  QtVersitOrganizer.in(t._ZN10QtMobilityeqILi10EEEbRK7QStringRKNS_15QLatin1ConstantIXT_EEE)
    QtMobility::operator ==<(int)16>(const QString&, const QtMobility::QLatin1Constant<T1>&) 0x0000f919   Thumb Code    12  QtVersitOrganizer.in(t._ZN10QtMobilityeqILi16EEEbRK7QStringRKNS_15QLatin1ConstantIXT_EEE)
    QtMobility::operator ==<(int)8>(const QString&, const QtMobility::QLatin1Constant<T1>&) 0x0000f925   Thumb Code    12  QtVersitOrganizer.in(t._ZN10QtMobilityeqILi8EEEbRK7QStringRKNS_15QLatin1ConstantIXT_EEE)
    QtMobility::operator ==<(int)9>(const QString&, const QtMobility::QLatin1Constant<T1>&) 0x0000f931   Thumb Code    12  QtVersitOrganizer.in(t._ZN10QtMobilityeqILi9EEEbRK7QStringRKNS_15QLatin1ConstantIXT_EEE)
    QHashDummyNode<QString, QHashDummyValue>::QHashDummyNode(const QString&) 0x0000f93d   Thumb Code    12  QtVersitOrganizer.in(t._ZN14QHashDummyNodeI7QString15QHashDummyValueEC1ERKS0_)
    QHashDummyNode<QString, QHashDummyValue>::QHashDummyNode__sub_object(const QString&) 0x0000f93d   Thumb Code     0  QtVersitOrganizer.in(t._ZN14QHashDummyNodeI7QString15QHashDummyValueEC1ERKS0_)
    QHashDummyNode<QtMobility::QOrganizerRecurrenceRule, QHashDummyValue>::QHashDummyNode(const QtMobility::QOrganizerRecurrenceRule&) 0x0000f949   Thumb Code    12  QtVersitOrganizer.in(t._ZN14QHashDummyNodeIN10QtMobility24QOrganizerRecurrenceRuleE15QHashDummyValueEC1ERKS1_)
    QHashDummyNode<QtMobility::QOrganizerRecurrenceRule, QHashDummyValue>::QHashDummyNode__sub_object(const QtMobility::QOrganizerRecurrenceRule&) 0x0000f949   Thumb Code     0  QtVersitOrganizer.in(t._ZN14QHashDummyNodeIN10QtMobility24QOrganizerRecurrenceRuleE15QHashDummyValueEC1ERKS1_)
    QForeachContainer<QSet<QtMobility::QOrganizerRecurrenceRule>>::QForeachContainer(const QSet<QtMobility::QOrganizerRecurrenceRule>&) 0x0000f955   Thumb Code   104  QtVersitOrganizer.in(t._ZN17QForeachContainerI4QSetIN10QtMobility24QOrganizerRecurrenceRuleEEEC1ERKS3_)
    QForeachContainer<QSet<QtMobility::QOrganizerRecurrenceRule>>::QForeachContainer__sub_object(const QSet<QtMobility::QOrganizerRecurrenceRule>&) 0x0000f955   Thumb Code     0  QtVersitOrganizer.in(t._ZN17QForeachContainerI4QSetIN10QtMobility24QOrganizerRecurrenceRuleEEEC1ERKS3_)
    QAlgorithmsPrivate::qSortHelper<QList<QDate>::iterator, QDate, qLess<QDate>>(T1, T1, const T2&, T3) 0x0000f9cf   Thumb Code   294  QtVersitOrganizer.in(t._ZN18QAlgorithmsPrivate11qSortHelperIN5QListI5QDateE8iteratorES2_5qLessIS2_EEEvT_S7_RKT0_T1_)
    QAlgorithmsPrivate::qSortHelper<QList<QtMobility::QOrganizerRecurrenceRule::Month>::iterator, QtMobility::QOrganizerRecurrenceRule::Month, qLess<QtMobility::QOrganizerRecurrenceRule::Month>>(T1, T1, const T2&, T3) 0x0000faf5   Thumb Code   342  QtVersitOrganizer.in(t._ZN18QAlgorithmsPrivate11qSortHelperIN5QListIN10QtMobility24QOrganizerRecurrenceRule5MonthEE8iteratorES4_5qLessIS4_EEEvT_S9_RKT0_T1_)
    QAlgorithmsPrivate::qSortHelper<QList<Qt::DayOfWeek>::iterator, Qt::DayOfWeek, qLess<Qt::DayOfWeek>>(T1, T1, const T2&, T3) 0x0000fc4b   Thumb Code   342  QtVersitOrganizer.in(t._ZN18QAlgorithmsPrivate11qSortHelperIN5QListIN2Qt9DayOfWeekEE8iteratorES3_5qLessIS3_EEEvT_S8_RKT0_T1_)
    QAlgorithmsPrivate::qSortHelper<QList<QtMobility::QVersitOrganizerHandlerFactory*>::iterator, QtMobility::QVersitOrganizerHandlerFactory*, bool(*)(QtMobility::QVersitOrganizerHandlerFactory*, QtMobility::QVersitOrganizerHandlerFactory*)>(T1, T1, const T2&, T3) 0x0000fda1   Thumb Code   294  QtVersitOrganizer.in(t._ZN18QAlgorithmsPrivate11qSortHelperIN5QListIPN10QtMobility30QVersitOrganizerHandlerFactoryEE8iteratorES4_PFbS4_S4_EEEvT_S9_RKT0_T1_)
    QAlgorithmsPrivate::qSortHelper<QList<int>::iterator, int, qLess<int>>(T1, T1, const T2&, T3) 0x0000fec7   Thumb Code   294  QtVersitOrganizer.in(t._ZN18QAlgorithmsPrivate11qSortHelperIN5QListIiE8iteratorEi5qLessIiEEEvT_S6_RKT0_T1_)
    QMap<QString, QPair<QString, QString>>::node_create(QMapData*, QMapData::Node**, const QString&, const QPair<QString, QString>&) 0x0000ffed   Thumb Code   106  QtVersitOrganizer.in(t._ZN4QMapI7QString5QPairIS0_S0_EE11node_createEP8QMapDataPPNS4_4NodeERKS0_RKS2_)
    QMap<QString, QPair<QString, QString>>::detach_helper() 0x0001007d   Thumb Code   114  QtVersitOrganizer.in(t._ZN4QMapI7QString5QPairIS0_S0_EE13detach_helperEv)
    QMap<QString, QPair<QString, QString>>::detach() 0x000100f7   Thumb Code    26  QtVersitOrganizer.in(t._ZN4QMapI7QString5QPairIS0_S0_EE6detachEv)
    QMap<QString, QPair<QString, QString>>::freeData(QMapData*) 0x00010111   Thumb Code    42  QtVersitOrganizer.in(t._ZN4QMapI7QString5QPairIS0_S0_EE8freeDataEP8QMapData)
    QMap<QString, QPair<QString, QString>>::~QMap() 0x0001013b   Thumb Code    32  QtVersitOrganizer.in(t._ZN4QMapI7QString5QPairIS0_S0_EED1Ev)
    QMap<QString, QPair<QString, QString>>::~QMap__sub_object() 0x0001013b   Thumb Code     0  QtVersitOrganizer.in(t._ZN4QMapI7QString5QPairIS0_S0_EED1Ev)
    QMap<QString, QPair<QString, QString>>::operator [](const QString&) 0x0001015b   Thumb Code   106  QtVersitOrganizer.in(t._ZN4QMapI7QString5QPairIS0_S0_EEixERKS0_)
    QMap<QString, QString>::~QMap()          0x000101e1   Thumb Code    62  QtVersitOrganizer.in(t._ZN4QMapI7QStringS0_ED1Ev)
    QMap<QString, QString>::~QMap__sub_object() 0x000101e1   Thumb Code     0  QtVersitOrganizer.in(t._ZN4QMapI7QStringS0_ED1Ev)
    QMap<int, QtMobility::QVersitOrganizerExporter::Error>::node_create(QMapData*, QMapData::Node**, const int&, const QtMobility::QVersitOrganizerExporter::Error&) 0x0001021f   Thumb Code    60  QtVersitOrganizer.in(t._ZN4QMapIiN10QtMobility24QVersitOrganizerExporter5ErrorEE11node_createEP8QMapDataPPNS4_4NodeERKiRKS2_)
    QMap<int, QtMobility::QVersitOrganizerExporter::Error>::detach_helper() 0x0001025b   Thumb Code   114  QtVersitOrganizer.in(t._ZN4QMapIiN10QtMobility24QVersitOrganizerExporter5ErrorEE13detach_helperEv)
    QMap<int, QtMobility::QVersitOrganizerExporter::Error>::clear() 0x000102d5   Thumb Code    90  QtVersitOrganizer.in(t._ZN4QMapIiN10QtMobility24QVersitOrganizerExporter5ErrorEE5clearEv)
    QMap<int, QtMobility::QVersitOrganizerExporter::Error>::detach() 0x0001033f   Thumb Code    26  QtVersitOrganizer.in(t._ZN4QMapIiN10QtMobility24QVersitOrganizerExporter5ErrorEE6detachEv)
    QMap<int, QtMobility::QVersitOrganizerExporter::Error>::freeData(QMapData*) 0x00010359   Thumb Code    22  QtVersitOrganizer.in(t._ZN4QMapIiN10QtMobility24QVersitOrganizerExporter5ErrorEE8freeDataEP8QMapData)
    QMap<int, QtMobility::QVersitOrganizerExporter::Error>::~QMap() 0x0001036f   Thumb Code    32  QtVersitOrganizer.in(t._ZN4QMapIiN10QtMobility24QVersitOrganizerExporter5ErrorEED1Ev)
    QMap<int, QtMobility::QVersitOrganizerExporter::Error>::~QMap__sub_object() 0x0001036f   Thumb Code     0  QtVersitOrganizer.in(t._ZN4QMapIiN10QtMobility24QVersitOrganizerExporter5ErrorEED1Ev)
    QMap<int, QtMobility::QVersitOrganizerImporter::Error>::node_create(QMapData*, QMapData::Node**, const int&, const QtMobility::QVersitOrganizerImporter::Error&) 0x0001038f   Thumb Code    60  QtVersitOrganizer.in(t._ZN4QMapIiN10QtMobility24QVersitOrganizerImporter5ErrorEE11node_createEP8QMapDataPPNS4_4NodeERKiRKS2_)
    QMap<int, QtMobility::QVersitOrganizerImporter::Error>::detach_helper() 0x000103cb   Thumb Code   114  QtVersitOrganizer.in(t._ZN4QMapIiN10QtMobility24QVersitOrganizerImporter5ErrorEE13detach_helperEv)
    QMap<int, QtMobility::QVersitOrganizerImporter::Error>::clear() 0x00010445   Thumb Code    90  QtVersitOrganizer.in(t._ZN4QMapIiN10QtMobility24QVersitOrganizerImporter5ErrorEE5clearEv)
    QMap<int, QtMobility::QVersitOrganizerImporter::Error>::detach() 0x000104af   Thumb Code    26  QtVersitOrganizer.in(t._ZN4QMapIiN10QtMobility24QVersitOrganizerImporter5ErrorEE6detachEv)
    QMap<int, QtMobility::QVersitOrganizerImporter::Error>::insert(const int&, const QtMobility::QVersitOrganizerImporter::Error&) 0x000104c9   Thumb Code   130  QtVersitOrganizer.in(t._ZN4QMapIiN10QtMobility24QVersitOrganizerImporter5ErrorEE6insertERKiRKS2_)
    QMap<int, QtMobility::QVersitOrganizerImporter::Error>::freeData(QMapData*) 0x0001054b   Thumb Code    22  QtVersitOrganizer.in(t._ZN4QMapIiN10QtMobility24QVersitOrganizerImporter5ErrorEE8freeDataEP8QMapData)
    QMap<int, QtMobility::QVersitOrganizerImporter::Error>::~QMap() 0x00010561   Thumb Code    32  QtVersitOrganizer.in(t._ZN4QMapIiN10QtMobility24QVersitOrganizerImporter5ErrorEED1Ev)
    QMap<int, QtMobility::QVersitOrganizerImporter::Error>::~QMap__sub_object() 0x00010561   Thumb Code     0  QtVersitOrganizer.in(t._ZN4QMapIiN10QtMobility24QVersitOrganizerImporter5ErrorEED1Ev)
    QSet<QDate>::unite(const QSet<QDate>&)   0x00010581   Thumb Code    82  QtVersitOrganizer.in(t._ZN4QSetI5QDateE5uniteERKS1_)
    QSet<QDate>::insert(const QDate&)        0x000105dd   Thumb Code   114  QtVersitOrganizer.in(t._ZN4QSetI5QDateE6insertERKS0_)
    QSet<QDate>::QSet(const QSet<QDate>&)    0x0001064f   Thumb Code    32  QtVersitOrganizer.in(t._ZN4QSetI5QDateEC1ERKS1_)
    QSet<QDate>::QSet__sub_object(const QSet<QDate>&) 0x0001064f   Thumb Code     0  QtVersitOrganizer.in(t._ZN4QSetI5QDateEC1ERKS1_)
    QSet<QDate>::QSet()                      0x00010671   Thumb Code    18  QtVersitOrganizer.in(t._ZN4QSetI5QDateEC1Ev)
    QSet<QDate>::QSet__sub_object()          0x00010671   Thumb Code     0  QtVersitOrganizer.in(t._ZN4QSetI5QDateEC1Ev)
    QSet<QDate>::operator +(const QSet<QDate>&) 0x00010689   Thumb Code    18  QtVersitOrganizer.in(t._ZN4QSetI5QDateEplERKS1_)
    QSet<QString>::insert(const QString&)    0x000106a5   Thumb Code    22  QtVersitOrganizer.in(t._ZN4QSetI7QStringE6insertERKS0_)
    QSet<QString>::QSet()                    0x000106bd   Thumb Code    18  QtVersitOrganizer.in(t._ZN4QSetI7QStringEC1Ev)
    QSet<QString>::QSet__sub_object()        0x000106bd   Thumb Code     0  QtVersitOrganizer.in(t._ZN4QSetI7QStringEC1Ev)
    QSet<QString>::operator <<(const QString&) 0x000106d5   Thumb Code    20  QtVersitOrganizer.in(t._ZN4QSetI7QStringElsERKS0_)
    QSet<QtMobility::QOrganizerRecurrenceRule>::const_iterator::operator ++() 0x000106e9   Thumb Code    16  QtVersitOrganizer.in(t._ZN4QSetIN10QtMobility24QOrganizerRecurrenceRuleEE14const_iteratorppEv)
    QSet<QtMobility::QOrganizerRecurrenceRule>::operator <<(const QtMobility::QOrganizerRecurrenceRule&) 0x000106f9   Thumb Code    20  QtVersitOrganizer.in(t._ZN4QSetIN10QtMobility24QOrganizerRecurrenceRuleEElsERKS1_)
    QSet<int>::QSet()                        0x0001070d   Thumb Code    18  QtVersitOrganizer.in(t._ZN4QSetIiEC1Ev)
    QSet<int>::QSet__sub_object()            0x0001070d   Thumb Code     0  QtVersitOrganizer.in(t._ZN4QSetIiEC1Ev)
    QSet<int>::operator <<(const int&)       0x00010725   Thumb Code    20  QtVersitOrganizer.in(t._ZN4QSetIiElsERKi)
    QHash<QDate, QHashDummyValue>::deleteNode2(QHashData::Node*) 0x00010739   Thumb Code     2  QtVersitOrganizer.in(t._ZN5QHashI5QDate15QHashDummyValueE11deleteNode2EPN9QHashData4NodeE)
    QHash<QDate, QHashDummyValue>::detach_helper() 0x0001073d   Thumb Code    46  QtVersitOrganizer.in(t._ZN5QHashI5QDate15QHashDummyValueE13detach_helperEv)
    QHash<QDate, QHashDummyValue>::duplicateNode(QHashData::Node*, void*) 0x00010775   Thumb Code    20  QtVersitOrganizer.in(t._ZN5QHashI5QDate15QHashDummyValueE13duplicateNodeEPN9QHashData4NodeEPv)
    QHash<QDate, QHashDummyValue>::detach()  0x00010789   Thumb Code    26  QtVersitOrganizer.in(t._ZN5QHashI5QDate15QHashDummyValueE6detachEv)
    QHash<QDate, QHashDummyValue>::freeData(QHashData*) 0x000107a5   Thumb Code    12  QtVersitOrganizer.in(t._ZN5QHashI5QDate15QHashDummyValueE8freeDataEP9QHashData)
    QHash<QDate, QHashDummyValue>::~QHash()  0x000107b5   Thumb Code    28  QtVersitOrganizer.in(t._ZN5QHashI5QDate15QHashDummyValueED1Ev)
    QHash<QDate, QHashDummyValue>::~QHash__sub_object() 0x000107b5   Thumb Code     0  QtVersitOrganizer.in(t._ZN5QHashI5QDate15QHashDummyValueED1Ev)
    QHash<QString, QHashDummyValue>::deleteNode2(QHashData::Node*) 0x000107d1   Thumb Code    10  QtVersitOrganizer.in(t._ZN5QHashI7QString15QHashDummyValueE11deleteNode2EPN9QHashData4NodeE)
    QHash<QString, QHashDummyValue>::duplicateNode(QHashData::Node*, void*) 0x000107db   Thumb Code    28  QtVersitOrganizer.in(t._ZN5QHashI7QString15QHashDummyValueE13duplicateNodeEPN9QHashData4NodeEPv)
    QHash<QString, QHashDummyValue>::insert(const QString&, const QHashDummyValue&) 0x00010805   Thumb Code   170  QtVersitOrganizer.in(t._ZN5QHashI7QString15QHashDummyValueE6insertERKS0_RKS1_)
    QHash<QString, QHashDummyValue>::freeData(QHashData*) 0x000108c5   Thumb Code    12  QtVersitOrganizer.in(t._ZN5QHashI7QString15QHashDummyValueE8freeDataEP9QHashData)
    QHash<QString, QHashDummyValue>::~QHash() 0x000108d5   Thumb Code    28  QtVersitOrganizer.in(t._ZN5QHashI7QString15QHashDummyValueED1Ev)
    QHash<QString, QHashDummyValue>::~QHash__sub_object() 0x000108d5   Thumb Code     0  QtVersitOrganizer.in(t._ZN5QHashI7QString15QHashDummyValueED1Ev)
    QHash<QString, TimeZone>::deleteNode2(QHashData::Node*) 0x000108f1   Thumb Code    18  QtVersitOrganizer.in(t._ZN5QHashI7QString8TimeZoneE11deleteNode2EPN9QHashData4NodeE)
    QHash<QString, TimeZone>::duplicateNode(QHashData::Node*, void*) 0x0001090f   Thumb Code    30  QtVersitOrganizer.in(t._ZN5QHashI7QString8TimeZoneE13duplicateNodeEPN9QHashData4NodeEPv)
    QHash<QString, TimeZone>::insert(const QString&, const TimeZone&) 0x00010939   Thumb Code   224  QtVersitOrganizer.in(t._ZN5QHashI7QString8TimeZoneE6insertERKS0_RKS1_)
    QHash<QString, TimeZone>::freeData(QHashData*) 0x00010a2d   Thumb Code    12  QtVersitOrganizer.in(t._ZN5QHashI7QString8TimeZoneE8freeDataEP9QHashData)
    QHash<QString, TimeZone>::~QHash()       0x00010a3d   Thumb Code    28  QtVersitOrganizer.in(t._ZN5QHashI7QString8TimeZoneED1Ev)
    QHash<QString, TimeZone>::~QHash__sub_object() 0x00010a3d   Thumb Code     0  QtVersitOrganizer.in(t._ZN5QHashI7QString8TimeZoneED1Ev)
    QHash<QString, QString>::deleteNode2(QHashData::Node*) 0x00010a59   Thumb Code    18  QtVersitOrganizer.in(t._ZN5QHashI7QStringS0_E11deleteNode2EPN9QHashData4NodeE)
    QHash<QString, QString>::~QHash()        0x00010a79   Thumb Code    28  QtVersitOrganizer.in(t._ZN5QHashI7QStringS0_ED1Ev)
    QHash<QString, QString>::~QHash__sub_object() 0x00010a79   Thumb Code     0  QtVersitOrganizer.in(t._ZN5QHashI7QStringS0_ED1Ev)
    QHash<QtMobility::QOrganizerRecurrenceRule::Month, QHashDummyValue>::deleteNode2(QHashData::Node*) 0x00010a99   Thumb Code     2  QtVersitOrganizer.in(t._ZN5QHashIN10QtMobility24QOrganizerRecurrenceRule5MonthE15QHashDummyValueE11deleteNode2EPN9QHashData4NodeE)
    QHash<QtMobility::QOrganizerRecurrenceRule::Month, QHashDummyValue>::duplicateNode(QHashData::Node*, void*) 0x00010a9b   Thumb Code    20  QtVersitOrganizer.in(t._ZN5QHashIN10QtMobility24QOrganizerRecurrenceRule5MonthE15QHashDummyValueE13duplicateNodeEPN9QHashData4NodeEPv)
    QHash<QtMobility::QOrganizerRecurrenceRule::Month, QHashDummyValue>::insert(const QtMobility::QOrganizerRecurrenceRule::Month&, const QHashDummyValue&) 0x00010ab1   Thumb Code   152  QtVersitOrganizer.in(t._ZN5QHashIN10QtMobility24QOrganizerRecurrenceRule5MonthE15QHashDummyValueE6insertERKS2_RKS3_)
    QHash<QtMobility::QOrganizerRecurrenceRule::Month, QHashDummyValue>::freeData(QHashData*) 0x00010b51   Thumb Code    12  QtVersitOrganizer.in(t._ZN5QHashIN10QtMobility24QOrganizerRecurrenceRule5MonthE15QHashDummyValueE8freeDataEP9QHashData)
    QHash<QtMobility::QOrganizerRecurrenceRule::Month, QHashDummyValue>::~QHash() 0x00010b61   Thumb Code    28  QtVersitOrganizer.in(t._ZN5QHashIN10QtMobility24QOrganizerRecurrenceRule5MonthE15QHashDummyValueED1Ev)
    QHash<QtMobility::QOrganizerRecurrenceRule::Month, QHashDummyValue>::~QHash__sub_object() 0x00010b61   Thumb Code     0  QtVersitOrganizer.in(t._ZN5QHashIN10QtMobility24QOrganizerRecurrenceRule5MonthE15QHashDummyValueED1Ev)
    QHash<QtMobility::QOrganizerRecurrenceRule, QHashDummyValue>::deleteNode2(QHashData::Node*) 0x00010b7d   Thumb Code    10  QtVersitOrganizer.in(t._ZN5QHashIN10QtMobility24QOrganizerRecurrenceRuleE15QHashDummyValueE11deleteNode2EPN9QHashData4NodeE)
    QHash<QtMobility::QOrganizerRecurrenceRule, QHashDummyValue>::duplicateNode(QHashData::Node*, void*) 0x00010b87   Thumb Code    28  QtVersitOrganizer.in(t._ZN5QHashIN10QtMobility24QOrganizerRecurrenceRuleE15QHashDummyValueE13duplicateNodeEPN9QHashData4NodeEPv)
    QHash<QtMobility::QOrganizerRecurrenceRule, QHashDummyValue>::insert(const QtMobility::QOrganizerRecurrenceRule&, const QHashDummyValue&) 0x00010bb1   Thumb Code   160  QtVersitOrganizer.in(t._ZN5QHashIN10QtMobility24QOrganizerRecurrenceRuleE15QHashDummyValueE6insertERKS1_RKS2_)
    QHash<QtMobility::QOrganizerRecurrenceRule, QHashDummyValue>::freeData(QHashData*) 0x00010c65   Thumb Code    12  QtVersitOrganizer.in(t._ZN5QHashIN10QtMobility24QOrganizerRecurrenceRuleE15QHashDummyValueE8freeDataEP9QHashData)
    QHash<QtMobility::QOrganizerRecurrenceRule, QHashDummyValue>::~QHash() 0x00010c75   Thumb Code    28  QtVersitOrganizer.in(t._ZN5QHashIN10QtMobility24QOrganizerRecurrenceRuleE15QHashDummyValueED1Ev)
    QHash<QtMobility::QOrganizerRecurrenceRule, QHashDummyValue>::~QHash__sub_object() 0x00010c75   Thumb Code     0  QtVersitOrganizer.in(t._ZN5QHashIN10QtMobility24QOrganizerRecurrenceRuleE15QHashDummyValueED1Ev)
    QHash<Qt::DayOfWeek, QHashDummyValue>::deleteNode2(QHashData::Node*) 0x00010c91   Thumb Code     2  QtVersitOrganizer.in(t._ZN5QHashIN2Qt9DayOfWeekE15QHashDummyValueE11deleteNode2EPN9QHashData4NodeE)
    QHash<Qt::DayOfWeek, QHashDummyValue>::duplicateNode(QHashData::Node*, void*) 0x00010c93   Thumb Code    20  QtVersitOrganizer.in(t._ZN5QHashIN2Qt9DayOfWeekE15QHashDummyValueE13duplicateNodeEPN9QHashData4NodeEPv)
    QHash<Qt::DayOfWeek, QHashDummyValue>::insert(const Qt::DayOfWeek&, const QHashDummyValue&) 0x00010ca9   Thumb Code   152  QtVersitOrganizer.in(t._ZN5QHashIN2Qt9DayOfWeekE15QHashDummyValueE6insertERKS1_RKS2_)
    QHash<Qt::DayOfWeek, QHashDummyValue>::freeData(QHashData*) 0x00010d49   Thumb Code    12  QtVersitOrganizer.in(t._ZN5QHashIN2Qt9DayOfWeekE15QHashDummyValueE8freeDataEP9QHashData)
    QHash<Qt::DayOfWeek, QHashDummyValue>::~QHash() 0x00010d59   Thumb Code    28  QtVersitOrganizer.in(t._ZN5QHashIN2Qt9DayOfWeekE15QHashDummyValueED1Ev)
    QHash<Qt::DayOfWeek, QHashDummyValue>::~QHash__sub_object() 0x00010d59   Thumb Code     0  QtVersitOrganizer.in(t._ZN5QHashIN2Qt9DayOfWeekE15QHashDummyValueED1Ev)
    QHash<int, QHashDummyValue>::deleteNode2(QHashData::Node*) 0x00010d75   Thumb Code     2  QtVersitOrganizer.in(t._ZN5QHashIi15QHashDummyValueE11deleteNode2EPN9QHashData4NodeE)
    QHash<int, QHashDummyValue>::duplicateNode(QHashData::Node*, void*) 0x00010d77   Thumb Code    10  QtVersitOrganizer.in(t._ZN5QHashIi15QHashDummyValueE13duplicateNodeEPN9QHashData4NodeEPv)
    QHash<int, QHashDummyValue>::insert(const int&, const QHashDummyValue&) 0x00010d81   Thumb Code   144  QtVersitOrganizer.in(t._ZN5QHashIi15QHashDummyValueE6insertERKiRKS0_)
    QHash<int, QHashDummyValue>::freeData(QHashData*) 0x00010e19   Thumb Code    12  QtVersitOrganizer.in(t._ZN5QHashIi15QHashDummyValueE8freeDataEP9QHashData)
    QHash<int, QHashDummyValue>::~QHash()    0x00010e29   Thumb Code    28  QtVersitOrganizer.in(t._ZN5QHashIi15QHashDummyValueED1Ev)
    QHash<int, QHashDummyValue>::~QHash__sub_object() 0x00010e29   Thumb Code     0  QtVersitOrganizer.in(t._ZN5QHashIi15QHashDummyValueED1Ev)
    QList<TimeZonePhase>::detach_helper(int) 0x00010e45   Thumb Code   152  QtVersitOrganizer.in(t._ZN5QListI13TimeZonePhaseE13detach_helperEi)
    QList<TimeZonePhase>::detach_helper()    0x00010eef   Thumb Code    88  QtVersitOrganizer.in(t._ZN5QListI13TimeZonePhaseE13detach_helperEv)
    QList<TimeZonePhase>::node_destruct(QList<TimeZonePhase>::Node*, QList<TimeZonePhase>::Node*) 0x00010f4f   Thumb Code    30  QtVersitOrganizer.in(t._ZN5QListI13TimeZonePhaseE13node_destructEPNS1_4NodeES3_)
    QList<TimeZonePhase>::node_construct(QList<TimeZonePhase>::Node*, const TimeZonePhase&) 0x00010f6d   Thumb Code    32  QtVersitOrganizer.in(t._ZN5QListI13TimeZonePhaseE14node_constructEPNS1_4NodeERKS0_)
    QList<TimeZonePhase>::detach_helper_grow(int, int) 0x00010f97   Thumb Code   180  QtVersitOrganizer.in(t._ZN5QListI13TimeZonePhaseE18detach_helper_growEii)
    QList<TimeZonePhase>::free(QListData::Data*) 0x00011053   Thumb Code    44  QtVersitOrganizer.in(t._ZN5QListI13TimeZonePhaseE4freeEPN9QListData4DataE)
    QList<TimeZonePhase>::append(const TimeZonePhase&) 0x00011081   Thumb Code    90  QtVersitOrganizer.in(t._ZN5QListI13TimeZonePhaseE6appendERKS0_)
    QList<TimeZonePhase>::node_copy(QList<TimeZonePhase>::Node*, QList<TimeZonePhase>::Node*, QList<TimeZonePhase>::Node*) 0x000110e9   Thumb Code    80  QtVersitOrganizer.in(t._ZN5QListI13TimeZonePhaseE9node_copyEPNS1_4NodeES3_S3_)
    QList<TimeZonePhase>::QList(const QList<TimeZonePhase>&) 0x0001114b   Thumb Code    32  QtVersitOrganizer.in(t._ZN5QListI13TimeZonePhaseEC1ERKS1_)
    QList<TimeZonePhase>::QList__sub_object(const QList<TimeZonePhase>&) 0x0001114b   Thumb Code     0  QtVersitOrganizer.in(t._ZN5QListI13TimeZonePhaseEC1ERKS1_)
    QList<TimeZonePhase>::~QList()           0x0001116b   Thumb Code    30  QtVersitOrganizer.in(t._ZN5QListI13TimeZonePhaseED1Ev)
    QList<TimeZonePhase>::~QList__sub_object() 0x0001116b   Thumb Code     0  QtVersitOrganizer.in(t._ZN5QListI13TimeZonePhaseED1Ev)
    QList<QDate>::detach_helper(int)         0x00011189   Thumb Code    86  QtVersitOrganizer.in(t._ZN5QListI5QDateE13detach_helperEi)
    QList<QDate>::detach_helper()            0x000111e7   Thumb Code    12  QtVersitOrganizer.in(t._ZN5QListI5QDateE13detach_helperEv)
    QList<QDate>::detach_helper_grow(int, int) 0x000111f3   Thumb Code   180  QtVersitOrganizer.in(t._ZN5QListI5QDateE18detach_helper_growEii)
    QList<QDate>::free(QListData::Data*)     0x000112af   Thumb Code    48  QtVersitOrganizer.in(t._ZN5QListI5QDateE4freeEPN9QListData4DataE)
    QList<QDate>::begin()                    0x000112df   Thumb Code    22  QtVersitOrganizer.in(t._ZN5QListI5QDateE5beginEv)
    QList<QDate>::append(const QDate&)       0x000112f5   Thumb Code    82  QtVersitOrganizer.in(t._ZN5QListI5QDateE6appendERKS0_)
    QList<QDate>::detach()                   0x00011357   Thumb Code    24  QtVersitOrganizer.in(t._ZN5QListI5QDateE6detachEv)
    QList<QDate>::node_copy(QList<QDate>::Node*, QList<QDate>::Node*, QList<QDate>::Node*) 0x0001136f   Thumb Code    36  QtVersitOrganizer.in(t._ZN5QListI5QDateE9node_copyEPNS1_4NodeES3_S3_)
    QList<QDate>::QList(const QList<QDate>&) 0x00011393   Thumb Code    30  QtVersitOrganizer.in(t._ZN5QListI5QDateEC1ERKS1_)
    QList<QDate>::QList__sub_object(const QList<QDate>&) 0x00011393   Thumb Code     0  QtVersitOrganizer.in(t._ZN5QListI5QDateEC1ERKS1_)
    QList<QDate>::~QList()                   0x000113b1   Thumb Code    30  QtVersitOrganizer.in(t._ZN5QListI5QDateED1Ev)
    QList<QDate>::~QList__sub_object()       0x000113b1   Thumb Code     0  QtVersitOrganizer.in(t._ZN5QListI5QDateED1Ev)
    QList<QString>::detach_helper(int)       0x000113cf   Thumb Code   142  QtVersitOrganizer.in(t._ZN5QListI7QStringE13detach_helperEi)
    QList<QString>::detach_helper()          0x00011471   Thumb Code    12  QtVersitOrganizer.in(t._ZN5QListI7QStringE13detach_helperEv)
    QList<QString>::node_construct(QList<QString>::Node*, const QString&) 0x0001147d   Thumb Code    26  QtVersitOrganizer.in(t._ZN5QListI7QStringE14node_constructEPNS1_4NodeERKS0_)
    QList<QString>::detach_helper_grow(int, int) 0x000114a3   Thumb Code   186  QtVersitOrganizer.in(t._ZN5QListI7QStringE18detach_helper_growEii)
    QList<QString>::free(QListData::Data*)   0x00011565   Thumb Code    48  QtVersitOrganizer.in(t._ZN5QListI7QStringE4freeEPN9QListData4DataE)
    QList<QString>::begin()                  0x00011595   Thumb Code    34  QtVersitOrganizer.in(t._ZN5QListI7QStringE5beginEv)
    QList<QString>::append(const QString&)   0x000115b9   Thumb Code    94  QtVersitOrganizer.in(t._ZN5QListI7QStringE6appendERKS0_)
    QList<QString>::node_copy(QList<QString>::Node*, QList<QString>::Node*, QList<QString>::Node*) 0x00011625   Thumb Code    70  QtVersitOrganizer.in(t._ZN5QListI7QStringE9node_copyEPNS1_4NodeES3_S3_)
    QList<QString>::~QList()                 0x00011681   Thumb Code    30  QtVersitOrganizer.in(t._ZN5QListI7QStringED1Ev)
    QList<QString>::~QList__sub_object()     0x00011681   Thumb Code     0  QtVersitOrganizer.in(t._ZN5QListI7QStringED1Ev)
    QList<QtMobility::QOrganizerItem>::detach_helper(int) 0x0001169f   Thumb Code   142  QtVersitOrganizer.in(t._ZN5QListIN10QtMobility14QOrganizerItemEE13detach_helperEi)
    QList<QtMobility::QOrganizerItem>::detach_helper() 0x00011741   Thumb Code    88  QtVersitOrganizer.in(t._ZN5QListIN10QtMobility14QOrganizerItemEE13detach_helperEv)
    QList<QtMobility::QOrganizerItem>::node_construct(QList<QtMobility::QOrganizerItem>::Node*, const QtMobility::QOrganizerItem&) 0x000117a1   Thumb Code    26  QtVersitOrganizer.in(t._ZN5QListIN10QtMobility14QOrganizerItemEE14node_constructEPNS2_4NodeERKS1_)
    QList<QtMobility::QOrganizerItem>::detach_helper_grow(int, int) 0x000117c7   Thumb Code   186  QtVersitOrganizer.in(t._ZN5QListIN10QtMobility14QOrganizerItemEE18detach_helper_growEii)
    QList<QtMobility::QOrganizerItem>::free(QListData::Data*) 0x00011889   Thumb Code    48  QtVersitOrganizer.in(t._ZN5QListIN10QtMobility14QOrganizerItemEE4freeEPN9QListData4DataE)
    QList<QtMobility::QOrganizerItem>::clear() 0x000118b9   Thumb Code    82  QtVersitOrganizer.in(t._ZN5QListIN10QtMobility14QOrganizerItemEE5clearEv)
    QList<QtMobility::QOrganizerItem>::append(const QtMobility::QOrganizerItem&) 0x0001191d   Thumb Code    94  QtVersitOrganizer.in(t._ZN5QListIN10QtMobility14QOrganizerItemEE6appendERKS1_)
    QList<QtMobility::QOrganizerItem>::node_copy(QList<QtMobility::QOrganizerItem>::Node*, QList<QtMobility::QOrganizerItem>::Node*, QList<QtMobility::QOrganizerItem>::Node*) 0x00011989   Thumb Code    70  QtVersitOrganizer.in(t._ZN5QListIN10QtMobility14QOrganizerItemEE9node_copyEPNS2_4NodeES4_S4_)
    QList<QtMobility::QOrganizerItem>::~QList() 0x000119e5   Thumb Code    30  QtVersitOrganizer.in(t._ZN5QListIN10QtMobility14QOrganizerItemEED1Ev)
    QList<QtMobility::QOrganizerItem>::~QList__sub_object() 0x000119e5   Thumb Code     0  QtVersitOrganizer.in(t._ZN5QListIN10QtMobility14QOrganizerItemEED1Ev)
    QList<QtMobility::QVersitDocument>::detach_helper(int) 0x00011a03   Thumb Code   152  QtVersitOrganizer.in(t._ZN5QListIN10QtMobility15QVersitDocumentEE13detach_helperEi)
    QList<QtMobility::QVersitDocument>::node_destruct(QList<QtMobility::QVersitDocument>::Node*, QList<QtMobility::QVersitDocument>::Node*) 0x00011aad   Thumb Code    30  QtVersitOrganizer.in(t._ZN5QListIN10QtMobility15QVersitDocumentEE13node_destructEPNS2_4NodeES4_)
    QList<QtMobility::QVersitDocument>::node_construct(QList<QtMobility::QVersitDocument>::Node*, const QtMobility::QVersitDocument&) 0x00011acb   Thumb Code    32  QtVersitOrganizer.in(t._ZN5QListIN10QtMobility15QVersitDocumentEE14node_constructEPNS2_4NodeERKS1_)
    QList<QtMobility::QVersitDocument>::detach_helper_grow(int, int) 0x00011af5   Thumb Code   180  QtVersitOrganizer.in(t._ZN5QListIN10QtMobility15QVersitDocumentEE18detach_helper_growEii)
    QList<QtMobility::QVersitDocument>::free(QListData::Data*) 0x00011bb1   Thumb Code    38  QtVersitOrganizer.in(t._ZN5QListIN10QtMobility15QVersitDocumentEE4freeEPN9QListData4DataE)
    QList<QtMobility::QVersitDocument>::append(const QtMobility::QVersitDocument&) 0x00011bd9   Thumb Code    90  QtVersitOrganizer.in(t._ZN5QListIN10QtMobility15QVersitDocumentEE6appendERKS1_)
    QList<QtMobility::QVersitDocument>::node_copy(QList<QtMobility::QVersitDocument>::Node*, QList<QtMobility::QVersitDocument>::Node*, QList<QtMobility::QVersitDocument>::Node*) 0x00011c41   Thumb Code    80  QtVersitOrganizer.in(t._ZN5QListIN10QtMobility15QVersitDocumentEE9node_copyEPNS2_4NodeES4_S4_)
    QList<QtMobility::QVersitDocument>::~QList() 0x00011ca3   Thumb Code    30  QtVersitOrganizer.in(t._ZN5QListIN10QtMobility15QVersitDocumentEED1Ev)
    QList<QtMobility::QVersitDocument>::~QList__sub_object() 0x00011ca3   Thumb Code     0  QtVersitOrganizer.in(t._ZN5QListIN10QtMobility15QVersitDocumentEED1Ev)
    QList<QtMobility::QVersitProperty>::detach_helper(int) 0x00011cc1   Thumb Code   152  QtVersitOrganizer.in(t._ZN5QListIN10QtMobility15QVersitPropertyEE13detach_helperEi)
    QList<QtMobility::QVersitProperty>::detach_helper() 0x00011d6b   Thumb Code    88  QtVersitOrganizer.in(t._ZN5QListIN10QtMobility15QVersitPropertyEE13detach_helperEv)
    QList<QtMobility::QVersitProperty>::node_destruct(QList<QtMobility::QVersitProperty>::Node*, QList<QtMobility::QVersitProperty>::Node*) 0x00011dcb   Thumb Code    30  QtVersitOrganizer.in(t._ZN5QListIN10QtMobility15QVersitPropertyEE13node_destructEPNS2_4NodeES4_)
    QList<QtMobility::QVersitProperty>::node_construct(QList<QtMobility::QVersitProperty>::Node*, const QtMobility::QVersitProperty&) 0x00011de9   Thumb Code    32  QtVersitOrganizer.in(t._ZN5QListIN10QtMobility15QVersitPropertyEE14node_constructEPNS2_4NodeERKS1_)
    QList<QtMobility::QVersitProperty>::detach_helper_grow(int, int) 0x00011e13   Thumb Code   180  QtVersitOrganizer.in(t._ZN5QListIN10QtMobility15QVersitPropertyEE18detach_helper_growEii)
    QList<QtMobility::QVersitProperty>::free(QListData::Data*) 0x00011ecf   Thumb Code    44  QtVersitOrganizer.in(t._ZN5QListIN10QtMobility15QVersitPropertyEE4freeEPN9QListData4DataE)
    QList<QtMobility::QVersitProperty>::append(const QtMobility::QVersitProperty&) 0x00011efd   Thumb Code    90  QtVersitOrganizer.in(t._ZN5QListIN10QtMobility15QVersitPropertyEE6appendERKS1_)
    QList<QtMobility::QVersitProperty>::node_copy(QList<QtMobility::QVersitProperty>::Node*, QList<QtMobility::QVersitProperty>::Node*, QList<QtMobility::QVersitProperty>::Node*) 0x00011f65   Thumb Code    80  QtVersitOrganizer.in(t._ZN5QListIN10QtMobility15QVersitPropertyEE9node_copyEPNS2_4NodeES4_S4_)
    QList<QtMobility::QVersitProperty>::QList() 0x00011fc9   Thumb Code    16  QtVersitOrganizer.in(t._ZN5QListIN10QtMobility15QVersitPropertyEEC1Ev)
    QList<QtMobility::QVersitProperty>::QList__sub_object() 0x00011fc9   Thumb Code     0  QtVersitOrganizer.in(t._ZN5QListIN10QtMobility15QVersitPropertyEEC1Ev)
    QList<QtMobility::QVersitProperty>::~QList() 0x00011fdd   Thumb Code    30  QtVersitOrganizer.in(t._ZN5QListIN10QtMobility15QVersitPropertyEED1Ev)
    QList<QtMobility::QVersitProperty>::~QList__sub_object() 0x00011fdd   Thumb Code     0  QtVersitOrganizer.in(t._ZN5QListIN10QtMobility15QVersitPropertyEED1Ev)
    QList<QtMobility::QOrganizerItemDetail>::detach_helper(int) 0x00011ffb   Thumb Code   142  QtVersitOrganizer.in(t._ZN5QListIN10QtMobility20QOrganizerItemDetailEE13detach_helperEi)
    QList<QtMobility::QOrganizerItemDetail>::detach_helper() 0x0001209d   Thumb Code    88  QtVersitOrganizer.in(t._ZN5QListIN10QtMobility20QOrganizerItemDetailEE13detach_helperEv)
    QList<QtMobility::QOrganizerItemDetail>::node_construct(QList<QtMobility::QOrganizerItemDetail>::Node*, const QtMobility::QOrganizerItemDetail&) 0x000120fd   Thumb Code    26  QtVersitOrganizer.in(t._ZN5QListIN10QtMobility20QOrganizerItemDetailEE14node_constructEPNS2_4NodeERKS1_)
    QList<QtMobility::QOrganizerItemDetail>::detach_helper_grow(int, int) 0x00012123   Thumb Code   186  QtVersitOrganizer.in(t._ZN5QListIN10QtMobility20QOrganizerItemDetailEE18detach_helper_growEii)
    QList<QtMobility::QOrganizerItemDetail>::free(QListData::Data*) 0x000121e5   Thumb Code    54  QtVersitOrganizer.in(t._ZN5QListIN10QtMobility20QOrganizerItemDetailEE4freeEPN9QListData4DataE)
    QList<QtMobility::QOrganizerItemDetail>::append(const QtMobility::QOrganizerItemDetail&) 0x0001221d   Thumb Code    94  QtVersitOrganizer.in(t._ZN5QListIN10QtMobility20QOrganizerItemDetailEE6appendERKS1_)
    QList<QtMobility::QOrganizerItemDetail>::node_copy(QList<QtMobility::QOrganizerItemDetail>::Node*, QList<QtMobility::QOrganizerItemDetail>::Node*, QList<QtMobility::QOrganizerItemDetail>::Node*) 0x00012289   Thumb Code    70  QtVersitOrganizer.in(t._ZN5QListIN10QtMobility20QOrganizerItemDetailEE9node_copyEPNS2_4NodeES4_S4_)
    QList<QtMobility::QOrganizerItemDetail>::~QList() 0x000122e5   Thumb Code    30  QtVersitOrganizer.in(t._ZN5QListIN10QtMobility20QOrganizerItemDetailEED1Ev)
    QList<QtMobility::QOrganizerItemDetail>::~QList__sub_object() 0x000122e5   Thumb Code     0  QtVersitOrganizer.in(t._ZN5QListIN10QtMobility20QOrganizerItemDetailEED1Ev)
    QList<QtMobility::QOrganizerRecurrenceRule::Month>::detach_helper(int) 0x00012303   Thumb Code    86  QtVersitOrganizer.in(t._ZN5QListIN10QtMobility24QOrganizerRecurrenceRule5MonthEE13detach_helperEi)
    QList<QtMobility::QOrganizerRecurrenceRule::Month>::detach_helper() 0x00012361   Thumb Code    12  QtVersitOrganizer.in(t._ZN5QListIN10QtMobility24QOrganizerRecurrenceRule5MonthEE13detach_helperEv)
    QList<QtMobility::QOrganizerRecurrenceRule::Month>::node_destruct(QList<QtMobility::QOrganizerRecurrenceRule::Month>::Node*, QList<QtMobility::QOrganizerRecurrenceRule::Month>::Node*) 0x0001236d   Thumb Code    22  QtVersitOrganizer.in(t._ZN5QListIN10QtMobility24QOrganizerRecurrenceRule5MonthEE13node_destructEPNS3_4NodeES5_)
    QList<QtMobility::QOrganizerRecurrenceRule::Month>::node_construct(QList<QtMobility::QOrganizerRecurrenceRule::Month>::Node*, const QtMobility::QOrganizerRecurrenceRule::Month&) 0x00012383   Thumb Code    28  QtVersitOrganizer.in(t._ZN5QListIN10QtMobility24QOrganizerRecurrenceRule5MonthEE14node_constructEPNS3_4NodeERKS2_)
    QList<QtMobility::QOrganizerRecurrenceRule::Month>::detach_helper_grow(int, int) 0x0001239f   Thumb Code   180  QtVersitOrganizer.in(t._ZN5QListIN10QtMobility24QOrganizerRecurrenceRule5MonthEE18detach_helper_growEii)
    QList<QtMobility::QOrganizerRecurrenceRule::Month>::free(QListData::Data*) 0x0001245b   Thumb Code    44  QtVersitOrganizer.in(t._ZN5QListIN10QtMobility24QOrganizerRecurrenceRule5MonthEE4freeEPN9QListData4DataE)
    QList<QtMobility::QOrganizerRecurrenceRule::Month>::begin() 0x00012487   Thumb Code    22  QtVersitOrganizer.in(t._ZN5QListIN10QtMobility24QOrganizerRecurrenceRule5MonthEE5beginEv)
    QList<QtMobility::QOrganizerRecurrenceRule::Month>::append(const QtMobility::QOrganizerRecurrenceRule::Month&) 0x0001249d   Thumb Code    90  QtVersitOrganizer.in(t._ZN5QListIN10QtMobility24QOrganizerRecurrenceRule5MonthEE6appendERKS2_)
    QList<QtMobility::QOrganizerRecurrenceRule::Month>::detach() 0x00012505   Thumb Code    24  QtVersitOrganizer.in(t._ZN5QListIN10QtMobility24QOrganizerRecurrenceRule5MonthEE6detachEv)
    QList<QtMobility::QOrganizerRecurrenceRule::Month>::node_copy(QList<QtMobility::QOrganizerRecurrenceRule::Month>::Node*, QList<QtMobility::QOrganizerRecurrenceRule::Month>::Node*, QList<QtMobility::QOrganizerRecurrenceRule::Month>::Node*) 0x0001251d   Thumb Code    40  QtVersitOrganizer.in(t._ZN5QListIN10QtMobility24QOrganizerRecurrenceRule5MonthEE9node_copyEPNS3_4NodeES5_S5_)
    QList<QtMobility::QOrganizerRecurrenceRule::Month>::QList(const QList<QtMobility::QOrganizerRecurrenceRule::Month>&) 0x00012545   Thumb Code    30  QtVersitOrganizer.in(t._ZN5QListIN10QtMobility24QOrganizerRecurrenceRule5MonthEEC1ERKS3_)
    QList<QtMobility::QOrganizerRecurrenceRule::Month>::QList__sub_object(const QList<QtMobility::QOrganizerRecurrenceRule::Month>&) 0x00012545   Thumb Code     0  QtVersitOrganizer.in(t._ZN5QListIN10QtMobility24QOrganizerRecurrenceRule5MonthEEC1ERKS3_)
    QList<QtMobility::QOrganizerRecurrenceRule::Month>::~QList() 0x00012563   Thumb Code    30  QtVersitOrganizer.in(t._ZN5QListIN10QtMobility24QOrganizerRecurrenceRule5MonthEED1Ev)
    QList<QtMobility::QOrganizerRecurrenceRule::Month>::~QList__sub_object() 0x00012563   Thumb Code     0  QtVersitOrganizer.in(t._ZN5QListIN10QtMobility24QOrganizerRecurrenceRule5MonthEED1Ev)
    QList<Qt::DayOfWeek>::detach_helper(int) 0x00012581   Thumb Code    86  QtVersitOrganizer.in(t._ZN5QListIN2Qt9DayOfWeekEE13detach_helperEi)
    QList<Qt::DayOfWeek>::detach_helper()    0x000125df   Thumb Code    12  QtVersitOrganizer.in(t._ZN5QListIN2Qt9DayOfWeekEE13detach_helperEv)
    QList<Qt::DayOfWeek>::node_destruct(QList<Qt::DayOfWeek>::Node*, QList<Qt::DayOfWeek>::Node*) 0x000125eb   Thumb Code    22  QtVersitOrganizer.in(t._ZN5QListIN2Qt9DayOfWeekEE13node_destructEPNS2_4NodeES4_)
    QList<Qt::DayOfWeek>::node_construct(QList<Qt::DayOfWeek>::Node*, const Qt::DayOfWeek&) 0x00012601   Thumb Code    28  QtVersitOrganizer.in(t._ZN5QListIN2Qt9DayOfWeekEE14node_constructEPNS2_4NodeERKS1_)
    QList<Qt::DayOfWeek>::detach_helper_grow(int, int) 0x0001261d   Thumb Code   180  QtVersitOrganizer.in(t._ZN5QListIN2Qt9DayOfWeekEE18detach_helper_growEii)
    QList<Qt::DayOfWeek>::free(QListData::Data*) 0x000126d9   Thumb Code    44  QtVersitOrganizer.in(t._ZN5QListIN2Qt9DayOfWeekEE4freeEPN9QListData4DataE)
    QList<Qt::DayOfWeek>::begin()            0x00012705   Thumb Code    22  QtVersitOrganizer.in(t._ZN5QListIN2Qt9DayOfWeekEE5beginEv)
    QList<Qt::DayOfWeek>::append(const Qt::DayOfWeek&) 0x0001271d   Thumb Code    90  QtVersitOrganizer.in(t._ZN5QListIN2Qt9DayOfWeekEE6appendERKS1_)
    QList<Qt::DayOfWeek>::detach()           0x00012785   Thumb Code    24  QtVersitOrganizer.in(t._ZN5QListIN2Qt9DayOfWeekEE6detachEv)
    QList<Qt::DayOfWeek>::node_copy(QList<Qt::DayOfWeek>::Node*, QList<Qt::DayOfWeek>::Node*, QList<Qt::DayOfWeek>::Node*) 0x0001279d   Thumb Code    40  QtVersitOrganizer.in(t._ZN5QListIN2Qt9DayOfWeekEE9node_copyEPNS2_4NodeES4_S4_)
    QList<Qt::DayOfWeek>::QList(const QList<Qt::DayOfWeek>&) 0x000127c5   Thumb Code    30  QtVersitOrganizer.in(t._ZN5QListIN2Qt9DayOfWeekEEC1ERKS2_)
    QList<Qt::DayOfWeek>::QList__sub_object(const QList<Qt::DayOfWeek>&) 0x000127c5   Thumb Code     0  QtVersitOrganizer.in(t._ZN5QListIN2Qt9DayOfWeekEEC1ERKS2_)
    QList<Qt::DayOfWeek>::~QList()           0x000127e3   Thumb Code    30  QtVersitOrganizer.in(t._ZN5QListIN2Qt9DayOfWeekEED1Ev)
    QList<Qt::DayOfWeek>::~QList__sub_object() 0x000127e3   Thumb Code     0  QtVersitOrganizer.in(t._ZN5QListIN2Qt9DayOfWeekEED1Ev)
    QList<QtMobility::QVersitOrganizerHandler*>::detach_helper(int) 0x00012801   Thumb Code    98  QtVersitOrganizer.in(t._ZN5QListIPN10QtMobility23QVersitOrganizerHandlerEE13detach_helperEi)
    QList<QtMobility::QVersitOrganizerHandler*>::detach_helper() 0x0001286b   Thumb Code    12  QtVersitOrganizer.in(t._ZN5QListIPN10QtMobility23QVersitOrganizerHandlerEE13detach_helperEv)
    QList<QtMobility::QVersitOrganizerHandler*>::detach_helper_grow(int, int) 0x00012877   Thumb Code   164  QtVersitOrganizer.in(t._ZN5QListIPN10QtMobility23QVersitOrganizerHandlerEE18detach_helper_growEii)
    QList<QtMobility::QVersitOrganizerHandler*>::free(QListData::Data*) 0x00012923   Thumb Code    16  QtVersitOrganizer.in(t._ZN5QListIPN10QtMobility23QVersitOrganizerHandlerEE4freeEPN9QListData4DataE)
    QList<QtMobility::QVersitOrganizerHandler*>::node_copy(QList<QtMobility::QVersitOrganizerHandler*>::Node*, QList<QtMobility::QVersitOrganizerHandler*>::Node*, QList<QtMobility::QVersitOrganizerHandler*>::Node*) 0x00012933   Thumb Code    28  QtVersitOrganizer.in(t._ZN5QListIPN10QtMobility23QVersitOrganizerHandlerEE9node_copyEPNS3_4NodeES5_S5_)
    QList<QtMobility::QVersitOrganizerHandler*>::~QList() 0x0001294f   Thumb Code    30  QtVersitOrganizer.in(t._ZN5QListIPN10QtMobility23QVersitOrganizerHandlerEED1Ev)
    QList<QtMobility::QVersitOrganizerHandler*>::~QList__sub_object() 0x0001294f   Thumb Code     0  QtVersitOrganizer.in(t._ZN5QListIPN10QtMobility23QVersitOrganizerHandlerEED1Ev)
    QList<QtMobility::QVersitOrganizerHandlerFactory*>::detach_helper() 0x0001296d   Thumb Code    88  QtVersitOrganizer.in(t._ZN5QListIPN10QtMobility30QVersitOrganizerHandlerFactoryEE13detach_helperEv)
    QList<QtMobility::QVersitOrganizerHandlerFactory*>::detach_helper_grow(int, int) 0x000129cd   Thumb Code   164  QtVersitOrganizer.in(t._ZN5QListIPN10QtMobility30QVersitOrganizerHandlerFactoryEE18detach_helper_growEii)
    QList<QtMobility::QVersitOrganizerHandlerFactory*>::free(QListData::Data*) 0x00012a79   Thumb Code    16  QtVersitOrganizer.in(t._ZN5QListIPN10QtMobility30QVersitOrganizerHandlerFactoryEE4freeEPN9QListData4DataE)
    QList<QtMobility::QVersitOrganizerHandlerFactory*>::detach() 0x00012a89   Thumb Code    24  QtVersitOrganizer.in(t._ZN5QListIPN10QtMobility30QVersitOrganizerHandlerFactoryEE6detachEv)
    QList<QtMobility::QVersitOrganizerHandlerFactory*>::node_copy(QList<QtMobility::QVersitOrganizerHandlerFactory*>::Node*, QList<QtMobility::QVersitOrganizerHandlerFactory*>::Node*, QList<QtMobility::QVersitOrganizerHandlerFactory*>::Node*) 0x00012aa1   Thumb Code    28  QtVersitOrganizer.in(t._ZN5QListIPN10QtMobility30QVersitOrganizerHandlerFactoryEE9node_copyEPNS3_4NodeES5_S5_)
    QList<QtMobility::QVersitOrganizerHandlerFactory*>::~QList() 0x00012abd   Thumb Code    30  QtVersitOrganizer.in(t._ZN5QListIPN10QtMobility30QVersitOrganizerHandlerFactoryEED1Ev)
    QList<QtMobility::QVersitOrganizerHandlerFactory*>::~QList__sub_object() 0x00012abd   Thumb Code     0  QtVersitOrganizer.in(t._ZN5QListIPN10QtMobility30QVersitOrganizerHandlerFactoryEED1Ev)
    QList<int>::detach_helper(int)           0x00012adb   Thumb Code    86  QtVersitOrganizer.in(t._ZN5QListIiE13detach_helperEi)
    QList<int>::detach_helper()              0x00012b39   Thumb Code    12  QtVersitOrganizer.in(t._ZN5QListIiE13detach_helperEv)
    QList<int>::detach_helper_grow(int, int) 0x00012b45   Thumb Code   164  QtVersitOrganizer.in(t._ZN5QListIiE18detach_helper_growEii)
    QList<int>::free(QListData::Data*)       0x00012bf1   Thumb Code    24  QtVersitOrganizer.in(t._ZN5QListIiE4freeEPN9QListData4DataE)
    QList<int>::begin()                      0x00012c09   Thumb Code    22  QtVersitOrganizer.in(t._ZN5QListIiE5beginEv)
    QList<int>::detach()                     0x00012c1f   Thumb Code    24  QtVersitOrganizer.in(t._ZN5QListIiE6detachEv)
    QList<int>::node_copy(QList<int>::Node*, QList<int>::Node*, QList<int>::Node*) 0x00012c37   Thumb Code    28  QtVersitOrganizer.in(t._ZN5QListIiE9node_copyEPNS0_4NodeES2_S2_)
    QList<int>::QList(const QList<int>&)     0x00012c53   Thumb Code    30  QtVersitOrganizer.in(t._ZN5QListIiEC1ERKS0_)
    QList<int>::QList__sub_object(const QList<int>&) 0x00012c53   Thumb Code     0  QtVersitOrganizer.in(t._ZN5QListIiEC1ERKS0_)
    QList<int>::~QList()                     0x00012c71   Thumb Code    30  QtVersitOrganizer.in(t._ZN5QListIiED1Ev)
    QList<int>::~QList__sub_object()         0x00012c71   Thumb Code     0  QtVersitOrganizer.in(t._ZN5QListIiED1Ev)
    QHashNode<QString, TimeZone>::QHashNode(const QString&, const TimeZone&) 0x00012c8f   Thumb Code    56  QtVersitOrganizer.in(t._ZN9QHashNodeI7QString8TimeZoneEC1ERKS0_RKS1_)
    QHashNode<QString, TimeZone>::QHashNode__sub_object(const QString&, const TimeZone&) 0x00012c8f   Thumb Code     0  QtVersitOrganizer.in(t._ZN9QHashNodeI7QString8TimeZoneEC1ERKS0_RKS1_)
    QtMobility::QOrganizerItem::detail<QtMobility::QOrganizerTodoTime>() const 0x00012cd9   Thumb Code    32  QtVersitOrganizer.in(t._ZNK10QtMobility14QOrganizerItem6detailINS_18QOrganizerTodoTimeEEET_v)
    QtMobility::QOrganizerItem::detail<QtMobility::QOrganizerEventTime>() const 0x00012d09   Thumb Code    32  QtVersitOrganizer.in(t._ZNK10QtMobility14QOrganizerItem6detailINS_19QOrganizerEventTimeEEET_v)
    QtMobility::QOrganizerItem::detail<QtMobility::QOrganizerTodoProgress>() const 0x00012d39   Thumb Code    32  QtVersitOrganizer.in(t._ZNK10QtMobility14QOrganizerItem6detailINS_22QOrganizerTodoProgressEEET_v)
    QtMobility::QOrganizerItem::detail<QtMobility::QOrganizerItemTimestamp>() const 0x00012d69   Thumb Code    32  QtVersitOrganizer.in(t._ZNK10QtMobility14QOrganizerItem6detailINS_23QOrganizerItemTimestampEEET_v)
    QtMobility::QOrganizerItem::detail<QtMobility::QOrganizerItemRecurrence>() const 0x00012d99   Thumb Code    32  QtVersitOrganizer.in(t._ZNK10QtMobility14QOrganizerItem6detailINS_24QOrganizerItemRecurrenceEEET_v)
    QtMobility::QOrganizerItemDetail::value<QDateTime>(const char*) const 0x00012dc7   Thumb Code    98  QtVersitOrganizer.in(t._ZNK10QtMobility20QOrganizerItemDetail5valueI9QDateTimeEET_PKc)
    QtMobility::QOrganizerItemDetail::value<bool, (int)7>(const QtMobility::QLatin1Constant<T2>&) const 0x00012e3b   Thumb Code    68  QtVersitOrganizer.in(t._ZNK10QtMobility20QOrganizerItemDetail5valueIbLi7EEET_RKNS_15QLatin1ConstantIXT0_EEE)
    QtMobility::QOrganizerItemDetail::value<int>(const char*) const 0x00012e89   Thumb Code    66  QtVersitOrganizer.in(t._ZNK10QtMobility20QOrganizerItemDetail5valueIiEET_PKc)
    QForeachContainer<QStringList>::condition() const 0x00012ed5   Thumb Code    26  QtVersitOrganizer.in(t._ZNK17QForeachContainerI11QStringListE9conditionEv)
    QForeachContainer<QSet<QtMobility::QOrganizerRecurrenceRule>>::condition() const 0x00012eef   Thumb Code    26  QtVersitOrganizer.in(t._ZNK17QForeachContainerI4QSetIN10QtMobility24QOrganizerRecurrenceRuleEEE9conditionEv)
    QForeachContainer<QList<TimeZonePhase>>::condition() const 0x00012f09   Thumb Code    26  QtVersitOrganizer.in(t._ZNK17QForeachContainerI5QListI13TimeZonePhaseEE9conditionEv)
    QForeachContainer<QList<QtMobility::QVersitProperty>>::condition() const 0x00012f23   Thumb Code    26  QtVersitOrganizer.in(t._ZNK17QForeachContainerI5QListIN10QtMobility15QVersitPropertyEEE9conditionEv)
    QForeachContainer<QList<QtMobility::QVersitOrganizerHandler*>>::condition() const 0x00012f3d   Thumb Code    26  QtVersitOrganizer.in(t._ZNK17QForeachContainerI5QListIPN10QtMobility23QVersitOrganizerHandlerEEE9conditionEv)
    QMap<QString, QPair<QString, QString>>::mutableFindNode(QMapData::Node**, const QString&) const 0x00012f57   Thumb Code    86  QtVersitOrganizer.in(t._ZNK4QMapI7QString5QPairIS0_S0_EE15mutableFindNodeEPPN8QMapData4NodeERKS0_)
    QSet<QDate>::toList() const              0x00012fad   Thumb Code    94  QtVersitOrganizer.in(t._ZNK4QSetI5QDateE6toListEv)
    QSet<QDate>::isEmpty() const             0x0001301b   Thumb Code    16  QtVersitOrganizer.in(t._ZNK4QSetI5QDateE7isEmptyEv)
    QSet<QString>::contains(const QString&) const 0x0001302b   Thumb Code    26  QtVersitOrganizer.in(t._ZNK4QSetI7QStringE8containsERKS0_)
    QSet<QtMobility::QOrganizerRecurrenceRule::Month>::toList() const 0x00013045   Thumb Code    94  QtVersitOrganizer.in(t._ZNK4QSetIN10QtMobility24QOrganizerRecurrenceRule5MonthEE6toListEv)
    QSet<QtMobility::QOrganizerRecurrenceRule>::isEmpty() const 0x000130b3   Thumb Code    16  QtVersitOrganizer.in(t._ZNK4QSetIN10QtMobility24QOrganizerRecurrenceRuleEE7isEmptyEv)
    QSet<Qt::DayOfWeek>::toList() const      0x000130c5   Thumb Code    94  QtVersitOrganizer.in(t._ZNK4QSetIN2Qt9DayOfWeekEE6toListEv)
    QSet<int>::toList() const                0x00013135   Thumb Code   134  QtVersitOrganizer.in(t._ZNK4QSetIiE6toListEv)
    QSet<int>::isEmpty() const               0x000131d5   Thumb Code    16  QtVersitOrganizer.in(t._ZNK4QSetIiE7isEmptyEv)
    QHash<QDate, QHashDummyValue>::findNode(const QDate&, unsigned*) const 0x000131e5   Thumb Code    56  QtVersitOrganizer.in(t._ZNK5QHashI5QDate15QHashDummyValueE8findNodeERKS0_Pj)
    QHash<QString, QHashDummyValue>::findNode(const QString&, unsigned*) const 0x0001321d   Thumb Code    90  QtVersitOrganizer.in(t._ZNK5QHashI7QString15QHashDummyValueE8findNodeERKS0_Pj)
    QHash<QString, TimeZone>::value(const QString&) const 0x00013279   Thumb Code    80  QtVersitOrganizer.in(t._ZNK5QHashI7QString8TimeZoneE5valueERKS0_)
    QHash<QString, TimeZone>::findNode(const QString&, unsigned*) const 0x000132db   Thumb Code    90  QtVersitOrganizer.in(t._ZNK5QHashI7QString8TimeZoneE8findNodeERKS0_Pj)
    QHash<QString, QString>::findNode(const QString&, unsigned*) const 0x00013335   Thumb Code    90  QtVersitOrganizer.in(t._ZNK5QHashI7QStringS0_E8findNodeERKS0_Pj)
    QHash<QtMobility::QOrganizerRecurrenceRule::Month, QHashDummyValue>::findNode(const QtMobility::QOrganizerRecurrenceRule::Month&, unsigned*) const 0x0001338f   Thumb Code    62  QtVersitOrganizer.in(t._ZNK5QHashIN10QtMobility24QOrganizerRecurrenceRule5MonthE15QHashDummyValueE8findNodeERKS2_Pj)
    QHash<QtMobility::QOrganizerRecurrenceRule, QHashDummyValue>::findNode(const QtMobility::QOrganizerRecurrenceRule&, unsigned*) const 0x000133cd   Thumb Code    90  QtVersitOrganizer.in(t._ZNK5QHashIN10QtMobility24QOrganizerRecurrenceRuleE15QHashDummyValueE8findNodeERKS1_Pj)
    QHash<Qt::DayOfWeek, QHashDummyValue>::findNode(const Qt::DayOfWeek&, unsigned*) const 0x00013427   Thumb Code    62  QtVersitOrganizer.in(t._ZNK5QHashIN2Qt9DayOfWeekE15QHashDummyValueE8findNodeERKS1_Pj)
    QHash<int, QHashDummyValue>::findNode(const int&, unsigned*) const 0x00013465   Thumb Code    50  QtVersitOrganizer.in(t._ZNK5QHashIi15QHashDummyValueE8findNodeERKiPj)
    QList<QString>::at(int) const            0x00013497   Thumb Code    16  QtVersitOrganizer.in(t._ZNK5QListI7QStringE2atEi)
    QList<QString>::size() const             0x000134a7   Thumb Code    10  QtVersitOrganizer.in(t._ZNK5QListI7QStringE4sizeEv)
    qLess<QDate>::operator ()(const QDate&, const QDate&) const 0x000134b1   Thumb Code    14  QtVersitOrganizer.in(t._ZNK5qLessI5QDateEclERKS0_S3_)
    qLess<QtMobility::QOrganizerRecurrenceRule::Month>::operator ()(const QtMobility::QOrganizerRecurrenceRule::Month&, const QtMobility::QOrganizerRecurrenceRule::Month&) const 0x000134bf   Thumb Code    14  QtVersitOrganizer.in(t._ZNK5qLessIN10QtMobility24QOrganizerRecurrenceRule5MonthEEclERKS2_S5_)
    qLess<Qt::DayOfWeek>::operator ()(const Qt::DayOfWeek&, const Qt::DayOfWeek&) const 0x000134cd   Thumb Code    14  QtVersitOrganizer.in(t._ZNK5qLessIN2Qt9DayOfWeekEEclERKS1_S4_)
    qLess<int>::operator ()(const int&, const int&) const 0x000134db   Thumb Code    14  QtVersitOrganizer.in(t._ZNK5qLessIiEclERKiS2_)
    QtMobility::QVersitOrganizerHandlerFactory::ProfileSync 0x00016298   Data           5  QtVersitOrganizer.in(.constdata)
    QtMobility::QVersitOrganizerHandlerFactory::ProfileBackup 0x0001629d   Data           7  QtVersitOrganizer.in(.constdata)
    SHT$$INIT_ARRAY$$Base                    0x000162bc   Number         0  QtVersitOrganizer.in(.init_array)
    .ARM.exidx$$Base                         0x000162c4   Number         0  ucppinit_aeabi.o(.ARM.exidx)
    SHT$$INIT_ARRAY$$Limit                   0x000162c4   Data           0  QtVersitOrganizer.in(.init_array)
    .ARM.exidx$$Limit                        0x00016ea4   Number         0  QtVersitOrganizer.in(.ARM.exidx)
    Image$$ER_RO$$Limit                      0x00016ea4   Number         0  anon$$obj.o(linker$$defined$$symbols)
    QtMobility::QVersitOrganizerPluginLoader::mInstance 0x00400048   Data           4  QtVersitOrganizer.in(.data)

