ARM Linker, RVCT2.2 [Build 686]

================================================================================

Image Symbol Table

    Local Symbols

    Symbol Name                              Value     Ov Type        Size  Object(Section)

    ../../unhosted.s                         0x00000000   Number         0  switch8.o ABSOLUTE
    M:\\epoc32\\build\\euser\\c_e18a23aea4fd210f\\edll_lib\\armv5\\urel\\uc_dll_.cpp 0x00000000   Number         0  uc_dll_.o ABSOLUTE
    M:\\sf\\os\\kernelhwsrv\\kernel\\eka\\compsupp\\rvct\\ucppinit.cpp 0x00000000   Number         0  ucppinit.o ABSOLUTE
    M:\epoc32\build\euser\c_e18a23aea4fd210f\edll_lib\armv5\urel\uc_dll_.cpp 0x00000000   Number         0  uc_dll_.o ABSOLUTE
    M:\sf\os\kernelhwsrv\kernel\eka\compsupp\rvct\dllexp.cpp 0x00000000   Number         0  dllexp.o ABSOLUTE
    M:\sf\os\kernelhwsrv\kernel\eka\compsupp\rvct\ucppinit.cpp 0x00000000   Number         0  ucppinit.o ABSOLUTE
    M:\sf\os\kernelhwsrv\kernel\eka\euser\epoc\arm\uc_dll.cpp 0x00000000   Number         0  uc_dll.o ABSOLUTE
    S:\sf\mw\qt\src\xml\dom\qdom.cpp         0x00000000   Number         0  qdom.o ABSOLUTE
    S:\sf\mw\qt\src\xml\sax\qxml.cpp         0x00000000   Number         0  qxml.o ABSOLUTE
    .emb_text                                0x00008000   Section       40  uc_dll_.o(.emb_text)
    .emb_text                                0x00008028   Section       52  ucppinit.o(.emb_text)
    loop                                     0x0000803c   ARM Code       0  ucppinit.o(.emb_text)
    base                                     0x00008054   Data           0  ucppinit.o(.emb_text)
    limit                                    0x00008058   Data           0  ucppinit.o(.emb_text)
    qt_split_namespace(QString&, QString&, const QString&, bool) 0x0000842d   Thumb Code   128  qdom.o(.text)
    .text                                    0x0000842c   Section    22124  qdom.o(.text)
    fixedXmlName(const QString&, bool*, bool) 0x000084ad   Thumb Code   288  qdom.o(.text)
    fixedCharData(const QString&, bool*)     0x000085cd   Thumb Code   120  qdom.o(.text)
    fixedPubidLiteral(const QString&, bool*) 0x00008645   Thumb Code   174  qdom.o(.text)
    |L1.1048|                                0x00008844   Data           0  qdom.o(.text)
    quotedValue(const QString&)              0x000089a9   Thumb Code   144  qdom.o(.text)
    encodeText(const QString&, QTextStream&, bool, bool, bool) 0x00008a39   Thumb Code   754  qdom.o(.text)
    initializeReader(QXmlSimpleReader&, bool) 0x00008d2b   Thumb Code   102  qdom.o(.text)
    |L1.3248|                                0x000090dc   Data           0  qdom.o(.text)
    |L1.3288|                                0x00009104   Data           0  qdom.o(.text)
    |L1.4616|                                0x00009634   Data           0  qdom.o(.text)
    |L1.19848|                               0x0000d1b4   Data           0  qdom.o(.text)
    |L1.20928|                               0x0000d5ec   Data           0  qdom.o(.text)
    fixedComment(const QString&, bool*)      0x0000d82b   Thumb Code   112  qdom.o(.text)
    fixedCDataSection(const QString&, bool*) 0x0000d89b   Thumb Code   112  qdom.o(.text)
    fixedPIData(const QString&, bool*)       0x0000d90b   Thumb Code   112  qdom.o(.text)
    fixedSystemLiteral(const QString&, bool*) 0x0000d97b   Thumb Code   166  qdom.o(.text)
    encodeEntity(const QByteArray&)          0x0000da21   Thumb Code    94  qdom.o(.text)
    stripTextDecl(QString&)                  0x0000da99   Thumb Code   164  qxml.o(.text)
    .text                                    0x0000da98   Section    25220  qxml.o(.text)
    extractEncodingDecl(const QString&, bool*) 0x0000db3d   Thumb Code   246  qxml.o(.text)
    fastDetermineNameChar(QChar)             0x0000dc33   Thumb Code    58  qxml.o(.text)
    updateValue(QString&, const QChar*, int&, int&) 0x0000dc6d   Thumb Code    58  qxml.o(.text)
    |L1.1032|                                0x0000dea0   Data           0  qxml.o(.text)
    |L1.2644|                                0x0000e4ec   Data           0  qxml.o(.text)
    |L1.6088|                                0x0000f260   Data           0  qxml.o(.text)
    |L1.8624|                                0x0000fc48   Data           0  qxml.o(.text)
    |L1.8732|                                0x0000fcb4   Data           0  qxml.o(.text)
    |L1.9820|                                0x000100f4   Data           0  qxml.o(.text)
    |L1.11040|                               0x000105b8   Data           0  qxml.o(.text)
    |L1.14448|                               0x00011308   Data           0  qxml.o(.text)
    |L1.15672|                               0x000117d0   Data           0  qxml.o(.text)
    is_S(QChar)                              0x00013cd3   Thumb Code    28  qxml.o(.text)
    determineNameChar(QChar)                 0x00013cef   Thumb Code     8  qxml.o(.text)
    .text                                    0x00013d1c   Section       24  switch8.o(.text)
    .text                                    0x00013d34   Section       60  uc_dll.o(.text)
    .text                                    0x00013d70   Section        4  dllexp.o(.text)
    .text.clean                              0x00013d74   Section     2714  qdom.o(.text.clean)
    .text.clean                              0x00014810   Section     1768  qxml.o(.text.clean)
    i._ZN10QByteArray4dataEv                 0x00014ef8   Section       42  qdom.o(i._ZN10QByteArray4dataEv)
    i._ZN10QByteArrayC1Ev                    0x00014f24   Section       20  qxml.o(i._ZN10QByteArrayC1Ev)
    i._ZN10QByteArrayD1Ev                    0x00014f38   Section       24  qdom.o(i._ZN10QByteArrayD1Ev)
    i._ZN10QTextCodec12codecForNameEPKc      0x00014f50   Section       26  qdom.o(i._ZN10QTextCodec12codecForNameEPKc)
    i._ZN10QTextCodec12codecForNameEPKc.clean 0x00014f6a   Section       10  qdom.o(i._ZN10QTextCodec12codecForNameEPKc.clean)
    i._ZN10QXmlReaderD2Ev                    0x00014f74   Section        2  qxml.o(i._ZN10QXmlReaderD2Ev)
    i._ZN11QDomElementD1Ev                   0x00014f76   Section        8  qdom.o(i._ZN11QDomElementD1Ev)
    i._ZN11QDomHandler5dummyEv               0x00014f7e   Section        2  qdom.o(i._ZN11QDomHandler5dummyEv)
    i._ZN11QStringListC1Ev                   0x00014f80   Section       20  qxml.o(i._ZN11QStringListC1Ev)
    i._ZN11QStringListD1Ev                   0x00014f94   Section        8  qxml.o(i._ZN11QStringListD1Ev)
    i._ZN11QStringListaSERKS_                0x00014f9c   Section       54  qxml.o(i._ZN11QStringListaSERKS_)
    i._ZN13QConcatenableI11QLatin1CharE8appendToES0_RP5QChar 0x00014fd2   Section       22  qdom.o(i._ZN13QConcatenableI11QLatin1CharE8appendToES0_RP5QChar)
    i._ZN13QConcatenableI7QStringE8appendToERKS0_RP5QChar 0x00014fe8   Section       28  qdom.o(i._ZN13QConcatenableI7QStringE8appendToERKS0_RP5QChar)
    i._ZN14QXmlAttributes9AttributeC1ERKS0_  0x00015004   Section       52  qxml.o(i._ZN14QXmlAttributes9AttributeC1ERKS0_)
    i._ZN14QXmlAttributes9AttributeC1ERKS0_.clean 0x00015038   Section       30  qxml.o(i._ZN14QXmlAttributes9AttributeC1ERKS0_.clean)
    i._ZN14QXmlAttributes9AttributeD1Ev      0x00015056   Section       40  qdom.o(i._ZN14QXmlAttributes9AttributeD1Ev)
    i._ZN14QXmlAttributes9AttributeD1Ev.clean 0x0001507e   Section       30  qdom.o(i._ZN14QXmlAttributes9AttributeD1Ev.clean)
    i._ZN14QXmlAttributesD0Ev                0x0001509c   Section       16  qxml.o(i._ZN14QXmlAttributesD0Ev)
    i._ZN14QXmlAttributesD1Ev                0x000150ac   Section       20  qxml.o(i._ZN14QXmlAttributesD1Ev)
    i._ZN15QBasicAtomicInt3refEv             0x000150c0   Section       18  qdom.o(i._ZN15QBasicAtomicInt3refEv)
    i._ZN15QBasicAtomicInt5derefEv           0x000150d2   Section       18  qdom.o(i._ZN15QBasicAtomicInt5derefEv)
    i._ZN15QDomAttrPrivateD0Ev               0x000150e4   Section       16  qdom.o(i._ZN15QDomAttrPrivateD0Ev)
    i._ZN15QDomAttrPrivateD1Ev               0x000150f4   Section        8  qdom.o(i._ZN15QDomAttrPrivateD1Ev)
    i._ZN15QDomNodePrivate11setNoParentEv    0x000150fc   Section       34  qdom.o(i._ZN15QDomNodePrivate11setNoParentEv)
    i._ZN15QDomNodePrivate12setNodeValueERK7QString 0x0001511e   Section       10  qdom.o(i._ZN15QDomNodePrivate12setNodeValueERK7QString)
    i._ZN15QDomNodePrivate16setOwnerDocumentEP19QDomDocumentPrivate 0x00015128   Section       14  qdom.o(i._ZN15QDomNodePrivate16setOwnerDocumentEP19QDomDocumentPrivate)
    i._ZN15QDomNodePrivate9setParentEPS_     0x00015136   Section       14  qdom.o(i._ZN15QDomNodePrivate9setParentEPS_)
    i._ZN15QDomTextPrivateD0Ev               0x00015144   Section       16  qdom.o(i._ZN15QDomTextPrivateD0Ev)
    i._ZN15QDomTextPrivateD1Ev               0x00015154   Section        8  qdom.o(i._ZN15QDomTextPrivateD1Ev)
    i._ZN17QDomEntityPrivateD0Ev             0x0001515c   Section       16  qdom.o(i._ZN17QDomEntityPrivateD0Ev)
    i._ZN17QDomEntityPrivateD1Ev             0x0001516c   Section       52  qdom.o(i._ZN17QDomEntityPrivateD1Ev)
    i._ZN17QDomEntityPrivateD1Ev.clean       0x000151a0   Section       34  qdom.o(i._ZN17QDomEntityPrivateD1Ev.clean)
    i._ZN18QDomCommentPrivateD0Ev            0x000151c2   Section       16  qdom.o(i._ZN18QDomCommentPrivateD0Ev)
    i._ZN18QDomCommentPrivateD1Ev            0x000151d2   Section        8  qdom.o(i._ZN18QDomCommentPrivateD1Ev)
    i._ZN18QXmlDefaultHandlerC1Ev            0x000151dc   Section       32  qdom.o(i._ZN18QXmlDefaultHandlerC1Ev)
    i._ZN18QXmlDefaultHandlerD0Ev            0x000151fc   Section       16  qxml.o(i._ZN18QXmlDefaultHandlerD0Ev)
    i._ZN18QXmlDefaultHandlerD1Ev            0x0001520c   Section        2  qdom.o(i._ZN18QXmlDefaultHandlerD1Ev)
    i._ZN19QDomNotationPrivateD0Ev           0x0001520e   Section       16  qdom.o(i._ZN19QDomNotationPrivateD0Ev)
    i._ZN19QDomNotationPrivateD1Ev           0x00015220   Section       40  qdom.o(i._ZN19QDomNotationPrivateD1Ev)
    i._ZN19QDomNotationPrivateD1Ev.clean     0x00015248   Section       22  qdom.o(i._ZN19QDomNotationPrivateD1Ev.clean)
    i._ZN22QXmlInputSourcePrivateD1Ev        0x0001525e   Section       32  qxml.o(i._ZN22QXmlInputSourcePrivateD1Ev)
    i._ZN22QXmlInputSourcePrivateD1Ev.clean  0x0001527e   Section       24  qxml.o(i._ZN22QXmlInputSourcePrivateD1Ev.clean)
    i._ZN23QDomCDATASectionPrivateD0Ev       0x00015296   Section       16  qdom.o(i._ZN23QDomCDATASectionPrivateD0Ev)
    i._ZN23QDomCDATASectionPrivateD1Ev       0x000152a6   Section        8  qdom.o(i._ZN23QDomCDATASectionPrivateD1Ev)
    i._ZN23QXmlSimpleReaderLocatorD0Ev       0x000152ae   Section       12  qxml.o(i._ZN23QXmlSimpleReaderLocatorD0Ev)
    i._ZN23QXmlSimpleReaderLocatorD1Ev       0x000152ba   Section        2  qxml.o(i._ZN23QXmlSimpleReaderLocatorD1Ev)
    i._ZN23QXmlSimpleReaderPrivate10stringAddCEv 0x000152bc   Section       12  qxml.o(i._ZN23QXmlSimpleReaderPrivate10stringAddCEv)
    i._ZN23QXmlSimpleReaderPrivate11stringClearEv 0x000152c8   Section       14  qxml.o(i._ZN23QXmlSimpleReaderPrivate11stringClearEv)
    i._ZN23QXmlSimpleReaderPrivate12ExternEntityC1ERK7QStringS3_S3_ 0x000152d6   Section       36  qxml.o(i._ZN23QXmlSimpleReaderPrivate12ExternEntityC1ERK7QStringS3_S3_)
    i._ZN23QXmlSimpleReaderPrivate12ExternEntityC1ERK7QStringS3_S3_.clean 0x000152fa   Section       18  qxml.o(i._ZN23QXmlSimpleReaderPrivate12ExternEntityC1ERK7QStringS3_S3_.clean)
    i._ZN23QXmlSimpleReaderPrivate12ExternEntityD1Ev 0x0001530c   Section       28  qxml.o(i._ZN23QXmlSimpleReaderPrivate12ExternEntityD1Ev)
    i._ZN23QXmlSimpleReaderPrivate12ExternEntityD1Ev.clean 0x00015328   Section       18  qxml.o(i._ZN23QXmlSimpleReaderPrivate12ExternEntityD1Ev.clean)
    i._ZN23QXmlSimpleReaderPrivate21ExternParameterEntityD1Ev 0x0001533a   Section       18  qxml.o(i._ZN23QXmlSimpleReaderPrivate21ExternParameterEntityD1Ev)
    i._ZN23QXmlSimpleReaderPrivate21ExternParameterEntityD1Ev.clean 0x0001534c   Section       10  qxml.o(i._ZN23QXmlSimpleReaderPrivate21ExternParameterEntityD1Ev.clean)
    i._ZN23QXmlSimpleReaderPrivate5atEndEv   0x00015358   Section       28  qxml.o(i._ZN23QXmlSimpleReaderPrivate5atEndEv)
    i._ZN23QXmlSimpleReaderPrivate6XmlRefC1ERK7QStringS3_ 0x00015374   Section       26  qxml.o(i._ZN23QXmlSimpleReaderPrivate6XmlRefC1ERK7QStringS3_)
    i._ZN23QXmlSimpleReaderPrivate6XmlRefC1ERK7QStringS3_.clean 0x0001538e   Section       10  qxml.o(i._ZN23QXmlSimpleReaderPrivate6XmlRefC1ERK7QStringS3_.clean)
    i._ZN23QXmlSimpleReaderPrivate6XmlRefC1ERKS0_ 0x00015398   Section       26  qxml.o(i._ZN23QXmlSimpleReaderPrivate6XmlRefC1ERKS0_)
    i._ZN23QXmlSimpleReaderPrivate6XmlRefC1ERKS0_.clean 0x000153b2   Section       10  qxml.o(i._ZN23QXmlSimpleReaderPrivate6XmlRefC1ERKS0_.clean)
    i._ZN23QXmlSimpleReaderPrivate6XmlRefD1Ev 0x000153bc   Section       18  qxml.o(i._ZN23QXmlSimpleReaderPrivate6XmlRefD1Ev)
    i._ZN23QXmlSimpleReaderPrivate6XmlRefD1Ev.clean 0x000153ce   Section       10  qxml.o(i._ZN23QXmlSimpleReaderPrivate6XmlRefD1Ev.clean)
    i._ZN23QXmlSimpleReaderPrivate7refAddCEv 0x000153d8   Section       12  qxml.o(i._ZN23QXmlSimpleReaderPrivate7refAddCEv)
    i._ZN23QXmlSimpleReaderPrivate8nameAddCEv 0x000153e4   Section       12  qxml.o(i._ZN23QXmlSimpleReaderPrivate8nameAddCEv)
    i._ZN23QXmlSimpleReaderPrivate8refClearEv 0x000153f0   Section       14  qxml.o(i._ZN23QXmlSimpleReaderPrivate8refClearEv)
    i._ZN23QXmlSimpleReaderPrivate9nameClearEv 0x000153fe   Section       14  qxml.o(i._ZN23QXmlSimpleReaderPrivate9nameClearEv)
    i._ZN24QDomCharacterDataPrivateD0Ev      0x0001540c   Section       16  qdom.o(i._ZN24QDomCharacterDataPrivateD0Ev)
    i._ZN24QDomCharacterDataPrivateD1Ev      0x0001541c   Section        8  qdom.o(i._ZN24QDomCharacterDataPrivateD1Ev)
    i._ZN26QDomEntityReferencePrivateD0Ev    0x00015424   Section       16  qdom.o(i._ZN26QDomEntityReferencePrivateD0Ev)
    i._ZN26QDomEntityReferencePrivateD1Ev    0x00015434   Section        8  qdom.o(i._ZN26QDomEntityReferencePrivateD1Ev)
    i._ZN27QDomDocumentFragmentPrivateD0Ev   0x0001543c   Section       16  qdom.o(i._ZN27QDomDocumentFragmentPrivateD0Ev)
    i._ZN27QDomDocumentFragmentPrivateD1Ev   0x0001544c   Section        8  qdom.o(i._ZN27QDomDocumentFragmentPrivateD1Ev)
    i._ZN27QXmlNamespaceSupportPrivateC1Ev   0x00015454   Section      124  qxml.o(i._ZN27QXmlNamespaceSupportPrivateC1Ev)
    i._ZN27QXmlNamespaceSupportPrivateC1Ev.clean 0x000154d0   Section       30  qxml.o(i._ZN27QXmlNamespaceSupportPrivateC1Ev.clean)
    i._ZN27QXmlNamespaceSupportPrivateD1Ev   0x000154ee   Section       18  qxml.o(i._ZN27QXmlNamespaceSupportPrivateD1Ev)
    i._ZN27QXmlNamespaceSupportPrivateD1Ev.clean 0x00015500   Section       10  qxml.o(i._ZN27QXmlNamespaceSupportPrivateD1Ev.clean)
    i._ZN32QDomProcessingInstructionPrivateD0Ev 0x0001550a   Section       16  qdom.o(i._ZN32QDomProcessingInstructionPrivateD0Ev)
    i._ZN32QDomProcessingInstructionPrivateD1Ev 0x0001551a   Section        8  qdom.o(i._ZN32QDomProcessingInstructionPrivateD1Ev)
    i._ZN4QSetI7QStringED1Ev                 0x00015522   Section        8  qdom.o(i._ZN4QSetI7QStringED1Ev)
    i._ZN5QCharC1Ev                          0x0001552a   Section        6  qxml.o(i._ZN5QCharC1Ev)
    i._ZN7QString4dataEv                     0x00015530   Section       38  qdom.o(i._ZN7QString4dataEv)
    i._ZN7QString5clearEv                    0x00015556   Section       34  qdom.o(i._ZN7QString5clearEv)
    i._ZN7QString5clearEv.clean              0x00015578   Section       10  qdom.o(i._ZN7QString5clearEv.clean)
    i._ZN7QStringC1ERK13QLatin1String        0x00015582   Section       20  qdom.o(i._ZN7QStringC1ERK13QLatin1String)
    i._ZN7QStringC1ERKS_                     0x00015596   Section       16  qdom.o(i._ZN7QStringC1ERKS_)
    i._ZN7QStringC1Ev                        0x000155a8   Section       20  qdom.o(i._ZN7QStringC1Ev)
    i._ZN7QStringD1Ev                        0x000155bc   Section       24  qdom.o(i._ZN7QStringD1Ev)
    i._ZN7QStringaSERK13QLatin1String        0x000155d4   Section       34  qdom.o(i._ZN7QStringaSERK13QLatin1String)
    i._ZN7QStringaSERK13QLatin1String.clean  0x000155f6   Section       10  qdom.o(i._ZN7QStringaSERK13QLatin1String.clean)
    i._ZN7QStringpLE5QChar                   0x00015600   Section       82  qxml.o(i._ZN7QStringpLE5QChar)
    i._ZN7QStringpLERKS_                     0x00015652   Section        8  qdom.o(i._ZN7QStringpLERKS_)
    i._ZN9QHashData8willGrowEv               0x0001565a   Section       28  qdom.o(i._ZN9QHashData8willGrowEv)
    i._ZNK15QBasicAtomicInteqEi              0x00015676   Section       14  qdom.o(i._ZNK15QBasicAtomicInteqEi)
    i._ZNK15QBasicAtomicIntneEi              0x00015684   Section       14  qdom.o(i._ZNK15QBasicAtomicIntneEi)
    i._ZNK15QDomAttrPrivate6isAttrEv         0x00015692   Section        4  qdom.o(i._ZNK15QDomAttrPrivate6isAttrEv)
    i._ZNK15QDomAttrPrivate8nodeTypeEv       0x00015696   Section        4  qdom.o(i._ZNK15QDomAttrPrivate8nodeTypeEv)
    i._ZNK15QDomNodePrivate10isDocumentEv    0x0001569a   Section        4  qdom.o(i._ZNK15QDomNodePrivate10isDocumentEv)
    i._ZNK15QDomNodePrivate10isNotationEv    0x0001569e   Section        4  qdom.o(i._ZNK15QDomNodePrivate10isNotationEv)
    i._ZNK15QDomNodePrivate14isCDATASectionEv 0x000156a2   Section        4  qdom.o(i._ZNK15QDomNodePrivate14isCDATASectionEv)
    i._ZNK15QDomNodePrivate14isDocumentTypeEv 0x000156a6   Section        4  qdom.o(i._ZNK15QDomNodePrivate14isDocumentTypeEv)
    i._ZNK15QDomNodePrivate15isCharacterDataEv 0x000156aa   Section        4  qdom.o(i._ZNK15QDomNodePrivate15isCharacterDataEv)
    i._ZNK15QDomNodePrivate17isEntityReferenceEv 0x000156ae   Section        4  qdom.o(i._ZNK15QDomNodePrivate17isEntityReferenceEv)
    i._ZNK15QDomNodePrivate18isDocumentFragmentEv 0x000156b2   Section        4  qdom.o(i._ZNK15QDomNodePrivate18isDocumentFragmentEv)
    i._ZNK15QDomNodePrivate23isProcessingInstructionEv 0x000156b6   Section        4  qdom.o(i._ZNK15QDomNodePrivate23isProcessingInstructionEv)
    i._ZNK15QDomNodePrivate6isAttrEv         0x000156ba   Section        4  qdom.o(i._ZNK15QDomNodePrivate6isAttrEv)
    i._ZNK15QDomNodePrivate6isTextEv         0x000156be   Section        4  qdom.o(i._ZNK15QDomNodePrivate6isTextEv)
    i._ZNK15QDomNodePrivate6parentEv         0x000156c2   Section       16  qdom.o(i._ZNK15QDomNodePrivate6parentEv)
    i._ZNK15QDomNodePrivate8isEntityEv       0x000156d2   Section        4  qdom.o(i._ZNK15QDomNodePrivate8isEntityEv)
    i._ZNK15QDomNodePrivate8nodeNameEv       0x000156d6   Section       10  qdom.o(i._ZNK15QDomNodePrivate8nodeNameEv)
    i._ZNK15QDomNodePrivate8nodeTypeEv       0x000156e0   Section        4  qdom.o(i._ZNK15QDomNodePrivate8nodeTypeEv)
    i._ZNK15QDomNodePrivate9isCommentEv      0x000156e4   Section        4  qdom.o(i._ZNK15QDomNodePrivate9isCommentEv)
    i._ZNK15QDomNodePrivate9isElementEv      0x000156e8   Section        4  qdom.o(i._ZNK15QDomNodePrivate9isElementEv)
    i._ZNK15QDomNodePrivate9nodeValueEv      0x000156ec   Section       10  qdom.o(i._ZNK15QDomNodePrivate9nodeValueEv)
    i._ZNK15QDomTextPrivate6isTextEv         0x000156f6   Section        4  qdom.o(i._ZNK15QDomTextPrivate6isTextEv)
    i._ZNK15QDomTextPrivate8nodeTypeEv       0x000156fa   Section        4  qdom.o(i._ZNK15QDomTextPrivate8nodeTypeEv)
    i._ZNK17QDomEntityPrivate8isEntityEv     0x000156fe   Section        4  qdom.o(i._ZNK17QDomEntityPrivate8isEntityEv)
    i._ZNK17QDomEntityPrivate8nodeTypeEv     0x00015702   Section        4  qdom.o(i._ZNK17QDomEntityPrivate8nodeTypeEv)
    i._ZNK18QDomCommentPrivate8nodeTypeEv    0x00015706   Section        4  qdom.o(i._ZNK18QDomCommentPrivate8nodeTypeEv)
    i._ZNK18QDomCommentPrivate9isCommentEv   0x0001570a   Section        4  qdom.o(i._ZNK18QDomCommentPrivate9isCommentEv)
    i._ZNK18QDomElementPrivate8nodeTypeEv    0x0001570e   Section        4  qdom.o(i._ZNK18QDomElementPrivate8nodeTypeEv)
    i._ZNK18QDomElementPrivate9isElementEv   0x00015712   Section        4  qdom.o(i._ZNK18QDomElementPrivate9isElementEv)
    i._ZNK19QDomDocumentPrivate10isDocumentEv 0x00015716   Section        4  qdom.o(i._ZNK19QDomDocumentPrivate10isDocumentEv)
    i._ZNK19QDomDocumentPrivate8nodeTypeEv   0x0001571a   Section        4  qdom.o(i._ZNK19QDomDocumentPrivate8nodeTypeEv)
    i._ZNK19QDomNotationPrivate10isNotationEv 0x0001571e   Section        4  qdom.o(i._ZNK19QDomNotationPrivate10isNotationEv)
    i._ZNK19QDomNotationPrivate8nodeTypeEv   0x00015722   Section        4  qdom.o(i._ZNK19QDomNotationPrivate8nodeTypeEv)
    i._ZNK23QDomCDATASectionPrivate14isCDATASectionEv 0x00015726   Section        4  qdom.o(i._ZNK23QDomCDATASectionPrivate14isCDATASectionEv)
    i._ZNK23QDomCDATASectionPrivate8nodeTypeEv 0x0001572a   Section        4  qdom.o(i._ZNK23QDomCDATASectionPrivate8nodeTypeEv)
    i._ZNK23QDomDocumentTypePrivate14isDocumentTypeEv 0x0001572e   Section        4  qdom.o(i._ZNK23QDomDocumentTypePrivate14isDocumentTypeEv)
    i._ZNK23QDomDocumentTypePrivate8nodeTypeEv 0x00015732   Section        4  qdom.o(i._ZNK23QDomDocumentTypePrivate8nodeTypeEv)
    i._ZNK23QXmlSimpleReaderLocator10lineNumberEv 0x00015736   Section       20  qxml.o(i._ZNK23QXmlSimpleReaderLocator10lineNumberEv)
    i._ZNK23QXmlSimpleReaderLocator12columnNumberEv 0x0001574a   Section       20  qxml.o(i._ZNK23QXmlSimpleReaderLocator12columnNumberEv)
    i._ZNK23QXmlSimpleReaderPrivate6XmlRef7isEmptyEv 0x0001575e   Section       18  qxml.o(i._ZNK23QXmlSimpleReaderPrivate6XmlRef7isEmptyEv)
    i._ZNK24QDomCharacterDataPrivate15isCharacterDataEv 0x00015770   Section        4  qdom.o(i._ZNK24QDomCharacterDataPrivate15isCharacterDataEv)
    i._ZNK24QDomCharacterDataPrivate8nodeTypeEv 0x00015774   Section        4  qdom.o(i._ZNK24QDomCharacterDataPrivate8nodeTypeEv)
    i._ZNK26QDomEntityReferencePrivate17isEntityReferenceEv 0x00015778   Section        4  qdom.o(i._ZNK26QDomEntityReferencePrivate17isEntityReferenceEv)
    i._ZNK26QDomEntityReferencePrivate8nodeTypeEv 0x0001577c   Section        4  qdom.o(i._ZNK26QDomEntityReferencePrivate8nodeTypeEv)
    i._ZNK27QDomDocumentFragmentPrivate18isDocumentFragmentEv 0x00015780   Section        4  qdom.o(i._ZNK27QDomDocumentFragmentPrivate18isDocumentFragmentEv)
    i._ZNK27QDomDocumentFragmentPrivate8nodeTypeEv 0x00015784   Section        4  qdom.o(i._ZNK27QDomDocumentFragmentPrivate8nodeTypeEv)
    i._ZNK32QDomProcessingInstructionPrivate23isProcessingInstructionEv 0x00015788   Section        4  qdom.o(i._ZNK32QDomProcessingInstructionPrivate23isProcessingInstructionEv)
    i._ZNK32QDomProcessingInstructionPrivate8nodeTypeEv 0x0001578c   Section        4  qdom.o(i._ZNK32QDomProcessingInstructionPrivate8nodeTypeEv)
    i._ZNK7QString6isNullEv                  0x00015790   Section       20  qdom.o(i._ZNK7QString6isNullEv)
    i._ZNK7QString7isEmptyEv                 0x000157a4   Section       16  qdom.o(i._ZNK7QString7isEmptyEv)
    i._ZNK7QStringneERK13QLatin1String       0x000157b4   Section       12  qxml.o(i._ZNK7QStringneERK13QLatin1String)
    i._ZNK7QStringneERKS_                    0x000157c0   Section       12  qdom.o(i._ZNK7QStringneERKS_)
    i._ZNK8QCharRefcv5QCharEv                0x000157cc   Section       26  qdom.o(i._ZNK8QCharRefcv5QCharEv)
    i._ZNK9QListData3endEv                   0x000157e6   Section       12  qdom.o(i._ZNK9QListData3endEv)
    i._ZNK9QListData5beginEv                 0x000157f2   Section       12  qdom.o(i._ZNK9QListData5beginEv)
    i._ZThn12_N18QXmlDefaultHandlerD0Ev      0x000157fe   Section       10  qxml.o(i._ZThn12_N18QXmlDefaultHandlerD0Ev)
    i._ZThn12_N18QXmlDefaultHandlerD1Ev      0x00015808   Section       10  qxml.o(i._ZThn12_N18QXmlDefaultHandlerD1Ev)
    i._ZThn16_N18QXmlDefaultHandlerD0Ev      0x00015812   Section       10  qxml.o(i._ZThn16_N18QXmlDefaultHandlerD0Ev)
    i._ZThn16_N18QXmlDefaultHandlerD1Ev      0x0001581c   Section       10  qxml.o(i._ZThn16_N18QXmlDefaultHandlerD1Ev)
    i._ZThn20_N18QXmlDefaultHandlerD0Ev      0x00015826   Section       10  qxml.o(i._ZThn20_N18QXmlDefaultHandlerD0Ev)
    i._ZThn20_N18QXmlDefaultHandlerD1Ev      0x00015830   Section       10  qxml.o(i._ZThn20_N18QXmlDefaultHandlerD1Ev)
    i._ZThn4_N18QXmlDefaultHandlerD0Ev       0x0001583a   Section       10  qxml.o(i._ZThn4_N18QXmlDefaultHandlerD0Ev)
    i._ZThn4_N18QXmlDefaultHandlerD1Ev       0x00015844   Section       10  qxml.o(i._ZThn4_N18QXmlDefaultHandlerD1Ev)
    i._ZThn8_N18QXmlDefaultHandlerD0Ev       0x0001584e   Section       10  qxml.o(i._ZThn8_N18QXmlDefaultHandlerD0Ev)
    i._ZThn8_N18QXmlDefaultHandlerD1Ev       0x00015858   Section       10  qxml.o(i._ZThn8_N18QXmlDefaultHandlerD1Ev)
    i._ZdlPvS_                               0x00015862   Section        2  qdom.o(i._ZdlPvS_)
    i._Zeq5QCharS_                           0x00015864   Section       20  qdom.o(i._Zeq5QCharS_)
    i._Zne5QCharS_                           0x00015878   Section       20  qxml.o(i._Zne5QCharS_)
    i._ZnwjPv                                0x0001588c   Section        4  qdom.o(i._ZnwjPv)
    t._Z15qMapLessThanKeyI7QStringEbRKT_S3_  0x00015890   Section        8  qxml.o(t._Z15qMapLessThanKeyI7QStringEbRKT_S3_)
    t._Z4qMinIiERKT_S2_S2_                   0x00015898   Section       12  qxml.o(t._Z4qMinIiERKT_S2_S2_)
    t._ZN13QConcatenableI14QStringBuilderI11QLatin1Char7QStringEE4sizeERKS3_ 0x000158a4   Section       12  qxml.o(t._ZN13QConcatenableI14QStringBuilderI11QLatin1Char7QStringEE4sizeERKS3_)
    t._ZN13QConcatenableI14QStringBuilderI11QLatin1Char7QStringEE8appendToERKS3_RP5QChar 0x000158b0   Section       42  qxml.o(t._ZN13QConcatenableI14QStringBuilderI11QLatin1Char7QStringEE8appendToERKS3_RP5QChar)
    t._ZN13QConcatenableI14QStringBuilderI13QLatin1String7QStringEE4sizeERKS3_ 0x000158da   Section       30  qdom.o(t._ZN13QConcatenableI14QStringBuilderI13QLatin1String7QStringEE4sizeERKS3_)
    t._ZN13QConcatenableI14QStringBuilderI13QLatin1String7QStringEE8appendToERKS3_RP5QChar 0x000158f8   Section       48  qdom.o(t._ZN13QConcatenableI14QStringBuilderI13QLatin1String7QStringEE8appendToERKS3_RP5QChar)
    t._ZN14QHashDummyNodeI7QString15QHashDummyValueEC1ERKS0_ 0x00015928   Section       12  qdom.o(t._ZN14QHashDummyNodeI7QString15QHashDummyValueEC1ERKS0_)
    t._ZN14QScopedPointerI11QXmlLocator21QScopedPointerDeleterIS0_EED1Ev 0x00015934   Section       24  qxml.o(t._ZN14QScopedPointerI11QXmlLocator21QScopedPointerDeleterIS0_EED1Ev)
    t._ZN14QScopedPointerI15QDomNodePrivate21QScopedPointerDeleterIS0_EE5resetEPS0_ 0x0001594c   Section       24  qdom.o(t._ZN14QScopedPointerI15QDomNodePrivate21QScopedPointerDeleterIS0_EE5resetEPS0_)
    t._ZN14QScopedPointerI15QDomNodePrivate21QScopedPointerDeleterIS0_EED1Ev 0x00015964   Section       24  qdom.o(t._ZN14QScopedPointerI15QDomNodePrivate21QScopedPointerDeleterIS0_EED1Ev)
    t._ZN14QScopedPointerI17QDomEntityPrivate21QScopedPointerDeleterIS0_EED1Ev 0x0001597c   Section       24  qdom.o(t._ZN14QScopedPointerI17QDomEntityPrivate21QScopedPointerDeleterIS0_EED1Ev)
    t._ZN14QScopedPointerI23QDomNamedNodeMapPrivate21QScopedPointerDeleterIS0_EED1Ev 0x00015994   Section       26  qdom.o(t._ZN14QScopedPointerI23QDomNamedNodeMapPrivate21QScopedPointerDeleterIS0_EED1Ev)
    t._ZN14QScopedPointerI23QXmlSimpleReaderPrivate21QScopedPointerDeleterIS0_EED1Ev 0x000159ae   Section       26  qxml.o(t._ZN14QScopedPointerI23QXmlSimpleReaderPrivate21QScopedPointerDeleterIS0_EED1Ev)
    t._ZN14QScopedPointerI25QXmlParseExceptionPrivate21QScopedPointerDeleterIS0_EED1Ev 0x000159c8   Section       48  qxml.o(t._ZN14QScopedPointerI25QXmlParseExceptionPrivate21QScopedPointerDeleterIS0_EED1Ev)
    t._ZN14QScopedPointerI25QXmlParseExceptionPrivate21QScopedPointerDeleterIS0_EED1Ev.clean 0x000159f8   Section       22  qxml.o(t._ZN14QScopedPointerI25QXmlParseExceptionPrivate21QScopedPointerDeleterIS0_EED1Ev.clean)
    t._ZN28QExplicitlySharedDataPointerI23QDomDocumentTypePrivateED1Ev 0x00015a0e   Section       36  qdom.o(t._ZN28QExplicitlySharedDataPointerI23QDomDocumentTypePrivateED1Ev)
    t._ZN28QExplicitlySharedDataPointerI23QDomDocumentTypePrivateEaSEPS0_ 0x00015a32   Section       52  qdom.o(t._ZN28QExplicitlySharedDataPointerI23QDomDocumentTypePrivateEaSEPS0_)
    t._ZN28QExplicitlySharedDataPointerI25QDomImplementationPrivateEC1EPS0_ 0x00015a66   Section       18  qdom.o(t._ZN28QExplicitlySharedDataPointerI25QDomImplementationPrivateEC1EPS0_)
    t._ZN28QExplicitlySharedDataPointerI25QDomImplementationPrivateED1Ev 0x00015a78   Section       28  qdom.o(t._ZN28QExplicitlySharedDataPointerI25QDomImplementationPrivateED1Ev)
    t._ZN4QMapI7QStringN23QXmlSimpleReaderPrivate12ExternEntityEE11node_createEP8QMapDataPPNS4_4NodeERKS0_RKS2_ 0x00015a94   Section      132  qxml.o(t._ZN4QMapI7QStringN23QXmlSimpleReaderPrivate12ExternEntityEE11node_createEP8QMapDataPPNS4_4NodeERKS0_RKS2_)
    t._ZN4QMapI7QStringN23QXmlSimpleReaderPrivate12ExternEntityEE11node_createEP8QMapDataPPNS4_4NodeERKS0_RKS2_.clean 0x00015b18   Section       54  qxml.o(t._ZN4QMapI7QStringN23QXmlSimpleReaderPrivate12ExternEntityEE11node_createEP8QMapDataPPNS4_4NodeERKS0_RKS2_.clean)
    t._ZN4QMapI7QStringN23QXmlSimpleReaderPrivate12ExternEntityEE13detach_helperEv 0x00015b4e   Section      114  qxml.o(t._ZN4QMapI7QStringN23QXmlSimpleReaderPrivate12ExternEntityEE13detach_helperEv)
    t._ZN4QMapI7QStringN23QXmlSimpleReaderPrivate12ExternEntityEE13detach_helperEv.clean 0x00015bc0   Section        8  qxml.o(t._ZN4QMapI7QStringN23QXmlSimpleReaderPrivate12ExternEntityEE13detach_helperEv.clean)
    t._ZN4QMapI7QStringN23QXmlSimpleReaderPrivate12ExternEntityEE6detachEv 0x00015bc8   Section       26  qxml.o(t._ZN4QMapI7QStringN23QXmlSimpleReaderPrivate12ExternEntityEE6detachEv)
    t._ZN4QMapI7QStringN23QXmlSimpleReaderPrivate12ExternEntityEE6insertERKS0_RKS2_ 0x00015be2   Section      154  qxml.o(t._ZN4QMapI7QStringN23QXmlSimpleReaderPrivate12ExternEntityEE6insertERKS0_RKS2_)
    t._ZN4QMapI7QStringN23QXmlSimpleReaderPrivate12ExternEntityEE8freeDataEP8QMapData 0x00015c7c   Section       42  qxml.o(t._ZN4QMapI7QStringN23QXmlSimpleReaderPrivate12ExternEntityEE8freeDataEP8QMapData)
    t._ZN4QMapI7QStringN23QXmlSimpleReaderPrivate12ExternEntityEEC1Ev 0x00015ca8   Section       24  qxml.o(t._ZN4QMapI7QStringN23QXmlSimpleReaderPrivate12ExternEntityEEC1Ev)
    t._ZN4QMapI7QStringN23QXmlSimpleReaderPrivate12ExternEntityEED1Ev 0x00015cc0   Section       32  qxml.o(t._ZN4QMapI7QStringN23QXmlSimpleReaderPrivate12ExternEntityEED1Ev)
    t._ZN4QMapI7QStringN23QXmlSimpleReaderPrivate21ExternParameterEntityEE11node_createEP8QMapDataPPNS4_4NodeERKS0_RKS2_ 0x00015ce0   Section      118  qxml.o(t._ZN4QMapI7QStringN23QXmlSimpleReaderPrivate21ExternParameterEntityEE11node_createEP8QMapDataPPNS4_4NodeERKS0_RKS2_)
    t._ZN4QMapI7QStringN23QXmlSimpleReaderPrivate21ExternParameterEntityEE11node_createEP8QMapDataPPNS4_4NodeERKS0_RKS2_.clean 0x00015d56   Section       46  qxml.o(t._ZN4QMapI7QStringN23QXmlSimpleReaderPrivate21ExternParameterEntityEE11node_createEP8QMapDataPPNS4_4NodeERKS0_RKS2_.clean)
    t._ZN4QMapI7QStringN23QXmlSimpleReaderPrivate21ExternParameterEntityEE13detach_helperEv 0x00015d84   Section      114  qxml.o(t._ZN4QMapI7QStringN23QXmlSimpleReaderPrivate21ExternParameterEntityEE13detach_helperEv)
    t._ZN4QMapI7QStringN23QXmlSimpleReaderPrivate21ExternParameterEntityEE13detach_helperEv.clean 0x00015df6   Section        8  qxml.o(t._ZN4QMapI7QStringN23QXmlSimpleReaderPrivate21ExternParameterEntityEE13detach_helperEv.clean)
    t._ZN4QMapI7QStringN23QXmlSimpleReaderPrivate21ExternParameterEntityEE6detachEv 0x00015dfe   Section       26  qxml.o(t._ZN4QMapI7QStringN23QXmlSimpleReaderPrivate21ExternParameterEntityEE6detachEv)
    t._ZN4QMapI7QStringN23QXmlSimpleReaderPrivate21ExternParameterEntityEE6insertERKS0_RKS2_ 0x00015e18   Section      142  qxml.o(t._ZN4QMapI7QStringN23QXmlSimpleReaderPrivate21ExternParameterEntityEE6insertERKS0_RKS2_)
    t._ZN4QMapI7QStringN23QXmlSimpleReaderPrivate21ExternParameterEntityEE8freeDataEP8QMapData 0x00015ea6   Section       42  qxml.o(t._ZN4QMapI7QStringN23QXmlSimpleReaderPrivate21ExternParameterEntityEE8freeDataEP8QMapData)
    t._ZN4QMapI7QStringN23QXmlSimpleReaderPrivate21ExternParameterEntityEEC1Ev 0x00015ed0   Section       24  qxml.o(t._ZN4QMapI7QStringN23QXmlSimpleReaderPrivate21ExternParameterEntityEEC1Ev)
    t._ZN4QMapI7QStringN23QXmlSimpleReaderPrivate21ExternParameterEntityEED1Ev 0x00015ee8   Section       32  qxml.o(t._ZN4QMapI7QStringN23QXmlSimpleReaderPrivate21ExternParameterEntityEED1Ev)
    t._ZN4QMapI7QStringS0_E11node_createEP8QMapDataPPNS2_4NodeERKS0_S8_ 0x00015f08   Section      106  qxml.o(t._ZN4QMapI7QStringS0_E11node_createEP8QMapDataPPNS2_4NodeERKS0_S8_)
    t._ZN4QMapI7QStringS0_E11node_createEP8QMapDataPPNS2_4NodeERKS0_S8_.clean 0x00015f72   Section       38  qxml.o(t._ZN4QMapI7QStringS0_E11node_createEP8QMapDataPPNS2_4NodeERKS0_S8_.clean)
    t._ZN4QMapI7QStringS0_E13detach_helperEv 0x00015f98   Section      114  qxml.o(t._ZN4QMapI7QStringS0_E13detach_helperEv)
    t._ZN4QMapI7QStringS0_E13detach_helperEv.clean 0x0001600a   Section        8  qxml.o(t._ZN4QMapI7QStringS0_E13detach_helperEv.clean)
    t._ZN4QMapI7QStringS0_E3endEv            0x00016012   Section       12  qxml.o(t._ZN4QMapI7QStringS0_E3endEv)
    t._ZN4QMapI7QStringS0_E4findERKS0_       0x0001601e   Section       20  qxml.o(t._ZN4QMapI7QStringS0_E4findERKS0_)
    t._ZN4QMapI7QStringS0_E5clearEv          0x00016032   Section       26  qxml.o(t._ZN4QMapI7QStringS0_E5clearEv)
    t._ZN4QMapI7QStringS0_E5clearEv.clean    0x0001604c   Section       10  qxml.o(t._ZN4QMapI7QStringS0_E5clearEv.clean)
    t._ZN4QMapI7QStringS0_E6detachEv         0x00016056   Section       26  qxml.o(t._ZN4QMapI7QStringS0_E6detachEv)
    t._ZN4QMapI7QStringS0_E6insertERKS0_S3_  0x00016070   Section       62  qxml.o(t._ZN4QMapI7QStringS0_E6insertERKS0_S3_)
    t._ZN4QMapI7QStringS0_E8freeDataEP8QMapData 0x000160ae   Section       42  qxml.o(t._ZN4QMapI7QStringS0_E8freeDataEP8QMapData)
    t._ZN4QMapI7QStringS0_EC1ERKS1_          0x000160d8   Section       32  qxml.o(t._ZN4QMapI7QStringS0_EC1ERKS1_)
    t._ZN4QMapI7QStringS0_EC1Ev              0x000160f8   Section       24  qxml.o(t._ZN4QMapI7QStringS0_EC1Ev)
    t._ZN4QMapI7QStringS0_ED1Ev              0x00016110   Section       32  qxml.o(t._ZN4QMapI7QStringS0_ED1Ev)
    t._ZN4QMapI7QStringS0_EaSERKS1_          0x00016130   Section       58  qxml.o(t._ZN4QMapI7QStringS0_EaSERKS1_)
    t._ZN5QHashI7QString15QHashDummyValueE11deleteNode2EPN9QHashData4NodeE 0x0001616a   Section       10  qdom.o(t._ZN5QHashI7QString15QHashDummyValueE11deleteNode2EPN9QHashData4NodeE)
    t._ZN5QHashI7QString15QHashDummyValueE13duplicateNodeEPN9QHashData4NodeEPv 0x00016174   Section       28  qdom.o(t._ZN5QHashI7QString15QHashDummyValueE13duplicateNodeEPN9QHashData4NodeEPv)
    t._ZN5QHashI7QString15QHashDummyValueE13duplicateNodeEPN9QHashData4NodeEPv.clean 0x00016190   Section       12  qdom.o(t._ZN5QHashI7QString15QHashDummyValueE13duplicateNodeEPN9QHashData4NodeEPv.clean)
    t._ZN5QHashI7QString15QHashDummyValueE6insertERKS0_RKS1_ 0x0001619c   Section      168  qdom.o(t._ZN5QHashI7QString15QHashDummyValueE6insertERKS0_RKS1_)
    t._ZN5QHashI7QString15QHashDummyValueE6insertERKS0_RKS1_.clean 0x00016244   Section       12  qdom.o(t._ZN5QHashI7QString15QHashDummyValueE6insertERKS0_RKS1_.clean)
    t._ZN5QHashI7QString15QHashDummyValueE8freeDataEP9QHashData 0x00016250   Section       16  qdom.o(t._ZN5QHashI7QString15QHashDummyValueE8freeDataEP9QHashData)
    t._ZN5QHashI7QString15QHashDummyValueED1Ev 0x00016260   Section       28  qdom.o(t._ZN5QHashI7QString15QHashDummyValueED1Ev)
    t._ZN5QHashI7QStringP15QDomNodePrivateE11deleteNode2EPN9QHashData4NodeE 0x0001627c   Section       10  qdom.o(t._ZN5QHashI7QStringP15QDomNodePrivateE11deleteNode2EPN9QHashData4NodeE)
    t._ZN5QHashI7QStringP15QDomNodePrivateE11insertMultiERKS0_RKS2_ 0x00016286   Section       86  qdom.o(t._ZN5QHashI7QStringP15QDomNodePrivateE11insertMultiERKS0_RKS2_)
    t._ZN5QHashI7QStringP15QDomNodePrivateE11insertMultiERKS0_RKS2_.clean 0x000162dc   Section       12  qdom.o(t._ZN5QHashI7QStringP15QDomNodePrivateE11insertMultiERKS0_RKS2_.clean)
    t._ZN5QHashI7QStringP15QDomNodePrivateE13detach_helperEv 0x000162e8   Section       56  qdom.o(t._ZN5QHashI7QStringP15QDomNodePrivateE13detach_helperEv)
    t._ZN5QHashI7QStringP15QDomNodePrivateE13duplicateNodeEPN9QHashData4NodeEPv 0x00016320   Section       30  qdom.o(t._ZN5QHashI7QStringP15QDomNodePrivateE13duplicateNodeEPN9QHashData4NodeEPv)
    t._ZN5QHashI7QStringP15QDomNodePrivateE13duplicateNodeEPN9QHashData4NodeEPv.clean 0x0001633e   Section       12  qdom.o(t._ZN5QHashI7QStringP15QDomNodePrivateE13duplicateNodeEPN9QHashData4NodeEPv.clean)
    t._ZN5QHashI7QStringP15QDomNodePrivateE14const_iteratorppEv 0x0001634a   Section       16  qdom.o(t._ZN5QHashI7QStringP15QDomNodePrivateE14const_iteratorppEv)
    t._ZN5QHashI7QStringP15QDomNodePrivateE6detachEv 0x0001635a   Section       26  qdom.o(t._ZN5QHashI7QStringP15QDomNodePrivateE6detachEv)
    t._ZN5QHashI7QStringP15QDomNodePrivateE6removeERKS0_ 0x00016374   Section      188  qdom.o(t._ZN5QHashI7QStringP15QDomNodePrivateE6removeERKS0_)
    t._ZN5QHashI7QStringP15QDomNodePrivateE8freeDataEP9QHashData 0x00016430   Section       16  qdom.o(t._ZN5QHashI7QStringP15QDomNodePrivateE8freeDataEP9QHashData)
    t._ZN5QHashI7QStringP15QDomNodePrivateEC1Ev 0x00016440   Section       24  qdom.o(t._ZN5QHashI7QStringP15QDomNodePrivateEC1Ev)
    t._ZN5QHashI7QStringP15QDomNodePrivateED1Ev 0x00016458   Section       28  qdom.o(t._ZN5QHashI7QStringP15QDomNodePrivateED1Ev)
    t._ZN5QListI7QStringE13detach_helperEv   0x00016474   Section       88  qxml.o(t._ZN5QListI7QStringE13detach_helperEv)
    t._ZN5QListI7QStringE13detach_helperEv.clean 0x000164cc   Section        8  qxml.o(t._ZN5QListI7QStringE13detach_helperEv.clean)
    t._ZN5QListI7QStringE14node_constructEPNS1_4NodeERKS0_ 0x000164d4   Section       26  qxml.o(t._ZN5QListI7QStringE14node_constructEPNS1_4NodeERKS0_)
    t._ZN5QListI7QStringE14node_constructEPNS1_4NodeERKS0_.clean 0x000164ee   Section       12  qxml.o(t._ZN5QListI7QStringE14node_constructEPNS1_4NodeERKS0_.clean)
    t._ZN5QListI7QStringE18detach_helper_growEii 0x000164fa   Section      186  qxml.o(t._ZN5QListI7QStringE18detach_helper_growEii)
    t._ZN5QListI7QStringE18detach_helper_growEii.clean 0x000165b4   Section        8  qxml.o(t._ZN5QListI7QStringE18detach_helper_growEii.clean)
    t._ZN5QListI7QStringE4freeEPN9QListData4DataE 0x000165bc   Section       54  qxml.o(t._ZN5QListI7QStringE4freeEPN9QListData4DataE)
    t._ZN5QListI7QStringE6appendERKS0_       0x000165f4   Section      100  qxml.o(t._ZN5QListI7QStringE6appendERKS0_)
    t._ZN5QListI7QStringE6appendERKS0_.clean 0x00016658   Section        8  qxml.o(t._ZN5QListI7QStringE6appendERKS0_.clean)
    t._ZN5QListI7QStringE6detachEv           0x00016660   Section       24  qxml.o(t._ZN5QListI7QStringE6detachEv)
    t._ZN5QListI7QStringE9node_copyEPNS1_4NodeES3_S3_ 0x00016678   Section       70  qxml.o(t._ZN5QListI7QStringE9node_copyEPNS1_4NodeES3_S3_)
    t._ZN5QListI7QStringE9node_copyEPNS1_4NodeES3_S3_.clean 0x000166be   Section       22  qxml.o(t._ZN5QListI7QStringE9node_copyEPNS1_4NodeES3_S3_.clean)
    t._ZN5QListI7QStringED1Ev                0x000166d4   Section       30  qxml.o(t._ZN5QListI7QStringED1Ev)
    t._ZN5QListIN14QXmlAttributes9AttributeEE13detach_helperEv 0x000166f2   Section       88  qxml.o(t._ZN5QListIN14QXmlAttributes9AttributeEE13detach_helperEv)
    t._ZN5QListIN14QXmlAttributes9AttributeEE13detach_helperEv.clean 0x0001674a   Section        8  qxml.o(t._ZN5QListIN14QXmlAttributes9AttributeEE13detach_helperEv.clean)
    t._ZN5QListIN14QXmlAttributes9AttributeEE13node_destructEPNS2_4NodeES4_ 0x00016752   Section       30  qxml.o(t._ZN5QListIN14QXmlAttributes9AttributeEE13node_destructEPNS2_4NodeES4_)
    t._ZN5QListIN14QXmlAttributes9AttributeEE14node_constructEPNS2_4NodeERKS1_ 0x00016770   Section       24  qxml.o(t._ZN5QListIN14QXmlAttributes9AttributeEE14node_constructEPNS2_4NodeERKS1_)
    t._ZN5QListIN14QXmlAttributes9AttributeEE14node_constructEPNS2_4NodeERKS1_.clean 0x00016788   Section       10  qxml.o(t._ZN5QListIN14QXmlAttributes9AttributeEE14node_constructEPNS2_4NodeERKS1_.clean)
    t._ZN5QListIN14QXmlAttributes9AttributeEE18detach_helper_growEii 0x00016792   Section      180  qxml.o(t._ZN5QListIN14QXmlAttributes9AttributeEE18detach_helper_growEii)
    t._ZN5QListIN14QXmlAttributes9AttributeEE18detach_helper_growEii.clean 0x00016846   Section        8  qxml.o(t._ZN5QListIN14QXmlAttributes9AttributeEE18detach_helper_growEii.clean)
    t._ZN5QListIN14QXmlAttributes9AttributeEE4freeEPN9QListData4DataE 0x0001684e   Section       44  qxml.o(t._ZN5QListIN14QXmlAttributes9AttributeEE4freeEPN9QListData4DataE)
    t._ZN5QListIN14QXmlAttributes9AttributeEE6appendERKS1_ 0x0001687c   Section       96  qxml.o(t._ZN5QListIN14QXmlAttributes9AttributeEE6appendERKS1_)
    t._ZN5QListIN14QXmlAttributes9AttributeEE6appendERKS1_.clean 0x000168dc   Section        8  qxml.o(t._ZN5QListIN14QXmlAttributes9AttributeEE6appendERKS1_.clean)
    t._ZN5QListIN14QXmlAttributes9AttributeEE9node_copyEPNS2_4NodeES4_S4_ 0x000168e4   Section       72  qxml.o(t._ZN5QListIN14QXmlAttributes9AttributeEE9node_copyEPNS2_4NodeES4_S4_)
    t._ZN5QListIN14QXmlAttributes9AttributeEE9node_copyEPNS2_4NodeES4_S4_.clean 0x0001692c   Section       18  qxml.o(t._ZN5QListIN14QXmlAttributes9AttributeEE9node_copyEPNS2_4NodeES4_S4_.clean)
    t._ZN5QListIN14QXmlAttributes9AttributeEEC1Ev 0x00016940   Section       20  qxml.o(t._ZN5QListIN14QXmlAttributes9AttributeEEC1Ev)
    t._ZN5QListIN14QXmlAttributes9AttributeEED1Ev 0x00016954   Section       30  qxml.o(t._ZN5QListIN14QXmlAttributes9AttributeEED1Ev)
    t._ZN5QListIP15QDomNodePrivateE13detach_helperEv 0x00016972   Section       88  qdom.o(t._ZN5QListIP15QDomNodePrivateE13detach_helperEv)
    t._ZN5QListIP15QDomNodePrivateE13detach_helperEv.clean 0x000169ca   Section        8  qdom.o(t._ZN5QListIP15QDomNodePrivateE13detach_helperEv.clean)
    t._ZN5QListIP15QDomNodePrivateE18detach_helper_growEii 0x000169d2   Section      164  qdom.o(t._ZN5QListIP15QDomNodePrivateE18detach_helper_growEii)
    t._ZN5QListIP15QDomNodePrivateE18detach_helper_growEii.clean 0x00016a76   Section        8  qdom.o(t._ZN5QListIP15QDomNodePrivateE18detach_helper_growEii.clean)
    t._ZN5QListIP15QDomNodePrivateE4freeEPN9QListData4DataE 0x00016a7e   Section       16  qdom.o(t._ZN5QListIP15QDomNodePrivateE4freeEPN9QListData4DataE)
    t._ZN5QListIP15QDomNodePrivateE6appendERKS1_ 0x00016a90   Section       60  qdom.o(t._ZN5QListIP15QDomNodePrivateE6appendERKS1_)
    t._ZN5QListIP15QDomNodePrivateE6appendERKS1_.clean 0x00016acc   Section       10  qdom.o(t._ZN5QListIP15QDomNodePrivateE6appendERKS1_.clean)
    t._ZN5QListIP15QDomNodePrivateE9node_copyEPNS2_4NodeES4_S4_ 0x00016ad6   Section       28  qdom.o(t._ZN5QListIP15QDomNodePrivateE9node_copyEPNS2_4NodeES4_S4_)
    t._ZN5QListIP15QDomNodePrivateEC1Ev      0x00016af4   Section       20  qdom.o(t._ZN5QListIP15QDomNodePrivateEC1Ev)
    t._ZN5QListIP15QDomNodePrivateED1Ev      0x00016b08   Section       30  qdom.o(t._ZN5QListIP15QDomNodePrivateED1Ev)
    t._ZN6QStackI4QMapI7QStringS1_EE3popEv   0x00016b26   Section      100  qxml.o(t._ZN6QStackI4QMapI7QStringS1_EE3popEv)
    t._ZN6QStackI4QMapI7QStringS1_EE3popEv.clean 0x00016b8a   Section       10  qxml.o(t._ZN6QStackI4QMapI7QStringS1_EE3popEv.clean)
    t._ZN6QStackI4QMapI7QStringS1_EED1Ev     0x00016b94   Section        8  qxml.o(t._ZN6QStackI4QMapI7QStringS1_EED1Ev)
    t._ZN6QStackI7QStringE3popEv             0x00016b9c   Section       82  qxml.o(t._ZN6QStackI7QStringE3popEv)
    t._ZN6QStackI7QStringE3popEv.clean       0x00016bee   Section       10  qxml.o(t._ZN6QStackI7QStringE3popEv.clean)
    t._ZN6QStackI7QStringE3topEv             0x00016bf8   Section       30  qxml.o(t._ZN6QStackI7QStringE3topEv)
    t._ZN6QStackI7QStringED1Ev               0x00016c16   Section        8  qxml.o(t._ZN6QStackI7QStringED1Ev)
    t._ZN6QStackIN23QXmlSimpleReaderPrivate10ParseStateEE3popEv 0x00016c1e   Section       88  qxml.o(t._ZN6QStackIN23QXmlSimpleReaderPrivate10ParseStateEE3popEv)
    t._ZN6QStackIN23QXmlSimpleReaderPrivate10ParseStateEE3topEv 0x00016c76   Section       32  qxml.o(t._ZN6QStackIN23QXmlSimpleReaderPrivate10ParseStateEE3topEv)
    t._ZN6QStackIN23QXmlSimpleReaderPrivate6XmlRefEE3topEv 0x00016c96   Section       32  qxml.o(t._ZN6QStackIN23QXmlSimpleReaderPrivate6XmlRefEE3topEv)
    t._ZN6QStackIN23QXmlSimpleReaderPrivate6XmlRefEED1Ev 0x00016cb6   Section        8  qxml.o(t._ZN6QStackIN23QXmlSimpleReaderPrivate6XmlRefEED1Ev)
    t._ZN7QVectorI4QMapI7QStringS1_EE4freeEP16QVectorTypedDataIS2_E 0x00016cbe   Section       40  qxml.o(t._ZN7QVectorI4QMapI7QStringS1_EE4freeEP16QVectorTypedDataIS2_E)
    t._ZN7QVectorI4QMapI7QStringS1_EE6appendERKS2_ 0x00016ce6   Section      140  qxml.o(t._ZN7QVectorI4QMapI7QStringS1_EE6appendERKS2_)
    t._ZN7QVectorI4QMapI7QStringS1_EE6appendERKS2_.clean 0x00016d72   Section       28  qxml.o(t._ZN7QVectorI4QMapI7QStringS1_EE6appendERKS2_.clean)
    t._ZN7QVectorI4QMapI7QStringS1_EE7reallocEii 0x00016d8e   Section      306  qxml.o(t._ZN7QVectorI4QMapI7QStringS1_EE7reallocEii)
    t._ZN7QVectorI4QMapI7QStringS1_EE7reallocEii.clean 0x00016ec0   Section       30  qxml.o(t._ZN7QVectorI4QMapI7QStringS1_EE7reallocEii.clean)
    t._ZN7QVectorI4QMapI7QStringS1_EED1Ev    0x00016ede   Section       30  qxml.o(t._ZN7QVectorI4QMapI7QStringS1_EED1Ev)
    t._ZN7QVectorI7QStringE13detach_helperEv 0x00016efc   Section       14  qxml.o(t._ZN7QVectorI7QStringE13detach_helperEv)
    t._ZN7QVectorI7QStringE4freeEP16QVectorTypedDataIS0_E 0x00016f0a   Section       40  qxml.o(t._ZN7QVectorI7QStringE4freeEP16QVectorTypedDataIS0_E)
    t._ZN7QVectorI7QStringE5clearEv          0x00016f32   Section       58  qxml.o(t._ZN7QVectorI7QStringE5clearEv)
    t._ZN7QVectorI7QStringE5clearEv.clean    0x00016f6c   Section       10  qxml.o(t._ZN7QVectorI7QStringE5clearEv.clean)
    t._ZN7QVectorI7QStringE5eraseEPS0_S2_    0x00016f76   Section      122  qxml.o(t._ZN7QVectorI7QStringE5eraseEPS0_S2_)
    t._ZN7QVectorI7QStringE6appendERKS0_     0x00016ff0   Section      140  qxml.o(t._ZN7QVectorI7QStringE6appendERKS0_)
    t._ZN7QVectorI7QStringE6appendERKS0_.clean 0x0001707c   Section       28  qxml.o(t._ZN7QVectorI7QStringE6appendERKS0_.clean)
    t._ZN7QVectorI7QStringE6detachEv         0x00017098   Section       24  qxml.o(t._ZN7QVectorI7QStringE6detachEv)
    t._ZN7QVectorI7QStringE7reallocEii       0x000170b0   Section      372  qxml.o(t._ZN7QVectorI7QStringE7reallocEii)
    t._ZN7QVectorI7QStringE7reallocEii.clean 0x00017224   Section       28  qxml.o(t._ZN7QVectorI7QStringE7reallocEii.clean)
    t._ZN7QVectorI7QStringEC1Ev              0x00017240   Section       20  qxml.o(t._ZN7QVectorI7QStringEC1Ev)
    t._ZN7QVectorI7QStringED1Ev              0x00017254   Section       30  qxml.o(t._ZN7QVectorI7QStringED1Ev)
    t._ZN7QVectorIN23QXmlSimpleReaderPrivate10ParseStateEE13detach_helperEv 0x00017272   Section       14  qxml.o(t._ZN7QVectorIN23QXmlSimpleReaderPrivate10ParseStateEE13detach_helperEv)
    t._ZN7QVectorIN23QXmlSimpleReaderPrivate10ParseStateEE4freeEP16QVectorTypedDataIS1_E 0x00017280   Section       30  qxml.o(t._ZN7QVectorIN23QXmlSimpleReaderPrivate10ParseStateEE4freeEP16QVectorTypedDataIS1_E)
    t._ZN7QVectorIN23QXmlSimpleReaderPrivate10ParseStateEE6appendERKS1_ 0x0001729e   Section      126  qxml.o(t._ZN7QVectorIN23QXmlSimpleReaderPrivate10ParseStateEE6appendERKS1_)
    t._ZN7QVectorIN23QXmlSimpleReaderPrivate10ParseStateEE6detachEv 0x0001731c   Section       24  qxml.o(t._ZN7QVectorIN23QXmlSimpleReaderPrivate10ParseStateEE6detachEv)
    t._ZN7QVectorIN23QXmlSimpleReaderPrivate10ParseStateEE7reallocEii 0x00017334   Section      270  qxml.o(t._ZN7QVectorIN23QXmlSimpleReaderPrivate10ParseStateEE7reallocEii)
    t._ZN7QVectorIN23QXmlSimpleReaderPrivate10ParseStateEE7reallocEii.clean 0x00017442   Section       10  qxml.o(t._ZN7QVectorIN23QXmlSimpleReaderPrivate10ParseStateEE7reallocEii.clean)
    t._ZN7QVectorIN23QXmlSimpleReaderPrivate10ParseStateEEC1Ev 0x0001744c   Section       20  qxml.o(t._ZN7QVectorIN23QXmlSimpleReaderPrivate10ParseStateEEC1Ev)
    t._ZN7QVectorIN23QXmlSimpleReaderPrivate10ParseStateEED1Ev 0x00017460   Section       30  qxml.o(t._ZN7QVectorIN23QXmlSimpleReaderPrivate10ParseStateEED1Ev)
    t._ZN7QVectorIN23QXmlSimpleReaderPrivate6XmlRefEE13detach_helperEv 0x0001747e   Section       14  qxml.o(t._ZN7QVectorIN23QXmlSimpleReaderPrivate6XmlRefEE13detach_helperEv)
    t._ZN7QVectorIN23QXmlSimpleReaderPrivate6XmlRefEE4freeEP16QVectorTypedDataIS1_E 0x0001748c   Section       42  qxml.o(t._ZN7QVectorIN23QXmlSimpleReaderPrivate6XmlRefEE4freeEP16QVectorTypedDataIS1_E)
    t._ZN7QVectorIN23QXmlSimpleReaderPrivate6XmlRefEE5eraseEPS1_S3_ 0x000174b6   Section      178  qxml.o(t._ZN7QVectorIN23QXmlSimpleReaderPrivate6XmlRefEE5eraseEPS1_S3_)
    t._ZN7QVectorIN23QXmlSimpleReaderPrivate6XmlRefEE6appendERKS1_ 0x00017568   Section      144  qxml.o(t._ZN7QVectorIN23QXmlSimpleReaderPrivate6XmlRefEE6appendERKS1_)
    t._ZN7QVectorIN23QXmlSimpleReaderPrivate6XmlRefEE6appendERKS1_.clean 0x000175f8   Section       28  qxml.o(t._ZN7QVectorIN23QXmlSimpleReaderPrivate6XmlRefEE6appendERKS1_.clean)
    t._ZN7QVectorIN23QXmlSimpleReaderPrivate6XmlRefEE6detachEv 0x00017614   Section       24  qxml.o(t._ZN7QVectorIN23QXmlSimpleReaderPrivate6XmlRefEE6detachEv)
    t._ZN7QVectorIN23QXmlSimpleReaderPrivate6XmlRefEE7reallocEii 0x0001762c   Section      324  qxml.o(t._ZN7QVectorIN23QXmlSimpleReaderPrivate6XmlRefEE7reallocEii)
    t._ZN7QVectorIN23QXmlSimpleReaderPrivate6XmlRefEE7reallocEii.clean 0x00017770   Section       36  qxml.o(t._ZN7QVectorIN23QXmlSimpleReaderPrivate6XmlRefEE7reallocEii.clean)
    t._ZN7QVectorIN23QXmlSimpleReaderPrivate6XmlRefEE8pop_backEv 0x00017794   Section       32  qxml.o(t._ZN7QVectorIN23QXmlSimpleReaderPrivate6XmlRefEE8pop_backEv)
    t._ZN7QVectorIN23QXmlSimpleReaderPrivate6XmlRefEEC1Ev 0x000177b4   Section       20  qxml.o(t._ZN7QVectorIN23QXmlSimpleReaderPrivate6XmlRefEEC1Ev)
    t._ZN7QVectorIN23QXmlSimpleReaderPrivate6XmlRefEED1Ev 0x000177c8   Section       30  qxml.o(t._ZN7QVectorIN23QXmlSimpleReaderPrivate6XmlRefEED1Ev)
    t._ZN9QHashNodeI7QStringP15QDomNodePrivateEC1ERKS0_RKS2_ 0x000177e6   Section       18  qdom.o(t._ZN9QHashNodeI7QStringP15QDomNodePrivateEC1ERKS0_RKS2_)
    t._ZNK14QStringBuilderI11QLatin1Char7QStringEcvS1_Ev 0x000177f8   Section       40  qxml.o(t._ZNK14QStringBuilderI11QLatin1Char7QStringEcvS1_Ev)
    t._ZNK14QStringBuilderI11QLatin1Char7QStringEcvS1_Ev.clean 0x00017820   Section       10  qxml.o(t._ZNK14QStringBuilderI11QLatin1Char7QStringEcvS1_Ev.clean)
    t._ZNK14QStringBuilderI13QLatin1String7QStringEcvS1_Ev 0x0001782a   Section       40  qdom.o(t._ZNK14QStringBuilderI13QLatin1String7QStringEcvS1_Ev)
    t._ZNK14QStringBuilderI13QLatin1String7QStringEcvS1_Ev.clean 0x00017852   Section       10  qdom.o(t._ZNK14QStringBuilderI13QLatin1String7QStringEcvS1_Ev.clean)
    t._ZNK14QStringBuilderIS_I13QLatin1String7QStringE11QLatin1CharEcvS1_Ev 0x0001785c   Section       58  qdom.o(t._ZNK14QStringBuilderIS_I13QLatin1String7QStringE11QLatin1CharEcvS1_Ev)
    t._ZNK14QStringBuilderIS_I13QLatin1String7QStringE11QLatin1CharEcvS1_Ev.clean 0x00017896   Section       10  qdom.o(t._ZNK14QStringBuilderIS_I13QLatin1String7QStringE11QLatin1CharEcvS1_Ev.clean)
    t._ZNK14QStringBuilderIS_I7QString11QLatin1CharES0_EcvS0_Ev 0x000178a0   Section       74  qdom.o(t._ZNK14QStringBuilderIS_I7QString11QLatin1CharES0_EcvS0_Ev)
    t._ZNK14QStringBuilderIS_I7QString11QLatin1CharES0_EcvS0_Ev.clean 0x000178ea   Section       10  qdom.o(t._ZNK14QStringBuilderIS_I7QString11QLatin1CharES0_EcvS0_Ev.clean)
    t._ZNK4QMapI7QStringN23QXmlSimpleReaderPrivate12ExternEntityEE8findNodeERKS0_ 0x000178f4   Section       82  qxml.o(t._ZNK4QMapI7QStringN23QXmlSimpleReaderPrivate12ExternEntityEE8findNodeERKS0_)
    t._ZNK4QMapI7QStringN23QXmlSimpleReaderPrivate21ExternParameterEntityEE8findNodeERKS0_ 0x00017946   Section       82  qxml.o(t._ZNK4QMapI7QStringN23QXmlSimpleReaderPrivate21ExternParameterEntityEE8findNodeERKS0_)
    t._ZNK4QMapI7QStringS0_E14const_iteratorneERKS2_ 0x00017998   Section       16  qxml.o(t._ZNK4QMapI7QStringS0_E14const_iteratorneERKS2_)
    t._ZNK4QMapI7QStringS0_E15mutableFindNodeEPPN8QMapData4NodeERKS0_ 0x000179a8   Section       86  qxml.o(t._ZNK4QMapI7QStringS0_E15mutableFindNodeEPPN8QMapData4NodeERKS0_)
    t._ZNK4QMapI7QStringS0_E8findNodeERKS0_  0x000179fe   Section       82  qxml.o(t._ZNK4QMapI7QStringS0_E8findNodeERKS0_)
    t._ZNK5QHashI7QString15QHashDummyValueE8findNodeERKS0_Pj 0x00017a50   Section       90  qdom.o(t._ZNK5QHashI7QString15QHashDummyValueE8findNodeERKS0_Pj)
    t._ZNK5QHashI7QStringP15QDomNodePrivateE10constBeginEv 0x00017aaa   Section       28  qdom.o(t._ZNK5QHashI7QStringP15QDomNodePrivateE10constBeginEv)
    t._ZNK5QHashI7QStringP15QDomNodePrivateE14const_iteratorneERKS4_ 0x00017ac6   Section       16  qdom.o(t._ZNK5QHashI7QStringP15QDomNodePrivateE14const_iteratorneERKS4_)
    t._ZNK5QHashI7QStringP15QDomNodePrivateE5valueERKS0_ 0x00017ad6   Section       36  qdom.o(t._ZNK5QHashI7QStringP15QDomNodePrivateE5valueERKS0_)
    t._ZNK5QHashI7QStringP15QDomNodePrivateE7isEmptyEv 0x00017afa   Section       16  qdom.o(t._ZNK5QHashI7QStringP15QDomNodePrivateE7isEmptyEv)
    t._ZNK5QHashI7QStringP15QDomNodePrivateE8findNodeERKS0_Pj 0x00017b0a   Section       90  qdom.o(t._ZNK5QHashI7QStringP15QDomNodePrivateE8findNodeERKS0_Pj)
    t._ZNK5QListIN14QXmlAttributes9AttributeEE2atEi 0x00017b64   Section       18  qxml.o(t._ZNK5QListIN14QXmlAttributes9AttributeEE2atEi)
    t._ZNK7QVectorI7QStringE7isEmptyEv       0x00017b76   Section       16  qxml.o(t._ZNK7QVectorI7QStringE7isEmptyEv)
    t._ZNK7QVectorIN23QXmlSimpleReaderPrivate10ParseStateEE7isEmptyEv 0x00017b86   Section       16  qxml.o(t._ZNK7QVectorIN23QXmlSimpleReaderPrivate10ParseStateEE7isEmptyEv)
    .extab._Z18qt_split_namespaceR7QStringS0_RKS_b 0x00017b98   Data           0  qdom.o(.ARM.extab)
    .extab._Z12fixedXmlNameRK7QStringPbb     0x00017bb0   Data           0  qdom.o(.ARM.extab)
    .extab._Z13fixedCharDataRK7QStringPb     0x00017be8   Data           0  qdom.o(.ARM.extab)
    .extab._Z17fixedPubidLiteralRK7QStringPb 0x00017bf8   Data           0  qdom.o(.ARM.extab)
    .extab._ZNK19QDomDocumentPrivate12saveDocumentER11QTextStreamiN8QDomNode14EncodingPolicyE 0x00017c08   Data           0  qdom.o(.ARM.extab)
    .extab._Z11quotedValueRK7QString         0x00017c90   Data           0  qdom.o(.ARM.extab)
    .extab._Z10encodeTextRK7QStringR11QTextStreambbb 0x00017ca0   Data           0  qdom.o(.ARM.extab)
    .extab._Z16initializeReaderR16QXmlSimpleReaderb 0x00017d60   Data           0  qdom.o(.ARM.extab)
    .extab._ZN15QDomNodePrivateD1Ev          0x00017d80   Data           0  qdom.o(.ARM.extab)
    .extab._ZN23QDomNamedNodeMapPrivate8clearMapEv 0x00017da8   Data           0  qdom.o(.ARM.extab)
    .extab._ZN23QDomNamedNodeMapPrivateD1Ev  0x00017db8   Data           0  qdom.o(.ARM.extab)
    .extab._ZN23QDomDocumentTypePrivate4initEv 0x00017dc8   Data           0  qdom.o(.ARM.extab)
    .extab._ZN15QDomNodePrivateC1EP19QDomDocumentPrivatePS_ 0x00017df4   Data           0  qdom.o(.ARM.extab)
    .extab._ZN23QDomDocumentTypePrivateC1EP19QDomDocumentPrivateP15QDomNodePrivate 0x00017e1c   Data           0  qdom.o(.ARM.extab)
    .extab._ZN18QDomImplementation18createDocumentTypeERK7QStringS2_S2_ 0x00017e44   Data           0  qdom.o(.ARM.extab)
    .extab._ZN18QDomElementPrivateC1EP19QDomDocumentPrivateP15QDomNodePrivateRK7QStringS6_ 0x00017e8c   Data           0  qdom.o(.ARM.extab)
    .extab._ZN19QDomDocumentPrivate15createElementNSERK7QStringS2_ 0x00017ea4   Data           0  qdom.o(.ARM.extab)
    .extab._ZN19QDomDocumentPrivateC1Ev      0x00017ec4   Data           0  qdom.o(.ARM.extab)
    .extab._ZN12QDomDocument15createElementNSERK7QStringS2_ 0x00017ef4   Data           0  qdom.o(.ARM.extab)
    .extab._ZN19QDomDocumentPrivateC1EP23QDomDocumentTypePrivate 0x00017f04   Data           0  qdom.o(.ARM.extab)
    .extab._ZN12QDomDocumentC1ERK16QDomDocumentType 0x00017f34   Data           0  qdom.o(.ARM.extab)
    .extab._ZN18QDomImplementation14createDocumentERK7QStringS2_RK16QDomDocumentType 0x00017f4c   Data           0  qdom.o(.ARM.extab)
    .extab._ZNK8QDomNode11isSupportedERK7QStringS2_ 0x00017f74   Data           0  qdom.o(.ARM.extab)
    .extab._ZN19QDomNodeListPrivateC1EP15QDomNodePrivate 0x00017f84   Data           0  qdom.o(.ARM.extab)
    .extab._ZNK8QDomNode10childNodesEv       0x00017fa4   Data           0  qdom.o(.ARM.extab)
    .extab._ZN15QDomNodePrivate9namedItemERK7QString 0x00017fb4   Data           0  qdom.o(.ARM.extab)
    .extab._ZNK8QDomNode17firstChildElementERK7QString 0x00017fc4   Data           0  qdom.o(.ARM.extab)
    .extab._ZNK8QDomNode16lastChildElementERK7QString 0x0001800c   Data           0  qdom.o(.ARM.extab)
    .extab._ZNK8QDomNode22previousSiblingElementERK7QString 0x00018054   Data           0  qdom.o(.ARM.extab)
    .extab._ZNK8QDomNode18nextSiblingElementERK7QString 0x0001809c   Data           0  qdom.o(.ARM.extab)
    .extab._ZN19QDomNodeListPrivateD1Ev      0x000180e4   Data           0  qdom.o(.ARM.extab)
    .extab._ZN19QDomNodeListPrivate10createListEv 0x00018104   Data           0  qdom.o(.ARM.extab)
    .extab._ZN19QDomDocumentPrivateC1ERK7QString 0x0001811c   Data           0  qdom.o(.ARM.extab)
    .extab._ZN12QDomDocumentC1ERK7QString    0x0001814c   Data           0  qdom.o(.ARM.extab)
    .extab._ZN18QDomElementPrivateC1EP19QDomDocumentPrivateP15QDomNodePrivateRK7QString 0x00018164   Data           0  qdom.o(.ARM.extab)
    .extab._ZN19QDomDocumentPrivate13createElementERK7QString 0x0001817c   Data           0  qdom.o(.ARM.extab)
    .extab._ZN12QDomDocument13createElementERK7QString 0x0001819c   Data           0  qdom.o(.ARM.extab)
    .extab._ZN27QDomDocumentFragmentPrivateC1EP19QDomDocumentPrivateP15QDomNodePrivate 0x000181ac   Data           0  qdom.o(.ARM.extab)
    .extab._ZN19QDomDocumentPrivate22createDocumentFragmentEv 0x000181bc   Data           0  qdom.o(.ARM.extab)
    .extab._ZN12QDomDocument22createDocumentFragmentEv 0x000181cc   Data           0  qdom.o(.ARM.extab)
    .extab._ZN24QDomCharacterDataPrivateC1EP19QDomDocumentPrivateP15QDomNodePrivateRK7QString 0x000181dc   Data           0  qdom.o(.ARM.extab)
    .extab._ZN15QDomTextPrivateC1EP19QDomDocumentPrivateP15QDomNodePrivateRK7QString 0x000181ec   Data           0  qdom.o(.ARM.extab)
    .extab._ZN19QDomDocumentPrivate14createTextNodeERK7QString 0x000181fc   Data           0  qdom.o(.ARM.extab)
    .extab._ZN12QDomDocument14createTextNodeERK7QString 0x0001821c   Data           0  qdom.o(.ARM.extab)
    .extab._ZN18QDomCommentPrivateC1EP19QDomDocumentPrivateP15QDomNodePrivateRK7QString 0x0001822c   Data           0  qdom.o(.ARM.extab)
    .extab._ZN19QDomDocumentPrivate13createCommentERK7QString 0x0001823c   Data           0  qdom.o(.ARM.extab)
    .extab._ZN12QDomDocument13createCommentERK7QString 0x0001825c   Data           0  qdom.o(.ARM.extab)
    .extab._ZN23QDomCDATASectionPrivateC1EP19QDomDocumentPrivateP15QDomNodePrivateRK7QString 0x0001826c   Data           0  qdom.o(.ARM.extab)
    .extab._ZN19QDomDocumentPrivate18createCDATASectionERK7QString 0x0001827c   Data           0  qdom.o(.ARM.extab)
    .extab._ZN12QDomDocument18createCDATASectionERK7QString 0x0001829c   Data           0  qdom.o(.ARM.extab)
    .extab._ZN32QDomProcessingInstructionPrivateC1EP19QDomDocumentPrivateP15QDomNodePrivateRK7QStringS6_ 0x000182ac   Data           0  qdom.o(.ARM.extab)
    .extab._ZN19QDomDocumentPrivate27createProcessingInstructionERK7QStringS2_ 0x000182bc   Data           0  qdom.o(.ARM.extab)
    .extab._ZN12QDomDocument27createProcessingInstructionERK7QStringS2_ 0x000182ec   Data           0  qdom.o(.ARM.extab)
    .extab._ZN15QDomAttrPrivateC1EP19QDomDocumentPrivateP15QDomNodePrivateRK7QString 0x000182fc   Data           0  qdom.o(.ARM.extab)
    .extab._ZN19QDomDocumentPrivate15createAttributeERK7QString 0x0001830c   Data           0  qdom.o(.ARM.extab)
    .extab._ZN12QDomDocument15createAttributeERK7QString 0x0001832c   Data           0  qdom.o(.ARM.extab)
    .extab._ZN26QDomEntityReferencePrivateC1EP19QDomDocumentPrivateP15QDomNodePrivateRK7QString 0x0001833c   Data           0  qdom.o(.ARM.extab)
    .extab._ZN19QDomDocumentPrivate21createEntityReferenceERK7QString 0x0001834c   Data           0  qdom.o(.ARM.extab)
    .extab._ZN12QDomDocument21createEntityReferenceERK7QString 0x0001836c   Data           0  qdom.o(.ARM.extab)
    .extab._ZN19QDomNodeListPrivateC1EP15QDomNodePrivateRK7QString 0x0001837c   Data           0  qdom.o(.ARM.extab)
    .extab._ZNK12QDomDocument17elementsByTagNameERK7QString 0x0001839c   Data           0  qdom.o(.ARM.extab)
    .extab._ZN15QDomNodePrivateC1EPS_b       0x000183ac   Data           0  qdom.o(.ARM.extab)
    .extab._ZN19QDomNotationPrivateC1EPS_b   0x000183d4   Data           0  qdom.o(.ARM.extab)
    .extab._ZN17QDomEntityPrivateC1EPS_b     0x000183f4   Data           0  qdom.o(.ARM.extab)
    .extab._ZN23QDomNamedNodeMapPrivate12setNamedItemEP15QDomNodePrivate 0x0001841c   Data           0  qdom.o(.ARM.extab)
    .extab._ZN23QDomNamedNodeMapPrivate5cloneEP15QDomNodePrivate 0x00018434   Data           0  qdom.o(.ARM.extab)
    .extab._ZN18QDomElementPrivateC1EPS_b    0x00018444   Data           0  qdom.o(.ARM.extab)
    .extab._ZN19QDomDocumentPrivate10importNodeEPK15QDomNodePrivateb 0x00018454   Data           0  qdom.o(.ARM.extab)
    .extab._ZN12QDomDocument10importNodeERK8QDomNodeb 0x000184ac   Data           0  qdom.o(.ARM.extab)
    .extab._ZN15QDomAttrPrivateC1EP19QDomDocumentPrivateP15QDomNodePrivateRK7QStringS6_ 0x000184bc   Data           0  qdom.o(.ARM.extab)
    .extab._ZN19QDomDocumentPrivate17createAttributeNSERK7QStringS2_ 0x000184cc   Data           0  qdom.o(.ARM.extab)
    .extab._ZN12QDomDocument17createAttributeNSERK7QStringS2_ 0x000184ec   Data           0  qdom.o(.ARM.extab)
    .extab._ZN19QDomNodeListPrivateC1EP15QDomNodePrivateRK7QStringS4_ 0x000184fc   Data           0  qdom.o(.ARM.extab)
    .extab._ZN12QDomDocument19elementsByTagNameNSERK7QStringS2_ 0x0001851c   Data           0  qdom.o(.ARM.extab)
    .extab._ZN11QDomHandlerD1Ev              0x0001852c   Data           0  qdom.o(.ARM.extab)
    .extab._ZN11QDomHandlerC1EP19QDomDocumentPrivateb 0x00018544   Data           0  qdom.o(.ARM.extab)
    .extab._ZN19QDomDocumentPrivate10setContentEP15QXmlInputSourceP10QXmlReaderP7QStringPiS6_ 0x0001855c   Data           0  qdom.o(.ARM.extab)
    .extab._ZN19QDomDocumentPrivate10setContentEP15QXmlInputSourcebP7QStringPiS4_ 0x00018594   Data           0  qdom.o(.ARM.extab)
    .extab._ZN12QDomDocument10setContentERK10QByteArraybP7QStringPiS5_ 0x000185a4   Data           0  qdom.o(.ARM.extab)
    .extab._ZN12QDomDocument10setContentERK7QStringbPS0_PiS4_ 0x000185cc   Data           0  qdom.o(.ARM.extab)
    .extab._ZN12QDomDocument10setContentEP9QIODevicebP7QStringPiS4_ 0x000185e4   Data           0  qdom.o(.ARM.extab)
    .extab._ZN12QDomDocument10setContentEP15QXmlInputSourcebP7QStringPiS4_ 0x000185fc   Data           0  qdom.o(.ARM.extab)
    .extab._ZN12QDomDocument10setContentEP15QXmlInputSourceP10QXmlReaderP7QStringPiS6_ 0x00018614   Data           0  qdom.o(.ARM.extab)
    .extab._ZNK12QDomDocument8toStringEi     0x00018624   Data           0  qdom.o(.ARM.extab)
    .extab._ZNK12QDomDocument11toByteArrayEi 0x00018644   Data           0  qdom.o(.ARM.extab)
    .extab._ZN23QDomNamedNodeMapPrivate15removeNamedItemERK7QString 0x00018654   Data           0  qdom.o(.ARM.extab)
    .extab._ZN23QDomNamedNodeMapPrivate14setNamedItemNSEP15QDomNodePrivate 0x00018664   Data           0  qdom.o(.ARM.extab)
    .extab._ZN18QDomElementPrivate12setAttributeERK7QStringS2_ 0x00018674   Data           0  qdom.o(.ARM.extab)
    .extab._ZN11QDomElement12setAttributeERK7QStringx 0x00018684   Data           0  qdom.o(.ARM.extab)
    .extab._ZN11QDomElement12setAttributeERK7QStringy 0x00018694   Data           0  qdom.o(.ARM.extab)
    .extab._ZN11QDomElement12setAttributeERK7QStringf 0x000186a4   Data           0  qdom.o(.ARM.extab)
    .extab._ZN11QDomElement12setAttributeERK7QStringd 0x000186b4   Data           0  qdom.o(.ARM.extab)
    .extab._ZN18QDomElementPrivate16setAttributeNodeEP15QDomAttrPrivate 0x000186d4   Data           0  qdom.o(.ARM.extab)
    .extab._ZN18QDomElementPrivate19removeAttributeNodeEP15QDomAttrPrivate 0x000186e4   Data           0  qdom.o(.ARM.extab)
    .extab._ZNK11QDomElement17elementsByTagNameERK7QString 0x000186f4   Data           0  qdom.o(.ARM.extab)
    .extab._ZN18QDomElementPrivate14setAttributeNSERK7QStringS2_S2_ 0x00018704   Data           0  qdom.o(.ARM.extab)
    .extab._ZN11QDomElement14setAttributeNSE7QStringRKS0_x 0x00018734   Data           0  qdom.o(.ARM.extab)
    .extab._ZN11QDomElement14setAttributeNSE7QStringRKS0_y 0x00018744   Data           0  qdom.o(.ARM.extab)
    .extab._ZN11QDomElement14setAttributeNSE7QStringRKS0_d 0x00018754   Data           0  qdom.o(.ARM.extab)
    .extab._ZN11QDomElement17removeAttributeNSERK7QStringS2_ 0x00018764   Data           0  qdom.o(.ARM.extab)
    .extab._ZNK11QDomElement19elementsByTagNameNSERK7QStringS2_ 0x00018774   Data           0  qdom.o(.ARM.extab)
    .extab._ZN18QDomElementPrivate4textEv    0x00018784   Data           0  qdom.o(.ARM.extab)
    .extab._ZN15QDomTextPrivate9splitTextEi  0x000187b4   Data           0  qdom.o(.ARM.extab)
    .extab._ZN15QDomNodePrivate9cloneNodeEb  0x000187d4   Data           0  qdom.o(.ARM.extab)
    .extab._ZN15QDomNodePrivate9normalizeEv  0x000187e4   Data           0  qdom.o(.ARM.extab)
    .extab._ZN23QDomDocumentTypePrivateC1EPS_b 0x000187f4   Data           0  qdom.o(.ARM.extab)
    .extab._ZN23QDomDocumentTypePrivateD1Ev  0x0001883c   Data           0  qdom.o(.ARM.extab)
    .extab._ZN23QDomDocumentTypePrivate9cloneNodeEb 0x00018864   Data           0  qdom.o(.ARM.extab)
    .extab._ZN23QDomDocumentTypePrivate12insertBeforeEP15QDomNodePrivateS1_ 0x00018874   Data           0  qdom.o(.ARM.extab)
    .extab._ZN23QDomDocumentTypePrivate11insertAfterEP15QDomNodePrivateS1_ 0x0001888c   Data           0  qdom.o(.ARM.extab)
    .extab._ZN23QDomDocumentTypePrivate12replaceChildEP15QDomNodePrivateS1_ 0x000188a4   Data           0  qdom.o(.ARM.extab)
    .extab._ZN23QDomDocumentTypePrivate11removeChildEP15QDomNodePrivate 0x000188cc   Data           0  qdom.o(.ARM.extab)
    .extab._ZNK23QDomDocumentTypePrivate4saveER11QTextStreamii 0x000188e4   Data           0  qdom.o(.ARM.extab)
    .extab._ZN27QDomDocumentFragmentPrivate9cloneNodeEb 0x00018904   Data           0  qdom.o(.ARM.extab)
    .extab._ZN24QDomCharacterDataPrivate9cloneNodeEb 0x00018914   Data           0  qdom.o(.ARM.extab)
    .extab._ZN15QDomTextPrivate9cloneNodeEb  0x00018924   Data           0  qdom.o(.ARM.extab)
    .extab._ZNK15QDomTextPrivate4saveER11QTextStreamii 0x00018934   Data           0  qdom.o(.ARM.extab)
    .extab._ZN15QDomAttrPrivate12setNodeValueERK7QString 0x00018944   Data           0  qdom.o(.ARM.extab)
    .extab._ZN15QDomAttrPrivate9cloneNodeEb  0x00018954   Data           0  qdom.o(.ARM.extab)
    .extab._ZNK15QDomAttrPrivate4saveER11QTextStreamii 0x00018964   Data           0  qdom.o(.ARM.extab)
    .extab._ZN18QDomElementPrivateD1Ev       0x00018984   Data           0  qdom.o(.ARM.extab)
    .extab._ZN18QDomElementPrivate9cloneNodeEb 0x00018994   Data           0  qdom.o(.ARM.extab)
    .extab._ZNK18QDomElementPrivate4saveER11QTextStreamii 0x000189a4   Data           0  qdom.o(.ARM.extab)
    .extab._ZN18QDomCommentPrivate9cloneNodeEb 0x00018a5c   Data           0  qdom.o(.ARM.extab)
    .extab._ZNK18QDomCommentPrivate4saveER11QTextStreamii 0x00018a6c   Data           0  qdom.o(.ARM.extab)
    .extab._ZN23QDomCDATASectionPrivate9cloneNodeEb 0x00018a7c   Data           0  qdom.o(.ARM.extab)
    .extab._ZN19QDomNotationPrivateC1EP19QDomDocumentPrivateP15QDomNodePrivateRK7QStringS6_S6_ 0x00018a8c   Data           0  qdom.o(.ARM.extab)
    .extab._ZN19QDomNotationPrivate9cloneNodeEb 0x00018aac   Data           0  qdom.o(.ARM.extab)
    .extab._ZNK19QDomNotationPrivate4saveER11QTextStreamii 0x00018abc   Data           0  qdom.o(.ARM.extab)
    .extab._ZN17QDomEntityPrivateC1EP19QDomDocumentPrivateP15QDomNodePrivateRK7QStringS6_S6_S6_ 0x00018adc   Data           0  qdom.o(.ARM.extab)
    .extab._ZN17QDomEntityPrivate9cloneNodeEb 0x00018b04   Data           0  qdom.o(.ARM.extab)
    .extab._ZNK17QDomEntityPrivate4saveER11QTextStreamii 0x00018b14   Data           0  qdom.o(.ARM.extab)
    .extab._ZN26QDomEntityReferencePrivate9cloneNodeEb 0x00018b94   Data           0  qdom.o(.ARM.extab)
    .extab._ZN32QDomProcessingInstructionPrivate9cloneNodeEb 0x00018ba4   Data           0  qdom.o(.ARM.extab)
    .extab._ZN19QDomDocumentPrivateC1EPS_b   0x00018bb4   Data           0  qdom.o(.ARM.extab)
    .extab._ZN19QDomDocumentPrivateD1Ev      0x00018bcc   Data           0  qdom.o(.ARM.extab)
    .extab._ZN19QDomDocumentPrivate9cloneNodeEb 0x00018be4   Data           0  qdom.o(.ARM.extab)
    .extab._ZN11QDomHandler12startElementERK7QStringS2_S2_RK14QXmlAttributes 0x00018bf4   Data           0  qdom.o(.ARM.extab)
    .extab._ZN11QDomHandler10charactersERK7QString 0x00018c3c   Data           0  qdom.o(.ARM.extab)
    .extab._ZN11QDomHandler10fatalErrorERK18QXmlParseException 0x00018c8c   Data           0  qdom.o(.ARM.extab)
    .extab._ZN11QDomHandler18externalEntityDeclERK7QStringS2_S2_ 0x00018c9c   Data           0  qdom.o(.ARM.extab)
    .extab._ZN11QDomHandler12notationDeclERK7QStringS2_S2_ 0x00018cac   Data           0  qdom.o(.ARM.extab)
    .extab._ZN11QDomHandler18unparsedEntityDeclERK7QStringS2_S2_S2_ 0x00018cbc   Data           0  qdom.o(.ARM.extab)
    .extab._ZThn8_N11QDomHandler18unparsedEntityDeclERK7QStringS2_S2_S2_ 0x00018ccc   Data           0  qdom.o(.ARM.extab)
    .extab._Z12fixedCommentRK7QStringPb      0x00018cdc   Data           0  qdom.o(.ARM.extab)
    .extab._Z17fixedCDataSectionRK7QStringPb 0x00018cec   Data           0  qdom.o(.ARM.extab)
    .extab._Z11fixedPIDataRK7QStringPb       0x00018cfc   Data           0  qdom.o(.ARM.extab)
    .extab._Z18fixedSystemLiteralRK7QStringPb 0x00018d0c   Data           0  qdom.o(.ARM.extab)
    .extab._Z12encodeEntityRK10QByteArray    0x00018d1c   Data           0  qdom.o(.ARM.extab)
    .extab._ZN7QString5clearEv               0x00018d2c   Data           0  qdom.o(.ARM.extab)
    .extab._ZN7QStringaSERK13QLatin1String   0x00018d3c   Data           0  qdom.o(.ARM.extab)
    .extab._ZNK14QStringBuilderIS_I7QString11QLatin1CharES0_EcvS0_Ev 0x00018d4c   Data           0  qdom.o(.ARM.extab)
    .extab._ZN10QTextCodec12codecForNameEPKc 0x00018d5c   Data           0  qdom.o(.ARM.extab)
    .extab._ZNK14QStringBuilderIS_I13QLatin1String7QStringE11QLatin1CharEcvS1_Ev 0x00018d6c   Data           0  qdom.o(.ARM.extab)
    .extab._ZN5QListIP15QDomNodePrivateE18detach_helper_growEii 0x00018d7c   Data           0  qdom.o(.ARM.extab)
    .extab._ZN5QListIP15QDomNodePrivateE6appendERKS1_ 0x00018dac   Data           0  qdom.o(.ARM.extab)
    .extab._ZN5QHashI7QStringP15QDomNodePrivateE11insertMultiERKS0_RKS2_ 0x00018dc8   Data           0  qdom.o(.ARM.extab)
    .extab._ZN5QHashI7QStringP15QDomNodePrivateE6removeERKS0_ 0x00018dd8   Data           0  qdom.o(.ARM.extab)
    .extab._ZN14QXmlAttributes9AttributeD1Ev 0x00018dec   Data           0  qdom.o(.ARM.extab)
    .extab._ZNK14QStringBuilderI13QLatin1String7QStringEcvS1_Ev 0x00018e0c   Data           0  qdom.o(.ARM.extab)
    .extab._ZN19QDomNotationPrivateD1Ev      0x00018e1c   Data           0  qdom.o(.ARM.extab)
    .extab._ZN17QDomEntityPrivateD1Ev        0x00018e34   Data           0  qdom.o(.ARM.extab)
    .extab._ZN5QHashI7QStringP15QDomNodePrivateE13duplicateNodeEPN9QHashData4NodeEPv 0x00018e54   Data           0  qdom.o(.ARM.extab)
    .extab._ZN5QListIP15QDomNodePrivateE13detach_helperEv 0x00018e64   Data           0  qdom.o(.ARM.extab)
    .extab._ZN5QHashI7QString15QHashDummyValueE6insertERKS0_RKS1_ 0x00018e80   Data           0  qdom.o(.ARM.extab)
    .extab._ZN5QHashI7QString15QHashDummyValueE13duplicateNodeEPN9QHashData4NodeEPv 0x00018e90   Data           0  qdom.o(.ARM.extab)
    .extab._Z13stripTextDeclR7QString        0x00018ea0   Data           0  qxml.o(.ARM.extab)
    .extab._Z19extractEncodingDeclRK7QStringPb 0x00018ef8   Data           0  qxml.o(.ARM.extab)
    .extab._ZN20QXmlNamespaceSupportC1Ev     0x00018f20   Data           0  qxml.o(.ARM.extab)
    .extab._ZN20QXmlNamespaceSupport9setPrefixERK7QStringS2_ 0x00018f30   Data           0  qxml.o(.ARM.extab)
    .extab._ZNK20QXmlNamespaceSupport3uriERK7QString 0x00018f40   Data           0  qxml.o(.ARM.extab)
    .extab._ZNK20QXmlNamespaceSupport9splitNameERK7QStringRS0_S3_ 0x00018f50   Data           0  qxml.o(.ARM.extab)
    .extab._ZNK20QXmlNamespaceSupport11processNameERK7QStringbRS0_S3_ 0x00018f68   Data           0  qxml.o(.ARM.extab)
    .extab._ZNK20QXmlNamespaceSupport8prefixesEv 0x00018f90   Data           0  qxml.o(.ARM.extab)
    .extab._ZNK20QXmlNamespaceSupport8prefixesERK7QString 0x00018fa0   Data           0  qxml.o(.ARM.extab)
    .extab._ZN20QXmlNamespaceSupport10popContextEv 0x00018fb0   Data           0  qxml.o(.ARM.extab)
    .extab._ZN20QXmlNamespaceSupport5resetEv 0x00018fc0   Data           0  qxml.o(.ARM.extab)
    .extab._ZN14QXmlAttributes5clearEv       0x00018fd0   Data           0  qxml.o(.ARM.extab)
    .extab._ZN14QXmlAttributes6appendERK7QStringS2_S2_S2_ 0x00018fe0   Data           0  qxml.o(.ARM.extab)
    .extab._ZN15QXmlInputSource4initEv       0x00019008   Data           0  qxml.o(.ARM.extab)
    .extab._ZN15QXmlInputSource7setDataERK10QByteArray 0x00019044   Data           0  qxml.o(.ARM.extab)
    .extab._ZN15QXmlInputSource9fetchDataEv  0x00019054   Data           0  qxml.o(.ARM.extab)
    .extab._ZN15QXmlInputSource11fromRawDataERK10QByteArrayb 0x00019084   Data           0  qxml.o(.ARM.extab)
    .extab._ZN18QXmlParseExceptionC1ERK7QStringiiS2_S2_ 0x000190c4   Data           0  qxml.o(.ARM.extab)
    .extab._ZN18QXmlParseExceptionC1ERKS_    0x000190e4   Data           0  qxml.o(.ARM.extab)
    .extab._ZN23QXmlSimpleReaderPrivateD1Ev  0x00019104   Data           0  qxml.o(.ARM.extab)
    .extab._ZN23QXmlSimpleReaderPrivateC1EP16QXmlSimpleReader 0x000191cc   Data           0  qxml.o(.ARM.extab)
    .extab._ZN16QXmlSimpleReaderC1Ev         0x00019294   Data           0  qxml.o(.ARM.extab)
    .extab._ZN16QXmlSimpleReaderD1Ev         0x000192ac   Data           0  qxml.o(.ARM.extab)
    .extab._ZNK16QXmlSimpleReader7featureERK7QStringPb 0x000192bc   Data           0  qxml.o(.ARM.extab)
    .extab._ZN16QXmlSimpleReader10setFeatureERK7QStringb 0x000192cc   Data           0  qxml.o(.ARM.extab)
    .extab._ZN23QXmlSimpleReaderPrivate16reportParseErrorERK7QString 0x000192dc   Data           0  qxml.o(.ARM.extab)
    .extab._ZN23QXmlSimpleReaderPrivate13unexpectedEofEMS_FbvEi 0x000192fc   Data           0  qxml.o(.ARM.extab)
    .extab._ZN23QXmlSimpleReaderPrivate12parseCommentEv 0x00019314   Data           0  qxml.o(.ARM.extab)
    .extab._ZN23QXmlSimpleReaderPrivate12insertXmlRefERK7QStringS2_b 0x00019324   Data           0  qxml.o(.ARM.extab)
    .extab._ZN23QXmlSimpleReaderPrivate16processReferenceEv 0x0001935c   Data           0  qxml.o(.ARM.extab)
    .extab._ZN23QXmlSimpleReaderPrivate9parseNameEv 0x0001941c   Data           0  qxml.o(.ARM.extab)
    .extab._ZN23QXmlSimpleReaderPrivate14parseReferenceEv 0x0001942c   Data           0  qxml.o(.ARM.extab)
    .extab._ZN23QXmlSimpleReaderPrivate13parseAttValueEv 0x0001944c   Data           0  qxml.o(.ARM.extab)
    .extab._ZN23QXmlSimpleReaderPrivate14parseAttributeEv 0x0001945c   Data           0  qxml.o(.ARM.extab)
    .extab._ZN23QXmlSimpleReaderPrivate7parsePIEv 0x0001946c   Data           0  qxml.o(.ARM.extab)
    .extab._ZN23QXmlSimpleReaderPrivate9parseMiscEv 0x000194bc   Data           0  qxml.o(.ARM.extab)
    .extab._ZN23QXmlSimpleReaderPrivate22processElementEmptyTagEv 0x000194dc   Data           0  qxml.o(.ARM.extab)
    .extab._ZN23QXmlSimpleReaderPrivate11parseStringEv 0x00019614   Data           0  qxml.o(.ARM.extab)
    .extab._ZN23QXmlSimpleReaderPrivate17reportEndEntitiesEv 0x00019624   Data           0  qxml.o(.ARM.extab)
    .extab._ZN23QXmlSimpleReaderPrivate12parseContentEv 0x00019644   Data           0  qxml.o(.ARM.extab)
    .extab._ZN23QXmlSimpleReaderPrivate23processElementAttributeEv 0x000196ac   Data           0  qxml.o(.ARM.extab)
    .extab._ZN23QXmlSimpleReaderPrivate24processElementETagBegin2Ev 0x00019714   Data           0  qxml.o(.ARM.extab)
    .extab._ZN23QXmlSimpleReaderPrivate12parseElementEv 0x0001978c   Data           0  qxml.o(.ARM.extab)
    .extab._ZN23QXmlSimpleReaderPrivate15parseExternalIDEv 0x000197ec   Data           0  qxml.o(.ARM.extab)
    .extab._ZN23QXmlSimpleReaderPrivate17parseNotationDeclEv 0x00019804   Data           0  qxml.o(.ARM.extab)
    .extab._ZN23QXmlSimpleReaderPrivate16parsePEReferenceEv 0x0001981c   Data           0  qxml.o(.ARM.extab)
    .extab._ZN23QXmlSimpleReaderPrivate16parseEntityValueEv 0x0001989c   Data           0  qxml.o(.ARM.extab)
    .extab._ZN23QXmlSimpleReaderPrivate15parseEntityDeclEv 0x000198ac   Data           0  qxml.o(.ARM.extab)
    .extab._ZN23QXmlSimpleReaderPrivate14parseChoiceSeqEv 0x00019924   Data           0  qxml.o(.ARM.extab)
    .extab._ZN23QXmlSimpleReaderPrivate16parseElementDeclEv 0x00019934   Data           0  qxml.o(.ARM.extab)
    .extab._ZN23QXmlSimpleReaderPrivate12parseNmtokenEv 0x00019944   Data           0  qxml.o(.ARM.extab)
    .extab._ZN23QXmlSimpleReaderPrivate12parseAttTypeEv 0x00019954   Data           0  qxml.o(.ARM.extab)
    .extab._ZN23QXmlSimpleReaderPrivate16parseAttlistDeclEv 0x00019964   Data           0  qxml.o(.ARM.extab)
    .extab._ZN23QXmlSimpleReaderPrivate15parseMarkupdeclEv 0x000199a4   Data           0  qxml.o(.ARM.extab)
    .extab._ZN23QXmlSimpleReaderPrivate12parseDoctypeEv 0x000199c4   Data           0  qxml.o(.ARM.extab)
    .extab._ZN23QXmlSimpleReaderPrivate11parsePrologEv 0x000199ec   Data           0  qxml.o(.ARM.extab)
    .extab._ZN23QXmlSimpleReaderPrivate20parseBeginOrContinueEib 0x00019a3c   Data           0  qxml.o(.ARM.extab)
    .extab._ZN23QXmlSimpleReaderPrivate8initDataEv 0x00019a54   Data           0  qxml.o(.ARM.extab)
    .extab._ZN23QXmlSimpleReaderPrivate4initEPK15QXmlInputSource 0x00019a64   Data           0  qxml.o(.ARM.extab)
    .extab._ZN23QXmlSimpleReaderPrivate22initIncrementalParsingEv 0x00019a7c   Data           0  qxml.o(.ARM.extab)
    .extab._ZN16QXmlSimpleReader5parseEPK15QXmlInputSourceb 0x00019a94   Data           0  qxml.o(.ARM.extab)
    .extab._ZN5QListI7QStringE9node_copyEPNS1_4NodeES3_S3_ 0x00019aa4   Data           0  qxml.o(.ARM.extab)
    .extab._ZN5QListI7QStringE13detach_helperEv 0x00019ac8   Data           0  qxml.o(.ARM.extab)
    .extab._ZN5QListI7QStringE18detach_helper_growEii 0x00019ae4   Data           0  qxml.o(.ARM.extab)
    .extab._ZN5QListI7QStringE6appendERKS0_  0x00019b14   Data           0  qxml.o(.ARM.extab)
    .extab._ZN4QMapI7QStringS0_E11node_createEP8QMapDataPPNS2_4NodeERKS0_S8_ 0x00019b44   Data           0  qxml.o(.ARM.extab)
    .extab._ZN4QMapI7QStringS0_E13detach_helperEv 0x00019b90   Data           0  qxml.o(.ARM.extab)
    .extab._ZN27QXmlNamespaceSupportPrivateC1Ev 0x00019bac   Data           0  qxml.o(.ARM.extab)
    .extab._ZN7QVectorI4QMapI7QStringS1_EE7reallocEii 0x00019be4   Data           0  qxml.o(.ARM.extab)
    .extab._ZN7QVectorI4QMapI7QStringS1_EE6appendERKS2_ 0x00019c10   Data           0  qxml.o(.ARM.extab)
    .extab._ZN4QMapI7QStringS0_E5clearEv     0x00019c30   Data           0  qxml.o(.ARM.extab)
    .extab._ZN14QXmlAttributes9AttributeC1ERKS0_ 0x00019c40   Data           0  qxml.o(.ARM.extab)
    .extab._ZN5QListIN14QXmlAttributes9AttributeEE9node_copyEPNS2_4NodeES4_S4_ 0x00019c60   Data           0  qxml.o(.ARM.extab)
    .extab._ZN5QListIN14QXmlAttributes9AttributeEE14node_constructEPNS2_4NodeERKS1_ 0x00019c84   Data           0  qxml.o(.ARM.extab)
    .extab._ZN5QListIN14QXmlAttributes9AttributeEE18detach_helper_growEii 0x00019c94   Data           0  qxml.o(.ARM.extab)
    .extab._ZN22QXmlInputSourcePrivateD1Ev   0x00019cc4   Data           0  qxml.o(.ARM.extab)
    .extab._ZN14QScopedPointerI25QXmlParseExceptionPrivate21QScopedPointerDeleterIS0_EED1Ev 0x00019cdc   Data           0  qxml.o(.ARM.extab)
    .extab._ZN23QXmlSimpleReaderPrivate12ExternEntityD1Ev 0x00019cf4   Data           0  qxml.o(.ARM.extab)
    .extab._ZN7QVectorI7QStringE7reallocEii  0x00019d0c   Data           0  qxml.o(.ARM.extab)
    .extab._ZN7QVectorI7QStringE5clearEv     0x00019d4c   Data           0  qxml.o(.ARM.extab)
    .extab._ZN7QVectorIN23QXmlSimpleReaderPrivate10ParseStateEE7reallocEii 0x00019d5c   Data           0  qxml.o(.ARM.extab)
    .extab._ZN23QXmlSimpleReaderPrivate6XmlRefC1ERKS0_ 0x00019d78   Data           0  qxml.o(.ARM.extab)
    .extab._ZN7QVectorIN23QXmlSimpleReaderPrivate6XmlRefEE7reallocEii 0x00019d88   Data           0  qxml.o(.ARM.extab)
    .extab._ZN23QXmlSimpleReaderPrivate6XmlRefC1ERK7QStringS3_ 0x00019dbc   Data           0  qxml.o(.ARM.extab)
    .extab._ZN7QVectorIN23QXmlSimpleReaderPrivate6XmlRefEE6appendERKS1_ 0x00019dcc   Data           0  qxml.o(.ARM.extab)
    .extab._ZN4QMapI7QStringN23QXmlSimpleReaderPrivate12ExternEntityEE11node_createEP8QMapDataPPNS4_4NodeERKS0_RKS2_ 0x00019dec   Data           0  qxml.o(.ARM.extab)
    .extab._ZN4QMapI7QStringN23QXmlSimpleReaderPrivate12ExternEntityEE13detach_helperEv 0x00019e48   Data           0  qxml.o(.ARM.extab)
    .extab._ZN6QStackI7QStringE3popEv        0x00019e64   Data           0  qxml.o(.ARM.extab)
    .extab._ZN7QVectorI7QStringE6appendERKS0_ 0x00019e74   Data           0  qxml.o(.ARM.extab)
    .extab._ZNK14QStringBuilderI11QLatin1Char7QStringEcvS1_Ev 0x00019e94   Data           0  qxml.o(.ARM.extab)
    .extab._ZN4QMapI7QStringN23QXmlSimpleReaderPrivate21ExternParameterEntityEE11node_createEP8QMapDataPPNS4_4NodeERKS0_RKS2_ 0x00019ea4   Data           0  qxml.o(.ARM.extab)
    .extab._ZN4QMapI7QStringN23QXmlSimpleReaderPrivate21ExternParameterEntityEE13detach_helperEv 0x00019ef8   Data           0  qxml.o(.ARM.extab)
    .extab._ZN23QXmlSimpleReaderPrivate12ExternEntityC1ERK7QStringS3_S3_ 0x00019f14   Data           0  qxml.o(.ARM.extab)
    .extab._ZN5QListI7QStringE14node_constructEPNS1_4NodeERKS0_ 0x00019f2c   Data           0  qxml.o(.ARM.extab)
    .extab._ZN27QXmlNamespaceSupportPrivateD1Ev 0x00019f3c   Data           0  qxml.o(.ARM.extab)
    .extab._ZN6QStackI4QMapI7QStringS1_EE3popEv 0x00019f4c   Data           0  qxml.o(.ARM.extab)
    .extab._ZN5QListIN14QXmlAttributes9AttributeEE13detach_helperEv 0x00019f5c   Data           0  qxml.o(.ARM.extab)
    .extab._ZN5QListIN14QXmlAttributes9AttributeEE6appendERKS1_ 0x00019f78   Data           0  qxml.o(.ARM.extab)
    .extab._ZN23QXmlSimpleReaderPrivate6XmlRefD1Ev 0x00019fa8   Data           0  qxml.o(.ARM.extab)
    .extab._ZN23QXmlSimpleReaderPrivate21ExternParameterEntityD1Ev 0x00019fb8   Data           0  qxml.o(.ARM.extab)
    .constdata$1                             0x00019fc8   Data           0  qdom.o(.constdata)
    .constdata                               0x00019fc8   Section      140  qdom.o(.constdata)
    .constdata$1                             0x0001a054   Data           0  qxml.o(.constdata)
    table@_ZN23QXmlSimpleReaderPrivate12parseNmtokenEv_0 0x0001a054   Data           6  qxml.o(.constdata)
    .constdata                               0x0001a054   Section     2932  qxml.o(.constdata)
    <Anon3>                                  0x0001a05c   Data           8  qxml.o(.constdata)
    <Anon4>                                  0x0001a064   Data           8  qxml.o(.constdata)
    <Anon5>                                  0x0001a06c   Data           8  qxml.o(.constdata)
    <Anon6>                                  0x0001a074   Data           8  qxml.o(.constdata)
    <Anon7>                                  0x0001a07c   Data           8  qxml.o(.constdata)
    <Anon8>                                  0x0001a084   Data           8  qxml.o(.constdata)
    <Anon9>                                  0x0001a08c   Data           8  qxml.o(.constdata)
    <Anon10>                                 0x0001a094   Data           8  qxml.o(.constdata)
    <Anon11>                                 0x0001a09c   Data           8  qxml.o(.constdata)
    <Anon12>                                 0x0001a0a4   Data           8  qxml.o(.constdata)
    <Anon13>                                 0x0001a0ac   Data           8  qxml.o(.constdata)
    <Anon14>                                 0x0001a0b4   Data           8  qxml.o(.constdata)
    <Anon15>                                 0x0001a0bc   Data           8  qxml.o(.constdata)
    <Anon16>                                 0x0001a0c4   Data           8  qxml.o(.constdata)
    <Anon17>                                 0x0001a0cc   Data           8  qxml.o(.constdata)
    <Anon18>                                 0x0001a0d4   Data           8  qxml.o(.constdata)
    <Anon19>                                 0x0001a0dc   Data           8  qxml.o(.constdata)
    <Anon20>                                 0x0001a0e4   Data           8  qxml.o(.constdata)
    <Anon21>                                 0x0001a0ec   Data           8  qxml.o(.constdata)
    <Anon22>                                 0x0001a0f4   Data           8  qxml.o(.constdata)
    <Anon23>                                 0x0001a0fc   Data           8  qxml.o(.constdata)
    <Anon24>                                 0x0001a104   Data           8  qxml.o(.constdata)
    <Anon25>                                 0x0001a10c   Data           8  qxml.o(.constdata)
    <Anon26>                                 0x0001a114   Data           8  qxml.o(.constdata)
    <Anon27>                                 0x0001a11c   Data           8  qxml.o(.constdata)
    charLookupTable                          0x0001a124   Data         256  qxml.o(.constdata)
    nameCharTable                            0x0001a224   Data         128  qxml.o(.constdata)
    table@_ZN23QXmlSimpleReaderPrivate11parsePrologEv_0 0x0001a2a4   Data          63  qxml.o(.constdata)
    table@_ZN23QXmlSimpleReaderPrivate12parseElementEv_0 0x0001a2e4   Data         240  qxml.o(.constdata)
    table@_ZN23QXmlSimpleReaderPrivate9parseMiscEv_0 0x0001a3d4   Data          15  qxml.o(.constdata)
    mapCLT2FSMChar@_ZN23QXmlSimpleReaderPrivate12parseContentEv_0 0x0001a3e3   Data          15  qxml.o(.constdata)
    table@_ZN23QXmlSimpleReaderPrivate12parseContentEv_1 0x0001a3f2   Data         160  qxml.o(.constdata)
    table@_ZN23QXmlSimpleReaderPrivate7parsePIEv_0 0x0001a492   Data          80  qxml.o(.constdata)
    table@_ZN23QXmlSimpleReaderPrivate12parseDoctypeEv_0 0x0001a4e2   Data         104  qxml.o(.constdata)
    table@_ZN23QXmlSimpleReaderPrivate12parseCommentEv_0 0x0001a54a   Data          18  qxml.o(.constdata)
    table@_ZN23QXmlSimpleReaderPrivate9parseNameEv_0 0x0001a55c   Data          36  qxml.o(.constdata)
    table@_ZN23QXmlSimpleReaderPrivate14parseAttributeEv_0 0x0001a580   Data          80  qxml.o(.constdata)
    table@_ZN23QXmlSimpleReaderPrivate14parseReferenceEv_0 0x0001a5d0   Data          56  qxml.o(.constdata)
    table@_ZN23QXmlSimpleReaderPrivate15parseExternalIDEv_0 0x0001a608   Data          90  qxml.o(.constdata)
    table@_ZN23QXmlSimpleReaderPrivate16parsePEReferenceEv_0 0x0001a662   Data          12  qxml.o(.constdata)
    table@_ZN23QXmlSimpleReaderPrivate15parseMarkupdeclEv_0 0x0001a66e   Data          36  qxml.o(.constdata)
    table@_ZN23QXmlSimpleReaderPrivate16parseAttlistDeclEv_0 0x0001a692   Data         120  qxml.o(.constdata)
    table@_ZN23QXmlSimpleReaderPrivate12parseAttTypeEv_0 0x0001a70a   Data         266  qxml.o(.constdata)
    table@_ZN23QXmlSimpleReaderPrivate13parseAttValueEv_0 0x0001a814   Data          35  qxml.o(.constdata)
    table@_ZN23QXmlSimpleReaderPrivate16parseElementDeclEv_0 0x0001a837   Data         234  qxml.o(.constdata)
    table@_ZN23QXmlSimpleReaderPrivate17parseNotationDeclEv_0 0x0001a921   Data          32  qxml.o(.constdata)
    table@_ZN23QXmlSimpleReaderPrivate14parseChoiceSeqEv_0 0x0001a941   Data          54  qxml.o(.constdata)
    table@_ZN23QXmlSimpleReaderPrivate15parseEntityDeclEv_0 0x0001a977   Data         132  qxml.o(.constdata)
    table@_ZN23QXmlSimpleReaderPrivate16parseEntityValueEv_0 0x0001a9fb   Data          45  qxml.o(.constdata)
    .constdata$19                            0x0001abc8   Data           0  qxml.o(.constdata)
    .constdata                               0x0001abc8   Section        2  qxml.o(.constdata)
    .constdata$25                            0x0001abca   Data           0  qxml.o(.constdata)
    .constdata                               0x0001abca   Section        2  qxml.o(.constdata)
    .constdata__ZN9stlp_priv15_Integer_limitsIaLan128ELa127ELin1ELb1EE6digitsE 0x0001abcc   Section        4  qdom.o(.constdata__ZN9stlp_priv15_Integer_limitsIaLan128ELa127ELin1ELb1EE6digitsE)
    .constdata__ZN9stlp_priv15_Integer_limitsIbLb0ELb1ELi1ELb0EE6digitsE 0x0001abd0   Section        4  qdom.o(.constdata__ZN9stlp_priv15_Integer_limitsIbLb0ELb1ELi1ELb0EE6digitsE)
    .constdata__ZN9stlp_priv15_Integer_limitsIcLc128ELc127ELin1ELb1EE6digitsE 0x0001abd4   Section        4  qdom.o(.constdata__ZN9stlp_priv15_Integer_limitsIcLc128ELc127ELin1ELb1EE6digitsE)
    .constdata__ZN9stlp_priv15_Integer_limitsIhLh0ELh255ELin1ELb1EE6digitsE 0x0001abd8   Section        4  qdom.o(.constdata__ZN9stlp_priv15_Integer_limitsIhLh0ELh255ELin1ELb1EE6digitsE)
    .constdata__ZN9stlp_priv15_Integer_limitsIiLin2147483648ELi2147483647ELin1ELb1EE6digitsE 0x0001abdc   Section        4  qdom.o(.constdata__ZN9stlp_priv15_Integer_limitsIiLin2147483648ELi2147483647ELin1ELb1EE6digitsE)
    .constdata__ZN9stlp_priv15_Integer_limitsIiLin2147483648ELi2147483647ELin1ELb1EE9is_signedE 0x0001abe0   Section        1  qdom.o(.constdata__ZN9stlp_priv15_Integer_limitsIiLin2147483648ELi2147483647ELin1ELb1EE9is_signedE)
    .constdata__ZN9stlp_priv15_Integer_limitsIjLj0ELj4294967295ELin1ELb1EE6digitsE 0x0001abe4   Section        4  qdom.o(.constdata__ZN9stlp_priv15_Integer_limitsIjLj0ELj4294967295ELin1ELb1EE6digitsE)
    .constdata__ZN9stlp_priv15_Integer_limitsIlLln2147483648ELl2147483647ELin1ELb1EE6digitsE 0x0001abe8   Section        4  qdom.o(.constdata__ZN9stlp_priv15_Integer_limitsIlLln2147483648ELl2147483647ELin1ELb1EE6digitsE)
    .constdata__ZN9stlp_priv15_Integer_limitsImLm0ELm4294967295ELin1ELb1EE6digitsE 0x0001abec   Section        4  qdom.o(.constdata__ZN9stlp_priv15_Integer_limitsImLm0ELm4294967295ELin1ELb1EE6digitsE)
    .constdata__ZN9stlp_priv15_Integer_limitsIsLsn32768ELs32767ELin1ELb1EE6digitsE 0x0001abf0   Section        4  qdom.o(.constdata__ZN9stlp_priv15_Integer_limitsIsLsn32768ELs32767ELin1ELb1EE6digitsE)
    .constdata__ZN9stlp_priv15_Integer_limitsItLt0ELt65535ELin1ELb1EE6digitsE 0x0001abf4   Section        4  qdom.o(.constdata__ZN9stlp_priv15_Integer_limitsItLt0ELt65535ELin1ELb1EE6digitsE)
    .constdata__ZN9stlp_priv15_Integer_limitsIwLw0ELw65535ELin1ELb1EE6digitsE 0x0001abf8   Section        4  qdom.o(.constdata__ZN9stlp_priv15_Integer_limitsIwLw0ELw65535ELin1ELb1EE6digitsE)
    .constdata__ZN9stlp_priv15_Integer_limitsIxLxn9223372036854775808ELx9223372036854775807ELin1ELb1EE6digitsE 0x0001abfc   Section        4  qdom.o(.constdata__ZN9stlp_priv15_Integer_limitsIxLxn9223372036854775808ELx9223372036854775807ELin1ELb1EE6digitsE)
    .constdata__ZN9stlp_priv15_Integer_limitsIyLy0ELy18446744073709551615ELin1ELb1EE6digitsE 0x0001ac00   Section        4  qdom.o(.constdata__ZN9stlp_priv15_Integer_limitsIyLy0ELy18446744073709551615ELin1ELb1EE6digitsE)
    .constdata__ZTI10QXmlReader              0x0001ac04   Section        8  qxml.o(.constdata__ZTI10QXmlReader)
    .constdata__ZTI11QDomHandler             0x0001ac0c   Section       12  qdom.o(.constdata__ZTI11QDomHandler)
    .constdata__ZTI11QXmlLocator             0x0001ac18   Section        8  qxml.o(.constdata__ZTI11QXmlLocator)
    .constdata__ZTI14QXmlAttributes          0x0001ac20   Section        8  qxml.o(.constdata__ZTI14QXmlAttributes)
    .constdata__ZTI14QXmlDTDHandler          0x0001ac28   Section        8  qxml.o(.constdata__ZTI14QXmlDTDHandler)
    .constdata__ZTI15QDomAttrPrivate         0x0001ac30   Section       12  qdom.o(.constdata__ZTI15QDomAttrPrivate)
    .constdata__ZTI15QDomNodePrivate         0x0001ac3c   Section        8  qdom.o(.constdata__ZTI15QDomNodePrivate)
    .constdata__ZTI15QDomTextPrivate         0x0001ac44   Section       12  qdom.o(.constdata__ZTI15QDomTextPrivate)
    .constdata__ZTI15QXmlDeclHandler         0x0001ac50   Section        8  qxml.o(.constdata__ZTI15QXmlDeclHandler)
    .constdata__ZTI15QXmlInputSource         0x0001ac58   Section        8  qxml.o(.constdata__ZTI15QXmlInputSource)
    .constdata__ZTI16QXmlErrorHandler        0x0001ac60   Section        8  qxml.o(.constdata__ZTI16QXmlErrorHandler)
    .constdata__ZTI16QXmlSimpleReader        0x0001ac68   Section       12  qxml.o(.constdata__ZTI16QXmlSimpleReader)
    .constdata__ZTI17QDomEntityPrivate       0x0001ac74   Section       12  qdom.o(.constdata__ZTI17QDomEntityPrivate)
    .constdata__ZTI18QDomCommentPrivate      0x0001ac80   Section       12  qdom.o(.constdata__ZTI18QDomCommentPrivate)
    .constdata__ZTI18QDomElementPrivate      0x0001ac8c   Section       12  qdom.o(.constdata__ZTI18QDomElementPrivate)
    .constdata__ZTI18QXmlContentHandler      0x0001ac98   Section        8  qxml.o(.constdata__ZTI18QXmlContentHandler)
    .constdata__ZTI18QXmlDefaultHandler      0x0001aca0   Section       64  qxml.o(.constdata__ZTI18QXmlDefaultHandler)
    .constdata__ZTI18QXmlEntityResolver      0x0001ace0   Section        8  qxml.o(.constdata__ZTI18QXmlEntityResolver)
    .constdata__ZTI18QXmlLexicalHandler      0x0001ace8   Section        8  qxml.o(.constdata__ZTI18QXmlLexicalHandler)
    .constdata__ZTI19QDomDocumentPrivate     0x0001acf0   Section       12  qdom.o(.constdata__ZTI19QDomDocumentPrivate)
    .constdata__ZTI19QDomNotationPrivate     0x0001acfc   Section       12  qdom.o(.constdata__ZTI19QDomNotationPrivate)
    .constdata__ZTI23QDomCDATASectionPrivate 0x0001ad08   Section       12  qdom.o(.constdata__ZTI23QDomCDATASectionPrivate)
    .constdata__ZTI23QDomDocumentTypePrivate 0x0001ad14   Section       12  qdom.o(.constdata__ZTI23QDomDocumentTypePrivate)
    .constdata__ZTI23QXmlSimpleReaderLocator 0x0001ad20   Section       12  qxml.o(.constdata__ZTI23QXmlSimpleReaderLocator)
    .constdata__ZTI24QDomCharacterDataPrivate 0x0001ad2c   Section       12  qdom.o(.constdata__ZTI24QDomCharacterDataPrivate)
    .constdata__ZTI26QDomEntityReferencePrivate 0x0001ad38   Section       12  qdom.o(.constdata__ZTI26QDomEntityReferencePrivate)
    .constdata__ZTI27QDomDocumentFragmentPrivate 0x0001ad44   Section       12  qdom.o(.constdata__ZTI27QDomDocumentFragmentPrivate)
    .constdata__ZTI32QDomProcessingInstructionPrivate 0x0001ad50   Section       12  qdom.o(.constdata__ZTI32QDomProcessingInstructionPrivate)
    .constdata__ZTS10QXmlReader              0x0001ad5c   Section       13  qxml.o(.constdata__ZTS10QXmlReader)
    .constdata__ZTS11QDomHandler             0x0001ad69   Section       14  qdom.o(.constdata__ZTS11QDomHandler)
    .constdata__ZTS11QXmlLocator             0x0001ad77   Section       14  qxml.o(.constdata__ZTS11QXmlLocator)
    .constdata__ZTS14QXmlAttributes          0x0001ad85   Section       17  qxml.o(.constdata__ZTS14QXmlAttributes)
    .constdata__ZTS14QXmlDTDHandler          0x0001ad96   Section       17  qxml.o(.constdata__ZTS14QXmlDTDHandler)
    .constdata__ZTS15QDomAttrPrivate         0x0001ada7   Section       18  qdom.o(.constdata__ZTS15QDomAttrPrivate)
    .constdata__ZTS15QDomNodePrivate         0x0001adb9   Section       18  qdom.o(.constdata__ZTS15QDomNodePrivate)
    .constdata__ZTS15QDomTextPrivate         0x0001adcb   Section       18  qdom.o(.constdata__ZTS15QDomTextPrivate)
    .constdata__ZTS15QXmlDeclHandler         0x0001addd   Section       18  qxml.o(.constdata__ZTS15QXmlDeclHandler)
    .constdata__ZTS15QXmlInputSource         0x0001adef   Section       18  qxml.o(.constdata__ZTS15QXmlInputSource)
    .constdata__ZTS16QXmlErrorHandler        0x0001ae01   Section       19  qxml.o(.constdata__ZTS16QXmlErrorHandler)
    .constdata__ZTS16QXmlSimpleReader        0x0001ae14   Section       19  qxml.o(.constdata__ZTS16QXmlSimpleReader)
    .constdata__ZTS17QDomEntityPrivate       0x0001ae27   Section       20  qdom.o(.constdata__ZTS17QDomEntityPrivate)
    .constdata__ZTS18QDomCommentPrivate      0x0001ae3b   Section       21  qdom.o(.constdata__ZTS18QDomCommentPrivate)
    .constdata__ZTS18QDomElementPrivate      0x0001ae50   Section       21  qdom.o(.constdata__ZTS18QDomElementPrivate)
    .constdata__ZTS18QXmlContentHandler      0x0001ae65   Section       21  qxml.o(.constdata__ZTS18QXmlContentHandler)
    .constdata__ZTS18QXmlDefaultHandler      0x0001ae7a   Section       21  qxml.o(.constdata__ZTS18QXmlDefaultHandler)
    .constdata__ZTS18QXmlEntityResolver      0x0001ae8f   Section       21  qxml.o(.constdata__ZTS18QXmlEntityResolver)
    .constdata__ZTS18QXmlLexicalHandler      0x0001aea4   Section       21  qxml.o(.constdata__ZTS18QXmlLexicalHandler)
    .constdata__ZTS19QDomDocumentPrivate     0x0001aeb9   Section       22  qdom.o(.constdata__ZTS19QDomDocumentPrivate)
    .constdata__ZTS19QDomNotationPrivate     0x0001aecf   Section       22  qdom.o(.constdata__ZTS19QDomNotationPrivate)
    .constdata__ZTS23QDomCDATASectionPrivate 0x0001aee5   Section       26  qdom.o(.constdata__ZTS23QDomCDATASectionPrivate)
    .constdata__ZTS23QDomDocumentTypePrivate 0x0001aeff   Section       26  qdom.o(.constdata__ZTS23QDomDocumentTypePrivate)
    .constdata__ZTS23QXmlSimpleReaderLocator 0x0001af19   Section       26  qxml.o(.constdata__ZTS23QXmlSimpleReaderLocator)
    .constdata__ZTS24QDomCharacterDataPrivate 0x0001af33   Section       27  qdom.o(.constdata__ZTS24QDomCharacterDataPrivate)
    .constdata__ZTS26QDomEntityReferencePrivate 0x0001af4e   Section       29  qdom.o(.constdata__ZTS26QDomEntityReferencePrivate)
    .constdata__ZTS27QDomDocumentFragmentPrivate 0x0001af6b   Section       30  qdom.o(.constdata__ZTS27QDomDocumentFragmentPrivate)
    .constdata__ZTS32QDomProcessingInstructionPrivate 0x0001af89   Section       35  qdom.o(.constdata__ZTS32QDomProcessingInstructionPrivate)
    .constdata__ZTV11QDomHandler             0x0001afac   Section      296  qdom.o(.constdata__ZTV11QDomHandler)
    .constdata__ZTV11QXmlLocator             0x0001b0d4   Section       24  qxml.o(.constdata__ZTV11QXmlLocator)
    .constdata__ZTV14QXmlAttributes          0x0001b0ec   Section       16  qxml.o(.constdata__ZTV14QXmlAttributes)
    .constdata__ZTV15QDomAttrPrivate         0x0001b0fc   Section      112  qdom.o(.constdata__ZTV15QDomAttrPrivate)
    .constdata__ZTV15QDomNodePrivate         0x0001b16c   Section      112  qdom.o(.constdata__ZTV15QDomNodePrivate)
    .constdata__ZTV15QDomTextPrivate         0x0001b1dc   Section      112  qdom.o(.constdata__ZTV15QDomTextPrivate)
    .constdata__ZTV15QXmlInputSource         0x0001b24c   Section       44  qxml.o(.constdata__ZTV15QXmlInputSource)
    .constdata__ZTV16QXmlSimpleReader        0x0001b278   Section      104  qxml.o(.constdata__ZTV16QXmlSimpleReader)
    .constdata__ZTV17QDomEntityPrivate       0x0001b2e0   Section      112  qdom.o(.constdata__ZTV17QDomEntityPrivate)
    .constdata__ZTV18QDomCommentPrivate      0x0001b350   Section      112  qdom.o(.constdata__ZTV18QDomCommentPrivate)
    .constdata__ZTV18QDomElementPrivate      0x0001b3c0   Section      112  qdom.o(.constdata__ZTV18QDomElementPrivate)
    .constdata__ZTV18QXmlDefaultHandler      0x0001b430   Section      292  qxml.o(.constdata__ZTV18QXmlDefaultHandler)
    .constdata__ZTV19QDomDocumentPrivate     0x0001b554   Section      112  qdom.o(.constdata__ZTV19QDomDocumentPrivate)
    .constdata__ZTV19QDomNotationPrivate     0x0001b5c4   Section      112  qdom.o(.constdata__ZTV19QDomNotationPrivate)
    .constdata__ZTV23QDomCDATASectionPrivate 0x0001b634   Section      112  qdom.o(.constdata__ZTV23QDomCDATASectionPrivate)
    .constdata__ZTV23QDomDocumentTypePrivate 0x0001b6a4   Section      112  qdom.o(.constdata__ZTV23QDomDocumentTypePrivate)
    .constdata__ZTV23QXmlSimpleReaderLocator 0x0001b714   Section       24  qxml.o(.constdata__ZTV23QXmlSimpleReaderLocator)
    .constdata__ZTV24QDomCharacterDataPrivate 0x0001b72c   Section      112  qdom.o(.constdata__ZTV24QDomCharacterDataPrivate)
    .constdata__ZTV26QDomEntityReferencePrivate 0x0001b79c   Section      112  qdom.o(.constdata__ZTV26QDomEntityReferencePrivate)
    .constdata__ZTV27QDomDocumentFragmentPrivate 0x0001b80c   Section      112  qdom.o(.constdata__ZTV27QDomDocumentFragmentPrivate)
    .constdata__ZTV32QDomProcessingInstructionPrivate 0x0001b87c   Section      112  qdom.o(.constdata__ZTV32QDomProcessingInstructionPrivate)
    .ARM.exidx                               0x0001b8ec   Section        8  ucppinit.o(.ARM.exidx)
    .data$0                                  0x00400000   Data           0  qdom.o(.data)
    .data                                    0x00400000   Section        4  qdom.o(.data)
    .data$0                                  0x00400004   Data           0  qxml.o(.data)
    .data                                    0x00400004   Section        1  qxml.o(.data)
    .data__ZNSt19_Atomic_swap_structILi1EE12_S_swap_lockE 0x00400008   Section       12  qdom.o(.data__ZNSt19_Atomic_swap_structILi1EE12_S_swap_lockE)

    Global Symbols

    Symbol Name                              Value     Ov Type        Size  Object(Section)

    BuildAttributes$$THUMB_ISAv2$ARM_ISAv5$M$VFPv2$PE$A:L22$X:L11$S22$IEEE1$IW$USESV6$~STKCKD$USESV7$~SHL$OSPACE$ROPI$IEEEJ$EBA8$UX$FPIC$INDIRECT$REQ8$PRES8$EABIv2 0x00000000   Number         0  anon$$obj.o ABSOLUTE
    QtCore{00040703}[2001b2dc].dll           0x00000000   Data           0  anon$$obj.o ABSOLUTE
    QtXml{00040703}[2001b2e0].dll            0x00000000   Data           0  anon$$obj.o ABSOLUTE
    dfpaeabi{000a0000}.dll                   0x00000000   Data           0  anon$$obj.o ABSOLUTE
    drtaeabi{000a0000}.dll                   0x00000000   Data           0  anon$$obj.o ABSOLUTE
    drtrvct2_2{000a0000}.dll                 0x00000000   Data           0  anon$$obj.o ABSOLUTE
    euser{000a0000}[100039e5].dll            0x00000000   Data           0  anon$$obj.o ABSOLUTE
    libc{00010001}[10207369].dll             0x00000000   Data           0  anon$$obj.o ABSOLUTE
    stdnew{000a0000}[20022178].dll           0x00000000   Data           0  anon$$obj.o ABSOLUTE
    SHT$$INIT_ARRAY$$Base                     - Undefined Weak Reference
    SHT$$INIT_ARRAY$$Limit                    - Undefined Weak Reference
    endl(QTextStream&)                        - Undefined Reference
    _Z4endlR11QTextStream@QtCore{00040703}[2001b2dc].dll  - Undefined Reference
    qFree(void*)                              - Undefined Reference
    _Z5qFreePv@QtCore{00040703}[2001b2dc].dll  - Undefined Reference
    qHash(const QString&)                     - Undefined Reference
    _Z5qHashRK7QString@QtCore{00040703}[2001b2dc].dll  - Undefined Reference
    qWarning(const char*, ...)                - Undefined Reference
    _Z8qWarningPKcz@QtCore{00040703}[2001b2dc].dll  - Undefined Reference
    qBadAlloc()                               - Undefined Reference
    _Z9qBadAllocv@QtCore{00040703}[2001b2dc].dll  - Undefined Reference
    qsnprintf(char*, unsigned, const char*, ...)  - Undefined Reference
    _Z9qsnprintfPcjPKcz@QtCore{00040703}[2001b2dc].dll  - Undefined Reference
    QByteArray::shared_null                   - Undefined Reference
    _ZN10QByteArray11shared_nullE@QtCore{00040703}[2001b2dc].dll  - Undefined Reference
    QByteArray::clear()                       - Undefined Reference
    _ZN10QByteArray5clearEv@QtCore{00040703}[2001b2dc].dll  - Undefined Reference
    QByteArray::append(const QByteArray&)     - Undefined Reference
    _ZN10QByteArray6appendERKS_@QtCore{00040703}[2001b2dc].dll  - Undefined Reference
    QByteArray::resize(int)                   - Undefined Reference
    _ZN10QByteArray6resizeEi@QtCore{00040703}[2001b2dc].dll  - Undefined Reference
    QByteArray::realloc(int)                  - Undefined Reference
    _ZN10QByteArray7reallocEi@QtCore{00040703}[2001b2dc].dll  - Undefined Reference
    QByteArray::replace(int, int, const char*)  - Undefined Reference
    _ZN10QByteArray7replaceEiiPKc@QtCore{00040703}[2001b2dc].dll  - Undefined Reference
    QByteArray::QByteArray(const char*)       - Undefined Reference
    _ZN10QByteArrayC1EPKc@QtCore{00040703}[2001b2dc].dll  - Undefined Reference
    QByteArray::QByteArray(const char*, int)  - Undefined Reference
    _ZN10QByteArrayC1EPKci@QtCore{00040703}[2001b2dc].dll  - Undefined Reference
    QByteArray::operator =(const QByteArray&)  - Undefined Reference
    _ZN10QByteArrayaSERKS_@QtCore{00040703}[2001b2dc].dll  - Undefined Reference
    QTextCodec::codecForMib(int)              - Undefined Reference
    _ZN10QTextCodec11codecForMibEi@QtCore{00040703}[2001b2dc].dll  - Undefined Reference
    QTextCodec::codecForName(const QByteArray&)  - Undefined Reference
    _ZN10QTextCodec12codecForNameERK10QByteArray@QtCore{00040703}[2001b2dc].dll  - Undefined Reference
    QTextStream::setCodec(QTextCodec*)        - Undefined Reference
    _ZN11QTextStream8setCodecEP10QTextCodec@QtCore{00040703}[2001b2dc].dll  - Undefined Reference
    QTextStream::QTextStream(QString*, QFlags<QIODevice::OpenModeFlag>)  - Undefined Reference
    _ZN11QTextStreamC1EP7QString6QFlagsIN9QIODevice12OpenModeFlagEE@QtCore{00040703}[2001b2dc].dll  - Undefined Reference
    QTextStream::~QTextStream()               - Undefined Reference
    _ZN11QTextStreamD1Ev@QtCore{00040703}[2001b2dc].dll  - Undefined Reference
    QTextStream::operator <<(const char*)     - Undefined Reference
    _ZN11QTextStreamlsEPKc@QtCore{00040703}[2001b2dc].dll  - Undefined Reference
    QTextStream::operator <<(const QByteArray&)  - Undefined Reference
    _ZN11QTextStreamlsERK10QByteArray@QtCore{00040703}[2001b2dc].dll  - Undefined Reference
    QTextStream::operator <<(const QString&)  - Undefined Reference
    _ZN11QTextStreamlsERK7QString@QtCore{00040703}[2001b2dc].dll  - Undefined Reference
    QTextStream::operator <<(char)            - Undefined Reference
    _ZN11QTextStreamlsEc@QtCore{00040703}[2001b2dc].dll  - Undefined Reference
    QVectorData::reallocate(QVectorData*, int, int, int)  - Undefined Reference
    _ZN11QVectorData10reallocateEPS_iii@QtCore{00040703}[2001b2dc].dll  - Undefined Reference
    QVectorData::shared_null                  - Undefined Reference
    _ZN11QVectorData11shared_nullE@QtCore{00040703}[2001b2dc].dll  - Undefined Reference
    QVectorData::free(QVectorData*, int)      - Undefined Reference
    _ZN11QVectorData4freeEPS_i@QtCore{00040703}[2001b2dc].dll  - Undefined Reference
    QVectorData::grow(int, int, int, bool)    - Undefined Reference
    _ZN11QVectorData4growEiiib@QtCore{00040703}[2001b2dc].dll  - Undefined Reference
    QVectorData::allocate(int, int)           - Undefined Reference
    _ZN11QVectorData8allocateEii@QtCore{00040703}[2001b2dc].dll  - Undefined Reference
    QTextDecoder::toUnicode(const char*, int)  - Undefined Reference
    _ZN12QTextDecoder9toUnicodeEPKci@QtCore{00040703}[2001b2dc].dll  - Undefined Reference
    QTextDecoder::~QTextDecoder()             - Undefined Reference
    _ZN12QTextDecoderD1Ev@QtCore{00040703}[2001b2dc].dll  - Undefined Reference
    User::LockedDec(int&)                     - Undefined Reference
    _ZN4User9LockedDecERi@euser{000a0000}[100039e5].dll  - Undefined Reference
    User::LockedInc(int&)                     - Undefined Reference
    _ZN4User9LockedIncERi@euser{000a0000}[100039e5].dll  - Undefined Reference
    QBuffer::setData(const QByteArray&)       - Undefined Reference
    _ZN7QBuffer7setDataERK10QByteArray@QtCore{00040703}[2001b2dc].dll  - Undefined Reference
    QBuffer::QBuffer(QObject*)                - Undefined Reference
    _ZN7QBufferC1EP7QObject@QtCore{00040703}[2001b2dc].dll  - Undefined Reference
    QBuffer::~QBuffer()                       - Undefined Reference
    _ZN7QBufferD1Ev@QtCore{00040703}[2001b2dc].dll  - Undefined Reference
    QRegExp::cap(int)                         - Undefined Reference
    _ZN7QRegExp3capEi@QtCore{00040703}[2001b2dc].dll  - Undefined Reference
    QRegExp::QRegExp(const QString&, Qt::CaseSensitivity, QRegExp::PatternSyntax)  - Undefined Reference
    _ZN7QRegExpC1ERK7QStringN2Qt15CaseSensitivityENS_13PatternSyntaxE@QtCore{00040703}[2001b2dc].dll  - Undefined Reference
    QRegExp::~QRegExp()                       - Undefined Reference
    _ZN7QRegExpD1Ev@QtCore{00040703}[2001b2dc].dll  - Undefined Reference
    QString::fromLatin1(const char*, int)     - Undefined Reference
    _ZN7QString10fromLatin1EPKci@QtCore{00040703}[2001b2dc].dll  - Undefined Reference
    QString::shared_null                      - Undefined Reference
    _ZN7QString11shared_nullE@QtCore{00040703}[2001b2dc].dll  - Undefined Reference
    QString::fromLatin1_helper(const char*, int)  - Undefined Reference
    _ZN7QString17fromLatin1_helperEPKci@QtCore{00040703}[2001b2dc].dll  - Undefined Reference
    QString::free(QString::Data*)             - Undefined Reference
    _ZN7QString4freeEPNS_4DataE@QtCore{00040703}[2001b2dc].dll  - Undefined Reference
    QString::grow(int)                        - Undefined Reference
    _ZN7QString4growEi@QtCore{00040703}[2001b2dc].dll  - Undefined Reference
    QString::append(QChar)                    - Undefined Reference
    _ZN7QString6appendE5QChar@QtCore{00040703}[2001b2dc].dll  - Undefined Reference
    QString::append(const QLatin1String&)     - Undefined Reference
    _ZN7QString6appendERK13QLatin1String@QtCore{00040703}[2001b2dc].dll  - Undefined Reference
    QString::append(const QString&)           - Undefined Reference
    _ZN7QString6appendERKS_@QtCore{00040703}[2001b2dc].dll  - Undefined Reference
    QString::insert(int, const QChar*, int)   - Undefined Reference
    _ZN7QString6insertEiPK5QChari@QtCore{00040703}[2001b2dc].dll  - Undefined Reference
    QString::number(int, int)                 - Undefined Reference
    _ZN7QString6numberEii@QtCore{00040703}[2001b2dc].dll  - Undefined Reference
    QString::remove(QChar, Qt::CaseSensitivity)  - Undefined Reference
    _ZN7QString6removeE5QCharN2Qt15CaseSensitivityE@QtCore{00040703}[2001b2dc].dll  - Undefined Reference
    QString::remove(int, int)                 - Undefined Reference
    _ZN7QString6removeEii@QtCore{00040703}[2001b2dc].dll  - Undefined Reference
    QString::resize(int)                      - Undefined Reference
    _ZN7QString6resizeEi@QtCore{00040703}[2001b2dc].dll  - Undefined Reference
    QString::setNum(double, char, int)        - Undefined Reference
    _ZN7QString6setNumEdci@QtCore{00040703}[2001b2dc].dll  - Undefined Reference
    QString::setNum(long long, int)           - Undefined Reference
    _ZN7QString6setNumExi@QtCore{00040703}[2001b2dc].dll  - Undefined Reference
    QString::setNum(unsigned long long, int)  - Undefined Reference
    _ZN7QString6setNumEyi@QtCore{00040703}[2001b2dc].dll  - Undefined Reference
    QString::realloc(int)                     - Undefined Reference
    _ZN7QString7reallocEi@QtCore{00040703}[2001b2dc].dll  - Undefined Reference
    QString::realloc()                        - Undefined Reference
    _ZN7QString7reallocEv@QtCore{00040703}[2001b2dc].dll  - Undefined Reference
    QString::replace(QChar, const QLatin1String&, Qt::CaseSensitivity)  - Undefined Reference
    _ZN7QString7replaceE5QCharRK13QLatin1StringN2Qt15CaseSensitivityE@QtCore{00040703}[2001b2dc].dll  - Undefined Reference
    QString::replace(const QRegExp&, const QString&)  - Undefined Reference
    _ZN7QString7replaceERK7QRegExpRKS_@QtCore{00040703}[2001b2dc].dll  - Undefined Reference
    QString::replace(int, int, const QString&)  - Undefined Reference
    _ZN7QString7replaceEiiRKS_@QtCore{00040703}[2001b2dc].dll  - Undefined Reference
    QString::truncate(int)                    - Undefined Reference
    _ZN7QString8truncateEi@QtCore{00040703}[2001b2dc].dll  - Undefined Reference
    QString::QString(int, QChar)              - Undefined Reference
    _ZN7QStringC1Ei5QChar@QtCore{00040703}[2001b2dc].dll  - Undefined Reference
    QString::QString(int, Qt::Initialization)  - Undefined Reference
    _ZN7QStringC1EiN2Qt14InitializationE@QtCore{00040703}[2001b2dc].dll  - Undefined Reference
    QString::operator =(const QString&)       - Undefined Reference
    _ZN7QStringaSERKS_@QtCore{00040703}[2001b2dc].dll  - Undefined Reference
    QMapData::createData(int)                 - Undefined Reference
    _ZN8QMapData10createDataEi@QtCore{00040703}[2001b2dc].dll  - Undefined Reference
    QMapData::node_create(QMapData::Node**, int, int)  - Undefined Reference
    _ZN8QMapData11node_createEPPNS_4NodeEii@QtCore{00040703}[2001b2dc].dll  - Undefined Reference
    QMapData::node_delete(QMapData::Node**, int, QMapData::Node*)  - Undefined Reference
    _ZN8QMapData11node_deleteEPPNS_4NodeEiS1_@QtCore{00040703}[2001b2dc].dll  - Undefined Reference
    QMapData::shared_null                     - Undefined Reference
    _ZN8QMapData11shared_nullE@QtCore{00040703}[2001b2dc].dll  - Undefined Reference
    QMapData::continueFreeData(int)           - Undefined Reference
    _ZN8QMapData16continueFreeDataEi@QtCore{00040703}[2001b2dc].dll  - Undefined Reference
    QHashData::free_helper(void(*)(QHashData::Node*))  - Undefined Reference
    _ZN9QHashData11free_helperEPFvPNS_4NodeEE@QtCore{00040703}[2001b2dc].dll  - Undefined Reference
    QHashData::shared_null                    - Undefined Reference
    _ZN9QHashData11shared_nullE@QtCore{00040703}[2001b2dc].dll  - Undefined Reference
    QHashData::allocateNode(int)              - Undefined Reference
    _ZN9QHashData12allocateNodeEi@QtCore{00040703}[2001b2dc].dll  - Undefined Reference
    QHashData::previousNode(QHashData::Node*)  - Undefined Reference
    _ZN9QHashData12previousNodeEPNS_4NodeE@QtCore{00040703}[2001b2dc].dll  - Undefined Reference
    QHashData::detach_helper2(void(*)(QHashData::Node*, void*), void(*)(QHashData::Node*), int, int)  - Undefined Reference
    _ZN9QHashData14detach_helper2EPFvPNS_4NodeEPvEPFvS1_Eii@QtCore{00040703}[2001b2dc].dll  - Undefined Reference
    QHashData::rehash(int)                    - Undefined Reference
    _ZN9QHashData6rehashEi@QtCore{00040703}[2001b2dc].dll  - Undefined Reference
    QHashData::freeNode(void*)                - Undefined Reference
    _ZN9QHashData8freeNodeEPv@QtCore{00040703}[2001b2dc].dll  - Undefined Reference
    QHashData::nextNode(QHashData::Node*)     - Undefined Reference
    _ZN9QHashData8nextNodeEPNS_4NodeE@QtCore{00040703}[2001b2dc].dll  - Undefined Reference
    QIODevice::setTextModeEnabled(bool)       - Undefined Reference
    _ZN9QIODevice18setTextModeEnabledEb@QtCore{00040703}[2001b2dc].dll  - Undefined Reference
    QIODevice::read(char*, long long)         - Undefined Reference
    _ZN9QIODevice4readEPcx@QtCore{00040703}[2001b2dc].dll  - Undefined Reference
    QListData::detach_grow(int*, int)         - Undefined Reference
    _ZN9QListData11detach_growEPii@QtCore{00040703}[2001b2dc].dll  - Undefined Reference
    QListData::shared_null                    - Undefined Reference
    _ZN9QListData11shared_nullE@QtCore{00040703}[2001b2dc].dll  - Undefined Reference
    QListData::append()                       - Undefined Reference
    _ZN9QListData6appendEv@QtCore{00040703}[2001b2dc].dll  - Undefined Reference
    QListData::detach(int)                    - Undefined Reference
    _ZN9QListData6detachEi@QtCore{00040703}[2001b2dc].dll  - Undefined Reference
    QXmlUtils::isNameChar(QChar)              - Undefined Reference
    _ZN9QXmlUtils10isNameCharE5QChar@QtCore{00040703}[2001b2dc].dll  - Undefined Reference
    QXmlUtils::isPublicID(const QString&)     - Undefined Reference
    _ZN9QXmlUtils10isPublicIDERK7QString@QtCore{00040703}[2001b2dc].dll  - Undefined Reference
    QXmlUtils::isChar(QChar)                  - Undefined Reference
    _ZN9QXmlUtils6isCharE5QChar@QtCore{00040703}[2001b2dc].dll  - Undefined Reference
    QXmlUtils::isLetter(QChar)                - Undefined Reference
    _ZN9QXmlUtils8isLetterE5QChar@QtCore{00040703}[2001b2dc].dll  - Undefined Reference
    QtPrivate::QStringList_contains(const QStringList*, const QString&, Qt::CaseSensitivity)  - Undefined Reference
    _ZN9QtPrivate20QStringList_containsEPK11QStringListRK7QStringN2Qt15CaseSensitivityE@QtCore{00040703}[2001b2dc].dll  - Undefined Reference
    QTextCodec::makeDecoder() const           - Undefined Reference
    _ZNK10QTextCodec11makeDecoderEv@QtCore{00040703}[2001b2dc].dll  - Undefined Reference
    QTextCodec::canEncode(QChar) const        - Undefined Reference
    _ZNK10QTextCodec9canEncodeE5QChar@QtCore{00040703}[2001b2dc].dll  - Undefined Reference
    QTextStream::codec() const                - Undefined Reference
    _ZNK11QTextStream5codecEv@QtCore{00040703}[2001b2dc].dll  - Undefined Reference
    QTextStream::device() const               - Undefined Reference
    _ZNK11QTextStream6deviceEv@QtCore{00040703}[2001b2dc].dll  - Undefined Reference
    QTextStream::string() const               - Undefined Reference
    _ZNK11QTextStream6stringEv@QtCore{00040703}[2001b2dc].dll  - Undefined Reference
    QChar::category() const                   - Undefined Reference
    _ZNK5QChar8categoryEv@QtCore{00040703}[2001b2dc].dll  - Undefined Reference
    QRegExp::indexIn(const QString&, int, QRegExp::CaretMode) const  - Undefined Reference
    _ZNK7QRegExp7indexInERK7QStringiNS_9CaretModeE@QtCore{00040703}[2001b2dc].dll  - Undefined Reference
    QString::simplified() const               - Undefined Reference
    _ZNK7QString10simplifiedEv@QtCore{00040703}[2001b2dc].dll  - Undefined Reference
    QString::startsWith(const QChar&, Qt::CaseSensitivity) const  - Undefined Reference
    _ZNK7QString10startsWithERK5QCharN2Qt15CaseSensitivityE@QtCore{00040703}[2001b2dc].dll  - Undefined Reference
    QString::startsWith(const QString&, Qt::CaseSensitivity) const  - Undefined Reference
    _ZNK7QString10startsWithERKS_N2Qt15CaseSensitivityE@QtCore{00040703}[2001b2dc].dll  - Undefined Reference
    QString::mid(int, int) const              - Undefined Reference
    _ZNK7QString3midEii@QtCore{00040703}[2001b2dc].dll  - Undefined Reference
    QString::left(int) const                  - Undefined Reference
    _ZNK7QString4leftEi@QtCore{00040703}[2001b2dc].dll  - Undefined Reference
    QString::toUInt(bool*, int) const         - Undefined Reference
    _ZNK7QString6toUIntEPbi@QtCore{00040703}[2001b2dc].dll  - Undefined Reference
    QString::toUtf8() const                   - Undefined Reference
    _ZNK7QString6toUtf8Ev@QtCore{00040703}[2001b2dc].dll  - Undefined Reference
    QString::indexOf(QChar, int, Qt::CaseSensitivity) const  - Undefined Reference
    _ZNK7QString7indexOfE5QChariN2Qt15CaseSensitivityE@QtCore{00040703}[2001b2dc].dll  - Undefined Reference
    QString::indexOf(const QLatin1String&, int, Qt::CaseSensitivity) const  - Undefined Reference
    _ZNK7QString7indexOfERK13QLatin1StringiN2Qt15CaseSensitivityE@QtCore{00040703}[2001b2dc].dll  - Undefined Reference
    QString::toLower() const                  - Undefined Reference
    _ZNK7QString7toLowerEv@QtCore{00040703}[2001b2dc].dll  - Undefined Reference
    QString::endsWith(const QChar&, Qt::CaseSensitivity) const  - Undefined Reference
    _ZNK7QString8endsWithERK5QCharN2Qt15CaseSensitivityE@QtCore{00040703}[2001b2dc].dll  - Undefined Reference
    QString::toLatin1() const                 - Undefined Reference
    _ZNK7QString8toLatin1Ev@QtCore{00040703}[2001b2dc].dll  - Undefined Reference
    QString::operator ==(const QLatin1String&) const  - Undefined Reference
    _ZNK7QStringeqERK13QLatin1String@QtCore{00040703}[2001b2dc].dll  - Undefined Reference
    QString::operator ==(const QString&) const  - Undefined Reference
    _ZNK7QStringeqERKS_@QtCore{00040703}[2001b2dc].dll  - Undefined Reference
    QString::operator <(const QString&) const  - Undefined Reference
    _ZNK7QStringltERKS_@QtCore{00040703}[2001b2dc].dll  - Undefined Reference
    QIODevice::isOpen() const                 - Undefined Reference
    _ZNK9QIODevice6isOpenEv@QtCore{00040703}[2001b2dc].dll  - Undefined Reference
    typeinfo for std::bad_alloc               - Undefined Reference
    _ZTISt9bad_alloc@stdnew{000a0000}[20022178].dll  - Undefined Reference
    vtable for __cxxabiv1::__class_type_info  - Undefined Reference
    _ZTVN10__cxxabiv117__class_type_infoE@drtaeabi{000a0000}.dll  - Undefined Reference
    vtable for __cxxabiv1::__si_class_type_info  - Undefined Reference
    _ZTVN10__cxxabiv120__si_class_type_infoE@drtaeabi{000a0000}.dll  - Undefined Reference
    vtable for __cxxabiv1::__vmi_class_type_info  - Undefined Reference
    _ZTVN10__cxxabiv121__vmi_class_type_infoE@drtaeabi{000a0000}.dll  - Undefined Reference
    operator delete (void*)                   - Undefined Reference
    _ZdlPv@stdnew{000a0000}[20022178].dll     - Undefined Reference
    operator new(unsigned)                    - Undefined Reference
    _Znwj@stdnew{000a0000}[20022178].dll      - Undefined Reference
    __ARM_ll_addls                            - Undefined Reference
    __ARM_ll_addls@drtrvct2_2{000a0000}.dll   - Undefined Reference
    __ARM_ll_cmpge                            - Undefined Reference
    __ARM_ll_cmpge@drtrvct2_2{000a0000}.dll   - Undefined Reference
    __ARM_ll_cmpu                             - Undefined Reference
    __ARM_ll_cmpu@drtrvct2_2{000a0000}.dll    - Undefined Reference
    __ARM_ll_rsblu                            - Undefined Reference
    __ARM_ll_rsblu@drtrvct2_2{000a0000}.dll   - Undefined Reference
    __aeabi_f2d                               - Undefined Reference
    __aeabi_f2d@dfpaeabi{000a0000}.dll        - Undefined Reference
    __aeabi_idivmod                           - Undefined Reference
    __aeabi_idivmod@drtaeabi{000a0000}.dll    - Undefined Reference
    __aeabi_memcpy                            - Undefined Reference
    __aeabi_memcpy4                           - Undefined Reference
    __aeabi_memcpy4@drtaeabi{000a0000}.dll    - Undefined Reference
    __aeabi_memcpy@drtaeabi{000a0000}.dll     - Undefined Reference
    __aeabi_uidivmod                          - Undefined Reference
    __aeabi_uidivmod@drtaeabi{000a0000}.dll   - Undefined Reference
    __aeabi_unwind_cpp_pr0                    - Undefined Reference
    __aeabi_unwind_cpp_pr0@drtaeabi{000a0000}.dll  - Undefined Reference
    __aeabi_vec_ctor_nocookie_nodtor          - Undefined Reference
    __aeabi_vec_ctor_nocookie_nodtor@drtaeabi{000a0000}.dll  - Undefined Reference
    __cxa_begin_catch                         - Undefined Reference
    __cxa_begin_catch@drtaeabi{000a0000}.dll  - Undefined Reference
    __cxa_end_catch                           - Undefined Reference
    __cxa_end_catch@drtaeabi{000a0000}.dll    - Undefined Reference
    __cxa_end_cleanup                         - Undefined Reference
    __cxa_end_cleanup@drtaeabi{000a0000}.dll  - Undefined Reference
    __cxa_pure_virtual                        - Undefined Reference
    __cxa_pure_virtual@drtaeabi{000a0000}.dll  - Undefined Reference
    __cxa_rethrow                             - Undefined Reference
    __cxa_rethrow@drtaeabi{000a0000}.dll      - Undefined Reference
    run_static_dtors                          - Undefined Weak Reference
    strlen                                    - Undefined Reference
    strlen@libc{00010001}[10207369].dll       - Undefined Reference
    Image$$ER_RO$$Base                       0x00008000   Number         0  anon$$obj.o(linker$$defined$$symbols)
    _E32Dll                                  0x00008000   ARM Code      40  uc_dll_.o(.emb_text)
    Symbian$$CPP$$Exception$$Descriptor      0x00008014   Data           0  uc_dll_.o(.emb_text)
    __cpp_initialize__aeabi_                 0x00008028   ARM Code      52  ucppinit.o(.emb_text)
    std::nothrow                             0x0000805c   ARM Code       0  ucppinit.o(.emb_text)
    __PLT                                    0x0000805c   ARM Code       0  anon$$obj.o(.plt)
    QDomCharacterDataPrivate::appendData(const QString&) 0x000086f3   Thumb Code    10  qdom.o(.text)
    QDomDocumentPrivate::saveDocument(QTextStream&, int, QDomNode::EncodingPolicy) const 0x000086fd   Thumb Code   592  qdom.o(.text)
    QDomNode::isDocument() const             0x0000894d   Thumb Code    16  qdom.o(.text)
    QDomNode::save(QTextStream&, int, QDomNode::EncodingPolicy) const 0x0000895d   Thumb Code    54  qdom.o(.text)
    QDomNode::save(QTextStream&, int) const  0x00008993   Thumb Code     4  qdom.o(.text)
    operator <<(QTextStream&, const QDomNode&) 0x00008997   Thumb Code    18  qdom.o(.text)
    QDomImplementation::QDomImplementation() 0x00008d91   Thumb Code     6  qdom.o(.text)
    QDomImplementation::QDomImplementation__sub_object() 0x00008d91   Thumb Code     0  qdom.o(.text)
    QDomImplementation::QDomImplementation(const QDomImplementation&) 0x00008d97   Thumb Code    20  qdom.o(.text)
    QDomImplementation::QDomImplementation__sub_object(const QDomImplementation&) 0x00008d97   Thumb Code     0  qdom.o(.text)
    QDomImplementation::~QDomImplementation() 0x00008dab   Thumb Code    28  qdom.o(.text)
    QDomImplementation::~QDomImplementation__sub_object() 0x00008dab   Thumb Code     0  qdom.o(.text)
    QDomImplementation::operator =(const QDomImplementation&) 0x00008dc7   Thumb Code    44  qdom.o(.text)
    QDomImplementation::operator ==(const QDomImplementation&) const 0x00008df3   Thumb Code    16  qdom.o(.text)
    QDomImplementation::operator !=(const QDomImplementation&) const 0x00008e03   Thumb Code    16  qdom.o(.text)
    QDomImplementation::hasFeature(const QString&, const QString&) const 0x00008e13   Thumb Code    54  qdom.o(.text)
    QDomNode::~QDomNode()                    0x00008e49   Thumb Code    36  qdom.o(.text)
    QDomNode::~QDomNode__sub_object()        0x00008e49   Thumb Code     0  qdom.o(.text)
    QDomNode::QDomNode(QDomNodePrivate*)     0x00008e6d   Thumb Code    20  qdom.o(.text)
    QDomNode::QDomNode__sub_object(QDomNodePrivate*) 0x00008e6d   Thumb Code     0  qdom.o(.text)
    QDomDocumentType::QDomDocumentType(QDomDocumentTypePrivate*) 0x00008e81   Thumb Code     2  qdom.o(.text)
    QDomDocumentType::QDomDocumentType__sub_object(QDomDocumentTypePrivate*) 0x00008e81   Thumb Code     0  qdom.o(.text)
    QDomNodePrivate::ownerDocument()         0x00008e83   Thumb Code    46  qdom.o(.text)
    QDomNodePrivate::~QDomNodePrivate()      0x00008eb1   Thumb Code   100  qdom.o(.text)
    QDomNodePrivate::~QDomNodePrivate__sub_object() 0x00008eb1   Thumb Code     0  qdom.o(.text)
    QDomNamedNodeMapPrivate::clearMap()      0x00008f15   Thumb Code   136  qdom.o(.text)
    QDomNamedNodeMapPrivate::~QDomNamedNodeMapPrivate() 0x00008f9d   Thumb Code    18  qdom.o(.text)
    QDomNamedNodeMapPrivate::~QDomNamedNodeMapPrivate__sub_object() 0x00008f9d   Thumb Code     0  qdom.o(.text)
    QDomNamedNodeMapPrivate::QDomNamedNodeMapPrivate(QDomNodePrivate*) 0x00008faf   Thumb Code    28  qdom.o(.text)
    QDomNamedNodeMapPrivate::QDomNamedNodeMapPrivate__sub_object(QDomNodePrivate*) 0x00008faf   Thumb Code     0  qdom.o(.text)
    QDomDocumentTypePrivate::init()          0x00008fcb   Thumb Code    94  qdom.o(.text)
    QDomNodePrivate::QDomNodePrivate(QDomDocumentPrivate*, QDomNodePrivate*) 0x00009029   Thumb Code   122  qdom.o(.text)
    QDomNodePrivate::QDomNodePrivate__sub_object(QDomDocumentPrivate*, QDomNodePrivate*) 0x00009029   Thumb Code     0  qdom.o(.text)
    QDomDocumentTypePrivate::QDomDocumentTypePrivate(QDomDocumentPrivate*, QDomNodePrivate*) 0x000090a3   Thumb Code   166  qdom.o(.text)
    QDomDocumentTypePrivate::QDomDocumentTypePrivate__sub_object(QDomDocumentPrivate*, QDomNodePrivate*) 0x000090a3   Thumb Code     0  qdom.o(.text)
    QDomNode::QDomNode()                     0x00009149   Thumb Code     6  qdom.o(.text)
    QDomNode::QDomNode__sub_object()         0x00009149   Thumb Code     0  qdom.o(.text)
    QDomDocumentType::QDomDocumentType()     0x0000914f   Thumb Code     6  qdom.o(.text)
    QDomDocumentType::QDomDocumentType__sub_object() 0x0000914f   Thumb Code     0  qdom.o(.text)
    QDomImplementation::createDocumentType(const QString&, const QString&, const QString&) 0x00009155   Thumb Code   196  qdom.o(.text)
    QDomDocument::~QDomDocument()            0x00009219   Thumb Code     2  qdom.o(.text)
    QDomDocument::~QDomDocument__sub_object() 0x00009219   Thumb Code     0  qdom.o(.text)
    QDomNode::QDomNode(const QDomNode&)      0x0000921b   Thumb Code    22  qdom.o(.text)
    QDomNode::QDomNode__sub_object(const QDomNode&) 0x0000921b   Thumb Code     0  qdom.o(.text)
    QDomDocument::QDomDocument(const QDomDocument&) 0x00009231   Thumb Code     2  qdom.o(.text)
    QDomDocument::QDomDocument__sub_object(const QDomDocument&) 0x00009231   Thumb Code     0  qdom.o(.text)
    QDomNode::appendChild(const QDomNode&)   0x00009233   Thumb Code    40  qdom.o(.text)
    QDomDocument::QDomDocument()             0x0000925b   Thumb Code     6  qdom.o(.text)
    QDomDocument::QDomDocument__sub_object() 0x0000925b   Thumb Code     0  qdom.o(.text)
    QDomNode::isNull() const                 0x00009261   Thumb Code    14  qdom.o(.text)
    QDomElementPrivate::QDomElementPrivate(QDomDocumentPrivate*, QDomNodePrivate*, const QString&, const QString&) 0x0000926f   Thumb Code    82  qdom.o(.text)
    QDomElementPrivate::QDomElementPrivate__sub_object(QDomDocumentPrivate*, QDomNodePrivate*, const QString&, const QString&) 0x0000926f   Thumb Code     0  qdom.o(.text)
    QDomDocumentPrivate::createElementNS(const QString&, const QString&) 0x000092c1   Thumb Code    76  qdom.o(.text)
    QDomElement::QDomElement(QDomElementPrivate*) 0x0000930d   Thumb Code     8  qdom.o(.text)
    QDomElement::QDomElement__sub_object(QDomElementPrivate*) 0x0000930d   Thumb Code     0  qdom.o(.text)
    QDomDocumentPrivate::QDomDocumentPrivate() 0x00009315   Thumb Code   106  qdom.o(.text)
    QDomDocumentPrivate::QDomDocumentPrivate__sub_object() 0x00009315   Thumb Code     0  qdom.o(.text)
    QDomDocument::createElementNS(const QString&, const QString&) 0x0000937f   Thumb Code    50  qdom.o(.text)
    QDomDocumentPrivate::QDomDocumentPrivate(QDomDocumentTypePrivate*) 0x000093b1   Thumb Code   124  qdom.o(.text)
    QDomDocumentPrivate::QDomDocumentPrivate__sub_object(QDomDocumentTypePrivate*) 0x000093b1   Thumb Code     0  qdom.o(.text)
    QDomDocument::QDomDocument(const QDomDocumentType&) 0x0000942d   Thumb Code    30  qdom.o(.text)
    QDomDocument::QDomDocument__sub_object(const QDomDocumentType&) 0x0000942d   Thumb Code     0  qdom.o(.text)
    QDomImplementation::createDocument(const QString&, const QString&, const QDomDocumentType&) 0x0000944b   Thumb Code    84  qdom.o(.text)
    QDomImplementation::invalidDataPolicy()  0x0000949f   Thumb Code     6  qdom.o(.text)
    QDomImplementation::setInvalidDataPolicy(QDomImplementation::InvalidDataPolicy) 0x000094a5   Thumb Code     6  qdom.o(.text)
    QDomImplementation::isNull()             0x000094ab   Thumb Code    14  qdom.o(.text)
    QDomImplementation::QDomImplementation(QDomImplementationPrivate*) 0x000094b9   Thumb Code    18  qdom.o(.text)
    QDomImplementation::QDomImplementation__sub_object(QDomImplementationPrivate*) 0x000094b9   Thumb Code     0  qdom.o(.text)
    QDomNode::operator =(const QDomNode&)    0x000094cb   Thumb Code    54  qdom.o(.text)
    QDomNode::operator ==(const QDomNode&) const 0x00009501   Thumb Code    16  qdom.o(.text)
    QDomNode::operator !=(const QDomNode&) const 0x00009511   Thumb Code    16  qdom.o(.text)
    QDomNode::insertBefore(const QDomNode&, const QDomNode&) 0x00009521   Thumb Code    36  qdom.o(.text)
    QDomNode::insertAfter(const QDomNode&, const QDomNode&) 0x00009545   Thumb Code    36  qdom.o(.text)
    QDomNode::replaceChild(const QDomNode&, const QDomNode&) 0x00009569   Thumb Code    44  qdom.o(.text)
    QDomNode::removeChild(const QDomNode&)   0x00009595   Thumb Code    48  qdom.o(.text)
    QDomNode::hasChildNodes() const          0x000095c5   Thumb Code    18  qdom.o(.text)
    QDomNode::cloneNode(bool) const          0x000095d7   Thumb Code   110  qdom.o(.text)
    QDomNode::normalize()                    0x00009645   Thumb Code    14  qdom.o(.text)
    QDomNode::isSupported(const QString&, const QString&) const 0x00009653   Thumb Code    24  qdom.o(.text)
    QDomNode::nodeName() const               0x0000966b   Thumb Code    80  qdom.o(.text)
    QDomNode::nodeType() const               0x000096bb   Thumb Code    16  qdom.o(.text)
    QDomNode::parentNode() const             0x000096cb   Thumb Code    28  qdom.o(.text)
    QDomNodeListPrivate::QDomNodeListPrivate(QDomNodePrivate*) 0x000096e7   Thumb Code    64  qdom.o(.text)
    QDomNodeListPrivate::QDomNodeListPrivate__sub_object(QDomNodePrivate*) 0x000096e7   Thumb Code     0  qdom.o(.text)
    QDomNodeList::QDomNodeList(QDomNodeListPrivate*) 0x00009727   Thumb Code     4  qdom.o(.text)
    QDomNodeList::QDomNodeList__sub_object(QDomNodeListPrivate*) 0x00009727   Thumb Code     0  qdom.o(.text)
    QDomNodeList::QDomNodeList()             0x0000972b   Thumb Code     6  qdom.o(.text)
    QDomNodeList::QDomNodeList__sub_object() 0x0000972b   Thumb Code     0  qdom.o(.text)
    QDomNode::childNodes() const             0x00009731   Thumb Code    32  qdom.o(.text)
    QDomNode::firstChild() const             0x00009751   Thumb Code    20  qdom.o(.text)
    QDomNode::lastChild() const              0x00009765   Thumb Code    20  qdom.o(.text)
    QDomNode::previousSibling() const        0x00009779   Thumb Code    20  qdom.o(.text)
    QDomNode::nextSibling() const            0x0000978d   Thumb Code    20  qdom.o(.text)
    QDomNamedNodeMap::QDomNamedNodeMap(QDomNamedNodeMapPrivate*) 0x000097a1   Thumb Code    18  qdom.o(.text)
    QDomNamedNodeMap::QDomNamedNodeMap__sub_object(QDomNamedNodeMapPrivate*) 0x000097a1   Thumb Code     0  qdom.o(.text)
    QDomNamedNodeMap::QDomNamedNodeMap()     0x000097b3   Thumb Code     6  qdom.o(.text)
    QDomNamedNodeMap::QDomNamedNodeMap__sub_object() 0x000097b3   Thumb Code     0  qdom.o(.text)
    QDomNode::attributes() const             0x000097b9   Thumb Code    40  qdom.o(.text)
    QDomDocument::QDomDocument(QDomDocumentPrivate*) 0x000097e1   Thumb Code     8  qdom.o(.text)
    QDomDocument::QDomDocument__sub_object(QDomDocumentPrivate*) 0x000097e1   Thumb Code     0  qdom.o(.text)
    QDomNode::ownerDocument() const          0x000097e9   Thumb Code    32  qdom.o(.text)
    QDomNode::namespaceURI() const           0x00009809   Thumb Code    22  qdom.o(.text)
    QDomNode::localName() const              0x0000981f   Thumb Code    30  qdom.o(.text)
    QDomNamedNodeMapPrivate::length() const  0x0000983d   Thumb Code     6  qdom.o(.text)
    QDomNode::hasAttributes() const          0x00009843   Thumb Code    40  qdom.o(.text)
    QDomNode::nodeValue() const              0x0000986b   Thumb Code    22  qdom.o(.text)
    QDomNode::setNodeValue(const QString&)   0x00009881   Thumb Code    14  qdom.o(.text)
    QDomNode::prefix() const                 0x0000988f   Thumb Code    22  qdom.o(.text)
    QDomNode::isElement() const              0x000098a5   Thumb Code    16  qdom.o(.text)
    QDomNode::isAttr() const                 0x000098b5   Thumb Code    16  qdom.o(.text)
    QDomNode::setPrefix(const QString&)      0x000098c5   Thumb Code    54  qdom.o(.text)
    QDomNode::isCDATASection() const         0x000098fb   Thumb Code    16  qdom.o(.text)
    QDomNode::isDocumentFragment() const     0x0000990b   Thumb Code    16  qdom.o(.text)
    QDomNode::isDocumentType() const         0x0000991b   Thumb Code    16  qdom.o(.text)
    QDomNode::isEntityReference() const      0x0000992b   Thumb Code    16  qdom.o(.text)
    QDomNode::isText() const                 0x0000993b   Thumb Code    16  qdom.o(.text)
    QDomNode::isEntity() const               0x0000994b   Thumb Code    16  qdom.o(.text)
    QDomNode::isNotation() const             0x0000995b   Thumb Code    16  qdom.o(.text)
    QDomNode::isProcessingInstruction() const 0x0000996b   Thumb Code    16  qdom.o(.text)
    QDomNode::isCharacterData() const        0x0000997b   Thumb Code    16  qdom.o(.text)
    QDomNode::isComment() const              0x0000998b   Thumb Code    16  qdom.o(.text)
    QDomNodePrivate::namedItem(const QString&) 0x0000999b   Thumb Code    50  qdom.o(.text)
    QDomNode::namedItem(const QString&) const 0x000099cd   Thumb Code    32  qdom.o(.text)
    QDomNode::clear()                        0x000099ed   Thumb Code    38  qdom.o(.text)
    QDomAttr::QDomAttr()                     0x00009a13   Thumb Code     6  qdom.o(.text)
    QDomAttr::QDomAttr__sub_object()         0x00009a13   Thumb Code     0  qdom.o(.text)
    QDomAttr::QDomAttr(QDomAttrPrivate*)     0x00009a19   Thumb Code     8  qdom.o(.text)
    QDomAttr::QDomAttr__sub_object(QDomAttrPrivate*) 0x00009a19   Thumb Code     0  qdom.o(.text)
    QDomNode::toAttr() const                 0x00009a21   Thumb Code    40  qdom.o(.text)
    QDomCharacterData::QDomCharacterData()   0x00009a49   Thumb Code     6  qdom.o(.text)
    QDomCharacterData::QDomCharacterData__sub_object() 0x00009a49   Thumb Code     0  qdom.o(.text)
    QDomText::QDomText()                     0x00009a4f   Thumb Code     2  qdom.o(.text)
    QDomText::QDomText__sub_object()         0x00009a4f   Thumb Code     0  qdom.o(.text)
    QDomCDATASection::QDomCDATASection()     0x00009a51   Thumb Code     2  qdom.o(.text)
    QDomCDATASection::QDomCDATASection__sub_object() 0x00009a51   Thumb Code     0  qdom.o(.text)
    QDomCharacterData::QDomCharacterData(QDomCharacterDataPrivate*) 0x00009a53   Thumb Code     8  qdom.o(.text)
    QDomCharacterData::QDomCharacterData__sub_object(QDomCharacterDataPrivate*) 0x00009a53   Thumb Code     0  qdom.o(.text)
    QDomText::QDomText(QDomTextPrivate*)     0x00009a5b   Thumb Code     2  qdom.o(.text)
    QDomText::QDomText__sub_object(QDomTextPrivate*) 0x00009a5b   Thumb Code     0  qdom.o(.text)
    QDomCDATASection::QDomCDATASection(QDomCDATASectionPrivate*) 0x00009a5d   Thumb Code     2  qdom.o(.text)
    QDomCDATASection::QDomCDATASection__sub_object(QDomCDATASectionPrivate*) 0x00009a5d   Thumb Code     0  qdom.o(.text)
    QDomNode::toCDATASection() const         0x00009a5f   Thumb Code    40  qdom.o(.text)
    QDomDocumentFragment::QDomDocumentFragment() 0x00009a87   Thumb Code     6  qdom.o(.text)
    QDomDocumentFragment::QDomDocumentFragment__sub_object() 0x00009a87   Thumb Code     0  qdom.o(.text)
    QDomDocumentFragment::QDomDocumentFragment(QDomDocumentFragmentPrivate*) 0x00009a8d   Thumb Code     8  qdom.o(.text)
    QDomDocumentFragment::QDomDocumentFragment__sub_object(QDomDocumentFragmentPrivate*) 0x00009a8d   Thumb Code     0  qdom.o(.text)
    QDomNode::toDocumentFragment() const     0x00009a95   Thumb Code    40  qdom.o(.text)
    QDomNode::toDocument() const             0x00009abd   Thumb Code    40  qdom.o(.text)
    QDomNode::toDocumentType() const         0x00009ae5   Thumb Code    40  qdom.o(.text)
    QDomElement::QDomElement()               0x00009b0d   Thumb Code     6  qdom.o(.text)
    QDomElement::QDomElement__sub_object()   0x00009b0d   Thumb Code     0  qdom.o(.text)
    QDomNode::toElement() const              0x00009b13   Thumb Code    40  qdom.o(.text)
    QDomEntityReference::QDomEntityReference() 0x00009b3b   Thumb Code     6  qdom.o(.text)
    QDomEntityReference::QDomEntityReference__sub_object() 0x00009b3b   Thumb Code     0  qdom.o(.text)
    QDomEntityReference::QDomEntityReference(QDomEntityReferencePrivate*) 0x00009b41   Thumb Code     8  qdom.o(.text)
    QDomEntityReference::QDomEntityReference__sub_object(QDomEntityReferencePrivate*) 0x00009b41   Thumb Code     0  qdom.o(.text)
    QDomNode::toEntityReference() const      0x00009b49   Thumb Code    40  qdom.o(.text)
    QDomNode::toText() const                 0x00009b71   Thumb Code    40  qdom.o(.text)
    QDomEntity::QDomEntity()                 0x00009b99   Thumb Code     6  qdom.o(.text)
    QDomEntity::QDomEntity__sub_object()     0x00009b99   Thumb Code     0  qdom.o(.text)
    QDomEntity::QDomEntity(QDomEntityPrivate*) 0x00009b9f   Thumb Code     8  qdom.o(.text)
    QDomEntity::QDomEntity__sub_object(QDomEntityPrivate*) 0x00009b9f   Thumb Code     0  qdom.o(.text)
    QDomNode::toEntity() const               0x00009ba7   Thumb Code    40  qdom.o(.text)
    QDomNotation::QDomNotation()             0x00009bcf   Thumb Code     6  qdom.o(.text)
    QDomNotation::QDomNotation__sub_object() 0x00009bcf   Thumb Code     0  qdom.o(.text)
    QDomNotation::QDomNotation(QDomNotationPrivate*) 0x00009bd5   Thumb Code     8  qdom.o(.text)
    QDomNotation::QDomNotation__sub_object(QDomNotationPrivate*) 0x00009bd5   Thumb Code     0  qdom.o(.text)
    QDomNode::toNotation() const             0x00009bdd   Thumb Code    40  qdom.o(.text)
    QDomProcessingInstruction::QDomProcessingInstruction() 0x00009c05   Thumb Code     6  qdom.o(.text)
    QDomProcessingInstruction::QDomProcessingInstruction__sub_object() 0x00009c05   Thumb Code     0  qdom.o(.text)
    QDomProcessingInstruction::QDomProcessingInstruction(QDomProcessingInstructionPrivate*) 0x00009c0b   Thumb Code     8  qdom.o(.text)
    QDomProcessingInstruction::QDomProcessingInstruction__sub_object(QDomProcessingInstructionPrivate*) 0x00009c0b   Thumb Code     0  qdom.o(.text)
    QDomNode::toProcessingInstruction() const 0x00009c13   Thumb Code    40  qdom.o(.text)
    QDomNode::toCharacterData() const        0x00009c3b   Thumb Code    40  qdom.o(.text)
    QDomComment::QDomComment()               0x00009c63   Thumb Code     2  qdom.o(.text)
    QDomComment::QDomComment__sub_object()   0x00009c63   Thumb Code     0  qdom.o(.text)
    QDomComment::QDomComment(QDomCommentPrivate*) 0x00009c65   Thumb Code     2  qdom.o(.text)
    QDomComment::QDomComment__sub_object(QDomCommentPrivate*) 0x00009c65   Thumb Code     0  qdom.o(.text)
    QDomNode::toComment() const              0x00009c67   Thumb Code    40  qdom.o(.text)
    QDomElement::QDomElement(const QDomElement&) 0x00009c8f   Thumb Code     8  qdom.o(.text)
    QDomElement::QDomElement__sub_object(const QDomElement&) 0x00009c8f   Thumb Code     0  qdom.o(.text)
    QDomElement::tagName() const             0x00009c97   Thumb Code    20  qdom.o(.text)
    QDomNode::firstChildElement(const QString&) const 0x00009cab   Thumb Code   164  qdom.o(.text)
    QDomNode::lastChildElement(const QString&) const 0x00009d4f   Thumb Code   162  qdom.o(.text)
    QDomNode::previousSiblingElement(const QString&) const 0x00009df1   Thumb Code   162  qdom.o(.text)
    QDomNode::nextSiblingElement(const QString&) const 0x00009e93   Thumb Code   162  qdom.o(.text)
    QDomNode::lineNumber() const             0x00009f35   Thumb Code    16  qdom.o(.text)
    QDomNode::columnNumber() const           0x00009f45   Thumb Code    16  qdom.o(.text)
    QDomNodeList::QDomNodeList(const QDomNodeList&) 0x00009f55   Thumb Code    20  qdom.o(.text)
    QDomNodeList::QDomNodeList__sub_object(const QDomNodeList&) 0x00009f55   Thumb Code     0  qdom.o(.text)
    QDomNodeListPrivate::~QDomNodeListPrivate() 0x00009f69   Thumb Code    64  qdom.o(.text)
    QDomNodeListPrivate::~QDomNodeListPrivate__sub_object() 0x00009f69   Thumb Code     0  qdom.o(.text)
    QDomNodeList::operator =(const QDomNodeList&) 0x00009fa9   Thumb Code    52  qdom.o(.text)
    QDomNodeListPrivate::operator ==(const QDomNodeListPrivate&) const 0x00009fdd   Thumb Code    30  qdom.o(.text)
    QDomNodeList::operator ==(const QDomNodeList&) const 0x00009ffb   Thumb Code    26  qdom.o(.text)
    QDomNodeList::operator !=(const QDomNodeList&) const 0x0000a015   Thumb Code    12  qdom.o(.text)
    QDomNodeList::~QDomNodeList()            0x0000a021   Thumb Code    36  qdom.o(.text)
    QDomNodeList::~QDomNodeList__sub_object() 0x0000a021   Thumb Code     0  qdom.o(.text)
    QDomNodeListPrivate::createList()        0x0000a045   Thumb Code   414  qdom.o(.text)
    QDomNodeListPrivate::item(int)           0x0000a1e3   Thumb Code    64  qdom.o(.text)
    QDomNodeList::item(int) const            0x0000a223   Thumb Code    32  qdom.o(.text)
    QDomNodeListPrivate::length() const      0x0000a243   Thumb Code    44  qdom.o(.text)
    QDomNodeList::length() const             0x0000a26f   Thumb Code    10  qdom.o(.text)
    QDomDocumentType::QDomDocumentType(const QDomDocumentType&) 0x0000a279   Thumb Code     8  qdom.o(.text)
    QDomDocumentType::QDomDocumentType__sub_object(const QDomDocumentType&) 0x0000a279   Thumb Code     0  qdom.o(.text)
    QDomDocumentType::operator =(const QDomDocumentType&) 0x0000a281   Thumb Code     8  qdom.o(.text)
    QDomDocumentType::name() const           0x0000a289   Thumb Code    20  qdom.o(.text)
    QDomDocumentType::entities() const       0x0000a29d   Thumb Code    20  qdom.o(.text)
    QDomDocumentType::notations() const      0x0000a2b1   Thumb Code    20  qdom.o(.text)
    QDomDocumentType::publicId() const       0x0000a2c5   Thumb Code    22  qdom.o(.text)
    QDomDocumentType::systemId() const       0x0000a2db   Thumb Code    22  qdom.o(.text)
    QDomDocumentType::internalSubset() const 0x0000a2f1   Thumb Code    22  qdom.o(.text)
    QDomDocumentPrivate::QDomDocumentPrivate(const QString&) 0x0000a307   Thumb Code   118  qdom.o(.text)
    QDomDocumentPrivate::QDomDocumentPrivate__sub_object(const QString&) 0x0000a307   Thumb Code     0  qdom.o(.text)
    QDomDocument::QDomDocument(const QString&) 0x0000a37d   Thumb Code    30  qdom.o(.text)
    QDomDocument::QDomDocument__sub_object(const QString&) 0x0000a37d   Thumb Code     0  qdom.o(.text)
    QDomDocument::operator =(const QDomDocument&) 0x0000a39b   Thumb Code     8  qdom.o(.text)
    QDomElementPrivate::QDomElementPrivate(QDomDocumentPrivate*, QDomNodePrivate*, const QString&) 0x0000a3a3   Thumb Code    44  qdom.o(.text)
    QDomElementPrivate::QDomElementPrivate__sub_object(QDomDocumentPrivate*, QDomNodePrivate*, const QString&) 0x0000a3a3   Thumb Code     0  qdom.o(.text)
    QDomDocumentPrivate::createElement(const QString&) 0x0000a3cf   Thumb Code    68  qdom.o(.text)
    QDomDocument::createElement(const QString&) 0x0000a413   Thumb Code    46  qdom.o(.text)
    QDomDocumentFragmentPrivate::QDomDocumentFragmentPrivate(QDomDocumentPrivate*, QDomNodePrivate*) 0x0000a441   Thumb Code    30  qdom.o(.text)
    QDomDocumentFragmentPrivate::QDomDocumentFragmentPrivate__sub_object(QDomDocumentPrivate*, QDomNodePrivate*) 0x0000a441   Thumb Code     0  qdom.o(.text)
    QDomDocumentPrivate::createDocumentFragment() 0x0000a45f   Thumb Code    32  qdom.o(.text)
    QDomDocument::createDocumentFragment()   0x0000a47f   Thumb Code    42  qdom.o(.text)
    QDomCharacterDataPrivate::QDomCharacterDataPrivate(QDomDocumentPrivate*, QDomNodePrivate*, const QString&) 0x0000a4a9   Thumb Code    42  qdom.o(.text)
    QDomCharacterDataPrivate::QDomCharacterDataPrivate__sub_object(QDomDocumentPrivate*, QDomNodePrivate*, const QString&) 0x0000a4a9   Thumb Code     0  qdom.o(.text)
    QDomTextPrivate::QDomTextPrivate(QDomDocumentPrivate*, QDomNodePrivate*, const QString&) 0x0000a4d3   Thumb Code    30  qdom.o(.text)
    QDomTextPrivate::QDomTextPrivate__sub_object(QDomDocumentPrivate*, QDomNodePrivate*, const QString&) 0x0000a4d3   Thumb Code     0  qdom.o(.text)
    QDomDocumentPrivate::createTextNode(const QString&) 0x0000a4f1   Thumb Code    66  qdom.o(.text)
    QDomDocument::createTextNode(const QString&) 0x0000a533   Thumb Code    46  qdom.o(.text)
    QDomCommentPrivate::QDomCommentPrivate(QDomDocumentPrivate*, QDomNodePrivate*, const QString&) 0x0000a561   Thumb Code    30  qdom.o(.text)
    QDomCommentPrivate::QDomCommentPrivate__sub_object(QDomDocumentPrivate*, QDomNodePrivate*, const QString&) 0x0000a561   Thumb Code     0  qdom.o(.text)
    QDomDocumentPrivate::createComment(const QString&) 0x0000a57f   Thumb Code    66  qdom.o(.text)
    QDomDocument::createComment(const QString&) 0x0000a5c1   Thumb Code    46  qdom.o(.text)
    QDomCDATASectionPrivate::QDomCDATASectionPrivate(QDomDocumentPrivate*, QDomNodePrivate*, const QString&) 0x0000a5ef   Thumb Code    30  qdom.o(.text)
    QDomCDATASectionPrivate::QDomCDATASectionPrivate__sub_object(QDomDocumentPrivate*, QDomNodePrivate*, const QString&) 0x0000a5ef   Thumb Code     0  qdom.o(.text)
    QDomDocumentPrivate::createCDATASection(const QString&) 0x0000a60d   Thumb Code    66  qdom.o(.text)
    QDomDocument::createCDATASection(const QString&) 0x0000a64f   Thumb Code    46  qdom.o(.text)
    QDomProcessingInstructionPrivate::QDomProcessingInstructionPrivate(QDomDocumentPrivate*, QDomNodePrivate*, const QString&, const QString&) 0x0000a67d   Thumb Code    40  qdom.o(.text)
    QDomProcessingInstructionPrivate::QDomProcessingInstructionPrivate__sub_object(QDomDocumentPrivate*, QDomNodePrivate*, const QString&, const QString&) 0x0000a67d   Thumb Code     0  qdom.o(.text)
    QDomDocumentPrivate::createProcessingInstruction(const QString&, const QString&) 0x0000a6a5   Thumb Code   222  qdom.o(.text)
    QDomDocument::createProcessingInstruction(const QString&, const QString&) 0x0000a783   Thumb Code    50  qdom.o(.text)
    QDomAttrPrivate::QDomAttrPrivate(QDomDocumentPrivate*, QDomNodePrivate*, const QString&) 0x0000a7b5   Thumb Code    34  qdom.o(.text)
    QDomAttrPrivate::QDomAttrPrivate__sub_object(QDomDocumentPrivate*, QDomNodePrivate*, const QString&) 0x0000a7b5   Thumb Code     0  qdom.o(.text)
    QDomDocumentPrivate::createAttribute(const QString&) 0x0000a7d7   Thumb Code    68  qdom.o(.text)
    QDomDocument::createAttribute(const QString&) 0x0000a81b   Thumb Code    46  qdom.o(.text)
    QDomEntityReferencePrivate::QDomEntityReferencePrivate(QDomDocumentPrivate*, QDomNodePrivate*, const QString&) 0x0000a849   Thumb Code    28  qdom.o(.text)
    QDomEntityReferencePrivate::QDomEntityReferencePrivate__sub_object(QDomDocumentPrivate*, QDomNodePrivate*, const QString&) 0x0000a849   Thumb Code     0  qdom.o(.text)
    QDomDocumentPrivate::createEntityReference(const QString&) 0x0000a865   Thumb Code    68  qdom.o(.text)
    QDomDocument::createEntityReference(const QString&) 0x0000a8a9   Thumb Code    46  qdom.o(.text)
    QDomNodeListPrivate::QDomNodeListPrivate(QDomNodePrivate*, const QString&) 0x0000a8d7   Thumb Code    76  qdom.o(.text)
    QDomNodeListPrivate::QDomNodeListPrivate__sub_object(QDomNodePrivate*, const QString&) 0x0000a8d7   Thumb Code     0  qdom.o(.text)
    QDomDocument::elementsByTagName(const QString&) const 0x0000a923   Thumb Code    28  qdom.o(.text)
    QDomNodePrivate::appendChild(QDomNodePrivate*) 0x0000a93f   Thumb Code     8  qdom.o(.text)
    QDomNodePrivate::QDomNodePrivate(QDomNodePrivate*, bool) 0x0000a947   Thumb Code   198  qdom.o(.text)
    QDomNodePrivate::QDomNodePrivate__sub_object(QDomNodePrivate*, bool) 0x0000a947   Thumb Code     0  qdom.o(.text)
    QDomCharacterDataPrivate::QDomCharacterDataPrivate(QDomCharacterDataPrivate*, bool) 0x0000aa0d   Thumb Code    12  qdom.o(.text)
    QDomCharacterDataPrivate::QDomCharacterDataPrivate__sub_object(QDomCharacterDataPrivate*, bool) 0x0000aa0d   Thumb Code     0  qdom.o(.text)
    QDomCommentPrivate::QDomCommentPrivate(QDomCommentPrivate*, bool) 0x0000aa19   Thumb Code    12  qdom.o(.text)
    QDomCommentPrivate::QDomCommentPrivate__sub_object(QDomCommentPrivate*, bool) 0x0000aa19   Thumb Code     0  qdom.o(.text)
    QDomTextPrivate::QDomTextPrivate(QDomTextPrivate*, bool) 0x0000aa25   Thumb Code    12  qdom.o(.text)
    QDomTextPrivate::QDomTextPrivate__sub_object(QDomTextPrivate*, bool) 0x0000aa25   Thumb Code     0  qdom.o(.text)
    QDomCDATASectionPrivate::QDomCDATASectionPrivate(QDomCDATASectionPrivate*, bool) 0x0000aa31   Thumb Code    12  qdom.o(.text)
    QDomCDATASectionPrivate::QDomCDATASectionPrivate__sub_object(QDomCDATASectionPrivate*, bool) 0x0000aa31   Thumb Code     0  qdom.o(.text)
    QDomProcessingInstructionPrivate::QDomProcessingInstructionPrivate(QDomProcessingInstructionPrivate*, bool) 0x0000aa3d   Thumb Code    12  qdom.o(.text)
    QDomProcessingInstructionPrivate::QDomProcessingInstructionPrivate__sub_object(QDomProcessingInstructionPrivate*, bool) 0x0000aa3d   Thumb Code     0  qdom.o(.text)
    QDomNotationPrivate::QDomNotationPrivate(QDomNotationPrivate*, bool) 0x0000aa49   Thumb Code    66  qdom.o(.text)
    QDomNotationPrivate::QDomNotationPrivate__sub_object(QDomNotationPrivate*, bool) 0x0000aa49   Thumb Code     0  qdom.o(.text)
    QDomEntityReferencePrivate::QDomEntityReferencePrivate(QDomNodePrivate*, bool) 0x0000aa8b   Thumb Code    12  qdom.o(.text)
    QDomEntityReferencePrivate::QDomEntityReferencePrivate__sub_object(QDomNodePrivate*, bool) 0x0000aa8b   Thumb Code     0  qdom.o(.text)
    QDomEntityPrivate::QDomEntityPrivate(QDomEntityPrivate*, bool) 0x0000aa97   Thumb Code    90  qdom.o(.text)
    QDomEntityPrivate::QDomEntityPrivate__sub_object(QDomEntityPrivate*, bool) 0x0000aa97   Thumb Code     0  qdom.o(.text)
    QDomNamedNodeMapPrivate::setNamedItem(QDomNodePrivate*) 0x0000aaf1   Thumb Code    96  qdom.o(.text)
    QDomNamedNodeMapPrivate::clone(QDomNodePrivate*) 0x0000ab51   Thumb Code   158  qdom.o(.text)
    QDomElementPrivate::QDomElementPrivate(QDomElementPrivate*, bool) 0x0000abef   Thumb Code    32  qdom.o(.text)
    QDomElementPrivate::QDomElementPrivate__sub_object(QDomElementPrivate*, bool) 0x0000abef   Thumb Code     0  qdom.o(.text)
    QDomDocumentFragmentPrivate::QDomDocumentFragmentPrivate(QDomNodePrivate*, bool) 0x0000ac0f   Thumb Code    12  qdom.o(.text)
    QDomDocumentFragmentPrivate::QDomDocumentFragmentPrivate__sub_object(QDomNodePrivate*, bool) 0x0000ac0f   Thumb Code     0  qdom.o(.text)
    QDomAttrPrivate::specified() const       0x0000ac1b   Thumb Code     6  qdom.o(.text)
    QDomAttrPrivate::QDomAttrPrivate(QDomAttrPrivate*, bool) 0x0000ac21   Thumb Code    22  qdom.o(.text)
    QDomAttrPrivate::QDomAttrPrivate__sub_object(QDomAttrPrivate*, bool) 0x0000ac21   Thumb Code     0  qdom.o(.text)
    QDomDocumentPrivate::importNode(const QDomNodePrivate*, bool) 0x0000ac37   Thumb Code   248  qdom.o(.text)
    QDomDocument::importNode(const QDomNode&, bool) 0x0000ad2f   Thumb Code    50  qdom.o(.text)
    QDomAttrPrivate::QDomAttrPrivate(QDomDocumentPrivate*, QDomNodePrivate*, const QString&, const QString&) 0x0000ad61   Thumb Code    70  qdom.o(.text)
    QDomAttrPrivate::QDomAttrPrivate__sub_object(QDomDocumentPrivate*, QDomNodePrivate*, const QString&, const QString&) 0x0000ad61   Thumb Code     0  qdom.o(.text)
    QDomDocumentPrivate::createAttributeNS(const QString&, const QString&) 0x0000ada7   Thumb Code    76  qdom.o(.text)
    QDomDocument::createAttributeNS(const QString&, const QString&) 0x0000adf3   Thumb Code    50  qdom.o(.text)
    QDomNodeListPrivate::QDomNodeListPrivate(QDomNodePrivate*, const QString&, const QString&) 0x0000ae25   Thumb Code    90  qdom.o(.text)
    QDomNodeListPrivate::QDomNodeListPrivate__sub_object(QDomNodePrivate*, const QString&, const QString&) 0x0000ae25   Thumb Code     0  qdom.o(.text)
    QDomDocument::elementsByTagNameNS(const QString&, const QString&) 0x0000ae7f   Thumb Code    32  qdom.o(.text)
    QDomDocument::elementById(const QString&) 0x0000ae9f   Thumb Code    18  qdom.o(.text)
    QDomDocument::doctype() const            0x0000aeb1   Thumb Code    22  qdom.o(.text)
    QDomDocument::implementation() const     0x0000aec7   Thumb Code    20  qdom.o(.text)
    QDomDocumentPrivate::documentElement()   0x0000aedb   Thumb Code    28  qdom.o(.text)
    QDomDocument::documentElement() const    0x0000aef7   Thumb Code    32  qdom.o(.text)
    QDomHandler::~QDomHandler()              0x0000af17   Thumb Code    56  qdom.o(.text)
    QDomHandler::~QDomHandler__sub_object()  0x0000af17   Thumb Code     0  qdom.o(.text)
    QDomHandler::QDomHandler(QDomDocumentPrivate*, bool) 0x0000af4f   Thumb Code   102  qdom.o(.text)
    QDomHandler::QDomHandler__sub_object(QDomDocumentPrivate*, bool) 0x0000af4f   Thumb Code     0  qdom.o(.text)
    QDomDocumentPrivate::setContent(QXmlInputSource*, QXmlReader*, QString*, int*, int*) 0x0000afb5   Thumb Code   330  qdom.o(.text)
    QDomDocumentPrivate::setContent(QXmlInputSource*, bool, QString*, int*, int*) 0x0000b0ff   Thumb Code    56  qdom.o(.text)
    QDomDocument::setContent(const QByteArray&, bool, QString*, int*, int*) 0x0000b137   Thumb Code    92  qdom.o(.text)
    QDomDocument::setContent(const QString&, bool, QString*, int*, int*) 0x0000b193   Thumb Code    74  qdom.o(.text)
    QDomDocument::setContent(QIODevice*, bool, QString*, int*, int*) 0x0000b1dd   Thumb Code    68  qdom.o(.text)
    QDomDocument::setContent(QXmlInputSource*, bool, QString*, int*, int*) 0x0000b221   Thumb Code    74  qdom.o(.text)
    QDomDocument::setContent(const QByteArray&, QString*, int*, int*) 0x0000b26b   Thumb Code    20  qdom.o(.text)
    QDomDocument::setContent(const QString&, QString*, int*, int*) 0x0000b27f   Thumb Code    20  qdom.o(.text)
    QDomDocument::setContent(QIODevice*, QString*, int*, int*) 0x0000b293   Thumb Code    20  qdom.o(.text)
    QDomDocument::setContent(QXmlInputSource*, QXmlReader*, QString*, int*, int*) 0x0000b2a7   Thumb Code    52  qdom.o(.text)
    QDomDocument::toString(int) const        0x0000b2db   Thumb Code    44  qdom.o(.text)
    QDomDocument::toByteArray(int) const     0x0000b307   Thumb Code    26  qdom.o(.text)
    QDomNamedNodeMap::QDomNamedNodeMap(const QDomNamedNodeMap&) 0x0000b321   Thumb Code    20  qdom.o(.text)
    QDomNamedNodeMap::QDomNamedNodeMap__sub_object(const QDomNamedNodeMap&) 0x0000b321   Thumb Code     0  qdom.o(.text)
    QDomNamedNodeMap::operator =(const QDomNamedNodeMap&) 0x0000b335   Thumb Code    52  qdom.o(.text)
    QDomNamedNodeMap::operator ==(const QDomNamedNodeMap&) const 0x0000b369   Thumb Code    16  qdom.o(.text)
    QDomNamedNodeMap::operator !=(const QDomNamedNodeMap&) const 0x0000b379   Thumb Code    16  qdom.o(.text)
    QDomNamedNodeMap::~QDomNamedNodeMap()    0x0000b389   Thumb Code    36  qdom.o(.text)
    QDomNamedNodeMap::~QDomNamedNodeMap__sub_object() 0x0000b389   Thumb Code     0  qdom.o(.text)
    QDomNamedNodeMapPrivate::namedItem(const QString&) const 0x0000b3ad   Thumb Code    10  qdom.o(.text)
    QDomNamedNodeMap::namedItem(const QString&) const 0x0000b3b7   Thumb Code    42  qdom.o(.text)
    QDomNamedNodeMap::setNamedItem(const QDomNode&) 0x0000b3e1   Thumb Code    30  qdom.o(.text)
    QDomNamedNodeMapPrivate::removeNamedItem(const QString&) 0x0000b3ff   Thumb Code    74  qdom.o(.text)
    QDomNamedNodeMap::removeNamedItem(const QString&) 0x0000b449   Thumb Code    32  qdom.o(.text)
    QDomNamedNodeMapPrivate::item(int) const 0x0000b469   Thumb Code    64  qdom.o(.text)
    QDomNamedNodeMap::item(int) const        0x0000b4a9   Thumb Code    32  qdom.o(.text)
    QDomNamedNodeMapPrivate::namedItemNS(const QString&, const QString&) const 0x0000b4c9   Thumb Code    90  qdom.o(.text)
    QDomNamedNodeMap::namedItemNS(const QString&, const QString&) const 0x0000b523   Thumb Code    34  qdom.o(.text)
    QDomNamedNodeMapPrivate::setNamedItemNS(QDomNodePrivate*) 0x0000b545   Thumb Code   112  qdom.o(.text)
    QDomNamedNodeMap::setNamedItemNS(const QDomNode&) 0x0000b5b5   Thumb Code    30  qdom.o(.text)
    QDomNamedNodeMap::removeNamedItemNS(const QString&, const QString&) 0x0000b5d3   Thumb Code    52  qdom.o(.text)
    QDomNamedNodeMap::length() const         0x0000b607   Thumb Code    14  qdom.o(.text)
    QDomNamedNodeMapPrivate::contains(const QString&) const 0x0000b615   Thumb Code    20  qdom.o(.text)
    QDomNamedNodeMap::contains(const QString&) const 0x0000b629   Thumb Code    10  qdom.o(.text)
    QDomDocumentFragment::QDomDocumentFragment(const QDomDocumentFragment&) 0x0000b633   Thumb Code     8  qdom.o(.text)
    QDomDocumentFragment::QDomDocumentFragment__sub_object(const QDomDocumentFragment&) 0x0000b633   Thumb Code     0  qdom.o(.text)
    QDomDocumentFragment::operator =(const QDomDocumentFragment&) 0x0000b63b   Thumb Code     8  qdom.o(.text)
    QDomCharacterData::QDomCharacterData(const QDomCharacterData&) 0x0000b643   Thumb Code     8  qdom.o(.text)
    QDomCharacterData::QDomCharacterData__sub_object(const QDomCharacterData&) 0x0000b643   Thumb Code     0  qdom.o(.text)
    QDomCharacterData::operator =(const QDomCharacterData&) 0x0000b64b   Thumb Code     8  qdom.o(.text)
    QDomCharacterDataPrivate::substringData(unsigned long, unsigned long) const 0x0000b653   Thumb Code    10  qdom.o(.text)
    QDomCharacterData::substringData(unsigned long, unsigned long) 0x0000b65d   Thumb Code    20  qdom.o(.text)
    QDomCharacterData::appendData(const QString&) 0x0000b671   Thumb Code    14  qdom.o(.text)
    QDomCharacterDataPrivate::insertData(unsigned long, const QString&) 0x0000b67f   Thumb Code    16  qdom.o(.text)
    QDomCharacterData::insertData(unsigned long, const QString&) 0x0000b68f   Thumb Code    10  qdom.o(.text)
    QDomCharacterDataPrivate::deleteData(unsigned long, unsigned long) 0x0000b699   Thumb Code    10  qdom.o(.text)
    QDomCharacterData::deleteData(unsigned long, unsigned long) 0x0000b6a3   Thumb Code    10  qdom.o(.text)
    QDomCharacterDataPrivate::replaceData(unsigned long, unsigned long, const QString&) 0x0000b6ad   Thumb Code    10  qdom.o(.text)
    QDomCharacterData::replaceData(unsigned long, unsigned long, const QString&) 0x0000b6b7   Thumb Code    10  qdom.o(.text)
    QDomCharacterDataPrivate::dataLength() const 0x0000b6c1   Thumb Code     6  qdom.o(.text)
    QDomCharacterData::length() const        0x0000b6c7   Thumb Code    16  qdom.o(.text)
    QDomCharacterData::data() const          0x0000b6d7   Thumb Code    20  qdom.o(.text)
    QDomCharacterData::setData(const QString&) 0x0000b6eb   Thumb Code    14  qdom.o(.text)
    QDomCharacterData::nodeType() const      0x0000b6f9   Thumb Code    18  qdom.o(.text)
    QDomAttr::QDomAttr(const QDomAttr&)      0x0000b70b   Thumb Code     8  qdom.o(.text)
    QDomAttr::QDomAttr__sub_object(const QDomAttr&) 0x0000b70b   Thumb Code     0  qdom.o(.text)
    QDomAttr::operator =(const QDomAttr&)    0x0000b713   Thumb Code     8  qdom.o(.text)
    QDomAttr::name() const                   0x0000b71b   Thumb Code    20  qdom.o(.text)
    QDomAttr::specified() const              0x0000b72f   Thumb Code    14  qdom.o(.text)
    QDomAttr::ownerElement() const           0x0000b73d   Thumb Code    46  qdom.o(.text)
    QDomAttr::value() const                  0x0000b76b   Thumb Code    20  qdom.o(.text)
    QDomAttr::setValue(const QString&)       0x0000b77f   Thumb Code    26  qdom.o(.text)
    QDomElement::operator =(const QDomElement&) 0x0000b799   Thumb Code     8  qdom.o(.text)
    QDomElementPrivate::attribute(const QString&, const QString&) const 0x0000b7a1   Thumb Code    38  qdom.o(.text)
    QDomElement::attribute(const QString&, const QString&) const 0x0000b7c7   Thumb Code    22  qdom.o(.text)
    QDomElementPrivate::setAttribute(const QString&, const QString&) 0x0000b7dd   Thumb Code    82  qdom.o(.text)
    QDomElement::setAttribute(const QString&, const QString&) 0x0000b82f   Thumb Code    10  qdom.o(.text)
    QDomElement::setAttribute(const QString&, long long) 0x0000b839   Thumb Code    54  qdom.o(.text)
    QDomElement::setAttribute(const QString&, unsigned long long) 0x0000b86f   Thumb Code    54  qdom.o(.text)
    QDomElement::setAttribute(const QString&, float) 0x0000b8a5   Thumb Code    62  qdom.o(.text)
    QDomElement::setAttribute(const QString&, double) 0x0000b8e3   Thumb Code   108  qdom.o(.text)
    QDomElementPrivate::removeAttribute(const QString&) 0x0000b94f   Thumb Code    34  qdom.o(.text)
    QDomElement::removeAttribute(const QString&) 0x0000b971   Thumb Code    10  qdom.o(.text)
    QDomElementPrivate::attributeNode(const QString&) 0x0000b97b   Thumb Code    10  qdom.o(.text)
    QDomElement::attributeNode(const QString&) 0x0000b985   Thumb Code    36  qdom.o(.text)
    QDomElementPrivate::setAttributeNode(QDomAttrPrivate*) 0x0000b9a9   Thumb Code    48  qdom.o(.text)
    QDomElement::setAttributeNode(const QDomAttr&) 0x0000b9d9   Thumb Code    34  qdom.o(.text)
    QDomElementPrivate::removeAttributeNode(QDomAttrPrivate*) 0x0000b9fb   Thumb Code    30  qdom.o(.text)
    QDomElement::removeAttributeNode(const QDomAttr&) 0x0000ba19   Thumb Code    34  qdom.o(.text)
    QDomElement::elementsByTagName(const QString&) const 0x0000ba3b   Thumb Code    28  qdom.o(.text)
    QDomElementPrivate::hasAttribute(const QString&) 0x0000ba57   Thumb Code    10  qdom.o(.text)
    QDomElement::hasAttribute(const QString&) const 0x0000ba61   Thumb Code    10  qdom.o(.text)
    QDomElementPrivate::attributeNS(const QString&, const QString&, const QString&) const 0x0000ba6b   Thumb Code    42  qdom.o(.text)
    QDomElement::attributeNS(QString, const QString&, const QString&) const 0x0000ba95   Thumb Code    30  qdom.o(.text)
    QDomElementPrivate::setAttributeNS(const QString&, const QString&, const QString&) 0x0000bab3   Thumb Code   142  qdom.o(.text)
    QDomElement::setAttributeNS(QString, const QString&, const QString&) 0x0000bb41   Thumb Code    10  qdom.o(.text)
    QDomElement::setAttributeNS(QString, const QString&, long long) 0x0000bb4b   Thumb Code    58  qdom.o(.text)
    QDomElement::setAttributeNS(QString, const QString&, unsigned long long) 0x0000bb85   Thumb Code    58  qdom.o(.text)
    QDomElement::setAttributeNS(QString, const QString&, double) 0x0000bbbf   Thumb Code    62  qdom.o(.text)
    QDomElementPrivate::attributeNodeNS(const QString&, const QString&) 0x0000bbfd   Thumb Code    10  qdom.o(.text)
    QDomElement::removeAttributeNS(const QString&, const QString&) 0x0000bc07   Thumb Code    42  qdom.o(.text)
    QDomElement::attributeNodeNS(const QString&, const QString&) 0x0000bc31   Thumb Code    38  qdom.o(.text)
    QDomElementPrivate::setAttributeNodeNS(QDomAttrPrivate*) 0x0000bc57   Thumb Code    48  qdom.o(.text)
    QDomElement::setAttributeNodeNS(const QDomAttr&) 0x0000bc87   Thumb Code    42  qdom.o(.text)
    QDomElement::elementsByTagNameNS(const QString&, const QString&) const 0x0000bcb1   Thumb Code    32  qdom.o(.text)
    QDomNamedNodeMapPrivate::containsNS(const QString&, const QString&) const 0x0000bcd1   Thumb Code    18  qdom.o(.text)
    QDomElementPrivate::hasAttributeNS(const QString&, const QString&) 0x0000bce3   Thumb Code     4  qdom.o(.text)
    QDomElement::hasAttributeNS(const QString&, const QString&) const 0x0000bce7   Thumb Code    10  qdom.o(.text)
    QDomElement::setTagName(const QString&)  0x0000bcf1   Thumb Code    16  qdom.o(.text)
    QDomElement::attributes() const          0x0000bd01   Thumb Code    20  qdom.o(.text)
    QDomElementPrivate::text()               0x0000bd15   Thumb Code   104  qdom.o(.text)
    QDomElement::text() const                0x0000bd7d   Thumb Code    20  qdom.o(.text)
    QDomText::QDomText(const QDomText&)      0x0000bd91   Thumb Code     8  qdom.o(.text)
    QDomText::QDomText__sub_object(const QDomText&) 0x0000bd91   Thumb Code     0  qdom.o(.text)
    QDomText::operator =(const QDomText&)    0x0000bd99   Thumb Code     8  qdom.o(.text)
    QDomTextPrivate::splitText(int)          0x0000bda1   Thumb Code   106  qdom.o(.text)
    QDomText::splitText(int)                 0x0000be0b   Thumb Code    36  qdom.o(.text)
    QDomComment::QDomComment(const QDomComment&) 0x0000be2f   Thumb Code     8  qdom.o(.text)
    QDomComment::QDomComment__sub_object(const QDomComment&) 0x0000be2f   Thumb Code     0  qdom.o(.text)
    QDomComment::operator =(const QDomComment&) 0x0000be37   Thumb Code     8  qdom.o(.text)
    QDomCDATASection::QDomCDATASection(const QDomCDATASection&) 0x0000be3f   Thumb Code     2  qdom.o(.text)
    QDomCDATASection::QDomCDATASection__sub_object(const QDomCDATASection&) 0x0000be3f   Thumb Code     0  qdom.o(.text)
    QDomCDATASection::operator =(const QDomCDATASection&) 0x0000be41   Thumb Code     8  qdom.o(.text)
    QDomNotation::QDomNotation(const QDomNotation&) 0x0000be49   Thumb Code     8  qdom.o(.text)
    QDomNotation::QDomNotation__sub_object(const QDomNotation&) 0x0000be49   Thumb Code     0  qdom.o(.text)
    QDomNotation::operator =(const QDomNotation&) 0x0000be51   Thumb Code     8  qdom.o(.text)
    QDomNotation::publicId() const           0x0000be59   Thumb Code    22  qdom.o(.text)
    QDomNotation::systemId() const           0x0000be6f   Thumb Code    22  qdom.o(.text)
    QDomEntity::QDomEntity(const QDomEntity&) 0x0000be85   Thumb Code     8  qdom.o(.text)
    QDomEntity::QDomEntity__sub_object(const QDomEntity&) 0x0000be85   Thumb Code     0  qdom.o(.text)
    QDomEntity::operator =(const QDomEntity&) 0x0000be8d   Thumb Code     8  qdom.o(.text)
    QDomEntity::publicId() const             0x0000be95   Thumb Code    22  qdom.o(.text)
    QDomEntity::systemId() const             0x0000beab   Thumb Code    22  qdom.o(.text)
    QDomEntity::notationName() const         0x0000bec1   Thumb Code    22  qdom.o(.text)
    QDomEntityReference::QDomEntityReference(const QDomEntityReference&) 0x0000bed7   Thumb Code     8  qdom.o(.text)
    QDomEntityReference::QDomEntityReference__sub_object(const QDomEntityReference&) 0x0000bed7   Thumb Code     0  qdom.o(.text)
    QDomEntityReference::operator =(const QDomEntityReference&) 0x0000bedf   Thumb Code     8  qdom.o(.text)
    QDomProcessingInstruction::QDomProcessingInstruction(const QDomProcessingInstruction&) 0x0000bee7   Thumb Code     8  qdom.o(.text)
    QDomProcessingInstruction::QDomProcessingInstruction__sub_object(const QDomProcessingInstruction&) 0x0000bee7   Thumb Code     0  qdom.o(.text)
    QDomProcessingInstruction::operator =(const QDomProcessingInstruction&) 0x0000beef   Thumb Code     8  qdom.o(.text)
    QDomProcessingInstruction::target() const 0x0000bef7   Thumb Code    20  qdom.o(.text)
    QDomProcessingInstruction::data() const  0x0000bf0b   Thumb Code    20  qdom.o(.text)
    QDomProcessingInstruction::setData(const QString&) 0x0000bf1f   Thumb Code    14  qdom.o(.text)
    QDomImplementationPrivate::clone()       0x0000bf2d   Thumb Code    14  qdom.o(.text)
    QDomNodePrivate::~QDomNodePrivate__deallocating() 0x0000bf3b   Thumb Code    16  qdom.o(.text)
    QDomNodePrivate::insertBefore(QDomNodePrivate*, QDomNodePrivate*) 0x0000bf4b   Thumb Code   244  qdom.o(.text)
    QDomNodePrivate::insertAfter(QDomNodePrivate*, QDomNodePrivate*) 0x0000c03f   Thumb Code   316  qdom.o(.text)
    QDomNodePrivate::replaceChild(QDomNodePrivate*, QDomNodePrivate*) 0x0000c17b   Thumb Code   260  qdom.o(.text)
    QDomNodePrivate::removeChild(QDomNodePrivate*) 0x0000c27f   Thumb Code   112  qdom.o(.text)
    QDomNodePrivate::cloneNode(bool)         0x0000c2ef   Thumb Code    34  qdom.o(.text)
    QDomNodePrivate::normalize()             0x0000c311   Thumb Code    80  qdom.o(.text)
    QDomNodePrivate::clear()                 0x0000c361   Thumb Code    46  qdom.o(.text)
    QDomNodePrivate::save(QTextStream&, int, int) const 0x0000c38f   Thumb Code    36  qdom.o(.text)
    QDomNodePrivate::setLocation(int, int)   0x0000c3b3   Thumb Code     6  qdom.o(.text)
    QDomNodeListPrivate::operator !=(const QDomNodeListPrivate&) const 0x0000c3b9   Thumb Code    30  qdom.o(.text)
    QDomDocumentTypePrivate::QDomDocumentTypePrivate(QDomDocumentTypePrivate*, bool) 0x0000c3d7   Thumb Code   146  qdom.o(.text)
    QDomDocumentTypePrivate::QDomDocumentTypePrivate__sub_object(QDomDocumentTypePrivate*, bool) 0x0000c3d7   Thumb Code     0  qdom.o(.text)
    QDomDocumentTypePrivate::~QDomDocumentTypePrivate() 0x0000c469   Thumb Code    98  qdom.o(.text)
    QDomDocumentTypePrivate::~QDomDocumentTypePrivate__sub_object() 0x0000c469   Thumb Code     0  qdom.o(.text)
    QDomDocumentTypePrivate::~QDomDocumentTypePrivate__deallocating() 0x0000c4cb   Thumb Code    16  qdom.o(.text)
    QDomDocumentTypePrivate::cloneNode(bool) 0x0000c4db   Thumb Code    34  qdom.o(.text)
    QDomDocumentTypePrivate::insertBefore(QDomNodePrivate*, QDomNodePrivate*) 0x0000c4fd   Thumb Code    92  qdom.o(.text)
    QDomDocumentTypePrivate::insertAfter(QDomNodePrivate*, QDomNodePrivate*) 0x0000c559   Thumb Code    92  qdom.o(.text)
    QDomDocumentTypePrivate::replaceChild(QDomNodePrivate*, QDomNodePrivate*) 0x0000c5b5   Thumb Code   164  qdom.o(.text)
    QDomDocumentTypePrivate::removeChild(QDomNodePrivate*) 0x0000c659   Thumb Code    84  qdom.o(.text)
    QDomDocumentTypePrivate::appendChild(QDomNodePrivate*) 0x0000c6ad   Thumb Code     8  qdom.o(.text)
    QDomDocumentTypePrivate::save(QTextStream&, int, int) const 0x0000c6b5   Thumb Code   364  qdom.o(.text)
    QDomDocumentFragmentPrivate::cloneNode(bool) 0x0000c821   Thumb Code    34  qdom.o(.text)
    QDomCharacterDataPrivate::cloneNode(bool) 0x0000c843   Thumb Code    34  qdom.o(.text)
    QDomTextPrivate::cloneNode(bool)         0x0000c865   Thumb Code    34  qdom.o(.text)
    QDomTextPrivate::save(QTextStream&, int, int) const 0x0000c887   Thumb Code    72  qdom.o(.text)
    QDomAttrPrivate::setNodeValue(const QString&) 0x0000c8cf   Thumb Code    74  qdom.o(.text)
    QDomAttrPrivate::cloneNode(bool)         0x0000c919   Thumb Code    34  qdom.o(.text)
    QDomAttrPrivate::save(QTextStream&, int, int) const 0x0000c93b   Thumb Code   222  qdom.o(.text)
    QDomElementPrivate::~QDomElementPrivate() 0x0000ca19   Thumb Code    40  qdom.o(.text)
    QDomElementPrivate::~QDomElementPrivate__sub_object() 0x0000ca19   Thumb Code     0  qdom.o(.text)
    QDomElementPrivate::~QDomElementPrivate__deallocating() 0x0000ca41   Thumb Code    16  qdom.o(.text)
    QDomElementPrivate::cloneNode(bool)      0x0000ca51   Thumb Code    34  qdom.o(.text)
    QDomElementPrivate::save(QTextStream&, int, int) const 0x0000ca73   Thumb Code   892  qdom.o(.text)
    QDomCommentPrivate::cloneNode(bool)      0x0000cdef   Thumb Code    34  qdom.o(.text)
    QDomCommentPrivate::save(QTextStream&, int, int) const 0x0000ce11   Thumb Code   156  qdom.o(.text)
    QDomCDATASectionPrivate::cloneNode(bool) 0x0000cead   Thumb Code    34  qdom.o(.text)
    QDomCDATASectionPrivate::save(QTextStream&, int, int) const 0x0000cecf   Thumb Code    28  qdom.o(.text)
    QDomNotationPrivate::QDomNotationPrivate(QDomDocumentPrivate*, QDomNodePrivate*, const QString&, const QString&, const QString&) 0x0000ceeb   Thumb Code    76  qdom.o(.text)
    QDomNotationPrivate::QDomNotationPrivate__sub_object(QDomDocumentPrivate*, QDomNodePrivate*, const QString&, const QString&, const QString&) 0x0000ceeb   Thumb Code     0  qdom.o(.text)
    QDomNotationPrivate::cloneNode(bool)     0x0000cf37   Thumb Code    34  qdom.o(.text)
    QDomNotationPrivate::save(QTextStream&, int, int) const 0x0000cf59   Thumb Code   150  qdom.o(.text)
    QDomEntityPrivate::QDomEntityPrivate(QDomDocumentPrivate*, QDomNodePrivate*, const QString&, const QString&, const QString&, const QString&) 0x0000cfef   Thumb Code   100  qdom.o(.text)
    QDomEntityPrivate::QDomEntityPrivate__sub_object(QDomDocumentPrivate*, QDomNodePrivate*, const QString&, const QString&, const QString&, const QString&) 0x0000cfef   Thumb Code     0  qdom.o(.text)
    QDomEntityPrivate::cloneNode(bool)       0x0000d053   Thumb Code    34  qdom.o(.text)
    QDomEntityPrivate::save(QTextStream&, int, int) const 0x0000d075   Thumb Code   448  qdom.o(.text)
    QDomEntityReferencePrivate::cloneNode(bool) 0x0000d235   Thumb Code    34  qdom.o(.text)
    QDomEntityReferencePrivate::save(QTextStream&, int, int) const 0x0000d257   Thumb Code    28  qdom.o(.text)
    QDomProcessingInstructionPrivate::cloneNode(bool) 0x0000d273   Thumb Code    34  qdom.o(.text)
    QDomProcessingInstructionPrivate::save(QTextStream&, int, int) const 0x0000d295   Thumb Code    46  qdom.o(.text)
    QDomDocumentPrivate::QDomDocumentPrivate(QDomDocumentPrivate*, bool) 0x0000d2c3   Thumb Code    76  qdom.o(.text)
    QDomDocumentPrivate::QDomDocumentPrivate__sub_object(QDomDocumentPrivate*, bool) 0x0000d2c3   Thumb Code     0  qdom.o(.text)
    QDomDocumentPrivate::~QDomDocumentPrivate() 0x0000d30f   Thumb Code    36  qdom.o(.text)
    QDomDocumentPrivate::~QDomDocumentPrivate__sub_object() 0x0000d30f   Thumb Code     0  qdom.o(.text)
    QDomDocumentPrivate::~QDomDocumentPrivate__deallocating() 0x0000d333   Thumb Code    16  qdom.o(.text)
    QDomDocumentPrivate::cloneNode(bool)     0x0000d343   Thumb Code    34  qdom.o(.text)
    QDomDocumentPrivate::clear()             0x0000d365   Thumb Code    66  qdom.o(.text)
    QDomHandler::~QDomHandler__deallocating() 0x0000d3a7   Thumb Code    16  qdom.o(.text)
    thunk{-20} to QDomHandler::~QDomHandler__deallocating() 0x0000d3b7   Thumb Code     4  qdom.o(.text)
    thunk{-16} to QDomHandler::~QDomHandler__deallocating() 0x0000d3bb   Thumb Code     4  qdom.o(.text)
    thunk{-12} to QDomHandler::~QDomHandler__deallocating() 0x0000d3bf   Thumb Code     4  qdom.o(.text)
    thunk{-8} to QDomHandler::~QDomHandler__deallocating() 0x0000d3c3   Thumb Code     4  qdom.o(.text)
    thunk{-4} to QDomHandler::~QDomHandler__deallocating() 0x0000d3c7   Thumb Code     4  qdom.o(.text)
    thunk{-20} to QDomHandler::~QDomHandler() 0x0000d3cb   Thumb Code    10  qdom.o(.text)
    thunk{-16} to QDomHandler::~QDomHandler() 0x0000d3d5   Thumb Code    10  qdom.o(.text)
    thunk{-12} to QDomHandler::~QDomHandler() 0x0000d3df   Thumb Code    10  qdom.o(.text)
    thunk{-8} to QDomHandler::~QDomHandler() 0x0000d3e9   Thumb Code    10  qdom.o(.text)
    thunk{-4} to QDomHandler::~QDomHandler() 0x0000d3f3   Thumb Code    10  qdom.o(.text)
    QDomHandler::endDocument()               0x0000d3fd   Thumb Code    16  qdom.o(.text)
    QDomHandler::startElement(const QString&, const QString&, const QString&, const QXmlAttributes&) 0x0000d40d   Thumb Code   198  qdom.o(.text)
    QDomHandler::endElement(const QString&, const QString&, const QString&) 0x0000d4d3   Thumb Code    30  qdom.o(.text)
    QDomHandler::characters(const QString&)  0x0000d4f1   Thumb Code   260  qdom.o(.text)
    QDomHandler::processingInstruction(const QString&, const QString&) 0x0000d5f5   Thumb Code    54  qdom.o(.text)
    QDomHandler::skippedEntity(const QString&) 0x0000d62b   Thumb Code    56  qdom.o(.text)
    QDomHandler::fatalError(const QXmlParseException&) 0x0000d663   Thumb Code    54  qdom.o(.text)
    thunk{-4} to QDomHandler::fatalError(const QXmlParseException&) 0x0000d699   Thumb Code     4  qdom.o(.text)
    QDomHandler::startCDATA()                0x0000d69d   Thumb Code    10  qdom.o(.text)
    thunk{-16} to QDomHandler::startCDATA()  0x0000d6a7   Thumb Code    10  qdom.o(.text)
    QDomHandler::endCDATA()                  0x0000d6b1   Thumb Code    10  qdom.o(.text)
    thunk{-16} to QDomHandler::endCDATA()    0x0000d6bb   Thumb Code    10  qdom.o(.text)
    QDomHandler::startEntity(const QString&) 0x0000d6c5   Thumb Code    12  qdom.o(.text)
    thunk{-16} to QDomHandler::startEntity(const QString&) 0x0000d6d1   Thumb Code     4  qdom.o(.text)
    QDomHandler::endEntity(const QString&)   0x0000d6d5   Thumb Code    12  qdom.o(.text)
    thunk{-16} to QDomHandler::endEntity(const QString&) 0x0000d6e1   Thumb Code    12  qdom.o(.text)
    QDomHandler::startDTD(const QString&, const QString&, const QString&) 0x0000d6ed   Thumb Code    46  qdom.o(.text)
    thunk{-16} to QDomHandler::startDTD(const QString&, const QString&, const QString&) 0x0000d71b   Thumb Code     4  qdom.o(.text)
    QDomHandler::comment(const QString&)     0x0000d71f   Thumb Code    48  qdom.o(.text)
    thunk{-16} to QDomHandler::comment(const QString&) 0x0000d74f   Thumb Code     4  qdom.o(.text)
    QDomHandler::externalEntityDecl(const QString&, const QString&, const QString&) 0x0000d753   Thumb Code    46  qdom.o(.text)
    thunk{-20} to QDomHandler::externalEntityDecl(const QString&, const QString&, const QString&) 0x0000d781   Thumb Code     4  qdom.o(.text)
    QDomHandler::notationDecl(const QString&, const QString&, const QString&) 0x0000d785   Thumb Code    48  qdom.o(.text)
    thunk{-8} to QDomHandler::notationDecl(const QString&, const QString&, const QString&) 0x0000d7b5   Thumb Code     4  qdom.o(.text)
    QDomHandler::unparsedEntityDecl(const QString&, const QString&, const QString&, const QString&) 0x0000d7b9   Thumb Code    54  qdom.o(.text)
    thunk{-8} to QDomHandler::unparsedEntityDecl(const QString&, const QString&, const QString&, const QString&) 0x0000d7ef   Thumb Code    56  qdom.o(.text)
    QDomHandler::setDocumentLocator(QXmlLocator*) 0x0000d827   Thumb Code     4  qdom.o(.text)
    QXmlNamespaceSupport::QXmlNamespaceSupport() 0x0000dca7   Thumb Code    22  qxml.o(.text)
    QXmlNamespaceSupport::QXmlNamespaceSupport__sub_object() 0x0000dca7   Thumb Code     0  qxml.o(.text)
    QXmlNamespaceSupport::~QXmlNamespaceSupport() 0x0000dcbd   Thumb Code    22  qxml.o(.text)
    QXmlNamespaceSupport::~QXmlNamespaceSupport__sub_object() 0x0000dcbd   Thumb Code     0  qxml.o(.text)
    QXmlNamespaceSupport::setPrefix(const QString&, const QString&) 0x0000dcd3   Thumb Code    64  qxml.o(.text)
    QXmlNamespaceSupport::prefix(const QString&) const 0x0000dd13   Thumb Code    96  qxml.o(.text)
    QXmlNamespaceSupport::uri(const QString&) const 0x0000dd73   Thumb Code    76  qxml.o(.text)
    QXmlNamespaceSupport::splitName(const QString&, QString&, QString&) const 0x0000ddbf   Thumb Code    98  qxml.o(.text)
    QXmlNamespaceSupport::processName(const QString&, bool, QString&, QString&) const 0x0000de21   Thumb Code   218  qxml.o(.text)
    QXmlNamespaceSupport::prefixes() const   0x0000defb   Thumb Code    70  qxml.o(.text)
    QXmlNamespaceSupport::prefixes(const QString&) const 0x0000df41   Thumb Code    86  qxml.o(.text)
    QXmlNamespaceSupport::pushContext()      0x0000df97   Thumb Code    12  qxml.o(.text)
    QXmlNamespaceSupport::popContext()       0x0000dfa3   Thumb Code    46  qxml.o(.text)
    QXmlNamespaceSupport::reset()            0x0000dfd1   Thumb Code    36  qxml.o(.text)
    QXmlAttributes::index(const QString&) const 0x0000dff5   Thumb Code    52  qxml.o(.text)
    QXmlAttributes::index(const QLatin1String&) const 0x0000e029   Thumb Code    52  qxml.o(.text)
    QXmlAttributes::index(const QString&, const QString&) const 0x0000e05d   Thumb Code    70  qxml.o(.text)
    QXmlAttributes::length() const           0x0000e0a3   Thumb Code    10  qxml.o(.text)
    QXmlAttributes::localName(int) const     0x0000e0ad   Thumb Code    26  qxml.o(.text)
    QXmlAttributes::qName(int) const         0x0000e0c7   Thumb Code    24  qxml.o(.text)
    QXmlAttributes::uri(int) const           0x0000e0df   Thumb Code    24  qxml.o(.text)
    QXmlAttributes::type(int) const          0x0000e0f7   Thumb Code    14  qxml.o(.text)
    QXmlAttributes::type(const QString&) const 0x0000e105   Thumb Code    14  qxml.o(.text)
    QXmlAttributes::type(const QString&, const QString&) const 0x0000e113   Thumb Code    14  qxml.o(.text)
    QXmlAttributes::value(int) const         0x0000e121   Thumb Code    26  qxml.o(.text)
    QXmlAttributes::value(const QString&) const 0x0000e13b   Thumb Code    46  qxml.o(.text)
    QXmlAttributes::value(const QLatin1String&) const 0x0000e169   Thumb Code    46  qxml.o(.text)
    QXmlAttributes::value(const QString&, const QString&) const 0x0000e197   Thumb Code    48  qxml.o(.text)
    QXmlAttributes::clear()                  0x0000e1c7   Thumb Code    64  qxml.o(.text)
    QXmlAttributes::append(const QString&, const QString&, const QString&, const QString&) 0x0000e207   Thumb Code    94  qxml.o(.text)
    QXmlInputSource::init()                  0x0000e265   Thumb Code   134  qxml.o(.text)
    QXmlInputSource::QXmlInputSource()       0x0000e2eb   Thumb Code    18  qxml.o(.text)
    QXmlInputSource::QXmlInputSource__sub_object() 0x0000e2eb   Thumb Code     0  qxml.o(.text)
    QXmlInputSource::QXmlInputSource(QIODevice*) 0x0000e2fd   Thumb Code    32  qxml.o(.text)
    QXmlInputSource::QXmlInputSource__sub_object(QIODevice*) 0x0000e2fd   Thumb Code     0  qxml.o(.text)
    QXmlInputSource::~QXmlInputSource()      0x0000e31d   Thumb Code    42  qxml.o(.text)
    QXmlInputSource::~QXmlInputSource__sub_object() 0x0000e31d   Thumb Code     0  qxml.o(.text)
    QXmlInputSource::~QXmlInputSource__deallocating() 0x0000e347   Thumb Code    16  qxml.o(.text)
    QXmlInputSource::setData(const QString&) 0x0000e357   Thumb Code    44  qxml.o(.text)
    QXmlInputSource::setData(const QByteArray&) 0x0000e383   Thumb Code    36  qxml.o(.text)
    QXmlInputSource::fetchData()             0x0000e3a7   Thumb Code   346  qxml.o(.text)
    QXmlInputSource::data() const            0x0000e501   Thumb Code    38  qxml.o(.text)
    QXmlInputSource::next()                  0x0000e527   Thumb Code   100  qxml.o(.text)
    QXmlInputSource::reset()                 0x0000e58b   Thumb Code    12  qxml.o(.text)
    QXmlInputSource::fromRawData(const QByteArray&, bool) 0x0000e597   Thumb Code   474  qxml.o(.text)
    QXmlParseException::QXmlParseException(const QString&, int, int, const QString&, const QString&) 0x0000e771   Thumb Code    96  qxml.o(.text)
    QXmlParseException::QXmlParseException__sub_object(const QString&, int, int, const QString&, const QString&) 0x0000e771   Thumb Code     0  qxml.o(.text)
    QXmlParseException::QXmlParseException(const QXmlParseException&) 0x0000e7d1   Thumb Code    68  qxml.o(.text)
    QXmlParseException::QXmlParseException__sub_object(const QXmlParseException&) 0x0000e7d1   Thumb Code     0  qxml.o(.text)
    QXmlParseException::~QXmlParseException() 0x0000e815   Thumb Code     8  qxml.o(.text)
    QXmlParseException::~QXmlParseException__sub_object() 0x0000e815   Thumb Code     0  qxml.o(.text)
    QXmlParseException::columnNumber() const 0x0000e81d   Thumb Code     6  qxml.o(.text)
    QXmlParseException::lineNumber() const   0x0000e823   Thumb Code     6  qxml.o(.text)
    QXmlParseException::publicId() const     0x0000e829   Thumb Code    12  qxml.o(.text)
    QXmlParseException::systemId() const     0x0000e835   Thumb Code    12  qxml.o(.text)
    QXmlParseException::message() const      0x0000e841   Thumb Code    10  qxml.o(.text)
    QXmlSimpleReaderPrivate::~QXmlSimpleReaderPrivate() 0x0000e84b   Thumb Code   316  qxml.o(.text)
    QXmlSimpleReaderPrivate::~QXmlSimpleReaderPrivate__sub_object() 0x0000e84b   Thumb Code     0  qxml.o(.text)
    QXmlLocator::~QXmlLocator()              0x0000e987   Thumb Code     0  qxml.o(.text)
    QXmlLocator::~QXmlLocator__sub_object()  0x0000e987   Thumb Code     2  qxml.o(.text)
    QXmlLocator::QXmlLocator__sub_object()   0x0000e989   Thumb Code     6  qxml.o(.text)
    QXmlSimpleReaderPrivate::QXmlSimpleReaderPrivate(QXmlSimpleReader*) 0x0000e98f   Thumb Code   428  qxml.o(.text)
    QXmlSimpleReaderPrivate::QXmlSimpleReaderPrivate__sub_object(QXmlSimpleReader*) 0x0000e98f   Thumb Code     0  qxml.o(.text)
    QXmlSimpleReader::QXmlSimpleReader()     0x0000eb3b   Thumb Code    32  qxml.o(.text)
    QXmlSimpleReader::QXmlSimpleReader__sub_object() 0x0000eb3b   Thumb Code     0  qxml.o(.text)
    QXmlSimpleReader::~QXmlSimpleReader()    0x0000eb5b   Thumb Code    18  qxml.o(.text)
    QXmlSimpleReader::~QXmlSimpleReader__sub_object() 0x0000eb5b   Thumb Code     0  qxml.o(.text)
    QXmlSimpleReader::~QXmlSimpleReader__deallocating() 0x0000eb6d   Thumb Code    16  qxml.o(.text)
    QXmlSimpleReader::feature(const QString&, bool*) const 0x0000eb7d   Thumb Code   146  qxml.o(.text)
    QXmlSimpleReader::setFeature(const QString&, bool) 0x0000ec0f   Thumb Code   128  qxml.o(.text)
    QXmlSimpleReader::hasFeature(const QString&) const 0x0000ec8f   Thumb Code    78  qxml.o(.text)
    QXmlSimpleReader::property(const QString&, bool*) const 0x0000ecdd   Thumb Code    12  qxml.o(.text)
    QXmlSimpleReader::setProperty(const QString&, void*) 0x0000ece9   Thumb Code     2  qxml.o(.text)
    QXmlSimpleReader::hasProperty(const QString&) const 0x0000eceb   Thumb Code     4  qxml.o(.text)
    QXmlSimpleReader::setEntityResolver(QXmlEntityResolver*) 0x0000ecef   Thumb Code     8  qxml.o(.text)
    QXmlSimpleReader::entityResolver() const 0x0000ecf7   Thumb Code     8  qxml.o(.text)
    QXmlSimpleReader::setDTDHandler(QXmlDTDHandler*) 0x0000ecff   Thumb Code     8  qxml.o(.text)
    QXmlSimpleReader::DTDHandler() const     0x0000ed07   Thumb Code     8  qxml.o(.text)
    QXmlSimpleReader::setContentHandler(QXmlContentHandler*) 0x0000ed0f   Thumb Code     6  qxml.o(.text)
    QXmlSimpleReader::contentHandler() const 0x0000ed15   Thumb Code     6  qxml.o(.text)
    QXmlSimpleReader::setErrorHandler(QXmlErrorHandler*) 0x0000ed1b   Thumb Code     8  qxml.o(.text)
    QXmlSimpleReader::errorHandler() const   0x0000ed23   Thumb Code   210  qxml.o(.text)
    QXmlSimpleReader::setLexicalHandler(QXmlLexicalHandler*) 0x0000edf5   Thumb Code     8  qxml.o(.text)
    QXmlSimpleReader::lexicalHandler() const 0x0000edfd   Thumb Code     8  qxml.o(.text)
    QXmlSimpleReader::setDeclHandler(QXmlDeclHandler*) 0x0000ee05   Thumb Code     8  qxml.o(.text)
    QXmlSimpleReader::declHandler() const    0x0000ee0d   Thumb Code     8  qxml.o(.text)
    QXmlSimpleReader::parse(const QXmlInputSource&) 0x0000ee15   Thumb Code     8  qxml.o(.text)
    QXmlSimpleReader::parse(const QXmlInputSource*) 0x0000ee1d   Thumb Code     8  qxml.o(.text)
    QXmlSimpleReaderPrivate::reportParseError(const QString&) 0x0000ee25   Thumb Code   132  qxml.o(.text)
    QXmlSimpleReaderPrivate::pushParseState(bool(QXmlSimpleReaderPrivate::*)(), int) 0x0000eea9   Thumb Code    18  qxml.o(.text)
    QXmlSimpleReaderPrivate::parseFailed(bool(QXmlSimpleReaderPrivate::*)(), int) 0x0000eebb   Thumb Code    42  qxml.o(.text)
    QXmlSimpleReaderPrivate::next()          0x0000eee5   Thumb Code   186  qxml.o(.text)
    QXmlSimpleReaderPrivate::stringAddC(QChar) 0x0000ef9f   Thumb Code    62  qxml.o(.text)
    QXmlSimpleReaderPrivate::unexpectedEof(bool(QXmlSimpleReaderPrivate::*)(), int) 0x0000efdd   Thumb Code   100  qxml.o(.text)
    QXmlSimpleReaderPrivate::eat_ws()        0x0000f041   Thumb Code    64  qxml.o(.text)
    QXmlSimpleReaderPrivate::parseComment()  0x0000f081   Thumb Code   356  qxml.o(.text)
    QXmlSimpleReaderPrivate::insertXmlRef(const QString&, const QString&, bool) 0x0000f1e5   Thumb Code   374  qxml.o(.text)
    QXmlSimpleReaderPrivate::string()        0x0000f35b   Thumb Code    28  qxml.o(.text)
    QXmlSimpleReaderPrivate::ref()           0x0000f377   Thumb Code    32  qxml.o(.text)
    QXmlSimpleReaderPrivate::processReference() 0x0000f397   Thumb Code  1614  qxml.o(.text)
    QXmlSimpleReaderPrivate::nameAddC(QChar) 0x0000f9e5   Thumb Code    60  qxml.o(.text)
    QXmlSimpleReaderPrivate::refAddC(QChar)  0x0000fa21   Thumb Code    68  qxml.o(.text)
    QXmlSimpleReaderPrivate::parseName()     0x0000fa65   Thumb Code   260  qxml.o(.text)
    QXmlSimpleReaderPrivate::parseReference() 0x0000fb69   Thumb Code   674  qxml.o(.text)
    QXmlSimpleReaderPrivate::parseAttValue() 0x0000fe0b   Thumb Code   366  qxml.o(.text)
    QXmlSimpleReaderPrivate::next_eat_ws()   0x0000ff79   Thumb Code    16  qxml.o(.text)
    QXmlSimpleReaderPrivate::parseAttribute() 0x0000ff89   Thumb Code   434  qxml.o(.text)
    QXmlSimpleReaderPrivate::name()          0x0001013b   Thumb Code    30  qxml.o(.text)
    QXmlSimpleReaderPrivate::parsePI()       0x00010159   Thumb Code   928  qxml.o(.text)
    QXmlSimpleReaderPrivate::parseMisc()     0x000104f9   Thumb Code   656  qxml.o(.text)
    QXmlSimpleReaderPrivate::processElementEmptyTag() 0x00010789   Thumb Code   640  qxml.o(.text)
    QXmlSimpleReaderPrivate::parseString()   0x00010a09   Thumb Code   260  qxml.o(.text)
    QXmlSimpleReaderPrivate::reportEndEntities() 0x00010b0d   Thumb Code   222  qxml.o(.text)
    QXmlSimpleReaderPrivate::parseContent()  0x00010beb   Thumb Code  1228  qxml.o(.text)
    QXmlSimpleReaderPrivate::processElementAttribute() 0x000110b7   Thumb Code   256  qxml.o(.text)
    QXmlSimpleReaderPrivate::processElementETagBegin2() 0x000111b7   Thumb Code   510  qxml.o(.text)
    QXmlSimpleReaderPrivate::parseElement()  0x000113b5   Thumb Code   704  qxml.o(.text)
    QXmlSimpleReaderPrivate::parseExternalID() 0x00011675   Thumb Code   584  qxml.o(.text)
    QXmlSimpleReaderPrivate::parseNotationDecl() 0x000118bd   Thumb Code   420  qxml.o(.text)
    QXmlSimpleReaderPrivate::parsePEReference() 0x00011a61   Thumb Code   838  qxml.o(.text)
    QXmlSimpleReaderPrivate::parseEntityValue() 0x00011da7   Thumb Code   378  qxml.o(.text)
    QXmlSimpleReaderPrivate::entityExist(const QString&) const 0x00011f21   Thumb Code    98  qxml.o(.text)
    QXmlSimpleReaderPrivate::parseEntityDecl() 0x00011f83   Thumb Code  1204  qxml.o(.text)
    QXmlSimpleReaderPrivate::parseChoiceSeq() 0x00012437   Thumb Code   458  qxml.o(.text)
    QXmlSimpleReaderPrivate::parseElementDecl() 0x00012601   Thumb Code   670  qxml.o(.text)
    QXmlSimpleReaderPrivate::parseNmtoken()  0x0001289f   Thumb Code   242  qxml.o(.text)
    QXmlSimpleReaderPrivate::parseAttType()  0x00012991   Thumb Code   758  qxml.o(.text)
    QXmlSimpleReaderPrivate::parseAttlistDecl() 0x00012c87   Thumb Code   662  qxml.o(.text)
    QXmlSimpleReaderPrivate::parseMarkupdecl() 0x00012f1d   Thumb Code   668  qxml.o(.text)
    QXmlSimpleReaderPrivate::parseDoctype()  0x000131b9   Thumb Code   754  qxml.o(.text)
    QXmlSimpleReaderPrivate::parseProlog()   0x000134ab   Thumb Code   918  qxml.o(.text)
    QXmlSimpleReaderPrivate::parseBeginOrContinue(int, bool) 0x00013841   Thumb Code   408  qxml.o(.text)
    QXmlSimpleReaderPrivate::initData()      0x000139d9   Thumb Code    76  qxml.o(.text)
    QXmlSimpleReaderPrivate::init(const QXmlInputSource*) 0x00013a25   Thumb Code   212  qxml.o(.text)
    QXmlSimpleReaderPrivate::initIncrementalParsing() 0x00013af9   Thumb Code    80  qxml.o(.text)
    QXmlSimpleReader::parse(const QXmlInputSource*, bool) 0x00013b49   Thumb Code   122  qxml.o(.text)
    QXmlSimpleReader::parseContinue()        0x00013bc3   Thumb Code    48  qxml.o(.text)
    QXmlLocator::~QXmlLocator__deallocating() 0x00013bf3   Thumb Code    12  qxml.o(.text)
    QXmlDefaultHandler::setDocumentLocator(QXmlLocator*) 0x00013bff   Thumb Code     2  qxml.o(.text)
    QXmlDefaultHandler::startDocument()      0x00013c01   Thumb Code     4  qxml.o(.text)
    QXmlDefaultHandler::endDocument()        0x00013c05   Thumb Code     4  qxml.o(.text)
    QXmlDefaultHandler::startPrefixMapping(const QString&, const QString&) 0x00013c09   Thumb Code     4  qxml.o(.text)
    QXmlDefaultHandler::endPrefixMapping(const QString&) 0x00013c0d   Thumb Code     4  qxml.o(.text)
    QXmlDefaultHandler::startElement(const QString&, const QString&, const QString&, const QXmlAttributes&) 0x00013c11   Thumb Code     4  qxml.o(.text)
    QXmlDefaultHandler::endElement(const QString&, const QString&, const QString&) 0x00013c15   Thumb Code     4  qxml.o(.text)
    QXmlDefaultHandler::characters(const QString&) 0x00013c19   Thumb Code     4  qxml.o(.text)
    QXmlDefaultHandler::ignorableWhitespace(const QString&) 0x00013c1d   Thumb Code     4  qxml.o(.text)
    QXmlDefaultHandler::processingInstruction(const QString&, const QString&) 0x00013c21   Thumb Code     4  qxml.o(.text)
    QXmlDefaultHandler::skippedEntity(const QString&) 0x00013c25   Thumb Code     4  qxml.o(.text)
    QXmlDefaultHandler::warning(const QXmlParseException&) 0x00013c29   Thumb Code     4  qxml.o(.text)
    thunk{-4} to QXmlDefaultHandler::warning(const QXmlParseException&) 0x00013c2d   Thumb Code     4  qxml.o(.text)
    QXmlDefaultHandler::error(const QXmlParseException&) 0x00013c31   Thumb Code     4  qxml.o(.text)
    thunk{-4} to QXmlDefaultHandler::error(const QXmlParseException&) 0x00013c35   Thumb Code     4  qxml.o(.text)
    QXmlDefaultHandler::fatalError(const QXmlParseException&) 0x00013c39   Thumb Code     4  qxml.o(.text)
    thunk{-4} to QXmlDefaultHandler::fatalError(const QXmlParseException&) 0x00013c3d   Thumb Code     4  qxml.o(.text)
    QXmlDefaultHandler::notationDecl(const QString&, const QString&, const QString&) 0x00013c41   Thumb Code     4  qxml.o(.text)
    thunk{-8} to QXmlDefaultHandler::notationDecl(const QString&, const QString&, const QString&) 0x00013c45   Thumb Code     4  qxml.o(.text)
    QXmlDefaultHandler::unparsedEntityDecl(const QString&, const QString&, const QString&, const QString&) 0x00013c49   Thumb Code     4  qxml.o(.text)
    thunk{-8} to QXmlDefaultHandler::unparsedEntityDecl(const QString&, const QString&, const QString&, const QString&) 0x00013c4d   Thumb Code     4  qxml.o(.text)
    QXmlDefaultHandler::resolveEntity(const QString&, const QString&, QXmlInputSource*&) 0x00013c51   Thumb Code     8  qxml.o(.text)
    thunk{-12} to QXmlDefaultHandler::resolveEntity(const QString&, const QString&, QXmlInputSource*&) 0x00013c59   Thumb Code     8  qxml.o(.text)
    QXmlDefaultHandler::startDTD(const QString&, const QString&, const QString&) 0x00013c61   Thumb Code     4  qxml.o(.text)
    thunk{-16} to QXmlDefaultHandler::startDTD(const QString&, const QString&, const QString&) 0x00013c65   Thumb Code     4  qxml.o(.text)
    QXmlDefaultHandler::endDTD()             0x00013c69   Thumb Code     4  qxml.o(.text)
    thunk{-16} to QXmlDefaultHandler::endDTD() 0x00013c6d   Thumb Code     4  qxml.o(.text)
    QXmlDefaultHandler::startEntity(const QString&) 0x00013c71   Thumb Code     4  qxml.o(.text)
    thunk{-16} to QXmlDefaultHandler::startEntity(const QString&) 0x00013c75   Thumb Code     4  qxml.o(.text)
    QXmlDefaultHandler::endEntity(const QString&) 0x00013c79   Thumb Code     4  qxml.o(.text)
    thunk{-16} to QXmlDefaultHandler::endEntity(const QString&) 0x00013c7d   Thumb Code     4  qxml.o(.text)
    QXmlDefaultHandler::startCDATA()         0x00013c81   Thumb Code     4  qxml.o(.text)
    thunk{-16} to QXmlDefaultHandler::startCDATA() 0x00013c85   Thumb Code     4  qxml.o(.text)
    QXmlDefaultHandler::endCDATA()           0x00013c89   Thumb Code     4  qxml.o(.text)
    thunk{-16} to QXmlDefaultHandler::endCDATA() 0x00013c8d   Thumb Code     4  qxml.o(.text)
    QXmlDefaultHandler::comment(const QString&) 0x00013c91   Thumb Code     4  qxml.o(.text)
    thunk{-16} to QXmlDefaultHandler::comment(const QString&) 0x00013c95   Thumb Code     4  qxml.o(.text)
    QXmlDefaultHandler::attributeDecl(const QString&, const QString&, const QString&, const QString&, const QString&) 0x00013c99   Thumb Code     4  qxml.o(.text)
    thunk{-20} to QXmlDefaultHandler::attributeDecl(const QString&, const QString&, const QString&, const QString&, const QString&) 0x00013c9d   Thumb Code     4  qxml.o(.text)
    QXmlDefaultHandler::internalEntityDecl(const QString&, const QString&) 0x00013ca1   Thumb Code     4  qxml.o(.text)
    thunk{-20} to QXmlDefaultHandler::internalEntityDecl(const QString&, const QString&) 0x00013ca5   Thumb Code     4  qxml.o(.text)
    QXmlDefaultHandler::externalEntityDecl(const QString&, const QString&, const QString&) 0x00013ca9   Thumb Code     4  qxml.o(.text)
    thunk{-20} to QXmlDefaultHandler::externalEntityDecl(const QString&, const QString&, const QString&) 0x00013cad   Thumb Code     4  qxml.o(.text)
    QXmlDefaultHandler::errorString() const  0x00013cb1   Thumb Code    14  qxml.o(.text)
    thunk{-20} to QXmlDefaultHandler::errorString() const 0x00013cbf   Thumb Code     4  qxml.o(.text)
    thunk{-16} to QXmlDefaultHandler::errorString() const 0x00013cc3   Thumb Code     4  qxml.o(.text)
    thunk{-12} to QXmlDefaultHandler::errorString() const 0x00013cc7   Thumb Code     4  qxml.o(.text)
    thunk{-8} to QXmlDefaultHandler::errorString() const 0x00013ccb   Thumb Code     4  qxml.o(.text)
    thunk{-4} to QXmlDefaultHandler::errorString() const 0x00013ccf   Thumb Code     4  qxml.o(.text)
    __ARM_switch8                            0x00013d1c   ARM Code      24  switch8.o(.text)
    __rt_switch8                             0x00013d1c   ARM Code       0  switch8.o(.text)
    _E32Dll_Body                             0x00013d34   ARM Code      56  uc_dll.o(.text)
    __DLL_Export_Table__                     0x00013d70   ARM Code       4  dllexp.o(.text)
    QByteArray::data()                       0x00014ef9   Thumb Code    42  qdom.o(i._ZN10QByteArray4dataEv)
    QByteArray::QByteArray()                 0x00014f25   Thumb Code    16  qxml.o(i._ZN10QByteArrayC1Ev)
    QByteArray::QByteArray__sub_object()     0x00014f25   Thumb Code     0  qxml.o(i._ZN10QByteArrayC1Ev)
    QByteArray::~QByteArray()                0x00014f39   Thumb Code    24  qdom.o(i._ZN10QByteArrayD1Ev)
    QByteArray::~QByteArray__sub_object()    0x00014f39   Thumb Code     0  qdom.o(i._ZN10QByteArrayD1Ev)
    QTextCodec::codecForName(const char*)    0x00014f51   Thumb Code    26  qdom.o(i._ZN10QTextCodec12codecForNameEPKc)
    QXmlReader::~QXmlReader()                0x00014f75   Thumb Code     0  qxml.o(i._ZN10QXmlReaderD2Ev)
    QXmlReader::~QXmlReader__sub_object()    0x00014f75   Thumb Code     2  qxml.o(i._ZN10QXmlReaderD2Ev)
    QDomElement::~QDomElement()              0x00014f77   Thumb Code     8  qdom.o(i._ZN11QDomElementD1Ev)
    QDomElement::~QDomElement__sub_object()  0x00014f77   Thumb Code     0  qdom.o(i._ZN11QDomElementD1Ev)
    QDomHandler::dummy()                     0x00014f7f   Thumb Code     2  qdom.o(i._ZN11QDomHandler5dummyEv)
    QStringList::QStringList()               0x00014f81   Thumb Code    16  qxml.o(i._ZN11QStringListC1Ev)
    QStringList::QStringList__sub_object()   0x00014f81   Thumb Code     0  qxml.o(i._ZN11QStringListC1Ev)
    QStringList::~QStringList()              0x00014f95   Thumb Code     8  qxml.o(i._ZN11QStringListD1Ev)
    QStringList::~QStringList__sub_object()  0x00014f95   Thumb Code     0  qxml.o(i._ZN11QStringListD1Ev)
    QStringList::operator =(const QStringList&) 0x00014f9d   Thumb Code    54  qxml.o(i._ZN11QStringListaSERKS_)
    QConcatenable<QLatin1Char>::appendTo(QLatin1Char, QChar*&) 0x00014fd3   Thumb Code    22  qdom.o(i._ZN13QConcatenableI11QLatin1CharE8appendToES0_RP5QChar)
    QConcatenable<QString>::appendTo(const QString&, QChar*&) 0x00014fe9   Thumb Code    28  qdom.o(i._ZN13QConcatenableI7QStringE8appendToERKS0_RP5QChar)
    QXmlAttributes::Attribute::Attribute(const QXmlAttributes::Attribute&) 0x00015005   Thumb Code    52  qxml.o(i._ZN14QXmlAttributes9AttributeC1ERKS0_)
    QXmlAttributes::Attribute::Attribute__sub_object(const QXmlAttributes::Attribute&) 0x00015005   Thumb Code     0  qxml.o(i._ZN14QXmlAttributes9AttributeC1ERKS0_)
    QXmlAttributes::Attribute::~Attribute()  0x00015057   Thumb Code    40  qdom.o(i._ZN14QXmlAttributes9AttributeD1Ev)
    QXmlAttributes::Attribute::~Attribute__sub_object() 0x00015057   Thumb Code     0  qdom.o(i._ZN14QXmlAttributes9AttributeD1Ev)
    QXmlAttributes::~QXmlAttributes__deallocating() 0x0001509d   Thumb Code    16  qxml.o(i._ZN14QXmlAttributesD0Ev)
    QXmlAttributes::~QXmlAttributes()        0x000150ad   Thumb Code    14  qxml.o(i._ZN14QXmlAttributesD1Ev)
    QXmlAttributes::~QXmlAttributes__sub_object() 0x000150ad   Thumb Code     0  qxml.o(i._ZN14QXmlAttributesD1Ev)
    QBasicAtomicInt::ref()                   0x000150c1   Thumb Code    18  qdom.o(i._ZN15QBasicAtomicInt3refEv)
    QBasicAtomicInt::deref()                 0x000150d3   Thumb Code    18  qdom.o(i._ZN15QBasicAtomicInt5derefEv)
    QDomAttrPrivate::~QDomAttrPrivate__deallocating() 0x000150e5   Thumb Code    16  qdom.o(i._ZN15QDomAttrPrivateD0Ev)
    QDomAttrPrivate::~QDomAttrPrivate()      0x000150f5   Thumb Code     8  qdom.o(i._ZN15QDomAttrPrivateD1Ev)
    QDomAttrPrivate::~QDomAttrPrivate__sub_object() 0x000150f5   Thumb Code     0  qdom.o(i._ZN15QDomAttrPrivateD1Ev)
    QDomNodePrivate::setNoParent()           0x000150fd   Thumb Code    34  qdom.o(i._ZN15QDomNodePrivate11setNoParentEv)
    QDomNodePrivate::setNodeValue(const QString&) 0x0001511f   Thumb Code    10  qdom.o(i._ZN15QDomNodePrivate12setNodeValueERK7QString)
    QDomNodePrivate::setOwnerDocument(QDomDocumentPrivate*) 0x00015129   Thumb Code    14  qdom.o(i._ZN15QDomNodePrivate16setOwnerDocumentEP19QDomDocumentPrivate)
    QDomNodePrivate::setParent(QDomNodePrivate*) 0x00015137   Thumb Code    14  qdom.o(i._ZN15QDomNodePrivate9setParentEPS_)
    QDomTextPrivate::~QDomTextPrivate__deallocating() 0x00015145   Thumb Code    16  qdom.o(i._ZN15QDomTextPrivateD0Ev)
    QDomTextPrivate::~QDomTextPrivate()      0x00015155   Thumb Code     8  qdom.o(i._ZN15QDomTextPrivateD1Ev)
    QDomTextPrivate::~QDomTextPrivate__sub_object() 0x00015155   Thumb Code     0  qdom.o(i._ZN15QDomTextPrivateD1Ev)
    QDomEntityPrivate::~QDomEntityPrivate__deallocating() 0x0001515d   Thumb Code    16  qdom.o(i._ZN17QDomEntityPrivateD0Ev)
    QDomEntityPrivate::~QDomEntityPrivate()  0x0001516d   Thumb Code    48  qdom.o(i._ZN17QDomEntityPrivateD1Ev)
    QDomEntityPrivate::~QDomEntityPrivate__sub_object() 0x0001516d   Thumb Code     0  qdom.o(i._ZN17QDomEntityPrivateD1Ev)
    QDomCommentPrivate::~QDomCommentPrivate__deallocating() 0x000151c3   Thumb Code    16  qdom.o(i._ZN18QDomCommentPrivateD0Ev)
    QDomCommentPrivate::~QDomCommentPrivate() 0x000151d3   Thumb Code     8  qdom.o(i._ZN18QDomCommentPrivateD1Ev)
    QDomCommentPrivate::~QDomCommentPrivate__sub_object() 0x000151d3   Thumb Code     0  qdom.o(i._ZN18QDomCommentPrivateD1Ev)
    QXmlDefaultHandler::QXmlDefaultHandler() 0x000151dd   Thumb Code    26  qdom.o(i._ZN18QXmlDefaultHandlerC1Ev)
    QXmlDefaultHandler::QXmlDefaultHandler__sub_object() 0x000151dd   Thumb Code     0  qdom.o(i._ZN18QXmlDefaultHandlerC1Ev)
    QXmlDefaultHandler::~QXmlDefaultHandler__deallocating() 0x000151fd   Thumb Code    16  qxml.o(i._ZN18QXmlDefaultHandlerD0Ev)
    QXmlDefaultHandler::~QXmlDefaultHandler() 0x0001520d   Thumb Code     2  qdom.o(i._ZN18QXmlDefaultHandlerD1Ev)
    QXmlDefaultHandler::~QXmlDefaultHandler__sub_object() 0x0001520d   Thumb Code     0  qdom.o(i._ZN18QXmlDefaultHandlerD1Ev)
    QDomNotationPrivate::~QDomNotationPrivate__deallocating() 0x0001520f   Thumb Code    16  qdom.o(i._ZN19QDomNotationPrivateD0Ev)
    QDomNotationPrivate::~QDomNotationPrivate() 0x00015221   Thumb Code    36  qdom.o(i._ZN19QDomNotationPrivateD1Ev)
    QDomNotationPrivate::~QDomNotationPrivate__sub_object() 0x00015221   Thumb Code     0  qdom.o(i._ZN19QDomNotationPrivateD1Ev)
    QXmlInputSourcePrivate::~QXmlInputSourcePrivate() 0x0001525f   Thumb Code    32  qxml.o(i._ZN22QXmlInputSourcePrivateD1Ev)
    QXmlInputSourcePrivate::~QXmlInputSourcePrivate__sub_object() 0x0001525f   Thumb Code     0  qxml.o(i._ZN22QXmlInputSourcePrivateD1Ev)
    QDomCDATASectionPrivate::~QDomCDATASectionPrivate__deallocating() 0x00015297   Thumb Code    16  qdom.o(i._ZN23QDomCDATASectionPrivateD0Ev)
    QDomCDATASectionPrivate::~QDomCDATASectionPrivate() 0x000152a7   Thumb Code     8  qdom.o(i._ZN23QDomCDATASectionPrivateD1Ev)
    QDomCDATASectionPrivate::~QDomCDATASectionPrivate__sub_object() 0x000152a7   Thumb Code     0  qdom.o(i._ZN23QDomCDATASectionPrivateD1Ev)
    QXmlSimpleReaderLocator::~QXmlSimpleReaderLocator__deallocating() 0x000152af   Thumb Code    12  qxml.o(i._ZN23QXmlSimpleReaderLocatorD0Ev)
    QXmlSimpleReaderLocator::~QXmlSimpleReaderLocator() 0x000152bb   Thumb Code     2  qxml.o(i._ZN23QXmlSimpleReaderLocatorD1Ev)
    QXmlSimpleReaderLocator::~QXmlSimpleReaderLocator__sub_object() 0x000152bb   Thumb Code     0  qxml.o(i._ZN23QXmlSimpleReaderLocatorD1Ev)
    QXmlSimpleReaderPrivate::stringAddC()    0x000152bd   Thumb Code    12  qxml.o(i._ZN23QXmlSimpleReaderPrivate10stringAddCEv)
    QXmlSimpleReaderPrivate::stringClear()   0x000152c9   Thumb Code    14  qxml.o(i._ZN23QXmlSimpleReaderPrivate11stringClearEv)
    QXmlSimpleReaderPrivate::ExternEntity::ExternEntity(const QString&, const QString&, const QString&) 0x000152d7   Thumb Code    36  qxml.o(i._ZN23QXmlSimpleReaderPrivate12ExternEntityC1ERK7QStringS3_S3_)
    QXmlSimpleReaderPrivate::ExternEntity::ExternEntity__sub_object(const QString&, const QString&, const QString&) 0x000152d7   Thumb Code     0  qxml.o(i._ZN23QXmlSimpleReaderPrivate12ExternEntityC1ERK7QStringS3_S3_)
    QXmlSimpleReaderPrivate::ExternEntity::~ExternEntity() 0x0001530d   Thumb Code    28  qxml.o(i._ZN23QXmlSimpleReaderPrivate12ExternEntityD1Ev)
    QXmlSimpleReaderPrivate::ExternEntity::~ExternEntity__sub_object() 0x0001530d   Thumb Code     0  qxml.o(i._ZN23QXmlSimpleReaderPrivate12ExternEntityD1Ev)
    QXmlSimpleReaderPrivate::ExternParameterEntity::~ExternParameterEntity() 0x0001533b   Thumb Code    18  qxml.o(i._ZN23QXmlSimpleReaderPrivate21ExternParameterEntityD1Ev)
    QXmlSimpleReaderPrivate::ExternParameterEntity::~ExternParameterEntity__sub_object() 0x0001533b   Thumb Code     0  qxml.o(i._ZN23QXmlSimpleReaderPrivate21ExternParameterEntityD1Ev)
    QXmlSimpleReaderPrivate::atEnd()         0x00015359   Thumb Code    22  qxml.o(i._ZN23QXmlSimpleReaderPrivate5atEndEv)
    QXmlSimpleReaderPrivate::XmlRef::XmlRef(const QString&, const QString&) 0x00015375   Thumb Code    26  qxml.o(i._ZN23QXmlSimpleReaderPrivate6XmlRefC1ERK7QStringS3_)
    QXmlSimpleReaderPrivate::XmlRef::XmlRef__sub_object(const QString&, const QString&) 0x00015375   Thumb Code     0  qxml.o(i._ZN23QXmlSimpleReaderPrivate6XmlRefC1ERK7QStringS3_)
    QXmlSimpleReaderPrivate::XmlRef::XmlRef(const QXmlSimpleReaderPrivate::XmlRef&) 0x00015399   Thumb Code    26  qxml.o(i._ZN23QXmlSimpleReaderPrivate6XmlRefC1ERKS0_)
    QXmlSimpleReaderPrivate::XmlRef::XmlRef__sub_object(const QXmlSimpleReaderPrivate::XmlRef&) 0x00015399   Thumb Code     0  qxml.o(i._ZN23QXmlSimpleReaderPrivate6XmlRefC1ERKS0_)
    QXmlSimpleReaderPrivate::XmlRef::~XmlRef() 0x000153bd   Thumb Code    18  qxml.o(i._ZN23QXmlSimpleReaderPrivate6XmlRefD1Ev)
    QXmlSimpleReaderPrivate::XmlRef::~XmlRef__sub_object() 0x000153bd   Thumb Code     0  qxml.o(i._ZN23QXmlSimpleReaderPrivate6XmlRefD1Ev)
    QXmlSimpleReaderPrivate::refAddC()       0x000153d9   Thumb Code    12  qxml.o(i._ZN23QXmlSimpleReaderPrivate7refAddCEv)
    QXmlSimpleReaderPrivate::nameAddC()      0x000153e5   Thumb Code    12  qxml.o(i._ZN23QXmlSimpleReaderPrivate8nameAddCEv)
    QXmlSimpleReaderPrivate::refClear()      0x000153f1   Thumb Code    14  qxml.o(i._ZN23QXmlSimpleReaderPrivate8refClearEv)
    QXmlSimpleReaderPrivate::nameClear()     0x000153ff   Thumb Code    14  qxml.o(i._ZN23QXmlSimpleReaderPrivate9nameClearEv)
    QDomCharacterDataPrivate::~QDomCharacterDataPrivate__deallocating() 0x0001540d   Thumb Code    16  qdom.o(i._ZN24QDomCharacterDataPrivateD0Ev)
    QDomCharacterDataPrivate::~QDomCharacterDataPrivate() 0x0001541d   Thumb Code     8  qdom.o(i._ZN24QDomCharacterDataPrivateD1Ev)
    QDomCharacterDataPrivate::~QDomCharacterDataPrivate__sub_object() 0x0001541d   Thumb Code     0  qdom.o(i._ZN24QDomCharacterDataPrivateD1Ev)
    QDomEntityReferencePrivate::~QDomEntityReferencePrivate__deallocating() 0x00015425   Thumb Code    16  qdom.o(i._ZN26QDomEntityReferencePrivateD0Ev)
    QDomEntityReferencePrivate::~QDomEntityReferencePrivate() 0x00015435   Thumb Code     8  qdom.o(i._ZN26QDomEntityReferencePrivateD1Ev)
    QDomEntityReferencePrivate::~QDomEntityReferencePrivate__sub_object() 0x00015435   Thumb Code     0  qdom.o(i._ZN26QDomEntityReferencePrivateD1Ev)
    QDomDocumentFragmentPrivate::~QDomDocumentFragmentPrivate__deallocating() 0x0001543d   Thumb Code    16  qdom.o(i._ZN27QDomDocumentFragmentPrivateD0Ev)
    QDomDocumentFragmentPrivate::~QDomDocumentFragmentPrivate() 0x0001544d   Thumb Code     8  qdom.o(i._ZN27QDomDocumentFragmentPrivateD1Ev)
    QDomDocumentFragmentPrivate::~QDomDocumentFragmentPrivate__sub_object() 0x0001544d   Thumb Code     0  qdom.o(i._ZN27QDomDocumentFragmentPrivateD1Ev)
    QXmlNamespaceSupportPrivate::QXmlNamespaceSupportPrivate() 0x00015455   Thumb Code    74  qxml.o(i._ZN27QXmlNamespaceSupportPrivateC1Ev)
    QXmlNamespaceSupportPrivate::QXmlNamespaceSupportPrivate__sub_object() 0x00015455   Thumb Code     0  qxml.o(i._ZN27QXmlNamespaceSupportPrivateC1Ev)
    QXmlNamespaceSupportPrivate::~QXmlNamespaceSupportPrivate() 0x000154ef   Thumb Code    18  qxml.o(i._ZN27QXmlNamespaceSupportPrivateD1Ev)
    QXmlNamespaceSupportPrivate::~QXmlNamespaceSupportPrivate__sub_object() 0x000154ef   Thumb Code     0  qxml.o(i._ZN27QXmlNamespaceSupportPrivateD1Ev)
    QDomProcessingInstructionPrivate::~QDomProcessingInstructionPrivate__deallocating() 0x0001550b   Thumb Code    16  qdom.o(i._ZN32QDomProcessingInstructionPrivateD0Ev)
    QDomProcessingInstructionPrivate::~QDomProcessingInstructionPrivate() 0x0001551b   Thumb Code     8  qdom.o(i._ZN32QDomProcessingInstructionPrivateD1Ev)
    QDomProcessingInstructionPrivate::~QDomProcessingInstructionPrivate__sub_object() 0x0001551b   Thumb Code     0  qdom.o(i._ZN32QDomProcessingInstructionPrivateD1Ev)
    QSet<QString>::~QSet()                   0x00015523   Thumb Code     8  qdom.o(i._ZN4QSetI7QStringED1Ev)
    QSet<QString>::~QSet__sub_object()       0x00015523   Thumb Code     0  qdom.o(i._ZN4QSetI7QStringED1Ev)
    QChar::QChar()                           0x0001552b   Thumb Code     6  qxml.o(i._ZN5QCharC1Ev)
    QChar::QChar__sub_object()               0x0001552b   Thumb Code     0  qxml.o(i._ZN5QCharC1Ev)
    QString::data()                          0x00015531   Thumb Code    38  qdom.o(i._ZN7QString4dataEv)
    QString::clear()                         0x00015557   Thumb Code    34  qdom.o(i._ZN7QString5clearEv)
    QString::QString(const QLatin1String&)   0x00015583   Thumb Code    20  qdom.o(i._ZN7QStringC1ERK13QLatin1String)
    QString::QString__sub_object(const QLatin1String&) 0x00015583   Thumb Code     0  qdom.o(i._ZN7QStringC1ERK13QLatin1String)
    QString::QString(const QString&)         0x00015597   Thumb Code    16  qdom.o(i._ZN7QStringC1ERKS_)
    QString::QString__sub_object(const QString&) 0x00015597   Thumb Code     0  qdom.o(i._ZN7QStringC1ERKS_)
    QString::QString()                       0x000155a9   Thumb Code    16  qdom.o(i._ZN7QStringC1Ev)
    QString::QString__sub_object()           0x000155a9   Thumb Code     0  qdom.o(i._ZN7QStringC1Ev)
    QString::~QString()                      0x000155bd   Thumb Code    24  qdom.o(i._ZN7QStringD1Ev)
    QString::~QString__sub_object()          0x000155bd   Thumb Code     0  qdom.o(i._ZN7QStringD1Ev)
    QString::operator =(const QLatin1String&) 0x000155d5   Thumb Code    34  qdom.o(i._ZN7QStringaSERK13QLatin1String)
    QString::operator +=(QChar)              0x00015601   Thumb Code    82  qxml.o(i._ZN7QStringpLE5QChar)
    QString::operator +=(const QString&)     0x00015653   Thumb Code     8  qdom.o(i._ZN7QStringpLERKS_)
    QHashData::willGrow()                    0x0001565b   Thumb Code    28  qdom.o(i._ZN9QHashData8willGrowEv)
    QBasicAtomicInt::operator ==(int) const  0x00015677   Thumb Code    14  qdom.o(i._ZNK15QBasicAtomicInteqEi)
    QBasicAtomicInt::operator !=(int) const  0x00015685   Thumb Code    14  qdom.o(i._ZNK15QBasicAtomicIntneEi)
    QDomAttrPrivate::isAttr() const          0x00015693   Thumb Code     4  qdom.o(i._ZNK15QDomAttrPrivate6isAttrEv)
    QDomAttrPrivate::nodeType() const        0x00015697   Thumb Code     4  qdom.o(i._ZNK15QDomAttrPrivate8nodeTypeEv)
    QDomNodePrivate::isDocument() const      0x0001569b   Thumb Code     4  qdom.o(i._ZNK15QDomNodePrivate10isDocumentEv)
    QDomNodePrivate::isNotation() const      0x0001569f   Thumb Code     4  qdom.o(i._ZNK15QDomNodePrivate10isNotationEv)
    QDomNodePrivate::isCDATASection() const  0x000156a3   Thumb Code     4  qdom.o(i._ZNK15QDomNodePrivate14isCDATASectionEv)
    QDomNodePrivate::isDocumentType() const  0x000156a7   Thumb Code     4  qdom.o(i._ZNK15QDomNodePrivate14isDocumentTypeEv)
    QDomNodePrivate::isCharacterData() const 0x000156ab   Thumb Code     4  qdom.o(i._ZNK15QDomNodePrivate15isCharacterDataEv)
    QDomNodePrivate::isEntityReference() const 0x000156af   Thumb Code     4  qdom.o(i._ZNK15QDomNodePrivate17isEntityReferenceEv)
    QDomNodePrivate::isDocumentFragment() const 0x000156b3   Thumb Code     4  qdom.o(i._ZNK15QDomNodePrivate18isDocumentFragmentEv)
    QDomNodePrivate::isProcessingInstruction() const 0x000156b7   Thumb Code     4  qdom.o(i._ZNK15QDomNodePrivate23isProcessingInstructionEv)
    QDomNodePrivate::isAttr() const          0x000156bb   Thumb Code     4  qdom.o(i._ZNK15QDomNodePrivate6isAttrEv)
    QDomNodePrivate::isText() const          0x000156bf   Thumb Code     4  qdom.o(i._ZNK15QDomNodePrivate6isTextEv)
    QDomNodePrivate::parent() const          0x000156c3   Thumb Code    16  qdom.o(i._ZNK15QDomNodePrivate6parentEv)
    QDomNodePrivate::isEntity() const        0x000156d3   Thumb Code     4  qdom.o(i._ZNK15QDomNodePrivate8isEntityEv)
    QDomNodePrivate::nodeName() const        0x000156d7   Thumb Code    10  qdom.o(i._ZNK15QDomNodePrivate8nodeNameEv)
    QDomNodePrivate::nodeType() const        0x000156e1   Thumb Code     4  qdom.o(i._ZNK15QDomNodePrivate8nodeTypeEv)
    QDomNodePrivate::isComment() const       0x000156e5   Thumb Code     4  qdom.o(i._ZNK15QDomNodePrivate9isCommentEv)
    QDomNodePrivate::isElement() const       0x000156e9   Thumb Code     4  qdom.o(i._ZNK15QDomNodePrivate9isElementEv)
    QDomNodePrivate::nodeValue() const       0x000156ed   Thumb Code    10  qdom.o(i._ZNK15QDomNodePrivate9nodeValueEv)
    QDomTextPrivate::isText() const          0x000156f7   Thumb Code     4  qdom.o(i._ZNK15QDomTextPrivate6isTextEv)
    QDomTextPrivate::nodeType() const        0x000156fb   Thumb Code     4  qdom.o(i._ZNK15QDomTextPrivate8nodeTypeEv)
    QDomEntityPrivate::isEntity() const      0x000156ff   Thumb Code     4  qdom.o(i._ZNK17QDomEntityPrivate8isEntityEv)
    QDomEntityPrivate::nodeType() const      0x00015703   Thumb Code     4  qdom.o(i._ZNK17QDomEntityPrivate8nodeTypeEv)
    QDomCommentPrivate::nodeType() const     0x00015707   Thumb Code     4  qdom.o(i._ZNK18QDomCommentPrivate8nodeTypeEv)
    QDomCommentPrivate::isComment() const    0x0001570b   Thumb Code     4  qdom.o(i._ZNK18QDomCommentPrivate9isCommentEv)
    QDomElementPrivate::nodeType() const     0x0001570f   Thumb Code     4  qdom.o(i._ZNK18QDomElementPrivate8nodeTypeEv)
    QDomElementPrivate::isElement() const    0x00015713   Thumb Code     4  qdom.o(i._ZNK18QDomElementPrivate9isElementEv)
    QDomDocumentPrivate::isDocument() const  0x00015717   Thumb Code     4  qdom.o(i._ZNK19QDomDocumentPrivate10isDocumentEv)
    QDomDocumentPrivate::nodeType() const    0x0001571b   Thumb Code     4  qdom.o(i._ZNK19QDomDocumentPrivate8nodeTypeEv)
    QDomNotationPrivate::isNotation() const  0x0001571f   Thumb Code     4  qdom.o(i._ZNK19QDomNotationPrivate10isNotationEv)
    QDomNotationPrivate::nodeType() const    0x00015723   Thumb Code     4  qdom.o(i._ZNK19QDomNotationPrivate8nodeTypeEv)
    QDomCDATASectionPrivate::isCDATASection() const 0x00015727   Thumb Code     4  qdom.o(i._ZNK23QDomCDATASectionPrivate14isCDATASectionEv)
    QDomCDATASectionPrivate::nodeType() const 0x0001572b   Thumb Code     4  qdom.o(i._ZNK23QDomCDATASectionPrivate8nodeTypeEv)
    QDomDocumentTypePrivate::isDocumentType() const 0x0001572f   Thumb Code     4  qdom.o(i._ZNK23QDomDocumentTypePrivate14isDocumentTypeEv)
    QDomDocumentTypePrivate::nodeType() const 0x00015733   Thumb Code     4  qdom.o(i._ZNK23QDomDocumentTypePrivate8nodeTypeEv)
    QXmlSimpleReaderLocator::lineNumber() const 0x00015737   Thumb Code    20  qxml.o(i._ZNK23QXmlSimpleReaderLocator10lineNumberEv)
    QXmlSimpleReaderLocator::columnNumber() const 0x0001574b   Thumb Code    20  qxml.o(i._ZNK23QXmlSimpleReaderLocator12columnNumberEv)
    QXmlSimpleReaderPrivate::XmlRef::isEmpty() const 0x0001575f   Thumb Code    18  qxml.o(i._ZNK23QXmlSimpleReaderPrivate6XmlRef7isEmptyEv)
    QDomCharacterDataPrivate::isCharacterData() const 0x00015771   Thumb Code     4  qdom.o(i._ZNK24QDomCharacterDataPrivate15isCharacterDataEv)
    QDomCharacterDataPrivate::nodeType() const 0x00015775   Thumb Code     4  qdom.o(i._ZNK24QDomCharacterDataPrivate8nodeTypeEv)
    QDomEntityReferencePrivate::isEntityReference() const 0x00015779   Thumb Code     4  qdom.o(i._ZNK26QDomEntityReferencePrivate17isEntityReferenceEv)
    QDomEntityReferencePrivate::nodeType() const 0x0001577d   Thumb Code     4  qdom.o(i._ZNK26QDomEntityReferencePrivate8nodeTypeEv)
    QDomDocumentFragmentPrivate::isDocumentFragment() const 0x00015781   Thumb Code     4  qdom.o(i._ZNK27QDomDocumentFragmentPrivate18isDocumentFragmentEv)
    QDomDocumentFragmentPrivate::nodeType() const 0x00015785   Thumb Code     4  qdom.o(i._ZNK27QDomDocumentFragmentPrivate8nodeTypeEv)
    QDomProcessingInstructionPrivate::isProcessingInstruction() const 0x00015789   Thumb Code     4  qdom.o(i._ZNK32QDomProcessingInstructionPrivate23isProcessingInstructionEv)
    QDomProcessingInstructionPrivate::nodeType() const 0x0001578d   Thumb Code     4  qdom.o(i._ZNK32QDomProcessingInstructionPrivate8nodeTypeEv)
    QString::isNull() const                  0x00015791   Thumb Code    16  qdom.o(i._ZNK7QString6isNullEv)
    QString::isEmpty() const                 0x000157a5   Thumb Code    16  qdom.o(i._ZNK7QString7isEmptyEv)
    QString::operator !=(const QLatin1String&) const 0x000157b5   Thumb Code    12  qxml.o(i._ZNK7QStringneERK13QLatin1String)
    QString::operator !=(const QString&) const 0x000157c1   Thumb Code    12  qdom.o(i._ZNK7QStringneERKS_)
    QCharRef::operator QChar() const         0x000157cd   Thumb Code    26  qdom.o(i._ZNK8QCharRefcv5QCharEv)
    QListData::end() const                   0x000157e7   Thumb Code    12  qdom.o(i._ZNK9QListData3endEv)
    QListData::begin() const                 0x000157f3   Thumb Code    12  qdom.o(i._ZNK9QListData5beginEv)
    thunk{-12} to QXmlDefaultHandler::~QXmlDefaultHandler__deallocating() 0x000157ff   Thumb Code    10  qxml.o(i._ZThn12_N18QXmlDefaultHandlerD0Ev)
    thunk{-12} to QXmlDefaultHandler::~QXmlDefaultHandler() 0x00015809   Thumb Code    10  qxml.o(i._ZThn12_N18QXmlDefaultHandlerD1Ev)
    thunk{-16} to QXmlDefaultHandler::~QXmlDefaultHandler__deallocating() 0x00015813   Thumb Code    10  qxml.o(i._ZThn16_N18QXmlDefaultHandlerD0Ev)
    thunk{-16} to QXmlDefaultHandler::~QXmlDefaultHandler() 0x0001581d   Thumb Code    10  qxml.o(i._ZThn16_N18QXmlDefaultHandlerD1Ev)
    thunk{-20} to QXmlDefaultHandler::~QXmlDefaultHandler__deallocating() 0x00015827   Thumb Code    10  qxml.o(i._ZThn20_N18QXmlDefaultHandlerD0Ev)
    thunk{-20} to QXmlDefaultHandler::~QXmlDefaultHandler() 0x00015831   Thumb Code    10  qxml.o(i._ZThn20_N18QXmlDefaultHandlerD1Ev)
    thunk{-4} to QXmlDefaultHandler::~QXmlDefaultHandler__deallocating() 0x0001583b   Thumb Code    10  qxml.o(i._ZThn4_N18QXmlDefaultHandlerD0Ev)
    thunk{-4} to QXmlDefaultHandler::~QXmlDefaultHandler() 0x00015845   Thumb Code    10  qxml.o(i._ZThn4_N18QXmlDefaultHandlerD1Ev)
    thunk{-8} to QXmlDefaultHandler::~QXmlDefaultHandler__deallocating() 0x0001584f   Thumb Code    10  qxml.o(i._ZThn8_N18QXmlDefaultHandlerD0Ev)
    thunk{-8} to QXmlDefaultHandler::~QXmlDefaultHandler() 0x00015859   Thumb Code    10  qxml.o(i._ZThn8_N18QXmlDefaultHandlerD1Ev)
    operator delete (void*, void*)           0x00015863   Thumb Code     2  qdom.o(i._ZdlPvS_)
    operator ==(QChar, QChar)                0x00015865   Thumb Code    20  qdom.o(i._Zeq5QCharS_)
    operator !=(QChar, QChar)                0x00015879   Thumb Code    20  qxml.o(i._Zne5QCharS_)
    operator new(unsigned, void*)            0x0001588d   Thumb Code     4  qdom.o(i._ZnwjPv)
    qMapLessThanKey<QString>(const T1&, const T1&) 0x00015891   Thumb Code     8  qxml.o(t._Z15qMapLessThanKeyI7QStringEbRKT_S3_)
    qMin<int>(const T1&, const T1&)          0x00015899   Thumb Code    12  qxml.o(t._Z4qMinIiERKT_S2_S2_)
    QConcatenable<QStringBuilder<QLatin1Char, QString>>::size(const QStringBuilder<QLatin1Char, QString>&) 0x000158a5   Thumb Code    12  qxml.o(t._ZN13QConcatenableI14QStringBuilderI11QLatin1Char7QStringEE4sizeERKS3_)
    QConcatenable<QStringBuilder<QLatin1Char, QString>>::appendTo(const QStringBuilder<QLatin1Char, QString>&, QChar*&) 0x000158b1   Thumb Code    42  qxml.o(t._ZN13QConcatenableI14QStringBuilderI11QLatin1Char7QStringEE8appendToERKS3_RP5QChar)
    QConcatenable<QStringBuilder<QLatin1String, QString>>::size(const QStringBuilder<QLatin1String, QString>&) 0x000158db   Thumb Code    30  qdom.o(t._ZN13QConcatenableI14QStringBuilderI13QLatin1String7QStringEE4sizeERKS3_)
    QConcatenable<QStringBuilder<QLatin1String, QString>>::appendTo(const QStringBuilder<QLatin1String, QString>&, QChar*&) 0x000158f9   Thumb Code    48  qdom.o(t._ZN13QConcatenableI14QStringBuilderI13QLatin1String7QStringEE8appendToERKS3_RP5QChar)
    QHashDummyNode<QString, QHashDummyValue>::QHashDummyNode(const QString&) 0x00015929   Thumb Code    12  qdom.o(t._ZN14QHashDummyNodeI7QString15QHashDummyValueEC1ERKS0_)
    QHashDummyNode<QString, QHashDummyValue>::QHashDummyNode__sub_object(const QString&) 0x00015929   Thumb Code     0  qdom.o(t._ZN14QHashDummyNodeI7QString15QHashDummyValueEC1ERKS0_)
    QScopedPointer<QXmlLocator, QScopedPointerDeleter<QXmlLocator>>::~QScopedPointer() 0x00015935   Thumb Code    24  qxml.o(t._ZN14QScopedPointerI11QXmlLocator21QScopedPointerDeleterIS0_EED1Ev)
    QScopedPointer<QXmlLocator, QScopedPointerDeleter<QXmlLocator>>::~QScopedPointer__sub_object() 0x00015935   Thumb Code     0  qxml.o(t._ZN14QScopedPointerI11QXmlLocator21QScopedPointerDeleterIS0_EED1Ev)
    QScopedPointer<QDomNodePrivate, QScopedPointerDeleter<QDomNodePrivate>>::reset(QDomNodePrivate*) 0x0001594d   Thumb Code    24  qdom.o(t._ZN14QScopedPointerI15QDomNodePrivate21QScopedPointerDeleterIS0_EE5resetEPS0_)
    QScopedPointer<QDomNodePrivate, QScopedPointerDeleter<QDomNodePrivate>>::~QScopedPointer() 0x00015965   Thumb Code    24  qdom.o(t._ZN14QScopedPointerI15QDomNodePrivate21QScopedPointerDeleterIS0_EED1Ev)
    QScopedPointer<QDomNodePrivate, QScopedPointerDeleter<QDomNodePrivate>>::~QScopedPointer__sub_object() 0x00015965   Thumb Code     0  qdom.o(t._ZN14QScopedPointerI15QDomNodePrivate21QScopedPointerDeleterIS0_EED1Ev)
    QScopedPointer<QDomEntityPrivate, QScopedPointerDeleter<QDomEntityPrivate>>::~QScopedPointer() 0x0001597d   Thumb Code    24  qdom.o(t._ZN14QScopedPointerI17QDomEntityPrivate21QScopedPointerDeleterIS0_EED1Ev)
    QScopedPointer<QDomEntityPrivate, QScopedPointerDeleter<QDomEntityPrivate>>::~QScopedPointer__sub_object() 0x0001597d   Thumb Code     0  qdom.o(t._ZN14QScopedPointerI17QDomEntityPrivate21QScopedPointerDeleterIS0_EED1Ev)
    QScopedPointer<QDomNamedNodeMapPrivate, QScopedPointerDeleter<QDomNamedNodeMapPrivate>>::~QScopedPointer() 0x00015995   Thumb Code    26  qdom.o(t._ZN14QScopedPointerI23QDomNamedNodeMapPrivate21QScopedPointerDeleterIS0_EED1Ev)
    QScopedPointer<QDomNamedNodeMapPrivate, QScopedPointerDeleter<QDomNamedNodeMapPrivate>>::~QScopedPointer__sub_object() 0x00015995   Thumb Code     0  qdom.o(t._ZN14QScopedPointerI23QDomNamedNodeMapPrivate21QScopedPointerDeleterIS0_EED1Ev)
    QScopedPointer<QXmlSimpleReaderPrivate, QScopedPointerDeleter<QXmlSimpleReaderPrivate>>::~QScopedPointer() 0x000159af   Thumb Code    26  qxml.o(t._ZN14QScopedPointerI23QXmlSimpleReaderPrivate21QScopedPointerDeleterIS0_EED1Ev)
    QScopedPointer<QXmlSimpleReaderPrivate, QScopedPointerDeleter<QXmlSimpleReaderPrivate>>::~QScopedPointer__sub_object() 0x000159af   Thumb Code     0  qxml.o(t._ZN14QScopedPointerI23QXmlSimpleReaderPrivate21QScopedPointerDeleterIS0_EED1Ev)
    QScopedPointer<QXmlParseExceptionPrivate, QScopedPointerDeleter<QXmlParseExceptionPrivate>>::~QScopedPointer() 0x000159c9   Thumb Code    48  qxml.o(t._ZN14QScopedPointerI25QXmlParseExceptionPrivate21QScopedPointerDeleterIS0_EED1Ev)
    QScopedPointer<QXmlParseExceptionPrivate, QScopedPointerDeleter<QXmlParseExceptionPrivate>>::~QScopedPointer__sub_object() 0x000159c9   Thumb Code     0  qxml.o(t._ZN14QScopedPointerI25QXmlParseExceptionPrivate21QScopedPointerDeleterIS0_EED1Ev)
    QExplicitlySharedDataPointer<QDomDocumentTypePrivate>::~QExplicitlySharedDataPointer() 0x00015a0f   Thumb Code    36  qdom.o(t._ZN28QExplicitlySharedDataPointerI23QDomDocumentTypePrivateED1Ev)
    QExplicitlySharedDataPointer<QDomDocumentTypePrivate>::~QExplicitlySharedDataPointer__sub_object() 0x00015a0f   Thumb Code     0  qdom.o(t._ZN28QExplicitlySharedDataPointerI23QDomDocumentTypePrivateED1Ev)
    QExplicitlySharedDataPointer<QDomDocumentTypePrivate>::operator =(QDomDocumentTypePrivate*) 0x00015a33   Thumb Code    52  qdom.o(t._ZN28QExplicitlySharedDataPointerI23QDomDocumentTypePrivateEaSEPS0_)
    QExplicitlySharedDataPointer<QDomImplementationPrivate>::QExplicitlySharedDataPointer(QDomImplementationPrivate*) 0x00015a67   Thumb Code    18  qdom.o(t._ZN28QExplicitlySharedDataPointerI25QDomImplementationPrivateEC1EPS0_)
    QExplicitlySharedDataPointer<QDomImplementationPrivate>::QExplicitlySharedDataPointer__sub_object(QDomImplementationPrivate*) 0x00015a67   Thumb Code     0  qdom.o(t._ZN28QExplicitlySharedDataPointerI25QDomImplementationPrivateEC1EPS0_)
    QExplicitlySharedDataPointer<QDomImplementationPrivate>::~QExplicitlySharedDataPointer() 0x00015a79   Thumb Code    28  qdom.o(t._ZN28QExplicitlySharedDataPointerI25QDomImplementationPrivateED1Ev)
    QExplicitlySharedDataPointer<QDomImplementationPrivate>::~QExplicitlySharedDataPointer__sub_object() 0x00015a79   Thumb Code     0  qdom.o(t._ZN28QExplicitlySharedDataPointerI25QDomImplementationPrivateED1Ev)
    QMap<QString, QXmlSimpleReaderPrivate::ExternEntity>::node_create(QMapData*, QMapData::Node**, const QString&, const QXmlSimpleReaderPrivate::ExternEntity&) 0x00015a95   Thumb Code   132  qxml.o(t._ZN4QMapI7QStringN23QXmlSimpleReaderPrivate12ExternEntityEE11node_createEP8QMapDataPPNS4_4NodeERKS0_RKS2_)
    QMap<QString, QXmlSimpleReaderPrivate::ExternEntity>::detach_helper() 0x00015b4f   Thumb Code   114  qxml.o(t._ZN4QMapI7QStringN23QXmlSimpleReaderPrivate12ExternEntityEE13detach_helperEv)
    QMap<QString, QXmlSimpleReaderPrivate::ExternEntity>::detach() 0x00015bc9   Thumb Code    26  qxml.o(t._ZN4QMapI7QStringN23QXmlSimpleReaderPrivate12ExternEntityEE6detachEv)
    QMap<QString, QXmlSimpleReaderPrivate::ExternEntity>::insert(const QString&, const QXmlSimpleReaderPrivate::ExternEntity&) 0x00015be3   Thumb Code   154  qxml.o(t._ZN4QMapI7QStringN23QXmlSimpleReaderPrivate12ExternEntityEE6insertERKS0_RKS2_)
    QMap<QString, QXmlSimpleReaderPrivate::ExternEntity>::freeData(QMapData*) 0x00015c7d   Thumb Code    42  qxml.o(t._ZN4QMapI7QStringN23QXmlSimpleReaderPrivate12ExternEntityEE8freeDataEP8QMapData)
    QMap<QString, QXmlSimpleReaderPrivate::ExternEntity>::QMap() 0x00015ca9   Thumb Code    18  qxml.o(t._ZN4QMapI7QStringN23QXmlSimpleReaderPrivate12ExternEntityEEC1Ev)
    QMap<QString, QXmlSimpleReaderPrivate::ExternEntity>::QMap__sub_object() 0x00015ca9   Thumb Code     0  qxml.o(t._ZN4QMapI7QStringN23QXmlSimpleReaderPrivate12ExternEntityEEC1Ev)
    QMap<QString, QXmlSimpleReaderPrivate::ExternEntity>::~QMap() 0x00015cc1   Thumb Code    32  qxml.o(t._ZN4QMapI7QStringN23QXmlSimpleReaderPrivate12ExternEntityEED1Ev)
    QMap<QString, QXmlSimpleReaderPrivate::ExternEntity>::~QMap__sub_object() 0x00015cc1   Thumb Code     0  qxml.o(t._ZN4QMapI7QStringN23QXmlSimpleReaderPrivate12ExternEntityEED1Ev)
    QMap<QString, QXmlSimpleReaderPrivate::ExternParameterEntity>::node_create(QMapData*, QMapData::Node**, const QString&, const QXmlSimpleReaderPrivate::ExternParameterEntity&) 0x00015ce1   Thumb Code   118  qxml.o(t._ZN4QMapI7QStringN23QXmlSimpleReaderPrivate21ExternParameterEntityEE11node_createEP8QMapDataPPNS4_4NodeERKS0_RKS2_)
    QMap<QString, QXmlSimpleReaderPrivate::ExternParameterEntity>::detach_helper() 0x00015d85   Thumb Code   114  qxml.o(t._ZN4QMapI7QStringN23QXmlSimpleReaderPrivate21ExternParameterEntityEE13detach_helperEv)
    QMap<QString, QXmlSimpleReaderPrivate::ExternParameterEntity>::detach() 0x00015dff   Thumb Code    26  qxml.o(t._ZN4QMapI7QStringN23QXmlSimpleReaderPrivate21ExternParameterEntityEE6detachEv)
    QMap<QString, QXmlSimpleReaderPrivate::ExternParameterEntity>::insert(const QString&, const QXmlSimpleReaderPrivate::ExternParameterEntity&) 0x00015e19   Thumb Code   142  qxml.o(t._ZN4QMapI7QStringN23QXmlSimpleReaderPrivate21ExternParameterEntityEE6insertERKS0_RKS2_)
    QMap<QString, QXmlSimpleReaderPrivate::ExternParameterEntity>::freeData(QMapData*) 0x00015ea7   Thumb Code    42  qxml.o(t._ZN4QMapI7QStringN23QXmlSimpleReaderPrivate21ExternParameterEntityEE8freeDataEP8QMapData)
    QMap<QString, QXmlSimpleReaderPrivate::ExternParameterEntity>::QMap() 0x00015ed1   Thumb Code    18  qxml.o(t._ZN4QMapI7QStringN23QXmlSimpleReaderPrivate21ExternParameterEntityEEC1Ev)
    QMap<QString, QXmlSimpleReaderPrivate::ExternParameterEntity>::QMap__sub_object() 0x00015ed1   Thumb Code     0  qxml.o(t._ZN4QMapI7QStringN23QXmlSimpleReaderPrivate21ExternParameterEntityEEC1Ev)
    QMap<QString, QXmlSimpleReaderPrivate::ExternParameterEntity>::~QMap() 0x00015ee9   Thumb Code    32  qxml.o(t._ZN4QMapI7QStringN23QXmlSimpleReaderPrivate21ExternParameterEntityEED1Ev)
    QMap<QString, QXmlSimpleReaderPrivate::ExternParameterEntity>::~QMap__sub_object() 0x00015ee9   Thumb Code     0  qxml.o(t._ZN4QMapI7QStringN23QXmlSimpleReaderPrivate21ExternParameterEntityEED1Ev)
    QMap<QString, QString>::node_create(QMapData*, QMapData::Node**, const QString&, const QString&) 0x00015f09   Thumb Code   106  qxml.o(t._ZN4QMapI7QStringS0_E11node_createEP8QMapDataPPNS2_4NodeERKS0_S8_)
    QMap<QString, QString>::detach_helper()  0x00015f99   Thumb Code   114  qxml.o(t._ZN4QMapI7QStringS0_E13detach_helperEv)
    QMap<QString, QString>::end()            0x00016013   Thumb Code    12  qxml.o(t._ZN4QMapI7QStringS0_E3endEv)
    QMap<QString, QString>::find(const QString&) 0x0001601f   Thumb Code    20  qxml.o(t._ZN4QMapI7QStringS0_E4findERKS0_)
    QMap<QString, QString>::clear()          0x00016033   Thumb Code    26  qxml.o(t._ZN4QMapI7QStringS0_E5clearEv)
    QMap<QString, QString>::detach()         0x00016057   Thumb Code    26  qxml.o(t._ZN4QMapI7QStringS0_E6detachEv)
    QMap<QString, QString>::insert(const QString&, const QString&) 0x00016071   Thumb Code    62  qxml.o(t._ZN4QMapI7QStringS0_E6insertERKS0_S3_)
    QMap<QString, QString>::freeData(QMapData*) 0x000160af   Thumb Code    42  qxml.o(t._ZN4QMapI7QStringS0_E8freeDataEP8QMapData)
    QMap<QString, QString>::QMap(const QMap<QString, QString>&) 0x000160d9   Thumb Code    32  qxml.o(t._ZN4QMapI7QStringS0_EC1ERKS1_)
    QMap<QString, QString>::QMap__sub_object(const QMap<QString, QString>&) 0x000160d9   Thumb Code     0  qxml.o(t._ZN4QMapI7QStringS0_EC1ERKS1_)
    QMap<QString, QString>::QMap()           0x000160f9   Thumb Code    18  qxml.o(t._ZN4QMapI7QStringS0_EC1Ev)
    QMap<QString, QString>::QMap__sub_object() 0x000160f9   Thumb Code     0  qxml.o(t._ZN4QMapI7QStringS0_EC1Ev)
    QMap<QString, QString>::~QMap()          0x00016111   Thumb Code    32  qxml.o(t._ZN4QMapI7QStringS0_ED1Ev)
    QMap<QString, QString>::~QMap__sub_object() 0x00016111   Thumb Code     0  qxml.o(t._ZN4QMapI7QStringS0_ED1Ev)
    QMap<QString, QString>::operator =(const QMap<QString, QString>&) 0x00016131   Thumb Code    58  qxml.o(t._ZN4QMapI7QStringS0_EaSERKS1_)
    QHash<QString, QHashDummyValue>::deleteNode2(QHashData::Node*) 0x0001616b   Thumb Code    10  qdom.o(t._ZN5QHashI7QString15QHashDummyValueE11deleteNode2EPN9QHashData4NodeE)
    QHash<QString, QHashDummyValue>::duplicateNode(QHashData::Node*, void*) 0x00016175   Thumb Code    28  qdom.o(t._ZN5QHashI7QString15QHashDummyValueE13duplicateNodeEPN9QHashData4NodeEPv)
    QHash<QString, QHashDummyValue>::insert(const QString&, const QHashDummyValue&) 0x0001619d   Thumb Code   160  qdom.o(t._ZN5QHashI7QString15QHashDummyValueE6insertERKS0_RKS1_)
    QHash<QString, QHashDummyValue>::freeData(QHashData*) 0x00016251   Thumb Code    12  qdom.o(t._ZN5QHashI7QString15QHashDummyValueE8freeDataEP9QHashData)
    QHash<QString, QHashDummyValue>::~QHash() 0x00016261   Thumb Code    28  qdom.o(t._ZN5QHashI7QString15QHashDummyValueED1Ev)
    QHash<QString, QHashDummyValue>::~QHash__sub_object() 0x00016261   Thumb Code     0  qdom.o(t._ZN5QHashI7QString15QHashDummyValueED1Ev)
    QHash<QString, QDomNodePrivate*>::deleteNode2(QHashData::Node*) 0x0001627d   Thumb Code    10  qdom.o(t._ZN5QHashI7QStringP15QDomNodePrivateE11deleteNode2EPN9QHashData4NodeE)
    QHash<QString, QDomNodePrivate*>::insertMulti(const QString&, QDomNodePrivate*const &) 0x00016287   Thumb Code    86  qdom.o(t._ZN5QHashI7QStringP15QDomNodePrivateE11insertMultiERKS0_RKS2_)
    QHash<QString, QDomNodePrivate*>::detach_helper() 0x000162e9   Thumb Code    46  qdom.o(t._ZN5QHashI7QStringP15QDomNodePrivateE13detach_helperEv)
    QHash<QString, QDomNodePrivate*>::duplicateNode(QHashData::Node*, void*) 0x00016321   Thumb Code    30  qdom.o(t._ZN5QHashI7QStringP15QDomNodePrivateE13duplicateNodeEPN9QHashData4NodeEPv)
    QHash<QString, QDomNodePrivate*>::const_iterator::operator ++() 0x0001634b   Thumb Code    16  qdom.o(t._ZN5QHashI7QStringP15QDomNodePrivateE14const_iteratorppEv)
    QHash<QString, QDomNodePrivate*>::detach() 0x0001635b   Thumb Code    26  qdom.o(t._ZN5QHashI7QStringP15QDomNodePrivateE6detachEv)
    QHash<QString, QDomNodePrivate*>::remove(const QString&) 0x00016375   Thumb Code   188  qdom.o(t._ZN5QHashI7QStringP15QDomNodePrivateE6removeERKS0_)
    QHash<QString, QDomNodePrivate*>::freeData(QHashData*) 0x00016431   Thumb Code    12  qdom.o(t._ZN5QHashI7QStringP15QDomNodePrivateE8freeDataEP9QHashData)
    QHash<QString, QDomNodePrivate*>::QHash() 0x00016441   Thumb Code    18  qdom.o(t._ZN5QHashI7QStringP15QDomNodePrivateEC1Ev)
    QHash<QString, QDomNodePrivate*>::QHash__sub_object() 0x00016441   Thumb Code     0  qdom.o(t._ZN5QHashI7QStringP15QDomNodePrivateEC1Ev)
    QHash<QString, QDomNodePrivate*>::~QHash() 0x00016459   Thumb Code    28  qdom.o(t._ZN5QHashI7QStringP15QDomNodePrivateED1Ev)
    QHash<QString, QDomNodePrivate*>::~QHash__sub_object() 0x00016459   Thumb Code     0  qdom.o(t._ZN5QHashI7QStringP15QDomNodePrivateED1Ev)
    QList<QString>::detach_helper()          0x00016475   Thumb Code    88  qxml.o(t._ZN5QListI7QStringE13detach_helperEv)
    QList<QString>::node_construct(QList<QString>::Node*, const QString&) 0x000164d5   Thumb Code    26  qxml.o(t._ZN5QListI7QStringE14node_constructEPNS1_4NodeERKS0_)
    QList<QString>::detach_helper_grow(int, int) 0x000164fb   Thumb Code   186  qxml.o(t._ZN5QListI7QStringE18detach_helper_growEii)
    QList<QString>::free(QListData::Data*)   0x000165bd   Thumb Code    54  qxml.o(t._ZN5QListI7QStringE4freeEPN9QListData4DataE)
    QList<QString>::append(const QString&)   0x000165f5   Thumb Code    94  qxml.o(t._ZN5QListI7QStringE6appendERKS0_)
    QList<QString>::detach()                 0x00016661   Thumb Code    24  qxml.o(t._ZN5QListI7QStringE6detachEv)
    QList<QString>::node_copy(QList<QString>::Node*, QList<QString>::Node*, QList<QString>::Node*) 0x00016679   Thumb Code    70  qxml.o(t._ZN5QListI7QStringE9node_copyEPNS1_4NodeES3_S3_)
    QList<QString>::~QList()                 0x000166d5   Thumb Code    30  qxml.o(t._ZN5QListI7QStringED1Ev)
    QList<QString>::~QList__sub_object()     0x000166d5   Thumb Code     0  qxml.o(t._ZN5QListI7QStringED1Ev)
    QList<QXmlAttributes::Attribute>::detach_helper() 0x000166f3   Thumb Code    88  qxml.o(t._ZN5QListIN14QXmlAttributes9AttributeEE13detach_helperEv)
    QList<QXmlAttributes::Attribute>::node_destruct(QList<QXmlAttributes::Attribute>::Node*, QList<QXmlAttributes::Attribute>::Node*) 0x00016753   Thumb Code    30  qxml.o(t._ZN5QListIN14QXmlAttributes9AttributeEE13node_destructEPNS2_4NodeES4_)
    QList<QXmlAttributes::Attribute>::node_construct(QList<QXmlAttributes::Attribute>::Node*, const QXmlAttributes::Attribute&) 0x00016771   Thumb Code    24  qxml.o(t._ZN5QListIN14QXmlAttributes9AttributeEE14node_constructEPNS2_4NodeERKS1_)
    QList<QXmlAttributes::Attribute>::detach_helper_grow(int, int) 0x00016793   Thumb Code   180  qxml.o(t._ZN5QListIN14QXmlAttributes9AttributeEE18detach_helper_growEii)
    QList<QXmlAttributes::Attribute>::free(QListData::Data*) 0x0001684f   Thumb Code    44  qxml.o(t._ZN5QListIN14QXmlAttributes9AttributeEE4freeEPN9QListData4DataE)
    QList<QXmlAttributes::Attribute>::append(const QXmlAttributes::Attribute&) 0x0001687d   Thumb Code    90  qxml.o(t._ZN5QListIN14QXmlAttributes9AttributeEE6appendERKS1_)
    QList<QXmlAttributes::Attribute>::node_copy(QList<QXmlAttributes::Attribute>::Node*, QList<QXmlAttributes::Attribute>::Node*, QList<QXmlAttributes::Attribute>::Node*) 0x000168e5   Thumb Code    72  qxml.o(t._ZN5QListIN14QXmlAttributes9AttributeEE9node_copyEPNS2_4NodeES4_S4_)
    QList<QXmlAttributes::Attribute>::QList() 0x00016941   Thumb Code    16  qxml.o(t._ZN5QListIN14QXmlAttributes9AttributeEEC1Ev)
    QList<QXmlAttributes::Attribute>::QList__sub_object() 0x00016941   Thumb Code     0  qxml.o(t._ZN5QListIN14QXmlAttributes9AttributeEEC1Ev)
    QList<QXmlAttributes::Attribute>::~QList() 0x00016955   Thumb Code    30  qxml.o(t._ZN5QListIN14QXmlAttributes9AttributeEED1Ev)
    QList<QXmlAttributes::Attribute>::~QList__sub_object() 0x00016955   Thumb Code     0  qxml.o(t._ZN5QListIN14QXmlAttributes9AttributeEED1Ev)
    QList<QDomNodePrivate*>::detach_helper() 0x00016973   Thumb Code    88  qdom.o(t._ZN5QListIP15QDomNodePrivateE13detach_helperEv)
    QList<QDomNodePrivate*>::detach_helper_grow(int, int) 0x000169d3   Thumb Code   164  qdom.o(t._ZN5QListIP15QDomNodePrivateE18detach_helper_growEii)
    QList<QDomNodePrivate*>::free(QListData::Data*) 0x00016a7f   Thumb Code    16  qdom.o(t._ZN5QListIP15QDomNodePrivateE4freeEPN9QListData4DataE)
    QList<QDomNodePrivate*>::append(QDomNodePrivate*const &) 0x00016a91   Thumb Code    54  qdom.o(t._ZN5QListIP15QDomNodePrivateE6appendERKS1_)
    QList<QDomNodePrivate*>::node_copy(QList<QDomNodePrivate*>::Node*, QList<QDomNodePrivate*>::Node*, QList<QDomNodePrivate*>::Node*) 0x00016ad7   Thumb Code    28  qdom.o(t._ZN5QListIP15QDomNodePrivateE9node_copyEPNS2_4NodeES4_S4_)
    QList<QDomNodePrivate*>::QList()         0x00016af5   Thumb Code    16  qdom.o(t._ZN5QListIP15QDomNodePrivateEC1Ev)
    QList<QDomNodePrivate*>::QList__sub_object() 0x00016af5   Thumb Code     0  qdom.o(t._ZN5QListIP15QDomNodePrivateEC1Ev)
    QList<QDomNodePrivate*>::~QList()        0x00016b09   Thumb Code    30  qdom.o(t._ZN5QListIP15QDomNodePrivateED1Ev)
    QList<QDomNodePrivate*>::~QList__sub_object() 0x00016b09   Thumb Code     0  qdom.o(t._ZN5QListIP15QDomNodePrivateED1Ev)
    QStack<QMap<QString, QString>>::pop()    0x00016b27   Thumb Code   100  qxml.o(t._ZN6QStackI4QMapI7QStringS1_EE3popEv)
    QStack<QMap<QString, QString>>::~QStack() 0x00016b95   Thumb Code     8  qxml.o(t._ZN6QStackI4QMapI7QStringS1_EED1Ev)
    QStack<QMap<QString, QString>>::~QStack__sub_object() 0x00016b95   Thumb Code     0  qxml.o(t._ZN6QStackI4QMapI7QStringS1_EED1Ev)
    QStack<QString>::pop()                   0x00016b9d   Thumb Code    82  qxml.o(t._ZN6QStackI7QStringE3popEv)
    QStack<QString>::top()                   0x00016bf9   Thumb Code    30  qxml.o(t._ZN6QStackI7QStringE3topEv)
    QStack<QString>::~QStack()               0x00016c17   Thumb Code     8  qxml.o(t._ZN6QStackI7QStringED1Ev)
    QStack<QString>::~QStack__sub_object()   0x00016c17   Thumb Code     0  qxml.o(t._ZN6QStackI7QStringED1Ev)
    QStack<QXmlSimpleReaderPrivate::ParseState>::pop() 0x00016c1f   Thumb Code    88  qxml.o(t._ZN6QStackIN23QXmlSimpleReaderPrivate10ParseStateEE3popEv)
    QStack<QXmlSimpleReaderPrivate::ParseState>::top() 0x00016c77   Thumb Code    32  qxml.o(t._ZN6QStackIN23QXmlSimpleReaderPrivate10ParseStateEE3topEv)
    QStack<QXmlSimpleReaderPrivate::XmlRef>::top() 0x00016c97   Thumb Code    32  qxml.o(t._ZN6QStackIN23QXmlSimpleReaderPrivate6XmlRefEE3topEv)
    QStack<QXmlSimpleReaderPrivate::XmlRef>::~QStack() 0x00016cb7   Thumb Code     8  qxml.o(t._ZN6QStackIN23QXmlSimpleReaderPrivate6XmlRefEED1Ev)
    QStack<QXmlSimpleReaderPrivate::XmlRef>::~QStack__sub_object() 0x00016cb7   Thumb Code     0  qxml.o(t._ZN6QStackIN23QXmlSimpleReaderPrivate6XmlRefEED1Ev)
    QVector<QMap<QString, QString>>::free(QVectorTypedData<QMap<QString, QString>>*) 0x00016cbf   Thumb Code    40  qxml.o(t._ZN7QVectorI4QMapI7QStringS1_EE4freeEP16QVectorTypedDataIS2_E)
    QVector<QMap<QString, QString>>::append(const QMap<QString, QString>&) 0x00016ce7   Thumb Code   140  qxml.o(t._ZN7QVectorI4QMapI7QStringS1_EE6appendERKS2_)
    QVector<QMap<QString, QString>>::realloc(int, int) 0x00016d8f   Thumb Code   306  qxml.o(t._ZN7QVectorI4QMapI7QStringS1_EE7reallocEii)
    QVector<QMap<QString, QString>>::~QVector() 0x00016edf   Thumb Code    30  qxml.o(t._ZN7QVectorI4QMapI7QStringS1_EED1Ev)
    QVector<QMap<QString, QString>>::~QVector__sub_object() 0x00016edf   Thumb Code     0  qxml.o(t._ZN7QVectorI4QMapI7QStringS1_EED1Ev)
    QVector<QString>::detach_helper()        0x00016efd   Thumb Code    14  qxml.o(t._ZN7QVectorI7QStringE13detach_helperEv)
    QVector<QString>::free(QVectorTypedData<QString>*) 0x00016f0b   Thumb Code    40  qxml.o(t._ZN7QVectorI7QStringE4freeEP16QVectorTypedDataIS0_E)
    QVector<QString>::clear()                0x00016f33   Thumb Code    58  qxml.o(t._ZN7QVectorI7QStringE5clearEv)
    QVector<QString>::erase(QString*, QString*) 0x00016f77   Thumb Code   122  qxml.o(t._ZN7QVectorI7QStringE5eraseEPS0_S2_)
    QVector<QString>::append(const QString&) 0x00016ff1   Thumb Code   140  qxml.o(t._ZN7QVectorI7QStringE6appendERKS0_)
    QVector<QString>::detach()               0x00017099   Thumb Code    24  qxml.o(t._ZN7QVectorI7QStringE6detachEv)
    QVector<QString>::realloc(int, int)      0x000170b1   Thumb Code   372  qxml.o(t._ZN7QVectorI7QStringE7reallocEii)
    QVector<QString>::QVector()              0x00017241   Thumb Code    16  qxml.o(t._ZN7QVectorI7QStringEC1Ev)
    QVector<QString>::QVector__sub_object()  0x00017241   Thumb Code     0  qxml.o(t._ZN7QVectorI7QStringEC1Ev)
    QVector<QString>::~QVector()             0x00017255   Thumb Code    30  qxml.o(t._ZN7QVectorI7QStringED1Ev)
    QVector<QString>::~QVector__sub_object() 0x00017255   Thumb Code     0  qxml.o(t._ZN7QVectorI7QStringED1Ev)
    QVector<QXmlSimpleReaderPrivate::ParseState>::detach_helper() 0x00017273   Thumb Code    14  qxml.o(t._ZN7QVectorIN23QXmlSimpleReaderPrivate10ParseStateEE13detach_helperEv)
    QVector<QXmlSimpleReaderPrivate::ParseState>::free(QVectorTypedData<QXmlSimpleReaderPrivate::ParseState>*) 0x00017281   Thumb Code    30  qxml.o(t._ZN7QVectorIN23QXmlSimpleReaderPrivate10ParseStateEE4freeEP16QVectorTypedDataIS1_E)
    QVector<QXmlSimpleReaderPrivate::ParseState>::append(const QXmlSimpleReaderPrivate::ParseState&) 0x0001729f   Thumb Code   126  qxml.o(t._ZN7QVectorIN23QXmlSimpleReaderPrivate10ParseStateEE6appendERKS1_)
    QVector<QXmlSimpleReaderPrivate::ParseState>::detach() 0x0001731d   Thumb Code    24  qxml.o(t._ZN7QVectorIN23QXmlSimpleReaderPrivate10ParseStateEE6detachEv)
    QVector<QXmlSimpleReaderPrivate::ParseState>::realloc(int, int) 0x00017335   Thumb Code   270  qxml.o(t._ZN7QVectorIN23QXmlSimpleReaderPrivate10ParseStateEE7reallocEii)
    QVector<QXmlSimpleReaderPrivate::ParseState>::QVector() 0x0001744d   Thumb Code    16  qxml.o(t._ZN7QVectorIN23QXmlSimpleReaderPrivate10ParseStateEEC1Ev)
    QVector<QXmlSimpleReaderPrivate::ParseState>::QVector__sub_object() 0x0001744d   Thumb Code     0  qxml.o(t._ZN7QVectorIN23QXmlSimpleReaderPrivate10ParseStateEEC1Ev)
    QVector<QXmlSimpleReaderPrivate::ParseState>::~QVector() 0x00017461   Thumb Code    30  qxml.o(t._ZN7QVectorIN23QXmlSimpleReaderPrivate10ParseStateEED1Ev)
    QVector<QXmlSimpleReaderPrivate::ParseState>::~QVector__sub_object() 0x00017461   Thumb Code     0  qxml.o(t._ZN7QVectorIN23QXmlSimpleReaderPrivate10ParseStateEED1Ev)
    QVector<QXmlSimpleReaderPrivate::XmlRef>::detach_helper() 0x0001747f   Thumb Code    14  qxml.o(t._ZN7QVectorIN23QXmlSimpleReaderPrivate6XmlRefEE13detach_helperEv)
    QVector<QXmlSimpleReaderPrivate::XmlRef>::free(QVectorTypedData<QXmlSimpleReaderPrivate::XmlRef>*) 0x0001748d   Thumb Code    42  qxml.o(t._ZN7QVectorIN23QXmlSimpleReaderPrivate6XmlRefEE4freeEP16QVectorTypedDataIS1_E)
    QVector<QXmlSimpleReaderPrivate::XmlRef>::erase(QXmlSimpleReaderPrivate::XmlRef*, QXmlSimpleReaderPrivate::XmlRef*) 0x000174b7   Thumb Code   178  qxml.o(t._ZN7QVectorIN23QXmlSimpleReaderPrivate6XmlRefEE5eraseEPS1_S3_)
    QVector<QXmlSimpleReaderPrivate::XmlRef>::append(const QXmlSimpleReaderPrivate::XmlRef&) 0x00017569   Thumb Code   144  qxml.o(t._ZN7QVectorIN23QXmlSimpleReaderPrivate6XmlRefEE6appendERKS1_)
    QVector<QXmlSimpleReaderPrivate::XmlRef>::detach() 0x00017615   Thumb Code    24  qxml.o(t._ZN7QVectorIN23QXmlSimpleReaderPrivate6XmlRefEE6detachEv)
    QVector<QXmlSimpleReaderPrivate::XmlRef>::realloc(int, int) 0x0001762d   Thumb Code   324  qxml.o(t._ZN7QVectorIN23QXmlSimpleReaderPrivate6XmlRefEE7reallocEii)
    QVector<QXmlSimpleReaderPrivate::XmlRef>::pop_back() 0x00017795   Thumb Code    32  qxml.o(t._ZN7QVectorIN23QXmlSimpleReaderPrivate6XmlRefEE8pop_backEv)
    QVector<QXmlSimpleReaderPrivate::XmlRef>::QVector() 0x000177b5   Thumb Code    16  qxml.o(t._ZN7QVectorIN23QXmlSimpleReaderPrivate6XmlRefEEC1Ev)
    QVector<QXmlSimpleReaderPrivate::XmlRef>::QVector__sub_object() 0x000177b5   Thumb Code     0  qxml.o(t._ZN7QVectorIN23QXmlSimpleReaderPrivate6XmlRefEEC1Ev)
    QVector<QXmlSimpleReaderPrivate::XmlRef>::~QVector() 0x000177c9   Thumb Code    30  qxml.o(t._ZN7QVectorIN23QXmlSimpleReaderPrivate6XmlRefEED1Ev)
    QVector<QXmlSimpleReaderPrivate::XmlRef>::~QVector__sub_object() 0x000177c9   Thumb Code     0  qxml.o(t._ZN7QVectorIN23QXmlSimpleReaderPrivate6XmlRefEED1Ev)
    QHashNode<QString, QDomNodePrivate*>::QHashNode(const QString&, QDomNodePrivate*const &) 0x000177e7   Thumb Code    18  qdom.o(t._ZN9QHashNodeI7QStringP15QDomNodePrivateEC1ERKS0_RKS2_)
    QHashNode<QString, QDomNodePrivate*>::QHashNode__sub_object(const QString&, QDomNodePrivate*const &) 0x000177e7   Thumb Code     0  qdom.o(t._ZN9QHashNodeI7QStringP15QDomNodePrivateEC1ERKS0_RKS2_)
    QStringBuilder<QLatin1Char, QString>::operator QString() const 0x000177f9   Thumb Code    40  qxml.o(t._ZNK14QStringBuilderI11QLatin1Char7QStringEcvS1_Ev)
    QStringBuilder<QLatin1String, QString>::operator QString() const 0x0001782b   Thumb Code    40  qdom.o(t._ZNK14QStringBuilderI13QLatin1String7QStringEcvS1_Ev)
    QStringBuilder<QStringBuilder<QLatin1String, QString>, QLatin1Char>::operator QString() const 0x0001785d   Thumb Code    58  qdom.o(t._ZNK14QStringBuilderIS_I13QLatin1String7QStringE11QLatin1CharEcvS1_Ev)
    QStringBuilder<QStringBuilder<QString, QLatin1Char>, QString>::operator QString() const 0x000178a1   Thumb Code    74  qdom.o(t._ZNK14QStringBuilderIS_I7QString11QLatin1CharES0_EcvS0_Ev)
    QMap<QString, QXmlSimpleReaderPrivate::ExternEntity>::findNode(const QString&) const 0x000178f5   Thumb Code    82  qxml.o(t._ZNK4QMapI7QStringN23QXmlSimpleReaderPrivate12ExternEntityEE8findNodeERKS0_)
    QMap<QString, QXmlSimpleReaderPrivate::ExternParameterEntity>::findNode(const QString&) const 0x00017947   Thumb Code    82  qxml.o(t._ZNK4QMapI7QStringN23QXmlSimpleReaderPrivate21ExternParameterEntityEE8findNodeERKS0_)
    QMap<QString, QString>::const_iterator::operator !=(const QMap<QString, QString>::const_iterator&) const 0x00017999   Thumb Code    16  qxml.o(t._ZNK4QMapI7QStringS0_E14const_iteratorneERKS2_)
    QMap<QString, QString>::mutableFindNode(QMapData::Node**, const QString&) const 0x000179a9   Thumb Code    86  qxml.o(t._ZNK4QMapI7QStringS0_E15mutableFindNodeEPPN8QMapData4NodeERKS0_)
    QMap<QString, QString>::findNode(const QString&) const 0x000179ff   Thumb Code    82  qxml.o(t._ZNK4QMapI7QStringS0_E8findNodeERKS0_)
    QHash<QString, QHashDummyValue>::findNode(const QString&, unsigned*) const 0x00017a51   Thumb Code    90  qdom.o(t._ZNK5QHashI7QString15QHashDummyValueE8findNodeERKS0_Pj)
    QHash<QString, QDomNodePrivate*>::constBegin() const 0x00017aab   Thumb Code    28  qdom.o(t._ZNK5QHashI7QStringP15QDomNodePrivateE10constBeginEv)
    QHash<QString, QDomNodePrivate*>::const_iterator::operator !=(const QHash<QString, QDomNodePrivate*>::const_iterator&) const 0x00017ac7   Thumb Code    16  qdom.o(t._ZNK5QHashI7QStringP15QDomNodePrivateE14const_iteratorneERKS4_)
    QHash<QString, QDomNodePrivate*>::value(const QString&) const 0x00017ad7   Thumb Code    36  qdom.o(t._ZNK5QHashI7QStringP15QDomNodePrivateE5valueERKS0_)
    QHash<QString, QDomNodePrivate*>::isEmpty() const 0x00017afb   Thumb Code    16  qdom.o(t._ZNK5QHashI7QStringP15QDomNodePrivateE7isEmptyEv)
    QHash<QString, QDomNodePrivate*>::findNode(const QString&, unsigned*) const 0x00017b0b   Thumb Code    90  qdom.o(t._ZNK5QHashI7QStringP15QDomNodePrivateE8findNodeERKS0_Pj)
    QList<QXmlAttributes::Attribute>::at(int) const 0x00017b65   Thumb Code    18  qxml.o(t._ZNK5QListIN14QXmlAttributes9AttributeEE2atEi)
    QVector<QString>::isEmpty() const        0x00017b77   Thumb Code    16  qxml.o(t._ZNK7QVectorI7QStringE7isEmptyEv)
    QVector<QXmlSimpleReaderPrivate::ParseState>::isEmpty() const 0x00017b87   Thumb Code    16  qxml.o(t._ZNK7QVectorIN23QXmlSimpleReaderPrivate10ParseStateEE7isEmptyEv)
    QXmlInputSource::EndOfData               0x0001abc8   Data           2  qxml.o(.constdata)
    QXmlInputSource::EndOfDocument           0x0001abca   Data           2  qxml.o(.constdata)
    stlp_priv::_Integer_limits<signed char, (signed char)-128, (signed char)127, (int)-1, (bool)1>::digits 0x0001abcc   Data           4  qdom.o(.constdata__ZN9stlp_priv15_Integer_limitsIaLan128ELa127ELin1ELb1EE6digitsE)
    stlp_priv::_Integer_limits<bool, (bool)0, (bool)1, (int)1, (bool)0>::digits 0x0001abd0   Data           4  qdom.o(.constdata__ZN9stlp_priv15_Integer_limitsIbLb0ELb1ELi1ELb0EE6digitsE)
    stlp_priv::_Integer_limits<char, (char)128, (char)127, (int)-1, (bool)1>::digits 0x0001abd4   Data           4  qdom.o(.constdata__ZN9stlp_priv15_Integer_limitsIcLc128ELc127ELin1ELb1EE6digitsE)
    stlp_priv::_Integer_limits<unsigned char, (unsigned char)0, (unsigned char)255, (int)-1, (bool)1>::digits 0x0001abd8   Data           4  qdom.o(.constdata__ZN9stlp_priv15_Integer_limitsIhLh0ELh255ELin1ELb1EE6digitsE)
    stlp_priv::_Integer_limits<int, (int)-2147483648, (int)2147483647, (int)-1, (bool)1>::digits 0x0001abdc   Data           4  qdom.o(.constdata__ZN9stlp_priv15_Integer_limitsIiLin2147483648ELi2147483647ELin1ELb1EE6digitsE)
    stlp_priv::_Integer_limits<int, (int)-2147483648, (int)2147483647, (int)-1, (bool)1>::is_signed 0x0001abe0   Data           1  qdom.o(.constdata__ZN9stlp_priv15_Integer_limitsIiLin2147483648ELi2147483647ELin1ELb1EE9is_signedE)
    stlp_priv::_Integer_limits<unsigned, (unsigned)0, (unsigned)4294967295, (int)-1, (bool)1>::digits 0x0001abe4   Data           4  qdom.o(.constdata__ZN9stlp_priv15_Integer_limitsIjLj0ELj4294967295ELin1ELb1EE6digitsE)
    stlp_priv::_Integer_limits<long, (long)-2147483648, (long)2147483647, (int)-1, (bool)1>::digits 0x0001abe8   Data           4  qdom.o(.constdata__ZN9stlp_priv15_Integer_limitsIlLln2147483648ELl2147483647ELin1ELb1EE6digitsE)
    stlp_priv::_Integer_limits<unsigned long, (unsigned long)0, (unsigned long)4294967295, (int)-1, (bool)1>::digits 0x0001abec   Data           4  qdom.o(.constdata__ZN9stlp_priv15_Integer_limitsImLm0ELm4294967295ELin1ELb1EE6digitsE)
    stlp_priv::_Integer_limits<short, (short)-32768, (short)32767, (int)-1, (bool)1>::digits 0x0001abf0   Data           4  qdom.o(.constdata__ZN9stlp_priv15_Integer_limitsIsLsn32768ELs32767ELin1ELb1EE6digitsE)
    stlp_priv::_Integer_limits<unsigned short, (unsigned short)0, (unsigned short)65535, (int)-1, (bool)1>::digits 0x0001abf4   Data           4  qdom.o(.constdata__ZN9stlp_priv15_Integer_limitsItLt0ELt65535ELin1ELb1EE6digitsE)
    stlp_priv::_Integer_limits<wchar_t, (wchar_t)0, (wchar_t)65535, (int)-1, (bool)1>::digits 0x0001abf8   Data           4  qdom.o(.constdata__ZN9stlp_priv15_Integer_limitsIwLw0ELw65535ELin1ELb1EE6digitsE)
    stlp_priv::_Integer_limits<long long, (long long)-9223372036854775808, (long long)9223372036854775807, (int)-1, (bool)1>::digits 0x0001abfc   Data           4  qdom.o(.constdata__ZN9stlp_priv15_Integer_limitsIxLxn9223372036854775808ELx9223372036854775807ELin1ELb1EE6digitsE)
    stlp_priv::_Integer_limits<unsigned long long, (unsigned long long)0, (unsigned long long)18446744073709551615, (int)-1, (bool)1>::digits 0x0001ac00   Data           4  qdom.o(.constdata__ZN9stlp_priv15_Integer_limitsIyLy0ELy18446744073709551615ELin1ELb1EE6digitsE)
    typeinfo for QXmlReader                  0x0001ac04   Data           8  qxml.o(.constdata__ZTI10QXmlReader)
    typeinfo for QDomHandler                 0x0001ac0c   Data          12  qdom.o(.constdata__ZTI11QDomHandler)
    typeinfo for QXmlLocator                 0x0001ac18   Data           8  qxml.o(.constdata__ZTI11QXmlLocator)
    typeinfo for QXmlAttributes              0x0001ac20   Data           8  qxml.o(.constdata__ZTI14QXmlAttributes)
    typeinfo for QXmlDTDHandler              0x0001ac28   Data           8  qxml.o(.constdata__ZTI14QXmlDTDHandler)
    typeinfo for QDomAttrPrivate             0x0001ac30   Data          12  qdom.o(.constdata__ZTI15QDomAttrPrivate)
    typeinfo for QDomNodePrivate             0x0001ac3c   Data           8  qdom.o(.constdata__ZTI15QDomNodePrivate)
    typeinfo for QDomTextPrivate             0x0001ac44   Data          12  qdom.o(.constdata__ZTI15QDomTextPrivate)
    typeinfo for QXmlDeclHandler             0x0001ac50   Data           8  qxml.o(.constdata__ZTI15QXmlDeclHandler)
    typeinfo for QXmlInputSource             0x0001ac58   Data           8  qxml.o(.constdata__ZTI15QXmlInputSource)
    typeinfo for QXmlErrorHandler            0x0001ac60   Data           8  qxml.o(.constdata__ZTI16QXmlErrorHandler)
    typeinfo for QXmlSimpleReader            0x0001ac68   Data          12  qxml.o(.constdata__ZTI16QXmlSimpleReader)
    typeinfo for QDomEntityPrivate           0x0001ac74   Data          12  qdom.o(.constdata__ZTI17QDomEntityPrivate)
    typeinfo for QDomCommentPrivate          0x0001ac80   Data          12  qdom.o(.constdata__ZTI18QDomCommentPrivate)
    typeinfo for QDomElementPrivate          0x0001ac8c   Data          12  qdom.o(.constdata__ZTI18QDomElementPrivate)
    typeinfo for QXmlContentHandler          0x0001ac98   Data           8  qxml.o(.constdata__ZTI18QXmlContentHandler)
    typeinfo for QXmlDefaultHandler          0x0001aca0   Data          64  qxml.o(.constdata__ZTI18QXmlDefaultHandler)
    typeinfo for QXmlEntityResolver          0x0001ace0   Data           8  qxml.o(.constdata__ZTI18QXmlEntityResolver)
    typeinfo for QXmlLexicalHandler          0x0001ace8   Data           8  qxml.o(.constdata__ZTI18QXmlLexicalHandler)
    typeinfo for QDomDocumentPrivate         0x0001acf0   Data          12  qdom.o(.constdata__ZTI19QDomDocumentPrivate)
    typeinfo for QDomNotationPrivate         0x0001acfc   Data          12  qdom.o(.constdata__ZTI19QDomNotationPrivate)
    typeinfo for QDomCDATASectionPrivate     0x0001ad08   Data          12  qdom.o(.constdata__ZTI23QDomCDATASectionPrivate)
    typeinfo for QDomDocumentTypePrivate     0x0001ad14   Data          12  qdom.o(.constdata__ZTI23QDomDocumentTypePrivate)
    typeinfo for QXmlSimpleReaderLocator     0x0001ad20   Data          12  qxml.o(.constdata__ZTI23QXmlSimpleReaderLocator)
    typeinfo for QDomCharacterDataPrivate    0x0001ad2c   Data          12  qdom.o(.constdata__ZTI24QDomCharacterDataPrivate)
    typeinfo for QDomEntityReferencePrivate  0x0001ad38   Data          12  qdom.o(.constdata__ZTI26QDomEntityReferencePrivate)
    typeinfo for QDomDocumentFragmentPrivate 0x0001ad44   Data          12  qdom.o(.constdata__ZTI27QDomDocumentFragmentPrivate)
    typeinfo for QDomProcessingInstructionPrivate 0x0001ad50   Data          12  qdom.o(.constdata__ZTI32QDomProcessingInstructionPrivate)
    typeinfo name for QXmlReader             0x0001ad5c   Data          13  qxml.o(.constdata__ZTS10QXmlReader)
    typeinfo name for QDomHandler            0x0001ad69   Data          14  qdom.o(.constdata__ZTS11QDomHandler)
    typeinfo name for QXmlLocator            0x0001ad77   Data          14  qxml.o(.constdata__ZTS11QXmlLocator)
    typeinfo name for QXmlAttributes         0x0001ad85   Data          17  qxml.o(.constdata__ZTS14QXmlAttributes)
    typeinfo name for QXmlDTDHandler         0x0001ad96   Data          17  qxml.o(.constdata__ZTS14QXmlDTDHandler)
    typeinfo name for QDomAttrPrivate        0x0001ada7   Data          18  qdom.o(.constdata__ZTS15QDomAttrPrivate)
    typeinfo name for QDomNodePrivate        0x0001adb9   Data          18  qdom.o(.constdata__ZTS15QDomNodePrivate)
    typeinfo name for QDomTextPrivate        0x0001adcb   Data          18  qdom.o(.constdata__ZTS15QDomTextPrivate)
    typeinfo name for QXmlDeclHandler        0x0001addd   Data          18  qxml.o(.constdata__ZTS15QXmlDeclHandler)
    typeinfo name for QXmlInputSource        0x0001adef   Data          18  qxml.o(.constdata__ZTS15QXmlInputSource)
    typeinfo name for QXmlErrorHandler       0x0001ae01   Data          19  qxml.o(.constdata__ZTS16QXmlErrorHandler)
    typeinfo name for QXmlSimpleReader       0x0001ae14   Data          19  qxml.o(.constdata__ZTS16QXmlSimpleReader)
    typeinfo name for QDomEntityPrivate      0x0001ae27   Data          20  qdom.o(.constdata__ZTS17QDomEntityPrivate)
    typeinfo name for QDomCommentPrivate     0x0001ae3b   Data          21  qdom.o(.constdata__ZTS18QDomCommentPrivate)
    typeinfo name for QDomElementPrivate     0x0001ae50   Data          21  qdom.o(.constdata__ZTS18QDomElementPrivate)
    typeinfo name for QXmlContentHandler     0x0001ae65   Data          21  qxml.o(.constdata__ZTS18QXmlContentHandler)
    typeinfo name for QXmlDefaultHandler     0x0001ae7a   Data          21  qxml.o(.constdata__ZTS18QXmlDefaultHandler)
    typeinfo name for QXmlEntityResolver     0x0001ae8f   Data          21  qxml.o(.constdata__ZTS18QXmlEntityResolver)
    typeinfo name for QXmlLexicalHandler     0x0001aea4   Data          21  qxml.o(.constdata__ZTS18QXmlLexicalHandler)
    typeinfo name for QDomDocumentPrivate    0x0001aeb9   Data          22  qdom.o(.constdata__ZTS19QDomDocumentPrivate)
    typeinfo name for QDomNotationPrivate    0x0001aecf   Data          22  qdom.o(.constdata__ZTS19QDomNotationPrivate)
    typeinfo name for QDomCDATASectionPrivate 0x0001aee5   Data          26  qdom.o(.constdata__ZTS23QDomCDATASectionPrivate)
    typeinfo name for QDomDocumentTypePrivate 0x0001aeff   Data          26  qdom.o(.constdata__ZTS23QDomDocumentTypePrivate)
    typeinfo name for QXmlSimpleReaderLocator 0x0001af19   Data          26  qxml.o(.constdata__ZTS23QXmlSimpleReaderLocator)
    typeinfo name for QDomCharacterDataPrivate 0x0001af33   Data          27  qdom.o(.constdata__ZTS24QDomCharacterDataPrivate)
    typeinfo name for QDomEntityReferencePrivate 0x0001af4e   Data          29  qdom.o(.constdata__ZTS26QDomEntityReferencePrivate)
    typeinfo name for QDomDocumentFragmentPrivate 0x0001af6b   Data          30  qdom.o(.constdata__ZTS27QDomDocumentFragmentPrivate)
    typeinfo name for QDomProcessingInstructionPrivate 0x0001af89   Data          35  qdom.o(.constdata__ZTS32QDomProcessingInstructionPrivate)
    vtable for QDomHandler                   0x0001afac   Data         296  qdom.o(.constdata__ZTV11QDomHandler)
    vtable for QXmlLocator                   0x0001b0d4   Data          24  qxml.o(.constdata__ZTV11QXmlLocator)
    vtable for QXmlAttributes                0x0001b0ec   Data          16  qxml.o(.constdata__ZTV14QXmlAttributes)
    vtable for QDomAttrPrivate               0x0001b0fc   Data         112  qdom.o(.constdata__ZTV15QDomAttrPrivate)
    vtable for QDomNodePrivate               0x0001b16c   Data         112  qdom.o(.constdata__ZTV15QDomNodePrivate)
    vtable for QDomTextPrivate               0x0001b1dc   Data         112  qdom.o(.constdata__ZTV15QDomTextPrivate)
    vtable for QXmlInputSource               0x0001b24c   Data          44  qxml.o(.constdata__ZTV15QXmlInputSource)
    vtable for QXmlSimpleReader              0x0001b278   Data         104  qxml.o(.constdata__ZTV16QXmlSimpleReader)
    vtable for QDomEntityPrivate             0x0001b2e0   Data         112  qdom.o(.constdata__ZTV17QDomEntityPrivate)
    vtable for QDomCommentPrivate            0x0001b350   Data         112  qdom.o(.constdata__ZTV18QDomCommentPrivate)
    vtable for QDomElementPrivate            0x0001b3c0   Data         112  qdom.o(.constdata__ZTV18QDomElementPrivate)
    vtable for QXmlDefaultHandler            0x0001b430   Data         292  qxml.o(.constdata__ZTV18QXmlDefaultHandler)
    vtable for QDomDocumentPrivate           0x0001b554   Data         112  qdom.o(.constdata__ZTV19QDomDocumentPrivate)
    vtable for QDomNotationPrivate           0x0001b5c4   Data         112  qdom.o(.constdata__ZTV19QDomNotationPrivate)
    vtable for QDomCDATASectionPrivate       0x0001b634   Data         112  qdom.o(.constdata__ZTV23QDomCDATASectionPrivate)
    vtable for QDomDocumentTypePrivate       0x0001b6a4   Data         112  qdom.o(.constdata__ZTV23QDomDocumentTypePrivate)
    vtable for QXmlSimpleReaderLocator       0x0001b714   Data          24  qxml.o(.constdata__ZTV23QXmlSimpleReaderLocator)
    vtable for QDomCharacterDataPrivate      0x0001b72c   Data         112  qdom.o(.constdata__ZTV24QDomCharacterDataPrivate)
    vtable for QDomEntityReferencePrivate    0x0001b79c   Data         112  qdom.o(.constdata__ZTV26QDomEntityReferencePrivate)
    vtable for QDomDocumentFragmentPrivate   0x0001b80c   Data         112  qdom.o(.constdata__ZTV27QDomDocumentFragmentPrivate)
    vtable for QDomProcessingInstructionPrivate 0x0001b87c   Data         112  qdom.o(.constdata__ZTV32QDomProcessingInstructionPrivate)
    .ARM.exidx$$Base                         0x0001b8ec   Number         0  ucppinit.o(.ARM.exidx)
    .ARM.exidx$$Limit                        0x0001ca4c   Number         0  qxml.o(.ARM.exidx)
    Image$$ER_RO$$Limit                      0x0001ca4c   Number         0  anon$$obj.o(linker$$defined$$symbols)
    QDomImplementationPrivate::invalidDataPolicy 0x00400000   Data           4  qdom.o(.data)
    qt_xml_skipped_entity_in_content         0x00400004   Data           1  qxml.o(.data)
    std::_Atomic_swap_struct<(int)1>::_S_swap_lock 0x00400008   Data          12  qdom.o(.data__ZNSt19_Atomic_swap_structILi1EE12_S_swap_lockE)

