ARM Linker, RVCT2.2 [Build 686]

================================================================================

Image Symbol Table

    Local Symbols

    Symbol Name                              Value     Ov Type        Size  Object(Section)

    ../../unhosted.s                         0x00000000   Number         0  switch8.o ABSOLUTE
    M:\\epoc32\\build\\euser\\c_e18a23aea4fd210f\\edll_lib\\armv5\\udeb\\uc_dll_.cpp 0x00000000   Number         0  uc_dll_.o ABSOLUTE
    M:\\sf\\os\\kernelhwsrv\\kernel\\eka\\compsupp\\rvct\\ucppinit.cpp 0x00000000   Number         0  ucppinit.o ABSOLUTE
    M:\epoc32\build\euser\c_e18a23aea4fd210f\edll_lib\armv5\udeb\uc_dll_.cpp 0x00000000   Number         0  uc_dll_.o ABSOLUTE
    M:\sf\os\kernelhwsrv\kernel\eka\compsupp\rvct\dllexp.cpp 0x00000000   Number         0  dllexp.o ABSOLUTE
    M:\sf\os\kernelhwsrv\kernel\eka\compsupp\rvct\ucppfini.cpp 0x00000000   Number         0  ucppfini.o ABSOLUTE
    M:\sf\os\kernelhwsrv\kernel\eka\compsupp\rvct\ucppinit.cpp 0x00000000   Number         0  ucppinit.o ABSOLUTE
    M:\sf\os\kernelhwsrv\kernel\eka\euser\epoc\arm\uc_dll.cpp 0x00000000   Number         0  uc_dll.o ABSOLUTE
    S:\sf\mw\qtmobility\plugins\declarative\location\location.cpp 0x00000000   Number         0  location.o ABSOLUTE
    S:\sf\mw\qtmobility\plugins\declarative\location\qdeclarativecoordinate.cpp 0x00000000   Number         0  qdeclarativecoordinate.o ABSOLUTE
    S:\sf\mw\qtmobility\plugins\declarative\location\qdeclarativegeoaddress.cpp 0x00000000   Number         0  qdeclarativegeoaddress.o ABSOLUTE
    S:\sf\mw\qtmobility\plugins\declarative\location\qdeclarativegeoboundingbox.cpp 0x00000000   Number         0  qdeclarativegeoboundingbox.o ABSOLUTE
    S:\sf\mw\qtmobility\plugins\declarative\location\qdeclarativegeocodemodel.cpp 0x00000000   Number         0  qdeclarativegeocodemodel.o ABSOLUTE
    S:\sf\mw\qtmobility\plugins\declarative\location\qdeclarativegeomapcircleobject.cpp 0x00000000   Number         0  qdeclarativegeomapcircleobject.o ABSOLUTE
    S:\sf\mw\qtmobility\plugins\declarative\location\qdeclarativegeomapobject.cpp 0x00000000   Number         0  qdeclarativegeomapobject.o ABSOLUTE
    S:\sf\mw\qtmobility\plugins\declarative\location\qdeclarativegeomapobjectborder.cpp 0x00000000   Number         0  qdeclarativegeomapobjectborder.o ABSOLUTE
    S:\sf\mw\qtmobility\plugins\declarative\location\qdeclarativegeomappixmapobject.cpp 0x00000000   Number         0  qdeclarativegeomappixmapobject.o ABSOLUTE
    S:\sf\mw\qtmobility\plugins\declarative\location\qdeclarativegeomappolygonobject.cpp 0x00000000   Number         0  qdeclarativegeomappolygonobject.o ABSOLUTE
    S:\sf\mw\qtmobility\plugins\declarative\location\qdeclarativegeomappolylineobject.cpp 0x00000000   Number         0  qdeclarativegeomappolylineobject.o ABSOLUTE
    S:\sf\mw\qtmobility\plugins\declarative\location\qdeclarativegeomaprectangleobject.cpp 0x00000000   Number         0  qdeclarativegeomaprectangleobject.o ABSOLUTE
    S:\sf\mw\qtmobility\plugins\declarative\location\qdeclarativegeomaptextobject.cpp 0x00000000   Number         0  qdeclarativegeomaptextobject.o ABSOLUTE
    S:\sf\mw\qtmobility\plugins\declarative\location\qdeclarativegeoplace.cpp 0x00000000   Number         0  qdeclarativegeoplace.o ABSOLUTE
    S:\sf\mw\qtmobility\plugins\declarative\location\qdeclarativegeosearchmodel.cpp 0x00000000   Number         0  qdeclarativegeosearchmodel.o ABSOLUTE
    S:\sf\mw\qtmobility\plugins\declarative\location\qdeclarativegeoserviceprovider.cpp 0x00000000   Number         0  qdeclarativegeoserviceprovider.o ABSOLUTE
    S:\sf\mw\qtmobility\plugins\declarative\location\qdeclarativegraphicsgeomap.cpp 0x00000000   Number         0  qdeclarativegraphicsgeomap.o ABSOLUTE
    S:\sf\mw\qtmobility\plugins\declarative\location\qdeclarativelandmark.cpp 0x00000000   Number         0  qdeclarativelandmark.o ABSOLUTE
    S:\sf\mw\qtmobility\plugins\declarative\location\qdeclarativelandmarkcategory.cpp 0x00000000   Number         0  qdeclarativelandmarkcategory.o ABSOLUTE
    S:\sf\mw\qtmobility\plugins\declarative\location\qdeclarativelandmarkcategorymodel.cpp 0x00000000   Number         0  qdeclarativelandmarkcategorymodel.o ABSOLUTE
    S:\sf\mw\qtmobility\plugins\declarative\location\qdeclarativelandmarkfilters.cpp 0x00000000   Number         0  qdeclarativelandmarkfilters.o ABSOLUTE
    S:\sf\mw\qtmobility\plugins\declarative\location\qdeclarativelandmarkmodel.cpp 0x00000000   Number         0  qdeclarativelandmarkmodel.o ABSOLUTE
    S:\sf\mw\qtmobility\plugins\declarative\location\qdeclarativeposition.cpp 0x00000000   Number         0  qdeclarativeposition.o ABSOLUTE
    S:\sf\mw\qtmobility\plugins\declarative\location\qdeclarativepositionsource.cpp 0x00000000   Number         0  qdeclarativepositionsource.o ABSOLUTE
    S:\sf\mw\qtmobility\plugins\declarative\location\qdeclarativereversegeocodemodel.cpp 0x00000000   Number         0  qdeclarativereversegeocodemodel.o ABSOLUTE
    .emb_text                                0x00008000   Section       40  uc_dll_.o(.emb_text)
    Symbian$$eit_base                        0x00008014   Data           4  uc_dll_.o(.emb_text)
    Symbian$$eit_limit                       0x00008018   Data           4  uc_dll_.o(.emb_text)
    Symbian$$code_seg_base                   0x0000801c   Data           4  uc_dll_.o(.emb_text)
    Symbian$$code_seg_limit                  0x00008020   Data           4  uc_dll_.o(.emb_text)
    Symbian$$reserved                        0x00008024   Data           4  uc_dll_.o(.emb_text)
    .emb_text                                0x00008028   Section       52  ucppinit.o(.emb_text)
    loop                                     0x0000803c   ARM Code       0  ucppinit.o(.emb_text)
    ret                                      0x00008044   ARM Code       0  ucppinit.o(.emb_text)
    base                                     0x00008054   Data           0  ucppinit.o(.emb_text)
    limit                                    0x00008058   Data           0  ucppinit.o(.emb_text)
    .text                                    0x00008c24   Section     1452  qdeclarativeposition.o(.text)
    .text                                    0x000091d0   Section      272  location.o(.text)
    .text                                    0x000092e0   Section     1944  qdeclarativepositionsource.o(.text)
    |L1.1028|                                0x000096e4   Data           0  qdeclarativepositionsource.o(.text)
    |L1.1072|                                0x00009710   Data           0  qdeclarativepositionsource.o(.text)
    .text                                    0x00009a78   Section     1436  qdeclarativelandmark.o(.text)
    .text                                    0x0000a014   Section     6336  qdeclarativelandmarkmodel.o(.text)
    .text                                    0x0000b8d4   Section     3128  qdeclarativelandmarkcategorymodel.o(.text)
    .text                                    0x0000c50c   Section      684  qdeclarativelandmarkcategory.o(.text)
    .text                                    0x0000c7b8   Section     3404  qdeclarativelandmarkfilters.o(.text)
    |L1.952|                                 0x0000cb70   Data           0  qdeclarativelandmarkfilters.o(.text)
    .text                                    0x0000d504   Section     1224  qdeclarativecoordinate.o(.text)
    .text                                    0x0000d9cc   Section      444  qdeclarativegeomapobject.o(.text)
    .text                                    0x0000db88   Section      552  qdeclarativegeomapobjectborder.o(.text)
    .text                                    0x0000ddb0   Section     1356  qdeclarativegeomapcircleobject.o(.text)
    .text                                    0x0000e2fc   Section     2308  qdeclarativegeomappixmapobject.o(.text)
    .text                                    0x0000ec00   Section     1110  qdeclarativegeomappolygonobject.o(.text)
    .text                                    0x0000f058   Section      908  qdeclarativegeomappolylineobject.o(.text)
    .text                                    0x0000f3e4   Section     1872  qdeclarativegeomaprectangleobject.o(.text)
    .text                                    0x0000fb34   Section     1396  qdeclarativegeomaptextobject.o(.text)
    .text                                    0x000100a8   Section     1652  qdeclarativegeoserviceprovider.o(.text)
    qFuzzyCompare(float, float)              0x0001071d   Thumb Code    84  qdeclarativegraphicsgeomap.o(.text)
    .text                                    0x0001071c   Section     3764  qdeclarativegraphicsgeomap.o(.text)
    .text                                    0x000115d0   Section     2168  qdeclarativegeosearchmodel.o(.text)
    .text                                    0x00011e48   Section      988  qdeclarativegeocodemodel.o(.text)
    .text                                    0x00012224   Section     1380  qdeclarativereversegeocodemodel.o(.text)
    .text                                    0x00012788   Section     1000  qdeclarativegeoplace.o(.text)
    .text                                    0x00012b70   Section     1708  qdeclarativegeoaddress.o(.text)
    .text                                    0x0001321c   Section     1800  qdeclarativegeoboundingbox.o(.text)
    .text                                    0x00013924   Section       24  switch8.o(.text)
    .text                                    0x0001393c   Section       80  uc_dll.o(.text)
    .text                                    0x0001398c   Section      180  ucppfini.o(.text)
    .text                                    0x00013a40   Section        4  dllexp.o(.text)
    .text.clean                              0x00013a44   Section       54  qdeclarativeposition.o(.text.clean)
    .text.clean                              0x00013a7c   Section       28  location.o(.text.clean)
    .text.clean                              0x00013a98   Section      154  qdeclarativepositionsource.o(.text.clean)
    .text.clean                              0x00013b32   Section      178  qdeclarativelandmark.o(.text.clean)
    .text.clean                              0x00013be4   Section      606  qdeclarativelandmarkmodel.o(.text.clean)
    .text.clean                              0x00013e42   Section      408  qdeclarativelandmarkcategorymodel.o(.text.clean)
    .text.clean                              0x00013fda   Section       66  qdeclarativelandmarkcategory.o(.text.clean)
    .text.clean                              0x0001401c   Section      238  qdeclarativelandmarkfilters.o(.text.clean)
    .text.clean                              0x0001410a   Section       50  qdeclarativecoordinate.o(.text.clean)
    .text.clean                              0x0001413c   Section        8  qdeclarativegeomapobject.o(.text.clean)
    .text.clean                              0x00014144   Section       10  qdeclarativegeomapobjectborder.o(.text.clean)
    .text.clean                              0x0001414e   Section      134  qdeclarativegeomapcircleobject.o(.text.clean)
    .text.clean                              0x000141d4   Section      298  qdeclarativegeomappixmapobject.o(.text.clean)
    .text.clean                              0x000142fe   Section      130  qdeclarativegeomappolygonobject.o(.text.clean)
    .text.clean                              0x00014380   Section      120  qdeclarativegeomappolylineobject.o(.text.clean)
    .text.clean                              0x000143f8   Section      208  qdeclarativegeomaprectangleobject.o(.text.clean)
    .text.clean                              0x000144c8   Section      106  qdeclarativegeomaptextobject.o(.text.clean)
    .text.clean                              0x00014532   Section      126  qdeclarativegeoserviceprovider.o(.text.clean)
    .text.clean                              0x000145b0   Section      248  qdeclarativegraphicsgeomap.o(.text.clean)
    .text.clean                              0x000146a8   Section      220  qdeclarativegeosearchmodel.o(.text.clean)
    .text.clean                              0x00014784   Section      106  qdeclarativegeocodemodel.o(.text.clean)
    .text.clean                              0x000147ee   Section      218  qdeclarativereversegeocodemodel.o(.text.clean)
    .text.clean                              0x000148c8   Section      222  qdeclarativegeoplace.o(.text.clean)
    .text.clean                              0x000149a6   Section      232  qdeclarativegeoaddress.o(.text.clean)
    .text.clean                              0x00014a8e   Section      366  qdeclarativegeoboundingbox.o(.text.clean)
    i._ZN10QByteArrayC1ERKS_                 0x00014bfc   Section       20  location.o(i._ZN10QByteArrayC1ERKS_)
    i._ZN10QByteArrayC1Ev                    0x00014c10   Section       24  qdeclarativegeomappixmapobject.o(i._ZN10QByteArrayC1Ev)
    i._ZN10QByteArrayD1Ev                    0x00014c28   Section       24  location.o(i._ZN10QByteArrayD1Ev)
    i._ZN10QtMobility20QDeclarativeLandmarkD0Ev 0x00014c40   Section       22  qdeclarativelandmark.o(i._ZN10QtMobility20QDeclarativeLandmarkD0Ev)
    i._ZN10QtMobility20QDeclarativeLandmarkD1Ev 0x00014c58   Section       48  location.o(i._ZN10QtMobility20QDeclarativeLandmarkD1Ev)
    i._ZN10QtMobility20QDeclarativeLandmarkD1Ev.clean 0x00014c88   Section       22  location.o(i._ZN10QtMobility20QDeclarativeLandmarkD1Ev.clean)
    i._ZN10QtMobility22QDeclarativeGeoAddressD0Ev 0x00014c9e   Section       22  qdeclarativegeoaddress.o(i._ZN10QtMobility22QDeclarativeGeoAddressD0Ev)
    i._ZN10QtMobility22QDeclarativeGeoAddressD1Ev 0x00014cb4   Section       36  location.o(i._ZN10QtMobility22QDeclarativeGeoAddressD1Ev)
    i._ZN10QtMobility22QDeclarativeGeoAddressD1Ev.clean 0x00014cd8   Section       10  location.o(i._ZN10QtMobility22QDeclarativeGeoAddressD1Ev.clean)
    i._ZN10QtMobility26QDeclarativeGeoBoundingBoxD0Ev 0x00014ce2   Section       22  qdeclarativegeoboundingbox.o(i._ZN10QtMobility26QDeclarativeGeoBoundingBoxD0Ev)
    i._ZN10QtMobility26QDeclarativeGeoBoundingBoxD1Ev 0x00014cf8   Section       96  location.o(i._ZN10QtMobility26QDeclarativeGeoBoundingBoxD1Ev)
    i._ZN10QtMobility26QDeclarativeGeoBoundingBoxD1Ev.clean 0x00014d58   Section       70  location.o(i._ZN10QtMobility26QDeclarativeGeoBoundingBoxD1Ev.clean)
    i._ZN10QtMobility28QDeclarativeLandmarkCategoryD0Ev 0x00014d9e   Section       22  qdeclarativelandmarkcategory.o(i._ZN10QtMobility28QDeclarativeLandmarkCategoryD0Ev)
    i._ZN10QtMobility28QDeclarativeLandmarkCategoryD1Ev 0x00014db4   Section       36  location.o(i._ZN10QtMobility28QDeclarativeLandmarkCategoryD1Ev)
    i._ZN10QtMobility28QDeclarativeLandmarkCategoryD1Ev.clean 0x00014dd8   Section       10  location.o(i._ZN10QtMobility28QDeclarativeLandmarkCategoryD1Ev.clean)
    i._ZN10QtMobility30QDeclarativeLandmarkFilterBaseC2EP7QObject 0x00014de4   Section       28  qdeclarativelandmarkfilters.o(i._ZN10QtMobility30QDeclarativeLandmarkFilterBaseC2EP7QObject)
    i._ZN10QtMobility30QDeclarativeLandmarkFilterBaseD0Ev 0x00014e00   Section       22  qdeclarativelandmarkfilters.o(i._ZN10QtMobility30QDeclarativeLandmarkFilterBaseD0Ev)
    i._ZN10QtMobility30QDeclarativeLandmarkFilterBaseD2Ev 0x00014e16   Section       14  location.o(i._ZN10QtMobility30QDeclarativeLandmarkFilterBaseD2Ev)
    i._ZN10QtMobility31QDeclarativeLandmarkUnionFilterD0Ev 0x00014e24   Section       22  qdeclarativelandmarkfilters.o(i._ZN10QtMobility31QDeclarativeLandmarkUnionFilterD0Ev)
    i._ZN10QtMobility31QDeclarativeLandmarkUnionFilterD1Ev 0x00014e3c   Section       36  location.o(i._ZN10QtMobility31QDeclarativeLandmarkUnionFilterD1Ev)
    i._ZN10QtMobility31QDeclarativeLandmarkUnionFilterD1Ev.clean 0x00014e60   Section       10  location.o(i._ZN10QtMobility31QDeclarativeLandmarkUnionFilterD1Ev.clean)
    i._ZN10QtMobility33QDeclarativeLandmarkAbstractModel10classBeginEv 0x00014e6a   Section        2  location.o(i._ZN10QtMobility33QDeclarativeLandmarkAbstractModel10classBeginEv)
    i._ZN10QtMobility33QDeclarativeLandmarkAbstractModel12cancelImportEv 0x00014e6c   Section        2  location.o(i._ZN10QtMobility33QDeclarativeLandmarkAbstractModel12cancelImportEv)
    i._ZN10QtMobility34QDeclarativeLandmarkCompoundFilterD0Ev 0x00014e6e   Section       22  qdeclarativelandmarkfilters.o(i._ZN10QtMobility34QDeclarativeLandmarkCompoundFilterD0Ev)
    i._ZN10QtMobility34QDeclarativeLandmarkCompoundFilterD2Ev 0x00014e84   Section       36  qdeclarativelandmarkfilters.o(i._ZN10QtMobility34QDeclarativeLandmarkCompoundFilterD2Ev)
    i._ZN10QtMobility34QDeclarativeLandmarkCompoundFilterD2Ev.clean 0x00014ea8   Section       10  qdeclarativelandmarkfilters.o(i._ZN10QtMobility34QDeclarativeLandmarkCompoundFilterD2Ev.clean)
    i._ZN10QtMobility38QDeclarativeLandmarkIntersectionFilterD0Ev 0x00014eb2   Section       22  qdeclarativelandmarkfilters.o(i._ZN10QtMobility38QDeclarativeLandmarkIntersectionFilterD0Ev)
    i._ZN10QtMobility38QDeclarativeLandmarkIntersectionFilterD1Ev 0x00014ec8   Section       36  location.o(i._ZN10QtMobility38QDeclarativeLandmarkIntersectionFilterD1Ev)
    i._ZN10QtMobility38QDeclarativeLandmarkIntersectionFilterD1Ev.clean 0x00014eec   Section       10  location.o(i._ZN10QtMobility38QDeclarativeLandmarkIntersectionFilterD1Ev.clean)
    i._ZN11QMetaObject12invokeMethodEP7QObjectPKcN2Qt14ConnectionTypeE16QGenericArgumentS6_S6_S6_S6_S6_S6_S6_S6_S6_ 0x00014ef6   Section      130  qdeclarativelandmarkmodel.o(i._ZN11QMetaObject12invokeMethodEP7QObjectPKcN2Qt14ConnectionTypeE16QGenericArgumentS6_S6_S6_S6_S6_S6_S6_S6_S6_)
    i._ZN11QStringListC1Ev                   0x00014f78   Section       24  qdeclarativereversegeocodemodel.o(i._ZN11QStringListC1Ev)
    i._ZN11QStringListD1Ev                   0x00014f90   Section       14  qdeclarativereversegeocodemodel.o(i._ZN11QStringListD1Ev)
    i._ZN15QBasicAtomicInt3refEv             0x00014f9e   Section       24  location.o(i._ZN15QBasicAtomicInt3refEv)
    i._ZN15QBasicAtomicInt5derefEv           0x00014fb6   Section       24  location.o(i._ZN15QBasicAtomicInt5derefEv)
    i._ZN17QForeachContainerI5QListI7QStringEED1Ev 0x00014fce   Section       14  qdeclarativelandmarkmodel.o(i._ZN17QForeachContainerI5QListI7QStringEED1Ev)
    i._ZN17QForeachContainerI5QListIN10QtMobility17QLandmarkCategoryEEED1Ev 0x00014fdc   Section       14  qdeclarativelandmarkcategorymodel.o(i._ZN17QForeachContainerI5QListIN10QtMobility17QLandmarkCategoryEEED1Ev)
    i._ZN17QForeachContainerI5QListIN10QtMobility9QLandmarkEEED1Ev 0x00014fea   Section       14  qdeclarativelandmarkmodel.o(i._ZN17QForeachContainerI5QListIN10QtMobility9QLandmarkEEED1Ev)
    i._ZN19QDeclarativePrivate12RegisterTypeD1Ev 0x00014ff8   Section       20  location.o(i._ZN19QDeclarativePrivate12RegisterTypeD1Ev)
    i._ZN19QDeclarativePrivate19QDeclarativeElementIN10QtMobility13QGeoMapObjectEED0Ev 0x0001500c   Section       22  location.o(i._ZN19QDeclarativePrivate19QDeclarativeElementIN10QtMobility13QGeoMapObjectEED0Ev)
    i._ZN19QDeclarativePrivate19QDeclarativeElementIN10QtMobility20QDeclarativeGeoPlaceEED0Ev 0x00015022   Section       22  location.o(i._ZN19QDeclarativePrivate19QDeclarativeElementIN10QtMobility20QDeclarativeGeoPlaceEED0Ev)
    i._ZN19QDeclarativePrivate19QDeclarativeElementIN10QtMobility20QDeclarativeLandmarkEED0Ev 0x00015038   Section       22  location.o(i._ZN19QDeclarativePrivate19QDeclarativeElementIN10QtMobility20QDeclarativeLandmarkEED0Ev)
    i._ZN19QDeclarativePrivate19QDeclarativeElementIN10QtMobility20QDeclarativePositionEED0Ev 0x0001504e   Section       22  location.o(i._ZN19QDeclarativePrivate19QDeclarativeElementIN10QtMobility20QDeclarativePositionEED0Ev)
    i._ZN19QDeclarativePrivate19QDeclarativeElementIN10QtMobility22QDeclarativeCoordinateEED0Ev 0x00015064   Section       22  location.o(i._ZN19QDeclarativePrivate19QDeclarativeElementIN10QtMobility22QDeclarativeCoordinateEED0Ev)
    i._ZN19QDeclarativePrivate19QDeclarativeElementIN10QtMobility22QDeclarativeGeoAddressEED0Ev 0x0001507a   Section       22  location.o(i._ZN19QDeclarativePrivate19QDeclarativeElementIN10QtMobility22QDeclarativeGeoAddressEED0Ev)
    i._ZN19QDeclarativePrivate19QDeclarativeElementIN10QtMobility24QDeclarativeGeoMapObjectEED0Ev 0x00015090   Section       22  location.o(i._ZN19QDeclarativePrivate19QDeclarativeElementIN10QtMobility24QDeclarativeGeoMapObjectEED0Ev)
    i._ZN19QDeclarativePrivate19QDeclarativeElementIN10QtMobility24QDeclarativeGeocodeModelEED0Ev 0x000150a6   Section       22  location.o(i._ZN19QDeclarativePrivate19QDeclarativeElementIN10QtMobility24QDeclarativeGeocodeModelEED0Ev)
    i._ZN19QDeclarativePrivate19QDeclarativeElementIN10QtMobility25QDeclarativeLandmarkModelEED0Ev 0x000150bc   Section       22  location.o(i._ZN19QDeclarativePrivate19QDeclarativeElementIN10QtMobility25QDeclarativeLandmarkModelEED0Ev)
    i._ZN19QDeclarativePrivate19QDeclarativeElementIN10QtMobility26QDeclarativeGeoBoundingBoxEED0Ev 0x000150d2   Section       22  location.o(i._ZN19QDeclarativePrivate19QDeclarativeElementIN10QtMobility26QDeclarativeGeoBoundingBoxEED0Ev)
    i._ZN19QDeclarativePrivate19QDeclarativeElementIN10QtMobility26QDeclarativeGraphicsGeoMapEED0Ev 0x000150e8   Section       22  location.o(i._ZN19QDeclarativePrivate19QDeclarativeElementIN10QtMobility26QDeclarativeGraphicsGeoMapEED0Ev)
    i._ZN19QDeclarativePrivate19QDeclarativeElementIN10QtMobility26QDeclarativePositionSourceEED0Ev 0x000150fe   Section       22  location.o(i._ZN19QDeclarativePrivate19QDeclarativeElementIN10QtMobility26QDeclarativePositionSourceEED0Ev)
    i._ZN19QDeclarativePrivate19QDeclarativeElementIN10QtMobility28QDeclarativeGeoMapTextObjectEED0Ev 0x00015114   Section       22  location.o(i._ZN19QDeclarativePrivate19QDeclarativeElementIN10QtMobility28QDeclarativeGeoMapTextObjectEED0Ev)
    i._ZN19QDeclarativePrivate19QDeclarativeElementIN10QtMobility28QDeclarativeLandmarkCategoryEED0Ev 0x0001512a   Section       22  location.o(i._ZN19QDeclarativePrivate19QDeclarativeElementIN10QtMobility28QDeclarativeLandmarkCategoryEED0Ev)
    i._ZN19QDeclarativePrivate19QDeclarativeElementIN10QtMobility29QDeclarativeLandmarkBoxFilterEED0Ev 0x00015140   Section       22  location.o(i._ZN19QDeclarativePrivate19QDeclarativeElementIN10QtMobility29QDeclarativeLandmarkBoxFilterEED0Ev)
    i._ZN19QDeclarativePrivate19QDeclarativeElementIN10QtMobility30QDeclarativeGeoMapCircleObjectEED0Ev 0x00015156   Section       22  location.o(i._ZN19QDeclarativePrivate19QDeclarativeElementIN10QtMobility30QDeclarativeGeoMapCircleObjectEED0Ev)
    i._ZN19QDeclarativePrivate19QDeclarativeElementIN10QtMobility30QDeclarativeGeoMapPixmapObjectEED0Ev 0x0001516c   Section       22  location.o(i._ZN19QDeclarativePrivate19QDeclarativeElementIN10QtMobility30QDeclarativeGeoMapPixmapObjectEED0Ev)
    i._ZN19QDeclarativePrivate19QDeclarativeElementIN10QtMobility30QDeclarativeGeoServiceProviderEED0Ev 0x00015182   Section       22  location.o(i._ZN19QDeclarativePrivate19QDeclarativeElementIN10QtMobility30QDeclarativeGeoServiceProviderEED0Ev)
    i._ZN19QDeclarativePrivate19QDeclarativeElementIN10QtMobility30QDeclarativeLandmarkNameFilterEED0Ev 0x00015198   Section       22  location.o(i._ZN19QDeclarativePrivate19QDeclarativeElementIN10QtMobility30QDeclarativeLandmarkNameFilterEED0Ev)
    i._ZN19QDeclarativePrivate19QDeclarativeElementIN10QtMobility31QDeclarativeGeoMapPolygonObjectEED0Ev 0x000151ae   Section       22  location.o(i._ZN19QDeclarativePrivate19QDeclarativeElementIN10QtMobility31QDeclarativeGeoMapPolygonObjectEED0Ev)
    i._ZN19QDeclarativePrivate19QDeclarativeElementIN10QtMobility31QDeclarativeLandmarkUnionFilterEED0Ev 0x000151c4   Section       22  location.o(i._ZN19QDeclarativePrivate19QDeclarativeElementIN10QtMobility31QDeclarativeLandmarkUnionFilterEED0Ev)
    i._ZN19QDeclarativePrivate19QDeclarativeElementIN10QtMobility31QDeclarativeReverseGeocodeModelEED0Ev 0x000151da   Section       22  location.o(i._ZN19QDeclarativePrivate19QDeclarativeElementIN10QtMobility31QDeclarativeReverseGeocodeModelEED0Ev)
    i._ZN19QDeclarativePrivate19QDeclarativeElementIN10QtMobility32QDeclarativeGeoMapPolylineObjectEED0Ev 0x000151f0   Section       22  location.o(i._ZN19QDeclarativePrivate19QDeclarativeElementIN10QtMobility32QDeclarativeGeoMapPolylineObjectEED0Ev)
    i._ZN19QDeclarativePrivate19QDeclarativeElementIN10QtMobility33QDeclarativeGeoMapRectangleObjectEED0Ev 0x00015206   Section       22  location.o(i._ZN19QDeclarativePrivate19QDeclarativeElementIN10QtMobility33QDeclarativeGeoMapRectangleObjectEED0Ev)
    i._ZN19QDeclarativePrivate19QDeclarativeElementIN10QtMobility33QDeclarativeLandmarkCategoryModelEED0Ev 0x0001521c   Section       22  location.o(i._ZN19QDeclarativePrivate19QDeclarativeElementIN10QtMobility33QDeclarativeLandmarkCategoryModelEED0Ev)
    i._ZN19QDeclarativePrivate19QDeclarativeElementIN10QtMobility34QDeclarativeLandmarkCategoryFilterEED0Ev 0x00015232   Section       22  location.o(i._ZN19QDeclarativePrivate19QDeclarativeElementIN10QtMobility34QDeclarativeLandmarkCategoryFilterEED0Ev)
    i._ZN19QDeclarativePrivate19QDeclarativeElementIN10QtMobility35QDeclarativeLandmarkProximityFilterEED0Ev 0x00015248   Section       22  location.o(i._ZN19QDeclarativePrivate19QDeclarativeElementIN10QtMobility35QDeclarativeLandmarkProximityFilterEED0Ev)
    i._ZN19QDeclarativePrivate19QDeclarativeElementIN10QtMobility38QDeclarativeLandmarkIntersectionFilterEED0Ev 0x0001525e   Section       22  location.o(i._ZN19QDeclarativePrivate19QDeclarativeElementIN10QtMobility38QDeclarativeLandmarkIntersectionFilterEED0Ev)
    i._ZN19QDeclarativePrivate19QDeclarativeElementIN10QtMobility39QDeclarativeGeoServiceProviderParameterEED0Ev 0x00015274   Section       22  location.o(i._ZN19QDeclarativePrivate19QDeclarativeElementIN10QtMobility39QDeclarativeGeoServiceProviderParameterEED0Ev)
    i._ZN26QLocationDeclarativeModule13registerTypesEPKc 0x0001528c   Section     1016  location.o(i._ZN26QLocationDeclarativeModule13registerTypesEPKc)
    i._ZN26QLocationDeclarativeModule13registerTypesEPKc.clean 0x00015684   Section       18  location.o(i._ZN26QLocationDeclarativeModule13registerTypesEPKc.clean)
    i._ZN26QLocationDeclarativeModuleD0Ev    0x00015696   Section       24  location.o(i._ZN26QLocationDeclarativeModuleD0Ev)
    i._ZN26QLocationDeclarativeModuleD1Ev    0x000156ae   Section       14  location.o(i._ZN26QLocationDeclarativeModuleD1Ev)
    i._ZN6QDebugD1Ev                         0x000156bc   Section      144  qdeclarativelandmarkmodel.o(i._ZN6QDebugD1Ev)
    i._ZN6QDebugD1Ev.clean                   0x0001574c   Section       20  qdeclarativelandmarkmodel.o(i._ZN6QDebugD1Ev.clean)
    i._ZN7QStringC1EPKc                      0x00015760   Section       22  qdeclarativegeosearchmodel.o(i._ZN7QStringC1EPKc)
    i._ZN7QStringC1ERKS_                     0x00015776   Section       22  location.o(i._ZN7QStringC1ERKS_)
    i._ZN7QStringC1Ev                        0x0001578c   Section       24  location.o(i._ZN7QStringC1Ev)
    i._ZN7QStringD1Ev                        0x000157a4   Section       24  location.o(i._ZN7QStringD1Ev)
    i._ZN8QVariantC1Ev                       0x000157bc   Section       38  qdeclarativelandmarkmodel.o(i._ZN8QVariantC1Ev)
    i._ZNK15QBasicAtomicInteqEi              0x000157e2   Section       16  qdeclarativelandmarkcategorymodel.o(i._ZNK15QBasicAtomicInteqEi)
    i._ZNK15QBasicAtomicIntneEi              0x000157f2   Section       16  qdeclarativelandmarkmodel.o(i._ZNK15QBasicAtomicIntneEi)
    i._ZNK15QBasicAtomicIntntEv              0x00015802   Section       16  location.o(i._ZNK15QBasicAtomicIntntEv)
    i._ZNK7QString7isEmptyEv                 0x00015812   Section       18  qdeclarativelandmarkmodel.o(i._ZNK7QString7isEmptyEv)
    i._ZNK9QListData2atEi                    0x00015824   Section       20  qdeclarativelandmarkmodel.o(i._ZNK9QListData2atEi)
    i._ZNK9QListData3endEv                   0x00015838   Section       16  qdeclarativelandmarkmodel.o(i._ZNK9QListData3endEv)
    i._ZNK9QListData4sizeEv                  0x00015848   Section       14  qdeclarativelandmarkmodel.o(i._ZNK9QListData4sizeEv)
    i._ZNK9QListData5beginEv                 0x00015856   Section       16  qdeclarativelandmarkmodel.o(i._ZNK9QListData5beginEv)
    i._ZThn16_N19QDeclarativePrivate19QDeclarativeElementIN10QtMobility26QDeclarativeGraphicsGeoMapEED0Ev 0x00015866   Section       14  location.o(i._ZThn16_N19QDeclarativePrivate19QDeclarativeElementIN10QtMobility26QDeclarativeGraphicsGeoMapEED0Ev)
    i._ZThn16_N19QDeclarativePrivate19QDeclarativeElementIN10QtMobility26QDeclarativeGraphicsGeoMapEED1Ev 0x00015874   Section       14  location.o(i._ZThn16_N19QDeclarativePrivate19QDeclarativeElementIN10QtMobility26QDeclarativeGraphicsGeoMapEED1Ev)
    i._ZThn8_N10QtMobility33QDeclarativeLandmarkAbstractModel10classBeginEv 0x00015882   Section        4  location.o(i._ZThn8_N10QtMobility33QDeclarativeLandmarkAbstractModel10classBeginEv)
    i._ZThn8_N19QDeclarativePrivate19QDeclarativeElementIN10QtMobility24QDeclarativeGeocodeModelEED0Ev 0x00015886   Section       14  location.o(i._ZThn8_N19QDeclarativePrivate19QDeclarativeElementIN10QtMobility24QDeclarativeGeocodeModelEED0Ev)
    i._ZThn8_N19QDeclarativePrivate19QDeclarativeElementIN10QtMobility24QDeclarativeGeocodeModelEED1Ev 0x00015894   Section       14  location.o(i._ZThn8_N19QDeclarativePrivate19QDeclarativeElementIN10QtMobility24QDeclarativeGeocodeModelEED1Ev)
    i._ZThn8_N19QDeclarativePrivate19QDeclarativeElementIN10QtMobility25QDeclarativeLandmarkModelEED0Ev 0x000158a2   Section       14  location.o(i._ZThn8_N19QDeclarativePrivate19QDeclarativeElementIN10QtMobility25QDeclarativeLandmarkModelEED0Ev)
    i._ZThn8_N19QDeclarativePrivate19QDeclarativeElementIN10QtMobility25QDeclarativeLandmarkModelEED1Ev 0x000158b0   Section       14  location.o(i._ZThn8_N19QDeclarativePrivate19QDeclarativeElementIN10QtMobility25QDeclarativeLandmarkModelEED1Ev)
    i._ZThn8_N19QDeclarativePrivate19QDeclarativeElementIN10QtMobility26QDeclarativeGraphicsGeoMapEED0Ev 0x000158be   Section       14  location.o(i._ZThn8_N19QDeclarativePrivate19QDeclarativeElementIN10QtMobility26QDeclarativeGraphicsGeoMapEED0Ev)
    i._ZThn8_N19QDeclarativePrivate19QDeclarativeElementIN10QtMobility26QDeclarativeGraphicsGeoMapEED1Ev 0x000158cc   Section       14  location.o(i._ZThn8_N19QDeclarativePrivate19QDeclarativeElementIN10QtMobility26QDeclarativeGraphicsGeoMapEED1Ev)
    i._ZThn8_N19QDeclarativePrivate19QDeclarativeElementIN10QtMobility31QDeclarativeReverseGeocodeModelEED0Ev 0x000158da   Section       14  location.o(i._ZThn8_N19QDeclarativePrivate19QDeclarativeElementIN10QtMobility31QDeclarativeReverseGeocodeModelEED0Ev)
    i._ZThn8_N19QDeclarativePrivate19QDeclarativeElementIN10QtMobility31QDeclarativeReverseGeocodeModelEED1Ev 0x000158e8   Section       14  location.o(i._ZThn8_N19QDeclarativePrivate19QDeclarativeElementIN10QtMobility31QDeclarativeReverseGeocodeModelEED1Ev)
    i._ZThn8_N19QDeclarativePrivate19QDeclarativeElementIN10QtMobility33QDeclarativeLandmarkCategoryModelEED0Ev 0x000158f6   Section       14  location.o(i._ZThn8_N19QDeclarativePrivate19QDeclarativeElementIN10QtMobility33QDeclarativeLandmarkCategoryModelEED0Ev)
    i._ZThn8_N19QDeclarativePrivate19QDeclarativeElementIN10QtMobility33QDeclarativeLandmarkCategoryModelEED1Ev 0x00015904   Section       14  location.o(i._ZThn8_N19QDeclarativePrivate19QDeclarativeElementIN10QtMobility33QDeclarativeLandmarkCategoryModelEED1Ev)
    i._ZThn8_N26QLocationDeclarativeModule13registerTypesEPKc 0x00015912   Section       18  location.o(i._ZThn8_N26QLocationDeclarativeModule13registerTypesEPKc)
    i._ZThn8_N26QLocationDeclarativeModuleD0Ev 0x00015924   Section       14  location.o(i._ZThn8_N26QLocationDeclarativeModuleD0Ev)
    i._ZThn8_N26QLocationDeclarativeModuleD1Ev 0x00015932   Section       18  location.o(i._ZThn8_N26QLocationDeclarativeModuleD1Ev)
    i._ZdlPvS_                               0x00015944   Section        2  location.o(i._ZdlPvS_)
    i._ZnwjPv                                0x00015946   Section        6  location.o(i._ZnwjPv)
    i._ZplPKcRK10QByteArray                  0x0001594c   Section       46  location.o(i._ZplPKcRK10QByteArray)
    i._ZplPKcRK10QByteArray.clean            0x0001597a   Section       10  location.o(i._ZplPKcRK10QByteArray.clean)
    i._ZplRK10QByteArrayPKc                  0x00015984   Section       46  location.o(i._ZplRK10QByteArrayPKc)
    i._ZplRK10QByteArrayPKc.clean            0x000159b2   Section       10  location.o(i._ZplRK10QByteArrayPKc.clean)
    i._ZplRK10QByteArrayc                    0x000159bc   Section       46  location.o(i._ZplRK10QByteArrayc)
    i._ZplRK10QByteArrayc.clean              0x000159ea   Section       10  location.o(i._ZplRK10QByteArrayc.clean)
    t._Z10qDeleteAllI5QListIPN10QtMobility20QDeclarativeLandmarkEEEvRKT_ 0x000159f4   Section       46  qdeclarativelandmarkmodel.o(t._Z10qDeleteAllI5QListIPN10QtMobility20QDeclarativeLandmarkEEEvRKT_)
    t._Z10qDeleteAllI5QListIPN10QtMobility22QDeclarativeCoordinateEEEvRKT_ 0x00015a22   Section       46  qdeclarativegeomappolygonobject.o(t._Z10qDeleteAllI5QListIPN10QtMobility22QDeclarativeCoordinateEEEvRKT_)
    t._Z10qDeleteAllI5QListIPN10QtMobility28QDeclarativeLandmarkCategoryEEEvRKT_ 0x00015a50   Section       46  qdeclarativelandmarkcategorymodel.o(t._Z10qDeleteAllI5QListIPN10QtMobility28QDeclarativeLandmarkCategoryEEEvRKT_)
    t._Z10qDeleteAllIN5QListIPN10QtMobility13QGeoMapObjectEE14const_iteratorEEvT_S6_ 0x00015a7e   Section       62  qdeclarativegraphicsgeomap.o(t._Z10qDeleteAllIN5QListIPN10QtMobility13QGeoMapObjectEE14const_iteratorEEvT_S6_)
    t._Z10qDeleteAllIN5QListIPN10QtMobility20QDeclarativeLandmarkEE14const_iteratorEEvT_S6_ 0x00015abc   Section       62  qdeclarativelandmarkmodel.o(t._Z10qDeleteAllIN5QListIPN10QtMobility20QDeclarativeLandmarkEE14const_iteratorEEvT_S6_)
    t._Z10qDeleteAllIN5QListIPN10QtMobility22QDeclarativeCoordinateEE14const_iteratorEEvT_S6_ 0x00015afa   Section       62  qdeclarativegeomappolygonobject.o(t._Z10qDeleteAllIN5QListIPN10QtMobility22QDeclarativeCoordinateEE14const_iteratorEEvT_S6_)
    t._Z10qDeleteAllIN5QListIPN10QtMobility28QDeclarativeLandmarkCategoryEE14const_iteratorEEvT_S6_ 0x00015b38   Section       62  qdeclarativelandmarkcategorymodel.o(t._Z10qDeleteAllIN5QListIPN10QtMobility28QDeclarativeLandmarkCategoryEE14const_iteratorEEvT_S6_)
    t._Z10qDeleteAllIN5QListIPN10QtMobility30QDeclarativeLandmarkFilterBaseEE14const_iteratorEEvT_S6_ 0x00015b76   Section       62  qdeclarativelandmarkfilters.o(t._Z10qDeleteAllIN5QListIPN10QtMobility30QDeclarativeLandmarkFilterBaseEE14const_iteratorEEvT_S6_)
    t._Z15qMapLessThanKeyI7QStringEbRKT_S3_  0x00015bb4   Section       16  qdeclarativelandmarkmodel.o(t._Z15qMapLessThanKeyI7QStringEbRKT_S3_)
    t._Z15qmlRegisterTypeIN10QtMobility13QGeoMapObjectEEiPKciiS3_ 0x00015bc4   Section      280  location.o(t._Z15qmlRegisterTypeIN10QtMobility13QGeoMapObjectEEiPKciiS3_)
    t._Z15qmlRegisterTypeIN10QtMobility13QGeoMapObjectEEiPKciiS3_.clean 0x00015cdc   Section       52  location.o(t._Z15qmlRegisterTypeIN10QtMobility13QGeoMapObjectEEiPKciiS3_.clean)
    t._Z15qmlRegisterTypeIN10QtMobility20QDeclarativeGeoPlaceEEiPKciiS3_ 0x00015d10   Section      280  location.o(t._Z15qmlRegisterTypeIN10QtMobility20QDeclarativeGeoPlaceEEiPKciiS3_)
    t._Z15qmlRegisterTypeIN10QtMobility20QDeclarativeGeoPlaceEEiPKciiS3_.clean 0x00015e28   Section       52  location.o(t._Z15qmlRegisterTypeIN10QtMobility20QDeclarativeGeoPlaceEEiPKciiS3_.clean)
    t._Z15qmlRegisterTypeIN10QtMobility20QDeclarativeLandmarkEEiPKciiS3_ 0x00015e5c   Section      280  location.o(t._Z15qmlRegisterTypeIN10QtMobility20QDeclarativeLandmarkEEiPKciiS3_)
    t._Z15qmlRegisterTypeIN10QtMobility20QDeclarativeLandmarkEEiPKciiS3_.clean 0x00015f74   Section       52  location.o(t._Z15qmlRegisterTypeIN10QtMobility20QDeclarativeLandmarkEEiPKciiS3_.clean)
    t._Z15qmlRegisterTypeIN10QtMobility20QDeclarativePositionEEiPKciiS3_ 0x00015fa8   Section      280  location.o(t._Z15qmlRegisterTypeIN10QtMobility20QDeclarativePositionEEiPKciiS3_)
    t._Z15qmlRegisterTypeIN10QtMobility20QDeclarativePositionEEiPKciiS3_.clean 0x000160c0   Section       52  location.o(t._Z15qmlRegisterTypeIN10QtMobility20QDeclarativePositionEEiPKciiS3_.clean)
    t._Z15qmlRegisterTypeIN10QtMobility22QDeclarativeCoordinateEEiPKciiS3_ 0x000160f4   Section      280  location.o(t._Z15qmlRegisterTypeIN10QtMobility22QDeclarativeCoordinateEEiPKciiS3_)
    t._Z15qmlRegisterTypeIN10QtMobility22QDeclarativeCoordinateEEiPKciiS3_.clean 0x0001620c   Section       52  location.o(t._Z15qmlRegisterTypeIN10QtMobility22QDeclarativeCoordinateEEiPKciiS3_.clean)
    t._Z15qmlRegisterTypeIN10QtMobility22QDeclarativeGeoAddressEEiPKciiS3_ 0x00016240   Section      280  location.o(t._Z15qmlRegisterTypeIN10QtMobility22QDeclarativeGeoAddressEEiPKciiS3_)
    t._Z15qmlRegisterTypeIN10QtMobility22QDeclarativeGeoAddressEEiPKciiS3_.clean 0x00016358   Section       52  location.o(t._Z15qmlRegisterTypeIN10QtMobility22QDeclarativeGeoAddressEEiPKciiS3_.clean)
    t._Z15qmlRegisterTypeIN10QtMobility24QDeclarativeGeoMapObjectEEiPKciiS3_ 0x0001638c   Section      280  location.o(t._Z15qmlRegisterTypeIN10QtMobility24QDeclarativeGeoMapObjectEEiPKciiS3_)
    t._Z15qmlRegisterTypeIN10QtMobility24QDeclarativeGeoMapObjectEEiPKciiS3_.clean 0x000164a4   Section       52  location.o(t._Z15qmlRegisterTypeIN10QtMobility24QDeclarativeGeoMapObjectEEiPKciiS3_.clean)
    t._Z15qmlRegisterTypeIN10QtMobility24QDeclarativeGeocodeModelEEiPKciiS3_ 0x000164d8   Section      288  location.o(t._Z15qmlRegisterTypeIN10QtMobility24QDeclarativeGeocodeModelEEiPKciiS3_)
    t._Z15qmlRegisterTypeIN10QtMobility24QDeclarativeGeocodeModelEEiPKciiS3_.clean 0x000165f8   Section       52  location.o(t._Z15qmlRegisterTypeIN10QtMobility24QDeclarativeGeocodeModelEEiPKciiS3_.clean)
    t._Z15qmlRegisterTypeIN10QtMobility25QDeclarativeLandmarkModelEEiPKciiS3_ 0x0001662c   Section      288  location.o(t._Z15qmlRegisterTypeIN10QtMobility25QDeclarativeLandmarkModelEEiPKciiS3_)
    t._Z15qmlRegisterTypeIN10QtMobility25QDeclarativeLandmarkModelEEiPKciiS3_.clean 0x0001674c   Section       52  location.o(t._Z15qmlRegisterTypeIN10QtMobility25QDeclarativeLandmarkModelEEiPKciiS3_.clean)
    t._Z15qmlRegisterTypeIN10QtMobility26QDeclarativeGeoBoundingBoxEEiPKciiS3_ 0x00016780   Section      280  location.o(t._Z15qmlRegisterTypeIN10QtMobility26QDeclarativeGeoBoundingBoxEEiPKciiS3_)
    t._Z15qmlRegisterTypeIN10QtMobility26QDeclarativeGeoBoundingBoxEEiPKciiS3_.clean 0x00016898   Section       52  location.o(t._Z15qmlRegisterTypeIN10QtMobility26QDeclarativeGeoBoundingBoxEEiPKciiS3_.clean)
    t._Z15qmlRegisterTypeIN10QtMobility26QDeclarativeGraphicsGeoMapEEiPKciiS3_ 0x000168cc   Section      288  location.o(t._Z15qmlRegisterTypeIN10QtMobility26QDeclarativeGraphicsGeoMapEEiPKciiS3_)
    t._Z15qmlRegisterTypeIN10QtMobility26QDeclarativeGraphicsGeoMapEEiPKciiS3_.clean 0x000169ec   Section       52  location.o(t._Z15qmlRegisterTypeIN10QtMobility26QDeclarativeGraphicsGeoMapEEiPKciiS3_.clean)
    t._Z15qmlRegisterTypeIN10QtMobility26QDeclarativePositionSourceEEiPKciiS3_ 0x00016a20   Section      280  location.o(t._Z15qmlRegisterTypeIN10QtMobility26QDeclarativePositionSourceEEiPKciiS3_)
    t._Z15qmlRegisterTypeIN10QtMobility26QDeclarativePositionSourceEEiPKciiS3_.clean 0x00016b38   Section       52  location.o(t._Z15qmlRegisterTypeIN10QtMobility26QDeclarativePositionSourceEEiPKciiS3_.clean)
    t._Z15qmlRegisterTypeIN10QtMobility28QDeclarativeGeoMapTextObjectEEiPKciiS3_ 0x00016b6c   Section      280  location.o(t._Z15qmlRegisterTypeIN10QtMobility28QDeclarativeGeoMapTextObjectEEiPKciiS3_)
    t._Z15qmlRegisterTypeIN10QtMobility28QDeclarativeGeoMapTextObjectEEiPKciiS3_.clean 0x00016c84   Section       52  location.o(t._Z15qmlRegisterTypeIN10QtMobility28QDeclarativeGeoMapTextObjectEEiPKciiS3_.clean)
    t._Z15qmlRegisterTypeIN10QtMobility28QDeclarativeLandmarkCategoryEEiPKciiS3_ 0x00016cb8   Section      280  location.o(t._Z15qmlRegisterTypeIN10QtMobility28QDeclarativeLandmarkCategoryEEiPKciiS3_)
    t._Z15qmlRegisterTypeIN10QtMobility28QDeclarativeLandmarkCategoryEEiPKciiS3_.clean 0x00016dd0   Section       52  location.o(t._Z15qmlRegisterTypeIN10QtMobility28QDeclarativeLandmarkCategoryEEiPKciiS3_.clean)
    t._Z15qmlRegisterTypeIN10QtMobility29QDeclarativeLandmarkBoxFilterEEiPKciiS3_ 0x00016e04   Section      280  location.o(t._Z15qmlRegisterTypeIN10QtMobility29QDeclarativeLandmarkBoxFilterEEiPKciiS3_)
    t._Z15qmlRegisterTypeIN10QtMobility29QDeclarativeLandmarkBoxFilterEEiPKciiS3_.clean 0x00016f1c   Section       52  location.o(t._Z15qmlRegisterTypeIN10QtMobility29QDeclarativeLandmarkBoxFilterEEiPKciiS3_.clean)
    t._Z15qmlRegisterTypeIN10QtMobility30QDeclarativeGeoMapCircleObjectEEiPKciiS3_ 0x00016f50   Section      280  location.o(t._Z15qmlRegisterTypeIN10QtMobility30QDeclarativeGeoMapCircleObjectEEiPKciiS3_)
    t._Z15qmlRegisterTypeIN10QtMobility30QDeclarativeGeoMapCircleObjectEEiPKciiS3_.clean 0x00017068   Section       52  location.o(t._Z15qmlRegisterTypeIN10QtMobility30QDeclarativeGeoMapCircleObjectEEiPKciiS3_.clean)
    t._Z15qmlRegisterTypeIN10QtMobility30QDeclarativeGeoMapObjectBorderEEiv 0x0001709c   Section      264  location.o(t._Z15qmlRegisterTypeIN10QtMobility30QDeclarativeGeoMapObjectBorderEEiv)
    t._Z15qmlRegisterTypeIN10QtMobility30QDeclarativeGeoMapObjectBorderEEiv.clean 0x000171a4   Section       52  location.o(t._Z15qmlRegisterTypeIN10QtMobility30QDeclarativeGeoMapObjectBorderEEiv.clean)
    t._Z15qmlRegisterTypeIN10QtMobility30QDeclarativeGeoMapPixmapObjectEEiPKciiS3_ 0x000171d8   Section      280  location.o(t._Z15qmlRegisterTypeIN10QtMobility30QDeclarativeGeoMapPixmapObjectEEiPKciiS3_)
    t._Z15qmlRegisterTypeIN10QtMobility30QDeclarativeGeoMapPixmapObjectEEiPKciiS3_.clean 0x000172f0   Section       52  location.o(t._Z15qmlRegisterTypeIN10QtMobility30QDeclarativeGeoMapPixmapObjectEEiPKciiS3_.clean)
    t._Z15qmlRegisterTypeIN10QtMobility30QDeclarativeGeoServiceProviderEEiPKciiS3_ 0x00017324   Section      280  location.o(t._Z15qmlRegisterTypeIN10QtMobility30QDeclarativeGeoServiceProviderEEiPKciiS3_)
    t._Z15qmlRegisterTypeIN10QtMobility30QDeclarativeGeoServiceProviderEEiPKciiS3_.clean 0x0001743c   Section       52  location.o(t._Z15qmlRegisterTypeIN10QtMobility30QDeclarativeGeoServiceProviderEEiPKciiS3_.clean)
    t._Z15qmlRegisterTypeIN10QtMobility30QDeclarativeLandmarkNameFilterEEiPKciiS3_ 0x00017470   Section      280  location.o(t._Z15qmlRegisterTypeIN10QtMobility30QDeclarativeLandmarkNameFilterEEiPKciiS3_)
    t._Z15qmlRegisterTypeIN10QtMobility30QDeclarativeLandmarkNameFilterEEiPKciiS3_.clean 0x00017588   Section       52  location.o(t._Z15qmlRegisterTypeIN10QtMobility30QDeclarativeLandmarkNameFilterEEiPKciiS3_.clean)
    t._Z15qmlRegisterTypeIN10QtMobility31QDeclarativeGeoMapPolygonObjectEEiPKciiS3_ 0x000175bc   Section      280  location.o(t._Z15qmlRegisterTypeIN10QtMobility31QDeclarativeGeoMapPolygonObjectEEiPKciiS3_)
    t._Z15qmlRegisterTypeIN10QtMobility31QDeclarativeGeoMapPolygonObjectEEiPKciiS3_.clean 0x000176d4   Section       52  location.o(t._Z15qmlRegisterTypeIN10QtMobility31QDeclarativeGeoMapPolygonObjectEEiPKciiS3_.clean)
    t._Z15qmlRegisterTypeIN10QtMobility31QDeclarativeLandmarkUnionFilterEEiPKciiS3_ 0x00017708   Section      280  location.o(t._Z15qmlRegisterTypeIN10QtMobility31QDeclarativeLandmarkUnionFilterEEiPKciiS3_)
    t._Z15qmlRegisterTypeIN10QtMobility31QDeclarativeLandmarkUnionFilterEEiPKciiS3_.clean 0x00017820   Section       52  location.o(t._Z15qmlRegisterTypeIN10QtMobility31QDeclarativeLandmarkUnionFilterEEiPKciiS3_.clean)
    t._Z15qmlRegisterTypeIN10QtMobility31QDeclarativeReverseGeocodeModelEEiPKciiS3_ 0x00017854   Section      288  location.o(t._Z15qmlRegisterTypeIN10QtMobility31QDeclarativeReverseGeocodeModelEEiPKciiS3_)
    t._Z15qmlRegisterTypeIN10QtMobility31QDeclarativeReverseGeocodeModelEEiPKciiS3_.clean 0x00017974   Section       52  location.o(t._Z15qmlRegisterTypeIN10QtMobility31QDeclarativeReverseGeocodeModelEEiPKciiS3_.clean)
    t._Z15qmlRegisterTypeIN10QtMobility32QDeclarativeGeoMapPolylineObjectEEiPKciiS3_ 0x000179a8   Section      280  location.o(t._Z15qmlRegisterTypeIN10QtMobility32QDeclarativeGeoMapPolylineObjectEEiPKciiS3_)
    t._Z15qmlRegisterTypeIN10QtMobility32QDeclarativeGeoMapPolylineObjectEEiPKciiS3_.clean 0x00017ac0   Section       52  location.o(t._Z15qmlRegisterTypeIN10QtMobility32QDeclarativeGeoMapPolylineObjectEEiPKciiS3_.clean)
    t._Z15qmlRegisterTypeIN10QtMobility33QDeclarativeGeoMapRectangleObjectEEiPKciiS3_ 0x00017af4   Section      280  location.o(t._Z15qmlRegisterTypeIN10QtMobility33QDeclarativeGeoMapRectangleObjectEEiPKciiS3_)
    t._Z15qmlRegisterTypeIN10QtMobility33QDeclarativeGeoMapRectangleObjectEEiPKciiS3_.clean 0x00017c0c   Section       52  location.o(t._Z15qmlRegisterTypeIN10QtMobility33QDeclarativeGeoMapRectangleObjectEEiPKciiS3_.clean)
    t._Z15qmlRegisterTypeIN10QtMobility33QDeclarativeLandmarkCategoryModelEEiPKciiS3_ 0x00017c40   Section      288  location.o(t._Z15qmlRegisterTypeIN10QtMobility33QDeclarativeLandmarkCategoryModelEEiPKciiS3_)
    t._Z15qmlRegisterTypeIN10QtMobility33QDeclarativeLandmarkCategoryModelEEiPKciiS3_.clean 0x00017d60   Section       52  location.o(t._Z15qmlRegisterTypeIN10QtMobility33QDeclarativeLandmarkCategoryModelEEiPKciiS3_.clean)
    t._Z15qmlRegisterTypeIN10QtMobility34QDeclarativeLandmarkCategoryFilterEEiPKciiS3_ 0x00017d94   Section      280  location.o(t._Z15qmlRegisterTypeIN10QtMobility34QDeclarativeLandmarkCategoryFilterEEiPKciiS3_)
    t._Z15qmlRegisterTypeIN10QtMobility34QDeclarativeLandmarkCategoryFilterEEiPKciiS3_.clean 0x00017eac   Section       52  location.o(t._Z15qmlRegisterTypeIN10QtMobility34QDeclarativeLandmarkCategoryFilterEEiPKciiS3_.clean)
    t._Z15qmlRegisterTypeIN10QtMobility35QDeclarativeLandmarkProximityFilterEEiPKciiS3_ 0x00017ee0   Section      280  location.o(t._Z15qmlRegisterTypeIN10QtMobility35QDeclarativeLandmarkProximityFilterEEiPKciiS3_)
    t._Z15qmlRegisterTypeIN10QtMobility35QDeclarativeLandmarkProximityFilterEEiPKciiS3_.clean 0x00017ff8   Section       52  location.o(t._Z15qmlRegisterTypeIN10QtMobility35QDeclarativeLandmarkProximityFilterEEiPKciiS3_.clean)
    t._Z15qmlRegisterTypeIN10QtMobility38QDeclarativeLandmarkIntersectionFilterEEiPKciiS3_ 0x0001802c   Section      280  location.o(t._Z15qmlRegisterTypeIN10QtMobility38QDeclarativeLandmarkIntersectionFilterEEiPKciiS3_)
    t._Z15qmlRegisterTypeIN10QtMobility38QDeclarativeLandmarkIntersectionFilterEEiPKciiS3_.clean 0x00018144   Section       52  location.o(t._Z15qmlRegisterTypeIN10QtMobility38QDeclarativeLandmarkIntersectionFilterEEiPKciiS3_.clean)
    t._Z15qmlRegisterTypeIN10QtMobility39QDeclarativeGeoServiceProviderParameterEEiPKciiS3_ 0x00018178   Section      280  location.o(t._Z15qmlRegisterTypeIN10QtMobility39QDeclarativeGeoServiceProviderParameterEEiPKciiS3_)
    t._Z15qmlRegisterTypeIN10QtMobility39QDeclarativeGeoServiceProviderParameterEEiPKciiS3_.clean 0x00018290   Section       52  location.o(t._Z15qmlRegisterTypeIN10QtMobility39QDeclarativeGeoServiceProviderParameterEEiPKciiS3_.clean)
    t._Z17qRegisterMetaTypeI24QDeclarativeListPropertyIN10QtMobility13QGeoMapObjectEEEiPKcPT_ 0x000182c4   Section       64  location.o(t._Z17qRegisterMetaTypeI24QDeclarativeListPropertyIN10QtMobility13QGeoMapObjectEEEiPKcPT_)
    t._Z17qRegisterMetaTypeI24QDeclarativeListPropertyIN10QtMobility20QDeclarativeGeoPlaceEEEiPKcPT_ 0x00018304   Section      176  location.o(t._Z17qRegisterMetaTypeI24QDeclarativeListPropertyIN10QtMobility20QDeclarativeGeoPlaceEEEiPKcPT_)
    t._Z17qRegisterMetaTypeI24QDeclarativeListPropertyIN10QtMobility20QDeclarativeLandmarkEEEiPKcPT_ 0x000183b4   Section      176  location.o(t._Z17qRegisterMetaTypeI24QDeclarativeListPropertyIN10QtMobility20QDeclarativeLandmarkEEEiPKcPT_)
    t._Z17qRegisterMetaTypeI24QDeclarativeListPropertyIN10QtMobility20QDeclarativePositionEEEiPKcPT_ 0x00018464   Section      176  location.o(t._Z17qRegisterMetaTypeI24QDeclarativeListPropertyIN10QtMobility20QDeclarativePositionEEEiPKcPT_)
    t._Z17qRegisterMetaTypeI24QDeclarativeListPropertyIN10QtMobility22QDeclarativeCoordinateEEEiPKcPT_ 0x00018514   Section      176  location.o(t._Z17qRegisterMetaTypeI24QDeclarativeListPropertyIN10QtMobility22QDeclarativeCoordinateEEEiPKcPT_)
    t._Z17qRegisterMetaTypeI24QDeclarativeListPropertyIN10QtMobility22QDeclarativeGeoAddressEEEiPKcPT_ 0x000185c4   Section      176  location.o(t._Z17qRegisterMetaTypeI24QDeclarativeListPropertyIN10QtMobility22QDeclarativeGeoAddressEEEiPKcPT_)
    t._Z17qRegisterMetaTypeI24QDeclarativeListPropertyIN10QtMobility24QDeclarativeGeoMapObjectEEEiPKcPT_ 0x00018674   Section      116  location.o(t._Z17qRegisterMetaTypeI24QDeclarativeListPropertyIN10QtMobility24QDeclarativeGeoMapObjectEEEiPKcPT_)
    t._Z17qRegisterMetaTypeI24QDeclarativeListPropertyIN10QtMobility24QDeclarativeGeocodeModelEEEiPKcPT_ 0x000186e8   Section       64  location.o(t._Z17qRegisterMetaTypeI24QDeclarativeListPropertyIN10QtMobility24QDeclarativeGeocodeModelEEEiPKcPT_)
    t._Z17qRegisterMetaTypeI24QDeclarativeListPropertyIN10QtMobility25QDeclarativeLandmarkModelEEEiPKcPT_ 0x00018728   Section      116  location.o(t._Z17qRegisterMetaTypeI24QDeclarativeListPropertyIN10QtMobility25QDeclarativeLandmarkModelEEEiPKcPT_)
    t._Z17qRegisterMetaTypeI24QDeclarativeListPropertyIN10QtMobility26QDeclarativeGeoBoundingBoxEEEiPKcPT_ 0x0001879c   Section      116  location.o(t._Z17qRegisterMetaTypeI24QDeclarativeListPropertyIN10QtMobility26QDeclarativeGeoBoundingBoxEEEiPKcPT_)
    t._Z17qRegisterMetaTypeI24QDeclarativeListPropertyIN10QtMobility26QDeclarativeGraphicsGeoMapEEEiPKcPT_ 0x00018810   Section      116  location.o(t._Z17qRegisterMetaTypeI24QDeclarativeListPropertyIN10QtMobility26QDeclarativeGraphicsGeoMapEEEiPKcPT_)
    t._Z17qRegisterMetaTypeI24QDeclarativeListPropertyIN10QtMobility26QDeclarativePositionSourceEEEiPKcPT_ 0x00018884   Section      116  location.o(t._Z17qRegisterMetaTypeI24QDeclarativeListPropertyIN10QtMobility26QDeclarativePositionSourceEEEiPKcPT_)
    t._Z17qRegisterMetaTypeI24QDeclarativeListPropertyIN10QtMobility28QDeclarativeGeoMapTextObjectEEEiPKcPT_ 0x000188f8   Section      116  location.o(t._Z17qRegisterMetaTypeI24QDeclarativeListPropertyIN10QtMobility28QDeclarativeGeoMapTextObjectEEEiPKcPT_)
    t._Z17qRegisterMetaTypeI24QDeclarativeListPropertyIN10QtMobility28QDeclarativeLandmarkCategoryEEEiPKcPT_ 0x0001896c   Section      116  location.o(t._Z17qRegisterMetaTypeI24QDeclarativeListPropertyIN10QtMobility28QDeclarativeLandmarkCategoryEEEiPKcPT_)
    t._Z17qRegisterMetaTypeI24QDeclarativeListPropertyIN10QtMobility29QDeclarativeLandmarkBoxFilterEEEiPKcPT_ 0x000189e0   Section      116  location.o(t._Z17qRegisterMetaTypeI24QDeclarativeListPropertyIN10QtMobility29QDeclarativeLandmarkBoxFilterEEEiPKcPT_)
    t._Z17qRegisterMetaTypeI24QDeclarativeListPropertyIN10QtMobility30QDeclarativeGeoMapCircleObjectEEEiPKcPT_ 0x00018a54   Section      116  location.o(t._Z17qRegisterMetaTypeI24QDeclarativeListPropertyIN10QtMobility30QDeclarativeGeoMapCircleObjectEEEiPKcPT_)
    t._Z17qRegisterMetaTypeI24QDeclarativeListPropertyIN10QtMobility30QDeclarativeGeoMapObjectBorderEEEiPKcPT_ 0x00018ac8   Section      116  location.o(t._Z17qRegisterMetaTypeI24QDeclarativeListPropertyIN10QtMobility30QDeclarativeGeoMapObjectBorderEEEiPKcPT_)
    t._Z17qRegisterMetaTypeI24QDeclarativeListPropertyIN10QtMobility30QDeclarativeGeoMapPixmapObjectEEEiPKcPT_ 0x00018b3c   Section      116  location.o(t._Z17qRegisterMetaTypeI24QDeclarativeListPropertyIN10QtMobility30QDeclarativeGeoMapPixmapObjectEEEiPKcPT_)
    t._Z17qRegisterMetaTypeI24QDeclarativeListPropertyIN10QtMobility30QDeclarativeGeoServiceProviderEEEiPKcPT_ 0x00018bb0   Section      116  location.o(t._Z17qRegisterMetaTypeI24QDeclarativeListPropertyIN10QtMobility30QDeclarativeGeoServiceProviderEEEiPKcPT_)
    t._Z17qRegisterMetaTypeI24QDeclarativeListPropertyIN10QtMobility30QDeclarativeLandmarkFilterBaseEEEiPKcPT_ 0x00018c24   Section       64  location.o(t._Z17qRegisterMetaTypeI24QDeclarativeListPropertyIN10QtMobility30QDeclarativeLandmarkFilterBaseEEEiPKcPT_)
    t._Z17qRegisterMetaTypeI24QDeclarativeListPropertyIN10QtMobility30QDeclarativeLandmarkNameFilterEEEiPKcPT_ 0x00018c64   Section      116  location.o(t._Z17qRegisterMetaTypeI24QDeclarativeListPropertyIN10QtMobility30QDeclarativeLandmarkNameFilterEEEiPKcPT_)
    t._Z17qRegisterMetaTypeI24QDeclarativeListPropertyIN10QtMobility31QDeclarativeGeoMapPolygonObjectEEEiPKcPT_ 0x00018cd8   Section      116  location.o(t._Z17qRegisterMetaTypeI24QDeclarativeListPropertyIN10QtMobility31QDeclarativeGeoMapPolygonObjectEEEiPKcPT_)
    t._Z17qRegisterMetaTypeI24QDeclarativeListPropertyIN10QtMobility31QDeclarativeLandmarkUnionFilterEEEiPKcPT_ 0x00018d4c   Section      116  location.o(t._Z17qRegisterMetaTypeI24QDeclarativeListPropertyIN10QtMobility31QDeclarativeLandmarkUnionFilterEEEiPKcPT_)
    t._Z17qRegisterMetaTypeI24QDeclarativeListPropertyIN10QtMobility31QDeclarativeReverseGeocodeModelEEEiPKcPT_ 0x00018dc0   Section       64  location.o(t._Z17qRegisterMetaTypeI24QDeclarativeListPropertyIN10QtMobility31QDeclarativeReverseGeocodeModelEEEiPKcPT_)
    t._Z17qRegisterMetaTypeI24QDeclarativeListPropertyIN10QtMobility32QDeclarativeGeoMapPolylineObjectEEEiPKcPT_ 0x00018e00   Section      116  location.o(t._Z17qRegisterMetaTypeI24QDeclarativeListPropertyIN10QtMobility32QDeclarativeGeoMapPolylineObjectEEEiPKcPT_)
    t._Z17qRegisterMetaTypeI24QDeclarativeListPropertyIN10QtMobility33QDeclarativeGeoMapRectangleObjectEEEiPKcPT_ 0x00018e74   Section      116  location.o(t._Z17qRegisterMetaTypeI24QDeclarativeListPropertyIN10QtMobility33QDeclarativeGeoMapRectangleObjectEEEiPKcPT_)
    t._Z17qRegisterMetaTypeI24QDeclarativeListPropertyIN10QtMobility33QDeclarativeLandmarkAbstractModelEEEiPKcPT_ 0x00018ee8   Section       64  location.o(t._Z17qRegisterMetaTypeI24QDeclarativeListPropertyIN10QtMobility33QDeclarativeLandmarkAbstractModelEEEiPKcPT_)
    t._Z17qRegisterMetaTypeI24QDeclarativeListPropertyIN10QtMobility33QDeclarativeLandmarkCategoryModelEEEiPKcPT_ 0x00018f28   Section      116  location.o(t._Z17qRegisterMetaTypeI24QDeclarativeListPropertyIN10QtMobility33QDeclarativeLandmarkCategoryModelEEEiPKcPT_)
    t._Z17qRegisterMetaTypeI24QDeclarativeListPropertyIN10QtMobility34QDeclarativeLandmarkCategoryFilterEEEiPKcPT_ 0x00018f9c   Section      116  location.o(t._Z17qRegisterMetaTypeI24QDeclarativeListPropertyIN10QtMobility34QDeclarativeLandmarkCategoryFilterEEEiPKcPT_)
    t._Z17qRegisterMetaTypeI24QDeclarativeListPropertyIN10QtMobility35QDeclarativeLandmarkProximityFilterEEEiPKcPT_ 0x00019010   Section      116  location.o(t._Z17qRegisterMetaTypeI24QDeclarativeListPropertyIN10QtMobility35QDeclarativeLandmarkProximityFilterEEEiPKcPT_)
    t._Z17qRegisterMetaTypeI24QDeclarativeListPropertyIN10QtMobility38QDeclarativeLandmarkIntersectionFilterEEEiPKcPT_ 0x00019084   Section      116  location.o(t._Z17qRegisterMetaTypeI24QDeclarativeListPropertyIN10QtMobility38QDeclarativeLandmarkIntersectionFilterEEEiPKcPT_)
    t._Z17qRegisterMetaTypeI24QDeclarativeListPropertyIN10QtMobility39QDeclarativeGeoServiceProviderParameterEEEiPKcPT_ 0x000190f8   Section      116  location.o(t._Z17qRegisterMetaTypeI24QDeclarativeListPropertyIN10QtMobility39QDeclarativeGeoServiceProviderParameterEEEiPKcPT_)
    t._Z17qRegisterMetaTypeIN10QtMobility9QLandmarkEEiPKcPT_ 0x0001916c   Section       64  qdeclarativegeosearchmodel.o(t._Z17qRegisterMetaTypeIN10QtMobility9QLandmarkEEiPKcPT_)
    t._Z17qRegisterMetaTypeIPN10QtMobility13QGeoMapObjectEEiPKcPT_ 0x000191ac   Section       64  location.o(t._Z17qRegisterMetaTypeIPN10QtMobility13QGeoMapObjectEEiPKcPT_)
    t._Z17qRegisterMetaTypeIPN10QtMobility20QDeclarativeGeoPlaceEEiPKcPT_ 0x000191ec   Section       64  qdeclarativegeosearchmodel.o(t._Z17qRegisterMetaTypeIPN10QtMobility20QDeclarativeGeoPlaceEEiPKcPT_)
    t._Z17qRegisterMetaTypeIPN10QtMobility20QDeclarativeLandmarkEEiPKcPT_ 0x0001922c   Section       64  qdeclarativelandmarkmodel.o(t._Z17qRegisterMetaTypeIPN10QtMobility20QDeclarativeLandmarkEEiPKcPT_)
    t._Z17qRegisterMetaTypeIPN10QtMobility20QDeclarativePositionEEiPKcPT_ 0x0001926c   Section      152  location.o(t._Z17qRegisterMetaTypeIPN10QtMobility20QDeclarativePositionEEiPKcPT_)
    t._Z17qRegisterMetaTypeIPN10QtMobility22QDeclarativeCoordinateEEiPKcPT_ 0x00019304   Section      152  location.o(t._Z17qRegisterMetaTypeIPN10QtMobility22QDeclarativeCoordinateEEiPKcPT_)
    t._Z17qRegisterMetaTypeIPN10QtMobility22QDeclarativeGeoAddressEEiPKcPT_ 0x0001939c   Section      152  location.o(t._Z17qRegisterMetaTypeIPN10QtMobility22QDeclarativeGeoAddressEEiPKcPT_)
    t._Z17qRegisterMetaTypeIPN10QtMobility24QDeclarativeGeoMapObjectEEiPKcPT_ 0x00019434   Section      156  location.o(t._Z17qRegisterMetaTypeIPN10QtMobility24QDeclarativeGeoMapObjectEEiPKcPT_)
    t._Z17qRegisterMetaTypeIPN10QtMobility24QDeclarativeGeocodeModelEEiPKcPT_ 0x000194d0   Section       64  location.o(t._Z17qRegisterMetaTypeIPN10QtMobility24QDeclarativeGeocodeModelEEiPKcPT_)
    t._Z17qRegisterMetaTypeIPN10QtMobility25QDeclarativeLandmarkModelEEiPKcPT_ 0x00019510   Section      156  location.o(t._Z17qRegisterMetaTypeIPN10QtMobility25QDeclarativeLandmarkModelEEiPKcPT_)
    t._Z17qRegisterMetaTypeIPN10QtMobility26QDeclarativeGeoBoundingBoxEEiPKcPT_ 0x000195ac   Section      156  location.o(t._Z17qRegisterMetaTypeIPN10QtMobility26QDeclarativeGeoBoundingBoxEEiPKcPT_)
    t._Z17qRegisterMetaTypeIPN10QtMobility26QDeclarativeGraphicsGeoMapEEiPKcPT_ 0x00019648   Section      156  location.o(t._Z17qRegisterMetaTypeIPN10QtMobility26QDeclarativeGraphicsGeoMapEEiPKcPT_)
    t._Z17qRegisterMetaTypeIPN10QtMobility26QDeclarativePositionSourceEEiPKcPT_ 0x000196e4   Section      156  location.o(t._Z17qRegisterMetaTypeIPN10QtMobility26QDeclarativePositionSourceEEiPKcPT_)
    t._Z17qRegisterMetaTypeIPN10QtMobility28QDeclarativeGeoMapTextObjectEEiPKcPT_ 0x00019780   Section      160  location.o(t._Z17qRegisterMetaTypeIPN10QtMobility28QDeclarativeGeoMapTextObjectEEiPKcPT_)
    t._Z17qRegisterMetaTypeIPN10QtMobility28QDeclarativeLandmarkCategoryEEiPKcPT_ 0x00019820   Section       64  qdeclarativelandmarkcategorymodel.o(t._Z17qRegisterMetaTypeIPN10QtMobility28QDeclarativeLandmarkCategoryEEiPKcPT_)
    t._Z17qRegisterMetaTypeIPN10QtMobility29QDeclarativeLandmarkBoxFilterEEiPKcPT_ 0x00019860   Section      160  location.o(t._Z17qRegisterMetaTypeIPN10QtMobility29QDeclarativeLandmarkBoxFilterEEiPKcPT_)
    t._Z17qRegisterMetaTypeIPN10QtMobility30QDeclarativeGeoMapCircleObjectEEiPKcPT_ 0x00019900   Section      160  location.o(t._Z17qRegisterMetaTypeIPN10QtMobility30QDeclarativeGeoMapCircleObjectEEiPKcPT_)
    t._Z17qRegisterMetaTypeIPN10QtMobility30QDeclarativeGeoMapObjectBorderEEiPKcPT_ 0x000199a0   Section      160  location.o(t._Z17qRegisterMetaTypeIPN10QtMobility30QDeclarativeGeoMapObjectBorderEEiPKcPT_)
    t._Z17qRegisterMetaTypeIPN10QtMobility30QDeclarativeGeoMapPixmapObjectEEiPKcPT_ 0x00019a40   Section      160  location.o(t._Z17qRegisterMetaTypeIPN10QtMobility30QDeclarativeGeoMapPixmapObjectEEiPKcPT_)
    t._Z17qRegisterMetaTypeIPN10QtMobility30QDeclarativeGeoServiceProviderEEiPKcPT_ 0x00019ae0   Section      160  location.o(t._Z17qRegisterMetaTypeIPN10QtMobility30QDeclarativeGeoServiceProviderEEiPKcPT_)
    t._Z17qRegisterMetaTypeIPN10QtMobility30QDeclarativeLandmarkFilterBaseEEiPKcPT_ 0x00019b80   Section       64  location.o(t._Z17qRegisterMetaTypeIPN10QtMobility30QDeclarativeLandmarkFilterBaseEEiPKcPT_)
    t._Z17qRegisterMetaTypeIPN10QtMobility30QDeclarativeLandmarkNameFilterEEiPKcPT_ 0x00019bc0   Section      160  location.o(t._Z17qRegisterMetaTypeIPN10QtMobility30QDeclarativeLandmarkNameFilterEEiPKcPT_)
    t._Z17qRegisterMetaTypeIPN10QtMobility31QDeclarativeGeoMapPolygonObjectEEiPKcPT_ 0x00019c60   Section      160  location.o(t._Z17qRegisterMetaTypeIPN10QtMobility31QDeclarativeGeoMapPolygonObjectEEiPKcPT_)
    t._Z17qRegisterMetaTypeIPN10QtMobility31QDeclarativeLandmarkUnionFilterEEiPKcPT_ 0x00019d00   Section      160  location.o(t._Z17qRegisterMetaTypeIPN10QtMobility31QDeclarativeLandmarkUnionFilterEEiPKcPT_)
    t._Z17qRegisterMetaTypeIPN10QtMobility31QDeclarativeReverseGeocodeModelEEiPKcPT_ 0x00019da0   Section       64  location.o(t._Z17qRegisterMetaTypeIPN10QtMobility31QDeclarativeReverseGeocodeModelEEiPKcPT_)
    t._Z17qRegisterMetaTypeIPN10QtMobility32QDeclarativeGeoMapPolylineObjectEEiPKcPT_ 0x00019de0   Section      164  location.o(t._Z17qRegisterMetaTypeIPN10QtMobility32QDeclarativeGeoMapPolylineObjectEEiPKcPT_)
    t._Z17qRegisterMetaTypeIPN10QtMobility33QDeclarativeGeoMapRectangleObjectEEiPKcPT_ 0x00019e84   Section      164  location.o(t._Z17qRegisterMetaTypeIPN10QtMobility33QDeclarativeGeoMapRectangleObjectEEiPKcPT_)
    t._Z17qRegisterMetaTypeIPN10QtMobility33QDeclarativeLandmarkAbstractModelEEiPKcPT_ 0x00019f28   Section       64  location.o(t._Z17qRegisterMetaTypeIPN10QtMobility33QDeclarativeLandmarkAbstractModelEEiPKcPT_)
    t._Z17qRegisterMetaTypeIPN10QtMobility33QDeclarativeLandmarkCategoryModelEEiPKcPT_ 0x00019f68   Section      164  location.o(t._Z17qRegisterMetaTypeIPN10QtMobility33QDeclarativeLandmarkCategoryModelEEiPKcPT_)
    t._Z17qRegisterMetaTypeIPN10QtMobility34QDeclarativeLandmarkCategoryFilterEEiPKcPT_ 0x0001a00c   Section      164  location.o(t._Z17qRegisterMetaTypeIPN10QtMobility34QDeclarativeLandmarkCategoryFilterEEiPKcPT_)
    t._Z17qRegisterMetaTypeIPN10QtMobility35QDeclarativeLandmarkProximityFilterEEiPKcPT_ 0x0001a0b0   Section      164  location.o(t._Z17qRegisterMetaTypeIPN10QtMobility35QDeclarativeLandmarkProximityFilterEEiPKcPT_)
    t._Z17qRegisterMetaTypeIPN10QtMobility38QDeclarativeLandmarkIntersectionFilterEEiPKcPT_ 0x0001a154   Section      168  location.o(t._Z17qRegisterMetaTypeIPN10QtMobility38QDeclarativeLandmarkIntersectionFilterEEiPKcPT_)
    t._Z17qRegisterMetaTypeIPN10QtMobility39QDeclarativeGeoServiceProviderParameterEEiPKcPT_ 0x0001a1fc   Section      168  location.o(t._Z17qRegisterMetaTypeIPN10QtMobility39QDeclarativeGeoServiceProviderParameterEEiPKcPT_)
    t._Z21qMetaTypeDeleteHelperI24QDeclarativeListPropertyIN10QtMobility13QGeoMapObjectEEEvPT_ 0x0001a2a4   Section       12  location.o(t._Z21qMetaTypeDeleteHelperI24QDeclarativeListPropertyIN10QtMobility13QGeoMapObjectEEEvPT_)
    t._Z21qMetaTypeDeleteHelperI24QDeclarativeListPropertyIN10QtMobility20QDeclarativeGeoPlaceEEEvPT_ 0x0001a2b0   Section       12  location.o(t._Z21qMetaTypeDeleteHelperI24QDeclarativeListPropertyIN10QtMobility20QDeclarativeGeoPlaceEEEvPT_)
    t._Z21qMetaTypeDeleteHelperI24QDeclarativeListPropertyIN10QtMobility20QDeclarativeLandmarkEEEvPT_ 0x0001a2bc   Section       12  location.o(t._Z21qMetaTypeDeleteHelperI24QDeclarativeListPropertyIN10QtMobility20QDeclarativeLandmarkEEEvPT_)
    t._Z21qMetaTypeDeleteHelperI24QDeclarativeListPropertyIN10QtMobility20QDeclarativePositionEEEvPT_ 0x0001a2c8   Section       12  location.o(t._Z21qMetaTypeDeleteHelperI24QDeclarativeListPropertyIN10QtMobility20QDeclarativePositionEEEvPT_)
    t._Z21qMetaTypeDeleteHelperI24QDeclarativeListPropertyIN10QtMobility22QDeclarativeCoordinateEEEvPT_ 0x0001a2d4   Section       12  location.o(t._Z21qMetaTypeDeleteHelperI24QDeclarativeListPropertyIN10QtMobility22QDeclarativeCoordinateEEEvPT_)
    t._Z21qMetaTypeDeleteHelperI24QDeclarativeListPropertyIN10QtMobility22QDeclarativeGeoAddressEEEvPT_ 0x0001a2e0   Section       12  location.o(t._Z21qMetaTypeDeleteHelperI24QDeclarativeListPropertyIN10QtMobility22QDeclarativeGeoAddressEEEvPT_)
    t._Z21qMetaTypeDeleteHelperI24QDeclarativeListPropertyIN10QtMobility24QDeclarativeGeoMapObjectEEEvPT_ 0x0001a2ec   Section       12  location.o(t._Z21qMetaTypeDeleteHelperI24QDeclarativeListPropertyIN10QtMobility24QDeclarativeGeoMapObjectEEEvPT_)
    t._Z21qMetaTypeDeleteHelperI24QDeclarativeListPropertyIN10QtMobility24QDeclarativeGeocodeModelEEEvPT_ 0x0001a2f8   Section       12  location.o(t._Z21qMetaTypeDeleteHelperI24QDeclarativeListPropertyIN10QtMobility24QDeclarativeGeocodeModelEEEvPT_)
    t._Z21qMetaTypeDeleteHelperI24QDeclarativeListPropertyIN10QtMobility25QDeclarativeLandmarkModelEEEvPT_ 0x0001a304   Section       12  location.o(t._Z21qMetaTypeDeleteHelperI24QDeclarativeListPropertyIN10QtMobility25QDeclarativeLandmarkModelEEEvPT_)
    t._Z21qMetaTypeDeleteHelperI24QDeclarativeListPropertyIN10QtMobility26QDeclarativeGeoBoundingBoxEEEvPT_ 0x0001a310   Section       12  location.o(t._Z21qMetaTypeDeleteHelperI24QDeclarativeListPropertyIN10QtMobility26QDeclarativeGeoBoundingBoxEEEvPT_)
    t._Z21qMetaTypeDeleteHelperI24QDeclarativeListPropertyIN10QtMobility26QDeclarativeGraphicsGeoMapEEEvPT_ 0x0001a31c   Section       12  location.o(t._Z21qMetaTypeDeleteHelperI24QDeclarativeListPropertyIN10QtMobility26QDeclarativeGraphicsGeoMapEEEvPT_)
    t._Z21qMetaTypeDeleteHelperI24QDeclarativeListPropertyIN10QtMobility26QDeclarativePositionSourceEEEvPT_ 0x0001a328   Section       12  location.o(t._Z21qMetaTypeDeleteHelperI24QDeclarativeListPropertyIN10QtMobility26QDeclarativePositionSourceEEEvPT_)
    t._Z21qMetaTypeDeleteHelperI24QDeclarativeListPropertyIN10QtMobility28QDeclarativeGeoMapTextObjectEEEvPT_ 0x0001a334   Section       12  location.o(t._Z21qMetaTypeDeleteHelperI24QDeclarativeListPropertyIN10QtMobility28QDeclarativeGeoMapTextObjectEEEvPT_)
    t._Z21qMetaTypeDeleteHelperI24QDeclarativeListPropertyIN10QtMobility28QDeclarativeLandmarkCategoryEEEvPT_ 0x0001a340   Section       12  location.o(t._Z21qMetaTypeDeleteHelperI24QDeclarativeListPropertyIN10QtMobility28QDeclarativeLandmarkCategoryEEEvPT_)
    t._Z21qMetaTypeDeleteHelperI24QDeclarativeListPropertyIN10QtMobility29QDeclarativeLandmarkBoxFilterEEEvPT_ 0x0001a34c   Section       12  location.o(t._Z21qMetaTypeDeleteHelperI24QDeclarativeListPropertyIN10QtMobility29QDeclarativeLandmarkBoxFilterEEEvPT_)
    t._Z21qMetaTypeDeleteHelperI24QDeclarativeListPropertyIN10QtMobility30QDeclarativeGeoMapCircleObjectEEEvPT_ 0x0001a358   Section       12  location.o(t._Z21qMetaTypeDeleteHelperI24QDeclarativeListPropertyIN10QtMobility30QDeclarativeGeoMapCircleObjectEEEvPT_)
    t._Z21qMetaTypeDeleteHelperI24QDeclarativeListPropertyIN10QtMobility30QDeclarativeGeoMapObjectBorderEEEvPT_ 0x0001a364   Section       12  location.o(t._Z21qMetaTypeDeleteHelperI24QDeclarativeListPropertyIN10QtMobility30QDeclarativeGeoMapObjectBorderEEEvPT_)
    t._Z21qMetaTypeDeleteHelperI24QDeclarativeListPropertyIN10QtMobility30QDeclarativeGeoMapPixmapObjectEEEvPT_ 0x0001a370   Section       12  location.o(t._Z21qMetaTypeDeleteHelperI24QDeclarativeListPropertyIN10QtMobility30QDeclarativeGeoMapPixmapObjectEEEvPT_)
    t._Z21qMetaTypeDeleteHelperI24QDeclarativeListPropertyIN10QtMobility30QDeclarativeGeoServiceProviderEEEvPT_ 0x0001a37c   Section       12  location.o(t._Z21qMetaTypeDeleteHelperI24QDeclarativeListPropertyIN10QtMobility30QDeclarativeGeoServiceProviderEEEvPT_)
    t._Z21qMetaTypeDeleteHelperI24QDeclarativeListPropertyIN10QtMobility30QDeclarativeLandmarkFilterBaseEEEvPT_ 0x0001a388   Section       12  location.o(t._Z21qMetaTypeDeleteHelperI24QDeclarativeListPropertyIN10QtMobility30QDeclarativeLandmarkFilterBaseEEEvPT_)
    t._Z21qMetaTypeDeleteHelperI24QDeclarativeListPropertyIN10QtMobility30QDeclarativeLandmarkNameFilterEEEvPT_ 0x0001a394   Section       12  location.o(t._Z21qMetaTypeDeleteHelperI24QDeclarativeListPropertyIN10QtMobility30QDeclarativeLandmarkNameFilterEEEvPT_)
    t._Z21qMetaTypeDeleteHelperI24QDeclarativeListPropertyIN10QtMobility31QDeclarativeGeoMapPolygonObjectEEEvPT_ 0x0001a3a0   Section       12  location.o(t._Z21qMetaTypeDeleteHelperI24QDeclarativeListPropertyIN10QtMobility31QDeclarativeGeoMapPolygonObjectEEEvPT_)
    t._Z21qMetaTypeDeleteHelperI24QDeclarativeListPropertyIN10QtMobility31QDeclarativeLandmarkUnionFilterEEEvPT_ 0x0001a3ac   Section       12  location.o(t._Z21qMetaTypeDeleteHelperI24QDeclarativeListPropertyIN10QtMobility31QDeclarativeLandmarkUnionFilterEEEvPT_)
    t._Z21qMetaTypeDeleteHelperI24QDeclarativeListPropertyIN10QtMobility31QDeclarativeReverseGeocodeModelEEEvPT_ 0x0001a3b8   Section       12  location.o(t._Z21qMetaTypeDeleteHelperI24QDeclarativeListPropertyIN10QtMobility31QDeclarativeReverseGeocodeModelEEEvPT_)
    t._Z21qMetaTypeDeleteHelperI24QDeclarativeListPropertyIN10QtMobility32QDeclarativeGeoMapPolylineObjectEEEvPT_ 0x0001a3c4   Section       12  location.o(t._Z21qMetaTypeDeleteHelperI24QDeclarativeListPropertyIN10QtMobility32QDeclarativeGeoMapPolylineObjectEEEvPT_)
    t._Z21qMetaTypeDeleteHelperI24QDeclarativeListPropertyIN10QtMobility33QDeclarativeGeoMapRectangleObjectEEEvPT_ 0x0001a3d0   Section       12  location.o(t._Z21qMetaTypeDeleteHelperI24QDeclarativeListPropertyIN10QtMobility33QDeclarativeGeoMapRectangleObjectEEEvPT_)
    t._Z21qMetaTypeDeleteHelperI24QDeclarativeListPropertyIN10QtMobility33QDeclarativeLandmarkAbstractModelEEEvPT_ 0x0001a3dc   Section       12  location.o(t._Z21qMetaTypeDeleteHelperI24QDeclarativeListPropertyIN10QtMobility33QDeclarativeLandmarkAbstractModelEEEvPT_)
    t._Z21qMetaTypeDeleteHelperI24QDeclarativeListPropertyIN10QtMobility33QDeclarativeLandmarkCategoryModelEEEvPT_ 0x0001a3e8   Section       12  location.o(t._Z21qMetaTypeDeleteHelperI24QDeclarativeListPropertyIN10QtMobility33QDeclarativeLandmarkCategoryModelEEEvPT_)
    t._Z21qMetaTypeDeleteHelperI24QDeclarativeListPropertyIN10QtMobility34QDeclarativeLandmarkCategoryFilterEEEvPT_ 0x0001a3f4   Section       12  location.o(t._Z21qMetaTypeDeleteHelperI24QDeclarativeListPropertyIN10QtMobility34QDeclarativeLandmarkCategoryFilterEEEvPT_)
    t._Z21qMetaTypeDeleteHelperI24QDeclarativeListPropertyIN10QtMobility35QDeclarativeLandmarkProximityFilterEEEvPT_ 0x0001a400   Section       12  location.o(t._Z21qMetaTypeDeleteHelperI24QDeclarativeListPropertyIN10QtMobility35QDeclarativeLandmarkProximityFilterEEEvPT_)
    t._Z21qMetaTypeDeleteHelperI24QDeclarativeListPropertyIN10QtMobility38QDeclarativeLandmarkIntersectionFilterEEEvPT_ 0x0001a40c   Section       12  location.o(t._Z21qMetaTypeDeleteHelperI24QDeclarativeListPropertyIN10QtMobility38QDeclarativeLandmarkIntersectionFilterEEEvPT_)
    t._Z21qMetaTypeDeleteHelperI24QDeclarativeListPropertyIN10QtMobility39QDeclarativeGeoServiceProviderParameterEEEvPT_ 0x0001a418   Section       12  location.o(t._Z21qMetaTypeDeleteHelperI24QDeclarativeListPropertyIN10QtMobility39QDeclarativeGeoServiceProviderParameterEEEvPT_)
    t._Z21qMetaTypeDeleteHelperIN10QtMobility9QLandmarkEEvPT_ 0x0001a424   Section       18  qdeclarativegeosearchmodel.o(t._Z21qMetaTypeDeleteHelperIN10QtMobility9QLandmarkEEvPT_)
    t._Z21qMetaTypeDeleteHelperIPN10QtMobility13QGeoMapObjectEEvPT_ 0x0001a436   Section       12  location.o(t._Z21qMetaTypeDeleteHelperIPN10QtMobility13QGeoMapObjectEEvPT_)
    t._Z21qMetaTypeDeleteHelperIPN10QtMobility20QDeclarativeGeoPlaceEEvPT_ 0x0001a442   Section       12  location.o(t._Z21qMetaTypeDeleteHelperIPN10QtMobility20QDeclarativeGeoPlaceEEvPT_)
    t._Z21qMetaTypeDeleteHelperIPN10QtMobility20QDeclarativeLandmarkEEvPT_ 0x0001a44e   Section       12  location.o(t._Z21qMetaTypeDeleteHelperIPN10QtMobility20QDeclarativeLandmarkEEvPT_)
    t._Z21qMetaTypeDeleteHelperIPN10QtMobility20QDeclarativePositionEEvPT_ 0x0001a45a   Section       12  location.o(t._Z21qMetaTypeDeleteHelperIPN10QtMobility20QDeclarativePositionEEvPT_)
    t._Z21qMetaTypeDeleteHelperIPN10QtMobility22QDeclarativeCoordinateEEvPT_ 0x0001a466   Section       12  location.o(t._Z21qMetaTypeDeleteHelperIPN10QtMobility22QDeclarativeCoordinateEEvPT_)
    t._Z21qMetaTypeDeleteHelperIPN10QtMobility22QDeclarativeGeoAddressEEvPT_ 0x0001a472   Section       12  location.o(t._Z21qMetaTypeDeleteHelperIPN10QtMobility22QDeclarativeGeoAddressEEvPT_)
    t._Z21qMetaTypeDeleteHelperIPN10QtMobility24QDeclarativeGeoMapObjectEEvPT_ 0x0001a47e   Section       12  location.o(t._Z21qMetaTypeDeleteHelperIPN10QtMobility24QDeclarativeGeoMapObjectEEvPT_)
    t._Z21qMetaTypeDeleteHelperIPN10QtMobility24QDeclarativeGeocodeModelEEvPT_ 0x0001a48a   Section       12  location.o(t._Z21qMetaTypeDeleteHelperIPN10QtMobility24QDeclarativeGeocodeModelEEvPT_)
    t._Z21qMetaTypeDeleteHelperIPN10QtMobility25QDeclarativeLandmarkModelEEvPT_ 0x0001a496   Section       12  location.o(t._Z21qMetaTypeDeleteHelperIPN10QtMobility25QDeclarativeLandmarkModelEEvPT_)
    t._Z21qMetaTypeDeleteHelperIPN10QtMobility26QDeclarativeGeoBoundingBoxEEvPT_ 0x0001a4a2   Section       12  location.o(t._Z21qMetaTypeDeleteHelperIPN10QtMobility26QDeclarativeGeoBoundingBoxEEvPT_)
    t._Z21qMetaTypeDeleteHelperIPN10QtMobility26QDeclarativeGraphicsGeoMapEEvPT_ 0x0001a4ae   Section       12  location.o(t._Z21qMetaTypeDeleteHelperIPN10QtMobility26QDeclarativeGraphicsGeoMapEEvPT_)
    t._Z21qMetaTypeDeleteHelperIPN10QtMobility26QDeclarativePositionSourceEEvPT_ 0x0001a4ba   Section       12  location.o(t._Z21qMetaTypeDeleteHelperIPN10QtMobility26QDeclarativePositionSourceEEvPT_)
    t._Z21qMetaTypeDeleteHelperIPN10QtMobility28QDeclarativeGeoMapTextObjectEEvPT_ 0x0001a4c6   Section       12  location.o(t._Z21qMetaTypeDeleteHelperIPN10QtMobility28QDeclarativeGeoMapTextObjectEEvPT_)
    t._Z21qMetaTypeDeleteHelperIPN10QtMobility28QDeclarativeLandmarkCategoryEEvPT_ 0x0001a4d2   Section       12  location.o(t._Z21qMetaTypeDeleteHelperIPN10QtMobility28QDeclarativeLandmarkCategoryEEvPT_)
    t._Z21qMetaTypeDeleteHelperIPN10QtMobility29QDeclarativeLandmarkBoxFilterEEvPT_ 0x0001a4de   Section       12  location.o(t._Z21qMetaTypeDeleteHelperIPN10QtMobility29QDeclarativeLandmarkBoxFilterEEvPT_)
    t._Z21qMetaTypeDeleteHelperIPN10QtMobility30QDeclarativeGeoMapCircleObjectEEvPT_ 0x0001a4ea   Section       12  location.o(t._Z21qMetaTypeDeleteHelperIPN10QtMobility30QDeclarativeGeoMapCircleObjectEEvPT_)
    t._Z21qMetaTypeDeleteHelperIPN10QtMobility30QDeclarativeGeoMapObjectBorderEEvPT_ 0x0001a4f6   Section       12  location.o(t._Z21qMetaTypeDeleteHelperIPN10QtMobility30QDeclarativeGeoMapObjectBorderEEvPT_)
    t._Z21qMetaTypeDeleteHelperIPN10QtMobility30QDeclarativeGeoMapPixmapObjectEEvPT_ 0x0001a502   Section       12  location.o(t._Z21qMetaTypeDeleteHelperIPN10QtMobility30QDeclarativeGeoMapPixmapObjectEEvPT_)
    t._Z21qMetaTypeDeleteHelperIPN10QtMobility30QDeclarativeGeoServiceProviderEEvPT_ 0x0001a50e   Section       12  location.o(t._Z21qMetaTypeDeleteHelperIPN10QtMobility30QDeclarativeGeoServiceProviderEEvPT_)
    t._Z21qMetaTypeDeleteHelperIPN10QtMobility30QDeclarativeLandmarkFilterBaseEEvPT_ 0x0001a51a   Section       12  location.o(t._Z21qMetaTypeDeleteHelperIPN10QtMobility30QDeclarativeLandmarkFilterBaseEEvPT_)
    t._Z21qMetaTypeDeleteHelperIPN10QtMobility30QDeclarativeLandmarkNameFilterEEvPT_ 0x0001a526   Section       12  location.o(t._Z21qMetaTypeDeleteHelperIPN10QtMobility30QDeclarativeLandmarkNameFilterEEvPT_)
    t._Z21qMetaTypeDeleteHelperIPN10QtMobility31QDeclarativeGeoMapPolygonObjectEEvPT_ 0x0001a532   Section       12  location.o(t._Z21qMetaTypeDeleteHelperIPN10QtMobility31QDeclarativeGeoMapPolygonObjectEEvPT_)
    t._Z21qMetaTypeDeleteHelperIPN10QtMobility31QDeclarativeLandmarkUnionFilterEEvPT_ 0x0001a53e   Section       12  location.o(t._Z21qMetaTypeDeleteHelperIPN10QtMobility31QDeclarativeLandmarkUnionFilterEEvPT_)
    t._Z21qMetaTypeDeleteHelperIPN10QtMobility31QDeclarativeReverseGeocodeModelEEvPT_ 0x0001a54a   Section       12  location.o(t._Z21qMetaTypeDeleteHelperIPN10QtMobility31QDeclarativeReverseGeocodeModelEEvPT_)
    t._Z21qMetaTypeDeleteHelperIPN10QtMobility32QDeclarativeGeoMapPolylineObjectEEvPT_ 0x0001a556   Section       12  location.o(t._Z21qMetaTypeDeleteHelperIPN10QtMobility32QDeclarativeGeoMapPolylineObjectEEvPT_)
    t._Z21qMetaTypeDeleteHelperIPN10QtMobility33QDeclarativeGeoMapRectangleObjectEEvPT_ 0x0001a562   Section       12  location.o(t._Z21qMetaTypeDeleteHelperIPN10QtMobility33QDeclarativeGeoMapRectangleObjectEEvPT_)
    t._Z21qMetaTypeDeleteHelperIPN10QtMobility33QDeclarativeLandmarkAbstractModelEEvPT_ 0x0001a56e   Section       12  location.o(t._Z21qMetaTypeDeleteHelperIPN10QtMobility33QDeclarativeLandmarkAbstractModelEEvPT_)
    t._Z21qMetaTypeDeleteHelperIPN10QtMobility33QDeclarativeLandmarkCategoryModelEEvPT_ 0x0001a57a   Section       12  location.o(t._Z21qMetaTypeDeleteHelperIPN10QtMobility33QDeclarativeLandmarkCategoryModelEEvPT_)
    t._Z21qMetaTypeDeleteHelperIPN10QtMobility34QDeclarativeLandmarkCategoryFilterEEvPT_ 0x0001a586   Section       12  location.o(t._Z21qMetaTypeDeleteHelperIPN10QtMobility34QDeclarativeLandmarkCategoryFilterEEvPT_)
    t._Z21qMetaTypeDeleteHelperIPN10QtMobility35QDeclarativeLandmarkProximityFilterEEvPT_ 0x0001a592   Section       12  location.o(t._Z21qMetaTypeDeleteHelperIPN10QtMobility35QDeclarativeLandmarkProximityFilterEEvPT_)
    t._Z21qMetaTypeDeleteHelperIPN10QtMobility38QDeclarativeLandmarkIntersectionFilterEEvPT_ 0x0001a59e   Section       12  location.o(t._Z21qMetaTypeDeleteHelperIPN10QtMobility38QDeclarativeLandmarkIntersectionFilterEEvPT_)
    t._Z21qMetaTypeDeleteHelperIPN10QtMobility39QDeclarativeGeoServiceProviderParameterEEvPT_ 0x0001a5aa   Section       12  location.o(t._Z21qMetaTypeDeleteHelperIPN10QtMobility39QDeclarativeGeoServiceProviderParameterEEvPT_)
    t._Z24qMetaTypeConstructHelperI24QDeclarativeListPropertyIN10QtMobility13QGeoMapObjectEEEPvPKT_ 0x0001a5b6   Section      150  location.o(t._Z24qMetaTypeConstructHelperI24QDeclarativeListPropertyIN10QtMobility13QGeoMapObjectEEEPvPKT_)
    t._Z24qMetaTypeConstructHelperI24QDeclarativeListPropertyIN10QtMobility13QGeoMapObjectEEEPvPKT_.clean 0x0001a64c   Section        4  location.o(t._Z24qMetaTypeConstructHelperI24QDeclarativeListPropertyIN10QtMobility13QGeoMapObjectEEEPvPKT_.clean)
    t._Z24qMetaTypeConstructHelperI24QDeclarativeListPropertyIN10QtMobility20QDeclarativeGeoPlaceEEEPvPKT_ 0x0001a650   Section      150  location.o(t._Z24qMetaTypeConstructHelperI24QDeclarativeListPropertyIN10QtMobility20QDeclarativeGeoPlaceEEEPvPKT_)
    t._Z24qMetaTypeConstructHelperI24QDeclarativeListPropertyIN10QtMobility20QDeclarativeGeoPlaceEEEPvPKT_.clean 0x0001a6e6   Section        4  location.o(t._Z24qMetaTypeConstructHelperI24QDeclarativeListPropertyIN10QtMobility20QDeclarativeGeoPlaceEEEPvPKT_.clean)
    t._Z24qMetaTypeConstructHelperI24QDeclarativeListPropertyIN10QtMobility20QDeclarativeLandmarkEEEPvPKT_ 0x0001a6ea   Section      150  location.o(t._Z24qMetaTypeConstructHelperI24QDeclarativeListPropertyIN10QtMobility20QDeclarativeLandmarkEEEPvPKT_)
    t._Z24qMetaTypeConstructHelperI24QDeclarativeListPropertyIN10QtMobility20QDeclarativeLandmarkEEEPvPKT_.clean 0x0001a780   Section        4  location.o(t._Z24qMetaTypeConstructHelperI24QDeclarativeListPropertyIN10QtMobility20QDeclarativeLandmarkEEEPvPKT_.clean)
    t._Z24qMetaTypeConstructHelperI24QDeclarativeListPropertyIN10QtMobility20QDeclarativePositionEEEPvPKT_ 0x0001a784   Section      150  location.o(t._Z24qMetaTypeConstructHelperI24QDeclarativeListPropertyIN10QtMobility20QDeclarativePositionEEEPvPKT_)
    t._Z24qMetaTypeConstructHelperI24QDeclarativeListPropertyIN10QtMobility20QDeclarativePositionEEEPvPKT_.clean 0x0001a81a   Section        4  location.o(t._Z24qMetaTypeConstructHelperI24QDeclarativeListPropertyIN10QtMobility20QDeclarativePositionEEEPvPKT_.clean)
    t._Z24qMetaTypeConstructHelperI24QDeclarativeListPropertyIN10QtMobility22QDeclarativeCoordinateEEEPvPKT_ 0x0001a81e   Section      150  location.o(t._Z24qMetaTypeConstructHelperI24QDeclarativeListPropertyIN10QtMobility22QDeclarativeCoordinateEEEPvPKT_)
    t._Z24qMetaTypeConstructHelperI24QDeclarativeListPropertyIN10QtMobility22QDeclarativeCoordinateEEEPvPKT_.clean 0x0001a8b4   Section        4  location.o(t._Z24qMetaTypeConstructHelperI24QDeclarativeListPropertyIN10QtMobility22QDeclarativeCoordinateEEEPvPKT_.clean)
    t._Z24qMetaTypeConstructHelperI24QDeclarativeListPropertyIN10QtMobility22QDeclarativeGeoAddressEEEPvPKT_ 0x0001a8b8   Section      150  location.o(t._Z24qMetaTypeConstructHelperI24QDeclarativeListPropertyIN10QtMobility22QDeclarativeGeoAddressEEEPvPKT_)
    t._Z24qMetaTypeConstructHelperI24QDeclarativeListPropertyIN10QtMobility22QDeclarativeGeoAddressEEEPvPKT_.clean 0x0001a94e   Section        4  location.o(t._Z24qMetaTypeConstructHelperI24QDeclarativeListPropertyIN10QtMobility22QDeclarativeGeoAddressEEEPvPKT_.clean)
    t._Z24qMetaTypeConstructHelperI24QDeclarativeListPropertyIN10QtMobility24QDeclarativeGeoMapObjectEEEPvPKT_ 0x0001a952   Section      150  location.o(t._Z24qMetaTypeConstructHelperI24QDeclarativeListPropertyIN10QtMobility24QDeclarativeGeoMapObjectEEEPvPKT_)
    t._Z24qMetaTypeConstructHelperI24QDeclarativeListPropertyIN10QtMobility24QDeclarativeGeoMapObjectEEEPvPKT_.clean 0x0001a9e8   Section        4  location.o(t._Z24qMetaTypeConstructHelperI24QDeclarativeListPropertyIN10QtMobility24QDeclarativeGeoMapObjectEEEPvPKT_.clean)
    t._Z24qMetaTypeConstructHelperI24QDeclarativeListPropertyIN10QtMobility24QDeclarativeGeocodeModelEEEPvPKT_ 0x0001a9ec   Section      150  location.o(t._Z24qMetaTypeConstructHelperI24QDeclarativeListPropertyIN10QtMobility24QDeclarativeGeocodeModelEEEPvPKT_)
    t._Z24qMetaTypeConstructHelperI24QDeclarativeListPropertyIN10QtMobility24QDeclarativeGeocodeModelEEEPvPKT_.clean 0x0001aa82   Section        4  location.o(t._Z24qMetaTypeConstructHelperI24QDeclarativeListPropertyIN10QtMobility24QDeclarativeGeocodeModelEEEPvPKT_.clean)
    t._Z24qMetaTypeConstructHelperI24QDeclarativeListPropertyIN10QtMobility25QDeclarativeLandmarkModelEEEPvPKT_ 0x0001aa86   Section      150  location.o(t._Z24qMetaTypeConstructHelperI24QDeclarativeListPropertyIN10QtMobility25QDeclarativeLandmarkModelEEEPvPKT_)
    t._Z24qMetaTypeConstructHelperI24QDeclarativeListPropertyIN10QtMobility25QDeclarativeLandmarkModelEEEPvPKT_.clean 0x0001ab1c   Section        4  location.o(t._Z24qMetaTypeConstructHelperI24QDeclarativeListPropertyIN10QtMobility25QDeclarativeLandmarkModelEEEPvPKT_.clean)
    t._Z24qMetaTypeConstructHelperI24QDeclarativeListPropertyIN10QtMobility26QDeclarativeGeoBoundingBoxEEEPvPKT_ 0x0001ab20   Section      150  location.o(t._Z24qMetaTypeConstructHelperI24QDeclarativeListPropertyIN10QtMobility26QDeclarativeGeoBoundingBoxEEEPvPKT_)
    t._Z24qMetaTypeConstructHelperI24QDeclarativeListPropertyIN10QtMobility26QDeclarativeGeoBoundingBoxEEEPvPKT_.clean 0x0001abb6   Section        4  location.o(t._Z24qMetaTypeConstructHelperI24QDeclarativeListPropertyIN10QtMobility26QDeclarativeGeoBoundingBoxEEEPvPKT_.clean)
    t._Z24qMetaTypeConstructHelperI24QDeclarativeListPropertyIN10QtMobility26QDeclarativeGraphicsGeoMapEEEPvPKT_ 0x0001abba   Section      150  location.o(t._Z24qMetaTypeConstructHelperI24QDeclarativeListPropertyIN10QtMobility26QDeclarativeGraphicsGeoMapEEEPvPKT_)
    t._Z24qMetaTypeConstructHelperI24QDeclarativeListPropertyIN10QtMobility26QDeclarativeGraphicsGeoMapEEEPvPKT_.clean 0x0001ac50   Section        4  location.o(t._Z24qMetaTypeConstructHelperI24QDeclarativeListPropertyIN10QtMobility26QDeclarativeGraphicsGeoMapEEEPvPKT_.clean)
    t._Z24qMetaTypeConstructHelperI24QDeclarativeListPropertyIN10QtMobility26QDeclarativePositionSourceEEEPvPKT_ 0x0001ac54   Section      150  location.o(t._Z24qMetaTypeConstructHelperI24QDeclarativeListPropertyIN10QtMobility26QDeclarativePositionSourceEEEPvPKT_)
    t._Z24qMetaTypeConstructHelperI24QDeclarativeListPropertyIN10QtMobility26QDeclarativePositionSourceEEEPvPKT_.clean 0x0001acea   Section        4  location.o(t._Z24qMetaTypeConstructHelperI24QDeclarativeListPropertyIN10QtMobility26QDeclarativePositionSourceEEEPvPKT_.clean)
    t._Z24qMetaTypeConstructHelperI24QDeclarativeListPropertyIN10QtMobility28QDeclarativeGeoMapTextObjectEEEPvPKT_ 0x0001acee   Section      150  location.o(t._Z24qMetaTypeConstructHelperI24QDeclarativeListPropertyIN10QtMobility28QDeclarativeGeoMapTextObjectEEEPvPKT_)
    t._Z24qMetaTypeConstructHelperI24QDeclarativeListPropertyIN10QtMobility28QDeclarativeGeoMapTextObjectEEEPvPKT_.clean 0x0001ad84   Section        4  location.o(t._Z24qMetaTypeConstructHelperI24QDeclarativeListPropertyIN10QtMobility28QDeclarativeGeoMapTextObjectEEEPvPKT_.clean)
    t._Z24qMetaTypeConstructHelperI24QDeclarativeListPropertyIN10QtMobility28QDeclarativeLandmarkCategoryEEEPvPKT_ 0x0001ad88   Section      150  location.o(t._Z24qMetaTypeConstructHelperI24QDeclarativeListPropertyIN10QtMobility28QDeclarativeLandmarkCategoryEEEPvPKT_)
    t._Z24qMetaTypeConstructHelperI24QDeclarativeListPropertyIN10QtMobility28QDeclarativeLandmarkCategoryEEEPvPKT_.clean 0x0001ae1e   Section        4  location.o(t._Z24qMetaTypeConstructHelperI24QDeclarativeListPropertyIN10QtMobility28QDeclarativeLandmarkCategoryEEEPvPKT_.clean)
    t._Z24qMetaTypeConstructHelperI24QDeclarativeListPropertyIN10QtMobility29QDeclarativeLandmarkBoxFilterEEEPvPKT_ 0x0001ae22   Section      150  location.o(t._Z24qMetaTypeConstructHelperI24QDeclarativeListPropertyIN10QtMobility29QDeclarativeLandmarkBoxFilterEEEPvPKT_)
    t._Z24qMetaTypeConstructHelperI24QDeclarativeListPropertyIN10QtMobility29QDeclarativeLandmarkBoxFilterEEEPvPKT_.clean 0x0001aeb8   Section        4  location.o(t._Z24qMetaTypeConstructHelperI24QDeclarativeListPropertyIN10QtMobility29QDeclarativeLandmarkBoxFilterEEEPvPKT_.clean)
    t._Z24qMetaTypeConstructHelperI24QDeclarativeListPropertyIN10QtMobility30QDeclarativeGeoMapCircleObjectEEEPvPKT_ 0x0001aebc   Section      150  location.o(t._Z24qMetaTypeConstructHelperI24QDeclarativeListPropertyIN10QtMobility30QDeclarativeGeoMapCircleObjectEEEPvPKT_)
    t._Z24qMetaTypeConstructHelperI24QDeclarativeListPropertyIN10QtMobility30QDeclarativeGeoMapCircleObjectEEEPvPKT_.clean 0x0001af52   Section        4  location.o(t._Z24qMetaTypeConstructHelperI24QDeclarativeListPropertyIN10QtMobility30QDeclarativeGeoMapCircleObjectEEEPvPKT_.clean)
    t._Z24qMetaTypeConstructHelperI24QDeclarativeListPropertyIN10QtMobility30QDeclarativeGeoMapObjectBorderEEEPvPKT_ 0x0001af56   Section      150  location.o(t._Z24qMetaTypeConstructHelperI24QDeclarativeListPropertyIN10QtMobility30QDeclarativeGeoMapObjectBorderEEEPvPKT_)
    t._Z24qMetaTypeConstructHelperI24QDeclarativeListPropertyIN10QtMobility30QDeclarativeGeoMapObjectBorderEEEPvPKT_.clean 0x0001afec   Section        4  location.o(t._Z24qMetaTypeConstructHelperI24QDeclarativeListPropertyIN10QtMobility30QDeclarativeGeoMapObjectBorderEEEPvPKT_.clean)
    t._Z24qMetaTypeConstructHelperI24QDeclarativeListPropertyIN10QtMobility30QDeclarativeGeoMapPixmapObjectEEEPvPKT_ 0x0001aff0   Section      150  location.o(t._Z24qMetaTypeConstructHelperI24QDeclarativeListPropertyIN10QtMobility30QDeclarativeGeoMapPixmapObjectEEEPvPKT_)
    t._Z24qMetaTypeConstructHelperI24QDeclarativeListPropertyIN10QtMobility30QDeclarativeGeoMapPixmapObjectEEEPvPKT_.clean 0x0001b086   Section        4  location.o(t._Z24qMetaTypeConstructHelperI24QDeclarativeListPropertyIN10QtMobility30QDeclarativeGeoMapPixmapObjectEEEPvPKT_.clean)
    t._Z24qMetaTypeConstructHelperI24QDeclarativeListPropertyIN10QtMobility30QDeclarativeGeoServiceProviderEEEPvPKT_ 0x0001b08a   Section      150  location.o(t._Z24qMetaTypeConstructHelperI24QDeclarativeListPropertyIN10QtMobility30QDeclarativeGeoServiceProviderEEEPvPKT_)
    t._Z24qMetaTypeConstructHelperI24QDeclarativeListPropertyIN10QtMobility30QDeclarativeGeoServiceProviderEEEPvPKT_.clean 0x0001b120   Section        4  location.o(t._Z24qMetaTypeConstructHelperI24QDeclarativeListPropertyIN10QtMobility30QDeclarativeGeoServiceProviderEEEPvPKT_.clean)
    t._Z24qMetaTypeConstructHelperI24QDeclarativeListPropertyIN10QtMobility30QDeclarativeLandmarkFilterBaseEEEPvPKT_ 0x0001b124   Section      150  location.o(t._Z24qMetaTypeConstructHelperI24QDeclarativeListPropertyIN10QtMobility30QDeclarativeLandmarkFilterBaseEEEPvPKT_)
    t._Z24qMetaTypeConstructHelperI24QDeclarativeListPropertyIN10QtMobility30QDeclarativeLandmarkFilterBaseEEEPvPKT_.clean 0x0001b1ba   Section        4  location.o(t._Z24qMetaTypeConstructHelperI24QDeclarativeListPropertyIN10QtMobility30QDeclarativeLandmarkFilterBaseEEEPvPKT_.clean)
    t._Z24qMetaTypeConstructHelperI24QDeclarativeListPropertyIN10QtMobility30QDeclarativeLandmarkNameFilterEEEPvPKT_ 0x0001b1be   Section      150  location.o(t._Z24qMetaTypeConstructHelperI24QDeclarativeListPropertyIN10QtMobility30QDeclarativeLandmarkNameFilterEEEPvPKT_)
    t._Z24qMetaTypeConstructHelperI24QDeclarativeListPropertyIN10QtMobility30QDeclarativeLandmarkNameFilterEEEPvPKT_.clean 0x0001b254   Section        4  location.o(t._Z24qMetaTypeConstructHelperI24QDeclarativeListPropertyIN10QtMobility30QDeclarativeLandmarkNameFilterEEEPvPKT_.clean)
    t._Z24qMetaTypeConstructHelperI24QDeclarativeListPropertyIN10QtMobility31QDeclarativeGeoMapPolygonObjectEEEPvPKT_ 0x0001b258   Section      150  location.o(t._Z24qMetaTypeConstructHelperI24QDeclarativeListPropertyIN10QtMobility31QDeclarativeGeoMapPolygonObjectEEEPvPKT_)
    t._Z24qMetaTypeConstructHelperI24QDeclarativeListPropertyIN10QtMobility31QDeclarativeGeoMapPolygonObjectEEEPvPKT_.clean 0x0001b2ee   Section        4  location.o(t._Z24qMetaTypeConstructHelperI24QDeclarativeListPropertyIN10QtMobility31QDeclarativeGeoMapPolygonObjectEEEPvPKT_.clean)
    t._Z24qMetaTypeConstructHelperI24QDeclarativeListPropertyIN10QtMobility31QDeclarativeLandmarkUnionFilterEEEPvPKT_ 0x0001b2f2   Section      150  location.o(t._Z24qMetaTypeConstructHelperI24QDeclarativeListPropertyIN10QtMobility31QDeclarativeLandmarkUnionFilterEEEPvPKT_)
    t._Z24qMetaTypeConstructHelperI24QDeclarativeListPropertyIN10QtMobility31QDeclarativeLandmarkUnionFilterEEEPvPKT_.clean 0x0001b388   Section        4  location.o(t._Z24qMetaTypeConstructHelperI24QDeclarativeListPropertyIN10QtMobility31QDeclarativeLandmarkUnionFilterEEEPvPKT_.clean)
    t._Z24qMetaTypeConstructHelperI24QDeclarativeListPropertyIN10QtMobility31QDeclarativeReverseGeocodeModelEEEPvPKT_ 0x0001b38c   Section      150  location.o(t._Z24qMetaTypeConstructHelperI24QDeclarativeListPropertyIN10QtMobility31QDeclarativeReverseGeocodeModelEEEPvPKT_)
    t._Z24qMetaTypeConstructHelperI24QDeclarativeListPropertyIN10QtMobility31QDeclarativeReverseGeocodeModelEEEPvPKT_.clean 0x0001b422   Section        4  location.o(t._Z24qMetaTypeConstructHelperI24QDeclarativeListPropertyIN10QtMobility31QDeclarativeReverseGeocodeModelEEEPvPKT_.clean)
    t._Z24qMetaTypeConstructHelperI24QDeclarativeListPropertyIN10QtMobility32QDeclarativeGeoMapPolylineObjectEEEPvPKT_ 0x0001b426   Section      150  location.o(t._Z24qMetaTypeConstructHelperI24QDeclarativeListPropertyIN10QtMobility32QDeclarativeGeoMapPolylineObjectEEEPvPKT_)
    t._Z24qMetaTypeConstructHelperI24QDeclarativeListPropertyIN10QtMobility32QDeclarativeGeoMapPolylineObjectEEEPvPKT_.clean 0x0001b4bc   Section        4  location.o(t._Z24qMetaTypeConstructHelperI24QDeclarativeListPropertyIN10QtMobility32QDeclarativeGeoMapPolylineObjectEEEPvPKT_.clean)
    t._Z24qMetaTypeConstructHelperI24QDeclarativeListPropertyIN10QtMobility33QDeclarativeGeoMapRectangleObjectEEEPvPKT_ 0x0001b4c0   Section      150  location.o(t._Z24qMetaTypeConstructHelperI24QDeclarativeListPropertyIN10QtMobility33QDeclarativeGeoMapRectangleObjectEEEPvPKT_)
    t._Z24qMetaTypeConstructHelperI24QDeclarativeListPropertyIN10QtMobility33QDeclarativeGeoMapRectangleObjectEEEPvPKT_.clean 0x0001b556   Section        4  location.o(t._Z24qMetaTypeConstructHelperI24QDeclarativeListPropertyIN10QtMobility33QDeclarativeGeoMapRectangleObjectEEEPvPKT_.clean)
    t._Z24qMetaTypeConstructHelperI24QDeclarativeListPropertyIN10QtMobility33QDeclarativeLandmarkAbstractModelEEEPvPKT_ 0x0001b55a   Section      150  location.o(t._Z24qMetaTypeConstructHelperI24QDeclarativeListPropertyIN10QtMobility33QDeclarativeLandmarkAbstractModelEEEPvPKT_)
    t._Z24qMetaTypeConstructHelperI24QDeclarativeListPropertyIN10QtMobility33QDeclarativeLandmarkAbstractModelEEEPvPKT_.clean 0x0001b5f0   Section        4  location.o(t._Z24qMetaTypeConstructHelperI24QDeclarativeListPropertyIN10QtMobility33QDeclarativeLandmarkAbstractModelEEEPvPKT_.clean)
    t._Z24qMetaTypeConstructHelperI24QDeclarativeListPropertyIN10QtMobility33QDeclarativeLandmarkCategoryModelEEEPvPKT_ 0x0001b5f4   Section      150  location.o(t._Z24qMetaTypeConstructHelperI24QDeclarativeListPropertyIN10QtMobility33QDeclarativeLandmarkCategoryModelEEEPvPKT_)
    t._Z24qMetaTypeConstructHelperI24QDeclarativeListPropertyIN10QtMobility33QDeclarativeLandmarkCategoryModelEEEPvPKT_.clean 0x0001b68a   Section        4  location.o(t._Z24qMetaTypeConstructHelperI24QDeclarativeListPropertyIN10QtMobility33QDeclarativeLandmarkCategoryModelEEEPvPKT_.clean)
    t._Z24qMetaTypeConstructHelperI24QDeclarativeListPropertyIN10QtMobility34QDeclarativeLandmarkCategoryFilterEEEPvPKT_ 0x0001b68e   Section      150  location.o(t._Z24qMetaTypeConstructHelperI24QDeclarativeListPropertyIN10QtMobility34QDeclarativeLandmarkCategoryFilterEEEPvPKT_)
    t._Z24qMetaTypeConstructHelperI24QDeclarativeListPropertyIN10QtMobility34QDeclarativeLandmarkCategoryFilterEEEPvPKT_.clean 0x0001b724   Section        4  location.o(t._Z24qMetaTypeConstructHelperI24QDeclarativeListPropertyIN10QtMobility34QDeclarativeLandmarkCategoryFilterEEEPvPKT_.clean)
    t._Z24qMetaTypeConstructHelperI24QDeclarativeListPropertyIN10QtMobility35QDeclarativeLandmarkProximityFilterEEEPvPKT_ 0x0001b728   Section      150  location.o(t._Z24qMetaTypeConstructHelperI24QDeclarativeListPropertyIN10QtMobility35QDeclarativeLandmarkProximityFilterEEEPvPKT_)
    t._Z24qMetaTypeConstructHelperI24QDeclarativeListPropertyIN10QtMobility35QDeclarativeLandmarkProximityFilterEEEPvPKT_.clean 0x0001b7be   Section        4  location.o(t._Z24qMetaTypeConstructHelperI24QDeclarativeListPropertyIN10QtMobility35QDeclarativeLandmarkProximityFilterEEEPvPKT_.clean)
    t._Z24qMetaTypeConstructHelperI24QDeclarativeListPropertyIN10QtMobility38QDeclarativeLandmarkIntersectionFilterEEEPvPKT_ 0x0001b7c2   Section      150  location.o(t._Z24qMetaTypeConstructHelperI24QDeclarativeListPropertyIN10QtMobility38QDeclarativeLandmarkIntersectionFilterEEEPvPKT_)
    t._Z24qMetaTypeConstructHelperI24QDeclarativeListPropertyIN10QtMobility38QDeclarativeLandmarkIntersectionFilterEEEPvPKT_.clean 0x0001b858   Section        4  location.o(t._Z24qMetaTypeConstructHelperI24QDeclarativeListPropertyIN10QtMobility38QDeclarativeLandmarkIntersectionFilterEEEPvPKT_.clean)
    t._Z24qMetaTypeConstructHelperI24QDeclarativeListPropertyIN10QtMobility39QDeclarativeGeoServiceProviderParameterEEEPvPKT_ 0x0001b85c   Section      150  location.o(t._Z24qMetaTypeConstructHelperI24QDeclarativeListPropertyIN10QtMobility39QDeclarativeGeoServiceProviderParameterEEEPvPKT_)
    t._Z24qMetaTypeConstructHelperI24QDeclarativeListPropertyIN10QtMobility39QDeclarativeGeoServiceProviderParameterEEEPvPKT_.clean 0x0001b8f2   Section        4  location.o(t._Z24qMetaTypeConstructHelperI24QDeclarativeListPropertyIN10QtMobility39QDeclarativeGeoServiceProviderParameterEEEPvPKT_.clean)
    t._Z24qMetaTypeConstructHelperIN10QtMobility9QLandmarkEEPvPKT_ 0x0001b8f6   Section       80  qdeclarativegeosearchmodel.o(t._Z24qMetaTypeConstructHelperIN10QtMobility9QLandmarkEEPvPKT_)
    t._Z24qMetaTypeConstructHelperIN10QtMobility9QLandmarkEEPvPKT_.clean 0x0001b946   Section       28  qdeclarativegeosearchmodel.o(t._Z24qMetaTypeConstructHelperIN10QtMobility9QLandmarkEEPvPKT_.clean)
    t._Z24qMetaTypeConstructHelperIPN10QtMobility13QGeoMapObjectEEPvPKT_ 0x0001b962   Section       50  location.o(t._Z24qMetaTypeConstructHelperIPN10QtMobility13QGeoMapObjectEEPvPKT_)
    t._Z24qMetaTypeConstructHelperIPN10QtMobility20QDeclarativeGeoPlaceEEPvPKT_ 0x0001b994   Section       50  location.o(t._Z24qMetaTypeConstructHelperIPN10QtMobility20QDeclarativeGeoPlaceEEPvPKT_)
    t._Z24qMetaTypeConstructHelperIPN10QtMobility20QDeclarativeLandmarkEEPvPKT_ 0x0001b9c6   Section       50  location.o(t._Z24qMetaTypeConstructHelperIPN10QtMobility20QDeclarativeLandmarkEEPvPKT_)
    t._Z24qMetaTypeConstructHelperIPN10QtMobility20QDeclarativePositionEEPvPKT_ 0x0001b9f8   Section       50  location.o(t._Z24qMetaTypeConstructHelperIPN10QtMobility20QDeclarativePositionEEPvPKT_)
    t._Z24qMetaTypeConstructHelperIPN10QtMobility22QDeclarativeCoordinateEEPvPKT_ 0x0001ba2a   Section       50  location.o(t._Z24qMetaTypeConstructHelperIPN10QtMobility22QDeclarativeCoordinateEEPvPKT_)
    t._Z24qMetaTypeConstructHelperIPN10QtMobility22QDeclarativeGeoAddressEEPvPKT_ 0x0001ba5c   Section       50  location.o(t._Z24qMetaTypeConstructHelperIPN10QtMobility22QDeclarativeGeoAddressEEPvPKT_)
    t._Z24qMetaTypeConstructHelperIPN10QtMobility24QDeclarativeGeoMapObjectEEPvPKT_ 0x0001ba8e   Section       50  location.o(t._Z24qMetaTypeConstructHelperIPN10QtMobility24QDeclarativeGeoMapObjectEEPvPKT_)
    t._Z24qMetaTypeConstructHelperIPN10QtMobility24QDeclarativeGeocodeModelEEPvPKT_ 0x0001bac0   Section       50  location.o(t._Z24qMetaTypeConstructHelperIPN10QtMobility24QDeclarativeGeocodeModelEEPvPKT_)
    t._Z24qMetaTypeConstructHelperIPN10QtMobility25QDeclarativeLandmarkModelEEPvPKT_ 0x0001baf2   Section       50  location.o(t._Z24qMetaTypeConstructHelperIPN10QtMobility25QDeclarativeLandmarkModelEEPvPKT_)
    t._Z24qMetaTypeConstructHelperIPN10QtMobility26QDeclarativeGeoBoundingBoxEEPvPKT_ 0x0001bb24   Section       50  location.o(t._Z24qMetaTypeConstructHelperIPN10QtMobility26QDeclarativeGeoBoundingBoxEEPvPKT_)
    t._Z24qMetaTypeConstructHelperIPN10QtMobility26QDeclarativeGraphicsGeoMapEEPvPKT_ 0x0001bb56   Section       50  location.o(t._Z24qMetaTypeConstructHelperIPN10QtMobility26QDeclarativeGraphicsGeoMapEEPvPKT_)
    t._Z24qMetaTypeConstructHelperIPN10QtMobility26QDeclarativePositionSourceEEPvPKT_ 0x0001bb88   Section       50  location.o(t._Z24qMetaTypeConstructHelperIPN10QtMobility26QDeclarativePositionSourceEEPvPKT_)
    t._Z24qMetaTypeConstructHelperIPN10QtMobility28QDeclarativeGeoMapTextObjectEEPvPKT_ 0x0001bbba   Section       50  location.o(t._Z24qMetaTypeConstructHelperIPN10QtMobility28QDeclarativeGeoMapTextObjectEEPvPKT_)
    t._Z24qMetaTypeConstructHelperIPN10QtMobility28QDeclarativeLandmarkCategoryEEPvPKT_ 0x0001bbec   Section       50  location.o(t._Z24qMetaTypeConstructHelperIPN10QtMobility28QDeclarativeLandmarkCategoryEEPvPKT_)
    t._Z24qMetaTypeConstructHelperIPN10QtMobility29QDeclarativeLandmarkBoxFilterEEPvPKT_ 0x0001bc1e   Section       50  location.o(t._Z24qMetaTypeConstructHelperIPN10QtMobility29QDeclarativeLandmarkBoxFilterEEPvPKT_)
    t._Z24qMetaTypeConstructHelperIPN10QtMobility30QDeclarativeGeoMapCircleObjectEEPvPKT_ 0x0001bc50   Section       50  location.o(t._Z24qMetaTypeConstructHelperIPN10QtMobility30QDeclarativeGeoMapCircleObjectEEPvPKT_)
    t._Z24qMetaTypeConstructHelperIPN10QtMobility30QDeclarativeGeoMapObjectBorderEEPvPKT_ 0x0001bc82   Section       50  location.o(t._Z24qMetaTypeConstructHelperIPN10QtMobility30QDeclarativeGeoMapObjectBorderEEPvPKT_)
    t._Z24qMetaTypeConstructHelperIPN10QtMobility30QDeclarativeGeoMapPixmapObjectEEPvPKT_ 0x0001bcb4   Section       50  location.o(t._Z24qMetaTypeConstructHelperIPN10QtMobility30QDeclarativeGeoMapPixmapObjectEEPvPKT_)
    t._Z24qMetaTypeConstructHelperIPN10QtMobility30QDeclarativeGeoServiceProviderEEPvPKT_ 0x0001bce6   Section       50  location.o(t._Z24qMetaTypeConstructHelperIPN10QtMobility30QDeclarativeGeoServiceProviderEEPvPKT_)
    t._Z24qMetaTypeConstructHelperIPN10QtMobility30QDeclarativeLandmarkFilterBaseEEPvPKT_ 0x0001bd18   Section       50  location.o(t._Z24qMetaTypeConstructHelperIPN10QtMobility30QDeclarativeLandmarkFilterBaseEEPvPKT_)
    t._Z24qMetaTypeConstructHelperIPN10QtMobility30QDeclarativeLandmarkNameFilterEEPvPKT_ 0x0001bd4a   Section       50  location.o(t._Z24qMetaTypeConstructHelperIPN10QtMobility30QDeclarativeLandmarkNameFilterEEPvPKT_)
    t._Z24qMetaTypeConstructHelperIPN10QtMobility31QDeclarativeGeoMapPolygonObjectEEPvPKT_ 0x0001bd7c   Section       50  location.o(t._Z24qMetaTypeConstructHelperIPN10QtMobility31QDeclarativeGeoMapPolygonObjectEEPvPKT_)
    t._Z24qMetaTypeConstructHelperIPN10QtMobility31QDeclarativeLandmarkUnionFilterEEPvPKT_ 0x0001bdae   Section       50  location.o(t._Z24qMetaTypeConstructHelperIPN10QtMobility31QDeclarativeLandmarkUnionFilterEEPvPKT_)
    t._Z24qMetaTypeConstructHelperIPN10QtMobility31QDeclarativeReverseGeocodeModelEEPvPKT_ 0x0001bde0   Section       50  location.o(t._Z24qMetaTypeConstructHelperIPN10QtMobility31QDeclarativeReverseGeocodeModelEEPvPKT_)
    t._Z24qMetaTypeConstructHelperIPN10QtMobility32QDeclarativeGeoMapPolylineObjectEEPvPKT_ 0x0001be12   Section       50  location.o(t._Z24qMetaTypeConstructHelperIPN10QtMobility32QDeclarativeGeoMapPolylineObjectEEPvPKT_)
    t._Z24qMetaTypeConstructHelperIPN10QtMobility33QDeclarativeGeoMapRectangleObjectEEPvPKT_ 0x0001be44   Section       50  location.o(t._Z24qMetaTypeConstructHelperIPN10QtMobility33QDeclarativeGeoMapRectangleObjectEEPvPKT_)
    t._Z24qMetaTypeConstructHelperIPN10QtMobility33QDeclarativeLandmarkAbstractModelEEPvPKT_ 0x0001be76   Section       50  location.o(t._Z24qMetaTypeConstructHelperIPN10QtMobility33QDeclarativeLandmarkAbstractModelEEPvPKT_)
    t._Z24qMetaTypeConstructHelperIPN10QtMobility33QDeclarativeLandmarkCategoryModelEEPvPKT_ 0x0001bea8   Section       50  location.o(t._Z24qMetaTypeConstructHelperIPN10QtMobility33QDeclarativeLandmarkCategoryModelEEPvPKT_)
    t._Z24qMetaTypeConstructHelperIPN10QtMobility34QDeclarativeLandmarkCategoryFilterEEPvPKT_ 0x0001beda   Section       50  location.o(t._Z24qMetaTypeConstructHelperIPN10QtMobility34QDeclarativeLandmarkCategoryFilterEEPvPKT_)
    t._Z24qMetaTypeConstructHelperIPN10QtMobility35QDeclarativeLandmarkProximityFilterEEPvPKT_ 0x0001bf0c   Section       50  location.o(t._Z24qMetaTypeConstructHelperIPN10QtMobility35QDeclarativeLandmarkProximityFilterEEPvPKT_)
    t._Z24qMetaTypeConstructHelperIPN10QtMobility38QDeclarativeLandmarkIntersectionFilterEEPvPKT_ 0x0001bf3e   Section       50  location.o(t._Z24qMetaTypeConstructHelperIPN10QtMobility38QDeclarativeLandmarkIntersectionFilterEEPvPKT_)
    t._Z24qMetaTypeConstructHelperIPN10QtMobility39QDeclarativeGeoServiceProviderParameterEEPvPKT_ 0x0001bf70   Section       50  location.o(t._Z24qMetaTypeConstructHelperIPN10QtMobility39QDeclarativeGeoServiceProviderParameterEEPvPKT_)
    t._Z26qmlRegisterUncreatableTypeIN10QtMobility30QDeclarativeLandmarkFilterBaseEEiPKciiS3_RK7QString 0x0001bfa4   Section      284  location.o(t._Z26qmlRegisterUncreatableTypeIN10QtMobility30QDeclarativeLandmarkFilterBaseEEiPKciiS3_RK7QString)
    t._Z26qmlRegisterUncreatableTypeIN10QtMobility30QDeclarativeLandmarkFilterBaseEEiPKciiS3_RK7QString.clean 0x0001c0c0   Section       52  location.o(t._Z26qmlRegisterUncreatableTypeIN10QtMobility30QDeclarativeLandmarkFilterBaseEEiPKciiS3_RK7QString.clean)
    t._Z26qmlRegisterUncreatableTypeIN10QtMobility33QDeclarativeLandmarkAbstractModelEEiPKciiS3_RK7QString 0x0001c0f4   Section      292  location.o(t._Z26qmlRegisterUncreatableTypeIN10QtMobility33QDeclarativeLandmarkAbstractModelEEiPKciiS3_RK7QString)
    t._Z26qmlRegisterUncreatableTypeIN10QtMobility33QDeclarativeLandmarkAbstractModelEEiPKciiS3_RK7QString.clean 0x0001c218   Section       52  location.o(t._Z26qmlRegisterUncreatableTypeIN10QtMobility33QDeclarativeLandmarkAbstractModelEEiPKciiS3_RK7QString.clean)
    t._Z4qAbsIfET_RKS0_                      0x0001c24c   Section       28  qdeclarativegraphicsgeomap.o(t._Z4qAbsIfET_RKS0_)
    t._ZN10QtMobility34QDeclarativeLandmarkCompoundFilter13appendFiltersINS_20QLandmarkUnionFilterEEEbPT_ 0x0001c268   Section       88  qdeclarativelandmarkfilters.o(t._ZN10QtMobility34QDeclarativeLandmarkCompoundFilter13appendFiltersINS_20QLandmarkUnionFilterEEEbPT_)
    t._ZN10QtMobility34QDeclarativeLandmarkCompoundFilter13appendFiltersINS_27QLandmarkIntersectionFilterEEEbPT_ 0x0001c2c0   Section       88  qdeclarativelandmarkfilters.o(t._ZN10QtMobility34QDeclarativeLandmarkCompoundFilter13appendFiltersINS_27QLandmarkIntersectionFilterEEEbPT_)
    t._ZN12QMetaTypeId2IN10QtMobility9QLandmarkEE14qt_metatype_idEv 0x0001c318   Section       84  qdeclarativegeosearchmodel.o(t._ZN12QMetaTypeId2IN10QtMobility9QLandmarkEE14qt_metatype_idEv)
    t._ZN12QMetaTypeId2IPN10QtMobility20QDeclarativeGeoPlaceEE14qt_metatype_idEv 0x0001c36c   Section       88  qdeclarativegeosearchmodel.o(t._ZN12QMetaTypeId2IPN10QtMobility20QDeclarativeGeoPlaceEE14qt_metatype_idEv)
    t._ZN12QMetaTypeId2IPN10QtMobility20QDeclarativeLandmarkEE14qt_metatype_idEv 0x0001c3c4   Section      100  qdeclarativelandmarkmodel.o(t._ZN12QMetaTypeId2IPN10QtMobility20QDeclarativeLandmarkEE14qt_metatype_idEv)
    t._ZN12QMetaTypeId2IPN10QtMobility28QDeclarativeLandmarkCategoryEE14qt_metatype_idEv 0x0001c428   Section      108  qdeclarativelandmarkcategorymodel.o(t._ZN12QMetaTypeId2IPN10QtMobility28QDeclarativeLandmarkCategoryEE14qt_metatype_idEv)
    t._ZN19QDeclarativePrivate10createIntoIN10QtMobility13QGeoMapObjectEEEvPv 0x0001c494   Section       44  location.o(t._ZN19QDeclarativePrivate10createIntoIN10QtMobility13QGeoMapObjectEEEvPv)
    t._ZN19QDeclarativePrivate10createIntoIN10QtMobility13QGeoMapObjectEEEvPv.clean 0x0001c4c0   Section       12  location.o(t._ZN19QDeclarativePrivate10createIntoIN10QtMobility13QGeoMapObjectEEEvPv.clean)
    t._ZN19QDeclarativePrivate10createIntoIN10QtMobility20QDeclarativeGeoPlaceEEEvPv 0x0001c4cc   Section       44  location.o(t._ZN19QDeclarativePrivate10createIntoIN10QtMobility20QDeclarativeGeoPlaceEEEvPv)
    t._ZN19QDeclarativePrivate10createIntoIN10QtMobility20QDeclarativeGeoPlaceEEEvPv.clean 0x0001c4f8   Section       12  location.o(t._ZN19QDeclarativePrivate10createIntoIN10QtMobility20QDeclarativeGeoPlaceEEEvPv.clean)
    t._ZN19QDeclarativePrivate10createIntoIN10QtMobility20QDeclarativeLandmarkEEEvPv 0x0001c504   Section       44  location.o(t._ZN19QDeclarativePrivate10createIntoIN10QtMobility20QDeclarativeLandmarkEEEvPv)
    t._ZN19QDeclarativePrivate10createIntoIN10QtMobility20QDeclarativeLandmarkEEEvPv.clean 0x0001c530   Section       12  location.o(t._ZN19QDeclarativePrivate10createIntoIN10QtMobility20QDeclarativeLandmarkEEEvPv.clean)
    t._ZN19QDeclarativePrivate10createIntoIN10QtMobility20QDeclarativePositionEEEvPv 0x0001c53c   Section       44  location.o(t._ZN19QDeclarativePrivate10createIntoIN10QtMobility20QDeclarativePositionEEEvPv)
    t._ZN19QDeclarativePrivate10createIntoIN10QtMobility20QDeclarativePositionEEEvPv.clean 0x0001c568   Section       12  location.o(t._ZN19QDeclarativePrivate10createIntoIN10QtMobility20QDeclarativePositionEEEvPv.clean)
    t._ZN19QDeclarativePrivate10createIntoIN10QtMobility22QDeclarativeCoordinateEEEvPv 0x0001c574   Section       44  location.o(t._ZN19QDeclarativePrivate10createIntoIN10QtMobility22QDeclarativeCoordinateEEEvPv)
    t._ZN19QDeclarativePrivate10createIntoIN10QtMobility22QDeclarativeCoordinateEEEvPv.clean 0x0001c5a0   Section       12  location.o(t._ZN19QDeclarativePrivate10createIntoIN10QtMobility22QDeclarativeCoordinateEEEvPv.clean)
    t._ZN19QDeclarativePrivate10createIntoIN10QtMobility22QDeclarativeGeoAddressEEEvPv 0x0001c5ac   Section       44  location.o(t._ZN19QDeclarativePrivate10createIntoIN10QtMobility22QDeclarativeGeoAddressEEEvPv)
    t._ZN19QDeclarativePrivate10createIntoIN10QtMobility22QDeclarativeGeoAddressEEEvPv.clean 0x0001c5d8   Section       12  location.o(t._ZN19QDeclarativePrivate10createIntoIN10QtMobility22QDeclarativeGeoAddressEEEvPv.clean)
    t._ZN19QDeclarativePrivate10createIntoIN10QtMobility24QDeclarativeGeoMapObjectEEEvPv 0x0001c5e4   Section       40  location.o(t._ZN19QDeclarativePrivate10createIntoIN10QtMobility24QDeclarativeGeoMapObjectEEEvPv)
    t._ZN19QDeclarativePrivate10createIntoIN10QtMobility24QDeclarativeGeoMapObjectEEEvPv.clean 0x0001c60c   Section       12  location.o(t._ZN19QDeclarativePrivate10createIntoIN10QtMobility24QDeclarativeGeoMapObjectEEEvPv.clean)
    t._ZN19QDeclarativePrivate10createIntoIN10QtMobility24QDeclarativeGeocodeModelEEEvPv 0x0001c618   Section       48  location.o(t._ZN19QDeclarativePrivate10createIntoIN10QtMobility24QDeclarativeGeocodeModelEEEvPv)
    t._ZN19QDeclarativePrivate10createIntoIN10QtMobility24QDeclarativeGeocodeModelEEEvPv.clean 0x0001c648   Section       12  location.o(t._ZN19QDeclarativePrivate10createIntoIN10QtMobility24QDeclarativeGeocodeModelEEEvPv.clean)
    t._ZN19QDeclarativePrivate10createIntoIN10QtMobility25QDeclarativeLandmarkModelEEEvPv 0x0001c654   Section       48  location.o(t._ZN19QDeclarativePrivate10createIntoIN10QtMobility25QDeclarativeLandmarkModelEEEvPv)
    t._ZN19QDeclarativePrivate10createIntoIN10QtMobility25QDeclarativeLandmarkModelEEEvPv.clean 0x0001c684   Section       12  location.o(t._ZN19QDeclarativePrivate10createIntoIN10QtMobility25QDeclarativeLandmarkModelEEEvPv.clean)
    t._ZN19QDeclarativePrivate10createIntoIN10QtMobility26QDeclarativeGeoBoundingBoxEEEvPv 0x0001c690   Section       44  location.o(t._ZN19QDeclarativePrivate10createIntoIN10QtMobility26QDeclarativeGeoBoundingBoxEEEvPv)
    t._ZN19QDeclarativePrivate10createIntoIN10QtMobility26QDeclarativeGeoBoundingBoxEEEvPv.clean 0x0001c6bc   Section       12  location.o(t._ZN19QDeclarativePrivate10createIntoIN10QtMobility26QDeclarativeGeoBoundingBoxEEEvPv.clean)
    t._ZN19QDeclarativePrivate10createIntoIN10QtMobility26QDeclarativeGraphicsGeoMapEEEvPv 0x0001c6c8   Section       52  location.o(t._ZN19QDeclarativePrivate10createIntoIN10QtMobility26QDeclarativeGraphicsGeoMapEEEvPv)
    t._ZN19QDeclarativePrivate10createIntoIN10QtMobility26QDeclarativeGraphicsGeoMapEEEvPv.clean 0x0001c6fc   Section       12  location.o(t._ZN19QDeclarativePrivate10createIntoIN10QtMobility26QDeclarativeGraphicsGeoMapEEEvPv.clean)
    t._ZN19QDeclarativePrivate10createIntoIN10QtMobility26QDeclarativePositionSourceEEEvPv 0x0001c708   Section       40  location.o(t._ZN19QDeclarativePrivate10createIntoIN10QtMobility26QDeclarativePositionSourceEEEvPv)
    t._ZN19QDeclarativePrivate10createIntoIN10QtMobility26QDeclarativePositionSourceEEEvPv.clean 0x0001c730   Section       12  location.o(t._ZN19QDeclarativePrivate10createIntoIN10QtMobility26QDeclarativePositionSourceEEEvPv.clean)
    t._ZN19QDeclarativePrivate10createIntoIN10QtMobility28QDeclarativeGeoMapTextObjectEEEvPv 0x0001c73c   Section       40  location.o(t._ZN19QDeclarativePrivate10createIntoIN10QtMobility28QDeclarativeGeoMapTextObjectEEEvPv)
    t._ZN19QDeclarativePrivate10createIntoIN10QtMobility28QDeclarativeGeoMapTextObjectEEEvPv.clean 0x0001c764   Section       12  location.o(t._ZN19QDeclarativePrivate10createIntoIN10QtMobility28QDeclarativeGeoMapTextObjectEEEvPv.clean)
    t._ZN19QDeclarativePrivate10createIntoIN10QtMobility28QDeclarativeLandmarkCategoryEEEvPv 0x0001c770   Section       44  location.o(t._ZN19QDeclarativePrivate10createIntoIN10QtMobility28QDeclarativeLandmarkCategoryEEEvPv)
    t._ZN19QDeclarativePrivate10createIntoIN10QtMobility28QDeclarativeLandmarkCategoryEEEvPv.clean 0x0001c79c   Section       12  location.o(t._ZN19QDeclarativePrivate10createIntoIN10QtMobility28QDeclarativeLandmarkCategoryEEEvPv.clean)
    t._ZN19QDeclarativePrivate10createIntoIN10QtMobility29QDeclarativeLandmarkBoxFilterEEEvPv 0x0001c7a8   Section       44  location.o(t._ZN19QDeclarativePrivate10createIntoIN10QtMobility29QDeclarativeLandmarkBoxFilterEEEvPv)
    t._ZN19QDeclarativePrivate10createIntoIN10QtMobility29QDeclarativeLandmarkBoxFilterEEEvPv.clean 0x0001c7d4   Section       12  location.o(t._ZN19QDeclarativePrivate10createIntoIN10QtMobility29QDeclarativeLandmarkBoxFilterEEEvPv.clean)
    t._ZN19QDeclarativePrivate10createIntoIN10QtMobility30QDeclarativeGeoMapCircleObjectEEEvPv 0x0001c7e0   Section       40  location.o(t._ZN19QDeclarativePrivate10createIntoIN10QtMobility30QDeclarativeGeoMapCircleObjectEEEvPv)
    t._ZN19QDeclarativePrivate10createIntoIN10QtMobility30QDeclarativeGeoMapCircleObjectEEEvPv.clean 0x0001c808   Section       12  location.o(t._ZN19QDeclarativePrivate10createIntoIN10QtMobility30QDeclarativeGeoMapCircleObjectEEEvPv.clean)
    t._ZN19QDeclarativePrivate10createIntoIN10QtMobility30QDeclarativeGeoMapPixmapObjectEEEvPv 0x0001c814   Section       40  location.o(t._ZN19QDeclarativePrivate10createIntoIN10QtMobility30QDeclarativeGeoMapPixmapObjectEEEvPv)
    t._ZN19QDeclarativePrivate10createIntoIN10QtMobility30QDeclarativeGeoMapPixmapObjectEEEvPv.clean 0x0001c83c   Section       12  location.o(t._ZN19QDeclarativePrivate10createIntoIN10QtMobility30QDeclarativeGeoMapPixmapObjectEEEvPv.clean)
    t._ZN19QDeclarativePrivate10createIntoIN10QtMobility30QDeclarativeGeoServiceProviderEEEvPv 0x0001c848   Section       44  location.o(t._ZN19QDeclarativePrivate10createIntoIN10QtMobility30QDeclarativeGeoServiceProviderEEEvPv)
    t._ZN19QDeclarativePrivate10createIntoIN10QtMobility30QDeclarativeGeoServiceProviderEEEvPv.clean 0x0001c874   Section       12  location.o(t._ZN19QDeclarativePrivate10createIntoIN10QtMobility30QDeclarativeGeoServiceProviderEEEvPv.clean)
    t._ZN19QDeclarativePrivate10createIntoIN10QtMobility30QDeclarativeLandmarkNameFilterEEEvPv 0x0001c880   Section       44  location.o(t._ZN19QDeclarativePrivate10createIntoIN10QtMobility30QDeclarativeLandmarkNameFilterEEEvPv)
    t._ZN19QDeclarativePrivate10createIntoIN10QtMobility30QDeclarativeLandmarkNameFilterEEEvPv.clean 0x0001c8ac   Section       12  location.o(t._ZN19QDeclarativePrivate10createIntoIN10QtMobility30QDeclarativeLandmarkNameFilterEEEvPv.clean)
    t._ZN19QDeclarativePrivate10createIntoIN10QtMobility31QDeclarativeGeoMapPolygonObjectEEEvPv 0x0001c8b8   Section       40  location.o(t._ZN19QDeclarativePrivate10createIntoIN10QtMobility31QDeclarativeGeoMapPolygonObjectEEEvPv)
    t._ZN19QDeclarativePrivate10createIntoIN10QtMobility31QDeclarativeGeoMapPolygonObjectEEEvPv.clean 0x0001c8e0   Section       12  location.o(t._ZN19QDeclarativePrivate10createIntoIN10QtMobility31QDeclarativeGeoMapPolygonObjectEEEvPv.clean)
    t._ZN19QDeclarativePrivate10createIntoIN10QtMobility31QDeclarativeLandmarkUnionFilterEEEvPv 0x0001c8ec   Section       44  location.o(t._ZN19QDeclarativePrivate10createIntoIN10QtMobility31QDeclarativeLandmarkUnionFilterEEEvPv)
    t._ZN19QDeclarativePrivate10createIntoIN10QtMobility31QDeclarativeLandmarkUnionFilterEEEvPv.clean 0x0001c918   Section       12  location.o(t._ZN19QDeclarativePrivate10createIntoIN10QtMobility31QDeclarativeLandmarkUnionFilterEEEvPv.clean)
    t._ZN19QDeclarativePrivate10createIntoIN10QtMobility31QDeclarativeReverseGeocodeModelEEEvPv 0x0001c924   Section       48  location.o(t._ZN19QDeclarativePrivate10createIntoIN10QtMobility31QDeclarativeReverseGeocodeModelEEEvPv)
    t._ZN19QDeclarativePrivate10createIntoIN10QtMobility31QDeclarativeReverseGeocodeModelEEEvPv.clean 0x0001c954   Section       12  location.o(t._ZN19QDeclarativePrivate10createIntoIN10QtMobility31QDeclarativeReverseGeocodeModelEEEvPv.clean)
    t._ZN19QDeclarativePrivate10createIntoIN10QtMobility32QDeclarativeGeoMapPolylineObjectEEEvPv 0x0001c960   Section       40  location.o(t._ZN19QDeclarativePrivate10createIntoIN10QtMobility32QDeclarativeGeoMapPolylineObjectEEEvPv)
    t._ZN19QDeclarativePrivate10createIntoIN10QtMobility32QDeclarativeGeoMapPolylineObjectEEEvPv.clean 0x0001c988   Section       12  location.o(t._ZN19QDeclarativePrivate10createIntoIN10QtMobility32QDeclarativeGeoMapPolylineObjectEEEvPv.clean)
    t._ZN19QDeclarativePrivate10createIntoIN10QtMobility33QDeclarativeGeoMapRectangleObjectEEEvPv 0x0001c994   Section       40  location.o(t._ZN19QDeclarativePrivate10createIntoIN10QtMobility33QDeclarativeGeoMapRectangleObjectEEEvPv)
    t._ZN19QDeclarativePrivate10createIntoIN10QtMobility33QDeclarativeGeoMapRectangleObjectEEEvPv.clean 0x0001c9bc   Section       12  location.o(t._ZN19QDeclarativePrivate10createIntoIN10QtMobility33QDeclarativeGeoMapRectangleObjectEEEvPv.clean)
    t._ZN19QDeclarativePrivate10createIntoIN10QtMobility33QDeclarativeLandmarkCategoryModelEEEvPv 0x0001c9c8   Section       48  location.o(t._ZN19QDeclarativePrivate10createIntoIN10QtMobility33QDeclarativeLandmarkCategoryModelEEEvPv)
    t._ZN19QDeclarativePrivate10createIntoIN10QtMobility33QDeclarativeLandmarkCategoryModelEEEvPv.clean 0x0001c9f8   Section       12  location.o(t._ZN19QDeclarativePrivate10createIntoIN10QtMobility33QDeclarativeLandmarkCategoryModelEEEvPv.clean)
    t._ZN19QDeclarativePrivate10createIntoIN10QtMobility34QDeclarativeLandmarkCategoryFilterEEEvPv 0x0001ca04   Section       44  location.o(t._ZN19QDeclarativePrivate10createIntoIN10QtMobility34QDeclarativeLandmarkCategoryFilterEEEvPv)
    t._ZN19QDeclarativePrivate10createIntoIN10QtMobility34QDeclarativeLandmarkCategoryFilterEEEvPv.clean 0x0001ca30   Section       12  location.o(t._ZN19QDeclarativePrivate10createIntoIN10QtMobility34QDeclarativeLandmarkCategoryFilterEEEvPv.clean)
    t._ZN19QDeclarativePrivate10createIntoIN10QtMobility35QDeclarativeLandmarkProximityFilterEEEvPv 0x0001ca3c   Section       44  location.o(t._ZN19QDeclarativePrivate10createIntoIN10QtMobility35QDeclarativeLandmarkProximityFilterEEEvPv)
    t._ZN19QDeclarativePrivate10createIntoIN10QtMobility35QDeclarativeLandmarkProximityFilterEEEvPv.clean 0x0001ca68   Section       12  location.o(t._ZN19QDeclarativePrivate10createIntoIN10QtMobility35QDeclarativeLandmarkProximityFilterEEEvPv.clean)
    t._ZN19QDeclarativePrivate10createIntoIN10QtMobility38QDeclarativeLandmarkIntersectionFilterEEEvPv 0x0001ca74   Section       44  location.o(t._ZN19QDeclarativePrivate10createIntoIN10QtMobility38QDeclarativeLandmarkIntersectionFilterEEEvPv)
    t._ZN19QDeclarativePrivate10createIntoIN10QtMobility38QDeclarativeLandmarkIntersectionFilterEEEvPv.clean 0x0001caa0   Section       12  location.o(t._ZN19QDeclarativePrivate10createIntoIN10QtMobility38QDeclarativeLandmarkIntersectionFilterEEEvPv.clean)
    t._ZN19QDeclarativePrivate10createIntoIN10QtMobility39QDeclarativeGeoServiceProviderParameterEEEvPv 0x0001caac   Section       44  location.o(t._ZN19QDeclarativePrivate10createIntoIN10QtMobility39QDeclarativeGeoServiceProviderParameterEEEvPv)
    t._ZN19QDeclarativePrivate10createIntoIN10QtMobility39QDeclarativeGeoServiceProviderParameterEEEvPv.clean 0x0001cad8   Section       12  location.o(t._ZN19QDeclarativePrivate10createIntoIN10QtMobility39QDeclarativeGeoServiceProviderParameterEEEvPv.clean)
    t._ZN19QDeclarativePrivate19QDeclarativeElementIN10QtMobility13QGeoMapObjectEED1Ev 0x0001cae4   Section       28  location.o(t._ZN19QDeclarativePrivate19QDeclarativeElementIN10QtMobility13QGeoMapObjectEED1Ev)
    t._ZN19QDeclarativePrivate19QDeclarativeElementIN10QtMobility13QGeoMapObjectEED1Ev.clean 0x0001cb00   Section       10  location.o(t._ZN19QDeclarativePrivate19QDeclarativeElementIN10QtMobility13QGeoMapObjectEED1Ev.clean)
    t._ZN19QDeclarativePrivate19QDeclarativeElementIN10QtMobility20QDeclarativeGeoPlaceEED1Ev 0x0001cb0c   Section       28  location.o(t._ZN19QDeclarativePrivate19QDeclarativeElementIN10QtMobility20QDeclarativeGeoPlaceEED1Ev)
    t._ZN19QDeclarativePrivate19QDeclarativeElementIN10QtMobility20QDeclarativeGeoPlaceEED1Ev.clean 0x0001cb28   Section       10  location.o(t._ZN19QDeclarativePrivate19QDeclarativeElementIN10QtMobility20QDeclarativeGeoPlaceEED1Ev.clean)
    t._ZN19QDeclarativePrivate19QDeclarativeElementIN10QtMobility20QDeclarativeLandmarkEED1Ev 0x0001cb34   Section       28  location.o(t._ZN19QDeclarativePrivate19QDeclarativeElementIN10QtMobility20QDeclarativeLandmarkEED1Ev)
    t._ZN19QDeclarativePrivate19QDeclarativeElementIN10QtMobility20QDeclarativeLandmarkEED1Ev.clean 0x0001cb50   Section       10  location.o(t._ZN19QDeclarativePrivate19QDeclarativeElementIN10QtMobility20QDeclarativeLandmarkEED1Ev.clean)
    t._ZN19QDeclarativePrivate19QDeclarativeElementIN10QtMobility20QDeclarativePositionEED1Ev 0x0001cb5c   Section       28  location.o(t._ZN19QDeclarativePrivate19QDeclarativeElementIN10QtMobility20QDeclarativePositionEED1Ev)
    t._ZN19QDeclarativePrivate19QDeclarativeElementIN10QtMobility20QDeclarativePositionEED1Ev.clean 0x0001cb78   Section       10  location.o(t._ZN19QDeclarativePrivate19QDeclarativeElementIN10QtMobility20QDeclarativePositionEED1Ev.clean)
    t._ZN19QDeclarativePrivate19QDeclarativeElementIN10QtMobility22QDeclarativeCoordinateEED1Ev 0x0001cb84   Section       28  location.o(t._ZN19QDeclarativePrivate19QDeclarativeElementIN10QtMobility22QDeclarativeCoordinateEED1Ev)
    t._ZN19QDeclarativePrivate19QDeclarativeElementIN10QtMobility22QDeclarativeCoordinateEED1Ev.clean 0x0001cba0   Section       10  location.o(t._ZN19QDeclarativePrivate19QDeclarativeElementIN10QtMobility22QDeclarativeCoordinateEED1Ev.clean)
    t._ZN19QDeclarativePrivate19QDeclarativeElementIN10QtMobility22QDeclarativeGeoAddressEED1Ev 0x0001cbac   Section       28  location.o(t._ZN19QDeclarativePrivate19QDeclarativeElementIN10QtMobility22QDeclarativeGeoAddressEED1Ev)
    t._ZN19QDeclarativePrivate19QDeclarativeElementIN10QtMobility22QDeclarativeGeoAddressEED1Ev.clean 0x0001cbc8   Section       10  location.o(t._ZN19QDeclarativePrivate19QDeclarativeElementIN10QtMobility22QDeclarativeGeoAddressEED1Ev.clean)
    t._ZN19QDeclarativePrivate19QDeclarativeElementIN10QtMobility24QDeclarativeGeoMapObjectEED1Ev 0x0001cbd4   Section       28  location.o(t._ZN19QDeclarativePrivate19QDeclarativeElementIN10QtMobility24QDeclarativeGeoMapObjectEED1Ev)
    t._ZN19QDeclarativePrivate19QDeclarativeElementIN10QtMobility24QDeclarativeGeoMapObjectEED1Ev.clean 0x0001cbf0   Section       10  location.o(t._ZN19QDeclarativePrivate19QDeclarativeElementIN10QtMobility24QDeclarativeGeoMapObjectEED1Ev.clean)
    t._ZN19QDeclarativePrivate19QDeclarativeElementIN10QtMobility24QDeclarativeGeocodeModelEED1Ev 0x0001cbfc   Section       32  location.o(t._ZN19QDeclarativePrivate19QDeclarativeElementIN10QtMobility24QDeclarativeGeocodeModelEED1Ev)
    t._ZN19QDeclarativePrivate19QDeclarativeElementIN10QtMobility24QDeclarativeGeocodeModelEED1Ev.clean 0x0001cc1c   Section       10  location.o(t._ZN19QDeclarativePrivate19QDeclarativeElementIN10QtMobility24QDeclarativeGeocodeModelEED1Ev.clean)
    t._ZN19QDeclarativePrivate19QDeclarativeElementIN10QtMobility25QDeclarativeLandmarkModelEED1Ev 0x0001cc28   Section       32  location.o(t._ZN19QDeclarativePrivate19QDeclarativeElementIN10QtMobility25QDeclarativeLandmarkModelEED1Ev)
    t._ZN19QDeclarativePrivate19QDeclarativeElementIN10QtMobility25QDeclarativeLandmarkModelEED1Ev.clean 0x0001cc48   Section       10  location.o(t._ZN19QDeclarativePrivate19QDeclarativeElementIN10QtMobility25QDeclarativeLandmarkModelEED1Ev.clean)
    t._ZN19QDeclarativePrivate19QDeclarativeElementIN10QtMobility26QDeclarativeGeoBoundingBoxEED1Ev 0x0001cc54   Section       28  location.o(t._ZN19QDeclarativePrivate19QDeclarativeElementIN10QtMobility26QDeclarativeGeoBoundingBoxEED1Ev)
    t._ZN19QDeclarativePrivate19QDeclarativeElementIN10QtMobility26QDeclarativeGeoBoundingBoxEED1Ev.clean 0x0001cc70   Section       10  location.o(t._ZN19QDeclarativePrivate19QDeclarativeElementIN10QtMobility26QDeclarativeGeoBoundingBoxEED1Ev.clean)
    t._ZN19QDeclarativePrivate19QDeclarativeElementIN10QtMobility26QDeclarativeGraphicsGeoMapEED1Ev 0x0001cc7c   Section       36  location.o(t._ZN19QDeclarativePrivate19QDeclarativeElementIN10QtMobility26QDeclarativeGraphicsGeoMapEED1Ev)
    t._ZN19QDeclarativePrivate19QDeclarativeElementIN10QtMobility26QDeclarativeGraphicsGeoMapEED1Ev.clean 0x0001cca0   Section       10  location.o(t._ZN19QDeclarativePrivate19QDeclarativeElementIN10QtMobility26QDeclarativeGraphicsGeoMapEED1Ev.clean)
    t._ZN19QDeclarativePrivate19QDeclarativeElementIN10QtMobility26QDeclarativePositionSourceEED1Ev 0x0001ccac   Section       28  location.o(t._ZN19QDeclarativePrivate19QDeclarativeElementIN10QtMobility26QDeclarativePositionSourceEED1Ev)
    t._ZN19QDeclarativePrivate19QDeclarativeElementIN10QtMobility26QDeclarativePositionSourceEED1Ev.clean 0x0001ccc8   Section       10  location.o(t._ZN19QDeclarativePrivate19QDeclarativeElementIN10QtMobility26QDeclarativePositionSourceEED1Ev.clean)
    t._ZN19QDeclarativePrivate19QDeclarativeElementIN10QtMobility28QDeclarativeGeoMapTextObjectEED1Ev 0x0001ccd4   Section       28  location.o(t._ZN19QDeclarativePrivate19QDeclarativeElementIN10QtMobility28QDeclarativeGeoMapTextObjectEED1Ev)
    t._ZN19QDeclarativePrivate19QDeclarativeElementIN10QtMobility28QDeclarativeGeoMapTextObjectEED1Ev.clean 0x0001ccf0   Section       10  location.o(t._ZN19QDeclarativePrivate19QDeclarativeElementIN10QtMobility28QDeclarativeGeoMapTextObjectEED1Ev.clean)
    t._ZN19QDeclarativePrivate19QDeclarativeElementIN10QtMobility28QDeclarativeLandmarkCategoryEED1Ev 0x0001ccfc   Section       28  location.o(t._ZN19QDeclarativePrivate19QDeclarativeElementIN10QtMobility28QDeclarativeLandmarkCategoryEED1Ev)
    t._ZN19QDeclarativePrivate19QDeclarativeElementIN10QtMobility28QDeclarativeLandmarkCategoryEED1Ev.clean 0x0001cd18   Section       10  location.o(t._ZN19QDeclarativePrivate19QDeclarativeElementIN10QtMobility28QDeclarativeLandmarkCategoryEED1Ev.clean)
    t._ZN19QDeclarativePrivate19QDeclarativeElementIN10QtMobility29QDeclarativeLandmarkBoxFilterEED1Ev 0x0001cd24   Section       28  location.o(t._ZN19QDeclarativePrivate19QDeclarativeElementIN10QtMobility29QDeclarativeLandmarkBoxFilterEED1Ev)
    t._ZN19QDeclarativePrivate19QDeclarativeElementIN10QtMobility29QDeclarativeLandmarkBoxFilterEED1Ev.clean 0x0001cd40   Section       10  location.o(t._ZN19QDeclarativePrivate19QDeclarativeElementIN10QtMobility29QDeclarativeLandmarkBoxFilterEED1Ev.clean)
    t._ZN19QDeclarativePrivate19QDeclarativeElementIN10QtMobility30QDeclarativeGeoMapCircleObjectEED1Ev 0x0001cd4c   Section       28  location.o(t._ZN19QDeclarativePrivate19QDeclarativeElementIN10QtMobility30QDeclarativeGeoMapCircleObjectEED1Ev)
    t._ZN19QDeclarativePrivate19QDeclarativeElementIN10QtMobility30QDeclarativeGeoMapCircleObjectEED1Ev.clean 0x0001cd68   Section       10  location.o(t._ZN19QDeclarativePrivate19QDeclarativeElementIN10QtMobility30QDeclarativeGeoMapCircleObjectEED1Ev.clean)
    t._ZN19QDeclarativePrivate19QDeclarativeElementIN10QtMobility30QDeclarativeGeoMapPixmapObjectEED1Ev 0x0001cd74   Section       28  location.o(t._ZN19QDeclarativePrivate19QDeclarativeElementIN10QtMobility30QDeclarativeGeoMapPixmapObjectEED1Ev)
    t._ZN19QDeclarativePrivate19QDeclarativeElementIN10QtMobility30QDeclarativeGeoMapPixmapObjectEED1Ev.clean 0x0001cd90   Section       10  location.o(t._ZN19QDeclarativePrivate19QDeclarativeElementIN10QtMobility30QDeclarativeGeoMapPixmapObjectEED1Ev.clean)
    t._ZN19QDeclarativePrivate19QDeclarativeElementIN10QtMobility30QDeclarativeGeoServiceProviderEED1Ev 0x0001cd9c   Section       28  location.o(t._ZN19QDeclarativePrivate19QDeclarativeElementIN10QtMobility30QDeclarativeGeoServiceProviderEED1Ev)
    t._ZN19QDeclarativePrivate19QDeclarativeElementIN10QtMobility30QDeclarativeGeoServiceProviderEED1Ev.clean 0x0001cdb8   Section       10  location.o(t._ZN19QDeclarativePrivate19QDeclarativeElementIN10QtMobility30QDeclarativeGeoServiceProviderEED1Ev.clean)
    t._ZN19QDeclarativePrivate19QDeclarativeElementIN10QtMobility30QDeclarativeLandmarkNameFilterEED1Ev 0x0001cdc4   Section       28  location.o(t._ZN19QDeclarativePrivate19QDeclarativeElementIN10QtMobility30QDeclarativeLandmarkNameFilterEED1Ev)
    t._ZN19QDeclarativePrivate19QDeclarativeElementIN10QtMobility30QDeclarativeLandmarkNameFilterEED1Ev.clean 0x0001cde0   Section       10  location.o(t._ZN19QDeclarativePrivate19QDeclarativeElementIN10QtMobility30QDeclarativeLandmarkNameFilterEED1Ev.clean)
    t._ZN19QDeclarativePrivate19QDeclarativeElementIN10QtMobility31QDeclarativeGeoMapPolygonObjectEED1Ev 0x0001cdec   Section       28  location.o(t._ZN19QDeclarativePrivate19QDeclarativeElementIN10QtMobility31QDeclarativeGeoMapPolygonObjectEED1Ev)
    t._ZN19QDeclarativePrivate19QDeclarativeElementIN10QtMobility31QDeclarativeGeoMapPolygonObjectEED1Ev.clean 0x0001ce08   Section       10  location.o(t._ZN19QDeclarativePrivate19QDeclarativeElementIN10QtMobility31QDeclarativeGeoMapPolygonObjectEED1Ev.clean)
    t._ZN19QDeclarativePrivate19QDeclarativeElementIN10QtMobility31QDeclarativeLandmarkUnionFilterEED1Ev 0x0001ce14   Section       28  location.o(t._ZN19QDeclarativePrivate19QDeclarativeElementIN10QtMobility31QDeclarativeLandmarkUnionFilterEED1Ev)
    t._ZN19QDeclarativePrivate19QDeclarativeElementIN10QtMobility31QDeclarativeLandmarkUnionFilterEED1Ev.clean 0x0001ce30   Section       10  location.o(t._ZN19QDeclarativePrivate19QDeclarativeElementIN10QtMobility31QDeclarativeLandmarkUnionFilterEED1Ev.clean)
    t._ZN19QDeclarativePrivate19QDeclarativeElementIN10QtMobility31QDeclarativeReverseGeocodeModelEED1Ev 0x0001ce3c   Section       32  location.o(t._ZN19QDeclarativePrivate19QDeclarativeElementIN10QtMobility31QDeclarativeReverseGeocodeModelEED1Ev)
    t._ZN19QDeclarativePrivate19QDeclarativeElementIN10QtMobility31QDeclarativeReverseGeocodeModelEED1Ev.clean 0x0001ce5c   Section       10  location.o(t._ZN19QDeclarativePrivate19QDeclarativeElementIN10QtMobility31QDeclarativeReverseGeocodeModelEED1Ev.clean)
    t._ZN19QDeclarativePrivate19QDeclarativeElementIN10QtMobility32QDeclarativeGeoMapPolylineObjectEED1Ev 0x0001ce68   Section       28  location.o(t._ZN19QDeclarativePrivate19QDeclarativeElementIN10QtMobility32QDeclarativeGeoMapPolylineObjectEED1Ev)
    t._ZN19QDeclarativePrivate19QDeclarativeElementIN10QtMobility32QDeclarativeGeoMapPolylineObjectEED1Ev.clean 0x0001ce84   Section       10  location.o(t._ZN19QDeclarativePrivate19QDeclarativeElementIN10QtMobility32QDeclarativeGeoMapPolylineObjectEED1Ev.clean)
    t._ZN19QDeclarativePrivate19QDeclarativeElementIN10QtMobility33QDeclarativeGeoMapRectangleObjectEED1Ev 0x0001ce90   Section       28  location.o(t._ZN19QDeclarativePrivate19QDeclarativeElementIN10QtMobility33QDeclarativeGeoMapRectangleObjectEED1Ev)
    t._ZN19QDeclarativePrivate19QDeclarativeElementIN10QtMobility33QDeclarativeGeoMapRectangleObjectEED1Ev.clean 0x0001ceac   Section       10  location.o(t._ZN19QDeclarativePrivate19QDeclarativeElementIN10QtMobility33QDeclarativeGeoMapRectangleObjectEED1Ev.clean)
    t._ZN19QDeclarativePrivate19QDeclarativeElementIN10QtMobility33QDeclarativeLandmarkCategoryModelEED1Ev 0x0001ceb8   Section       32  location.o(t._ZN19QDeclarativePrivate19QDeclarativeElementIN10QtMobility33QDeclarativeLandmarkCategoryModelEED1Ev)
    t._ZN19QDeclarativePrivate19QDeclarativeElementIN10QtMobility33QDeclarativeLandmarkCategoryModelEED1Ev.clean 0x0001ced8   Section       10  location.o(t._ZN19QDeclarativePrivate19QDeclarativeElementIN10QtMobility33QDeclarativeLandmarkCategoryModelEED1Ev.clean)
    t._ZN19QDeclarativePrivate19QDeclarativeElementIN10QtMobility34QDeclarativeLandmarkCategoryFilterEED1Ev 0x0001cee4   Section       28  location.o(t._ZN19QDeclarativePrivate19QDeclarativeElementIN10QtMobility34QDeclarativeLandmarkCategoryFilterEED1Ev)
    t._ZN19QDeclarativePrivate19QDeclarativeElementIN10QtMobility34QDeclarativeLandmarkCategoryFilterEED1Ev.clean 0x0001cf00   Section       10  location.o(t._ZN19QDeclarativePrivate19QDeclarativeElementIN10QtMobility34QDeclarativeLandmarkCategoryFilterEED1Ev.clean)
    t._ZN19QDeclarativePrivate19QDeclarativeElementIN10QtMobility35QDeclarativeLandmarkProximityFilterEED1Ev 0x0001cf0c   Section       28  location.o(t._ZN19QDeclarativePrivate19QDeclarativeElementIN10QtMobility35QDeclarativeLandmarkProximityFilterEED1Ev)
    t._ZN19QDeclarativePrivate19QDeclarativeElementIN10QtMobility35QDeclarativeLandmarkProximityFilterEED1Ev.clean 0x0001cf28   Section       10  location.o(t._ZN19QDeclarativePrivate19QDeclarativeElementIN10QtMobility35QDeclarativeLandmarkProximityFilterEED1Ev.clean)
    t._ZN19QDeclarativePrivate19QDeclarativeElementIN10QtMobility38QDeclarativeLandmarkIntersectionFilterEED1Ev 0x0001cf34   Section       28  location.o(t._ZN19QDeclarativePrivate19QDeclarativeElementIN10QtMobility38QDeclarativeLandmarkIntersectionFilterEED1Ev)
    t._ZN19QDeclarativePrivate19QDeclarativeElementIN10QtMobility38QDeclarativeLandmarkIntersectionFilterEED1Ev.clean 0x0001cf50   Section       10  location.o(t._ZN19QDeclarativePrivate19QDeclarativeElementIN10QtMobility38QDeclarativeLandmarkIntersectionFilterEED1Ev.clean)
    t._ZN19QDeclarativePrivate19QDeclarativeElementIN10QtMobility39QDeclarativeGeoServiceProviderParameterEED1Ev 0x0001cf5c   Section       28  location.o(t._ZN19QDeclarativePrivate19QDeclarativeElementIN10QtMobility39QDeclarativeGeoServiceProviderParameterEED1Ev)
    t._ZN19QDeclarativePrivate19QDeclarativeElementIN10QtMobility39QDeclarativeGeoServiceProviderParameterEED1Ev.clean 0x0001cf78   Section       10  location.o(t._ZN19QDeclarativePrivate19QDeclarativeElementIN10QtMobility39QDeclarativeGeoServiceProviderParameterEED1Ev.clean)
    t._ZN4QMapI7QString8QVariantE11node_createEP8QMapDataPPNS3_4NodeERKS0_RKS1_ 0x0001cf82   Section      142  qdeclarativegeoserviceprovider.o(t._ZN4QMapI7QString8QVariantE11node_createEP8QMapDataPPNS3_4NodeERKS0_RKS1_)
    t._ZN4QMapI7QString8QVariantE11node_createEP8QMapDataPPNS3_4NodeERKS0_RKS1_.clean 0x0001d010   Section       38  qdeclarativegeoserviceprovider.o(t._ZN4QMapI7QString8QVariantE11node_createEP8QMapDataPPNS3_4NodeERKS0_RKS1_.clean)
    t._ZN4QMapI7QString8QVariantE13detach_helperEv 0x0001d036   Section      148  qdeclarativegeoserviceprovider.o(t._ZN4QMapI7QString8QVariantE13detach_helperEv)
    t._ZN4QMapI7QString8QVariantE13detach_helperEv.clean 0x0001d0ca   Section        8  qdeclarativegeoserviceprovider.o(t._ZN4QMapI7QString8QVariantE13detach_helperEv.clean)
    t._ZN4QMapI7QString8QVariantE8freeDataEP8QMapData 0x0001d0d2   Section       64  qdeclarativegeoserviceprovider.o(t._ZN4QMapI7QString8QVariantE8freeDataEP8QMapData)
    t._ZN4QMapI7QString8QVariantED1Ev        0x0001d112   Section       38  qdeclarativegeoserviceprovider.o(t._ZN4QMapI7QString8QVariantED1Ev)
    t._ZN4QMapI7QStringPN10QtMobility20QDeclarativeLandmarkEE11node_createEP8QMapDataPPNS5_4NodeERKS0_RKS3_ 0x0001d138   Section      118  qdeclarativelandmarkmodel.o(t._ZN4QMapI7QStringPN10QtMobility20QDeclarativeLandmarkEE11node_createEP8QMapDataPPNS5_4NodeERKS0_RKS3_)
    t._ZN4QMapI7QStringPN10QtMobility20QDeclarativeLandmarkEE11node_createEP8QMapDataPPNS5_4NodeERKS0_RKS3_.clean 0x0001d1ae   Section       20  qdeclarativelandmarkmodel.o(t._ZN4QMapI7QStringPN10QtMobility20QDeclarativeLandmarkEE11node_createEP8QMapDataPPNS5_4NodeERKS0_RKS3_.clean)
    t._ZN4QMapI7QStringPN10QtMobility20QDeclarativeLandmarkEE13detach_helperEv 0x0001d1c2   Section      146  qdeclarativelandmarkmodel.o(t._ZN4QMapI7QStringPN10QtMobility20QDeclarativeLandmarkEE13detach_helperEv)
    t._ZN4QMapI7QStringPN10QtMobility20QDeclarativeLandmarkEE13detach_helperEv.clean 0x0001d254   Section        8  qdeclarativelandmarkmodel.o(t._ZN4QMapI7QStringPN10QtMobility20QDeclarativeLandmarkEE13detach_helperEv.clean)
    t._ZN4QMapI7QStringPN10QtMobility20QDeclarativeLandmarkEE5clearEv 0x0001d25c   Section       82  qdeclarativelandmarkmodel.o(t._ZN4QMapI7QStringPN10QtMobility20QDeclarativeLandmarkEE5clearEv)
    t._ZN4QMapI7QStringPN10QtMobility20QDeclarativeLandmarkEE5clearEv.clean 0x0001d2ae   Section       10  qdeclarativelandmarkmodel.o(t._ZN4QMapI7QStringPN10QtMobility20QDeclarativeLandmarkEE5clearEv.clean)
    t._ZN4QMapI7QStringPN10QtMobility20QDeclarativeLandmarkEE6detachEv 0x0001d2b8   Section       28  qdeclarativelandmarkmodel.o(t._ZN4QMapI7QStringPN10QtMobility20QDeclarativeLandmarkEE6detachEv)
    t._ZN4QMapI7QStringPN10QtMobility20QDeclarativeLandmarkEE6removeERKS0_ 0x0001d2d4   Section      254  qdeclarativelandmarkmodel.o(t._ZN4QMapI7QStringPN10QtMobility20QDeclarativeLandmarkEE6removeERKS0_)
    t._ZN4QMapI7QStringPN10QtMobility20QDeclarativeLandmarkEE8freeDataEP8QMapData 0x0001d3d2   Section       56  qdeclarativelandmarkmodel.o(t._ZN4QMapI7QStringPN10QtMobility20QDeclarativeLandmarkEE8freeDataEP8QMapData)
    t._ZN4QMapI7QStringPN10QtMobility20QDeclarativeLandmarkEEC1Ev 0x0001d40c   Section       28  qdeclarativelandmarkmodel.o(t._ZN4QMapI7QStringPN10QtMobility20QDeclarativeLandmarkEEC1Ev)
    t._ZN4QMapI7QStringPN10QtMobility20QDeclarativeLandmarkEED1Ev 0x0001d428   Section       38  qdeclarativelandmarkmodel.o(t._ZN4QMapI7QStringPN10QtMobility20QDeclarativeLandmarkEED1Ev)
    t._ZN4QMapI7QStringPN10QtMobility28QDeclarativeLandmarkCategoryEE11node_createEP8QMapDataPPNS5_4NodeERKS0_RKS3_ 0x0001d44e   Section      118  qdeclarativelandmarkcategorymodel.o(t._ZN4QMapI7QStringPN10QtMobility28QDeclarativeLandmarkCategoryEE11node_createEP8QMapDataPPNS5_4NodeERKS0_RKS3_)
    t._ZN4QMapI7QStringPN10QtMobility28QDeclarativeLandmarkCategoryEE11node_createEP8QMapDataPPNS5_4NodeERKS0_RKS3_.clean 0x0001d4c4   Section       20  qdeclarativelandmarkcategorymodel.o(t._ZN4QMapI7QStringPN10QtMobility28QDeclarativeLandmarkCategoryEE11node_createEP8QMapDataPPNS5_4NodeERKS0_RKS3_.clean)
    t._ZN4QMapI7QStringPN10QtMobility28QDeclarativeLandmarkCategoryEE13detach_helperEv 0x0001d4d8   Section      146  qdeclarativelandmarkcategorymodel.o(t._ZN4QMapI7QStringPN10QtMobility28QDeclarativeLandmarkCategoryEE13detach_helperEv)
    t._ZN4QMapI7QStringPN10QtMobility28QDeclarativeLandmarkCategoryEE13detach_helperEv.clean 0x0001d56a   Section        8  qdeclarativelandmarkcategorymodel.o(t._ZN4QMapI7QStringPN10QtMobility28QDeclarativeLandmarkCategoryEE13detach_helperEv.clean)
    t._ZN4QMapI7QStringPN10QtMobility28QDeclarativeLandmarkCategoryEE5clearEv 0x0001d572   Section       82  qdeclarativelandmarkcategorymodel.o(t._ZN4QMapI7QStringPN10QtMobility28QDeclarativeLandmarkCategoryEE5clearEv)
    t._ZN4QMapI7QStringPN10QtMobility28QDeclarativeLandmarkCategoryEE5clearEv.clean 0x0001d5c4   Section       10  qdeclarativelandmarkcategorymodel.o(t._ZN4QMapI7QStringPN10QtMobility28QDeclarativeLandmarkCategoryEE5clearEv.clean)
    t._ZN4QMapI7QStringPN10QtMobility28QDeclarativeLandmarkCategoryEE6detachEv 0x0001d5ce   Section       28  qdeclarativelandmarkcategorymodel.o(t._ZN4QMapI7QStringPN10QtMobility28QDeclarativeLandmarkCategoryEE6detachEv)
    t._ZN4QMapI7QStringPN10QtMobility28QDeclarativeLandmarkCategoryEE6removeERKS0_ 0x0001d5ea   Section      254  qdeclarativelandmarkcategorymodel.o(t._ZN4QMapI7QStringPN10QtMobility28QDeclarativeLandmarkCategoryEE6removeERKS0_)
    t._ZN4QMapI7QStringPN10QtMobility28QDeclarativeLandmarkCategoryEE8freeDataEP8QMapData 0x0001d6e8   Section       56  qdeclarativelandmarkcategorymodel.o(t._ZN4QMapI7QStringPN10QtMobility28QDeclarativeLandmarkCategoryEE8freeDataEP8QMapData)
    t._ZN4QMapI7QStringPN10QtMobility28QDeclarativeLandmarkCategoryEEC1Ev 0x0001d720   Section       28  qdeclarativelandmarkcategorymodel.o(t._ZN4QMapI7QStringPN10QtMobility28QDeclarativeLandmarkCategoryEEC1Ev)
    t._ZN4QMapI7QStringPN10QtMobility28QDeclarativeLandmarkCategoryEED1Ev 0x0001d73c   Section       38  qdeclarativelandmarkcategorymodel.o(t._ZN4QMapI7QStringPN10QtMobility28QDeclarativeLandmarkCategoryEED1Ev)
    t._ZN4QMapI7QStringS0_E11node_createEP8QMapDataPPNS2_4NodeERKS0_S8_ 0x0001d762   Section      140  qdeclarativelandmarkmodel.o(t._ZN4QMapI7QStringS0_E11node_createEP8QMapDataPPNS2_4NodeERKS0_S8_)
    t._ZN4QMapI7QStringS0_E11node_createEP8QMapDataPPNS2_4NodeERKS0_S8_.clean 0x0001d7ee   Section       38  qdeclarativelandmarkmodel.o(t._ZN4QMapI7QStringS0_E11node_createEP8QMapDataPPNS2_4NodeERKS0_S8_.clean)
    t._ZN4QMapI7QStringS0_E13detach_helperEv 0x0001d814   Section      146  qdeclarativelandmarkmodel.o(t._ZN4QMapI7QStringS0_E13detach_helperEv)
    t._ZN4QMapI7QStringS0_E13detach_helperEv.clean 0x0001d8a6   Section        8  qdeclarativelandmarkmodel.o(t._ZN4QMapI7QStringS0_E13detach_helperEv.clean)
    t._ZN4QMapI7QStringS0_E8freeDataEP8QMapData 0x0001d8ae   Section       62  qdeclarativelandmarkmodel.o(t._ZN4QMapI7QStringS0_E8freeDataEP8QMapData)
    t._ZN4QMapI7QStringS0_ED1Ev              0x0001d8ec   Section       38  qdeclarativelandmarkmodel.o(t._ZN4QMapI7QStringS0_ED1Ev)
    t._ZN5QHashIi10QByteArrayE11deleteNode2EPN9QHashData4NodeE 0x0001d912   Section       24  qdeclarativelandmarkmodel.o(t._ZN5QHashIi10QByteArrayE11deleteNode2EPN9QHashData4NodeE)
    t._ZN5QHashIi10QByteArrayE13detach_helperEv 0x0001d92c   Section       60  qdeclarativelandmarkmodel.o(t._ZN5QHashIi10QByteArrayE13detach_helperEv)
    t._ZN5QHashIi10QByteArrayE13duplicateNodeEPN9QHashData4NodeEPv 0x0001d968   Section       46  qdeclarativelandmarkmodel.o(t._ZN5QHashIi10QByteArrayE13duplicateNodeEPN9QHashData4NodeEPv)
    t._ZN5QHashIi10QByteArrayE13duplicateNodeEPN9QHashData4NodeEPv.clean 0x0001d996   Section       14  qdeclarativelandmarkmodel.o(t._ZN5QHashIi10QByteArrayE13duplicateNodeEPN9QHashData4NodeEPv.clean)
    t._ZN5QHashIi10QByteArrayE6insertERKiRKS0_ 0x0001d9a4   Section      228  qdeclarativelandmarkmodel.o(t._ZN5QHashIi10QByteArrayE6insertERKiRKS0_)
    t._ZN5QHashIi10QByteArrayE6insertERKiRKS0_.clean 0x0001da88   Section       14  qdeclarativelandmarkmodel.o(t._ZN5QHashIi10QByteArrayE6insertERKiRKS0_.clean)
    t._ZN5QHashIi10QByteArrayE8freeDataEP9QHashData 0x0001da98   Section       20  qdeclarativelandmarkmodel.o(t._ZN5QHashIi10QByteArrayE8freeDataEP9QHashData)
    t._ZN5QHashIi10QByteArrayED1Ev           0x0001daac   Section       30  qdeclarativelandmarkmodel.o(t._ZN5QHashIi10QByteArrayED1Ev)
    t._ZN5QListI7QStringE13detach_helperEi   0x0001daca   Section       94  qdeclarativelandmarkmodel.o(t._ZN5QListI7QStringE13detach_helperEi)
    t._ZN5QListI7QStringE13detach_helperEi.clean 0x0001db28   Section        8  qdeclarativelandmarkmodel.o(t._ZN5QListI7QStringE13detach_helperEi.clean)
    t._ZN5QListI7QStringE13detach_helperEv   0x0001db30   Section       16  qdeclarativelandmarkmodel.o(t._ZN5QListI7QStringE13detach_helperEv)
    t._ZN5QListI7QStringE13node_destructEPNS1_4NodeES3_ 0x0001db40   Section       26  qdeclarativelandmarkmodel.o(t._ZN5QListI7QStringE13node_destructEPNS1_4NodeES3_)
    t._ZN5QListI7QStringE14node_constructEPNS1_4NodeERKS0_ 0x0001db5a   Section       36  qdeclarativelandmarkmodel.o(t._ZN5QListI7QStringE14node_constructEPNS1_4NodeERKS0_)
    t._ZN5QListI7QStringE14node_constructEPNS1_4NodeERKS0_.clean 0x0001db7e   Section       14  qdeclarativelandmarkmodel.o(t._ZN5QListI7QStringE14node_constructEPNS1_4NodeERKS0_.clean)
    t._ZN5QListI7QStringE18detach_helper_growEii 0x0001db8c   Section      208  qdeclarativelandmarkmodel.o(t._ZN5QListI7QStringE18detach_helper_growEii)
    t._ZN5QListI7QStringE18detach_helper_growEii.clean 0x0001dc5c   Section       16  qdeclarativelandmarkmodel.o(t._ZN5QListI7QStringE18detach_helper_growEii.clean)
    t._ZN5QListI7QStringE4freeEPN9QListData4DataE 0x0001dc6c   Section       52  qdeclarativelandmarkcategorymodel.o(t._ZN5QListI7QStringE4freeEPN9QListData4DataE)
    t._ZN5QListI7QStringE6appendERKS0_       0x0001dca0   Section      120  qdeclarativelandmarkmodel.o(t._ZN5QListI7QStringE6appendERKS0_)
    t._ZN5QListI7QStringE6appendERKS0_.clean 0x0001dd18   Section       14  qdeclarativelandmarkmodel.o(t._ZN5QListI7QStringE6appendERKS0_.clean)
    t._ZN5QListI7QStringE7reserveEi          0x0001dd26   Section       46  qdeclarativelandmarkmodel.o(t._ZN5QListI7QStringE7reserveEi)
    t._ZN5QListI7QStringE9node_copyEPNS1_4NodeES3_S3_ 0x0001dd54   Section       82  qdeclarativelandmarkmodel.o(t._ZN5QListI7QStringE9node_copyEPNS1_4NodeES3_S3_)
    t._ZN5QListI7QStringE9node_copyEPNS1_4NodeES3_S3_.clean 0x0001dda6   Section       22  qdeclarativelandmarkmodel.o(t._ZN5QListI7QStringE9node_copyEPNS1_4NodeES3_S3_.clean)
    t._ZN5QListI7QStringE9removeOneERKS0_    0x0001ddbc   Section      128  qdeclarativelandmarkmodel.o(t._ZN5QListI7QStringE9removeOneERKS0_)
    t._ZN5QListI7QStringED1Ev                0x0001de3c   Section       32  qdeclarativelandmarkmodel.o(t._ZN5QListI7QStringED1Ev)
    t._ZN5QListIN10QtMobility14QGeoCoordinateEE13node_destructEPNS2_4NodeES4_ 0x0001de5c   Section       38  qdeclarativegeomappolygonobject.o(t._ZN5QListIN10QtMobility14QGeoCoordinateEE13node_destructEPNS2_4NodeES4_)
    t._ZN5QListIN10QtMobility14QGeoCoordinateEE14node_constructEPNS2_4NodeERKS1_ 0x0001de82   Section       34  qdeclarativegeomappolygonobject.o(t._ZN5QListIN10QtMobility14QGeoCoordinateEE14node_constructEPNS2_4NodeERKS1_)
    t._ZN5QListIN10QtMobility14QGeoCoordinateEE14node_constructEPNS2_4NodeERKS1_.clean 0x0001dea4   Section       14  qdeclarativegeomappolygonobject.o(t._ZN5QListIN10QtMobility14QGeoCoordinateEE14node_constructEPNS2_4NodeERKS1_.clean)
    t._ZN5QListIN10QtMobility14QGeoCoordinateEE18detach_helper_growEii 0x0001deb2   Section      208  qdeclarativegeomappolygonobject.o(t._ZN5QListIN10QtMobility14QGeoCoordinateEE18detach_helper_growEii)
    t._ZN5QListIN10QtMobility14QGeoCoordinateEE18detach_helper_growEii.clean 0x0001df82   Section       16  qdeclarativegeomappolygonobject.o(t._ZN5QListIN10QtMobility14QGeoCoordinateEE18detach_helper_growEii.clean)
    t._ZN5QListIN10QtMobility14QGeoCoordinateEE4freeEPN9QListData4DataE 0x0001df92   Section       58  qdeclarativegeomappolygonobject.o(t._ZN5QListIN10QtMobility14QGeoCoordinateEE4freeEPN9QListData4DataE)
    t._ZN5QListIN10QtMobility14QGeoCoordinateEE6appendERKS1_ 0x0001dfcc   Section      112  qdeclarativegeomappolygonobject.o(t._ZN5QListIN10QtMobility14QGeoCoordinateEE6appendERKS1_)
    t._ZN5QListIN10QtMobility14QGeoCoordinateEE6appendERKS1_.clean 0x0001e03c   Section       14  qdeclarativegeomappolygonobject.o(t._ZN5QListIN10QtMobility14QGeoCoordinateEE6appendERKS1_.clean)
    t._ZN5QListIN10QtMobility14QGeoCoordinateEE9node_copyEPNS2_4NodeES4_S4_ 0x0001e04a   Section       92  qdeclarativegeomappolygonobject.o(t._ZN5QListIN10QtMobility14QGeoCoordinateEE9node_copyEPNS2_4NodeES4_S4_)
    t._ZN5QListIN10QtMobility14QGeoCoordinateEE9node_copyEPNS2_4NodeES4_S4_.clean 0x0001e0a6   Section       22  qdeclarativegeomappolygonobject.o(t._ZN5QListIN10QtMobility14QGeoCoordinateEE9node_copyEPNS2_4NodeES4_S4_.clean)
    t._ZN5QListIN10QtMobility14QGeoCoordinateEED1Ev 0x0001e0bc   Section       32  qdeclarativegeomappolygonobject.o(t._ZN5QListIN10QtMobility14QGeoCoordinateEED1Ev)
    t._ZN5QListIN10QtMobility17QLandmarkCategoryEE13detach_helperEi 0x0001e0dc   Section      176  qdeclarativelandmarkcategorymodel.o(t._ZN5QListIN10QtMobility17QLandmarkCategoryEE13detach_helperEi)
    t._ZN5QListIN10QtMobility17QLandmarkCategoryEE13detach_helperEi.clean 0x0001e18c   Section       30  qdeclarativelandmarkcategorymodel.o(t._ZN5QListIN10QtMobility17QLandmarkCategoryEE13detach_helperEi.clean)
    t._ZN5QListIN10QtMobility17QLandmarkCategoryEE13detach_helperEv 0x0001e1aa   Section       16  qdeclarativelandmarkcategorymodel.o(t._ZN5QListIN10QtMobility17QLandmarkCategoryEE13detach_helperEv)
    t._ZN5QListIN10QtMobility17QLandmarkCategoryEE4freeEPN9QListData4DataE 0x0001e1ba   Section       64  qdeclarativelandmarkcategorymodel.o(t._ZN5QListIN10QtMobility17QLandmarkCategoryEE4freeEPN9QListData4DataE)
    t._ZN5QListIN10QtMobility17QLandmarkCategoryEE5clearEv 0x0001e1fa   Section       28  qdeclarativelandmarkcategorymodel.o(t._ZN5QListIN10QtMobility17QLandmarkCategoryEE5clearEv)
    t._ZN5QListIN10QtMobility17QLandmarkCategoryEE5clearEv.clean 0x0001e216   Section       10  qdeclarativelandmarkcategorymodel.o(t._ZN5QListIN10QtMobility17QLandmarkCategoryEE5clearEv.clean)
    t._ZN5QListIN10QtMobility17QLandmarkCategoryEEC1ERKS2_ 0x0001e220   Section       36  qdeclarativelandmarkcategorymodel.o(t._ZN5QListIN10QtMobility17QLandmarkCategoryEEC1ERKS2_)
    t._ZN5QListIN10QtMobility17QLandmarkCategoryEEC1Ev 0x0001e244   Section       24  qdeclarativelandmarkcategorymodel.o(t._ZN5QListIN10QtMobility17QLandmarkCategoryEEC1Ev)
    t._ZN5QListIN10QtMobility17QLandmarkCategoryEED1Ev 0x0001e25c   Section       32  qdeclarativelandmarkcategorymodel.o(t._ZN5QListIN10QtMobility17QLandmarkCategoryEED1Ev)
    t._ZN5QListIN10QtMobility17QLandmarkCategoryEEaSERKS2_ 0x0001e27c   Section       64  qdeclarativelandmarkcategorymodel.o(t._ZN5QListIN10QtMobility17QLandmarkCategoryEEaSERKS2_)
    t._ZN5QListIN10QtMobility19QLandmarkCategoryIdEE4freeEPN9QListData4DataE 0x0001e2bc   Section       64  qdeclarativelandmarkcategorymodel.o(t._ZN5QListIN10QtMobility19QLandmarkCategoryIdEE4freeEPN9QListData4DataE)
    t._ZN5QListIN10QtMobility19QLandmarkCategoryIdEED1Ev 0x0001e2fc   Section       32  qdeclarativelandmarkcategorymodel.o(t._ZN5QListIN10QtMobility19QLandmarkCategoryIdEED1Ev)
    t._ZN5QListIN10QtMobility9QGeoPlaceEE13detach_helperEi 0x0001e31c   Section      204  qdeclarativegeosearchmodel.o(t._ZN5QListIN10QtMobility9QGeoPlaceEE13detach_helperEi)
    t._ZN5QListIN10QtMobility9QGeoPlaceEE13detach_helperEi.clean 0x0001e3e8   Section       32  qdeclarativegeosearchmodel.o(t._ZN5QListIN10QtMobility9QGeoPlaceEE13detach_helperEi.clean)
    t._ZN5QListIN10QtMobility9QGeoPlaceEE13detach_helperEv 0x0001e408   Section       16  qdeclarativegeosearchmodel.o(t._ZN5QListIN10QtMobility9QGeoPlaceEE13detach_helperEv)
    t._ZN5QListIN10QtMobility9QGeoPlaceEE4freeEPN9QListData4DataE 0x0001e418   Section       80  qdeclarativegeosearchmodel.o(t._ZN5QListIN10QtMobility9QGeoPlaceEE4freeEPN9QListData4DataE)
    t._ZN5QListIN10QtMobility9QGeoPlaceEED1Ev 0x0001e468   Section       32  qdeclarativegeosearchmodel.o(t._ZN5QListIN10QtMobility9QGeoPlaceEED1Ev)
    t._ZN5QListIN10QtMobility9QLandmarkEE13detach_helperEi 0x0001e488   Section      198  qdeclarativelandmarkmodel.o(t._ZN5QListIN10QtMobility9QLandmarkEE13detach_helperEi)
    t._ZN5QListIN10QtMobility9QLandmarkEE13detach_helperEi.clean 0x0001e54e   Section       32  qdeclarativelandmarkmodel.o(t._ZN5QListIN10QtMobility9QLandmarkEE13detach_helperEi.clean)
    t._ZN5QListIN10QtMobility9QLandmarkEE13detach_helperEv 0x0001e56e   Section       16  qdeclarativelandmarkmodel.o(t._ZN5QListIN10QtMobility9QLandmarkEE13detach_helperEv)
    t._ZN5QListIN10QtMobility9QLandmarkEE4freeEPN9QListData4DataE 0x0001e57e   Section       80  qdeclarativelandmarkmodel.o(t._ZN5QListIN10QtMobility9QLandmarkEE4freeEPN9QListData4DataE)
    t._ZN5QListIN10QtMobility9QLandmarkEE5clearEv 0x0001e5ce   Section       28  qdeclarativelandmarkmodel.o(t._ZN5QListIN10QtMobility9QLandmarkEE5clearEv)
    t._ZN5QListIN10QtMobility9QLandmarkEE5clearEv.clean 0x0001e5ea   Section       10  qdeclarativelandmarkmodel.o(t._ZN5QListIN10QtMobility9QLandmarkEE5clearEv.clean)
    t._ZN5QListIN10QtMobility9QLandmarkEEC1ERKS2_ 0x0001e5f4   Section       36  qdeclarativelandmarkmodel.o(t._ZN5QListIN10QtMobility9QLandmarkEEC1ERKS2_)
    t._ZN5QListIN10QtMobility9QLandmarkEEC1Ev 0x0001e618   Section       24  qdeclarativelandmarkmodel.o(t._ZN5QListIN10QtMobility9QLandmarkEEC1Ev)
    t._ZN5QListIN10QtMobility9QLandmarkEED1Ev 0x0001e630   Section       32  qdeclarativelandmarkmodel.o(t._ZN5QListIN10QtMobility9QLandmarkEED1Ev)
    t._ZN5QListIN10QtMobility9QLandmarkEEaSERKS2_ 0x0001e650   Section       64  qdeclarativelandmarkmodel.o(t._ZN5QListIN10QtMobility9QLandmarkEEaSERKS2_)
    t._ZN5QListIPN10QtMobility13QGeoMapObjectEE13detach_helperEi 0x0001e690   Section       94  qdeclarativegraphicsgeomap.o(t._ZN5QListIPN10QtMobility13QGeoMapObjectEE13detach_helperEi)
    t._ZN5QListIPN10QtMobility13QGeoMapObjectEE13detach_helperEi.clean 0x0001e6ee   Section        8  qdeclarativegraphicsgeomap.o(t._ZN5QListIPN10QtMobility13QGeoMapObjectEE13detach_helperEi.clean)
    t._ZN5QListIPN10QtMobility13QGeoMapObjectEE13detach_helperEv 0x0001e6f6   Section       16  qdeclarativegraphicsgeomap.o(t._ZN5QListIPN10QtMobility13QGeoMapObjectEE13detach_helperEv)
    t._ZN5QListIPN10QtMobility13QGeoMapObjectEE18detach_helper_growEii 0x0001e706   Section      204  qdeclarativegraphicsgeomap.o(t._ZN5QListIPN10QtMobility13QGeoMapObjectEE18detach_helper_growEii)
    t._ZN5QListIPN10QtMobility13QGeoMapObjectEE18detach_helper_growEii.clean 0x0001e7d2   Section       16  qdeclarativegraphicsgeomap.o(t._ZN5QListIPN10QtMobility13QGeoMapObjectEE18detach_helper_growEii.clean)
    t._ZN5QListIPN10QtMobility13QGeoMapObjectEE4freeEPN9QListData4DataE 0x0001e7e2   Section       58  qdeclarativegeomapobject.o(t._ZN5QListIPN10QtMobility13QGeoMapObjectEE4freeEPN9QListData4DataE)
    t._ZN5QListIPN10QtMobility13QGeoMapObjectEE5clearEv 0x0001e81c   Section       76  qdeclarativegraphicsgeomap.o(t._ZN5QListIPN10QtMobility13QGeoMapObjectEE5clearEv)
    t._ZN5QListIPN10QtMobility13QGeoMapObjectEE5clearEv.clean 0x0001e868   Section       10  qdeclarativegraphicsgeomap.o(t._ZN5QListIPN10QtMobility13QGeoMapObjectEE5clearEv.clean)
    t._ZN5QListIPN10QtMobility13QGeoMapObjectEE6appendERKS2_ 0x0001e874   Section      104  qdeclarativegraphicsgeomap.o(t._ZN5QListIPN10QtMobility13QGeoMapObjectEE6appendERKS2_)
    t._ZN5QListIPN10QtMobility13QGeoMapObjectEE6appendERKS2_.clean 0x0001e8dc   Section       10  qdeclarativegraphicsgeomap.o(t._ZN5QListIPN10QtMobility13QGeoMapObjectEE6appendERKS2_.clean)
    t._ZN5QListIPN10QtMobility13QGeoMapObjectEE9node_copyEPNS3_4NodeES5_S5_ 0x0001e8e6   Section       46  qdeclarativegraphicsgeomap.o(t._ZN5QListIPN10QtMobility13QGeoMapObjectEE9node_copyEPNS3_4NodeES5_S5_)
    t._ZN5QListIPN10QtMobility13QGeoMapObjectEEC1Ev 0x0001e914   Section       24  qdeclarativegraphicsgeomap.o(t._ZN5QListIPN10QtMobility13QGeoMapObjectEEC1Ev)
    t._ZN5QListIPN10QtMobility13QGeoMapObjectEED1Ev 0x0001e92c   Section       32  qdeclarativegraphicsgeomap.o(t._ZN5QListIPN10QtMobility13QGeoMapObjectEED1Ev)
    t._ZN5QListIPN10QtMobility20QDeclarativeLandmarkEE13detach_helperEi 0x0001e94c   Section       94  qdeclarativelandmarkmodel.o(t._ZN5QListIPN10QtMobility20QDeclarativeLandmarkEE13detach_helperEi)
    t._ZN5QListIPN10QtMobility20QDeclarativeLandmarkEE13detach_helperEi.clean 0x0001e9aa   Section        8  qdeclarativelandmarkmodel.o(t._ZN5QListIPN10QtMobility20QDeclarativeLandmarkEE13detach_helperEi.clean)
    t._ZN5QListIPN10QtMobility20QDeclarativeLandmarkEE18detach_helper_growEii 0x0001e9b2   Section      204  qdeclarativelandmarkmodel.o(t._ZN5QListIPN10QtMobility20QDeclarativeLandmarkEE18detach_helper_growEii)
    t._ZN5QListIPN10QtMobility20QDeclarativeLandmarkEE18detach_helper_growEii.clean 0x0001ea7e   Section       16  qdeclarativelandmarkmodel.o(t._ZN5QListIPN10QtMobility20QDeclarativeLandmarkEE18detach_helper_growEii.clean)
    t._ZN5QListIPN10QtMobility20QDeclarativeLandmarkEE4freeEPN9QListData4DataE 0x0001ea8e   Section       58  qdeclarativelandmarkmodel.o(t._ZN5QListIPN10QtMobility20QDeclarativeLandmarkEE4freeEPN9QListData4DataE)
    t._ZN5QListIPN10QtMobility20QDeclarativeLandmarkEE6appendERKS2_ 0x0001eac8   Section      100  qdeclarativelandmarkmodel.o(t._ZN5QListIPN10QtMobility20QDeclarativeLandmarkEE6appendERKS2_)
    t._ZN5QListIPN10QtMobility20QDeclarativeLandmarkEE6appendERKS2_.clean 0x0001eb2c   Section       10  qdeclarativelandmarkmodel.o(t._ZN5QListIPN10QtMobility20QDeclarativeLandmarkEE6appendERKS2_.clean)
    t._ZN5QListIPN10QtMobility20QDeclarativeLandmarkEE7reserveEi 0x0001eb36   Section       46  qdeclarativelandmarkmodel.o(t._ZN5QListIPN10QtMobility20QDeclarativeLandmarkEE7reserveEi)
    t._ZN5QListIPN10QtMobility20QDeclarativeLandmarkEE9node_copyEPNS3_4NodeES5_S5_ 0x0001eb64   Section       46  qdeclarativelandmarkmodel.o(t._ZN5QListIPN10QtMobility20QDeclarativeLandmarkEE9node_copyEPNS3_4NodeES5_S5_)
    t._ZN5QListIPN10QtMobility20QDeclarativeLandmarkEED1Ev 0x0001eb92   Section       32  qdeclarativelandmarkmodel.o(t._ZN5QListIPN10QtMobility20QDeclarativeLandmarkEED1Ev)
    t._ZN5QListIPN10QtMobility22QDeclarativeCoordinateEE13detach_helperEi 0x0001ebb2   Section       94  qdeclarativegeomappolygonobject.o(t._ZN5QListIPN10QtMobility22QDeclarativeCoordinateEE13detach_helperEi)
    t._ZN5QListIPN10QtMobility22QDeclarativeCoordinateEE13detach_helperEi.clean 0x0001ec10   Section        8  qdeclarativegeomappolygonobject.o(t._ZN5QListIPN10QtMobility22QDeclarativeCoordinateEE13detach_helperEi.clean)
    t._ZN5QListIPN10QtMobility22QDeclarativeCoordinateEE13detach_helperEv 0x0001ec18   Section       16  qdeclarativegeomappolygonobject.o(t._ZN5QListIPN10QtMobility22QDeclarativeCoordinateEE13detach_helperEv)
    t._ZN5QListIPN10QtMobility22QDeclarativeCoordinateEE18detach_helper_growEii 0x0001ec28   Section      204  qdeclarativegeomappolygonobject.o(t._ZN5QListIPN10QtMobility22QDeclarativeCoordinateEE18detach_helper_growEii)
    t._ZN5QListIPN10QtMobility22QDeclarativeCoordinateEE18detach_helper_growEii.clean 0x0001ecf4   Section       16  qdeclarativegeomappolygonobject.o(t._ZN5QListIPN10QtMobility22QDeclarativeCoordinateEE18detach_helper_growEii.clean)
    t._ZN5QListIPN10QtMobility22QDeclarativeCoordinateEE4freeEPN9QListData4DataE 0x0001ed04   Section       58  qdeclarativegeomappolygonobject.o(t._ZN5QListIPN10QtMobility22QDeclarativeCoordinateEE4freeEPN9QListData4DataE)
    t._ZN5QListIPN10QtMobility22QDeclarativeCoordinateEE5clearEv 0x0001ed3e   Section       76  qdeclarativegeomappolygonobject.o(t._ZN5QListIPN10QtMobility22QDeclarativeCoordinateEE5clearEv)
    t._ZN5QListIPN10QtMobility22QDeclarativeCoordinateEE5clearEv.clean 0x0001ed8a   Section       10  qdeclarativegeomappolygonobject.o(t._ZN5QListIPN10QtMobility22QDeclarativeCoordinateEE5clearEv.clean)
    t._ZN5QListIPN10QtMobility22QDeclarativeCoordinateEE6appendERKS2_ 0x0001ed94   Section      100  qdeclarativegeomappolygonobject.o(t._ZN5QListIPN10QtMobility22QDeclarativeCoordinateEE6appendERKS2_)
    t._ZN5QListIPN10QtMobility22QDeclarativeCoordinateEE6appendERKS2_.clean 0x0001edf8   Section       10  qdeclarativegeomappolygonobject.o(t._ZN5QListIPN10QtMobility22QDeclarativeCoordinateEE6appendERKS2_.clean)
    t._ZN5QListIPN10QtMobility22QDeclarativeCoordinateEE9node_copyEPNS3_4NodeES5_S5_ 0x0001ee02   Section       46  qdeclarativegeomappolygonobject.o(t._ZN5QListIPN10QtMobility22QDeclarativeCoordinateEE9node_copyEPNS3_4NodeES5_S5_)
    t._ZN5QListIPN10QtMobility22QDeclarativeCoordinateEEC1Ev 0x0001ee30   Section       24  qdeclarativegeomappolygonobject.o(t._ZN5QListIPN10QtMobility22QDeclarativeCoordinateEEC1Ev)
    t._ZN5QListIPN10QtMobility22QDeclarativeCoordinateEED1Ev 0x0001ee48   Section       32  qdeclarativegeomappolygonobject.o(t._ZN5QListIPN10QtMobility22QDeclarativeCoordinateEED1Ev)
    t._ZN5QListIPN10QtMobility28QDeclarativeLandmarkCategoryEE13detach_helperEi 0x0001ee68   Section       94  qdeclarativelandmarkcategorymodel.o(t._ZN5QListIPN10QtMobility28QDeclarativeLandmarkCategoryEE13detach_helperEi)
    t._ZN5QListIPN10QtMobility28QDeclarativeLandmarkCategoryEE13detach_helperEi.clean 0x0001eec6   Section        8  qdeclarativelandmarkcategorymodel.o(t._ZN5QListIPN10QtMobility28QDeclarativeLandmarkCategoryEE13detach_helperEi.clean)
    t._ZN5QListIPN10QtMobility28QDeclarativeLandmarkCategoryEE18detach_helper_growEii 0x0001eece   Section      204  qdeclarativelandmarkcategorymodel.o(t._ZN5QListIPN10QtMobility28QDeclarativeLandmarkCategoryEE18detach_helper_growEii)
    t._ZN5QListIPN10QtMobility28QDeclarativeLandmarkCategoryEE18detach_helper_growEii.clean 0x0001ef9a   Section       16  qdeclarativelandmarkcategorymodel.o(t._ZN5QListIPN10QtMobility28QDeclarativeLandmarkCategoryEE18detach_helper_growEii.clean)
    t._ZN5QListIPN10QtMobility28QDeclarativeLandmarkCategoryEE4freeEPN9QListData4DataE 0x0001efaa   Section       52  qdeclarativelandmarkcategorymodel.o(t._ZN5QListIPN10QtMobility28QDeclarativeLandmarkCategoryEE4freeEPN9QListData4DataE)
    t._ZN5QListIPN10QtMobility28QDeclarativeLandmarkCategoryEE6appendERKS2_ 0x0001efe0   Section      100  qdeclarativelandmarkcategorymodel.o(t._ZN5QListIPN10QtMobility28QDeclarativeLandmarkCategoryEE6appendERKS2_)
    t._ZN5QListIPN10QtMobility28QDeclarativeLandmarkCategoryEE6appendERKS2_.clean 0x0001f044   Section       10  qdeclarativelandmarkcategorymodel.o(t._ZN5QListIPN10QtMobility28QDeclarativeLandmarkCategoryEE6appendERKS2_.clean)
    t._ZN5QListIPN10QtMobility28QDeclarativeLandmarkCategoryEE7reserveEi 0x0001f04e   Section       46  qdeclarativelandmarkcategorymodel.o(t._ZN5QListIPN10QtMobility28QDeclarativeLandmarkCategoryEE7reserveEi)
    t._ZN5QListIPN10QtMobility28QDeclarativeLandmarkCategoryEE9node_copyEPNS3_4NodeES5_S5_ 0x0001f07c   Section       46  qdeclarativelandmarkcategorymodel.o(t._ZN5QListIPN10QtMobility28QDeclarativeLandmarkCategoryEE9node_copyEPNS3_4NodeES5_S5_)
    t._ZN5QListIPN10QtMobility28QDeclarativeLandmarkCategoryEED1Ev 0x0001f0aa   Section       32  qdeclarativelandmarkcategorymodel.o(t._ZN5QListIPN10QtMobility28QDeclarativeLandmarkCategoryEED1Ev)
    t._ZN5QListIPN10QtMobility30QDeclarativeLandmarkFilterBaseEE13detach_helperEi 0x0001f0ca   Section       94  qdeclarativelandmarkfilters.o(t._ZN5QListIPN10QtMobility30QDeclarativeLandmarkFilterBaseEE13detach_helperEi)
    t._ZN5QListIPN10QtMobility30QDeclarativeLandmarkFilterBaseEE13detach_helperEi.clean 0x0001f128   Section        8  qdeclarativelandmarkfilters.o(t._ZN5QListIPN10QtMobility30QDeclarativeLandmarkFilterBaseEE13detach_helperEi.clean)
    t._ZN5QListIPN10QtMobility30QDeclarativeLandmarkFilterBaseEE13detach_helperEv 0x0001f130   Section       16  qdeclarativelandmarkfilters.o(t._ZN5QListIPN10QtMobility30QDeclarativeLandmarkFilterBaseEE13detach_helperEv)
    t._ZN5QListIPN10QtMobility30QDeclarativeLandmarkFilterBaseEE18detach_helper_growEii 0x0001f140   Section      204  qdeclarativelandmarkfilters.o(t._ZN5QListIPN10QtMobility30QDeclarativeLandmarkFilterBaseEE18detach_helper_growEii)
    t._ZN5QListIPN10QtMobility30QDeclarativeLandmarkFilterBaseEE18detach_helper_growEii.clean 0x0001f20c   Section       16  qdeclarativelandmarkfilters.o(t._ZN5QListIPN10QtMobility30QDeclarativeLandmarkFilterBaseEE18detach_helper_growEii.clean)
    t._ZN5QListIPN10QtMobility30QDeclarativeLandmarkFilterBaseEE4freeEPN9QListData4DataE 0x0001f21c   Section       58  location.o(t._ZN5QListIPN10QtMobility30QDeclarativeLandmarkFilterBaseEE4freeEPN9QListData4DataE)
    t._ZN5QListIPN10QtMobility30QDeclarativeLandmarkFilterBaseEE5clearEv 0x0001f256   Section       76  qdeclarativelandmarkfilters.o(t._ZN5QListIPN10QtMobility30QDeclarativeLandmarkFilterBaseEE5clearEv)
    t._ZN5QListIPN10QtMobility30QDeclarativeLandmarkFilterBaseEE5clearEv.clean 0x0001f2a2   Section       10  qdeclarativelandmarkfilters.o(t._ZN5QListIPN10QtMobility30QDeclarativeLandmarkFilterBaseEE5clearEv.clean)
    t._ZN5QListIPN10QtMobility30QDeclarativeLandmarkFilterBaseEE6appendERKS2_ 0x0001f2ac   Section      104  qdeclarativelandmarkfilters.o(t._ZN5QListIPN10QtMobility30QDeclarativeLandmarkFilterBaseEE6appendERKS2_)
    t._ZN5QListIPN10QtMobility30QDeclarativeLandmarkFilterBaseEE6appendERKS2_.clean 0x0001f314   Section       10  qdeclarativelandmarkfilters.o(t._ZN5QListIPN10QtMobility30QDeclarativeLandmarkFilterBaseEE6appendERKS2_.clean)
    t._ZN5QListIPN10QtMobility30QDeclarativeLandmarkFilterBaseEE9node_copyEPNS3_4NodeES5_S5_ 0x0001f31e   Section       46  qdeclarativelandmarkfilters.o(t._ZN5QListIPN10QtMobility30QDeclarativeLandmarkFilterBaseEE9node_copyEPNS3_4NodeES5_S5_)
    t._ZN5QListIPN10QtMobility30QDeclarativeLandmarkFilterBaseEEC1Ev 0x0001f34c   Section       24  qdeclarativelandmarkfilters.o(t._ZN5QListIPN10QtMobility30QDeclarativeLandmarkFilterBaseEEC1Ev)
    t._ZN5QListIPN10QtMobility30QDeclarativeLandmarkFilterBaseEED1Ev 0x0001f364   Section       32  location.o(t._ZN5QListIPN10QtMobility30QDeclarativeLandmarkFilterBaseEED1Ev)
    t._ZN5QListIPN10QtMobility39QDeclarativeGeoServiceProviderParameterEE13detach_helperEi 0x0001f384   Section       94  qdeclarativegeoserviceprovider.o(t._ZN5QListIPN10QtMobility39QDeclarativeGeoServiceProviderParameterEE13detach_helperEi)
    t._ZN5QListIPN10QtMobility39QDeclarativeGeoServiceProviderParameterEE13detach_helperEi.clean 0x0001f3e2   Section        8  qdeclarativegeoserviceprovider.o(t._ZN5QListIPN10QtMobility39QDeclarativeGeoServiceProviderParameterEE13detach_helperEi.clean)
    t._ZN5QListIPN10QtMobility39QDeclarativeGeoServiceProviderParameterEE13detach_helperEv 0x0001f3ea   Section       16  qdeclarativegeoserviceprovider.o(t._ZN5QListIPN10QtMobility39QDeclarativeGeoServiceProviderParameterEE13detach_helperEv)
    t._ZN5QListIPN10QtMobility39QDeclarativeGeoServiceProviderParameterEE18detach_helper_growEii 0x0001f3fa   Section      204  qdeclarativegeoserviceprovider.o(t._ZN5QListIPN10QtMobility39QDeclarativeGeoServiceProviderParameterEE18detach_helper_growEii)
    t._ZN5QListIPN10QtMobility39QDeclarativeGeoServiceProviderParameterEE18detach_helper_growEii.clean 0x0001f4c6   Section       16  qdeclarativegeoserviceprovider.o(t._ZN5QListIPN10QtMobility39QDeclarativeGeoServiceProviderParameterEE18detach_helper_growEii.clean)
    t._ZN5QListIPN10QtMobility39QDeclarativeGeoServiceProviderParameterEE4freeEPN9QListData4DataE 0x0001f4d6   Section       58  qdeclarativegeoserviceprovider.o(t._ZN5QListIPN10QtMobility39QDeclarativeGeoServiceProviderParameterEE4freeEPN9QListData4DataE)
    t._ZN5QListIPN10QtMobility39QDeclarativeGeoServiceProviderParameterEE5clearEv 0x0001f510   Section       76  qdeclarativegeoserviceprovider.o(t._ZN5QListIPN10QtMobility39QDeclarativeGeoServiceProviderParameterEE5clearEv)
    t._ZN5QListIPN10QtMobility39QDeclarativeGeoServiceProviderParameterEE5clearEv.clean 0x0001f55c   Section       10  qdeclarativegeoserviceprovider.o(t._ZN5QListIPN10QtMobility39QDeclarativeGeoServiceProviderParameterEE5clearEv.clean)
    t._ZN5QListIPN10QtMobility39QDeclarativeGeoServiceProviderParameterEE6appendERKS2_ 0x0001f568   Section      100  qdeclarativegeoserviceprovider.o(t._ZN5QListIPN10QtMobility39QDeclarativeGeoServiceProviderParameterEE6appendERKS2_)
    t._ZN5QListIPN10QtMobility39QDeclarativeGeoServiceProviderParameterEE6appendERKS2_.clean 0x0001f5cc   Section       10  qdeclarativegeoserviceprovider.o(t._ZN5QListIPN10QtMobility39QDeclarativeGeoServiceProviderParameterEE6appendERKS2_.clean)
    t._ZN5QListIPN10QtMobility39QDeclarativeGeoServiceProviderParameterEE9node_copyEPNS3_4NodeES5_S5_ 0x0001f5d6   Section       46  qdeclarativegeoserviceprovider.o(t._ZN5QListIPN10QtMobility39QDeclarativeGeoServiceProviderParameterEE9node_copyEPNS3_4NodeES5_S5_)
    t._ZN5QListIPN10QtMobility39QDeclarativeGeoServiceProviderParameterEEC1Ev 0x0001f604   Section       24  qdeclarativegeoserviceprovider.o(t._ZN5QListIPN10QtMobility39QDeclarativeGeoServiceProviderParameterEEC1Ev)
    t._ZN5QListIPN10QtMobility39QDeclarativeGeoServiceProviderParameterEED1Ev 0x0001f61c   Section       32  qdeclarativegeoserviceprovider.o(t._ZN5QListIPN10QtMobility39QDeclarativeGeoServiceProviderParameterEED1Ev)
    t._ZN8QPointerI7QObjectED1Ev             0x0001f63c   Section       14  location.o(t._ZN8QPointerI7QObjectED1Ev)
    t._ZN9QHashNodeIi10QByteArrayEC1EiRKS0_  0x0001f64a   Section       30  qdeclarativelandmarkmodel.o(t._ZN9QHashNodeIi10QByteArrayEC1EiRKS0_)
    t._ZNK4QMapI7QString8QVariantE15mutableFindNodeEPPN8QMapData4NodeERKS0_ 0x0001f668   Section      116  qdeclarativegeoserviceprovider.o(t._ZNK4QMapI7QString8QVariantE15mutableFindNodeEPPN8QMapData4NodeERKS0_)
    t._ZNK4QMapI7QStringPN10QtMobility20QDeclarativeLandmarkEE14const_iteratorneERKS5_ 0x0001f6dc   Section       18  qdeclarativelandmarkmodel.o(t._ZNK4QMapI7QStringPN10QtMobility20QDeclarativeLandmarkEE14const_iteratorneERKS5_)
    t._ZNK4QMapI7QStringPN10QtMobility20QDeclarativeLandmarkEE15mutableFindNodeEPPN8QMapData4NodeERKS0_ 0x0001f6ee   Section      108  qdeclarativelandmarkmodel.o(t._ZNK4QMapI7QStringPN10QtMobility20QDeclarativeLandmarkEE15mutableFindNodeEPPN8QMapData4NodeERKS0_)
    t._ZNK4QMapI7QStringPN10QtMobility20QDeclarativeLandmarkEE4keysEv 0x0001f75c   Section      108  qdeclarativelandmarkmodel.o(t._ZNK4QMapI7QStringPN10QtMobility20QDeclarativeLandmarkEE4keysEv)
    t._ZNK4QMapI7QStringPN10QtMobility20QDeclarativeLandmarkEE4keysEv.clean 0x0001f7c8   Section       10  qdeclarativelandmarkmodel.o(t._ZNK4QMapI7QStringPN10QtMobility20QDeclarativeLandmarkEE4keysEv.clean)
    t._ZNK4QMapI7QStringPN10QtMobility20QDeclarativeLandmarkEE5valueERKS0_ 0x0001f7d2   Section       46  qdeclarativelandmarkmodel.o(t._ZNK4QMapI7QStringPN10QtMobility20QDeclarativeLandmarkEE5valueERKS0_)
    t._ZNK4QMapI7QStringPN10QtMobility20QDeclarativeLandmarkEE6valuesEv 0x0001f800   Section      108  qdeclarativelandmarkmodel.o(t._ZNK4QMapI7QStringPN10QtMobility20QDeclarativeLandmarkEE6valuesEv)
    t._ZNK4QMapI7QStringPN10QtMobility20QDeclarativeLandmarkEE6valuesEv.clean 0x0001f86c   Section       10  qdeclarativelandmarkmodel.o(t._ZNK4QMapI7QStringPN10QtMobility20QDeclarativeLandmarkEE6valuesEv.clean)
    t._ZNK4QMapI7QStringPN10QtMobility20QDeclarativeLandmarkEE8findNodeERKS0_ 0x0001f876   Section      104  qdeclarativelandmarkmodel.o(t._ZNK4QMapI7QStringPN10QtMobility20QDeclarativeLandmarkEE8findNodeERKS0_)
    t._ZNK4QMapI7QStringPN10QtMobility28QDeclarativeLandmarkCategoryEE14const_iteratorneERKS5_ 0x0001f8de   Section       18  qdeclarativelandmarkcategorymodel.o(t._ZNK4QMapI7QStringPN10QtMobility28QDeclarativeLandmarkCategoryEE14const_iteratorneERKS5_)
    t._ZNK4QMapI7QStringPN10QtMobility28QDeclarativeLandmarkCategoryEE15mutableFindNodeEPPN8QMapData4NodeERKS0_ 0x0001f8f0   Section      108  qdeclarativelandmarkcategorymodel.o(t._ZNK4QMapI7QStringPN10QtMobility28QDeclarativeLandmarkCategoryEE15mutableFindNodeEPPN8QMapData4NodeERKS0_)
    t._ZNK4QMapI7QStringPN10QtMobility28QDeclarativeLandmarkCategoryEE4keysEv 0x0001f95c   Section      108  qdeclarativelandmarkcategorymodel.o(t._ZNK4QMapI7QStringPN10QtMobility28QDeclarativeLandmarkCategoryEE4keysEv)
    t._ZNK4QMapI7QStringPN10QtMobility28QDeclarativeLandmarkCategoryEE4keysEv.clean 0x0001f9c8   Section       10  qdeclarativelandmarkcategorymodel.o(t._ZNK4QMapI7QStringPN10QtMobility28QDeclarativeLandmarkCategoryEE4keysEv.clean)
    t._ZNK4QMapI7QStringPN10QtMobility28QDeclarativeLandmarkCategoryEE5valueERKS0_ 0x0001f9d2   Section       46  qdeclarativelandmarkcategorymodel.o(t._ZNK4QMapI7QStringPN10QtMobility28QDeclarativeLandmarkCategoryEE5valueERKS0_)
    t._ZNK4QMapI7QStringPN10QtMobility28QDeclarativeLandmarkCategoryEE6valuesEv 0x0001fa00   Section      108  qdeclarativelandmarkcategorymodel.o(t._ZNK4QMapI7QStringPN10QtMobility28QDeclarativeLandmarkCategoryEE6valuesEv)
    t._ZNK4QMapI7QStringPN10QtMobility28QDeclarativeLandmarkCategoryEE6valuesEv.clean 0x0001fa6c   Section       10  qdeclarativelandmarkcategorymodel.o(t._ZNK4QMapI7QStringPN10QtMobility28QDeclarativeLandmarkCategoryEE6valuesEv.clean)
    t._ZNK4QMapI7QStringPN10QtMobility28QDeclarativeLandmarkCategoryEE8findNodeERKS0_ 0x0001fa76   Section      104  qdeclarativelandmarkcategorymodel.o(t._ZNK4QMapI7QStringPN10QtMobility28QDeclarativeLandmarkCategoryEE8findNodeERKS0_)
    t._ZNK4QMapI7QStringS0_E15mutableFindNodeEPPN8QMapData4NodeERKS0_ 0x0001fade   Section      108  qdeclarativelandmarkmodel.o(t._ZNK4QMapI7QStringS0_E15mutableFindNodeEPPN8QMapData4NodeERKS0_)
    t._ZNK5QHashIi10QByteArrayE8findNodeERKiPj 0x0001fb4a   Section       94  qdeclarativelandmarkmodel.o(t._ZNK5QHashIi10QByteArrayE8findNodeERKiPj)
    t._ZNK5QListI7QStringE7indexOfERKS0_i    0x0001fba8   Section      120  qdeclarativelandmarkmodel.o(t._ZNK5QListI7QStringE7indexOfERKS0_i)
    t._ZNK5QListIN10QtMobility17QLandmarkCategoryEE5countEv 0x0001fc20   Section       12  qdeclarativelandmarkcategorymodel.o(t._ZNK5QListIN10QtMobility17QLandmarkCategoryEE5countEv)
    t._ZNK5QListIN10QtMobility17QLandmarkCategoryEE5valueEi 0x0001fc2c   Section       58  qdeclarativelandmarkcategorymodel.o(t._ZNK5QListIN10QtMobility17QLandmarkCategoryEE5valueEi)
    t._ZNK5QListIN10QtMobility9QGeoPlaceEE5countEv 0x0001fc66   Section       16  qdeclarativegeosearchmodel.o(t._ZNK5QListIN10QtMobility9QGeoPlaceEE5countEv)
    t._ZNK5QListIN10QtMobility9QLandmarkEE5countEv 0x0001fc76   Section       12  qdeclarativelandmarkmodel.o(t._ZNK5QListIN10QtMobility9QLandmarkEE5countEv)
    t._ZNK5QListIN10QtMobility9QLandmarkEE5valueEi 0x0001fc82   Section       58  qdeclarativelandmarkmodel.o(t._ZNK5QListIN10QtMobility9QLandmarkEE5valueEi)
    t._ZNK5QListIPN10QtMobility13QGeoMapObjectEE2atEi 0x0001fcbc   Section       30  qdeclarativegraphicsgeomap.o(t._ZNK5QListIPN10QtMobility13QGeoMapObjectEE2atEi)
    t._ZNK5QListIPN10QtMobility13QGeoMapObjectEE4sizeEv 0x0001fcda   Section       16  qdeclarativegraphicsgeomap.o(t._ZNK5QListIPN10QtMobility13QGeoMapObjectEE4sizeEv)
    t._ZNK5QListIPN10QtMobility30QDeclarativeLandmarkFilterBaseEE2atEi 0x0001fcea   Section       30  qdeclarativelandmarkfilters.o(t._ZNK5QListIPN10QtMobility30QDeclarativeLandmarkFilterBaseEE2atEi)
    t._ZNK5QListIPN10QtMobility30QDeclarativeLandmarkFilterBaseEE5countEv 0x0001fd08   Section       16  qdeclarativelandmarkfilters.o(t._ZNK5QListIPN10QtMobility30QDeclarativeLandmarkFilterBaseEE5countEv)
    t._ZNK5QListIPN10QtMobility30QDeclarativeLandmarkFilterBaseEE7isEmptyEv 0x0001fd18   Section       24  qdeclarativelandmarkfilters.o(t._ZNK5QListIPN10QtMobility30QDeclarativeLandmarkFilterBaseEE7isEmptyEv)
    .extab._ZN10QtMobility20QDeclarativePosition11qt_metacallEN11QMetaObject4CallEiPPv 0x0001fd30   Data           0  qdeclarativeposition.o(.ARM.extab)
    .extab._ZN10QtMobility20QDeclarativePositionC1EP7QObject 0x0001fd40   Data           0  qdeclarativeposition.o(.ARM.extab)
    .extab._ZN10QtMobility20QDeclarativePositionD1Ev 0x0001fd58   Data           0  qdeclarativeposition.o(.ARM.extab)
    .extab.qt_plugin_instance                0x0001fd70   Data           0  location.o(.ARM.extab)
    .extab._ZplRK10QByteArrayPKc             0x0001fd88   Data           0  location.o(.ARM.extab)
    .extab._ZplRK10QByteArrayc               0x0001fd98   Data           0  location.o(.ARM.extab)
    .extab._ZplPKcRK10QByteArray             0x0001fda8   Data           0  location.o(.ARM.extab)
    .extab._Z15qmlRegisterTypeIN10QtMobility20QDeclarativePositionEEiPKciiS3_ 0x0001fdb8   Data           0  location.o(.ARM.extab)
    .extab._Z15qmlRegisterTypeIN10QtMobility26QDeclarativePositionSourceEEiPKciiS3_ 0x0001fe28   Data           0  location.o(.ARM.extab)
    .extab._Z15qmlRegisterTypeIN10QtMobility20QDeclarativeLandmarkEEiPKciiS3_ 0x0001fe98   Data           0  location.o(.ARM.extab)
    .extab._Z15qmlRegisterTypeIN10QtMobility25QDeclarativeLandmarkModelEEiPKciiS3_ 0x0001ff08   Data           0  location.o(.ARM.extab)
    .extab._Z15qmlRegisterTypeIN10QtMobility30QDeclarativeLandmarkNameFilterEEiPKciiS3_ 0x0001ff78   Data           0  location.o(.ARM.extab)
    .extab._Z15qmlRegisterTypeIN10QtMobility34QDeclarativeLandmarkCategoryFilterEEiPKciiS3_ 0x0001ffe8   Data           0  location.o(.ARM.extab)
    .extab._Z15qmlRegisterTypeIN10QtMobility29QDeclarativeLandmarkBoxFilterEEiPKciiS3_ 0x00020058   Data           0  location.o(.ARM.extab)
    .extab._Z15qmlRegisterTypeIN10QtMobility35QDeclarativeLandmarkProximityFilterEEiPKciiS3_ 0x000200c8   Data           0  location.o(.ARM.extab)
    .extab._Z15qmlRegisterTypeIN10QtMobility31QDeclarativeLandmarkUnionFilterEEiPKciiS3_ 0x00020138   Data           0  location.o(.ARM.extab)
    .extab._Z15qmlRegisterTypeIN10QtMobility38QDeclarativeLandmarkIntersectionFilterEEiPKciiS3_ 0x000201a8   Data           0  location.o(.ARM.extab)
    .extab._Z15qmlRegisterTypeIN10QtMobility28QDeclarativeLandmarkCategoryEEiPKciiS3_ 0x00020218   Data           0  location.o(.ARM.extab)
    .extab._Z15qmlRegisterTypeIN10QtMobility33QDeclarativeLandmarkCategoryModelEEiPKciiS3_ 0x00020288   Data           0  location.o(.ARM.extab)
    .extab._Z26qmlRegisterUncreatableTypeIN10QtMobility30QDeclarativeLandmarkFilterBaseEEiPKciiS3_RK7QString 0x000202f8   Data           0  location.o(.ARM.extab)
    .extab._Z26qmlRegisterUncreatableTypeIN10QtMobility33QDeclarativeLandmarkAbstractModelEEiPKciiS3_RK7QString 0x00020368   Data           0  location.o(.ARM.extab)
    .extab._Z15qmlRegisterTypeIN10QtMobility22QDeclarativeCoordinateEEiPKciiS3_ 0x000203d8   Data           0  location.o(.ARM.extab)
    .extab._Z15qmlRegisterTypeIN10QtMobility26QDeclarativeGeoBoundingBoxEEiPKciiS3_ 0x00020448   Data           0  location.o(.ARM.extab)
    .extab._Z15qmlRegisterTypeIN10QtMobility20QDeclarativeGeoPlaceEEiPKciiS3_ 0x000204b8   Data           0  location.o(.ARM.extab)
    .extab._Z15qmlRegisterTypeIN10QtMobility22QDeclarativeGeoAddressEEiPKciiS3_ 0x00020528   Data           0  location.o(.ARM.extab)
    .extab._Z15qmlRegisterTypeIN10QtMobility30QDeclarativeGeoServiceProviderEEiPKciiS3_ 0x00020598   Data           0  location.o(.ARM.extab)
    .extab._Z15qmlRegisterTypeIN10QtMobility39QDeclarativeGeoServiceProviderParameterEEiPKciiS3_ 0x00020608   Data           0  location.o(.ARM.extab)
    .extab._Z15qmlRegisterTypeIN10QtMobility26QDeclarativeGraphicsGeoMapEEiPKciiS3_ 0x00020678   Data           0  location.o(.ARM.extab)
    .extab._Z15qmlRegisterTypeIN10QtMobility30QDeclarativeGeoMapObjectBorderEEiv 0x000206e8   Data           0  location.o(.ARM.extab)
    .extab._Z15qmlRegisterTypeIN10QtMobility13QGeoMapObjectEEiPKciiS3_ 0x00020758   Data           0  location.o(.ARM.extab)
    .extab._Z15qmlRegisterTypeIN10QtMobility24QDeclarativeGeoMapObjectEEiPKciiS3_ 0x000207c8   Data           0  location.o(.ARM.extab)
    .extab._Z15qmlRegisterTypeIN10QtMobility30QDeclarativeGeoMapCircleObjectEEiPKciiS3_ 0x00020838   Data           0  location.o(.ARM.extab)
    .extab._Z15qmlRegisterTypeIN10QtMobility31QDeclarativeGeoMapPolygonObjectEEiPKciiS3_ 0x000208a8   Data           0  location.o(.ARM.extab)
    .extab._Z15qmlRegisterTypeIN10QtMobility32QDeclarativeGeoMapPolylineObjectEEiPKciiS3_ 0x00020918   Data           0  location.o(.ARM.extab)
    .extab._Z15qmlRegisterTypeIN10QtMobility33QDeclarativeGeoMapRectangleObjectEEiPKciiS3_ 0x00020988   Data           0  location.o(.ARM.extab)
    .extab._Z15qmlRegisterTypeIN10QtMobility28QDeclarativeGeoMapTextObjectEEiPKciiS3_ 0x000209f8   Data           0  location.o(.ARM.extab)
    .extab._Z15qmlRegisterTypeIN10QtMobility30QDeclarativeGeoMapPixmapObjectEEiPKciiS3_ 0x00020a68   Data           0  location.o(.ARM.extab)
    .extab._Z15qmlRegisterTypeIN10QtMobility24QDeclarativeGeocodeModelEEiPKciiS3_ 0x00020ad8   Data           0  location.o(.ARM.extab)
    .extab._Z15qmlRegisterTypeIN10QtMobility31QDeclarativeReverseGeocodeModelEEiPKciiS3_ 0x00020b48   Data           0  location.o(.ARM.extab)
    .extab._ZN26QLocationDeclarativeModule13registerTypesEPKc 0x00020bb8   Data           0  location.o(.ARM.extab)
    .extab._ZN10QtMobility26QDeclarativeGeoBoundingBoxD1Ev 0x00020bd0   Data           0  location.o(.ARM.extab)
    .extab._ZN10QtMobility20QDeclarativeLandmarkD1Ev 0x00020c08   Data           0  location.o(.ARM.extab)
    .extab._ZN19QDeclarativePrivate19QDeclarativeElementIN10QtMobility25QDeclarativeLandmarkModelEED1Ev 0x00020c20   Data           0  location.o(.ARM.extab)
    .extab._ZN19QDeclarativePrivate19QDeclarativeElementIN10QtMobility33QDeclarativeLandmarkCategoryModelEED1Ev 0x00020c30   Data           0  location.o(.ARM.extab)
    .extab._ZN19QDeclarativePrivate19QDeclarativeElementIN10QtMobility26QDeclarativeGraphicsGeoMapEED1Ev 0x00020c40   Data           0  location.o(.ARM.extab)
    .extab._ZN19QDeclarativePrivate19QDeclarativeElementIN10QtMobility24QDeclarativeGeocodeModelEED1Ev 0x00020c50   Data           0  location.o(.ARM.extab)
    .extab._ZN19QDeclarativePrivate19QDeclarativeElementIN10QtMobility31QDeclarativeReverseGeocodeModelEED1Ev 0x00020c60   Data           0  location.o(.ARM.extab)
    .extab._ZN19QDeclarativePrivate10createIntoIN10QtMobility20QDeclarativePositionEEEvPv 0x00020c70   Data           0  location.o(.ARM.extab)
    .extab._ZN19QDeclarativePrivate10createIntoIN10QtMobility26QDeclarativePositionSourceEEEvPv 0x00020c80   Data           0  location.o(.ARM.extab)
    .extab._ZN19QDeclarativePrivate10createIntoIN10QtMobility20QDeclarativeLandmarkEEEvPv 0x00020c90   Data           0  location.o(.ARM.extab)
    .extab._ZN19QDeclarativePrivate10createIntoIN10QtMobility25QDeclarativeLandmarkModelEEEvPv 0x00020ca0   Data           0  location.o(.ARM.extab)
    .extab._ZN19QDeclarativePrivate10createIntoIN10QtMobility30QDeclarativeLandmarkNameFilterEEEvPv 0x00020cb0   Data           0  location.o(.ARM.extab)
    .extab._ZN19QDeclarativePrivate10createIntoIN10QtMobility34QDeclarativeLandmarkCategoryFilterEEEvPv 0x00020cc0   Data           0  location.o(.ARM.extab)
    .extab._ZN19QDeclarativePrivate10createIntoIN10QtMobility29QDeclarativeLandmarkBoxFilterEEEvPv 0x00020cd0   Data           0  location.o(.ARM.extab)
    .extab._ZN19QDeclarativePrivate10createIntoIN10QtMobility35QDeclarativeLandmarkProximityFilterEEEvPv 0x00020ce0   Data           0  location.o(.ARM.extab)
    .extab._ZN19QDeclarativePrivate10createIntoIN10QtMobility31QDeclarativeLandmarkUnionFilterEEEvPv 0x00020cf0   Data           0  location.o(.ARM.extab)
    .extab._ZN19QDeclarativePrivate10createIntoIN10QtMobility38QDeclarativeLandmarkIntersectionFilterEEEvPv 0x00020d00   Data           0  location.o(.ARM.extab)
    .extab._ZN19QDeclarativePrivate10createIntoIN10QtMobility28QDeclarativeLandmarkCategoryEEEvPv 0x00020d10   Data           0  location.o(.ARM.extab)
    .extab._ZN19QDeclarativePrivate10createIntoIN10QtMobility33QDeclarativeLandmarkCategoryModelEEEvPv 0x00020d20   Data           0  location.o(.ARM.extab)
    .extab._ZN19QDeclarativePrivate10createIntoIN10QtMobility22QDeclarativeCoordinateEEEvPv 0x00020d30   Data           0  location.o(.ARM.extab)
    .extab._ZN19QDeclarativePrivate10createIntoIN10QtMobility26QDeclarativeGeoBoundingBoxEEEvPv 0x00020d40   Data           0  location.o(.ARM.extab)
    .extab._ZN19QDeclarativePrivate10createIntoIN10QtMobility20QDeclarativeGeoPlaceEEEvPv 0x00020d50   Data           0  location.o(.ARM.extab)
    .extab._ZN19QDeclarativePrivate10createIntoIN10QtMobility22QDeclarativeGeoAddressEEEvPv 0x00020d60   Data           0  location.o(.ARM.extab)
    .extab._ZN19QDeclarativePrivate10createIntoIN10QtMobility30QDeclarativeGeoServiceProviderEEEvPv 0x00020d70   Data           0  location.o(.ARM.extab)
    .extab._ZN19QDeclarativePrivate10createIntoIN10QtMobility39QDeclarativeGeoServiceProviderParameterEEEvPv 0x00020d80   Data           0  location.o(.ARM.extab)
    .extab._ZN19QDeclarativePrivate10createIntoIN10QtMobility26QDeclarativeGraphicsGeoMapEEEvPv 0x00020d90   Data           0  location.o(.ARM.extab)
    .extab._ZN19QDeclarativePrivate10createIntoIN10QtMobility13QGeoMapObjectEEEvPv 0x00020da0   Data           0  location.o(.ARM.extab)
    .extab._ZN19QDeclarativePrivate10createIntoIN10QtMobility24QDeclarativeGeoMapObjectEEEvPv 0x00020db0   Data           0  location.o(.ARM.extab)
    .extab._ZN19QDeclarativePrivate10createIntoIN10QtMobility30QDeclarativeGeoMapCircleObjectEEEvPv 0x00020dc0   Data           0  location.o(.ARM.extab)
    .extab._ZN19QDeclarativePrivate10createIntoIN10QtMobility31QDeclarativeGeoMapPolygonObjectEEEvPv 0x00020dd0   Data           0  location.o(.ARM.extab)
    .extab._ZN19QDeclarativePrivate10createIntoIN10QtMobility32QDeclarativeGeoMapPolylineObjectEEEvPv 0x00020de0   Data           0  location.o(.ARM.extab)
    .extab._ZN19QDeclarativePrivate10createIntoIN10QtMobility33QDeclarativeGeoMapRectangleObjectEEEvPv 0x00020df0   Data           0  location.o(.ARM.extab)
    .extab._ZN19QDeclarativePrivate10createIntoIN10QtMobility28QDeclarativeGeoMapTextObjectEEEvPv 0x00020e00   Data           0  location.o(.ARM.extab)
    .extab._ZN19QDeclarativePrivate10createIntoIN10QtMobility30QDeclarativeGeoMapPixmapObjectEEEvPv 0x00020e10   Data           0  location.o(.ARM.extab)
    .extab._ZN19QDeclarativePrivate10createIntoIN10QtMobility24QDeclarativeGeocodeModelEEEvPv 0x00020e20   Data           0  location.o(.ARM.extab)
    .extab._ZN19QDeclarativePrivate10createIntoIN10QtMobility31QDeclarativeReverseGeocodeModelEEEvPv 0x00020e30   Data           0  location.o(.ARM.extab)
    .extab._ZN19QDeclarativePrivate19QDeclarativeElementIN10QtMobility20QDeclarativePositionEED1Ev 0x00020e40   Data           0  location.o(.ARM.extab)
    .extab._ZN19QDeclarativePrivate19QDeclarativeElementIN10QtMobility26QDeclarativePositionSourceEED1Ev 0x00020e50   Data           0  location.o(.ARM.extab)
    .extab._ZN19QDeclarativePrivate19QDeclarativeElementIN10QtMobility20QDeclarativeLandmarkEED1Ev 0x00020e60   Data           0  location.o(.ARM.extab)
    .extab._ZN19QDeclarativePrivate19QDeclarativeElementIN10QtMobility30QDeclarativeLandmarkNameFilterEED1Ev 0x00020e70   Data           0  location.o(.ARM.extab)
    .extab._ZN19QDeclarativePrivate19QDeclarativeElementIN10QtMobility34QDeclarativeLandmarkCategoryFilterEED1Ev 0x00020e80   Data           0  location.o(.ARM.extab)
    .extab._ZN19QDeclarativePrivate19QDeclarativeElementIN10QtMobility29QDeclarativeLandmarkBoxFilterEED1Ev 0x00020e90   Data           0  location.o(.ARM.extab)
    .extab._ZN19QDeclarativePrivate19QDeclarativeElementIN10QtMobility35QDeclarativeLandmarkProximityFilterEED1Ev 0x00020ea0   Data           0  location.o(.ARM.extab)
    .extab._ZN19QDeclarativePrivate19QDeclarativeElementIN10QtMobility31QDeclarativeLandmarkUnionFilterEED1Ev 0x00020eb0   Data           0  location.o(.ARM.extab)
    .extab._ZN19QDeclarativePrivate19QDeclarativeElementIN10QtMobility38QDeclarativeLandmarkIntersectionFilterEED1Ev 0x00020ec0   Data           0  location.o(.ARM.extab)
    .extab._ZN19QDeclarativePrivate19QDeclarativeElementIN10QtMobility28QDeclarativeLandmarkCategoryEED1Ev 0x00020ed0   Data           0  location.o(.ARM.extab)
    .extab._ZN19QDeclarativePrivate19QDeclarativeElementIN10QtMobility22QDeclarativeCoordinateEED1Ev 0x00020ee0   Data           0  location.o(.ARM.extab)
    .extab._ZN19QDeclarativePrivate19QDeclarativeElementIN10QtMobility26QDeclarativeGeoBoundingBoxEED1Ev 0x00020ef0   Data           0  location.o(.ARM.extab)
    .extab._ZN19QDeclarativePrivate19QDeclarativeElementIN10QtMobility20QDeclarativeGeoPlaceEED1Ev 0x00020f00   Data           0  location.o(.ARM.extab)
    .extab._ZN19QDeclarativePrivate19QDeclarativeElementIN10QtMobility22QDeclarativeGeoAddressEED1Ev 0x00020f10   Data           0  location.o(.ARM.extab)
    .extab._ZN19QDeclarativePrivate19QDeclarativeElementIN10QtMobility30QDeclarativeGeoServiceProviderEED1Ev 0x00020f20   Data           0  location.o(.ARM.extab)
    .extab._ZN19QDeclarativePrivate19QDeclarativeElementIN10QtMobility39QDeclarativeGeoServiceProviderParameterEED1Ev 0x00020f30   Data           0  location.o(.ARM.extab)
    .extab._ZN19QDeclarativePrivate19QDeclarativeElementIN10QtMobility13QGeoMapObjectEED1Ev 0x00020f40   Data           0  location.o(.ARM.extab)
    .extab._ZN19QDeclarativePrivate19QDeclarativeElementIN10QtMobility24QDeclarativeGeoMapObjectEED1Ev 0x00020f50   Data           0  location.o(.ARM.extab)
    .extab._ZN19QDeclarativePrivate19QDeclarativeElementIN10QtMobility30QDeclarativeGeoMapCircleObjectEED1Ev 0x00020f60   Data           0  location.o(.ARM.extab)
    .extab._ZN19QDeclarativePrivate19QDeclarativeElementIN10QtMobility31QDeclarativeGeoMapPolygonObjectEED1Ev 0x00020f70   Data           0  location.o(.ARM.extab)
    .extab._ZN19QDeclarativePrivate19QDeclarativeElementIN10QtMobility32QDeclarativeGeoMapPolylineObjectEED1Ev 0x00020f80   Data           0  location.o(.ARM.extab)
    .extab._ZN19QDeclarativePrivate19QDeclarativeElementIN10QtMobility33QDeclarativeGeoMapRectangleObjectEED1Ev 0x00020f90   Data           0  location.o(.ARM.extab)
    .extab._ZN19QDeclarativePrivate19QDeclarativeElementIN10QtMobility28QDeclarativeGeoMapTextObjectEED1Ev 0x00020fa0   Data           0  location.o(.ARM.extab)
    .extab._ZN19QDeclarativePrivate19QDeclarativeElementIN10QtMobility30QDeclarativeGeoMapPixmapObjectEED1Ev 0x00020fb0   Data           0  location.o(.ARM.extab)
    .extab._ZN10QtMobility28QDeclarativeLandmarkCategoryD1Ev 0x00020fc0   Data           0  location.o(.ARM.extab)
    .extab._ZN10QtMobility22QDeclarativeGeoAddressD1Ev 0x00020fd0   Data           0  location.o(.ARM.extab)
    .extab._ZN10QtMobility31QDeclarativeLandmarkUnionFilterD1Ev 0x00020fe0   Data           0  location.o(.ARM.extab)
    .extab._ZN10QtMobility38QDeclarativeLandmarkIntersectionFilterD1Ev 0x00020ff0   Data           0  location.o(.ARM.extab)
    .extab._ZN10QtMobility26QDeclarativePositionSource13setNmeaSourceERK4QUrl 0x00021000   Data           0  qdeclarativepositionsource.o(.ARM.extab)
    .extab._ZN10QtMobility26QDeclarativePositionSource22positionUpdateReceivedERKNS_16QGeoPositionInfoE 0x00021050   Data           0  qdeclarativepositionsource.o(.ARM.extab)
    .extab._ZN10QtMobility26QDeclarativePositionSource11qt_metacallEN11QMetaObject4CallEiPPv 0x00021068   Data           0  qdeclarativepositionsource.o(.ARM.extab)
    .extab._ZN10QtMobility26QDeclarativePositionSourceC1Ev 0x00021078   Data           0  qdeclarativepositionsource.o(.ARM.extab)
    .extab._ZN10QtMobility26QDeclarativePositionSourceD1Ev 0x00021098   Data           0  qdeclarativepositionsource.o(.ARM.extab)
    .extab._ZN10QtMobility20QDeclarativeLandmark6setUrlERK4QUrl 0x000210b8   Data           0  qdeclarativelandmark.o(.ARM.extab)
    .extab._ZN10QtMobility20QDeclarativeLandmark13setIconSourceERK4QUrl 0x000210c8   Data           0  qdeclarativelandmark.o(.ARM.extab)
    .extab._ZN10QtMobility20QDeclarativeLandmark14setDescriptionERK7QString 0x000210d8   Data           0  qdeclarativelandmark.o(.ARM.extab)
    .extab._ZN10QtMobility20QDeclarativeLandmark14setPhoneNumberERK7QString 0x000210e8   Data           0  qdeclarativelandmark.o(.ARM.extab)
    .extab._ZN10QtMobility20QDeclarativeLandmark7setNameERK7QString 0x000210f8   Data           0  qdeclarativelandmark.o(.ARM.extab)
    .extab._ZN10QtMobility20QDeclarativeLandmark11qt_metacallEN11QMetaObject4CallEiPPv 0x00021108   Data           0  qdeclarativelandmark.o(.ARM.extab)
    .extab._ZN10QtMobility20QDeclarativeLandmarkC1EP7QObject 0x00021138   Data           0  qdeclarativelandmark.o(.ARM.extab)
    .extab._ZN10QtMobility20QDeclarativeLandmarkC1ERKNS_9QLandmarkEP7QObject 0x00021150   Data           0  qdeclarativelandmark.o(.ARM.extab)
    .extab._ZN10QtMobility20QDeclarativeLandmark11setLandmarkERKNS_9QLandmarkE 0x00021168   Data           0  qdeclarativelandmark.o(.ARM.extab)
    .extab._ZN10QtMobility33QDeclarativeLandmarkAbstractModel13setDbFileNameE7QString 0x00021198   Data           0  qdeclarativelandmarkmodel.o(.ARM.extab)
    .extab._ZN10QtMobility33QDeclarativeLandmarkAbstractModel11qt_metacallEN11QMetaObject4CallEiPPv 0x000211d0   Data           0  qdeclarativelandmarkmodel.o(.ARM.extab)
    .extab._ZN10QtMobility33QDeclarativeLandmarkAbstractModelC2EP7QObject 0x000211e8   Data           0  qdeclarativelandmarkmodel.o(.ARM.extab)
    .extab._ZN10QtMobility33QDeclarativeLandmarkAbstractModelD2Ev 0x00021208   Data           0  qdeclarativelandmarkmodel.o(.ARM.extab)
    .extab._ZN10QtMobility33QDeclarativeLandmarkAbstractModel17componentCompleteEv 0x00021230   Data           0  qdeclarativelandmarkmodel.o(.ARM.extab)
    .extab._ZN10QtMobility25QDeclarativeLandmarkModel15landmarks_clearEP24QDeclarativeListPropertyINS_20QDeclarativeLandmarkEE 0x00021240   Data           0  qdeclarativelandmarkmodel.o(.ARM.extab)
    .extab._ZN10QtMobility25QDeclarativeLandmarkModel12landmarks_atEP24QDeclarativeListPropertyINS_20QDeclarativeLandmarkEEi 0x00021250   Data           0  qdeclarativelandmarkmodel.o(.ARM.extab)
    .extab._ZN10QtMobility25QDeclarativeLandmarkModel15landmarks_countEP24QDeclarativeListPropertyINS_20QDeclarativeLandmarkEE 0x00021260   Data           0  qdeclarativelandmarkmodel.o(.ARM.extab)
    .extab._ZN10QtMobility25QDeclarativeLandmarkModel16landmarks_appendEP24QDeclarativeListPropertyINS_20QDeclarativeLandmarkEEPS2_ 0x00021270   Data           0  qdeclarativelandmarkmodel.o(.ARM.extab)
    .extab._ZN10QtMobility25QDeclarativeLandmarkModel11startImportEv 0x00021298   Data           0  qdeclarativelandmarkmodel.o(.ARM.extab)
    .extab._ZN10QtMobility25QDeclarativeLandmarkModel29convertLandmarksToDeclarativeEv 0x000212a8   Data           0  qdeclarativelandmarkmodel.o(.ARM.extab)
    .extab._ZN10QtMobility25QDeclarativeLandmarkModel24fetchRequestStateChangedENS_24QLandmarkAbstractRequest5StateE 0x00021388   Data           0  qdeclarativelandmarkmodel.o(.ARM.extab)
    .extab._ZN10QtMobility25QDeclarativeLandmarkModel11qt_metacallEN11QMetaObject4CallEiPPv 0x000213a8   Data           0  qdeclarativelandmarkmodel.o(.ARM.extab)
    .extab._ZN10QtMobility25QDeclarativeLandmarkModelC1EP7QObject 0x000213c0   Data           0  qdeclarativelandmarkmodel.o(.ARM.extab)
    .extab._ZN10QtMobility25QDeclarativeLandmarkModelD1Ev 0x00021408   Data           0  qdeclarativelandmarkmodel.o(.ARM.extab)
    .extab._ZNK10QtMobility25QDeclarativeLandmarkModel4dataERK11QModelIndexi 0x00021440   Data           0  qdeclarativelandmarkmodel.o(.ARM.extab)
    .extab._ZN10QtMobility25QDeclarativeLandmarkModel17componentCompleteEv 0x000214b8   Data           0  qdeclarativelandmarkmodel.o(.ARM.extab)
    .extab._ZN10QtMobility25QDeclarativeLandmarkModel13setFetchOrderEv 0x000214c8   Data           0  qdeclarativelandmarkmodel.o(.ARM.extab)
    .extab._ZN10QtMobility25QDeclarativeLandmarkModel11startUpdateEv 0x000214e0   Data           0  qdeclarativelandmarkmodel.o(.ARM.extab)
    .extab._ZN5QListIN10QtMobility9QLandmarkEE13detach_helperEi 0x000214f0   Data           0  qdeclarativelandmarkmodel.o(.ARM.extab)
    .extab._ZN5QListI7QStringE9node_copyEPNS1_4NodeES3_S3_ 0x00021534   Data           0  qdeclarativelandmarkmodel.o(.ARM.extab)
    .extab._ZN5QListI7QStringE13detach_helperEi 0x00021558   Data           0  qdeclarativelandmarkmodel.o(.ARM.extab)
    .extab._ZN5QListI7QStringE14node_constructEPNS1_4NodeERKS0_ 0x00021574   Data           0  qdeclarativelandmarkmodel.o(.ARM.extab)
    .extab._ZN5QListI7QStringE18detach_helper_growEii 0x00021584   Data           0  qdeclarativelandmarkmodel.o(.ARM.extab)
    .extab._ZN5QListI7QStringE6appendERKS0_  0x000215b4   Data           0  qdeclarativelandmarkmodel.o(.ARM.extab)
    .extab._ZN4QMapI7QStringS0_E11node_createEP8QMapDataPPNS2_4NodeERKS0_S8_ 0x000215e4   Data           0  qdeclarativelandmarkmodel.o(.ARM.extab)
    .extab._ZN4QMapI7QStringS0_E13detach_helperEv 0x00021630   Data           0  qdeclarativelandmarkmodel.o(.ARM.extab)
    .extab._ZN5QListIPN10QtMobility20QDeclarativeLandmarkEE13detach_helperEi 0x0002164c   Data           0  qdeclarativelandmarkmodel.o(.ARM.extab)
    .extab._ZN5QListIPN10QtMobility20QDeclarativeLandmarkEE18detach_helper_growEii 0x00021668   Data           0  qdeclarativelandmarkmodel.o(.ARM.extab)
    .extab._ZN5QListIPN10QtMobility20QDeclarativeLandmarkEE6appendERKS2_ 0x00021698   Data           0  qdeclarativelandmarkmodel.o(.ARM.extab)
    .extab._ZN5QListIN10QtMobility9QLandmarkEE5clearEv 0x000216b4   Data           0  qdeclarativelandmarkmodel.o(.ARM.extab)
    .extab._ZN4QMapI7QStringPN10QtMobility20QDeclarativeLandmarkEE11node_createEP8QMapDataPPNS5_4NodeERKS0_RKS3_ 0x000216c4   Data           0  qdeclarativelandmarkmodel.o(.ARM.extab)
    .extab._ZN4QMapI7QStringPN10QtMobility20QDeclarativeLandmarkEE13detach_helperEv 0x000216e8   Data           0  qdeclarativelandmarkmodel.o(.ARM.extab)
    .extab._ZN4QMapI7QStringPN10QtMobility20QDeclarativeLandmarkEE5clearEv 0x00021704   Data           0  qdeclarativelandmarkmodel.o(.ARM.extab)
    .extab._ZNK4QMapI7QStringPN10QtMobility20QDeclarativeLandmarkEE6valuesEv 0x00021714   Data           0  qdeclarativelandmarkmodel.o(.ARM.extab)
    .extab._ZNK4QMapI7QStringPN10QtMobility20QDeclarativeLandmarkEE4keysEv 0x00021724   Data           0  qdeclarativelandmarkmodel.o(.ARM.extab)
    .extab._ZN6QDebugD1Ev                    0x00021734   Data           0  qdeclarativelandmarkmodel.o(.ARM.extab)
    .extab._ZN5QHashIi10QByteArrayE13duplicateNodeEPN9QHashData4NodeEPv 0x00021758   Data           0  qdeclarativelandmarkmodel.o(.ARM.extab)
    .extab._ZN5QHashIi10QByteArrayE6insertERKiRKS0_ 0x00021768   Data           0  qdeclarativelandmarkmodel.o(.ARM.extab)
    .extab._ZN10QtMobility33QDeclarativeLandmarkCategoryModel16categories_clearEP24QDeclarativeListPropertyINS_28QDeclarativeLandmarkCategoryEE 0x00021780   Data           0  qdeclarativelandmarkcategorymodel.o(.ARM.extab)
    .extab._ZN10QtMobility33QDeclarativeLandmarkCategoryModel13categories_atEP24QDeclarativeListPropertyINS_28QDeclarativeLandmarkCategoryEEi 0x00021790   Data           0  qdeclarativelandmarkcategorymodel.o(.ARM.extab)
    .extab._ZN10QtMobility33QDeclarativeLandmarkCategoryModel16categories_countEP24QDeclarativeListPropertyINS_28QDeclarativeLandmarkCategoryEE 0x000217a0   Data           0  qdeclarativelandmarkcategorymodel.o(.ARM.extab)
    .extab._ZN10QtMobility33QDeclarativeLandmarkCategoryModel17categories_appendEP24QDeclarativeListPropertyINS_28QDeclarativeLandmarkCategoryEEPS2_ 0x000217b0   Data           0  qdeclarativelandmarkcategorymodel.o(.ARM.extab)
    .extab._ZN10QtMobility33QDeclarativeLandmarkCategoryModel30convertCategoriesToDeclarativeEv 0x000217d8   Data           0  qdeclarativelandmarkcategorymodel.o(.ARM.extab)
    .extab._ZN10QtMobility33QDeclarativeLandmarkCategoryModel24fetchRequestStateChangedENS_24QLandmarkAbstractRequest5StateE 0x000218b8   Data           0  qdeclarativelandmarkcategorymodel.o(.ARM.extab)
    .extab._ZN10QtMobility33QDeclarativeLandmarkCategoryModelC1EP7QObject 0x000218e0   Data           0  qdeclarativelandmarkcategorymodel.o(.ARM.extab)
    .extab._ZN10QtMobility33QDeclarativeLandmarkCategoryModelD1Ev 0x00021920   Data           0  qdeclarativelandmarkcategorymodel.o(.ARM.extab)
    .extab._ZNK10QtMobility33QDeclarativeLandmarkCategoryModel4dataERK11QModelIndexi 0x00021950   Data           0  qdeclarativelandmarkcategorymodel.o(.ARM.extab)
    .extab._ZN10QtMobility33QDeclarativeLandmarkCategoryModel13setFetchOrderEv 0x00021998   Data           0  qdeclarativelandmarkcategorymodel.o(.ARM.extab)
    .extab._ZN10QtMobility33QDeclarativeLandmarkCategoryModel11startUpdateEv 0x000219b8   Data           0  qdeclarativelandmarkcategorymodel.o(.ARM.extab)
    .extab._ZN5QListIN10QtMobility17QLandmarkCategoryEE13detach_helperEi 0x000219d8   Data           0  qdeclarativelandmarkcategorymodel.o(.ARM.extab)
    .extab._ZN5QListIPN10QtMobility28QDeclarativeLandmarkCategoryEE13detach_helperEi 0x00021a1c   Data           0  qdeclarativelandmarkcategorymodel.o(.ARM.extab)
    .extab._ZN5QListIPN10QtMobility28QDeclarativeLandmarkCategoryEE18detach_helper_growEii 0x00021a38   Data           0  qdeclarativelandmarkcategorymodel.o(.ARM.extab)
    .extab._ZN5QListIPN10QtMobility28QDeclarativeLandmarkCategoryEE6appendERKS2_ 0x00021a68   Data           0  qdeclarativelandmarkcategorymodel.o(.ARM.extab)
    .extab._ZN5QListIN10QtMobility17QLandmarkCategoryEE5clearEv 0x00021a84   Data           0  qdeclarativelandmarkcategorymodel.o(.ARM.extab)
    .extab._ZN4QMapI7QStringPN10QtMobility28QDeclarativeLandmarkCategoryEE11node_createEP8QMapDataPPNS5_4NodeERKS0_RKS3_ 0x00021a94   Data           0  qdeclarativelandmarkcategorymodel.o(.ARM.extab)
    .extab._ZN4QMapI7QStringPN10QtMobility28QDeclarativeLandmarkCategoryEE13detach_helperEv 0x00021ab8   Data           0  qdeclarativelandmarkcategorymodel.o(.ARM.extab)
    .extab._ZN4QMapI7QStringPN10QtMobility28QDeclarativeLandmarkCategoryEE5clearEv 0x00021ad4   Data           0  qdeclarativelandmarkcategorymodel.o(.ARM.extab)
    .extab._ZNK4QMapI7QStringPN10QtMobility28QDeclarativeLandmarkCategoryEE6valuesEv 0x00021ae4   Data           0  qdeclarativelandmarkcategorymodel.o(.ARM.extab)
    .extab._ZNK4QMapI7QStringPN10QtMobility28QDeclarativeLandmarkCategoryEE4keysEv 0x00021af4   Data           0  qdeclarativelandmarkcategorymodel.o(.ARM.extab)
    .extab._ZN10QtMobility28QDeclarativeLandmarkCategory13setIconSourceERK4QUrl 0x00021b04   Data           0  qdeclarativelandmarkcategory.o(.ARM.extab)
    .extab._ZN10QtMobility28QDeclarativeLandmarkCategory7setNameERK7QString 0x00021b14   Data           0  qdeclarativelandmarkcategory.o(.ARM.extab)
    .extab._ZN10QtMobility28QDeclarativeLandmarkCategory11qt_metacallEN11QMetaObject4CallEiPPv 0x00021b24   Data           0  qdeclarativelandmarkcategory.o(.ARM.extab)
    .extab._ZN10QtMobility28QDeclarativeLandmarkCategoryC1EP7QObject 0x00021b3c   Data           0  qdeclarativelandmarkcategory.o(.ARM.extab)
    .extab._ZN10QtMobility28QDeclarativeLandmarkCategory11setCategoryERKNS_17QLandmarkCategoryE 0x00021b4c   Data           0  qdeclarativelandmarkcategory.o(.ARM.extab)
    .extab._ZN10QtMobility34QDeclarativeLandmarkCompoundFilterC2EP7QObject 0x00021b64   Data           0  qdeclarativelandmarkfilters.o(.ARM.extab)
    .extab._ZN10QtMobility34QDeclarativeLandmarkCategoryFilter11setCategoryEPNS_28QDeclarativeLandmarkCategoryE 0x00021b74   Data           0  qdeclarativelandmarkfilters.o(.ARM.extab)
    .extab._ZN10QtMobility34QDeclarativeLandmarkCategoryFilterC1EP7QObject 0x00021b94   Data           0  qdeclarativelandmarkfilters.o(.ARM.extab)
    .extab._ZN10QtMobility34QDeclarativeLandmarkCategoryFilterD1Ev 0x00021bb4   Data           0  qdeclarativelandmarkfilters.o(.ARM.extab)
    .extab._ZN10QtMobility29QDeclarativeLandmarkBoxFilter14setBottomRightEPNS_22QDeclarativeCoordinateE 0x00021bc4   Data           0  qdeclarativelandmarkfilters.o(.ARM.extab)
    .extab._ZN10QtMobility29QDeclarativeLandmarkBoxFilter10setTopLeftEPNS_22QDeclarativeCoordinateE 0x00021bf4   Data           0  qdeclarativelandmarkfilters.o(.ARM.extab)
    .extab._ZN10QtMobility29QDeclarativeLandmarkBoxFilterC1EP7QObject 0x00021c24   Data           0  qdeclarativelandmarkfilters.o(.ARM.extab)
    .extab._ZN10QtMobility29QDeclarativeLandmarkBoxFilterD1Ev 0x00021c44   Data           0  qdeclarativelandmarkfilters.o(.ARM.extab)
    .extab._ZN10QtMobility30QDeclarativeLandmarkNameFilter11qt_metacallEN11QMetaObject4CallEiPPv 0x00021c54   Data           0  qdeclarativelandmarkfilters.o(.ARM.extab)
    .extab._ZN10QtMobility30QDeclarativeLandmarkNameFilterC1EP7QObject 0x00021c64   Data           0  qdeclarativelandmarkfilters.o(.ARM.extab)
    .extab._ZN10QtMobility30QDeclarativeLandmarkNameFilterD1Ev 0x00021c8c   Data           0  qdeclarativelandmarkfilters.o(.ARM.extab)
    .extab._ZN10QtMobility35QDeclarativeLandmarkProximityFilterC1EP7QObject 0x00021ca4   Data           0  qdeclarativelandmarkfilters.o(.ARM.extab)
    .extab._ZN10QtMobility35QDeclarativeLandmarkProximityFilterD1Ev 0x00021cc4   Data           0  qdeclarativelandmarkfilters.o(.ARM.extab)
    .extab._ZN10QtMobility35QDeclarativeLandmarkProximityFilter6filterEv 0x00021cd4   Data           0  qdeclarativelandmarkfilters.o(.ARM.extab)
    .extab._ZN10QtMobility31QDeclarativeLandmarkUnionFilterC1EP7QObject 0x00021ce4   Data           0  qdeclarativelandmarkfilters.o(.ARM.extab)
    .extab._ZN10QtMobility38QDeclarativeLandmarkIntersectionFilterC1EP7QObject 0x00021cf4   Data           0  qdeclarativelandmarkfilters.o(.ARM.extab)
    .extab._ZN5QListIPN10QtMobility30QDeclarativeLandmarkFilterBaseEE13detach_helperEi 0x00021d04   Data           0  qdeclarativelandmarkfilters.o(.ARM.extab)
    .extab._ZN5QListIPN10QtMobility30QDeclarativeLandmarkFilterBaseEE5clearEv 0x00021d20   Data           0  qdeclarativelandmarkfilters.o(.ARM.extab)
    .extab._ZN5QListIPN10QtMobility30QDeclarativeLandmarkFilterBaseEE18detach_helper_growEii 0x00021d30   Data           0  qdeclarativelandmarkfilters.o(.ARM.extab)
    .extab._ZN5QListIPN10QtMobility30QDeclarativeLandmarkFilterBaseEE6appendERKS2_ 0x00021d60   Data           0  qdeclarativelandmarkfilters.o(.ARM.extab)
    .extab._ZN10QtMobility34QDeclarativeLandmarkCompoundFilterD2Ev 0x00021d7c   Data           0  qdeclarativelandmarkfilters.o(.ARM.extab)
    .extab._ZN10QtMobility22QDeclarativeCoordinate10distanceToEP7QObject 0x00021d8c   Data           0  qdeclarativecoordinate.o(.ARM.extab)
    .extab._ZN10QtMobility22QDeclarativeCoordinateC1EP7QObject 0x00021d9c   Data           0  qdeclarativecoordinate.o(.ARM.extab)
    .extab._ZN10QtMobility22QDeclarativeCoordinateC1ERKNS_14QGeoCoordinateEP7QObject 0x00021dac   Data           0  qdeclarativecoordinate.o(.ARM.extab)
    .extab._ZN10QtMobility22QDeclarativeCoordinateD1Ev 0x00021dbc   Data           0  qdeclarativecoordinate.o(.ARM.extab)
    .extab._ZN10QtMobility22QDeclarativeCoordinate13setCoordinateERKNS_14QGeoCoordinateE 0x00021dcc   Data           0  qdeclarativecoordinate.o(.ARM.extab)
    .extab._ZN10QtMobility30QDeclarativeGeoMapObjectBorderC1EP7QObject 0x00021ddc   Data           0  qdeclarativegeomapobjectborder.o(.ARM.extab)
    .extab._ZN10QtMobility30QDeclarativeGeoMapCircleObject8setColorERK6QColor 0x00021dec   Data           0  qdeclarativegeomapcircleobject.o(.ARM.extab)
    .extab._ZN10QtMobility30QDeclarativeGeoMapCircleObject20setDeclarativeCenterEPKNS_22QDeclarativeCoordinateE 0x00021dfc   Data           0  qdeclarativegeomapcircleobject.o(.ARM.extab)
    .extab._ZN10QtMobility30QDeclarativeGeoMapCircleObject21centerAltitudeChangedEd 0x00021e2c   Data           0  qdeclarativegeomapcircleobject.o(.ARM.extab)
    .extab._ZN10QtMobility30QDeclarativeGeoMapCircleObject22centerLongitudeChangedEd 0x00021e3c   Data           0  qdeclarativegeomapcircleobject.o(.ARM.extab)
    .extab._ZN10QtMobility30QDeclarativeGeoMapCircleObject21centerLatitudeChangedEd 0x00021e4c   Data           0  qdeclarativegeomapcircleobject.o(.ARM.extab)
    .extab._ZN10QtMobility30QDeclarativeGeoMapCircleObject18borderWidthChangedEi 0x00021e5c   Data           0  qdeclarativegeomapcircleobject.o(.ARM.extab)
    .extab._ZN10QtMobility30QDeclarativeGeoMapCircleObject18borderColorChangedERK6QColor 0x00021e6c   Data           0  qdeclarativegeomapcircleobject.o(.ARM.extab)
    .extab._ZN10QtMobility30QDeclarativeGeoMapCircleObjectC1Ev 0x00021e7c   Data           0  qdeclarativegeomapcircleobject.o(.ARM.extab)
    .extab._ZN10QtMobility30QDeclarativeGeoMapCircleObjectD1Ev 0x00021ea4   Data           0  qdeclarativegeomapcircleobject.o(.ARM.extab)
    .extab._ZN10QtMobility30QDeclarativeGeoMapPixmapObject5errorEN13QNetworkReply12NetworkErrorE 0x00021eb4   Data           0  qdeclarativegeomappixmapobject.o(.ARM.extab)
    .extab._ZN10QtMobility30QDeclarativeGeoMapPixmapObject8finishedEv 0x00021ec4   Data           0  qdeclarativegeomappixmapobject.o(.ARM.extab)
    .extab._ZN10QtMobility30QDeclarativeGeoMapPixmapObject4loadEv 0x00021f14   Data           0  qdeclarativegeomappixmapobject.o(.ARM.extab)
    .extab._ZN10QtMobility30QDeclarativeGeoMapPixmapObject24setDeclarativeCoordinateEPKNS_22QDeclarativeCoordinateE 0x0002203c   Data           0  qdeclarativegeomappixmapobject.o(.ARM.extab)
    .extab._ZN10QtMobility30QDeclarativeGeoMapPixmapObject25coordinateAltitudeChangedEd 0x0002206c   Data           0  qdeclarativegeomappixmapobject.o(.ARM.extab)
    .extab._ZN10QtMobility30QDeclarativeGeoMapPixmapObject26coordinateLongitudeChangedEd 0x0002207c   Data           0  qdeclarativegeomappixmapobject.o(.ARM.extab)
    .extab._ZN10QtMobility30QDeclarativeGeoMapPixmapObject25coordinateLatitudeChangedEd 0x0002208c   Data           0  qdeclarativegeomappixmapobject.o(.ARM.extab)
    .extab._ZN10QtMobility30QDeclarativeGeoMapPixmapObject11qt_metacallEN11QMetaObject4CallEiPPv 0x0002209c   Data           0  qdeclarativegeomappixmapobject.o(.ARM.extab)
    .extab._ZN10QtMobility30QDeclarativeGeoMapPixmapObjectC1Ev 0x000220ac   Data           0  qdeclarativegeomappixmapobject.o(.ARM.extab)
    .extab._ZN10QtMobility30QDeclarativeGeoMapPixmapObjectD1Ev 0x000220d4   Data           0  qdeclarativegeomappixmapobject.o(.ARM.extab)
    .extab._ZN10QtMobility31QDeclarativeGeoMapPolygonObject8setColorERK6QColor 0x000220e4   Data           0  qdeclarativegeomappolygonobject.o(.ARM.extab)
    .extab._ZN10QtMobility31QDeclarativeGeoMapPolygonObject10path_clearEP24QDeclarativeListPropertyINS_22QDeclarativeCoordinateEE 0x000220f4   Data           0  qdeclarativegeomappolygonobject.o(.ARM.extab)
    .extab._ZN10QtMobility31QDeclarativeGeoMapPolygonObject11path_appendEP24QDeclarativeListPropertyINS_22QDeclarativeCoordinateEEPS2_ 0x00022114   Data           0  qdeclarativegeomappolygonobject.o(.ARM.extab)
    .extab._ZN10QtMobility31QDeclarativeGeoMapPolygonObject18borderWidthChangedEi 0x00022134   Data           0  qdeclarativegeomappolygonobject.o(.ARM.extab)
    .extab._ZN10QtMobility31QDeclarativeGeoMapPolygonObject18borderColorChangedERK6QColor 0x00022144   Data           0  qdeclarativegeomappolygonobject.o(.ARM.extab)
    .extab._ZN10QtMobility31QDeclarativeGeoMapPolygonObjectC1Ev 0x00022154   Data           0  qdeclarativegeomappolygonobject.o(.ARM.extab)
    .extab._ZN10QtMobility31QDeclarativeGeoMapPolygonObjectD1Ev 0x00022174   Data           0  qdeclarativegeomappolygonobject.o(.ARM.extab)
    .extab._ZN5QListIN10QtMobility14QGeoCoordinateEE14node_constructEPNS2_4NodeERKS1_ 0x00022194   Data           0  qdeclarativegeomappolygonobject.o(.ARM.extab)
    .extab._ZN5QListIN10QtMobility14QGeoCoordinateEE9node_copyEPNS2_4NodeES4_S4_ 0x000221a4   Data           0  qdeclarativegeomappolygonobject.o(.ARM.extab)
    .extab._ZN5QListIN10QtMobility14QGeoCoordinateEE18detach_helper_growEii 0x000221c8   Data           0  qdeclarativegeomappolygonobject.o(.ARM.extab)
    .extab._ZN5QListIN10QtMobility14QGeoCoordinateEE6appendERKS1_ 0x000221f8   Data           0  qdeclarativegeomappolygonobject.o(.ARM.extab)
    .extab._ZN5QListIPN10QtMobility22QDeclarativeCoordinateEE13detach_helperEi 0x00022228   Data           0  qdeclarativegeomappolygonobject.o(.ARM.extab)
    .extab._ZN5QListIPN10QtMobility22QDeclarativeCoordinateEE5clearEv 0x00022244   Data           0  qdeclarativegeomappolygonobject.o(.ARM.extab)
    .extab._ZN5QListIPN10QtMobility22QDeclarativeCoordinateEE18detach_helper_growEii 0x00022254   Data           0  qdeclarativegeomappolygonobject.o(.ARM.extab)
    .extab._ZN5QListIPN10QtMobility22QDeclarativeCoordinateEE6appendERKS2_ 0x00022284   Data           0  qdeclarativegeomappolygonobject.o(.ARM.extab)
    .extab._ZN10QtMobility32QDeclarativeGeoMapPolylineObject10path_clearEP24QDeclarativeListPropertyINS_22QDeclarativeCoordinateEE 0x000222a0   Data           0  qdeclarativegeomappolylineobject.o(.ARM.extab)
    .extab._ZN10QtMobility32QDeclarativeGeoMapPolylineObject11path_appendEP24QDeclarativeListPropertyINS_22QDeclarativeCoordinateEEPS2_ 0x000222c0   Data           0  qdeclarativegeomappolylineobject.o(.ARM.extab)
    .extab._ZN10QtMobility32QDeclarativeGeoMapPolylineObject18borderWidthChangedEi 0x000222e0   Data           0  qdeclarativegeomappolylineobject.o(.ARM.extab)
    .extab._ZN10QtMobility32QDeclarativeGeoMapPolylineObject18borderColorChangedERK6QColor 0x000222f0   Data           0  qdeclarativegeomappolylineobject.o(.ARM.extab)
    .extab._ZN10QtMobility32QDeclarativeGeoMapPolylineObjectC1Ev 0x00022300   Data           0  qdeclarativegeomappolylineobject.o(.ARM.extab)
    .extab._ZN10QtMobility32QDeclarativeGeoMapPolylineObjectD1Ev 0x00022320   Data           0  qdeclarativegeomappolylineobject.o(.ARM.extab)
    .extab._ZN10QtMobility33QDeclarativeGeoMapRectangleObject8setColorERK6QColor 0x00022340   Data           0  qdeclarativegeomaprectangleobject.o(.ARM.extab)
    .extab._ZN10QtMobility33QDeclarativeGeoMapRectangleObject25setDeclarativeBottomRightEPKNS_22QDeclarativeCoordinateE 0x00022350   Data           0  qdeclarativegeomaprectangleobject.o(.ARM.extab)
    .extab._ZN10QtMobility33QDeclarativeGeoMapRectangleObject21setDeclarativeTopLeftEPKNS_22QDeclarativeCoordinateE 0x00022380   Data           0  qdeclarativegeomaprectangleobject.o(.ARM.extab)
    .extab._ZN10QtMobility33QDeclarativeGeoMapRectangleObject18borderWidthChangedEi 0x000223b0   Data           0  qdeclarativegeomaprectangleobject.o(.ARM.extab)
    .extab._ZN10QtMobility33QDeclarativeGeoMapRectangleObject18borderColorChangedERK6QColor 0x000223c0   Data           0  qdeclarativegeomaprectangleobject.o(.ARM.extab)
    .extab._ZN10QtMobility33QDeclarativeGeoMapRectangleObject26bottomRightAltitudeChangedEd 0x000223d0   Data           0  qdeclarativegeomaprectangleobject.o(.ARM.extab)
    .extab._ZN10QtMobility33QDeclarativeGeoMapRectangleObject27bottomRightLongitudeChangedEd 0x000223e0   Data           0  qdeclarativegeomaprectangleobject.o(.ARM.extab)
    .extab._ZN10QtMobility33QDeclarativeGeoMapRectangleObject26bottomRightLatitudeChangedEd 0x000223f0   Data           0  qdeclarativegeomaprectangleobject.o(.ARM.extab)
    .extab._ZN10QtMobility33QDeclarativeGeoMapRectangleObject22topLeftAltitudeChangedEd 0x00022400   Data           0  qdeclarativegeomaprectangleobject.o(.ARM.extab)
    .extab._ZN10QtMobility33QDeclarativeGeoMapRectangleObject23topLeftLongitudeChangedEd 0x00022410   Data           0  qdeclarativegeomaprectangleobject.o(.ARM.extab)
    .extab._ZN10QtMobility33QDeclarativeGeoMapRectangleObject22topLeftLatitudeChangedEd 0x00022420   Data           0  qdeclarativegeomaprectangleobject.o(.ARM.extab)
    .extab._ZN10QtMobility33QDeclarativeGeoMapRectangleObjectC1Ev 0x00022430   Data           0  qdeclarativegeomaprectangleobject.o(.ARM.extab)
    .extab._ZN10QtMobility33QDeclarativeGeoMapRectangleObjectD1Ev 0x00022468   Data           0  qdeclarativegeomaprectangleobject.o(.ARM.extab)
    .extab._ZN10QtMobility28QDeclarativeGeoMapTextObject8setColorERK6QColor 0x00022478   Data           0  qdeclarativegeomaptextobject.o(.ARM.extab)
    .extab._ZN10QtMobility28QDeclarativeGeoMapTextObject24setDeclarativeCoordinateEPKNS_22QDeclarativeCoordinateE 0x00022488   Data           0  qdeclarativegeomaptextobject.o(.ARM.extab)
    .extab._ZN10QtMobility28QDeclarativeGeoMapTextObject25coordinateAltitudeChangedEd 0x000224b8   Data           0  qdeclarativegeomaptextobject.o(.ARM.extab)
    .extab._ZN10QtMobility28QDeclarativeGeoMapTextObject26coordinateLongitudeChangedEd 0x000224c8   Data           0  qdeclarativegeomaptextobject.o(.ARM.extab)
    .extab._ZN10QtMobility28QDeclarativeGeoMapTextObject25coordinateLatitudeChangedEd 0x000224d8   Data           0  qdeclarativegeomaptextobject.o(.ARM.extab)
    .extab._ZN10QtMobility28QDeclarativeGeoMapTextObjectC1Ev 0x000224e8   Data           0  qdeclarativegeomaptextobject.o(.ARM.extab)
    .extab._ZN10QtMobility39QDeclarativeGeoServiceProviderParameter11qt_metacallEN11QMetaObject4CallEiPPv 0x00022528   Data           0  qdeclarativegeoserviceprovider.o(.ARM.extab)
    .extab._ZN10QtMobility39QDeclarativeGeoServiceProviderParameterC1EP7QObject 0x00022540   Data           0  qdeclarativegeoserviceprovider.o(.ARM.extab)
    .extab._ZN10QtMobility39QDeclarativeGeoServiceProviderParameterD1Ev 0x00022550   Data           0  qdeclarativegeoserviceprovider.o(.ARM.extab)
    .extab._ZN10QtMobility30QDeclarativeGeoServiceProvider11qt_metacallEN11QMetaObject4CallEiPPv 0x00022568   Data           0  qdeclarativegeoserviceprovider.o(.ARM.extab)
    .extab._ZN10QtMobility30QDeclarativeGeoServiceProviderC1EP7QObject 0x00022578   Data           0  qdeclarativegeoserviceprovider.o(.ARM.extab)
    .extab._ZN10QtMobility30QDeclarativeGeoServiceProviderD1Ev 0x00022590   Data           0  qdeclarativegeoserviceprovider.o(.ARM.extab)
    .extab._ZNK10QtMobility30QDeclarativeGeoServiceProvider12parameterMapEv 0x000225a8   Data           0  qdeclarativegeoserviceprovider.o(.ARM.extab)
    .extab._ZN4QMapI7QString8QVariantE11node_createEP8QMapDataPPNS3_4NodeERKS0_RKS1_ 0x000225d8   Data           0  qdeclarativegeoserviceprovider.o(.ARM.extab)
    .extab._ZN4QMapI7QString8QVariantE13detach_helperEv 0x00022624   Data           0  qdeclarativegeoserviceprovider.o(.ARM.extab)
    .extab._ZN5QListIPN10QtMobility39QDeclarativeGeoServiceProviderParameterEE13detach_helperEi 0x00022640   Data           0  qdeclarativegeoserviceprovider.o(.ARM.extab)
    .extab._ZN5QListIPN10QtMobility39QDeclarativeGeoServiceProviderParameterEE5clearEv 0x0002265c   Data           0  qdeclarativegeoserviceprovider.o(.ARM.extab)
    .extab._ZN5QListIPN10QtMobility39QDeclarativeGeoServiceProviderParameterEE18detach_helper_growEii 0x0002266c   Data           0  qdeclarativegeoserviceprovider.o(.ARM.extab)
    .extab._ZN5QListIPN10QtMobility39QDeclarativeGeoServiceProviderParameterEE6appendERKS2_ 0x0002269c   Data           0  qdeclarativegeoserviceprovider.o(.ARM.extab)
    .extab._ZN10QtMobility26QDeclarativeGraphicsGeoMap9setCenterEPKNS_22QDeclarativeCoordinateE 0x000226b8   Data           0  qdeclarativegraphicsgeomap.o(.ARM.extab)
    .extab._ZN10QtMobility26QDeclarativeGraphicsGeoMap9setPluginEPNS_30QDeclarativeGeoServiceProviderE 0x000226e8   Data           0  qdeclarativegraphicsgeomap.o(.ARM.extab)
    .extab._ZN10QtMobility26QDeclarativeGraphicsGeoMap9object_atEP24QDeclarativeListPropertyINS_13QGeoMapObjectEEi 0x00022720   Data           0  qdeclarativegraphicsgeomap.o(.ARM.extab)
    .extab._ZN10QtMobility26QDeclarativeGraphicsGeoMap6centerEv 0x00022730   Data           0  qdeclarativegraphicsgeomap.o(.ARM.extab)
    .extab._ZNK10QtMobility26QDeclarativeGraphicsGeoMap16toScreenPositionEPNS_22QDeclarativeCoordinateE 0x00022740   Data           0  qdeclarativegraphicsgeomap.o(.ARM.extab)
    .extab._ZNK10QtMobility26QDeclarativeGraphicsGeoMap12toCoordinateE7QPointF 0x00022750   Data           0  qdeclarativegraphicsgeomap.o(.ARM.extab)
    .extab._ZN10QtMobility26QDeclarativeGraphicsGeoMap21centerAltitudeChangedEd 0x00022778   Data           0  qdeclarativegraphicsgeomap.o(.ARM.extab)
    .extab._ZN10QtMobility26QDeclarativeGraphicsGeoMap22centerLongitudeChangedEd 0x00022788   Data           0  qdeclarativegraphicsgeomap.o(.ARM.extab)
    .extab._ZN10QtMobility26QDeclarativeGraphicsGeoMap21centerLatitudeChangedEd 0x00022798   Data           0  qdeclarativegraphicsgeomap.o(.ARM.extab)
    .extab._ZN10QtMobility26QDeclarativeGraphicsGeoMap21internalCenterChangedERKNS_14QGeoCoordinateE 0x000227a8   Data           0  qdeclarativegraphicsgeomap.o(.ARM.extab)
    .extab._ZN10QtMobility26QDeclarativeGraphicsGeoMapC1EP16QDeclarativeItem 0x000227b8   Data           0  qdeclarativegraphicsgeomap.o(.ARM.extab)
    .extab._ZN10QtMobility26QDeclarativeGraphicsGeoMapD1Ev 0x000227f0   Data           0  qdeclarativegraphicsgeomap.o(.ARM.extab)
    .extab._ZN5QListIPN10QtMobility13QGeoMapObjectEE13detach_helperEi 0x00022808   Data           0  qdeclarativegraphicsgeomap.o(.ARM.extab)
    .extab._ZN5QListIPN10QtMobility13QGeoMapObjectEE5clearEv 0x00022824   Data           0  qdeclarativegraphicsgeomap.o(.ARM.extab)
    .extab._ZN5QListIPN10QtMobility13QGeoMapObjectEE18detach_helper_growEii 0x00022834   Data           0  qdeclarativegraphicsgeomap.o(.ARM.extab)
    .extab._ZN5QListIPN10QtMobility13QGeoMapObjectEE6appendERKS2_ 0x00022864   Data           0  qdeclarativegraphicsgeomap.o(.ARM.extab)
    .extab._ZN10QtMobility26QDeclarativeGeoSearchModel9setPluginEPNS_30QDeclarativeGeoServiceProviderE 0x00022880   Data           0  qdeclarativegeosearchmodel.o(.ARM.extab)
    .extab._ZN10QtMobility26QDeclarativeGeoSearchModel14searchFinishedEPNS_15QGeoSearchReplyE 0x000228b0   Data           0  qdeclarativegeosearchmodel.o(.ARM.extab)
    .extab._ZN10QtMobility26QDeclarativeGeoSearchModel11qt_metacallEN11QMetaObject4CallEiPPv 0x000228c8   Data           0  qdeclarativegeosearchmodel.o(.ARM.extab)
    .extab._ZN10QtMobility26QDeclarativeGeoSearchModelC1EP7QObject 0x000228d8   Data           0  qdeclarativegeosearchmodel.o(.ARM.extab)
    .extab._ZN10QtMobility26QDeclarativeGeoSearchModelD1Ev 0x00022930   Data           0  qdeclarativegeosearchmodel.o(.ARM.extab)
    .extab._ZNK10QtMobility26QDeclarativeGeoSearchModel4dataERK11QModelIndexi 0x00022958   Data           0  qdeclarativegeosearchmodel.o(.ARM.extab)
    .extab._ZNK10QtMobility26QDeclarativeGeoSearchModel10headerDataEiN2Qt11OrientationEi 0x00022990   Data           0  qdeclarativegeosearchmodel.o(.ARM.extab)
    .extab._Z24qMetaTypeConstructHelperIN10QtMobility9QLandmarkEEPvPKT_ 0x000229a8   Data           0  qdeclarativegeosearchmodel.o(.ARM.extab)
    .extab._ZN5QListIN10QtMobility9QGeoPlaceEE13detach_helperEi 0x000229c0   Data           0  qdeclarativegeosearchmodel.o(.ARM.extab)
    .extab._ZN10QtMobility24QDeclarativeGeocodeModel6updateEv 0x00022a04   Data           0  qdeclarativegeocodemodel.o(.ARM.extab)
    .extab._ZN10QtMobility24QDeclarativeGeocodeModel10setAddressEPNS_22QDeclarativeGeoAddressE 0x00022a1c   Data           0  qdeclarativegeocodemodel.o(.ARM.extab)
    .extab._ZN10QtMobility24QDeclarativeGeocodeModelC1EP7QObject 0x00022a44   Data           0  qdeclarativegeocodemodel.o(.ARM.extab)
    .extab._ZN10QtMobility24QDeclarativeGeocodeModelD1Ev 0x00022a54   Data           0  qdeclarativegeocodemodel.o(.ARM.extab)
    .extab._ZNK10QtMobility24QDeclarativeGeocodeModel4dataERK11QModelIndexi 0x00022a64   Data           0  qdeclarativegeocodemodel.o(.ARM.extab)
    .extab._ZNK10QtMobility24QDeclarativeGeocodeModel10headerDataEiN2Qt11OrientationEi 0x00022aa4   Data           0  qdeclarativegeocodemodel.o(.ARM.extab)
    .extab._ZN10QtMobility31QDeclarativeReverseGeocodeModel6updateEv 0x00022ab4   Data           0  qdeclarativereversegeocodemodel.o(.ARM.extab)
    .extab._ZN10QtMobility31QDeclarativeReverseGeocodeModel13setCoordinateEPNS_22QDeclarativeCoordinateE 0x00022acc   Data           0  qdeclarativereversegeocodemodel.o(.ARM.extab)
    .extab._ZN10QtMobility31QDeclarativeReverseGeocodeModelC1EP7QObject 0x00022af4   Data           0  qdeclarativereversegeocodemodel.o(.ARM.extab)
    .extab._ZN10QtMobility31QDeclarativeReverseGeocodeModelD1Ev 0x00022b04   Data           0  qdeclarativereversegeocodemodel.o(.ARM.extab)
    .extab._ZNK10QtMobility31QDeclarativeReverseGeocodeModel4dataERK11QModelIndexi 0x00022b14   Data           0  qdeclarativereversegeocodemodel.o(.ARM.extab)
    .extab._ZNK10QtMobility31QDeclarativeReverseGeocodeModel10headerDataEiN2Qt11OrientationEi 0x00022c44   Data           0  qdeclarativereversegeocodemodel.o(.ARM.extab)
    .extab._ZN10QtMobility20QDeclarativeGeoPlace10setAddressEPNS_22QDeclarativeGeoAddressE 0x00022c54   Data           0  qdeclarativegeoplace.o(.ARM.extab)
    .extab._ZN10QtMobility20QDeclarativeGeoPlace13setCoordinateEPNS_22QDeclarativeCoordinateE 0x00022c7c   Data           0  qdeclarativegeoplace.o(.ARM.extab)
    .extab._ZN10QtMobility20QDeclarativeGeoPlace11setViewportEPNS_26QDeclarativeGeoBoundingBoxE 0x00022ca4   Data           0  qdeclarativegeoplace.o(.ARM.extab)
    .extab._ZN10QtMobility20QDeclarativeGeoPlaceC1EP7QObject 0x00022ccc   Data           0  qdeclarativegeoplace.o(.ARM.extab)
    .extab._ZN10QtMobility20QDeclarativeGeoPlaceC1ERKNS_9QGeoPlaceEP7QObject 0x00022cec   Data           0  qdeclarativegeoplace.o(.ARM.extab)
    .extab._ZN10QtMobility20QDeclarativeGeoPlaceD1Ev 0x00022d3c   Data           0  qdeclarativegeoplace.o(.ARM.extab)
    .extab._ZN10QtMobility20QDeclarativeGeoPlace8setPlaceERKNS_9QGeoPlaceE 0x00022d5c   Data           0  qdeclarativegeoplace.o(.ARM.extab)
    .extab._ZN10QtMobility22QDeclarativeGeoAddress11setPostcodeERK7QString 0x00022d7c   Data           0  qdeclarativegeoaddress.o(.ARM.extab)
    .extab._ZN10QtMobility22QDeclarativeGeoAddress9setStreetERK7QString 0x00022d8c   Data           0  qdeclarativegeoaddress.o(.ARM.extab)
    .extab._ZN10QtMobility22QDeclarativeGeoAddress11setDistrictERK7QString 0x00022d9c   Data           0  qdeclarativegeoaddress.o(.ARM.extab)
    .extab._ZN10QtMobility22QDeclarativeGeoAddress7setCityERK7QString 0x00022dac   Data           0  qdeclarativegeoaddress.o(.ARM.extab)
    .extab._ZN10QtMobility22QDeclarativeGeoAddress9setCountyERK7QString 0x00022dbc   Data           0  qdeclarativegeoaddress.o(.ARM.extab)
    .extab._ZN10QtMobility22QDeclarativeGeoAddress8setStateERK7QString 0x00022dcc   Data           0  qdeclarativegeoaddress.o(.ARM.extab)
    .extab._ZN10QtMobility22QDeclarativeGeoAddress14setCountryCodeERK7QString 0x00022ddc   Data           0  qdeclarativegeoaddress.o(.ARM.extab)
    .extab._ZN10QtMobility22QDeclarativeGeoAddress10setCountryERK7QString 0x00022dec   Data           0  qdeclarativegeoaddress.o(.ARM.extab)
    .extab._ZN10QtMobility22QDeclarativeGeoAddress11qt_metacallEN11QMetaObject4CallEiPPv 0x00022dfc   Data           0  qdeclarativegeoaddress.o(.ARM.extab)
    .extab._ZN10QtMobility22QDeclarativeGeoAddressC1EP7QObject 0x00022e44   Data           0  qdeclarativegeoaddress.o(.ARM.extab)
    .extab._ZN10QtMobility22QDeclarativeGeoAddressC1ERKNS_11QGeoAddressEP7QObject 0x00022e54   Data           0  qdeclarativegeoaddress.o(.ARM.extab)
    .extab._ZN10QtMobility22QDeclarativeGeoAddress10setAddressERKNS_11QGeoAddressE 0x00022e64   Data           0  qdeclarativegeoaddress.o(.ARM.extab)
    .extab._ZN10QtMobility26QDeclarativeGeoBoundingBox22synchronizeDeclarativeEv 0x00022eac   Data           0  qdeclarativegeoboundingbox.o(.ARM.extab)
    .extab._ZN10QtMobility26QDeclarativeGeoBoundingBox9setCenterEPNS_22QDeclarativeCoordinateE 0x00022edc   Data           0  qdeclarativegeoboundingbox.o(.ARM.extab)
    .extab._ZN10QtMobility26QDeclarativeGeoBoundingBox11setTopRightEPNS_22QDeclarativeCoordinateE 0x00022f04   Data           0  qdeclarativegeoboundingbox.o(.ARM.extab)
    .extab._ZN10QtMobility26QDeclarativeGeoBoundingBox10setTopLeftEPNS_22QDeclarativeCoordinateE 0x00022f2c   Data           0  qdeclarativegeoboundingbox.o(.ARM.extab)
    .extab._ZN10QtMobility26QDeclarativeGeoBoundingBox14setBottomRightEPNS_22QDeclarativeCoordinateE 0x00022f54   Data           0  qdeclarativegeoboundingbox.o(.ARM.extab)
    .extab._ZN10QtMobility26QDeclarativeGeoBoundingBox13setBottomLeftEPNS_22QDeclarativeCoordinateE 0x00022f7c   Data           0  qdeclarativegeoboundingbox.o(.ARM.extab)
    .extab._ZN10QtMobility26QDeclarativeGeoBoundingBoxC1EP7QObject 0x00022fa4   Data           0  qdeclarativegeoboundingbox.o(.ARM.extab)
    .extab._ZN10QtMobility26QDeclarativeGeoBoundingBoxC1ERKNS_15QGeoBoundingBoxEP7QObject 0x00022fe4   Data           0  qdeclarativegeoboundingbox.o(.ARM.extab)
    .constdata$1                             0x00023074   Data           0  qdeclarativeposition.o(.constdata)
    .constdata                               0x00023074   Section      972  qdeclarativeposition.o(.constdata)
    QtMobility::qt_meta_data_QDeclarativePosition 0x00023084   Data         456  qdeclarativeposition.o(.constdata)
    QtMobility::qt_meta_stringdata_QDeclarativePosition 0x0002324c   Data         500  qdeclarativeposition.o(.constdata)
    .constdata$1                             0x00023440   Data           0  location.o(.constdata)
    qt_meta_data_QLocationDeclarativeModule  0x00023440   Data          60  location.o(.constdata)
    .constdata                               0x00023440   Section     1793  location.o(.constdata)
    qt_meta_stringdata_QLocationDeclarativeModule 0x0002347c   Data          28  location.o(.constdata)
    qt_plugin_verification_data              0x00023498   Data          91  location.o(.constdata)
    .constdata$1                             0x00023b44   Data           0  qdeclarativepositionsource.o(.constdata)
    .constdata                               0x00023b44   Section      803  qdeclarativepositionsource.o(.constdata)
    QtMobility::qt_meta_data_QDeclarativePositionSource 0x00023b54   Data         368  qdeclarativepositionsource.o(.constdata)
    QtMobility::qt_meta_stringdata_QDeclarativePositionSource 0x00023cc4   Data         419  qdeclarativepositionsource.o(.constdata)
    .constdata$1                             0x00023e68   Data           0  qdeclarativelandmark.o(.constdata)
    .constdata                               0x00023e68   Section      531  qdeclarativelandmark.o(.constdata)
    QtMobility::qt_meta_data_QDeclarativeLandmark 0x00023e78   Data         296  qdeclarativelandmark.o(.constdata)
    QtMobility::qt_meta_stringdata_QDeclarativeLandmark 0x00023fa0   Data         219  qdeclarativelandmark.o(.constdata)
    .constdata$1                             0x0002407c   Data           0  qdeclarativelandmarkmodel.o(.constdata)
    .constdata                               0x0002407c   Section     1692  qdeclarativelandmarkmodel.o(.constdata)
    QtMobility::qt_meta_data_QDeclarativeLandmarkAbstractModel 0x0002409c   Data         488  qdeclarativelandmarkmodel.o(.constdata)
    QtMobility::qt_meta_stringdata_QDeclarativeLandmarkAbstractModel 0x00024284   Data         445  qdeclarativelandmarkmodel.o(.constdata)
    QtMobility::qt_meta_data_QDeclarativeLandmarkModel 0x00024444   Data         344  qdeclarativelandmarkmodel.o(.constdata)
    QtMobility::qt_meta_stringdata_QDeclarativeLandmarkModel 0x0002459c   Data         380  qdeclarativelandmarkmodel.o(.constdata)
    .constdata$1                             0x00024718   Data           0  qdeclarativelandmarkcategorymodel.o(.constdata)
    .constdata                               0x00024718   Section      533  qdeclarativelandmarkcategorymodel.o(.constdata)
    QtMobility::qt_meta_data_QDeclarativeLandmarkCategoryModel 0x00024728   Data         228  qdeclarativelandmarkcategorymodel.o(.constdata)
    QtMobility::qt_meta_stringdata_QDeclarativeLandmarkCategoryModel 0x0002480c   Data         289  qdeclarativelandmarkcategorymodel.o(.constdata)
    .constdata$1                             0x00024930   Data           0  qdeclarativelandmarkcategory.o(.constdata)
    .constdata                               0x00024930   Section      242  qdeclarativelandmarkcategory.o(.constdata)
    QtMobility::qt_meta_data_QDeclarativeLandmarkCategory 0x00024940   Data         132  qdeclarativelandmarkcategory.o(.constdata)
    QtMobility::qt_meta_stringdata_QDeclarativeLandmarkCategory 0x000249c4   Data          94  qdeclarativelandmarkcategory.o(.constdata)
    .constdata$1                             0x00024a24   Data           0  qdeclarativelandmarkfilters.o(.constdata)
    .constdata                               0x00024a24   Section     1504  qdeclarativelandmarkfilters.o(.constdata)
    QtMobility::qt_meta_data_QDeclarativeLandmarkFilterBase 0x00024aa4   Data          80  qdeclarativelandmarkfilters.o(.constdata)
    QtMobility::qt_meta_stringdata_QDeclarativeLandmarkFilterBase 0x00024af4   Data          56  qdeclarativelandmarkfilters.o(.constdata)
    QtMobility::qt_meta_data_QDeclarativeLandmarkCompoundFilter 0x00024b2c   Data          80  qdeclarativelandmarkfilters.o(.constdata)
    QtMobility::qt_meta_stringdata_QDeclarativeLandmarkCompoundFilter 0x00024b7c   Data         117  qdeclarativelandmarkfilters.o(.constdata)
    QtMobility::qt_meta_data_QDeclarativeLandmarkCategoryFilter 0x00024bf4   Data          96  qdeclarativelandmarkfilters.o(.constdata)
    QtMobility::qt_meta_stringdata_QDeclarativeLandmarkCategoryFilter 0x00024c54   Data          94  qdeclarativelandmarkfilters.o(.constdata)
    QtMobility::qt_meta_data_QDeclarativeLandmarkBoxFilter 0x00024cb4   Data         132  qdeclarativelandmarkfilters.o(.constdata)
    QtMobility::qt_meta_stringdata_QDeclarativeLandmarkBoxFilter 0x00024d38   Data         114  qdeclarativelandmarkfilters.o(.constdata)
    QtMobility::qt_meta_data_QDeclarativeLandmarkNameFilter 0x00024dac   Data          96  qdeclarativelandmarkfilters.o(.constdata)
    QtMobility::qt_meta_stringdata_QDeclarativeLandmarkNameFilter 0x00024e0c   Data          60  qdeclarativelandmarkfilters.o(.constdata)
    QtMobility::qt_meta_data_QDeclarativeLandmarkProximityFilter 0x00024e48   Data         132  qdeclarativelandmarkfilters.o(.constdata)
    QtMobility::qt_meta_stringdata_QDeclarativeLandmarkProximityFilter 0x00024ecc   Data         115  qdeclarativelandmarkfilters.o(.constdata)
    QtMobility::qt_meta_data_QDeclarativeLandmarkUnionFilter 0x00024f40   Data          60  qdeclarativelandmarkfilters.o(.constdata)
    QtMobility::qt_meta_stringdata_QDeclarativeLandmarkUnionFilter 0x00024f7c   Data          33  qdeclarativelandmarkfilters.o(.constdata)
    QtMobility::qt_meta_data_QDeclarativeLandmarkIntersectionFilter 0x00024fa0   Data          60  qdeclarativelandmarkfilters.o(.constdata)
    QtMobility::qt_meta_stringdata_QDeclarativeLandmarkIntersectionFilter 0x00024fdc   Data          40  qdeclarativelandmarkfilters.o(.constdata)
    .constdata$1                             0x00025004   Data           0  qdeclarativecoordinate.o(.constdata)
    .constdata                               0x00025004   Section      375  qdeclarativecoordinate.o(.constdata)
    QtMobility::qt_meta_data_QDeclarativeCoordinate 0x00025014   Data         188  qdeclarativecoordinate.o(.constdata)
    QtMobility::qt_meta_stringdata_QDeclarativeCoordinate 0x000250d0   Data         171  qdeclarativecoordinate.o(.constdata)
    .constdata$1                             0x0002517c   Data           0  qdeclarativegeomapobject.o(.constdata)
    .constdata                               0x0002517c   Section      186  qdeclarativegeomapobject.o(.constdata)
    QtMobility::qt_meta_data_QDeclarativeGeoMapObject 0x0002518c   Data          80  qdeclarativegeomapobject.o(.constdata)
    QtMobility::qt_meta_stringdata_QDeclarativeGeoMapObject 0x000251dc   Data          90  qdeclarativegeomapobject.o(.constdata)
    .constdata$1                             0x00025238   Data           0  qdeclarativegeomapobjectborder.o(.constdata)
    .constdata                               0x00025238   Section      243  qdeclarativegeomapobjectborder.o(.constdata)
    QtMobility::qt_meta_data_QDeclarativeGeoMapObjectBorder 0x00025248   Data         132  qdeclarativegeomapobjectborder.o(.constdata)
    QtMobility::qt_meta_stringdata_QDeclarativeGeoMapObjectBorder 0x000252cc   Data          95  qdeclarativegeomapobjectborder.o(.constdata)
    .constdata$1                             0x0002532c   Data           0  qdeclarativegeomapcircleobject.o(.constdata)
    .constdata                               0x0002532c   Section      633  qdeclarativegeomapcircleobject.o(.constdata)
    QtMobility::qt_meta_data_QDeclarativeGeoMapCircleObject 0x0002533c   Data         248  qdeclarativegeomapcircleobject.o(.constdata)
    QtMobility::qt_meta_stringdata_QDeclarativeGeoMapCircleObject 0x00025434   Data         369  qdeclarativegeomapcircleobject.o(.constdata)
    .constdata$1                             0x000255a8   Data           0  qdeclarativegeomappixmapobject.o(.constdata)
    .constdata                               0x000255a8   Section      768  qdeclarativegeomappixmapobject.o(.constdata)
    QtMobility::qt_meta_data_QDeclarativeGeoMapPixmapObject 0x000255b8   Data         316  qdeclarativegeomappixmapobject.o(.constdata)
    QtMobility::qt_meta_stringdata_QDeclarativeGeoMapPixmapObject 0x000256f4   Data         436  qdeclarativegeomappixmapobject.o(.constdata)
    .constdata$1                             0x000258a8   Data           0  qdeclarativegeomappolygonobject.o(.constdata)
    .constdata                               0x000258a8   Section      426  qdeclarativegeomappolygonobject.o(.constdata)
    QtMobility::qt_meta_data_QDeclarativeGeoMapPolygonObject 0x000258b8   Data         176  qdeclarativegeomappolygonobject.o(.constdata)
    QtMobility::qt_meta_stringdata_QDeclarativeGeoMapPolygonObject 0x00025968   Data         234  qdeclarativegeomappolygonobject.o(.constdata)
    .constdata$1                             0x00025a54   Data           0  qdeclarativegeomappolylineobject.o(.constdata)
    .constdata                               0x00025a54   Section      355  qdeclarativegeomappolylineobject.o(.constdata)
    QtMobility::qt_meta_data_QDeclarativeGeoMapPolylineObject 0x00025a64   Data         132  qdeclarativegeomappolylineobject.o(.constdata)
    QtMobility::qt_meta_stringdata_QDeclarativeGeoMapPolylineObject 0x00025ae8   Data         207  qdeclarativegeomappolylineobject.o(.constdata)
    .constdata$1                             0x00025bb8   Data           0  qdeclarativegeomaprectangleobject.o(.constdata)
    .constdata                               0x00025bb8   Section      923  qdeclarativegeomaprectangleobject.o(.constdata)
    QtMobility::qt_meta_data_QDeclarativeGeoMapRectangleObject 0x00025bc8   Data         344  qdeclarativegeomaprectangleobject.o(.constdata)
    QtMobility::qt_meta_stringdata_QDeclarativeGeoMapRectangleObject 0x00025d20   Data         563  qdeclarativegeomaprectangleobject.o(.constdata)
    .constdata$1                             0x00025f54   Data           0  qdeclarativegeomaptextobject.o(.constdata)
    .constdata                               0x00025f54   Section      897  qdeclarativegeomaptextobject.o(.constdata)
    QtMobility::qt_meta_data_QDeclarativeGeoMapTextObject 0x00025f64   Data         344  qdeclarativegeomaptextobject.o(.constdata)
    QtMobility::qt_meta_stringdata_QDeclarativeGeoMapTextObject 0x000260bc   Data         537  qdeclarativegeomaptextobject.o(.constdata)
    .constdata$1                             0x000262d8   Data           0  qdeclarativegeoserviceprovider.o(.constdata)
    .constdata                               0x000262d8   Section      560  qdeclarativegeoserviceprovider.o(.constdata)
    QtMobility::qt_meta_data_QDeclarativeGeoServiceProviderParameter 0x000262f8   Data         132  qdeclarativegeoserviceprovider.o(.constdata)
    QtMobility::qt_meta_stringdata_QDeclarativeGeoServiceProviderParameter 0x0002637c   Data         114  qdeclarativegeoserviceprovider.o(.constdata)
    QtMobility::qt_meta_data_QDeclarativeGeoServiceProvider 0x000263f0   Data         120  qdeclarativegeoserviceprovider.o(.constdata)
    QtMobility::qt_meta_stringdata_QDeclarativeGeoServiceProvider 0x00026468   Data         160  qdeclarativegeoserviceprovider.o(.constdata)
    .constdata$1                             0x00026508   Data           0  qdeclarativegraphicsgeomap.o(.constdata)
    .constdata                               0x00026508   Section     1796  qdeclarativegraphicsgeomap.o(.constdata)
    QtMobility::qt_meta_data_QDeclarativeGraphicsGeoMap 0x00026518   Data         636  qdeclarativegraphicsgeomap.o(.constdata)
    QtMobility::qt_meta_stringdata_QDeclarativeGraphicsGeoMap 0x00026794   Data        1076  qdeclarativegraphicsgeomap.o(.constdata)
    .constdata$1                             0x00026c0c   Data           0  qdeclarativegeosearchmodel.o(.constdata)
    .constdata                               0x00026c0c   Section      499  qdeclarativegeosearchmodel.o(.constdata)
    QtMobility::qt_meta_data_QDeclarativeGeoSearchModel 0x00026c1c   Data         192  qdeclarativegeosearchmodel.o(.constdata)
    QtMobility::qt_meta_stringdata_QDeclarativeGeoSearchModel 0x00026cdc   Data         291  qdeclarativegeosearchmodel.o(.constdata)
    .constdata$1                             0x00026e00   Data           0  qdeclarativegeocodemodel.o(.constdata)
    .constdata                               0x00026e00   Section      211  qdeclarativegeocodemodel.o(.constdata)
    QtMobility::qt_meta_data_QDeclarativeGeocodeModel 0x00026e10   Data          96  qdeclarativegeocodemodel.o(.constdata)
    QtMobility::qt_meta_stringdata_QDeclarativeGeocodeModel 0x00026e70   Data          99  qdeclarativegeocodemodel.o(.constdata)
    .constdata$1                             0x00026ed4   Data           0  qdeclarativereversegeocodemodel.o(.constdata)
    .constdata                               0x00026ed4   Section      224  qdeclarativereversegeocodemodel.o(.constdata)
    QtMobility::qt_meta_data_QDeclarativeReverseGeocodeModel 0x00026ee4   Data          96  qdeclarativereversegeocodemodel.o(.constdata)
    QtMobility::qt_meta_stringdata_QDeclarativeReverseGeocodeModel 0x00026f44   Data         112  qdeclarativereversegeocodemodel.o(.constdata)
    .constdata$1                             0x00026fb4   Data           0  qdeclarativegeoplace.o(.constdata)
    .constdata                               0x00026fb4   Section      366  qdeclarativegeoplace.o(.constdata)
    QtMobility::qt_meta_data_QDeclarativeGeoPlace 0x00026fc4   Data         168  qdeclarativegeoplace.o(.constdata)
    QtMobility::qt_meta_stringdata_QDeclarativeGeoPlace 0x0002706c   Data         182  qdeclarativegeoplace.o(.constdata)
    .constdata$1                             0x00027124   Data           0  qdeclarativegeoaddress.o(.constdata)
    .constdata                               0x00027124   Section      595  qdeclarativegeoaddress.o(.constdata)
    QtMobility::qt_meta_data_QDeclarativeGeoAddress 0x00027134   Data         348  qdeclarativegeoaddress.o(.constdata)
    QtMobility::qt_meta_stringdata_QDeclarativeGeoAddress 0x00027290   Data         231  qdeclarativegeoaddress.o(.constdata)
    .constdata$1                             0x00027378   Data           0  qdeclarativegeoboundingbox.o(.constdata)
    .constdata                               0x00027378   Section      571  qdeclarativegeoboundingbox.o(.constdata)
    QtMobility::qt_meta_data_QDeclarativeGeoBoundingBox 0x00027388   Data         312  qdeclarativegeoboundingbox.o(.constdata)
    QtMobility::qt_meta_stringdata_QDeclarativeGeoBoundingBox 0x000274c0   Data         243  qdeclarativegeoboundingbox.o(.constdata)
    .constdata__ZN9stlp_priv15_Integer_limitsIaLan128ELa127ELin1ELb1EE6digitsE 0x000275b4   Section        4  qdeclarativeposition.o(.constdata__ZN9stlp_priv15_Integer_limitsIaLan128ELa127ELin1ELb1EE6digitsE)
    .constdata__ZN9stlp_priv15_Integer_limitsIbLb0ELb1ELi1ELb0EE6digitsE 0x000275b8   Section        4  qdeclarativeposition.o(.constdata__ZN9stlp_priv15_Integer_limitsIbLb0ELb1ELi1ELb0EE6digitsE)
    .constdata__ZN9stlp_priv15_Integer_limitsIcLc128ELc127ELin1ELb1EE6digitsE 0x000275bc   Section        4  qdeclarativeposition.o(.constdata__ZN9stlp_priv15_Integer_limitsIcLc128ELc127ELin1ELb1EE6digitsE)
    .constdata__ZN9stlp_priv15_Integer_limitsIhLh0ELh255ELin1ELb1EE6digitsE 0x000275c0   Section        4  qdeclarativeposition.o(.constdata__ZN9stlp_priv15_Integer_limitsIhLh0ELh255ELin1ELb1EE6digitsE)
    .constdata__ZN9stlp_priv15_Integer_limitsIiLin2147483648ELi2147483647ELin1ELb1EE6digitsE 0x000275c4   Section        4  qdeclarativeposition.o(.constdata__ZN9stlp_priv15_Integer_limitsIiLin2147483648ELi2147483647ELin1ELb1EE6digitsE)
    .constdata__ZN9stlp_priv15_Integer_limitsIiLin2147483648ELi2147483647ELin1ELb1EE9is_signedE 0x000275c8   Section        1  qdeclarativeposition.o(.constdata__ZN9stlp_priv15_Integer_limitsIiLin2147483648ELi2147483647ELin1ELb1EE9is_signedE)
    .constdata__ZN9stlp_priv15_Integer_limitsIjLj0ELj4294967295ELin1ELb1EE6digitsE 0x000275cc   Section        4  qdeclarativeposition.o(.constdata__ZN9stlp_priv15_Integer_limitsIjLj0ELj4294967295ELin1ELb1EE6digitsE)
    .constdata__ZN9stlp_priv15_Integer_limitsIlLln2147483648ELl2147483647ELin1ELb1EE6digitsE 0x000275d0   Section        4  qdeclarativeposition.o(.constdata__ZN9stlp_priv15_Integer_limitsIlLln2147483648ELl2147483647ELin1ELb1EE6digitsE)
    .constdata__ZN9stlp_priv15_Integer_limitsImLm0ELm4294967295ELin1ELb1EE6digitsE 0x000275d4   Section        4  qdeclarativeposition.o(.constdata__ZN9stlp_priv15_Integer_limitsImLm0ELm4294967295ELin1ELb1EE6digitsE)
    .constdata__ZN9stlp_priv15_Integer_limitsIsLsn32768ELs32767ELin1ELb1EE6digitsE 0x000275d8   Section        4  qdeclarativeposition.o(.constdata__ZN9stlp_priv15_Integer_limitsIsLsn32768ELs32767ELin1ELb1EE6digitsE)
    .constdata__ZN9stlp_priv15_Integer_limitsItLt0ELt65535ELin1ELb1EE6digitsE 0x000275dc   Section        4  qdeclarativeposition.o(.constdata__ZN9stlp_priv15_Integer_limitsItLt0ELt65535ELin1ELb1EE6digitsE)
    .constdata__ZN9stlp_priv15_Integer_limitsIwLw0ELw65535ELin1ELb1EE6digitsE 0x000275e0   Section        4  qdeclarativeposition.o(.constdata__ZN9stlp_priv15_Integer_limitsIwLw0ELw65535ELin1ELb1EE6digitsE)
    .constdata__ZN9stlp_priv15_Integer_limitsIxLxn9223372036854775808ELx9223372036854775807ELin1ELb1EE6digitsE 0x000275e4   Section        4  qdeclarativeposition.o(.constdata__ZN9stlp_priv15_Integer_limitsIxLxn9223372036854775808ELx9223372036854775807ELin1ELb1EE6digitsE)
    .constdata__ZN9stlp_priv15_Integer_limitsIyLy0ELy18446744073709551615ELin1ELb1EE6digitsE 0x000275e8   Section        4  qdeclarativeposition.o(.constdata__ZN9stlp_priv15_Integer_limitsIyLy0ELy18446744073709551615ELin1ELb1EE6digitsE)
    .constdata__ZTI26QLocationDeclarativeModule 0x000275ec   Section       12  location.o(.constdata__ZTI26QLocationDeclarativeModule)
    .constdata__ZTIN10QtMobility20QDeclarativeGeoPlaceE 0x000275f8   Section       12  qdeclarativegeoplace.o(.constdata__ZTIN10QtMobility20QDeclarativeGeoPlaceE)
    .constdata__ZTIN10QtMobility20QDeclarativeLandmarkE 0x00027604   Section       12  qdeclarativelandmark.o(.constdata__ZTIN10QtMobility20QDeclarativeLandmarkE)
    .constdata__ZTIN10QtMobility20QDeclarativePositionE 0x00027610   Section       12  qdeclarativeposition.o(.constdata__ZTIN10QtMobility20QDeclarativePositionE)
    .constdata__ZTIN10QtMobility22QDeclarativeCoordinateE 0x0002761c   Section       12  qdeclarativecoordinate.o(.constdata__ZTIN10QtMobility22QDeclarativeCoordinateE)
    .constdata__ZTIN10QtMobility22QDeclarativeGeoAddressE 0x00027628   Section       12  qdeclarativegeoaddress.o(.constdata__ZTIN10QtMobility22QDeclarativeGeoAddressE)
    .constdata__ZTIN10QtMobility24QDeclarativeGeoMapObjectE 0x00027634   Section       12  qdeclarativegeomapobject.o(.constdata__ZTIN10QtMobility24QDeclarativeGeoMapObjectE)
    .constdata__ZTIN10QtMobility24QDeclarativeGeocodeModelE 0x00027640   Section       12  qdeclarativegeocodemodel.o(.constdata__ZTIN10QtMobility24QDeclarativeGeocodeModelE)
    .constdata__ZTIN10QtMobility25QDeclarativeLandmarkModelE 0x0002764c   Section       12  qdeclarativelandmarkmodel.o(.constdata__ZTIN10QtMobility25QDeclarativeLandmarkModelE)
    .constdata__ZTIN10QtMobility26QDeclarativeGeoBoundingBoxE 0x00027658   Section       12  qdeclarativegeoboundingbox.o(.constdata__ZTIN10QtMobility26QDeclarativeGeoBoundingBoxE)
    .constdata__ZTIN10QtMobility26QDeclarativeGeoSearchModelE 0x00027664   Section       32  qdeclarativegeosearchmodel.o(.constdata__ZTIN10QtMobility26QDeclarativeGeoSearchModelE)
    .constdata__ZTIN10QtMobility26QDeclarativeGraphicsGeoMapE 0x00027684   Section       12  qdeclarativegraphicsgeomap.o(.constdata__ZTIN10QtMobility26QDeclarativeGraphicsGeoMapE)
    .constdata__ZTIN10QtMobility26QDeclarativePositionSourceE 0x00027690   Section       12  qdeclarativepositionsource.o(.constdata__ZTIN10QtMobility26QDeclarativePositionSourceE)
    .constdata__ZTIN10QtMobility28QDeclarativeGeoMapTextObjectE 0x0002769c   Section       12  qdeclarativegeomaptextobject.o(.constdata__ZTIN10QtMobility28QDeclarativeGeoMapTextObjectE)
    .constdata__ZTIN10QtMobility28QDeclarativeLandmarkCategoryE 0x000276a8   Section       12  qdeclarativelandmarkcategory.o(.constdata__ZTIN10QtMobility28QDeclarativeLandmarkCategoryE)
    .constdata__ZTIN10QtMobility29QDeclarativeLandmarkBoxFilterE 0x000276b4   Section       12  qdeclarativelandmarkfilters.o(.constdata__ZTIN10QtMobility29QDeclarativeLandmarkBoxFilterE)
    .constdata__ZTIN10QtMobility30QDeclarativeGeoMapCircleObjectE 0x000276c0   Section       12  qdeclarativegeomapcircleobject.o(.constdata__ZTIN10QtMobility30QDeclarativeGeoMapCircleObjectE)
    .constdata__ZTIN10QtMobility30QDeclarativeGeoMapObjectBorderE 0x000276cc   Section       12  qdeclarativegeomapobjectborder.o(.constdata__ZTIN10QtMobility30QDeclarativeGeoMapObjectBorderE)
    .constdata__ZTIN10QtMobility30QDeclarativeGeoMapPixmapObjectE 0x000276d8   Section       12  qdeclarativegeomappixmapobject.o(.constdata__ZTIN10QtMobility30QDeclarativeGeoMapPixmapObjectE)
    .constdata__ZTIN10QtMobility30QDeclarativeGeoServiceProviderE 0x000276e4   Section       12  qdeclarativegeoserviceprovider.o(.constdata__ZTIN10QtMobility30QDeclarativeGeoServiceProviderE)
    .constdata__ZTIN10QtMobility30QDeclarativeLandmarkFilterBaseE 0x000276f0   Section       12  qdeclarativelandmarkfilters.o(.constdata__ZTIN10QtMobility30QDeclarativeLandmarkFilterBaseE)
    .constdata__ZTIN10QtMobility30QDeclarativeLandmarkNameFilterE 0x000276fc   Section       12  qdeclarativelandmarkfilters.o(.constdata__ZTIN10QtMobility30QDeclarativeLandmarkNameFilterE)
    .constdata__ZTIN10QtMobility31QDeclarativeGeoMapPolygonObjectE 0x00027708   Section       12  qdeclarativegeomappolygonobject.o(.constdata__ZTIN10QtMobility31QDeclarativeGeoMapPolygonObjectE)
    .constdata__ZTIN10QtMobility31QDeclarativeLandmarkUnionFilterE 0x00027714   Section       12  qdeclarativelandmarkfilters.o(.constdata__ZTIN10QtMobility31QDeclarativeLandmarkUnionFilterE)
    .constdata__ZTIN10QtMobility31QDeclarativeReverseGeocodeModelE 0x00027720   Section       12  qdeclarativereversegeocodemodel.o(.constdata__ZTIN10QtMobility31QDeclarativeReverseGeocodeModelE)
    .constdata__ZTIN10QtMobility32QDeclarativeGeoMapPolylineObjectE 0x0002772c   Section       12  qdeclarativegeomappolylineobject.o(.constdata__ZTIN10QtMobility32QDeclarativeGeoMapPolylineObjectE)
    .constdata__ZTIN10QtMobility33QDeclarativeGeoMapRectangleObjectE 0x00027738   Section       12  qdeclarativegeomaprectangleobject.o(.constdata__ZTIN10QtMobility33QDeclarativeGeoMapRectangleObjectE)
    .constdata__ZTIN10QtMobility33QDeclarativeLandmarkAbstractModelE 0x00027744   Section       32  qdeclarativelandmarkmodel.o(.constdata__ZTIN10QtMobility33QDeclarativeLandmarkAbstractModelE)
    .constdata__ZTIN10QtMobility33QDeclarativeLandmarkCategoryModelE 0x00027764   Section       12  qdeclarativelandmarkcategorymodel.o(.constdata__ZTIN10QtMobility33QDeclarativeLandmarkCategoryModelE)
    .constdata__ZTIN10QtMobility34QDeclarativeLandmarkCategoryFilterE 0x00027770   Section       12  qdeclarativelandmarkfilters.o(.constdata__ZTIN10QtMobility34QDeclarativeLandmarkCategoryFilterE)
    .constdata__ZTIN10QtMobility34QDeclarativeLandmarkCompoundFilterE 0x0002777c   Section       12  qdeclarativelandmarkfilters.o(.constdata__ZTIN10QtMobility34QDeclarativeLandmarkCompoundFilterE)
    .constdata__ZTIN10QtMobility35QDeclarativeLandmarkProximityFilterE 0x00027788   Section       12  qdeclarativelandmarkfilters.o(.constdata__ZTIN10QtMobility35QDeclarativeLandmarkProximityFilterE)
    .constdata__ZTIN10QtMobility38QDeclarativeLandmarkIntersectionFilterE 0x00027794   Section       12  qdeclarativelandmarkfilters.o(.constdata__ZTIN10QtMobility38QDeclarativeLandmarkIntersectionFilterE)
    .constdata__ZTIN10QtMobility39QDeclarativeGeoServiceProviderParameterE 0x000277a0   Section       12  qdeclarativegeoserviceprovider.o(.constdata__ZTIN10QtMobility39QDeclarativeGeoServiceProviderParameterE)
    .constdata__ZTIN19QDeclarativePrivate19QDeclarativeElementIN10QtMobility13QGeoMapObjectEEE 0x000277ac   Section       12  location.o(.constdata__ZTIN19QDeclarativePrivate19QDeclarativeElementIN10QtMobility13QGeoMapObjectEEE)
    .constdata__ZTIN19QDeclarativePrivate19QDeclarativeElementIN10QtMobility20QDeclarativeGeoPlaceEEE 0x000277b8   Section       12  location.o(.constdata__ZTIN19QDeclarativePrivate19QDeclarativeElementIN10QtMobility20QDeclarativeGeoPlaceEEE)
    .constdata__ZTIN19QDeclarativePrivate19QDeclarativeElementIN10QtMobility20QDeclarativeLandmarkEEE 0x000277c4   Section       12  location.o(.constdata__ZTIN19QDeclarativePrivate19QDeclarativeElementIN10QtMobility20QDeclarativeLandmarkEEE)
    .constdata__ZTIN19QDeclarativePrivate19QDeclarativeElementIN10QtMobility20QDeclarativePositionEEE 0x000277d0   Section       12  location.o(.constdata__ZTIN19QDeclarativePrivate19QDeclarativeElementIN10QtMobility20QDeclarativePositionEEE)
    .constdata__ZTIN19QDeclarativePrivate19QDeclarativeElementIN10QtMobility22QDeclarativeCoordinateEEE 0x000277dc   Section       12  location.o(.constdata__ZTIN19QDeclarativePrivate19QDeclarativeElementIN10QtMobility22QDeclarativeCoordinateEEE)
    .constdata__ZTIN19QDeclarativePrivate19QDeclarativeElementIN10QtMobility22QDeclarativeGeoAddressEEE 0x000277e8   Section       12  location.o(.constdata__ZTIN19QDeclarativePrivate19QDeclarativeElementIN10QtMobility22QDeclarativeGeoAddressEEE)
    .constdata__ZTIN19QDeclarativePrivate19QDeclarativeElementIN10QtMobility24QDeclarativeGeoMapObjectEEE 0x000277f4   Section       12  location.o(.constdata__ZTIN19QDeclarativePrivate19QDeclarativeElementIN10QtMobility24QDeclarativeGeoMapObjectEEE)
    .constdata__ZTIN19QDeclarativePrivate19QDeclarativeElementIN10QtMobility24QDeclarativeGeocodeModelEEE 0x00027800   Section       12  location.o(.constdata__ZTIN19QDeclarativePrivate19QDeclarativeElementIN10QtMobility24QDeclarativeGeocodeModelEEE)
    .constdata__ZTIN19QDeclarativePrivate19QDeclarativeElementIN10QtMobility25QDeclarativeLandmarkModelEEE 0x0002780c   Section       12  location.o(.constdata__ZTIN19QDeclarativePrivate19QDeclarativeElementIN10QtMobility25QDeclarativeLandmarkModelEEE)
    .constdata__ZTIN19QDeclarativePrivate19QDeclarativeElementIN10QtMobility26QDeclarativeGeoBoundingBoxEEE 0x00027818   Section       12  location.o(.constdata__ZTIN19QDeclarativePrivate19QDeclarativeElementIN10QtMobility26QDeclarativeGeoBoundingBoxEEE)
    .constdata__ZTIN19QDeclarativePrivate19QDeclarativeElementIN10QtMobility26QDeclarativeGraphicsGeoMapEEE 0x00027824   Section       12  location.o(.constdata__ZTIN19QDeclarativePrivate19QDeclarativeElementIN10QtMobility26QDeclarativeGraphicsGeoMapEEE)
    .constdata__ZTIN19QDeclarativePrivate19QDeclarativeElementIN10QtMobility26QDeclarativePositionSourceEEE 0x00027830   Section       12  location.o(.constdata__ZTIN19QDeclarativePrivate19QDeclarativeElementIN10QtMobility26QDeclarativePositionSourceEEE)
    .constdata__ZTIN19QDeclarativePrivate19QDeclarativeElementIN10QtMobility28QDeclarativeGeoMapTextObjectEEE 0x0002783c   Section       12  location.o(.constdata__ZTIN19QDeclarativePrivate19QDeclarativeElementIN10QtMobility28QDeclarativeGeoMapTextObjectEEE)
    .constdata__ZTIN19QDeclarativePrivate19QDeclarativeElementIN10QtMobility28QDeclarativeLandmarkCategoryEEE 0x00027848   Section       12  location.o(.constdata__ZTIN19QDeclarativePrivate19QDeclarativeElementIN10QtMobility28QDeclarativeLandmarkCategoryEEE)
    .constdata__ZTIN19QDeclarativePrivate19QDeclarativeElementIN10QtMobility29QDeclarativeLandmarkBoxFilterEEE 0x00027854   Section       12  location.o(.constdata__ZTIN19QDeclarativePrivate19QDeclarativeElementIN10QtMobility29QDeclarativeLandmarkBoxFilterEEE)
    .constdata__ZTIN19QDeclarativePrivate19QDeclarativeElementIN10QtMobility30QDeclarativeGeoMapCircleObjectEEE 0x00027860   Section       12  location.o(.constdata__ZTIN19QDeclarativePrivate19QDeclarativeElementIN10QtMobility30QDeclarativeGeoMapCircleObjectEEE)
    .constdata__ZTIN19QDeclarativePrivate19QDeclarativeElementIN10QtMobility30QDeclarativeGeoMapPixmapObjectEEE 0x0002786c   Section       12  location.o(.constdata__ZTIN19QDeclarativePrivate19QDeclarativeElementIN10QtMobility30QDeclarativeGeoMapPixmapObjectEEE)
    .constdata__ZTIN19QDeclarativePrivate19QDeclarativeElementIN10QtMobility30QDeclarativeGeoServiceProviderEEE 0x00027878   Section       12  location.o(.constdata__ZTIN19QDeclarativePrivate19QDeclarativeElementIN10QtMobility30QDeclarativeGeoServiceProviderEEE)
    .constdata__ZTIN19QDeclarativePrivate19QDeclarativeElementIN10QtMobility30QDeclarativeLandmarkNameFilterEEE 0x00027884   Section       12  location.o(.constdata__ZTIN19QDeclarativePrivate19QDeclarativeElementIN10QtMobility30QDeclarativeLandmarkNameFilterEEE)
    .constdata__ZTIN19QDeclarativePrivate19QDeclarativeElementIN10QtMobility31QDeclarativeGeoMapPolygonObjectEEE 0x00027890   Section       12  location.o(.constdata__ZTIN19QDeclarativePrivate19QDeclarativeElementIN10QtMobility31QDeclarativeGeoMapPolygonObjectEEE)
    .constdata__ZTIN19QDeclarativePrivate19QDeclarativeElementIN10QtMobility31QDeclarativeLandmarkUnionFilterEEE 0x0002789c   Section       12  location.o(.constdata__ZTIN19QDeclarativePrivate19QDeclarativeElementIN10QtMobility31QDeclarativeLandmarkUnionFilterEEE)
    .constdata__ZTIN19QDeclarativePrivate19QDeclarativeElementIN10QtMobility31QDeclarativeReverseGeocodeModelEEE 0x000278a8   Section       12  location.o(.constdata__ZTIN19QDeclarativePrivate19QDeclarativeElementIN10QtMobility31QDeclarativeReverseGeocodeModelEEE)
    .constdata__ZTIN19QDeclarativePrivate19QDeclarativeElementIN10QtMobility32QDeclarativeGeoMapPolylineObjectEEE 0x000278b4   Section       12  location.o(.constdata__ZTIN19QDeclarativePrivate19QDeclarativeElementIN10QtMobility32QDeclarativeGeoMapPolylineObjectEEE)
    .constdata__ZTIN19QDeclarativePrivate19QDeclarativeElementIN10QtMobility33QDeclarativeGeoMapRectangleObjectEEE 0x000278c0   Section       12  location.o(.constdata__ZTIN19QDeclarativePrivate19QDeclarativeElementIN10QtMobility33QDeclarativeGeoMapRectangleObjectEEE)
    .constdata__ZTIN19QDeclarativePrivate19QDeclarativeElementIN10QtMobility33QDeclarativeLandmarkCategoryModelEEE 0x000278cc   Section       12  location.o(.constdata__ZTIN19QDeclarativePrivate19QDeclarativeElementIN10QtMobility33QDeclarativeLandmarkCategoryModelEEE)
    .constdata__ZTIN19QDeclarativePrivate19QDeclarativeElementIN10QtMobility34QDeclarativeLandmarkCategoryFilterEEE 0x000278d8   Section       12  location.o(.constdata__ZTIN19QDeclarativePrivate19QDeclarativeElementIN10QtMobility34QDeclarativeLandmarkCategoryFilterEEE)
    .constdata__ZTIN19QDeclarativePrivate19QDeclarativeElementIN10QtMobility35QDeclarativeLandmarkProximityFilterEEE 0x000278e4   Section       12  location.o(.constdata__ZTIN19QDeclarativePrivate19QDeclarativeElementIN10QtMobility35QDeclarativeLandmarkProximityFilterEEE)
    .constdata__ZTIN19QDeclarativePrivate19QDeclarativeElementIN10QtMobility38QDeclarativeLandmarkIntersectionFilterEEE 0x000278f0   Section       12  location.o(.constdata__ZTIN19QDeclarativePrivate19QDeclarativeElementIN10QtMobility38QDeclarativeLandmarkIntersectionFilterEEE)
    .constdata__ZTIN19QDeclarativePrivate19QDeclarativeElementIN10QtMobility39QDeclarativeGeoServiceProviderParameterEEE 0x000278fc   Section       12  location.o(.constdata__ZTIN19QDeclarativePrivate19QDeclarativeElementIN10QtMobility39QDeclarativeGeoServiceProviderParameterEEE)
    .constdata__ZTS26QLocationDeclarativeModule 0x00027908   Section       29  location.o(.constdata__ZTS26QLocationDeclarativeModule)
    .constdata__ZTSN10QtMobility20QDeclarativeGeoPlaceE 0x00027925   Section       37  qdeclarativegeoplace.o(.constdata__ZTSN10QtMobility20QDeclarativeGeoPlaceE)
    .constdata__ZTSN10QtMobility20QDeclarativeLandmarkE 0x0002794a   Section       37  qdeclarativelandmark.o(.constdata__ZTSN10QtMobility20QDeclarativeLandmarkE)
    .constdata__ZTSN10QtMobility20QDeclarativePositionE 0x0002796f   Section       37  qdeclarativeposition.o(.constdata__ZTSN10QtMobility20QDeclarativePositionE)
    .constdata__ZTSN10QtMobility22QDeclarativeCoordinateE 0x00027994   Section       39  qdeclarativecoordinate.o(.constdata__ZTSN10QtMobility22QDeclarativeCoordinateE)
    .constdata__ZTSN10QtMobility22QDeclarativeGeoAddressE 0x000279bb   Section       39  qdeclarativegeoaddress.o(.constdata__ZTSN10QtMobility22QDeclarativeGeoAddressE)
    .constdata__ZTSN10QtMobility24QDeclarativeGeoMapObjectE 0x000279e2   Section       41  qdeclarativegeomapobject.o(.constdata__ZTSN10QtMobility24QDeclarativeGeoMapObjectE)
    .constdata__ZTSN10QtMobility24QDeclarativeGeocodeModelE 0x00027a0b   Section       41  qdeclarativegeocodemodel.o(.constdata__ZTSN10QtMobility24QDeclarativeGeocodeModelE)
    .constdata__ZTSN10QtMobility25QDeclarativeLandmarkModelE 0x00027a34   Section       42  qdeclarativelandmarkmodel.o(.constdata__ZTSN10QtMobility25QDeclarativeLandmarkModelE)
    .constdata__ZTSN10QtMobility26QDeclarativeGeoBoundingBoxE 0x00027a5e   Section       43  qdeclarativegeoboundingbox.o(.constdata__ZTSN10QtMobility26QDeclarativeGeoBoundingBoxE)
    .constdata__ZTSN10QtMobility26QDeclarativeGeoSearchModelE 0x00027a89   Section       43  qdeclarativegeosearchmodel.o(.constdata__ZTSN10QtMobility26QDeclarativeGeoSearchModelE)
    .constdata__ZTSN10QtMobility26QDeclarativeGraphicsGeoMapE 0x00027ab4   Section       43  qdeclarativegraphicsgeomap.o(.constdata__ZTSN10QtMobility26QDeclarativeGraphicsGeoMapE)
    .constdata__ZTSN10QtMobility26QDeclarativePositionSourceE 0x00027adf   Section       43  qdeclarativepositionsource.o(.constdata__ZTSN10QtMobility26QDeclarativePositionSourceE)
    .constdata__ZTSN10QtMobility28QDeclarativeGeoMapTextObjectE 0x00027b0a   Section       45  qdeclarativegeomaptextobject.o(.constdata__ZTSN10QtMobility28QDeclarativeGeoMapTextObjectE)
    .constdata__ZTSN10QtMobility28QDeclarativeLandmarkCategoryE 0x00027b37   Section       45  qdeclarativelandmarkcategory.o(.constdata__ZTSN10QtMobility28QDeclarativeLandmarkCategoryE)
    .constdata__ZTSN10QtMobility29QDeclarativeLandmarkBoxFilterE 0x00027b64   Section       46  qdeclarativelandmarkfilters.o(.constdata__ZTSN10QtMobility29QDeclarativeLandmarkBoxFilterE)
    .constdata__ZTSN10QtMobility30QDeclarativeGeoMapCircleObjectE 0x00027b92   Section       47  qdeclarativegeomapcircleobject.o(.constdata__ZTSN10QtMobility30QDeclarativeGeoMapCircleObjectE)
    .constdata__ZTSN10QtMobility30QDeclarativeGeoMapObjectBorderE 0x00027bc1   Section       47  qdeclarativegeomapobjectborder.o(.constdata__ZTSN10QtMobility30QDeclarativeGeoMapObjectBorderE)
    .constdata__ZTSN10QtMobility30QDeclarativeGeoMapPixmapObjectE 0x00027bf0   Section       47  qdeclarativegeomappixmapobject.o(.constdata__ZTSN10QtMobility30QDeclarativeGeoMapPixmapObjectE)
    .constdata__ZTSN10QtMobility30QDeclarativeGeoServiceProviderE 0x00027c1f   Section       47  qdeclarativegeoserviceprovider.o(.constdata__ZTSN10QtMobility30QDeclarativeGeoServiceProviderE)
    .constdata__ZTSN10QtMobility30QDeclarativeLandmarkFilterBaseE 0x00027c4e   Section       47  qdeclarativelandmarkfilters.o(.constdata__ZTSN10QtMobility30QDeclarativeLandmarkFilterBaseE)
    .constdata__ZTSN10QtMobility30QDeclarativeLandmarkNameFilterE 0x00027c7d   Section       47  qdeclarativelandmarkfilters.o(.constdata__ZTSN10QtMobility30QDeclarativeLandmarkNameFilterE)
    .constdata__ZTSN10QtMobility31QDeclarativeGeoMapPolygonObjectE 0x00027cac   Section       48  qdeclarativegeomappolygonobject.o(.constdata__ZTSN10QtMobility31QDeclarativeGeoMapPolygonObjectE)
    .constdata__ZTSN10QtMobility31QDeclarativeLandmarkUnionFilterE 0x00027cdc   Section       48  qdeclarativelandmarkfilters.o(.constdata__ZTSN10QtMobility31QDeclarativeLandmarkUnionFilterE)
    .constdata__ZTSN10QtMobility31QDeclarativeReverseGeocodeModelE 0x00027d0c   Section       48  qdeclarativereversegeocodemodel.o(.constdata__ZTSN10QtMobility31QDeclarativeReverseGeocodeModelE)
    .constdata__ZTSN10QtMobility32QDeclarativeGeoMapPolylineObjectE 0x00027d3c   Section       49  qdeclarativegeomappolylineobject.o(.constdata__ZTSN10QtMobility32QDeclarativeGeoMapPolylineObjectE)
    .constdata__ZTSN10QtMobility33QDeclarativeGeoMapRectangleObjectE 0x00027d6d   Section       50  qdeclarativegeomaprectangleobject.o(.constdata__ZTSN10QtMobility33QDeclarativeGeoMapRectangleObjectE)
    .constdata__ZTSN10QtMobility33QDeclarativeLandmarkAbstractModelE 0x00027d9f   Section       50  qdeclarativelandmarkmodel.o(.constdata__ZTSN10QtMobility33QDeclarativeLandmarkAbstractModelE)
    .constdata__ZTSN10QtMobility33QDeclarativeLandmarkCategoryModelE 0x00027dd1   Section       50  qdeclarativelandmarkcategorymodel.o(.constdata__ZTSN10QtMobility33QDeclarativeLandmarkCategoryModelE)
    .constdata__ZTSN10QtMobility34QDeclarativeLandmarkCategoryFilterE 0x00027e03   Section       51  qdeclarativelandmarkfilters.o(.constdata__ZTSN10QtMobility34QDeclarativeLandmarkCategoryFilterE)
    .constdata__ZTSN10QtMobility34QDeclarativeLandmarkCompoundFilterE 0x00027e36   Section       51  qdeclarativelandmarkfilters.o(.constdata__ZTSN10QtMobility34QDeclarativeLandmarkCompoundFilterE)
    .constdata__ZTSN10QtMobility35QDeclarativeLandmarkProximityFilterE 0x00027e69   Section       52  qdeclarativelandmarkfilters.o(.constdata__ZTSN10QtMobility35QDeclarativeLandmarkProximityFilterE)
    .constdata__ZTSN10QtMobility38QDeclarativeLandmarkIntersectionFilterE 0x00027e9d   Section       55  qdeclarativelandmarkfilters.o(.constdata__ZTSN10QtMobility38QDeclarativeLandmarkIntersectionFilterE)
    .constdata__ZTSN10QtMobility39QDeclarativeGeoServiceProviderParameterE 0x00027ed4   Section       56  qdeclarativegeoserviceprovider.o(.constdata__ZTSN10QtMobility39QDeclarativeGeoServiceProviderParameterE)
    .constdata__ZTSN19QDeclarativePrivate19QDeclarativeElementIN10QtMobility13QGeoMapObjectEEE 0x00027f0c   Section       76  location.o(.constdata__ZTSN19QDeclarativePrivate19QDeclarativeElementIN10QtMobility13QGeoMapObjectEEE)
    .constdata__ZTSN19QDeclarativePrivate19QDeclarativeElementIN10QtMobility20QDeclarativeGeoPlaceEEE 0x00027f58   Section       83  location.o(.constdata__ZTSN19QDeclarativePrivate19QDeclarativeElementIN10QtMobility20QDeclarativeGeoPlaceEEE)
    .constdata__ZTSN19QDeclarativePrivate19QDeclarativeElementIN10QtMobility20QDeclarativeLandmarkEEE 0x00027fab   Section       83  location.o(.constdata__ZTSN19QDeclarativePrivate19QDeclarativeElementIN10QtMobility20QDeclarativeLandmarkEEE)
    .constdata__ZTSN19QDeclarativePrivate19QDeclarativeElementIN10QtMobility20QDeclarativePositionEEE 0x00027ffe   Section       83  location.o(.constdata__ZTSN19QDeclarativePrivate19QDeclarativeElementIN10QtMobility20QDeclarativePositionEEE)
    .constdata__ZTSN19QDeclarativePrivate19QDeclarativeElementIN10QtMobility22QDeclarativeCoordinateEEE 0x00028051   Section       85  location.o(.constdata__ZTSN19QDeclarativePrivate19QDeclarativeElementIN10QtMobility22QDeclarativeCoordinateEEE)
    .constdata__ZTSN19QDeclarativePrivate19QDeclarativeElementIN10QtMobility22QDeclarativeGeoAddressEEE 0x000280a6   Section       85  location.o(.constdata__ZTSN19QDeclarativePrivate19QDeclarativeElementIN10QtMobility22QDeclarativeGeoAddressEEE)
    .constdata__ZTSN19QDeclarativePrivate19QDeclarativeElementIN10QtMobility24QDeclarativeGeoMapObjectEEE 0x000280fb   Section       87  location.o(.constdata__ZTSN19QDeclarativePrivate19QDeclarativeElementIN10QtMobility24QDeclarativeGeoMapObjectEEE)
    .constdata__ZTSN19QDeclarativePrivate19QDeclarativeElementIN10QtMobility24QDeclarativeGeocodeModelEEE 0x00028152   Section       87  location.o(.constdata__ZTSN19QDeclarativePrivate19QDeclarativeElementIN10QtMobility24QDeclarativeGeocodeModelEEE)
    .constdata__ZTSN19QDeclarativePrivate19QDeclarativeElementIN10QtMobility25QDeclarativeLandmarkModelEEE 0x000281a9   Section       88  location.o(.constdata__ZTSN19QDeclarativePrivate19QDeclarativeElementIN10QtMobility25QDeclarativeLandmarkModelEEE)
    .constdata__ZTSN19QDeclarativePrivate19QDeclarativeElementIN10QtMobility26QDeclarativeGeoBoundingBoxEEE 0x00028201   Section       89  location.o(.constdata__ZTSN19QDeclarativePrivate19QDeclarativeElementIN10QtMobility26QDeclarativeGeoBoundingBoxEEE)
    .constdata__ZTSN19QDeclarativePrivate19QDeclarativeElementIN10QtMobility26QDeclarativeGraphicsGeoMapEEE 0x0002825a   Section       89  location.o(.constdata__ZTSN19QDeclarativePrivate19QDeclarativeElementIN10QtMobility26QDeclarativeGraphicsGeoMapEEE)
    .constdata__ZTSN19QDeclarativePrivate19QDeclarativeElementIN10QtMobility26QDeclarativePositionSourceEEE 0x000282b3   Section       89  location.o(.constdata__ZTSN19QDeclarativePrivate19QDeclarativeElementIN10QtMobility26QDeclarativePositionSourceEEE)
    .constdata__ZTSN19QDeclarativePrivate19QDeclarativeElementIN10QtMobility28QDeclarativeGeoMapTextObjectEEE 0x0002830c   Section       91  location.o(.constdata__ZTSN19QDeclarativePrivate19QDeclarativeElementIN10QtMobility28QDeclarativeGeoMapTextObjectEEE)
    .constdata__ZTSN19QDeclarativePrivate19QDeclarativeElementIN10QtMobility28QDeclarativeLandmarkCategoryEEE 0x00028367   Section       91  location.o(.constdata__ZTSN19QDeclarativePrivate19QDeclarativeElementIN10QtMobility28QDeclarativeLandmarkCategoryEEE)
    .constdata__ZTSN19QDeclarativePrivate19QDeclarativeElementIN10QtMobility29QDeclarativeLandmarkBoxFilterEEE 0x000283c2   Section       92  location.o(.constdata__ZTSN19QDeclarativePrivate19QDeclarativeElementIN10QtMobility29QDeclarativeLandmarkBoxFilterEEE)
    .constdata__ZTSN19QDeclarativePrivate19QDeclarativeElementIN10QtMobility30QDeclarativeGeoMapCircleObjectEEE 0x0002841e   Section       93  location.o(.constdata__ZTSN19QDeclarativePrivate19QDeclarativeElementIN10QtMobility30QDeclarativeGeoMapCircleObjectEEE)
    .constdata__ZTSN19QDeclarativePrivate19QDeclarativeElementIN10QtMobility30QDeclarativeGeoMapPixmapObjectEEE 0x0002847b   Section       93  location.o(.constdata__ZTSN19QDeclarativePrivate19QDeclarativeElementIN10QtMobility30QDeclarativeGeoMapPixmapObjectEEE)
    .constdata__ZTSN19QDeclarativePrivate19QDeclarativeElementIN10QtMobility30QDeclarativeGeoServiceProviderEEE 0x000284d8   Section       93  location.o(.constdata__ZTSN19QDeclarativePrivate19QDeclarativeElementIN10QtMobility30QDeclarativeGeoServiceProviderEEE)
    .constdata__ZTSN19QDeclarativePrivate19QDeclarativeElementIN10QtMobility30QDeclarativeLandmarkNameFilterEEE 0x00028535   Section       93  location.o(.constdata__ZTSN19QDeclarativePrivate19QDeclarativeElementIN10QtMobility30QDeclarativeLandmarkNameFilterEEE)
    .constdata__ZTSN19QDeclarativePrivate19QDeclarativeElementIN10QtMobility31QDeclarativeGeoMapPolygonObjectEEE 0x00028592   Section       94  location.o(.constdata__ZTSN19QDeclarativePrivate19QDeclarativeElementIN10QtMobility31QDeclarativeGeoMapPolygonObjectEEE)
    .constdata__ZTSN19QDeclarativePrivate19QDeclarativeElementIN10QtMobility31QDeclarativeLandmarkUnionFilterEEE 0x000285f0   Section       94  location.o(.constdata__ZTSN19QDeclarativePrivate19QDeclarativeElementIN10QtMobility31QDeclarativeLandmarkUnionFilterEEE)
    .constdata__ZTSN19QDeclarativePrivate19QDeclarativeElementIN10QtMobility31QDeclarativeReverseGeocodeModelEEE 0x0002864e   Section       94  location.o(.constdata__ZTSN19QDeclarativePrivate19QDeclarativeElementIN10QtMobility31QDeclarativeReverseGeocodeModelEEE)
    .constdata__ZTSN19QDeclarativePrivate19QDeclarativeElementIN10QtMobility32QDeclarativeGeoMapPolylineObjectEEE 0x000286ac   Section       95  location.o(.constdata__ZTSN19QDeclarativePrivate19QDeclarativeElementIN10QtMobility32QDeclarativeGeoMapPolylineObjectEEE)
    .constdata__ZTSN19QDeclarativePrivate19QDeclarativeElementIN10QtMobility33QDeclarativeGeoMapRectangleObjectEEE 0x0002870b   Section       96  location.o(.constdata__ZTSN19QDeclarativePrivate19QDeclarativeElementIN10QtMobility33QDeclarativeGeoMapRectangleObjectEEE)
    .constdata__ZTSN19QDeclarativePrivate19QDeclarativeElementIN10QtMobility33QDeclarativeLandmarkCategoryModelEEE 0x0002876b   Section       96  location.o(.constdata__ZTSN19QDeclarativePrivate19QDeclarativeElementIN10QtMobility33QDeclarativeLandmarkCategoryModelEEE)
    .constdata__ZTSN19QDeclarativePrivate19QDeclarativeElementIN10QtMobility34QDeclarativeLandmarkCategoryFilterEEE 0x000287cb   Section       97  location.o(.constdata__ZTSN19QDeclarativePrivate19QDeclarativeElementIN10QtMobility34QDeclarativeLandmarkCategoryFilterEEE)
    .constdata__ZTSN19QDeclarativePrivate19QDeclarativeElementIN10QtMobility35QDeclarativeLandmarkProximityFilterEEE 0x0002882c   Section       98  location.o(.constdata__ZTSN19QDeclarativePrivate19QDeclarativeElementIN10QtMobility35QDeclarativeLandmarkProximityFilterEEE)
    .constdata__ZTSN19QDeclarativePrivate19QDeclarativeElementIN10QtMobility38QDeclarativeLandmarkIntersectionFilterEEE 0x0002888e   Section      101  location.o(.constdata__ZTSN19QDeclarativePrivate19QDeclarativeElementIN10QtMobility38QDeclarativeLandmarkIntersectionFilterEEE)
    .constdata__ZTSN19QDeclarativePrivate19QDeclarativeElementIN10QtMobility39QDeclarativeGeoServiceProviderParameterEEE 0x000288f3   Section      102  location.o(.constdata__ZTSN19QDeclarativePrivate19QDeclarativeElementIN10QtMobility39QDeclarativeGeoServiceProviderParameterEEE)
    .constdata__ZTV26QLocationDeclarativeModule 0x0002895c   Section       88  location.o(.constdata__ZTV26QLocationDeclarativeModule)
    .constdata__ZTVN10QtMobility20QDeclarativeGeoPlaceE 0x000289b4   Section       56  qdeclarativegeoplace.o(.constdata__ZTVN10QtMobility20QDeclarativeGeoPlaceE)
    .constdata__ZTVN10QtMobility20QDeclarativeLandmarkE 0x000289ec   Section       56  qdeclarativelandmark.o(.constdata__ZTVN10QtMobility20QDeclarativeLandmarkE)
    .constdata__ZTVN10QtMobility20QDeclarativePositionE 0x00028a24   Section       56  qdeclarativeposition.o(.constdata__ZTVN10QtMobility20QDeclarativePositionE)
    .constdata__ZTVN10QtMobility22QDeclarativeCoordinateE 0x00028a5c   Section       56  qdeclarativecoordinate.o(.constdata__ZTVN10QtMobility22QDeclarativeCoordinateE)
    .constdata__ZTVN10QtMobility22QDeclarativeGeoAddressE 0x00028a94   Section       56  qdeclarativegeoaddress.o(.constdata__ZTVN10QtMobility22QDeclarativeGeoAddressE)
    .constdata__ZTVN10QtMobility24QDeclarativeGeoMapObjectE 0x00028acc   Section       76  qdeclarativegeomapobject.o(.constdata__ZTVN10QtMobility24QDeclarativeGeoMapObjectE)
    .constdata__ZTVN10QtMobility24QDeclarativeGeocodeModelE 0x00028b18   Section      200  qdeclarativegeocodemodel.o(.constdata__ZTVN10QtMobility24QDeclarativeGeocodeModelE)
    .constdata__ZTVN10QtMobility25QDeclarativeLandmarkModelE 0x00028be0   Section      212  qdeclarativelandmarkmodel.o(.constdata__ZTVN10QtMobility25QDeclarativeLandmarkModelE)
    .constdata__ZTVN10QtMobility26QDeclarativeGeoBoundingBoxE 0x00028cb4   Section       56  qdeclarativegeoboundingbox.o(.constdata__ZTVN10QtMobility26QDeclarativeGeoBoundingBoxE)
    .constdata__ZTVN10QtMobility26QDeclarativeGeoSearchModelE 0x00028cec   Section      200  qdeclarativegeosearchmodel.o(.constdata__ZTVN10QtMobility26QDeclarativeGeoSearchModelE)
    .constdata__ZTVN10QtMobility26QDeclarativeGraphicsGeoMapE 0x00028db4   Section      280  qdeclarativegraphicsgeomap.o(.constdata__ZTVN10QtMobility26QDeclarativeGraphicsGeoMapE)
    .constdata__ZTVN10QtMobility26QDeclarativePositionSourceE 0x00028ecc   Section       56  qdeclarativepositionsource.o(.constdata__ZTVN10QtMobility26QDeclarativePositionSourceE)
    .constdata__ZTVN10QtMobility28QDeclarativeGeoMapTextObjectE 0x00028f04   Section       76  qdeclarativegeomaptextobject.o(.constdata__ZTVN10QtMobility28QDeclarativeGeoMapTextObjectE)
    .constdata__ZTVN10QtMobility28QDeclarativeLandmarkCategoryE 0x00028f50   Section       56  qdeclarativelandmarkcategory.o(.constdata__ZTVN10QtMobility28QDeclarativeLandmarkCategoryE)
    .constdata__ZTVN10QtMobility29QDeclarativeLandmarkBoxFilterE 0x00028f88   Section       60  qdeclarativelandmarkfilters.o(.constdata__ZTVN10QtMobility29QDeclarativeLandmarkBoxFilterE)
    .constdata__ZTVN10QtMobility30QDeclarativeGeoMapCircleObjectE 0x00028fc4   Section       76  qdeclarativegeomapcircleobject.o(.constdata__ZTVN10QtMobility30QDeclarativeGeoMapCircleObjectE)
    .constdata__ZTVN10QtMobility30QDeclarativeGeoMapObjectBorderE 0x00029010   Section       56  qdeclarativegeomapobjectborder.o(.constdata__ZTVN10QtMobility30QDeclarativeGeoMapObjectBorderE)
    .constdata__ZTVN10QtMobility30QDeclarativeGeoMapPixmapObjectE 0x00029048   Section       76  qdeclarativegeomappixmapobject.o(.constdata__ZTVN10QtMobility30QDeclarativeGeoMapPixmapObjectE)
    .constdata__ZTVN10QtMobility30QDeclarativeGeoServiceProviderE 0x00029094   Section       56  qdeclarativegeoserviceprovider.o(.constdata__ZTVN10QtMobility30QDeclarativeGeoServiceProviderE)
    .constdata__ZTVN10QtMobility30QDeclarativeLandmarkFilterBaseE 0x000290cc   Section       60  qdeclarativelandmarkfilters.o(.constdata__ZTVN10QtMobility30QDeclarativeLandmarkFilterBaseE)
    .constdata__ZTVN10QtMobility30QDeclarativeLandmarkNameFilterE 0x00029108   Section       60  qdeclarativelandmarkfilters.o(.constdata__ZTVN10QtMobility30QDeclarativeLandmarkNameFilterE)
    .constdata__ZTVN10QtMobility31QDeclarativeGeoMapPolygonObjectE 0x00029144   Section       76  qdeclarativegeomappolygonobject.o(.constdata__ZTVN10QtMobility31QDeclarativeGeoMapPolygonObjectE)
    .constdata__ZTVN10QtMobility31QDeclarativeLandmarkUnionFilterE 0x00029190   Section       60  qdeclarativelandmarkfilters.o(.constdata__ZTVN10QtMobility31QDeclarativeLandmarkUnionFilterE)
    .constdata__ZTVN10QtMobility31QDeclarativeReverseGeocodeModelE 0x000291cc   Section      200  qdeclarativereversegeocodemodel.o(.constdata__ZTVN10QtMobility31QDeclarativeReverseGeocodeModelE)
    .constdata__ZTVN10QtMobility32QDeclarativeGeoMapPolylineObjectE 0x00029294   Section       76  qdeclarativegeomappolylineobject.o(.constdata__ZTVN10QtMobility32QDeclarativeGeoMapPolylineObjectE)
    .constdata__ZTVN10QtMobility33QDeclarativeGeoMapRectangleObjectE 0x000292e0   Section       76  qdeclarativegeomaprectangleobject.o(.constdata__ZTVN10QtMobility33QDeclarativeGeoMapRectangleObjectE)
    .constdata__ZTVN10QtMobility33QDeclarativeLandmarkAbstractModelE 0x0002932c   Section      212  qdeclarativelandmarkmodel.o(.constdata__ZTVN10QtMobility33QDeclarativeLandmarkAbstractModelE)
    .constdata__ZTVN10QtMobility33QDeclarativeLandmarkCategoryModelE 0x00029400   Section      212  qdeclarativelandmarkcategorymodel.o(.constdata__ZTVN10QtMobility33QDeclarativeLandmarkCategoryModelE)
    .constdata__ZTVN10QtMobility34QDeclarativeLandmarkCategoryFilterE 0x000294d4   Section       60  qdeclarativelandmarkfilters.o(.constdata__ZTVN10QtMobility34QDeclarativeLandmarkCategoryFilterE)
    .constdata__ZTVN10QtMobility34QDeclarativeLandmarkCompoundFilterE 0x00029510   Section       60  qdeclarativelandmarkfilters.o(.constdata__ZTVN10QtMobility34QDeclarativeLandmarkCompoundFilterE)
    .constdata__ZTVN10QtMobility35QDeclarativeLandmarkProximityFilterE 0x0002954c   Section       60  qdeclarativelandmarkfilters.o(.constdata__ZTVN10QtMobility35QDeclarativeLandmarkProximityFilterE)
    .constdata__ZTVN10QtMobility38QDeclarativeLandmarkIntersectionFilterE 0x00029588   Section       60  qdeclarativelandmarkfilters.o(.constdata__ZTVN10QtMobility38QDeclarativeLandmarkIntersectionFilterE)
    .constdata__ZTVN10QtMobility39QDeclarativeGeoServiceProviderParameterE 0x000295c4   Section       56  qdeclarativegeoserviceprovider.o(.constdata__ZTVN10QtMobility39QDeclarativeGeoServiceProviderParameterE)
    .constdata__ZTVN19QDeclarativePrivate19QDeclarativeElementIN10QtMobility13QGeoMapObjectEEE 0x000295fc   Section       76  location.o(.constdata__ZTVN19QDeclarativePrivate19QDeclarativeElementIN10QtMobility13QGeoMapObjectEEE)
    .constdata__ZTVN19QDeclarativePrivate19QDeclarativeElementIN10QtMobility20QDeclarativeGeoPlaceEEE 0x00029648   Section       56  location.o(.constdata__ZTVN19QDeclarativePrivate19QDeclarativeElementIN10QtMobility20QDeclarativeGeoPlaceEEE)
    .constdata__ZTVN19QDeclarativePrivate19QDeclarativeElementIN10QtMobility20QDeclarativeLandmarkEEE 0x00029680   Section       56  location.o(.constdata__ZTVN19QDeclarativePrivate19QDeclarativeElementIN10QtMobility20QDeclarativeLandmarkEEE)
    .constdata__ZTVN19QDeclarativePrivate19QDeclarativeElementIN10QtMobility20QDeclarativePositionEEE 0x000296b8   Section       56  location.o(.constdata__ZTVN19QDeclarativePrivate19QDeclarativeElementIN10QtMobility20QDeclarativePositionEEE)
    .constdata__ZTVN19QDeclarativePrivate19QDeclarativeElementIN10QtMobility22QDeclarativeCoordinateEEE 0x000296f0   Section       56  location.o(.constdata__ZTVN19QDeclarativePrivate19QDeclarativeElementIN10QtMobility22QDeclarativeCoordinateEEE)
    .constdata__ZTVN19QDeclarativePrivate19QDeclarativeElementIN10QtMobility22QDeclarativeGeoAddressEEE 0x00029728   Section       56  location.o(.constdata__ZTVN19QDeclarativePrivate19QDeclarativeElementIN10QtMobility22QDeclarativeGeoAddressEEE)
    .constdata__ZTVN19QDeclarativePrivate19QDeclarativeElementIN10QtMobility24QDeclarativeGeoMapObjectEEE 0x00029760   Section       76  location.o(.constdata__ZTVN19QDeclarativePrivate19QDeclarativeElementIN10QtMobility24QDeclarativeGeoMapObjectEEE)
    .constdata__ZTVN19QDeclarativePrivate19QDeclarativeElementIN10QtMobility24QDeclarativeGeocodeModelEEE 0x000297ac   Section      200  location.o(.constdata__ZTVN19QDeclarativePrivate19QDeclarativeElementIN10QtMobility24QDeclarativeGeocodeModelEEE)
    .constdata__ZTVN19QDeclarativePrivate19QDeclarativeElementIN10QtMobility25QDeclarativeLandmarkModelEEE 0x00029874   Section      212  location.o(.constdata__ZTVN19QDeclarativePrivate19QDeclarativeElementIN10QtMobility25QDeclarativeLandmarkModelEEE)
    .constdata__ZTVN19QDeclarativePrivate19QDeclarativeElementIN10QtMobility26QDeclarativeGeoBoundingBoxEEE 0x00029948   Section       56  location.o(.constdata__ZTVN19QDeclarativePrivate19QDeclarativeElementIN10QtMobility26QDeclarativeGeoBoundingBoxEEE)
    .constdata__ZTVN19QDeclarativePrivate19QDeclarativeElementIN10QtMobility26QDeclarativeGraphicsGeoMapEEE 0x00029980   Section      280  location.o(.constdata__ZTVN19QDeclarativePrivate19QDeclarativeElementIN10QtMobility26QDeclarativeGraphicsGeoMapEEE)
    .constdata__ZTVN19QDeclarativePrivate19QDeclarativeElementIN10QtMobility26QDeclarativePositionSourceEEE 0x00029a98   Section       56  location.o(.constdata__ZTVN19QDeclarativePrivate19QDeclarativeElementIN10QtMobility26QDeclarativePositionSourceEEE)
    .constdata__ZTVN19QDeclarativePrivate19QDeclarativeElementIN10QtMobility28QDeclarativeGeoMapTextObjectEEE 0x00029ad0   Section       76  location.o(.constdata__ZTVN19QDeclarativePrivate19QDeclarativeElementIN10QtMobility28QDeclarativeGeoMapTextObjectEEE)
    .constdata__ZTVN19QDeclarativePrivate19QDeclarativeElementIN10QtMobility28QDeclarativeLandmarkCategoryEEE 0x00029b1c   Section       56  location.o(.constdata__ZTVN19QDeclarativePrivate19QDeclarativeElementIN10QtMobility28QDeclarativeLandmarkCategoryEEE)
    .constdata__ZTVN19QDeclarativePrivate19QDeclarativeElementIN10QtMobility29QDeclarativeLandmarkBoxFilterEEE 0x00029b54   Section       60  location.o(.constdata__ZTVN19QDeclarativePrivate19QDeclarativeElementIN10QtMobility29QDeclarativeLandmarkBoxFilterEEE)
    .constdata__ZTVN19QDeclarativePrivate19QDeclarativeElementIN10QtMobility30QDeclarativeGeoMapCircleObjectEEE 0x00029b90   Section       76  location.o(.constdata__ZTVN19QDeclarativePrivate19QDeclarativeElementIN10QtMobility30QDeclarativeGeoMapCircleObjectEEE)
    .constdata__ZTVN19QDeclarativePrivate19QDeclarativeElementIN10QtMobility30QDeclarativeGeoMapPixmapObjectEEE 0x00029bdc   Section       76  location.o(.constdata__ZTVN19QDeclarativePrivate19QDeclarativeElementIN10QtMobility30QDeclarativeGeoMapPixmapObjectEEE)
    .constdata__ZTVN19QDeclarativePrivate19QDeclarativeElementIN10QtMobility30QDeclarativeGeoServiceProviderEEE 0x00029c28   Section       56  location.o(.constdata__ZTVN19QDeclarativePrivate19QDeclarativeElementIN10QtMobility30QDeclarativeGeoServiceProviderEEE)
    .constdata__ZTVN19QDeclarativePrivate19QDeclarativeElementIN10QtMobility30QDeclarativeLandmarkNameFilterEEE 0x00029c60   Section       60  location.o(.constdata__ZTVN19QDeclarativePrivate19QDeclarativeElementIN10QtMobility30QDeclarativeLandmarkNameFilterEEE)
    .constdata__ZTVN19QDeclarativePrivate19QDeclarativeElementIN10QtMobility31QDeclarativeGeoMapPolygonObjectEEE 0x00029c9c   Section       76  location.o(.constdata__ZTVN19QDeclarativePrivate19QDeclarativeElementIN10QtMobility31QDeclarativeGeoMapPolygonObjectEEE)
    .constdata__ZTVN19QDeclarativePrivate19QDeclarativeElementIN10QtMobility31QDeclarativeLandmarkUnionFilterEEE 0x00029ce8   Section       60  location.o(.constdata__ZTVN19QDeclarativePrivate19QDeclarativeElementIN10QtMobility31QDeclarativeLandmarkUnionFilterEEE)
    .constdata__ZTVN19QDeclarativePrivate19QDeclarativeElementIN10QtMobility31QDeclarativeReverseGeocodeModelEEE 0x00029d24   Section      200  location.o(.constdata__ZTVN19QDeclarativePrivate19QDeclarativeElementIN10QtMobility31QDeclarativeReverseGeocodeModelEEE)
    .constdata__ZTVN19QDeclarativePrivate19QDeclarativeElementIN10QtMobility32QDeclarativeGeoMapPolylineObjectEEE 0x00029dec   Section       76  location.o(.constdata__ZTVN19QDeclarativePrivate19QDeclarativeElementIN10QtMobility32QDeclarativeGeoMapPolylineObjectEEE)
    .constdata__ZTVN19QDeclarativePrivate19QDeclarativeElementIN10QtMobility33QDeclarativeGeoMapRectangleObjectEEE 0x00029e38   Section       76  location.o(.constdata__ZTVN19QDeclarativePrivate19QDeclarativeElementIN10QtMobility33QDeclarativeGeoMapRectangleObjectEEE)
    .constdata__ZTVN19QDeclarativePrivate19QDeclarativeElementIN10QtMobility33QDeclarativeLandmarkCategoryModelEEE 0x00029e84   Section      212  location.o(.constdata__ZTVN19QDeclarativePrivate19QDeclarativeElementIN10QtMobility33QDeclarativeLandmarkCategoryModelEEE)
    .constdata__ZTVN19QDeclarativePrivate19QDeclarativeElementIN10QtMobility34QDeclarativeLandmarkCategoryFilterEEE 0x00029f58   Section       60  location.o(.constdata__ZTVN19QDeclarativePrivate19QDeclarativeElementIN10QtMobility34QDeclarativeLandmarkCategoryFilterEEE)
    .constdata__ZTVN19QDeclarativePrivate19QDeclarativeElementIN10QtMobility35QDeclarativeLandmarkProximityFilterEEE 0x00029f94   Section       60  location.o(.constdata__ZTVN19QDeclarativePrivate19QDeclarativeElementIN10QtMobility35QDeclarativeLandmarkProximityFilterEEE)
    .constdata__ZTVN19QDeclarativePrivate19QDeclarativeElementIN10QtMobility38QDeclarativeLandmarkIntersectionFilterEEE 0x00029fd0   Section       60  location.o(.constdata__ZTVN19QDeclarativePrivate19QDeclarativeElementIN10QtMobility38QDeclarativeLandmarkIntersectionFilterEEE)
    .constdata__ZTVN19QDeclarativePrivate19QDeclarativeElementIN10QtMobility39QDeclarativeGeoServiceProviderParameterEEE 0x0002a00c   Section       56  location.o(.constdata__ZTVN19QDeclarativePrivate19QDeclarativeElementIN10QtMobility39QDeclarativeGeoServiceProviderParameterEEE)
    __ARM_d__Z15qmlRegisterTypeIN10QtMobility13QGeoMapObjectEEiPKciiS3_$118 0x0002a044   Data           0  location.o(__ARM_d__Z15qmlRegisterTypeIN10QtMobility13QGeoMapObjectEEiPKciiS3_)
    __ARM_d__Z15qmlRegisterTypeIN10QtMobility13QGeoMapObjectEEiPKciiS3_ 0x0002a044   Section       76  location.o(__ARM_d__Z15qmlRegisterTypeIN10QtMobility13QGeoMapObjectEEiPKciiS3_)
    __ARM_d__Z15qmlRegisterTypeIN10QtMobility20QDeclarativeGeoPlaceEEiPKciiS3_$100 0x0002a090   Data           0  location.o(__ARM_d__Z15qmlRegisterTypeIN10QtMobility20QDeclarativeGeoPlaceEEiPKciiS3_)
    __ARM_d__Z15qmlRegisterTypeIN10QtMobility20QDeclarativeGeoPlaceEEiPKciiS3_ 0x0002a090   Section       76  location.o(__ARM_d__Z15qmlRegisterTypeIN10QtMobility20QDeclarativeGeoPlaceEEiPKciiS3_)
    __ARM_d__Z15qmlRegisterTypeIN10QtMobility20QDeclarativeLandmarkEEiPKciiS3_$58 0x0002a0dc   Data           0  location.o(__ARM_d__Z15qmlRegisterTypeIN10QtMobility20QDeclarativeLandmarkEEiPKciiS3_)
    __ARM_d__Z15qmlRegisterTypeIN10QtMobility20QDeclarativeLandmarkEEiPKciiS3_ 0x0002a0dc   Section       76  location.o(__ARM_d__Z15qmlRegisterTypeIN10QtMobility20QDeclarativeLandmarkEEiPKciiS3_)
    __ARM_d__Z15qmlRegisterTypeIN10QtMobility20QDeclarativePositionEEiPKciiS3_$52 0x0002a128   Data           0  location.o(__ARM_d__Z15qmlRegisterTypeIN10QtMobility20QDeclarativePositionEEiPKciiS3_)
    __ARM_d__Z15qmlRegisterTypeIN10QtMobility20QDeclarativePositionEEiPKciiS3_ 0x0002a128   Section       76  location.o(__ARM_d__Z15qmlRegisterTypeIN10QtMobility20QDeclarativePositionEEiPKciiS3_)
    __ARM_d__Z15qmlRegisterTypeIN10QtMobility22QDeclarativeCoordinateEEiPKciiS3_$94 0x0002a174   Data           0  location.o(__ARM_d__Z15qmlRegisterTypeIN10QtMobility22QDeclarativeCoordinateEEiPKciiS3_)
    __ARM_d__Z15qmlRegisterTypeIN10QtMobility22QDeclarativeCoordinateEEiPKciiS3_ 0x0002a174   Section       76  location.o(__ARM_d__Z15qmlRegisterTypeIN10QtMobility22QDeclarativeCoordinateEEiPKciiS3_)
    __ARM_d__Z15qmlRegisterTypeIN10QtMobility22QDeclarativeGeoAddressEEiPKciiS3_$103 0x0002a1c0   Data           0  location.o(__ARM_d__Z15qmlRegisterTypeIN10QtMobility22QDeclarativeGeoAddressEEiPKciiS3_)
    __ARM_d__Z15qmlRegisterTypeIN10QtMobility22QDeclarativeGeoAddressEEiPKciiS3_ 0x0002a1c0   Section       76  location.o(__ARM_d__Z15qmlRegisterTypeIN10QtMobility22QDeclarativeGeoAddressEEiPKciiS3_)
    __ARM_d__Z15qmlRegisterTypeIN10QtMobility24QDeclarativeGeoMapObjectEEiPKciiS3_$121 0x0002a20c   Data           0  location.o(__ARM_d__Z15qmlRegisterTypeIN10QtMobility24QDeclarativeGeoMapObjectEEiPKciiS3_)
    __ARM_d__Z15qmlRegisterTypeIN10QtMobility24QDeclarativeGeoMapObjectEEiPKciiS3_ 0x0002a20c   Section       76  location.o(__ARM_d__Z15qmlRegisterTypeIN10QtMobility24QDeclarativeGeoMapObjectEEiPKciiS3_)
    __ARM_d__Z15qmlRegisterTypeIN10QtMobility24QDeclarativeGeocodeModelEEiPKciiS3_$142 0x0002a258   Data           0  location.o(__ARM_d__Z15qmlRegisterTypeIN10QtMobility24QDeclarativeGeocodeModelEEiPKciiS3_)
    __ARM_d__Z15qmlRegisterTypeIN10QtMobility24QDeclarativeGeocodeModelEEiPKciiS3_ 0x0002a258   Section       76  location.o(__ARM_d__Z15qmlRegisterTypeIN10QtMobility24QDeclarativeGeocodeModelEEiPKciiS3_)
    __ARM_d__Z15qmlRegisterTypeIN10QtMobility25QDeclarativeLandmarkModelEEiPKciiS3_$61 0x0002a2a4   Data           0  location.o(__ARM_d__Z15qmlRegisterTypeIN10QtMobility25QDeclarativeLandmarkModelEEiPKciiS3_)
    __ARM_d__Z15qmlRegisterTypeIN10QtMobility25QDeclarativeLandmarkModelEEiPKciiS3_ 0x0002a2a4   Section       76  location.o(__ARM_d__Z15qmlRegisterTypeIN10QtMobility25QDeclarativeLandmarkModelEEiPKciiS3_)
    __ARM_d__Z15qmlRegisterTypeIN10QtMobility26QDeclarativeGeoBoundingBoxEEiPKciiS3_$97 0x0002a2f0   Data           0  location.o(__ARM_d__Z15qmlRegisterTypeIN10QtMobility26QDeclarativeGeoBoundingBoxEEiPKciiS3_)
    __ARM_d__Z15qmlRegisterTypeIN10QtMobility26QDeclarativeGeoBoundingBoxEEiPKciiS3_ 0x0002a2f0   Section       76  location.o(__ARM_d__Z15qmlRegisterTypeIN10QtMobility26QDeclarativeGeoBoundingBoxEEiPKciiS3_)
    __ARM_d__Z15qmlRegisterTypeIN10QtMobility26QDeclarativeGraphicsGeoMapEEiPKciiS3_$112 0x0002a33c   Data           0  location.o(__ARM_d__Z15qmlRegisterTypeIN10QtMobility26QDeclarativeGraphicsGeoMapEEiPKciiS3_)
    __ARM_d__Z15qmlRegisterTypeIN10QtMobility26QDeclarativeGraphicsGeoMapEEiPKciiS3_ 0x0002a33c   Section       76  location.o(__ARM_d__Z15qmlRegisterTypeIN10QtMobility26QDeclarativeGraphicsGeoMapEEiPKciiS3_)
    __ARM_d__Z15qmlRegisterTypeIN10QtMobility26QDeclarativePositionSourceEEiPKciiS3_$55 0x0002a388   Data           0  location.o(__ARM_d__Z15qmlRegisterTypeIN10QtMobility26QDeclarativePositionSourceEEiPKciiS3_)
    __ARM_d__Z15qmlRegisterTypeIN10QtMobility26QDeclarativePositionSourceEEiPKciiS3_ 0x0002a388   Section       76  location.o(__ARM_d__Z15qmlRegisterTypeIN10QtMobility26QDeclarativePositionSourceEEiPKciiS3_)
    __ARM_d__Z15qmlRegisterTypeIN10QtMobility28QDeclarativeGeoMapTextObjectEEiPKciiS3_$136 0x0002a3d4   Data           0  location.o(__ARM_d__Z15qmlRegisterTypeIN10QtMobility28QDeclarativeGeoMapTextObjectEEiPKciiS3_)
    __ARM_d__Z15qmlRegisterTypeIN10QtMobility28QDeclarativeGeoMapTextObjectEEiPKciiS3_ 0x0002a3d4   Section       76  location.o(__ARM_d__Z15qmlRegisterTypeIN10QtMobility28QDeclarativeGeoMapTextObjectEEiPKciiS3_)
    __ARM_d__Z15qmlRegisterTypeIN10QtMobility28QDeclarativeLandmarkCategoryEEiPKciiS3_$82 0x0002a420   Data           0  location.o(__ARM_d__Z15qmlRegisterTypeIN10QtMobility28QDeclarativeLandmarkCategoryEEiPKciiS3_)
    __ARM_d__Z15qmlRegisterTypeIN10QtMobility28QDeclarativeLandmarkCategoryEEiPKciiS3_ 0x0002a420   Section       76  location.o(__ARM_d__Z15qmlRegisterTypeIN10QtMobility28QDeclarativeLandmarkCategoryEEiPKciiS3_)
    __ARM_d__Z15qmlRegisterTypeIN10QtMobility29QDeclarativeLandmarkBoxFilterEEiPKciiS3_$70 0x0002a46c   Data           0  location.o(__ARM_d__Z15qmlRegisterTypeIN10QtMobility29QDeclarativeLandmarkBoxFilterEEiPKciiS3_)
    __ARM_d__Z15qmlRegisterTypeIN10QtMobility29QDeclarativeLandmarkBoxFilterEEiPKciiS3_ 0x0002a46c   Section       76  location.o(__ARM_d__Z15qmlRegisterTypeIN10QtMobility29QDeclarativeLandmarkBoxFilterEEiPKciiS3_)
    __ARM_d__Z15qmlRegisterTypeIN10QtMobility30QDeclarativeGeoMapCircleObjectEEiPKciiS3_$124 0x0002a4b8   Data           0  location.o(__ARM_d__Z15qmlRegisterTypeIN10QtMobility30QDeclarativeGeoMapCircleObjectEEiPKciiS3_)
    __ARM_d__Z15qmlRegisterTypeIN10QtMobility30QDeclarativeGeoMapCircleObjectEEiPKciiS3_ 0x0002a4b8   Section       76  location.o(__ARM_d__Z15qmlRegisterTypeIN10QtMobility30QDeclarativeGeoMapCircleObjectEEiPKciiS3_)
    __ARM_d__Z15qmlRegisterTypeIN10QtMobility30QDeclarativeGeoMapObjectBorderEEiv$115 0x0002a504   Data           0  location.o(__ARM_d__Z15qmlRegisterTypeIN10QtMobility30QDeclarativeGeoMapObjectBorderEEiv)
    __ARM_d__Z15qmlRegisterTypeIN10QtMobility30QDeclarativeGeoMapObjectBorderEEiv 0x0002a504   Section       76  location.o(__ARM_d__Z15qmlRegisterTypeIN10QtMobility30QDeclarativeGeoMapObjectBorderEEiv)
    __ARM_d__Z15qmlRegisterTypeIN10QtMobility30QDeclarativeGeoMapPixmapObjectEEiPKciiS3_$139 0x0002a550   Data           0  location.o(__ARM_d__Z15qmlRegisterTypeIN10QtMobility30QDeclarativeGeoMapPixmapObjectEEiPKciiS3_)
    __ARM_d__Z15qmlRegisterTypeIN10QtMobility30QDeclarativeGeoMapPixmapObjectEEiPKciiS3_ 0x0002a550   Section       76  location.o(__ARM_d__Z15qmlRegisterTypeIN10QtMobility30QDeclarativeGeoMapPixmapObjectEEiPKciiS3_)
    __ARM_d__Z15qmlRegisterTypeIN10QtMobility30QDeclarativeGeoServiceProviderEEiPKciiS3_$106 0x0002a59c   Data           0  location.o(__ARM_d__Z15qmlRegisterTypeIN10QtMobility30QDeclarativeGeoServiceProviderEEiPKciiS3_)
    __ARM_d__Z15qmlRegisterTypeIN10QtMobility30QDeclarativeGeoServiceProviderEEiPKciiS3_ 0x0002a59c   Section       76  location.o(__ARM_d__Z15qmlRegisterTypeIN10QtMobility30QDeclarativeGeoServiceProviderEEiPKciiS3_)
    __ARM_d__Z15qmlRegisterTypeIN10QtMobility30QDeclarativeLandmarkNameFilterEEiPKciiS3_$64 0x0002a5e8   Data           0  location.o(__ARM_d__Z15qmlRegisterTypeIN10QtMobility30QDeclarativeLandmarkNameFilterEEiPKciiS3_)
    __ARM_d__Z15qmlRegisterTypeIN10QtMobility30QDeclarativeLandmarkNameFilterEEiPKciiS3_ 0x0002a5e8   Section       76  location.o(__ARM_d__Z15qmlRegisterTypeIN10QtMobility30QDeclarativeLandmarkNameFilterEEiPKciiS3_)
    __ARM_d__Z15qmlRegisterTypeIN10QtMobility31QDeclarativeGeoMapPolygonObjectEEiPKciiS3_$127 0x0002a634   Data           0  location.o(__ARM_d__Z15qmlRegisterTypeIN10QtMobility31QDeclarativeGeoMapPolygonObjectEEiPKciiS3_)
    __ARM_d__Z15qmlRegisterTypeIN10QtMobility31QDeclarativeGeoMapPolygonObjectEEiPKciiS3_ 0x0002a634   Section       76  location.o(__ARM_d__Z15qmlRegisterTypeIN10QtMobility31QDeclarativeGeoMapPolygonObjectEEiPKciiS3_)
    __ARM_d__Z15qmlRegisterTypeIN10QtMobility31QDeclarativeLandmarkUnionFilterEEiPKciiS3_$76 0x0002a680   Data           0  location.o(__ARM_d__Z15qmlRegisterTypeIN10QtMobility31QDeclarativeLandmarkUnionFilterEEiPKciiS3_)
    __ARM_d__Z15qmlRegisterTypeIN10QtMobility31QDeclarativeLandmarkUnionFilterEEiPKciiS3_ 0x0002a680   Section       76  location.o(__ARM_d__Z15qmlRegisterTypeIN10QtMobility31QDeclarativeLandmarkUnionFilterEEiPKciiS3_)
    __ARM_d__Z15qmlRegisterTypeIN10QtMobility31QDeclarativeReverseGeocodeModelEEiPKciiS3_$145 0x0002a6cc   Data           0  location.o(__ARM_d__Z15qmlRegisterTypeIN10QtMobility31QDeclarativeReverseGeocodeModelEEiPKciiS3_)
    __ARM_d__Z15qmlRegisterTypeIN10QtMobility31QDeclarativeReverseGeocodeModelEEiPKciiS3_ 0x0002a6cc   Section       76  location.o(__ARM_d__Z15qmlRegisterTypeIN10QtMobility31QDeclarativeReverseGeocodeModelEEiPKciiS3_)
    __ARM_d__Z15qmlRegisterTypeIN10QtMobility32QDeclarativeGeoMapPolylineObjectEEiPKciiS3_$130 0x0002a718   Data           0  location.o(__ARM_d__Z15qmlRegisterTypeIN10QtMobility32QDeclarativeGeoMapPolylineObjectEEiPKciiS3_)
    __ARM_d__Z15qmlRegisterTypeIN10QtMobility32QDeclarativeGeoMapPolylineObjectEEiPKciiS3_ 0x0002a718   Section       76  location.o(__ARM_d__Z15qmlRegisterTypeIN10QtMobility32QDeclarativeGeoMapPolylineObjectEEiPKciiS3_)
    __ARM_d__Z15qmlRegisterTypeIN10QtMobility33QDeclarativeGeoMapRectangleObjectEEiPKciiS3_$133 0x0002a764   Data           0  location.o(__ARM_d__Z15qmlRegisterTypeIN10QtMobility33QDeclarativeGeoMapRectangleObjectEEiPKciiS3_)
    __ARM_d__Z15qmlRegisterTypeIN10QtMobility33QDeclarativeGeoMapRectangleObjectEEiPKciiS3_ 0x0002a764   Section       76  location.o(__ARM_d__Z15qmlRegisterTypeIN10QtMobility33QDeclarativeGeoMapRectangleObjectEEiPKciiS3_)
    __ARM_d__Z15qmlRegisterTypeIN10QtMobility33QDeclarativeLandmarkCategoryModelEEiPKciiS3_$85 0x0002a7b0   Data           0  location.o(__ARM_d__Z15qmlRegisterTypeIN10QtMobility33QDeclarativeLandmarkCategoryModelEEiPKciiS3_)
    __ARM_d__Z15qmlRegisterTypeIN10QtMobility33QDeclarativeLandmarkCategoryModelEEiPKciiS3_ 0x0002a7b0   Section       76  location.o(__ARM_d__Z15qmlRegisterTypeIN10QtMobility33QDeclarativeLandmarkCategoryModelEEiPKciiS3_)
    __ARM_d__Z15qmlRegisterTypeIN10QtMobility34QDeclarativeLandmarkCategoryFilterEEiPKciiS3_$67 0x0002a7fc   Data           0  location.o(__ARM_d__Z15qmlRegisterTypeIN10QtMobility34QDeclarativeLandmarkCategoryFilterEEiPKciiS3_)
    __ARM_d__Z15qmlRegisterTypeIN10QtMobility34QDeclarativeLandmarkCategoryFilterEEiPKciiS3_ 0x0002a7fc   Section       76  location.o(__ARM_d__Z15qmlRegisterTypeIN10QtMobility34QDeclarativeLandmarkCategoryFilterEEiPKciiS3_)
    __ARM_d__Z15qmlRegisterTypeIN10QtMobility35QDeclarativeLandmarkProximityFilterEEiPKciiS3_$73 0x0002a848   Data           0  location.o(__ARM_d__Z15qmlRegisterTypeIN10QtMobility35QDeclarativeLandmarkProximityFilterEEiPKciiS3_)
    __ARM_d__Z15qmlRegisterTypeIN10QtMobility35QDeclarativeLandmarkProximityFilterEEiPKciiS3_ 0x0002a848   Section       76  location.o(__ARM_d__Z15qmlRegisterTypeIN10QtMobility35QDeclarativeLandmarkProximityFilterEEiPKciiS3_)
    __ARM_d__Z15qmlRegisterTypeIN10QtMobility38QDeclarativeLandmarkIntersectionFilterEEiPKciiS3_$79 0x0002a894   Data           0  location.o(__ARM_d__Z15qmlRegisterTypeIN10QtMobility38QDeclarativeLandmarkIntersectionFilterEEiPKciiS3_)
    __ARM_d__Z15qmlRegisterTypeIN10QtMobility38QDeclarativeLandmarkIntersectionFilterEEiPKciiS3_ 0x0002a894   Section       76  location.o(__ARM_d__Z15qmlRegisterTypeIN10QtMobility38QDeclarativeLandmarkIntersectionFilterEEiPKciiS3_)
    __ARM_d__Z15qmlRegisterTypeIN10QtMobility39QDeclarativeGeoServiceProviderParameterEEiPKciiS3_$109 0x0002a8e0   Data           0  location.o(__ARM_d__Z15qmlRegisterTypeIN10QtMobility39QDeclarativeGeoServiceProviderParameterEEiPKciiS3_)
    __ARM_d__Z15qmlRegisterTypeIN10QtMobility39QDeclarativeGeoServiceProviderParameterEEiPKciiS3_ 0x0002a8e0   Section       76  location.o(__ARM_d__Z15qmlRegisterTypeIN10QtMobility39QDeclarativeGeoServiceProviderParameterEEiPKciiS3_)
    __ARM_d__Z26qmlRegisterUncreatableTypeIN10QtMobility30QDeclarativeLandmarkFilterBaseEEiPKciiS3_RK7QString$88 0x0002a92c   Data           0  location.o(__ARM_d__Z26qmlRegisterUncreatableTypeIN10QtMobility30QDeclarativeLandmarkFilterBaseEEiPKciiS3_RK7QString)
    __ARM_d__Z26qmlRegisterUncreatableTypeIN10QtMobility30QDeclarativeLandmarkFilterBaseEEiPKciiS3_RK7QString 0x0002a92c   Section       76  location.o(__ARM_d__Z26qmlRegisterUncreatableTypeIN10QtMobility30QDeclarativeLandmarkFilterBaseEEiPKciiS3_RK7QString)
    __ARM_d__Z26qmlRegisterUncreatableTypeIN10QtMobility33QDeclarativeLandmarkAbstractModelEEiPKciiS3_RK7QString$91 0x0002a978   Data           0  location.o(__ARM_d__Z26qmlRegisterUncreatableTypeIN10QtMobility33QDeclarativeLandmarkAbstractModelEEiPKciiS3_RK7QString)
    __ARM_d__Z26qmlRegisterUncreatableTypeIN10QtMobility33QDeclarativeLandmarkAbstractModelEEiPKciiS3_RK7QString 0x0002a978   Section       76  location.o(__ARM_d__Z26qmlRegisterUncreatableTypeIN10QtMobility33QDeclarativeLandmarkAbstractModelEEiPKciiS3_RK7QString)
    .ARM.exidx                               0x0002a9c4   Section        8  ucppinit.o(.ARM.exidx)
    .data$0                                  0x00400000   Data           0  location.o(.data)
    _ZGV_instance@qt_plugin_instance_0       0x00400000   Data           4  location.o(.data)
    .data                                    0x00400000   Section        8  location.o(.data)
    _instance@qt_plugin_instance_1           0x00400004   Data           4  location.o(.data)
    .data$0                                  0x00400008   Data           0  ucppfini.o(.data)
    .data                                    0x00400008   Section        4  ucppfini.o(.data)
    .data__ZNSt19_Atomic_swap_structILi1EE12_S_swap_lockE 0x0040000c   Section       12  qdeclarativeposition.o(.data__ZNSt19_Atomic_swap_structILi1EE12_S_swap_lockE)
    .data__ZZN11QMetaTypeIdI24QDeclarativeListPropertyIN10QtMobility20QDeclarativeGeoPlaceEEE14qt_metatype_idEvE11metatype_id 0x00400018   Section        4  location.o(.data__ZZN11QMetaTypeIdI24QDeclarativeListPropertyIN10QtMobility20QDeclarativeGeoPlaceEEE14qt_metatype_idEvE11metatype_id)
    .data__ZZN11QMetaTypeIdI24QDeclarativeListPropertyIN10QtMobility20QDeclarativeLandmarkEEE14qt_metatype_idEvE11metatype_id 0x0040001c   Section        4  location.o(.data__ZZN11QMetaTypeIdI24QDeclarativeListPropertyIN10QtMobility20QDeclarativeLandmarkEEE14qt_metatype_idEvE11metatype_id)
    .data__ZZN11QMetaTypeIdI24QDeclarativeListPropertyIN10QtMobility20QDeclarativePositionEEE14qt_metatype_idEvE11metatype_id 0x00400020   Section        4  location.o(.data__ZZN11QMetaTypeIdI24QDeclarativeListPropertyIN10QtMobility20QDeclarativePositionEEE14qt_metatype_idEvE11metatype_id)
    .data__ZZN11QMetaTypeIdI24QDeclarativeListPropertyIN10QtMobility22QDeclarativeCoordinateEEE14qt_metatype_idEvE11metatype_id 0x00400024   Section        4  location.o(.data__ZZN11QMetaTypeIdI24QDeclarativeListPropertyIN10QtMobility22QDeclarativeCoordinateEEE14qt_metatype_idEvE11metatype_id)
    .data__ZZN11QMetaTypeIdI24QDeclarativeListPropertyIN10QtMobility22QDeclarativeGeoAddressEEE14qt_metatype_idEvE11metatype_id 0x00400028   Section        4  location.o(.data__ZZN11QMetaTypeIdI24QDeclarativeListPropertyIN10QtMobility22QDeclarativeGeoAddressEEE14qt_metatype_idEvE11metatype_id)
    .data__ZZN11QMetaTypeIdI24QDeclarativeListPropertyIN10QtMobility24QDeclarativeGeoMapObjectEEE14qt_metatype_idEvE11metatype_id 0x0040002c   Section        4  location.o(.data__ZZN11QMetaTypeIdI24QDeclarativeListPropertyIN10QtMobility24QDeclarativeGeoMapObjectEEE14qt_metatype_idEvE11metatype_id)
    .data__ZZN11QMetaTypeIdI24QDeclarativeListPropertyIN10QtMobility25QDeclarativeLandmarkModelEEE14qt_metatype_idEvE11metatype_id 0x00400030   Section        4  location.o(.data__ZZN11QMetaTypeIdI24QDeclarativeListPropertyIN10QtMobility25QDeclarativeLandmarkModelEEE14qt_metatype_idEvE11metatype_id)
    .data__ZZN11QMetaTypeIdI24QDeclarativeListPropertyIN10QtMobility26QDeclarativeGeoBoundingBoxEEE14qt_metatype_idEvE11metatype_id 0x00400034   Section        4  location.o(.data__ZZN11QMetaTypeIdI24QDeclarativeListPropertyIN10QtMobility26QDeclarativeGeoBoundingBoxEEE14qt_metatype_idEvE11metatype_id)
    .data__ZZN11QMetaTypeIdI24QDeclarativeListPropertyIN10QtMobility26QDeclarativeGraphicsGeoMapEEE14qt_metatype_idEvE11metatype_id 0x00400038   Section        4  location.o(.data__ZZN11QMetaTypeIdI24QDeclarativeListPropertyIN10QtMobility26QDeclarativeGraphicsGeoMapEEE14qt_metatype_idEvE11metatype_id)
    .data__ZZN11QMetaTypeIdI24QDeclarativeListPropertyIN10QtMobility26QDeclarativePositionSourceEEE14qt_metatype_idEvE11metatype_id 0x0040003c   Section        4  location.o(.data__ZZN11QMetaTypeIdI24QDeclarativeListPropertyIN10QtMobility26QDeclarativePositionSourceEEE14qt_metatype_idEvE11metatype_id)
    .data__ZZN11QMetaTypeIdI24QDeclarativeListPropertyIN10QtMobility28QDeclarativeGeoMapTextObjectEEE14qt_metatype_idEvE11metatype_id 0x00400040   Section        4  location.o(.data__ZZN11QMetaTypeIdI24QDeclarativeListPropertyIN10QtMobility28QDeclarativeGeoMapTextObjectEEE14qt_metatype_idEvE11metatype_id)
    .data__ZZN11QMetaTypeIdI24QDeclarativeListPropertyIN10QtMobility28QDeclarativeLandmarkCategoryEEE14qt_metatype_idEvE11metatype_id 0x00400044   Section        4  location.o(.data__ZZN11QMetaTypeIdI24QDeclarativeListPropertyIN10QtMobility28QDeclarativeLandmarkCategoryEEE14qt_metatype_idEvE11metatype_id)
    .data__ZZN11QMetaTypeIdI24QDeclarativeListPropertyIN10QtMobility29QDeclarativeLandmarkBoxFilterEEE14qt_metatype_idEvE11metatype_id 0x00400048   Section        4  location.o(.data__ZZN11QMetaTypeIdI24QDeclarativeListPropertyIN10QtMobility29QDeclarativeLandmarkBoxFilterEEE14qt_metatype_idEvE11metatype_id)
    .data__ZZN11QMetaTypeIdI24QDeclarativeListPropertyIN10QtMobility30QDeclarativeGeoMapCircleObjectEEE14qt_metatype_idEvE11metatype_id 0x0040004c   Section        4  location.o(.data__ZZN11QMetaTypeIdI24QDeclarativeListPropertyIN10QtMobility30QDeclarativeGeoMapCircleObjectEEE14qt_metatype_idEvE11metatype_id)
    .data__ZZN11QMetaTypeIdI24QDeclarativeListPropertyIN10QtMobility30QDeclarativeGeoMapObjectBorderEEE14qt_metatype_idEvE11metatype_id 0x00400050   Section        4  location.o(.data__ZZN11QMetaTypeIdI24QDeclarativeListPropertyIN10QtMobility30QDeclarativeGeoMapObjectBorderEEE14qt_metatype_idEvE11metatype_id)
    .data__ZZN11QMetaTypeIdI24QDeclarativeListPropertyIN10QtMobility30QDeclarativeGeoMapPixmapObjectEEE14qt_metatype_idEvE11metatype_id 0x00400054   Section        4  location.o(.data__ZZN11QMetaTypeIdI24QDeclarativeListPropertyIN10QtMobility30QDeclarativeGeoMapPixmapObjectEEE14qt_metatype_idEvE11metatype_id)
    .data__ZZN11QMetaTypeIdI24QDeclarativeListPropertyIN10QtMobility30QDeclarativeGeoServiceProviderEEE14qt_metatype_idEvE11metatype_id 0x00400058   Section        4  location.o(.data__ZZN11QMetaTypeIdI24QDeclarativeListPropertyIN10QtMobility30QDeclarativeGeoServiceProviderEEE14qt_metatype_idEvE11metatype_id)
    .data__ZZN11QMetaTypeIdI24QDeclarativeListPropertyIN10QtMobility30QDeclarativeLandmarkNameFilterEEE14qt_metatype_idEvE11metatype_id 0x0040005c   Section        4  location.o(.data__ZZN11QMetaTypeIdI24QDeclarativeListPropertyIN10QtMobility30QDeclarativeLandmarkNameFilterEEE14qt_metatype_idEvE11metatype_id)
    .data__ZZN11QMetaTypeIdI24QDeclarativeListPropertyIN10QtMobility31QDeclarativeGeoMapPolygonObjectEEE14qt_metatype_idEvE11metatype_id 0x00400060   Section        4  location.o(.data__ZZN11QMetaTypeIdI24QDeclarativeListPropertyIN10QtMobility31QDeclarativeGeoMapPolygonObjectEEE14qt_metatype_idEvE11metatype_id)
    .data__ZZN11QMetaTypeIdI24QDeclarativeListPropertyIN10QtMobility31QDeclarativeLandmarkUnionFilterEEE14qt_metatype_idEvE11metatype_id 0x00400064   Section        4  location.o(.data__ZZN11QMetaTypeIdI24QDeclarativeListPropertyIN10QtMobility31QDeclarativeLandmarkUnionFilterEEE14qt_metatype_idEvE11metatype_id)
    .data__ZZN11QMetaTypeIdI24QDeclarativeListPropertyIN10QtMobility32QDeclarativeGeoMapPolylineObjectEEE14qt_metatype_idEvE11metatype_id 0x00400068   Section        4  location.o(.data__ZZN11QMetaTypeIdI24QDeclarativeListPropertyIN10QtMobility32QDeclarativeGeoMapPolylineObjectEEE14qt_metatype_idEvE11metatype_id)
    .data__ZZN11QMetaTypeIdI24QDeclarativeListPropertyIN10QtMobility33QDeclarativeGeoMapRectangleObjectEEE14qt_metatype_idEvE11metatype_id 0x0040006c   Section        4  location.o(.data__ZZN11QMetaTypeIdI24QDeclarativeListPropertyIN10QtMobility33QDeclarativeGeoMapRectangleObjectEEE14qt_metatype_idEvE11metatype_id)
    .data__ZZN11QMetaTypeIdI24QDeclarativeListPropertyIN10QtMobility33QDeclarativeLandmarkCategoryModelEEE14qt_metatype_idEvE11metatype_id 0x00400070   Section        4  location.o(.data__ZZN11QMetaTypeIdI24QDeclarativeListPropertyIN10QtMobility33QDeclarativeLandmarkCategoryModelEEE14qt_metatype_idEvE11metatype_id)
    .data__ZZN11QMetaTypeIdI24QDeclarativeListPropertyIN10QtMobility34QDeclarativeLandmarkCategoryFilterEEE14qt_metatype_idEvE11metatype_id 0x00400074   Section        4  location.o(.data__ZZN11QMetaTypeIdI24QDeclarativeListPropertyIN10QtMobility34QDeclarativeLandmarkCategoryFilterEEE14qt_metatype_idEvE11metatype_id)
    .data__ZZN11QMetaTypeIdI24QDeclarativeListPropertyIN10QtMobility35QDeclarativeLandmarkProximityFilterEEE14qt_metatype_idEvE11metatype_id 0x00400078   Section        4  location.o(.data__ZZN11QMetaTypeIdI24QDeclarativeListPropertyIN10QtMobility35QDeclarativeLandmarkProximityFilterEEE14qt_metatype_idEvE11metatype_id)
    .data__ZZN11QMetaTypeIdI24QDeclarativeListPropertyIN10QtMobility38QDeclarativeLandmarkIntersectionFilterEEE14qt_metatype_idEvE11metatype_id 0x0040007c   Section        4  location.o(.data__ZZN11QMetaTypeIdI24QDeclarativeListPropertyIN10QtMobility38QDeclarativeLandmarkIntersectionFilterEEE14qt_metatype_idEvE11metatype_id)
    .data__ZZN11QMetaTypeIdI24QDeclarativeListPropertyIN10QtMobility39QDeclarativeGeoServiceProviderParameterEEE14qt_metatype_idEvE11metatype_id 0x00400080   Section        4  location.o(.data__ZZN11QMetaTypeIdI24QDeclarativeListPropertyIN10QtMobility39QDeclarativeGeoServiceProviderParameterEEE14qt_metatype_idEvE11metatype_id)
    .data__ZZN11QMetaTypeIdIN10QtMobility9QLandmarkEE14qt_metatype_idEvE11metatype_id 0x00400084   Section        4  qdeclarativegeosearchmodel.o(.data__ZZN11QMetaTypeIdIN10QtMobility9QLandmarkEE14qt_metatype_idEvE11metatype_id)
    .data__ZZN11QMetaTypeIdIPN10QtMobility20QDeclarativeGeoPlaceEE14qt_metatype_idEvE11metatype_id 0x00400088   Section        4  location.o(.data__ZZN11QMetaTypeIdIPN10QtMobility20QDeclarativeGeoPlaceEE14qt_metatype_idEvE11metatype_id)
    .data__ZZN11QMetaTypeIdIPN10QtMobility20QDeclarativeLandmarkEE14qt_metatype_idEvE11metatype_id 0x0040008c   Section        4  location.o(.data__ZZN11QMetaTypeIdIPN10QtMobility20QDeclarativeLandmarkEE14qt_metatype_idEvE11metatype_id)
    .data__ZZN11QMetaTypeIdIPN10QtMobility20QDeclarativePositionEE14qt_metatype_idEvE11metatype_id 0x00400090   Section        4  location.o(.data__ZZN11QMetaTypeIdIPN10QtMobility20QDeclarativePositionEE14qt_metatype_idEvE11metatype_id)
    .data__ZZN11QMetaTypeIdIPN10QtMobility22QDeclarativeCoordinateEE14qt_metatype_idEvE11metatype_id 0x00400094   Section        4  location.o(.data__ZZN11QMetaTypeIdIPN10QtMobility22QDeclarativeCoordinateEE14qt_metatype_idEvE11metatype_id)
    .data__ZZN11QMetaTypeIdIPN10QtMobility22QDeclarativeGeoAddressEE14qt_metatype_idEvE11metatype_id 0x00400098   Section        4  location.o(.data__ZZN11QMetaTypeIdIPN10QtMobility22QDeclarativeGeoAddressEE14qt_metatype_idEvE11metatype_id)
    .data__ZZN11QMetaTypeIdIPN10QtMobility24QDeclarativeGeoMapObjectEE14qt_metatype_idEvE11metatype_id 0x0040009c   Section        4  location.o(.data__ZZN11QMetaTypeIdIPN10QtMobility24QDeclarativeGeoMapObjectEE14qt_metatype_idEvE11metatype_id)
    .data__ZZN11QMetaTypeIdIPN10QtMobility25QDeclarativeLandmarkModelEE14qt_metatype_idEvE11metatype_id 0x004000a0   Section        4  location.o(.data__ZZN11QMetaTypeIdIPN10QtMobility25QDeclarativeLandmarkModelEE14qt_metatype_idEvE11metatype_id)
    .data__ZZN11QMetaTypeIdIPN10QtMobility26QDeclarativeGeoBoundingBoxEE14qt_metatype_idEvE11metatype_id 0x004000a4   Section        4  location.o(.data__ZZN11QMetaTypeIdIPN10QtMobility26QDeclarativeGeoBoundingBoxEE14qt_metatype_idEvE11metatype_id)
    .data__ZZN11QMetaTypeIdIPN10QtMobility26QDeclarativeGraphicsGeoMapEE14qt_metatype_idEvE11metatype_id 0x004000a8   Section        4  location.o(.data__ZZN11QMetaTypeIdIPN10QtMobility26QDeclarativeGraphicsGeoMapEE14qt_metatype_idEvE11metatype_id)
    .data__ZZN11QMetaTypeIdIPN10QtMobility26QDeclarativePositionSourceEE14qt_metatype_idEvE11metatype_id 0x004000ac   Section        4  location.o(.data__ZZN11QMetaTypeIdIPN10QtMobility26QDeclarativePositionSourceEE14qt_metatype_idEvE11metatype_id)
    .data__ZZN11QMetaTypeIdIPN10QtMobility28QDeclarativeGeoMapTextObjectEE14qt_metatype_idEvE11metatype_id 0x004000b0   Section        4  location.o(.data__ZZN11QMetaTypeIdIPN10QtMobility28QDeclarativeGeoMapTextObjectEE14qt_metatype_idEvE11metatype_id)
    .data__ZZN11QMetaTypeIdIPN10QtMobility28QDeclarativeLandmarkCategoryEE14qt_metatype_idEvE11metatype_id 0x004000b4   Section        4  location.o(.data__ZZN11QMetaTypeIdIPN10QtMobility28QDeclarativeLandmarkCategoryEE14qt_metatype_idEvE11metatype_id)
    .data__ZZN11QMetaTypeIdIPN10QtMobility29QDeclarativeLandmarkBoxFilterEE14qt_metatype_idEvE11metatype_id 0x004000b8   Section        4  location.o(.data__ZZN11QMetaTypeIdIPN10QtMobility29QDeclarativeLandmarkBoxFilterEE14qt_metatype_idEvE11metatype_id)
    .data__ZZN11QMetaTypeIdIPN10QtMobility30QDeclarativeGeoMapCircleObjectEE14qt_metatype_idEvE11metatype_id 0x004000bc   Section        4  location.o(.data__ZZN11QMetaTypeIdIPN10QtMobility30QDeclarativeGeoMapCircleObjectEE14qt_metatype_idEvE11metatype_id)
    .data__ZZN11QMetaTypeIdIPN10QtMobility30QDeclarativeGeoMapObjectBorderEE14qt_metatype_idEvE11metatype_id 0x004000c0   Section        4  location.o(.data__ZZN11QMetaTypeIdIPN10QtMobility30QDeclarativeGeoMapObjectBorderEE14qt_metatype_idEvE11metatype_id)
    .data__ZZN11QMetaTypeIdIPN10QtMobility30QDeclarativeGeoMapPixmapObjectEE14qt_metatype_idEvE11metatype_id 0x004000c4   Section        4  location.o(.data__ZZN11QMetaTypeIdIPN10QtMobility30QDeclarativeGeoMapPixmapObjectEE14qt_metatype_idEvE11metatype_id)
    .data__ZZN11QMetaTypeIdIPN10QtMobility30QDeclarativeGeoServiceProviderEE14qt_metatype_idEvE11metatype_id 0x004000c8   Section        4  location.o(.data__ZZN11QMetaTypeIdIPN10QtMobility30QDeclarativeGeoServiceProviderEE14qt_metatype_idEvE11metatype_id)
    .data__ZZN11QMetaTypeIdIPN10QtMobility30QDeclarativeLandmarkNameFilterEE14qt_metatype_idEvE11metatype_id 0x004000cc   Section        4  location.o(.data__ZZN11QMetaTypeIdIPN10QtMobility30QDeclarativeLandmarkNameFilterEE14qt_metatype_idEvE11metatype_id)
    .data__ZZN11QMetaTypeIdIPN10QtMobility31QDeclarativeGeoMapPolygonObjectEE14qt_metatype_idEvE11metatype_id 0x004000d0   Section        4  location.o(.data__ZZN11QMetaTypeIdIPN10QtMobility31QDeclarativeGeoMapPolygonObjectEE14qt_metatype_idEvE11metatype_id)
    .data__ZZN11QMetaTypeIdIPN10QtMobility31QDeclarativeLandmarkUnionFilterEE14qt_metatype_idEvE11metatype_id 0x004000d4   Section        4  location.o(.data__ZZN11QMetaTypeIdIPN10QtMobility31QDeclarativeLandmarkUnionFilterEE14qt_metatype_idEvE11metatype_id)
    .data__ZZN11QMetaTypeIdIPN10QtMobility32QDeclarativeGeoMapPolylineObjectEE14qt_metatype_idEvE11metatype_id 0x004000d8   Section        4  location.o(.data__ZZN11QMetaTypeIdIPN10QtMobility32QDeclarativeGeoMapPolylineObjectEE14qt_metatype_idEvE11metatype_id)
    .data__ZZN11QMetaTypeIdIPN10QtMobility33QDeclarativeGeoMapRectangleObjectEE14qt_metatype_idEvE11metatype_id 0x004000dc   Section        4  location.o(.data__ZZN11QMetaTypeIdIPN10QtMobility33QDeclarativeGeoMapRectangleObjectEE14qt_metatype_idEvE11metatype_id)
    .data__ZZN11QMetaTypeIdIPN10QtMobility33QDeclarativeLandmarkCategoryModelEE14qt_metatype_idEvE11metatype_id 0x004000e0   Section        4  location.o(.data__ZZN11QMetaTypeIdIPN10QtMobility33QDeclarativeLandmarkCategoryModelEE14qt_metatype_idEvE11metatype_id)
    .data__ZZN11QMetaTypeIdIPN10QtMobility34QDeclarativeLandmarkCategoryFilterEE14qt_metatype_idEvE11metatype_id 0x004000e4   Section        4  location.o(.data__ZZN11QMetaTypeIdIPN10QtMobility34QDeclarativeLandmarkCategoryFilterEE14qt_metatype_idEvE11metatype_id)
    .data__ZZN11QMetaTypeIdIPN10QtMobility35QDeclarativeLandmarkProximityFilterEE14qt_metatype_idEvE11metatype_id 0x004000e8   Section        4  location.o(.data__ZZN11QMetaTypeIdIPN10QtMobility35QDeclarativeLandmarkProximityFilterEE14qt_metatype_idEvE11metatype_id)
    .data__ZZN11QMetaTypeIdIPN10QtMobility38QDeclarativeLandmarkIntersectionFilterEE14qt_metatype_idEvE11metatype_id 0x004000ec   Section        4  location.o(.data__ZZN11QMetaTypeIdIPN10QtMobility38QDeclarativeLandmarkIntersectionFilterEE14qt_metatype_idEvE11metatype_id)
    .data__ZZN11QMetaTypeIdIPN10QtMobility39QDeclarativeGeoServiceProviderParameterEE14qt_metatype_idEvE11metatype_id 0x004000f0   Section        4  location.o(.data__ZZN11QMetaTypeIdIPN10QtMobility39QDeclarativeGeoServiceProviderParameterEE14qt_metatype_idEvE11metatype_id)
    .bss$5                                   0x004000f4   Data           0  ucppfini.o(.bss)
    .bss                                     0x004000f4   Section     2048  ucppfini.o(.bss)

    Global Symbols

    Symbol Name                              Value     Ov Type        Size  Object(Section)

    BuildAttributes$$THUMB_ISAv2$ARM_ISAv5$M$VFPv2$PE$A:L22$X:L11$S22$IEEE1$IW$USESV6$~STKCKD$USESV7$~SHL$OSPACE$ROPI$IEEEJ$EBA8$UX$FPIC$INDIRECT$REQ8$PRES8$EABIv2 0x00000000   Number         0  anon$$obj.o ABSOLUTE
    QtCore{00040703}[2001b2dc].dll           0x00000000   Data           0  anon$$obj.o ABSOLUTE
    QtDeclarative{00040703}[2001e623].dll    0x00000000   Data           0  anon$$obj.o ABSOLUTE
    QtGui{00040703}[2001b2dd].dll            0x00000000   Data           0  anon$$obj.o ABSOLUTE
    QtLocation{00010103}[2002ac83].dll       0x00000000   Data           0  anon$$obj.o ABSOLUTE
    QtNetwork{00040703}[2001b2de].dll        0x00000000   Data           0  anon$$obj.o ABSOLUTE
    declarative_location{000a0000}[20033007].dll 0x00000000   Data           0  anon$$obj.o ABSOLUTE
    dfpaeabi{000a0000}.dll                   0x00000000   Data           0  anon$$obj.o ABSOLUTE
    drtaeabi{000a0000}.dll                   0x00000000   Data           0  anon$$obj.o ABSOLUTE
    euser{000a0000}[100039e5].dll            0x00000000   Data           0  anon$$obj.o ABSOLUTE
    libc{00010001}[10207369].dll             0x00000000   Data           0  anon$$obj.o ABSOLUTE
    stdnew{000a0000}[20022178].dll           0x00000000   Data           0  anon$$obj.o ABSOLUTE
    SHT$$INIT_ARRAY$$Base                     - Undefined Weak Reference
    SHT$$INIT_ARRAY$$Limit                    - Undefined Weak Reference
    qt_message_output(QtMsgType, const char*)  - Undefined Reference
    _Z17qt_message_output9QtMsgTypePKc@QtCore{00040703}[2001b2dc].dll  - Undefined Reference
    qFree(void*)                              - Undefined Reference
    _Z5qFreePv@QtCore{00040703}[2001b2dc].dll  - Undefined Reference
    qQNaN()                                   - Undefined Reference
    _Z5qQNaNv@QtCore{00040703}[2001b2dc].dll  - Undefined Reference
    qIsNaN(double)                            - Undefined Reference
    _Z6qIsNaNd@QtCore{00040703}[2001b2dc].dll  - Undefined Reference
    QByteArray::shared_null                   - Undefined Reference
    _ZN10QByteArray11shared_nullE@QtCore{00040703}[2001b2dc].dll  - Undefined Reference
    QByteArray::append(const char*)           - Undefined Reference
    _ZN10QByteArray6appendEPKc@QtCore{00040703}[2001b2dc].dll  - Undefined Reference
    QByteArray::append(const QByteArray&)     - Undefined Reference
    _ZN10QByteArray6appendERKS_@QtCore{00040703}[2001b2dc].dll  - Undefined Reference
    QByteArray::append(char)                  - Undefined Reference
    _ZN10QByteArray6appendEc@QtCore{00040703}[2001b2dc].dll  - Undefined Reference
    QByteArray::realloc(int)                  - Undefined Reference
    _ZN10QByteArray7reallocEi@QtCore{00040703}[2001b2dc].dll  - Undefined Reference
    QByteArray::QByteArray(const char*)       - Undefined Reference
    _ZN10QByteArrayC1EPKc@QtCore{00040703}[2001b2dc].dll  - Undefined Reference
    QByteArray::operator =(const QByteArray&)  - Undefined Reference
    _ZN10QByteArrayaSERKS_@QtCore{00040703}[2001b2dc].dll  - Undefined Reference
    QtMobility::QGeoAddress::setCountry(const QString&)  - Undefined Reference
    _ZN10QtMobility11QGeoAddress10setCountryERK7QString@QtLocation{00010103}[2002ac83].dll  - Undefined Reference
    QtMobility::QGeoAddress::setDistrict(const QString&)  - Undefined Reference
    _ZN10QtMobility11QGeoAddress11setDistrictERK7QString@QtLocation{00010103}[2002ac83].dll  - Undefined Reference
    QtMobility::QGeoAddress::setPostcode(const QString&)  - Undefined Reference
    _ZN10QtMobility11QGeoAddress11setPostcodeERK7QString@QtLocation{00010103}[2002ac83].dll  - Undefined Reference
    QtMobility::QGeoAddress::setCountryCode(const QString&)  - Undefined Reference
    _ZN10QtMobility11QGeoAddress14setCountryCodeERK7QString@QtLocation{00010103}[2002ac83].dll  - Undefined Reference
    QtMobility::QGeoAddress::setCity(const QString&)  - Undefined Reference
    _ZN10QtMobility11QGeoAddress7setCityERK7QString@QtLocation{00010103}[2002ac83].dll  - Undefined Reference
    QtMobility::QGeoAddress::setState(const QString&)  - Undefined Reference
    _ZN10QtMobility11QGeoAddress8setStateERK7QString@QtLocation{00010103}[2002ac83].dll  - Undefined Reference
    QtMobility::QGeoAddress::setCounty(const QString&)  - Undefined Reference
    _ZN10QtMobility11QGeoAddress9setCountyERK7QString@QtLocation{00010103}[2002ac83].dll  - Undefined Reference
    QtMobility::QGeoAddress::setStreet(const QString&)  - Undefined Reference
    _ZN10QtMobility11QGeoAddress9setStreetERK7QString@QtLocation{00010103}[2002ac83].dll  - Undefined Reference
    QtMobility::QGeoAddress::QGeoAddress(const QtMobility::QGeoAddress&)  - Undefined Reference
    _ZN10QtMobility11QGeoAddressC1ERKS0_@QtLocation{00010103}[2002ac83].dll  - Undefined Reference
    QtMobility::QGeoAddress::QGeoAddress()    - Undefined Reference
    _ZN10QtMobility11QGeoAddressC1Ev@QtLocation{00010103}[2002ac83].dll  - Undefined Reference
    QtMobility::QGeoAddress::~QGeoAddress()   - Undefined Reference
    _ZN10QtMobility11QGeoAddressD1Ev@QtLocation{00010103}[2002ac83].dll  - Undefined Reference
    QtMobility::QGeoAddress::operator =(const QtMobility::QGeoAddress&)  - Undefined Reference
    _ZN10QtMobility11QGeoAddressaSERKS0_@QtLocation{00010103}[2002ac83].dll  - Undefined Reference
    QtMobility::QGeoMapData::addMapObject(QtMobility::QGeoMapObject*)  - Undefined Reference
    _ZN10QtMobility11QGeoMapData12addMapObjectEPNS_13QGeoMapObjectE@QtLocation{00010103}[2002ac83].dll  - Undefined Reference
    QtMobility::QGeoMapData::clearMapObjects()  - Undefined Reference
    _ZN10QtMobility11QGeoMapData15clearMapObjectsEv@QtLocation{00010103}[2002ac83].dll  - Undefined Reference
    QtMobility::QLandmarkId::~QLandmarkId()   - Undefined Reference
    _ZN10QtMobility11QLandmarkIdD1Ev@QtLocation{00010103}[2002ac83].dll  - Undefined Reference
    QtMobility::QGeoMapObject::setMapData(QtMobility::QGeoMapData*)  - Undefined Reference
    _ZN10QtMobility13QGeoMapObject10setMapDataEPNS_11QGeoMapDataE@QtLocation{00010103}[2002ac83].dll  - Undefined Reference
    QtMobility::QGeoMapObject::qt_metacall(QMetaObject::Call, int, void**)  - Undefined Reference
    _ZN10QtMobility13QGeoMapObject11qt_metacallEN11QMetaObject4CallEiPPv@QtLocation{00010103}[2002ac83].dll  - Undefined Reference
    QtMobility::QGeoMapObject::qt_metacast(const char*)  - Undefined Reference
    _ZN10QtMobility13QGeoMapObject11qt_metacastEPKc@QtLocation{00010103}[2002ac83].dll  - Undefined Reference
    QtMobility::QGeoMapObject::staticMetaObject  - Undefined Reference
    _ZN10QtMobility13QGeoMapObject16staticMetaObjectE@QtLocation{00010103}[2002ac83].dll  - Undefined Reference
    QtMobility::QGeoMapObject::QGeoMapObject(QtMobility::QGeoMapData*)  - Undefined Reference
    _ZN10QtMobility13QGeoMapObjectC1EPNS_11QGeoMapDataE@QtLocation{00010103}[2002ac83].dll  - Undefined Reference
    QtMobility::QGeoMapObject::~QGeoMapObject()  - Undefined Reference
    _ZN10QtMobility13QGeoMapObjectD1Ev@QtLocation{00010103}[2002ac83].dll  - Undefined Reference
    QtMobility::QGeoCoordinate::setAltitude(double)  - Undefined Reference
    _ZN10QtMobility14QGeoCoordinate11setAltitudeEd@QtLocation{00010103}[2002ac83].dll  - Undefined Reference
    QtMobility::QGeoCoordinate::setLatitude(double)  - Undefined Reference
    _ZN10QtMobility14QGeoCoordinate11setLatitudeEd@QtLocation{00010103}[2002ac83].dll  - Undefined Reference
    QtMobility::QGeoCoordinate::setLongitude(double)  - Undefined Reference
    _ZN10QtMobility14QGeoCoordinate12setLongitudeEd@QtLocation{00010103}[2002ac83].dll  - Undefined Reference
    QtMobility::QGeoCoordinate::QGeoCoordinate(const QtMobility::QGeoCoordinate&)  - Undefined Reference
    _ZN10QtMobility14QGeoCoordinateC1ERKS0_@QtLocation{00010103}[2002ac83].dll  - Undefined Reference
    QtMobility::QGeoCoordinate::QGeoCoordinate(double, double)  - Undefined Reference
    _ZN10QtMobility14QGeoCoordinateC1Edd@QtLocation{00010103}[2002ac83].dll  - Undefined Reference
    QtMobility::QGeoCoordinate::QGeoCoordinate()  - Undefined Reference
    _ZN10QtMobility14QGeoCoordinateC1Ev@QtLocation{00010103}[2002ac83].dll  - Undefined Reference
    QtMobility::QGeoCoordinate::~QGeoCoordinate()  - Undefined Reference
    _ZN10QtMobility14QGeoCoordinateD1Ev@QtLocation{00010103}[2002ac83].dll  - Undefined Reference
    QtMobility::QGeoCoordinate::operator =(const QtMobility::QGeoCoordinate&)  - Undefined Reference
    _ZN10QtMobility14QGeoCoordinateaSERKS0_@QtLocation{00010103}[2002ac83].dll  - Undefined Reference
    QtMobility::QGeoBoundingBox::setTopLeft(const QtMobility::QGeoCoordinate&)  - Undefined Reference
    _ZN10QtMobility15QGeoBoundingBox10setTopLeftERKNS_14QGeoCoordinateE@QtLocation{00010103}[2002ac83].dll  - Undefined Reference
    QtMobility::QGeoBoundingBox::setTopRight(const QtMobility::QGeoCoordinate&)  - Undefined Reference
    _ZN10QtMobility15QGeoBoundingBox11setTopRightERKNS_14QGeoCoordinateE@QtLocation{00010103}[2002ac83].dll  - Undefined Reference
    QtMobility::QGeoBoundingBox::setBottomLeft(const QtMobility::QGeoCoordinate&)  - Undefined Reference
    _ZN10QtMobility15QGeoBoundingBox13setBottomLeftERKNS_14QGeoCoordinateE@QtLocation{00010103}[2002ac83].dll  - Undefined Reference
    QtMobility::QGeoBoundingBox::setBottomRight(const QtMobility::QGeoCoordinate&)  - Undefined Reference
    _ZN10QtMobility15QGeoBoundingBox14setBottomRightERKNS_14QGeoCoordinateE@QtLocation{00010103}[2002ac83].dll  - Undefined Reference
    QtMobility::QGeoBoundingBox::setWidth(double)  - Undefined Reference
    _ZN10QtMobility15QGeoBoundingBox8setWidthEd@QtLocation{00010103}[2002ac83].dll  - Undefined Reference
    QtMobility::QGeoBoundingBox::setCenter(const QtMobility::QGeoCoordinate&)  - Undefined Reference
    _ZN10QtMobility15QGeoBoundingBox9setCenterERKNS_14QGeoCoordinateE@QtLocation{00010103}[2002ac83].dll  - Undefined Reference
    QtMobility::QGeoBoundingBox::setHeight(double)  - Undefined Reference
    _ZN10QtMobility15QGeoBoundingBox9setHeightEd@QtLocation{00010103}[2002ac83].dll  - Undefined Reference
    QtMobility::QGeoBoundingBox::QGeoBoundingBox(const QtMobility::QGeoCoordinate&, const QtMobility::QGeoCoordinate&)  - Undefined Reference
    _ZN10QtMobility15QGeoBoundingBoxC1ERKNS_14QGeoCoordinateES3_@QtLocation{00010103}[2002ac83].dll  - Undefined Reference
    QtMobility::QGeoBoundingBox::QGeoBoundingBox(const QtMobility::QGeoBoundingBox&)  - Undefined Reference
    _ZN10QtMobility15QGeoBoundingBoxC1ERKS0_@QtLocation{00010103}[2002ac83].dll  - Undefined Reference
    QtMobility::QGeoBoundingBox::QGeoBoundingBox()  - Undefined Reference
    _ZN10QtMobility15QGeoBoundingBoxC1Ev@QtLocation{00010103}[2002ac83].dll  - Undefined Reference
    QtMobility::QGeoBoundingBox::~QGeoBoundingBox()  - Undefined Reference
    _ZN10QtMobility15QGeoBoundingBoxD1Ev@QtLocation{00010103}[2002ac83].dll  - Undefined Reference
    QtMobility::QGeoBoundingBox::operator =(const QtMobility::QGeoBoundingBox&)  - Undefined Reference
    _ZN10QtMobility15QGeoBoundingBoxaSERKS0_@QtLocation{00010103}[2002ac83].dll  - Undefined Reference
    QtMobility::QLandmarkManager::QLandmarkManager(QObject*)  - Undefined Reference
    _ZN10QtMobility16QLandmarkManagerC1EP7QObject@QtLocation{00010103}[2002ac83].dll  - Undefined Reference
    QtMobility::QGeoMapTextObject::qt_metacall(QMetaObject::Call, int, void**)  - Undefined Reference
    _ZN10QtMobility17QGeoMapTextObject11qt_metacallEN11QMetaObject4CallEiPPv@QtLocation{00010103}[2002ac83].dll  - Undefined Reference
    QtMobility::QGeoMapTextObject::qt_metacast(const char*)  - Undefined Reference
    _ZN10QtMobility17QGeoMapTextObject11qt_metacastEPKc@QtLocation{00010103}[2002ac83].dll  - Undefined Reference
    QtMobility::QGeoMapTextObject::setAlignment(QFlags<Qt::AlignmentFlag>)  - Undefined Reference
    _ZN10QtMobility17QGeoMapTextObject12setAlignmentE6QFlagsIN2Qt13AlignmentFlagEE@QtLocation{00010103}[2002ac83].dll  - Undefined Reference
    QtMobility::QGeoMapTextObject::setCoordinate(const QtMobility::QGeoCoordinate&)  - Undefined Reference
    _ZN10QtMobility17QGeoMapTextObject13setCoordinateERKNS_14QGeoCoordinateE@QtLocation{00010103}[2002ac83].dll  - Undefined Reference
    QtMobility::QGeoMapTextObject::staticMetaObject  - Undefined Reference
    _ZN10QtMobility17QGeoMapTextObject16staticMetaObjectE@QtLocation{00010103}[2002ac83].dll  - Undefined Reference
    QtMobility::QGeoMapTextObject::setPen(const QPen&)  - Undefined Reference
    _ZN10QtMobility17QGeoMapTextObject6setPenERK4QPen@QtLocation{00010103}[2002ac83].dll  - Undefined Reference
    QtMobility::QGeoMapTextObject::setBrush(const QBrush&)  - Undefined Reference
    _ZN10QtMobility17QGeoMapTextObject8setBrushERK6QBrush@QtLocation{00010103}[2002ac83].dll  - Undefined Reference
    QtMobility::QGeoMapTextObject::QGeoMapTextObject()  - Undefined Reference
    _ZN10QtMobility17QGeoMapTextObjectC1Ev@QtLocation{00010103}[2002ac83].dll  - Undefined Reference
    QtMobility::QGeoMapTextObject::~QGeoMapTextObject()  - Undefined Reference
    _ZN10QtMobility17QGeoMapTextObjectD1Ev@QtLocation{00010103}[2002ac83].dll  - Undefined Reference
    QtMobility::QGeoSearchManager::reverseGeocode(const QtMobility::QGeoCoordinate&, QtMobility::QGeoBoundingArea*)  - Undefined Reference
    _ZN10QtMobility17QGeoSearchManager14reverseGeocodeERKNS_14QGeoCoordinateEPNS_16QGeoBoundingAreaE@QtLocation{00010103}[2002ac83].dll  - Undefined Reference
    QtMobility::QGeoSearchManager::geocode(const QtMobility::QGeoAddress&, QtMobility::QGeoBoundingArea*)  - Undefined Reference
    _ZN10QtMobility17QGeoSearchManager7geocodeERKNS_11QGeoAddressEPNS_16QGeoBoundingAreaE@QtLocation{00010103}[2002ac83].dll  - Undefined Reference
    QtMobility::QLandmarkCategory::setIconUrl(const QUrl&)  - Undefined Reference
    _ZN10QtMobility17QLandmarkCategory10setIconUrlERK4QUrl@QtLocation{00010103}[2002ac83].dll  - Undefined Reference
    QtMobility::QLandmarkCategory::setName(const QString&)  - Undefined Reference
    _ZN10QtMobility17QLandmarkCategory7setNameERK7QString@QtLocation{00010103}[2002ac83].dll  - Undefined Reference
    QtMobility::QLandmarkCategory::QLandmarkCategory(const QtMobility::QLandmarkCategory&)  - Undefined Reference
    _ZN10QtMobility17QLandmarkCategoryC1ERKS0_@QtLocation{00010103}[2002ac83].dll  - Undefined Reference
    QtMobility::QLandmarkCategory::QLandmarkCategory()  - Undefined Reference
    _ZN10QtMobility17QLandmarkCategoryC1Ev@QtLocation{00010103}[2002ac83].dll  - Undefined Reference
    QtMobility::QLandmarkCategory::~QLandmarkCategory()  - Undefined Reference
    _ZN10QtMobility17QLandmarkCategoryD1Ev@QtLocation{00010103}[2002ac83].dll  - Undefined Reference
    QtMobility::QLandmarkCategory::operator =(const QtMobility::QLandmarkCategory&)  - Undefined Reference
    _ZN10QtMobility17QLandmarkCategoryaSERKS0_@QtLocation{00010103}[2002ac83].dll  - Undefined Reference
    QtMobility::QLandmarkNameSort::QLandmarkNameSort(Qt::SortOrder, Qt::CaseSensitivity)  - Undefined Reference
    _ZN10QtMobility17QLandmarkNameSortC1EN2Qt9SortOrderENS1_15CaseSensitivityE@QtLocation{00010103}[2002ac83].dll  - Undefined Reference
    QtMobility::QLandmarkNameSort::QLandmarkNameSort(const QtMobility::QLandmarkSortOrder&)  - Undefined Reference
    _ZN10QtMobility17QLandmarkNameSortC1ERKNS_18QLandmarkSortOrderE@QtLocation{00010103}[2002ac83].dll  - Undefined Reference
    QtMobility::QLandmarkNameSort::~QLandmarkNameSort()  - Undefined Reference
    _ZN10QtMobility17QLandmarkNameSortD1Ev@QtLocation{00010103}[2002ac83].dll  - Undefined Reference
    QtMobility::QGeoMapGroupObject::setMapData(QtMobility::QGeoMapData*)  - Undefined Reference
    _ZN10QtMobility18QGeoMapGroupObject10setMapDataEPNS_11QGeoMapDataE@QtLocation{00010103}[2002ac83].dll  - Undefined Reference
    QtMobility::QGeoMapGroupObject::qt_metacall(QMetaObject::Call, int, void**)  - Undefined Reference
    _ZN10QtMobility18QGeoMapGroupObject11qt_metacallEN11QMetaObject4CallEiPPv@QtLocation{00010103}[2002ac83].dll  - Undefined Reference
    QtMobility::QGeoMapGroupObject::qt_metacast(const char*)  - Undefined Reference
    _ZN10QtMobility18QGeoMapGroupObject11qt_metacastEPKc@QtLocation{00010103}[2002ac83].dll  - Undefined Reference
    QtMobility::QGeoMapGroupObject::addChildObject(QtMobility::QGeoMapObject*)  - Undefined Reference
    _ZN10QtMobility18QGeoMapGroupObject14addChildObjectEPNS_13QGeoMapObjectE@QtLocation{00010103}[2002ac83].dll  - Undefined Reference
    QtMobility::QGeoMapGroupObject::staticMetaObject  - Undefined Reference
    _ZN10QtMobility18QGeoMapGroupObject16staticMetaObjectE@QtLocation{00010103}[2002ac83].dll  - Undefined Reference
    QtMobility::QGeoMapGroupObject::clearChildObjects()  - Undefined Reference
    _ZN10QtMobility18QGeoMapGroupObject17clearChildObjectsEv@QtLocation{00010103}[2002ac83].dll  - Undefined Reference
    QtMobility::QGeoMapGroupObject::QGeoMapGroupObject()  - Undefined Reference
    _ZN10QtMobility18QGeoMapGroupObjectC1Ev@QtLocation{00010103}[2002ac83].dll  - Undefined Reference
    QtMobility::QGeoMapGroupObject::~QGeoMapGroupObject()  - Undefined Reference
    _ZN10QtMobility18QGeoMapGroupObjectD1Ev@QtLocation{00010103}[2002ac83].dll  - Undefined Reference
    QtMobility::QGeoMappingManager::createMapData()  - Undefined Reference
    _ZN10QtMobility18QGeoMappingManager13createMapDataEv@QtLocation{00010103}[2002ac83].dll  - Undefined Reference
    QtMobility::QLandmarkBoxFilter::setBoundingBox(const QtMobility::QGeoBoundingBox&)  - Undefined Reference
    _ZN10QtMobility18QLandmarkBoxFilter14setBoundingBoxERKNS_15QGeoBoundingBoxE@QtLocation{00010103}[2002ac83].dll  - Undefined Reference
    QtMobility::QLandmarkBoxFilter::QLandmarkBoxFilter(const QtMobility::QGeoBoundingBox&)  - Undefined Reference
    _ZN10QtMobility18QLandmarkBoxFilterC1ERKNS_15QGeoBoundingBoxE@QtLocation{00010103}[2002ac83].dll  - Undefined Reference
    QtMobility::QLandmarkBoxFilter::~QLandmarkBoxFilter()  - Undefined Reference
    _ZN10QtMobility18QLandmarkBoxFilterD1Ev@QtLocation{00010103}[2002ac83].dll  - Undefined Reference
    QtMobility::QLandmarkSortOrder::setDirection(Qt::SortOrder)  - Undefined Reference
    _ZN10QtMobility18QLandmarkSortOrder12setDirectionEN2Qt9SortOrderE@QtLocation{00010103}[2002ac83].dll  - Undefined Reference
    QtMobility::QLandmarkSortOrder::QLandmarkSortOrder()  - Undefined Reference
    _ZN10QtMobility18QLandmarkSortOrderC1Ev@QtLocation{00010103}[2002ac83].dll  - Undefined Reference
    QtMobility::QGeoMapCircleObject::qt_metacall(QMetaObject::Call, int, void**)  - Undefined Reference
    _ZN10QtMobility19QGeoMapCircleObject11qt_metacallEN11QMetaObject4CallEiPPv@QtLocation{00010103}[2002ac83].dll  - Undefined Reference
    QtMobility::QGeoMapCircleObject::qt_metacast(const char*)  - Undefined Reference
    _ZN10QtMobility19QGeoMapCircleObject11qt_metacastEPKc@QtLocation{00010103}[2002ac83].dll  - Undefined Reference
    QtMobility::QGeoMapCircleObject::staticMetaObject  - Undefined Reference
    _ZN10QtMobility19QGeoMapCircleObject16staticMetaObjectE@QtLocation{00010103}[2002ac83].dll  - Undefined Reference
    QtMobility::QGeoMapCircleObject::setPen(const QPen&)  - Undefined Reference
    _ZN10QtMobility19QGeoMapCircleObject6setPenERK4QPen@QtLocation{00010103}[2002ac83].dll  - Undefined Reference
    QtMobility::QGeoMapCircleObject::setBrush(const QBrush&)  - Undefined Reference
    _ZN10QtMobility19QGeoMapCircleObject8setBrushERK6QBrush@QtLocation{00010103}[2002ac83].dll  - Undefined Reference
    QtMobility::QGeoMapCircleObject::setCenter(const QtMobility::QGeoCoordinate&)  - Undefined Reference
    _ZN10QtMobility19QGeoMapCircleObject9setCenterERKNS_14QGeoCoordinateE@QtLocation{00010103}[2002ac83].dll  - Undefined Reference
    QtMobility::QGeoMapCircleObject::QGeoMapCircleObject()  - Undefined Reference
    _ZN10QtMobility19QGeoMapCircleObjectC1Ev@QtLocation{00010103}[2002ac83].dll  - Undefined Reference
    QtMobility::QGeoMapCircleObject::~QGeoMapCircleObject()  - Undefined Reference
    _ZN10QtMobility19QGeoMapCircleObjectD1Ev@QtLocation{00010103}[2002ac83].dll  - Undefined Reference
    QtMobility::QGeoMapPixmapObject::qt_metacall(QMetaObject::Call, int, void**)  - Undefined Reference
    _ZN10QtMobility19QGeoMapPixmapObject11qt_metacallEN11QMetaObject4CallEiPPv@QtLocation{00010103}[2002ac83].dll  - Undefined Reference
    QtMobility::QGeoMapPixmapObject::qt_metacast(const char*)  - Undefined Reference
    _ZN10QtMobility19QGeoMapPixmapObject11qt_metacastEPKc@QtLocation{00010103}[2002ac83].dll  - Undefined Reference
    QtMobility::QGeoMapPixmapObject::setCoordinate(const QtMobility::QGeoCoordinate&)  - Undefined Reference
    _ZN10QtMobility19QGeoMapPixmapObject13setCoordinateERKNS_14QGeoCoordinateE@QtLocation{00010103}[2002ac83].dll  - Undefined Reference
    QtMobility::QGeoMapPixmapObject::staticMetaObject  - Undefined Reference
    _ZN10QtMobility19QGeoMapPixmapObject16staticMetaObjectE@QtLocation{00010103}[2002ac83].dll  - Undefined Reference
    QtMobility::QGeoMapPixmapObject::setPixmap(const QPixmap&)  - Undefined Reference
    _ZN10QtMobility19QGeoMapPixmapObject9setPixmapERK7QPixmap@QtLocation{00010103}[2002ac83].dll  - Undefined Reference
    QtMobility::QGeoMapPixmapObject::QGeoMapPixmapObject()  - Undefined Reference
    _ZN10QtMobility19QGeoMapPixmapObjectC1Ev@QtLocation{00010103}[2002ac83].dll  - Undefined Reference
    QtMobility::QGeoMapPixmapObject::~QGeoMapPixmapObject()  - Undefined Reference
    _ZN10QtMobility19QGeoMapPixmapObjectD1Ev@QtLocation{00010103}[2002ac83].dll  - Undefined Reference
    QtMobility::QGeoServiceProvider::QGeoServiceProvider(const QString&, const QMap<QString, QVariant>&)  - Undefined Reference
    _ZN10QtMobility19QGeoServiceProviderC1ERK7QStringRK4QMapIS1_8QVariantE@QtLocation{00010103}[2002ac83].dll  - Undefined Reference
    QtMobility::QGeoServiceProvider::~QGeoServiceProvider()  - Undefined Reference
    _ZN10QtMobility19QGeoServiceProviderD1Ev@QtLocation{00010103}[2002ac83].dll  - Undefined Reference
    QtMobility::QLandmarkCategoryId::QLandmarkCategoryId()  - Undefined Reference
    _ZN10QtMobility19QLandmarkCategoryIdC1Ev@QtLocation{00010103}[2002ac83].dll  - Undefined Reference
    QtMobility::QLandmarkCategoryId::~QLandmarkCategoryId()  - Undefined Reference
    _ZN10QtMobility19QLandmarkCategoryIdD1Ev@QtLocation{00010103}[2002ac83].dll  - Undefined Reference
    QtMobility::QLandmarkNameFilter::setName(const QString&)  - Undefined Reference
    _ZN10QtMobility19QLandmarkNameFilter7setNameERK7QString@QtLocation{00010103}[2002ac83].dll  - Undefined Reference
    QtMobility::QLandmarkNameFilter::QLandmarkNameFilter(const QString&)  - Undefined Reference
    _ZN10QtMobility19QLandmarkNameFilterC1ERK7QString@QtLocation{00010103}[2002ac83].dll  - Undefined Reference
    QtMobility::QLandmarkNameFilter::~QLandmarkNameFilter()  - Undefined Reference
    _ZN10QtMobility19QLandmarkNameFilterD1Ev@QtLocation{00010103}[2002ac83].dll  - Undefined Reference
    QtMobility::QGeoMapPolygonObject::qt_metacall(QMetaObject::Call, int, void**)  - Undefined Reference
    _ZN10QtMobility20QGeoMapPolygonObject11qt_metacallEN11QMetaObject4CallEiPPv@QtLocation{00010103}[2002ac83].dll  - Undefined Reference
    QtMobility::QGeoMapPolygonObject::qt_metacast(const char*)  - Undefined Reference
    _ZN10QtMobility20QGeoMapPolygonObject11qt_metacastEPKc@QtLocation{00010103}[2002ac83].dll  - Undefined Reference
    QtMobility::QGeoMapPolygonObject::staticMetaObject  - Undefined Reference
    _ZN10QtMobility20QGeoMapPolygonObject16staticMetaObjectE@QtLocation{00010103}[2002ac83].dll  - Undefined Reference
    QtMobility::QGeoMapPolygonObject::setPen(const QPen&)  - Undefined Reference
    _ZN10QtMobility20QGeoMapPolygonObject6setPenERK4QPen@QtLocation{00010103}[2002ac83].dll  - Undefined Reference
    QtMobility::QGeoMapPolygonObject::setPath(const QList<QtMobility::QGeoCoordinate>&)  - Undefined Reference
    _ZN10QtMobility20QGeoMapPolygonObject7setPathERK5QListINS_14QGeoCoordinateEE@QtLocation{00010103}[2002ac83].dll  - Undefined Reference
    QtMobility::QGeoMapPolygonObject::setBrush(const QBrush&)  - Undefined Reference
    _ZN10QtMobility20QGeoMapPolygonObject8setBrushERK6QBrush@QtLocation{00010103}[2002ac83].dll  - Undefined Reference
    QtMobility::QGeoMapPolygonObject::QGeoMapPolygonObject()  - Undefined Reference
    _ZN10QtMobility20QGeoMapPolygonObjectC1Ev@QtLocation{00010103}[2002ac83].dll  - Undefined Reference
    QtMobility::QGeoMapPolygonObject::~QGeoMapPolygonObject()  - Undefined Reference
    _ZN10QtMobility20QGeoMapPolygonObjectD1Ev@QtLocation{00010103}[2002ac83].dll  - Undefined Reference
    QtMobility::QLandmarkUnionFilter::clear()  - Undefined Reference
    _ZN10QtMobility20QLandmarkUnionFilter5clearEv@QtLocation{00010103}[2002ac83].dll  - Undefined Reference
    QtMobility::QLandmarkUnionFilter::append(const QtMobility::QLandmarkFilter&)  - Undefined Reference
    _ZN10QtMobility20QLandmarkUnionFilter6appendERKNS_15QLandmarkFilterE@QtLocation{00010103}[2002ac83].dll  - Undefined Reference
    QtMobility::QLandmarkUnionFilter::QLandmarkUnionFilter()  - Undefined Reference
    _ZN10QtMobility20QLandmarkUnionFilterC1Ev@QtLocation{00010103}[2002ac83].dll  - Undefined Reference
    QtMobility::QLandmarkUnionFilter::~QLandmarkUnionFilter()  - Undefined Reference
    _ZN10QtMobility20QLandmarkUnionFilterD1Ev@QtLocation{00010103}[2002ac83].dll  - Undefined Reference
    QtMobility::QGeoMapPolylineObject::qt_metacall(QMetaObject::Call, int, void**)  - Undefined Reference
    _ZN10QtMobility21QGeoMapPolylineObject11qt_metacallEN11QMetaObject4CallEiPPv@QtLocation{00010103}[2002ac83].dll  - Undefined Reference
    QtMobility::QGeoMapPolylineObject::qt_metacast(const char*)  - Undefined Reference
    _ZN10QtMobility21QGeoMapPolylineObject11qt_metacastEPKc@QtLocation{00010103}[2002ac83].dll  - Undefined Reference
    QtMobility::QGeoMapPolylineObject::staticMetaObject  - Undefined Reference
    _ZN10QtMobility21QGeoMapPolylineObject16staticMetaObjectE@QtLocation{00010103}[2002ac83].dll  - Undefined Reference
    QtMobility::QGeoMapPolylineObject::setPen(const QPen&)  - Undefined Reference
    _ZN10QtMobility21QGeoMapPolylineObject6setPenERK4QPen@QtLocation{00010103}[2002ac83].dll  - Undefined Reference
    QtMobility::QGeoMapPolylineObject::setPath(const QList<QtMobility::QGeoCoordinate>&)  - Undefined Reference
    _ZN10QtMobility21QGeoMapPolylineObject7setPathERK5QListINS_14QGeoCoordinateEE@QtLocation{00010103}[2002ac83].dll  - Undefined Reference
    QtMobility::QGeoMapPolylineObject::QGeoMapPolylineObject()  - Undefined Reference
    _ZN10QtMobility21QGeoMapPolylineObjectC1Ev@QtLocation{00010103}[2002ac83].dll  - Undefined Reference
    QtMobility::QGeoMapPolylineObject::~QGeoMapPolylineObject()  - Undefined Reference
    _ZN10QtMobility21QGeoMapPolylineObjectD1Ev@QtLocation{00010103}[2002ac83].dll  - Undefined Reference
    QtMobility::QLandmarkFetchRequest::setSorting(const QtMobility::QLandmarkSortOrder&)  - Undefined Reference
    _ZN10QtMobility21QLandmarkFetchRequest10setSortingERKNS_18QLandmarkSortOrderE@QtLocation{00010103}[2002ac83].dll  - Undefined Reference
    QtMobility::QLandmarkFetchRequest::setLimit(int)  - Undefined Reference
    _ZN10QtMobility21QLandmarkFetchRequest8setLimitEi@QtLocation{00010103}[2002ac83].dll  - Undefined Reference
    QtMobility::QLandmarkFetchRequest::setFilter(const QtMobility::QLandmarkFilter&)  - Undefined Reference
    _ZN10QtMobility21QLandmarkFetchRequest9setFilterERKNS_15QLandmarkFilterE@QtLocation{00010103}[2002ac83].dll  - Undefined Reference
    QtMobility::QLandmarkFetchRequest::setOffset(int)  - Undefined Reference
    _ZN10QtMobility21QLandmarkFetchRequest9setOffsetEi@QtLocation{00010103}[2002ac83].dll  - Undefined Reference
    QtMobility::QLandmarkFetchRequest::QLandmarkFetchRequest(QtMobility::QLandmarkManager*, QObject*)  - Undefined Reference
    _ZN10QtMobility21QLandmarkFetchRequestC1EPNS_16QLandmarkManagerEP7QObject@QtLocation{00010103}[2002ac83].dll  - Undefined Reference
    QtMobility::QGeoMapRectangleObject::setTopLeft(const QtMobility::QGeoCoordinate&)  - Undefined Reference
    _ZN10QtMobility22QGeoMapRectangleObject10setTopLeftERKNS_14QGeoCoordinateE@QtLocation{00010103}[2002ac83].dll  - Undefined Reference
    QtMobility::QGeoMapRectangleObject::qt_metacall(QMetaObject::Call, int, void**)  - Undefined Reference
    _ZN10QtMobility22QGeoMapRectangleObject11qt_metacallEN11QMetaObject4CallEiPPv@QtLocation{00010103}[2002ac83].dll  - Undefined Reference
    QtMobility::QGeoMapRectangleObject::qt_metacast(const char*)  - Undefined Reference
    _ZN10QtMobility22QGeoMapRectangleObject11qt_metacastEPKc@QtLocation{00010103}[2002ac83].dll  - Undefined Reference
    QtMobility::QGeoMapRectangleObject::setBottomRight(const QtMobility::QGeoCoordinate&)  - Undefined Reference
    _ZN10QtMobility22QGeoMapRectangleObject14setBottomRightERKNS_14QGeoCoordinateE@QtLocation{00010103}[2002ac83].dll  - Undefined Reference
    QtMobility::QGeoMapRectangleObject::staticMetaObject  - Undefined Reference
    _ZN10QtMobility22QGeoMapRectangleObject16staticMetaObjectE@QtLocation{00010103}[2002ac83].dll  - Undefined Reference
    QtMobility::QGeoMapRectangleObject::setPen(const QPen&)  - Undefined Reference
    _ZN10QtMobility22QGeoMapRectangleObject6setPenERK4QPen@QtLocation{00010103}[2002ac83].dll  - Undefined Reference
    QtMobility::QGeoMapRectangleObject::setBrush(const QBrush&)  - Undefined Reference
    _ZN10QtMobility22QGeoMapRectangleObject8setBrushERK6QBrush@QtLocation{00010103}[2002ac83].dll  - Undefined Reference
    QtMobility::QGeoMapRectangleObject::QGeoMapRectangleObject()  - Undefined Reference
    _ZN10QtMobility22QGeoMapRectangleObjectC1Ev@QtLocation{00010103}[2002ac83].dll  - Undefined Reference
    QtMobility::QGeoMapRectangleObject::~QGeoMapRectangleObject()  - Undefined Reference
    _ZN10QtMobility22QGeoMapRectangleObjectD1Ev@QtLocation{00010103}[2002ac83].dll  - Undefined Reference
    QtMobility::QGeoPositionInfoSource::createDefaultSource(QObject*)  - Undefined Reference
    _ZN10QtMobility22QGeoPositionInfoSource19createDefaultSourceEP7QObject@QtLocation{00010103}[2002ac83].dll  - Undefined Reference
    QtMobility::QLandmarkImportRequest::setFileName(const QString&)  - Undefined Reference
    _ZN10QtMobility22QLandmarkImportRequest11setFileNameERK7QString@QtLocation{00010103}[2002ac83].dll  - Undefined Reference
    QtMobility::QLandmarkImportRequest::QLandmarkImportRequest(QtMobility::QLandmarkManager*, QObject*)  - Undefined Reference
    _ZN10QtMobility22QLandmarkImportRequestC1EPNS_16QLandmarkManagerEP7QObject@QtLocation{00010103}[2002ac83].dll  - Undefined Reference
    QtMobility::QLandmarkCategoryFilter::setCategoryId(const QtMobility::QLandmarkCategoryId&)  - Undefined Reference
    _ZN10QtMobility23QLandmarkCategoryFilter13setCategoryIdERKNS_19QLandmarkCategoryIdE@QtLocation{00010103}[2002ac83].dll  - Undefined Reference
    QtMobility::QLandmarkCategoryFilter::QLandmarkCategoryFilter(const QtMobility::QLandmarkCategoryId&)  - Undefined Reference
    _ZN10QtMobility23QLandmarkCategoryFilterC1ERKNS_19QLandmarkCategoryIdE@QtLocation{00010103}[2002ac83].dll  - Undefined Reference
    QtMobility::QLandmarkCategoryFilter::~QLandmarkCategoryFilter()  - Undefined Reference
    _ZN10QtMobility23QLandmarkCategoryFilterD1Ev@QtLocation{00010103}[2002ac83].dll  - Undefined Reference
    QtMobility::QNmeaPositionInfoSource::staticMetaObject  - Undefined Reference
    _ZN10QtMobility23QNmeaPositionInfoSource16staticMetaObjectE@QtLocation{00010103}[2002ac83].dll  - Undefined Reference
    QtMobility::QNmeaPositionInfoSource::setDevice(QIODevice*)  - Undefined Reference
    _ZN10QtMobility23QNmeaPositionInfoSource9setDeviceEP9QIODevice@QtLocation{00010103}[2002ac83].dll  - Undefined Reference
    QtMobility::QNmeaPositionInfoSource::QNmeaPositionInfoSource(QtMobility::QNmeaPositionInfoSource::UpdateMode, QObject*)  - Undefined Reference
    _ZN10QtMobility23QNmeaPositionInfoSourceC1ENS0_10UpdateModeEP7QObject@QtLocation{00010103}[2002ac83].dll  - Undefined Reference
    QtMobility::QLandmarkAbstractRequest::start()  - Undefined Reference
    _ZN10QtMobility24QLandmarkAbstractRequest5startEv@QtLocation{00010103}[2002ac83].dll  - Undefined Reference
    QtMobility::QLandmarkProximityFilter::setCenter(const QtMobility::QGeoCoordinate&)  - Undefined Reference
    _ZN10QtMobility24QLandmarkProximityFilter9setCenterERKNS_14QGeoCoordinateE@QtLocation{00010103}[2002ac83].dll  - Undefined Reference
    QtMobility::QLandmarkProximityFilter::setRadius(float)  - Undefined Reference
    _ZN10QtMobility24QLandmarkProximityFilter9setRadiusEf@QtLocation{00010103}[2002ac83].dll  - Undefined Reference
    QtMobility::QLandmarkProximityFilter::QLandmarkProximityFilter(const QtMobility::QGeoCoordinate&, float)  - Undefined Reference
    _ZN10QtMobility24QLandmarkProximityFilterC1ERKNS_14QGeoCoordinateEf@QtLocation{00010103}[2002ac83].dll  - Undefined Reference
    QtMobility::QLandmarkProximityFilter::~QLandmarkProximityFilter()  - Undefined Reference
    _ZN10QtMobility24QLandmarkProximityFilterD1Ev@QtLocation{00010103}[2002ac83].dll  - Undefined Reference
    QtMobility::QLandmarkIntersectionFilter::clear()  - Undefined Reference
    _ZN10QtMobility27QLandmarkIntersectionFilter5clearEv@QtLocation{00010103}[2002ac83].dll  - Undefined Reference
    QtMobility::QLandmarkIntersectionFilter::append(const QtMobility::QLandmarkFilter&)  - Undefined Reference
    _ZN10QtMobility27QLandmarkIntersectionFilter6appendERKNS_15QLandmarkFilterE@QtLocation{00010103}[2002ac83].dll  - Undefined Reference
    QtMobility::QLandmarkIntersectionFilter::QLandmarkIntersectionFilter()  - Undefined Reference
    _ZN10QtMobility27QLandmarkIntersectionFilterC1Ev@QtLocation{00010103}[2002ac83].dll  - Undefined Reference
    QtMobility::QLandmarkIntersectionFilter::~QLandmarkIntersectionFilter()  - Undefined Reference
    _ZN10QtMobility27QLandmarkIntersectionFilterD1Ev@QtLocation{00010103}[2002ac83].dll  - Undefined Reference
    QtMobility::QLandmarkCategoryFetchRequest::setSorting(const QtMobility::QLandmarkNameSort&)  - Undefined Reference
    _ZN10QtMobility29QLandmarkCategoryFetchRequest10setSortingERKNS_17QLandmarkNameSortE@QtLocation{00010103}[2002ac83].dll  - Undefined Reference
    QtMobility::QLandmarkCategoryFetchRequest::setLimit(int)  - Undefined Reference
    _ZN10QtMobility29QLandmarkCategoryFetchRequest8setLimitEi@QtLocation{00010103}[2002ac83].dll  - Undefined Reference
    QtMobility::QLandmarkCategoryFetchRequest::setOffset(int)  - Undefined Reference
    _ZN10QtMobility29QLandmarkCategoryFetchRequest9setOffsetEi@QtLocation{00010103}[2002ac83].dll  - Undefined Reference
    QtMobility::QLandmarkCategoryFetchRequest::QLandmarkCategoryFetchRequest(QtMobility::QLandmarkManager*, QObject*)  - Undefined Reference
    _ZN10QtMobility29QLandmarkCategoryFetchRequestC1EPNS_16QLandmarkManagerEP7QObject@QtLocation{00010103}[2002ac83].dll  - Undefined Reference
    QtMobility::QLandmarkCategoryFetchByIdRequest::setCategoryIds(const QList<QtMobility::QLandmarkCategoryId>&)  - Undefined Reference
    _ZN10QtMobility33QLandmarkCategoryFetchByIdRequest14setCategoryIdsERK5QListINS_19QLandmarkCategoryIdEE@QtLocation{00010103}[2002ac83].dll  - Undefined Reference
    QtMobility::QLandmarkCategoryFetchByIdRequest::QLandmarkCategoryFetchByIdRequest(QtMobility::QLandmarkManager*, QObject*)  - Undefined Reference
    _ZN10QtMobility33QLandmarkCategoryFetchByIdRequestC1EPNS_16QLandmarkManagerEP7QObject@QtLocation{00010103}[2002ac83].dll  - Undefined Reference
    QtMobility::QGeoPlace::QGeoPlace(const QtMobility::QGeoPlace&)  - Undefined Reference
    _ZN10QtMobility9QGeoPlaceC1ERKS0_@QtLocation{00010103}[2002ac83].dll  - Undefined Reference
    QtMobility::QGeoPlace::~QGeoPlace()       - Undefined Reference
    _ZN10QtMobility9QGeoPlaceD1Ev@QtLocation{00010103}[2002ac83].dll  - Undefined Reference
    QtMobility::QLandmark::setIconUrl(const QUrl&)  - Undefined Reference
    _ZN10QtMobility9QLandmark10setIconUrlERK4QUrl@QtLocation{00010103}[2002ac83].dll  - Undefined Reference
    QtMobility::QLandmark::setDescription(const QString&)  - Undefined Reference
    _ZN10QtMobility9QLandmark14setDescriptionERK7QString@QtLocation{00010103}[2002ac83].dll  - Undefined Reference
    QtMobility::QLandmark::setPhoneNumber(const QString&)  - Undefined Reference
    _ZN10QtMobility9QLandmark14setPhoneNumberERK7QString@QtLocation{00010103}[2002ac83].dll  - Undefined Reference
    QtMobility::QLandmark::setUrl(const QUrl&)  - Undefined Reference
    _ZN10QtMobility9QLandmark6setUrlERK4QUrl@QtLocation{00010103}[2002ac83].dll  - Undefined Reference
    QtMobility::QLandmark::setName(const QString&)  - Undefined Reference
    _ZN10QtMobility9QLandmark7setNameERK7QString@QtLocation{00010103}[2002ac83].dll  - Undefined Reference
    QtMobility::QLandmark::setRadius(float)   - Undefined Reference
    _ZN10QtMobility9QLandmark9setRadiusEf@QtLocation{00010103}[2002ac83].dll  - Undefined Reference
    QtMobility::QLandmark::QLandmark(const QtMobility::QGeoPlace&)  - Undefined Reference
    _ZN10QtMobility9QLandmarkC1ERKNS_9QGeoPlaceE@QtLocation{00010103}[2002ac83].dll  - Undefined Reference
    QtMobility::QLandmark::QLandmark(const QtMobility::QLandmark&)  - Undefined Reference
    _ZN10QtMobility9QLandmarkC1ERKS0_@QtLocation{00010103}[2002ac83].dll  - Undefined Reference
    QtMobility::QLandmark::QLandmark()        - Undefined Reference
    _ZN10QtMobility9QLandmarkC1Ev@QtLocation{00010103}[2002ac83].dll  - Undefined Reference
    QtMobility::QLandmark::~QLandmark()       - Undefined Reference
    _ZN10QtMobility9QLandmarkD1Ev@QtLocation{00010103}[2002ac83].dll  - Undefined Reference
    QtMobility::QLandmark::operator =(const QtMobility::QLandmark&)  - Undefined Reference
    _ZN10QtMobility9QLandmarkaSERKS0_@QtLocation{00010103}[2002ac83].dll  - Undefined Reference
    QMetaObject::changeGuard(QObject**, QObject*)  - Undefined Reference
    _ZN11QMetaObject11changeGuardEPP7QObjectS1_@QtCore{00040703}[2001b2dc].dll  - Undefined Reference
    QMetaObject::removeGuard(QObject**)       - Undefined Reference
    _ZN11QMetaObject11removeGuardEPP7QObject@QtCore{00040703}[2001b2dc].dll  - Undefined Reference
    QMetaObject::invokeMethod(QObject*, const char*, Qt::ConnectionType, QGenericReturnArgument, QGenericArgument, QGenericArgument, QGenericArgument, QGenericArgument, QGenericArgument, QGenericArgument, QGenericArgument, QGenericArgument, QGenericArgument, QGenericArgument)  - Undefined Reference
    _ZN11QMetaObject12invokeMethodEP7QObjectPKcN2Qt14ConnectionTypeE22QGenericReturnArgument16QGenericArgumentS7_S7_S7_S7_S7_S7_S7_S7_S7_@QtCore{00040703}[2001b2dc].dll  - Undefined Reference
    QMetaObject::activate(QObject*, const QMetaObject*, int, void**)  - Undefined Reference
    _ZN11QMetaObject8activateEP7QObjectPKS_iPPv@QtCore{00040703}[2001b2dc].dll  - Undefined Reference
    QTextStream::QTextStream(QString*, QFlags<QIODevice::OpenModeFlag>)  - Undefined Reference
    _ZN11QTextStreamC1EP7QString6QFlagsIN9QIODevice12OpenModeFlagEE@QtCore{00040703}[2001b2dc].dll  - Undefined Reference
    QTextStream::~QTextStream()               - Undefined Reference
    _ZN11QTextStreamD1Ev@QtCore{00040703}[2001b2dc].dll  - Undefined Reference
    QTextStream::operator <<(const QString&)  - Undefined Reference
    _ZN11QTextStreamlsERK7QString@QtCore{00040703}[2001b2dc].dll  - Undefined Reference
    QTextStream::operator <<(char)            - Undefined Reference
    _ZN11QTextStreamlsEc@QtCore{00040703}[2001b2dc].dll  - Undefined Reference
    QImageReader::read(QImage*)               - Undefined Reference
    _ZN12QImageReader4readEP6QImage@QtGui{00040703}[2001b2dd].dll  - Undefined Reference
    QImageReader::QImageReader(QIODevice*, const QByteArray&)  - Undefined Reference
    _ZN12QImageReaderC1EP9QIODeviceRK10QByteArray@QtGui{00040703}[2001b2dd].dll  - Undefined Reference
    QImageReader::~QImageReader()             - Undefined Reference
    _ZN12QImageReaderD1Ev@QtGui{00040703}[2001b2dd].dll  - Undefined Reference
    QGraphicsItem::wheelEvent(QGraphicsSceneWheelEvent*)  - Undefined Reference
    _ZN13QGraphicsItem10wheelEventEP24QGraphicsSceneWheelEvent@QtGui{00040703}[2001b2dd].dll  - Undefined Reference
    QGraphicsItem::focusInEvent(QFocusEvent*)  - Undefined Reference
    _ZN13QGraphicsItem12focusInEventEP11QFocusEvent@QtGui{00040703}[2001b2dd].dll  - Undefined Reference
    QGraphicsItem::setExtension(QGraphicsItem::Extension, const QVariant&)  - Undefined Reference
    _ZN13QGraphicsItem12setExtensionENS_9ExtensionERK8QVariant@QtGui{00040703}[2001b2dd].dll  - Undefined Reference
    QGraphicsItem::dragMoveEvent(QGraphicsSceneDragDropEvent*)  - Undefined Reference
    _ZN13QGraphicsItem13dragMoveEventEP27QGraphicsSceneDragDropEvent@QtGui{00040703}[2001b2dd].dll  - Undefined Reference
    QGraphicsItem::focusOutEvent(QFocusEvent*)  - Undefined Reference
    _ZN13QGraphicsItem13focusOutEventEP11QFocusEvent@QtGui{00040703}[2001b2dd].dll  - Undefined Reference
    QGraphicsItem::dragEnterEvent(QGraphicsSceneDragDropEvent*)  - Undefined Reference
    _ZN13QGraphicsItem14dragEnterEventEP27QGraphicsSceneDragDropEvent@QtGui{00040703}[2001b2dd].dll  - Undefined Reference
    QGraphicsItem::dragLeaveEvent(QGraphicsSceneDragDropEvent*)  - Undefined Reference
    _ZN13QGraphicsItem14dragLeaveEventEP27QGraphicsSceneDragDropEvent@QtGui{00040703}[2001b2dd].dll  - Undefined Reference
    QGraphicsItem::hoverMoveEvent(QGraphicsSceneHoverEvent*)  - Undefined Reference
    _ZN13QGraphicsItem14hoverMoveEventEP24QGraphicsSceneHoverEvent@QtGui{00040703}[2001b2dd].dll  - Undefined Reference
    QGraphicsItem::mouseMoveEvent(QGraphicsSceneMouseEvent*)  - Undefined Reference
    _ZN13QGraphicsItem14mouseMoveEventEP24QGraphicsSceneMouseEvent@QtGui{00040703}[2001b2dd].dll  - Undefined Reference
    QGraphicsItem::hoverEnterEvent(QGraphicsSceneHoverEvent*)  - Undefined Reference
    _ZN13QGraphicsItem15hoverEnterEventEP24QGraphicsSceneHoverEvent@QtGui{00040703}[2001b2dd].dll  - Undefined Reference
    QGraphicsItem::hoverLeaveEvent(QGraphicsSceneHoverEvent*)  - Undefined Reference
    _ZN13QGraphicsItem15hoverLeaveEventEP24QGraphicsSceneHoverEvent@QtGui{00040703}[2001b2dd].dll  - Undefined Reference
    QGraphicsItem::mousePressEvent(QGraphicsSceneMouseEvent*)  - Undefined Reference
    _ZN13QGraphicsItem15mousePressEventEP24QGraphicsSceneMouseEvent@QtGui{00040703}[2001b2dd].dll  - Undefined Reference
    QGraphicsItem::contextMenuEvent(QGraphicsSceneContextMenuEvent*)  - Undefined Reference
    _ZN13QGraphicsItem16contextMenuEventEP30QGraphicsSceneContextMenuEvent@QtGui{00040703}[2001b2dd].dll  - Undefined Reference
    QGraphicsItem::sceneEventFilter(QGraphicsItem*, QEvent*)  - Undefined Reference
    _ZN13QGraphicsItem16sceneEventFilterEPS_P6QEvent@QtGui{00040703}[2001b2dd].dll  - Undefined Reference
    QGraphicsItem::mouseReleaseEvent(QGraphicsSceneMouseEvent*)  - Undefined Reference
    _ZN13QGraphicsItem17mouseReleaseEventEP24QGraphicsSceneMouseEvent@QtGui{00040703}[2001b2dd].dll  - Undefined Reference
    QGraphicsItem::mouseDoubleClickEvent(QGraphicsSceneMouseEvent*)  - Undefined Reference
    _ZN13QGraphicsItem21mouseDoubleClickEventEP24QGraphicsSceneMouseEvent@QtGui{00040703}[2001b2dd].dll  - Undefined Reference
    QGraphicsItem::update(const QRectF&)      - Undefined Reference
    _ZN13QGraphicsItem6updateERK6QRectF@QtGui{00040703}[2001b2dd].dll  - Undefined Reference
    QGraphicsItem::advance(int)               - Undefined Reference
    _ZN13QGraphicsItem7advanceEi@QtGui{00040703}[2001b2dd].dll  - Undefined Reference
    QGraphicsItem::setFlag(QGraphicsItem::GraphicsItemFlag, bool)  - Undefined Reference
    _ZN13QGraphicsItem7setFlagENS_16GraphicsItemFlagEb@QtGui{00040703}[2001b2dd].dll  - Undefined Reference
    QGraphicsItem::dropEvent(QGraphicsSceneDragDropEvent*)  - Undefined Reference
    _ZN13QGraphicsItem9dropEventEP27QGraphicsSceneDragDropEvent@QtGui{00040703}[2001b2dd].dll  - Undefined Reference
    QNetworkRequest::QNetworkRequest(const QUrl&)  - Undefined Reference
    _ZN15QNetworkRequestC1ERK4QUrl@QtNetwork{00040703}[2001b2de].dll  - Undefined Reference
    QNetworkRequest::~QNetworkRequest()       - Undefined Reference
    _ZN15QNetworkRequestD1Ev@QtNetwork{00040703}[2001b2de].dll  - Undefined Reference
    QDeclarativeItem::classBegin()            - Undefined Reference
    _ZN16QDeclarativeItem10classBeginEv@QtDeclarative{00040703}[2001e623].dll  - Undefined Reference
    QDeclarativeItem::itemChange(QGraphicsItem::GraphicsItemChange, const QVariant&)  - Undefined Reference
    _ZN16QDeclarativeItem10itemChangeEN13QGraphicsItem18GraphicsItemChangeERK8QVariant@QtDeclarative{00040703}[2001e623].dll  - Undefined Reference
    QDeclarativeItem::sceneEvent(QEvent*)     - Undefined Reference
    _ZN16QDeclarativeItem10sceneEventEP6QEvent@QtDeclarative{00040703}[2001e623].dll  - Undefined Reference
    QDeclarativeItem::qt_metacall(QMetaObject::Call, int, void**)  - Undefined Reference
    _ZN16QDeclarativeItem11qt_metacallEN11QMetaObject4CallEiPPv@QtDeclarative{00040703}[2001e623].dll  - Undefined Reference
    QDeclarativeItem::qt_metacast(const char*)  - Undefined Reference
    _ZN16QDeclarativeItem11qt_metacastEPKc@QtDeclarative{00040703}[2001e623].dll  - Undefined Reference
    QDeclarativeItem::keyPressEvent(QKeyEvent*)  - Undefined Reference
    _ZN16QDeclarativeItem13keyPressEventEP9QKeyEvent@QtDeclarative{00040703}[2001e623].dll  - Undefined Reference
    QDeclarativeItem::keyReleaseEvent(QKeyEvent*)  - Undefined Reference
    _ZN16QDeclarativeItem15keyReleaseEventEP9QKeyEvent@QtDeclarative{00040703}[2001e623].dll  - Undefined Reference
    QDeclarativeItem::inputMethodEvent(QInputMethodEvent*)  - Undefined Reference
    _ZN16QDeclarativeItem16inputMethodEventEP17QInputMethodEvent@QtDeclarative{00040703}[2001e623].dll  - Undefined Reference
    QDeclarativeItem::staticMetaObject        - Undefined Reference
    _ZN16QDeclarativeItem16staticMetaObjectE@QtDeclarative{00040703}[2001e623].dll  - Undefined Reference
    QDeclarativeItem::componentComplete()     - Undefined Reference
    _ZN16QDeclarativeItem17componentCompleteEv@QtDeclarative{00040703}[2001e623].dll  - Undefined Reference
    QDeclarativeItem::event(QEvent*)          - Undefined Reference
    _ZN16QDeclarativeItem5eventEP6QEvent@QtDeclarative{00040703}[2001e623].dll  - Undefined Reference
    QDeclarativeItem::setWidth(float)         - Undefined Reference
    _ZN16QDeclarativeItem8setWidthEf@QtDeclarative{00040703}[2001e623].dll  - Undefined Reference
    QDeclarativeItem::setHeight(float)        - Undefined Reference
    _ZN16QDeclarativeItem9setHeightEf@QtDeclarative{00040703}[2001e623].dll  - Undefined Reference
    QDeclarativeItem::QDeclarativeItem(QDeclarativeItem*)  - Undefined Reference
    _ZN16QDeclarativeItemC1EPS_@QtDeclarative{00040703}[2001e623].dll  - Undefined Reference
    QDeclarativeItem::~QDeclarativeItem()     - Undefined Reference
    _ZN16QDeclarativeItemD1Ev@QtDeclarative{00040703}[2001e623].dll  - Undefined Reference
    QAbstractItemModel::insertRows(int, int, const QModelIndex&)  - Undefined Reference
    _ZN18QAbstractItemModel10insertRowsEiiRK11QModelIndex@QtCore{00040703}[2001b2dc].dll  - Undefined Reference
    QAbstractItemModel::removeRows(int, int, const QModelIndex&)  - Undefined Reference
    _ZN18QAbstractItemModel10removeRowsEiiRK11QModelIndex@QtCore{00040703}[2001b2dc].dll  - Undefined Reference
    QAbstractItemModel::setItemData(const QModelIndex&, const QMap<int, QVariant>&)  - Undefined Reference
    _ZN18QAbstractItemModel11setItemDataERK11QModelIndexRK4QMapIi8QVariantE@QtCore{00040703}[2001b2dc].dll  - Undefined Reference
    QAbstractItemModel::setRoleNames(const QHash<int, QByteArray>&)  - Undefined Reference
    _ZN18QAbstractItemModel12setRoleNamesERK5QHashIi10QByteArrayE@QtCore{00040703}[2001b2dc].dll  - Undefined Reference
    QAbstractItemModel::endResetModel()       - Undefined Reference
    _ZN18QAbstractItemModel13endResetModelEv@QtCore{00040703}[2001b2dc].dll  - Undefined Reference
    QAbstractItemModel::insertColumns(int, int, const QModelIndex&)  - Undefined Reference
    _ZN18QAbstractItemModel13insertColumnsEiiRK11QModelIndex@QtCore{00040703}[2001b2dc].dll  - Undefined Reference
    QAbstractItemModel::removeColumns(int, int, const QModelIndex&)  - Undefined Reference
    _ZN18QAbstractItemModel13removeColumnsEiiRK11QModelIndex@QtCore{00040703}[2001b2dc].dll  - Undefined Reference
    QAbstractItemModel::setHeaderData(int, Qt::Orientation, const QVariant&, int)  - Undefined Reference
    _ZN18QAbstractItemModel13setHeaderDataEiN2Qt11OrientationERK8QVarianti@QtCore{00040703}[2001b2dc].dll  - Undefined Reference
    QAbstractItemModel::beginResetModel()     - Undefined Reference
    _ZN18QAbstractItemModel15beginResetModelEv@QtCore{00040703}[2001b2dc].dll  - Undefined Reference
    QAbstractItemModel::sort(int, Qt::SortOrder)  - Undefined Reference
    _ZN18QAbstractItemModel4sortEiN2Qt9SortOrderE@QtCore{00040703}[2001b2dc].dll  - Undefined Reference
    QAbstractItemModel::revert()              - Undefined Reference
    _ZN18QAbstractItemModel6revertEv@QtCore{00040703}[2001b2dc].dll  - Undefined Reference
    QAbstractItemModel::submit()              - Undefined Reference
    _ZN18QAbstractItemModel6submitEv@QtCore{00040703}[2001b2dc].dll  - Undefined Reference
    QAbstractItemModel::setData(const QModelIndex&, const QVariant&, int)  - Undefined Reference
    _ZN18QAbstractItemModel7setDataERK11QModelIndexRK8QVarianti@QtCore{00040703}[2001b2dc].dll  - Undefined Reference
    QAbstractItemModel::fetchMore(const QModelIndex&)  - Undefined Reference
    _ZN18QAbstractItemModel9fetchMoreERK11QModelIndex@QtCore{00040703}[2001b2dc].dll  - Undefined Reference
    QAbstractListModel::qt_metacall(QMetaObject::Call, int, void**)  - Undefined Reference
    _ZN18QAbstractListModel11qt_metacallEN11QMetaObject4CallEiPPv@QtCore{00040703}[2001b2dc].dll  - Undefined Reference
    QAbstractListModel::qt_metacast(const char*)  - Undefined Reference
    _ZN18QAbstractListModel11qt_metacastEPKc@QtCore{00040703}[2001b2dc].dll  - Undefined Reference
    QAbstractListModel::dropMimeData(const QMimeData*, Qt::DropAction, int, int, const QModelIndex&)  - Undefined Reference
    _ZN18QAbstractListModel12dropMimeDataEPK9QMimeDataN2Qt10DropActionEiiRK11QModelIndex@QtCore{00040703}[2001b2dc].dll  - Undefined Reference
    QAbstractListModel::staticMetaObject      - Undefined Reference
    _ZN18QAbstractListModel16staticMetaObjectE@QtCore{00040703}[2001b2dc].dll  - Undefined Reference
    QAbstractListModel::QAbstractListModel__sub_object(QObject*)  - Undefined Reference
    _ZN18QAbstractListModelC2EP7QObject@QtCore{00040703}[2001b2dc].dll  - Undefined Reference
    QAbstractListModel::~QAbstractListModel__sub_object()  - Undefined Reference
    _ZN18QAbstractListModelD2Ev@QtCore{00040703}[2001b2dc].dll  - Undefined Reference
    QDeclarativeEngine::contextForObject(const QObject*)  - Undefined Reference
    _ZN18QDeclarativeEngine16contextForObjectEPK7QObject@QtDeclarative{00040703}[2001e623].dll  - Undefined Reference
    QDeclarativeContext::resolvedUrl(const QUrl&)  - Undefined Reference
    _ZN19QDeclarativeContext11resolvedUrlERK4QUrl@QtDeclarative{00040703}[2001e623].dll  - Undefined Reference
    QDeclarativePrivate::qmlregister(QDeclarativePrivate::RegistrationType, void*)  - Undefined Reference
    _ZN19QDeclarativePrivate11qmlregisterENS_16RegistrationTypeEPv@QtDeclarative{00040703}[2001e623].dll  - Undefined Reference
    QDeclarativePrivate::qdeclarativeelement_destructor(QObject*)  - Undefined Reference
    _ZN19QDeclarativePrivate30qdeclarativeelement_destructorEP7QObject@QtDeclarative{00040703}[2001e623].dll  - Undefined Reference
    QNetworkAccessManager::get(const QNetworkRequest&)  - Undefined Reference
    _ZN21QNetworkAccessManager3getERK15QNetworkRequest@QtNetwork{00040703}[2001b2de].dll  - Undefined Reference
    QDeclarativeParserStatus::QDeclarativeParserStatus__sub_object()  - Undefined Reference
    _ZN24QDeclarativeParserStatusC2Ev@QtDeclarative{00040703}[2001e623].dll  - Undefined Reference
    QDeclarativeParserStatus::~QDeclarativeParserStatus__sub_object()  - Undefined Reference
    _ZN24QDeclarativeParserStatusD2Ev@QtDeclarative{00040703}[2001e623].dll  - Undefined Reference
    QDeclarativeExtensionPlugin::qt_metacall(QMetaObject::Call, int, void**)  - Undefined Reference
    _ZN27QDeclarativeExtensionPlugin11qt_metacallEN11QMetaObject4CallEiPPv@QtDeclarative{00040703}[2001e623].dll  - Undefined Reference
    QDeclarativeExtensionPlugin::qt_metacast(const char*)  - Undefined Reference
    _ZN27QDeclarativeExtensionPlugin11qt_metacastEPKc@QtDeclarative{00040703}[2001e623].dll  - Undefined Reference
    QDeclarativeExtensionPlugin::initializeEngine(QDeclarativeEngine*, const char*)  - Undefined Reference
    _ZN27QDeclarativeExtensionPlugin16initializeEngineEP18QDeclarativeEnginePKc@QtDeclarative{00040703}[2001e623].dll  - Undefined Reference
    QDeclarativeExtensionPlugin::staticMetaObject  - Undefined Reference
    _ZN27QDeclarativeExtensionPlugin16staticMetaObjectE@QtDeclarative{00040703}[2001e623].dll  - Undefined Reference
    QDeclarativeExtensionPlugin::QDeclarativeExtensionPlugin__sub_object(QObject*)  - Undefined Reference
    _ZN27QDeclarativeExtensionPluginC2EP7QObject@QtDeclarative{00040703}[2001e623].dll  - Undefined Reference
    QDeclarativeExtensionPlugin::~QDeclarativeExtensionPlugin__sub_object()  - Undefined Reference
    _ZN27QDeclarativeExtensionPluginD2Ev@QtDeclarative{00040703}[2001e623].dll  - Undefined Reference
    QPen::setColor(const QColor&)             - Undefined Reference
    _ZN4QPen8setColorERK6QColor@QtGui{00040703}[2001b2dd].dll  - Undefined Reference
    QPen::setStyle(Qt::PenStyle)              - Undefined Reference
    _ZN4QPen8setStyleEN2Qt8PenStyleE@QtGui{00040703}[2001b2dd].dll  - Undefined Reference
    QPen::setWidth(int)                       - Undefined Reference
    _ZN4QPen8setWidthEi@QtGui{00040703}[2001b2dd].dll  - Undefined Reference
    QPen::~QPen()                             - Undefined Reference
    _ZN4QPenD1Ev@QtGui{00040703}[2001b2dd].dll  - Undefined Reference
    QUrl::QUrl(const QUrl&)                   - Undefined Reference
    _ZN4QUrlC1ERKS_@QtCore{00040703}[2001b2dc].dll  - Undefined Reference
    QUrl::QUrl()                              - Undefined Reference
    _ZN4QUrlC1Ev@QtCore{00040703}[2001b2dc].dll  - Undefined Reference
    QUrl::~QUrl()                             - Undefined Reference
    _ZN4QUrlD1Ev@QtCore{00040703}[2001b2dc].dll  - Undefined Reference
    QUrl::operator =(const QUrl&)             - Undefined Reference
    _ZN4QUrlaSERKS_@QtCore{00040703}[2001b2dc].dll  - Undefined Reference
    User::LockedDec(int&)                     - Undefined Reference
    _ZN4User9LockedDecERi@euser{000a0000}[100039e5].dll  - Undefined Reference
    User::LockedInc(int&)                     - Undefined Reference
    _ZN4User9LockedIncERi@euser{000a0000}[100039e5].dll  - Undefined Reference
    QFile::setFileName(const QString&)        - Undefined Reference
    _ZN5QFile11setFileNameERK7QString@QtCore{00040703}[2001b2dc].dll  - Undefined Reference
    QFile::open(QFlags<QIODevice::OpenModeFlag>)  - Undefined Reference
    _ZN5QFile4openE6QFlagsIN9QIODevice12OpenModeFlagEE@QtCore{00040703}[2001b2dc].dll  - Undefined Reference
    QFile::QFile(const QString&)              - Undefined Reference
    _ZN5QFileC1ERK7QString@QtCore{00040703}[2001b2dc].dll  - Undefined Reference
    QFile::~QFile()                           - Undefined Reference
    _ZN5QFileD1Ev@QtCore{00040703}[2001b2dc].dll  - Undefined Reference
    QBrush::QBrush(Qt::GlobalColor, Qt::BrushStyle)  - Undefined Reference
    _ZN6QBrushC1EN2Qt11GlobalColorENS0_10BrushStyleE@QtGui{00040703}[2001b2dd].dll  - Undefined Reference
    QBrush::QBrush(const QColor&, Qt::BrushStyle)  - Undefined Reference
    _ZN6QBrushC1ERK6QColorN2Qt10BrushStyleE@QtGui{00040703}[2001b2dd].dll  - Undefined Reference
    QBrush::~QBrush()                         - Undefined Reference
    _ZN6QBrushD1Ev@QtGui{00040703}[2001b2dd].dll  - Undefined Reference
    QColor::invalidate()                      - Undefined Reference
    _ZN6QColor10invalidateEv@QtGui{00040703}[2001b2dd].dll  - Undefined Reference
    QColor::operator =(const QColor&)         - Undefined Reference
    _ZN6QColoraSERKS_@QtGui{00040703}[2001b2dd].dll  - Undefined Reference
    QImage::QImage()                          - Undefined Reference
    _ZN6QImageC1Ev@QtGui{00040703}[2001b2dd].dll  - Undefined Reference
    QImage::~QImage()                         - Undefined Reference
    _ZN6QImageD1Ev@QtGui{00040703}[2001b2dd].dll  - Undefined Reference
    QTimer::singleShot(int, QObject*, const char*)  - Undefined Reference
    _ZN6QTimer10singleShotEiP7QObjectPKc@QtCore{00040703}[2001b2dc].dll  - Undefined Reference
    QObject::childEvent(QChildEvent*)         - Undefined Reference
    _ZN7QObject10childEventEP11QChildEvent@QtCore{00040703}[2001b2dc].dll  - Undefined Reference
    QObject::timerEvent(QTimerEvent*)         - Undefined Reference
    _ZN7QObject10timerEventEP11QTimerEvent@QtCore{00040703}[2001b2dc].dll  - Undefined Reference
    QObject::customEvent(QEvent*)             - Undefined Reference
    _ZN7QObject11customEventEP6QEvent@QtCore{00040703}[2001b2dc].dll  - Undefined Reference
    QObject::deleteLater()                    - Undefined Reference
    _ZN7QObject11deleteLaterEv@QtCore{00040703}[2001b2dc].dll  - Undefined Reference
    QObject::eventFilter(QObject*, QEvent*)   - Undefined Reference
    _ZN7QObject11eventFilterEPS_P6QEvent@QtCore{00040703}[2001b2dc].dll  - Undefined Reference
    QObject::qt_metacall(QMetaObject::Call, int, void**)  - Undefined Reference
    _ZN7QObject11qt_metacallEN11QMetaObject4CallEiPPv@QtCore{00040703}[2001b2dc].dll  - Undefined Reference
    QObject::qt_metacast(const char*)         - Undefined Reference
    _ZN7QObject11qt_metacastEPKc@QtCore{00040703}[2001b2dc].dll  - Undefined Reference
    QObject::connectNotify(const char*)       - Undefined Reference
    _ZN7QObject13connectNotifyEPKc@QtCore{00040703}[2001b2dc].dll  - Undefined Reference
    QObject::disconnectNotify(const char*)    - Undefined Reference
    _ZN7QObject16disconnectNotifyEPKc@QtCore{00040703}[2001b2dc].dll  - Undefined Reference
    QObject::staticMetaObject                 - Undefined Reference
    _ZN7QObject16staticMetaObjectE@QtCore{00040703}[2001b2dc].dll  - Undefined Reference
    QObject::event(QEvent*)                   - Undefined Reference
    _ZN7QObject5eventEP6QEvent@QtCore{00040703}[2001b2dc].dll  - Undefined Reference
    QObject::connect(const QObject*, const char*, const QObject*, const char*, Qt::ConnectionType)  - Undefined Reference
    _ZN7QObject7connectEPKS_PKcS1_S3_N2Qt14ConnectionTypeE@QtCore{00040703}[2001b2dc].dll  - Undefined Reference
    QObject::QObject(QObject*)                - Undefined Reference
    _ZN7QObjectC1EPS_@QtCore{00040703}[2001b2dc].dll  - Undefined Reference
    QObject::~QObject()                       - Undefined Reference
    _ZN7QObjectD1Ev@QtCore{00040703}[2001b2dc].dll  - Undefined Reference
    QPixmap::fromImage(const QImage&, QFlags<Qt::ImageConversionFlag>)  - Undefined Reference
    _ZN7QPixmap9fromImageERK6QImage6QFlagsIN2Qt19ImageConversionFlagEE@QtGui{00040703}[2001b2dd].dll  - Undefined Reference
    QPixmap::QPixmap()                        - Undefined Reference
    _ZN7QPixmapC1Ev@QtGui{00040703}[2001b2dd].dll  - Undefined Reference
    QPixmap::~QPixmap()                       - Undefined Reference
    _ZN7QPixmapD1Ev@QtGui{00040703}[2001b2dd].dll  - Undefined Reference
    QString::shared_null                      - Undefined Reference
    _ZN7QString11shared_nullE@QtCore{00040703}[2001b2dc].dll  - Undefined Reference
    QString::fromAscii_helper(const char*, int)  - Undefined Reference
    _ZN7QString16fromAscii_helperEPKci@QtCore{00040703}[2001b2dc].dll  - Undefined Reference
    QString::free(QString::Data*)             - Undefined Reference
    _ZN7QString4freeEPNS_4DataE@QtCore{00040703}[2001b2dc].dll  - Undefined Reference
    QString::append(const QString&)           - Undefined Reference
    _ZN7QString6appendERKS_@QtCore{00040703}[2001b2dc].dll  - Undefined Reference
    QString::insert(int, const QChar*, int)   - Undefined Reference
    _ZN7QString6insertEiPK5QChari@QtCore{00040703}[2001b2dc].dll  - Undefined Reference
    QString::fromAscii(const char*, int)      - Undefined Reference
    _ZN7QString9fromAsciiEPKci@QtCore{00040703}[2001b2dc].dll  - Undefined Reference
    QString::QString(QChar)                   - Undefined Reference
    _ZN7QStringC1E5QChar@QtCore{00040703}[2001b2dc].dll  - Undefined Reference
    QString::operator =(const QString&)       - Undefined Reference
    _ZN7QStringaSERKS_@QtCore{00040703}[2001b2dc].dll  - Undefined Reference
    QMapData::createData(int)                 - Undefined Reference
    _ZN8QMapData10createDataEi@QtCore{00040703}[2001b2dc].dll  - Undefined Reference
    QMapData::node_create(QMapData::Node**, int, int)  - Undefined Reference
    _ZN8QMapData11node_createEPPNS_4NodeEii@QtCore{00040703}[2001b2dc].dll  - Undefined Reference
    QMapData::node_delete(QMapData::Node**, int, QMapData::Node*)  - Undefined Reference
    _ZN8QMapData11node_deleteEPPNS_4NodeEiS1_@QtCore{00040703}[2001b2dc].dll  - Undefined Reference
    QMapData::shared_null                     - Undefined Reference
    _ZN8QMapData11shared_nullE@QtCore{00040703}[2001b2dc].dll  - Undefined Reference
    QMapData::continueFreeData(int)           - Undefined Reference
    _ZN8QMapData16continueFreeDataEi@QtCore{00040703}[2001b2dc].dll  - Undefined Reference
    QVariant::QVariant(const QString&)        - Undefined Reference
    _ZN8QVariantC1ERK7QString@QtCore{00040703}[2001b2dc].dll  - Undefined Reference
    QVariant::QVariant(const QVariant&)       - Undefined Reference
    _ZN8QVariantC1ERKS_@QtCore{00040703}[2001b2dc].dll  - Undefined Reference
    QVariant::QVariant(int, const void*, unsigned)  - Undefined Reference
    _ZN8QVariantC1EiPKvj@QtCore{00040703}[2001b2dc].dll  - Undefined Reference
    QVariant::~QVariant()                     - Undefined Reference
    _ZN8QVariantD1Ev@QtCore{00040703}[2001b2dc].dll  - Undefined Reference
    QVariant::operator =(const QVariant&)     - Undefined Reference
    _ZN8QVariantaSERKS_@QtCore{00040703}[2001b2dc].dll  - Undefined Reference
    QDateTime::QDateTime(const QDateTime&)    - Undefined Reference
    _ZN9QDateTimeC1ERKS_@QtCore{00040703}[2001b2dc].dll  - Undefined Reference
    QDateTime::QDateTime()                    - Undefined Reference
    _ZN9QDateTimeC1Ev@QtCore{00040703}[2001b2dc].dll  - Undefined Reference
    QDateTime::~QDateTime()                   - Undefined Reference
    _ZN9QDateTimeD1Ev@QtCore{00040703}[2001b2dc].dll  - Undefined Reference
    QDateTime::operator =(const QDateTime&)   - Undefined Reference
    _ZN9QDateTimeaSERKS_@QtCore{00040703}[2001b2dc].dll  - Undefined Reference
    QHashData::free_helper(void(*)(QHashData::Node*))  - Undefined Reference
    _ZN9QHashData11free_helperEPFvPNS_4NodeEE@QtCore{00040703}[2001b2dc].dll  - Undefined Reference
    QHashData::shared_null                    - Undefined Reference
    _ZN9QHashData11shared_nullE@QtCore{00040703}[2001b2dc].dll  - Undefined Reference
    QHashData::allocateNode(int)              - Undefined Reference
    _ZN9QHashData12allocateNodeEi@QtCore{00040703}[2001b2dc].dll  - Undefined Reference
    QHashData::detach_helper2(void(*)(QHashData::Node*, void*), void(*)(QHashData::Node*), int, int)  - Undefined Reference
    _ZN9QHashData14detach_helper2EPFvPNS_4NodeEPvEPFvS1_Eii@QtCore{00040703}[2001b2dc].dll  - Undefined Reference
    QHashData::rehash(int)                    - Undefined Reference
    _ZN9QHashData6rehashEi@QtCore{00040703}[2001b2dc].dll  - Undefined Reference
    QListData::detach_grow(int*, int)         - Undefined Reference
    _ZN9QListData11detach_growEPii@QtCore{00040703}[2001b2dc].dll  - Undefined Reference
    QListData::shared_null                    - Undefined Reference
    _ZN9QListData11shared_nullE@QtCore{00040703}[2001b2dc].dll  - Undefined Reference
    QListData::append()                       - Undefined Reference
    _ZN9QListData6appendEv@QtCore{00040703}[2001b2dc].dll  - Undefined Reference
    QListData::detach(int)                    - Undefined Reference
    _ZN9QListData6detachEi@QtCore{00040703}[2001b2dc].dll  - Undefined Reference
    QListData::remove(int)                    - Undefined Reference
    _ZN9QListData6removeEi@QtCore{00040703}[2001b2dc].dll  - Undefined Reference
    QListData::realloc(int)                   - Undefined Reference
    _ZN9QListData7reallocEi@QtCore{00040703}[2001b2dc].dll  - Undefined Reference
    QMetaType::registerType(const char*, void(*)(void*), void*(*)(const void*))  - Undefined Reference
    _ZN9QMetaType12registerTypeEPKcPFvPvEPFS2_PKvE@QtCore{00040703}[2001b2dc].dll  - Undefined Reference
    QMetaType::registerTypedef(const char*, int)  - Undefined Reference
    _ZN9QMetaType15registerTypedefEPKci@QtCore{00040703}[2001b2dc].dll  - Undefined Reference
    QtPrivate::QStringList_join(const QStringList*, const QString&)  - Undefined Reference
    _ZN9QtPrivate16QStringList_joinEPK11QStringListRK7QString@QtCore{00040703}[2001b2dc].dll  - Undefined Reference
    QtMobility::QGeoAddress::countryCode() const  - Undefined Reference
    _ZNK10QtMobility11QGeoAddress11countryCodeEv@QtLocation{00010103}[2002ac83].dll  - Undefined Reference
    QtMobility::QGeoAddress::city() const     - Undefined Reference
    _ZNK10QtMobility11QGeoAddress4cityEv@QtLocation{00010103}[2002ac83].dll  - Undefined Reference
    QtMobility::QGeoAddress::state() const    - Undefined Reference
    _ZNK10QtMobility11QGeoAddress5stateEv@QtLocation{00010103}[2002ac83].dll  - Undefined Reference
    QtMobility::QGeoAddress::county() const   - Undefined Reference
    _ZNK10QtMobility11QGeoAddress6countyEv@QtLocation{00010103}[2002ac83].dll  - Undefined Reference
    QtMobility::QGeoAddress::street() const   - Undefined Reference
    _ZNK10QtMobility11QGeoAddress6streetEv@QtLocation{00010103}[2002ac83].dll  - Undefined Reference
    QtMobility::QGeoAddress::country() const  - Undefined Reference
    _ZNK10QtMobility11QGeoAddress7countryEv@QtLocation{00010103}[2002ac83].dll  - Undefined Reference
    QtMobility::QGeoAddress::isEmpty() const  - Undefined Reference
    _ZNK10QtMobility11QGeoAddress7isEmptyEv@QtLocation{00010103}[2002ac83].dll  - Undefined Reference
    QtMobility::QGeoAddress::district() const  - Undefined Reference
    _ZNK10QtMobility11QGeoAddress8districtEv@QtLocation{00010103}[2002ac83].dll  - Undefined Reference
    QtMobility::QGeoAddress::postcode() const  - Undefined Reference
    _ZNK10QtMobility11QGeoAddress8postcodeEv@QtLocation{00010103}[2002ac83].dll  - Undefined Reference
    QtMobility::QGeoAddress::operator ==(const QtMobility::QGeoAddress&) const  - Undefined Reference
    _ZNK10QtMobility11QGeoAddresseqERKS0_@QtLocation{00010103}[2002ac83].dll  - Undefined Reference
    QtMobility::QGeoMapData::mapObjects() const  - Undefined Reference
    _ZNK10QtMobility11QGeoMapData10mapObjectsEv@QtLocation{00010103}[2002ac83].dll  - Undefined Reference
    QtMobility::QLandmarkId::localId() const  - Undefined Reference
    _ZNK10QtMobility11QLandmarkId7localIdEv@QtLocation{00010103}[2002ac83].dll  - Undefined Reference
    QtMobility::QGeoMapObject::metaObject() const  - Undefined Reference
    _ZNK10QtMobility13QGeoMapObject10metaObjectEv@QtLocation{00010103}[2002ac83].dll  - Undefined Reference
    QtMobility::QGeoMapObject::boundingBox() const  - Undefined Reference
    _ZNK10QtMobility13QGeoMapObject11boundingBoxEv@QtLocation{00010103}[2002ac83].dll  - Undefined Reference
    QtMobility::QGeoMapObject::type() const   - Undefined Reference
    _ZNK10QtMobility13QGeoMapObject4typeEv@QtLocation{00010103}[2002ac83].dll  - Undefined Reference
    QtMobility::QGeoMapObject::mapData() const  - Undefined Reference
    _ZNK10QtMobility13QGeoMapObject7mapDataEv@QtLocation{00010103}[2002ac83].dll  - Undefined Reference
    QtMobility::QGeoMapObject::contains(const QtMobility::QGeoCoordinate&) const  - Undefined Reference
    _ZNK10QtMobility13QGeoMapObject8containsERKNS_14QGeoCoordinateE@QtLocation{00010103}[2002ac83].dll  - Undefined Reference
    QtMobility::QGeoCoordinate::distanceTo(const QtMobility::QGeoCoordinate&) const  - Undefined Reference
    _ZNK10QtMobility14QGeoCoordinate10distanceToERKS0_@QtLocation{00010103}[2002ac83].dll  - Undefined Reference
    QtMobility::QGeoCoordinate::type() const  - Undefined Reference
    _ZNK10QtMobility14QGeoCoordinate4typeEv@QtLocation{00010103}[2002ac83].dll  - Undefined Reference
    QtMobility::QGeoCoordinate::isValid() const  - Undefined Reference
    _ZNK10QtMobility14QGeoCoordinate7isValidEv@QtLocation{00010103}[2002ac83].dll  - Undefined Reference
    QtMobility::QGeoCoordinate::altitude() const  - Undefined Reference
    _ZNK10QtMobility14QGeoCoordinate8altitudeEv@QtLocation{00010103}[2002ac83].dll  - Undefined Reference
    QtMobility::QGeoCoordinate::latitude() const  - Undefined Reference
    _ZNK10QtMobility14QGeoCoordinate8latitudeEv@QtLocation{00010103}[2002ac83].dll  - Undefined Reference
    QtMobility::QGeoCoordinate::toString(QtMobility::QGeoCoordinate::CoordinateFormat) const  - Undefined Reference
    _ZNK10QtMobility14QGeoCoordinate8toStringENS0_16CoordinateFormatE@QtLocation{00010103}[2002ac83].dll  - Undefined Reference
    QtMobility::QGeoCoordinate::longitude() const  - Undefined Reference
    _ZNK10QtMobility14QGeoCoordinate9longitudeEv@QtLocation{00010103}[2002ac83].dll  - Undefined Reference
    QtMobility::QGeoCoordinate::operator ==(const QtMobility::QGeoCoordinate&) const  - Undefined Reference
    _ZNK10QtMobility14QGeoCoordinateeqERKS0_@QtLocation{00010103}[2002ac83].dll  - Undefined Reference
    QtMobility::QGeoBoundingBox::bottomLeft() const  - Undefined Reference
    _ZNK10QtMobility15QGeoBoundingBox10bottomLeftEv@QtLocation{00010103}[2002ac83].dll  - Undefined Reference
    QtMobility::QGeoBoundingBox::bottomRight() const  - Undefined Reference
    _ZNK10QtMobility15QGeoBoundingBox11bottomRightEv@QtLocation{00010103}[2002ac83].dll  - Undefined Reference
    QtMobility::QGeoBoundingBox::width() const  - Undefined Reference
    _ZNK10QtMobility15QGeoBoundingBox5widthEv@QtLocation{00010103}[2002ac83].dll  - Undefined Reference
    QtMobility::QGeoBoundingBox::center() const  - Undefined Reference
    _ZNK10QtMobility15QGeoBoundingBox6centerEv@QtLocation{00010103}[2002ac83].dll  - Undefined Reference
    QtMobility::QGeoBoundingBox::height() const  - Undefined Reference
    _ZNK10QtMobility15QGeoBoundingBox6heightEv@QtLocation{00010103}[2002ac83].dll  - Undefined Reference
    QtMobility::QGeoBoundingBox::topLeft() const  - Undefined Reference
    _ZNK10QtMobility15QGeoBoundingBox7topLeftEv@QtLocation{00010103}[2002ac83].dll  - Undefined Reference
    QtMobility::QGeoBoundingBox::topRight() const  - Undefined Reference
    _ZNK10QtMobility15QGeoBoundingBox8topRightEv@QtLocation{00010103}[2002ac83].dll  - Undefined Reference
    QtMobility::QGeoBoundingBox::operator ==(const QtMobility::QGeoBoundingBox&) const  - Undefined Reference
    _ZNK10QtMobility15QGeoBoundingBoxeqERKS0_@QtLocation{00010103}[2002ac83].dll  - Undefined Reference
    QtMobility::QGeoSearchReply::error() const  - Undefined Reference
    _ZNK10QtMobility15QGeoSearchReply5errorEv@QtLocation{00010103}[2002ac83].dll  - Undefined Reference
    QtMobility::QGeoSearchReply::places() const  - Undefined Reference
    _ZNK10QtMobility15QGeoSearchReply6placesEv@QtLocation{00010103}[2002ac83].dll  - Undefined Reference
    QtMobility::QGeoPositionInfo::coordinate() const  - Undefined Reference
    _ZNK10QtMobility16QGeoPositionInfo10coordinateEv@QtLocation{00010103}[2002ac83].dll  - Undefined Reference
    QtMobility::QGeoPositionInfo::hasAttribute(QtMobility::QGeoPositionInfo::Attribute) const  - Undefined Reference
    _ZNK10QtMobility16QGeoPositionInfo12hasAttributeENS0_9AttributeE@QtLocation{00010103}[2002ac83].dll  - Undefined Reference
    QtMobility::QGeoPositionInfo::isValid() const  - Undefined Reference
    _ZNK10QtMobility16QGeoPositionInfo7isValidEv@QtLocation{00010103}[2002ac83].dll  - Undefined Reference
    QtMobility::QGeoPositionInfo::attribute(QtMobility::QGeoPositionInfo::Attribute) const  - Undefined Reference
    _ZNK10QtMobility16QGeoPositionInfo9attributeENS0_9AttributeE@QtLocation{00010103}[2002ac83].dll  - Undefined Reference
    QtMobility::QGeoPositionInfo::timestamp() const  - Undefined Reference
    _ZNK10QtMobility16QGeoPositionInfo9timestampEv@QtLocation{00010103}[2002ac83].dll  - Undefined Reference
    QtMobility::QGeoMapTextObject::pen() const  - Undefined Reference
    _ZNK10QtMobility17QGeoMapTextObject3penEv@QtLocation{00010103}[2002ac83].dll  - Undefined Reference
    QtMobility::QGeoMapTextObject::type() const  - Undefined Reference
    _ZNK10QtMobility17QGeoMapTextObject4typeEv@QtLocation{00010103}[2002ac83].dll  - Undefined Reference
    QtMobility::QLandmarkCategory::categoryId() const  - Undefined Reference
    _ZNK10QtMobility17QLandmarkCategory10categoryIdEv@QtLocation{00010103}[2002ac83].dll  - Undefined Reference
    QtMobility::QLandmarkCategory::name() const  - Undefined Reference
    _ZNK10QtMobility17QLandmarkCategory4nameEv@QtLocation{00010103}[2002ac83].dll  - Undefined Reference
    QtMobility::QLandmarkCategory::iconUrl() const  - Undefined Reference
    _ZNK10QtMobility17QLandmarkCategory7iconUrlEv@QtLocation{00010103}[2002ac83].dll  - Undefined Reference
    QtMobility::QGeoMapGroupObject::boundingBox() const  - Undefined Reference
    _ZNK10QtMobility18QGeoMapGroupObject11boundingBoxEv@QtLocation{00010103}[2002ac83].dll  - Undefined Reference
    QtMobility::QGeoMapGroupObject::childObjects() const  - Undefined Reference
    _ZNK10QtMobility18QGeoMapGroupObject12childObjectsEv@QtLocation{00010103}[2002ac83].dll  - Undefined Reference
    QtMobility::QGeoMapGroupObject::type() const  - Undefined Reference
    _ZNK10QtMobility18QGeoMapGroupObject4typeEv@QtLocation{00010103}[2002ac83].dll  - Undefined Reference
    QtMobility::QGeoMapGroupObject::contains(const QtMobility::QGeoCoordinate&) const  - Undefined Reference
    _ZNK10QtMobility18QGeoMapGroupObject8containsERKNS_14QGeoCoordinateE@QtLocation{00010103}[2002ac83].dll  - Undefined Reference
    QtMobility::QGeoMappingManager::maximumZoomLevel() const  - Undefined Reference
    _ZNK10QtMobility18QGeoMappingManager16maximumZoomLevelEv@QtLocation{00010103}[2002ac83].dll  - Undefined Reference
    QtMobility::QGeoMappingManager::minimumZoomLevel() const  - Undefined Reference
    _ZNK10QtMobility18QGeoMappingManager16minimumZoomLevelEv@QtLocation{00010103}[2002ac83].dll  - Undefined Reference
    QtMobility::QGeoMapCircleObject::pen() const  - Undefined Reference
    _ZNK10QtMobility19QGeoMapCircleObject3penEv@QtLocation{00010103}[2002ac83].dll  - Undefined Reference
    QtMobility::QGeoMapCircleObject::type() const  - Undefined Reference
    _ZNK10QtMobility19QGeoMapCircleObject4typeEv@QtLocation{00010103}[2002ac83].dll  - Undefined Reference
    QtMobility::QGeoMapPixmapObject::type() const  - Undefined Reference
    _ZNK10QtMobility19QGeoMapPixmapObject4typeEv@QtLocation{00010103}[2002ac83].dll  - Undefined Reference
    QtMobility::QGeoServiceProvider::searchManager() const  - Undefined Reference
    _ZNK10QtMobility19QGeoServiceProvider13searchManagerEv@QtLocation{00010103}[2002ac83].dll  - Undefined Reference
    QtMobility::QGeoServiceProvider::mappingManager() const  - Undefined Reference
    _ZNK10QtMobility19QGeoServiceProvider14mappingManagerEv@QtLocation{00010103}[2002ac83].dll  - Undefined Reference
    QtMobility::QLandmarkCategoryId::localId() const  - Undefined Reference
    _ZNK10QtMobility19QLandmarkCategoryId7localIdEv@QtLocation{00010103}[2002ac83].dll  - Undefined Reference
    QtMobility::QGeoMapPolygonObject::pen() const  - Undefined Reference
    _ZNK10QtMobility20QGeoMapPolygonObject3penEv@QtLocation{00010103}[2002ac83].dll  - Undefined Reference
    QtMobility::QGeoMapPolygonObject::path() const  - Undefined Reference
    _ZNK10QtMobility20QGeoMapPolygonObject4pathEv@QtLocation{00010103}[2002ac83].dll  - Undefined Reference
    QtMobility::QGeoMapPolygonObject::type() const  - Undefined Reference
    _ZNK10QtMobility20QGeoMapPolygonObject4typeEv@QtLocation{00010103}[2002ac83].dll  - Undefined Reference
    QtMobility::QGeoMapPolylineObject::pen() const  - Undefined Reference
    _ZNK10QtMobility21QGeoMapPolylineObject3penEv@QtLocation{00010103}[2002ac83].dll  - Undefined Reference
    QtMobility::QGeoMapPolylineObject::path() const  - Undefined Reference
    _ZNK10QtMobility21QGeoMapPolylineObject4pathEv@QtLocation{00010103}[2002ac83].dll  - Undefined Reference
    QtMobility::QGeoMapPolylineObject::type() const  - Undefined Reference
    _ZNK10QtMobility21QGeoMapPolylineObject4typeEv@QtLocation{00010103}[2002ac83].dll  - Undefined Reference
    QtMobility::QLandmarkFetchRequest::landmarks() const  - Undefined Reference
    _ZNK10QtMobility21QLandmarkFetchRequest9landmarksEv@QtLocation{00010103}[2002ac83].dll  - Undefined Reference
    QtMobility::QGeoMapRectangleObject::pen() const  - Undefined Reference
    _ZNK10QtMobility22QGeoMapRectangleObject3penEv@QtLocation{00010103}[2002ac83].dll  - Undefined Reference
    QtMobility::QGeoMapRectangleObject::type() const  - Undefined Reference
    _ZNK10QtMobility22QGeoMapRectangleObject4typeEv@QtLocation{00010103}[2002ac83].dll  - Undefined Reference
    QtMobility::QLandmarkAbstractRequest::errorString() const  - Undefined Reference
    _ZNK10QtMobility24QLandmarkAbstractRequest11errorStringEv@QtLocation{00010103}[2002ac83].dll  - Undefined Reference
    QtMobility::QLandmarkAbstractRequest::type() const  - Undefined Reference
    _ZNK10QtMobility24QLandmarkAbstractRequest4typeEv@QtLocation{00010103}[2002ac83].dll  - Undefined Reference
    QtMobility::QLandmarkAbstractRequest::error() const  - Undefined Reference
    _ZNK10QtMobility24QLandmarkAbstractRequest5errorEv@QtLocation{00010103}[2002ac83].dll  - Undefined Reference
    QtMobility::QLandmarkCategoryFetchRequest::categories() const  - Undefined Reference
    _ZNK10QtMobility29QLandmarkCategoryFetchRequest10categoriesEv@QtLocation{00010103}[2002ac83].dll  - Undefined Reference
    QtMobility::QLandmarkCategoryFetchByIdRequest::categories() const  - Undefined Reference
    _ZNK10QtMobility33QLandmarkCategoryFetchByIdRequest10categoriesEv@QtLocation{00010103}[2002ac83].dll  - Undefined Reference
    QtMobility::QGeoPlace::coordinate() const  - Undefined Reference
    _ZNK10QtMobility9QGeoPlace10coordinateEv@QtLocation{00010103}[2002ac83].dll  - Undefined Reference
    QtMobility::QGeoPlace::isLandmark() const  - Undefined Reference
    _ZNK10QtMobility9QGeoPlace10isLandmarkEv@QtLocation{00010103}[2002ac83].dll  - Undefined Reference
    QtMobility::QGeoPlace::address() const    - Undefined Reference
    _ZNK10QtMobility9QGeoPlace7addressEv@QtLocation{00010103}[2002ac83].dll  - Undefined Reference
    QtMobility::QGeoPlace::viewport() const   - Undefined Reference
    _ZNK10QtMobility9QGeoPlace8viewportEv@QtLocation{00010103}[2002ac83].dll  - Undefined Reference
    QtMobility::QLandmark::landmarkId() const  - Undefined Reference
    _ZNK10QtMobility9QLandmark10landmarkIdEv@QtLocation{00010103}[2002ac83].dll  - Undefined Reference
    QtMobility::QLandmark::categoryIds() const  - Undefined Reference
    _ZNK10QtMobility9QLandmark11categoryIdsEv@QtLocation{00010103}[2002ac83].dll  - Undefined Reference
    QtMobility::QLandmark::description() const  - Undefined Reference
    _ZNK10QtMobility9QLandmark11descriptionEv@QtLocation{00010103}[2002ac83].dll  - Undefined Reference
    QtMobility::QLandmark::phoneNumber() const  - Undefined Reference
    _ZNK10QtMobility9QLandmark11phoneNumberEv@QtLocation{00010103}[2002ac83].dll  - Undefined Reference
    QtMobility::QLandmark::url() const        - Undefined Reference
    _ZNK10QtMobility9QLandmark3urlEv@QtLocation{00010103}[2002ac83].dll  - Undefined Reference
    QtMobility::QLandmark::name() const       - Undefined Reference
    _ZNK10QtMobility9QLandmark4nameEv@QtLocation{00010103}[2002ac83].dll  - Undefined Reference
    QtMobility::QLandmark::radius() const     - Undefined Reference
    _ZNK10QtMobility9QLandmark6radiusEv@QtLocation{00010103}[2002ac83].dll  - Undefined Reference
    QtMobility::QLandmark::iconUrl() const    - Undefined Reference
    _ZNK10QtMobility9QLandmark7iconUrlEv@QtLocation{00010103}[2002ac83].dll  - Undefined Reference
    QMetaObject::tr(const char*, const char*) const  - Undefined Reference
    _ZNK11QMetaObject2trEPKcS1_@QtCore{00040703}[2001b2dc].dll  - Undefined Reference
    QMetaObject::cast(QObject*) const         - Undefined Reference
    _ZNK11QMetaObject4castEP7QObject@QtCore{00040703}[2001b2dc].dll  - Undefined Reference
    QGraphicsItem::opaqueArea() const         - Undefined Reference
    _ZNK13QGraphicsItem10opaqueAreaEv@QtGui{00040703}[2001b2dd].dll  - Undefined Reference
    QGraphicsItem::isObscuredBy(const QGraphicsItem*) const  - Undefined Reference
    _ZNK13QGraphicsItem12isObscuredByEPKS_@QtGui{00040703}[2001b2dd].dll  - Undefined Reference
    QGraphicsItem::collidesWithItem(const QGraphicsItem*, Qt::ItemSelectionMode) const  - Undefined Reference
    _ZNK13QGraphicsItem16collidesWithItemEPKS_N2Qt17ItemSelectionModeE@QtGui{00040703}[2001b2dd].dll  - Undefined Reference
    QGraphicsItem::collidesWithPath(const QPainterPath&, Qt::ItemSelectionMode) const  - Undefined Reference
    _ZNK13QGraphicsItem16collidesWithPathERK12QPainterPathN2Qt17ItemSelectionModeE@QtGui{00040703}[2001b2dd].dll  - Undefined Reference
    QGraphicsItem::supportsExtension(QGraphicsItem::Extension) const  - Undefined Reference
    _ZNK13QGraphicsItem17supportsExtensionENS_9ExtensionE@QtGui{00040703}[2001b2dd].dll  - Undefined Reference
    QGraphicsItem::type() const               - Undefined Reference
    _ZNK13QGraphicsItem4typeEv@QtGui{00040703}[2001b2dd].dll  - Undefined Reference
    QGraphicsItem::shape() const              - Undefined Reference
    _ZNK13QGraphicsItem5shapeEv@QtGui{00040703}[2001b2dd].dll  - Undefined Reference
    QGraphicsItem::contains(const QPointF&) const  - Undefined Reference
    _ZNK13QGraphicsItem8containsERK7QPointF@QtGui{00040703}[2001b2dd].dll  - Undefined Reference
    QGraphicsItem::extension(const QVariant&) const  - Undefined Reference
    _ZNK13QGraphicsItem9extensionERK8QVariant@QtGui{00040703}[2001b2dd].dll  - Undefined Reference
    QNetworkReply::isFinished() const         - Undefined Reference
    _ZNK13QNetworkReply10isFinishedEv@QtNetwork{00040703}[2001b2de].dll  - Undefined Reference
    QNetworkReply::error() const              - Undefined Reference
    _ZNK13QNetworkReply5errorEv@QtNetwork{00040703}[2001b2de].dll  - Undefined Reference
    QDeclarativeItem::boundingRect() const    - Undefined Reference
    _ZNK16QDeclarativeItem12boundingRectEv@QtDeclarative{00040703}[2001e623].dll  - Undefined Reference
    QDeclarativeItem::inputMethodQuery(Qt::InputMethodQuery) const  - Undefined Reference
    _ZNK16QDeclarativeItem16inputMethodQueryEN2Qt16InputMethodQueryE@QtDeclarative{00040703}[2001e623].dll  - Undefined Reference
    QAbstractItemModel::headerData(int, Qt::Orientation, int) const  - Undefined Reference
    _ZNK18QAbstractItemModel10headerDataEiN2Qt11OrientationEi@QtCore{00040703}[2001b2dc].dll  - Undefined Reference
    QAbstractItemModel::canFetchMore(const QModelIndex&) const  - Undefined Reference
    _ZNK18QAbstractItemModel12canFetchMoreERK11QModelIndex@QtCore{00040703}[2001b2dc].dll  - Undefined Reference
    QAbstractItemModel::supportedDropActions() const  - Undefined Reference
    _ZNK18QAbstractItemModel20supportedDropActionsEv@QtCore{00040703}[2001b2dc].dll  - Undefined Reference
    QAbstractItemModel::span(const QModelIndex&) const  - Undefined Reference
    _ZNK18QAbstractItemModel4spanERK11QModelIndex@QtCore{00040703}[2001b2dc].dll  - Undefined Reference
    QAbstractItemModel::buddy(const QModelIndex&) const  - Undefined Reference
    _ZNK18QAbstractItemModel5buddyERK11QModelIndex@QtCore{00040703}[2001b2dc].dll  - Undefined Reference
    QAbstractItemModel::flags(const QModelIndex&) const  - Undefined Reference
    _ZNK18QAbstractItemModel5flagsERK11QModelIndex@QtCore{00040703}[2001b2dc].dll  - Undefined Reference
    QAbstractItemModel::match(const QModelIndex&, int, const QVariant&, int, QFlags<Qt::MatchFlag>) const  - Undefined Reference
    _ZNK18QAbstractItemModel5matchERK11QModelIndexiRK8QVarianti6QFlagsIN2Qt9MatchFlagEE@QtCore{00040703}[2001b2dc].dll  - Undefined Reference
    QAbstractItemModel::itemData(const QModelIndex&) const  - Undefined Reference
    _ZNK18QAbstractItemModel8itemDataERK11QModelIndex@QtCore{00040703}[2001b2dc].dll  - Undefined Reference
    QAbstractItemModel::mimeData(const QList<QModelIndex>&) const  - Undefined Reference
    _ZNK18QAbstractItemModel8mimeDataERK5QListI11QModelIndexE@QtCore{00040703}[2001b2dc].dll  - Undefined Reference
    QAbstractItemModel::mimeTypes() const     - Undefined Reference
    _ZNK18QAbstractItemModel9mimeTypesEv@QtCore{00040703}[2001b2dc].dll  - Undefined Reference
    QAbstractItemModel::roleNames() const     - Undefined Reference
    _ZNK18QAbstractItemModel9roleNamesEv@QtCore{00040703}[2001b2dc].dll  - Undefined Reference
    QAbstractListModel::columnCount(const QModelIndex&) const  - Undefined Reference
    _ZNK18QAbstractListModel11columnCountERK11QModelIndex@QtCore{00040703}[2001b2dc].dll  - Undefined Reference
    QAbstractListModel::hasChildren(const QModelIndex&) const  - Undefined Reference
    _ZNK18QAbstractListModel11hasChildrenERK11QModelIndex@QtCore{00040703}[2001b2dc].dll  - Undefined Reference
    QAbstractListModel::index(int, int, const QModelIndex&) const  - Undefined Reference
    _ZNK18QAbstractListModel5indexEiiRK11QModelIndex@QtCore{00040703}[2001b2dc].dll  - Undefined Reference
    QAbstractListModel::parent(const QModelIndex&) const  - Undefined Reference
    _ZNK18QAbstractListModel6parentERK11QModelIndex@QtCore{00040703}[2001b2dc].dll  - Undefined Reference
    QDeclarativeEngine::networkAccessManager() const  - Undefined Reference
    _ZNK18QDeclarativeEngine20networkAccessManagerEv@QtDeclarative{00040703}[2001e623].dll  - Undefined Reference
    QDeclarativeContext::engine() const       - Undefined Reference
    _ZNK19QDeclarativeContext6engineEv@QtDeclarative{00040703}[2001e623].dll  - Undefined Reference
    QUrl::toLocalFile() const                 - Undefined Reference
    _ZNK4QUrl11toLocalFileEv@QtCore{00040703}[2001b2dc].dll  - Undefined Reference
    QUrl::path() const                        - Undefined Reference
    _ZNK4QUrl4pathEv@QtCore{00040703}[2001b2dc].dll  - Undefined Reference
    QUrl::scheme() const                      - Undefined Reference
    _ZNK4QUrl6schemeEv@QtCore{00040703}[2001b2dc].dll  - Undefined Reference
    QUrl::authority() const                   - Undefined Reference
    _ZNK4QUrl9authorityEv@QtCore{00040703}[2001b2dc].dll  - Undefined Reference
    QUrl::operator ==(const QUrl&) const      - Undefined Reference
    _ZNK4QUrleqERKS_@QtCore{00040703}[2001b2dc].dll  - Undefined Reference
    QFile::exists() const                     - Undefined Reference
    _ZNK5QFile6existsEv@QtCore{00040703}[2001b2dc].dll  - Undefined Reference
    QColor::operator ==(const QColor&) const  - Undefined Reference
    _ZNK6QColoreqERKS_@QtGui{00040703}[2001b2dd].dll  - Undefined Reference
    QString::toLocal8Bit() const              - Undefined Reference
    _ZNK7QString11toLocal8BitEv@QtCore{00040703}[2001b2dc].dll  - Undefined Reference
    QString::compare(const QLatin1String&, Qt::CaseSensitivity) const  - Undefined Reference
    _ZNK7QString7compareERK13QLatin1StringN2Qt15CaseSensitivityE@QtCore{00040703}[2001b2dc].dll  - Undefined Reference
    QString::operator ==(const QString&) const  - Undefined Reference
    _ZNK7QStringeqERKS_@QtCore{00040703}[2001b2dc].dll  - Undefined Reference
    QString::operator <(const QString&) const  - Undefined Reference
    _ZNK7QStringltERKS_@QtCore{00040703}[2001b2dc].dll  - Undefined Reference
    QVariant::cmp(const QVariant&) const      - Undefined Reference
    _ZNK8QVariant3cmpERKS_@QtCore{00040703}[2001b2dc].dll  - Undefined Reference
    QDateTime::operator ==(const QDateTime&) const  - Undefined Reference
    _ZNK9QDateTimeeqERKS_@QtCore{00040703}[2001b2dc].dll  - Undefined Reference
    typeinfo for QDeclarativeItem             - Undefined Reference
    _ZTI16QDeclarativeItem@QtDeclarative{00040703}[2001e623].dll  - Undefined Reference
    typeinfo for QAbstractListModel           - Undefined Reference
    _ZTI18QAbstractListModel@QtCore{00040703}[2001b2dc].dll  - Undefined Reference
    typeinfo for QDeclarativeParserStatus     - Undefined Reference
    _ZTI24QDeclarativeParserStatus@QtDeclarative{00040703}[2001e623].dll  - Undefined Reference
    typeinfo for QDeclarativeExtensionPlugin  - Undefined Reference
    _ZTI27QDeclarativeExtensionPlugin@QtDeclarative{00040703}[2001e623].dll  - Undefined Reference
    typeinfo for QObject                      - Undefined Reference
    _ZTI7QObject@QtCore{00040703}[2001b2dc].dll  - Undefined Reference
    typeinfo for QtMobility::QGeoMapObject    - Undefined Reference
    _ZTIN10QtMobility13QGeoMapObjectE@QtLocation{00010103}[2002ac83].dll  - Undefined Reference
    typeinfo for QtMobility::QGeoMapTextObject  - Undefined Reference
    _ZTIN10QtMobility17QGeoMapTextObjectE@QtLocation{00010103}[2002ac83].dll  - Undefined Reference
    typeinfo for QtMobility::QGeoMapGroupObject  - Undefined Reference
    _ZTIN10QtMobility18QGeoMapGroupObjectE@QtLocation{00010103}[2002ac83].dll  - Undefined Reference
    typeinfo for QtMobility::QGeoMapCircleObject  - Undefined Reference
    _ZTIN10QtMobility19QGeoMapCircleObjectE@QtLocation{00010103}[2002ac83].dll  - Undefined Reference
    typeinfo for QtMobility::QGeoMapPixmapObject  - Undefined Reference
    _ZTIN10QtMobility19QGeoMapPixmapObjectE@QtLocation{00010103}[2002ac83].dll  - Undefined Reference
    typeinfo for QtMobility::QGeoMapPolygonObject  - Undefined Reference
    _ZTIN10QtMobility20QGeoMapPolygonObjectE@QtLocation{00010103}[2002ac83].dll  - Undefined Reference
    typeinfo for QtMobility::QGeoMapPolylineObject  - Undefined Reference
    _ZTIN10QtMobility21QGeoMapPolylineObjectE@QtLocation{00010103}[2002ac83].dll  - Undefined Reference
    typeinfo for QtMobility::QGeoMapRectangleObject  - Undefined Reference
    _ZTIN10QtMobility22QGeoMapRectangleObjectE@QtLocation{00010103}[2002ac83].dll  - Undefined Reference
    typeinfo for std::bad_alloc               - Undefined Reference
    _ZTISt9bad_alloc@stdnew{000a0000}[20022178].dll  - Undefined Reference
    vtable for __cxxabiv1::__si_class_type_info  - Undefined Reference
    _ZTVN10__cxxabiv120__si_class_type_infoE@drtaeabi{000a0000}.dll  - Undefined Reference
    vtable for __cxxabiv1::__vmi_class_type_info  - Undefined Reference
    _ZTVN10__cxxabiv121__vmi_class_type_infoE@drtaeabi{000a0000}.dll  - Undefined Reference
    thunk{-16} to QDeclarativeItem::classBegin()  - Undefined Reference
    _ZThn16_N16QDeclarativeItem10classBeginEv@QtDeclarative{00040703}[2001e623].dll  - Undefined Reference
    thunk{-16} to QDeclarativeItem::componentComplete()  - Undefined Reference
    _ZThn16_N16QDeclarativeItem17componentCompleteEv@QtDeclarative{00040703}[2001e623].dll  - Undefined Reference
    thunk{-8} to QDeclarativeItem::itemChange(QGraphicsItem::GraphicsItemChange, const QVariant&)  - Undefined Reference
    _ZThn8_N16QDeclarativeItem10itemChangeEN13QGraphicsItem18GraphicsItemChangeERK8QVariant@QtDeclarative{00040703}[2001e623].dll  - Undefined Reference
    thunk{-8} to QDeclarativeItem::sceneEvent(QEvent*)  - Undefined Reference
    _ZThn8_N16QDeclarativeItem10sceneEventEP6QEvent@QtDeclarative{00040703}[2001e623].dll  - Undefined Reference
    thunk{-8} to QDeclarativeItem::keyPressEvent(QKeyEvent*)  - Undefined Reference
    _ZThn8_N16QDeclarativeItem13keyPressEventEP9QKeyEvent@QtDeclarative{00040703}[2001e623].dll  - Undefined Reference
    thunk{-8} to QDeclarativeItem::keyReleaseEvent(QKeyEvent*)  - Undefined Reference
    _ZThn8_N16QDeclarativeItem15keyReleaseEventEP9QKeyEvent@QtDeclarative{00040703}[2001e623].dll  - Undefined Reference
    thunk{-8} to QDeclarativeItem::inputMethodEvent(QInputMethodEvent*)  - Undefined Reference
    _ZThn8_N16QDeclarativeItem16inputMethodEventEP17QInputMethodEvent@QtDeclarative{00040703}[2001e623].dll  - Undefined Reference
    thunk{-8} to QDeclarativeExtensionPlugin::initializeEngine(QDeclarativeEngine*, const char*)  - Undefined Reference
    _ZThn8_N27QDeclarativeExtensionPlugin16initializeEngineEP18QDeclarativeEnginePKc@QtDeclarative{00040703}[2001e623].dll  - Undefined Reference
    thunk{-8} to QDeclarativeItem::boundingRect() const  - Undefined Reference
    _ZThn8_NK16QDeclarativeItem12boundingRectEv@QtDeclarative{00040703}[2001e623].dll  - Undefined Reference
    thunk{-8} to QDeclarativeItem::inputMethodQuery(Qt::InputMethodQuery) const  - Undefined Reference
    _ZThn8_NK16QDeclarativeItem16inputMethodQueryEN2Qt16InputMethodQueryE@QtDeclarative{00040703}[2001e623].dll  - Undefined Reference
    operator delete (void*)                   - Undefined Reference
    _ZdlPv@stdnew{000a0000}[20022178].dll     - Undefined Reference
    operator new(unsigned)                    - Undefined Reference
    _Znwj@stdnew{000a0000}[20022178].dll      - Undefined Reference
    __aeabi_cdcmpeq                           - Undefined Reference
    __aeabi_cdcmpeq@dfpaeabi{000a0000}.dll    - Undefined Reference
    __aeabi_cfcmpeq                           - Undefined Reference
    __aeabi_cfcmpeq@dfpaeabi{000a0000}.dll    - Undefined Reference
    __aeabi_cfcmple                           - Undefined Reference
    __aeabi_cfcmple@dfpaeabi{000a0000}.dll    - Undefined Reference
    __aeabi_cfrcmple                          - Undefined Reference
    __aeabi_cfrcmple@dfpaeabi{000a0000}.dll   - Undefined Reference
    __aeabi_d2f                               - Undefined Reference
    __aeabi_d2f@dfpaeabi{000a0000}.dll        - Undefined Reference
    __aeabi_f2d                               - Undefined Reference
    __aeabi_f2d@dfpaeabi{000a0000}.dll        - Undefined Reference
    __aeabi_fmul                              - Undefined Reference
    __aeabi_fmul@dfpaeabi{000a0000}.dll       - Undefined Reference
    __aeabi_fsub                              - Undefined Reference
    __aeabi_fsub@dfpaeabi{000a0000}.dll       - Undefined Reference
    __aeabi_memcpy                            - Undefined Reference
    __aeabi_memcpy4                           - Undefined Reference
    __aeabi_memcpy4@drtaeabi{000a0000}.dll    - Undefined Reference
    __aeabi_memcpy@drtaeabi{000a0000}.dll     - Undefined Reference
    __aeabi_uidivmod                          - Undefined Reference
    __aeabi_uidivmod@drtaeabi{000a0000}.dll   - Undefined Reference
    __aeabi_unwind_cpp_pr0                    - Undefined Reference
    __aeabi_unwind_cpp_pr0@drtaeabi{000a0000}.dll  - Undefined Reference
    __cxa_begin_catch                         - Undefined Reference
    __cxa_begin_catch@drtaeabi{000a0000}.dll  - Undefined Reference
    __cxa_end_catch                           - Undefined Reference
    __cxa_end_catch@drtaeabi{000a0000}.dll    - Undefined Reference
    __cxa_end_cleanup                         - Undefined Reference
    __cxa_end_cleanup@drtaeabi{000a0000}.dll  - Undefined Reference
    __cxa_guard_abort                         - Undefined Reference
    __cxa_guard_abort@drtaeabi{000a0000}.dll  - Undefined Reference
    __cxa_guard_acquire                       - Undefined Reference
    __cxa_guard_acquire@drtaeabi{000a0000}.dll  - Undefined Reference
    __cxa_guard_release                       - Undefined Reference
    __cxa_guard_release@drtaeabi{000a0000}.dll  - Undefined Reference
    __cxa_pure_virtual                        - Undefined Reference
    __cxa_pure_virtual@drtaeabi{000a0000}.dll  - Undefined Reference
    __cxa_rethrow                             - Undefined Reference
    __cxa_rethrow@drtaeabi{000a0000}.dll      - Undefined Reference
    strcmp                                    - Undefined Reference
    strcmp@libc{00010001}[10207369].dll       - Undefined Reference
    Image$$ER_RO$$Base                       0x00008000   Number         0  anon$$obj.o(linker$$defined$$symbols)
    _E32Dll                                  0x00008000   ARM Code      40  uc_dll_.o(.emb_text)
    Symbian$$CPP$$Exception$$Descriptor      0x00008014   Data           0  uc_dll_.o(.emb_text)
    __cpp_initialize__aeabi_                 0x00008028   ARM Code      52  ucppinit.o(.emb_text)
    std::nothrow                             0x0000805c   ARM Code       0  ucppinit.o(.emb_text)
    __PLT                                    0x0000805c   ARM Code       0  anon$$obj.o(.plt)
    QtMobility::QDeclarativePosition::getStaticMetaObject() 0x00008c25   Thumb Code     4  qdeclarativeposition.o(.text)
    QtMobility::QDeclarativePosition::metaObject() const 0x00008c29   Thumb Code    28  qdeclarativeposition.o(.text)
    QtMobility::QDeclarativePosition::qt_metacast(const char*) 0x00008c45   Thumb Code    40  qdeclarativeposition.o(.text)
    QtMobility::QDeclarativePosition::verticalAccuracyChanged() 0x00008c6d   Thumb Code    18  qdeclarativeposition.o(.text)
    QtMobility::QDeclarativePosition::verticalAccuracyValidChanged() 0x00008c7f   Thumb Code    18  qdeclarativeposition.o(.text)
    QtMobility::QDeclarativePosition::setVerticalAccuracy(float) 0x00008c91   Thumb Code    44  qdeclarativeposition.o(.text)
    QtMobility::QDeclarativePosition::horizontalAccuracyChanged() 0x00008cbd   Thumb Code    18  qdeclarativeposition.o(.text)
    QtMobility::QDeclarativePosition::horizontalAccuracyValidChanged() 0x00008ccf   Thumb Code    18  qdeclarativeposition.o(.text)
    QtMobility::QDeclarativePosition::setHorizontalAccuracy(float) 0x00008ce1   Thumb Code    44  qdeclarativeposition.o(.text)
    QtMobility::QDeclarativePosition::isVerticalAccuracyValid() const 0x00008d0d   Thumb Code     6  qdeclarativeposition.o(.text)
    QtMobility::QDeclarativePosition::isHorizontalAccuracyValid() const 0x00008d13   Thumb Code     6  qdeclarativeposition.o(.text)
    QtMobility::QDeclarativePosition::verticalAccuracy() const 0x00008d19   Thumb Code     6  qdeclarativeposition.o(.text)
    QtMobility::QDeclarativePosition::horizontalAccuracy() const 0x00008d1f   Thumb Code     6  qdeclarativeposition.o(.text)
    QtMobility::QDeclarativePosition::isSpeedValid() const 0x00008d25   Thumb Code     6  qdeclarativeposition.o(.text)
    QtMobility::QDeclarativePosition::speed() const 0x00008d2b   Thumb Code     8  qdeclarativeposition.o(.text)
    QtMobility::QDeclarativePosition::timestamp() const 0x00008d33   Thumb Code    20  qdeclarativeposition.o(.text)
    QtMobility::QDeclarativePosition::coordinate() 0x00008d47   Thumb Code     8  qdeclarativeposition.o(.text)
    QtMobility::QDeclarativePosition::isAltitudeValid() const 0x00008d4f   Thumb Code     6  qdeclarativeposition.o(.text)
    QtMobility::QDeclarativePosition::isLongitudeValid() const 0x00008d55   Thumb Code     6  qdeclarativeposition.o(.text)
    QtMobility::QDeclarativePosition::isLatitudeValid() const 0x00008d5b   Thumb Code     6  qdeclarativeposition.o(.text)
    QtMobility::QDeclarativePosition::coordinateChanged() 0x00008d61   Thumb Code    18  qdeclarativeposition.o(.text)
    QtMobility::QDeclarativePosition::speedValidChanged() 0x00008d73   Thumb Code    18  qdeclarativeposition.o(.text)
    QtMobility::QDeclarativePosition::speedChanged() 0x00008d85   Thumb Code    18  qdeclarativeposition.o(.text)
    QtMobility::QDeclarativePosition::timestampChanged() 0x00008d97   Thumb Code    18  qdeclarativeposition.o(.text)
    QtMobility::QDeclarativePosition::altitudeValidChanged() 0x00008da9   Thumb Code    18  qdeclarativeposition.o(.text)
    QtMobility::QDeclarativePosition::longitudeValidChanged() 0x00008dbb   Thumb Code    18  qdeclarativeposition.o(.text)
    QtMobility::QDeclarativePosition::latitudeValidChanged() 0x00008dcd   Thumb Code    18  qdeclarativeposition.o(.text)
    QtMobility::QDeclarativePosition::qt_metacall(QMetaObject::Call, int, void**) 0x00008ddf   Thumb Code   510  qdeclarativeposition.o(.text)
    QtMobility::QDeclarativePosition::QDeclarativePosition(QObject*) 0x00008fdd   Thumb Code    80  qdeclarativeposition.o(.text)
    QtMobility::QDeclarativePosition::QDeclarativePosition__sub_object(QObject*) 0x00008fdd   Thumb Code     0  qdeclarativeposition.o(.text)
    QtMobility::QDeclarativePosition::~QDeclarativePosition() 0x0000902d   Thumb Code    42  qdeclarativeposition.o(.text)
    QtMobility::QDeclarativePosition::~QDeclarativePosition__sub_object() 0x0000902d   Thumb Code     0  qdeclarativeposition.o(.text)
    QtMobility::QDeclarativePosition::~QDeclarativePosition__deallocating() 0x00009057   Thumb Code    22  qdeclarativeposition.o(.text)
    QtMobility::QDeclarativePosition::setTimestamp(const QDateTime&) 0x0000906d   Thumb Code    40  qdeclarativeposition.o(.text)
    QtMobility::QDeclarativePosition::setSpeed(double) 0x00009095   Thumb Code    52  qdeclarativeposition.o(.text)
    QtMobility::QDeclarativePosition::setCoordinate(QtMobility::QGeoCoordinate) 0x000090c9   Thumb Code   144  qdeclarativeposition.o(.text)
    QtMobility::QDeclarativePosition::invalidate() 0x00009159   Thumb Code   102  qdeclarativeposition.o(.text)
    qt_plugin_query_verification_data        0x000091d1   Thumb Code     4  location.o(.text)
    qt_plugin_instance                       0x000091d5   Thumb Code   134  location.o(.text)
    QLocationDeclarativeModule::getStaticMetaObject() 0x0000925b   Thumb Code     4  location.o(.text)
    QLocationDeclarativeModule::metaObject() const 0x0000925f   Thumb Code    28  location.o(.text)
    QLocationDeclarativeModule::qt_metacast(const char*) 0x0000927b   Thumb Code    42  location.o(.text)
    QLocationDeclarativeModule::qt_metacall(QMetaObject::Call, int, void**) 0x000092a5   Thumb Code    36  location.o(.text)
    QtMobility::QDeclarativePositionSource::getStaticMetaObject() 0x000092e1   Thumb Code     4  qdeclarativepositionsource.o(.text)
    QtMobility::QDeclarativePositionSource::metaObject() const 0x000092e5   Thumb Code    28  qdeclarativepositionsource.o(.text)
    QtMobility::QDeclarativePositionSource::qt_metacast(const char*) 0x00009301   Thumb Code    40  qdeclarativepositionsource.o(.text)
    QtMobility::QDeclarativePositionSource::updateIntervalChanged() 0x00009329   Thumb Code    18  qdeclarativepositionsource.o(.text)
    QtMobility::QDeclarativePositionSource::setUpdateInterval(int) 0x0000933b   Thumb Code    42  qdeclarativepositionsource.o(.text)
    QtMobility::QDeclarativePositionSource::nmeaSourceChanged() 0x00009365   Thumb Code    18  qdeclarativepositionsource.o(.text)
    QtMobility::QDeclarativePositionSource::positioningMethodChanged() 0x00009377   Thumb Code    18  qdeclarativepositionsource.o(.text)
    QtMobility::QDeclarativePositionSource::positioningMethod() const 0x00009389   Thumb Code   124  qdeclarativepositionsource.o(.text)
    QtMobility::QDeclarativePositionSource::activeChanged() 0x00009405   Thumb Code    18  qdeclarativepositionsource.o(.text)
    QtMobility::QDeclarativePositionSource::setNmeaSource(const QUrl&) 0x00009417   Thumb Code   436  qdeclarativepositionsource.o(.text)
    QtMobility::QDeclarativePositionSource::stop() 0x000095cb   Thumb Code    42  qdeclarativepositionsource.o(.text)
    QtMobility::QDeclarativePositionSource::setActive(bool) 0x000095f5   Thumb Code    40  qdeclarativepositionsource.o(.text)
    QtMobility::QDeclarativePositionSource::updateInterval() const 0x0000961d   Thumb Code     6  qdeclarativepositionsource.o(.text)
    QtMobility::QDeclarativePositionSource::nmeaSource() const 0x00009623   Thumb Code    20  qdeclarativepositionsource.o(.text)
    QtMobility::QDeclarativePositionSource::isActive() const 0x00009637   Thumb Code     8  qdeclarativepositionsource.o(.text)
    QtMobility::QDeclarativePositionSource::position() 0x0000963f   Thumb Code     8  qdeclarativepositionsource.o(.text)
    QtMobility::QDeclarativePositionSource::positionChanged() 0x00009647   Thumb Code    18  qdeclarativepositionsource.o(.text)
    QtMobility::QDeclarativePositionSource::positionUpdateReceived(const QtMobility::QGeoPositionInfo&) 0x00009659   Thumb Code   332  qdeclarativepositionsource.o(.text)
    QtMobility::QDeclarativePositionSource::start() 0x000097a5   Thumb Code    54  qdeclarativepositionsource.o(.text)
    QtMobility::QDeclarativePositionSource::update() 0x000097db   Thumb Code    48  qdeclarativepositionsource.o(.text)
    QtMobility::QDeclarativePositionSource::qt_metacall(QMetaObject::Call, int, void**) 0x0000980b   Thumb Code   402  qdeclarativepositionsource.o(.text)
    QtMobility::QDeclarativePositionSource::QDeclarativePositionSource() 0x0000999d   Thumb Code   110  qdeclarativepositionsource.o(.text)
    QtMobility::QDeclarativePositionSource::QDeclarativePositionSource__sub_object() 0x0000999d   Thumb Code     0  qdeclarativepositionsource.o(.text)
    QtMobility::QDeclarativePositionSource::~QDeclarativePositionSource() 0x00009a0b   Thumb Code    74  qdeclarativepositionsource.o(.text)
    QtMobility::QDeclarativePositionSource::~QDeclarativePositionSource__sub_object() 0x00009a0b   Thumb Code     0  qdeclarativepositionsource.o(.text)
    QtMobility::QDeclarativePositionSource::~QDeclarativePositionSource__deallocating() 0x00009a55   Thumb Code    22  qdeclarativepositionsource.o(.text)
    QtMobility::QDeclarativeLandmark::getStaticMetaObject() 0x00009a79   Thumb Code     4  qdeclarativelandmark.o(.text)
    QtMobility::QDeclarativeLandmark::metaObject() const 0x00009a7d   Thumb Code    28  qdeclarativelandmark.o(.text)
    QtMobility::QDeclarativeLandmark::qt_metacast(const char*) 0x00009a99   Thumb Code    40  qdeclarativelandmark.o(.text)
    QtMobility::QDeclarativeLandmark::urlChanged() 0x00009ac1   Thumb Code    18  qdeclarativelandmark.o(.text)
    QtMobility::QDeclarativeLandmark::setUrl(const QUrl&) 0x00009ad3   Thumb Code    56  qdeclarativelandmark.o(.text)
    QtMobility::QDeclarativeLandmark::iconSourceChanged() 0x00009b0b   Thumb Code    18  qdeclarativelandmark.o(.text)
    QtMobility::QDeclarativeLandmark::setIconSource(const QUrl&) 0x00009b1d   Thumb Code    56  qdeclarativelandmark.o(.text)
    QtMobility::QDeclarativeLandmark::radiusChanged() 0x00009b55   Thumb Code    18  qdeclarativelandmark.o(.text)
    QtMobility::QDeclarativeLandmark::setRadius(const double&) 0x00009b67   Thumb Code    64  qdeclarativelandmark.o(.text)
    QtMobility::QDeclarativeLandmark::descriptionChanged() 0x00009ba7   Thumb Code    18  qdeclarativelandmark.o(.text)
    QtMobility::QDeclarativeLandmark::setDescription(const QString&) 0x00009bb9   Thumb Code    56  qdeclarativelandmark.o(.text)
    QtMobility::QDeclarativeLandmark::phoneNumberChanged() 0x00009bf1   Thumb Code    18  qdeclarativelandmark.o(.text)
    QtMobility::QDeclarativeLandmark::setPhoneNumber(const QString&) 0x00009c03   Thumb Code    56  qdeclarativelandmark.o(.text)
    QtMobility::QDeclarativeLandmark::nameChanged() 0x00009c3b   Thumb Code    18  qdeclarativelandmark.o(.text)
    QtMobility::QDeclarativeLandmark::setName(const QString&) 0x00009c4d   Thumb Code    56  qdeclarativelandmark.o(.text)
    QtMobility::QDeclarativeLandmark::url()  0x00009c85   Thumb Code    18  qdeclarativelandmark.o(.text)
    QtMobility::QDeclarativeLandmark::iconSource() 0x00009c97   Thumb Code    18  qdeclarativelandmark.o(.text)
    QtMobility::QDeclarativeLandmark::radius() 0x00009ca9   Thumb Code    24  qdeclarativelandmark.o(.text)
    QtMobility::QDeclarativeLandmark::description() 0x00009cc1   Thumb Code    18  qdeclarativelandmark.o(.text)
    QtMobility::QDeclarativeLandmark::phoneNumber() 0x00009cd3   Thumb Code    18  qdeclarativelandmark.o(.text)
    QtMobility::QDeclarativeLandmark::name() 0x00009ce5   Thumb Code    18  qdeclarativelandmark.o(.text)
    QtMobility::QDeclarativeLandmark::coordinateChanged() 0x00009cf7   Thumb Code    18  qdeclarativelandmark.o(.text)
    QtMobility::QDeclarativeLandmark::qt_metacall(QMetaObject::Call, int, void**) 0x00009d09   Thumb Code   488  qdeclarativelandmark.o(.text)
    QtMobility::QDeclarativeLandmark::QDeclarativeLandmark(QObject*) 0x00009ef1   Thumb Code    50  qdeclarativelandmark.o(.text)
    QtMobility::QDeclarativeLandmark::QDeclarativeLandmark__sub_object(QObject*) 0x00009ef1   Thumb Code     0  qdeclarativelandmark.o(.text)
    QtMobility::QDeclarativeLandmark::QDeclarativeLandmark(const QtMobility::QLandmark&, QObject*) 0x00009f23   Thumb Code    56  qdeclarativelandmark.o(.text)
    QtMobility::QDeclarativeLandmark::QDeclarativeLandmark__sub_object(const QtMobility::QLandmark&, QObject*) 0x00009f23   Thumb Code     0  qdeclarativelandmark.o(.text)
    QtMobility::QDeclarativeLandmark::setLandmark(const QtMobility::QLandmark&) 0x00009f5b   Thumb Code   164  qdeclarativelandmark.o(.text)
    QtMobility::QDeclarativeLandmark::categoryIds() const 0x00009fff   Thumb Code    18  qdeclarativelandmark.o(.text)
    QtMobility::QDeclarativeLandmarkAbstractModel::getStaticMetaObject() 0x0000a015   Thumb Code     4  qdeclarativelandmarkmodel.o(.text)
    QtMobility::QDeclarativeLandmarkAbstractModel::metaObject() const 0x0000a019   Thumb Code    28  qdeclarativelandmarkmodel.o(.text)
    QtMobility::QDeclarativeLandmarkAbstractModel::qt_metacast(const char*) 0x0000a035   Thumb Code    76  qdeclarativelandmarkmodel.o(.text)
    QtMobility::QDeclarativeLandmarkAbstractModel::sortOrderChanged() 0x0000a081   Thumb Code    18  qdeclarativelandmarkmodel.o(.text)
    QtMobility::QDeclarativeLandmarkAbstractModel::scheduleUpdate() 0x0000a093   Thumb Code   178  qdeclarativelandmarkmodel.o(.text)
    QtMobility::QDeclarativeLandmarkAbstractModel::setSortOrder(QtMobility::QDeclarativeLandmarkAbstractModel::SortOrder) 0x0000a145   Thumb Code    36  qdeclarativelandmarkmodel.o(.text)
    QtMobility::QDeclarativeLandmarkAbstractModel::sortByChanged() 0x0000a169   Thumb Code    18  qdeclarativelandmarkmodel.o(.text)
    QtMobility::QDeclarativeLandmarkAbstractModel::setSortBy(QtMobility::QDeclarativeLandmarkAbstractModel::SortKey) 0x0000a17b   Thumb Code    36  qdeclarativelandmarkmodel.o(.text)
    QtMobility::QDeclarativeLandmarkAbstractModel::autoUpdateChanged() 0x0000a19f   Thumb Code    18  qdeclarativelandmarkmodel.o(.text)
    QtMobility::QDeclarativeLandmarkAbstractModel::setAutoUpdate(bool) 0x0000a1b1   Thumb Code    24  qdeclarativelandmarkmodel.o(.text)
    QtMobility::QDeclarativeLandmarkAbstractModel::offsetChanged() 0x0000a1c9   Thumb Code    18  qdeclarativelandmarkmodel.o(.text)
    QtMobility::QDeclarativeLandmarkAbstractModel::setOffset(int) 0x0000a1db   Thumb Code    36  qdeclarativelandmarkmodel.o(.text)
    QtMobility::QDeclarativeLandmarkAbstractModel::limitChanged() 0x0000a1ff   Thumb Code    18  qdeclarativelandmarkmodel.o(.text)
    QtMobility::QDeclarativeLandmarkAbstractModel::setLimit(int) 0x0000a211   Thumb Code    36  qdeclarativelandmarkmodel.o(.text)
    QtMobility::QDeclarativeLandmarkAbstractModel::sortOrder() const 0x0000a235   Thumb Code     6  qdeclarativelandmarkmodel.o(.text)
    QtMobility::QDeclarativeLandmarkAbstractModel::sortBy() const 0x0000a23b   Thumb Code     6  qdeclarativelandmarkmodel.o(.text)
    QtMobility::QDeclarativeLandmarkAbstractModel::error() const 0x0000a241   Thumb Code    20  qdeclarativelandmarkmodel.o(.text)
    QtMobility::QDeclarativeLandmarkAbstractModel::autoUpdate() const 0x0000a255   Thumb Code     6  qdeclarativelandmarkmodel.o(.text)
    QtMobility::QDeclarativeLandmarkAbstractModel::offset() 0x0000a25b   Thumb Code     6  qdeclarativelandmarkmodel.o(.text)
    QtMobility::QDeclarativeLandmarkAbstractModel::limit() 0x0000a261   Thumb Code     6  qdeclarativelandmarkmodel.o(.text)
    QtMobility::QDeclarativeLandmarkAbstractModel::connectManager() 0x0000a267   Thumb Code   598  qdeclarativelandmarkmodel.o(.text)
    QtMobility::QDeclarativeLandmarkAbstractModel::setDbFileName(QString) 0x0000a4bd   Thumb Code   280  qdeclarativelandmarkmodel.o(.text)
    QtMobility::QDeclarativeLandmarkAbstractModel::databaseChanged() 0x0000a5d5   Thumb Code    18  qdeclarativelandmarkmodel.o(.text)
    QtMobility::QDeclarativeLandmarkAbstractModel::update() 0x0000a5e7   Thumb Code    12  qdeclarativelandmarkmodel.o(.text)
    QtMobility::QDeclarativeLandmarkAbstractModel::dataChanged() 0x0000a5f3   Thumb Code    24  qdeclarativelandmarkmodel.o(.text)
    QtMobility::QDeclarativeLandmarkAbstractModel::landmarksChanged(const QList<QtMobility::QLandmarkId>&) 0x0000a60b   Thumb Code    30  qdeclarativelandmarkmodel.o(.text)
    QtMobility::QDeclarativeLandmarkAbstractModel::categoriesChanged(const QList<QtMobility::QLandmarkCategoryId>&) 0x0000a629   Thumb Code    30  qdeclarativelandmarkmodel.o(.text)
    QtMobility::QDeclarativeLandmarkAbstractModel::modelChanged() 0x0000a647   Thumb Code    18  qdeclarativelandmarkmodel.o(.text)
    QtMobility::QDeclarativeLandmarkAbstractModel::errorChanged() 0x0000a659   Thumb Code    18  qdeclarativelandmarkmodel.o(.text)
    QtMobility::QDeclarativeLandmarkAbstractModel::qt_metacall(QMetaObject::Call, int, void**) 0x0000a66b   Thumb Code   516  qdeclarativelandmarkmodel.o(.text)
    QtMobility::QDeclarativeLandmarkAbstractModel::QDeclarativeLandmarkAbstractModel__sub_object(QObject*) 0x0000a86f   Thumb Code   122  qdeclarativelandmarkmodel.o(.text)
    QtMobility::QDeclarativeLandmarkAbstractModel::~QDeclarativeLandmarkAbstractModel() 0x0000a8e9   Thumb Code     0  qdeclarativelandmarkmodel.o(.text)
    QtMobility::QDeclarativeLandmarkAbstractModel::~QDeclarativeLandmarkAbstractModel__sub_object() 0x0000a8e9   Thumb Code    74  qdeclarativelandmarkmodel.o(.text)
    QtMobility::QDeclarativeLandmarkAbstractModel::~QDeclarativeLandmarkAbstractModel__deallocating() 0x0000a933   Thumb Code    22  qdeclarativelandmarkmodel.o(.text)
    thunk{-8} to QtMobility::QDeclarativeLandmarkAbstractModel::~QDeclarativeLandmarkAbstractModel__deallocating() 0x0000a949   Thumb Code    14  qdeclarativelandmarkmodel.o(.text)
    thunk{-8} to QtMobility::QDeclarativeLandmarkAbstractModel::~QDeclarativeLandmarkAbstractModel() 0x0000a957   Thumb Code    14  qdeclarativelandmarkmodel.o(.text)
    QtMobility::QDeclarativeLandmarkAbstractModel::componentComplete() 0x0000a965   Thumb Code    60  qdeclarativelandmarkmodel.o(.text)
    thunk{-8} to QtMobility::QDeclarativeLandmarkAbstractModel::componentComplete() 0x0000a9a1   Thumb Code    14  qdeclarativelandmarkmodel.o(.text)
    QtMobility::QDeclarativeLandmarkModel::getStaticMetaObject() 0x0000a9af   Thumb Code     4  qdeclarativelandmarkmodel.o(.text)
    QtMobility::QDeclarativeLandmarkModel::metaObject() const 0x0000a9b3   Thumb Code    28  qdeclarativelandmarkmodel.o(.text)
    QtMobility::QDeclarativeLandmarkModel::qt_metacast(const char*) 0x0000a9cf   Thumb Code    40  qdeclarativelandmarkmodel.o(.text)
    QtMobility::QDeclarativeLandmarkModel::importFileChanged() 0x0000a9f7   Thumb Code    18  qdeclarativelandmarkmodel.o(.text)
    QtMobility::QDeclarativeLandmarkModel::scheduleImport() 0x0000aa09   Thumb Code   182  qdeclarativelandmarkmodel.o(.text)
    QtMobility::QDeclarativeLandmarkModel::setImportFile(QString) 0x0000aabf   Thumb Code    78  qdeclarativelandmarkmodel.o(.text)
    QtMobility::QDeclarativeLandmarkModel::filterChanged() 0x0000ab0d   Thumb Code    18  qdeclarativelandmarkmodel.o(.text)
    QtMobility::QDeclarativeLandmarkModel::setFilter(QtMobility::QDeclarativeLandmarkFilterBase*) 0x0000ab1f   Thumb Code    48  qdeclarativelandmarkmodel.o(.text)
    QtMobility::QDeclarativeLandmarkModel::importFile() const 0x0000ab4f   Thumb Code    20  qdeclarativelandmarkmodel.o(.text)
    QtMobility::QDeclarativeLandmarkModel::landmarksChanged() 0x0000ab63   Thumb Code    18  qdeclarativelandmarkmodel.o(.text)
    QtMobility::QDeclarativeLandmarkModel::landmarks_clear(QDeclarativeListProperty<QtMobility::QDeclarativeLandmark>*) 0x0000ab75   Thumb Code    50  qdeclarativelandmarkmodel.o(.text)
    QtMobility::QDeclarativeLandmarkModel::landmarks_at(QDeclarativeListProperty<QtMobility::QDeclarativeLandmark>*, int) 0x0000aba7   Thumb Code    48  qdeclarativelandmarkmodel.o(.text)
    QtMobility::QDeclarativeLandmarkModel::landmarks_count(QDeclarativeListProperty<QtMobility::QDeclarativeLandmark>*) 0x0000abd7   Thumb Code    36  qdeclarativelandmarkmodel.o(.text)
    QtMobility::QDeclarativeLandmarkModel::landmarks_append(QDeclarativeListProperty<QtMobility::QDeclarativeLandmark>*, QtMobility::QDeclarativeLandmark*) 0x0000abfb   Thumb Code   294  qdeclarativelandmarkmodel.o(.text)
    QtMobility::QDeclarativeLandmarkModel::landmarks() 0x0000ad21   Thumb Code    48  qdeclarativelandmarkmodel.o(.text)
    QtMobility::QDeclarativeLandmarkModel::filter() 0x0000ad51   Thumb Code     6  qdeclarativelandmarkmodel.o(.text)
    QtMobility::QDeclarativeLandmarkModel::count() 0x0000ad57   Thumb Code    14  qdeclarativelandmarkmodel.o(.text)
    QtMobility::QDeclarativeLandmarkModel::startImport() 0x0000ad65   Thumb Code   102  qdeclarativelandmarkmodel.o(.text)
    QtMobility::QDeclarativeLandmarkModel::importLandmarks() 0x0000adcb   Thumb Code    12  qdeclarativelandmarkmodel.o(.text)
    QtMobility::QDeclarativeLandmarkModel::countChanged() 0x0000add7   Thumb Code    18  qdeclarativelandmarkmodel.o(.text)
    QtMobility::QDeclarativeLandmarkModel::convertLandmarksToDeclarative() 0x0000ade9   Thumb Code   844  qdeclarativelandmarkmodel.o(.text)
    QtMobility::QDeclarativeLandmarkModel::fetchRequestStateChanged(QtMobility::QLandmarkAbstractRequest::State) 0x0000b135   Thumb Code   192  qdeclarativelandmarkmodel.o(.text)
    QtMobility::QDeclarativeLandmarkModel::filterContentChanged() 0x0000b1f5   Thumb Code    18  qdeclarativelandmarkmodel.o(.text)
    QtMobility::QDeclarativeLandmarkModel::qt_metacall(QMetaObject::Call, int, void**) 0x0000b207   Thumb Code   438  qdeclarativelandmarkmodel.o(.text)
    QtMobility::QDeclarativeLandmarkModel::QDeclarativeLandmarkModel(QObject*) 0x0000b3bd   Thumb Code   218  qdeclarativelandmarkmodel.o(.text)
    QtMobility::QDeclarativeLandmarkModel::QDeclarativeLandmarkModel__sub_object(QObject*) 0x0000b3bd   Thumb Code     0  qdeclarativelandmarkmodel.o(.text)
    QtMobility::QDeclarativeLandmarkModel::~QDeclarativeLandmarkModel() 0x0000b497   Thumb Code   136  qdeclarativelandmarkmodel.o(.text)
    QtMobility::QDeclarativeLandmarkModel::~QDeclarativeLandmarkModel__sub_object() 0x0000b497   Thumb Code     0  qdeclarativelandmarkmodel.o(.text)
    QtMobility::QDeclarativeLandmarkModel::~QDeclarativeLandmarkModel__deallocating() 0x0000b51f   Thumb Code    22  qdeclarativelandmarkmodel.o(.text)
    thunk{-8} to QtMobility::QDeclarativeLandmarkModel::~QDeclarativeLandmarkModel__deallocating() 0x0000b535   Thumb Code    14  qdeclarativelandmarkmodel.o(.text)
    thunk{-8} to QtMobility::QDeclarativeLandmarkModel::~QDeclarativeLandmarkModel() 0x0000b543   Thumb Code    14  qdeclarativelandmarkmodel.o(.text)
    QtMobility::QDeclarativeLandmarkModel::rowCount(const QModelIndex&) const 0x0000b551   Thumb Code    20  qdeclarativelandmarkmodel.o(.text)
    QtMobility::QDeclarativeLandmarkModel::data(const QModelIndex&, int) const 0x0000b565   Thumb Code   244  qdeclarativelandmarkmodel.o(.text)
    QtMobility::QDeclarativeLandmarkModel::componentComplete() 0x0000b659   Thumb Code    78  qdeclarativelandmarkmodel.o(.text)
    thunk{-8} to QtMobility::QDeclarativeLandmarkModel::componentComplete() 0x0000b6a7   Thumb Code    14  qdeclarativelandmarkmodel.o(.text)
    QtMobility::QDeclarativeLandmarkModel::landmarkList() 0x0000b6b5   Thumb Code    20  qdeclarativelandmarkmodel.o(.text)
    QtMobility::QDeclarativeLandmarkModel::setFetchOrder() 0x0000b6c9   Thumb Code   128  qdeclarativelandmarkmodel.o(.text)
    QtMobility::QDeclarativeLandmarkModel::setFetchRange() 0x0000b749   Thumb Code    76  qdeclarativelandmarkmodel.o(.text)
    QtMobility::QDeclarativeLandmarkModel::startUpdate() 0x0000b795   Thumb Code   122  qdeclarativelandmarkmodel.o(.text)
    QtMobility::QDeclarativeLandmarkModel::cancelUpdate() 0x0000b80f   Thumb Code    58  qdeclarativelandmarkmodel.o(.text)
    QtMobility::QDeclarativeLandmarkModel::cancelImport() 0x0000b849   Thumb Code    32  qdeclarativelandmarkmodel.o(.text)
    QtMobility::QDeclarativeLandmarkCategoryModel::getStaticMetaObject() 0x0000b8d5   Thumb Code     4  qdeclarativelandmarkcategorymodel.o(.text)
    QtMobility::QDeclarativeLandmarkCategoryModel::metaObject() const 0x0000b8d9   Thumb Code    28  qdeclarativelandmarkcategorymodel.o(.text)
    QtMobility::QDeclarativeLandmarkCategoryModel::qt_metacast(const char*) 0x0000b8f5   Thumb Code    40  qdeclarativelandmarkcategorymodel.o(.text)
    QtMobility::QDeclarativeLandmarkCategoryModel::landmarkChanged() 0x0000b91d   Thumb Code    18  qdeclarativelandmarkcategorymodel.o(.text)
    QtMobility::QDeclarativeLandmarkCategoryModel::setLandmark(QtMobility::QDeclarativeLandmark*) 0x0000b92f   Thumb Code    36  qdeclarativelandmarkcategorymodel.o(.text)
    QtMobility::QDeclarativeLandmarkCategoryModel::categoriesChanged() 0x0000b953   Thumb Code    18  qdeclarativelandmarkcategorymodel.o(.text)
    QtMobility::QDeclarativeLandmarkCategoryModel::categories_clear(QDeclarativeListProperty<QtMobility::QDeclarativeLandmarkCategory>*) 0x0000b965   Thumb Code    50  qdeclarativelandmarkcategorymodel.o(.text)
    QtMobility::QDeclarativeLandmarkCategoryModel::categories_at(QDeclarativeListProperty<QtMobility::QDeclarativeLandmarkCategory>*, int) 0x0000b997   Thumb Code    48  qdeclarativelandmarkcategorymodel.o(.text)
    QtMobility::QDeclarativeLandmarkCategoryModel::categories_count(QDeclarativeListProperty<QtMobility::QDeclarativeLandmarkCategory>*) 0x0000b9c7   Thumb Code    36  qdeclarativelandmarkcategorymodel.o(.text)
    QtMobility::QDeclarativeLandmarkCategoryModel::categories_append(QDeclarativeListProperty<QtMobility::QDeclarativeLandmarkCategory>*, QtMobility::QDeclarativeLandmarkCategory*) 0x0000b9eb   Thumb Code   174  qdeclarativelandmarkcategorymodel.o(.text)
    QtMobility::QDeclarativeLandmarkCategoryModel::categories() 0x0000ba99   Thumb Code    48  qdeclarativelandmarkcategorymodel.o(.text)
    QtMobility::QDeclarativeLandmarkCategoryModel::landmark() const 0x0000bac9   Thumb Code     6  qdeclarativelandmarkcategorymodel.o(.text)
    QtMobility::QDeclarativeLandmarkCategoryModel::count() const 0x0000bacf   Thumb Code    14  qdeclarativelandmarkcategorymodel.o(.text)
    QtMobility::QDeclarativeLandmarkCategoryModel::countChanged() 0x0000badd   Thumb Code    18  qdeclarativelandmarkcategorymodel.o(.text)
    QtMobility::QDeclarativeLandmarkCategoryModel::convertCategoriesToDeclarative() 0x0000baef   Thumb Code   920  qdeclarativelandmarkcategorymodel.o(.text)
    QtMobility::QDeclarativeLandmarkCategoryModel::fetchRequestStateChanged(QtMobility::QLandmarkAbstractRequest::State) 0x0000be87   Thumb Code   244  qdeclarativelandmarkcategorymodel.o(.text)
    QtMobility::QDeclarativeLandmarkCategoryModel::qt_metacall(QMetaObject::Call, int, void**) 0x0000bf7b   Thumb Code   256  qdeclarativelandmarkcategorymodel.o(.text)
    QtMobility::QDeclarativeLandmarkCategoryModel::QDeclarativeLandmarkCategoryModel(QObject*) 0x0000c07b   Thumb Code   200  qdeclarativelandmarkcategorymodel.o(.text)
    QtMobility::QDeclarativeLandmarkCategoryModel::QDeclarativeLandmarkCategoryModel__sub_object(QObject*) 0x0000c07b   Thumb Code     0  qdeclarativelandmarkcategorymodel.o(.text)
    QtMobility::QDeclarativeLandmarkCategoryModel::~QDeclarativeLandmarkCategoryModel() 0x0000c143   Thumb Code   108  qdeclarativelandmarkcategorymodel.o(.text)
    QtMobility::QDeclarativeLandmarkCategoryModel::~QDeclarativeLandmarkCategoryModel__sub_object() 0x0000c143   Thumb Code     0  qdeclarativelandmarkcategorymodel.o(.text)
    QtMobility::QDeclarativeLandmarkCategoryModel::~QDeclarativeLandmarkCategoryModel__deallocating() 0x0000c1af   Thumb Code    22  qdeclarativelandmarkcategorymodel.o(.text)
    thunk{-8} to QtMobility::QDeclarativeLandmarkCategoryModel::~QDeclarativeLandmarkCategoryModel__deallocating() 0x0000c1c5   Thumb Code    14  qdeclarativelandmarkcategorymodel.o(.text)
    thunk{-8} to QtMobility::QDeclarativeLandmarkCategoryModel::~QDeclarativeLandmarkCategoryModel() 0x0000c1d3   Thumb Code    14  qdeclarativelandmarkcategorymodel.o(.text)
    QtMobility::QDeclarativeLandmarkCategoryModel::rowCount(const QModelIndex&) const 0x0000c1e1   Thumb Code    20  qdeclarativelandmarkcategorymodel.o(.text)
    QtMobility::QDeclarativeLandmarkCategoryModel::data(const QModelIndex&, int) const 0x0000c1f5   Thumb Code   206  qdeclarativelandmarkcategorymodel.o(.text)
    QtMobility::QDeclarativeLandmarkCategoryModel::categoryList() 0x0000c2c3   Thumb Code    20  qdeclarativelandmarkcategorymodel.o(.text)
    QtMobility::QDeclarativeLandmarkCategoryModel::cancelUpdate() 0x0000c2d7   Thumb Code    32  qdeclarativelandmarkcategorymodel.o(.text)
    QtMobility::QDeclarativeLandmarkCategoryModel::setFetchOrder() 0x0000c2f7   Thumb Code   158  qdeclarativelandmarkcategorymodel.o(.text)
    QtMobility::QDeclarativeLandmarkCategoryModel::setFetchRange() 0x0000c395   Thumb Code    66  qdeclarativelandmarkcategorymodel.o(.text)
    QtMobility::QDeclarativeLandmarkCategoryModel::startUpdate() 0x0000c3d7   Thumb Code   310  qdeclarativelandmarkcategorymodel.o(.text)
    QtMobility::QDeclarativeLandmarkCategory::getStaticMetaObject() 0x0000c50d   Thumb Code     4  qdeclarativelandmarkcategory.o(.text)
    QtMobility::QDeclarativeLandmarkCategory::metaObject() const 0x0000c511   Thumb Code    28  qdeclarativelandmarkcategory.o(.text)
    QtMobility::QDeclarativeLandmarkCategory::qt_metacast(const char*) 0x0000c52d   Thumb Code    40  qdeclarativelandmarkcategory.o(.text)
    QtMobility::QDeclarativeLandmarkCategory::iconSourceChanged() 0x0000c555   Thumb Code    18  qdeclarativelandmarkcategory.o(.text)
    QtMobility::QDeclarativeLandmarkCategory::setIconSource(const QUrl&) 0x0000c567   Thumb Code    56  qdeclarativelandmarkcategory.o(.text)
    QtMobility::QDeclarativeLandmarkCategory::nameChanged() 0x0000c59f   Thumb Code    18  qdeclarativelandmarkcategory.o(.text)
    QtMobility::QDeclarativeLandmarkCategory::setName(const QString&) 0x0000c5b1   Thumb Code    56  qdeclarativelandmarkcategory.o(.text)
    QtMobility::QDeclarativeLandmarkCategory::iconSource() 0x0000c5e9   Thumb Code    18  qdeclarativelandmarkcategory.o(.text)
    QtMobility::QDeclarativeLandmarkCategory::name() 0x0000c5fb   Thumb Code    18  qdeclarativelandmarkcategory.o(.text)
    QtMobility::QDeclarativeLandmarkCategory::qt_metacall(QMetaObject::Call, int, void**) 0x0000c60d   Thumb Code   298  qdeclarativelandmarkcategory.o(.text)
    QtMobility::QDeclarativeLandmarkCategory::QDeclarativeLandmarkCategory(QObject*) 0x0000c737   Thumb Code    36  qdeclarativelandmarkcategory.o(.text)
    QtMobility::QDeclarativeLandmarkCategory::QDeclarativeLandmarkCategory__sub_object(QObject*) 0x0000c737   Thumb Code     0  qdeclarativelandmarkcategory.o(.text)
    QtMobility::QDeclarativeLandmarkCategory::category() const 0x0000c75b   Thumb Code    20  qdeclarativelandmarkcategory.o(.text)
    QtMobility::QDeclarativeLandmarkCategory::setCategory(const QtMobility::QLandmarkCategory&) 0x0000c76f   Thumb Code    62  qdeclarativelandmarkcategory.o(.text)
    QtMobility::QDeclarativeLandmarkFilterBase::getStaticMetaObject() 0x0000c7b9   Thumb Code     4  qdeclarativelandmarkfilters.o(.text)
    QtMobility::QDeclarativeLandmarkFilterBase::metaObject() const 0x0000c7bd   Thumb Code    28  qdeclarativelandmarkfilters.o(.text)
    QtMobility::QDeclarativeLandmarkFilterBase::qt_metacast(const char*) 0x0000c7d9   Thumb Code    40  qdeclarativelandmarkfilters.o(.text)
    QtMobility::QDeclarativeLandmarkFilterBase::filterContentChanged() 0x0000c801   Thumb Code    18  qdeclarativelandmarkfilters.o(.text)
    QtMobility::QDeclarativeLandmarkFilterBase::qt_metacall(QMetaObject::Call, int, void**) 0x0000c813   Thumb Code    58  qdeclarativelandmarkfilters.o(.text)
    QtMobility::QDeclarativeLandmarkCompoundFilter::getStaticMetaObject() 0x0000c84d   Thumb Code     4  qdeclarativelandmarkfilters.o(.text)
    QtMobility::QDeclarativeLandmarkCompoundFilter::metaObject() const 0x0000c851   Thumb Code    28  qdeclarativelandmarkfilters.o(.text)
    QtMobility::QDeclarativeLandmarkCompoundFilter::qt_metacast(const char*) 0x0000c86d   Thumb Code    42  qdeclarativelandmarkfilters.o(.text)
    QtMobility::QDeclarativeLandmarkCompoundFilter::filters_clear(QDeclarativeListProperty<QtMobility::QDeclarativeLandmarkFilterBase>*) 0x0000c897   Thumb Code    64  qdeclarativelandmarkfilters.o(.text)
    QtMobility::QDeclarativeLandmarkCompoundFilter::filters_at(QDeclarativeListProperty<QtMobility::QDeclarativeLandmarkFilterBase>*, int) 0x0000c8d7   Thumb Code    22  qdeclarativelandmarkfilters.o(.text)
    QtMobility::QDeclarativeLandmarkCompoundFilter::filters_count(QDeclarativeListProperty<QtMobility::QDeclarativeLandmarkFilterBase>*) 0x0000c8ed   Thumb Code    16  qdeclarativelandmarkfilters.o(.text)
    QtMobility::QDeclarativeLandmarkCompoundFilter::filters_append(QDeclarativeListProperty<QtMobility::QDeclarativeLandmarkFilterBase>*, QtMobility::QDeclarativeLandmarkFilterBase*) 0x0000c8fd   Thumb Code    42  qdeclarativelandmarkfilters.o(.text)
    QtMobility::QDeclarativeLandmarkCompoundFilter::filters() 0x0000c927   Thumb Code    48  qdeclarativelandmarkfilters.o(.text)
    QtMobility::QDeclarativeLandmarkCompoundFilter::qt_metacall(QMetaObject::Call, int, void**) 0x0000c957   Thumb Code   118  qdeclarativelandmarkfilters.o(.text)
    QtMobility::QDeclarativeLandmarkCompoundFilter::QDeclarativeLandmarkCompoundFilter__sub_object(QObject*) 0x0000c9cd   Thumb Code    36  qdeclarativelandmarkfilters.o(.text)
    QtMobility::QDeclarativeLandmarkCategoryFilter::getStaticMetaObject() 0x0000c9f1   Thumb Code     4  qdeclarativelandmarkfilters.o(.text)
    QtMobility::QDeclarativeLandmarkCategoryFilter::metaObject() const 0x0000c9f5   Thumb Code    28  qdeclarativelandmarkfilters.o(.text)
    QtMobility::QDeclarativeLandmarkCategoryFilter::qt_metacast(const char*) 0x0000ca11   Thumb Code    40  qdeclarativelandmarkfilters.o(.text)
    QtMobility::QDeclarativeLandmarkCategoryFilter::categoryChanged() 0x0000ca39   Thumb Code    18  qdeclarativelandmarkfilters.o(.text)
    QtMobility::QDeclarativeLandmarkCategoryFilter::setCategory(QtMobility::QDeclarativeLandmarkCategory*) 0x0000ca4b   Thumb Code    60  qdeclarativelandmarkfilters.o(.text)
    QtMobility::QDeclarativeLandmarkCategoryFilter::category() const 0x0000ca87   Thumb Code     6  qdeclarativelandmarkfilters.o(.text)
    QtMobility::QDeclarativeLandmarkCategoryFilter::qt_metacall(QMetaObject::Call, int, void**) 0x0000ca8d   Thumb Code   160  qdeclarativelandmarkfilters.o(.text)
    QtMobility::QDeclarativeLandmarkCategoryFilter::QDeclarativeLandmarkCategoryFilter(QObject*) 0x0000cb2d   Thumb Code   124  qdeclarativelandmarkfilters.o(.text)
    QtMobility::QDeclarativeLandmarkCategoryFilter::QDeclarativeLandmarkCategoryFilter__sub_object(QObject*) 0x0000cb2d   Thumb Code     0  qdeclarativelandmarkfilters.o(.text)
    QtMobility::QDeclarativeLandmarkCategoryFilter::~QDeclarativeLandmarkCategoryFilter() 0x0000cba9   Thumb Code    30  qdeclarativelandmarkfilters.o(.text)
    QtMobility::QDeclarativeLandmarkCategoryFilter::~QDeclarativeLandmarkCategoryFilter__sub_object() 0x0000cba9   Thumb Code     0  qdeclarativelandmarkfilters.o(.text)
    QtMobility::QDeclarativeLandmarkCategoryFilter::~QDeclarativeLandmarkCategoryFilter__deallocating() 0x0000cbc7   Thumb Code    22  qdeclarativelandmarkfilters.o(.text)
    QtMobility::QDeclarativeLandmarkCategoryFilter::filter() 0x0000cbdd   Thumb Code    16  qdeclarativelandmarkfilters.o(.text)
    QtMobility::QDeclarativeLandmarkBoxFilter::getStaticMetaObject() 0x0000cbed   Thumb Code     4  qdeclarativelandmarkfilters.o(.text)
    QtMobility::QDeclarativeLandmarkBoxFilter::metaObject() const 0x0000cbf1   Thumb Code    28  qdeclarativelandmarkfilters.o(.text)
    QtMobility::QDeclarativeLandmarkBoxFilter::qt_metacast(const char*) 0x0000cc0d   Thumb Code    40  qdeclarativelandmarkfilters.o(.text)
    QtMobility::QDeclarativeLandmarkBoxFilter::bottomRightChanged() 0x0000cc35   Thumb Code    18  qdeclarativelandmarkfilters.o(.text)
    QtMobility::QDeclarativeLandmarkBoxFilter::setBottomRight(QtMobility::QDeclarativeCoordinate*) 0x0000cc47   Thumb Code   100  qdeclarativelandmarkfilters.o(.text)
    QtMobility::QDeclarativeLandmarkBoxFilter::topLeftChanged() 0x0000ccab   Thumb Code    18  qdeclarativelandmarkfilters.o(.text)
    QtMobility::QDeclarativeLandmarkBoxFilter::setTopLeft(QtMobility::QDeclarativeCoordinate*) 0x0000ccbd   Thumb Code   100  qdeclarativelandmarkfilters.o(.text)
    QtMobility::QDeclarativeLandmarkBoxFilter::bottomRight() const 0x0000cd21   Thumb Code     6  qdeclarativelandmarkfilters.o(.text)
    QtMobility::QDeclarativeLandmarkBoxFilter::topLeft() const 0x0000cd27   Thumb Code     6  qdeclarativelandmarkfilters.o(.text)
    QtMobility::QDeclarativeLandmarkBoxFilter::qt_metacall(QMetaObject::Call, int, void**) 0x0000cd2d   Thumb Code   206  qdeclarativelandmarkfilters.o(.text)
    QtMobility::QDeclarativeLandmarkBoxFilter::QDeclarativeLandmarkBoxFilter(QObject*) 0x0000cdfb   Thumb Code    58  qdeclarativelandmarkfilters.o(.text)
    QtMobility::QDeclarativeLandmarkBoxFilter::QDeclarativeLandmarkBoxFilter__sub_object(QObject*) 0x0000cdfb   Thumb Code     0  qdeclarativelandmarkfilters.o(.text)
    QtMobility::QDeclarativeLandmarkBoxFilter::~QDeclarativeLandmarkBoxFilter() 0x0000ce35   Thumb Code    30  qdeclarativelandmarkfilters.o(.text)
    QtMobility::QDeclarativeLandmarkBoxFilter::~QDeclarativeLandmarkBoxFilter__sub_object() 0x0000ce35   Thumb Code     0  qdeclarativelandmarkfilters.o(.text)
    QtMobility::QDeclarativeLandmarkBoxFilter::~QDeclarativeLandmarkBoxFilter__deallocating() 0x0000ce53   Thumb Code    22  qdeclarativelandmarkfilters.o(.text)
    QtMobility::QDeclarativeLandmarkBoxFilter::filter() 0x0000ce69   Thumb Code    24  qdeclarativelandmarkfilters.o(.text)
    QtMobility::QDeclarativeLandmarkNameFilter::getStaticMetaObject() 0x0000ce81   Thumb Code     4  qdeclarativelandmarkfilters.o(.text)
    QtMobility::QDeclarativeLandmarkNameFilter::metaObject() const 0x0000ce85   Thumb Code    28  qdeclarativelandmarkfilters.o(.text)
    QtMobility::QDeclarativeLandmarkNameFilter::qt_metacast(const char*) 0x0000cea1   Thumb Code    42  qdeclarativelandmarkfilters.o(.text)
    QtMobility::QDeclarativeLandmarkNameFilter::nameChanged() 0x0000cecb   Thumb Code    18  qdeclarativelandmarkfilters.o(.text)
    QtMobility::QDeclarativeLandmarkNameFilter::setName(const QString&) 0x0000cedd   Thumb Code    56  qdeclarativelandmarkfilters.o(.text)
    QtMobility::QDeclarativeLandmarkNameFilter::name() const 0x0000cf15   Thumb Code    26  qdeclarativelandmarkfilters.o(.text)
    QtMobility::QDeclarativeLandmarkNameFilter::qt_metacall(QMetaObject::Call, int, void**) 0x0000cf2f   Thumb Code   256  qdeclarativelandmarkfilters.o(.text)
    QtMobility::QDeclarativeLandmarkNameFilter::QDeclarativeLandmarkNameFilter(QObject*) 0x0000d02f   Thumb Code    64  qdeclarativelandmarkfilters.o(.text)
    QtMobility::QDeclarativeLandmarkNameFilter::QDeclarativeLandmarkNameFilter__sub_object(QObject*) 0x0000d02f   Thumb Code     0  qdeclarativelandmarkfilters.o(.text)
    QtMobility::QDeclarativeLandmarkNameFilter::~QDeclarativeLandmarkNameFilter() 0x0000d06f   Thumb Code    42  qdeclarativelandmarkfilters.o(.text)
    QtMobility::QDeclarativeLandmarkNameFilter::~QDeclarativeLandmarkNameFilter__sub_object() 0x0000d06f   Thumb Code     0  qdeclarativelandmarkfilters.o(.text)
    QtMobility::QDeclarativeLandmarkNameFilter::~QDeclarativeLandmarkNameFilter__deallocating() 0x0000d099   Thumb Code    22  qdeclarativelandmarkfilters.o(.text)
    QtMobility::QDeclarativeLandmarkNameFilter::filter() 0x0000d0af   Thumb Code    32  qdeclarativelandmarkfilters.o(.text)
    QtMobility::QDeclarativeLandmarkProximityFilter::getStaticMetaObject() 0x0000d0cf   Thumb Code     4  qdeclarativelandmarkfilters.o(.text)
    QtMobility::QDeclarativeLandmarkProximityFilter::metaObject() const 0x0000d0d3   Thumb Code    28  qdeclarativelandmarkfilters.o(.text)
    QtMobility::QDeclarativeLandmarkProximityFilter::qt_metacast(const char*) 0x0000d0ef   Thumb Code    40  qdeclarativelandmarkfilters.o(.text)
    QtMobility::QDeclarativeLandmarkProximityFilter::radiusChanged() 0x0000d117   Thumb Code    18  qdeclarativelandmarkfilters.o(.text)
    QtMobility::QDeclarativeLandmarkProximityFilter::setRadius(double) 0x0000d129   Thumb Code    42  qdeclarativelandmarkfilters.o(.text)
    QtMobility::QDeclarativeLandmarkProximityFilter::centerChanged() 0x0000d153   Thumb Code    18  qdeclarativelandmarkfilters.o(.text)
    QtMobility::QDeclarativeLandmarkProximityFilter::setCenter(QtMobility::QDeclarativeCoordinate*) 0x0000d165   Thumb Code    68  qdeclarativelandmarkfilters.o(.text)
    QtMobility::QDeclarativeLandmarkProximityFilter::radius() const 0x0000d1a9   Thumb Code     8  qdeclarativelandmarkfilters.o(.text)
    QtMobility::QDeclarativeLandmarkProximityFilter::center() const 0x0000d1b1   Thumb Code     6  qdeclarativelandmarkfilters.o(.text)
    QtMobility::QDeclarativeLandmarkProximityFilter::qt_metacall(QMetaObject::Call, int, void**) 0x0000d1b7   Thumb Code   210  qdeclarativelandmarkfilters.o(.text)
    QtMobility::QDeclarativeLandmarkProximityFilter::QDeclarativeLandmarkProximityFilter(QObject*) 0x0000d289   Thumb Code    66  qdeclarativelandmarkfilters.o(.text)
    QtMobility::QDeclarativeLandmarkProximityFilter::QDeclarativeLandmarkProximityFilter__sub_object(QObject*) 0x0000d289   Thumb Code     0  qdeclarativelandmarkfilters.o(.text)
    QtMobility::QDeclarativeLandmarkProximityFilter::~QDeclarativeLandmarkProximityFilter() 0x0000d2cb   Thumb Code    30  qdeclarativelandmarkfilters.o(.text)
    QtMobility::QDeclarativeLandmarkProximityFilter::~QDeclarativeLandmarkProximityFilter__sub_object() 0x0000d2cb   Thumb Code     0  qdeclarativelandmarkfilters.o(.text)
    QtMobility::QDeclarativeLandmarkProximityFilter::~QDeclarativeLandmarkProximityFilter__deallocating() 0x0000d2e9   Thumb Code    22  qdeclarativelandmarkfilters.o(.text)
    QtMobility::QDeclarativeLandmarkProximityFilter::filter() 0x0000d2ff   Thumb Code    64  qdeclarativelandmarkfilters.o(.text)
    QtMobility::QDeclarativeLandmarkUnionFilter::getStaticMetaObject() 0x0000d33f   Thumb Code     4  qdeclarativelandmarkfilters.o(.text)
    QtMobility::QDeclarativeLandmarkUnionFilter::metaObject() const 0x0000d343   Thumb Code    28  qdeclarativelandmarkfilters.o(.text)
    QtMobility::QDeclarativeLandmarkUnionFilter::qt_metacast(const char*) 0x0000d35f   Thumb Code    42  qdeclarativelandmarkfilters.o(.text)
    QtMobility::QDeclarativeLandmarkUnionFilter::qt_metacall(QMetaObject::Call, int, void**) 0x0000d389   Thumb Code    36  qdeclarativelandmarkfilters.o(.text)
    QtMobility::QDeclarativeLandmarkUnionFilter::QDeclarativeLandmarkUnionFilter(QObject*) 0x0000d3ad   Thumb Code    36  qdeclarativelandmarkfilters.o(.text)
    QtMobility::QDeclarativeLandmarkUnionFilter::QDeclarativeLandmarkUnionFilter__sub_object(QObject*) 0x0000d3ad   Thumb Code     0  qdeclarativelandmarkfilters.o(.text)
    QtMobility::QDeclarativeLandmarkUnionFilter::filter() 0x0000d3d1   Thumb Code   124  qdeclarativelandmarkfilters.o(.text)
    QtMobility::QDeclarativeLandmarkIntersectionFilter::getStaticMetaObject() 0x0000d44d   Thumb Code     4  qdeclarativelandmarkfilters.o(.text)
    QtMobility::QDeclarativeLandmarkIntersectionFilter::metaObject() const 0x0000d451   Thumb Code    28  qdeclarativelandmarkfilters.o(.text)
    QtMobility::QDeclarativeLandmarkIntersectionFilter::qt_metacast(const char*) 0x0000d46d   Thumb Code    40  qdeclarativelandmarkfilters.o(.text)
    QtMobility::QDeclarativeLandmarkIntersectionFilter::qt_metacall(QMetaObject::Call, int, void**) 0x0000d495   Thumb Code    36  qdeclarativelandmarkfilters.o(.text)
    QtMobility::QDeclarativeLandmarkIntersectionFilter::QDeclarativeLandmarkIntersectionFilter(QObject*) 0x0000d4b9   Thumb Code    36  qdeclarativelandmarkfilters.o(.text)
    QtMobility::QDeclarativeLandmarkIntersectionFilter::QDeclarativeLandmarkIntersectionFilter__sub_object(QObject*) 0x0000d4b9   Thumb Code     0  qdeclarativelandmarkfilters.o(.text)
    QtMobility::QDeclarativeLandmarkIntersectionFilter::filter() 0x0000d4dd   Thumb Code    28  qdeclarativelandmarkfilters.o(.text)
    QtMobility::QDeclarativeCoordinate::getStaticMetaObject() 0x0000d505   Thumb Code     4  qdeclarativecoordinate.o(.text)
    QtMobility::QDeclarativeCoordinate::metaObject() const 0x0000d509   Thumb Code    28  qdeclarativecoordinate.o(.text)
    QtMobility::QDeclarativeCoordinate::qt_metacast(const char*) 0x0000d525   Thumb Code    40  qdeclarativecoordinate.o(.text)
    QtMobility::QDeclarativeCoordinate::altitudeChanged(double) 0x0000d54d   Thumb Code    34  qdeclarativecoordinate.o(.text)
    QtMobility::QDeclarativeCoordinate::setAltitude(double) 0x0000d56f   Thumb Code    66  qdeclarativecoordinate.o(.text)
    QtMobility::QDeclarativeCoordinate::longitudeChanged(double) 0x0000d5b1   Thumb Code    34  qdeclarativecoordinate.o(.text)
    QtMobility::QDeclarativeCoordinate::setLongitude(double) 0x0000d5d3   Thumb Code    66  qdeclarativecoordinate.o(.text)
    QtMobility::QDeclarativeCoordinate::latitudeChanged(double) 0x0000d615   Thumb Code    34  qdeclarativecoordinate.o(.text)
    QtMobility::QDeclarativeCoordinate::setLatitude(double) 0x0000d637   Thumb Code    54  qdeclarativecoordinate.o(.text)
    QtMobility::QDeclarativeCoordinate::altitude() const 0x0000d66d   Thumb Code    18  qdeclarativecoordinate.o(.text)
    QtMobility::QDeclarativeCoordinate::longitude() const 0x0000d67f   Thumb Code    18  qdeclarativecoordinate.o(.text)
    QtMobility::QDeclarativeCoordinate::latitude() const 0x0000d691   Thumb Code    18  qdeclarativecoordinate.o(.text)
    QtMobility::QDeclarativeCoordinate::coordinate() const 0x0000d6a3   Thumb Code    20  qdeclarativecoordinate.o(.text)
    QtMobility::QDeclarativeCoordinate::distanceTo(QObject*) 0x0000d6b7   Thumb Code    40  qdeclarativecoordinate.o(.text)
    QtMobility::QDeclarativeCoordinate::qt_metacall(QMetaObject::Call, int, void**) 0x0000d6df   Thumb Code   304  qdeclarativecoordinate.o(.text)
    QtMobility::QDeclarativeCoordinate::QDeclarativeCoordinate(QObject*) 0x0000d80f   Thumb Code    36  qdeclarativecoordinate.o(.text)
    QtMobility::QDeclarativeCoordinate::QDeclarativeCoordinate__sub_object(QObject*) 0x0000d80f   Thumb Code     0  qdeclarativecoordinate.o(.text)
    QtMobility::QDeclarativeCoordinate::QDeclarativeCoordinate(const QtMobility::QGeoCoordinate&, QObject*) 0x0000d833   Thumb Code    40  qdeclarativecoordinate.o(.text)
    QtMobility::QDeclarativeCoordinate::QDeclarativeCoordinate__sub_object(const QtMobility::QGeoCoordinate&, QObject*) 0x0000d833   Thumb Code     0  qdeclarativecoordinate.o(.text)
    QtMobility::QDeclarativeCoordinate::~QDeclarativeCoordinate() 0x0000d85b   Thumb Code    30  qdeclarativecoordinate.o(.text)
    QtMobility::QDeclarativeCoordinate::~QDeclarativeCoordinate__sub_object() 0x0000d85b   Thumb Code     0  qdeclarativecoordinate.o(.text)
    QtMobility::QDeclarativeCoordinate::~QDeclarativeCoordinate__deallocating() 0x0000d879   Thumb Code    22  qdeclarativecoordinate.o(.text)
    QtMobility::QDeclarativeCoordinate::setCoordinate(const QtMobility::QGeoCoordinate&) 0x0000d88f   Thumb Code   318  qdeclarativecoordinate.o(.text)
    QtMobility::QDeclarativeGeoMapObject::getStaticMetaObject() 0x0000d9cd   Thumb Code     4  qdeclarativegeomapobject.o(.text)
    QtMobility::QDeclarativeGeoMapObject::metaObject() const 0x0000d9d1   Thumb Code    28  qdeclarativegeomapobject.o(.text)
    QtMobility::QDeclarativeGeoMapObject::qt_metacast(const char*) 0x0000d9ed   Thumb Code    40  qdeclarativegeomapobject.o(.text)
    QtMobility::QDeclarativeGeoMapObject::child_clear(QDeclarativeListProperty<QtMobility::QGeoMapObject>*) 0x0000da15   Thumb Code    12  qdeclarativegeomapobject.o(.text)
    QtMobility::QDeclarativeGeoMapObject::child_at(QDeclarativeListProperty<QtMobility::QGeoMapObject>*, int) 0x0000da21   Thumb Code    54  qdeclarativegeomapobject.o(.text)
    QtMobility::QDeclarativeGeoMapObject::child_count(QDeclarativeListProperty<QtMobility::QGeoMapObject>*) 0x0000da57   Thumb Code    38  qdeclarativegeomapobject.o(.text)
    QtMobility::QDeclarativeGeoMapObject::child_append(QDeclarativeListProperty<QtMobility::QGeoMapObject>*, QtMobility::QGeoMapObject*) 0x0000da7d   Thumb Code    16  qdeclarativegeomapobject.o(.text)
    QtMobility::QDeclarativeGeoMapObject::objects() 0x0000da8d   Thumb Code    48  qdeclarativegeomapobject.o(.text)
    QtMobility::QDeclarativeGeoMapObject::qt_metacall(QMetaObject::Call, int, void**) 0x0000dabd   Thumb Code   118  qdeclarativegeomapobject.o(.text)
    QtMobility::QDeclarativeGeoMapObject::QDeclarativeGeoMapObject() 0x0000db33   Thumb Code    20  qdeclarativegeomapobject.o(.text)
    QtMobility::QDeclarativeGeoMapObject::QDeclarativeGeoMapObject__sub_object() 0x0000db33   Thumb Code     0  qdeclarativegeomapobject.o(.text)
    QtMobility::QDeclarativeGeoMapObject::~QDeclarativeGeoMapObject() 0x0000db47   Thumb Code    14  qdeclarativegeomapobject.o(.text)
    QtMobility::QDeclarativeGeoMapObject::~QDeclarativeGeoMapObject__sub_object() 0x0000db47   Thumb Code     0  qdeclarativegeomapobject.o(.text)
    QtMobility::QDeclarativeGeoMapObject::~QDeclarativeGeoMapObject__deallocating() 0x0000db55   Thumb Code    22  qdeclarativegeomapobject.o(.text)
    QtMobility::QDeclarativeGeoMapObjectBorder::getStaticMetaObject() 0x0000db89   Thumb Code     4  qdeclarativegeomapobjectborder.o(.text)
    QtMobility::QDeclarativeGeoMapObjectBorder::metaObject() const 0x0000db8d   Thumb Code    28  qdeclarativegeomapobjectborder.o(.text)
    QtMobility::QDeclarativeGeoMapObjectBorder::qt_metacast(const char*) 0x0000dba9   Thumb Code    40  qdeclarativegeomapobjectborder.o(.text)
    QtMobility::QDeclarativeGeoMapObjectBorder::widthChanged(int) 0x0000dbd1   Thumb Code    32  qdeclarativegeomapobjectborder.o(.text)
    QtMobility::QDeclarativeGeoMapObjectBorder::setWidth(int) 0x0000dbf1   Thumb Code    26  qdeclarativegeomapobjectborder.o(.text)
    QtMobility::QDeclarativeGeoMapObjectBorder::colorChanged(const QColor&) 0x0000dc0b   Thumb Code    30  qdeclarativegeomapobjectborder.o(.text)
    QtMobility::QDeclarativeGeoMapObjectBorder::setColor(const QColor&) 0x0000dc29   Thumb Code    44  qdeclarativegeomapobjectborder.o(.text)
    QtMobility::QDeclarativeGeoMapObjectBorder::width() const 0x0000dc55   Thumb Code     6  qdeclarativegeomapobjectborder.o(.text)
    QtMobility::QDeclarativeGeoMapObjectBorder::color() const 0x0000dc5b   Thumb Code    28  qdeclarativegeomapobjectborder.o(.text)
    QtMobility::QDeclarativeGeoMapObjectBorder::qt_metacall(QMetaObject::Call, int, void**) 0x0000dc77   Thumb Code   224  qdeclarativegeomapobjectborder.o(.text)
    QtMobility::QDeclarativeGeoMapObjectBorder::QDeclarativeGeoMapObjectBorder(QObject*) 0x0000dd57   Thumb Code    42  qdeclarativegeomapobjectborder.o(.text)
    QtMobility::QDeclarativeGeoMapObjectBorder::QDeclarativeGeoMapObjectBorder__sub_object(QObject*) 0x0000dd57   Thumb Code     0  qdeclarativegeomapobjectborder.o(.text)
    QtMobility::QDeclarativeGeoMapObjectBorder::~QDeclarativeGeoMapObjectBorder() 0x0000dd81   Thumb Code    14  qdeclarativegeomapobjectborder.o(.text)
    QtMobility::QDeclarativeGeoMapObjectBorder::~QDeclarativeGeoMapObjectBorder__sub_object() 0x0000dd81   Thumb Code     0  qdeclarativegeomapobjectborder.o(.text)
    QtMobility::QDeclarativeGeoMapObjectBorder::~QDeclarativeGeoMapObjectBorder__deallocating() 0x0000dd8f   Thumb Code    22  qdeclarativegeomapobjectborder.o(.text)
    QtMobility::QDeclarativeGeoMapCircleObject::getStaticMetaObject() 0x0000ddb1   Thumb Code     4  qdeclarativegeomapcircleobject.o(.text)
    QtMobility::QDeclarativeGeoMapCircleObject::metaObject() const 0x0000ddb5   Thumb Code    28  qdeclarativegeomapcircleobject.o(.text)
    QtMobility::QDeclarativeGeoMapCircleObject::qt_metacast(const char*) 0x0000ddd1   Thumb Code    40  qdeclarativegeomapcircleobject.o(.text)
    QtMobility::QDeclarativeGeoMapCircleObject::colorChanged(const QColor&) 0x0000ddf9   Thumb Code    30  qdeclarativegeomapcircleobject.o(.text)
    QtMobility::QDeclarativeGeoMapCircleObject::setColor(const QColor&) 0x0000de17   Thumb Code    68  qdeclarativegeomapcircleobject.o(.text)
    QtMobility::QDeclarativeGeoMapCircleObject::declarativeCenterChanged(const QtMobility::QDeclarativeCoordinate*) 0x0000de5b   Thumb Code    30  qdeclarativegeomapcircleobject.o(.text)
    QtMobility::QDeclarativeGeoMapCircleObject::setDeclarativeCenter(const QtMobility::QDeclarativeCoordinate*) 0x0000de79   Thumb Code   104  qdeclarativegeomapcircleobject.o(.text)
    QtMobility::QDeclarativeGeoMapCircleObject::border() 0x0000dee1   Thumb Code     8  qdeclarativegeomapcircleobject.o(.text)
    QtMobility::QDeclarativeGeoMapCircleObject::color() const 0x0000dee9   Thumb Code    28  qdeclarativegeomapcircleobject.o(.text)
    QtMobility::QDeclarativeGeoMapCircleObject::declarativeCenter() 0x0000df05   Thumb Code     6  qdeclarativegeomapcircleobject.o(.text)
    QtMobility::QDeclarativeGeoMapCircleObject::centerAltitudeChanged(double) 0x0000df0b   Thumb Code    32  qdeclarativegeomapcircleobject.o(.text)
    QtMobility::QDeclarativeGeoMapCircleObject::centerLongitudeChanged(double) 0x0000df2b   Thumb Code    32  qdeclarativegeomapcircleobject.o(.text)
    QtMobility::QDeclarativeGeoMapCircleObject::centerLatitudeChanged(double) 0x0000df4b   Thumb Code    32  qdeclarativegeomapcircleobject.o(.text)
    QtMobility::QDeclarativeGeoMapCircleObject::borderWidthChanged(int) 0x0000df6b   Thumb Code    60  qdeclarativegeomapcircleobject.o(.text)
    QtMobility::QDeclarativeGeoMapCircleObject::borderColorChanged(const QColor&) 0x0000dfa7   Thumb Code    38  qdeclarativegeomapcircleobject.o(.text)
    QtMobility::QDeclarativeGeoMapCircleObject::qt_metacall(QMetaObject::Call, int, void**) 0x0000dfcd   Thumb Code   310  qdeclarativegeomapcircleobject.o(.text)
    QtMobility::QDeclarativeGeoMapCircleObject::QDeclarativeGeoMapCircleObject() 0x0000e103   Thumb Code   450  qdeclarativegeomapcircleobject.o(.text)
    QtMobility::QDeclarativeGeoMapCircleObject::QDeclarativeGeoMapCircleObject__sub_object() 0x0000e103   Thumb Code     0  qdeclarativegeomapcircleobject.o(.text)
    QtMobility::QDeclarativeGeoMapCircleObject::~QDeclarativeGeoMapCircleObject() 0x0000e2c5   Thumb Code    30  qdeclarativegeomapcircleobject.o(.text)
    QtMobility::QDeclarativeGeoMapCircleObject::~QDeclarativeGeoMapCircleObject__sub_object() 0x0000e2c5   Thumb Code     0  qdeclarativegeomapcircleobject.o(.text)
    QtMobility::QDeclarativeGeoMapCircleObject::~QDeclarativeGeoMapCircleObject__deallocating() 0x0000e2e3   Thumb Code    22  qdeclarativegeomapcircleobject.o(.text)
    QtMobility::QDeclarativeGeoMapPixmapObject::getStaticMetaObject() 0x0000e2fd   Thumb Code     4  qdeclarativegeomappixmapobject.o(.text)
    QtMobility::QDeclarativeGeoMapPixmapObject::metaObject() const 0x0000e301   Thumb Code    28  qdeclarativegeomappixmapobject.o(.text)
    QtMobility::QDeclarativeGeoMapPixmapObject::qt_metacast(const char*) 0x0000e31d   Thumb Code    40  qdeclarativegeomappixmapobject.o(.text)
    QtMobility::QDeclarativeGeoMapPixmapObject::sourceChanged(const QUrl&) 0x0000e345   Thumb Code    30  qdeclarativegeomappixmapobject.o(.text)
    QtMobility::QDeclarativeGeoMapPixmapObject::statusChanged(QtMobility::QDeclarativeGeoMapPixmapObject::Status) 0x0000e363   Thumb Code    32  qdeclarativegeomappixmapobject.o(.text)
    QtMobility::QDeclarativeGeoMapPixmapObject::setStatus(QtMobility::QDeclarativeGeoMapPixmapObject::Status) 0x0000e383   Thumb Code    26  qdeclarativegeomappixmapobject.o(.text)
    QtMobility::QDeclarativeGeoMapPixmapObject::error(QNetworkReply::NetworkError) 0x0000e39d   Thumb Code    48  qdeclarativegeomappixmapobject.o(.text)
    QtMobility::QDeclarativeGeoMapPixmapObject::finished() 0x0000e3cd   Thumb Code   172  qdeclarativegeomappixmapobject.o(.text)
    QtMobility::QDeclarativeGeoMapPixmapObject::load() 0x0000e479   Thumb Code   770  qdeclarativegeomappixmapobject.o(.text)
    QtMobility::QDeclarativeGeoMapPixmapObject::setSource(const QUrl&) 0x0000e77b   Thumb Code    48  qdeclarativegeomappixmapobject.o(.text)
    QtMobility::QDeclarativeGeoMapPixmapObject::declarativeCoordinateChanged(const QtMobility::QDeclarativeCoordinate*) 0x0000e7ab   Thumb Code    30  qdeclarativegeomappixmapobject.o(.text)
    QtMobility::QDeclarativeGeoMapPixmapObject::setDeclarativeCoordinate(const QtMobility::QDeclarativeCoordinate*) 0x0000e7c9   Thumb Code   104  qdeclarativegeomappixmapobject.o(.text)
    QtMobility::QDeclarativeGeoMapPixmapObject::status() const 0x0000e831   Thumb Code     6  qdeclarativegeomappixmapobject.o(.text)
    QtMobility::QDeclarativeGeoMapPixmapObject::source() const 0x0000e837   Thumb Code    20  qdeclarativegeomappixmapobject.o(.text)
    QtMobility::QDeclarativeGeoMapPixmapObject::declarativeCoordinate() 0x0000e84b   Thumb Code     6  qdeclarativegeomappixmapobject.o(.text)
    QtMobility::QDeclarativeGeoMapPixmapObject::coordinateAltitudeChanged(double) 0x0000e851   Thumb Code    32  qdeclarativegeomappixmapobject.o(.text)
    QtMobility::QDeclarativeGeoMapPixmapObject::coordinateLongitudeChanged(double) 0x0000e871   Thumb Code    32  qdeclarativegeomappixmapobject.o(.text)
    QtMobility::QDeclarativeGeoMapPixmapObject::coordinateLatitudeChanged(double) 0x0000e891   Thumb Code    32  qdeclarativegeomappixmapobject.o(.text)
    QtMobility::QDeclarativeGeoMapPixmapObject::qt_metacall(QMetaObject::Call, int, void**) 0x0000e8b1   Thumb Code   384  qdeclarativegeomappixmapobject.o(.text)
    QtMobility::QDeclarativeGeoMapPixmapObject::QDeclarativeGeoMapPixmapObject() 0x0000ea31   Thumb Code   408  qdeclarativegeomappixmapobject.o(.text)
    QtMobility::QDeclarativeGeoMapPixmapObject::QDeclarativeGeoMapPixmapObject__sub_object() 0x0000ea31   Thumb Code     0  qdeclarativegeomappixmapobject.o(.text)
    QtMobility::QDeclarativeGeoMapPixmapObject::~QDeclarativeGeoMapPixmapObject() 0x0000ebc9   Thumb Code    30  qdeclarativegeomappixmapobject.o(.text)
    QtMobility::QDeclarativeGeoMapPixmapObject::~QDeclarativeGeoMapPixmapObject__sub_object() 0x0000ebc9   Thumb Code     0  qdeclarativegeomappixmapobject.o(.text)
    QtMobility::QDeclarativeGeoMapPixmapObject::~QDeclarativeGeoMapPixmapObject__deallocating() 0x0000ebe7   Thumb Code    22  qdeclarativegeomappixmapobject.o(.text)
    QtMobility::QDeclarativeGeoMapPolygonObject::getStaticMetaObject() 0x0000ec01   Thumb Code     4  qdeclarativegeomappolygonobject.o(.text)
    QtMobility::QDeclarativeGeoMapPolygonObject::metaObject() const 0x0000ec05   Thumb Code    28  qdeclarativegeomappolygonobject.o(.text)
    QtMobility::QDeclarativeGeoMapPolygonObject::qt_metacast(const char*) 0x0000ec21   Thumb Code    40  qdeclarativegeomappolygonobject.o(.text)
    QtMobility::QDeclarativeGeoMapPolygonObject::colorChanged(const QColor&) 0x0000ec49   Thumb Code    30  qdeclarativegeomappolygonobject.o(.text)
    QtMobility::QDeclarativeGeoMapPolygonObject::setColor(const QColor&) 0x0000ec67   Thumb Code    68  qdeclarativegeomappolygonobject.o(.text)
    QtMobility::QDeclarativeGeoMapPolygonObject::border() 0x0000ecab   Thumb Code     8  qdeclarativegeomappolygonobject.o(.text)
    QtMobility::QDeclarativeGeoMapPolygonObject::color() const 0x0000ecb3   Thumb Code    28  qdeclarativegeomappolygonobject.o(.text)
    QtMobility::QDeclarativeGeoMapPolygonObject::path_clear(QDeclarativeListProperty<QtMobility::QDeclarativeCoordinate>*) 0x0000eccf   Thumb Code    88  qdeclarativegeomappolygonobject.o(.text)
    QtMobility::QDeclarativeGeoMapPolygonObject::path_at(QDeclarativeListProperty<QtMobility::QDeclarativeCoordinate>*, int) 0x0000ed27   Thumb Code    40  qdeclarativegeomappolygonobject.o(.text)
    QtMobility::QDeclarativeGeoMapPolygonObject::path_count(QDeclarativeListProperty<QtMobility::QDeclarativeCoordinate>*) 0x0000ed4f   Thumb Code    24  qdeclarativegeomappolygonobject.o(.text)
    QtMobility::QDeclarativeGeoMapPolygonObject::path_append(QDeclarativeListProperty<QtMobility::QDeclarativeCoordinate>*, QtMobility::QDeclarativeCoordinate*) 0x0000ed67   Thumb Code    66  qdeclarativegeomappolygonobject.o(.text)
    QtMobility::QDeclarativeGeoMapPolygonObject::declarativePath() 0x0000eda9   Thumb Code    48  qdeclarativegeomappolygonobject.o(.text)
    QtMobility::QDeclarativeGeoMapPolygonObject::borderWidthChanged(int) 0x0000edd9   Thumb Code    60  qdeclarativegeomappolygonobject.o(.text)
    QtMobility::QDeclarativeGeoMapPolygonObject::borderColorChanged(const QColor&) 0x0000ee15   Thumb Code    38  qdeclarativegeomappolygonobject.o(.text)
    QtMobility::QDeclarativeGeoMapPolygonObject::qt_metacall(QMetaObject::Call, int, void**) 0x0000ee3b   Thumb Code   238  qdeclarativegeomappolygonobject.o(.text)
    QtMobility::QDeclarativeGeoMapPolygonObject::QDeclarativeGeoMapPolygonObject() 0x0000ef29   Thumb Code    96  qdeclarativegeomappolygonobject.o(.text)
    QtMobility::QDeclarativeGeoMapPolygonObject::QDeclarativeGeoMapPolygonObject__sub_object() 0x0000ef29   Thumb Code     0  qdeclarativegeomappolygonobject.o(.text)
    QtMobility::QDeclarativeGeoMapPolygonObject::~QDeclarativeGeoMapPolygonObject() 0x0000ef89   Thumb Code   184  qdeclarativegeomappolygonobject.o(.text)
    QtMobility::QDeclarativeGeoMapPolygonObject::~QDeclarativeGeoMapPolygonObject__sub_object() 0x0000ef89   Thumb Code     0  qdeclarativegeomappolygonobject.o(.text)
    QtMobility::QDeclarativeGeoMapPolygonObject::~QDeclarativeGeoMapPolygonObject__deallocating() 0x0000f041   Thumb Code    22  qdeclarativegeomappolygonobject.o(.text)
    QtMobility::QDeclarativeGeoMapPolylineObject::getStaticMetaObject() 0x0000f059   Thumb Code     4  qdeclarativegeomappolylineobject.o(.text)
    QtMobility::QDeclarativeGeoMapPolylineObject::metaObject() const 0x0000f05d   Thumb Code    28  qdeclarativegeomappolylineobject.o(.text)
    QtMobility::QDeclarativeGeoMapPolylineObject::qt_metacast(const char*) 0x0000f079   Thumb Code    40  qdeclarativegeomappolylineobject.o(.text)
    QtMobility::QDeclarativeGeoMapPolylineObject::border() 0x0000f0a1   Thumb Code     8  qdeclarativegeomappolylineobject.o(.text)
    QtMobility::QDeclarativeGeoMapPolylineObject::path_clear(QDeclarativeListProperty<QtMobility::QDeclarativeCoordinate>*) 0x0000f0a9   Thumb Code    88  qdeclarativegeomappolylineobject.o(.text)
    QtMobility::QDeclarativeGeoMapPolylineObject::path_at(QDeclarativeListProperty<QtMobility::QDeclarativeCoordinate>*, int) 0x0000f101   Thumb Code    40  qdeclarativegeomappolylineobject.o(.text)
    QtMobility::QDeclarativeGeoMapPolylineObject::path_count(QDeclarativeListProperty<QtMobility::QDeclarativeCoordinate>*) 0x0000f129   Thumb Code    24  qdeclarativegeomappolylineobject.o(.text)
    QtMobility::QDeclarativeGeoMapPolylineObject::path_append(QDeclarativeListProperty<QtMobility::QDeclarativeCoordinate>*, QtMobility::QDeclarativeCoordinate*) 0x0000f141   Thumb Code    66  qdeclarativegeomappolylineobject.o(.text)
    QtMobility::QDeclarativeGeoMapPolylineObject::declarativePath() 0x0000f183   Thumb Code    48  qdeclarativegeomappolylineobject.o(.text)
    QtMobility::QDeclarativeGeoMapPolylineObject::borderWidthChanged(int) 0x0000f1b3   Thumb Code    60  qdeclarativegeomappolylineobject.o(.text)
    QtMobility::QDeclarativeGeoMapPolylineObject::borderColorChanged(const QColor&) 0x0000f1ef   Thumb Code    38  qdeclarativegeomappolylineobject.o(.text)
    QtMobility::QDeclarativeGeoMapPolylineObject::qt_metacall(QMetaObject::Call, int, void**) 0x0000f215   Thumb Code   178  qdeclarativegeomappolylineobject.o(.text)
    QtMobility::QDeclarativeGeoMapPolylineObject::QDeclarativeGeoMapPolylineObject() 0x0000f2c7   Thumb Code    82  qdeclarativegeomappolylineobject.o(.text)
    QtMobility::QDeclarativeGeoMapPolylineObject::QDeclarativeGeoMapPolylineObject__sub_object() 0x0000f2c7   Thumb Code     0  qdeclarativegeomappolylineobject.o(.text)
    QtMobility::QDeclarativeGeoMapPolylineObject::~QDeclarativeGeoMapPolylineObject() 0x0000f319   Thumb Code    50  qdeclarativegeomappolylineobject.o(.text)
    QtMobility::QDeclarativeGeoMapPolylineObject::~QDeclarativeGeoMapPolylineObject__sub_object() 0x0000f319   Thumb Code     0  qdeclarativegeomappolylineobject.o(.text)
    QtMobility::QDeclarativeGeoMapPolylineObject::~QDeclarativeGeoMapPolylineObject__deallocating() 0x0000f34b   Thumb Code    22  qdeclarativegeomappolylineobject.o(.text)
    QtMobility::QDeclarativeGeoMapRectangleObject::getStaticMetaObject() 0x0000f3e5   Thumb Code     4  qdeclarativegeomaprectangleobject.o(.text)
    QtMobility::QDeclarativeGeoMapRectangleObject::metaObject() const 0x0000f3e9   Thumb Code    28  qdeclarativegeomaprectangleobject.o(.text)
    QtMobility::QDeclarativeGeoMapRectangleObject::qt_metacast(const char*) 0x0000f405   Thumb Code    40  qdeclarativegeomaprectangleobject.o(.text)
    QtMobility::QDeclarativeGeoMapRectangleObject::colorChanged(const QColor&) 0x0000f42d   Thumb Code    30  qdeclarativegeomaprectangleobject.o(.text)
    QtMobility::QDeclarativeGeoMapRectangleObject::setColor(const QColor&) 0x0000f44b   Thumb Code    68  qdeclarativegeomaprectangleobject.o(.text)
    QtMobility::QDeclarativeGeoMapRectangleObject::declarativeBottomRightChanged(const QtMobility::QDeclarativeCoordinate*) 0x0000f48f   Thumb Code    32  qdeclarativegeomaprectangleobject.o(.text)
    QtMobility::QDeclarativeGeoMapRectangleObject::setDeclarativeBottomRight(const QtMobility::QDeclarativeCoordinate*) 0x0000f4af   Thumb Code   104  qdeclarativegeomaprectangleobject.o(.text)
    QtMobility::QDeclarativeGeoMapRectangleObject::declarativeTopLeftChanged(const QtMobility::QDeclarativeCoordinate*) 0x0000f517   Thumb Code    30  qdeclarativegeomaprectangleobject.o(.text)
    QtMobility::QDeclarativeGeoMapRectangleObject::setDeclarativeTopLeft(const QtMobility::QDeclarativeCoordinate*) 0x0000f535   Thumb Code   104  qdeclarativegeomaprectangleobject.o(.text)
    QtMobility::QDeclarativeGeoMapRectangleObject::border() 0x0000f59d   Thumb Code     8  qdeclarativegeomaprectangleobject.o(.text)
    QtMobility::QDeclarativeGeoMapRectangleObject::color() const 0x0000f5a5   Thumb Code    28  qdeclarativegeomaprectangleobject.o(.text)
    QtMobility::QDeclarativeGeoMapRectangleObject::declarativeBottomRight() 0x0000f5c1   Thumb Code     6  qdeclarativegeomaprectangleobject.o(.text)
    QtMobility::QDeclarativeGeoMapRectangleObject::declarativeTopLeft() 0x0000f5c7   Thumb Code     6  qdeclarativegeomaprectangleobject.o(.text)
    QtMobility::QDeclarativeGeoMapRectangleObject::borderWidthChanged(int) 0x0000f5cd   Thumb Code    60  qdeclarativegeomaprectangleobject.o(.text)
    QtMobility::QDeclarativeGeoMapRectangleObject::borderColorChanged(const QColor&) 0x0000f609   Thumb Code    38  qdeclarativegeomaprectangleobject.o(.text)
    QtMobility::QDeclarativeGeoMapRectangleObject::bottomRightAltitudeChanged(double) 0x0000f62f   Thumb Code    32  qdeclarativegeomaprectangleobject.o(.text)
    QtMobility::QDeclarativeGeoMapRectangleObject::bottomRightLongitudeChanged(double) 0x0000f64f   Thumb Code    32  qdeclarativegeomaprectangleobject.o(.text)
    QtMobility::QDeclarativeGeoMapRectangleObject::bottomRightLatitudeChanged(double) 0x0000f66f   Thumb Code    32  qdeclarativegeomaprectangleobject.o(.text)
    QtMobility::QDeclarativeGeoMapRectangleObject::topLeftAltitudeChanged(double) 0x0000f68f   Thumb Code    32  qdeclarativegeomaprectangleobject.o(.text)
    QtMobility::QDeclarativeGeoMapRectangleObject::topLeftLongitudeChanged(double) 0x0000f6af   Thumb Code    32  qdeclarativegeomaprectangleobject.o(.text)
    QtMobility::QDeclarativeGeoMapRectangleObject::topLeftLatitudeChanged(double) 0x0000f6cf   Thumb Code    32  qdeclarativegeomaprectangleobject.o(.text)
    QtMobility::QDeclarativeGeoMapRectangleObject::qt_metacall(QMetaObject::Call, int, void**) 0x0000f6ef   Thumb Code   406  qdeclarativegeomaprectangleobject.o(.text)
    QtMobility::QDeclarativeGeoMapRectangleObject::QDeclarativeGeoMapRectangleObject() 0x0000f885   Thumb Code   632  qdeclarativegeomaprectangleobject.o(.text)
    QtMobility::QDeclarativeGeoMapRectangleObject::QDeclarativeGeoMapRectangleObject__sub_object() 0x0000f885   Thumb Code     0  qdeclarativegeomaprectangleobject.o(.text)
    QtMobility::QDeclarativeGeoMapRectangleObject::~QDeclarativeGeoMapRectangleObject() 0x0000fafd   Thumb Code    30  qdeclarativegeomaprectangleobject.o(.text)
    QtMobility::QDeclarativeGeoMapRectangleObject::~QDeclarativeGeoMapRectangleObject__sub_object() 0x0000fafd   Thumb Code     0  qdeclarativegeomaprectangleobject.o(.text)
    QtMobility::QDeclarativeGeoMapRectangleObject::~QDeclarativeGeoMapRectangleObject__deallocating() 0x0000fb1b   Thumb Code    22  qdeclarativegeomaprectangleobject.o(.text)
    QtMobility::QDeclarativeGeoMapTextObject::getStaticMetaObject() 0x0000fb35   Thumb Code     4  qdeclarativegeomaptextobject.o(.text)
    QtMobility::QDeclarativeGeoMapTextObject::metaObject() const 0x0000fb39   Thumb Code    28  qdeclarativegeomaptextobject.o(.text)
    QtMobility::QDeclarativeGeoMapTextObject::qt_metacast(const char*) 0x0000fb55   Thumb Code    40  qdeclarativegeomaptextobject.o(.text)
    QtMobility::QDeclarativeGeoMapTextObject::verticalAlignmentChanged(QtMobility::QDeclarativeGeoMapTextObject::VerticalAlignment) 0x0000fb7d   Thumb Code    32  qdeclarativegeomaptextobject.o(.text)
    QtMobility::QDeclarativeGeoMapTextObject::setVerticalAlignment(QtMobility::QDeclarativeGeoMapTextObject::VerticalAlignment) 0x0000fb9d   Thumb Code    58  qdeclarativegeomaptextobject.o(.text)
    QtMobility::QDeclarativeGeoMapTextObject::horizontalAlignmentChanged(QtMobility::QDeclarativeGeoMapTextObject::HorizontalAlignment) 0x0000fbd7   Thumb Code    32  qdeclarativegeomaptextobject.o(.text)
    QtMobility::QDeclarativeGeoMapTextObject::setHorizontalAlignment(QtMobility::QDeclarativeGeoMapTextObject::HorizontalAlignment) 0x0000fbf7   Thumb Code    58  qdeclarativegeomaptextobject.o(.text)
    QtMobility::QDeclarativeGeoMapTextObject::colorChanged(const QColor&) 0x0000fc31   Thumb Code    30  qdeclarativegeomaptextobject.o(.text)
    QtMobility::QDeclarativeGeoMapTextObject::setColor(const QColor&) 0x0000fc4f   Thumb Code    68  qdeclarativegeomaptextobject.o(.text)
    QtMobility::QDeclarativeGeoMapTextObject::declarativeCoordinateChanged(const QtMobility::QDeclarativeCoordinate*) 0x0000fc93   Thumb Code    30  qdeclarativegeomaptextobject.o(.text)
    QtMobility::QDeclarativeGeoMapTextObject::setDeclarativeCoordinate(const QtMobility::QDeclarativeCoordinate*) 0x0000fcb1   Thumb Code   104  qdeclarativegeomaptextobject.o(.text)
    QtMobility::QDeclarativeGeoMapTextObject::verticalAlignment() const 0x0000fd19   Thumb Code     6  qdeclarativegeomaptextobject.o(.text)
    QtMobility::QDeclarativeGeoMapTextObject::horizontalAlignment() const 0x0000fd1f   Thumb Code     6  qdeclarativegeomaptextobject.o(.text)
    QtMobility::QDeclarativeGeoMapTextObject::color() const 0x0000fd25   Thumb Code    28  qdeclarativegeomaptextobject.o(.text)
    QtMobility::QDeclarativeGeoMapTextObject::declarativeCoordinate() 0x0000fd41   Thumb Code     6  qdeclarativegeomaptextobject.o(.text)
    QtMobility::QDeclarativeGeoMapTextObject::coordinateAltitudeChanged(double) 0x0000fd47   Thumb Code    32  qdeclarativegeomaptextobject.o(.text)
    QtMobility::QDeclarativeGeoMapTextObject::coordinateLongitudeChanged(double) 0x0000fd67   Thumb Code    32  qdeclarativegeomaptextobject.o(.text)
    QtMobility::QDeclarativeGeoMapTextObject::coordinateLatitudeChanged(double) 0x0000fd87   Thumb Code    32  qdeclarativegeomaptextobject.o(.text)
    QtMobility::QDeclarativeGeoMapTextObject::qt_metacall(QMetaObject::Call, int, void**) 0x0000fda7   Thumb Code   366  qdeclarativegeomaptextobject.o(.text)
    QtMobility::QDeclarativeGeoMapTextObject::QDeclarativeGeoMapTextObject() 0x0000ff15   Thumb Code   170  qdeclarativegeomaptextobject.o(.text)
    QtMobility::QDeclarativeGeoMapTextObject::QDeclarativeGeoMapTextObject__sub_object() 0x0000ff15   Thumb Code     0  qdeclarativegeomaptextobject.o(.text)
    QtMobility::QDeclarativeGeoMapTextObject::~QDeclarativeGeoMapTextObject() 0x0000ffbf   Thumb Code    14  qdeclarativegeomaptextobject.o(.text)
    QtMobility::QDeclarativeGeoMapTextObject::~QDeclarativeGeoMapTextObject__sub_object() 0x0000ffbf   Thumb Code     0  qdeclarativegeomaptextobject.o(.text)
    QtMobility::QDeclarativeGeoMapTextObject::~QDeclarativeGeoMapTextObject__deallocating() 0x0000ffcd   Thumb Code    22  qdeclarativegeomaptextobject.o(.text)
    QtMobility::QDeclarativeGeoServiceProviderParameter::getStaticMetaObject() 0x000100a9   Thumb Code     4  qdeclarativegeoserviceprovider.o(.text)
    QtMobility::QDeclarativeGeoServiceProviderParameter::metaObject() const 0x000100ad   Thumb Code    28  qdeclarativegeoserviceprovider.o(.text)
    QtMobility::QDeclarativeGeoServiceProviderParameter::qt_metacast(const char*) 0x000100c9   Thumb Code    40  qdeclarativegeoserviceprovider.o(.text)
    QtMobility::QDeclarativeGeoServiceProviderParameter::valueChanged(const QVariant&) 0x000100f1   Thumb Code    30  qdeclarativegeoserviceprovider.o(.text)
    QtMobility::QDeclarativeGeoServiceProviderParameter::setValue(const QVariant&) 0x0001010f   Thumb Code    46  qdeclarativegeoserviceprovider.o(.text)
    QtMobility::QDeclarativeGeoServiceProviderParameter::nameChanged(const QString&) 0x0001013d   Thumb Code    30  qdeclarativegeoserviceprovider.o(.text)
    QtMobility::QDeclarativeGeoServiceProviderParameter::setName(const QString&) 0x0001015b   Thumb Code    44  qdeclarativegeoserviceprovider.o(.text)
    QtMobility::QDeclarativeGeoServiceProviderParameter::value() const 0x00010187   Thumb Code    20  qdeclarativegeoserviceprovider.o(.text)
    QtMobility::QDeclarativeGeoServiceProviderParameter::name() const 0x0001019b   Thumb Code    20  qdeclarativegeoserviceprovider.o(.text)
    QtMobility::QDeclarativeGeoServiceProviderParameter::qt_metacall(QMetaObject::Call, int, void**) 0x000101af   Thumb Code   302  qdeclarativegeoserviceprovider.o(.text)
    QtMobility::QDeclarativeGeoServiceProviderParameter::QDeclarativeGeoServiceProviderParameter(QObject*) 0x000102dd   Thumb Code    82  qdeclarativegeoserviceprovider.o(.text)
    QtMobility::QDeclarativeGeoServiceProviderParameter::QDeclarativeGeoServiceProviderParameter__sub_object(QObject*) 0x000102dd   Thumb Code     0  qdeclarativegeoserviceprovider.o(.text)
    QtMobility::QDeclarativeGeoServiceProviderParameter::~QDeclarativeGeoServiceProviderParameter() 0x0001032f   Thumb Code    42  qdeclarativegeoserviceprovider.o(.text)
    QtMobility::QDeclarativeGeoServiceProviderParameter::~QDeclarativeGeoServiceProviderParameter__sub_object() 0x0001032f   Thumb Code     0  qdeclarativegeoserviceprovider.o(.text)
    QtMobility::QDeclarativeGeoServiceProviderParameter::~QDeclarativeGeoServiceProviderParameter__deallocating() 0x00010359   Thumb Code    22  qdeclarativegeoserviceprovider.o(.text)
    QtMobility::QDeclarativeGeoServiceProvider::getStaticMetaObject() 0x0001036f   Thumb Code     4  qdeclarativegeoserviceprovider.o(.text)
    QtMobility::QDeclarativeGeoServiceProvider::metaObject() const 0x00010373   Thumb Code    28  qdeclarativegeoserviceprovider.o(.text)
    QtMobility::QDeclarativeGeoServiceProvider::qt_metacast(const char*) 0x0001038f   Thumb Code    42  qdeclarativegeoserviceprovider.o(.text)
    QtMobility::QDeclarativeGeoServiceProvider::nameChanged(const QString&) 0x000103b9   Thumb Code    30  qdeclarativegeoserviceprovider.o(.text)
    QtMobility::QDeclarativeGeoServiceProvider::setName(const QString&) 0x000103d7   Thumb Code    44  qdeclarativegeoserviceprovider.o(.text)
    QtMobility::QDeclarativeGeoServiceProvider::parameter_clear(QDeclarativeListProperty<QtMobility::QDeclarativeGeoServiceProviderParameter>*) 0x00010403   Thumb Code    16  qdeclarativegeoserviceprovider.o(.text)
    QtMobility::QDeclarativeGeoServiceProvider::parameter_at(QDeclarativeListProperty<QtMobility::QDeclarativeGeoServiceProviderParameter>*, int) 0x00010413   Thumb Code    70  qdeclarativegeoserviceprovider.o(.text)
    QtMobility::QDeclarativeGeoServiceProvider::parameter_count(QDeclarativeListProperty<QtMobility::QDeclarativeGeoServiceProviderParameter>*) 0x00010459   Thumb Code    24  qdeclarativegeoserviceprovider.o(.text)
    QtMobility::QDeclarativeGeoServiceProvider::parameter_append(QDeclarativeListProperty<QtMobility::QDeclarativeGeoServiceProviderParameter>*, QtMobility::QDeclarativeGeoServiceProviderParameter*) 0x00010471   Thumb Code    18  qdeclarativegeoserviceprovider.o(.text)
    QtMobility::QDeclarativeGeoServiceProvider::parameters() 0x00010483   Thumb Code    48  qdeclarativegeoserviceprovider.o(.text)
    QtMobility::QDeclarativeGeoServiceProvider::name() const 0x000104b3   Thumb Code    20  qdeclarativegeoserviceprovider.o(.text)
    QtMobility::QDeclarativeGeoServiceProvider::qt_metacall(QMetaObject::Call, int, void**) 0x000104c7   Thumb Code   256  qdeclarativegeoserviceprovider.o(.text)
    QtMobility::QDeclarativeGeoServiceProvider::QDeclarativeGeoServiceProvider(QObject*) 0x000105c7   Thumb Code    48  qdeclarativegeoserviceprovider.o(.text)
    QtMobility::QDeclarativeGeoServiceProvider::QDeclarativeGeoServiceProvider__sub_object(QObject*) 0x000105c7   Thumb Code     0  qdeclarativegeoserviceprovider.o(.text)
    QtMobility::QDeclarativeGeoServiceProvider::~QDeclarativeGeoServiceProvider() 0x000105f7   Thumb Code    42  qdeclarativegeoserviceprovider.o(.text)
    QtMobility::QDeclarativeGeoServiceProvider::~QDeclarativeGeoServiceProvider__sub_object() 0x000105f7   Thumb Code     0  qdeclarativegeoserviceprovider.o(.text)
    QtMobility::QDeclarativeGeoServiceProvider::~QDeclarativeGeoServiceProvider__deallocating() 0x00010621   Thumb Code    22  qdeclarativegeoserviceprovider.o(.text)
    QtMobility::QDeclarativeGeoServiceProvider::parameterMap() const 0x00010637   Thumb Code   204  qdeclarativegeoserviceprovider.o(.text)
    QtMobility::QDeclarativeGraphicsGeoMap::getStaticMetaObject() 0x00010771   Thumb Code     4  qdeclarativegraphicsgeomap.o(.text)
    QtMobility::QDeclarativeGraphicsGeoMap::metaObject() const 0x00010775   Thumb Code    28  qdeclarativegraphicsgeomap.o(.text)
    QtMobility::QDeclarativeGraphicsGeoMap::qt_metacast(const char*) 0x00010791   Thumb Code    40  qdeclarativegraphicsgeomap.o(.text)
    QtMobility::QDeclarativeGraphicsGeoMap::connectivityModeChanged(QtMobility::QDeclarativeGraphicsGeoMap::ConnectivityMode) 0x000107b9   Thumb Code    32  qdeclarativegraphicsgeomap.o(.text)
    QtMobility::QDeclarativeGraphicsGeoMap::setConnectivityMode(QtMobility::QDeclarativeGraphicsGeoMap::ConnectivityMode) 0x000107d9   Thumb Code    46  qdeclarativegraphicsgeomap.o(.text)
    QtMobility::QDeclarativeGraphicsGeoMap::declarativeCenterChanged(const QtMobility::QDeclarativeCoordinate*) 0x00010807   Thumb Code    32  qdeclarativegraphicsgeomap.o(.text)
    QtMobility::QDeclarativeGraphicsGeoMap::setCenter(const QtMobility::QDeclarativeCoordinate*) 0x00010827   Thumb Code   118  qdeclarativegraphicsgeomap.o(.text)
    QtMobility::QDeclarativeGraphicsGeoMap::mapTypeChanged(QtMobility::QDeclarativeGraphicsGeoMap::MapType) 0x0001089d   Thumb Code    32  qdeclarativegraphicsgeomap.o(.text)
    QtMobility::QDeclarativeGraphicsGeoMap::setMapType(QtMobility::QDeclarativeGraphicsGeoMap::MapType) 0x000108bd   Thumb Code    46  qdeclarativegraphicsgeomap.o(.text)
    QtMobility::QDeclarativeGraphicsGeoMap::zoomLevelChanged(float) 0x000108eb   Thumb Code    32  qdeclarativegraphicsgeomap.o(.text)
    QtMobility::QDeclarativeGraphicsGeoMap::setZoomLevel(float) 0x0001090b   Thumb Code    50  qdeclarativegraphicsgeomap.o(.text)
    QtMobility::QDeclarativeGraphicsGeoMap::sizeChanged(const QSizeF&) 0x0001093d   Thumb Code    30  qdeclarativegraphicsgeomap.o(.text)
    QtMobility::QDeclarativeGraphicsGeoMap::setSize(const QSizeF&) 0x0001095b   Thumb Code   112  qdeclarativegraphicsgeomap.o(.text)
    QtMobility::QDeclarativeGraphicsGeoMap::pluginChanged(QtMobility::QDeclarativeGeoServiceProvider*) 0x000109cb   Thumb Code    30  qdeclarativegraphicsgeomap.o(.text)
    QtMobility::QDeclarativeGraphicsGeoMap::setPlugin(QtMobility::QDeclarativeGeoServiceProvider*) 0x000109e9   Thumb Code   824  qdeclarativegraphicsgeomap.o(.text)
    QtMobility::QDeclarativeGraphicsGeoMap::object_clear(QDeclarativeListProperty<QtMobility::QGeoMapObject>*) 0x00010d21   Thumb Code    30  qdeclarativegraphicsgeomap.o(.text)
    QtMobility::QDeclarativeGraphicsGeoMap::object_at(QDeclarativeListProperty<QtMobility::QGeoMapObject>*, int) 0x00010d3f   Thumb Code    60  qdeclarativegraphicsgeomap.o(.text)
    QtMobility::QDeclarativeGraphicsGeoMap::object_count(QDeclarativeListProperty<QtMobility::QGeoMapObject>*) 0x00010d7b   Thumb Code    60  qdeclarativegraphicsgeomap.o(.text)
    QtMobility::QDeclarativeGraphicsGeoMap::object_append(QDeclarativeListProperty<QtMobility::QGeoMapObject>*, QtMobility::QGeoMapObject*) 0x00010db7   Thumb Code    34  qdeclarativegraphicsgeomap.o(.text)
    QtMobility::QDeclarativeGraphicsGeoMap::objects() 0x00010dd9   Thumb Code    48  qdeclarativegraphicsgeomap.o(.text)
    QtMobility::QDeclarativeGraphicsGeoMap::connectivityMode() const 0x00010e09   Thumb Code    26  qdeclarativegraphicsgeomap.o(.text)
    QtMobility::QDeclarativeGraphicsGeoMap::center() 0x00010e23   Thumb Code    44  qdeclarativegraphicsgeomap.o(.text)
    QtMobility::QDeclarativeGraphicsGeoMap::mapType() const 0x00010e4f   Thumb Code    26  qdeclarativegraphicsgeomap.o(.text)
    QtMobility::QDeclarativeGraphicsGeoMap::zoomLevel() const 0x00010e69   Thumb Code    26  qdeclarativegraphicsgeomap.o(.text)
    QtMobility::QDeclarativeGraphicsGeoMap::maximumZoomLevel() const 0x00010e83   Thumb Code    22  qdeclarativegraphicsgeomap.o(.text)
    QtMobility::QDeclarativeGraphicsGeoMap::minimumZoomLevel() const 0x00010e99   Thumb Code    22  qdeclarativegraphicsgeomap.o(.text)
    QtMobility::QDeclarativeGraphicsGeoMap::size() const 0x00010eaf   Thumb Code    34  qdeclarativegraphicsgeomap.o(.text)
    QtMobility::QDeclarativeGraphicsGeoMap::plugin() const 0x00010ed1   Thumb Code     6  qdeclarativegraphicsgeomap.o(.text)
    QtMobility::QDeclarativeGraphicsGeoMap::toScreenPosition(QtMobility::QDeclarativeCoordinate*) const 0x00010ed7   Thumb Code    72  qdeclarativegraphicsgeomap.o(.text)
    QtMobility::QDeclarativeGraphicsGeoMap::toCoordinate(QPointF) const 0x00010f1f   Thumb Code    90  qdeclarativegraphicsgeomap.o(.text)
    QtMobility::QDeclarativeGraphicsGeoMap::centerAltitudeChanged(double) 0x00010f79   Thumb Code    44  qdeclarativegraphicsgeomap.o(.text)
    QtMobility::QDeclarativeGraphicsGeoMap::centerLongitudeChanged(double) 0x00010fa5   Thumb Code    44  qdeclarativegraphicsgeomap.o(.text)
    QtMobility::QDeclarativeGraphicsGeoMap::centerLatitudeChanged(double) 0x00010fd1   Thumb Code    44  qdeclarativegraphicsgeomap.o(.text)
    QtMobility::QDeclarativeGraphicsGeoMap::internalConnectivityModeChanged(QtMobility::QGraphicsGeoMap::ConnectivityMode) 0x00010ffd   Thumb Code    16  qdeclarativegraphicsgeomap.o(.text)
    QtMobility::QDeclarativeGraphicsGeoMap::internalMapTypeChanged(QtMobility::QGraphicsGeoMap::MapType) 0x0001100d   Thumb Code    16  qdeclarativegraphicsgeomap.o(.text)
    QtMobility::QDeclarativeGraphicsGeoMap::internalCenterChanged(const QtMobility::QGeoCoordinate&) 0x0001101d   Thumb Code    40  qdeclarativegraphicsgeomap.o(.text)
    QtMobility::QDeclarativeGraphicsGeoMap::updateMapDisplay(const QRectF&) 0x00011045   Thumb Code    18  qdeclarativegraphicsgeomap.o(.text)
    QtMobility::QDeclarativeGraphicsGeoMap::pan(int, int) 0x00011057   Thumb Code    62  qdeclarativegraphicsgeomap.o(.text)
    QtMobility::QDeclarativeGraphicsGeoMap::qt_metacall(QMetaObject::Call, int, void**) 0x00011095   Thumb Code   578  qdeclarativegraphicsgeomap.o(.text)
    QtMobility::QDeclarativeGraphicsGeoMap::QDeclarativeGraphicsGeoMap(QDeclarativeItem*) 0x000112d7   Thumb Code   250  qdeclarativegraphicsgeomap.o(.text)
    QtMobility::QDeclarativeGraphicsGeoMap::QDeclarativeGraphicsGeoMap__sub_object(QDeclarativeItem*) 0x000112d7   Thumb Code     0  qdeclarativegraphicsgeomap.o(.text)
    QtMobility::QDeclarativeGraphicsGeoMap::~QDeclarativeGraphicsGeoMap() 0x000113d1   Thumb Code   130  qdeclarativegraphicsgeomap.o(.text)
    QtMobility::QDeclarativeGraphicsGeoMap::~QDeclarativeGraphicsGeoMap__sub_object() 0x000113d1   Thumb Code     0  qdeclarativegraphicsgeomap.o(.text)
    QtMobility::QDeclarativeGraphicsGeoMap::~QDeclarativeGraphicsGeoMap__deallocating() 0x00011453   Thumb Code    22  qdeclarativegraphicsgeomap.o(.text)
    thunk{-16} to QtMobility::QDeclarativeGraphicsGeoMap::~QDeclarativeGraphicsGeoMap__deallocating() 0x00011469   Thumb Code    14  qdeclarativegraphicsgeomap.o(.text)
    thunk{-8} to QtMobility::QDeclarativeGraphicsGeoMap::~QDeclarativeGraphicsGeoMap__deallocating() 0x00011477   Thumb Code    14  qdeclarativegraphicsgeomap.o(.text)
    thunk{-16} to QtMobility::QDeclarativeGraphicsGeoMap::~QDeclarativeGraphicsGeoMap() 0x00011485   Thumb Code    14  qdeclarativegraphicsgeomap.o(.text)
    thunk{-8} to QtMobility::QDeclarativeGraphicsGeoMap::~QDeclarativeGraphicsGeoMap() 0x00011493   Thumb Code    14  qdeclarativegraphicsgeomap.o(.text)
    QtMobility::QDeclarativeGraphicsGeoMap::paint(QPainter*, const QStyleOptionGraphicsItem*, QWidget*) 0x000114a1   Thumb Code    32  qdeclarativegraphicsgeomap.o(.text)
    thunk{-8} to QtMobility::QDeclarativeGraphicsGeoMap::paint(QPainter*, const QStyleOptionGraphicsItem*, QWidget*) 0x000114c1   Thumb Code    26  qdeclarativegraphicsgeomap.o(.text)
    QtMobility::QDeclarativeGraphicsGeoMap::geometryChanged(const QRectF&, const QRectF&) 0x000114db   Thumb Code    36  qdeclarativegraphicsgeomap.o(.text)
    QtMobility::QDeclarativeGeoSearchModel::getStaticMetaObject() 0x000115d1   Thumb Code     4  qdeclarativegeosearchmodel.o(.text)
    QtMobility::QDeclarativeGeoSearchModel::metaObject() const 0x000115d5   Thumb Code    28  qdeclarativegeosearchmodel.o(.text)
    QtMobility::QDeclarativeGeoSearchModel::qt_metacast(const char*) 0x000115f1   Thumb Code    76  qdeclarativegeosearchmodel.o(.text)
    QtMobility::QDeclarativeGeoSearchModel::pluginChanged(QtMobility::QDeclarativeGeoServiceProvider*) 0x0001163d   Thumb Code    30  qdeclarativegeosearchmodel.o(.text)
    QtMobility::QDeclarativeGeoSearchModel::setPlugin(QtMobility::QDeclarativeGeoServiceProvider*) 0x0001165b   Thumb Code   458  qdeclarativegeosearchmodel.o(.text)
    QtMobility::QDeclarativeGeoSearchModel::error() const 0x00011825   Thumb Code    26  qdeclarativegeosearchmodel.o(.text)
