ARM Linker, RVCT2.2 [Build 686]

================================================================================

Image Symbol Table

    Local Symbols

    Symbol Name                              Value     Ov Type        Size  Object(Section)

    ../../unhosted.s                         0x00000000   Number         0  switch8.o ABSOLUTE
    M:\\epoc32\\build\\euser\\c_e18a23aea4fd210f\\edll_lib\\armv5\\udeb\\uc_dll_.cpp 0x00000000   Number         0  uc_dll_.o ABSOLUTE
    M:\\sf\\os\\kernelhwsrv\\kernel\\eka\\compsupp\\rvct\\ucppinit.cpp 0x00000000   Number         0  ucppinit.o ABSOLUTE
    M:\epoc32\build\euser\c_e18a23aea4fd210f\edll_lib\armv5\udeb\uc_dll_.cpp 0x00000000   Number         0  uc_dll_.o ABSOLUTE
    M:\sf\os\kernelhwsrv\kernel\eka\compsupp\rvct\dllexp.cpp 0x00000000   Number         0  dllexp.o ABSOLUTE
    M:\sf\os\kernelhwsrv\kernel\eka\compsupp\rvct\ucppfini.cpp 0x00000000   Number         0  ucppfini.o ABSOLUTE
    M:\sf\os\kernelhwsrv\kernel\eka\compsupp\rvct\ucppinit.cpp 0x00000000   Number         0  ucppinit.o ABSOLUTE
    M:\sf\os\kernelhwsrv\kernel\eka\euser\epoc\arm\uc_dll.cpp 0x00000000   Number         0  uc_dll.o ABSOLUTE
    S:\sf\mw\qtmobility\build\Release\declarative_contacts\moc\moc_qdeclarativecontact_p.cpp 0x00000000   Number         0  moc_qdeclarativecontact_p.o ABSOLUTE
    S:\sf\mw\qtmobility\build\Release\declarative_contacts\moc\moc_qdeclarativecontactactionfilter_p.cpp 0x00000000   Number         0  moc_qdeclarativecontactactionfilter_p.o ABSOLUTE
    S:\sf\mw\qtmobility\build\Release\declarative_contacts\moc\moc_qdeclarativecontactaddress_p.cpp 0x00000000   Number         0  moc_qdeclarativecontactaddress_p.o ABSOLUTE
    S:\sf\mw\qtmobility\build\Release\declarative_contacts\moc\moc_qdeclarativecontactanniversary_p.cpp 0x00000000   Number         0  moc_qdeclarativecontactanniversary_p.o ABSOLUTE
    S:\sf\mw\qtmobility\build\Release\declarative_contacts\moc\moc_qdeclarativecontactavatar_p.cpp 0x00000000   Number         0  moc_qdeclarativecontactavatar_p.o ABSOLUTE
    S:\sf\mw\qtmobility\build\Release\declarative_contacts\moc\moc_qdeclarativecontactbirthday_p.cpp 0x00000000   Number         0  moc_qdeclarativecontactbirthday_p.o ABSOLUTE
    S:\sf\mw\qtmobility\build\Release\declarative_contacts\moc\moc_qdeclarativecontactchangelogfilter_p.cpp 0x00000000   Number         0  moc_qdeclarativecontactchangelogfilter_p.o ABSOLUTE
    S:\sf\mw\qtmobility\build\Release\declarative_contacts\moc\moc_qdeclarativecontactdetail_p.cpp 0x00000000   Number         0  moc_qdeclarativecontactdetail_p.o ABSOLUTE
    S:\sf\mw\qtmobility\build\Release\declarative_contacts\moc\moc_qdeclarativecontactdetailfilter_p.cpp 0x00000000   Number         0  moc_qdeclarativecontactdetailfilter_p.o ABSOLUTE
    S:\sf\mw\qtmobility\build\Release\declarative_contacts\moc\moc_qdeclarativecontactdetailrangefilter_p.cpp 0x00000000   Number         0  moc_qdeclarativecontactdetailrangefilter_p.o ABSOLUTE
    S:\sf\mw\qtmobility\build\Release\declarative_contacts\moc\moc_qdeclarativecontactdisplaylabel_p.cpp 0x00000000   Number         0  moc_qdeclarativecontactdisplaylabel_p.o ABSOLUTE
    S:\sf\mw\qtmobility\build\Release\declarative_contacts\moc\moc_qdeclarativecontactemailaddress_p.cpp 0x00000000   Number         0  moc_qdeclarativecontactemailaddress_p.o ABSOLUTE
    S:\sf\mw\qtmobility\build\Release\declarative_contacts\moc\moc_qdeclarativecontactfamily_p.cpp 0x00000000   Number         0  moc_qdeclarativecontactfamily_p.o ABSOLUTE
    S:\sf\mw\qtmobility\build\Release\declarative_contacts\moc\moc_qdeclarativecontactfavorite_p.cpp 0x00000000   Number         0  moc_qdeclarativecontactfavorite_p.o ABSOLUTE
    S:\sf\mw\qtmobility\build\Release\declarative_contacts\moc\moc_qdeclarativecontactfetchhint_p.cpp 0x00000000   Number         0  moc_qdeclarativecontactfetchhint_p.o ABSOLUTE
    S:\sf\mw\qtmobility\build\Release\declarative_contacts\moc\moc_qdeclarativecontactfilter_p.cpp 0x00000000   Number         0  moc_qdeclarativecontactfilter_p.o ABSOLUTE
    S:\sf\mw\qtmobility\build\Release\declarative_contacts\moc\moc_qdeclarativecontactgender_p.cpp 0x00000000   Number         0  moc_qdeclarativecontactgender_p.o ABSOLUTE
    S:\sf\mw\qtmobility\build\Release\declarative_contacts\moc\moc_qdeclarativecontactgeolocation_p.cpp 0x00000000   Number         0  moc_qdeclarativecontactgeolocation_p.o ABSOLUTE
    S:\sf\mw\qtmobility\build\Release\declarative_contacts\moc\moc_qdeclarativecontactglobalpresence_p.cpp 0x00000000   Number         0  moc_qdeclarativecontactglobalpresence_p.o ABSOLUTE
    S:\sf\mw\qtmobility\build\Release\declarative_contacts\moc\moc_qdeclarativecontactguid_p.cpp 0x00000000   Number         0  moc_qdeclarativecontactguid_p.o ABSOLUTE
    S:\sf\mw\qtmobility\build\Release\declarative_contacts\moc\moc_qdeclarativecontacthobby_p.cpp 0x00000000   Number         0  moc_qdeclarativecontacthobby_p.o ABSOLUTE
    S:\sf\mw\qtmobility\build\Release\declarative_contacts\moc\moc_qdeclarativecontactintersectionfilter_p.cpp 0x00000000   Number         0  moc_qdeclarativecontactintersectionfilter_p.o ABSOLUTE
    S:\sf\mw\qtmobility\build\Release\declarative_contacts\moc\moc_qdeclarativecontactinvalidfilter_p.cpp 0x00000000   Number         0  moc_qdeclarativecontactinvalidfilter_p.o ABSOLUTE
    S:\sf\mw\qtmobility\build\Release\declarative_contacts\moc\moc_qdeclarativecontactlocalidfilter_p.cpp 0x00000000   Number         0  moc_qdeclarativecontactlocalidfilter_p.o ABSOLUTE
    S:\sf\mw\qtmobility\build\Release\declarative_contacts\moc\moc_qdeclarativecontactmodel_p.cpp 0x00000000   Number         0  moc_qdeclarativecontactmodel_p.o ABSOLUTE
    S:\sf\mw\qtmobility\build\Release\declarative_contacts\moc\moc_qdeclarativecontactname_p.cpp 0x00000000   Number         0  moc_qdeclarativecontactname_p.o ABSOLUTE
    S:\sf\mw\qtmobility\build\Release\declarative_contacts\moc\moc_qdeclarativecontactnickname_p.cpp 0x00000000   Number         0  moc_qdeclarativecontactnickname_p.o ABSOLUTE
    S:\sf\mw\qtmobility\build\Release\declarative_contacts\moc\moc_qdeclarativecontactnote_p.cpp 0x00000000   Number         0  moc_qdeclarativecontactnote_p.o ABSOLUTE
    S:\sf\mw\qtmobility\build\Release\declarative_contacts\moc\moc_qdeclarativecontactonlineaccount_p.cpp 0x00000000   Number         0  moc_qdeclarativecontactonlineaccount_p.o ABSOLUTE
    S:\sf\mw\qtmobility\build\Release\declarative_contacts\moc\moc_qdeclarativecontactorganization_p.cpp 0x00000000   Number         0  moc_qdeclarativecontactorganization_p.o ABSOLUTE
    S:\sf\mw\qtmobility\build\Release\declarative_contacts\moc\moc_qdeclarativecontactphonenumber_p.cpp 0x00000000   Number         0  moc_qdeclarativecontactphonenumber_p.o ABSOLUTE
    S:\sf\mw\qtmobility\build\Release\declarative_contacts\moc\moc_qdeclarativecontactpresence_p.cpp 0x00000000   Number         0  moc_qdeclarativecontactpresence_p.o ABSOLUTE
    S:\sf\mw\qtmobility\build\Release\declarative_contacts\moc\moc_qdeclarativecontactrelationship_p.cpp 0x00000000   Number         0  moc_qdeclarativecontactrelationship_p.o ABSOLUTE
    S:\sf\mw\qtmobility\build\Release\declarative_contacts\moc\moc_qdeclarativecontactrelationshipfilter_p.cpp 0x00000000   Number         0  moc_qdeclarativecontactrelationshipfilter_p.o ABSOLUTE
    S:\sf\mw\qtmobility\build\Release\declarative_contacts\moc\moc_qdeclarativecontactrelationshipmodel_p.cpp 0x00000000   Number         0  moc_qdeclarativecontactrelationshipmodel_p.o ABSOLUTE
    S:\sf\mw\qtmobility\build\Release\declarative_contacts\moc\moc_qdeclarativecontactringtone_p.cpp 0x00000000   Number         0  moc_qdeclarativecontactringtone_p.o ABSOLUTE
    S:\sf\mw\qtmobility\build\Release\declarative_contacts\moc\moc_qdeclarativecontactsortorder_p.cpp 0x00000000   Number         0  moc_qdeclarativecontactsortorder_p.o ABSOLUTE
    S:\sf\mw\qtmobility\build\Release\declarative_contacts\moc\moc_qdeclarativecontactsynctarget_p.cpp 0x00000000   Number         0  moc_qdeclarativecontactsynctarget_p.o ABSOLUTE
    S:\sf\mw\qtmobility\build\Release\declarative_contacts\moc\moc_qdeclarativecontacttag_p.cpp 0x00000000   Number         0  moc_qdeclarativecontacttag_p.o ABSOLUTE
    S:\sf\mw\qtmobility\build\Release\declarative_contacts\moc\moc_qdeclarativecontacttimestamp_p.cpp 0x00000000   Number         0  moc_qdeclarativecontacttimestamp_p.o ABSOLUTE
    S:\sf\mw\qtmobility\build\Release\declarative_contacts\moc\moc_qdeclarativecontactunionfilter_p.cpp 0x00000000   Number         0  moc_qdeclarativecontactunionfilter_p.o ABSOLUTE
    S:\sf\mw\qtmobility\build\Release\declarative_contacts\moc\moc_qdeclarativecontacturl_p.cpp 0x00000000   Number         0  moc_qdeclarativecontacturl_p.o ABSOLUTE
    S:\sf\mw\qtmobility\build\Release\declarative_contacts\rcc\qrc_contacts.cpp 0x00000000   Number         0  qrc_contacts.o ABSOLUTE
    S:\sf\mw\qtmobility\plugins\declarative\contacts\plugin.cpp 0x00000000   Number         0  plugin.o ABSOLUTE
    S:\sf\mw\qtmobility\plugins\declarative\contacts\qdeclarativecontact.cpp 0x00000000   Number         0  qdeclarativecontact.o ABSOLUTE
    S:\sf\mw\qtmobility\plugins\declarative\contacts\qdeclarativecontactdetail.cpp 0x00000000   Number         0  qdeclarativecontactdetail.o ABSOLUTE
    S:\sf\mw\qtmobility\plugins\declarative\contacts\qdeclarativecontactfetchhint.cpp 0x00000000   Number         0  qdeclarativecontactfetchhint.o ABSOLUTE
    S:\sf\mw\qtmobility\plugins\declarative\contacts\qdeclarativecontactfilter.cpp 0x00000000   Number         0  qdeclarativecontactfilter.o ABSOLUTE
    S:\sf\mw\qtmobility\plugins\declarative\contacts\qdeclarativecontactimageprovider.cpp 0x00000000   Number         0  qdeclarativecontactimageprovider.o ABSOLUTE
    S:\sf\mw\qtmobility\plugins\declarative\contacts\qdeclarativecontactmetaobject.cpp 0x00000000   Number         0  qdeclarativecontactmetaobject.o ABSOLUTE
    S:\sf\mw\qtmobility\plugins\declarative\contacts\qdeclarativecontactmodel.cpp 0x00000000   Number         0  qdeclarativecontactmodel.o ABSOLUTE
    S:\sf\mw\qtmobility\plugins\declarative\contacts\qdeclarativecontactrelationship.cpp 0x00000000   Number         0  qdeclarativecontactrelationship.o ABSOLUTE
    S:\sf\mw\qtmobility\plugins\declarative\contacts\qdeclarativecontactrelationshipmodel.cpp 0x00000000   Number         0  qdeclarativecontactrelationshipmodel.o ABSOLUTE
    S:\sf\mw\qtmobility\plugins\declarative\contacts\qdeclarativecontactsortorder.cpp 0x00000000   Number         0  qdeclarativecontactsortorder.o ABSOLUTE
    S:\sf\mw\qtmobility\plugins\declarative\contacts\qdeclarativeopenmetaobject.cpp 0x00000000   Number         0  qdeclarativeopenmetaobject.o ABSOLUTE
    S:\sf\mw\qtmobility\plugins\declarative\contacts\qmetaobjectbuilder.cpp 0x00000000   Number         0  qmetaobjectbuilder.o ABSOLUTE
    .emb_text                                0x00008000   Section       40  uc_dll_.o(.emb_text)
    Symbian$$eit_base                        0x00008014   Data           4  uc_dll_.o(.emb_text)
    Symbian$$eit_limit                       0x00008018   Data           4  uc_dll_.o(.emb_text)
    Symbian$$code_seg_base                   0x0000801c   Data           4  uc_dll_.o(.emb_text)
    Symbian$$code_seg_limit                  0x00008020   Data           4  uc_dll_.o(.emb_text)
    Symbian$$reserved                        0x00008024   Data           4  uc_dll_.o(.emb_text)
    .emb_text                                0x00008028   Section       52  ucppinit.o(.emb_text)
    loop                                     0x0000803c   ARM Code       0  ucppinit.o(.emb_text)
    ret                                      0x00008044   ARM Code       0  ucppinit.o(.emb_text)
    base                                     0x00008054   Data           0  ucppinit.o(.emb_text)
    limit                                    0x00008058   Data           0  ucppinit.o(.emb_text)
    .text                                    0x00008ce4   Section      636  moc_qdeclarativecontactaddress_p.o(.text)
    .text                                    0x00008f60   Section      552  moc_qdeclarativecontactanniversary_p.o(.text)
    .text                                    0x00009188   Section      384  moc_qdeclarativecontactavatar_p.o(.text)
    .text                                    0x00009308   Section      360  moc_qdeclarativecontactbirthday_p.o(.text)
    .text                                    0x00009470   Section      372  moc_qdeclarativecontactdisplaylabel_p.o(.text)
    .text                                    0x000095e4   Section      336  moc_qdeclarativecontactemailaddress_p.o(.text)
    .text                                    0x00009734   Section      436  moc_qdeclarativecontactfamily_p.o(.text)
    .text                                    0x000098e8   Section      432  moc_qdeclarativecontactfavorite_p.o(.text)
    .text                                    0x00009a98   Section      260  moc_qdeclarativecontactgender_p.o(.text)
    qFuzzyCompare(double, double)            0x00009b9d   Thumb Code   102  moc_qdeclarativecontactgeolocation_p.o(.text)
    .text                                    0x00009b9c   Section     1324  moc_qdeclarativecontactgeolocation_p.o(.text)
    .text                                    0x0000a0c8   Section      588  moc_qdeclarativecontactglobalpresence_p.o(.text)
    .text                                    0x0000a314   Section      336  moc_qdeclarativecontactguid_p.o(.text)
    .text                                    0x0000a464   Section      532  moc_qdeclarativecontactname_p.o(.text)
    .text                                    0x0000a678   Section      336  moc_qdeclarativecontactnickname_p.o(.text)
    .text                                    0x0000a7c8   Section      336  moc_qdeclarativecontactnote_p.o(.text)
    .text                                    0x0000a918   Section      592  moc_qdeclarativecontactonlineaccount_p.o(.text)
    .text                                    0x0000ab68   Section      624  moc_qdeclarativecontactorganization_p.o(.text)
    .text                                    0x0000add8   Section      448  moc_qdeclarativecontactphonenumber_p.o(.text)
    .text                                    0x0000af98   Section      588  moc_qdeclarativecontactpresence_p.o(.text)
    .text                                    0x0000b1e4   Section      428  moc_qdeclarativecontactringtone_p.o(.text)
    .text                                    0x0000b390   Section      336  moc_qdeclarativecontactsynctarget_p.o(.text)
    .text                                    0x0000b4e0   Section      336  moc_qdeclarativecontacttag_p.o(.text)
    .text                                    0x0000b630   Section      384  moc_qdeclarativecontacttimestamp_p.o(.text)
    .text                                    0x0000b7b0   Section      532  moc_qdeclarativecontacturl_p.o(.text)
    .text                                    0x0000b9c4   Section      336  moc_qdeclarativecontacthobby_p.o(.text)
    .text                                    0x0000bb14   Section      388  moc_qdeclarativecontactactionfilter_p.o(.text)
    .text                                    0x0000bc98   Section      456  moc_qdeclarativecontactchangelogfilter_p.o(.text)
    .text                                    0x0000be60   Section      920  moc_qdeclarativecontactdetailfilter_p.o(.text)
    .text                                    0x0000c1f8   Section     1190  moc_qdeclarativecontactdetailrangefilter_p.o(.text)
    .text                                    0x0000c6a0   Section      388  moc_qdeclarativecontactlocalidfilter_p.o(.text)
    .text                                    0x0000c824   Section      116  moc_qdeclarativecontactinvalidfilter_p.o(.text)
    .text                                    0x0000c898   Section      296  moc_qdeclarativecontactintersectionfilter_p.o(.text)
    .text                                    0x0000c9c0   Section      568  moc_qdeclarativecontactrelationshipfilter_p.o(.text)
    .text                                    0x0000cbf8   Section      296  moc_qdeclarativecontactunionfilter_p.o(.text)
    .text                                    0x0000cd20   Section     1182  moc_qdeclarativecontactmodel_p.o(.text)
    .text                                    0x0000d1c0   Section      964  moc_qdeclarativecontact_p.o(.text)
    .text                                    0x0000d584   Section      612  moc_qdeclarativecontactdetail_p.o(.text)
    .text                                    0x0000d7e8   Section      156  moc_qdeclarativecontactfilter_p.o(.text)
    .text                                    0x0000d884   Section      560  moc_qdeclarativecontactsortorder_p.o(.text)
    .text                                    0x0000dab4   Section      504  moc_qdeclarativecontactfetchhint_p.o(.text)
    .text                                    0x0000dcac   Section      400  moc_qdeclarativecontactrelationship_p.o(.text)
    .text                                    0x0000de3c   Section      696  moc_qdeclarativecontactrelationshipmodel_p.o(.text)
    .text                                    0x0000e0f4   Section       88  qrc_contacts.o(.text)
    __sti___16_qrc_contacts_cpp              0x0000e11d   Thumb Code    24  qrc_contacts.o(.text)
    .text                                    0x0000e14c   Section      272  plugin.o(.text)
    urlToLocalFileName(const QUrl&)          0x0000e25d   Thumb Code   210  qdeclarativecontactmodel.o(.text)
    .text                                    0x0000e25c   Section     7448  qdeclarativecontactmodel.o(.text)
    |L1.788|                                 0x0000e570   Data           0  qdeclarativecontactmodel.o(.text)
    |L1.820|                                 0x0000e590   Data           0  qdeclarativecontactmodel.o(.text)
    |L1.860|                                 0x0000e5b8   Data           0  qdeclarativecontactmodel.o(.text)
    |L1.2804|                                0x0000ed50   Data           0  qdeclarativecontactmodel.o(.text)
    |L1.3976|                                0x0000f1e4   Data           0  qdeclarativecontactmodel.o(.text)
    .text                                    0x0000ff74   Section     2464  qdeclarativecontact.o(.text)
    .text                                    0x00010914   Section     2696  qdeclarativecontactdetail.o(.text)
    |L1.2216|                                0x000111bc   Data           0  qdeclarativecontactdetail.o(.text)
    .text                                    0x0001139c   Section      652  qdeclarativeopenmetaobject.o(.text)
    .text                                    0x00011628   Section    11494  qmetaobjectbuilder.o(.text)
    buildString(char*, char*, int*, const QByteArray&, int) 0x000116af   Thumb Code   116  qmetaobjectbuilder.o(.text)
    buildParameterNames(const QByteArray&, const QList<QByteArray>&) 0x00011723   Thumb Code   516  qmetaobjectbuilder.o(.text)
    buildMetaObject(QMetaObjectBuilderPrivate*, char*, bool) 0x00011927   Thumb Code  1980  qmetaobjectbuilder.o(.text)
    resolveClassName(const QMap<QByteArray, const QMetaObject*>&, const QByteArray&) 0x000120e3   Thumb Code   210  qmetaobjectbuilder.o(.text)
    .text                                    0x00014310   Section     4632  qdeclarativecontactmetaobject.o(.text)
    |L1.2184|                                0x00014b98   Data           0  qdeclarativecontactmetaobject.o(.text)
    |L1.2204|                                0x00014bac   Data           0  qdeclarativecontactmetaobject.o(.text)
    __sti___33_qdeclarativecontactmetaobject_cpp 0x0001537d   Thumb Code   304  qdeclarativecontactmetaobject.o(.text)
    .text                                    0x00015528   Section     1658  qdeclarativecontactimageprovider.o(.text)
    .text                                    0x00015ba4   Section      768  qdeclarativecontactsortorder.o(.text)
    .text                                    0x00015ea4   Section      628  qdeclarativecontactfetchhint.o(.text)
    .text                                    0x00016118   Section      752  qdeclarativecontactrelationship.o(.text)
    .text                                    0x00016408   Section     4300  qdeclarativecontactrelationshipmodel.o(.text)
    |L1.2240|                                0x00016cc8   Data           0  qdeclarativecontactrelationshipmodel.o(.text)
    .text                                    0x000174d4   Section       24  switch8.o(.text)
    .text                                    0x000174ec   Section       80  uc_dll.o(.text)
    .text                                    0x0001753c   Section      180  ucppfini.o(.text)
    .text                                    0x000175f0   Section        4  dllexp.o(.text)
    .text.clean                              0x000175f4   Section       68  moc_qdeclarativecontactaddress_p.o(.text.clean)
    .text.clean                              0x00017638   Section       36  moc_qdeclarativecontactanniversary_p.o(.text.clean)
    .text.clean                              0x0001765c   Section       18  moc_qdeclarativecontactavatar_p.o(.text.clean)
    .text.clean                              0x0001766e   Section       10  moc_qdeclarativecontactbirthday_p.o(.text.clean)
    .text.clean                              0x00017678   Section       10  moc_qdeclarativecontactdisplaylabel_p.o(.text.clean)
    .text.clean                              0x00017682   Section       10  moc_qdeclarativecontactemailaddress_p.o(.text.clean)
    .text.clean                              0x0001768c   Section       18  moc_qdeclarativecontactfamily_p.o(.text.clean)
    .text.clean                              0x0001769e   Section       20  moc_qdeclarativecontactfavorite_p.o(.text.clean)
    .text.clean                              0x000176b2   Section       88  moc_qdeclarativecontactgeolocation_p.o(.text.clean)
    .text.clean                              0x0001770a   Section       52  moc_qdeclarativecontactglobalpresence_p.o(.text.clean)
    .text.clean                              0x0001773e   Section       10  moc_qdeclarativecontactguid_p.o(.text.clean)
    .text.clean                              0x00017748   Section       50  moc_qdeclarativecontactname_p.o(.text.clean)
    .text.clean                              0x0001777a   Section       10  moc_qdeclarativecontactnickname_p.o(.text.clean)
    .text.clean                              0x00017784   Section       10  moc_qdeclarativecontactnote_p.o(.text.clean)
    .text.clean                              0x0001778e   Section       44  moc_qdeclarativecontactonlineaccount_p.o(.text.clean)
    .text.clean                              0x000177ba   Section       58  moc_qdeclarativecontactorganization_p.o(.text.clean)
    .text.clean                              0x000177f4   Section       28  moc_qdeclarativecontactphonenumber_p.o(.text.clean)
    .text.clean                              0x00017810   Section       52  moc_qdeclarativecontactpresence_p.o(.text.clean)
    .text.clean                              0x00017844   Section       26  moc_qdeclarativecontactringtone_p.o(.text.clean)
    .text.clean                              0x0001785e   Section       10  moc_qdeclarativecontactsynctarget_p.o(.text.clean)
    .text.clean                              0x00017868   Section       10  moc_qdeclarativecontacttag_p.o(.text.clean)
    .text.clean                              0x00017872   Section       18  moc_qdeclarativecontacttimestamp_p.o(.text.clean)
    .text.clean                              0x00017884   Section       52  moc_qdeclarativecontacturl_p.o(.text.clean)
    .text.clean                              0x000178b8   Section       10  moc_qdeclarativecontacthobby_p.o(.text.clean)
    .text.clean                              0x000178c2   Section       20  moc_qdeclarativecontactactionfilter_p.o(.text.clean)
    .text.clean                              0x000178d6   Section       20  moc_qdeclarativecontactchangelogfilter_p.o(.text.clean)
    .text.clean                              0x000178ea   Section       36  moc_qdeclarativecontactdetailfilter_p.o(.text.clean)
    .text.clean                              0x0001790e   Section       70  moc_qdeclarativecontactdetailrangefilter_p.o(.text.clean)
    .text.clean                              0x00017954   Section       10  moc_qdeclarativecontactlocalidfilter_p.o(.text.clean)
    .text.clean                              0x0001795e   Section       38  moc_qdeclarativecontactrelationshipfilter_p.o(.text.clean)
    .text.clean                              0x00017984   Section       42  moc_qdeclarativecontactmodel_p.o(.text.clean)
    .text.clean                              0x000179ae   Section       26  moc_qdeclarativecontact_p.o(.text.clean)
    .text.clean                              0x000179c8   Section       50  moc_qdeclarativecontactdetail_p.o(.text.clean)
    .text.clean                              0x000179fa   Section       18  moc_qdeclarativecontactsortorder_p.o(.text.clean)
    .text.clean                              0x00017a0c   Section       18  moc_qdeclarativecontactfetchhint_p.o(.text.clean)
    .text.clean                              0x00017a1e   Section       10  moc_qdeclarativecontactrelationship_p.o(.text.clean)
    .text.clean                              0x00017a28   Section       26  moc_qdeclarativecontactrelationshipmodel_p.o(.text.clean)
    .text.clean                              0x00017a42   Section        4  qrc_contacts.o(.text.clean)
    .text.clean                              0x00017a48   Section       28  plugin.o(.text.clean)
    .text.clean                              0x00017a64   Section      740  qdeclarativecontactmodel.o(.text.clean)
    .text.clean                              0x00017d48   Section      466  qdeclarativecontact.o(.text.clean)
    .text.clean                              0x00017f1a   Section      222  qdeclarativecontactdetail.o(.text.clean)
    .text.clean                              0x00017ff8   Section       56  qdeclarativeopenmetaobject.o(.text.clean)
    .text.clean                              0x00018030   Section      456  qmetaobjectbuilder.o(.text.clean)
    .text.clean                              0x000181f8   Section      704  qdeclarativecontactmetaobject.o(.text.clean)
    .text.clean                              0x000184b8   Section      272  qdeclarativecontactimageprovider.o(.text.clean)
    .text.clean                              0x000185c8   Section      148  qdeclarativecontactsortorder.o(.text.clean)
    .text.clean                              0x0001865c   Section       54  qdeclarativecontactfetchhint.o(.text.clean)
    .text.clean                              0x00018692   Section      158  qdeclarativecontactrelationship.o(.text.clean)
    .text.clean                              0x00018730   Section      438  qdeclarativecontactrelationshipmodel.o(.text.clean)
    i._Z20qvariant_cast_helperRK8QVariantNS_4TypeEPv 0x000188e8   Section       32  moc_qdeclarativecontactaddress_p.o(i._Z20qvariant_cast_helperRK8QVariantNS_4TypeEPv)
    i._ZN10QByteArrayC1ERKS_                 0x00018908   Section       20  plugin.o(i._ZN10QByteArrayC1ERKS_)
    i._ZN10QByteArrayC1Ev                    0x0001891c   Section       24  qmetaobjectbuilder.o(i._ZN10QByteArrayC1Ev)
    i._ZN10QByteArrayD1Ev                    0x00018934   Section       24  moc_qdeclarativecontactaddress_p.o(i._ZN10QByteArrayD1Ev)
    i._ZN10QtMobility11QContactTagD1Ev       0x0001894c   Section       14  plugin.o(i._ZN10QtMobility11QContactTagD1Ev)
    i._ZN10QtMobility11QContactUrlD1Ev       0x0001895a   Section       14  plugin.o(i._ZN10QtMobility11QContactUrlD1Ev)
    i._ZN10QtMobility12QContactGuidD1Ev      0x00018968   Section       14  plugin.o(i._ZN10QtMobility12QContactGuidD1Ev)
    i._ZN10QtMobility12QContactNameD1Ev      0x00018976   Section       14  plugin.o(i._ZN10QtMobility12QContactNameD1Ev)
    i._ZN10QtMobility12QContactNoteD1Ev      0x00018984   Section       14  plugin.o(i._ZN10QtMobility12QContactNoteD1Ev)
    i._ZN10QtMobility13QContactHobbyD1Ev     0x00018992   Section       14  plugin.o(i._ZN10QtMobility13QContactHobbyD1Ev)
    i._ZN10QtMobility14QContactAvatarD1Ev    0x000189a0   Section       14  plugin.o(i._ZN10QtMobility14QContactAvatarD1Ev)
    i._ZN10QtMobility14QContactFamilyD1Ev    0x000189ae   Section       14  plugin.o(i._ZN10QtMobility14QContactFamilyD1Ev)
    i._ZN10QtMobility14QContactGenderD1Ev    0x000189bc   Section       14  plugin.o(i._ZN10QtMobility14QContactGenderD1Ev)
    i._ZN10QtMobility15QContactAddressD1Ev   0x000189ca   Section       14  plugin.o(i._ZN10QtMobility15QContactAddressD1Ev)
    i._ZN10QtMobility16QContactBirthdayD1Ev  0x000189d8   Section       14  plugin.o(i._ZN10QtMobility16QContactBirthdayD1Ev)
    i._ZN10QtMobility16QContactFavoriteD1Ev  0x000189e6   Section       14  plugin.o(i._ZN10QtMobility16QContactFavoriteD1Ev)
    i._ZN10QtMobility16QContactNicknameD1Ev  0x000189f4   Section       14  plugin.o(i._ZN10QtMobility16QContactNicknameD1Ev)
    i._ZN10QtMobility16QContactPresenceD1Ev  0x00018a02   Section       14  plugin.o(i._ZN10QtMobility16QContactPresenceD1Ev)
    i._ZN10QtMobility16QContactRingtoneD1Ev  0x00018a10   Section       14  plugin.o(i._ZN10QtMobility16QContactRingtoneD1Ev)
    i._ZN10QtMobility17QContactThumbnailD1Ev 0x00018a1e   Section       14  qdeclarativecontactmodel.o(i._ZN10QtMobility17QContactThumbnailD1Ev)
    i._ZN10QtMobility17QContactTimestampD1Ev 0x00018a2c   Section       14  plugin.o(i._ZN10QtMobility17QContactTimestampD1Ev)
    i._ZN10QtMobility18QContactSyncTargetD1Ev 0x00018a3a   Section       14  plugin.o(i._ZN10QtMobility18QContactSyncTargetD1Ev)
    i._ZN10QtMobility19QContactAnniversaryD1Ev 0x00018a48   Section       14  plugin.o(i._ZN10QtMobility19QContactAnniversaryD1Ev)
    i._ZN10QtMobility19QContactGeoLocationD1Ev 0x00018a56   Section       14  plugin.o(i._ZN10QtMobility19QContactGeoLocationD1Ev)
    i._ZN10QtMobility19QContactPhoneNumberD1Ev 0x00018a64   Section       14  plugin.o(i._ZN10QtMobility19QContactPhoneNumberD1Ev)
    i._ZN10QtMobility19QContactUnionFilterD1Ev 0x00018a72   Section       14  moc_qdeclarativecontactunionfilter_p.o(i._ZN10QtMobility19QContactUnionFilterD1Ev)
    i._ZN10QtMobility20QContactActionFilterD1Ev 0x00018a80   Section       14  plugin.o(i._ZN10QtMobility20QContactActionFilterD1Ev)
    i._ZN10QtMobility20QContactDetailFilterD1Ev 0x00018a8e   Section       14  plugin.o(i._ZN10QtMobility20QContactDetailFilterD1Ev)
    i._ZN10QtMobility20QContactDisplayLabelD1Ev 0x00018a9c   Section       14  plugin.o(i._ZN10QtMobility20QContactDisplayLabelD1Ev)
    i._ZN10QtMobility20QContactEmailAddressD1Ev 0x00018aaa   Section       14  plugin.o(i._ZN10QtMobility20QContactEmailAddressD1Ev)
    i._ZN10QtMobility20QContactOrganizationD1Ev 0x00018ab8   Section       14  plugin.o(i._ZN10QtMobility20QContactOrganizationD1Ev)
    i._ZN10QtMobility21QContactInvalidFilterD1Ev 0x00018ac6   Section       14  moc_qdeclarativecontactinvalidfilter_p.o(i._ZN10QtMobility21QContactInvalidFilterD1Ev)
    i._ZN10QtMobility21QContactLocalIdFilterD1Ev 0x00018ad4   Section       14  plugin.o(i._ZN10QtMobility21QContactLocalIdFilterD1Ev)
    i._ZN10QtMobility21QContactOnlineAccountD1Ev 0x00018ae2   Section       14  plugin.o(i._ZN10QtMobility21QContactOnlineAccountD1Ev)
    i._ZN10QtMobility22QContactGlobalPresenceD1Ev 0x00018af0   Section       14  plugin.o(i._ZN10QtMobility22QContactGlobalPresenceD1Ev)
    i._ZN10QtMobility23QContactChangeLogFilterD1Ev 0x00018afe   Section       14  plugin.o(i._ZN10QtMobility23QContactChangeLogFilterD1Ev)
    i._ZN10QtMobility25QContactDetailRangeFilterD1Ev 0x00018b0c   Section       14  plugin.o(i._ZN10QtMobility25QContactDetailRangeFilterD1Ev)
    i._ZN10QtMobility26QContactIntersectionFilterD1Ev 0x00018b1a   Section       14  moc_qdeclarativecontactintersectionfilter_p.o(i._ZN10QtMobility26QContactIntersectionFilterD1Ev)
    i._ZN10QtMobility26QContactRelationshipFilterD1Ev 0x00018b28   Section       14  plugin.o(i._ZN10QtMobility26QContactRelationshipFilterD1Ev)
    i._ZN11QMetaObject12invokeMethodEP7QObjectPKcN2Qt14ConnectionTypeE16QGenericArgumentS6_S6_S6_S6_S6_S6_S6_S6_S6_ 0x00018b36   Section      130  qdeclarativecontactmodel.o(i._ZN11QMetaObject12invokeMethodEP7QObjectPKcN2Qt14ConnectionTypeE16QGenericArgumentS6_S6_S6_S6_S6_S6_S6_S6_S6_)
    i._ZN11QModelIndexC1Ev                   0x00018bb8   Section       16  qdeclarativecontactmodel.o(i._ZN11QModelIndexC1Ev)
    i._ZN11QModelIndexD1Ev                   0x00018bc8   Section        8  qdeclarativecontactmodel.o(i._ZN11QModelIndexD1Ev)
    i._ZN11QStringListC1ERKS_                0x00018bd0   Section       18  qdeclarativecontactdetail.o(i._ZN11QStringListC1ERKS_)
    i._ZN11QStringListC1Ev                   0x00018be2   Section       14  qdeclarativecontactdetail.o(i._ZN11QStringListC1Ev)
    i._ZN11QStringListD1Ev                   0x00018bf0   Section       14  moc_qdeclarativecontactaddress_p.o(i._ZN11QStringListD1Ev)
    i._ZN11QStringListaSERKS_                0x00018bfe   Section       66  moc_qdeclarativecontactdetail_p.o(i._ZN11QStringListaSERKS_)
    i._ZN15QBasicAtomicInt3refEv             0x00018c40   Section       24  moc_qdeclarativecontactaddress_p.o(i._ZN15QBasicAtomicInt3refEv)
    i._ZN15QBasicAtomicInt5derefEv           0x00018c58   Section       24  moc_qdeclarativecontactaddress_p.o(i._ZN15QBasicAtomicInt5derefEv)
    i._ZN16QDeclarativeInfolsERK7QString     0x00018c70   Section       66  qdeclarativecontactrelationshipmodel.o(i._ZN16QDeclarativeInfolsERK7QString)
    i._ZN16QDeclarativeInfolsERK7QString.clean 0x00018cb2   Section       20  qdeclarativecontactrelationshipmodel.o(i._ZN16QDeclarativeInfolsERK7QString.clean)
    i._ZN17QContactQmlPlugin13registerTypesEPKc 0x00018cc8   Section     1008  plugin.o(i._ZN17QContactQmlPlugin13registerTypesEPKc)
    i._ZN17QContactQmlPlugin16initializeEngineEP18QDeclarativeEnginePKc 0x000190b8   Section       80  plugin.o(i._ZN17QContactQmlPlugin16initializeEngineEP18QDeclarativeEnginePKc)
    i._ZN17QContactQmlPlugin16initializeEngineEP18QDeclarativeEnginePKc.clean 0x00019108   Section       22  plugin.o(i._ZN17QContactQmlPlugin16initializeEngineEP18QDeclarativeEnginePKc.clean)
    i._ZN17QContactQmlPluginD0Ev             0x0001911e   Section       24  plugin.o(i._ZN17QContactQmlPluginD0Ev)
    i._ZN17QContactQmlPluginD1Ev             0x00019136   Section       14  plugin.o(i._ZN17QContactQmlPluginD1Ev)
    i._ZN17QForeachContainerI11QStringListED1Ev 0x00019144   Section       14  moc_qdeclarativecontactlocalidfilter_p.o(i._ZN17QForeachContainerI11QStringListED1Ev)
    i._ZN17QForeachContainerI5QListI10QByteArrayEED1Ev 0x00019152   Section       14  qmetaobjectbuilder.o(i._ZN17QForeachContainerI5QListI10QByteArrayEED1Ev)
    i._ZN17QForeachContainerI5QListI7QStringEED1Ev 0x00019160   Section       14  qdeclarativecontactimageprovider.o(i._ZN17QForeachContainerI5QListI7QStringEED1Ev)
    i._ZN17QForeachContainerI5QListI8QVariantEED1Ev 0x0001916e   Section       14  moc_qdeclarativecontactaddress_p.o(i._ZN17QForeachContainerI5QListI8QVariantEED1Ev)
    i._ZN17QForeachContainerI5QListIN10QtMobility14QContactDetailEEED1Ev 0x0001917c   Section       14  qdeclarativecontactmetaobject.o(i._ZN17QForeachContainerI5QListIN10QtMobility14QContactDetailEEED1Ev)
    i._ZN17QForeachContainerI5QListIN10QtMobility20QContactRelationshipEEED1Ev 0x0001918a   Section       14  qdeclarativecontactrelationshipmodel.o(i._ZN17QForeachContainerI5QListIN10QtMobility20QContactRelationshipEEED1Ev)
    i._ZN17QForeachContainerI5QListIN10QtMobility8QContactEEED1Ev 0x00019198   Section       14  qdeclarativecontactmodel.o(i._ZN17QForeachContainerI5QListIN10QtMobility8QContactEEED1Ev)
    i._ZN17QForeachContainerI5QListIP19QDeclarativeContactEED1Ev 0x000191a6   Section       14  qdeclarativecontactmodel.o(i._ZN17QForeachContainerI5QListIP19QDeclarativeContactEED1Ev)
    i._ZN17QForeachContainerI5QListIP25QDeclarativeContactDetailEED1Ev 0x000191b4   Section       14  qdeclarativecontactmetaobject.o(i._ZN17QForeachContainerI5QListIP25QDeclarativeContactDetailEED1Ev)
    i._ZN17QForeachContainerI5QListIP25QDeclarativeContactFilterEED1Ev 0x000191c2   Section       14  moc_qdeclarativecontactintersectionfilter_p.o(i._ZN17QForeachContainerI5QListIP25QDeclarativeContactFilterEED1Ev)
    i._ZN17QForeachContainerI5QListIP28QDeclarativeContactSortOrderEED1Ev 0x000191d0   Section       14  qdeclarativecontactmodel.o(i._ZN17QForeachContainerI5QListIP28QDeclarativeContactSortOrderEED1Ev)
    i._ZN17QForeachContainerI5QListIP31QDeclarativeContactRelationshipEED1Ev 0x000191de   Section       14  qdeclarativecontactrelationshipmodel.o(i._ZN17QForeachContainerI5QListIP31QDeclarativeContactRelationshipEED1Ev)
    i._ZN17QForeachContainerI5QListIjEED1Ev  0x000191ec   Section       14  moc_qdeclarativecontactlocalidfilter_p.o(i._ZN17QForeachContainerI5QListIjEED1Ev)
    i._ZN19QDeclarativePrivate12RegisterTypeD1Ev 0x000191fa   Section       20  plugin.o(i._ZN19QDeclarativePrivate12RegisterTypeD1Ev)
    i._ZN19QDeclarativePrivate19QDeclarativeElementI19QDeclarativeContactED0Ev 0x0001920e   Section       22  plugin.o(i._ZN19QDeclarativePrivate19QDeclarativeElementI19QDeclarativeContactED0Ev)
    i._ZN19QDeclarativePrivate19QDeclarativeElementI22QDeclarativeContactTagED0Ev 0x00019224   Section       22  plugin.o(i._ZN19QDeclarativePrivate19QDeclarativeElementI22QDeclarativeContactTagED0Ev)
    i._ZN19QDeclarativePrivate19QDeclarativeElementI22QDeclarativeContactUrlED0Ev 0x0001923a   Section       22  plugin.o(i._ZN19QDeclarativePrivate19QDeclarativeElementI22QDeclarativeContactUrlED0Ev)
    i._ZN19QDeclarativePrivate19QDeclarativeElementI23QDeclarativeContactGuidED0Ev 0x00019250   Section       22  plugin.o(i._ZN19QDeclarativePrivate19QDeclarativeElementI23QDeclarativeContactGuidED0Ev)
    i._ZN19QDeclarativePrivate19QDeclarativeElementI23QDeclarativeContactNameED0Ev 0x00019266   Section       22  plugin.o(i._ZN19QDeclarativePrivate19QDeclarativeElementI23QDeclarativeContactNameED0Ev)
    i._ZN19QDeclarativePrivate19QDeclarativeElementI23QDeclarativeContactNoteED0Ev 0x0001927c   Section       22  plugin.o(i._ZN19QDeclarativePrivate19QDeclarativeElementI23QDeclarativeContactNoteED0Ev)
    i._ZN19QDeclarativePrivate19QDeclarativeElementI24QDeclarativeContactHobbyED0Ev 0x00019292   Section       22  plugin.o(i._ZN19QDeclarativePrivate19QDeclarativeElementI24QDeclarativeContactHobbyED0Ev)
    i._ZN19QDeclarativePrivate19QDeclarativeElementI24QDeclarativeContactModelED0Ev 0x000192a8   Section       22  plugin.o(i._ZN19QDeclarativePrivate19QDeclarativeElementI24QDeclarativeContactModelED0Ev)
    i._ZN19QDeclarativePrivate19QDeclarativeElementI25QDeclarativeContactAvatarED0Ev 0x000192be   Section       22  plugin.o(i._ZN19QDeclarativePrivate19QDeclarativeElementI25QDeclarativeContactAvatarED0Ev)
    i._ZN19QDeclarativePrivate19QDeclarativeElementI25QDeclarativeContactDetailED0Ev 0x000192d4   Section       22  plugin.o(i._ZN19QDeclarativePrivate19QDeclarativeElementI25QDeclarativeContactDetailED0Ev)
    i._ZN19QDeclarativePrivate19QDeclarativeElementI25QDeclarativeContactFamilyED0Ev 0x000192ea   Section       22  plugin.o(i._ZN19QDeclarativePrivate19QDeclarativeElementI25QDeclarativeContactFamilyED0Ev)
    i._ZN19QDeclarativePrivate19QDeclarativeElementI25QDeclarativeContactFilterED0Ev 0x00019300   Section       22  plugin.o(i._ZN19QDeclarativePrivate19QDeclarativeElementI25QDeclarativeContactFilterED0Ev)
    i._ZN19QDeclarativePrivate19QDeclarativeElementI25QDeclarativeContactGenderED0Ev 0x00019316   Section       22  plugin.o(i._ZN19QDeclarativePrivate19QDeclarativeElementI25QDeclarativeContactGenderED0Ev)
    i._ZN19QDeclarativePrivate19QDeclarativeElementI26QDeclarativeContactAddressED0Ev 0x0001932c   Section       22  plugin.o(i._ZN19QDeclarativePrivate19QDeclarativeElementI26QDeclarativeContactAddressED0Ev)
    i._ZN19QDeclarativePrivate19QDeclarativeElementI27QDeclarativeContactBirthdayED0Ev 0x00019342   Section       22  plugin.o(i._ZN19QDeclarativePrivate19QDeclarativeElementI27QDeclarativeContactBirthdayED0Ev)
    i._ZN19QDeclarativePrivate19QDeclarativeElementI27QDeclarativeContactFavoriteED0Ev 0x00019358   Section       22  plugin.o(i._ZN19QDeclarativePrivate19QDeclarativeElementI27QDeclarativeContactFavoriteED0Ev)
    i._ZN19QDeclarativePrivate19QDeclarativeElementI27QDeclarativeContactNicknameED0Ev 0x0001936e   Section       22  plugin.o(i._ZN19QDeclarativePrivate19QDeclarativeElementI27QDeclarativeContactNicknameED0Ev)
    i._ZN19QDeclarativePrivate19QDeclarativeElementI27QDeclarativeContactPresenceED0Ev 0x00019384   Section       22  plugin.o(i._ZN19QDeclarativePrivate19QDeclarativeElementI27QDeclarativeContactPresenceED0Ev)
    i._ZN19QDeclarativePrivate19QDeclarativeElementI27QDeclarativeContactRingtoneED0Ev 0x0001939a   Section       22  plugin.o(i._ZN19QDeclarativePrivate19QDeclarativeElementI27QDeclarativeContactRingtoneED0Ev)
    i._ZN19QDeclarativePrivate19QDeclarativeElementI28QDeclarativeContactFetchHintED0Ev 0x000193b0   Section       22  plugin.o(i._ZN19QDeclarativePrivate19QDeclarativeElementI28QDeclarativeContactFetchHintED0Ev)
    i._ZN19QDeclarativePrivate19QDeclarativeElementI28QDeclarativeContactSortOrderED0Ev 0x000193c6   Section       22  plugin.o(i._ZN19QDeclarativePrivate19QDeclarativeElementI28QDeclarativeContactSortOrderED0Ev)
    i._ZN19QDeclarativePrivate19QDeclarativeElementI28QDeclarativeContactTimestampED0Ev 0x000193dc   Section       22  plugin.o(i._ZN19QDeclarativePrivate19QDeclarativeElementI28QDeclarativeContactTimestampED0Ev)
    i._ZN19QDeclarativePrivate19QDeclarativeElementI29QDeclarativeContactSyncTargetED0Ev 0x000193f2   Section       22  plugin.o(i._ZN19QDeclarativePrivate19QDeclarativeElementI29QDeclarativeContactSyncTargetED0Ev)
    i._ZN19QDeclarativePrivate19QDeclarativeElementI30QDeclarativeContactAnniversaryED0Ev 0x00019408   Section       22  plugin.o(i._ZN19QDeclarativePrivate19QDeclarativeElementI30QDeclarativeContactAnniversaryED0Ev)
    i._ZN19QDeclarativePrivate19QDeclarativeElementI30QDeclarativeContactGeoLocationED0Ev 0x0001941e   Section       22  plugin.o(i._ZN19QDeclarativePrivate19QDeclarativeElementI30QDeclarativeContactGeoLocationED0Ev)
    i._ZN19QDeclarativePrivate19QDeclarativeElementI30QDeclarativeContactPhoneNumberED0Ev 0x00019434   Section       22  plugin.o(i._ZN19QDeclarativePrivate19QDeclarativeElementI30QDeclarativeContactPhoneNumberED0Ev)
    i._ZN19QDeclarativePrivate19QDeclarativeElementI30QDeclarativeContactUnionFilterED0Ev 0x0001944a   Section       22  plugin.o(i._ZN19QDeclarativePrivate19QDeclarativeElementI30QDeclarativeContactUnionFilterED0Ev)
    i._ZN19QDeclarativePrivate19QDeclarativeElementI31QDeclarativeContactActionFilterED0Ev 0x00019460   Section       22  plugin.o(i._ZN19QDeclarativePrivate19QDeclarativeElementI31QDeclarativeContactActionFilterED0Ev)
    i._ZN19QDeclarativePrivate19QDeclarativeElementI31QDeclarativeContactDetailFilterED0Ev 0x00019476   Section       22  plugin.o(i._ZN19QDeclarativePrivate19QDeclarativeElementI31QDeclarativeContactDetailFilterED0Ev)
    i._ZN19QDeclarativePrivate19QDeclarativeElementI31QDeclarativeContactDisplayLabelED0Ev 0x0001948c   Section       22  plugin.o(i._ZN19QDeclarativePrivate19QDeclarativeElementI31QDeclarativeContactDisplayLabelED0Ev)
    i._ZN19QDeclarativePrivate19QDeclarativeElementI31QDeclarativeContactEmailAddressED0Ev 0x000194a2   Section       22  plugin.o(i._ZN19QDeclarativePrivate19QDeclarativeElementI31QDeclarativeContactEmailAddressED0Ev)
    i._ZN19QDeclarativePrivate19QDeclarativeElementI31QDeclarativeContactOrganizationED0Ev 0x000194b8   Section       22  plugin.o(i._ZN19QDeclarativePrivate19QDeclarativeElementI31QDeclarativeContactOrganizationED0Ev)
    i._ZN19QDeclarativePrivate19QDeclarativeElementI31QDeclarativeContactRelationshipED0Ev 0x000194ce   Section       22  plugin.o(i._ZN19QDeclarativePrivate19QDeclarativeElementI31QDeclarativeContactRelationshipED0Ev)
    i._ZN19QDeclarativePrivate19QDeclarativeElementI32QDeclarativeContactLocalIdFilterED0Ev 0x000194e4   Section       22  plugin.o(i._ZN19QDeclarativePrivate19QDeclarativeElementI32QDeclarativeContactLocalIdFilterED0Ev)
    i._ZN19QDeclarativePrivate19QDeclarativeElementI32QDeclarativeContactOnlineAccountED0Ev 0x000194fa   Section       22  plugin.o(i._ZN19QDeclarativePrivate19QDeclarativeElementI32QDeclarativeContactOnlineAccountED0Ev)
    i._ZN19QDeclarativePrivate19QDeclarativeElementI33QDeclarativeContactGlobalPresenceED0Ev 0x00019510   Section       22  plugin.o(i._ZN19QDeclarativePrivate19QDeclarativeElementI33QDeclarativeContactGlobalPresenceED0Ev)
    i._ZN19QDeclarativePrivate19QDeclarativeElementI34QDeclarativeContactChangeLogFilterED0Ev 0x00019526   Section       22  plugin.o(i._ZN19QDeclarativePrivate19QDeclarativeElementI34QDeclarativeContactChangeLogFilterED0Ev)
    i._ZN19QDeclarativePrivate19QDeclarativeElementI36QDeclarativeContactDetailRangeFilterED0Ev 0x0001953c   Section       22  plugin.o(i._ZN19QDeclarativePrivate19QDeclarativeElementI36QDeclarativeContactDetailRangeFilterED0Ev)
    i._ZN19QDeclarativePrivate19QDeclarativeElementI37QDeclarativeContactIntersectionFilterED0Ev 0x00019552   Section       22  plugin.o(i._ZN19QDeclarativePrivate19QDeclarativeElementI37QDeclarativeContactIntersectionFilterED0Ev)
    i._ZN19QDeclarativePrivate19QDeclarativeElementI37QDeclarativeContactRelationshipFilterED0Ev 0x00019568   Section       22  plugin.o(i._ZN19QDeclarativePrivate19QDeclarativeElementI37QDeclarativeContactRelationshipFilterED0Ev)
    i._ZN22QDeclarativeContactTag6setTagERK7QString 0x00019580   Section      124  moc_qdeclarativecontacttag_p.o(i._ZN22QDeclarativeContactTag6setTagERK7QString)
    i._ZN22QDeclarativeContactTag6setTagERK7QString.clean 0x000195fc   Section       22  moc_qdeclarativecontacttag_p.o(i._ZN22QDeclarativeContactTag6setTagERK7QString.clean)
    i._ZN22QDeclarativeContactTagC1EP7QObject 0x00019614   Section      124  plugin.o(i._ZN22QDeclarativeContactTagC1EP7QObject)
    i._ZN22QDeclarativeContactTagC1EP7QObject.clean 0x00019690   Section       16  plugin.o(i._ZN22QDeclarativeContactTagC1EP7QObject.clean)
    i._ZN22QDeclarativeContactTagD0Ev        0x000196a0   Section       24  moc_qdeclarativecontacttag_p.o(i._ZN22QDeclarativeContactTagD0Ev)
    i._ZN22QDeclarativeContactTagD1Ev        0x000196b8   Section       14  moc_qdeclarativecontacttag_p.o(i._ZN22QDeclarativeContactTagD1Ev)
    i._ZN22QDeclarativeContactUrl10setSubTypeERK8QVariant 0x000196c8   Section      324  moc_qdeclarativecontacturl_p.o(i._ZN22QDeclarativeContactUrl10setSubTypeERK8QVariant)
    i._ZN22QDeclarativeContactUrl10setSubTypeERK8QVariant.clean 0x0001980c   Section       32  moc_qdeclarativecontacturl_p.o(i._ZN22QDeclarativeContactUrl10setSubTypeERK8QVariant.clean)
    i._ZN22QDeclarativeContactUrl22fieldNameFromFieldTypeEi 0x0001982c   Section      128  qdeclarativecontactdetail.o(i._ZN22QDeclarativeContactUrl22fieldNameFromFieldTypeEi)
    i._ZN22QDeclarativeContactUrl22fieldNameFromFieldTypeEi.clean 0x000198ac   Section       16  qdeclarativecontactdetail.o(i._ZN22QDeclarativeContactUrl22fieldNameFromFieldTypeEi.clean)
    i._ZN22QDeclarativeContactUrlC1EP7QObject 0x000198bc   Section      124  plugin.o(i._ZN22QDeclarativeContactUrlC1EP7QObject)
    i._ZN22QDeclarativeContactUrlC1EP7QObject.clean 0x00019938   Section       16  plugin.o(i._ZN22QDeclarativeContactUrlC1EP7QObject.clean)
    i._ZN22QDeclarativeContactUrlD0Ev        0x00019948   Section       24  moc_qdeclarativecontacturl_p.o(i._ZN22QDeclarativeContactUrlD0Ev)
    i._ZN22QDeclarativeContactUrlD1Ev        0x00019960   Section       14  moc_qdeclarativecontacturl_p.o(i._ZN22QDeclarativeContactUrlD1Ev)
    i._ZN23QDeclarativeContactGuid7setGuidERK7QString 0x00019970   Section      124  moc_qdeclarativecontactguid_p.o(i._ZN23QDeclarativeContactGuid7setGuidERK7QString)
    i._ZN23QDeclarativeContactGuid7setGuidERK7QString.clean 0x000199ec   Section       22  moc_qdeclarativecontactguid_p.o(i._ZN23QDeclarativeContactGuid7setGuidERK7QString.clean)
    i._ZN23QDeclarativeContactGuidC1EP7QObject 0x00019a04   Section      124  plugin.o(i._ZN23QDeclarativeContactGuidC1EP7QObject)
    i._ZN23QDeclarativeContactGuidC1EP7QObject.clean 0x00019a80   Section       16  plugin.o(i._ZN23QDeclarativeContactGuidC1EP7QObject.clean)
    i._ZN23QDeclarativeContactGuidD0Ev       0x00019a90   Section       24  moc_qdeclarativecontactguid_p.o(i._ZN23QDeclarativeContactGuidD0Ev)
    i._ZN23QDeclarativeContactGuidD1Ev       0x00019aa8   Section       14  moc_qdeclarativecontactguid_p.o(i._ZN23QDeclarativeContactGuidD1Ev)
    i._ZN23QDeclarativeContactName11setLastNameERK7QString 0x00019ab8   Section      120  moc_qdeclarativecontactname_p.o(i._ZN23QDeclarativeContactName11setLastNameERK7QString)
    i._ZN23QDeclarativeContactName11setLastNameERK7QString.clean 0x00019b30   Section       22  moc_qdeclarativecontactname_p.o(i._ZN23QDeclarativeContactName11setLastNameERK7QString.clean)
    i._ZN23QDeclarativeContactName12setFirstNameERK7QString 0x00019b48   Section      120  moc_qdeclarativecontactname_p.o(i._ZN23QDeclarativeContactName12setFirstNameERK7QString)
    i._ZN23QDeclarativeContactName12setFirstNameERK7QString.clean 0x00019bc0   Section       22  moc_qdeclarativecontactname_p.o(i._ZN23QDeclarativeContactName12setFirstNameERK7QString.clean)
    i._ZN23QDeclarativeContactName13setMiddleNameERK7QString 0x00019bd8   Section      120  moc_qdeclarativecontactname_p.o(i._ZN23QDeclarativeContactName13setMiddleNameERK7QString)
    i._ZN23QDeclarativeContactName13setMiddleNameERK7QString.clean 0x00019c50   Section       22  moc_qdeclarativecontactname_p.o(i._ZN23QDeclarativeContactName13setMiddleNameERK7QString.clean)
    i._ZN23QDeclarativeContactName14setCustomLabelERK7QString 0x00019c68   Section      120  moc_qdeclarativecontactname_p.o(i._ZN23QDeclarativeContactName14setCustomLabelERK7QString)
    i._ZN23QDeclarativeContactName14setCustomLabelERK7QString.clean 0x00019ce0   Section       22  moc_qdeclarativecontactname_p.o(i._ZN23QDeclarativeContactName14setCustomLabelERK7QString.clean)
    i._ZN23QDeclarativeContactName22fieldNameFromFieldTypeEi 0x00019cf8   Section      188  qdeclarativecontactdetail.o(i._ZN23QDeclarativeContactName22fieldNameFromFieldTypeEi)
    i._ZN23QDeclarativeContactName22fieldNameFromFieldTypeEi.clean 0x00019db4   Section       16  qdeclarativecontactdetail.o(i._ZN23QDeclarativeContactName22fieldNameFromFieldTypeEi.clean)
    i._ZN23QDeclarativeContactName9setPrefixERK7QString 0x00019dc4   Section      120  moc_qdeclarativecontactname_p.o(i._ZN23QDeclarativeContactName9setPrefixERK7QString)
    i._ZN23QDeclarativeContactName9setPrefixERK7QString.clean 0x00019e3c   Section       22  moc_qdeclarativecontactname_p.o(i._ZN23QDeclarativeContactName9setPrefixERK7QString.clean)
    i._ZN23QDeclarativeContactName9setSuffixERK7QString 0x00019e54   Section      120  moc_qdeclarativecontactname_p.o(i._ZN23QDeclarativeContactName9setSuffixERK7QString)
    i._ZN23QDeclarativeContactName9setSuffixERK7QString.clean 0x00019ecc   Section       22  moc_qdeclarativecontactname_p.o(i._ZN23QDeclarativeContactName9setSuffixERK7QString.clean)
    i._ZN23QDeclarativeContactNameC1EP7QObject 0x00019ee4   Section      124  plugin.o(i._ZN23QDeclarativeContactNameC1EP7QObject)
    i._ZN23QDeclarativeContactNameC1EP7QObject.clean 0x00019f60   Section       16  plugin.o(i._ZN23QDeclarativeContactNameC1EP7QObject.clean)
    i._ZN23QDeclarativeContactNameD0Ev       0x00019f70   Section       24  moc_qdeclarativecontactname_p.o(i._ZN23QDeclarativeContactNameD0Ev)
    i._ZN23QDeclarativeContactNameD1Ev       0x00019f88   Section       14  moc_qdeclarativecontactname_p.o(i._ZN23QDeclarativeContactNameD1Ev)
    i._ZN23QDeclarativeContactNote7setNoteERK7QString 0x00019f98   Section      124  moc_qdeclarativecontactnote_p.o(i._ZN23QDeclarativeContactNote7setNoteERK7QString)
    i._ZN23QDeclarativeContactNote7setNoteERK7QString.clean 0x0001a014   Section       22  moc_qdeclarativecontactnote_p.o(i._ZN23QDeclarativeContactNote7setNoteERK7QString.clean)
    i._ZN23QDeclarativeContactNoteC1EP7QObject 0x0001a02c   Section      124  plugin.o(i._ZN23QDeclarativeContactNoteC1EP7QObject)
    i._ZN23QDeclarativeContactNoteC1EP7QObject.clean 0x0001a0a8   Section       16  plugin.o(i._ZN23QDeclarativeContactNoteC1EP7QObject.clean)
    i._ZN23QDeclarativeContactNoteD0Ev       0x0001a0b8   Section       24  moc_qdeclarativecontactnote_p.o(i._ZN23QDeclarativeContactNoteD0Ev)
    i._ZN23QDeclarativeContactNoteD1Ev       0x0001a0d0   Section       14  moc_qdeclarativecontactnote_p.o(i._ZN23QDeclarativeContactNoteD1Ev)
    i._ZN23QMetaEnumBuilderPrivateC1ERKS_    0x0001a0de   Section       78  qmetaobjectbuilder.o(i._ZN23QMetaEnumBuilderPrivateC1ERKS_)
    i._ZN23QMetaEnumBuilderPrivateC1ERKS_.clean 0x0001a12c   Section       22  qmetaobjectbuilder.o(i._ZN23QMetaEnumBuilderPrivateC1ERKS_.clean)
    i._ZN23QMetaEnumBuilderPrivateD1Ev       0x0001a142   Section       38  qmetaobjectbuilder.o(i._ZN23QMetaEnumBuilderPrivateD1Ev)
    i._ZN23QMetaEnumBuilderPrivateD1Ev.clean 0x0001a168   Section       22  qmetaobjectbuilder.o(i._ZN23QMetaEnumBuilderPrivateD1Ev.clean)
    i._ZN24QDeclarativeContactHobby8setHobbyERK7QString 0x0001a180   Section      124  moc_qdeclarativecontacthobby_p.o(i._ZN24QDeclarativeContactHobby8setHobbyERK7QString)
    i._ZN24QDeclarativeContactHobby8setHobbyERK7QString.clean 0x0001a1fc   Section       22  moc_qdeclarativecontacthobby_p.o(i._ZN24QDeclarativeContactHobby8setHobbyERK7QString.clean)
    i._ZN24QDeclarativeContactHobbyC1EP7QObject 0x0001a214   Section      124  plugin.o(i._ZN24QDeclarativeContactHobbyC1EP7QObject)
    i._ZN24QDeclarativeContactHobbyC1EP7QObject.clean 0x0001a290   Section       16  plugin.o(i._ZN24QDeclarativeContactHobbyC1EP7QObject.clean)
    i._ZN24QDeclarativeContactHobbyD0Ev      0x0001a2a0   Section       24  moc_qdeclarativecontacthobby_p.o(i._ZN24QDeclarativeContactHobbyD0Ev)
    i._ZN24QDeclarativeContactHobbyD1Ev      0x0001a2b8   Section       14  moc_qdeclarativecontacthobby_p.o(i._ZN24QDeclarativeContactHobbyD1Ev)
    i._ZN24QDeclarativeContactModel10classBeginEv 0x0001a2c6   Section        2  moc_qdeclarativecontactmodel_p.o(i._ZN24QDeclarativeContactModel10classBeginEv)
    i._ZN24QDeclarativeContactModelD0Ev      0x0001a2c8   Section       22  moc_qdeclarativecontactmodel_p.o(i._ZN24QDeclarativeContactModelD0Ev)
    i._ZN24QDeclarativeContactModelD1Ev      0x0001a2de   Section       26  moc_qdeclarativecontactmodel_p.o(i._ZN24QDeclarativeContactModelD1Ev)
    i._ZN24QDeclarativeContactModelD1Ev.clean 0x0001a2f8   Section       10  moc_qdeclarativecontactmodel_p.o(i._ZN24QDeclarativeContactModelD1Ev.clean)
    i._ZN25QDeclarativeContactAvatar11setImageUrlERK4QUrl 0x0001a304   Section      120  moc_qdeclarativecontactavatar_p.o(i._ZN25QDeclarativeContactAvatar11setImageUrlERK4QUrl)
    i._ZN25QDeclarativeContactAvatar11setImageUrlERK4QUrl.clean 0x0001a37c   Section       22  moc_qdeclarativecontactavatar_p.o(i._ZN25QDeclarativeContactAvatar11setImageUrlERK4QUrl.clean)
    i._ZN25QDeclarativeContactAvatar11setVideoUrlERK4QUrl 0x0001a394   Section      120  moc_qdeclarativecontactavatar_p.o(i._ZN25QDeclarativeContactAvatar11setVideoUrlERK4QUrl)
    i._ZN25QDeclarativeContactAvatar11setVideoUrlERK4QUrl.clean 0x0001a40c   Section       22  moc_qdeclarativecontactavatar_p.o(i._ZN25QDeclarativeContactAvatar11setVideoUrlERK4QUrl.clean)
    i._ZN25QDeclarativeContactAvatar22fieldNameFromFieldTypeEi 0x0001a424   Section      128  qdeclarativecontactdetail.o(i._ZN25QDeclarativeContactAvatar22fieldNameFromFieldTypeEi)
    i._ZN25QDeclarativeContactAvatar22fieldNameFromFieldTypeEi.clean 0x0001a4a4   Section       16  qdeclarativecontactdetail.o(i._ZN25QDeclarativeContactAvatar22fieldNameFromFieldTypeEi.clean)
    i._ZN25QDeclarativeContactAvatarC1EP7QObject 0x0001a4b4   Section      124  plugin.o(i._ZN25QDeclarativeContactAvatarC1EP7QObject)
    i._ZN25QDeclarativeContactAvatarC1EP7QObject.clean 0x0001a530   Section       16  plugin.o(i._ZN25QDeclarativeContactAvatarC1EP7QObject.clean)
    i._ZN25QDeclarativeContactAvatarD0Ev     0x0001a540   Section       24  moc_qdeclarativecontactavatar_p.o(i._ZN25QDeclarativeContactAvatarD0Ev)
    i._ZN25QDeclarativeContactAvatarD1Ev     0x0001a558   Section       14  moc_qdeclarativecontactavatar_p.o(i._ZN25QDeclarativeContactAvatarD1Ev)
    i._ZN25QDeclarativeContactDetailD0Ev     0x0001a566   Section       22  moc_qdeclarativecontactdetail_p.o(i._ZN25QDeclarativeContactDetailD0Ev)
    i._ZN25QDeclarativeContactDetailD1Ev     0x0001a57c   Section       36  moc_qdeclarativecontactaddress_p.o(i._ZN25QDeclarativeContactDetailD1Ev)
    i._ZN25QDeclarativeContactDetailD1Ev.clean 0x0001a5a0   Section       10  moc_qdeclarativecontactaddress_p.o(i._ZN25QDeclarativeContactDetailD1Ev.clean)
    i._ZN25QDeclarativeContactFamily11setChildrenERK11QStringList 0x0001a5ac   Section      176  moc_qdeclarativecontactfamily_p.o(i._ZN25QDeclarativeContactFamily11setChildrenERK11QStringList)
    i._ZN25QDeclarativeContactFamily11setChildrenERK11QStringList.clean 0x0001a65c   Section       42  moc_qdeclarativecontactfamily_p.o(i._ZN25QDeclarativeContactFamily11setChildrenERK11QStringList.clean)
    i._ZN25QDeclarativeContactFamily22fieldNameFromFieldTypeEi 0x0001a688   Section      128  qdeclarativecontactdetail.o(i._ZN25QDeclarativeContactFamily22fieldNameFromFieldTypeEi)
    i._ZN25QDeclarativeContactFamily22fieldNameFromFieldTypeEi.clean 0x0001a708   Section       16  qdeclarativecontactdetail.o(i._ZN25QDeclarativeContactFamily22fieldNameFromFieldTypeEi.clean)
    i._ZN25QDeclarativeContactFamily9setSpouseERK7QString 0x0001a718   Section      124  moc_qdeclarativecontactfamily_p.o(i._ZN25QDeclarativeContactFamily9setSpouseERK7QString)
    i._ZN25QDeclarativeContactFamily9setSpouseERK7QString.clean 0x0001a794   Section       22  moc_qdeclarativecontactfamily_p.o(i._ZN25QDeclarativeContactFamily9setSpouseERK7QString.clean)
    i._ZN25QDeclarativeContactFamilyC1EP7QObject 0x0001a7ac   Section      124  plugin.o(i._ZN25QDeclarativeContactFamilyC1EP7QObject)
    i._ZN25QDeclarativeContactFamilyC1EP7QObject.clean 0x0001a828   Section       16  plugin.o(i._ZN25QDeclarativeContactFamilyC1EP7QObject.clean)
    i._ZN25QDeclarativeContactFamilyD0Ev     0x0001a838   Section       24  moc_qdeclarativecontactfamily_p.o(i._ZN25QDeclarativeContactFamilyD0Ev)
    i._ZN25QDeclarativeContactFamilyD1Ev     0x0001a850   Section       14  moc_qdeclarativecontactfamily_p.o(i._ZN25QDeclarativeContactFamilyD1Ev)
    i._ZN25QDeclarativeContactFilterC1EP7QObject 0x0001a860   Section      100  plugin.o(i._ZN25QDeclarativeContactFilterC1EP7QObject)
    i._ZN25QDeclarativeContactFilterC1EP7QObject.clean 0x0001a8c4   Section       10  plugin.o(i._ZN25QDeclarativeContactFilterC1EP7QObject.clean)
    i._ZN25QDeclarativeContactFilterD0Ev     0x0001a8ce   Section       24  moc_qdeclarativecontactfilter_p.o(i._ZN25QDeclarativeContactFilterD0Ev)
    i._ZN25QDeclarativeContactFilterD1Ev     0x0001a8e6   Section       14  moc_qdeclarativecontactactionfilter_p.o(i._ZN25QDeclarativeContactFilterD1Ev)
    i._ZN25QDeclarativeContactGender9setGenderENS_10GenderTypeE 0x0001a8f4   Section      192  moc_qdeclarativecontactgender_p.o(i._ZN25QDeclarativeContactGender9setGenderENS_10GenderTypeE)
    i._ZN25QDeclarativeContactGender9setGenderENS_10GenderTypeE.clean 0x0001a9b4   Section       38  moc_qdeclarativecontactgender_p.o(i._ZN25QDeclarativeContactGender9setGenderENS_10GenderTypeE.clean)
    i._ZN25QDeclarativeContactGenderC1EP7QObject 0x0001a9dc   Section      124  plugin.o(i._ZN25QDeclarativeContactGenderC1EP7QObject)
    i._ZN25QDeclarativeContactGenderC1EP7QObject.clean 0x0001aa58   Section       16  plugin.o(i._ZN25QDeclarativeContactGenderC1EP7QObject.clean)
    i._ZN25QDeclarativeContactGenderD0Ev     0x0001aa68   Section       24  moc_qdeclarativecontactgender_p.o(i._ZN25QDeclarativeContactGenderD0Ev)
    i._ZN25QDeclarativeContactGenderD1Ev     0x0001aa80   Section       14  moc_qdeclarativecontactgender_p.o(i._ZN25QDeclarativeContactGenderD1Ev)
    i._ZN25QMetaMethodBuilderPrivateC1EN11QMetaMethod10MethodTypeERK10QByteArrayS4_NS0_6AccessE 0x0001aa8e   Section      118  qmetaobjectbuilder.o(i._ZN25QMetaMethodBuilderPrivateC1EN11QMetaMethod10MethodTypeERK10QByteArrayS4_NS0_6AccessE)
    i._ZN25QMetaMethodBuilderPrivateC1EN11QMetaMethod10MethodTypeERK10QByteArrayS4_NS0_6AccessE.clean 0x0001ab04   Section       50  qmetaobjectbuilder.o(i._ZN25QMetaMethodBuilderPrivateC1EN11QMetaMethod10MethodTypeERK10QByteArrayS4_NS0_6AccessE.clean)
    i._ZN25QMetaMethodBuilderPrivateC1ERKS_  0x0001ab36   Section       66  qmetaobjectbuilder.o(i._ZN25QMetaMethodBuilderPrivateC1ERKS_)
    i._ZN25QMetaMethodBuilderPrivateC1ERKS_.clean 0x0001ab78   Section       30  qmetaobjectbuilder.o(i._ZN25QMetaMethodBuilderPrivateC1ERKS_.clean)
    i._ZN25QMetaMethodBuilderPrivateD1Ev     0x0001ab96   Section       46  qmetaobjectbuilder.o(i._ZN25QMetaMethodBuilderPrivateD1Ev)
    i._ZN25QMetaMethodBuilderPrivateD1Ev.clean 0x0001abc4   Section       30  qmetaobjectbuilder.o(i._ZN25QMetaMethodBuilderPrivateD1Ev.clean)
    i._ZN25QMetaObjectBuilderPrivateC1Ev     0x0001abe4   Section      116  qmetaobjectbuilder.o(i._ZN25QMetaObjectBuilderPrivateC1Ev)
    i._ZN25QMetaObjectBuilderPrivateC1Ev.clean 0x0001ac58   Section       82  qmetaobjectbuilder.o(i._ZN25QMetaObjectBuilderPrivateC1Ev.clean)
    i._ZN25QMetaObjectBuilderPrivateD1Ev     0x0001acaa   Section       98  qmetaobjectbuilder.o(i._ZN25QMetaObjectBuilderPrivateD1Ev)
    i._ZN25QMetaObjectBuilderPrivateD1Ev.clean 0x0001ad0c   Section       82  qmetaobjectbuilder.o(i._ZN25QMetaObjectBuilderPrivateD1Ev.clean)
    i._ZN26QAbstractDynamicMetaObject14createPropertyEPKcS1_ 0x0001ad5e   Section        8  qdeclarativeopenmetaobject.o(i._ZN26QAbstractDynamicMetaObject14createPropertyEPKcS1_)
    i._ZN26QAbstractDynamicMetaObject8metaCallEN11QMetaObject4CallEiPPv 0x0001ad66   Section        8  qdeclarativeopenmetaobject.o(i._ZN26QAbstractDynamicMetaObject8metaCallEN11QMetaObject4CallEiPPv)
    i._ZN26QAbstractDynamicMetaObjectD0Ev    0x0001ad6e   Section       18  qdeclarativeopenmetaobject.o(i._ZN26QAbstractDynamicMetaObjectD0Ev)
    i._ZN26QAbstractDynamicMetaObjectD1Ev    0x0001ad80   Section        2  qdeclarativeopenmetaobject.o(i._ZN26QAbstractDynamicMetaObjectD1Ev)
    i._ZN26QDeclarativeContactAddress10setCountryERK7QString 0x0001ad84   Section      120  moc_qdeclarativecontactaddress_p.o(i._ZN26QDeclarativeContactAddress10setCountryERK7QString)
    i._ZN26QDeclarativeContactAddress10setCountryERK7QString.clean 0x0001adfc   Section       22  moc_qdeclarativecontactaddress_p.o(i._ZN26QDeclarativeContactAddress10setCountryERK7QString.clean)
    i._ZN26QDeclarativeContactAddress11setLocalityERK7QString 0x0001ae14   Section      120  moc_qdeclarativecontactaddress_p.o(i._ZN26QDeclarativeContactAddress11setLocalityERK7QString)
    i._ZN26QDeclarativeContactAddress11setLocalityERK7QString.clean 0x0001ae8c   Section       22  moc_qdeclarativecontactaddress_p.o(i._ZN26QDeclarativeContactAddress11setLocalityERK7QString.clean)
    i._ZN26QDeclarativeContactAddress11setPostcodeERK7QString 0x0001aea4   Section      120  moc_qdeclarativecontactaddress_p.o(i._ZN26QDeclarativeContactAddress11setPostcodeERK7QString)
    i._ZN26QDeclarativeContactAddress11setPostcodeERK7QString.clean 0x0001af1c   Section       22  moc_qdeclarativecontactaddress_p.o(i._ZN26QDeclarativeContactAddress11setPostcodeERK7QString.clean)
    i._ZN26QDeclarativeContactAddress11setSubTypesERK8QVariant 0x0001af34   Section      892  moc_qdeclarativecontactaddress_p.o(i._ZN26QDeclarativeContactAddress11setSubTypesERK8QVariant)
    i._ZN26QDeclarativeContactAddress11setSubTypesERK8QVariant.clean 0x0001b2b0   Section      144  moc_qdeclarativecontactaddress_p.o(i._ZN26QDeclarativeContactAddress11setSubTypesERK8QVariant.clean)
    i._ZN26QDeclarativeContactAddress16setPostOfficeBoxERK7QString 0x0001b340   Section      120  moc_qdeclarativecontactaddress_p.o(i._ZN26QDeclarativeContactAddress16setPostOfficeBoxERK7QString)
    i._ZN26QDeclarativeContactAddress16setPostOfficeBoxERK7QString.clean 0x0001b3b8   Section       22  moc_qdeclarativecontactaddress_p.o(i._ZN26QDeclarativeContactAddress16setPostOfficeBoxERK7QString.clean)
    i._ZN26QDeclarativeContactAddress22fieldNameFromFieldTypeEi 0x0001b3d0   Section      204  qdeclarativecontactdetail.o(i._ZN26QDeclarativeContactAddress22fieldNameFromFieldTypeEi)
    i._ZN26QDeclarativeContactAddress22fieldNameFromFieldTypeEi.clean 0x0001b49c   Section       16  qdeclarativecontactdetail.o(i._ZN26QDeclarativeContactAddress22fieldNameFromFieldTypeEi.clean)
    i._ZN26QDeclarativeContactAddress9setRegionERK7QString 0x0001b4ac   Section      120  moc_qdeclarativecontactaddress_p.o(i._ZN26QDeclarativeContactAddress9setRegionERK7QString)
    i._ZN26QDeclarativeContactAddress9setRegionERK7QString.clean 0x0001b524   Section       22  moc_qdeclarativecontactaddress_p.o(i._ZN26QDeclarativeContactAddress9setRegionERK7QString.clean)
    i._ZN26QDeclarativeContactAddress9setStreetERK7QString 0x0001b53c   Section      120  moc_qdeclarativecontactaddress_p.o(i._ZN26QDeclarativeContactAddress9setStreetERK7QString)
    i._ZN26QDeclarativeContactAddress9setStreetERK7QString.clean 0x0001b5b4   Section       22  moc_qdeclarativecontactaddress_p.o(i._ZN26QDeclarativeContactAddress9setStreetERK7QString.clean)
    i._ZN26QDeclarativeContactAddressC1EP7QObject 0x0001b5cc   Section      124  plugin.o(i._ZN26QDeclarativeContactAddressC1EP7QObject)
    i._ZN26QDeclarativeContactAddressC1EP7QObject.clean 0x0001b648   Section       16  plugin.o(i._ZN26QDeclarativeContactAddressC1EP7QObject.clean)
    i._ZN26QDeclarativeContactAddressD0Ev    0x0001b658   Section       24  moc_qdeclarativecontactaddress_p.o(i._ZN26QDeclarativeContactAddressD0Ev)
    i._ZN26QDeclarativeContactAddressD1Ev    0x0001b670   Section       14  moc_qdeclarativecontactaddress_p.o(i._ZN26QDeclarativeContactAddressD1Ev)
    i._ZN27QDeclarativeContactBirthday11setBirthdayERK9QDateTime 0x0001b680   Section      124  moc_qdeclarativecontactbirthday_p.o(i._ZN27QDeclarativeContactBirthday11setBirthdayERK9QDateTime)
    i._ZN27QDeclarativeContactBirthday11setBirthdayERK9QDateTime.clean 0x0001b6fc   Section       22  moc_qdeclarativecontactbirthday_p.o(i._ZN27QDeclarativeContactBirthday11setBirthdayERK9QDateTime.clean)
    i._ZN27QDeclarativeContactBirthdayC1EP7QObject 0x0001b714   Section      124  plugin.o(i._ZN27QDeclarativeContactBirthdayC1EP7QObject)
    i._ZN27QDeclarativeContactBirthdayC1EP7QObject.clean 0x0001b790   Section       16  plugin.o(i._ZN27QDeclarativeContactBirthdayC1EP7QObject.clean)
    i._ZN27QDeclarativeContactBirthdayD0Ev   0x0001b7a0   Section       24  moc_qdeclarativecontactbirthday_p.o(i._ZN27QDeclarativeContactBirthdayD0Ev)
    i._ZN27QDeclarativeContactBirthdayD1Ev   0x0001b7b8   Section       14  moc_qdeclarativecontactbirthday_p.o(i._ZN27QDeclarativeContactBirthdayD1Ev)
    i._ZN27QDeclarativeContactFavorite22fieldNameFromFieldTypeEi 0x0001b7c8   Section      128  qdeclarativecontactdetail.o(i._ZN27QDeclarativeContactFavorite22fieldNameFromFieldTypeEi)
    i._ZN27QDeclarativeContactFavorite22fieldNameFromFieldTypeEi.clean 0x0001b848   Section       16  qdeclarativecontactdetail.o(i._ZN27QDeclarativeContactFavorite22fieldNameFromFieldTypeEi.clean)
    i._ZN27QDeclarativeContactFavoriteC1EP7QObject 0x0001b858   Section      124  plugin.o(i._ZN27QDeclarativeContactFavoriteC1EP7QObject)
    i._ZN27QDeclarativeContactFavoriteC1EP7QObject.clean 0x0001b8d4   Section       16  plugin.o(i._ZN27QDeclarativeContactFavoriteC1EP7QObject.clean)
    i._ZN27QDeclarativeContactFavoriteD0Ev   0x0001b8e4   Section       24  moc_qdeclarativecontactfavorite_p.o(i._ZN27QDeclarativeContactFavoriteD0Ev)
    i._ZN27QDeclarativeContactFavoriteD1Ev   0x0001b8fc   Section       14  moc_qdeclarativecontactfavorite_p.o(i._ZN27QDeclarativeContactFavoriteD1Ev)
    i._ZN27QDeclarativeContactNickname11setNicknameERK7QString 0x0001b90c   Section      120  moc_qdeclarativecontactnickname_p.o(i._ZN27QDeclarativeContactNickname11setNicknameERK7QString)
    i._ZN27QDeclarativeContactNickname11setNicknameERK7QString.clean 0x0001b984   Section       22  moc_qdeclarativecontactnickname_p.o(i._ZN27QDeclarativeContactNickname11setNicknameERK7QString.clean)
    i._ZN27QDeclarativeContactNicknameC1EP7QObject 0x0001b99c   Section      124  plugin.o(i._ZN27QDeclarativeContactNicknameC1EP7QObject)
    i._ZN27QDeclarativeContactNicknameC1EP7QObject.clean 0x0001ba18   Section       16  plugin.o(i._ZN27QDeclarativeContactNicknameC1EP7QObject.clean)
    i._ZN27QDeclarativeContactNicknameD0Ev   0x0001ba28   Section       24  moc_qdeclarativecontactnickname_p.o(i._ZN27QDeclarativeContactNicknameD0Ev)
    i._ZN27QDeclarativeContactNicknameD1Ev   0x0001ba40   Section       14  moc_qdeclarativecontactnickname_p.o(i._ZN27QDeclarativeContactNicknameD1Ev)
    i._ZN27QDeclarativeContactPresence11setNicknameERK7QString 0x0001ba50   Section      120  moc_qdeclarativecontactpresence_p.o(i._ZN27QDeclarativeContactPresence11setNicknameERK7QString)
    i._ZN27QDeclarativeContactPresence11setNicknameERK7QString.clean 0x0001bac8   Section       22  moc_qdeclarativecontactpresence_p.o(i._ZN27QDeclarativeContactPresence11setNicknameERK7QString.clean)
    i._ZN27QDeclarativeContactPresence12setTimestampERK9QDateTime 0x0001bae0   Section      124  moc_qdeclarativecontactpresence_p.o(i._ZN27QDeclarativeContactPresence12setTimestampERK9QDateTime)
    i._ZN27QDeclarativeContactPresence12setTimestampERK9QDateTime.clean 0x0001bb5c   Section       22  moc_qdeclarativecontactpresence_p.o(i._ZN27QDeclarativeContactPresence12setTimestampERK9QDateTime.clean)
    i._ZN27QDeclarativeContactPresence16setCustomMessageERK7QString 0x0001bb74   Section      120  moc_qdeclarativecontactpresence_p.o(i._ZN27QDeclarativeContactPresence16setCustomMessageERK7QString)
    i._ZN27QDeclarativeContactPresence16setCustomMessageERK7QString.clean 0x0001bbec   Section       22  moc_qdeclarativecontactpresence_p.o(i._ZN27QDeclarativeContactPresence16setCustomMessageERK7QString.clean)
    i._ZN27QDeclarativeContactPresence20setPresenceStateTextERK7QString 0x0001bc04   Section      120  moc_qdeclarativecontactpresence_p.o(i._ZN27QDeclarativeContactPresence20setPresenceStateTextERK7QString)
    i._ZN27QDeclarativeContactPresence20setPresenceStateTextERK7QString.clean 0x0001bc7c   Section       22  moc_qdeclarativecontactpresence_p.o(i._ZN27QDeclarativeContactPresence20setPresenceStateTextERK7QString.clean)
    i._ZN27QDeclarativeContactPresence22fieldNameFromFieldTypeEi 0x0001bc94   Section      200  qdeclarativecontactdetail.o(i._ZN27QDeclarativeContactPresence22fieldNameFromFieldTypeEi)
    i._ZN27QDeclarativeContactPresence22fieldNameFromFieldTypeEi.clean 0x0001bd5c   Section       16  qdeclarativecontactdetail.o(i._ZN27QDeclarativeContactPresence22fieldNameFromFieldTypeEi.clean)
    i._ZN27QDeclarativeContactPresence24setPresenceStateImageUrlERK4QUrl 0x0001bd6c   Section      120  moc_qdeclarativecontactpresence_p.o(i._ZN27QDeclarativeContactPresence24setPresenceStateImageUrlERK4QUrl)
    i._ZN27QDeclarativeContactPresence24setPresenceStateImageUrlERK4QUrl.clean 0x0001bde4   Section       22  moc_qdeclarativecontactpresence_p.o(i._ZN27QDeclarativeContactPresence24setPresenceStateImageUrlERK4QUrl.clean)
    i._ZN27QDeclarativeContactPresenceC1EP7QObject 0x0001bdfc   Section      124  plugin.o(i._ZN27QDeclarativeContactPresenceC1EP7QObject)
    i._ZN27QDeclarativeContactPresenceC1EP7QObject.clean 0x0001be78   Section       16  plugin.o(i._ZN27QDeclarativeContactPresenceC1EP7QObject.clean)
    i._ZN27QDeclarativeContactPresenceD0Ev   0x0001be88   Section       24  moc_qdeclarativecontactpresence_p.o(i._ZN27QDeclarativeContactPresenceD0Ev)
    i._ZN27QDeclarativeContactPresenceD1Ev   0x0001bea0   Section       14  moc_qdeclarativecontactpresence_p.o(i._ZN27QDeclarativeContactPresenceD1Ev)
    i._ZN27QDeclarativeContactRingtone19setAudioRingtoneUrlERK4QUrl 0x0001beb0   Section      120  moc_qdeclarativecontactringtone_p.o(i._ZN27QDeclarativeContactRingtone19setAudioRingtoneUrlERK4QUrl)
    i._ZN27QDeclarativeContactRingtone19setAudioRingtoneUrlERK4QUrl.clean 0x0001bf28   Section       22  moc_qdeclarativecontactringtone_p.o(i._ZN27QDeclarativeContactRingtone19setAudioRingtoneUrlERK4QUrl.clean)
    i._ZN27QDeclarativeContactRingtone19setVideoRingtoneUrlERK4QUrl 0x0001bf40   Section      120  moc_qdeclarativecontactringtone_p.o(i._ZN27QDeclarativeContactRingtone19setVideoRingtoneUrlERK4QUrl)
    i._ZN27QDeclarativeContactRingtone19setVideoRingtoneUrlERK4QUrl.clean 0x0001bfb8   Section       22  moc_qdeclarativecontactringtone_p.o(i._ZN27QDeclarativeContactRingtone19setVideoRingtoneUrlERK4QUrl.clean)
    i._ZN27QDeclarativeContactRingtone22fieldNameFromFieldTypeEi 0x0001bfd0   Section      164  qdeclarativecontactdetail.o(i._ZN27QDeclarativeContactRingtone22fieldNameFromFieldTypeEi)
    i._ZN27QDeclarativeContactRingtone22fieldNameFromFieldTypeEi.clean 0x0001c074   Section       16  qdeclarativecontactdetail.o(i._ZN27QDeclarativeContactRingtone22fieldNameFromFieldTypeEi.clean)
    i._ZN27QDeclarativeContactRingtone23setVibrationRingtoneUrlERK4QUrl 0x0001c084   Section      120  moc_qdeclarativecontactringtone_p.o(i._ZN27QDeclarativeContactRingtone23setVibrationRingtoneUrlERK4QUrl)
    i._ZN27QDeclarativeContactRingtone23setVibrationRingtoneUrlERK4QUrl.clean 0x0001c0fc   Section       22  moc_qdeclarativecontactringtone_p.o(i._ZN27QDeclarativeContactRingtone23setVibrationRingtoneUrlERK4QUrl.clean)
    i._ZN27QDeclarativeContactRingtoneC1EP7QObject 0x0001c114   Section      124  plugin.o(i._ZN27QDeclarativeContactRingtoneC1EP7QObject)
    i._ZN27QDeclarativeContactRingtoneC1EP7QObject.clean 0x0001c190   Section       16  plugin.o(i._ZN27QDeclarativeContactRingtoneC1EP7QObject.clean)
    i._ZN27QDeclarativeContactRingtoneD0Ev   0x0001c1a0   Section       24  moc_qdeclarativecontactringtone_p.o(i._ZN27QDeclarativeContactRingtoneD0Ev)
    i._ZN27QDeclarativeContactRingtoneD1Ev   0x0001c1b8   Section       14  moc_qdeclarativecontactringtone_p.o(i._ZN27QDeclarativeContactRingtoneD1Ev)
    i._ZN27QMetaPropertyBuilderPrivate7setFlagEib 0x0001c1c6   Section       20  qmetaobjectbuilder.o(i._ZN27QMetaPropertyBuilderPrivate7setFlagEib)
    i._ZN27QMetaPropertyBuilderPrivateC1ERKS_ 0x0001c1da   Section       38  qmetaobjectbuilder.o(i._ZN27QMetaPropertyBuilderPrivateC1ERKS_)
    i._ZN27QMetaPropertyBuilderPrivateC1ERKS_.clean 0x0001c200   Section       10  qmetaobjectbuilder.o(i._ZN27QMetaPropertyBuilderPrivateC1ERKS_.clean)
    i._ZN27QMetaPropertyBuilderPrivateD1Ev   0x0001c20a   Section       22  qmetaobjectbuilder.o(i._ZN27QMetaPropertyBuilderPrivateD1Ev)
    i._ZN27QMetaPropertyBuilderPrivateD1Ev.clean 0x0001c220   Section       10  qmetaobjectbuilder.o(i._ZN27QMetaPropertyBuilderPrivateD1Ev.clean)
    i._ZN28QDeclarativeContactFetchHintD0Ev  0x0001c22a   Section       22  moc_qdeclarativecontactfetchhint_p.o(i._ZN28QDeclarativeContactFetchHintD0Ev)
    i._ZN28QDeclarativeContactFetchHintD1Ev  0x0001c240   Section       36  moc_qdeclarativecontactfetchhint_p.o(i._ZN28QDeclarativeContactFetchHintD1Ev)
    i._ZN28QDeclarativeContactFetchHintD1Ev.clean 0x0001c264   Section       10  moc_qdeclarativecontactfetchhint_p.o(i._ZN28QDeclarativeContactFetchHintD1Ev.clean)
    i._ZN28QDeclarativeContactSortOrder10classBeginEv 0x0001c26e   Section        2  moc_qdeclarativecontactsortorder_p.o(i._ZN28QDeclarativeContactSortOrder10classBeginEv)
    i._ZN28QDeclarativeContactSortOrderD0Ev  0x0001c270   Section       22  moc_qdeclarativecontactsortorder_p.o(i._ZN28QDeclarativeContactSortOrderD0Ev)
    i._ZN28QDeclarativeContactSortOrderD1Ev  0x0001c288   Section       76  moc_qdeclarativecontactsortorder_p.o(i._ZN28QDeclarativeContactSortOrderD1Ev)
    i._ZN28QDeclarativeContactSortOrderD1Ev.clean 0x0001c2d4   Section       46  moc_qdeclarativecontactsortorder_p.o(i._ZN28QDeclarativeContactSortOrderD1Ev.clean)
    i._ZN28QDeclarativeContactTimestamp10setCreatedERK9QDateTime 0x0001c304   Section      120  moc_qdeclarativecontacttimestamp_p.o(i._ZN28QDeclarativeContactTimestamp10setCreatedERK9QDateTime)
    i._ZN28QDeclarativeContactTimestamp10setCreatedERK9QDateTime.clean 0x0001c37c   Section       22  moc_qdeclarativecontacttimestamp_p.o(i._ZN28QDeclarativeContactTimestamp10setCreatedERK9QDateTime.clean)
    i._ZN28QDeclarativeContactTimestamp15setLastModifiedERK9QDateTime 0x0001c394   Section      120  moc_qdeclarativecontacttimestamp_p.o(i._ZN28QDeclarativeContactTimestamp15setLastModifiedERK9QDateTime)
    i._ZN28QDeclarativeContactTimestamp15setLastModifiedERK9QDateTime.clean 0x0001c40c   Section       22  moc_qdeclarativecontacttimestamp_p.o(i._ZN28QDeclarativeContactTimestamp15setLastModifiedERK9QDateTime.clean)
    i._ZN28QDeclarativeContactTimestamp22fieldNameFromFieldTypeEi 0x0001c424   Section      140  qdeclarativecontactdetail.o(i._ZN28QDeclarativeContactTimestamp22fieldNameFromFieldTypeEi)
    i._ZN28QDeclarativeContactTimestamp22fieldNameFromFieldTypeEi.clean 0x0001c4b0   Section       16  qdeclarativecontactdetail.o(i._ZN28QDeclarativeContactTimestamp22fieldNameFromFieldTypeEi.clean)
    i._ZN28QDeclarativeContactTimestampC1EP7QObject 0x0001c4c0   Section      124  plugin.o(i._ZN28QDeclarativeContactTimestampC1EP7QObject)
    i._ZN28QDeclarativeContactTimestampC1EP7QObject.clean 0x0001c53c   Section       16  plugin.o(i._ZN28QDeclarativeContactTimestampC1EP7QObject.clean)
    i._ZN28QDeclarativeContactTimestampD0Ev  0x0001c54c   Section       24  moc_qdeclarativecontacttimestamp_p.o(i._ZN28QDeclarativeContactTimestampD0Ev)
    i._ZN28QDeclarativeContactTimestampD1Ev  0x0001c564   Section       14  moc_qdeclarativecontacttimestamp_p.o(i._ZN28QDeclarativeContactTimestampD1Ev)
    i._ZN29QDeclarativeContactSyncTarget13setSyncTargetERK7QString 0x0001c574   Section      124  moc_qdeclarativecontactsynctarget_p.o(i._ZN29QDeclarativeContactSyncTarget13setSyncTargetERK7QString)
    i._ZN29QDeclarativeContactSyncTarget13setSyncTargetERK7QString.clean 0x0001c5f0   Section       22  moc_qdeclarativecontactsynctarget_p.o(i._ZN29QDeclarativeContactSyncTarget13setSyncTargetERK7QString.clean)
    i._ZN29QDeclarativeContactSyncTargetC1EP7QObject 0x0001c608   Section      124  plugin.o(i._ZN29QDeclarativeContactSyncTargetC1EP7QObject)
    i._ZN29QDeclarativeContactSyncTargetC1EP7QObject.clean 0x0001c684   Section       16  plugin.o(i._ZN29QDeclarativeContactSyncTargetC1EP7QObject.clean)
    i._ZN29QDeclarativeContactSyncTargetD0Ev 0x0001c694   Section       24  moc_qdeclarativecontactsynctarget_p.o(i._ZN29QDeclarativeContactSyncTargetD0Ev)
    i._ZN29QDeclarativeContactSyncTargetD1Ev 0x0001c6ac   Section       14  moc_qdeclarativecontactsynctarget_p.o(i._ZN29QDeclarativeContactSyncTargetD1Ev)
    i._ZN30QDeclarativeContactAnniversary10setSubTypeENS_18AnniversarySubTypeE 0x0001c6bc   Section      236  moc_qdeclarativecontactanniversary_p.o(i._ZN30QDeclarativeContactAnniversary10setSubTypeENS_18AnniversarySubTypeE)
    i._ZN30QDeclarativeContactAnniversary10setSubTypeENS_18AnniversarySubTypeE.clean 0x0001c7a8   Section       16  moc_qdeclarativecontactanniversary_p.o(i._ZN30QDeclarativeContactAnniversary10setSubTypeENS_18AnniversarySubTypeE.clean)
    i._ZN30QDeclarativeContactAnniversary13setCalendarIdERK7QString 0x0001c7b8   Section      120  moc_qdeclarativecontactanniversary_p.o(i._ZN30QDeclarativeContactAnniversary13setCalendarIdERK7QString)
    i._ZN30QDeclarativeContactAnniversary13setCalendarIdERK7QString.clean 0x0001c830   Section       22  moc_qdeclarativecontactanniversary_p.o(i._ZN30QDeclarativeContactAnniversary13setCalendarIdERK7QString.clean)
    i._ZN30QDeclarativeContactAnniversary19setOriginalDateTimeERK9QDateTime 0x0001c848   Section      124  moc_qdeclarativecontactanniversary_p.o(i._ZN30QDeclarativeContactAnniversary19setOriginalDateTimeERK9QDateTime)
    i._ZN30QDeclarativeContactAnniversary19setOriginalDateTimeERK9QDateTime.clean 0x0001c8c4   Section       22  moc_qdeclarativecontactanniversary_p.o(i._ZN30QDeclarativeContactAnniversary19setOriginalDateTimeERK9QDateTime.clean)
    i._ZN30QDeclarativeContactAnniversary22fieldNameFromFieldTypeEi 0x0001c8dc   Section      164  qdeclarativecontactdetail.o(i._ZN30QDeclarativeContactAnniversary22fieldNameFromFieldTypeEi)
    i._ZN30QDeclarativeContactAnniversary22fieldNameFromFieldTypeEi.clean 0x0001c980   Section       16  qdeclarativecontactdetail.o(i._ZN30QDeclarativeContactAnniversary22fieldNameFromFieldTypeEi.clean)
    i._ZN30QDeclarativeContactAnniversary8setEventERK7QString 0x0001c990   Section      120  moc_qdeclarativecontactanniversary_p.o(i._ZN30QDeclarativeContactAnniversary8setEventERK7QString)
    i._ZN30QDeclarativeContactAnniversary8setEventERK7QString.clean 0x0001ca08   Section       22  moc_qdeclarativecontactanniversary_p.o(i._ZN30QDeclarativeContactAnniversary8setEventERK7QString.clean)
    i._ZN30QDeclarativeContactAnniversaryC1EP7QObject 0x0001ca20   Section      124  plugin.o(i._ZN30QDeclarativeContactAnniversaryC1EP7QObject)
    i._ZN30QDeclarativeContactAnniversaryC1EP7QObject.clean 0x0001ca9c   Section       16  plugin.o(i._ZN30QDeclarativeContactAnniversaryC1EP7QObject.clean)
    i._ZN30QDeclarativeContactAnniversaryD0Ev 0x0001caac   Section       24  moc_qdeclarativecontactanniversary_p.o(i._ZN30QDeclarativeContactAnniversaryD0Ev)
    i._ZN30QDeclarativeContactAnniversaryD1Ev 0x0001cac4   Section       14  moc_qdeclarativecontactanniversary_p.o(i._ZN30QDeclarativeContactAnniversaryD1Ev)
    i._ZN30QDeclarativeContactGeoLocation12setTimestampERK9QDateTime 0x0001cad4   Section      124  moc_qdeclarativecontactgeolocation_p.o(i._ZN30QDeclarativeContactGeoLocation12setTimestampERK9QDateTime)
    i._ZN30QDeclarativeContactGeoLocation12setTimestampERK9QDateTime.clean 0x0001cb50   Section       22  moc_qdeclarativecontactgeolocation_p.o(i._ZN30QDeclarativeContactGeoLocation12setTimestampERK9QDateTime.clean)
    i._ZN30QDeclarativeContactGeoLocation22fieldNameFromFieldTypeEi 0x0001cb68   Section      240  qdeclarativecontactdetail.o(i._ZN30QDeclarativeContactGeoLocation22fieldNameFromFieldTypeEi)
    i._ZN30QDeclarativeContactGeoLocation22fieldNameFromFieldTypeEi.clean 0x0001cc58   Section       16  qdeclarativecontactdetail.o(i._ZN30QDeclarativeContactGeoLocation22fieldNameFromFieldTypeEi.clean)
    i._ZN30QDeclarativeContactGeoLocation8setLabelERK7QString 0x0001cc68   Section      124  moc_qdeclarativecontactgeolocation_p.o(i._ZN30QDeclarativeContactGeoLocation8setLabelERK7QString)
    i._ZN30QDeclarativeContactGeoLocation8setLabelERK7QString.clean 0x0001cce4   Section       22  moc_qdeclarativecontactgeolocation_p.o(i._ZN30QDeclarativeContactGeoLocation8setLabelERK7QString.clean)
    i._ZN30QDeclarativeContactGeoLocationC1EP7QObject 0x0001ccfc   Section      124  plugin.o(i._ZN30QDeclarativeContactGeoLocationC1EP7QObject)
    i._ZN30QDeclarativeContactGeoLocationC1EP7QObject.clean 0x0001cd78   Section       16  plugin.o(i._ZN30QDeclarativeContactGeoLocationC1EP7QObject.clean)
    i._ZN30QDeclarativeContactGeoLocationD0Ev 0x0001cd88   Section       24  moc_qdeclarativecontactgeolocation_p.o(i._ZN30QDeclarativeContactGeoLocationD0Ev)
    i._ZN30QDeclarativeContactGeoLocationD1Ev 0x0001cda0   Section       14  moc_qdeclarativecontactgeolocation_p.o(i._ZN30QDeclarativeContactGeoLocationD1Ev)
    i._ZN30QDeclarativeContactPhoneNumber11setSubTypesERK8QVariant 0x0001cdb0   Section     1156  moc_qdeclarativecontactphonenumber_p.o(i._ZN30QDeclarativeContactPhoneNumber11setSubTypesERK8QVariant)
    i._ZN30QDeclarativeContactPhoneNumber11setSubTypesERK8QVariant.clean 0x0001d234   Section      216  moc_qdeclarativecontactphonenumber_p.o(i._ZN30QDeclarativeContactPhoneNumber11setSubTypesERK8QVariant.clean)
    i._ZN30QDeclarativeContactPhoneNumber22fieldNameFromFieldTypeEi 0x0001d30c   Section      128  qdeclarativecontactdetail.o(i._ZN30QDeclarativeContactPhoneNumber22fieldNameFromFieldTypeEi)
    i._ZN30QDeclarativeContactPhoneNumber22fieldNameFromFieldTypeEi.clean 0x0001d38c   Section       16  qdeclarativecontactdetail.o(i._ZN30QDeclarativeContactPhoneNumber22fieldNameFromFieldTypeEi.clean)
    i._ZN30QDeclarativeContactPhoneNumber9setNumberERK7QString 0x0001d39c   Section      124  moc_qdeclarativecontactphonenumber_p.o(i._ZN30QDeclarativeContactPhoneNumber9setNumberERK7QString)
    i._ZN30QDeclarativeContactPhoneNumber9setNumberERK7QString.clean 0x0001d418   Section       22  moc_qdeclarativecontactphonenumber_p.o(i._ZN30QDeclarativeContactPhoneNumber9setNumberERK7QString.clean)
    i._ZN30QDeclarativeContactPhoneNumberC1EP7QObject 0x0001d430   Section      124  plugin.o(i._ZN30QDeclarativeContactPhoneNumberC1EP7QObject)
    i._ZN30QDeclarativeContactPhoneNumberC1EP7QObject.clean 0x0001d4ac   Section       16  plugin.o(i._ZN30QDeclarativeContactPhoneNumberC1EP7QObject.clean)
    i._ZN30QDeclarativeContactPhoneNumberD0Ev 0x0001d4bc   Section       24  moc_qdeclarativecontactphonenumber_p.o(i._ZN30QDeclarativeContactPhoneNumberD0Ev)
    i._ZN30QDeclarativeContactPhoneNumberD1Ev 0x0001d4d4   Section       14  moc_qdeclarativecontactphonenumber_p.o(i._ZN30QDeclarativeContactPhoneNumberD1Ev)
    i._ZN30QDeclarativeContactUnionFilterD0Ev 0x0001d4e2   Section       22  moc_qdeclarativecontactunionfilter_p.o(i._ZN30QDeclarativeContactUnionFilterD0Ev)
    i._ZN30QDeclarativeContactUnionFilterD1Ev 0x0001d4f8   Section       36  plugin.o(i._ZN30QDeclarativeContactUnionFilterD1Ev)
    i._ZN30QDeclarativeContactUnionFilterD1Ev.clean 0x0001d51c   Section       10  plugin.o(i._ZN30QDeclarativeContactUnionFilterD1Ev.clean)
    i._ZN31QDeclarativeContactActionFilterD0Ev 0x0001d526   Section       22  moc_qdeclarativecontactactionfilter_p.o(i._ZN31QDeclarativeContactActionFilterD0Ev)
    i._ZN31QDeclarativeContactActionFilterD1Ev 0x0001d53c   Section       36  plugin.o(i._ZN31QDeclarativeContactActionFilterD1Ev)
    i._ZN31QDeclarativeContactActionFilterD1Ev.clean 0x0001d560   Section       10  plugin.o(i._ZN31QDeclarativeContactActionFilterD1Ev.clean)
    i._ZN31QDeclarativeContactDetailFilter10classBeginEv 0x0001d56a   Section        2  moc_qdeclarativecontactdetailfilter_p.o(i._ZN31QDeclarativeContactDetailFilter10classBeginEv)
    i._ZN31QDeclarativeContactDetailFilter17componentCompleteEv 0x0001d56c   Section       16  moc_qdeclarativecontactdetailfilter_p.o(i._ZN31QDeclarativeContactDetailFilter17componentCompleteEv)
    i._ZN31QDeclarativeContactDetailFilter23setDetailDefinitionNameEv 0x0001d57c   Section      256  moc_qdeclarativecontactdetailfilter_p.o(i._ZN31QDeclarativeContactDetailFilter23setDetailDefinitionNameEv)
    i._ZN31QDeclarativeContactDetailFilter23setDetailDefinitionNameEv.clean 0x0001d67c   Section       62  moc_qdeclarativecontactdetailfilter_p.o(i._ZN31QDeclarativeContactDetailFilter23setDetailDefinitionNameEv.clean)
    i._ZN31QDeclarativeContactDetailFilterC1EP7QObject 0x0001d6bc   Section      136  plugin.o(i._ZN31QDeclarativeContactDetailFilterC1EP7QObject)
    i._ZN31QDeclarativeContactDetailFilterC1EP7QObject.clean 0x0001d744   Section       58  plugin.o(i._ZN31QDeclarativeContactDetailFilterC1EP7QObject.clean)
    i._ZN31QDeclarativeContactDetailFilterD0Ev 0x0001d77e   Section       22  moc_qdeclarativecontactdetailfilter_p.o(i._ZN31QDeclarativeContactDetailFilterD0Ev)
    i._ZN31QDeclarativeContactDetailFilterD1Ev 0x0001d794   Section       76  plugin.o(i._ZN31QDeclarativeContactDetailFilterD1Ev)
    i._ZN31QDeclarativeContactDetailFilterD1Ev.clean 0x0001d7e0   Section       46  plugin.o(i._ZN31QDeclarativeContactDetailFilterD1Ev.clean)
    i._ZN31QDeclarativeContactDisplayLabelC1EP7QObject 0x0001d810   Section      124  plugin.o(i._ZN31QDeclarativeContactDisplayLabelC1EP7QObject)
    i._ZN31QDeclarativeContactDisplayLabelC1EP7QObject.clean 0x0001d88c   Section       16  plugin.o(i._ZN31QDeclarativeContactDisplayLabelC1EP7QObject.clean)
    i._ZN31QDeclarativeContactDisplayLabelD0Ev 0x0001d89c   Section       24  moc_qdeclarativecontactdisplaylabel_p.o(i._ZN31QDeclarativeContactDisplayLabelD0Ev)
    i._ZN31QDeclarativeContactDisplayLabelD1Ev 0x0001d8b4   Section       14  moc_qdeclarativecontactdisplaylabel_p.o(i._ZN31QDeclarativeContactDisplayLabelD1Ev)
    i._ZN31QDeclarativeContactEmailAddress15setEmailAddressERK7QString 0x0001d8c4   Section      124  moc_qdeclarativecontactemailaddress_p.o(i._ZN31QDeclarativeContactEmailAddress15setEmailAddressERK7QString)
    i._ZN31QDeclarativeContactEmailAddress15setEmailAddressERK7QString.clean 0x0001d940   Section       22  moc_qdeclarativecontactemailaddress_p.o(i._ZN31QDeclarativeContactEmailAddress15setEmailAddressERK7QString.clean)
    i._ZN31QDeclarativeContactEmailAddressC1EP7QObject 0x0001d958   Section      124  plugin.o(i._ZN31QDeclarativeContactEmailAddressC1EP7QObject)
    i._ZN31QDeclarativeContactEmailAddressC1EP7QObject.clean 0x0001d9d4   Section       16  plugin.o(i._ZN31QDeclarativeContactEmailAddressC1EP7QObject.clean)
    i._ZN31QDeclarativeContactEmailAddressD0Ev 0x0001d9e4   Section       24  moc_qdeclarativecontactemailaddress_p.o(i._ZN31QDeclarativeContactEmailAddressD0Ev)
    i._ZN31QDeclarativeContactEmailAddressD1Ev 0x0001d9fc   Section       14  moc_qdeclarativecontactemailaddress_p.o(i._ZN31QDeclarativeContactEmailAddressD1Ev)
    i._ZN31QDeclarativeContactModelPrivateC1Ev 0x0001da0c   Section      128  qdeclarativecontactmodel.o(i._ZN31QDeclarativeContactModelPrivateC1Ev)
    i._ZN31QDeclarativeContactModelPrivateC1Ev.clean 0x0001da8c   Section       66  qdeclarativecontactmodel.o(i._ZN31QDeclarativeContactModelPrivateC1Ev.clean)
    i._ZN31QDeclarativeContactOrganization10setLogoUrlERK4QUrl 0x0001dad0   Section      120  moc_qdeclarativecontactorganization_p.o(i._ZN31QDeclarativeContactOrganization10setLogoUrlERK4QUrl)
    i._ZN31QDeclarativeContactOrganization10setLogoUrlERK4QUrl.clean 0x0001db48   Section       22  moc_qdeclarativecontactorganization_p.o(i._ZN31QDeclarativeContactOrganization10setLogoUrlERK4QUrl.clean)
    i._ZN31QDeclarativeContactOrganization11setLocationERK7QString 0x0001db60   Section      120  moc_qdeclarativecontactorganization_p.o(i._ZN31QDeclarativeContactOrganization11setLocationERK7QString)
    i._ZN31QDeclarativeContactOrganization11setLocationERK7QString.clean 0x0001dbd8   Section       22  moc_qdeclarativecontactorganization_p.o(i._ZN31QDeclarativeContactOrganization11setLocationERK7QString.clean)
    i._ZN31QDeclarativeContactOrganization13setDepartmentERK11QStringList 0x0001dbf0   Section      176  moc_qdeclarativecontactorganization_p.o(i._ZN31QDeclarativeContactOrganization13setDepartmentERK11QStringList)
    i._ZN31QDeclarativeContactOrganization13setDepartmentERK11QStringList.clean 0x0001dca0   Section       42  moc_qdeclarativecontactorganization_p.o(i._ZN31QDeclarativeContactOrganization13setDepartmentERK11QStringList.clean)
    i._ZN31QDeclarativeContactOrganization16setAssistantNameERK7QString 0x0001dccc   Section      120  moc_qdeclarativecontactorganization_p.o(i._ZN31QDeclarativeContactOrganization16setAssistantNameERK7QString)
    i._ZN31QDeclarativeContactOrganization16setAssistantNameERK7QString.clean 0x0001dd44   Section       22  moc_qdeclarativecontactorganization_p.o(i._ZN31QDeclarativeContactOrganization16setAssistantNameERK7QString.clean)
    i._ZN31QDeclarativeContactOrganization22fieldNameFromFieldTypeEi 0x0001dd5c   Section      204  qdeclarativecontactdetail.o(i._ZN31QDeclarativeContactOrganization22fieldNameFromFieldTypeEi)
    i._ZN31QDeclarativeContactOrganization22fieldNameFromFieldTypeEi.clean 0x0001de28   Section       16  qdeclarativecontactdetail.o(i._ZN31QDeclarativeContactOrganization22fieldNameFromFieldTypeEi.clean)
    i._ZN31QDeclarativeContactOrganization7setNameERK7QString 0x0001de38   Section      120  moc_qdeclarativecontactorganization_p.o(i._ZN31QDeclarativeContactOrganization7setNameERK7QString)
    i._ZN31QDeclarativeContactOrganization7setNameERK7QString.clean 0x0001deb0   Section       22  moc_qdeclarativecontactorganization_p.o(i._ZN31QDeclarativeContactOrganization7setNameERK7QString.clean)
    i._ZN31QDeclarativeContactOrganization7setRoleERK7QString 0x0001dec8   Section      120  moc_qdeclarativecontactorganization_p.o(i._ZN31QDeclarativeContactOrganization7setRoleERK7QString)
    i._ZN31QDeclarativeContactOrganization7setRoleERK7QString.clean 0x0001df40   Section       22  moc_qdeclarativecontactorganization_p.o(i._ZN31QDeclarativeContactOrganization7setRoleERK7QString.clean)
    i._ZN31QDeclarativeContactOrganization8setTitleERK7QString 0x0001df58   Section      120  moc_qdeclarativecontactorganization_p.o(i._ZN31QDeclarativeContactOrganization8setTitleERK7QString)
    i._ZN31QDeclarativeContactOrganization8setTitleERK7QString.clean 0x0001dfd0   Section       22  moc_qdeclarativecontactorganization_p.o(i._ZN31QDeclarativeContactOrganization8setTitleERK7QString.clean)
    i._ZN31QDeclarativeContactOrganizationC1EP7QObject 0x0001dfe8   Section      124  plugin.o(i._ZN31QDeclarativeContactOrganizationC1EP7QObject)
    i._ZN31QDeclarativeContactOrganizationC1EP7QObject.clean 0x0001e064   Section       16  plugin.o(i._ZN31QDeclarativeContactOrganizationC1EP7QObject.clean)
    i._ZN31QDeclarativeContactOrganizationD0Ev 0x0001e074   Section       24  moc_qdeclarativecontactorganization_p.o(i._ZN31QDeclarativeContactOrganizationD0Ev)
    i._ZN31QDeclarativeContactOrganizationD1Ev 0x0001e08c   Section       14  moc_qdeclarativecontactorganization_p.o(i._ZN31QDeclarativeContactOrganizationD1Ev)
    i._ZN31QDeclarativeContactRelationshipD0Ev 0x0001e09a   Section       22  moc_qdeclarativecontactrelationship_p.o(i._ZN31QDeclarativeContactRelationshipD0Ev)
    i._ZN31QDeclarativeContactRelationshipD1Ev 0x0001e0b0   Section       36  moc_qdeclarativecontactrelationship_p.o(i._ZN31QDeclarativeContactRelationshipD1Ev)
    i._ZN31QDeclarativeContactRelationshipD1Ev.clean 0x0001e0d4   Section       10  moc_qdeclarativecontactrelationship_p.o(i._ZN31QDeclarativeContactRelationshipD1Ev.clean)
    i._ZN32QDeclarativeContactInvalidFilterD0Ev 0x0001e0de   Section       22  moc_qdeclarativecontactinvalidfilter_p.o(i._ZN32QDeclarativeContactInvalidFilterD0Ev)
    i._ZN32QDeclarativeContactInvalidFilterD1Ev 0x0001e0f4   Section       16  moc_qdeclarativecontactinvalidfilter_p.o(i._ZN32QDeclarativeContactInvalidFilterD1Ev)
    i._ZN32QDeclarativeContactLocalIdFilter6setIdsERK11QStringList 0x0001e104   Section      420  moc_qdeclarativecontactlocalidfilter_p.o(i._ZN32QDeclarativeContactLocalIdFilter6setIdsERK11QStringList)
    i._ZN32QDeclarativeContactLocalIdFilter6setIdsERK11QStringList.clean 0x0001e2a8   Section       46  moc_qdeclarativecontactlocalidfilter_p.o(i._ZN32QDeclarativeContactLocalIdFilter6setIdsERK11QStringList.clean)
    i._ZN32QDeclarativeContactLocalIdFilterD0Ev 0x0001e2d6   Section       22  moc_qdeclarativecontactlocalidfilter_p.o(i._ZN32QDeclarativeContactLocalIdFilterD0Ev)
    i._ZN32QDeclarativeContactLocalIdFilterD1Ev 0x0001e2ec   Section       36  plugin.o(i._ZN32QDeclarativeContactLocalIdFilterD1Ev)
    i._ZN32QDeclarativeContactLocalIdFilterD1Ev.clean 0x0001e310   Section       10  plugin.o(i._ZN32QDeclarativeContactLocalIdFilterD1Ev.clean)
    i._ZN32QDeclarativeContactOnlineAccount11setSubTypesERK8QVariant 0x0001e31c   Section      876  moc_qdeclarativecontactonlineaccount_p.o(i._ZN32QDeclarativeContactOnlineAccount11setSubTypesERK8QVariant)
    i._ZN32QDeclarativeContactOnlineAccount11setSubTypesERK8QVariant.clean 0x0001e688   Section      144  moc_qdeclarativecontactonlineaccount_p.o(i._ZN32QDeclarativeContactOnlineAccount11setSubTypesERK8QVariant.clean)
    i._ZN32QDeclarativeContactOnlineAccount13setAccountUriERK7QString 0x0001e718   Section      120  moc_qdeclarativecontactonlineaccount_p.o(i._ZN32QDeclarativeContactOnlineAccount13setAccountUriERK7QString)
    i._ZN32QDeclarativeContactOnlineAccount13setAccountUriERK7QString.clean 0x0001e790   Section       22  moc_qdeclarativecontactonlineaccount_p.o(i._ZN32QDeclarativeContactOnlineAccount13setAccountUriERK7QString.clean)
    i._ZN32QDeclarativeContactOnlineAccount15setCapabilitiesERK11QStringList 0x0001e7a8   Section      160  moc_qdeclarativecontactonlineaccount_p.o(i._ZN32QDeclarativeContactOnlineAccount15setCapabilitiesERK11QStringList)
    i._ZN32QDeclarativeContactOnlineAccount15setCapabilitiesERK11QStringList.clean 0x0001e848   Section       42  moc_qdeclarativecontactonlineaccount_p.o(i._ZN32QDeclarativeContactOnlineAccount15setCapabilitiesERK11QStringList.clean)
    i._ZN32QDeclarativeContactOnlineAccount18setServiceProviderERK7QString 0x0001e874   Section      120  moc_qdeclarativecontactonlineaccount_p.o(i._ZN32QDeclarativeContactOnlineAccount18setServiceProviderERK7QString)
    i._ZN32QDeclarativeContactOnlineAccount18setServiceProviderERK7QString.clean 0x0001e8ec   Section       22  moc_qdeclarativecontactonlineaccount_p.o(i._ZN32QDeclarativeContactOnlineAccount18setServiceProviderERK7QString.clean)
    i._ZN32QDeclarativeContactOnlineAccount22fieldNameFromFieldTypeEi 0x0001e904   Section      168  qdeclarativecontactdetail.o(i._ZN32QDeclarativeContactOnlineAccount22fieldNameFromFieldTypeEi)
    i._ZN32QDeclarativeContactOnlineAccount22fieldNameFromFieldTypeEi.clean 0x0001e9ac   Section       16  qdeclarativecontactdetail.o(i._ZN32QDeclarativeContactOnlineAccount22fieldNameFromFieldTypeEi.clean)
    i._ZN32QDeclarativeContactOnlineAccountC1EP7QObject 0x0001e9bc   Section      124  plugin.o(i._ZN32QDeclarativeContactOnlineAccountC1EP7QObject)
    i._ZN32QDeclarativeContactOnlineAccountC1EP7QObject.clean 0x0001ea38   Section       16  plugin.o(i._ZN32QDeclarativeContactOnlineAccountC1EP7QObject.clean)
    i._ZN32QDeclarativeContactOnlineAccountD0Ev 0x0001ea48   Section       24  moc_qdeclarativecontactonlineaccount_p.o(i._ZN32QDeclarativeContactOnlineAccountD0Ev)
    i._ZN32QDeclarativeContactOnlineAccountD1Ev 0x0001ea60   Section       14  moc_qdeclarativecontactonlineaccount_p.o(i._ZN32QDeclarativeContactOnlineAccountD1Ev)
    i._ZN33QDeclarativeContactGlobalPresence11setNicknameERK7QString 0x0001ea70   Section      120  moc_qdeclarativecontactglobalpresence_p.o(i._ZN33QDeclarativeContactGlobalPresence11setNicknameERK7QString)
    i._ZN33QDeclarativeContactGlobalPresence11setNicknameERK7QString.clean 0x0001eae8   Section       22  moc_qdeclarativecontactglobalpresence_p.o(i._ZN33QDeclarativeContactGlobalPresence11setNicknameERK7QString.clean)
    i._ZN33QDeclarativeContactGlobalPresence12setTimestampERK9QDateTime 0x0001eb00   Section      124  moc_qdeclarativecontactglobalpresence_p.o(i._ZN33QDeclarativeContactGlobalPresence12setTimestampERK9QDateTime)
    i._ZN33QDeclarativeContactGlobalPresence12setTimestampERK9QDateTime.clean 0x0001eb7c   Section       22  moc_qdeclarativecontactglobalpresence_p.o(i._ZN33QDeclarativeContactGlobalPresence12setTimestampERK9QDateTime.clean)
    i._ZN33QDeclarativeContactGlobalPresence16setCustomMessageERK7QString 0x0001eb94   Section      120  moc_qdeclarativecontactglobalpresence_p.o(i._ZN33QDeclarativeContactGlobalPresence16setCustomMessageERK7QString)
    i._ZN33QDeclarativeContactGlobalPresence16setCustomMessageERK7QString.clean 0x0001ec0c   Section       22  moc_qdeclarativecontactglobalpresence_p.o(i._ZN33QDeclarativeContactGlobalPresence16setCustomMessageERK7QString.clean)
    i._ZN33QDeclarativeContactGlobalPresence20setPresenceStateTextERK7QString 0x0001ec24   Section      120  moc_qdeclarativecontactglobalpresence_p.o(i._ZN33QDeclarativeContactGlobalPresence20setPresenceStateTextERK7QString)
    i._ZN33QDeclarativeContactGlobalPresence20setPresenceStateTextERK7QString.clean 0x0001ec9c   Section       22  moc_qdeclarativecontactglobalpresence_p.o(i._ZN33QDeclarativeContactGlobalPresence20setPresenceStateTextERK7QString.clean)
    i._ZN33QDeclarativeContactGlobalPresence22fieldNameFromFieldTypeEi 0x0001ecb4   Section      200  qdeclarativecontactdetail.o(i._ZN33QDeclarativeContactGlobalPresence22fieldNameFromFieldTypeEi)
    i._ZN33QDeclarativeContactGlobalPresence22fieldNameFromFieldTypeEi.clean 0x0001ed7c   Section       16  qdeclarativecontactdetail.o(i._ZN33QDeclarativeContactGlobalPresence22fieldNameFromFieldTypeEi.clean)
    i._ZN33QDeclarativeContactGlobalPresence24setPresenceStateImageUrlERK4QUrl 0x0001ed8c   Section      120  moc_qdeclarativecontactglobalpresence_p.o(i._ZN33QDeclarativeContactGlobalPresence24setPresenceStateImageUrlERK4QUrl)
    i._ZN33QDeclarativeContactGlobalPresence24setPresenceStateImageUrlERK4QUrl.clean 0x0001ee04   Section       22  moc_qdeclarativecontactglobalpresence_p.o(i._ZN33QDeclarativeContactGlobalPresence24setPresenceStateImageUrlERK4QUrl.clean)
    i._ZN33QDeclarativeContactGlobalPresenceC1EP7QObject 0x0001ee1c   Section      124  plugin.o(i._ZN33QDeclarativeContactGlobalPresenceC1EP7QObject)
    i._ZN33QDeclarativeContactGlobalPresenceC1EP7QObject.clean 0x0001ee98   Section       16  plugin.o(i._ZN33QDeclarativeContactGlobalPresenceC1EP7QObject.clean)
    i._ZN33QDeclarativeContactGlobalPresenceD0Ev 0x0001eea8   Section       24  moc_qdeclarativecontactglobalpresence_p.o(i._ZN33QDeclarativeContactGlobalPresenceD0Ev)
    i._ZN33QDeclarativeContactGlobalPresenceD1Ev 0x0001eec0   Section       14  moc_qdeclarativecontactglobalpresence_p.o(i._ZN33QDeclarativeContactGlobalPresenceD1Ev)
    i._ZN33QDeclarativeOpenMetaObjectPrivate14createPropertyERK10QByteArrayS2_ 0x0001eed0   Section      224  qdeclarativeopenmetaobject.o(i._ZN33QDeclarativeOpenMetaObjectPrivate14createPropertyERK10QByteArrayS2_)
    i._ZN33QDeclarativeOpenMetaObjectPrivate14createPropertyERK10QByteArrayS2_.clean 0x0001efb0   Section       42  qdeclarativeopenmetaobject.o(i._ZN33QDeclarativeOpenMetaObjectPrivate14createPropertyERK10QByteArrayS2_.clean)
    i._ZN34QDeclarativeContactChangeLogFilterD0Ev 0x0001efda   Section       22  moc_qdeclarativecontactchangelogfilter_p.o(i._ZN34QDeclarativeContactChangeLogFilterD0Ev)
    i._ZN34QDeclarativeContactChangeLogFilterD1Ev 0x0001eff0   Section       36  plugin.o(i._ZN34QDeclarativeContactChangeLogFilterD1Ev)
    i._ZN34QDeclarativeContactChangeLogFilterD1Ev.clean 0x0001f014   Section       10  plugin.o(i._ZN34QDeclarativeContactChangeLogFilterD1Ev.clean)
    i._ZN36QDeclarativeContactDetailRangeFilter10classBeginEv 0x0001f01e   Section        2  moc_qdeclarativecontactdetailrangefilter_p.o(i._ZN36QDeclarativeContactDetailRangeFilter10classBeginEv)
    i._ZN36QDeclarativeContactDetailRangeFilter13setRangeFlagsE6QFlagsINS_9RangeFlagEE 0x0001f020   Section      150  moc_qdeclarativecontactdetailrangefilter_p.o(i._ZN36QDeclarativeContactDetailRangeFilter13setRangeFlagsE6QFlagsINS_9RangeFlagEE)
    i._ZN36QDeclarativeContactDetailRangeFilter13setRangeFlagsE6QFlagsINS_9RangeFlagEE.clean 0x0001f0b6   Section       16  moc_qdeclarativecontactdetailrangefilter_p.o(i._ZN36QDeclarativeContactDetailRangeFilter13setRangeFlagsE6QFlagsINS_9RangeFlagEE.clean)
    i._ZN36QDeclarativeContactDetailRangeFilter17componentCompleteEv 0x0001f0c6   Section       16  moc_qdeclarativecontactdetailrangefilter_p.o(i._ZN36QDeclarativeContactDetailRangeFilter17componentCompleteEv)
    i._ZN36QDeclarativeContactDetailRangeFilter23setDetailDefinitionNameEv 0x0001f0d6   Section      256  moc_qdeclarativecontactdetailrangefilter_p.o(i._ZN36QDeclarativeContactDetailRangeFilter23setDetailDefinitionNameEv)
    i._ZN36QDeclarativeContactDetailRangeFilter23setDetailDefinitionNameEv.clean 0x0001f1d6   Section       62  moc_qdeclarativecontactdetailrangefilter_p.o(i._ZN36QDeclarativeContactDetailRangeFilter23setDetailDefinitionNameEv.clean)
    i._ZN36QDeclarativeContactDetailRangeFilterC1EP7QObject 0x0001f214   Section      136  plugin.o(i._ZN36QDeclarativeContactDetailRangeFilterC1EP7QObject)
    i._ZN36QDeclarativeContactDetailRangeFilterC1EP7QObject.clean 0x0001f29c   Section       58  plugin.o(i._ZN36QDeclarativeContactDetailRangeFilterC1EP7QObject.clean)
    i._ZN36QDeclarativeContactDetailRangeFilterD0Ev 0x0001f2d6   Section       22  moc_qdeclarativecontactdetailrangefilter_p.o(i._ZN36QDeclarativeContactDetailRangeFilterD0Ev)
    i._ZN36QDeclarativeContactDetailRangeFilterD1Ev 0x0001f2ec   Section       76  plugin.o(i._ZN36QDeclarativeContactDetailRangeFilterD1Ev)
    i._ZN36QDeclarativeContactDetailRangeFilterD1Ev.clean 0x0001f338   Section       46  plugin.o(i._ZN36QDeclarativeContactDetailRangeFilterD1Ev.clean)
    i._ZN37QDeclarativeContactIntersectionFilterD0Ev 0x0001f366   Section       22  moc_qdeclarativecontactintersectionfilter_p.o(i._ZN37QDeclarativeContactIntersectionFilterD0Ev)
    i._ZN37QDeclarativeContactIntersectionFilterD1Ev 0x0001f37c   Section       36  plugin.o(i._ZN37QDeclarativeContactIntersectionFilterD1Ev)
    i._ZN37QDeclarativeContactIntersectionFilterD1Ev.clean 0x0001f3a0   Section       10  plugin.o(i._ZN37QDeclarativeContactIntersectionFilterD1Ev.clean)
    i._ZN37QDeclarativeContactRelationshipFilter19setRelationshipTypeERK8QVariant 0x0001f3ac   Section      384  moc_qdeclarativecontactrelationshipfilter_p.o(i._ZN37QDeclarativeContactRelationshipFilter19setRelationshipTypeERK8QVariant)
    i._ZN37QDeclarativeContactRelationshipFilter19setRelationshipTypeERK8QVariant.clean 0x0001f52c   Section       30  moc_qdeclarativecontactrelationshipfilter_p.o(i._ZN37QDeclarativeContactRelationshipFilter19setRelationshipTypeERK8QVariant.clean)
    i._ZN37QDeclarativeContactRelationshipFilterD0Ev 0x0001f54a   Section       22  moc_qdeclarativecontactrelationshipfilter_p.o(i._ZN37QDeclarativeContactRelationshipFilterD0Ev)
    i._ZN37QDeclarativeContactRelationshipFilterD1Ev 0x0001f560   Section       36  plugin.o(i._ZN37QDeclarativeContactRelationshipFilterD1Ev)
    i._ZN37QDeclarativeContactRelationshipFilterD1Ev.clean 0x0001f584   Section       10  plugin.o(i._ZN37QDeclarativeContactRelationshipFilterD1Ev.clean)
    i._ZN40qCleanupResources_contacts__dest_class__D1Ev 0x0001f58e   Section       12  qrc_contacts.o(i._ZN40qCleanupResources_contacts__dest_class__D1Ev)
    i._ZN4QSetI7QStringED1Ev                 0x0001f59a   Section       14  moc_qdeclarativecontactaddress_p.o(i._ZN4QSetI7QStringED1Ev)
    i._ZN4QSetIjED1Ev                        0x0001f5a8   Section       14  moc_qdeclarativecontactlocalidfilter_p.o(i._ZN4QSetIjED1Ev)
    i._ZN6QDebug10maybeSpaceEv               0x0001f5b6   Section       24  qdeclarativecontactrelationshipmodel.o(i._ZN6QDebug10maybeSpaceEv)
    i._ZN6QDebugD1Ev                         0x0001f5ce   Section      150  qdeclarativecontactrelationship.o(i._ZN6QDebugD1Ev)
    i._ZN6QDebugD1Ev.clean                   0x0001f664   Section       20  qdeclarativecontactrelationship.o(i._ZN6QDebugD1Ev.clean)
    i._ZN7QStringC1EPKc                      0x0001f678   Section       22  qdeclarativecontactdetail.o(i._ZN7QStringC1EPKc)
    i._ZN7QStringC1ERK13QLatin1String        0x0001f68e   Section       26  qdeclarativecontactmodel.o(i._ZN7QStringC1ERK13QLatin1String)
    i._ZN7QStringC1ERKS_                     0x0001f6a8   Section       22  moc_qdeclarativecontactaddress_p.o(i._ZN7QStringC1ERKS_)
    i._ZN7QStringC1Ev                        0x0001f6c0   Section       24  plugin.o(i._ZN7QStringC1Ev)
    i._ZN7QStringD1Ev                        0x0001f6d8   Section       24  moc_qdeclarativecontactaddress_p.o(i._ZN7QStringD1Ev)
    i._ZN7QStringaSEPKc                      0x0001f6f0   Section       40  moc_qdeclarativecontactanniversary_p.o(i._ZN7QStringaSEPKc)
    i._ZN7QStringaSEPKc.clean                0x0001f718   Section       10  moc_qdeclarativecontactanniversary_p.o(i._ZN7QStringaSEPKc.clean)
    i._ZN7QStringaSERK13QLatin1String        0x0001f722   Section       42  moc_qdeclarativecontacturl_p.o(i._ZN7QStringaSERK13QLatin1String)
    i._ZN7QStringaSERK13QLatin1String.clean  0x0001f74c   Section       10  moc_qdeclarativecontacturl_p.o(i._ZN7QStringaSERK13QLatin1String.clean)
    i._ZN8QVariantC1Ev                       0x0001f756   Section       38  plugin.o(i._ZN8QVariantC1Ev)
    i._ZNK10QtMobility14QContactAvatar8imageUrlEv 0x0001f77c   Section       32  qdeclarativecontactimageprovider.o(i._ZNK10QtMobility14QContactAvatar8imageUrlEv)
    i._ZNK10QtMobility17QContactThumbnail9thumbnailEv 0x0001f79c   Section       32  qdeclarativecontactmodel.o(i._ZNK10QtMobility17QContactThumbnail9thumbnailEv)
    i._ZNK15QBasicAtomicInteqEi              0x0001f7bc   Section       16  qdeclarativecontactmodel.o(i._ZNK15QBasicAtomicInteqEi)
    i._ZNK15QBasicAtomicIntneEi              0x0001f7cc   Section       16  moc_qdeclarativecontactaddress_p.o(i._ZNK15QBasicAtomicIntneEi)
    i._ZNK15QBasicAtomicIntntEv              0x0001f7dc   Section       16  plugin.o(i._ZNK15QBasicAtomicIntntEv)
    i._ZNK22QDeclarativeContactTag10detailTypeEv 0x0001f7ec   Section        6  moc_qdeclarativecontacttag_p.o(i._ZNK22QDeclarativeContactTag10detailTypeEv)
    i._ZNK22QDeclarativeContactTag3tagEv     0x0001f7f4   Section       40  moc_qdeclarativecontacttag_p.o(i._ZNK22QDeclarativeContactTag3tagEv)
    i._ZNK22QDeclarativeContactUrl10detailTypeEv 0x0001f81c   Section        6  moc_qdeclarativecontacturl_p.o(i._ZNK22QDeclarativeContactUrl10detailTypeEv)
    i._ZNK22QDeclarativeContactUrl3urlEv     0x0001f824   Section       40  moc_qdeclarativecontacturl_p.o(i._ZNK22QDeclarativeContactUrl3urlEv)
    i._ZNK23QDeclarativeContactGuid10detailTypeEv 0x0001f84c   Section        6  moc_qdeclarativecontactguid_p.o(i._ZNK23QDeclarativeContactGuid10detailTypeEv)
    i._ZNK23QDeclarativeContactGuid4guidEv   0x0001f854   Section       40  moc_qdeclarativecontactguid_p.o(i._ZNK23QDeclarativeContactGuid4guidEv)
    i._ZNK23QDeclarativeContactName10detailTypeEv 0x0001f87c   Section        6  moc_qdeclarativecontactname_p.o(i._ZNK23QDeclarativeContactName10detailTypeEv)
    i._ZNK23QDeclarativeContactName10middleNameEv 0x0001f884   Section       40  moc_qdeclarativecontactname_p.o(i._ZNK23QDeclarativeContactName10middleNameEv)
    i._ZNK23QDeclarativeContactName11customLabelEv 0x0001f8ac   Section       40  moc_qdeclarativecontactname_p.o(i._ZNK23QDeclarativeContactName11customLabelEv)
    i._ZNK23QDeclarativeContactName6prefixEv 0x0001f8d4   Section       40  moc_qdeclarativecontactname_p.o(i._ZNK23QDeclarativeContactName6prefixEv)
    i._ZNK23QDeclarativeContactName6suffixEv 0x0001f8fc   Section       40  moc_qdeclarativecontactname_p.o(i._ZNK23QDeclarativeContactName6suffixEv)
    i._ZNK23QDeclarativeContactName8lastNameEv 0x0001f924   Section       40  moc_qdeclarativecontactname_p.o(i._ZNK23QDeclarativeContactName8lastNameEv)
    i._ZNK23QDeclarativeContactName9firstNameEv 0x0001f94c   Section       40  moc_qdeclarativecontactname_p.o(i._ZNK23QDeclarativeContactName9firstNameEv)
    i._ZNK23QDeclarativeContactNote10detailTypeEv 0x0001f974   Section        6  moc_qdeclarativecontactnote_p.o(i._ZNK23QDeclarativeContactNote10detailTypeEv)
    i._ZNK23QDeclarativeContactNote4noteEv   0x0001f97c   Section       40  moc_qdeclarativecontactnote_p.o(i._ZNK23QDeclarativeContactNote4noteEv)
    i._ZNK24QDeclarativeContactHobby10detailTypeEv 0x0001f9a4   Section        6  moc_qdeclarativecontacthobby_p.o(i._ZNK24QDeclarativeContactHobby10detailTypeEv)
    i._ZNK24QDeclarativeContactHobby5hobbyEv 0x0001f9ac   Section       40  moc_qdeclarativecontacthobby_p.o(i._ZNK24QDeclarativeContactHobby5hobbyEv)
    i._ZNK25QDeclarativeContactAvatar10detailTypeEv 0x0001f9d4   Section        6  moc_qdeclarativecontactavatar_p.o(i._ZNK25QDeclarativeContactAvatar10detailTypeEv)
    i._ZNK25QDeclarativeContactAvatar8imageUrlEv 0x0001f9dc   Section       40  moc_qdeclarativecontactavatar_p.o(i._ZNK25QDeclarativeContactAvatar8imageUrlEv)
    i._ZNK25QDeclarativeContactAvatar8videoUrlEv 0x0001fa04   Section       40  moc_qdeclarativecontactavatar_p.o(i._ZNK25QDeclarativeContactAvatar8videoUrlEv)
    i._ZNK25QDeclarativeContactFamily10detailTypeEv 0x0001fa2c   Section        6  moc_qdeclarativecontactfamily_p.o(i._ZNK25QDeclarativeContactFamily10detailTypeEv)
    i._ZNK25QDeclarativeContactFamily6spouseEv 0x0001fa34   Section       40  moc_qdeclarativecontactfamily_p.o(i._ZNK25QDeclarativeContactFamily6spouseEv)
    i._ZNK25QDeclarativeContactFamily8childrenEv 0x0001fa5c   Section       40  moc_qdeclarativecontactfamily_p.o(i._ZNK25QDeclarativeContactFamily8childrenEv)
    i._ZNK25QDeclarativeContactFilter6filterEv 0x0001fa84   Section       16  moc_qdeclarativecontactfilter_p.o(i._ZNK25QDeclarativeContactFilter6filterEv)
    i._ZNK25QDeclarativeContactGender10detailTypeEv 0x0001fa94   Section        6  moc_qdeclarativecontactgender_p.o(i._ZNK25QDeclarativeContactGender10detailTypeEv)
    i._ZNK25QDeclarativeContactGender6genderEv 0x0001fa9c   Section       68  moc_qdeclarativecontactgender_p.o(i._ZNK25QDeclarativeContactGender6genderEv)
    i._ZNK25QDeclarativeContactGender6genderEv.clean 0x0001fae0   Section       10  moc_qdeclarativecontactgender_p.o(i._ZNK25QDeclarativeContactGender6genderEv.clean)
    i._ZNK25QMetaMethodBuilderPrivate10methodTypeEv 0x0001faea   Section       12  qmetaobjectbuilder.o(i._ZNK25QMetaMethodBuilderPrivate10methodTypeEv)
    i._ZNK26QDeclarativeContactAddress10detailTypeEv 0x0001faf6   Section        6  moc_qdeclarativecontactaddress_p.o(i._ZNK26QDeclarativeContactAddress10detailTypeEv)
    i._ZNK26QDeclarativeContactAddress13postOfficeBoxEv 0x0001fafc   Section       40  moc_qdeclarativecontactaddress_p.o(i._ZNK26QDeclarativeContactAddress13postOfficeBoxEv)
    i._ZNK26QDeclarativeContactAddress6regionEv 0x0001fb24   Section       40  moc_qdeclarativecontactaddress_p.o(i._ZNK26QDeclarativeContactAddress6regionEv)
    i._ZNK26QDeclarativeContactAddress6streetEv 0x0001fb4c   Section       40  moc_qdeclarativecontactaddress_p.o(i._ZNK26QDeclarativeContactAddress6streetEv)
    i._ZNK26QDeclarativeContactAddress7countryEv 0x0001fb74   Section       40  moc_qdeclarativecontactaddress_p.o(i._ZNK26QDeclarativeContactAddress7countryEv)
    i._ZNK26QDeclarativeContactAddress8localityEv 0x0001fb9c   Section       40  moc_qdeclarativecontactaddress_p.o(i._ZNK26QDeclarativeContactAddress8localityEv)
    i._ZNK26QDeclarativeContactAddress8postcodeEv 0x0001fbc4   Section       40  moc_qdeclarativecontactaddress_p.o(i._ZNK26QDeclarativeContactAddress8postcodeEv)
    i._ZNK27QDeclarativeContactBirthday10detailTypeEv 0x0001fbec   Section        6  moc_qdeclarativecontactbirthday_p.o(i._ZNK27QDeclarativeContactBirthday10detailTypeEv)
    i._ZNK27QDeclarativeContactFavorite10detailTypeEv 0x0001fbf2   Section        6  moc_qdeclarativecontactfavorite_p.o(i._ZNK27QDeclarativeContactFavorite10detailTypeEv)
    i._ZNK27QDeclarativeContactFavorite10isFavoriteEv 0x0001fbf8   Section       60  moc_qdeclarativecontactfavorite_p.o(i._ZNK27QDeclarativeContactFavorite10isFavoriteEv)
    i._ZNK27QDeclarativeContactFavorite10isFavoriteEv.clean 0x0001fc34   Section       10  moc_qdeclarativecontactfavorite_p.o(i._ZNK27QDeclarativeContactFavorite10isFavoriteEv.clean)
    i._ZNK27QDeclarativeContactFavorite5indexEv 0x0001fc40   Section       60  moc_qdeclarativecontactfavorite_p.o(i._ZNK27QDeclarativeContactFavorite5indexEv)
    i._ZNK27QDeclarativeContactFavorite5indexEv.clean 0x0001fc7c   Section       10  moc_qdeclarativecontactfavorite_p.o(i._ZNK27QDeclarativeContactFavorite5indexEv.clean)
    i._ZNK27QDeclarativeContactNickname10detailTypeEv 0x0001fc86   Section        6  moc_qdeclarativecontactnickname_p.o(i._ZNK27QDeclarativeContactNickname10detailTypeEv)
    i._ZNK27QDeclarativeContactNickname8nicknameEv 0x0001fc8c   Section       40  moc_qdeclarativecontactnickname_p.o(i._ZNK27QDeclarativeContactNickname8nicknameEv)
    i._ZNK27QDeclarativeContactPresence10detailTypeEv 0x0001fcb4   Section        6  moc_qdeclarativecontactpresence_p.o(i._ZNK27QDeclarativeContactPresence10detailTypeEv)
    i._ZNK27QDeclarativeContactPresence13customMessageEv 0x0001fcbc   Section       40  moc_qdeclarativecontactpresence_p.o(i._ZNK27QDeclarativeContactPresence13customMessageEv)
    i._ZNK27QDeclarativeContactPresence13presenceStateEv 0x0001fce4   Section      120  moc_qdeclarativecontactpresence_p.o(i._ZNK27QDeclarativeContactPresence13presenceStateEv)
    i._ZNK27QDeclarativeContactPresence13presenceStateEv.clean 0x0001fd5c   Section       10  moc_qdeclarativecontactpresence_p.o(i._ZNK27QDeclarativeContactPresence13presenceStateEv.clean)
    i._ZNK27QDeclarativeContactPresence17presenceStateTextEv 0x0001fd68   Section       40  moc_qdeclarativecontactpresence_p.o(i._ZNK27QDeclarativeContactPresence17presenceStateTextEv)
    i._ZNK27QDeclarativeContactPresence21presenceStateImageUrlEv 0x0001fd90   Section       56  moc_qdeclarativecontactpresence_p.o(i._ZNK27QDeclarativeContactPresence21presenceStateImageUrlEv)
    i._ZNK27QDeclarativeContactPresence21presenceStateImageUrlEv.clean 0x0001fdc8   Section       10  moc_qdeclarativecontactpresence_p.o(i._ZNK27QDeclarativeContactPresence21presenceStateImageUrlEv.clean)
    i._ZNK27QDeclarativeContactPresence8nicknameEv 0x0001fdd4   Section       40  moc_qdeclarativecontactpresence_p.o(i._ZNK27QDeclarativeContactPresence8nicknameEv)
    i._ZNK27QDeclarativeContactPresence9timestampEv 0x0001fdfc   Section       40  moc_qdeclarativecontactpresence_p.o(i._ZNK27QDeclarativeContactPresence9timestampEv)
    i._ZNK27QDeclarativeContactRingtone10detailTypeEv 0x0001fe24   Section        6  moc_qdeclarativecontactringtone_p.o(i._ZNK27QDeclarativeContactRingtone10detailTypeEv)
    i._ZNK27QDeclarativeContactRingtone16audioRingtoneUrlEv 0x0001fe2c   Section       56  moc_qdeclarativecontactringtone_p.o(i._ZNK27QDeclarativeContactRingtone16audioRingtoneUrlEv)
    i._ZNK27QDeclarativeContactRingtone16audioRingtoneUrlEv.clean 0x0001fe64   Section       10  moc_qdeclarativecontactringtone_p.o(i._ZNK27QDeclarativeContactRingtone16audioRingtoneUrlEv.clean)
    i._ZNK27QDeclarativeContactRingtone16videoRingtoneUrlEv 0x0001fe70   Section       56  moc_qdeclarativecontactringtone_p.o(i._ZNK27QDeclarativeContactRingtone16videoRingtoneUrlEv)
    i._ZNK27QDeclarativeContactRingtone16videoRingtoneUrlEv.clean 0x0001fea8   Section       10  moc_qdeclarativecontactringtone_p.o(i._ZNK27QDeclarativeContactRingtone16videoRingtoneUrlEv.clean)
    i._ZNK27QDeclarativeContactRingtone20vibrationRingtoneUrlEv 0x0001feb4   Section       56  moc_qdeclarativecontactringtone_p.o(i._ZNK27QDeclarativeContactRingtone20vibrationRingtoneUrlEv)
    i._ZNK27QDeclarativeContactRingtone20vibrationRingtoneUrlEv.clean 0x0001feec   Section       10  moc_qdeclarativecontactringtone_p.o(i._ZNK27QDeclarativeContactRingtone20vibrationRingtoneUrlEv.clean)
    i._ZNK27QMetaPropertyBuilderPrivate4flagEi 0x0001fef6   Section       16  qmetaobjectbuilder.o(i._ZNK27QMetaPropertyBuilderPrivate4flagEi)
    i._ZNK28QDeclarativeContactTimestamp10detailTypeEv 0x0001ff06   Section        6  moc_qdeclarativecontacttimestamp_p.o(i._ZNK28QDeclarativeContactTimestamp10detailTypeEv)
    i._ZNK28QDeclarativeContactTimestamp12lastModifiedEv 0x0001ff0c   Section       40  moc_qdeclarativecontacttimestamp_p.o(i._ZNK28QDeclarativeContactTimestamp12lastModifiedEv)
    i._ZNK28QDeclarativeContactTimestamp7createdEv 0x0001ff34   Section       40  moc_qdeclarativecontacttimestamp_p.o(i._ZNK28QDeclarativeContactTimestamp7createdEv)
    i._ZNK29QDeclarativeContactSyncTarget10detailTypeEv 0x0001ff5c   Section        6  moc_qdeclarativecontactsynctarget_p.o(i._ZNK29QDeclarativeContactSyncTarget10detailTypeEv)
    i._ZNK29QDeclarativeContactSyncTarget10syncTargetEv 0x0001ff64   Section       40  moc_qdeclarativecontactsynctarget_p.o(i._ZNK29QDeclarativeContactSyncTarget10syncTargetEv)
    i._ZNK30QDeclarativeContactAnniversary10calendarIdEv 0x0001ff8c   Section       40  moc_qdeclarativecontactanniversary_p.o(i._ZNK30QDeclarativeContactAnniversary10calendarIdEv)
    i._ZNK30QDeclarativeContactAnniversary10detailTypeEv 0x0001ffb4   Section        6  moc_qdeclarativecontactanniversary_p.o(i._ZNK30QDeclarativeContactAnniversary10detailTypeEv)
    i._ZNK30QDeclarativeContactAnniversary12originalDateEv 0x0001ffbc   Section      132  moc_qdeclarativecontactanniversary_p.o(i._ZNK30QDeclarativeContactAnniversary12originalDateEv)
    i._ZNK30QDeclarativeContactAnniversary12originalDateEv.clean 0x00020040   Section       10  moc_qdeclarativecontactanniversary_p.o(i._ZNK30QDeclarativeContactAnniversary12originalDateEv.clean)
    i._ZNK30QDeclarativeContactAnniversary16originalDateTimeEv 0x0002004c   Section       40  moc_qdeclarativecontactanniversary_p.o(i._ZNK30QDeclarativeContactAnniversary16originalDateTimeEv)
    i._ZNK30QDeclarativeContactAnniversary5eventEv 0x00020074   Section       40  moc_qdeclarativecontactanniversary_p.o(i._ZNK30QDeclarativeContactAnniversary5eventEv)
    i._ZNK30QDeclarativeContactAnniversary7subTypeEv 0x0002009c   Section      176  moc_qdeclarativecontactanniversary_p.o(i._ZNK30QDeclarativeContactAnniversary7subTypeEv)
    i._ZNK30QDeclarativeContactAnniversary7subTypeEv.clean 0x0002014c   Section       10  moc_qdeclarativecontactanniversary_p.o(i._ZNK30QDeclarativeContactAnniversary7subTypeEv.clean)
    i._ZNK30QDeclarativeContactGeoLocation10detailTypeEv 0x00020156   Section        6  moc_qdeclarativecontactgeolocation_p.o(i._ZNK30QDeclarativeContactGeoLocation10detailTypeEv)
    i._ZNK30QDeclarativeContactGeoLocation16altitudeAccuracyEv 0x0002015c   Section       68  moc_qdeclarativecontactgeolocation_p.o(i._ZNK30QDeclarativeContactGeoLocation16altitudeAccuracyEv)
    i._ZNK30QDeclarativeContactGeoLocation16altitudeAccuracyEv.clean 0x000201a0   Section       10  moc_qdeclarativecontactgeolocation_p.o(i._ZNK30QDeclarativeContactGeoLocation16altitudeAccuracyEv.clean)
    i._ZNK30QDeclarativeContactGeoLocation5labelEv 0x000201ac   Section       40  moc_qdeclarativecontactgeolocation_p.o(i._ZNK30QDeclarativeContactGeoLocation5labelEv)
    i._ZNK30QDeclarativeContactGeoLocation5speedEv 0x000201d4   Section       68  moc_qdeclarativecontactgeolocation_p.o(i._ZNK30QDeclarativeContactGeoLocation5speedEv)
    i._ZNK30QDeclarativeContactGeoLocation5speedEv.clean 0x00020218   Section       10  moc_qdeclarativecontactgeolocation_p.o(i._ZNK30QDeclarativeContactGeoLocation5speedEv.clean)
    i._ZNK30QDeclarativeContactGeoLocation7headingEv 0x00020224   Section       68  moc_qdeclarativecontactgeolocation_p.o(i._ZNK30QDeclarativeContactGeoLocation7headingEv)
    i._ZNK30QDeclarativeContactGeoLocation7headingEv.clean 0x00020268   Section       10  moc_qdeclarativecontactgeolocation_p.o(i._ZNK30QDeclarativeContactGeoLocation7headingEv.clean)
    i._ZNK30QDeclarativeContactGeoLocation8accuracyEv 0x00020274   Section       68  moc_qdeclarativecontactgeolocation_p.o(i._ZNK30QDeclarativeContactGeoLocation8accuracyEv)
    i._ZNK30QDeclarativeContactGeoLocation8accuracyEv.clean 0x000202b8   Section       10  moc_qdeclarativecontactgeolocation_p.o(i._ZNK30QDeclarativeContactGeoLocation8accuracyEv.clean)
    i._ZNK30QDeclarativeContactGeoLocation8altitudeEv 0x000202c4   Section       68  moc_qdeclarativecontactgeolocation_p.o(i._ZNK30QDeclarativeContactGeoLocation8altitudeEv)
    i._ZNK30QDeclarativeContactGeoLocation8altitudeEv.clean 0x00020308   Section       10  moc_qdeclarativecontactgeolocation_p.o(i._ZNK30QDeclarativeContactGeoLocation8altitudeEv.clean)
    i._ZNK30QDeclarativeContactGeoLocation8latitudeEv 0x00020314   Section       68  moc_qdeclarativecontactgeolocation_p.o(i._ZNK30QDeclarativeContactGeoLocation8latitudeEv)
    i._ZNK30QDeclarativeContactGeoLocation8latitudeEv.clean 0x00020358   Section       10  moc_qdeclarativecontactgeolocation_p.o(i._ZNK30QDeclarativeContactGeoLocation8latitudeEv.clean)
    i._ZNK30QDeclarativeContactGeoLocation9longitudeEv 0x00020364   Section       68  moc_qdeclarativecontactgeolocation_p.o(i._ZNK30QDeclarativeContactGeoLocation9longitudeEv)
    i._ZNK30QDeclarativeContactGeoLocation9longitudeEv.clean 0x000203a8   Section       10  moc_qdeclarativecontactgeolocation_p.o(i._ZNK30QDeclarativeContactGeoLocation9longitudeEv.clean)
    i._ZNK30QDeclarativeContactGeoLocation9timestampEv 0x000203b4   Section       56  moc_qdeclarativecontactgeolocation_p.o(i._ZNK30QDeclarativeContactGeoLocation9timestampEv)
    i._ZNK30QDeclarativeContactGeoLocation9timestampEv.clean 0x000203ec   Section       10  moc_qdeclarativecontactgeolocation_p.o(i._ZNK30QDeclarativeContactGeoLocation9timestampEv.clean)
    i._ZNK30QDeclarativeContactPhoneNumber10detailTypeEv 0x000203f6   Section        6  moc_qdeclarativecontactphonenumber_p.o(i._ZNK30QDeclarativeContactPhoneNumber10detailTypeEv)
    i._ZNK30QDeclarativeContactPhoneNumber6numberEv 0x000203fc   Section       40  moc_qdeclarativecontactphonenumber_p.o(i._ZNK30QDeclarativeContactPhoneNumber6numberEv)
    i._ZNK30QDeclarativeContactUnionFilter6filterEv 0x00020424   Section      180  plugin.o(i._ZNK30QDeclarativeContactUnionFilter6filterEv)
    i._ZNK30QDeclarativeContactUnionFilter6filterEv.clean 0x000204d8   Section       30  plugin.o(i._ZNK30QDeclarativeContactUnionFilter6filterEv.clean)
    i._ZNK31QDeclarativeContactActionFilter6filterEv 0x000204f6   Section       20  moc_qdeclarativecontactactionfilter_p.o(i._ZNK31QDeclarativeContactActionFilter6filterEv)
    i._ZNK31QDeclarativeContactDetailFilter6filterEv 0x0002050a   Section       20  moc_qdeclarativecontactdetailfilter_p.o(i._ZNK31QDeclarativeContactDetailFilter6filterEv)
    i._ZNK31QDeclarativeContactDisplayLabel10detailTypeEv 0x0002051e   Section        6  moc_qdeclarativecontactdisplaylabel_p.o(i._ZNK31QDeclarativeContactDisplayLabel10detailTypeEv)
    i._ZNK31QDeclarativeContactEmailAddress10detailTypeEv 0x00020524   Section        6  moc_qdeclarativecontactemailaddress_p.o(i._ZNK31QDeclarativeContactEmailAddress10detailTypeEv)
    i._ZNK31QDeclarativeContactEmailAddress12emailAddressEv 0x0002052c   Section       40  moc_qdeclarativecontactemailaddress_p.o(i._ZNK31QDeclarativeContactEmailAddress12emailAddressEv)
    i._ZNK31QDeclarativeContactOrganization10departmentEv 0x00020554   Section       40  moc_qdeclarativecontactorganization_p.o(i._ZNK31QDeclarativeContactOrganization10departmentEv)
    i._ZNK31QDeclarativeContactOrganization10detailTypeEv 0x0002057c   Section        6  moc_qdeclarativecontactorganization_p.o(i._ZNK31QDeclarativeContactOrganization10detailTypeEv)
    i._ZNK31QDeclarativeContactOrganization13assistantNameEv 0x00020584   Section       40  moc_qdeclarativecontactorganization_p.o(i._ZNK31QDeclarativeContactOrganization13assistantNameEv)
    i._ZNK31QDeclarativeContactOrganization4nameEv 0x000205ac   Section       40  moc_qdeclarativecontactorganization_p.o(i._ZNK31QDeclarativeContactOrganization4nameEv)
    i._ZNK31QDeclarativeContactOrganization4roleEv 0x000205d4   Section       40  moc_qdeclarativecontactorganization_p.o(i._ZNK31QDeclarativeContactOrganization4roleEv)
    i._ZNK31QDeclarativeContactOrganization5titleEv 0x000205fc   Section       40  moc_qdeclarativecontactorganization_p.o(i._ZNK31QDeclarativeContactOrganization5titleEv)
    i._ZNK31QDeclarativeContactOrganization7logoUrlEv 0x00020624   Section       56  moc_qdeclarativecontactorganization_p.o(i._ZNK31QDeclarativeContactOrganization7logoUrlEv)
    i._ZNK31QDeclarativeContactOrganization7logoUrlEv.clean 0x0002065c   Section       10  moc_qdeclarativecontactorganization_p.o(i._ZNK31QDeclarativeContactOrganization7logoUrlEv.clean)
    i._ZNK31QDeclarativeContactOrganization8locationEv 0x00020668   Section       40  moc_qdeclarativecontactorganization_p.o(i._ZNK31QDeclarativeContactOrganization8locationEv)
    i._ZNK32QDeclarativeContactInvalidFilter6filterEv 0x00020690   Section       36  moc_qdeclarativecontactinvalidfilter_p.o(i._ZNK32QDeclarativeContactInvalidFilter6filterEv)
    i._ZNK32QDeclarativeContactInvalidFilter6filterEv.clean 0x000206b4   Section       10  moc_qdeclarativecontactinvalidfilter_p.o(i._ZNK32QDeclarativeContactInvalidFilter6filterEv.clean)
    i._ZNK32QDeclarativeContactLocalIdFilter3idsEv 0x000206c0   Section      332  moc_qdeclarativecontactlocalidfilter_p.o(i._ZNK32QDeclarativeContactLocalIdFilter3idsEv)
    i._ZNK32QDeclarativeContactLocalIdFilter3idsEv.clean 0x0002080c   Section       40  moc_qdeclarativecontactlocalidfilter_p.o(i._ZNK32QDeclarativeContactLocalIdFilter3idsEv.clean)
    i._ZNK32QDeclarativeContactLocalIdFilter6filterEv 0x00020834   Section       20  moc_qdeclarativecontactlocalidfilter_p.o(i._ZNK32QDeclarativeContactLocalIdFilter6filterEv)
    i._ZNK32QDeclarativeContactOnlineAccount10accountUriEv 0x00020848   Section       40  moc_qdeclarativecontactonlineaccount_p.o(i._ZNK32QDeclarativeContactOnlineAccount10accountUriEv)
    i._ZNK32QDeclarativeContactOnlineAccount10detailTypeEv 0x00020870   Section        6  moc_qdeclarativecontactonlineaccount_p.o(i._ZNK32QDeclarativeContactOnlineAccount10detailTypeEv)
    i._ZNK32QDeclarativeContactOnlineAccount12capabilitiesEv 0x00020878   Section       40  moc_qdeclarativecontactonlineaccount_p.o(i._ZNK32QDeclarativeContactOnlineAccount12capabilitiesEv)
    i._ZNK32QDeclarativeContactOnlineAccount15serviceProviderEv 0x000208a0   Section       40  moc_qdeclarativecontactonlineaccount_p.o(i._ZNK32QDeclarativeContactOnlineAccount15serviceProviderEv)
    i._ZNK33QDeclarativeContactGlobalPresence10detailTypeEv 0x000208c8   Section        6  moc_qdeclarativecontactglobalpresence_p.o(i._ZNK33QDeclarativeContactGlobalPresence10detailTypeEv)
    i._ZNK33QDeclarativeContactGlobalPresence13customMessageEv 0x000208d0   Section       40  moc_qdeclarativecontactglobalpresence_p.o(i._ZNK33QDeclarativeContactGlobalPresence13customMessageEv)
    i._ZNK33QDeclarativeContactGlobalPresence13presenceStateEv 0x000208f8   Section      120  moc_qdeclarativecontactglobalpresence_p.o(i._ZNK33QDeclarativeContactGlobalPresence13presenceStateEv)
    i._ZNK33QDeclarativeContactGlobalPresence13presenceStateEv.clean 0x00020970   Section       10  moc_qdeclarativecontactglobalpresence_p.o(i._ZNK33QDeclarativeContactGlobalPresence13presenceStateEv.clean)
    i._ZNK33QDeclarativeContactGlobalPresence17presenceStateTextEv 0x0002097c   Section       40  moc_qdeclarativecontactglobalpresence_p.o(i._ZNK33QDeclarativeContactGlobalPresence17presenceStateTextEv)
    i._ZNK33QDeclarativeContactGlobalPresence21presenceStateImageUrlEv 0x000209a4   Section       40  moc_qdeclarativecontactglobalpresence_p.o(i._ZNK33QDeclarativeContactGlobalPresence21presenceStateImageUrlEv)
    i._ZNK33QDeclarativeContactGlobalPresence8nicknameEv 0x000209cc   Section       40  moc_qdeclarativecontactglobalpresence_p.o(i._ZNK33QDeclarativeContactGlobalPresence8nicknameEv)
    i._ZNK33QDeclarativeContactGlobalPresence9timestampEv 0x000209f4   Section       40  moc_qdeclarativecontactglobalpresence_p.o(i._ZNK33QDeclarativeContactGlobalPresence9timestampEv)
    i._ZNK34QDeclarativeContactChangeLogFilter6filterEv 0x00020a1c   Section       20  moc_qdeclarativecontactchangelogfilter_p.o(i._ZNK34QDeclarativeContactChangeLogFilter6filterEv)
    i._ZNK36QDeclarativeContactDetailRangeFilter6filterEv 0x00020a30   Section       20  moc_qdeclarativecontactdetailrangefilter_p.o(i._ZNK36QDeclarativeContactDetailRangeFilter6filterEv)
    i._ZNK37QDeclarativeContactIntersectionFilter6filterEv 0x00020a44   Section      180  plugin.o(i._ZNK37QDeclarativeContactIntersectionFilter6filterEv)
    i._ZNK37QDeclarativeContactIntersectionFilter6filterEv.clean 0x00020af8   Section       30  plugin.o(i._ZNK37QDeclarativeContactIntersectionFilter6filterEv.clean)
    i._ZNK37QDeclarativeContactRelationshipFilter16relationshipTypeEv 0x00020b16   Section       34  moc_qdeclarativecontactrelationshipfilter_p.o(i._ZNK37QDeclarativeContactRelationshipFilter16relationshipTypeEv)
    i._ZNK37QDeclarativeContactRelationshipFilter16relationshipTypeEv.clean 0x00020b38   Section       10  moc_qdeclarativecontactrelationshipfilter_p.o(i._ZNK37QDeclarativeContactRelationshipFilter16relationshipTypeEv.clean)
    i._ZNK37QDeclarativeContactRelationshipFilter18relatedContactRoleEv 0x00020b42   Section       38  moc_qdeclarativecontactrelationshipfilter_p.o(i._ZNK37QDeclarativeContactRelationshipFilter18relatedContactRoleEv)
    i._ZNK37QDeclarativeContactRelationshipFilter6filterEv 0x00020b68   Section       20  moc_qdeclarativecontactrelationshipfilter_p.o(i._ZNK37QDeclarativeContactRelationshipFilter6filterEv)
    i._ZNK7QObject7connectEPKS_PKcS3_N2Qt14ConnectionTypeE 0x00020b7c   Section       30  plugin.o(i._ZNK7QObject7connectEPKS_PKcS3_N2Qt14ConnectionTypeE)
    i._ZNK7QString3argEjiiRK5QChar           0x00020b9a   Section       36  qdeclarativecontactrelationshipmodel.o(i._ZNK7QString3argEjiiRK5QChar)
    i._ZNK7QStringeqEPKc                     0x00020bc0   Section       76  qdeclarativecontactmetaobject.o(i._ZNK7QStringeqEPKc)
    i._ZNK7QStringeqEPKc.clean               0x00020c0c   Section       10  qdeclarativecontactmetaobject.o(i._ZNK7QStringeqEPKc.clean)
    i._ZNK7QStringneERKS_                    0x00020c16   Section       20  moc_qdeclarativecontactaddress_p.o(i._ZNK7QStringneERKS_)
    i._ZNK8QVariantneERKS_                   0x00020c2a   Section       20  moc_qdeclarativecontactdetailfilter_p.o(i._ZNK8QVariantneERKS_)
    i._ZNK9QDateTimeneERKS_                  0x00020c3e   Section       20  moc_qdeclarativecontacttimestamp_p.o(i._ZNK9QDateTimeneERKS_)
    i._ZNK9QListData2atEi                    0x00020c52   Section       20  qdeclarativecontactmodel.o(i._ZNK9QListData2atEi)
    i._ZNK9QListData3endEv                   0x00020c66   Section       16  moc_qdeclarativecontactaddress_p.o(i._ZNK9QListData3endEv)
    i._ZNK9QListData4sizeEv                  0x00020c76   Section       14  qdeclarativecontactmodel.o(i._ZNK9QListData4sizeEv)
    i._ZNK9QListData5beginEv                 0x00020c84   Section       16  moc_qdeclarativecontactaddress_p.o(i._ZNK9QListData5beginEv)
    i._ZNK9QListData7isEmptyEv               0x00020c94   Section       22  qdeclarativecontactmodel.o(i._ZNK9QListData7isEmptyEv)
    i._ZThn8_N17QContactQmlPlugin13registerTypesEPKc 0x00020caa   Section       18  plugin.o(i._ZThn8_N17QContactQmlPlugin13registerTypesEPKc)
    i._ZThn8_N17QContactQmlPlugin16initializeEngineEP18QDeclarativeEnginePKc 0x00020cbc   Section       22  plugin.o(i._ZThn8_N17QContactQmlPlugin16initializeEngineEP18QDeclarativeEnginePKc)
    i._ZThn8_N17QContactQmlPluginD0Ev        0x00020cd2   Section       14  plugin.o(i._ZThn8_N17QContactQmlPluginD0Ev)
    i._ZThn8_N17QContactQmlPluginD1Ev        0x00020ce0   Section       18  plugin.o(i._ZThn8_N17QContactQmlPluginD1Ev)
    i._ZThn8_N19QDeclarativePrivate19QDeclarativeElementI24QDeclarativeContactModelED0Ev 0x00020cf2   Section       14  plugin.o(i._ZThn8_N19QDeclarativePrivate19QDeclarativeElementI24QDeclarativeContactModelED0Ev)
    i._ZThn8_N19QDeclarativePrivate19QDeclarativeElementI24QDeclarativeContactModelED1Ev 0x00020d00   Section       14  plugin.o(i._ZThn8_N19QDeclarativePrivate19QDeclarativeElementI24QDeclarativeContactModelED1Ev)
    i._ZThn8_N19QDeclarativePrivate19QDeclarativeElementI28QDeclarativeContactSortOrderED0Ev 0x00020d0e   Section       14  plugin.o(i._ZThn8_N19QDeclarativePrivate19QDeclarativeElementI28QDeclarativeContactSortOrderED0Ev)
    i._ZThn8_N19QDeclarativePrivate19QDeclarativeElementI28QDeclarativeContactSortOrderED1Ev 0x00020d1c   Section       14  plugin.o(i._ZThn8_N19QDeclarativePrivate19QDeclarativeElementI28QDeclarativeContactSortOrderED1Ev)
    i._ZThn8_N19QDeclarativePrivate19QDeclarativeElementI31QDeclarativeContactDetailFilterED0Ev 0x00020d2a   Section       14  plugin.o(i._ZThn8_N19QDeclarativePrivate19QDeclarativeElementI31QDeclarativeContactDetailFilterED0Ev)
    i._ZThn8_N19QDeclarativePrivate19QDeclarativeElementI31QDeclarativeContactDetailFilterED1Ev 0x00020d38   Section       14  plugin.o(i._ZThn8_N19QDeclarativePrivate19QDeclarativeElementI31QDeclarativeContactDetailFilterED1Ev)
    i._ZThn8_N19QDeclarativePrivate19QDeclarativeElementI36QDeclarativeContactDetailRangeFilterED0Ev 0x00020d46   Section       14  plugin.o(i._ZThn8_N19QDeclarativePrivate19QDeclarativeElementI36QDeclarativeContactDetailRangeFilterED0Ev)
    i._ZThn8_N19QDeclarativePrivate19QDeclarativeElementI36QDeclarativeContactDetailRangeFilterED1Ev 0x00020d54   Section       14  plugin.o(i._ZThn8_N19QDeclarativePrivate19QDeclarativeElementI36QDeclarativeContactDetailRangeFilterED1Ev)
    i._ZThn8_N24QDeclarativeContactModel10classBeginEv 0x00020d62   Section        4  moc_qdeclarativecontactmodel_p.o(i._ZThn8_N24QDeclarativeContactModel10classBeginEv)
    i._ZThn8_N24QDeclarativeContactModelD0Ev 0x00020d66   Section       14  moc_qdeclarativecontactmodel_p.o(i._ZThn8_N24QDeclarativeContactModelD0Ev)
    i._ZThn8_N24QDeclarativeContactModelD1Ev 0x00020d74   Section       14  moc_qdeclarativecontactmodel_p.o(i._ZThn8_N24QDeclarativeContactModelD1Ev)
    i._ZThn8_N28QDeclarativeContactSortOrder10classBeginEv 0x00020d82   Section        4  moc_qdeclarativecontactsortorder_p.o(i._ZThn8_N28QDeclarativeContactSortOrder10classBeginEv)
    i._ZThn8_N28QDeclarativeContactSortOrderD0Ev 0x00020d86   Section       14  moc_qdeclarativecontactsortorder_p.o(i._ZThn8_N28QDeclarativeContactSortOrderD0Ev)
    i._ZThn8_N28QDeclarativeContactSortOrderD1Ev 0x00020d94   Section       14  moc_qdeclarativecontactsortorder_p.o(i._ZThn8_N28QDeclarativeContactSortOrderD1Ev)
    i._ZThn8_N31QDeclarativeContactDetailFilter10classBeginEv 0x00020da2   Section        4  moc_qdeclarativecontactdetailfilter_p.o(i._ZThn8_N31QDeclarativeContactDetailFilter10classBeginEv)
    i._ZThn8_N31QDeclarativeContactDetailFilter17componentCompleteEv 0x00020da6   Section       18  moc_qdeclarativecontactdetailfilter_p.o(i._ZThn8_N31QDeclarativeContactDetailFilter17componentCompleteEv)
    i._ZThn8_N31QDeclarativeContactDetailFilterD0Ev 0x00020db8   Section       14  moc_qdeclarativecontactdetailfilter_p.o(i._ZThn8_N31QDeclarativeContactDetailFilterD0Ev)
    i._ZThn8_N31QDeclarativeContactDetailFilterD1Ev 0x00020dc6   Section       14  moc_qdeclarativecontactdetailfilter_p.o(i._ZThn8_N31QDeclarativeContactDetailFilterD1Ev)
    i._ZThn8_N36QDeclarativeContactDetailRangeFilter10classBeginEv 0x00020dd4   Section        4  moc_qdeclarativecontactdetailrangefilter_p.o(i._ZThn8_N36QDeclarativeContactDetailRangeFilter10classBeginEv)
    i._ZThn8_N36QDeclarativeContactDetailRangeFilter17componentCompleteEv 0x00020dd8   Section       18  moc_qdeclarativecontactdetailrangefilter_p.o(i._ZThn8_N36QDeclarativeContactDetailRangeFilter17componentCompleteEv)
    i._ZThn8_N36QDeclarativeContactDetailRangeFilterD0Ev 0x00020dea   Section       14  moc_qdeclarativecontactdetailrangefilter_p.o(i._ZThn8_N36QDeclarativeContactDetailRangeFilterD0Ev)
    i._ZThn8_N36QDeclarativeContactDetailRangeFilterD1Ev 0x00020df8   Section       14  moc_qdeclarativecontactdetailrangefilter_p.o(i._ZThn8_N36QDeclarativeContactDetailRangeFilterD1Ev)
    i._ZdlPvS_                               0x00020e06   Section        2  moc_qdeclarativecontactaddress_p.o(i._ZdlPvS_)
    i._ZeqRK10QByteArrayS1_                  0x00020e08   Section       68  qmetaobjectbuilder.o(i._ZeqRK10QByteArrayS1_)
    i._ZnwjPv                                0x00020e4c   Section        6  moc_qdeclarativecontactaddress_p.o(i._ZnwjPv)
    i._ZplPKcRK10QByteArray                  0x00020e52   Section       46  plugin.o(i._ZplPKcRK10QByteArray)
    i._ZplPKcRK10QByteArray.clean            0x00020e80   Section       10  plugin.o(i._ZplPKcRK10QByteArray.clean)
    i._ZplRK10QByteArrayPKc                  0x00020e8a   Section       46  plugin.o(i._ZplRK10QByteArrayPKc)
    i._ZplRK10QByteArrayPKc.clean            0x00020eb8   Section       10  plugin.o(i._ZplRK10QByteArrayPKc.clean)
    i._ZplRK10QByteArrayc                    0x00020ec2   Section       46  plugin.o(i._ZplRK10QByteArrayc)
    i._ZplRK10QByteArrayc.clean              0x00020ef0   Section       10  plugin.o(i._ZplRK10QByteArrayc.clean)
    t._Z10qDeleteAllIN5QListIP19QDeclarativeContactE14const_iteratorEEvT_S5_ 0x00020efa   Section       56  qdeclarativecontactmodel.o(t._Z10qDeleteAllIN5QListIP19QDeclarativeContactE14const_iteratorEEvT_S5_)
    t._Z12qobject_castIP19QDeclarativeContactET_P7QObject 0x00020f34   Section       32  qdeclarativecontactmetaobject.o(t._Z12qobject_castIP19QDeclarativeContactET_P7QObject)
    t._Z12qobject_castIP24QDeclarativeContactModelET_P7QObject 0x00020f54   Section       32  qdeclarativecontactmodel.o(t._Z12qobject_castIP24QDeclarativeContactModelET_P7QObject)
    t._Z15qMapLessThanKeyI10QByteArrayEbRKT_S3_ 0x00020f74   Section       20  qmetaobjectbuilder.o(t._Z15qMapLessThanKeyI10QByteArrayEbRKT_S3_)
    t._Z15qMapLessThanKeyI7QStringEbRKT_S3_  0x00020f88   Section       16  qdeclarativecontactimageprovider.o(t._Z15qMapLessThanKeyI7QStringEbRKT_S3_)
    t._Z15qMapLessThanKeyIjEbRKT_S2_         0x00020f98   Section       18  qdeclarativecontactmodel.o(t._Z15qMapLessThanKeyIjEbRKT_S2_)
    t._Z15qmlRegisterTypeI19QDeclarativeContactEiPKciiS2_ 0x00020fac   Section      280  plugin.o(t._Z15qmlRegisterTypeI19QDeclarativeContactEiPKciiS2_)
    t._Z15qmlRegisterTypeI19QDeclarativeContactEiPKciiS2_.clean 0x000210c4   Section       52  plugin.o(t._Z15qmlRegisterTypeI19QDeclarativeContactEiPKciiS2_.clean)
    t._Z15qmlRegisterTypeI22QDeclarativeContactTagEiPKciiS2_ 0x000210f8   Section      280  plugin.o(t._Z15qmlRegisterTypeI22QDeclarativeContactTagEiPKciiS2_)
    t._Z15qmlRegisterTypeI22QDeclarativeContactTagEiPKciiS2_.clean 0x00021210   Section       52  plugin.o(t._Z15qmlRegisterTypeI22QDeclarativeContactTagEiPKciiS2_.clean)
    t._Z15qmlRegisterTypeI22QDeclarativeContactUrlEiPKciiS2_ 0x00021244   Section      280  plugin.o(t._Z15qmlRegisterTypeI22QDeclarativeContactUrlEiPKciiS2_)
    t._Z15qmlRegisterTypeI22QDeclarativeContactUrlEiPKciiS2_.clean 0x0002135c   Section       52  plugin.o(t._Z15qmlRegisterTypeI22QDeclarativeContactUrlEiPKciiS2_.clean)
    t._Z15qmlRegisterTypeI23QDeclarativeContactGuidEiPKciiS2_ 0x00021390   Section      280  plugin.o(t._Z15qmlRegisterTypeI23QDeclarativeContactGuidEiPKciiS2_)
    t._Z15qmlRegisterTypeI23QDeclarativeContactGuidEiPKciiS2_.clean 0x000214a8   Section       52  plugin.o(t._Z15qmlRegisterTypeI23QDeclarativeContactGuidEiPKciiS2_.clean)
    t._Z15qmlRegisterTypeI23QDeclarativeContactNameEiPKciiS2_ 0x000214dc   Section      280  plugin.o(t._Z15qmlRegisterTypeI23QDeclarativeContactNameEiPKciiS2_)
    t._Z15qmlRegisterTypeI23QDeclarativeContactNameEiPKciiS2_.clean 0x000215f4   Section       52  plugin.o(t._Z15qmlRegisterTypeI23QDeclarativeContactNameEiPKciiS2_.clean)
    t._Z15qmlRegisterTypeI23QDeclarativeContactNoteEiPKciiS2_ 0x00021628   Section      280  plugin.o(t._Z15qmlRegisterTypeI23QDeclarativeContactNoteEiPKciiS2_)
    t._Z15qmlRegisterTypeI23QDeclarativeContactNoteEiPKciiS2_.clean 0x00021740   Section       52  plugin.o(t._Z15qmlRegisterTypeI23QDeclarativeContactNoteEiPKciiS2_.clean)
    t._Z15qmlRegisterTypeI24QDeclarativeContactHobbyEiPKciiS2_ 0x00021774   Section      280  plugin.o(t._Z15qmlRegisterTypeI24QDeclarativeContactHobbyEiPKciiS2_)
    t._Z15qmlRegisterTypeI24QDeclarativeContactHobbyEiPKciiS2_.clean 0x0002188c   Section       52  plugin.o(t._Z15qmlRegisterTypeI24QDeclarativeContactHobbyEiPKciiS2_.clean)
    t._Z15qmlRegisterTypeI24QDeclarativeContactModelEiPKciiS2_ 0x000218c0   Section      288  plugin.o(t._Z15qmlRegisterTypeI24QDeclarativeContactModelEiPKciiS2_)
    t._Z15qmlRegisterTypeI24QDeclarativeContactModelEiPKciiS2_.clean 0x000219e0   Section       52  plugin.o(t._Z15qmlRegisterTypeI24QDeclarativeContactModelEiPKciiS2_.clean)
    t._Z15qmlRegisterTypeI25QDeclarativeContactAvatarEiPKciiS2_ 0x00021a14   Section      280  plugin.o(t._Z15qmlRegisterTypeI25QDeclarativeContactAvatarEiPKciiS2_)
    t._Z15qmlRegisterTypeI25QDeclarativeContactAvatarEiPKciiS2_.clean 0x00021b2c   Section       52  plugin.o(t._Z15qmlRegisterTypeI25QDeclarativeContactAvatarEiPKciiS2_.clean)
    t._Z15qmlRegisterTypeI25QDeclarativeContactDetailEiPKciiS2_ 0x00021b60   Section      280  plugin.o(t._Z15qmlRegisterTypeI25QDeclarativeContactDetailEiPKciiS2_)
    t._Z15qmlRegisterTypeI25QDeclarativeContactDetailEiPKciiS2_.clean 0x00021c78   Section       52  plugin.o(t._Z15qmlRegisterTypeI25QDeclarativeContactDetailEiPKciiS2_.clean)
    t._Z15qmlRegisterTypeI25QDeclarativeContactFamilyEiPKciiS2_ 0x00021cac   Section      280  plugin.o(t._Z15qmlRegisterTypeI25QDeclarativeContactFamilyEiPKciiS2_)
    t._Z15qmlRegisterTypeI25QDeclarativeContactFamilyEiPKciiS2_.clean 0x00021dc4   Section       52  plugin.o(t._Z15qmlRegisterTypeI25QDeclarativeContactFamilyEiPKciiS2_.clean)
    t._Z15qmlRegisterTypeI25QDeclarativeContactFilterEiPKciiS2_ 0x00021df8   Section      280  plugin.o(t._Z15qmlRegisterTypeI25QDeclarativeContactFilterEiPKciiS2_)
    t._Z15qmlRegisterTypeI25QDeclarativeContactFilterEiPKciiS2_.clean 0x00021f10   Section       52  plugin.o(t._Z15qmlRegisterTypeI25QDeclarativeContactFilterEiPKciiS2_.clean)
    t._Z15qmlRegisterTypeI25QDeclarativeContactGenderEiPKciiS2_ 0x00021f44   Section      280  plugin.o(t._Z15qmlRegisterTypeI25QDeclarativeContactGenderEiPKciiS2_)
    t._Z15qmlRegisterTypeI25QDeclarativeContactGenderEiPKciiS2_.clean 0x0002205c   Section       52  plugin.o(t._Z15qmlRegisterTypeI25QDeclarativeContactGenderEiPKciiS2_.clean)
    t._Z15qmlRegisterTypeI26QDeclarativeContactAddressEiPKciiS2_ 0x00022090   Section      280  plugin.o(t._Z15qmlRegisterTypeI26QDeclarativeContactAddressEiPKciiS2_)
    t._Z15qmlRegisterTypeI26QDeclarativeContactAddressEiPKciiS2_.clean 0x000221a8   Section       52  plugin.o(t._Z15qmlRegisterTypeI26QDeclarativeContactAddressEiPKciiS2_.clean)
    t._Z15qmlRegisterTypeI27QDeclarativeContactBirthdayEiPKciiS2_ 0x000221dc   Section      280  plugin.o(t._Z15qmlRegisterTypeI27QDeclarativeContactBirthdayEiPKciiS2_)
    t._Z15qmlRegisterTypeI27QDeclarativeContactBirthdayEiPKciiS2_.clean 0x000222f4   Section       52  plugin.o(t._Z15qmlRegisterTypeI27QDeclarativeContactBirthdayEiPKciiS2_.clean)
    t._Z15qmlRegisterTypeI27QDeclarativeContactFavoriteEiPKciiS2_ 0x00022328   Section      280  plugin.o(t._Z15qmlRegisterTypeI27QDeclarativeContactFavoriteEiPKciiS2_)
    t._Z15qmlRegisterTypeI27QDeclarativeContactFavoriteEiPKciiS2_.clean 0x00022440   Section       52  plugin.o(t._Z15qmlRegisterTypeI27QDeclarativeContactFavoriteEiPKciiS2_.clean)
    t._Z15qmlRegisterTypeI27QDeclarativeContactNicknameEiPKciiS2_ 0x00022474   Section      280  plugin.o(t._Z15qmlRegisterTypeI27QDeclarativeContactNicknameEiPKciiS2_)
    t._Z15qmlRegisterTypeI27QDeclarativeContactNicknameEiPKciiS2_.clean 0x0002258c   Section       52  plugin.o(t._Z15qmlRegisterTypeI27QDeclarativeContactNicknameEiPKciiS2_.clean)
    t._Z15qmlRegisterTypeI27QDeclarativeContactPresenceEiPKciiS2_ 0x000225c0   Section      280  plugin.o(t._Z15qmlRegisterTypeI27QDeclarativeContactPresenceEiPKciiS2_)
    t._Z15qmlRegisterTypeI27QDeclarativeContactPresenceEiPKciiS2_.clean 0x000226d8   Section       52  plugin.o(t._Z15qmlRegisterTypeI27QDeclarativeContactPresenceEiPKciiS2_.clean)
    t._Z15qmlRegisterTypeI27QDeclarativeContactRingtoneEiPKciiS2_ 0x0002270c   Section      280  plugin.o(t._Z15qmlRegisterTypeI27QDeclarativeContactRingtoneEiPKciiS2_)
    t._Z15qmlRegisterTypeI27QDeclarativeContactRingtoneEiPKciiS2_.clean 0x00022824   Section       52  plugin.o(t._Z15qmlRegisterTypeI27QDeclarativeContactRingtoneEiPKciiS2_.clean)
    t._Z15qmlRegisterTypeI28QDeclarativeContactFetchHintEiPKciiS2_ 0x00022858   Section      280  plugin.o(t._Z15qmlRegisterTypeI28QDeclarativeContactFetchHintEiPKciiS2_)
    t._Z15qmlRegisterTypeI28QDeclarativeContactFetchHintEiPKciiS2_.clean 0x00022970   Section       52  plugin.o(t._Z15qmlRegisterTypeI28QDeclarativeContactFetchHintEiPKciiS2_.clean)
    t._Z15qmlRegisterTypeI28QDeclarativeContactSortOrderEiPKciiS2_ 0x000229a4   Section      288  plugin.o(t._Z15qmlRegisterTypeI28QDeclarativeContactSortOrderEiPKciiS2_)
    t._Z15qmlRegisterTypeI28QDeclarativeContactSortOrderEiPKciiS2_.clean 0x00022ac4   Section       52  plugin.o(t._Z15qmlRegisterTypeI28QDeclarativeContactSortOrderEiPKciiS2_.clean)
    t._Z15qmlRegisterTypeI28QDeclarativeContactTimestampEiPKciiS2_ 0x00022af8   Section      280  plugin.o(t._Z15qmlRegisterTypeI28QDeclarativeContactTimestampEiPKciiS2_)
    t._Z15qmlRegisterTypeI28QDeclarativeContactTimestampEiPKciiS2_.clean 0x00022c10   Section       52  plugin.o(t._Z15qmlRegisterTypeI28QDeclarativeContactTimestampEiPKciiS2_.clean)
    t._Z15qmlRegisterTypeI29QDeclarativeContactSyncTargetEiPKciiS2_ 0x00022c44   Section      280  plugin.o(t._Z15qmlRegisterTypeI29QDeclarativeContactSyncTargetEiPKciiS2_)
    t._Z15qmlRegisterTypeI29QDeclarativeContactSyncTargetEiPKciiS2_.clean 0x00022d5c   Section       52  plugin.o(t._Z15qmlRegisterTypeI29QDeclarativeContactSyncTargetEiPKciiS2_.clean)
    t._Z15qmlRegisterTypeI30QDeclarativeContactAnniversaryEiPKciiS2_ 0x00022d90   Section      280  plugin.o(t._Z15qmlRegisterTypeI30QDeclarativeContactAnniversaryEiPKciiS2_)
    t._Z15qmlRegisterTypeI30QDeclarativeContactAnniversaryEiPKciiS2_.clean 0x00022ea8   Section       52  plugin.o(t._Z15qmlRegisterTypeI30QDeclarativeContactAnniversaryEiPKciiS2_.clean)
    t._Z15qmlRegisterTypeI30QDeclarativeContactGeoLocationEiPKciiS2_ 0x00022edc   Section      280  plugin.o(t._Z15qmlRegisterTypeI30QDeclarativeContactGeoLocationEiPKciiS2_)
    t._Z15qmlRegisterTypeI30QDeclarativeContactGeoLocationEiPKciiS2_.clean 0x00022ff4   Section       52  plugin.o(t._Z15qmlRegisterTypeI30QDeclarativeContactGeoLocationEiPKciiS2_.clean)
    t._Z15qmlRegisterTypeI30QDeclarativeContactPhoneNumberEiPKciiS2_ 0x00023028   Section      280  plugin.o(t._Z15qmlRegisterTypeI30QDeclarativeContactPhoneNumberEiPKciiS2_)
    t._Z15qmlRegisterTypeI30QDeclarativeContactPhoneNumberEiPKciiS2_.clean 0x00023140   Section       52  plugin.o(t._Z15qmlRegisterTypeI30QDeclarativeContactPhoneNumberEiPKciiS2_.clean)
    t._Z15qmlRegisterTypeI30QDeclarativeContactUnionFilterEiPKciiS2_ 0x00023174   Section      280  plugin.o(t._Z15qmlRegisterTypeI30QDeclarativeContactUnionFilterEiPKciiS2_)
    t._Z15qmlRegisterTypeI30QDeclarativeContactUnionFilterEiPKciiS2_.clean 0x0002328c   Section       52  plugin.o(t._Z15qmlRegisterTypeI30QDeclarativeContactUnionFilterEiPKciiS2_.clean)
    t._Z15qmlRegisterTypeI31QDeclarativeContactActionFilterEiPKciiS2_ 0x000232c0   Section      280  plugin.o(t._Z15qmlRegisterTypeI31QDeclarativeContactActionFilterEiPKciiS2_)
    t._Z15qmlRegisterTypeI31QDeclarativeContactActionFilterEiPKciiS2_.clean 0x000233d8   Section       52  plugin.o(t._Z15qmlRegisterTypeI31QDeclarativeContactActionFilterEiPKciiS2_.clean)
    t._Z15qmlRegisterTypeI31QDeclarativeContactDetailFilterEiPKciiS2_ 0x0002340c   Section      288  plugin.o(t._Z15qmlRegisterTypeI31QDeclarativeContactDetailFilterEiPKciiS2_)
    t._Z15qmlRegisterTypeI31QDeclarativeContactDetailFilterEiPKciiS2_.clean 0x0002352c   Section       52  plugin.o(t._Z15qmlRegisterTypeI31QDeclarativeContactDetailFilterEiPKciiS2_.clean)
    t._Z15qmlRegisterTypeI31QDeclarativeContactDisplayLabelEiPKciiS2_ 0x00023560   Section      280  plugin.o(t._Z15qmlRegisterTypeI31QDeclarativeContactDisplayLabelEiPKciiS2_)
    t._Z15qmlRegisterTypeI31QDeclarativeContactDisplayLabelEiPKciiS2_.clean 0x00023678   Section       52  plugin.o(t._Z15qmlRegisterTypeI31QDeclarativeContactDisplayLabelEiPKciiS2_.clean)
    t._Z15qmlRegisterTypeI31QDeclarativeContactEmailAddressEiPKciiS2_ 0x000236ac   Section      280  plugin.o(t._Z15qmlRegisterTypeI31QDeclarativeContactEmailAddressEiPKciiS2_)
    t._Z15qmlRegisterTypeI31QDeclarativeContactEmailAddressEiPKciiS2_.clean 0x000237c4   Section       52  plugin.o(t._Z15qmlRegisterTypeI31QDeclarativeContactEmailAddressEiPKciiS2_.clean)
    t._Z15qmlRegisterTypeI31QDeclarativeContactOrganizationEiPKciiS2_ 0x000237f8   Section      280  plugin.o(t._Z15qmlRegisterTypeI31QDeclarativeContactOrganizationEiPKciiS2_)
    t._Z15qmlRegisterTypeI31QDeclarativeContactOrganizationEiPKciiS2_.clean 0x00023910   Section       52  plugin.o(t._Z15qmlRegisterTypeI31QDeclarativeContactOrganizationEiPKciiS2_.clean)
    t._Z15qmlRegisterTypeI31QDeclarativeContactRelationshipEiPKciiS2_ 0x00023944   Section      280  plugin.o(t._Z15qmlRegisterTypeI31QDeclarativeContactRelationshipEiPKciiS2_)
    t._Z15qmlRegisterTypeI31QDeclarativeContactRelationshipEiPKciiS2_.clean 0x00023a5c   Section       52  plugin.o(t._Z15qmlRegisterTypeI31QDeclarativeContactRelationshipEiPKciiS2_.clean)
    t._Z15qmlRegisterTypeI32QDeclarativeContactLocalIdFilterEiPKciiS2_ 0x00023a90   Section      280  plugin.o(t._Z15qmlRegisterTypeI32QDeclarativeContactLocalIdFilterEiPKciiS2_)
    t._Z15qmlRegisterTypeI32QDeclarativeContactLocalIdFilterEiPKciiS2_.clean 0x00023ba8   Section       52  plugin.o(t._Z15qmlRegisterTypeI32QDeclarativeContactLocalIdFilterEiPKciiS2_.clean)
    t._Z15qmlRegisterTypeI32QDeclarativeContactOnlineAccountEiPKciiS2_ 0x00023bdc   Section      280  plugin.o(t._Z15qmlRegisterTypeI32QDeclarativeContactOnlineAccountEiPKciiS2_)
    t._Z15qmlRegisterTypeI32QDeclarativeContactOnlineAccountEiPKciiS2_.clean 0x00023cf4   Section       52  plugin.o(t._Z15qmlRegisterTypeI32QDeclarativeContactOnlineAccountEiPKciiS2_.clean)
    t._Z15qmlRegisterTypeI33QDeclarativeContactGlobalPresenceEiPKciiS2_ 0x00023d28   Section      280  plugin.o(t._Z15qmlRegisterTypeI33QDeclarativeContactGlobalPresenceEiPKciiS2_)
    t._Z15qmlRegisterTypeI33QDeclarativeContactGlobalPresenceEiPKciiS2_.clean 0x00023e40   Section       52  plugin.o(t._Z15qmlRegisterTypeI33QDeclarativeContactGlobalPresenceEiPKciiS2_.clean)
    t._Z15qmlRegisterTypeI34QDeclarativeContactChangeLogFilterEiPKciiS2_ 0x00023e74   Section      280  plugin.o(t._Z15qmlRegisterTypeI34QDeclarativeContactChangeLogFilterEiPKciiS2_)
    t._Z15qmlRegisterTypeI34QDeclarativeContactChangeLogFilterEiPKciiS2_.clean 0x00023f8c   Section       52  plugin.o(t._Z15qmlRegisterTypeI34QDeclarativeContactChangeLogFilterEiPKciiS2_.clean)
    t._Z15qmlRegisterTypeI36QDeclarativeContactDetailRangeFilterEiPKciiS2_ 0x00023fc0   Section      288  plugin.o(t._Z15qmlRegisterTypeI36QDeclarativeContactDetailRangeFilterEiPKciiS2_)
    t._Z15qmlRegisterTypeI36QDeclarativeContactDetailRangeFilterEiPKciiS2_.clean 0x000240e0   Section       52  plugin.o(t._Z15qmlRegisterTypeI36QDeclarativeContactDetailRangeFilterEiPKciiS2_.clean)
    t._Z15qmlRegisterTypeI37QDeclarativeContactIntersectionFilterEiPKciiS2_ 0x00024114   Section      280  plugin.o(t._Z15qmlRegisterTypeI37QDeclarativeContactIntersectionFilterEiPKciiS2_)
    t._Z15qmlRegisterTypeI37QDeclarativeContactIntersectionFilterEiPKciiS2_.clean 0x0002422c   Section       52  plugin.o(t._Z15qmlRegisterTypeI37QDeclarativeContactIntersectionFilterEiPKciiS2_.clean)
    t._Z15qmlRegisterTypeI37QDeclarativeContactRelationshipFilterEiPKciiS2_ 0x00024260   Section      280  plugin.o(t._Z15qmlRegisterTypeI37QDeclarativeContactRelationshipFilterEiPKciiS2_)
    t._Z15qmlRegisterTypeI37QDeclarativeContactRelationshipFilterEiPKciiS2_.clean 0x00024378   Section       52  plugin.o(t._Z15qmlRegisterTypeI37QDeclarativeContactRelationshipFilterEiPKciiS2_.clean)
    t._Z17qRegisterMetaTypeI24QDeclarativeListPropertyI19QDeclarativeContactEEiPKcPT_ 0x000243ac   Section      160  plugin.o(t._Z17qRegisterMetaTypeI24QDeclarativeListPropertyI19QDeclarativeContactEEiPKcPT_)
    t._Z17qRegisterMetaTypeI24QDeclarativeListPropertyI22QDeclarativeContactTagEEiPKcPT_ 0x0002444c   Section      164  plugin.o(t._Z17qRegisterMetaTypeI24QDeclarativeListPropertyI22QDeclarativeContactTagEEiPKcPT_)
    t._Z17qRegisterMetaTypeI24QDeclarativeListPropertyI22QDeclarativeContactUrlEEiPKcPT_ 0x000244f0   Section      164  plugin.o(t._Z17qRegisterMetaTypeI24QDeclarativeListPropertyI22QDeclarativeContactUrlEEiPKcPT_)
    t._Z17qRegisterMetaTypeI24QDeclarativeListPropertyI23QDeclarativeContactGuidEEiPKcPT_ 0x00024594   Section      164  plugin.o(t._Z17qRegisterMetaTypeI24QDeclarativeListPropertyI23QDeclarativeContactGuidEEiPKcPT_)
    t._Z17qRegisterMetaTypeI24QDeclarativeListPropertyI23QDeclarativeContactNameEEiPKcPT_ 0x00024638   Section      164  plugin.o(t._Z17qRegisterMetaTypeI24QDeclarativeListPropertyI23QDeclarativeContactNameEEiPKcPT_)
    t._Z17qRegisterMetaTypeI24QDeclarativeListPropertyI23QDeclarativeContactNoteEEiPKcPT_ 0x000246dc   Section      164  plugin.o(t._Z17qRegisterMetaTypeI24QDeclarativeListPropertyI23QDeclarativeContactNoteEEiPKcPT_)
    t._Z17qRegisterMetaTypeI24QDeclarativeListPropertyI24QDeclarativeContactHobbyEEiPKcPT_ 0x00024780   Section      164  plugin.o(t._Z17qRegisterMetaTypeI24QDeclarativeListPropertyI24QDeclarativeContactHobbyEEiPKcPT_)
    t._Z17qRegisterMetaTypeI24QDeclarativeListPropertyI24QDeclarativeContactModelEEiPKcPT_ 0x00024824   Section       64  plugin.o(t._Z17qRegisterMetaTypeI24QDeclarativeListPropertyI24QDeclarativeContactModelEEiPKcPT_)
    t._Z17qRegisterMetaTypeI24QDeclarativeListPropertyI25QDeclarativeContactAvatarEEiPKcPT_ 0x00024864   Section      164  plugin.o(t._Z17qRegisterMetaTypeI24QDeclarativeListPropertyI25QDeclarativeContactAvatarEEiPKcPT_)
    t._Z17qRegisterMetaTypeI24QDeclarativeListPropertyI25QDeclarativeContactDetailEEiPKcPT_ 0x00024908   Section       64  qdeclarativecontact.o(t._Z17qRegisterMetaTypeI24QDeclarativeListPropertyI25QDeclarativeContactDetailEEiPKcPT_)
    t._Z17qRegisterMetaTypeI24QDeclarativeListPropertyI25QDeclarativeContactFamilyEEiPKcPT_ 0x00024948   Section      164  plugin.o(t._Z17qRegisterMetaTypeI24QDeclarativeListPropertyI25QDeclarativeContactFamilyEEiPKcPT_)
    t._Z17qRegisterMetaTypeI24QDeclarativeListPropertyI25QDeclarativeContactFilterEEiPKcPT_ 0x000249ec   Section      164  plugin.o(t._Z17qRegisterMetaTypeI24QDeclarativeListPropertyI25QDeclarativeContactFilterEEiPKcPT_)
    t._Z17qRegisterMetaTypeI24QDeclarativeListPropertyI25QDeclarativeContactGenderEEiPKcPT_ 0x00024a90   Section      164  plugin.o(t._Z17qRegisterMetaTypeI24QDeclarativeListPropertyI25QDeclarativeContactGenderEEiPKcPT_)
    t._Z17qRegisterMetaTypeI24QDeclarativeListPropertyI26QDeclarativeContactAddressEEiPKcPT_ 0x00024b34   Section      168  plugin.o(t._Z17qRegisterMetaTypeI24QDeclarativeListPropertyI26QDeclarativeContactAddressEEiPKcPT_)
    t._Z17qRegisterMetaTypeI24QDeclarativeListPropertyI27QDeclarativeContactBirthdayEEiPKcPT_ 0x00024bdc   Section      168  plugin.o(t._Z17qRegisterMetaTypeI24QDeclarativeListPropertyI27QDeclarativeContactBirthdayEEiPKcPT_)
    t._Z17qRegisterMetaTypeI24QDeclarativeListPropertyI27QDeclarativeContactFavoriteEEiPKcPT_ 0x00024c84   Section      168  plugin.o(t._Z17qRegisterMetaTypeI24QDeclarativeListPropertyI27QDeclarativeContactFavoriteEEiPKcPT_)
    t._Z17qRegisterMetaTypeI24QDeclarativeListPropertyI27QDeclarativeContactNicknameEEiPKcPT_ 0x00024d2c   Section      168  plugin.o(t._Z17qRegisterMetaTypeI24QDeclarativeListPropertyI27QDeclarativeContactNicknameEEiPKcPT_)
    t._Z17qRegisterMetaTypeI24QDeclarativeListPropertyI27QDeclarativeContactPresenceEEiPKcPT_ 0x00024dd4   Section      168  plugin.o(t._Z17qRegisterMetaTypeI24QDeclarativeListPropertyI27QDeclarativeContactPresenceEEiPKcPT_)
    t._Z17qRegisterMetaTypeI24QDeclarativeListPropertyI27QDeclarativeContactRingtoneEEiPKcPT_ 0x00024e7c   Section      168  plugin.o(t._Z17qRegisterMetaTypeI24QDeclarativeListPropertyI27QDeclarativeContactRingtoneEEiPKcPT_)
    t._Z17qRegisterMetaTypeI24QDeclarativeListPropertyI28QDeclarativeContactFetchHintEEiPKcPT_ 0x00024f24   Section      168  plugin.o(t._Z17qRegisterMetaTypeI24QDeclarativeListPropertyI28QDeclarativeContactFetchHintEEiPKcPT_)
    t._Z17qRegisterMetaTypeI24QDeclarativeListPropertyI28QDeclarativeContactSortOrderEEiPKcPT_ 0x00024fcc   Section      168  plugin.o(t._Z17qRegisterMetaTypeI24QDeclarativeListPropertyI28QDeclarativeContactSortOrderEEiPKcPT_)
    t._Z17qRegisterMetaTypeI24QDeclarativeListPropertyI28QDeclarativeContactTimestampEEiPKcPT_ 0x00025074   Section      168  plugin.o(t._Z17qRegisterMetaTypeI24QDeclarativeListPropertyI28QDeclarativeContactTimestampEEiPKcPT_)
    t._Z17qRegisterMetaTypeI24QDeclarativeListPropertyI29QDeclarativeContactSyncTargetEEiPKcPT_ 0x0002511c   Section      168  plugin.o(t._Z17qRegisterMetaTypeI24QDeclarativeListPropertyI29QDeclarativeContactSyncTargetEEiPKcPT_)
    t._Z17qRegisterMetaTypeI24QDeclarativeListPropertyI30QDeclarativeContactAnniversaryEEiPKcPT_ 0x000251c4   Section      172  plugin.o(t._Z17qRegisterMetaTypeI24QDeclarativeListPropertyI30QDeclarativeContactAnniversaryEEiPKcPT_)
    t._Z17qRegisterMetaTypeI24QDeclarativeListPropertyI30QDeclarativeContactGeoLocationEEiPKcPT_ 0x00025270   Section      172  plugin.o(t._Z17qRegisterMetaTypeI24QDeclarativeListPropertyI30QDeclarativeContactGeoLocationEEiPKcPT_)
    t._Z17qRegisterMetaTypeI24QDeclarativeListPropertyI30QDeclarativeContactPhoneNumberEEiPKcPT_ 0x0002531c   Section      172  plugin.o(t._Z17qRegisterMetaTypeI24QDeclarativeListPropertyI30QDeclarativeContactPhoneNumberEEiPKcPT_)
    t._Z17qRegisterMetaTypeI24QDeclarativeListPropertyI30QDeclarativeContactUnionFilterEEiPKcPT_ 0x000253c8   Section      172  plugin.o(t._Z17qRegisterMetaTypeI24QDeclarativeListPropertyI30QDeclarativeContactUnionFilterEEiPKcPT_)
    t._Z17qRegisterMetaTypeI24QDeclarativeListPropertyI31QDeclarativeContactActionFilterEEiPKcPT_ 0x00025474   Section      172  plugin.o(t._Z17qRegisterMetaTypeI24QDeclarativeListPropertyI31QDeclarativeContactActionFilterEEiPKcPT_)
    t._Z17qRegisterMetaTypeI24QDeclarativeListPropertyI31QDeclarativeContactDetailFilterEEiPKcPT_ 0x00025520   Section      172  plugin.o(t._Z17qRegisterMetaTypeI24QDeclarativeListPropertyI31QDeclarativeContactDetailFilterEEiPKcPT_)
    t._Z17qRegisterMetaTypeI24QDeclarativeListPropertyI31QDeclarativeContactDisplayLabelEEiPKcPT_ 0x000255cc   Section      172  plugin.o(t._Z17qRegisterMetaTypeI24QDeclarativeListPropertyI31QDeclarativeContactDisplayLabelEEiPKcPT_)
    t._Z17qRegisterMetaTypeI24QDeclarativeListPropertyI31QDeclarativeContactEmailAddressEEiPKcPT_ 0x00025678   Section      172  plugin.o(t._Z17qRegisterMetaTypeI24QDeclarativeListPropertyI31QDeclarativeContactEmailAddressEEiPKcPT_)
    t._Z17qRegisterMetaTypeI24QDeclarativeListPropertyI31QDeclarativeContactOrganizationEEiPKcPT_ 0x00025724   Section      172  plugin.o(t._Z17qRegisterMetaTypeI24QDeclarativeListPropertyI31QDeclarativeContactOrganizationEEiPKcPT_)
    t._Z17qRegisterMetaTypeI24QDeclarativeListPropertyI31QDeclarativeContactRelationshipEEiPKcPT_ 0x000257d0   Section      172  plugin.o(t._Z17qRegisterMetaTypeI24QDeclarativeListPropertyI31QDeclarativeContactRelationshipEEiPKcPT_)
    t._Z17qRegisterMetaTypeI24QDeclarativeListPropertyI32QDeclarativeContactLocalIdFilterEEiPKcPT_ 0x0002587c   Section      172  plugin.o(t._Z17qRegisterMetaTypeI24QDeclarativeListPropertyI32QDeclarativeContactLocalIdFilterEEiPKcPT_)
    t._Z17qRegisterMetaTypeI24QDeclarativeListPropertyI32QDeclarativeContactOnlineAccountEEiPKcPT_ 0x00025928   Section      172  plugin.o(t._Z17qRegisterMetaTypeI24QDeclarativeListPropertyI32QDeclarativeContactOnlineAccountEEiPKcPT_)
    t._Z17qRegisterMetaTypeI24QDeclarativeListPropertyI33QDeclarativeContactGlobalPresenceEEiPKcPT_ 0x000259d4   Section      172  plugin.o(t._Z17qRegisterMetaTypeI24QDeclarativeListPropertyI33QDeclarativeContactGlobalPresenceEEiPKcPT_)
    t._Z17qRegisterMetaTypeI24QDeclarativeListPropertyI34QDeclarativeContactChangeLogFilterEEiPKcPT_ 0x00025a80   Section      176  plugin.o(t._Z17qRegisterMetaTypeI24QDeclarativeListPropertyI34QDeclarativeContactChangeLogFilterEEiPKcPT_)
    t._Z17qRegisterMetaTypeI24QDeclarativeListPropertyI36QDeclarativeContactDetailRangeFilterEEiPKcPT_ 0x00025b30   Section      176  plugin.o(t._Z17qRegisterMetaTypeI24QDeclarativeListPropertyI36QDeclarativeContactDetailRangeFilterEEiPKcPT_)
    t._Z17qRegisterMetaTypeI24QDeclarativeListPropertyI37QDeclarativeContactIntersectionFilterEEiPKcPT_ 0x00025be0   Section      176  plugin.o(t._Z17qRegisterMetaTypeI24QDeclarativeListPropertyI37QDeclarativeContactIntersectionFilterEEiPKcPT_)
    t._Z17qRegisterMetaTypeI24QDeclarativeListPropertyI37QDeclarativeContactRelationshipFilterEEiPKcPT_ 0x00025c90   Section      176  plugin.o(t._Z17qRegisterMetaTypeI24QDeclarativeListPropertyI37QDeclarativeContactRelationshipFilterEEiPKcPT_)
    t._Z17qRegisterMetaTypeIP19QDeclarativeContactEiPKcPT_ 0x00025d40   Section       64  qdeclarativecontactmodel.o(t._Z17qRegisterMetaTypeIP19QDeclarativeContactEiPKcPT_)
    t._Z17qRegisterMetaTypeIP22QDeclarativeContactTagEiPKcPT_ 0x00025d80   Section      140  plugin.o(t._Z17qRegisterMetaTypeIP22QDeclarativeContactTagEiPKcPT_)
    t._Z17qRegisterMetaTypeIP22QDeclarativeContactUrlEiPKcPT_ 0x00025e0c   Section      140  plugin.o(t._Z17qRegisterMetaTypeIP22QDeclarativeContactUrlEiPKcPT_)
    t._Z17qRegisterMetaTypeIP23QDeclarativeContactGuidEiPKcPT_ 0x00025e98   Section      140  plugin.o(t._Z17qRegisterMetaTypeIP23QDeclarativeContactGuidEiPKcPT_)
    t._Z17qRegisterMetaTypeIP23QDeclarativeContactNameEiPKcPT_ 0x00025f24   Section      140  plugin.o(t._Z17qRegisterMetaTypeIP23QDeclarativeContactNameEiPKcPT_)
    t._Z17qRegisterMetaTypeIP23QDeclarativeContactNoteEiPKcPT_ 0x00025fb0   Section      140  plugin.o(t._Z17qRegisterMetaTypeIP23QDeclarativeContactNoteEiPKcPT_)
    t._Z17qRegisterMetaTypeIP24QDeclarativeContactHobbyEiPKcPT_ 0x0002603c   Section      140  plugin.o(t._Z17qRegisterMetaTypeIP24QDeclarativeContactHobbyEiPKcPT_)
    t._Z17qRegisterMetaTypeIP24QDeclarativeContactModelEiPKcPT_ 0x000260c8   Section       64  plugin.o(t._Z17qRegisterMetaTypeIP24QDeclarativeContactModelEiPKcPT_)
    t._Z17qRegisterMetaTypeIP25QDeclarativeContactAvatarEiPKcPT_ 0x00026108   Section      140  plugin.o(t._Z17qRegisterMetaTypeIP25QDeclarativeContactAvatarEiPKcPT_)
    t._Z17qRegisterMetaTypeIP25QDeclarativeContactDetailEiPKcPT_ 0x00026194   Section       64  qdeclarativecontact.o(t._Z17qRegisterMetaTypeIP25QDeclarativeContactDetailEiPKcPT_)
    t._Z17qRegisterMetaTypeIP25QDeclarativeContactFamilyEiPKcPT_ 0x000261d4   Section      140  plugin.o(t._Z17qRegisterMetaTypeIP25QDeclarativeContactFamilyEiPKcPT_)
    t._Z17qRegisterMetaTypeIP25QDeclarativeContactFilterEiPKcPT_ 0x00026260   Section      140  plugin.o(t._Z17qRegisterMetaTypeIP25QDeclarativeContactFilterEiPKcPT_)
    t._Z17qRegisterMetaTypeIP25QDeclarativeContactGenderEiPKcPT_ 0x000262ec   Section      140  plugin.o(t._Z17qRegisterMetaTypeIP25QDeclarativeContactGenderEiPKcPT_)
    t._Z17qRegisterMetaTypeIP26QDeclarativeContactAddressEiPKcPT_ 0x00026378   Section      144  plugin.o(t._Z17qRegisterMetaTypeIP26QDeclarativeContactAddressEiPKcPT_)
    t._Z17qRegisterMetaTypeIP27QDeclarativeContactBirthdayEiPKcPT_ 0x00026408   Section      144  plugin.o(t._Z17qRegisterMetaTypeIP27QDeclarativeContactBirthdayEiPKcPT_)
    t._Z17qRegisterMetaTypeIP27QDeclarativeContactFavoriteEiPKcPT_ 0x00026498   Section      144  plugin.o(t._Z17qRegisterMetaTypeIP27QDeclarativeContactFavoriteEiPKcPT_)
    t._Z17qRegisterMetaTypeIP27QDeclarativeContactNicknameEiPKcPT_ 0x00026528   Section      144  plugin.o(t._Z17qRegisterMetaTypeIP27QDeclarativeContactNicknameEiPKcPT_)
    t._Z17qRegisterMetaTypeIP27QDeclarativeContactPresenceEiPKcPT_ 0x000265b8   Section      144  plugin.o(t._Z17qRegisterMetaTypeIP27QDeclarativeContactPresenceEiPKcPT_)
    t._Z17qRegisterMetaTypeIP27QDeclarativeContactRingtoneEiPKcPT_ 0x00026648   Section      144  plugin.o(t._Z17qRegisterMetaTypeIP27QDeclarativeContactRingtoneEiPKcPT_)
    t._Z17qRegisterMetaTypeIP28QDeclarativeContactFetchHintEiPKcPT_ 0x000266d8   Section      144  plugin.o(t._Z17qRegisterMetaTypeIP28QDeclarativeContactFetchHintEiPKcPT_)
    t._Z17qRegisterMetaTypeIP28QDeclarativeContactSortOrderEiPKcPT_ 0x00026768   Section      144  plugin.o(t._Z17qRegisterMetaTypeIP28QDeclarativeContactSortOrderEiPKcPT_)
    t._Z17qRegisterMetaTypeIP28QDeclarativeContactTimestampEiPKcPT_ 0x000267f8   Section      144  plugin.o(t._Z17qRegisterMetaTypeIP28QDeclarativeContactTimestampEiPKcPT_)
    t._Z17qRegisterMetaTypeIP29QDeclarativeContactSyncTargetEiPKcPT_ 0x00026888   Section      144  plugin.o(t._Z17qRegisterMetaTypeIP29QDeclarativeContactSyncTargetEiPKcPT_)
    t._Z17qRegisterMetaTypeIP30QDeclarativeContactAnniversaryEiPKcPT_ 0x00026918   Section      148  plugin.o(t._Z17qRegisterMetaTypeIP30QDeclarativeContactAnniversaryEiPKcPT_)
    t._Z17qRegisterMetaTypeIP30QDeclarativeContactGeoLocationEiPKcPT_ 0x000269ac   Section      148  plugin.o(t._Z17qRegisterMetaTypeIP30QDeclarativeContactGeoLocationEiPKcPT_)
    t._Z17qRegisterMetaTypeIP30QDeclarativeContactPhoneNumberEiPKcPT_ 0x00026a40   Section      148  plugin.o(t._Z17qRegisterMetaTypeIP30QDeclarativeContactPhoneNumberEiPKcPT_)
    t._Z17qRegisterMetaTypeIP30QDeclarativeContactUnionFilterEiPKcPT_ 0x00026ad4   Section      148  plugin.o(t._Z17qRegisterMetaTypeIP30QDeclarativeContactUnionFilterEiPKcPT_)
    t._Z17qRegisterMetaTypeIP31QDeclarativeContactActionFilterEiPKcPT_ 0x00026b68   Section      148  plugin.o(t._Z17qRegisterMetaTypeIP31QDeclarativeContactActionFilterEiPKcPT_)
    t._Z17qRegisterMetaTypeIP31QDeclarativeContactDetailFilterEiPKcPT_ 0x00026bfc   Section      148  plugin.o(t._Z17qRegisterMetaTypeIP31QDeclarativeContactDetailFilterEiPKcPT_)
    t._Z17qRegisterMetaTypeIP31QDeclarativeContactDisplayLabelEiPKcPT_ 0x00026c90   Section      148  plugin.o(t._Z17qRegisterMetaTypeIP31QDeclarativeContactDisplayLabelEiPKcPT_)
    t._Z17qRegisterMetaTypeIP31QDeclarativeContactEmailAddressEiPKcPT_ 0x00026d24   Section      148  plugin.o(t._Z17qRegisterMetaTypeIP31QDeclarativeContactEmailAddressEiPKcPT_)
    t._Z17qRegisterMetaTypeIP31QDeclarativeContactOrganizationEiPKcPT_ 0x00026db8   Section      148  plugin.o(t._Z17qRegisterMetaTypeIP31QDeclarativeContactOrganizationEiPKcPT_)
    t._Z17qRegisterMetaTypeIP31QDeclarativeContactRelationshipEiPKcPT_ 0x00026e4c   Section       64  qdeclarativecontactrelationshipmodel.o(t._Z17qRegisterMetaTypeIP31QDeclarativeContactRelationshipEiPKcPT_)
    t._Z17qRegisterMetaTypeIP32QDeclarativeContactLocalIdFilterEiPKcPT_ 0x00026e8c   Section      148  plugin.o(t._Z17qRegisterMetaTypeIP32QDeclarativeContactLocalIdFilterEiPKcPT_)
    t._Z17qRegisterMetaTypeIP32QDeclarativeContactOnlineAccountEiPKcPT_ 0x00026f20   Section      148  plugin.o(t._Z17qRegisterMetaTypeIP32QDeclarativeContactOnlineAccountEiPKcPT_)
    t._Z17qRegisterMetaTypeIP33QDeclarativeContactGlobalPresenceEiPKcPT_ 0x00026fb4   Section      148  plugin.o(t._Z17qRegisterMetaTypeIP33QDeclarativeContactGlobalPresenceEiPKcPT_)
    t._Z17qRegisterMetaTypeIP34QDeclarativeContactChangeLogFilterEiPKcPT_ 0x00027048   Section      152  plugin.o(t._Z17qRegisterMetaTypeIP34QDeclarativeContactChangeLogFilterEiPKcPT_)
    t._Z17qRegisterMetaTypeIP36QDeclarativeContactDetailRangeFilterEiPKcPT_ 0x000270e0   Section      152  plugin.o(t._Z17qRegisterMetaTypeIP36QDeclarativeContactDetailRangeFilterEiPKcPT_)
    t._Z17qRegisterMetaTypeIP37QDeclarativeContactIntersectionFilterEiPKcPT_ 0x00027178   Section      152  plugin.o(t._Z17qRegisterMetaTypeIP37QDeclarativeContactIntersectionFilterEiPKcPT_)
    t._Z17qRegisterMetaTypeIP37QDeclarativeContactRelationshipFilterEiPKcPT_ 0x00027210   Section      152  plugin.o(t._Z17qRegisterMetaTypeIP37QDeclarativeContactRelationshipFilterEiPKcPT_)
    t._Z17qRegisterMetaTypeIjEiPKcPT_        0x000272a8   Section       68  plugin.o(t._Z17qRegisterMetaTypeIjEiPKcPT_)
    t._Z20qForeachContainerNewI5QListIN10QtMobility8QContactEEE17QForeachContainerIT_ERKS5_ 0x000272ec   Section      126  qdeclarativecontactmodel.o(t._Z20qForeachContainerNewI5QListIN10QtMobility8QContactEEE17QForeachContainerIT_ERKS5_)
    t._Z20qForeachContainerNewI5QListIN10QtMobility8QContactEEE17QForeachContainerIT_ERKS5_.clean 0x0002736a   Section       10  qdeclarativecontactmodel.o(t._Z20qForeachContainerNewI5QListIN10QtMobility8QContactEEE17QForeachContainerIT_ERKS5_.clean)
    t._Z20qForeachContainerNewI5QListIP25QDeclarativeContactDetailEE17QForeachContainerIT_ERKS5_ 0x00027374   Section      126  qdeclarativecontactmetaobject.o(t._Z20qForeachContainerNewI5QListIP25QDeclarativeContactDetailEE17QForeachContainerIT_ERKS5_)
    t._Z20qForeachContainerNewI5QListIP25QDeclarativeContactDetailEE17QForeachContainerIT_ERKS5_.clean 0x000273f2   Section       10  qdeclarativecontactmetaobject.o(t._Z20qForeachContainerNewI5QListIP25QDeclarativeContactDetailEE17QForeachContainerIT_ERKS5_.clean)
    t._Z20qForeachContainerNewI5QListIP25QDeclarativeContactFilterEE17QForeachContainerIT_ERKS5_ 0x000273fc   Section      126  plugin.o(t._Z20qForeachContainerNewI5QListIP25QDeclarativeContactFilterEE17QForeachContainerIT_ERKS5_)
    t._Z20qForeachContainerNewI5QListIP25QDeclarativeContactFilterEE17QForeachContainerIT_ERKS5_.clean 0x0002747a   Section       10  plugin.o(t._Z20qForeachContainerNewI5QListIP25QDeclarativeContactFilterEE17QForeachContainerIT_ERKS5_.clean)
    t._Z20qForeachContainerNewI5QListIP28QDeclarativeContactSortOrderEE17QForeachContainerIT_ERKS5_ 0x00027484   Section      126  qdeclarativecontactmodel.o(t._Z20qForeachContainerNewI5QListIP28QDeclarativeContactSortOrderEE17QForeachContainerIT_ERKS5_)
    t._Z20qForeachContainerNewI5QListIP28QDeclarativeContactSortOrderEE17QForeachContainerIT_ERKS5_.clean 0x00027502   Section       10  qdeclarativecontactmodel.o(t._Z20qForeachContainerNewI5QListIP28QDeclarativeContactSortOrderEE17QForeachContainerIT_ERKS5_.clean)
    t._Z20qForeachContainerNewI5QListIjEE17QForeachContainerIT_ERKS3_ 0x0002750c   Section      126  qdeclarativecontactmodel.o(t._Z20qForeachContainerNewI5QListIjEE17QForeachContainerIT_ERKS3_)
    t._Z20qForeachContainerNewI5QListIjEE17QForeachContainerIT_ERKS3_.clean 0x0002758a   Section       10  qdeclarativecontactmodel.o(t._Z20qForeachContainerNewI5QListIjEE17QForeachContainerIT_ERKS3_.clean)
    t._Z21qMetaTypeDeleteHelperI24QDeclarativeListPropertyI19QDeclarativeContactEEvPT_ 0x00027594   Section       12  plugin.o(t._Z21qMetaTypeDeleteHelperI24QDeclarativeListPropertyI19QDeclarativeContactEEvPT_)
    t._Z21qMetaTypeDeleteHelperI24QDeclarativeListPropertyI22QDeclarativeContactTagEEvPT_ 0x000275a0   Section       12  plugin.o(t._Z21qMetaTypeDeleteHelperI24QDeclarativeListPropertyI22QDeclarativeContactTagEEvPT_)
    t._Z21qMetaTypeDeleteHelperI24QDeclarativeListPropertyI22QDeclarativeContactUrlEEvPT_ 0x000275ac   Section       12  plugin.o(t._Z21qMetaTypeDeleteHelperI24QDeclarativeListPropertyI22QDeclarativeContactUrlEEvPT_)
    t._Z21qMetaTypeDeleteHelperI24QDeclarativeListPropertyI23QDeclarativeContactGuidEEvPT_ 0x000275b8   Section       12  plugin.o(t._Z21qMetaTypeDeleteHelperI24QDeclarativeListPropertyI23QDeclarativeContactGuidEEvPT_)
    t._Z21qMetaTypeDeleteHelperI24QDeclarativeListPropertyI23QDeclarativeContactNameEEvPT_ 0x000275c4   Section       12  plugin.o(t._Z21qMetaTypeDeleteHelperI24QDeclarativeListPropertyI23QDeclarativeContactNameEEvPT_)
    t._Z21qMetaTypeDeleteHelperI24QDeclarativeListPropertyI23QDeclarativeContactNoteEEvPT_ 0x000275d0   Section       12  plugin.o(t._Z21qMetaTypeDeleteHelperI24QDeclarativeListPropertyI23QDeclarativeContactNoteEEvPT_)
    t._Z21qMetaTypeDeleteHelperI24QDeclarativeListPropertyI24QDeclarativeContactHobbyEEvPT_ 0x000275dc   Section       12  plugin.o(t._Z21qMetaTypeDeleteHelperI24QDeclarativeListPropertyI24QDeclarativeContactHobbyEEvPT_)
    t._Z21qMetaTypeDeleteHelperI24QDeclarativeListPropertyI24QDeclarativeContactModelEEvPT_ 0x000275e8   Section       12  plugin.o(t._Z21qMetaTypeDeleteHelperI24QDeclarativeListPropertyI24QDeclarativeContactModelEEvPT_)
    t._Z21qMetaTypeDeleteHelperI24QDeclarativeListPropertyI25QDeclarativeContactAvatarEEvPT_ 0x000275f4   Section       12  plugin.o(t._Z21qMetaTypeDeleteHelperI24QDeclarativeListPropertyI25QDeclarativeContactAvatarEEvPT_)
    t._Z21qMetaTypeDeleteHelperI24QDeclarativeListPropertyI25QDeclarativeContactDetailEEvPT_ 0x00027600   Section       12  plugin.o(t._Z21qMetaTypeDeleteHelperI24QDeclarativeListPropertyI25QDeclarativeContactDetailEEvPT_)
    t._Z21qMetaTypeDeleteHelperI24QDeclarativeListPropertyI25QDeclarativeContactFamilyEEvPT_ 0x0002760c   Section       12  plugin.o(t._Z21qMetaTypeDeleteHelperI24QDeclarativeListPropertyI25QDeclarativeContactFamilyEEvPT_)
    t._Z21qMetaTypeDeleteHelperI24QDeclarativeListPropertyI25QDeclarativeContactFilterEEvPT_ 0x00027618   Section       12  plugin.o(t._Z21qMetaTypeDeleteHelperI24QDeclarativeListPropertyI25QDeclarativeContactFilterEEvPT_)
    t._Z21qMetaTypeDeleteHelperI24QDeclarativeListPropertyI25QDeclarativeContactGenderEEvPT_ 0x00027624   Section       12  plugin.o(t._Z21qMetaTypeDeleteHelperI24QDeclarativeListPropertyI25QDeclarativeContactGenderEEvPT_)
    t._Z21qMetaTypeDeleteHelperI24QDeclarativeListPropertyI26QDeclarativeContactAddressEEvPT_ 0x00027630   Section       12  plugin.o(t._Z21qMetaTypeDeleteHelperI24QDeclarativeListPropertyI26QDeclarativeContactAddressEEvPT_)
    t._Z21qMetaTypeDeleteHelperI24QDeclarativeListPropertyI27QDeclarativeContactBirthdayEEvPT_ 0x0002763c   Section       12  plugin.o(t._Z21qMetaTypeDeleteHelperI24QDeclarativeListPropertyI27QDeclarativeContactBirthdayEEvPT_)
    t._Z21qMetaTypeDeleteHelperI24QDeclarativeListPropertyI27QDeclarativeContactFavoriteEEvPT_ 0x00027648   Section       12  plugin.o(t._Z21qMetaTypeDeleteHelperI24QDeclarativeListPropertyI27QDeclarativeContactFavoriteEEvPT_)
    t._Z21qMetaTypeDeleteHelperI24QDeclarativeListPropertyI27QDeclarativeContactNicknameEEvPT_ 0x00027654   Section       12  plugin.o(t._Z21qMetaTypeDeleteHelperI24QDeclarativeListPropertyI27QDeclarativeContactNicknameEEvPT_)
    t._Z21qMetaTypeDeleteHelperI24QDeclarativeListPropertyI27QDeclarativeContactPresenceEEvPT_ 0x00027660   Section       12  plugin.o(t._Z21qMetaTypeDeleteHelperI24QDeclarativeListPropertyI27QDeclarativeContactPresenceEEvPT_)
    t._Z21qMetaTypeDeleteHelperI24QDeclarativeListPropertyI27QDeclarativeContactRingtoneEEvPT_ 0x0002766c   Section       12  plugin.o(t._Z21qMetaTypeDeleteHelperI24QDeclarativeListPropertyI27QDeclarativeContactRingtoneEEvPT_)
    t._Z21qMetaTypeDeleteHelperI24QDeclarativeListPropertyI28QDeclarativeContactFetchHintEEvPT_ 0x00027678   Section       12  plugin.o(t._Z21qMetaTypeDeleteHelperI24QDeclarativeListPropertyI28QDeclarativeContactFetchHintEEvPT_)
    t._Z21qMetaTypeDeleteHelperI24QDeclarativeListPropertyI28QDeclarativeContactSortOrderEEvPT_ 0x00027684   Section       12  plugin.o(t._Z21qMetaTypeDeleteHelperI24QDeclarativeListPropertyI28QDeclarativeContactSortOrderEEvPT_)
    t._Z21qMetaTypeDeleteHelperI24QDeclarativeListPropertyI28QDeclarativeContactTimestampEEvPT_ 0x00027690   Section       12  plugin.o(t._Z21qMetaTypeDeleteHelperI24QDeclarativeListPropertyI28QDeclarativeContactTimestampEEvPT_)
    t._Z21qMetaTypeDeleteHelperI24QDeclarativeListPropertyI29QDeclarativeContactSyncTargetEEvPT_ 0x0002769c   Section       12  plugin.o(t._Z21qMetaTypeDeleteHelperI24QDeclarativeListPropertyI29QDeclarativeContactSyncTargetEEvPT_)
    t._Z21qMetaTypeDeleteHelperI24QDeclarativeListPropertyI30QDeclarativeContactAnniversaryEEvPT_ 0x000276a8   Section       12  plugin.o(t._Z21qMetaTypeDeleteHelperI24QDeclarativeListPropertyI30QDeclarativeContactAnniversaryEEvPT_)
    t._Z21qMetaTypeDeleteHelperI24QDeclarativeListPropertyI30QDeclarativeContactGeoLocationEEvPT_ 0x000276b4   Section       12  plugin.o(t._Z21qMetaTypeDeleteHelperI24QDeclarativeListPropertyI30QDeclarativeContactGeoLocationEEvPT_)
    t._Z21qMetaTypeDeleteHelperI24QDeclarativeListPropertyI30QDeclarativeContactPhoneNumberEEvPT_ 0x000276c0   Section       12  plugin.o(t._Z21qMetaTypeDeleteHelperI24QDeclarativeListPropertyI30QDeclarativeContactPhoneNumberEEvPT_)
    t._Z21qMetaTypeDeleteHelperI24QDeclarativeListPropertyI30QDeclarativeContactUnionFilterEEvPT_ 0x000276cc   Section       12  plugin.o(t._Z21qMetaTypeDeleteHelperI24QDeclarativeListPropertyI30QDeclarativeContactUnionFilterEEvPT_)
    t._Z21qMetaTypeDeleteHelperI24QDeclarativeListPropertyI31QDeclarativeContactActionFilterEEvPT_ 0x000276d8   Section       12  plugin.o(t._Z21qMetaTypeDeleteHelperI24QDeclarativeListPropertyI31QDeclarativeContactActionFilterEEvPT_)
    t._Z21qMetaTypeDeleteHelperI24QDeclarativeListPropertyI31QDeclarativeContactDetailFilterEEvPT_ 0x000276e4   Section       12  plugin.o(t._Z21qMetaTypeDeleteHelperI24QDeclarativeListPropertyI31QDeclarativeContactDetailFilterEEvPT_)
    t._Z21qMetaTypeDeleteHelperI24QDeclarativeListPropertyI31QDeclarativeContactDisplayLabelEEvPT_ 0x000276f0   Section       12  plugin.o(t._Z21qMetaTypeDeleteHelperI24QDeclarativeListPropertyI31QDeclarativeContactDisplayLabelEEvPT_)
    t._Z21qMetaTypeDeleteHelperI24QDeclarativeListPropertyI31QDeclarativeContactEmailAddressEEvPT_ 0x000276fc   Section       12  plugin.o(t._Z21qMetaTypeDeleteHelperI24QDeclarativeListPropertyI31QDeclarativeContactEmailAddressEEvPT_)
    t._Z21qMetaTypeDeleteHelperI24QDeclarativeListPropertyI31QDeclarativeContactOrganizationEEvPT_ 0x00027708   Section       12  plugin.o(t._Z21qMetaTypeDeleteHelperI24QDeclarativeListPropertyI31QDeclarativeContactOrganizationEEvPT_)
    t._Z21qMetaTypeDeleteHelperI24QDeclarativeListPropertyI31QDeclarativeContactRelationshipEEvPT_ 0x00027714   Section       12  plugin.o(t._Z21qMetaTypeDeleteHelperI24QDeclarativeListPropertyI31QDeclarativeContactRelationshipEEvPT_)
    t._Z21qMetaTypeDeleteHelperI24QDeclarativeListPropertyI32QDeclarativeContactLocalIdFilterEEvPT_ 0x00027720   Section       12  plugin.o(t._Z21qMetaTypeDeleteHelperI24QDeclarativeListPropertyI32QDeclarativeContactLocalIdFilterEEvPT_)
    t._Z21qMetaTypeDeleteHelperI24QDeclarativeListPropertyI32QDeclarativeContactOnlineAccountEEvPT_ 0x0002772c   Section       12  plugin.o(t._Z21qMetaTypeDeleteHelperI24QDeclarativeListPropertyI32QDeclarativeContactOnlineAccountEEvPT_)
    t._Z21qMetaTypeDeleteHelperI24QDeclarativeListPropertyI33QDeclarativeContactGlobalPresenceEEvPT_ 0x00027738   Section       12  plugin.o(t._Z21qMetaTypeDeleteHelperI24QDeclarativeListPropertyI33QDeclarativeContactGlobalPresenceEEvPT_)
    t._Z21qMetaTypeDeleteHelperI24QDeclarativeListPropertyI34QDeclarativeContactChangeLogFilterEEvPT_ 0x00027744   Section       12  plugin.o(t._Z21qMetaTypeDeleteHelperI24QDeclarativeListPropertyI34QDeclarativeContactChangeLogFilterEEvPT_)
    t._Z21qMetaTypeDeleteHelperI24QDeclarativeListPropertyI36QDeclarativeContactDetailRangeFilterEEvPT_ 0x00027750   Section       12  plugin.o(t._Z21qMetaTypeDeleteHelperI24QDeclarativeListPropertyI36QDeclarativeContactDetailRangeFilterEEvPT_)
    t._Z21qMetaTypeDeleteHelperI24QDeclarativeListPropertyI37QDeclarativeContactIntersectionFilterEEvPT_ 0x0002775c   Section       12  plugin.o(t._Z21qMetaTypeDeleteHelperI24QDeclarativeListPropertyI37QDeclarativeContactIntersectionFilterEEvPT_)
    t._Z21qMetaTypeDeleteHelperI24QDeclarativeListPropertyI37QDeclarativeContactRelationshipFilterEEvPT_ 0x00027768   Section       12  plugin.o(t._Z21qMetaTypeDeleteHelperI24QDeclarativeListPropertyI37QDeclarativeContactRelationshipFilterEEvPT_)
    t._Z21qMetaTypeDeleteHelperIP19QDeclarativeContactEvPT_ 0x00027774   Section       12  plugin.o(t._Z21qMetaTypeDeleteHelperIP19QDeclarativeContactEvPT_)
    t._Z21qMetaTypeDeleteHelperIP22QDeclarativeContactTagEvPT_ 0x00027780   Section       12  plugin.o(t._Z21qMetaTypeDeleteHelperIP22QDeclarativeContactTagEvPT_)
    t._Z21qMetaTypeDeleteHelperIP22QDeclarativeContactUrlEvPT_ 0x0002778c   Section       12  plugin.o(t._Z21qMetaTypeDeleteHelperIP22QDeclarativeContactUrlEvPT_)
    t._Z21qMetaTypeDeleteHelperIP23QDeclarativeContactGuidEvPT_ 0x00027798   Section       12  plugin.o(t._Z21qMetaTypeDeleteHelperIP23QDeclarativeContactGuidEvPT_)
    t._Z21qMetaTypeDeleteHelperIP23QDeclarativeContactNameEvPT_ 0x000277a4   Section       12  plugin.o(t._Z21qMetaTypeDeleteHelperIP23QDeclarativeContactNameEvPT_)
    t._Z21qMetaTypeDeleteHelperIP23QDeclarativeContactNoteEvPT_ 0x000277b0   Section       12  plugin.o(t._Z21qMetaTypeDeleteHelperIP23QDeclarativeContactNoteEvPT_)
    t._Z21qMetaTypeDeleteHelperIP24QDeclarativeContactHobbyEvPT_ 0x000277bc   Section       12  plugin.o(t._Z21qMetaTypeDeleteHelperIP24QDeclarativeContactHobbyEvPT_)
    t._Z21qMetaTypeDeleteHelperIP24QDeclarativeContactModelEvPT_ 0x000277c8   Section       12  plugin.o(t._Z21qMetaTypeDeleteHelperIP24QDeclarativeContactModelEvPT_)
    t._Z21qMetaTypeDeleteHelperIP25QDeclarativeContactAvatarEvPT_ 0x000277d4   Section       12  plugin.o(t._Z21qMetaTypeDeleteHelperIP25QDeclarativeContactAvatarEvPT_)
    t._Z21qMetaTypeDeleteHelperIP25QDeclarativeContactDetailEvPT_ 0x000277e0   Section       12  plugin.o(t._Z21qMetaTypeDeleteHelperIP25QDeclarativeContactDetailEvPT_)
    t._Z21qMetaTypeDeleteHelperIP25QDeclarativeContactFamilyEvPT_ 0x000277ec   Section       12  plugin.o(t._Z21qMetaTypeDeleteHelperIP25QDeclarativeContactFamilyEvPT_)
    t._Z21qMetaTypeDeleteHelperIP25QDeclarativeContactFilterEvPT_ 0x000277f8   Section       12  plugin.o(t._Z21qMetaTypeDeleteHelperIP25QDeclarativeContactFilterEvPT_)
    t._Z21qMetaTypeDeleteHelperIP25QDeclarativeContactGenderEvPT_ 0x00027804   Section       12  plugin.o(t._Z21qMetaTypeDeleteHelperIP25QDeclarativeContactGenderEvPT_)
    t._Z21qMetaTypeDeleteHelperIP26QDeclarativeContactAddressEvPT_ 0x00027810   Section       12  plugin.o(t._Z21qMetaTypeDeleteHelperIP26QDeclarativeContactAddressEvPT_)
    t._Z21qMetaTypeDeleteHelperIP27QDeclarativeContactBirthdayEvPT_ 0x0002781c   Section       12  plugin.o(t._Z21qMetaTypeDeleteHelperIP27QDeclarativeContactBirthdayEvPT_)
    t._Z21qMetaTypeDeleteHelperIP27QDeclarativeContactFavoriteEvPT_ 0x00027828   Section       12  plugin.o(t._Z21qMetaTypeDeleteHelperIP27QDeclarativeContactFavoriteEvPT_)
    t._Z21qMetaTypeDeleteHelperIP27QDeclarativeContactNicknameEvPT_ 0x00027834   Section       12  plugin.o(t._Z21qMetaTypeDeleteHelperIP27QDeclarativeContactNicknameEvPT_)
    t._Z21qMetaTypeDeleteHelperIP27QDeclarativeContactPresenceEvPT_ 0x00027840   Section       12  plugin.o(t._Z21qMetaTypeDeleteHelperIP27QDeclarativeContactPresenceEvPT_)
    t._Z21qMetaTypeDeleteHelperIP27QDeclarativeContactRingtoneEvPT_ 0x0002784c   Section       12  plugin.o(t._Z21qMetaTypeDeleteHelperIP27QDeclarativeContactRingtoneEvPT_)
    t._Z21qMetaTypeDeleteHelperIP28QDeclarativeContactFetchHintEvPT_ 0x00027858   Section       12  plugin.o(t._Z21qMetaTypeDeleteHelperIP28QDeclarativeContactFetchHintEvPT_)
    t._Z21qMetaTypeDeleteHelperIP28QDeclarativeContactSortOrderEvPT_ 0x00027864   Section       12  plugin.o(t._Z21qMetaTypeDeleteHelperIP28QDeclarativeContactSortOrderEvPT_)
    t._Z21qMetaTypeDeleteHelperIP28QDeclarativeContactTimestampEvPT_ 0x00027870   Section       12  plugin.o(t._Z21qMetaTypeDeleteHelperIP28QDeclarativeContactTimestampEvPT_)
    t._Z21qMetaTypeDeleteHelperIP29QDeclarativeContactSyncTargetEvPT_ 0x0002787c   Section       12  plugin.o(t._Z21qMetaTypeDeleteHelperIP29QDeclarativeContactSyncTargetEvPT_)
    t._Z21qMetaTypeDeleteHelperIP30QDeclarativeContactAnniversaryEvPT_ 0x00027888   Section       12  plugin.o(t._Z21qMetaTypeDeleteHelperIP30QDeclarativeContactAnniversaryEvPT_)
    t._Z21qMetaTypeDeleteHelperIP30QDeclarativeContactGeoLocationEvPT_ 0x00027894   Section       12  plugin.o(t._Z21qMetaTypeDeleteHelperIP30QDeclarativeContactGeoLocationEvPT_)
    t._Z21qMetaTypeDeleteHelperIP30QDeclarativeContactPhoneNumberEvPT_ 0x000278a0   Section       12  plugin.o(t._Z21qMetaTypeDeleteHelperIP30QDeclarativeContactPhoneNumberEvPT_)
    t._Z21qMetaTypeDeleteHelperIP30QDeclarativeContactUnionFilterEvPT_ 0x000278ac   Section       12  plugin.o(t._Z21qMetaTypeDeleteHelperIP30QDeclarativeContactUnionFilterEvPT_)
    t._Z21qMetaTypeDeleteHelperIP31QDeclarativeContactActionFilterEvPT_ 0x000278b8   Section       12  plugin.o(t._Z21qMetaTypeDeleteHelperIP31QDeclarativeContactActionFilterEvPT_)
    t._Z21qMetaTypeDeleteHelperIP31QDeclarativeContactDetailFilterEvPT_ 0x000278c4   Section       12  plugin.o(t._Z21qMetaTypeDeleteHelperIP31QDeclarativeContactDetailFilterEvPT_)
    t._Z21qMetaTypeDeleteHelperIP31QDeclarativeContactDisplayLabelEvPT_ 0x000278d0   Section       12  plugin.o(t._Z21qMetaTypeDeleteHelperIP31QDeclarativeContactDisplayLabelEvPT_)
    t._Z21qMetaTypeDeleteHelperIP31QDeclarativeContactEmailAddressEvPT_ 0x000278dc   Section       12  plugin.o(t._Z21qMetaTypeDeleteHelperIP31QDeclarativeContactEmailAddressEvPT_)
    t._Z21qMetaTypeDeleteHelperIP31QDeclarativeContactOrganizationEvPT_ 0x000278e8   Section       12  plugin.o(t._Z21qMetaTypeDeleteHelperIP31QDeclarativeContactOrganizationEvPT_)
    t._Z21qMetaTypeDeleteHelperIP31QDeclarativeContactRelationshipEvPT_ 0x000278f4   Section       12  plugin.o(t._Z21qMetaTypeDeleteHelperIP31QDeclarativeContactRelationshipEvPT_)
    t._Z21qMetaTypeDeleteHelperIP32QDeclarativeContactLocalIdFilterEvPT_ 0x00027900   Section       12  plugin.o(t._Z21qMetaTypeDeleteHelperIP32QDeclarativeContactLocalIdFilterEvPT_)
    t._Z21qMetaTypeDeleteHelperIP32QDeclarativeContactOnlineAccountEvPT_ 0x0002790c   Section       12  plugin.o(t._Z21qMetaTypeDeleteHelperIP32QDeclarativeContactOnlineAccountEvPT_)
    t._Z21qMetaTypeDeleteHelperIP33QDeclarativeContactGlobalPresenceEvPT_ 0x00027918   Section       12  plugin.o(t._Z21qMetaTypeDeleteHelperIP33QDeclarativeContactGlobalPresenceEvPT_)
    t._Z21qMetaTypeDeleteHelperIP34QDeclarativeContactChangeLogFilterEvPT_ 0x00027924   Section       12  plugin.o(t._Z21qMetaTypeDeleteHelperIP34QDeclarativeContactChangeLogFilterEvPT_)
    t._Z21qMetaTypeDeleteHelperIP36QDeclarativeContactDetailRangeFilterEvPT_ 0x00027930   Section       12  plugin.o(t._Z21qMetaTypeDeleteHelperIP36QDeclarativeContactDetailRangeFilterEvPT_)
    t._Z21qMetaTypeDeleteHelperIP37QDeclarativeContactIntersectionFilterEvPT_ 0x0002793c   Section       12  plugin.o(t._Z21qMetaTypeDeleteHelperIP37QDeclarativeContactIntersectionFilterEvPT_)
    t._Z21qMetaTypeDeleteHelperIP37QDeclarativeContactRelationshipFilterEvPT_ 0x00027948   Section       12  plugin.o(t._Z21qMetaTypeDeleteHelperIP37QDeclarativeContactRelationshipFilterEvPT_)
    t._Z21qMetaTypeDeleteHelperIjEvPT_       0x00027954   Section       12  plugin.o(t._Z21qMetaTypeDeleteHelperIjEvPT_)
    t._Z24qMetaTypeConstructHelperI24QDeclarativeListPropertyI19QDeclarativeContactEEPvPKT_ 0x00027960   Section      150  plugin.o(t._Z24qMetaTypeConstructHelperI24QDeclarativeListPropertyI19QDeclarativeContactEEPvPKT_)
    t._Z24qMetaTypeConstructHelperI24QDeclarativeListPropertyI19QDeclarativeContactEEPvPKT_.clean 0x000279f6   Section        4  plugin.o(t._Z24qMetaTypeConstructHelperI24QDeclarativeListPropertyI19QDeclarativeContactEEPvPKT_.clean)
    t._Z24qMetaTypeConstructHelperI24QDeclarativeListPropertyI22QDeclarativeContactTagEEPvPKT_ 0x000279fa   Section      150  plugin.o(t._Z24qMetaTypeConstructHelperI24QDeclarativeListPropertyI22QDeclarativeContactTagEEPvPKT_)
    t._Z24qMetaTypeConstructHelperI24QDeclarativeListPropertyI22QDeclarativeContactTagEEPvPKT_.clean 0x00027a90   Section        4  plugin.o(t._Z24qMetaTypeConstructHelperI24QDeclarativeListPropertyI22QDeclarativeContactTagEEPvPKT_.clean)
    t._Z24qMetaTypeConstructHelperI24QDeclarativeListPropertyI22QDeclarativeContactUrlEEPvPKT_ 0x00027a94   Section      150  plugin.o(t._Z24qMetaTypeConstructHelperI24QDeclarativeListPropertyI22QDeclarativeContactUrlEEPvPKT_)
    t._Z24qMetaTypeConstructHelperI24QDeclarativeListPropertyI22QDeclarativeContactUrlEEPvPKT_.clean 0x00027b2a   Section        4  plugin.o(t._Z24qMetaTypeConstructHelperI24QDeclarativeListPropertyI22QDeclarativeContactUrlEEPvPKT_.clean)
    t._Z24qMetaTypeConstructHelperI24QDeclarativeListPropertyI23QDeclarativeContactGuidEEPvPKT_ 0x00027b2e   Section      150  plugin.o(t._Z24qMetaTypeConstructHelperI24QDeclarativeListPropertyI23QDeclarativeContactGuidEEPvPKT_)
    t._Z24qMetaTypeConstructHelperI24QDeclarativeListPropertyI23QDeclarativeContactGuidEEPvPKT_.clean 0x00027bc4   Section        4  plugin.o(t._Z24qMetaTypeConstructHelperI24QDeclarativeListPropertyI23QDeclarativeContactGuidEEPvPKT_.clean)
    t._Z24qMetaTypeConstructHelperI24QDeclarativeListPropertyI23QDeclarativeContactNameEEPvPKT_ 0x00027bc8   Section      150  plugin.o(t._Z24qMetaTypeConstructHelperI24QDeclarativeListPropertyI23QDeclarativeContactNameEEPvPKT_)
    t._Z24qMetaTypeConstructHelperI24QDeclarativeListPropertyI23QDeclarativeContactNameEEPvPKT_.clean 0x00027c5e   Section        4  plugin.o(t._Z24qMetaTypeConstructHelperI24QDeclarativeListPropertyI23QDeclarativeContactNameEEPvPKT_.clean)
    t._Z24qMetaTypeConstructHelperI24QDeclarativeListPropertyI23QDeclarativeContactNoteEEPvPKT_ 0x00027c62   Section      150  plugin.o(t._Z24qMetaTypeConstructHelperI24QDeclarativeListPropertyI23QDeclarativeContactNoteEEPvPKT_)
    t._Z24qMetaTypeConstructHelperI24QDeclarativeListPropertyI23QDeclarativeContactNoteEEPvPKT_.clean 0x00027cf8   Section        4  plugin.o(t._Z24qMetaTypeConstructHelperI24QDeclarativeListPropertyI23QDeclarativeContactNoteEEPvPKT_.clean)
    t._Z24qMetaTypeConstructHelperI24QDeclarativeListPropertyI24QDeclarativeContactHobbyEEPvPKT_ 0x00027cfc   Section      150  plugin.o(t._Z24qMetaTypeConstructHelperI24QDeclarativeListPropertyI24QDeclarativeContactHobbyEEPvPKT_)
    t._Z24qMetaTypeConstructHelperI24QDeclarativeListPropertyI24QDeclarativeContactHobbyEEPvPKT_.clean 0x00027d92   Section        4  plugin.o(t._Z24qMetaTypeConstructHelperI24QDeclarativeListPropertyI24QDeclarativeContactHobbyEEPvPKT_.clean)
    t._Z24qMetaTypeConstructHelperI24QDeclarativeListPropertyI24QDeclarativeContactModelEEPvPKT_ 0x00027d96   Section      150  plugin.o(t._Z24qMetaTypeConstructHelperI24QDeclarativeListPropertyI24QDeclarativeContactModelEEPvPKT_)
    t._Z24qMetaTypeConstructHelperI24QDeclarativeListPropertyI24QDeclarativeContactModelEEPvPKT_.clean 0x00027e2c   Section        4  plugin.o(t._Z24qMetaTypeConstructHelperI24QDeclarativeListPropertyI24QDeclarativeContactModelEEPvPKT_.clean)
    t._Z24qMetaTypeConstructHelperI24QDeclarativeListPropertyI25QDeclarativeContactAvatarEEPvPKT_ 0x00027e30   Section      150  plugin.o(t._Z24qMetaTypeConstructHelperI24QDeclarativeListPropertyI25QDeclarativeContactAvatarEEPvPKT_)
    t._Z24qMetaTypeConstructHelperI24QDeclarativeListPropertyI25QDeclarativeContactAvatarEEPvPKT_.clean 0x00027ec6   Section        4  plugin.o(t._Z24qMetaTypeConstructHelperI24QDeclarativeListPropertyI25QDeclarativeContactAvatarEEPvPKT_.clean)
    t._Z24qMetaTypeConstructHelperI24QDeclarativeListPropertyI25QDeclarativeContactDetailEEPvPKT_ 0x00027eca   Section      150  plugin.o(t._Z24qMetaTypeConstructHelperI24QDeclarativeListPropertyI25QDeclarativeContactDetailEEPvPKT_)
    t._Z24qMetaTypeConstructHelperI24QDeclarativeListPropertyI25QDeclarativeContactDetailEEPvPKT_.clean 0x00027f60   Section        4  plugin.o(t._Z24qMetaTypeConstructHelperI24QDeclarativeListPropertyI25QDeclarativeContactDetailEEPvPKT_.clean)
    t._Z24qMetaTypeConstructHelperI24QDeclarativeListPropertyI25QDeclarativeContactFamilyEEPvPKT_ 0x00027f64   Section      150  plugin.o(t._Z24qMetaTypeConstructHelperI24QDeclarativeListPropertyI25QDeclarativeContactFamilyEEPvPKT_)
    t._Z24qMetaTypeConstructHelperI24QDeclarativeListPropertyI25QDeclarativeContactFamilyEEPvPKT_.clean 0x00027ffa   Section        4  plugin.o(t._Z24qMetaTypeConstructHelperI24QDeclarativeListPropertyI25QDeclarativeContactFamilyEEPvPKT_.clean)
    t._Z24qMetaTypeConstructHelperI24QDeclarativeListPropertyI25QDeclarativeContactFilterEEPvPKT_ 0x00027ffe   Section      150  plugin.o(t._Z24qMetaTypeConstructHelperI24QDeclarativeListPropertyI25QDeclarativeContactFilterEEPvPKT_)
    t._Z24qMetaTypeConstructHelperI24QDeclarativeListPropertyI25QDeclarativeContactFilterEEPvPKT_.clean 0x00028094   Section        4  plugin.o(t._Z24qMetaTypeConstructHelperI24QDeclarativeListPropertyI25QDeclarativeContactFilterEEPvPKT_.clean)
    t._Z24qMetaTypeConstructHelperI24QDeclarativeListPropertyI25QDeclarativeContactGenderEEPvPKT_ 0x00028098   Section      150  plugin.o(t._Z24qMetaTypeConstructHelperI24QDeclarativeListPropertyI25QDeclarativeContactGenderEEPvPKT_)
    t._Z24qMetaTypeConstructHelperI24QDeclarativeListPropertyI25QDeclarativeContactGenderEEPvPKT_.clean 0x0002812e   Section        4  plugin.o(t._Z24qMetaTypeConstructHelperI24QDeclarativeListPropertyI25QDeclarativeContactGenderEEPvPKT_.clean)
    t._Z24qMetaTypeConstructHelperI24QDeclarativeListPropertyI26QDeclarativeContactAddressEEPvPKT_ 0x00028132   Section      150  plugin.o(t._Z24qMetaTypeConstructHelperI24QDeclarativeListPropertyI26QDeclarativeContactAddressEEPvPKT_)
    t._Z24qMetaTypeConstructHelperI24QDeclarativeListPropertyI26QDeclarativeContactAddressEEPvPKT_.clean 0x000281c8   Section        4  plugin.o(t._Z24qMetaTypeConstructHelperI24QDeclarativeListPropertyI26QDeclarativeContactAddressEEPvPKT_.clean)
    t._Z24qMetaTypeConstructHelperI24QDeclarativeListPropertyI27QDeclarativeContactBirthdayEEPvPKT_ 0x000281cc   Section      150  plugin.o(t._Z24qMetaTypeConstructHelperI24QDeclarativeListPropertyI27QDeclarativeContactBirthdayEEPvPKT_)
    t._Z24qMetaTypeConstructHelperI24QDeclarativeListPropertyI27QDeclarativeContactBirthdayEEPvPKT_.clean 0x00028262   Section        4  plugin.o(t._Z24qMetaTypeConstructHelperI24QDeclarativeListPropertyI27QDeclarativeContactBirthdayEEPvPKT_.clean)
    t._Z24qMetaTypeConstructHelperI24QDeclarativeListPropertyI27QDeclarativeContactFavoriteEEPvPKT_ 0x00028266   Section      150  plugin.o(t._Z24qMetaTypeConstructHelperI24QDeclarativeListPropertyI27QDeclarativeContactFavoriteEEPvPKT_)
    t._Z24qMetaTypeConstructHelperI24QDeclarativeListPropertyI27QDeclarativeContactFavoriteEEPvPKT_.clean 0x000282fc   Section        4  plugin.o(t._Z24qMetaTypeConstructHelperI24QDeclarativeListPropertyI27QDeclarativeContactFavoriteEEPvPKT_.clean)
    t._Z24qMetaTypeConstructHelperI24QDeclarativeListPropertyI27QDeclarativeContactNicknameEEPvPKT_ 0x00028300   Section      150  plugin.o(t._Z24qMetaTypeConstructHelperI24QDeclarativeListPropertyI27QDeclarativeContactNicknameEEPvPKT_)
    t._Z24qMetaTypeConstructHelperI24QDeclarativeListPropertyI27QDeclarativeContactNicknameEEPvPKT_.clean 0x00028396   Section        4  plugin.o(t._Z24qMetaTypeConstructHelperI24QDeclarativeListPropertyI27QDeclarativeContactNicknameEEPvPKT_.clean)
    t._Z24qMetaTypeConstructHelperI24QDeclarativeListPropertyI27QDeclarativeContactPresenceEEPvPKT_ 0x0002839a   Section      150  plugin.o(t._Z24qMetaTypeConstructHelperI24QDeclarativeListPropertyI27QDeclarativeContactPresenceEEPvPKT_)
    t._Z24qMetaTypeConstructHelperI24QDeclarativeListPropertyI27QDeclarativeContactPresenceEEPvPKT_.clean 0x00028430   Section        4  plugin.o(t._Z24qMetaTypeConstructHelperI24QDeclarativeListPropertyI27QDeclarativeContactPresenceEEPvPKT_.clean)
    t._Z24qMetaTypeConstructHelperI24QDeclarativeListPropertyI27QDeclarativeContactRingtoneEEPvPKT_ 0x00028434   Section      150  plugin.o(t._Z24qMetaTypeConstructHelperI24QDeclarativeListPropertyI27QDeclarativeContactRingtoneEEPvPKT_)
    t._Z24qMetaTypeConstructHelperI24QDeclarativeListPropertyI27QDeclarativeContactRingtoneEEPvPKT_.clean 0x000284ca   Section        4  plugin.o(t._Z24qMetaTypeConstructHelperI24QDeclarativeListPropertyI27QDeclarativeContactRingtoneEEPvPKT_.clean)
    t._Z24qMetaTypeConstructHelperI24QDeclarativeListPropertyI28QDeclarativeContactFetchHintEEPvPKT_ 0x000284ce   Section      150  plugin.o(t._Z24qMetaTypeConstructHelperI24QDeclarativeListPropertyI28QDeclarativeContactFetchHintEEPvPKT_)
    t._Z24qMetaTypeConstructHelperI24QDeclarativeListPropertyI28QDeclarativeContactFetchHintEEPvPKT_.clean 0x00028564   Section        4  plugin.o(t._Z24qMetaTypeConstructHelperI24QDeclarativeListPropertyI28QDeclarativeContactFetchHintEEPvPKT_.clean)
    t._Z24qMetaTypeConstructHelperI24QDeclarativeListPropertyI28QDeclarativeContactSortOrderEEPvPKT_ 0x00028568   Section      150  plugin.o(t._Z24qMetaTypeConstructHelperI24QDeclarativeListPropertyI28QDeclarativeContactSortOrderEEPvPKT_)
    t._Z24qMetaTypeConstructHelperI24QDeclarativeListPropertyI28QDeclarativeContactSortOrderEEPvPKT_.clean 0x000285fe   Section        4  plugin.o(t._Z24qMetaTypeConstructHelperI24QDeclarativeListPropertyI28QDeclarativeContactSortOrderEEPvPKT_.clean)
    t._Z24qMetaTypeConstructHelperI24QDeclarativeListPropertyI28QDeclarativeContactTimestampEEPvPKT_ 0x00028602   Section      150  plugin.o(t._Z24qMetaTypeConstructHelperI24QDeclarativeListPropertyI28QDeclarativeContactTimestampEEPvPKT_)
    t._Z24qMetaTypeConstructHelperI24QDeclarativeListPropertyI28QDeclarativeContactTimestampEEPvPKT_.clean 0x00028698   Section        4  plugin.o(t._Z24qMetaTypeConstructHelperI24QDeclarativeListPropertyI28QDeclarativeContactTimestampEEPvPKT_.clean)
    t._Z24qMetaTypeConstructHelperI24QDeclarativeListPropertyI29QDeclarativeContactSyncTargetEEPvPKT_ 0x0002869c   Section      150  plugin.o(t._Z24qMetaTypeConstructHelperI24QDeclarativeListPropertyI29QDeclarativeContactSyncTargetEEPvPKT_)
    t._Z24qMetaTypeConstructHelperI24QDeclarativeListPropertyI29QDeclarativeContactSyncTargetEEPvPKT_.clean 0x00028732   Section        4  plugin.o(t._Z24qMetaTypeConstructHelperI24QDeclarativeListPropertyI29QDeclarativeContactSyncTargetEEPvPKT_.clean)
    t._Z24qMetaTypeConstructHelperI24QDeclarativeListPropertyI30QDeclarativeContactAnniversaryEEPvPKT_ 0x00028736   Section      150  plugin.o(t._Z24qMetaTypeConstructHelperI24QDeclarativeListPropertyI30QDeclarativeContactAnniversaryEEPvPKT_)
    t._Z24qMetaTypeConstructHelperI24QDeclarativeListPropertyI30QDeclarativeContactAnniversaryEEPvPKT_.clean 0x000287cc   Section        4  plugin.o(t._Z24qMetaTypeConstructHelperI24QDeclarativeListPropertyI30QDeclarativeContactAnniversaryEEPvPKT_.clean)
    t._Z24qMetaTypeConstructHelperI24QDeclarativeListPropertyI30QDeclarativeContactGeoLocationEEPvPKT_ 0x000287d0   Section      150  plugin.o(t._Z24qMetaTypeConstructHelperI24QDeclarativeListPropertyI30QDeclarativeContactGeoLocationEEPvPKT_)
    t._Z24qMetaTypeConstructHelperI24QDeclarativeListPropertyI30QDeclarativeContactGeoLocationEEPvPKT_.clean 0x00028866   Section        4  plugin.o(t._Z24qMetaTypeConstructHelperI24QDeclarativeListPropertyI30QDeclarativeContactGeoLocationEEPvPKT_.clean)
    t._Z24qMetaTypeConstructHelperI24QDeclarativeListPropertyI30QDeclarativeContactPhoneNumberEEPvPKT_ 0x0002886a   Section      150  plugin.o(t._Z24qMetaTypeConstructHelperI24QDeclarativeListPropertyI30QDeclarativeContactPhoneNumberEEPvPKT_)
    t._Z24qMetaTypeConstructHelperI24QDeclarativeListPropertyI30QDeclarativeContactPhoneNumberEEPvPKT_.clean 0x00028900   Section        4  plugin.o(t._Z24qMetaTypeConstructHelperI24QDeclarativeListPropertyI30QDeclarativeContactPhoneNumberEEPvPKT_.clean)
    t._Z24qMetaTypeConstructHelperI24QDeclarativeListPropertyI30QDeclarativeContactUnionFilterEEPvPKT_ 0x00028904   Section      150  plugin.o(t._Z24qMetaTypeConstructHelperI24QDeclarativeListPropertyI30QDeclarativeContactUnionFilterEEPvPKT_)
    t._Z24qMetaTypeConstructHelperI24QDeclarativeListPropertyI30QDeclarativeContactUnionFilterEEPvPKT_.clean 0x0002899a   Section        4  plugin.o(t._Z24qMetaTypeConstructHelperI24QDeclarativeListPropertyI30QDeclarativeContactUnionFilterEEPvPKT_.clean)
    t._Z24qMetaTypeConstructHelperI24QDeclarativeListPropertyI31QDeclarativeContactActionFilterEEPvPKT_ 0x0002899e   Section      150  plugin.o(t._Z24qMetaTypeConstructHelperI24QDeclarativeListPropertyI31QDeclarativeContactActionFilterEEPvPKT_)
    t._Z24qMetaTypeConstructHelperI24QDeclarativeListPropertyI31QDeclarativeContactActionFilterEEPvPKT_.clean 0x00028a34   Section        4  plugin.o(t._Z24qMetaTypeConstructHelperI24QDeclarativeListPropertyI31QDeclarativeContactActionFilterEEPvPKT_.clean)
    t._Z24qMetaTypeConstructHelperI24QDeclarativeListPropertyI31QDeclarativeContactDetailFilterEEPvPKT_ 0x00028a38   Section      150  plugin.o(t._Z24qMetaTypeConstructHelperI24QDeclarativeListPropertyI31QDeclarativeContactDetailFilterEEPvPKT_)
    t._Z24qMetaTypeConstructHelperI24QDeclarativeListPropertyI31QDeclarativeContactDetailFilterEEPvPKT_.clean 0x00028ace   Section        4  plugin.o(t._Z24qMetaTypeConstructHelperI24QDeclarativeListPropertyI31QDeclarativeContactDetailFilterEEPvPKT_.clean)
    t._Z24qMetaTypeConstructHelperI24QDeclarativeListPropertyI31QDeclarativeContactDisplayLabelEEPvPKT_ 0x00028ad2   Section      150  plugin.o(t._Z24qMetaTypeConstructHelperI24QDeclarativeListPropertyI31QDeclarativeContactDisplayLabelEEPvPKT_)
    t._Z24qMetaTypeConstructHelperI24QDeclarativeListPropertyI31QDeclarativeContactDisplayLabelEEPvPKT_.clean 0x00028b68   Section        4  plugin.o(t._Z24qMetaTypeConstructHelperI24QDeclarativeListPropertyI31QDeclarativeContactDisplayLabelEEPvPKT_.clean)
    t._Z24qMetaTypeConstructHelperI24QDeclarativeListPropertyI31QDeclarativeContactEmailAddressEEPvPKT_ 0x00028b6c   Section      150  plugin.o(t._Z24qMetaTypeConstructHelperI24QDeclarativeListPropertyI31QDeclarativeContactEmailAddressEEPvPKT_)
    t._Z24qMetaTypeConstructHelperI24QDeclarativeListPropertyI31QDeclarativeContactEmailAddressEEPvPKT_.clean 0x00028c02   Section        4  plugin.o(t._Z24qMetaTypeConstructHelperI24QDeclarativeListPropertyI31QDeclarativeContactEmailAddressEEPvPKT_.clean)
    t._Z24qMetaTypeConstructHelperI24QDeclarativeListPropertyI31QDeclarativeContactOrganizationEEPvPKT_ 0x00028c06   Section      150  plugin.o(t._Z24qMetaTypeConstructHelperI24QDeclarativeListPropertyI31QDeclarativeContactOrganizationEEPvPKT_)
    t._Z24qMetaTypeConstructHelperI24QDeclarativeListPropertyI31QDeclarativeContactOrganizationEEPvPKT_.clean 0x00028c9c   Section        4  plugin.o(t._Z24qMetaTypeConstructHelperI24QDeclarativeListPropertyI31QDeclarativeContactOrganizationEEPvPKT_.clean)
    t._Z24qMetaTypeConstructHelperI24QDeclarativeListPropertyI31QDeclarativeContactRelationshipEEPvPKT_ 0x00028ca0   Section      150  plugin.o(t._Z24qMetaTypeConstructHelperI24QDeclarativeListPropertyI31QDeclarativeContactRelationshipEEPvPKT_)
    t._Z24qMetaTypeConstructHelperI24QDeclarativeListPropertyI31QDeclarativeContactRelationshipEEPvPKT_.clean 0x00028d36   Section        4  plugin.o(t._Z24qMetaTypeConstructHelperI24QDeclarativeListPropertyI31QDeclarativeContactRelationshipEEPvPKT_.clean)
    t._Z24qMetaTypeConstructHelperI24QDeclarativeListPropertyI32QDeclarativeContactLocalIdFilterEEPvPKT_ 0x00028d3a   Section      150  plugin.o(t._Z24qMetaTypeConstructHelperI24QDeclarativeListPropertyI32QDeclarativeContactLocalIdFilterEEPvPKT_)
    t._Z24qMetaTypeConstructHelperI24QDeclarativeListPropertyI32QDeclarativeContactLocalIdFilterEEPvPKT_.clean 0x00028dd0   Section        4  plugin.o(t._Z24qMetaTypeConstructHelperI24QDeclarativeListPropertyI32QDeclarativeContactLocalIdFilterEEPvPKT_.clean)
    t._Z24qMetaTypeConstructHelperI24QDeclarativeListPropertyI32QDeclarativeContactOnlineAccountEEPvPKT_ 0x00028dd4   Section      150  plugin.o(t._Z24qMetaTypeConstructHelperI24QDeclarativeListPropertyI32QDeclarativeContactOnlineAccountEEPvPKT_)
    t._Z24qMetaTypeConstructHelperI24QDeclarativeListPropertyI32QDeclarativeContactOnlineAccountEEPvPKT_.clean 0x00028e6a   Section        4  plugin.o(t._Z24qMetaTypeConstructHelperI24QDeclarativeListPropertyI32QDeclarativeContactOnlineAccountEEPvPKT_.clean)
    t._Z24qMetaTypeConstructHelperI24QDeclarativeListPropertyI33QDeclarativeContactGlobalPresenceEEPvPKT_ 0x00028e6e   Section      150  plugin.o(t._Z24qMetaTypeConstructHelperI24QDeclarativeListPropertyI33QDeclarativeContactGlobalPresenceEEPvPKT_)
    t._Z24qMetaTypeConstructHelperI24QDeclarativeListPropertyI33QDeclarativeContactGlobalPresenceEEPvPKT_.clean 0x00028f04   Section        4  plugin.o(t._Z24qMetaTypeConstructHelperI24QDeclarativeListPropertyI33QDeclarativeContactGlobalPresenceEEPvPKT_.clean)
    t._Z24qMetaTypeConstructHelperI24QDeclarativeListPropertyI34QDeclarativeContactChangeLogFilterEEPvPKT_ 0x00028f08   Section      150  plugin.o(t._Z24qMetaTypeConstructHelperI24QDeclarativeListPropertyI34QDeclarativeContactChangeLogFilterEEPvPKT_)
    t._Z24qMetaTypeConstructHelperI24QDeclarativeListPropertyI34QDeclarativeContactChangeLogFilterEEPvPKT_.clean 0x00028f9e   Section        4  plugin.o(t._Z24qMetaTypeConstructHelperI24QDeclarativeListPropertyI34QDeclarativeContactChangeLogFilterEEPvPKT_.clean)
    t._Z24qMetaTypeConstructHelperI24QDeclarativeListPropertyI36QDeclarativeContactDetailRangeFilterEEPvPKT_ 0x00028fa2   Section      150  plugin.o(t._Z24qMetaTypeConstructHelperI24QDeclarativeListPropertyI36QDeclarativeContactDetailRangeFilterEEPvPKT_)
    t._Z24qMetaTypeConstructHelperI24QDeclarativeListPropertyI36QDeclarativeContactDetailRangeFilterEEPvPKT_.clean 0x00029038   Section        4  plugin.o(t._Z24qMetaTypeConstructHelperI24QDeclarativeListPropertyI36QDeclarativeContactDetailRangeFilterEEPvPKT_.clean)
    t._Z24qMetaTypeConstructHelperI24QDeclarativeListPropertyI37QDeclarativeContactIntersectionFilterEEPvPKT_ 0x0002903c   Section      150  plugin.o(t._Z24qMetaTypeConstructHelperI24QDeclarativeListPropertyI37QDeclarativeContactIntersectionFilterEEPvPKT_)
    t._Z24qMetaTypeConstructHelperI24QDeclarativeListPropertyI37QDeclarativeContactIntersectionFilterEEPvPKT_.clean 0x000290d2   Section        4  plugin.o(t._Z24qMetaTypeConstructHelperI24QDeclarativeListPropertyI37QDeclarativeContactIntersectionFilterEEPvPKT_.clean)
    t._Z24qMetaTypeConstructHelperI24QDeclarativeListPropertyI37QDeclarativeContactRelationshipFilterEEPvPKT_ 0x000290d6   Section      150  plugin.o(t._Z24qMetaTypeConstructHelperI24QDeclarativeListPropertyI37QDeclarativeContactRelationshipFilterEEPvPKT_)
    t._Z24qMetaTypeConstructHelperI24QDeclarativeListPropertyI37QDeclarativeContactRelationshipFilterEEPvPKT_.clean 0x0002916c   Section        4  plugin.o(t._Z24qMetaTypeConstructHelperI24QDeclarativeListPropertyI37QDeclarativeContactRelationshipFilterEEPvPKT_.clean)
    t._Z24qMetaTypeConstructHelperIP19QDeclarativeContactEPvPKT_ 0x00029170   Section       50  plugin.o(t._Z24qMetaTypeConstructHelperIP19QDeclarativeContactEPvPKT_)
    t._Z24qMetaTypeConstructHelperIP22QDeclarativeContactTagEPvPKT_ 0x000291a2   Section       50  plugin.o(t._Z24qMetaTypeConstructHelperIP22QDeclarativeContactTagEPvPKT_)
    t._Z24qMetaTypeConstructHelperIP22QDeclarativeContactUrlEPvPKT_ 0x000291d4   Section       50  plugin.o(t._Z24qMetaTypeConstructHelperIP22QDeclarativeContactUrlEPvPKT_)
    t._Z24qMetaTypeConstructHelperIP23QDeclarativeContactGuidEPvPKT_ 0x00029206   Section       50  plugin.o(t._Z24qMetaTypeConstructHelperIP23QDeclarativeContactGuidEPvPKT_)
    t._Z24qMetaTypeConstructHelperIP23QDeclarativeContactNameEPvPKT_ 0x00029238   Section       50  plugin.o(t._Z24qMetaTypeConstructHelperIP23QDeclarativeContactNameEPvPKT_)
    t._Z24qMetaTypeConstructHelperIP23QDeclarativeContactNoteEPvPKT_ 0x0002926a   Section       50  plugin.o(t._Z24qMetaTypeConstructHelperIP23QDeclarativeContactNoteEPvPKT_)
    t._Z24qMetaTypeConstructHelperIP24QDeclarativeContactHobbyEPvPKT_ 0x0002929c   Section       50  plugin.o(t._Z24qMetaTypeConstructHelperIP24QDeclarativeContactHobbyEPvPKT_)
    t._Z24qMetaTypeConstructHelperIP24QDeclarativeContactModelEPvPKT_ 0x000292ce   Section       50  plugin.o(t._Z24qMetaTypeConstructHelperIP24QDeclarativeContactModelEPvPKT_)
    t._Z24qMetaTypeConstructHelperIP25QDeclarativeContactAvatarEPvPKT_ 0x00029300   Section       50  plugin.o(t._Z24qMetaTypeConstructHelperIP25QDeclarativeContactAvatarEPvPKT_)
    t._Z24qMetaTypeConstructHelperIP25QDeclarativeContactDetailEPvPKT_ 0x00029332   Section       50  plugin.o(t._Z24qMetaTypeConstructHelperIP25QDeclarativeContactDetailEPvPKT_)
    t._Z24qMetaTypeConstructHelperIP25QDeclarativeContactFamilyEPvPKT_ 0x00029364   Section       50  plugin.o(t._Z24qMetaTypeConstructHelperIP25QDeclarativeContactFamilyEPvPKT_)
    t._Z24qMetaTypeConstructHelperIP25QDeclarativeContactFilterEPvPKT_ 0x00029396   Section       50  plugin.o(t._Z24qMetaTypeConstructHelperIP25QDeclarativeContactFilterEPvPKT_)
    t._Z24qMetaTypeConstructHelperIP25QDeclarativeContactGenderEPvPKT_ 0x000293c8   Section       50  plugin.o(t._Z24qMetaTypeConstructHelperIP25QDeclarativeContactGenderEPvPKT_)
    t._Z24qMetaTypeConstructHelperIP26QDeclarativeContactAddressEPvPKT_ 0x000293fa   Section       50  plugin.o(t._Z24qMetaTypeConstructHelperIP26QDeclarativeContactAddressEPvPKT_)
    t._Z24qMetaTypeConstructHelperIP27QDeclarativeContactBirthdayEPvPKT_ 0x0002942c   Section       50  plugin.o(t._Z24qMetaTypeConstructHelperIP27QDeclarativeContactBirthdayEPvPKT_)
    t._Z24qMetaTypeConstructHelperIP27QDeclarativeContactFavoriteEPvPKT_ 0x0002945e   Section       50  plugin.o(t._Z24qMetaTypeConstructHelperIP27QDeclarativeContactFavoriteEPvPKT_)
    t._Z24qMetaTypeConstructHelperIP27QDeclarativeContactNicknameEPvPKT_ 0x00029490   Section       50  plugin.o(t._Z24qMetaTypeConstructHelperIP27QDeclarativeContactNicknameEPvPKT_)
    t._Z24qMetaTypeConstructHelperIP27QDeclarativeContactPresenceEPvPKT_ 0x000294c2   Section       50  plugin.o(t._Z24qMetaTypeConstructHelperIP27QDeclarativeContactPresenceEPvPKT_)
    t._Z24qMetaTypeConstructHelperIP27QDeclarativeContactRingtoneEPvPKT_ 0x000294f4   Section       50  plugin.o(t._Z24qMetaTypeConstructHelperIP27QDeclarativeContactRingtoneEPvPKT_)
    t._Z24qMetaTypeConstructHelperIP28QDeclarativeContactFetchHintEPvPKT_ 0x00029526   Section       50  plugin.o(t._Z24qMetaTypeConstructHelperIP28QDeclarativeContactFetchHintEPvPKT_)
    t._Z24qMetaTypeConstructHelperIP28QDeclarativeContactSortOrderEPvPKT_ 0x00029558   Section       50  plugin.o(t._Z24qMetaTypeConstructHelperIP28QDeclarativeContactSortOrderEPvPKT_)
    t._Z24qMetaTypeConstructHelperIP28QDeclarativeContactTimestampEPvPKT_ 0x0002958a   Section       50  plugin.o(t._Z24qMetaTypeConstructHelperIP28QDeclarativeContactTimestampEPvPKT_)
    t._Z24qMetaTypeConstructHelperIP29QDeclarativeContactSyncTargetEPvPKT_ 0x000295bc   Section       50  plugin.o(t._Z24qMetaTypeConstructHelperIP29QDeclarativeContactSyncTargetEPvPKT_)
    t._Z24qMetaTypeConstructHelperIP30QDeclarativeContactAnniversaryEPvPKT_ 0x000295ee   Section       50  plugin.o(t._Z24qMetaTypeConstructHelperIP30QDeclarativeContactAnniversaryEPvPKT_)
    t._Z24qMetaTypeConstructHelperIP30QDeclarativeContactGeoLocationEPvPKT_ 0x00029620   Section       50  plugin.o(t._Z24qMetaTypeConstructHelperIP30QDeclarativeContactGeoLocationEPvPKT_)
    t._Z24qMetaTypeConstructHelperIP30QDeclarativeContactPhoneNumberEPvPKT_ 0x00029652   Section       50  plugin.o(t._Z24qMetaTypeConstructHelperIP30QDeclarativeContactPhoneNumberEPvPKT_)
    t._Z24qMetaTypeConstructHelperIP30QDeclarativeContactUnionFilterEPvPKT_ 0x00029684   Section       50  plugin.o(t._Z24qMetaTypeConstructHelperIP30QDeclarativeContactUnionFilterEPvPKT_)
    t._Z24qMetaTypeConstructHelperIP31QDeclarativeContactActionFilterEPvPKT_ 0x000296b6   Section       50  plugin.o(t._Z24qMetaTypeConstructHelperIP31QDeclarativeContactActionFilterEPvPKT_)
    t._Z24qMetaTypeConstructHelperIP31QDeclarativeContactDetailFilterEPvPKT_ 0x000296e8   Section       50  plugin.o(t._Z24qMetaTypeConstructHelperIP31QDeclarativeContactDetailFilterEPvPKT_)
    t._Z24qMetaTypeConstructHelperIP31QDeclarativeContactDisplayLabelEPvPKT_ 0x0002971a   Section       50  plugin.o(t._Z24qMetaTypeConstructHelperIP31QDeclarativeContactDisplayLabelEPvPKT_)
    t._Z24qMetaTypeConstructHelperIP31QDeclarativeContactEmailAddressEPvPKT_ 0x0002974c   Section       50  plugin.o(t._Z24qMetaTypeConstructHelperIP31QDeclarativeContactEmailAddressEPvPKT_)
    t._Z24qMetaTypeConstructHelperIP31QDeclarativeContactOrganizationEPvPKT_ 0x0002977e   Section       50  plugin.o(t._Z24qMetaTypeConstructHelperIP31QDeclarativeContactOrganizationEPvPKT_)
    t._Z24qMetaTypeConstructHelperIP31QDeclarativeContactRelationshipEPvPKT_ 0x000297b0   Section       50  plugin.o(t._Z24qMetaTypeConstructHelperIP31QDeclarativeContactRelationshipEPvPKT_)
    t._Z24qMetaTypeConstructHelperIP32QDeclarativeContactLocalIdFilterEPvPKT_ 0x000297e2   Section       50  plugin.o(t._Z24qMetaTypeConstructHelperIP32QDeclarativeContactLocalIdFilterEPvPKT_)
    t._Z24qMetaTypeConstructHelperIP32QDeclarativeContactOnlineAccountEPvPKT_ 0x00029814   Section       50  plugin.o(t._Z24qMetaTypeConstructHelperIP32QDeclarativeContactOnlineAccountEPvPKT_)
    t._Z24qMetaTypeConstructHelperIP33QDeclarativeContactGlobalPresenceEPvPKT_ 0x00029846   Section       50  plugin.o(t._Z24qMetaTypeConstructHelperIP33QDeclarativeContactGlobalPresenceEPvPKT_)
    t._Z24qMetaTypeConstructHelperIP34QDeclarativeContactChangeLogFilterEPvPKT_ 0x00029878   Section       50  plugin.o(t._Z24qMetaTypeConstructHelperIP34QDeclarativeContactChangeLogFilterEPvPKT_)
    t._Z24qMetaTypeConstructHelperIP36QDeclarativeContactDetailRangeFilterEPvPKT_ 0x000298aa   Section       50  plugin.o(t._Z24qMetaTypeConstructHelperIP36QDeclarativeContactDetailRangeFilterEPvPKT_)
    t._Z24qMetaTypeConstructHelperIP37QDeclarativeContactIntersectionFilterEPvPKT_ 0x000298dc   Section       50  plugin.o(t._Z24qMetaTypeConstructHelperIP37QDeclarativeContactIntersectionFilterEPvPKT_)
    t._Z24qMetaTypeConstructHelperIP37QDeclarativeContactRelationshipFilterEPvPKT_ 0x0002990e   Section       50  plugin.o(t._Z24qMetaTypeConstructHelperIP37QDeclarativeContactRelationshipFilterEPvPKT_)
    t._Z24qMetaTypeConstructHelperIjEPvPKT_  0x00029940   Section       50  plugin.o(t._Z24qMetaTypeConstructHelperIjEPvPKT_)
    t._Z4qAbsIdET_RKS0_                      0x00029974   Section       56  moc_qdeclarativecontactgeolocation_p.o(t._Z4qAbsIdET_RKS0_)
    t._ZN10QtMobilityeqILi10EEEbRK7QStringRKNS_15QLatin1ConstantIXT_EEE 0x000299ac   Section       24  qdeclarativecontactdetail.o(t._ZN10QtMobilityeqILi10EEEbRK7QStringRKNS_15QLatin1ConstantIXT_EEE)
    t._ZN10QtMobilityeqILi11EEEbRK7QStringRKNS_15QLatin1ConstantIXT_EEE 0x000299c4   Section       24  moc_qdeclarativecontactanniversary_p.o(t._ZN10QtMobilityeqILi11EEEbRK7QStringRKNS_15QLatin1ConstantIXT_EEE)
    t._ZN10QtMobilityeqILi12EEEbRK7QStringRKNS_15QLatin1ConstantIXT_EEE 0x000299dc   Section       24  qdeclarativecontactdetail.o(t._ZN10QtMobilityeqILi12EEEbRK7QStringRKNS_15QLatin1ConstantIXT_EEE)
    t._ZN10QtMobilityeqILi13EEEbRK7QStringRKNS_15QLatin1ConstantIXT_EEE 0x000299f4   Section       24  qdeclarativecontactdetail.o(t._ZN10QtMobilityeqILi13EEEbRK7QStringRKNS_15QLatin1ConstantIXT_EEE)
    t._ZN10QtMobilityeqILi14EEEbRK7QStringRKNS_15QLatin1ConstantIXT_EEE 0x00029a0c   Section       24  qdeclarativecontactdetail.o(t._ZN10QtMobilityeqILi14EEEbRK7QStringRKNS_15QLatin1ConstantIXT_EEE)
    t._ZN10QtMobilityeqILi15EEEbRK7QStringRKNS_15QLatin1ConstantIXT_EEE 0x00029a24   Section       24  qdeclarativecontactdetail.o(t._ZN10QtMobilityeqILi15EEEbRK7QStringRKNS_15QLatin1ConstantIXT_EEE)
    t._ZN10QtMobilityeqILi4EEEbRK7QStringRKNS_15QLatin1ConstantIXT_EEE 0x00029a3c   Section       24  qdeclarativecontactdetail.o(t._ZN10QtMobilityeqILi4EEEbRK7QStringRKNS_15QLatin1ConstantIXT_EEE)
    t._ZN10QtMobilityeqILi5EEEbRK7QStringRKNS_15QLatin1ConstantIXT_EEE 0x00029a54   Section       24  moc_qdeclarativecontactgender_p.o(t._ZN10QtMobilityeqILi5EEEbRK7QStringRKNS_15QLatin1ConstantIXT_EEE)
    t._ZN10QtMobilityeqILi6EEEbRK7QStringRKNS_15QLatin1ConstantIXT_EEE 0x00029a6c   Section       24  moc_qdeclarativecontactanniversary_p.o(t._ZN10QtMobilityeqILi6EEEbRK7QStringRKNS_15QLatin1ConstantIXT_EEE)
    t._ZN10QtMobilityeqILi7EEEbRK7QStringRKNS_15QLatin1ConstantIXT_EEE 0x00029a84   Section       24  qdeclarativecontactdetail.o(t._ZN10QtMobilityeqILi7EEEbRK7QStringRKNS_15QLatin1ConstantIXT_EEE)
    t._ZN10QtMobilityeqILi8EEEbRK7QStringRKNS_15QLatin1ConstantIXT_EEE 0x00029a9c   Section       24  moc_qdeclarativecontactanniversary_p.o(t._ZN10QtMobilityeqILi8EEEbRK7QStringRKNS_15QLatin1ConstantIXT_EEE)
    t._ZN10QtMobilityeqILi9EEEbRK7QStringRKNS_15QLatin1ConstantIXT_EEE 0x00029ab4   Section       24  moc_qdeclarativecontactanniversary_p.o(t._ZN10QtMobilityeqILi9EEEbRK7QStringRKNS_15QLatin1ConstantIXT_EEE)
    t._ZN12QMetaTypeId2I24QDeclarativeListPropertyI25QDeclarativeContactDetailEE14qt_metatype_idEv 0x00029acc   Section      100  qdeclarativecontact.o(t._ZN12QMetaTypeId2I24QDeclarativeListPropertyI25QDeclarativeContactDetailEE14qt_metatype_idEv)
    t._ZN12QMetaTypeId2IP19QDeclarativeContactE14qt_metatype_idEv 0x00029b30   Section       84  qdeclarativecontactmodel.o(t._ZN12QMetaTypeId2IP19QDeclarativeContactE14qt_metatype_idEv)
    t._ZN12QMetaTypeId2IP25QDeclarativeContactDetailE14qt_metatype_idEv 0x00029b84   Section       76  qdeclarativecontact.o(t._ZN12QMetaTypeId2IP25QDeclarativeContactDetailE14qt_metatype_idEv)
    t._ZN12QMetaTypeId2IP31QDeclarativeContactRelationshipE14qt_metatype_idEv 0x00029bd0   Section       96  qdeclarativecontactrelationshipmodel.o(t._ZN12QMetaTypeId2IP31QDeclarativeContactRelationshipE14qt_metatype_idEv)
    t._ZN14QHashDummyNodeI7QString15QHashDummyValueEC1ERKS0_ 0x00029c30   Section       24  moc_qdeclarativecontactaddress_p.o(t._ZN14QHashDummyNodeI7QString15QHashDummyValueEC1ERKS0_)
    t._ZN19QDeclarativePrivate10createIntoI19QDeclarativeContactEEvPv 0x00029c48   Section       44  plugin.o(t._ZN19QDeclarativePrivate10createIntoI19QDeclarativeContactEEvPv)
    t._ZN19QDeclarativePrivate10createIntoI19QDeclarativeContactEEvPv.clean 0x00029c74   Section       12  plugin.o(t._ZN19QDeclarativePrivate10createIntoI19QDeclarativeContactEEvPv.clean)
    t._ZN19QDeclarativePrivate10createIntoI22QDeclarativeContactTagEEvPv 0x00029c80   Section       44  plugin.o(t._ZN19QDeclarativePrivate10createIntoI22QDeclarativeContactTagEEvPv)
    t._ZN19QDeclarativePrivate10createIntoI22QDeclarativeContactTagEEvPv.clean 0x00029cac   Section       12  plugin.o(t._ZN19QDeclarativePrivate10createIntoI22QDeclarativeContactTagEEvPv.clean)
    t._ZN19QDeclarativePrivate10createIntoI22QDeclarativeContactUrlEEvPv 0x00029cb8   Section       44  plugin.o(t._ZN19QDeclarativePrivate10createIntoI22QDeclarativeContactUrlEEvPv)
    t._ZN19QDeclarativePrivate10createIntoI22QDeclarativeContactUrlEEvPv.clean 0x00029ce4   Section       12  plugin.o(t._ZN19QDeclarativePrivate10createIntoI22QDeclarativeContactUrlEEvPv.clean)
    t._ZN19QDeclarativePrivate10createIntoI23QDeclarativeContactGuidEEvPv 0x00029cf0   Section       44  plugin.o(t._ZN19QDeclarativePrivate10createIntoI23QDeclarativeContactGuidEEvPv)
    t._ZN19QDeclarativePrivate10createIntoI23QDeclarativeContactGuidEEvPv.clean 0x00029d1c   Section       12  plugin.o(t._ZN19QDeclarativePrivate10createIntoI23QDeclarativeContactGuidEEvPv.clean)
    t._ZN19QDeclarativePrivate10createIntoI23QDeclarativeContactNameEEvPv 0x00029d28   Section       44  plugin.o(t._ZN19QDeclarativePrivate10createIntoI23QDeclarativeContactNameEEvPv)
    t._ZN19QDeclarativePrivate10createIntoI23QDeclarativeContactNameEEvPv.clean 0x00029d54   Section       12  plugin.o(t._ZN19QDeclarativePrivate10createIntoI23QDeclarativeContactNameEEvPv.clean)
    t._ZN19QDeclarativePrivate10createIntoI23QDeclarativeContactNoteEEvPv 0x00029d60   Section       44  plugin.o(t._ZN19QDeclarativePrivate10createIntoI23QDeclarativeContactNoteEEvPv)
    t._ZN19QDeclarativePrivate10createIntoI23QDeclarativeContactNoteEEvPv.clean 0x00029d8c   Section       12  plugin.o(t._ZN19QDeclarativePrivate10createIntoI23QDeclarativeContactNoteEEvPv.clean)
    t._ZN19QDeclarativePrivate10createIntoI24QDeclarativeContactHobbyEEvPv 0x00029d98   Section       44  plugin.o(t._ZN19QDeclarativePrivate10createIntoI24QDeclarativeContactHobbyEEvPv)
    t._ZN19QDeclarativePrivate10createIntoI24QDeclarativeContactHobbyEEvPv.clean 0x00029dc4   Section       12  plugin.o(t._ZN19QDeclarativePrivate10createIntoI24QDeclarativeContactHobbyEEvPv.clean)
    t._ZN19QDeclarativePrivate10createIntoI24QDeclarativeContactModelEEvPv 0x00029dd0   Section       48  plugin.o(t._ZN19QDeclarativePrivate10createIntoI24QDeclarativeContactModelEEvPv)
    t._ZN19QDeclarativePrivate10createIntoI24QDeclarativeContactModelEEvPv.clean 0x00029e00   Section       12  plugin.o(t._ZN19QDeclarativePrivate10createIntoI24QDeclarativeContactModelEEvPv.clean)
    t._ZN19QDeclarativePrivate10createIntoI25QDeclarativeContactAvatarEEvPv 0x00029e0c   Section       44  plugin.o(t._ZN19QDeclarativePrivate10createIntoI25QDeclarativeContactAvatarEEvPv)
    t._ZN19QDeclarativePrivate10createIntoI25QDeclarativeContactAvatarEEvPv.clean 0x00029e38   Section       12  plugin.o(t._ZN19QDeclarativePrivate10createIntoI25QDeclarativeContactAvatarEEvPv.clean)
    t._ZN19QDeclarativePrivate10createIntoI25QDeclarativeContactDetailEEvPv 0x00029e44   Section       44  plugin.o(t._ZN19QDeclarativePrivate10createIntoI25QDeclarativeContactDetailEEvPv)
    t._ZN19QDeclarativePrivate10createIntoI25QDeclarativeContactDetailEEvPv.clean 0x00029e70   Section       12  plugin.o(t._ZN19QDeclarativePrivate10createIntoI25QDeclarativeContactDetailEEvPv.clean)
    t._ZN19QDeclarativePrivate10createIntoI25QDeclarativeContactFamilyEEvPv 0x00029e7c   Section       44  plugin.o(t._ZN19QDeclarativePrivate10createIntoI25QDeclarativeContactFamilyEEvPv)
    t._ZN19QDeclarativePrivate10createIntoI25QDeclarativeContactFamilyEEvPv.clean 0x00029ea8   Section       12  plugin.o(t._ZN19QDeclarativePrivate10createIntoI25QDeclarativeContactFamilyEEvPv.clean)
    t._ZN19QDeclarativePrivate10createIntoI25QDeclarativeContactFilterEEvPv 0x00029eb4   Section       44  plugin.o(t._ZN19QDeclarativePrivate10createIntoI25QDeclarativeContactFilterEEvPv)
    t._ZN19QDeclarativePrivate10createIntoI25QDeclarativeContactFilterEEvPv.clean 0x00029ee0   Section       12  plugin.o(t._ZN19QDeclarativePrivate10createIntoI25QDeclarativeContactFilterEEvPv.clean)
    t._ZN19QDeclarativePrivate10createIntoI25QDeclarativeContactGenderEEvPv 0x00029eec   Section       44  plugin.o(t._ZN19QDeclarativePrivate10createIntoI25QDeclarativeContactGenderEEvPv)
    t._ZN19QDeclarativePrivate10createIntoI25QDeclarativeContactGenderEEvPv.clean 0x00029f18   Section       12  plugin.o(t._ZN19QDeclarativePrivate10createIntoI25QDeclarativeContactGenderEEvPv.clean)
    t._ZN19QDeclarativePrivate10createIntoI26QDeclarativeContactAddressEEvPv 0x00029f24   Section       44  plugin.o(t._ZN19QDeclarativePrivate10createIntoI26QDeclarativeContactAddressEEvPv)
    t._ZN19QDeclarativePrivate10createIntoI26QDeclarativeContactAddressEEvPv.clean 0x00029f50   Section       12  plugin.o(t._ZN19QDeclarativePrivate10createIntoI26QDeclarativeContactAddressEEvPv.clean)
    t._ZN19QDeclarativePrivate10createIntoI27QDeclarativeContactBirthdayEEvPv 0x00029f5c   Section       44  plugin.o(t._ZN19QDeclarativePrivate10createIntoI27QDeclarativeContactBirthdayEEvPv)
    t._ZN19QDeclarativePrivate10createIntoI27QDeclarativeContactBirthdayEEvPv.clean 0x00029f88   Section       12  plugin.o(t._ZN19QDeclarativePrivate10createIntoI27QDeclarativeContactBirthdayEEvPv.clean)
    t._ZN19QDeclarativePrivate10createIntoI27QDeclarativeContactFavoriteEEvPv 0x00029f94   Section       44  plugin.o(t._ZN19QDeclarativePrivate10createIntoI27QDeclarativeContactFavoriteEEvPv)
    t._ZN19QDeclarativePrivate10createIntoI27QDeclarativeContactFavoriteEEvPv.clean 0x00029fc0   Section       12  plugin.o(t._ZN19QDeclarativePrivate10createIntoI27QDeclarativeContactFavoriteEEvPv.clean)
    t._ZN19QDeclarativePrivate10createIntoI27QDeclarativeContactNicknameEEvPv 0x00029fcc   Section       44  plugin.o(t._ZN19QDeclarativePrivate10createIntoI27QDeclarativeContactNicknameEEvPv)
    t._ZN19QDeclarativePrivate10createIntoI27QDeclarativeContactNicknameEEvPv.clean 0x00029ff8   Section       12  plugin.o(t._ZN19QDeclarativePrivate10createIntoI27QDeclarativeContactNicknameEEvPv.clean)
    t._ZN19QDeclarativePrivate10createIntoI27QDeclarativeContactPresenceEEvPv 0x0002a004   Section       44  plugin.o(t._ZN19QDeclarativePrivate10createIntoI27QDeclarativeContactPresenceEEvPv)
    t._ZN19QDeclarativePrivate10createIntoI27QDeclarativeContactPresenceEEvPv.clean 0x0002a030   Section       12  plugin.o(t._ZN19QDeclarativePrivate10createIntoI27QDeclarativeContactPresenceEEvPv.clean)
    t._ZN19QDeclarativePrivate10createIntoI27QDeclarativeContactRingtoneEEvPv 0x0002a03c   Section       44  plugin.o(t._ZN19QDeclarativePrivate10createIntoI27QDeclarativeContactRingtoneEEvPv)
    t._ZN19QDeclarativePrivate10createIntoI27QDeclarativeContactRingtoneEEvPv.clean 0x0002a068   Section       12  plugin.o(t._ZN19QDeclarativePrivate10createIntoI27QDeclarativeContactRingtoneEEvPv.clean)
    t._ZN19QDeclarativePrivate10createIntoI28QDeclarativeContactFetchHintEEvPv 0x0002a074   Section       44  plugin.o(t._ZN19QDeclarativePrivate10createIntoI28QDeclarativeContactFetchHintEEvPv)
    t._ZN19QDeclarativePrivate10createIntoI28QDeclarativeContactFetchHintEEvPv.clean 0x0002a0a0   Section       12  plugin.o(t._ZN19QDeclarativePrivate10createIntoI28QDeclarativeContactFetchHintEEvPv.clean)
    t._ZN19QDeclarativePrivate10createIntoI28QDeclarativeContactSortOrderEEvPv 0x0002a0ac   Section       48  plugin.o(t._ZN19QDeclarativePrivate10createIntoI28QDeclarativeContactSortOrderEEvPv)
    t._ZN19QDeclarativePrivate10createIntoI28QDeclarativeContactSortOrderEEvPv.clean 0x0002a0dc   Section       12  plugin.o(t._ZN19QDeclarativePrivate10createIntoI28QDeclarativeContactSortOrderEEvPv.clean)
    t._ZN19QDeclarativePrivate10createIntoI28QDeclarativeContactTimestampEEvPv 0x0002a0e8   Section       44  plugin.o(t._ZN19QDeclarativePrivate10createIntoI28QDeclarativeContactTimestampEEvPv)
    t._ZN19QDeclarativePrivate10createIntoI28QDeclarativeContactTimestampEEvPv.clean 0x0002a114   Section       12  plugin.o(t._ZN19QDeclarativePrivate10createIntoI28QDeclarativeContactTimestampEEvPv.clean)
    t._ZN19QDeclarativePrivate10createIntoI29QDeclarativeContactSyncTargetEEvPv 0x0002a120   Section       44  plugin.o(t._ZN19QDeclarativePrivate10createIntoI29QDeclarativeContactSyncTargetEEvPv)
    t._ZN19QDeclarativePrivate10createIntoI29QDeclarativeContactSyncTargetEEvPv.clean 0x0002a14c   Section       12  plugin.o(t._ZN19QDeclarativePrivate10createIntoI29QDeclarativeContactSyncTargetEEvPv.clean)
    t._ZN19QDeclarativePrivate10createIntoI30QDeclarativeContactAnniversaryEEvPv 0x0002a158   Section       44  plugin.o(t._ZN19QDeclarativePrivate10createIntoI30QDeclarativeContactAnniversaryEEvPv)
    t._ZN19QDeclarativePrivate10createIntoI30QDeclarativeContactAnniversaryEEvPv.clean 0x0002a184   Section       12  plugin.o(t._ZN19QDeclarativePrivate10createIntoI30QDeclarativeContactAnniversaryEEvPv.clean)
    t._ZN19QDeclarativePrivate10createIntoI30QDeclarativeContactGeoLocationEEvPv 0x0002a190   Section       44  plugin.o(t._ZN19QDeclarativePrivate10createIntoI30QDeclarativeContactGeoLocationEEvPv)
    t._ZN19QDeclarativePrivate10createIntoI30QDeclarativeContactGeoLocationEEvPv.clean 0x0002a1bc   Section       12  plugin.o(t._ZN19QDeclarativePrivate10createIntoI30QDeclarativeContactGeoLocationEEvPv.clean)
    t._ZN19QDeclarativePrivate10createIntoI30QDeclarativeContactPhoneNumberEEvPv 0x0002a1c8   Section       44  plugin.o(t._ZN19QDeclarativePrivate10createIntoI30QDeclarativeContactPhoneNumberEEvPv)
    t._ZN19QDeclarativePrivate10createIntoI30QDeclarativeContactPhoneNumberEEvPv.clean 0x0002a1f4   Section       12  plugin.o(t._ZN19QDeclarativePrivate10createIntoI30QDeclarativeContactPhoneNumberEEvPv.clean)
    t._ZN19QDeclarativePrivate10createIntoI30QDeclarativeContactUnionFilterEEvPv 0x0002a200   Section      124  plugin.o(t._ZN19QDeclarativePrivate10createIntoI30QDeclarativeContactUnionFilterEEvPv)
    t._ZN19QDeclarativePrivate10createIntoI30QDeclarativeContactUnionFilterEEvPv.clean 0x0002a27c   Section       34  plugin.o(t._ZN19QDeclarativePrivate10createIntoI30QDeclarativeContactUnionFilterEEvPv.clean)
    t._ZN19QDeclarativePrivate10createIntoI31QDeclarativeContactActionFilterEEvPv 0x0002a2a0   Section      124  plugin.o(t._ZN19QDeclarativePrivate10createIntoI31QDeclarativeContactActionFilterEEvPv)
    t._ZN19QDeclarativePrivate10createIntoI31QDeclarativeContactActionFilterEEvPv.clean 0x0002a31c   Section       34  plugin.o(t._ZN19QDeclarativePrivate10createIntoI31QDeclarativeContactActionFilterEEvPv.clean)
    t._ZN19QDeclarativePrivate10createIntoI31QDeclarativeContactDetailFilterEEvPv 0x0002a340   Section       48  plugin.o(t._ZN19QDeclarativePrivate10createIntoI31QDeclarativeContactDetailFilterEEvPv)
    t._ZN19QDeclarativePrivate10createIntoI31QDeclarativeContactDetailFilterEEvPv.clean 0x0002a370   Section       12  plugin.o(t._ZN19QDeclarativePrivate10createIntoI31QDeclarativeContactDetailFilterEEvPv.clean)
    t._ZN19QDeclarativePrivate10createIntoI31QDeclarativeContactDisplayLabelEEvPv 0x0002a37c   Section       44  plugin.o(t._ZN19QDeclarativePrivate10createIntoI31QDeclarativeContactDisplayLabelEEvPv)
    t._ZN19QDeclarativePrivate10createIntoI31QDeclarativeContactDisplayLabelEEvPv.clean 0x0002a3a8   Section       12  plugin.o(t._ZN19QDeclarativePrivate10createIntoI31QDeclarativeContactDisplayLabelEEvPv.clean)
    t._ZN19QDeclarativePrivate10createIntoI31QDeclarativeContactEmailAddressEEvPv 0x0002a3b4   Section       44  plugin.o(t._ZN19QDeclarativePrivate10createIntoI31QDeclarativeContactEmailAddressEEvPv)
    t._ZN19QDeclarativePrivate10createIntoI31QDeclarativeContactEmailAddressEEvPv.clean 0x0002a3e0   Section       12  plugin.o(t._ZN19QDeclarativePrivate10createIntoI31QDeclarativeContactEmailAddressEEvPv.clean)
    t._ZN19QDeclarativePrivate10createIntoI31QDeclarativeContactOrganizationEEvPv 0x0002a3ec   Section       44  plugin.o(t._ZN19QDeclarativePrivate10createIntoI31QDeclarativeContactOrganizationEEvPv)
    t._ZN19QDeclarativePrivate10createIntoI31QDeclarativeContactOrganizationEEvPv.clean 0x0002a418   Section       12  plugin.o(t._ZN19QDeclarativePrivate10createIntoI31QDeclarativeContactOrganizationEEvPv.clean)
    t._ZN19QDeclarativePrivate10createIntoI31QDeclarativeContactRelationshipEEvPv 0x0002a424   Section       44  plugin.o(t._ZN19QDeclarativePrivate10createIntoI31QDeclarativeContactRelationshipEEvPv)
    t._ZN19QDeclarativePrivate10createIntoI31QDeclarativeContactRelationshipEEvPv.clean 0x0002a450   Section       12  plugin.o(t._ZN19QDeclarativePrivate10createIntoI31QDeclarativeContactRelationshipEEvPv.clean)
    t._ZN19QDeclarativePrivate10createIntoI32QDeclarativeContactLocalIdFilterEEvPv 0x0002a45c   Section      124  plugin.o(t._ZN19QDeclarativePrivate10createIntoI32QDeclarativeContactLocalIdFilterEEvPv)
    t._ZN19QDeclarativePrivate10createIntoI32QDeclarativeContactLocalIdFilterEEvPv.clean 0x0002a4d8   Section       34  plugin.o(t._ZN19QDeclarativePrivate10createIntoI32QDeclarativeContactLocalIdFilterEEvPv.clean)
    t._ZN19QDeclarativePrivate10createIntoI32QDeclarativeContactOnlineAccountEEvPv 0x0002a4fc   Section       44  plugin.o(t._ZN19QDeclarativePrivate10createIntoI32QDeclarativeContactOnlineAccountEEvPv)
    t._ZN19QDeclarativePrivate10createIntoI32QDeclarativeContactOnlineAccountEEvPv.clean 0x0002a528   Section       12  plugin.o(t._ZN19QDeclarativePrivate10createIntoI32QDeclarativeContactOnlineAccountEEvPv.clean)
    t._ZN19QDeclarativePrivate10createIntoI33QDeclarativeContactGlobalPresenceEEvPv 0x0002a534   Section       44  plugin.o(t._ZN19QDeclarativePrivate10createIntoI33QDeclarativeContactGlobalPresenceEEvPv)
    t._ZN19QDeclarativePrivate10createIntoI33QDeclarativeContactGlobalPresenceEEvPv.clean 0x0002a560   Section       12  plugin.o(t._ZN19QDeclarativePrivate10createIntoI33QDeclarativeContactGlobalPresenceEEvPv.clean)
    t._ZN19QDeclarativePrivate10createIntoI34QDeclarativeContactChangeLogFilterEEvPv 0x0002a56c   Section      124  plugin.o(t._ZN19QDeclarativePrivate10createIntoI34QDeclarativeContactChangeLogFilterEEvPv)
    t._ZN19QDeclarativePrivate10createIntoI34QDeclarativeContactChangeLogFilterEEvPv.clean 0x0002a5e8   Section       34  plugin.o(t._ZN19QDeclarativePrivate10createIntoI34QDeclarativeContactChangeLogFilterEEvPv.clean)
    t._ZN19QDeclarativePrivate10createIntoI36QDeclarativeContactDetailRangeFilterEEvPv 0x0002a60c   Section       48  plugin.o(t._ZN19QDeclarativePrivate10createIntoI36QDeclarativeContactDetailRangeFilterEEvPv)
    t._ZN19QDeclarativePrivate10createIntoI36QDeclarativeContactDetailRangeFilterEEvPv.clean 0x0002a63c   Section       12  plugin.o(t._ZN19QDeclarativePrivate10createIntoI36QDeclarativeContactDetailRangeFilterEEvPv.clean)
    t._ZN19QDeclarativePrivate10createIntoI37QDeclarativeContactIntersectionFilterEEvPv 0x0002a648   Section      124  plugin.o(t._ZN19QDeclarativePrivate10createIntoI37QDeclarativeContactIntersectionFilterEEvPv)
    t._ZN19QDeclarativePrivate10createIntoI37QDeclarativeContactIntersectionFilterEEvPv.clean 0x0002a6c4   Section       34  plugin.o(t._ZN19QDeclarativePrivate10createIntoI37QDeclarativeContactIntersectionFilterEEvPv.clean)
    t._ZN19QDeclarativePrivate10createIntoI37QDeclarativeContactRelationshipFilterEEvPv 0x0002a6e8   Section      124  plugin.o(t._ZN19QDeclarativePrivate10createIntoI37QDeclarativeContactRelationshipFilterEEvPv)
    t._ZN19QDeclarativePrivate10createIntoI37QDeclarativeContactRelationshipFilterEEvPv.clean 0x0002a764   Section       34  plugin.o(t._ZN19QDeclarativePrivate10createIntoI37QDeclarativeContactRelationshipFilterEEvPv.clean)
    t._ZN19QDeclarativePrivate19QDeclarativeElementI19QDeclarativeContactED1Ev 0x0002a788   Section       28  plugin.o(t._ZN19QDeclarativePrivate19QDeclarativeElementI19QDeclarativeContactED1Ev)
    t._ZN19QDeclarativePrivate19QDeclarativeElementI19QDeclarativeContactED1Ev.clean 0x0002a7a4   Section       10  plugin.o(t._ZN19QDeclarativePrivate19QDeclarativeElementI19QDeclarativeContactED1Ev.clean)
    t._ZN19QDeclarativePrivate19QDeclarativeElementI22QDeclarativeContactTagED1Ev 0x0002a7b0   Section       32  plugin.o(t._ZN19QDeclarativePrivate19QDeclarativeElementI22QDeclarativeContactTagED1Ev)
    t._ZN19QDeclarativePrivate19QDeclarativeElementI22QDeclarativeContactTagED1Ev.clean 0x0002a7d0   Section       10  plugin.o(t._ZN19QDeclarativePrivate19QDeclarativeElementI22QDeclarativeContactTagED1Ev.clean)
    t._ZN19QDeclarativePrivate19QDeclarativeElementI22QDeclarativeContactUrlED1Ev 0x0002a7dc   Section       32  plugin.o(t._ZN19QDeclarativePrivate19QDeclarativeElementI22QDeclarativeContactUrlED1Ev)
    t._ZN19QDeclarativePrivate19QDeclarativeElementI22QDeclarativeContactUrlED1Ev.clean 0x0002a7fc   Section       10  plugin.o(t._ZN19QDeclarativePrivate19QDeclarativeElementI22QDeclarativeContactUrlED1Ev.clean)
    t._ZN19QDeclarativePrivate19QDeclarativeElementI23QDeclarativeContactGuidED1Ev 0x0002a808   Section       32  plugin.o(t._ZN19QDeclarativePrivate19QDeclarativeElementI23QDeclarativeContactGuidED1Ev)
    t._ZN19QDeclarativePrivate19QDeclarativeElementI23QDeclarativeContactGuidED1Ev.clean 0x0002a828   Section       10  plugin.o(t._ZN19QDeclarativePrivate19QDeclarativeElementI23QDeclarativeContactGuidED1Ev.clean)
    t._ZN19QDeclarativePrivate19QDeclarativeElementI23QDeclarativeContactNameED1Ev 0x0002a834   Section       32  plugin.o(t._ZN19QDeclarativePrivate19QDeclarativeElementI23QDeclarativeContactNameED1Ev)
    t._ZN19QDeclarativePrivate19QDeclarativeElementI23QDeclarativeContactNameED1Ev.clean 0x0002a854   Section       10  plugin.o(t._ZN19QDeclarativePrivate19QDeclarativeElementI23QDeclarativeContactNameED1Ev.clean)
    t._ZN19QDeclarativePrivate19QDeclarativeElementI23QDeclarativeContactNoteED1Ev 0x0002a860   Section       32  plugin.o(t._ZN19QDeclarativePrivate19QDeclarativeElementI23QDeclarativeContactNoteED1Ev)
    t._ZN19QDeclarativePrivate19QDeclarativeElementI23QDeclarativeContactNoteED1Ev.clean 0x0002a880   Section       10  plugin.o(t._ZN19QDeclarativePrivate19QDeclarativeElementI23QDeclarativeContactNoteED1Ev.clean)
    t._ZN19QDeclarativePrivate19QDeclarativeElementI24QDeclarativeContactHobbyED1Ev 0x0002a88c   Section       32  plugin.o(t._ZN19QDeclarativePrivate19QDeclarativeElementI24QDeclarativeContactHobbyED1Ev)
    t._ZN19QDeclarativePrivate19QDeclarativeElementI24QDeclarativeContactHobbyED1Ev.clean 0x0002a8ac   Section       10  plugin.o(t._ZN19QDeclarativePrivate19QDeclarativeElementI24QDeclarativeContactHobbyED1Ev.clean)
    t._ZN19QDeclarativePrivate19QDeclarativeElementI24QDeclarativeContactModelED1Ev 0x0002a8b8   Section       32  plugin.o(t._ZN19QDeclarativePrivate19QDeclarativeElementI24QDeclarativeContactModelED1Ev)
    t._ZN19QDeclarativePrivate19QDeclarativeElementI24QDeclarativeContactModelED1Ev.clean 0x0002a8d8   Section       10  plugin.o(t._ZN19QDeclarativePrivate19QDeclarativeElementI24QDeclarativeContactModelED1Ev.clean)
    t._ZN19QDeclarativePrivate19QDeclarativeElementI25QDeclarativeContactAvatarED1Ev 0x0002a8e4   Section       32  plugin.o(t._ZN19QDeclarativePrivate19QDeclarativeElementI25QDeclarativeContactAvatarED1Ev)
    t._ZN19QDeclarativePrivate19QDeclarativeElementI25QDeclarativeContactAvatarED1Ev.clean 0x0002a904   Section       10  plugin.o(t._ZN19QDeclarativePrivate19QDeclarativeElementI25QDeclarativeContactAvatarED1Ev.clean)
    t._ZN19QDeclarativePrivate19QDeclarativeElementI25QDeclarativeContactDetailED1Ev 0x0002a910   Section       28  plugin.o(t._ZN19QDeclarativePrivate19QDeclarativeElementI25QDeclarativeContactDetailED1Ev)
    t._ZN19QDeclarativePrivate19QDeclarativeElementI25QDeclarativeContactDetailED1Ev.clean 0x0002a92c   Section       10  plugin.o(t._ZN19QDeclarativePrivate19QDeclarativeElementI25QDeclarativeContactDetailED1Ev.clean)
    t._ZN19QDeclarativePrivate19QDeclarativeElementI25QDeclarativeContactFamilyED1Ev 0x0002a938   Section       32  plugin.o(t._ZN19QDeclarativePrivate19QDeclarativeElementI25QDeclarativeContactFamilyED1Ev)
    t._ZN19QDeclarativePrivate19QDeclarativeElementI25QDeclarativeContactFamilyED1Ev.clean 0x0002a958   Section       10  plugin.o(t._ZN19QDeclarativePrivate19QDeclarativeElementI25QDeclarativeContactFamilyED1Ev.clean)
    t._ZN19QDeclarativePrivate19QDeclarativeElementI25QDeclarativeContactFilterED1Ev 0x0002a964   Section       28  plugin.o(t._ZN19QDeclarativePrivate19QDeclarativeElementI25QDeclarativeContactFilterED1Ev)
    t._ZN19QDeclarativePrivate19QDeclarativeElementI25QDeclarativeContactFilterED1Ev.clean 0x0002a980   Section       10  plugin.o(t._ZN19QDeclarativePrivate19QDeclarativeElementI25QDeclarativeContactFilterED1Ev.clean)
    t._ZN19QDeclarativePrivate19QDeclarativeElementI25QDeclarativeContactGenderED1Ev 0x0002a98c   Section       32  plugin.o(t._ZN19QDeclarativePrivate19QDeclarativeElementI25QDeclarativeContactGenderED1Ev)
    t._ZN19QDeclarativePrivate19QDeclarativeElementI25QDeclarativeContactGenderED1Ev.clean 0x0002a9ac   Section       10  plugin.o(t._ZN19QDeclarativePrivate19QDeclarativeElementI25QDeclarativeContactGenderED1Ev.clean)
    t._ZN19QDeclarativePrivate19QDeclarativeElementI26QDeclarativeContactAddressED1Ev 0x0002a9b8   Section       32  plugin.o(t._ZN19QDeclarativePrivate19QDeclarativeElementI26QDeclarativeContactAddressED1Ev)
    t._ZN19QDeclarativePrivate19QDeclarativeElementI26QDeclarativeContactAddressED1Ev.clean 0x0002a9d8   Section       10  plugin.o(t._ZN19QDeclarativePrivate19QDeclarativeElementI26QDeclarativeContactAddressED1Ev.clean)
    t._ZN19QDeclarativePrivate19QDeclarativeElementI27QDeclarativeContactBirthdayED1Ev 0x0002a9e4   Section       32  plugin.o(t._ZN19QDeclarativePrivate19QDeclarativeElementI27QDeclarativeContactBirthdayED1Ev)
    t._ZN19QDeclarativePrivate19QDeclarativeElementI27QDeclarativeContactBirthdayED1Ev.clean 0x0002aa04   Section       10  plugin.o(t._ZN19QDeclarativePrivate19QDeclarativeElementI27QDeclarativeContactBirthdayED1Ev.clean)
    t._ZN19QDeclarativePrivate19QDeclarativeElementI27QDeclarativeContactFavoriteED1Ev 0x0002aa10   Section       32  plugin.o(t._ZN19QDeclarativePrivate19QDeclarativeElementI27QDeclarativeContactFavoriteED1Ev)
    t._ZN19QDeclarativePrivate19QDeclarativeElementI27QDeclarativeContactFavoriteED1Ev.clean 0x0002aa30   Section       10  plugin.o(t._ZN19QDeclarativePrivate19QDeclarativeElementI27QDeclarativeContactFavoriteED1Ev.clean)
    t._ZN19QDeclarativePrivate19QDeclarativeElementI27QDeclarativeContactNicknameED1Ev 0x0002aa3c   Section       32  plugin.o(t._ZN19QDeclarativePrivate19QDeclarativeElementI27QDeclarativeContactNicknameED1Ev)
    t._ZN19QDeclarativePrivate19QDeclarativeElementI27QDeclarativeContactNicknameED1Ev.clean 0x0002aa5c   Section       10  plugin.o(t._ZN19QDeclarativePrivate19QDeclarativeElementI27QDeclarativeContactNicknameED1Ev.clean)
    t._ZN19QDeclarativePrivate19QDeclarativeElementI27QDeclarativeContactPresenceED1Ev 0x0002aa68   Section       32  plugin.o(t._ZN19QDeclarativePrivate19QDeclarativeElementI27QDeclarativeContactPresenceED1Ev)
    t._ZN19QDeclarativePrivate19QDeclarativeElementI27QDeclarativeContactPresenceED1Ev.clean 0x0002aa88   Section       10  plugin.o(t._ZN19QDeclarativePrivate19QDeclarativeElementI27QDeclarativeContactPresenceED1Ev.clean)
    t._ZN19QDeclarativePrivate19QDeclarativeElementI27QDeclarativeContactRingtoneED1Ev 0x0002aa94   Section       32  plugin.o(t._ZN19QDeclarativePrivate19QDeclarativeElementI27QDeclarativeContactRingtoneED1Ev)
    t._ZN19QDeclarativePrivate19QDeclarativeElementI27QDeclarativeContactRingtoneED1Ev.clean 0x0002aab4   Section       10  plugin.o(t._ZN19QDeclarativePrivate19QDeclarativeElementI27QDeclarativeContactRingtoneED1Ev.clean)
    t._ZN19QDeclarativePrivate19QDeclarativeElementI28QDeclarativeContactFetchHintED1Ev 0x0002aac0   Section       28  plugin.o(t._ZN19QDeclarativePrivate19QDeclarativeElementI28QDeclarativeContactFetchHintED1Ev)
    t._ZN19QDeclarativePrivate19QDeclarativeElementI28QDeclarativeContactFetchHintED1Ev.clean 0x0002aadc   Section       10  plugin.o(t._ZN19QDeclarativePrivate19QDeclarativeElementI28QDeclarativeContactFetchHintED1Ev.clean)
    t._ZN19QDeclarativePrivate19QDeclarativeElementI28QDeclarativeContactSortOrderED1Ev 0x0002aae8   Section       32  plugin.o(t._ZN19QDeclarativePrivate19QDeclarativeElementI28QDeclarativeContactSortOrderED1Ev)
    t._ZN19QDeclarativePrivate19QDeclarativeElementI28QDeclarativeContactSortOrderED1Ev.clean 0x0002ab08   Section       10  plugin.o(t._ZN19QDeclarativePrivate19QDeclarativeElementI28QDeclarativeContactSortOrderED1Ev.clean)
    t._ZN19QDeclarativePrivate19QDeclarativeElementI28QDeclarativeContactTimestampED1Ev 0x0002ab14   Section       32  plugin.o(t._ZN19QDeclarativePrivate19QDeclarativeElementI28QDeclarativeContactTimestampED1Ev)
    t._ZN19QDeclarativePrivate19QDeclarativeElementI28QDeclarativeContactTimestampED1Ev.clean 0x0002ab34   Section       10  plugin.o(t._ZN19QDeclarativePrivate19QDeclarativeElementI28QDeclarativeContactTimestampED1Ev.clean)
    t._ZN19QDeclarativePrivate19QDeclarativeElementI29QDeclarativeContactSyncTargetED1Ev 0x0002ab40   Section       32  plugin.o(t._ZN19QDeclarativePrivate19QDeclarativeElementI29QDeclarativeContactSyncTargetED1Ev)
    t._ZN19QDeclarativePrivate19QDeclarativeElementI29QDeclarativeContactSyncTargetED1Ev.clean 0x0002ab60   Section       10  plugin.o(t._ZN19QDeclarativePrivate19QDeclarativeElementI29QDeclarativeContactSyncTargetED1Ev.clean)
    t._ZN19QDeclarativePrivate19QDeclarativeElementI30QDeclarativeContactAnniversaryED1Ev 0x0002ab6c   Section       32  plugin.o(t._ZN19QDeclarativePrivate19QDeclarativeElementI30QDeclarativeContactAnniversaryED1Ev)
    t._ZN19QDeclarativePrivate19QDeclarativeElementI30QDeclarativeContactAnniversaryED1Ev.clean 0x0002ab8c   Section       10  plugin.o(t._ZN19QDeclarativePrivate19QDeclarativeElementI30QDeclarativeContactAnniversaryED1Ev.clean)
    t._ZN19QDeclarativePrivate19QDeclarativeElementI30QDeclarativeContactGeoLocationED1Ev 0x0002ab98   Section       32  plugin.o(t._ZN19QDeclarativePrivate19QDeclarativeElementI30QDeclarativeContactGeoLocationED1Ev)
    t._ZN19QDeclarativePrivate19QDeclarativeElementI30QDeclarativeContactGeoLocationED1Ev.clean 0x0002abb8   Section       10  plugin.o(t._ZN19QDeclarativePrivate19QDeclarativeElementI30QDeclarativeContactGeoLocationED1Ev.clean)
    t._ZN19QDeclarativePrivate19QDeclarativeElementI30QDeclarativeContactPhoneNumberED1Ev 0x0002abc4   Section       32  plugin.o(t._ZN19QDeclarativePrivate19QDeclarativeElementI30QDeclarativeContactPhoneNumberED1Ev)
    t._ZN19QDeclarativePrivate19QDeclarativeElementI30QDeclarativeContactPhoneNumberED1Ev.clean 0x0002abe4   Section       10  plugin.o(t._ZN19QDeclarativePrivate19QDeclarativeElementI30QDeclarativeContactPhoneNumberED1Ev.clean)
    t._ZN19QDeclarativePrivate19QDeclarativeElementI30QDeclarativeContactUnionFilterED1Ev 0x0002abf0   Section       28  plugin.o(t._ZN19QDeclarativePrivate19QDeclarativeElementI30QDeclarativeContactUnionFilterED1Ev)
    t._ZN19QDeclarativePrivate19QDeclarativeElementI30QDeclarativeContactUnionFilterED1Ev.clean 0x0002ac0c   Section       10  plugin.o(t._ZN19QDeclarativePrivate19QDeclarativeElementI30QDeclarativeContactUnionFilterED1Ev.clean)
    t._ZN19QDeclarativePrivate19QDeclarativeElementI31QDeclarativeContactActionFilterED1Ev 0x0002ac18   Section       28  plugin.o(t._ZN19QDeclarativePrivate19QDeclarativeElementI31QDeclarativeContactActionFilterED1Ev)
    t._ZN19QDeclarativePrivate19QDeclarativeElementI31QDeclarativeContactActionFilterED1Ev.clean 0x0002ac34   Section       10  plugin.o(t._ZN19QDeclarativePrivate19QDeclarativeElementI31QDeclarativeContactActionFilterED1Ev.clean)
    t._ZN19QDeclarativePrivate19QDeclarativeElementI31QDeclarativeContactDetailFilterED1Ev 0x0002ac40   Section       32  plugin.o(t._ZN19QDeclarativePrivate19QDeclarativeElementI31QDeclarativeContactDetailFilterED1Ev)
    t._ZN19QDeclarativePrivate19QDeclarativeElementI31QDeclarativeContactDetailFilterED1Ev.clean 0x0002ac60   Section       10  plugin.o(t._ZN19QDeclarativePrivate19QDeclarativeElementI31QDeclarativeContactDetailFilterED1Ev.clean)
    t._ZN19QDeclarativePrivate19QDeclarativeElementI31QDeclarativeContactDisplayLabelED1Ev 0x0002ac6c   Section       32  plugin.o(t._ZN19QDeclarativePrivate19QDeclarativeElementI31QDeclarativeContactDisplayLabelED1Ev)
    t._ZN19QDeclarativePrivate19QDeclarativeElementI31QDeclarativeContactDisplayLabelED1Ev.clean 0x0002ac8c   Section       10  plugin.o(t._ZN19QDeclarativePrivate19QDeclarativeElementI31QDeclarativeContactDisplayLabelED1Ev.clean)
    t._ZN19QDeclarativePrivate19QDeclarativeElementI31QDeclarativeContactEmailAddressED1Ev 0x0002ac98   Section       32  plugin.o(t._ZN19QDeclarativePrivate19QDeclarativeElementI31QDeclarativeContactEmailAddressED1Ev)
    t._ZN19QDeclarativePrivate19QDeclarativeElementI31QDeclarativeContactEmailAddressED1Ev.clean 0x0002acb8   Section       10  plugin.o(t._ZN19QDeclarativePrivate19QDeclarativeElementI31QDeclarativeContactEmailAddressED1Ev.clean)
    t._ZN19QDeclarativePrivate19QDeclarativeElementI31QDeclarativeContactOrganizationED1Ev 0x0002acc4   Section       32  plugin.o(t._ZN19QDeclarativePrivate19QDeclarativeElementI31QDeclarativeContactOrganizationED1Ev)
    t._ZN19QDeclarativePrivate19QDeclarativeElementI31QDeclarativeContactOrganizationED1Ev.clean 0x0002ace4   Section       10  plugin.o(t._ZN19QDeclarativePrivate19QDeclarativeElementI31QDeclarativeContactOrganizationED1Ev.clean)
    t._ZN19QDeclarativePrivate19QDeclarativeElementI31QDeclarativeContactRelationshipED1Ev 0x0002acf0   Section       28  plugin.o(t._ZN19QDeclarativePrivate19QDeclarativeElementI31QDeclarativeContactRelationshipED1Ev)
    t._ZN19QDeclarativePrivate19QDeclarativeElementI31QDeclarativeContactRelationshipED1Ev.clean 0x0002ad0c   Section       10  plugin.o(t._ZN19QDeclarativePrivate19QDeclarativeElementI31QDeclarativeContactRelationshipED1Ev.clean)
    t._ZN19QDeclarativePrivate19QDeclarativeElementI32QDeclarativeContactLocalIdFilterED1Ev 0x0002ad18   Section       28  plugin.o(t._ZN19QDeclarativePrivate19QDeclarativeElementI32QDeclarativeContactLocalIdFilterED1Ev)
    t._ZN19QDeclarativePrivate19QDeclarativeElementI32QDeclarativeContactLocalIdFilterED1Ev.clean 0x0002ad34   Section       10  plugin.o(t._ZN19QDeclarativePrivate19QDeclarativeElementI32QDeclarativeContactLocalIdFilterED1Ev.clean)
    t._ZN19QDeclarativePrivate19QDeclarativeElementI32QDeclarativeContactOnlineAccountED1Ev 0x0002ad40   Section       32  plugin.o(t._ZN19QDeclarativePrivate19QDeclarativeElementI32QDeclarativeContactOnlineAccountED1Ev)
    t._ZN19QDeclarativePrivate19QDeclarativeElementI32QDeclarativeContactOnlineAccountED1Ev.clean 0x0002ad60   Section       10  plugin.o(t._ZN19QDeclarativePrivate19QDeclarativeElementI32QDeclarativeContactOnlineAccountED1Ev.clean)
    t._ZN19QDeclarativePrivate19QDeclarativeElementI33QDeclarativeContactGlobalPresenceED1Ev 0x0002ad6c   Section       32  plugin.o(t._ZN19QDeclarativePrivate19QDeclarativeElementI33QDeclarativeContactGlobalPresenceED1Ev)
    t._ZN19QDeclarativePrivate19QDeclarativeElementI33QDeclarativeContactGlobalPresenceED1Ev.clean 0x0002ad8c   Section       10  plugin.o(t._ZN19QDeclarativePrivate19QDeclarativeElementI33QDeclarativeContactGlobalPresenceED1Ev.clean)
    t._ZN19QDeclarativePrivate19QDeclarativeElementI34QDeclarativeContactChangeLogFilterED1Ev 0x0002ad98   Section       28  plugin.o(t._ZN19QDeclarativePrivate19QDeclarativeElementI34QDeclarativeContactChangeLogFilterED1Ev)
    t._ZN19QDeclarativePrivate19QDeclarativeElementI34QDeclarativeContactChangeLogFilterED1Ev.clean 0x0002adb4   Section       10  plugin.o(t._ZN19QDeclarativePrivate19QDeclarativeElementI34QDeclarativeContactChangeLogFilterED1Ev.clean)
    t._ZN19QDeclarativePrivate19QDeclarativeElementI36QDeclarativeContactDetailRangeFilterED1Ev 0x0002adc0   Section       32  plugin.o(t._ZN19QDeclarativePrivate19QDeclarativeElementI36QDeclarativeContactDetailRangeFilterED1Ev)
    t._ZN19QDeclarativePrivate19QDeclarativeElementI36QDeclarativeContactDetailRangeFilterED1Ev.clean 0x0002ade0   Section       10  plugin.o(t._ZN19QDeclarativePrivate19QDeclarativeElementI36QDeclarativeContactDetailRangeFilterED1Ev.clean)
    t._ZN19QDeclarativePrivate19QDeclarativeElementI37QDeclarativeContactIntersectionFilterED1Ev 0x0002adec   Section       28  plugin.o(t._ZN19QDeclarativePrivate19QDeclarativeElementI37QDeclarativeContactIntersectionFilterED1Ev)
    t._ZN19QDeclarativePrivate19QDeclarativeElementI37QDeclarativeContactIntersectionFilterED1Ev.clean 0x0002ae08   Section       10  plugin.o(t._ZN19QDeclarativePrivate19QDeclarativeElementI37QDeclarativeContactIntersectionFilterED1Ev.clean)
    t._ZN19QDeclarativePrivate19QDeclarativeElementI37QDeclarativeContactRelationshipFilterED1Ev 0x0002ae14   Section       28  plugin.o(t._ZN19QDeclarativePrivate19QDeclarativeElementI37QDeclarativeContactRelationshipFilterED1Ev)
    t._ZN19QDeclarativePrivate19QDeclarativeElementI37QDeclarativeContactRelationshipFilterED1Ev.clean 0x0002ae30   Section       10  plugin.o(t._ZN19QDeclarativePrivate19QDeclarativeElementI37QDeclarativeContactRelationshipFilterED1Ev.clean)
    t._ZN24QDeclarativeListPropertyI25QDeclarativeContactDetailEC1EP7QObjectPvPFvPS1_PS0_EPFiS5_EPFS6_S5_iEPFvS5_E 0x0002ae3a   Section       26  qdeclarativecontactmetaobject.o(t._ZN24QDeclarativeListPropertyI25QDeclarativeContactDetailEC1EP7QObjectPvPFvPS1_PS0_EPFiS5_EPFS6_S5_iEPFvS5_E)
    t._ZN24QDeclarativeListPropertyI25QDeclarativeContactDetailEC1Ev 0x0002ae54   Section       20  qdeclarativecontact.o(t._ZN24QDeclarativeListPropertyI25QDeclarativeContactDetailEC1Ev)
    t._ZN24QDeclarativeListPropertyI25QDeclarativeContactFilterE11qlist_clearEPS1_ 0x0002ae68   Section       12  moc_qdeclarativecontactintersectionfilter_p.o(t._ZN24QDeclarativeListPropertyI25QDeclarativeContactFilterE11qlist_clearEPS1_)
    t._ZN24QDeclarativeListPropertyI25QDeclarativeContactFilterE11qlist_countEPS1_ 0x0002ae74   Section       20  moc_qdeclarativecontactintersectionfilter_p.o(t._ZN24QDeclarativeListPropertyI25QDeclarativeContactFilterE11qlist_countEPS1_)
    t._ZN24QDeclarativeListPropertyI25QDeclarativeContactFilterE12qlist_appendEPS1_PS0_ 0x0002ae88   Section       14  moc_qdeclarativecontactintersectionfilter_p.o(t._ZN24QDeclarativeListPropertyI25QDeclarativeContactFilterE12qlist_appendEPS1_PS0_)
    t._ZN24QDeclarativeListPropertyI25QDeclarativeContactFilterE8qlist_atEPS1_i 0x0002ae96   Section       36  moc_qdeclarativecontactintersectionfilter_p.o(t._ZN24QDeclarativeListPropertyI25QDeclarativeContactFilterE8qlist_atEPS1_i)
    t._ZN24QDeclarativeListPropertyI31QDeclarativeContactRelationshipE11qlist_clearEPS1_ 0x0002aeba   Section       12  qdeclarativecontactrelationshipmodel.o(t._ZN24QDeclarativeListPropertyI31QDeclarativeContactRelationshipE11qlist_clearEPS1_)
    t._ZN24QDeclarativeListPropertyI31QDeclarativeContactRelationshipE11qlist_countEPS1_ 0x0002aec6   Section       12  qdeclarativecontactrelationshipmodel.o(t._ZN24QDeclarativeListPropertyI31QDeclarativeContactRelationshipE11qlist_countEPS1_)
    t._ZN24QDeclarativeListPropertyI31QDeclarativeContactRelationshipE12qlist_appendEPS1_PS0_ 0x0002aed2   Section       14  qdeclarativecontactrelationshipmodel.o(t._ZN24QDeclarativeListPropertyI31QDeclarativeContactRelationshipE12qlist_appendEPS1_PS0_)
    t._ZN24QDeclarativeListPropertyI31QDeclarativeContactRelationshipE8qlist_atEPS1_i 0x0002aee0   Section       28  qdeclarativecontactrelationshipmodel.o(t._ZN24QDeclarativeListPropertyI31QDeclarativeContactRelationshipE8qlist_atEPS1_i)
    t._ZN4QMapI7QString6QImageE11node_createEP8QMapDataPPNS3_4NodeERKS0_RKS1_ 0x0002aefc   Section      140  qdeclarativecontactimageprovider.o(t._ZN4QMapI7QString6QImageE11node_createEP8QMapDataPPNS3_4NodeERKS0_RKS1_)
    t._ZN4QMapI7QString6QImageE11node_createEP8QMapDataPPNS3_4NodeERKS0_RKS1_.clean 0x0002af88   Section       38  qdeclarativecontactimageprovider.o(t._ZN4QMapI7QString6QImageE11node_createEP8QMapDataPPNS3_4NodeERKS0_RKS1_.clean)
    t._ZN4QMapI7QString6QImageE13detach_helperEv 0x0002afae   Section      146  qdeclarativecontactimageprovider.o(t._ZN4QMapI7QString6QImageE13detach_helperEv)
    t._ZN4QMapI7QString6QImageE13detach_helperEv.clean 0x0002b040   Section        8  qdeclarativecontactimageprovider.o(t._ZN4QMapI7QString6QImageE13detach_helperEv.clean)
    t._ZN4QMapI7QString6QImageE8freeDataEP8QMapData 0x0002b048   Section       62  qdeclarativecontactimageprovider.o(t._ZN4QMapI7QString6QImageE8freeDataEP8QMapData)
    t._ZN4QMapI7QString6QImageED1Ev          0x0002b086   Section       38  qdeclarativecontactimageprovider.o(t._ZN4QMapI7QString6QImageED1Ev)
    t._ZN4QMapI7QString8QVariantE8freeDataEP8QMapData 0x0002b0ac   Section       64  qdeclarativecontactdetail.o(t._ZN4QMapI7QString8QVariantE8freeDataEP8QMapData)
    t._ZN4QMapI7QString8QVariantED1Ev        0x0002b0ec   Section       38  qdeclarativecontactdetail.o(t._ZN4QMapI7QString8QVariantED1Ev)
    t._ZN4QMapI7QStringN10QtMobility24QContactDetailDefinitionEE11node_createEP8QMapDataPPNS4_4NodeERKS0_RKS2_ 0x0002b112   Section      148  qdeclarativecontact.o(t._ZN4QMapI7QStringN10QtMobility24QContactDetailDefinitionEE11node_createEP8QMapDataPPNS4_4NodeERKS0_RKS2_)
    t._ZN4QMapI7QStringN10QtMobility24QContactDetailDefinitionEE11node_createEP8QMapDataPPNS4_4NodeERKS0_RKS2_.clean 0x0002b1a6   Section       38  qdeclarativecontact.o(t._ZN4QMapI7QStringN10QtMobility24QContactDetailDefinitionEE11node_createEP8QMapDataPPNS4_4NodeERKS0_RKS2_.clean)
    t._ZN4QMapI7QStringN10QtMobility24QContactDetailDefinitionEE13detach_helperEv 0x0002b1cc   Section      146  qdeclarativecontact.o(t._ZN4QMapI7QStringN10QtMobility24QContactDetailDefinitionEE13detach_helperEv)
    t._ZN4QMapI7QStringN10QtMobility24QContactDetailDefinitionEE13detach_helperEv.clean 0x0002b25e   Section        8  qdeclarativecontact.o(t._ZN4QMapI7QStringN10QtMobility24QContactDetailDefinitionEE13detach_helperEv.clean)
    t._ZN4QMapI7QStringN10QtMobility24QContactDetailDefinitionEE8freeDataEP8QMapData 0x0002b266   Section       62  qdeclarativecontactmodel.o(t._ZN4QMapI7QStringN10QtMobility24QContactDetailDefinitionEE8freeDataEP8QMapData)
    t._ZN4QMapI7QStringN10QtMobility24QContactDetailDefinitionEED1Ev 0x0002b2a4   Section       38  qdeclarativecontactmodel.o(t._ZN4QMapI7QStringN10QtMobility24QContactDetailDefinitionEED1Ev)
    t._ZN4QMapI7QStringPN10QtMobility15QContactManagerEE11node_createEP8QMapDataPPNS5_4NodeERKS0_RKS3_ 0x0002b2ca   Section      118  qdeclarativecontactimageprovider.o(t._ZN4QMapI7QStringPN10QtMobility15QContactManagerEE11node_createEP8QMapDataPPNS5_4NodeERKS0_RKS3_)
    t._ZN4QMapI7QStringPN10QtMobility15QContactManagerEE11node_createEP8QMapDataPPNS5_4NodeERKS0_RKS3_.clean 0x0002b340   Section       20  qdeclarativecontactimageprovider.o(t._ZN4QMapI7QStringPN10QtMobility15QContactManagerEE11node_createEP8QMapDataPPNS5_4NodeERKS0_RKS3_.clean)
    t._ZN4QMapI7QStringPN10QtMobility15QContactManagerEE13detach_helperEv 0x0002b354   Section      146  qdeclarativecontactimageprovider.o(t._ZN4QMapI7QStringPN10QtMobility15QContactManagerEE13detach_helperEv)
    t._ZN4QMapI7QStringPN10QtMobility15QContactManagerEE13detach_helperEv.clean 0x0002b3e6   Section        8  qdeclarativecontactimageprovider.o(t._ZN4QMapI7QStringPN10QtMobility15QContactManagerEE13detach_helperEv.clean)
    t._ZN4QMapI7QStringPN10QtMobility15QContactManagerEE8freeDataEP8QMapData 0x0002b3ee   Section       56  qdeclarativecontactimageprovider.o(t._ZN4QMapI7QStringPN10QtMobility15QContactManagerEE8freeDataEP8QMapData)
    t._ZN4QMapI7QStringPN10QtMobility15QContactManagerEEC1Ev 0x0002b428   Section       28  qdeclarativecontactimageprovider.o(t._ZN4QMapI7QStringPN10QtMobility15QContactManagerEEC1Ev)
    t._ZN4QMapI7QStringPN10QtMobility15QContactManagerEED1Ev 0x0002b444   Section       38  qdeclarativecontactimageprovider.o(t._ZN4QMapI7QStringPN10QtMobility15QContactManagerEED1Ev)
    t._ZN4QMapI7QStringS0_E8freeDataEP8QMapData 0x0002b46a   Section       62  qdeclarativecontactmodel.o(t._ZN4QMapI7QStringS0_E8freeDataEP8QMapData)
    t._ZN4QMapI7QStringS0_ED1Ev              0x0002b4a8   Section       38  qdeclarativecontactmodel.o(t._ZN4QMapI7QStringS0_ED1Ev)
    t._ZN4QMapIiN10QtMobility15QContactManager5ErrorEE8freeDataEP8QMapData 0x0002b4ce   Section       48  qdeclarativecontactmodel.o(t._ZN4QMapIiN10QtMobility15QContactManager5ErrorEE8freeDataEP8QMapData)
    t._ZN4QMapIiN10QtMobility15QContactManager5ErrorEED1Ev 0x0002b4fe   Section       38  qdeclarativecontactmodel.o(t._ZN4QMapIiN10QtMobility15QContactManager5ErrorEED1Ev)
    t._ZN4QMapIjP19QDeclarativeContactE11node_createEP8QMapDataPPNS3_4NodeERKjRKS1_ 0x0002b524   Section       82  qdeclarativecontactmodel.o(t._ZN4QMapIjP19QDeclarativeContactE11node_createEP8QMapDataPPNS3_4NodeERKjRKS1_)
    t._ZN4QMapIjP19QDeclarativeContactE11node_createEP8QMapDataPPNS3_4NodeERKjRKS1_.clean 0x0002b576   Section        4  qdeclarativecontactmodel.o(t._ZN4QMapIjP19QDeclarativeContactE11node_createEP8QMapDataPPNS3_4NodeERKjRKS1_.clean)
    t._ZN4QMapIjP19QDeclarativeContactE13detach_helperEv 0x0002b57a   Section      146  qdeclarativecontactmodel.o(t._ZN4QMapIjP19QDeclarativeContactE13detach_helperEv)
    t._ZN4QMapIjP19QDeclarativeContactE13detach_helperEv.clean 0x0002b60c   Section        8  qdeclarativecontactmodel.o(t._ZN4QMapIjP19QDeclarativeContactE13detach_helperEv.clean)
    t._ZN4QMapIjP19QDeclarativeContactE6detachEv 0x0002b614   Section       28  qdeclarativecontactmodel.o(t._ZN4QMapIjP19QDeclarativeContactE6detachEv)
    t._ZN4QMapIjP19QDeclarativeContactE6insertERKjRKS1_ 0x0002b630   Section       74  qdeclarativecontactmodel.o(t._ZN4QMapIjP19QDeclarativeContactE6insertERKjRKS1_)
    t._ZN4QMapIjP19QDeclarativeContactE6removeERKj 0x0002b67a   Section      246  qdeclarativecontactmodel.o(t._ZN4QMapIjP19QDeclarativeContactE6removeERKj)
    t._ZN4QMapIjP19QDeclarativeContactE8freeDataEP8QMapData 0x0002b770   Section       24  qdeclarativecontactmodel.o(t._ZN4QMapIjP19QDeclarativeContactE8freeDataEP8QMapData)
    t._ZN4QMapIjP19QDeclarativeContactEC1Ev  0x0002b788   Section       28  qdeclarativecontactmodel.o(t._ZN4QMapIjP19QDeclarativeContactEC1Ev)
    t._ZN4QMapIjP19QDeclarativeContactED1Ev  0x0002b7a4   Section       38  qdeclarativecontactmodel.o(t._ZN4QMapIjP19QDeclarativeContactED1Ev)
    t._ZN5QHashI7QString15QHashDummyValueE11deleteNode2EPN9QHashData4NodeE 0x0002b7ca   Section       24  moc_qdeclarativecontactaddress_p.o(t._ZN5QHashI7QString15QHashDummyValueE11deleteNode2EPN9QHashData4NodeE)
    t._ZN5QHashI7QString15QHashDummyValueE13detach_helperEv 0x0002b7e4   Section       60  moc_qdeclarativecontactaddress_p.o(t._ZN5QHashI7QString15QHashDummyValueE13detach_helperEv)
    t._ZN5QHashI7QString15QHashDummyValueE13duplicateNodeEPN9QHashData4NodeEPv 0x0002b820   Section       44  moc_qdeclarativecontactaddress_p.o(t._ZN5QHashI7QString15QHashDummyValueE13duplicateNodeEPN9QHashData4NodeEPv)
    t._ZN5QHashI7QString15QHashDummyValueE13duplicateNodeEPN9QHashData4NodeEPv.clean 0x0002b84c   Section       12  moc_qdeclarativecontactaddress_p.o(t._ZN5QHashI7QString15QHashDummyValueE13duplicateNodeEPN9QHashData4NodeEPv.clean)
    t._ZN5QHashI7QString15QHashDummyValueE6detachEv 0x0002b858   Section       28  moc_qdeclarativecontactaddress_p.o(t._ZN5QHashI7QString15QHashDummyValueE6detachEv)
    t._ZN5QHashI7QString15QHashDummyValueE6insertERKS0_RKS1_ 0x0002b874   Section      190  moc_qdeclarativecontactaddress_p.o(t._ZN5QHashI7QString15QHashDummyValueE6insertERKS0_RKS1_)
    t._ZN5QHashI7QString15QHashDummyValueE6insertERKS0_RKS1_.clean 0x0002b932   Section       12  moc_qdeclarativecontactaddress_p.o(t._ZN5QHashI7QString15QHashDummyValueE6insertERKS0_RKS1_.clean)
    t._ZN5QHashI7QString15QHashDummyValueE8freeDataEP9QHashData 0x0002b940   Section       20  moc_qdeclarativecontactaddress_p.o(t._ZN5QHashI7QString15QHashDummyValueE8freeDataEP9QHashData)
    t._ZN5QHashI7QString15QHashDummyValueED1Ev 0x0002b954   Section       30  moc_qdeclarativecontactaddress_p.o(t._ZN5QHashI7QString15QHashDummyValueED1Ev)
    t._ZN5QHashIi10QByteArrayE11deleteNode2EPN9QHashData4NodeE 0x0002b972   Section       24  qdeclarativecontactmodel.o(t._ZN5QHashIi10QByteArrayE11deleteNode2EPN9QHashData4NodeE)
    t._ZN5QHashIi10QByteArrayE13detach_helperEv 0x0002b98c   Section       60  qdeclarativecontactmodel.o(t._ZN5QHashIi10QByteArrayE13detach_helperEv)
    t._ZN5QHashIi10QByteArrayE13duplicateNodeEPN9QHashData4NodeEPv 0x0002b9c8   Section       46  qdeclarativecontactmodel.o(t._ZN5QHashIi10QByteArrayE13duplicateNodeEPN9QHashData4NodeEPv)
    t._ZN5QHashIi10QByteArrayE13duplicateNodeEPN9QHashData4NodeEPv.clean 0x0002b9f6   Section       14  qdeclarativecontactmodel.o(t._ZN5QHashIi10QByteArrayE13duplicateNodeEPN9QHashData4NodeEPv.clean)
    t._ZN5QHashIi10QByteArrayE6insertERKiRKS0_ 0x0002ba04   Section      228  qdeclarativecontactmodel.o(t._ZN5QHashIi10QByteArrayE6insertERKiRKS0_)
    t._ZN5QHashIi10QByteArrayE6insertERKiRKS0_.clean 0x0002bae8   Section       14  qdeclarativecontactmodel.o(t._ZN5QHashIi10QByteArrayE6insertERKiRKS0_.clean)
    t._ZN5QHashIi10QByteArrayE8freeDataEP9QHashData 0x0002baf8   Section       20  qdeclarativecontactmodel.o(t._ZN5QHashIi10QByteArrayE8freeDataEP9QHashData)
    t._ZN5QHashIi10QByteArrayED1Ev           0x0002bb0c   Section       30  qdeclarativecontactmodel.o(t._ZN5QHashIi10QByteArrayED1Ev)
    t._ZN5QHashIiP20ContactDetailNameMapE11deleteNode2EPN9QHashData4NodeE 0x0002bb2a   Section        6  qdeclarativecontactmetaobject.o(t._ZN5QHashIiP20ContactDetailNameMapE11deleteNode2EPN9QHashData4NodeE)
    t._ZN5QHashIiP20ContactDetailNameMapE13detach_helperEv 0x0002bb30   Section       60  qdeclarativecontactmetaobject.o(t._ZN5QHashIiP20ContactDetailNameMapE13detach_helperEv)
    t._ZN5QHashIiP20ContactDetailNameMapE13duplicateNodeEPN9QHashData4NodeEPv 0x0002bb6c   Section       42  qdeclarativecontactmetaobject.o(t._ZN5QHashIiP20ContactDetailNameMapE13duplicateNodeEPN9QHashData4NodeEPv)
    t._ZN5QHashIiP20ContactDetailNameMapE6insertERKiRKS1_ 0x0002bb96   Section      224  qdeclarativecontactmetaobject.o(t._ZN5QHashIiP20ContactDetailNameMapE6insertERKiRKS1_)
    t._ZN5QHashIiP20ContactDetailNameMapE6insertERKiRKS1_.clean 0x0002bc76   Section        4  qdeclarativecontactmetaobject.o(t._ZN5QHashIiP20ContactDetailNameMapE6insertERKiRKS1_.clean)
    t._ZN5QHashIiP20ContactDetailNameMapE8freeDataEP9QHashData 0x0002bc7c   Section       20  qdeclarativecontactmetaobject.o(t._ZN5QHashIiP20ContactDetailNameMapE8freeDataEP9QHashData)
    t._ZN5QHashIiP20ContactDetailNameMapED1Ev 0x0002bc90   Section       30  qdeclarativecontactmetaobject.o(t._ZN5QHashIiP20ContactDetailNameMapED1Ev)
    t._ZN5QHashIj15QHashDummyValueE11deleteNode2EPN9QHashData4NodeE 0x0002bcae   Section        6  moc_qdeclarativecontactlocalidfilter_p.o(t._ZN5QHashIj15QHashDummyValueE11deleteNode2EPN9QHashData4NodeE)
    t._ZN5QHashIj15QHashDummyValueE13detach_helperEv 0x0002bcb4   Section       60  moc_qdeclarativecontactlocalidfilter_p.o(t._ZN5QHashIj15QHashDummyValueE13detach_helperEv)
    t._ZN5QHashIj15QHashDummyValueE13duplicateNodeEPN9QHashData4NodeEPv 0x0002bcf0   Section       34  moc_qdeclarativecontactlocalidfilter_p.o(t._ZN5QHashIj15QHashDummyValueE13duplicateNodeEPN9QHashData4NodeEPv)
    t._ZN5QHashIj15QHashDummyValueE6detachEv 0x0002bd12   Section       28  moc_qdeclarativecontactlocalidfilter_p.o(t._ZN5QHashIj15QHashDummyValueE6detachEv)
    t._ZN5QHashIj15QHashDummyValueE6insertERKjRKS0_ 0x0002bd2e   Section      188  moc_qdeclarativecontactlocalidfilter_p.o(t._ZN5QHashIj15QHashDummyValueE6insertERKjRKS0_)
    t._ZN5QHashIj15QHashDummyValueE6insertERKjRKS0_.clean 0x0002bdea   Section        4  moc_qdeclarativecontactlocalidfilter_p.o(t._ZN5QHashIj15QHashDummyValueE6insertERKjRKS0_.clean)
    t._ZN5QHashIj15QHashDummyValueE8freeDataEP9QHashData 0x0002bdf0   Section       20  moc_qdeclarativecontactlocalidfilter_p.o(t._ZN5QHashIj15QHashDummyValueE8freeDataEP9QHashData)
    t._ZN5QHashIj15QHashDummyValueED1Ev      0x0002be04   Section       30  moc_qdeclarativecontactlocalidfilter_p.o(t._ZN5QHashIj15QHashDummyValueED1Ev)
    t._ZN5QListI10QByteArrayE13detach_helperEi 0x0002be22   Section       94  qmetaobjectbuilder.o(t._ZN5QListI10QByteArrayE13detach_helperEi)
    t._ZN5QListI10QByteArrayE13detach_helperEi.clean 0x0002be80   Section        8  qmetaobjectbuilder.o(t._ZN5QListI10QByteArrayE13detach_helperEi.clean)
    t._ZN5QListI10QByteArrayE13detach_helperEv 0x0002be88   Section       16  qmetaobjectbuilder.o(t._ZN5QListI10QByteArrayE13detach_helperEv)
    t._ZN5QListI10QByteArrayE13node_destructEPNS1_4NodeES3_ 0x0002be98   Section       26  qmetaobjectbuilder.o(t._ZN5QListI10QByteArrayE13node_destructEPNS1_4NodeES3_)
    t._ZN5QListI10QByteArrayE14node_constructEPNS1_4NodeERKS0_ 0x0002beb2   Section       36  qmetaobjectbuilder.o(t._ZN5QListI10QByteArrayE14node_constructEPNS1_4NodeERKS0_)
    t._ZN5QListI10QByteArrayE14node_constructEPNS1_4NodeERKS0_.clean 0x0002bed6   Section       14  qmetaobjectbuilder.o(t._ZN5QListI10QByteArrayE14node_constructEPNS1_4NodeERKS0_.clean)
    t._ZN5QListI10QByteArrayE18detach_helper_growEii 0x0002bee4   Section      208  qmetaobjectbuilder.o(t._ZN5QListI10QByteArrayE18detach_helper_growEii)
    t._ZN5QListI10QByteArrayE18detach_helper_growEii.clean 0x0002bfb4   Section       16  qmetaobjectbuilder.o(t._ZN5QListI10QByteArrayE18detach_helper_growEii.clean)
    t._ZN5QListI10QByteArrayE4freeEPN9QListData4DataE 0x0002bfc4   Section       52  qmetaobjectbuilder.o(t._ZN5QListI10QByteArrayE4freeEPN9QListData4DataE)
    t._ZN5QListI10QByteArrayE5clearEv        0x0002bff8   Section       28  qmetaobjectbuilder.o(t._ZN5QListI10QByteArrayE5clearEv)
    t._ZN5QListI10QByteArrayE5clearEv.clean  0x0002c014   Section       10  qmetaobjectbuilder.o(t._ZN5QListI10QByteArrayE5clearEv.clean)
    t._ZN5QListI10QByteArrayE6appendERKS0_   0x0002c020   Section      120  qmetaobjectbuilder.o(t._ZN5QListI10QByteArrayE6appendERKS0_)
    t._ZN5QListI10QByteArrayE6appendERKS0_.clean 0x0002c098   Section       14  qmetaobjectbuilder.o(t._ZN5QListI10QByteArrayE6appendERKS0_.clean)
    t._ZN5QListI10QByteArrayE6detachEv       0x0002c0a6   Section       24  qmetaobjectbuilder.o(t._ZN5QListI10QByteArrayE6detachEv)
    t._ZN5QListI10QByteArrayE7reserveEi      0x0002c0be   Section       46  qmetaobjectbuilder.o(t._ZN5QListI10QByteArrayE7reserveEi)
    t._ZN5QListI10QByteArrayE8removeAtEi     0x0002c0ec   Section       56  qmetaobjectbuilder.o(t._ZN5QListI10QByteArrayE8removeAtEi)
    t._ZN5QListI10QByteArrayE9node_copyEPNS1_4NodeES3_S3_ 0x0002c124   Section       82  qmetaobjectbuilder.o(t._ZN5QListI10QByteArrayE9node_copyEPNS1_4NodeES3_S3_)
    t._ZN5QListI10QByteArrayE9node_copyEPNS1_4NodeES3_S3_.clean 0x0002c176   Section       22  qmetaobjectbuilder.o(t._ZN5QListI10QByteArrayE9node_copyEPNS1_4NodeES3_S3_.clean)
    t._ZN5QListI10QByteArrayEC1ERKS1_        0x0002c18c   Section       36  qmetaobjectbuilder.o(t._ZN5QListI10QByteArrayEC1ERKS1_)
    t._ZN5QListI10QByteArrayEC1Ev            0x0002c1b0   Section       24  qmetaobjectbuilder.o(t._ZN5QListI10QByteArrayEC1Ev)
    t._ZN5QListI10QByteArrayED1Ev            0x0002c1c8   Section       32  qmetaobjectbuilder.o(t._ZN5QListI10QByteArrayED1Ev)
    t._ZN5QListI10QByteArrayEaSERKS1_        0x0002c1e8   Section       64  qmetaobjectbuilder.o(t._ZN5QListI10QByteArrayEaSERKS1_)
    t._ZN5QListI10QByteArrayEixEi            0x0002c228   Section       28  qmetaobjectbuilder.o(t._ZN5QListI10QByteArrayEixEi)
    t._ZN5QListI23QMetaEnumBuilderPrivateE13detach_helperEi 0x0002c244   Section       94  qmetaobjectbuilder.o(t._ZN5QListI23QMetaEnumBuilderPrivateE13detach_helperEi)
    t._ZN5QListI23QMetaEnumBuilderPrivateE13detach_helperEi.clean 0x0002c2a2   Section        8  qmetaobjectbuilder.o(t._ZN5QListI23QMetaEnumBuilderPrivateE13detach_helperEi.clean)
    t._ZN5QListI23QMetaEnumBuilderPrivateE13detach_helperEv 0x0002c2aa   Section       16  qmetaobjectbuilder.o(t._ZN5QListI23QMetaEnumBuilderPrivateE13detach_helperEv)
    t._ZN5QListI23QMetaEnumBuilderPrivateE13node_destructEPNS1_4NodeE 0x0002c2ba   Section       28  qmetaobjectbuilder.o(t._ZN5QListI23QMetaEnumBuilderPrivateE13node_destructEPNS1_4NodeE)
    t._ZN5QListI23QMetaEnumBuilderPrivateE13node_destructEPNS1_4NodeES3_ 0x0002c2d6   Section       38  qmetaobjectbuilder.o(t._ZN5QListI23QMetaEnumBuilderPrivateE13node_destructEPNS1_4NodeES3_)
    t._ZN5QListI23QMetaEnumBuilderPrivateE14node_constructEPNS1_4NodeERKS0_ 0x0002c2fc   Section       34  qmetaobjectbuilder.o(t._ZN5QListI23QMetaEnumBuilderPrivateE14node_constructEPNS1_4NodeERKS0_)
    t._ZN5QListI23QMetaEnumBuilderPrivateE14node_constructEPNS1_4NodeERKS0_.clean 0x0002c31e   Section       14  qmetaobjectbuilder.o(t._ZN5QListI23QMetaEnumBuilderPrivateE14node_constructEPNS1_4NodeERKS0_.clean)
    t._ZN5QListI23QMetaEnumBuilderPrivateE18detach_helper_growEii 0x0002c32c   Section      208  qmetaobjectbuilder.o(t._ZN5QListI23QMetaEnumBuilderPrivateE18detach_helper_growEii)
    t._ZN5QListI23QMetaEnumBuilderPrivateE18detach_helper_growEii.clean 0x0002c3fc   Section       16  qmetaobjectbuilder.o(t._ZN5QListI23QMetaEnumBuilderPrivateE18detach_helper_growEii.clean)
    t._ZN5QListI23QMetaEnumBuilderPrivateE4freeEPN9QListData4DataE 0x0002c40c   Section       52  qmetaobjectbuilder.o(t._ZN5QListI23QMetaEnumBuilderPrivateE4freeEPN9QListData4DataE)
    t._ZN5QListI23QMetaEnumBuilderPrivateE5clearEv 0x0002c440   Section       76  qmetaobjectbuilder.o(t._ZN5QListI23QMetaEnumBuilderPrivateE5clearEv)
    t._ZN5QListI23QMetaEnumBuilderPrivateE5clearEv.clean 0x0002c48c   Section       10  qmetaobjectbuilder.o(t._ZN5QListI23QMetaEnumBuilderPrivateE5clearEv.clean)
    t._ZN5QListI23QMetaEnumBuilderPrivateE6appendERKS0_ 0x0002c498   Section      112  qmetaobjectbuilder.o(t._ZN5QListI23QMetaEnumBuilderPrivateE6appendERKS0_)
    t._ZN5QListI23QMetaEnumBuilderPrivateE6appendERKS0_.clean 0x0002c508   Section       14  qmetaobjectbuilder.o(t._ZN5QListI23QMetaEnumBuilderPrivateE6appendERKS0_.clean)
    t._ZN5QListI23QMetaEnumBuilderPrivateE6detachEv 0x0002c516   Section       24  qmetaobjectbuilder.o(t._ZN5QListI23QMetaEnumBuilderPrivateE6detachEv)
    t._ZN5QListI23QMetaEnumBuilderPrivateE9node_copyEPNS1_4NodeES3_S3_ 0x0002c52e   Section       92  qmetaobjectbuilder.o(t._ZN5QListI23QMetaEnumBuilderPrivateE9node_copyEPNS1_4NodeES3_S3_)
    t._ZN5QListI23QMetaEnumBuilderPrivateE9node_copyEPNS1_4NodeES3_S3_.clean 0x0002c58a   Section       22  qmetaobjectbuilder.o(t._ZN5QListI23QMetaEnumBuilderPrivateE9node_copyEPNS1_4NodeES3_S3_.clean)
    t._ZN5QListI23QMetaEnumBuilderPrivateEC1Ev 0x0002c5a0   Section       24  qmetaobjectbuilder.o(t._ZN5QListI23QMetaEnumBuilderPrivateEC1Ev)
    t._ZN5QListI23QMetaEnumBuilderPrivateED1Ev 0x0002c5b8   Section       32  qmetaobjectbuilder.o(t._ZN5QListI23QMetaEnumBuilderPrivateED1Ev)
    t._ZN5QListI23QMetaEnumBuilderPrivateEixEi 0x0002c5d8   Section       28  qmetaobjectbuilder.o(t._ZN5QListI23QMetaEnumBuilderPrivateEixEi)
    t._ZN5QListI25QMetaMethodBuilderPrivateE13detach_helperEi 0x0002c5f4   Section       94  qmetaobjectbuilder.o(t._ZN5QListI25QMetaMethodBuilderPrivateE13detach_helperEi)
    t._ZN5QListI25QMetaMethodBuilderPrivateE13detach_helperEi.clean 0x0002c652   Section        8  qmetaobjectbuilder.o(t._ZN5QListI25QMetaMethodBuilderPrivateE13detach_helperEi.clean)
    t._ZN5QListI25QMetaMethodBuilderPrivateE13detach_helperEv 0x0002c65a   Section       16  qmetaobjectbuilder.o(t._ZN5QListI25QMetaMethodBuilderPrivateE13detach_helperEv)
    t._ZN5QListI25QMetaMethodBuilderPrivateE13node_destructEPNS1_4NodeE 0x0002c66a   Section       28  qmetaobjectbuilder.o(t._ZN5QListI25QMetaMethodBuilderPrivateE13node_destructEPNS1_4NodeE)
    t._ZN5QListI25QMetaMethodBuilderPrivateE13node_destructEPNS1_4NodeES3_ 0x0002c686   Section       38  qmetaobjectbuilder.o(t._ZN5QListI25QMetaMethodBuilderPrivateE13node_destructEPNS1_4NodeES3_)
    t._ZN5QListI25QMetaMethodBuilderPrivateE14node_constructEPNS1_4NodeERKS0_ 0x0002c6ac   Section       34  qmetaobjectbuilder.o(t._ZN5QListI25QMetaMethodBuilderPrivateE14node_constructEPNS1_4NodeERKS0_)
    t._ZN5QListI25QMetaMethodBuilderPrivateE14node_constructEPNS1_4NodeERKS0_.clean 0x0002c6ce   Section       14  qmetaobjectbuilder.o(t._ZN5QListI25QMetaMethodBuilderPrivateE14node_constructEPNS1_4NodeERKS0_.clean)
    t._ZN5QListI25QMetaMethodBuilderPrivateE18detach_helper_growEii 0x0002c6dc   Section      208  qmetaobjectbuilder.o(t._ZN5QListI25QMetaMethodBuilderPrivateE18detach_helper_growEii)
    t._ZN5QListI25QMetaMethodBuilderPrivateE18detach_helper_growEii.clean 0x0002c7ac   Section       16  qmetaobjectbuilder.o(t._ZN5QListI25QMetaMethodBuilderPrivateE18detach_helper_growEii.clean)
    t._ZN5QListI25QMetaMethodBuilderPrivateE4freeEPN9QListData4DataE 0x0002c7bc   Section       52  qmetaobjectbuilder.o(t._ZN5QListI25QMetaMethodBuilderPrivateE4freeEPN9QListData4DataE)
    t._ZN5QListI25QMetaMethodBuilderPrivateE5clearEv 0x0002c7f0   Section       76  qmetaobjectbuilder.o(t._ZN5QListI25QMetaMethodBuilderPrivateE5clearEv)
    t._ZN5QListI25QMetaMethodBuilderPrivateE5clearEv.clean 0x0002c83c   Section       10  qmetaobjectbuilder.o(t._ZN5QListI25QMetaMethodBuilderPrivateE5clearEv.clean)
    t._ZN5QListI25QMetaMethodBuilderPrivateE6appendERKS0_ 0x0002c848   Section      112  qmetaobjectbuilder.o(t._ZN5QListI25QMetaMethodBuilderPrivateE6appendERKS0_)
    t._ZN5QListI25QMetaMethodBuilderPrivateE6appendERKS0_.clean 0x0002c8b8   Section       14  qmetaobjectbuilder.o(t._ZN5QListI25QMetaMethodBuilderPrivateE6appendERKS0_.clean)
    t._ZN5QListI25QMetaMethodBuilderPrivateE6detachEv 0x0002c8c6   Section       24  qmetaobjectbuilder.o(t._ZN5QListI25QMetaMethodBuilderPrivateE6detachEv)
    t._ZN5QListI25QMetaMethodBuilderPrivateE8removeAtEi 0x0002c8de   Section       54  qmetaobjectbuilder.o(t._ZN5QListI25QMetaMethodBuilderPrivateE8removeAtEi)
    t._ZN5QListI25QMetaMethodBuilderPrivateE9node_copyEPNS1_4NodeES3_S3_ 0x0002c914   Section       92  qmetaobjectbuilder.o(t._ZN5QListI25QMetaMethodBuilderPrivateE9node_copyEPNS1_4NodeES3_S3_)
    t._ZN5QListI25QMetaMethodBuilderPrivateE9node_copyEPNS1_4NodeES3_S3_.clean 0x0002c970   Section       22  qmetaobjectbuilder.o(t._ZN5QListI25QMetaMethodBuilderPrivateE9node_copyEPNS1_4NodeES3_S3_.clean)
    t._ZN5QListI25QMetaMethodBuilderPrivateEC1Ev 0x0002c988   Section       24  qmetaobjectbuilder.o(t._ZN5QListI25QMetaMethodBuilderPrivateEC1Ev)
    t._ZN5QListI25QMetaMethodBuilderPrivateED1Ev 0x0002c9a0   Section       32  qmetaobjectbuilder.o(t._ZN5QListI25QMetaMethodBuilderPrivateED1Ev)
    t._ZN5QListI25QMetaMethodBuilderPrivateEixEi 0x0002c9c0   Section       28  qmetaobjectbuilder.o(t._ZN5QListI25QMetaMethodBuilderPrivateEixEi)
    t._ZN5QListI27QMetaPropertyBuilderPrivateE13detach_helperEi 0x0002c9dc   Section       94  qmetaobjectbuilder.o(t._ZN5QListI27QMetaPropertyBuilderPrivateE13detach_helperEi)
    t._ZN5QListI27QMetaPropertyBuilderPrivateE13detach_helperEi.clean 0x0002ca3a   Section        8  qmetaobjectbuilder.o(t._ZN5QListI27QMetaPropertyBuilderPrivateE13detach_helperEi.clean)
    t._ZN5QListI27QMetaPropertyBuilderPrivateE13detach_helperEv 0x0002ca42   Section       16  qmetaobjectbuilder.o(t._ZN5QListI27QMetaPropertyBuilderPrivateE13detach_helperEv)
    t._ZN5QListI27QMetaPropertyBuilderPrivateE13node_destructEPNS1_4NodeE 0x0002ca52   Section       28  qmetaobjectbuilder.o(t._ZN5QListI27QMetaPropertyBuilderPrivateE13node_destructEPNS1_4NodeE)
    t._ZN5QListI27QMetaPropertyBuilderPrivateE13node_destructEPNS1_4NodeES3_ 0x0002ca6e   Section       38  qmetaobjectbuilder.o(t._ZN5QListI27QMetaPropertyBuilderPrivateE13node_destructEPNS1_4NodeES3_)
    t._ZN5QListI27QMetaPropertyBuilderPrivateE14node_constructEPNS1_4NodeERKS0_ 0x0002ca94   Section       34  qmetaobjectbuilder.o(t._ZN5QListI27QMetaPropertyBuilderPrivateE14node_constructEPNS1_4NodeERKS0_)
    t._ZN5QListI27QMetaPropertyBuilderPrivateE14node_constructEPNS1_4NodeERKS0_.clean 0x0002cab6   Section       14  qmetaobjectbuilder.o(t._ZN5QListI27QMetaPropertyBuilderPrivateE14node_constructEPNS1_4NodeERKS0_.clean)
    t._ZN5QListI27QMetaPropertyBuilderPrivateE18detach_helper_growEii 0x0002cac4   Section      208  qmetaobjectbuilder.o(t._ZN5QListI27QMetaPropertyBuilderPrivateE18detach_helper_growEii)
    t._ZN5QListI27QMetaPropertyBuilderPrivateE18detach_helper_growEii.clean 0x0002cb94   Section       16  qmetaobjectbuilder.o(t._ZN5QListI27QMetaPropertyBuilderPrivateE18detach_helper_growEii.clean)
    t._ZN5QListI27QMetaPropertyBuilderPrivateE4freeEPN9QListData4DataE 0x0002cba4   Section       52  qmetaobjectbuilder.o(t._ZN5QListI27QMetaPropertyBuilderPrivateE4freeEPN9QListData4DataE)
    t._ZN5QListI27QMetaPropertyBuilderPrivateE5clearEv 0x0002cbd8   Section       76  qmetaobjectbuilder.o(t._ZN5QListI27QMetaPropertyBuilderPrivateE5clearEv)
    t._ZN5QListI27QMetaPropertyBuilderPrivateE5clearEv.clean 0x0002cc24   Section       10  qmetaobjectbuilder.o(t._ZN5QListI27QMetaPropertyBuilderPrivateE5clearEv.clean)
    t._ZN5QListI27QMetaPropertyBuilderPrivateE6appendERKS0_ 0x0002cc30   Section      112  qmetaobjectbuilder.o(t._ZN5QListI27QMetaPropertyBuilderPrivateE6appendERKS0_)
    t._ZN5QListI27QMetaPropertyBuilderPrivateE6appendERKS0_.clean 0x0002cca0   Section       14  qmetaobjectbuilder.o(t._ZN5QListI27QMetaPropertyBuilderPrivateE6appendERKS0_.clean)
    t._ZN5QListI27QMetaPropertyBuilderPrivateE6detachEv 0x0002ccae   Section       24  qmetaobjectbuilder.o(t._ZN5QListI27QMetaPropertyBuilderPrivateE6detachEv)
    t._ZN5QListI27QMetaPropertyBuilderPrivateE9node_copyEPNS1_4NodeES3_S3_ 0x0002ccc6   Section       92  qmetaobjectbuilder.o(t._ZN5QListI27QMetaPropertyBuilderPrivateE9node_copyEPNS1_4NodeES3_S3_)
    t._ZN5QListI27QMetaPropertyBuilderPrivateE9node_copyEPNS1_4NodeES3_S3_.clean 0x0002cd22   Section       22  qmetaobjectbuilder.o(t._ZN5QListI27QMetaPropertyBuilderPrivateE9node_copyEPNS1_4NodeES3_S3_.clean)
    t._ZN5QListI27QMetaPropertyBuilderPrivateEC1Ev 0x0002cd38   Section       24  qmetaobjectbuilder.o(t._ZN5QListI27QMetaPropertyBuilderPrivateEC1Ev)
    t._ZN5QListI27QMetaPropertyBuilderPrivateED1Ev 0x0002cd50   Section       32  qmetaobjectbuilder.o(t._ZN5QListI27QMetaPropertyBuilderPrivateED1Ev)
    t._ZN5QListI27QMetaPropertyBuilderPrivateEixEi 0x0002cd70   Section       28  qmetaobjectbuilder.o(t._ZN5QListI27QMetaPropertyBuilderPrivateEixEi)
    t._ZN5QListI7QStringE13detach_helperEi   0x0002cd8c   Section       94  moc_qdeclarativecontactaddress_p.o(t._ZN5QListI7QStringE13detach_helperEi)
    t._ZN5QListI7QStringE13detach_helperEi.clean 0x0002cdea   Section        8  moc_qdeclarativecontactaddress_p.o(t._ZN5QListI7QStringE13detach_helperEi.clean)
    t._ZN5QListI7QStringE13detach_helperEv   0x0002cdf2   Section       16  moc_qdeclarativecontactaddress_p.o(t._ZN5QListI7QStringE13detach_helperEv)
    t._ZN5QListI7QStringE13node_destructEPNS1_4NodeES3_ 0x0002ce02   Section       26  moc_qdeclarativecontactaddress_p.o(t._ZN5QListI7QStringE13node_destructEPNS1_4NodeES3_)
    t._ZN5QListI7QStringE14node_constructEPNS1_4NodeERKS0_ 0x0002ce1c   Section       36  moc_qdeclarativecontactaddress_p.o(t._ZN5QListI7QStringE14node_constructEPNS1_4NodeERKS0_)
    t._ZN5QListI7QStringE14node_constructEPNS1_4NodeERKS0_.clean 0x0002ce40   Section       14  moc_qdeclarativecontactaddress_p.o(t._ZN5QListI7QStringE14node_constructEPNS1_4NodeERKS0_.clean)
    t._ZN5QListI7QStringE18detach_helper_growEii 0x0002ce4e   Section      208  moc_qdeclarativecontactaddress_p.o(t._ZN5QListI7QStringE18detach_helper_growEii)
    t._ZN5QListI7QStringE18detach_helper_growEii.clean 0x0002cf1e   Section       16  moc_qdeclarativecontactaddress_p.o(t._ZN5QListI7QStringE18detach_helper_growEii.clean)
    t._ZN5QListI7QStringE4freeEPN9QListData4DataE 0x0002cf2e   Section       58  moc_qdeclarativecontactaddress_p.o(t._ZN5QListI7QStringE4freeEPN9QListData4DataE)
    t._ZN5QListI7QStringE6appendERKS0_       0x0002cf68   Section      120  moc_qdeclarativecontactaddress_p.o(t._ZN5QListI7QStringE6appendERKS0_)
    t._ZN5QListI7QStringE6appendERKS0_.clean 0x0002cfe0   Section       14  moc_qdeclarativecontactaddress_p.o(t._ZN5QListI7QStringE6appendERKS0_.clean)
    t._ZN5QListI7QStringE6detachEv           0x0002cfee   Section       24  qdeclarativecontactimageprovider.o(t._ZN5QListI7QStringE6detachEv)
    t._ZN5QListI7QStringE7reserveEi          0x0002d006   Section       46  qdeclarativecontactdetail.o(t._ZN5QListI7QStringE7reserveEi)
    t._ZN5QListI7QStringE9node_copyEPNS1_4NodeES3_S3_ 0x0002d034   Section       82  moc_qdeclarativecontactaddress_p.o(t._ZN5QListI7QStringE9node_copyEPNS1_4NodeES3_S3_)
    t._ZN5QListI7QStringE9node_copyEPNS1_4NodeES3_S3_.clean 0x0002d086   Section       22  moc_qdeclarativecontactaddress_p.o(t._ZN5QListI7QStringE9node_copyEPNS1_4NodeES3_S3_.clean)
    t._ZN5QListI7QStringEC1ERKS1_            0x0002d09c   Section       36  qdeclarativecontactdetail.o(t._ZN5QListI7QStringEC1ERKS1_)
    t._ZN5QListI7QStringEC1Ev                0x0002d0c0   Section       24  qdeclarativecontactdetail.o(t._ZN5QListI7QStringEC1Ev)
    t._ZN5QListI7QStringED1Ev                0x0002d0d8   Section       32  moc_qdeclarativecontactaddress_p.o(t._ZN5QListI7QStringED1Ev)
    t._ZN5QListI8QVariantE13detach_helperEi  0x0002d0f8   Section      200  moc_qdeclarativecontactaddress_p.o(t._ZN5QListI8QVariantE13detach_helperEi)
    t._ZN5QListI8QVariantE13detach_helperEi.clean 0x0002d1c0   Section       32  moc_qdeclarativecontactaddress_p.o(t._ZN5QListI8QVariantE13detach_helperEi.clean)
    t._ZN5QListI8QVariantE13detach_helperEv  0x0002d1e0   Section       16  moc_qdeclarativecontactaddress_p.o(t._ZN5QListI8QVariantE13detach_helperEv)
    t._ZN5QListI8QVariantE4freeEPN9QListData4DataE 0x0002d1f0   Section       82  moc_qdeclarativecontactaddress_p.o(t._ZN5QListI8QVariantE4freeEPN9QListData4DataE)
    t._ZN5QListI8QVariantED1Ev               0x0002d242   Section       32  moc_qdeclarativecontactaddress_p.o(t._ZN5QListI8QVariantED1Ev)
    t._ZN5QListIN10QtMobility14QContactDetailEE13detach_helperEi 0x0002d262   Section      176  qdeclarativecontactmetaobject.o(t._ZN5QListIN10QtMobility14QContactDetailEE13detach_helperEi)
    t._ZN5QListIN10QtMobility14QContactDetailEE13detach_helperEi.clean 0x0002d312   Section       30  qdeclarativecontactmetaobject.o(t._ZN5QListIN10QtMobility14QContactDetailEE13detach_helperEi.clean)
    t._ZN5QListIN10QtMobility14QContactDetailEE13detach_helperEv 0x0002d330   Section       16  qdeclarativecontactmetaobject.o(t._ZN5QListIN10QtMobility14QContactDetailEE13detach_helperEv)
    t._ZN5QListIN10QtMobility14QContactDetailEE4freeEPN9QListData4DataE 0x0002d340   Section       70  qdeclarativecontactmetaobject.o(t._ZN5QListIN10QtMobility14QContactDetailEE4freeEPN9QListData4DataE)
    t._ZN5QListIN10QtMobility14QContactDetailEED1Ev 0x0002d386   Section       32  qdeclarativecontactmetaobject.o(t._ZN5QListIN10QtMobility14QContactDetailEED1Ev)
    t._ZN5QListIN10QtMobility14QContactFilterEE13node_destructEPNS2_4NodeES4_ 0x0002d3a6   Section       26  moc_qdeclarativecontactintersectionfilter_p.o(t._ZN5QListIN10QtMobility14QContactFilterEE13node_destructEPNS2_4NodeES4_)
    t._ZN5QListIN10QtMobility14QContactFilterEE14node_constructEPNS2_4NodeERKS1_ 0x0002d3c0   Section       36  moc_qdeclarativecontactintersectionfilter_p.o(t._ZN5QListIN10QtMobility14QContactFilterEE14node_constructEPNS2_4NodeERKS1_)
    t._ZN5QListIN10QtMobility14QContactFilterEE14node_constructEPNS2_4NodeERKS1_.clean 0x0002d3e4   Section       14  moc_qdeclarativecontactintersectionfilter_p.o(t._ZN5QListIN10QtMobility14QContactFilterEE14node_constructEPNS2_4NodeERKS1_.clean)
    t._ZN5QListIN10QtMobility14QContactFilterEE18detach_helper_growEii 0x0002d3f2   Section      208  moc_qdeclarativecontactintersectionfilter_p.o(t._ZN5QListIN10QtMobility14QContactFilterEE18detach_helper_growEii)
    t._ZN5QListIN10QtMobility14QContactFilterEE18detach_helper_growEii.clean 0x0002d4c2   Section       16  moc_qdeclarativecontactintersectionfilter_p.o(t._ZN5QListIN10QtMobility14QContactFilterEE18detach_helper_growEii.clean)
    t._ZN5QListIN10QtMobility14QContactFilterEE4freeEPN9QListData4DataE 0x0002d4d2   Section       58  moc_qdeclarativecontactintersectionfilter_p.o(t._ZN5QListIN10QtMobility14QContactFilterEE4freeEPN9QListData4DataE)
    t._ZN5QListIN10QtMobility14QContactFilterEE6appendERKS1_ 0x0002d50c   Section      120  moc_qdeclarativecontactintersectionfilter_p.o(t._ZN5QListIN10QtMobility14QContactFilterEE6appendERKS1_)
    t._ZN5QListIN10QtMobility14QContactFilterEE6appendERKS1_.clean 0x0002d584   Section       14  moc_qdeclarativecontactintersectionfilter_p.o(t._ZN5QListIN10QtMobility14QContactFilterEE6appendERKS1_.clean)
    t._ZN5QListIN10QtMobility14QContactFilterEE9node_copyEPNS2_4NodeES4_S4_ 0x0002d592   Section       82  moc_qdeclarativecontactintersectionfilter_p.o(t._ZN5QListIN10QtMobility14QContactFilterEE9node_copyEPNS2_4NodeES4_S4_)
    t._ZN5QListIN10QtMobility14QContactFilterEE9node_copyEPNS2_4NodeES4_S4_.clean 0x0002d5e4   Section       22  moc_qdeclarativecontactintersectionfilter_p.o(t._ZN5QListIN10QtMobility14QContactFilterEE9node_copyEPNS2_4NodeES4_S4_.clean)
    t._ZN5QListIN10QtMobility14QContactFilterEEC1Ev 0x0002d5fc   Section       24  plugin.o(t._ZN5QListIN10QtMobility14QContactFilterEEC1Ev)
    t._ZN5QListIN10QtMobility14QContactFilterEED1Ev 0x0002d614   Section       32  moc_qdeclarativecontactintersectionfilter_p.o(t._ZN5QListIN10QtMobility14QContactFilterEED1Ev)
    t._ZN5QListIN10QtMobility15QVersitDocumentEE4freeEPN9QListData4DataE 0x0002d634   Section       76  qdeclarativecontactmodel.o(t._ZN5QListIN10QtMobility15QVersitDocumentEE4freeEPN9QListData4DataE)
    t._ZN5QListIN10QtMobility15QVersitDocumentEED1Ev 0x0002d680   Section       32  qdeclarativecontactmodel.o(t._ZN5QListIN10QtMobility15QVersitDocumentEED1Ev)
    t._ZN5QListIN10QtMobility17QContactSortOrderEE13node_destructEPNS2_4NodeES4_ 0x0002d6a0   Section       26  qdeclarativecontactmodel.o(t._ZN5QListIN10QtMobility17QContactSortOrderEE13node_destructEPNS2_4NodeES4_)
    t._ZN5QListIN10QtMobility17QContactSortOrderEE14node_constructEPNS2_4NodeERKS1_ 0x0002d6ba   Section       36  qdeclarativecontactmodel.o(t._ZN5QListIN10QtMobility17QContactSortOrderEE14node_constructEPNS2_4NodeERKS1_)
    t._ZN5QListIN10QtMobility17QContactSortOrderEE14node_constructEPNS2_4NodeERKS1_.clean 0x0002d6de   Section       14  qdeclarativecontactmodel.o(t._ZN5QListIN10QtMobility17QContactSortOrderEE14node_constructEPNS2_4NodeERKS1_.clean)
    t._ZN5QListIN10QtMobility17QContactSortOrderEE18detach_helper_growEii 0x0002d6ec   Section      208  qdeclarativecontactmodel.o(t._ZN5QListIN10QtMobility17QContactSortOrderEE18detach_helper_growEii)
    t._ZN5QListIN10QtMobility17QContactSortOrderEE18detach_helper_growEii.clean 0x0002d7bc   Section       16  qdeclarativecontactmodel.o(t._ZN5QListIN10QtMobility17QContactSortOrderEE18detach_helper_growEii.clean)
    t._ZN5QListIN10QtMobility17QContactSortOrderEE4freeEPN9QListData4DataE 0x0002d7cc   Section       52  qdeclarativecontactmodel.o(t._ZN5QListIN10QtMobility17QContactSortOrderEE4freeEPN9QListData4DataE)
    t._ZN5QListIN10QtMobility17QContactSortOrderEE6appendERKS1_ 0x0002d800   Section      120  qdeclarativecontactmodel.o(t._ZN5QListIN10QtMobility17QContactSortOrderEE6appendERKS1_)
    t._ZN5QListIN10QtMobility17QContactSortOrderEE6appendERKS1_.clean 0x0002d878   Section       14  qdeclarativecontactmodel.o(t._ZN5QListIN10QtMobility17QContactSortOrderEE6appendERKS1_.clean)
    t._ZN5QListIN10QtMobility17QContactSortOrderEE9node_copyEPNS2_4NodeES4_S4_ 0x0002d886   Section       82  qdeclarativecontactmodel.o(t._ZN5QListIN10QtMobility17QContactSortOrderEE9node_copyEPNS2_4NodeES4_S4_)
    t._ZN5QListIN10QtMobility17QContactSortOrderEE9node_copyEPNS2_4NodeES4_S4_.clean 0x0002d8d8   Section       22  qdeclarativecontactmodel.o(t._ZN5QListIN10QtMobility17QContactSortOrderEE9node_copyEPNS2_4NodeES4_S4_.clean)
    t._ZN5QListIN10QtMobility17QContactSortOrderEED1Ev 0x0002d8ee   Section       32  qdeclarativecontactmodel.o(t._ZN5QListIN10QtMobility17QContactSortOrderEED1Ev)
    t._ZN5QListIN10QtMobility20QContactRelationshipEE13detach_helperEi 0x0002d90e   Section       94  qdeclarativecontactrelationshipmodel.o(t._ZN5QListIN10QtMobility20QContactRelationshipEE13detach_helperEi)
    t._ZN5QListIN10QtMobility20QContactRelationshipEE13detach_helperEi.clean 0x0002d96c   Section        8  qdeclarativecontactrelationshipmodel.o(t._ZN5QListIN10QtMobility20QContactRelationshipEE13detach_helperEi.clean)
    t._ZN5QListIN10QtMobility20QContactRelationshipEE13detach_helperEv 0x0002d974   Section       16  qdeclarativecontactrelationshipmodel.o(t._ZN5QListIN10QtMobility20QContactRelationshipEE13detach_helperEv)
    t._ZN5QListIN10QtMobility20QContactRelationshipEE13node_destructEPNS2_4NodeE 0x0002d984   Section       28  qdeclarativecontactrelationshipmodel.o(t._ZN5QListIN10QtMobility20QContactRelationshipEE13node_destructEPNS2_4NodeE)
    t._ZN5QListIN10QtMobility20QContactRelationshipEE13node_destructEPNS2_4NodeES4_ 0x0002d9a0   Section       38  qdeclarativecontactrelationshipmodel.o(t._ZN5QListIN10QtMobility20QContactRelationshipEE13node_destructEPNS2_4NodeES4_)
    t._ZN5QListIN10QtMobility20QContactRelationshipEE14node_constructEPNS2_4NodeERKS1_ 0x0002d9c6   Section       34  qdeclarativecontactrelationshipmodel.o(t._ZN5QListIN10QtMobility20QContactRelationshipEE14node_constructEPNS2_4NodeERKS1_)
    t._ZN5QListIN10QtMobility20QContactRelationshipEE14node_constructEPNS2_4NodeERKS1_.clean 0x0002d9e8   Section       14  qdeclarativecontactrelationshipmodel.o(t._ZN5QListIN10QtMobility20QContactRelationshipEE14node_constructEPNS2_4NodeERKS1_.clean)
    t._ZN5QListIN10QtMobility20QContactRelationshipEE18detach_helper_growEii 0x0002d9f6   Section      208  qdeclarativecontactrelationshipmodel.o(t._ZN5QListIN10QtMobility20QContactRelationshipEE18detach_helper_growEii)
    t._ZN5QListIN10QtMobility20QContactRelationshipEE18detach_helper_growEii.clean 0x0002dac6   Section       16  qdeclarativecontactrelationshipmodel.o(t._ZN5QListIN10QtMobility20QContactRelationshipEE18detach_helper_growEii.clean)
    t._ZN5QListIN10QtMobility20QContactRelationshipEE4freeEPN9QListData4DataE 0x0002dad6   Section       58  qdeclarativecontactrelationshipmodel.o(t._ZN5QListIN10QtMobility20QContactRelationshipEE4freeEPN9QListData4DataE)
    t._ZN5QListIN10QtMobility20QContactRelationshipEE5clearEv 0x0002db10   Section       76  qdeclarativecontactrelationshipmodel.o(t._ZN5QListIN10QtMobility20QContactRelationshipEE5clearEv)
    t._ZN5QListIN10QtMobility20QContactRelationshipEE5clearEv.clean 0x0002db5c   Section       10  qdeclarativecontactrelationshipmodel.o(t._ZN5QListIN10QtMobility20QContactRelationshipEE5clearEv.clean)
    t._ZN5QListIN10QtMobility20QContactRelationshipEE6appendERKS1_ 0x0002db68   Section      112  qdeclarativecontactrelationshipmodel.o(t._ZN5QListIN10QtMobility20QContactRelationshipEE6appendERKS1_)
    t._ZN5QListIN10QtMobility20QContactRelationshipEE6appendERKS1_.clean 0x0002dbd8   Section       14  qdeclarativecontactrelationshipmodel.o(t._ZN5QListIN10QtMobility20QContactRelationshipEE6appendERKS1_.clean)
    t._ZN5QListIN10QtMobility20QContactRelationshipEE9node_copyEPNS2_4NodeES4_S4_ 0x0002dbe6   Section       92  qdeclarativecontactrelationshipmodel.o(t._ZN5QListIN10QtMobility20QContactRelationshipEE9node_copyEPNS2_4NodeES4_S4_)
    t._ZN5QListIN10QtMobility20QContactRelationshipEE9node_copyEPNS2_4NodeES4_S4_.clean 0x0002dc42   Section       22  qdeclarativecontactrelationshipmodel.o(t._ZN5QListIN10QtMobility20QContactRelationshipEE9node_copyEPNS2_4NodeES4_S4_.clean)
    t._ZN5QListIN10QtMobility20QContactRelationshipEEC1Ev 0x0002dc58   Section       24  qdeclarativecontactrelationshipmodel.o(t._ZN5QListIN10QtMobility20QContactRelationshipEEC1Ev)
    t._ZN5QListIN10QtMobility20QContactRelationshipEED1Ev 0x0002dc70   Section       32  qdeclarativecontactrelationshipmodel.o(t._ZN5QListIN10QtMobility20QContactRelationshipEED1Ev)
    t._ZN5QListIN10QtMobility8QContactEE13detach_helperEi 0x0002dc90   Section       94  qdeclarativecontactmodel.o(t._ZN5QListIN10QtMobility8QContactEE13detach_helperEi)
    t._ZN5QListIN10QtMobility8QContactEE13detach_helperEi.clean 0x0002dcee   Section        8  qdeclarativecontactmodel.o(t._ZN5QListIN10QtMobility8QContactEE13detach_helperEi.clean)
    t._ZN5QListIN10QtMobility8QContactEE13detach_helperEv 0x0002dcf6   Section       16  qdeclarativecontactmodel.o(t._ZN5QListIN10QtMobility8QContactEE13detach_helperEv)
    t._ZN5QListIN10QtMobility8QContactEE13node_destructEPNS2_4NodeES4_ 0x0002dd06   Section       26  qdeclarativecontactmodel.o(t._ZN5QListIN10QtMobility8QContactEE13node_destructEPNS2_4NodeES4_)
    t._ZN5QListIN10QtMobility8QContactEE14node_constructEPNS2_4NodeERKS1_ 0x0002dd20   Section       36  qdeclarativecontactmodel.o(t._ZN5QListIN10QtMobility8QContactEE14node_constructEPNS2_4NodeERKS1_)
    t._ZN5QListIN10QtMobility8QContactEE14node_constructEPNS2_4NodeERKS1_.clean 0x0002dd44   Section       14  qdeclarativecontactmodel.o(t._ZN5QListIN10QtMobility8QContactEE14node_constructEPNS2_4NodeERKS1_.clean)
    t._ZN5QListIN10QtMobility8QContactEE18detach_helper_growEii 0x0002dd52   Section      208  qdeclarativecontactmodel.o(t._ZN5QListIN10QtMobility8QContactEE18detach_helper_growEii)
    t._ZN5QListIN10QtMobility8QContactEE18detach_helper_growEii.clean 0x0002de22   Section       16  qdeclarativecontactmodel.o(t._ZN5QListIN10QtMobility8QContactEE18detach_helper_growEii.clean)
    t._ZN5QListIN10QtMobility8QContactEE4freeEPN9QListData4DataE 0x0002de32   Section       52  qdeclarativecontactmodel.o(t._ZN5QListIN10QtMobility8QContactEE4freeEPN9QListData4DataE)
    t._ZN5QListIN10QtMobility8QContactEE6appendERKS1_ 0x0002de68   Section      120  qdeclarativecontactmodel.o(t._ZN5QListIN10QtMobility8QContactEE6appendERKS1_)
    t._ZN5QListIN10QtMobility8QContactEE6appendERKS1_.clean 0x0002dee0   Section       14  qdeclarativecontactmodel.o(t._ZN5QListIN10QtMobility8QContactEE6appendERKS1_.clean)
    t._ZN5QListIN10QtMobility8QContactEE9node_copyEPNS2_4NodeES4_S4_ 0x0002deee   Section       82  qdeclarativecontactmodel.o(t._ZN5QListIN10QtMobility8QContactEE9node_copyEPNS2_4NodeES4_S4_)
    t._ZN5QListIN10QtMobility8QContactEE9node_copyEPNS2_4NodeES4_S4_.clean 0x0002df40   Section       22  qdeclarativecontactmodel.o(t._ZN5QListIN10QtMobility8QContactEE9node_copyEPNS2_4NodeES4_S4_.clean)
    t._ZN5QListIN10QtMobility8QContactEED1Ev 0x0002df56   Section       32  qdeclarativecontactmodel.o(t._ZN5QListIN10QtMobility8QContactEED1Ev)
    t._ZN5QListIP19QDeclarativeContactE13detach_helperEi 0x0002df76   Section       94  qdeclarativecontactmodel.o(t._ZN5QListIP19QDeclarativeContactE13detach_helperEi)
    t._ZN5QListIP19QDeclarativeContactE13detach_helperEi.clean 0x0002dfd4   Section        8  qdeclarativecontactmodel.o(t._ZN5QListIP19QDeclarativeContactE13detach_helperEi.clean)
    t._ZN5QListIP19QDeclarativeContactE13detach_helperEv 0x0002dfdc   Section       16  qdeclarativecontactmodel.o(t._ZN5QListIP19QDeclarativeContactE13detach_helperEv)
    t._ZN5QListIP19QDeclarativeContactE18detach_helper_growEii 0x0002dfec   Section      204  qdeclarativecontactmodel.o(t._ZN5QListIP19QDeclarativeContactE18detach_helper_growEii)
    t._ZN5QListIP19QDeclarativeContactE18detach_helper_growEii.clean 0x0002e0b8   Section       16  qdeclarativecontactmodel.o(t._ZN5QListIP19QDeclarativeContactE18detach_helper_growEii.clean)
    t._ZN5QListIP19QDeclarativeContactE4freeEPN9QListData4DataE 0x0002e0c8   Section       52  qdeclarativecontactmodel.o(t._ZN5QListIP19QDeclarativeContactE4freeEPN9QListData4DataE)
    t._ZN5QListIP19QDeclarativeContactE5clearEv 0x0002e0fc   Section       28  qdeclarativecontactmodel.o(t._ZN5QListIP19QDeclarativeContactE5clearEv)
    t._ZN5QListIP19QDeclarativeContactE5clearEv.clean 0x0002e118   Section       10  qdeclarativecontactmodel.o(t._ZN5QListIP19QDeclarativeContactE5clearEv.clean)
    t._ZN5QListIP19QDeclarativeContactE6appendERKS1_ 0x0002e124   Section      100  qdeclarativecontactmodel.o(t._ZN5QListIP19QDeclarativeContactE6appendERKS1_)
    t._ZN5QListIP19QDeclarativeContactE6appendERKS1_.clean 0x0002e188   Section       10  qdeclarativecontactmodel.o(t._ZN5QListIP19QDeclarativeContactE6appendERKS1_.clean)
    t._ZN5QListIP19QDeclarativeContactE9node_copyEPNS2_4NodeES4_S4_ 0x0002e192   Section       46  qdeclarativecontactmodel.o(t._ZN5QListIP19QDeclarativeContactE9node_copyEPNS2_4NodeES4_S4_)
    t._ZN5QListIP19QDeclarativeContactEC1Ev  0x0002e1c0   Section       24  qdeclarativecontactmodel.o(t._ZN5QListIP19QDeclarativeContactEC1Ev)
    t._ZN5QListIP19QDeclarativeContactED1Ev  0x0002e1d8   Section       32  qdeclarativecontactmodel.o(t._ZN5QListIP19QDeclarativeContactED1Ev)
    t._ZN5QListIP19QDeclarativeContactEaSERKS2_ 0x0002e1f8   Section       64  qdeclarativecontactmodel.o(t._ZN5QListIP19QDeclarativeContactEaSERKS2_)
    t._ZN5QListIP25QDeclarativeContactDetailE13detach_helperEi 0x0002e238   Section       94  qdeclarativecontact.o(t._ZN5QListIP25QDeclarativeContactDetailE13detach_helperEi)
    t._ZN5QListIP25QDeclarativeContactDetailE13detach_helperEi.clean 0x0002e296   Section        8  qdeclarativecontact.o(t._ZN5QListIP25QDeclarativeContactDetailE13detach_helperEi.clean)
    t._ZN5QListIP25QDeclarativeContactDetailE13detach_helperEv 0x0002e29e   Section       16  qdeclarativecontact.o(t._ZN5QListIP25QDeclarativeContactDetailE13detach_helperEv)
    t._ZN5QListIP25QDeclarativeContactDetailE18detach_helper_growEii 0x0002e2ae   Section      204  qdeclarativecontact.o(t._ZN5QListIP25QDeclarativeContactDetailE18detach_helper_growEii)
    t._ZN5QListIP25QDeclarativeContactDetailE18detach_helper_growEii.clean 0x0002e37a   Section       16  qdeclarativecontact.o(t._ZN5QListIP25QDeclarativeContactDetailE18detach_helper_growEii.clean)
    t._ZN5QListIP25QDeclarativeContactDetailE4freeEPN9QListData4DataE 0x0002e38a   Section       58  qdeclarativecontact.o(t._ZN5QListIP25QDeclarativeContactDetailE4freeEPN9QListData4DataE)
    t._ZN5QListIP25QDeclarativeContactDetailE5clearEv 0x0002e3c4   Section       76  qdeclarativecontactmetaobject.o(t._ZN5QListIP25QDeclarativeContactDetailE5clearEv)
    t._ZN5QListIP25QDeclarativeContactDetailE5clearEv.clean 0x0002e410   Section       10  qdeclarativecontactmetaobject.o(t._ZN5QListIP25QDeclarativeContactDetailE5clearEv.clean)
    t._ZN5QListIP25QDeclarativeContactDetailE6appendERKS1_ 0x0002e41c   Section      100  qdeclarativecontact.o(t._ZN5QListIP25QDeclarativeContactDetailE6appendERKS1_)
    t._ZN5QListIP25QDeclarativeContactDetailE6appendERKS1_.clean 0x0002e480   Section       10  qdeclarativecontact.o(t._ZN5QListIP25QDeclarativeContactDetailE6appendERKS1_.clean)
    t._ZN5QListIP25QDeclarativeContactDetailE9node_copyEPNS2_4NodeES4_S4_ 0x0002e48a   Section       46  qdeclarativecontact.o(t._ZN5QListIP25QDeclarativeContactDetailE9node_copyEPNS2_4NodeES4_S4_)
    t._ZN5QListIP25QDeclarativeContactDetailE9removeAllERKS1_ 0x0002e4b8   Section      116  qdeclarativecontactmetaobject.o(t._ZN5QListIP25QDeclarativeContactDetailE9removeAllERKS1_)
    t._ZN5QListIP25QDeclarativeContactDetailEC1Ev 0x0002e52c   Section       24  qdeclarativecontactmetaobject.o(t._ZN5QListIP25QDeclarativeContactDetailEC1Ev)
    t._ZN5QListIP25QDeclarativeContactDetailED1Ev 0x0002e544   Section       32  qdeclarativecontact.o(t._ZN5QListIP25QDeclarativeContactDetailED1Ev)
    t._ZN5QListIP25QDeclarativeContactFilterE13detach_helperEi 0x0002e564   Section       94  moc_qdeclarativecontactintersectionfilter_p.o(t._ZN5QListIP25QDeclarativeContactFilterE13detach_helperEi)
    t._ZN5QListIP25QDeclarativeContactFilterE13detach_helperEi.clean 0x0002e5c2   Section        8  moc_qdeclarativecontactintersectionfilter_p.o(t._ZN5QListIP25QDeclarativeContactFilterE13detach_helperEi.clean)
    t._ZN5QListIP25QDeclarativeContactFilterE13detach_helperEv 0x0002e5ca   Section       16  moc_qdeclarativecontactintersectionfilter_p.o(t._ZN5QListIP25QDeclarativeContactFilterE13detach_helperEv)
    t._ZN5QListIP25QDeclarativeContactFilterE18detach_helper_growEii 0x0002e5da   Section      204  moc_qdeclarativecontactintersectionfilter_p.o(t._ZN5QListIP25QDeclarativeContactFilterE18detach_helper_growEii)
    t._ZN5QListIP25QDeclarativeContactFilterE18detach_helper_growEii.clean 0x0002e6a6   Section       16  moc_qdeclarativecontactintersectionfilter_p.o(t._ZN5QListIP25QDeclarativeContactFilterE18detach_helper_growEii.clean)
    t._ZN5QListIP25QDeclarativeContactFilterE4freeEPN9QListData4DataE 0x0002e6b6   Section       58  moc_qdeclarativecontactintersectionfilter_p.o(t._ZN5QListIP25QDeclarativeContactFilterE4freeEPN9QListData4DataE)
    t._ZN5QListIP25QDeclarativeContactFilterE5clearEv 0x0002e6f0   Section       88  moc_qdeclarativecontactintersectionfilter_p.o(t._ZN5QListIP25QDeclarativeContactFilterE5clearEv)
    t._ZN5QListIP25QDeclarativeContactFilterE5clearEv.clean 0x0002e748   Section       10  moc_qdeclarativecontactintersectionfilter_p.o(t._ZN5QListIP25QDeclarativeContactFilterE5clearEv.clean)
    t._ZN5QListIP25QDeclarativeContactFilterE6appendERKS1_ 0x0002e754   Section      100  moc_qdeclarativecontactintersectionfilter_p.o(t._ZN5QListIP25QDeclarativeContactFilterE6appendERKS1_)
    t._ZN5QListIP25QDeclarativeContactFilterE6appendERKS1_.clean 0x0002e7b8   Section       10  moc_qdeclarativecontactintersectionfilter_p.o(t._ZN5QListIP25QDeclarativeContactFilterE6appendERKS1_.clean)
    t._ZN5QListIP25QDeclarativeContactFilterE9node_copyEPNS2_4NodeES4_S4_ 0x0002e7c2   Section       46  moc_qdeclarativecontactintersectionfilter_p.o(t._ZN5QListIP25QDeclarativeContactFilterE9node_copyEPNS2_4NodeES4_S4_)
    t._ZN5QListIP25QDeclarativeContactFilterEC1Ev 0x0002e7f0   Section       24  plugin.o(t._ZN5QListIP25QDeclarativeContactFilterEC1Ev)
    t._ZN5QListIP25QDeclarativeContactFilterED1Ev 0x0002e808   Section       32  moc_qdeclarativecontactintersectionfilter_p.o(t._ZN5QListIP25QDeclarativeContactFilterED1Ev)
    t._ZN5QListIP28QDeclarativeContactSortOrderE13detach_helperEi 0x0002e828   Section       94  qdeclarativecontactmodel.o(t._ZN5QListIP28QDeclarativeContactSortOrderE13detach_helperEi)
    t._ZN5QListIP28QDeclarativeContactSortOrderE13detach_helperEi.clean 0x0002e886   Section        8  qdeclarativecontactmodel.o(t._ZN5QListIP28QDeclarativeContactSortOrderE13detach_helperEi.clean)
    t._ZN5QListIP28QDeclarativeContactSortOrderE13detach_helperEv 0x0002e88e   Section       16  qdeclarativecontactmodel.o(t._ZN5QListIP28QDeclarativeContactSortOrderE13detach_helperEv)
    t._ZN5QListIP28QDeclarativeContactSortOrderE18detach_helper_growEii 0x0002e89e   Section      204  qdeclarativecontactmodel.o(t._ZN5QListIP28QDeclarativeContactSortOrderE18detach_helper_growEii)
    t._ZN5QListIP28QDeclarativeContactSortOrderE18detach_helper_growEii.clean 0x0002e96a   Section       16  qdeclarativecontactmodel.o(t._ZN5QListIP28QDeclarativeContactSortOrderE18detach_helper_growEii.clean)
    t._ZN5QListIP28QDeclarativeContactSortOrderE4freeEPN9QListData4DataE 0x0002e97a   Section       52  qdeclarativecontactmodel.o(t._ZN5QListIP28QDeclarativeContactSortOrderE4freeEPN9QListData4DataE)
    t._ZN5QListIP28QDeclarativeContactSortOrderE5clearEv 0x0002e9ae   Section       76  qdeclarativecontactmodel.o(t._ZN5QListIP28QDeclarativeContactSortOrderE5clearEv)
    t._ZN5QListIP28QDeclarativeContactSortOrderE5clearEv.clean 0x0002e9fa   Section       10  qdeclarativecontactmodel.o(t._ZN5QListIP28QDeclarativeContactSortOrderE5clearEv.clean)
    t._ZN5QListIP28QDeclarativeContactSortOrderE6appendERKS1_ 0x0002ea04   Section      100  qdeclarativecontactmodel.o(t._ZN5QListIP28QDeclarativeContactSortOrderE6appendERKS1_)
    t._ZN5QListIP28QDeclarativeContactSortOrderE6appendERKS1_.clean 0x0002ea68   Section       10  qdeclarativecontactmodel.o(t._ZN5QListIP28QDeclarativeContactSortOrderE6appendERKS1_.clean)
    t._ZN5QListIP28QDeclarativeContactSortOrderE9node_copyEPNS2_4NodeES4_S4_ 0x0002ea72   Section       46  qdeclarativecontactmodel.o(t._ZN5QListIP28QDeclarativeContactSortOrderE9node_copyEPNS2_4NodeES4_S4_)
    t._ZN5QListIP28QDeclarativeContactSortOrderEC1Ev 0x0002eaa0   Section       24  qdeclarativecontactmodel.o(t._ZN5QListIP28QDeclarativeContactSortOrderEC1Ev)
    t._ZN5QListIP28QDeclarativeContactSortOrderED1Ev 0x0002eab8   Section       32  qdeclarativecontactmodel.o(t._ZN5QListIP28QDeclarativeContactSortOrderED1Ev)
    t._ZN5QListIP31QDeclarativeContactRelationshipE13detach_helperEi 0x0002ead8   Section       94  qdeclarativecontactrelationshipmodel.o(t._ZN5QListIP31QDeclarativeContactRelationshipE13detach_helperEi)
    t._ZN5QListIP31QDeclarativeContactRelationshipE13detach_helperEi.clean 0x0002eb36   Section        8  qdeclarativecontactrelationshipmodel.o(t._ZN5QListIP31QDeclarativeContactRelationshipE13detach_helperEi.clean)
    t._ZN5QListIP31QDeclarativeContactRelationshipE13detach_helperEv 0x0002eb3e   Section       16  qdeclarativecontactrelationshipmodel.o(t._ZN5QListIP31QDeclarativeContactRelationshipE13detach_helperEv)
    t._ZN5QListIP31QDeclarativeContactRelationshipE18detach_helper_growEii 0x0002eb4e   Section      204  qdeclarativecontactrelationshipmodel.o(t._ZN5QListIP31QDeclarativeContactRelationshipE18detach_helper_growEii)
    t._ZN5QListIP31QDeclarativeContactRelationshipE18detach_helper_growEii.clean 0x0002ec1a   Section       16  qdeclarativecontactrelationshipmodel.o(t._ZN5QListIP31QDeclarativeContactRelationshipE18detach_helper_growEii.clean)
    t._ZN5QListIP31QDeclarativeContactRelationshipE4freeEPN9QListData4DataE 0x0002ec2a   Section       58  qdeclarativecontactrelationshipmodel.o(t._ZN5QListIP31QDeclarativeContactRelationshipE4freeEPN9QListData4DataE)
    t._ZN5QListIP31QDeclarativeContactRelationshipE5clearEv 0x0002ec64   Section       76  qdeclarativecontactrelationshipmodel.o(t._ZN5QListIP31QDeclarativeContactRelationshipE5clearEv)
    t._ZN5QListIP31QDeclarativeContactRelationshipE5clearEv.clean 0x0002ecb0   Section       10  qdeclarativecontactrelationshipmodel.o(t._ZN5QListIP31QDeclarativeContactRelationshipE5clearEv.clean)
    t._ZN5QListIP31QDeclarativeContactRelationshipE6appendERKS1_ 0x0002ecbc   Section      100  qdeclarativecontactrelationshipmodel.o(t._ZN5QListIP31QDeclarativeContactRelationshipE6appendERKS1_)
    t._ZN5QListIP31QDeclarativeContactRelationshipE6appendERKS1_.clean 0x0002ed20   Section       10  qdeclarativecontactrelationshipmodel.o(t._ZN5QListIP31QDeclarativeContactRelationshipE6appendERKS1_.clean)
    t._ZN5QListIP31QDeclarativeContactRelationshipE9node_copyEPNS2_4NodeES4_S4_ 0x0002ed2a   Section       46  qdeclarativecontactrelationshipmodel.o(t._ZN5QListIP31QDeclarativeContactRelationshipE9node_copyEPNS2_4NodeES4_S4_)
    t._ZN5QListIP31QDeclarativeContactRelationshipEC1Ev 0x0002ed58   Section       24  qdeclarativecontactrelationshipmodel.o(t._ZN5QListIP31QDeclarativeContactRelationshipEC1Ev)
    t._ZN5QListIP31QDeclarativeContactRelationshipED1Ev 0x0002ed70   Section       32  qdeclarativecontactrelationshipmodel.o(t._ZN5QListIP31QDeclarativeContactRelationshipED1Ev)
    t._ZN5QListIPFRK11QMetaObjectvEE13detach_helperEi 0x0002ed90   Section       94  qmetaobjectbuilder.o(t._ZN5QListIPFRK11QMetaObjectvEE13detach_helperEi)
    t._ZN5QListIPFRK11QMetaObjectvEE13detach_helperEi.clean 0x0002edee   Section        8  qmetaobjectbuilder.o(t._ZN5QListIPFRK11QMetaObjectvEE13detach_helperEi.clean)
    t._ZN5QListIPFRK11QMetaObjectvEE13detach_helperEv 0x0002edf6   Section       16  qmetaobjectbuilder.o(t._ZN5QListIPFRK11QMetaObjectvEE13detach_helperEv)
    t._ZN5QListIPFRK11QMetaObjectvEE18detach_helper_growEii 0x0002ee06   Section      204  qmetaobjectbuilder.o(t._ZN5QListIPFRK11QMetaObjectvEE18detach_helper_growEii)
    t._ZN5QListIPFRK11QMetaObjectvEE18detach_helper_growEii.clean 0x0002eed2   Section       16  qmetaobjectbuilder.o(t._ZN5QListIPFRK11QMetaObjectvEE18detach_helper_growEii.clean)
    t._ZN5QListIPFRK11QMetaObjectvEE4freeEPN9QListData4DataE 0x0002eee2   Section       52  qmetaobjectbuilder.o(t._ZN5QListIPFRK11QMetaObjectvEE4freeEPN9QListData4DataE)
    t._ZN5QListIPFRK11QMetaObjectvEE5clearEv 0x0002ef16   Section       76  qmetaobjectbuilder.o(t._ZN5QListIPFRK11QMetaObjectvEE5clearEv)
    t._ZN5QListIPFRK11QMetaObjectvEE5clearEv.clean 0x0002ef62   Section       10  qmetaobjectbuilder.o(t._ZN5QListIPFRK11QMetaObjectvEE5clearEv.clean)
    t._ZN5QListIPFRK11QMetaObjectvEE6appendERKS4_ 0x0002ef6c   Section      100  qmetaobjectbuilder.o(t._ZN5QListIPFRK11QMetaObjectvEE6appendERKS4_)
    t._ZN5QListIPFRK11QMetaObjectvEE6appendERKS4_.clean 0x0002efd0   Section       10  qmetaobjectbuilder.o(t._ZN5QListIPFRK11QMetaObjectvEE6appendERKS4_.clean)
    t._ZN5QListIPFRK11QMetaObjectvEE6detachEv 0x0002efda   Section       24  qmetaobjectbuilder.o(t._ZN5QListIPFRK11QMetaObjectvEE6detachEv)
    t._ZN5QListIPFRK11QMetaObjectvEE9node_copyEPNS5_4NodeES7_S7_ 0x0002eff2   Section       46  qmetaobjectbuilder.o(t._ZN5QListIPFRK11QMetaObjectvEE9node_copyEPNS5_4NodeES7_S7_)
    t._ZN5QListIPFRK11QMetaObjectvEEC1Ev     0x0002f020   Section       24  qmetaobjectbuilder.o(t._ZN5QListIPFRK11QMetaObjectvEEC1Ev)
    t._ZN5QListIPFRK11QMetaObjectvEED1Ev     0x0002f038   Section       32  qmetaobjectbuilder.o(t._ZN5QListIPFRK11QMetaObjectvEED1Ev)
    t._ZN5QListIPFRK11QMetaObjectvEEixEi     0x0002f058   Section       28  qmetaobjectbuilder.o(t._ZN5QListIPFRK11QMetaObjectvEEixEi)
    t._ZN5QListIiE13detach_helperEi          0x0002f074   Section       94  qdeclarativecontactmodel.o(t._ZN5QListIiE13detach_helperEi)
    t._ZN5QListIiE13detach_helperEi.clean    0x0002f0d2   Section        8  qdeclarativecontactmodel.o(t._ZN5QListIiE13detach_helperEi.clean)
    t._ZN5QListIiE13detach_helperEv          0x0002f0da   Section       16  qmetaobjectbuilder.o(t._ZN5QListIiE13detach_helperEv)
    t._ZN5QListIiE18detach_helper_growEii    0x0002f0ea   Section      204  qdeclarativecontactmodel.o(t._ZN5QListIiE18detach_helper_growEii)
    t._ZN5QListIiE18detach_helper_growEii.clean 0x0002f1b6   Section       16  qdeclarativecontactmodel.o(t._ZN5QListIiE18detach_helper_growEii.clean)
    t._ZN5QListIiE4freeEPN9QListData4DataE   0x0002f1c6   Section       52  qdeclarativecontactmodel.o(t._ZN5QListIiE4freeEPN9QListData4DataE)
    t._ZN5QListIiE5clearEv                   0x0002f1fa   Section       76  qmetaobjectbuilder.o(t._ZN5QListIiE5clearEv)
    t._ZN5QListIiE5clearEv.clean             0x0002f246   Section       10  qmetaobjectbuilder.o(t._ZN5QListIiE5clearEv.clean)
    t._ZN5QListIiE6appendERKi                0x0002f250   Section      100  qdeclarativecontactmodel.o(t._ZN5QListIiE6appendERKi)
    t._ZN5QListIiE6appendERKi.clean          0x0002f2b4   Section       10  qdeclarativecontactmodel.o(t._ZN5QListIiE6appendERKi.clean)
    t._ZN5QListIiE6detachEv                  0x0002f2be   Section       24  qmetaobjectbuilder.o(t._ZN5QListIiE6detachEv)
    t._ZN5QListIiE7reserveEi                 0x0002f2d6   Section       46  qdeclarativecontactmodel.o(t._ZN5QListIiE7reserveEi)
    t._ZN5QListIiE9node_copyEPNS0_4NodeES2_S2_ 0x0002f304   Section       46  qdeclarativecontactmodel.o(t._ZN5QListIiE9node_copyEPNS0_4NodeES2_S2_)
    t._ZN5QListIiEC1Ev                       0x0002f334   Section       24  qmetaobjectbuilder.o(t._ZN5QListIiEC1Ev)
    t._ZN5QListIiED1Ev                       0x0002f34c   Section       32  qdeclarativecontactmodel.o(t._ZN5QListIiED1Ev)
    t._ZN5QListIiEixEi                       0x0002f36c   Section       28  qmetaobjectbuilder.o(t._ZN5QListIiEixEi)
    t._ZN5QListIjE13detach_helperEi          0x0002f388   Section       94  moc_qdeclarativecontactlocalidfilter_p.o(t._ZN5QListIjE13detach_helperEi)
    t._ZN5QListIjE13detach_helperEi.clean    0x0002f3e6   Section        8  moc_qdeclarativecontactlocalidfilter_p.o(t._ZN5QListIjE13detach_helperEi.clean)
    t._ZN5QListIjE13detach_helperEv          0x0002f3ee   Section       16  moc_qdeclarativecontactlocalidfilter_p.o(t._ZN5QListIjE13detach_helperEv)
    t._ZN5QListIjE18detach_helper_growEii    0x0002f3fe   Section      204  moc_qdeclarativecontactlocalidfilter_p.o(t._ZN5QListIjE18detach_helper_growEii)
    t._ZN5QListIjE18detach_helper_growEii.clean 0x0002f4ca   Section       16  moc_qdeclarativecontactlocalidfilter_p.o(t._ZN5QListIjE18detach_helper_growEii.clean)
    t._ZN5QListIjE4freeEPN9QListData4DataE   0x0002f4da   Section       52  qdeclarativecontactmodel.o(t._ZN5QListIjE4freeEPN9QListData4DataE)
    t._ZN5QListIjE5clearEv                   0x0002f50e   Section       28  qdeclarativecontactmodel.o(t._ZN5QListIjE5clearEv)
    t._ZN5QListIjE5clearEv.clean             0x0002f52a   Section       10  qdeclarativecontactmodel.o(t._ZN5QListIjE5clearEv.clean)
    t._ZN5QListIjE6appendERKj                0x0002f534   Section      100  moc_qdeclarativecontactlocalidfilter_p.o(t._ZN5QListIjE6appendERKj)
    t._ZN5QListIjE6appendERKj.clean          0x0002f598   Section       10  moc_qdeclarativecontactlocalidfilter_p.o(t._ZN5QListIjE6appendERKj.clean)
    t._ZN5QListIjE9node_copyEPNS0_4NodeES2_S2_ 0x0002f5a2   Section       46  moc_qdeclarativecontactlocalidfilter_p.o(t._ZN5QListIjE9node_copyEPNS0_4NodeES2_S2_)
    t._ZN5QListIjEC1Ev                       0x0002f5d0   Section       24  qdeclarativecontactmodel.o(t._ZN5QListIjEC1Ev)
    t._ZN5QListIjED1Ev                       0x0002f5e8   Section       32  moc_qdeclarativecontactlocalidfilter_p.o(t._ZN5QListIjED1Ev)
    t._ZN5QListIjEaSERKS0_                   0x0002f608   Section       64  qdeclarativecontactmodel.o(t._ZN5QListIjEaSERKS0_)
    t._ZN8QPointerI7QObjectED1Ev             0x0002f648   Section       14  plugin.o(t._ZN8QPointerI7QObjectED1Ev)
    t._ZN8QVariant9fromValueIP25QDeclarativeContactDetailEES_RKT_ 0x0002f656   Section       34  qdeclarativecontactmetaobject.o(t._ZN8QVariant9fromValueIP25QDeclarativeContactDetailEES_RKT_)
    t._ZN9QHashNodeIi10QByteArrayEC1EiRKS0_  0x0002f678   Section       30  qdeclarativecontactmodel.o(t._ZN9QHashNodeIi10QByteArrayEC1EiRKS0_)
    t._ZNK10QtMobility14QContactDetail5valueI11QStringListEET_PKc 0x0002f696   Section       34  qdeclarativecontactdetail.o(t._ZNK10QtMobility14QContactDetail5valueI11QStringListEET_PKc)
    t._ZNK10QtMobility14QContactDetail5valueI11QStringListEET_PKc.clean 0x0002f6b8   Section       10  qdeclarativecontactdetail.o(t._ZNK10QtMobility14QContactDetail5valueI11QStringListEET_PKc.clean)
    t._ZNK10QtMobility14QContactDetail5valueI4QUrlEET_PKc 0x0002f6c2   Section      138  moc_qdeclarativecontactglobalpresence_p.o(t._ZNK10QtMobility14QContactDetail5valueI4QUrlEET_PKc)
    t._ZNK10QtMobility14QContactDetail5valueI4QUrlEET_PKc.clean 0x0002f74c   Section       20  moc_qdeclarativecontactglobalpresence_p.o(t._ZNK10QtMobility14QContactDetail5valueI4QUrlEET_PKc.clean)
    t._ZNK10QtMobility14QContactDetail5valueI6QImageEET_PKc 0x0002f760   Section      138  qdeclarativecontactimageprovider.o(t._ZNK10QtMobility14QContactDetail5valueI6QImageEET_PKc)
    t._ZNK10QtMobility14QContactDetail5valueI6QImageEET_PKc.clean 0x0002f7ea   Section       20  qdeclarativecontactimageprovider.o(t._ZNK10QtMobility14QContactDetail5valueI6QImageEET_PKc.clean)
    t._ZNK10QtMobility14QContactDetail5valueI9QDateTimeEET_PKc 0x0002f7fe   Section      138  moc_qdeclarativecontactanniversary_p.o(t._ZNK10QtMobility14QContactDetail5valueI9QDateTimeEET_PKc)
    t._ZNK10QtMobility14QContactDetail5valueI9QDateTimeEET_PKc.clean 0x0002f888   Section       20  moc_qdeclarativecontactanniversary_p.o(t._ZNK10QtMobility14QContactDetail5valueI9QDateTimeEET_PKc.clean)
    t._ZNK10QtMobility15QLatin1ConstantILi10EEcv7QStringEv 0x0002f89c   Section       18  qdeclarativecontactdetail.o(t._ZNK10QtMobility15QLatin1ConstantILi10EEcv7QStringEv)
    t._ZNK10QtMobility15QLatin1ConstantILi11EEcv7QStringEv 0x0002f8ae   Section       18  qdeclarativecontactdetail.o(t._ZNK10QtMobility15QLatin1ConstantILi11EEcv7QStringEv)
    t._ZNK10QtMobility15QLatin1ConstantILi12EEcv7QStringEv 0x0002f8c0   Section       18  qdeclarativecontactdetail.o(t._ZNK10QtMobility15QLatin1ConstantILi12EEcv7QStringEv)
    t._ZNK10QtMobility15QLatin1ConstantILi13EEcv7QStringEv 0x0002f8d2   Section       18  qdeclarativecontactdetail.o(t._ZNK10QtMobility15QLatin1ConstantILi13EEcv7QStringEv)
    t._ZNK10QtMobility15QLatin1ConstantILi14EEcv7QStringEv 0x0002f8e4   Section       18  qdeclarativecontactdetail.o(t._ZNK10QtMobility15QLatin1ConstantILi14EEcv7QStringEv)
    t._ZNK10QtMobility15QLatin1ConstantILi4EEcv7QStringEv 0x0002f8f6   Section       18  qdeclarativecontactdetail.o(t._ZNK10QtMobility15QLatin1ConstantILi4EEcv7QStringEv)
    t._ZNK10QtMobility15QLatin1ConstantILi5EEcv7QStringEv 0x0002f908   Section       18  qdeclarativecontactdetail.o(t._ZNK10QtMobility15QLatin1ConstantILi5EEcv7QStringEv)
    t._ZNK10QtMobility15QLatin1ConstantILi6EEcv7QStringEv 0x0002f91a   Section       18  moc_qdeclarativecontactphonenumber_p.o(t._ZNK10QtMobility15QLatin1ConstantILi6EEcv7QStringEv)
    t._ZNK10QtMobility15QLatin1ConstantILi7EEcv7QStringEv 0x0002f92c   Section       18  qdeclarativecontactdetail.o(t._ZNK10QtMobility15QLatin1ConstantILi7EEcv7QStringEv)
    t._ZNK10QtMobility15QLatin1ConstantILi8EEcv7QStringEv 0x0002f93e   Section       18  qdeclarativecontactdetail.o(t._ZNK10QtMobility15QLatin1ConstantILi8EEcv7QStringEv)
    t._ZNK10QtMobility15QLatin1ConstantILi9EEcv7QStringEv 0x0002f950   Section       18  qdeclarativecontactdetail.o(t._ZNK10QtMobility15QLatin1ConstantILi9EEcv7QStringEv)
    t._ZNK17QForeachContainerI5QListIN10QtMobility8QContactEEE9conditionEv 0x0002f962   Section       40  qdeclarativecontactmodel.o(t._ZNK17QForeachContainerI5QListIN10QtMobility8QContactEEE9conditionEv)
    t._ZNK17QForeachContainerI5QListIP25QDeclarativeContactDetailEE9conditionEv 0x0002f98a   Section       40  qdeclarativecontactmetaobject.o(t._ZNK17QForeachContainerI5QListIP25QDeclarativeContactDetailEE9conditionEv)
    t._ZNK17QForeachContainerI5QListIP25QDeclarativeContactFilterEE9conditionEv 0x0002f9b2   Section       40  plugin.o(t._ZNK17QForeachContainerI5QListIP25QDeclarativeContactFilterEE9conditionEv)
    t._ZNK17QForeachContainerI5QListIP28QDeclarativeContactSortOrderEE9conditionEv 0x0002f9da   Section       40  qdeclarativecontactmodel.o(t._ZNK17QForeachContainerI5QListIP28QDeclarativeContactSortOrderEE9conditionEv)
    t._ZNK17QForeachContainerI5QListIjEE9conditionEv 0x0002fa02   Section       40  qdeclarativecontactmodel.o(t._ZNK17QForeachContainerI5QListIjEE9conditionEv)
    t._ZNK4QMapI7QString6QImageE15mutableFindNodeEPPN8QMapData4NodeERKS0_ 0x0002fa2a   Section      108  qdeclarativecontactimageprovider.o(t._ZNK4QMapI7QString6QImageE15mutableFindNodeEPPN8QMapData4NodeERKS0_)
    t._ZNK4QMapI7QString6QImageE8findNodeERKS0_ 0x0002fa96   Section      104  qdeclarativecontactimageprovider.o(t._ZNK4QMapI7QString6QImageE8findNodeERKS0_)
    t._ZNK4QMapI7QString8QVariantE4keysEv    0x0002fafe   Section      104  qdeclarativecontactdetail.o(t._ZNK4QMapI7QString8QVariantE4keysEv)
    t._ZNK4QMapI7QString8QVariantE4keysEv.clean 0x0002fb66   Section       10  qdeclarativecontactdetail.o(t._ZNK4QMapI7QString8QVariantE4keysEv.clean)
    t._ZNK4QMapI7QStringN10QtMobility24QContactDetailDefinitionEE5valueERKS0_ 0x0002fb70   Section      162  qdeclarativecontactmetaobject.o(t._ZNK4QMapI7QStringN10QtMobility24QContactDetailDefinitionEE5valueERKS0_)
    t._ZNK4QMapI7QStringN10QtMobility24QContactDetailDefinitionEE7isEmptyEv 0x0002fc12   Section       18  qdeclarativecontactmetaobject.o(t._ZNK4QMapI7QStringN10QtMobility24QContactDetailDefinitionEE7isEmptyEv)
    t._ZNK4QMapI7QStringPN10QtMobility15QContactManagerEE15mutableFindNodeEPPN8QMapData4NodeERKS0_ 0x0002fc24   Section      108  qdeclarativecontactimageprovider.o(t._ZNK4QMapI7QStringPN10QtMobility15QContactManagerEE15mutableFindNodeEPPN8QMapData4NodeERKS0_)
    t._ZNK4QMapI7QStringPN10QtMobility15QContactManagerEE4keysEv 0x0002fc90   Section      116  qdeclarativecontactimageprovider.o(t._ZNK4QMapI7QStringPN10QtMobility15QContactManagerEE4keysEv)
    t._ZNK4QMapI7QStringPN10QtMobility15QContactManagerEE4keysEv.clean 0x0002fd04   Section       10  qdeclarativecontactimageprovider.o(t._ZNK4QMapI7QStringPN10QtMobility15QContactManagerEE4keysEv.clean)
    t._ZNK4QMapI7QStringPN10QtMobility15QContactManagerEE5valueERKS0_ 0x0002fd0e   Section       46  qdeclarativecontactimageprovider.o(t._ZNK4QMapI7QStringPN10QtMobility15QContactManagerEE5valueERKS0_)
    t._ZNK4QMapI7QStringPN10QtMobility15QContactManagerEE8findNodeERKS0_ 0x0002fd3c   Section      104  qdeclarativecontactimageprovider.o(t._ZNK4QMapI7QStringPN10QtMobility15QContactManagerEE8findNodeERKS0_)
    t._ZNK4QMapIiN10QtMobility15QContactManager5ErrorEE4keysEv 0x0002fda4   Section      116  qdeclarativecontactmodel.o(t._ZNK4QMapIiN10QtMobility15QContactManager5ErrorEE4keysEv)
    t._ZNK4QMapIiN10QtMobility15QContactManager5ErrorEE4keysEv.clean 0x0002fe18   Section       10  qdeclarativecontactmodel.o(t._ZNK4QMapIiN10QtMobility15QContactManager5ErrorEE4keysEv.clean)
    t._ZNK4QMapIjP19QDeclarativeContactE15mutableFindNodeEPPN8QMapData4NodeERKj 0x0002fe22   Section      108  qdeclarativecontactmodel.o(t._ZNK4QMapIjP19QDeclarativeContactE15mutableFindNodeEPPN8QMapData4NodeERKj)
    t._ZNK4QMapIjP19QDeclarativeContactE5valueERKj 0x0002fe8e   Section       46  qdeclarativecontactmodel.o(t._ZNK4QMapIjP19QDeclarativeContactE5valueERKj)
    t._ZNK4QMapIjP19QDeclarativeContactE8containsERKj 0x0002febc   Section       28  qdeclarativecontactmodel.o(t._ZNK4QMapIjP19QDeclarativeContactE8containsERKj)
    t._ZNK4QMapIjP19QDeclarativeContactE8findNodeERKj 0x0002fed8   Section      104  qdeclarativecontactmodel.o(t._ZNK4QMapIjP19QDeclarativeContactE8findNodeERKj)
    t._ZNK4QSetI7QStringEneERKS1_            0x0002ff40   Section       22  moc_qdeclarativecontactonlineaccount_p.o(t._ZNK4QSetI7QStringEneERKS1_)
    t._ZNK5QHashI7QString15QHashDummyValueE14const_iteratorneERKS3_ 0x0002ff56   Section       18  moc_qdeclarativecontactaddress_p.o(t._ZNK5QHashI7QString15QHashDummyValueE14const_iteratorneERKS3_)
    t._ZNK5QHashI7QString15QHashDummyValueE8findNodeERKS0_Pj 0x0002ff68   Section      116  moc_qdeclarativecontactaddress_p.o(t._ZNK5QHashI7QString15QHashDummyValueE8findNodeERKS0_Pj)
    t._ZNK5QHashI7QString15QHashDummyValueEeqERKS2_ 0x0002ffdc   Section      266  moc_qdeclarativecontactaddress_p.o(t._ZNK5QHashI7QString15QHashDummyValueEeqERKS2_)
    t._ZNK5QHashIi10QByteArrayE8findNodeERKiPj 0x000300e6   Section       94  qdeclarativecontactmodel.o(t._ZNK5QHashIi10QByteArrayE8findNodeERKiPj)
    t._ZNK5QHashIiP20ContactDetailNameMapE5valueERKi 0x00030144   Section       40  qdeclarativecontactmetaobject.o(t._ZNK5QHashIiP20ContactDetailNameMapE5valueERKi)
    t._ZNK5QHashIiP20ContactDetailNameMapE8findNodeERKiPj 0x0003016c   Section       94  qdeclarativecontactmetaobject.o(t._ZNK5QHashIiP20ContactDetailNameMapE8findNodeERKiPj)
    t._ZNK5QHashIj15QHashDummyValueE14const_iteratorneERKS2_ 0x000301ca   Section       18  moc_qdeclarativecontactlocalidfilter_p.o(t._ZNK5QHashIj15QHashDummyValueE14const_iteratorneERKS2_)
    t._ZNK5QHashIj15QHashDummyValueE8findNodeERKjPj 0x000301dc   Section       94  moc_qdeclarativecontactlocalidfilter_p.o(t._ZNK5QHashIj15QHashDummyValueE8findNodeERKjPj)
    t._ZNK5QHashIj15QHashDummyValueEeqERKS1_ 0x0003023a   Section      260  moc_qdeclarativecontactlocalidfilter_p.o(t._ZNK5QHashIj15QHashDummyValueEeqERKS1_)
    t._ZNK5QListI10QByteArrayE4sizeEv        0x0003033e   Section       12  qmetaobjectbuilder.o(t._ZNK5QListI10QByteArrayE4sizeEv)
    t._ZNK5QListI23QMetaEnumBuilderPrivateE4sizeEv 0x0003034a   Section       12  qmetaobjectbuilder.o(t._ZNK5QListI23QMetaEnumBuilderPrivateE4sizeEv)
    t._ZNK5QListI25QMetaMethodBuilderPrivateE4sizeEv 0x00030356   Section       12  qmetaobjectbuilder.o(t._ZNK5QListI25QMetaMethodBuilderPrivateE4sizeEv)
    t._ZNK5QListI27QMetaPropertyBuilderPrivateE4sizeEv 0x00030362   Section       12  qmetaobjectbuilder.o(t._ZNK5QListI27QMetaPropertyBuilderPrivateE4sizeEv)
    t._ZNK5QListI7QStringE5toSetEv           0x00030370   Section      204  moc_qdeclarativecontactaddress_p.o(t._ZNK5QListI7QStringE5toSetEv)
    t._ZNK5QListI7QStringE5toSetEv.clean     0x0003043c   Section       10  moc_qdeclarativecontactaddress_p.o(t._ZNK5QListI7QStringE5toSetEv.clean)
    t._ZNK5QListIN10QtMobility20QContactRelationshipEE2atEi 0x00030446   Section       22  qdeclarativecontactrelationshipmodel.o(t._ZNK5QListIN10QtMobility20QContactRelationshipEE2atEi)
    t._ZNK5QListIN10QtMobility20QContactRelationshipEE5countEv 0x0003045c   Section       12  qdeclarativecontactrelationshipmodel.o(t._ZNK5QListIN10QtMobility20QContactRelationshipEE5countEv)
    t._ZNK5QListIN10QtMobility20QContactRelationshipEE8containsERKS1_ 0x00030468   Section       72  qdeclarativecontactrelationshipmodel.o(t._ZNK5QListIN10QtMobility20QContactRelationshipEE8containsERKS1_)
    t._ZNK5QListIP19QDeclarativeContactE14const_iteratorneERKS3_ 0x000304b0   Section       18  qdeclarativecontactmodel.o(t._ZNK5QListIP19QDeclarativeContactE14const_iteratorneERKS3_)
    t._ZNK5QListIP19QDeclarativeContactE5countEv 0x000304c2   Section       12  qdeclarativecontactmodel.o(t._ZNK5QListIP19QDeclarativeContactE5countEv)
    t._ZNK5QListIP19QDeclarativeContactE5valueEi 0x000304ce   Section       40  qdeclarativecontactmodel.o(t._ZNK5QListIP19QDeclarativeContactE5valueEi)
    t._ZNK5QListIP25QDeclarativeContactDetailE4sizeEv 0x000304f6   Section       16  qdeclarativecontactmetaobject.o(t._ZNK5QListIP25QDeclarativeContactDetailE4sizeEv)
    t._ZNK5QListIP25QDeclarativeContactDetailE8containsERKS1_ 0x00030506   Section       66  qdeclarativecontact.o(t._ZNK5QListIP25QDeclarativeContactDetailE8containsERKS1_)
    t._ZNK5QListIP31QDeclarativeContactRelationshipE5countEv 0x00030548   Section       12  qdeclarativecontactrelationshipmodel.o(t._ZNK5QListIP31QDeclarativeContactRelationshipE5countEv)
    t._ZNK5QListIP31QDeclarativeContactRelationshipE5valueEi 0x00030554   Section       40  qdeclarativecontactrelationshipmodel.o(t._ZNK5QListIP31QDeclarativeContactRelationshipE5valueEi)
    t._ZNK5QListIPFRK11QMetaObjectvEE4sizeEv 0x0003057c   Section       12  qmetaobjectbuilder.o(t._ZNK5QListIPFRK11QMetaObjectvEE4sizeEv)
    t._ZNK5QListIiE8containsERKi             0x00030588   Section       66  qdeclarativecontactmodel.o(t._ZNK5QListIiE8containsERKi)
    t._ZNK5QListIjE5toSetEv                  0x000305cc   Section      204  moc_qdeclarativecontactlocalidfilter_p.o(t._ZNK5QListIjE5toSetEv)
    t._ZNK5QListIjE5toSetEv.clean            0x00030698   Section       10  moc_qdeclarativecontactlocalidfilter_p.o(t._ZNK5QListIjE5toSetEv.clean)
    t._ZNK6QFlagsIN10QtMobility14QContactDetail16AccessConstraintEE8testFlagES2_ 0x000306a2   Section       28  qdeclarativecontactdetail.o(t._ZNK6QFlagsIN10QtMobility14QContactDetail16AccessConstraintEE8testFlagES2_)
    t._ZNK8QVariant5valueI11QStringListEET_v 0x000306c0   Section      140  qdeclarativecontactdetail.o(t._ZNK8QVariant5valueI11QStringListEET_v)
    t._ZNK8QVariant5valueI11QStringListEET_v.clean 0x0003074c   Section       10  qdeclarativecontactdetail.o(t._ZNK8QVariant5valueI11QStringListEET_v.clean)
    t._ZNK8QVariant5valueI24QDeclarativeListPropertyI25QDeclarativeContactDetailEEET_v 0x00030756   Section      110  qdeclarativecontact.o(t._ZNK8QVariant5valueI24QDeclarativeListPropertyI25QDeclarativeContactDetailEEET_v)
    t._ZNK8QVariant5valueIP25QDeclarativeContactDetailEET_v 0x000307c4   Section       66  qdeclarativecontact.o(t._ZNK8QVariant5valueIP25QDeclarativeContactDetailEET_v)
    t._ZNK8QVariant5valueIiEET_v             0x00030806   Section       68  qdeclarativecontact.o(t._ZNK8QVariant5valueIiEET_v)
    t._ZlsI10QByteArrayER11QDataStreamS2_RK5QListIT_E 0x0003084a   Section       70  qmetaobjectbuilder.o(t._ZlsI10QByteArrayER11QDataStreamS2_RK5QListIT_E)
    t._ZlsIiER11QDataStreamS1_RK5QListIT_E   0x00030890   Section       74  qmetaobjectbuilder.o(t._ZlsIiER11QDataStreamS1_RK5QListIT_E)
    t._ZrsI10QByteArrayER11QDataStreamS2_R5QListIT_E 0x000308da   Section       94  qmetaobjectbuilder.o(t._ZrsI10QByteArrayER11QDataStreamS2_R5QListIT_E)
    t._ZrsI10QByteArrayER11QDataStreamS2_R5QListIT_E.clean 0x00030938   Section       10  qmetaobjectbuilder.o(t._ZrsI10QByteArrayER11QDataStreamS2_R5QListIT_E.clean)
    t._ZrsIiER11QDataStreamS1_R5QListIT_E    0x00030942   Section       74  qmetaobjectbuilder.o(t._ZrsIiER11QDataStreamS1_R5QListIT_E)
    .extab._ZN26QDeclarativeContactAddress11qt_metacallEN11QMetaObject4CallEiPPv 0x0003098c   Data           0  moc_qdeclarativecontactaddress_p.o(.ARM.extab)
    .extab._ZN5QListI7QStringE9node_copyEPNS1_4NodeES3_S3_ 0x000309d4   Data           0  moc_qdeclarativecontactaddress_p.o(.ARM.extab)
    .extab._ZN5QListI7QStringE13detach_helperEi 0x000309f8   Data           0  moc_qdeclarativecontactaddress_p.o(.ARM.extab)
    .extab._ZN5QListI8QVariantE13detach_helperEi 0x00030a14   Data           0  moc_qdeclarativecontactaddress_p.o(.ARM.extab)
    .extab._ZN5QListI7QStringE14node_constructEPNS1_4NodeERKS0_ 0x00030a58   Data           0  moc_qdeclarativecontactaddress_p.o(.ARM.extab)
    .extab._ZN5QListI7QStringE18detach_helper_growEii 0x00030a68   Data           0  moc_qdeclarativecontactaddress_p.o(.ARM.extab)
    .extab._ZN5QListI7QStringE6appendERKS0_  0x00030a98   Data           0  moc_qdeclarativecontactaddress_p.o(.ARM.extab)
    .extab._ZNK5QListI7QStringE5toSetEv      0x00030ac8   Data           0  moc_qdeclarativecontactaddress_p.o(.ARM.extab)
    .extab._ZN26QDeclarativeContactAddress11setSubTypesERK8QVariant 0x00030ad8   Data           0  moc_qdeclarativecontactaddress_p.o(.ARM.extab)
    .extab._ZN5QHashI7QString15QHashDummyValueE13duplicateNodeEPN9QHashData4NodeEPv 0x00030bd0   Data           0  moc_qdeclarativecontactaddress_p.o(.ARM.extab)
    .extab._ZN5QHashI7QString15QHashDummyValueE6insertERKS0_RKS1_ 0x00030be0   Data           0  moc_qdeclarativecontactaddress_p.o(.ARM.extab)
    .extab._ZN25QDeclarativeContactDetailD1Ev 0x00030bf0   Data           0  moc_qdeclarativecontactaddress_p.o(.ARM.extab)
    .extab._ZN26QDeclarativeContactAddress16setPostOfficeBoxERK7QString 0x00030c00   Data           0  moc_qdeclarativecontactaddress_p.o(.ARM.extab)
    .extab._ZN26QDeclarativeContactAddress10setCountryERK7QString 0x00030c18   Data           0  moc_qdeclarativecontactaddress_p.o(.ARM.extab)
    .extab._ZN26QDeclarativeContactAddress11setPostcodeERK7QString 0x00030c30   Data           0  moc_qdeclarativecontactaddress_p.o(.ARM.extab)
    .extab._ZN26QDeclarativeContactAddress9setRegionERK7QString 0x00030c48   Data           0  moc_qdeclarativecontactaddress_p.o(.ARM.extab)
    .extab._ZN26QDeclarativeContactAddress11setLocalityERK7QString 0x00030c60   Data           0  moc_qdeclarativecontactaddress_p.o(.ARM.extab)
    .extab._ZN26QDeclarativeContactAddress9setStreetERK7QString 0x00030c78   Data           0  moc_qdeclarativecontactaddress_p.o(.ARM.extab)
    .extab._ZN30QDeclarativeContactAnniversary11qt_metacallEN11QMetaObject4CallEiPPv 0x00030c90   Data           0  moc_qdeclarativecontactanniversary_p.o(.ARM.extab)
    .extab._ZN7QStringaSEPKc                 0x00030cb8   Data           0  moc_qdeclarativecontactanniversary_p.o(.ARM.extab)
    .extab._ZNK30QDeclarativeContactAnniversary7subTypeEv 0x00030cc8   Data           0  moc_qdeclarativecontactanniversary_p.o(.ARM.extab)
    .extab._ZNK30QDeclarativeContactAnniversary12originalDateEv 0x00030cf8   Data           0  moc_qdeclarativecontactanniversary_p.o(.ARM.extab)
    .extab._ZN30QDeclarativeContactAnniversary10setSubTypeENS_18AnniversarySubTypeE 0x00030d08   Data           0  moc_qdeclarativecontactanniversary_p.o(.ARM.extab)
    .extab._ZN30QDeclarativeContactAnniversary8setEventERK7QString 0x00030d28   Data           0  moc_qdeclarativecontactanniversary_p.o(.ARM.extab)
    .extab._ZN30QDeclarativeContactAnniversary19setOriginalDateTimeERK9QDateTime 0x00030d40   Data           0  moc_qdeclarativecontactanniversary_p.o(.ARM.extab)
    .extab._ZN30QDeclarativeContactAnniversary13setCalendarIdERK7QString 0x00030d58   Data           0  moc_qdeclarativecontactanniversary_p.o(.ARM.extab)
    .extab._ZNK10QtMobility14QContactDetail5valueI9QDateTimeEET_PKc 0x00030d70   Data           0  moc_qdeclarativecontactanniversary_p.o(.ARM.extab)
    .extab._ZN25QDeclarativeContactAvatar11qt_metacallEN11QMetaObject4CallEiPPv 0x00030d88   Data           0  moc_qdeclarativecontactavatar_p.o(.ARM.extab)
    .extab._ZN25QDeclarativeContactAvatar11setVideoUrlERK4QUrl 0x00030da0   Data           0  moc_qdeclarativecontactavatar_p.o(.ARM.extab)
    .extab._ZN25QDeclarativeContactAvatar11setImageUrlERK4QUrl 0x00030db8   Data           0  moc_qdeclarativecontactavatar_p.o(.ARM.extab)
    .extab._ZN27QDeclarativeContactBirthday11qt_metacallEN11QMetaObject4CallEiPPv 0x00030dd0   Data           0  moc_qdeclarativecontactbirthday_p.o(.ARM.extab)
    .extab._ZN27QDeclarativeContactBirthday11setBirthdayERK9QDateTime 0x00030de0   Data           0  moc_qdeclarativecontactbirthday_p.o(.ARM.extab)
    .extab._ZN31QDeclarativeContactDisplayLabel11qt_metacallEN11QMetaObject4CallEiPPv 0x00030df8   Data           0  moc_qdeclarativecontactdisplaylabel_p.o(.ARM.extab)
    .extab._ZN31QDeclarativeContactEmailAddress11qt_metacallEN11QMetaObject4CallEiPPv 0x00030e08   Data           0  moc_qdeclarativecontactemailaddress_p.o(.ARM.extab)
    .extab._ZN31QDeclarativeContactEmailAddress15setEmailAddressERK7QString 0x00030e18   Data           0  moc_qdeclarativecontactemailaddress_p.o(.ARM.extab)
    .extab._ZN25QDeclarativeContactFamily11qt_metacallEN11QMetaObject4CallEiPPv 0x00030e30   Data           0  moc_qdeclarativecontactfamily_p.o(.ARM.extab)
    .extab._ZN25QDeclarativeContactFamily11setChildrenERK11QStringList 0x00030e48   Data           0  moc_qdeclarativecontactfamily_p.o(.ARM.extab)
    .extab._ZN25QDeclarativeContactFamily9setSpouseERK7QString 0x00030e80   Data           0  moc_qdeclarativecontactfamily_p.o(.ARM.extab)
    .extab._ZN27QDeclarativeContactFavorite11qt_metacallEN11QMetaObject4CallEiPPv 0x00030e98   Data           0  moc_qdeclarativecontactfavorite_p.o(.ARM.extab)
    .extab._ZNK27QDeclarativeContactFavorite5indexEv 0x00030eb0   Data           0  moc_qdeclarativecontactfavorite_p.o(.ARM.extab)
    .extab._ZNK27QDeclarativeContactFavorite10isFavoriteEv 0x00030ec0   Data           0  moc_qdeclarativecontactfavorite_p.o(.ARM.extab)
    .extab._ZNK25QDeclarativeContactGender6genderEv 0x00030ed0   Data           0  moc_qdeclarativecontactgender_p.o(.ARM.extab)
    .extab._ZN25QDeclarativeContactGender9setGenderENS_10GenderTypeE 0x00030ee0   Data           0  moc_qdeclarativecontactgender_p.o(.ARM.extab)
    .extab._ZN30QDeclarativeContactGeoLocation11qt_metacallEN11QMetaObject4CallEiPPv 0x00030f08   Data           0  moc_qdeclarativecontactgeolocation_p.o(.ARM.extab)
    .extab._ZNK30QDeclarativeContactGeoLocation9timestampEv 0x00030f58   Data           0  moc_qdeclarativecontactgeolocation_p.o(.ARM.extab)
    .extab._ZNK30QDeclarativeContactGeoLocation5speedEv 0x00030f68   Data           0  moc_qdeclarativecontactgeolocation_p.o(.ARM.extab)
    .extab._ZNK30QDeclarativeContactGeoLocation7headingEv 0x00030f78   Data           0  moc_qdeclarativecontactgeolocation_p.o(.ARM.extab)
    .extab._ZNK30QDeclarativeContactGeoLocation16altitudeAccuracyEv 0x00030f88   Data           0  moc_qdeclarativecontactgeolocation_p.o(.ARM.extab)
    .extab._ZNK30QDeclarativeContactGeoLocation8altitudeEv 0x00030f98   Data           0  moc_qdeclarativecontactgeolocation_p.o(.ARM.extab)
    .extab._ZNK30QDeclarativeContactGeoLocation8accuracyEv 0x00030fa8   Data           0  moc_qdeclarativecontactgeolocation_p.o(.ARM.extab)
    .extab._ZNK30QDeclarativeContactGeoLocation9longitudeEv 0x00030fb8   Data           0  moc_qdeclarativecontactgeolocation_p.o(.ARM.extab)
    .extab._ZNK30QDeclarativeContactGeoLocation8latitudeEv 0x00030fc8   Data           0  moc_qdeclarativecontactgeolocation_p.o(.ARM.extab)
    .extab._ZN30QDeclarativeContactGeoLocation12setTimestampERK9QDateTime 0x00030fd8   Data           0  moc_qdeclarativecontactgeolocation_p.o(.ARM.extab)
    .extab._ZN30QDeclarativeContactGeoLocation8setLabelERK7QString 0x00030ff0   Data           0  moc_qdeclarativecontactgeolocation_p.o(.ARM.extab)
    .extab._ZN33QDeclarativeContactGlobalPresence11qt_metacallEN11QMetaObject4CallEiPPv 0x00031008   Data           0  moc_qdeclarativecontactglobalpresence_p.o(.ARM.extab)
    .extab._ZNK33QDeclarativeContactGlobalPresence13presenceStateEv 0x00031040   Data           0  moc_qdeclarativecontactglobalpresence_p.o(.ARM.extab)
    .extab._ZN33QDeclarativeContactGlobalPresence16setCustomMessageERK7QString 0x00031050   Data           0  moc_qdeclarativecontactglobalpresence_p.o(.ARM.extab)
    .extab._ZN33QDeclarativeContactGlobalPresence24setPresenceStateImageUrlERK4QUrl 0x00031068   Data           0  moc_qdeclarativecontactglobalpresence_p.o(.ARM.extab)
    .extab._ZN33QDeclarativeContactGlobalPresence20setPresenceStateTextERK7QString 0x00031080   Data           0  moc_qdeclarativecontactglobalpresence_p.o(.ARM.extab)
    .extab._ZN33QDeclarativeContactGlobalPresence11setNicknameERK7QString 0x00031098   Data           0  moc_qdeclarativecontactglobalpresence_p.o(.ARM.extab)
    .extab._ZN33QDeclarativeContactGlobalPresence12setTimestampERK9QDateTime 0x000310b0   Data           0  moc_qdeclarativecontactglobalpresence_p.o(.ARM.extab)
    .extab._ZNK10QtMobility14QContactDetail5valueI4QUrlEET_PKc 0x000310c8   Data           0  moc_qdeclarativecontactglobalpresence_p.o(.ARM.extab)
    .extab._ZN23QDeclarativeContactGuid11qt_metacallEN11QMetaObject4CallEiPPv 0x000310e0   Data           0  moc_qdeclarativecontactguid_p.o(.ARM.extab)
    .extab._ZN23QDeclarativeContactGuid7setGuidERK7QString 0x000310f0   Data           0  moc_qdeclarativecontactguid_p.o(.ARM.extab)
    .extab._ZN23QDeclarativeContactName11qt_metacallEN11QMetaObject4CallEiPPv 0x00031108   Data           0  moc_qdeclarativecontactname_p.o(.ARM.extab)
    .extab._ZN23QDeclarativeContactName14setCustomLabelERK7QString 0x00031140   Data           0  moc_qdeclarativecontactname_p.o(.ARM.extab)
    .extab._ZN23QDeclarativeContactName9setSuffixERK7QString 0x00031158   Data           0  moc_qdeclarativecontactname_p.o(.ARM.extab)
    .extab._ZN23QDeclarativeContactName11setLastNameERK7QString 0x00031170   Data           0  moc_qdeclarativecontactname_p.o(.ARM.extab)
    .extab._ZN23QDeclarativeContactName13setMiddleNameERK7QString 0x00031188   Data           0  moc_qdeclarativecontactname_p.o(.ARM.extab)
    .extab._ZN23QDeclarativeContactName12setFirstNameERK7QString 0x000311a0   Data           0  moc_qdeclarativecontactname_p.o(.ARM.extab)
    .extab._ZN23QDeclarativeContactName9setPrefixERK7QString 0x000311b8   Data           0  moc_qdeclarativecontactname_p.o(.ARM.extab)
    .extab._ZN27QDeclarativeContactNickname11qt_metacallEN11QMetaObject4CallEiPPv 0x000311d0   Data           0  moc_qdeclarativecontactnickname_p.o(.ARM.extab)
    .extab._ZN27QDeclarativeContactNickname11setNicknameERK7QString 0x000311e0   Data           0  moc_qdeclarativecontactnickname_p.o(.ARM.extab)
    .extab._ZN23QDeclarativeContactNote11qt_metacallEN11QMetaObject4CallEiPPv 0x000311f8   Data           0  moc_qdeclarativecontactnote_p.o(.ARM.extab)
    .extab._ZN23QDeclarativeContactNote7setNoteERK7QString 0x00031208   Data           0  moc_qdeclarativecontactnote_p.o(.ARM.extab)
    .extab._ZN32QDeclarativeContactOnlineAccount11qt_metacallEN11QMetaObject4CallEiPPv 0x00031220   Data           0  moc_qdeclarativecontactonlineaccount_p.o(.ARM.extab)
    .extab._ZN32QDeclarativeContactOnlineAccount11setSubTypesERK8QVariant 0x00031250   Data           0  moc_qdeclarativecontactonlineaccount_p.o(.ARM.extab)
    .extab._ZN32QDeclarativeContactOnlineAccount15setCapabilitiesERK11QStringList 0x00031348   Data           0  moc_qdeclarativecontactonlineaccount_p.o(.ARM.extab)
    .extab._ZN32QDeclarativeContactOnlineAccount18setServiceProviderERK7QString 0x00031380   Data           0  moc_qdeclarativecontactonlineaccount_p.o(.ARM.extab)
    .extab._ZN32QDeclarativeContactOnlineAccount13setAccountUriERK7QString 0x00031398   Data           0  moc_qdeclarativecontactonlineaccount_p.o(.ARM.extab)
    .extab._ZN31QDeclarativeContactOrganization11qt_metacallEN11QMetaObject4CallEiPPv 0x000313b0   Data           0  moc_qdeclarativecontactorganization_p.o(.ARM.extab)
    .extab._ZNK31QDeclarativeContactOrganization7logoUrlEv 0x000313f0   Data           0  moc_qdeclarativecontactorganization_p.o(.ARM.extab)
    .extab._ZN31QDeclarativeContactOrganization16setAssistantNameERK7QString 0x00031400   Data           0  moc_qdeclarativecontactorganization_p.o(.ARM.extab)
    .extab._ZN31QDeclarativeContactOrganization8setTitleERK7QString 0x00031418   Data           0  moc_qdeclarativecontactorganization_p.o(.ARM.extab)
    .extab._ZN31QDeclarativeContactOrganization7setRoleERK7QString 0x00031430   Data           0  moc_qdeclarativecontactorganization_p.o(.ARM.extab)
    .extab._ZN31QDeclarativeContactOrganization11setLocationERK7QString 0x00031448   Data           0  moc_qdeclarativecontactorganization_p.o(.ARM.extab)
    .extab._ZN31QDeclarativeContactOrganization13setDepartmentERK11QStringList 0x00031460   Data           0  moc_qdeclarativecontactorganization_p.o(.ARM.extab)
    .extab._ZN31QDeclarativeContactOrganization10setLogoUrlERK4QUrl 0x00031498   Data           0  moc_qdeclarativecontactorganization_p.o(.ARM.extab)
    .extab._ZN31QDeclarativeContactOrganization7setNameERK7QString 0x000314b0   Data           0  moc_qdeclarativecontactorganization_p.o(.ARM.extab)
    .extab._ZN30QDeclarativeContactPhoneNumber11qt_metacallEN11QMetaObject4CallEiPPv 0x000314c8   Data           0  moc_qdeclarativecontactphonenumber_p.o(.ARM.extab)
    .extab._ZN30QDeclarativeContactPhoneNumber11setSubTypesERK8QVariant 0x000314e8   Data           0  moc_qdeclarativecontactphonenumber_p.o(.ARM.extab)
    .extab._ZN30QDeclarativeContactPhoneNumber9setNumberERK7QString 0x00031670   Data           0  moc_qdeclarativecontactphonenumber_p.o(.ARM.extab)
    .extab._ZN27QDeclarativeContactPresence11qt_metacallEN11QMetaObject4CallEiPPv 0x00031688   Data           0  moc_qdeclarativecontactpresence_p.o(.ARM.extab)
    .extab._ZNK27QDeclarativeContactPresence21presenceStateImageUrlEv 0x000316c0   Data           0  moc_qdeclarativecontactpresence_p.o(.ARM.extab)
    .extab._ZNK27QDeclarativeContactPresence13presenceStateEv 0x000316d0   Data           0  moc_qdeclarativecontactpresence_p.o(.ARM.extab)
    .extab._ZN27QDeclarativeContactPresence16setCustomMessageERK7QString 0x000316e0   Data           0  moc_qdeclarativecontactpresence_p.o(.ARM.extab)
    .extab._ZN27QDeclarativeContactPresence24setPresenceStateImageUrlERK4QUrl 0x000316f8   Data           0  moc_qdeclarativecontactpresence_p.o(.ARM.extab)
    .extab._ZN27QDeclarativeContactPresence20setPresenceStateTextERK7QString 0x00031710   Data           0  moc_qdeclarativecontactpresence_p.o(.ARM.extab)
    .extab._ZN27QDeclarativeContactPresence11setNicknameERK7QString 0x00031728   Data           0  moc_qdeclarativecontactpresence_p.o(.ARM.extab)
    .extab._ZN27QDeclarativeContactPresence12setTimestampERK9QDateTime 0x00031740   Data           0  moc_qdeclarativecontactpresence_p.o(.ARM.extab)
    .extab._ZN27QDeclarativeContactRingtone11qt_metacallEN11QMetaObject4CallEiPPv 0x00031758   Data           0  moc_qdeclarativecontactringtone_p.o(.ARM.extab)
    .extab._ZNK27QDeclarativeContactRingtone20vibrationRingtoneUrlEv 0x00031778   Data           0  moc_qdeclarativecontactringtone_p.o(.ARM.extab)
    .extab._ZNK27QDeclarativeContactRingtone16videoRingtoneUrlEv 0x00031788   Data           0  moc_qdeclarativecontactringtone_p.o(.ARM.extab)
    .extab._ZNK27QDeclarativeContactRingtone16audioRingtoneUrlEv 0x00031798   Data           0  moc_qdeclarativecontactringtone_p.o(.ARM.extab)
    .extab._ZN27QDeclarativeContactRingtone23setVibrationRingtoneUrlERK4QUrl 0x000317a8   Data           0  moc_qdeclarativecontactringtone_p.o(.ARM.extab)
    .extab._ZN27QDeclarativeContactRingtone19setVideoRingtoneUrlERK4QUrl 0x000317c0   Data           0  moc_qdeclarativecontactringtone_p.o(.ARM.extab)
    .extab._ZN27QDeclarativeContactRingtone19setAudioRingtoneUrlERK4QUrl 0x000317d8   Data           0  moc_qdeclarativecontactringtone_p.o(.ARM.extab)
    .extab._ZN29QDeclarativeContactSyncTarget11qt_metacallEN11QMetaObject4CallEiPPv 0x000317f0   Data           0  moc_qdeclarativecontactsynctarget_p.o(.ARM.extab)
    .extab._ZN29QDeclarativeContactSyncTarget13setSyncTargetERK7QString 0x00031800   Data           0  moc_qdeclarativecontactsynctarget_p.o(.ARM.extab)
    .extab._ZN22QDeclarativeContactTag11qt_metacallEN11QMetaObject4CallEiPPv 0x00031818   Data           0  moc_qdeclarativecontacttag_p.o(.ARM.extab)
    .extab._ZN22QDeclarativeContactTag6setTagERK7QString 0x00031828   Data           0  moc_qdeclarativecontacttag_p.o(.ARM.extab)
    .extab._ZN28QDeclarativeContactTimestamp11qt_metacallEN11QMetaObject4CallEiPPv 0x00031840   Data           0  moc_qdeclarativecontacttimestamp_p.o(.ARM.extab)
    .extab._ZN28QDeclarativeContactTimestamp10setCreatedERK9QDateTime 0x00031858   Data           0  moc_qdeclarativecontacttimestamp_p.o(.ARM.extab)
    .extab._ZN28QDeclarativeContactTimestamp15setLastModifiedERK9QDateTime 0x00031870   Data           0  moc_qdeclarativecontacttimestamp_p.o(.ARM.extab)
    .extab._ZN22QDeclarativeContactUrl11qt_metacallEN11QMetaObject4CallEiPPv 0x00031888   Data           0  moc_qdeclarativecontacturl_p.o(.ARM.extab)
    .extab._ZN7QStringaSERK13QLatin1String   0x000318b8   Data           0  moc_qdeclarativecontacturl_p.o(.ARM.extab)
    .extab._ZN22QDeclarativeContactUrl10setSubTypeERK8QVariant 0x000318c8   Data           0  moc_qdeclarativecontacturl_p.o(.ARM.extab)
    .extab._ZN24QDeclarativeContactHobby11qt_metacallEN11QMetaObject4CallEiPPv 0x00031908   Data           0  moc_qdeclarativecontacthobby_p.o(.ARM.extab)
    .extab._ZN24QDeclarativeContactHobby8setHobbyERK7QString 0x00031918   Data           0  moc_qdeclarativecontacthobby_p.o(.ARM.extab)
    .extab._ZN31QDeclarativeContactActionFilter11qt_metacallEN11QMetaObject4CallEiPPv 0x00031930   Data           0  moc_qdeclarativecontactactionfilter_p.o(.ARM.extab)
    .extab._ZN34QDeclarativeContactChangeLogFilter11qt_metacallEN11QMetaObject4CallEiPPv 0x00031948   Data           0  moc_qdeclarativecontactchangelogfilter_p.o(.ARM.extab)
    .extab._ZN31QDeclarativeContactDetailFilter11qt_metacallEN11QMetaObject4CallEiPPv 0x00031960   Data           0  moc_qdeclarativecontactdetailfilter_p.o(.ARM.extab)
    .extab._ZN31QDeclarativeContactDetailFilter23setDetailDefinitionNameEv 0x00031988   Data           0  moc_qdeclarativecontactdetailfilter_p.o(.ARM.extab)
    .extab._ZN36QDeclarativeContactDetailRangeFilter11qt_metacallEN11QMetaObject4CallEiPPv 0x00031a08   Data           0  moc_qdeclarativecontactdetailrangefilter_p.o(.ARM.extab)
    .extab._ZN36QDeclarativeContactDetailRangeFilter23setDetailDefinitionNameEv 0x00031a50   Data           0  moc_qdeclarativecontactdetailrangefilter_p.o(.ARM.extab)
    .extab._ZN36QDeclarativeContactDetailRangeFilter13setRangeFlagsE6QFlagsINS_9RangeFlagEE 0x00031ad0   Data           0  moc_qdeclarativecontactdetailrangefilter_p.o(.ARM.extab)
    .extab._ZN32QDeclarativeContactLocalIdFilter11qt_metacallEN11QMetaObject4CallEiPPv 0x00031af0   Data           0  moc_qdeclarativecontactlocalidfilter_p.o(.ARM.extab)
    .extab._ZN5QListIjE13detach_helperEi     0x00031b00   Data           0  moc_qdeclarativecontactlocalidfilter_p.o(.ARM.extab)
    .extab._ZNK5QListIjE5toSetEv             0x00031b1c   Data           0  moc_qdeclarativecontactlocalidfilter_p.o(.ARM.extab)
    .extab._ZN5QListIjE18detach_helper_growEii 0x00031b2c   Data           0  moc_qdeclarativecontactlocalidfilter_p.o(.ARM.extab)
    .extab._ZN5QListIjE6appendERKj           0x00031b5c   Data           0  moc_qdeclarativecontactlocalidfilter_p.o(.ARM.extab)
    .extab._ZN32QDeclarativeContactLocalIdFilter6setIdsERK11QStringList 0x00031b78   Data           0  moc_qdeclarativecontactlocalidfilter_p.o(.ARM.extab)
    .extab._ZNK32QDeclarativeContactLocalIdFilter3idsEv 0x00031bd0   Data           0  moc_qdeclarativecontactlocalidfilter_p.o(.ARM.extab)
    .extab._ZNK32QDeclarativeContactInvalidFilter6filterEv 0x00031c18   Data           0  moc_qdeclarativecontactinvalidfilter_p.o(.ARM.extab)
    .extab._ZN5QListIP25QDeclarativeContactFilterE13detach_helperEi 0x00031c28   Data           0  moc_qdeclarativecontactintersectionfilter_p.o(.ARM.extab)
    .extab._ZN5QListIP25QDeclarativeContactFilterE5clearEv 0x00031c44   Data           0  moc_qdeclarativecontactintersectionfilter_p.o(.ARM.extab)
    .extab._ZN5QListIP25QDeclarativeContactFilterE18detach_helper_growEii 0x00031c54   Data           0  moc_qdeclarativecontactintersectionfilter_p.o(.ARM.extab)
    .extab._ZN5QListIP25QDeclarativeContactFilterE6appendERKS1_ 0x00031c84   Data           0  moc_qdeclarativecontactintersectionfilter_p.o(.ARM.extab)
    .extab._ZN5QListIN10QtMobility14QContactFilterEE14node_constructEPNS2_4NodeERKS1_ 0x00031ca0   Data           0  moc_qdeclarativecontactintersectionfilter_p.o(.ARM.extab)
    .extab._ZN5QListIN10QtMobility14QContactFilterEE9node_copyEPNS2_4NodeES4_S4_ 0x00031cb0   Data           0  moc_qdeclarativecontactintersectionfilter_p.o(.ARM.extab)
    .extab._ZN5QListIN10QtMobility14QContactFilterEE18detach_helper_growEii 0x00031cd4   Data           0  moc_qdeclarativecontactintersectionfilter_p.o(.ARM.extab)
    .extab._ZN5QListIN10QtMobility14QContactFilterEE6appendERKS1_ 0x00031d04   Data           0  moc_qdeclarativecontactintersectionfilter_p.o(.ARM.extab)
    .extab._ZN37QDeclarativeContactRelationshipFilter11qt_metacallEN11QMetaObject4CallEiPPv 0x00031d34   Data           0  moc_qdeclarativecontactrelationshipfilter_p.o(.ARM.extab)
    .extab._ZNK37QDeclarativeContactRelationshipFilter16relationshipTypeEv 0x00031d5c   Data           0  moc_qdeclarativecontactrelationshipfilter_p.o(.ARM.extab)
    .extab._ZN37QDeclarativeContactRelationshipFilter19setRelationshipTypeERK8QVariant 0x00031d6c   Data           0  moc_qdeclarativecontactrelationshipfilter_p.o(.ARM.extab)
    .extab._ZN24QDeclarativeContactModel11qt_metacallEN11QMetaObject4CallEiPPv 0x00031dac   Data           0  moc_qdeclarativecontactmodel_p.o(.ARM.extab)
    .extab._ZN24QDeclarativeContactModelD1Ev 0x00031ddc   Data           0  moc_qdeclarativecontactmodel_p.o(.ARM.extab)
    .extab._ZN19QDeclarativeContact11qt_metacallEN11QMetaObject4CallEiPPv 0x00031dec   Data           0  moc_qdeclarativecontact_p.o(.ARM.extab)
    .extab._ZN25QDeclarativeContactDetail11qt_metacallEN11QMetaObject4CallEiPPv 0x00031e0c   Data           0  moc_qdeclarativecontactdetail_p.o(.ARM.extab)
    .extab._ZN28QDeclarativeContactSortOrder11qt_metacallEN11QMetaObject4CallEiPPv 0x00031e44   Data           0  moc_qdeclarativecontactsortorder_p.o(.ARM.extab)
    .extab._ZN28QDeclarativeContactSortOrderD1Ev 0x00031e5c   Data           0  moc_qdeclarativecontactsortorder_p.o(.ARM.extab)
    .extab._ZN28QDeclarativeContactFetchHint11qt_metacallEN11QMetaObject4CallEiPPv 0x00031e84   Data           0  moc_qdeclarativecontactfetchhint_p.o(.ARM.extab)
    .extab._ZN28QDeclarativeContactFetchHintD1Ev 0x00031e9c   Data           0  moc_qdeclarativecontactfetchhint_p.o(.ARM.extab)
    .extab._ZN31QDeclarativeContactRelationship11qt_metacallEN11QMetaObject4CallEiPPv 0x00031eac   Data           0  moc_qdeclarativecontactrelationship_p.o(.ARM.extab)
    .extab._ZN31QDeclarativeContactRelationshipD1Ev 0x00031ebc   Data           0  moc_qdeclarativecontactrelationship_p.o(.ARM.extab)
    .extab._ZN36QDeclarativeContactRelationshipModel11qt_metacallEN11QMetaObject4CallEiPPv 0x00031ecc   Data           0  moc_qdeclarativecontactrelationshipmodel_p.o(.ARM.extab)
    .extab.__sti___16_qrc_contacts_cpp       0x00031eec   Data           0  qrc_contacts.o(.ARM.extab)
    .extab.qt_plugin_instance                0x00031efc   Data           0  plugin.o(.ARM.extab)
    .extab._ZplRK10QByteArrayPKc             0x00031f14   Data           0  plugin.o(.ARM.extab)
    .extab._ZplRK10QByteArrayc               0x00031f24   Data           0  plugin.o(.ARM.extab)
    .extab._ZplPKcRK10QByteArray             0x00031f34   Data           0  plugin.o(.ARM.extab)
    .extab._Z20qForeachContainerNewI5QListIP25QDeclarativeContactFilterEE17QForeachContainerIT_ERKS5_ 0x00031f44   Data           0  plugin.o(.ARM.extab)
    .extab._Z15qmlRegisterTypeI24QDeclarativeContactModelEiPKciiS2_ 0x00031f54   Data           0  plugin.o(.ARM.extab)
    .extab._Z15qmlRegisterTypeI19QDeclarativeContactEiPKciiS2_ 0x00031fc4   Data           0  plugin.o(.ARM.extab)
    .extab._Z15qmlRegisterTypeI28QDeclarativeContactFetchHintEiPKciiS2_ 0x00032034   Data           0  plugin.o(.ARM.extab)
    .extab._Z15qmlRegisterTypeI31QDeclarativeContactRelationshipEiPKciiS2_ 0x000320a4   Data           0  plugin.o(.ARM.extab)
    .extab._Z15qmlRegisterTypeI28QDeclarativeContactSortOrderEiPKciiS2_ 0x00032114   Data           0  plugin.o(.ARM.extab)
    .extab._Z15qmlRegisterTypeI25QDeclarativeContactDetailEiPKciiS2_ 0x00032184   Data           0  plugin.o(.ARM.extab)
    .extab._Z15qmlRegisterTypeI26QDeclarativeContactAddressEiPKciiS2_ 0x000321f4   Data           0  plugin.o(.ARM.extab)
    .extab._Z15qmlRegisterTypeI30QDeclarativeContactAnniversaryEiPKciiS2_ 0x00032264   Data           0  plugin.o(.ARM.extab)
    .extab._Z15qmlRegisterTypeI25QDeclarativeContactAvatarEiPKciiS2_ 0x000322d4   Data           0  plugin.o(.ARM.extab)
    .extab._Z15qmlRegisterTypeI27QDeclarativeContactBirthdayEiPKciiS2_ 0x00032344   Data           0  plugin.o(.ARM.extab)
    .extab._Z15qmlRegisterTypeI31QDeclarativeContactDisplayLabelEiPKciiS2_ 0x000323b4   Data           0  plugin.o(.ARM.extab)
    .extab._Z15qmlRegisterTypeI31QDeclarativeContactEmailAddressEiPKciiS2_ 0x00032424   Data           0  plugin.o(.ARM.extab)
    .extab._Z15qmlRegisterTypeI25QDeclarativeContactFamilyEiPKciiS2_ 0x00032494   Data           0  plugin.o(.ARM.extab)
    .extab._Z15qmlRegisterTypeI27QDeclarativeContactFavoriteEiPKciiS2_ 0x00032504   Data           0  plugin.o(.ARM.extab)
    .extab._Z15qmlRegisterTypeI25QDeclarativeContactGenderEiPKciiS2_ 0x00032574   Data           0  plugin.o(.ARM.extab)
    .extab._Z15qmlRegisterTypeI30QDeclarativeContactGeoLocationEiPKciiS2_ 0x000325e4   Data           0  plugin.o(.ARM.extab)
    .extab._Z15qmlRegisterTypeI33QDeclarativeContactGlobalPresenceEiPKciiS2_ 0x00032654   Data           0  plugin.o(.ARM.extab)
    .extab._Z15qmlRegisterTypeI23QDeclarativeContactGuidEiPKciiS2_ 0x000326c4   Data           0  plugin.o(.ARM.extab)
    .extab._Z15qmlRegisterTypeI23QDeclarativeContactNameEiPKciiS2_ 0x00032734   Data           0  plugin.o(.ARM.extab)
    .extab._Z15qmlRegisterTypeI27QDeclarativeContactNicknameEiPKciiS2_ 0x000327a4   Data           0  plugin.o(.ARM.extab)
    .extab._Z15qmlRegisterTypeI23QDeclarativeContactNoteEiPKciiS2_ 0x00032814   Data           0  plugin.o(.ARM.extab)
    .extab._Z15qmlRegisterTypeI32QDeclarativeContactOnlineAccountEiPKciiS2_ 0x00032884   Data           0  plugin.o(.ARM.extab)
    .extab._Z15qmlRegisterTypeI31QDeclarativeContactOrganizationEiPKciiS2_ 0x000328f4   Data           0  plugin.o(.ARM.extab)
    .extab._Z15qmlRegisterTypeI30QDeclarativeContactPhoneNumberEiPKciiS2_ 0x00032964   Data           0  plugin.o(.ARM.extab)
    .extab._Z15qmlRegisterTypeI27QDeclarativeContactPresenceEiPKciiS2_ 0x000329d4   Data           0  plugin.o(.ARM.extab)
    .extab._Z15qmlRegisterTypeI27QDeclarativeContactRingtoneEiPKciiS2_ 0x00032a44   Data           0  plugin.o(.ARM.extab)
    .extab._Z15qmlRegisterTypeI29QDeclarativeContactSyncTargetEiPKciiS2_ 0x00032ab4   Data           0  plugin.o(.ARM.extab)
    .extab._Z15qmlRegisterTypeI22QDeclarativeContactTagEiPKciiS2_ 0x00032b24   Data           0  plugin.o(.ARM.extab)
    .extab._Z15qmlRegisterTypeI28QDeclarativeContactTimestampEiPKciiS2_ 0x00032b94   Data           0  plugin.o(.ARM.extab)
    .extab._Z15qmlRegisterTypeI22QDeclarativeContactUrlEiPKciiS2_ 0x00032c04   Data           0  plugin.o(.ARM.extab)
    .extab._Z15qmlRegisterTypeI24QDeclarativeContactHobbyEiPKciiS2_ 0x00032c74   Data           0  plugin.o(.ARM.extab)
    .extab._Z15qmlRegisterTypeI25QDeclarativeContactFilterEiPKciiS2_ 0x00032ce4   Data           0  plugin.o(.ARM.extab)
    .extab._Z15qmlRegisterTypeI31QDeclarativeContactActionFilterEiPKciiS2_ 0x00032d54   Data           0  plugin.o(.ARM.extab)
    .extab._Z15qmlRegisterTypeI34QDeclarativeContactChangeLogFilterEiPKciiS2_ 0x00032dc4   Data           0  plugin.o(.ARM.extab)
    .extab._Z15qmlRegisterTypeI31QDeclarativeContactDetailFilterEiPKciiS2_ 0x00032e34   Data           0  plugin.o(.ARM.extab)
    .extab._Z15qmlRegisterTypeI36QDeclarativeContactDetailRangeFilterEiPKciiS2_ 0x00032ea4   Data           0  plugin.o(.ARM.extab)
    .extab._Z15qmlRegisterTypeI32QDeclarativeContactLocalIdFilterEiPKciiS2_ 0x00032f14   Data           0  plugin.o(.ARM.extab)
    .extab._Z15qmlRegisterTypeI37QDeclarativeContactRelationshipFilterEiPKciiS2_ 0x00032f84   Data           0  plugin.o(.ARM.extab)
    .extab._Z15qmlRegisterTypeI37QDeclarativeContactIntersectionFilterEiPKciiS2_ 0x00032ff4   Data           0  plugin.o(.ARM.extab)
    .extab._Z15qmlRegisterTypeI30QDeclarativeContactUnionFilterEiPKciiS2_ 0x00033064   Data           0  plugin.o(.ARM.extab)
    .extab._ZN25QDeclarativeContactFilterC1EP7QObject 0x000330d4   Data           0  plugin.o(.ARM.extab)
    .extab._ZN31QDeclarativeContactActionFilterD1Ev 0x000330e4   Data           0  plugin.o(.ARM.extab)
    .extab._ZN34QDeclarativeContactChangeLogFilterD1Ev 0x000330f4   Data           0  plugin.o(.ARM.extab)
    .extab._ZN31QDeclarativeContactDetailFilterD1Ev 0x00033104   Data           0  plugin.o(.ARM.extab)
    .extab._ZN36QDeclarativeContactDetailRangeFilterD1Ev 0x0003312c   Data           0  plugin.o(.ARM.extab)
    .extab._ZN32QDeclarativeContactLocalIdFilterD1Ev 0x00033154   Data           0  plugin.o(.ARM.extab)
    .extab._ZN37QDeclarativeContactRelationshipFilterD1Ev 0x00033164   Data           0  plugin.o(.ARM.extab)
    .extab._ZN17QContactQmlPlugin16initializeEngineEP18QDeclarativeEnginePKc 0x00033174   Data           0  plugin.o(.ARM.extab)
    .extab._ZN19QDeclarativePrivate19QDeclarativeElementI24QDeclarativeContactModelED1Ev 0x0003318c   Data           0  plugin.o(.ARM.extab)
    .extab._ZN19QDeclarativePrivate19QDeclarativeElementI28QDeclarativeContactSortOrderED1Ev 0x0003319c   Data           0  plugin.o(.ARM.extab)
    .extab._ZN19QDeclarativePrivate19QDeclarativeElementI31QDeclarativeContactDetailFilterED1Ev 0x000331ac   Data           0  plugin.o(.ARM.extab)
    .extab._ZN19QDeclarativePrivate19QDeclarativeElementI36QDeclarativeContactDetailRangeFilterED1Ev 0x000331bc   Data           0  plugin.o(.ARM.extab)
    .extab._ZN19QDeclarativePrivate10createIntoI24QDeclarativeContactModelEEvPv 0x000331cc   Data           0  plugin.o(.ARM.extab)
    .extab._ZN19QDeclarativePrivate10createIntoI19QDeclarativeContactEEvPv 0x000331dc   Data           0  plugin.o(.ARM.extab)
    .extab._ZN19QDeclarativePrivate10createIntoI28QDeclarativeContactFetchHintEEvPv 0x000331ec   Data           0  plugin.o(.ARM.extab)
    .extab._ZN19QDeclarativePrivate10createIntoI31QDeclarativeContactRelationshipEEvPv 0x000331fc   Data           0  plugin.o(.ARM.extab)
    .extab._ZN19QDeclarativePrivate10createIntoI28QDeclarativeContactSortOrderEEvPv 0x0003320c   Data           0  plugin.o(.ARM.extab)
    .extab._ZN19QDeclarativePrivate10createIntoI25QDeclarativeContactDetailEEvPv 0x0003321c   Data           0  plugin.o(.ARM.extab)
    .extab._ZN19QDeclarativePrivate10createIntoI26QDeclarativeContactAddressEEvPv 0x0003322c   Data           0  plugin.o(.ARM.extab)
    .extab._ZN19QDeclarativePrivate10createIntoI30QDeclarativeContactAnniversaryEEvPv 0x0003323c   Data           0  plugin.o(.ARM.extab)
    .extab._ZN19QDeclarativePrivate10createIntoI25QDeclarativeContactAvatarEEvPv 0x0003324c   Data           0  plugin.o(.ARM.extab)
    .extab._ZN19QDeclarativePrivate10createIntoI27QDeclarativeContactBirthdayEEvPv 0x0003325c   Data           0  plugin.o(.ARM.extab)
    .extab._ZN19QDeclarativePrivate10createIntoI31QDeclarativeContactDisplayLabelEEvPv 0x0003326c   Data           0  plugin.o(.ARM.extab)
    .extab._ZN19QDeclarativePrivate10createIntoI31QDeclarativeContactEmailAddressEEvPv 0x0003327c   Data           0  plugin.o(.ARM.extab)
    .extab._ZN19QDeclarativePrivate10createIntoI25QDeclarativeContactFamilyEEvPv 0x0003328c   Data           0  plugin.o(.ARM.extab)
    .extab._ZN19QDeclarativePrivate10createIntoI27QDeclarativeContactFavoriteEEvPv 0x0003329c   Data           0  plugin.o(.ARM.extab)
    .extab._ZN19QDeclarativePrivate10createIntoI25QDeclarativeContactGenderEEvPv 0x000332ac   Data           0  plugin.o(.ARM.extab)
    .extab._ZN19QDeclarativePrivate10createIntoI30QDeclarativeContactGeoLocationEEvPv 0x000332bc   Data           0  plugin.o(.ARM.extab)
    .extab._ZN19QDeclarativePrivate10createIntoI33QDeclarativeContactGlobalPresenceEEvPv 0x000332cc   Data           0  plugin.o(.ARM.extab)
    .extab._ZN19QDeclarativePrivate10createIntoI23QDeclarativeContactGuidEEvPv 0x000332dc   Data           0  plugin.o(.ARM.extab)
    .extab._ZN19QDeclarativePrivate10createIntoI23QDeclarativeContactNameEEvPv 0x000332ec   Data           0  plugin.o(.ARM.extab)
    .extab._ZN19QDeclarativePrivate10createIntoI27QDeclarativeContactNicknameEEvPv 0x000332fc   Data           0  plugin.o(.ARM.extab)
    .extab._ZN19QDeclarativePrivate10createIntoI23QDeclarativeContactNoteEEvPv 0x0003330c   Data           0  plugin.o(.ARM.extab)
    .extab._ZN19QDeclarativePrivate10createIntoI32QDeclarativeContactOnlineAccountEEvPv 0x0003331c   Data           0  plugin.o(.ARM.extab)
    .extab._ZN19QDeclarativePrivate10createIntoI31QDeclarativeContactOrganizationEEvPv 0x0003332c   Data           0  plugin.o(.ARM.extab)
    .extab._ZN19QDeclarativePrivate10createIntoI30QDeclarativeContactPhoneNumberEEvPv 0x0003333c   Data           0  plugin.o(.ARM.extab)
    .extab._ZN19QDeclarativePrivate10createIntoI27QDeclarativeContactPresenceEEvPv 0x0003334c   Data           0  plugin.o(.ARM.extab)
    .extab._ZN19QDeclarativePrivate10createIntoI27QDeclarativeContactRingtoneEEvPv 0x0003335c   Data           0  plugin.o(.ARM.extab)
    .extab._ZN19QDeclarativePrivate10createIntoI29QDeclarativeContactSyncTargetEEvPv 0x0003336c   Data           0  plugin.o(.ARM.extab)
    .extab._ZN19QDeclarativePrivate10createIntoI22QDeclarativeContactTagEEvPv 0x0003337c   Data           0  plugin.o(.ARM.extab)
    .extab._ZN19QDeclarativePrivate10createIntoI28QDeclarativeContactTimestampEEvPv 0x0003338c   Data           0  plugin.o(.ARM.extab)
    .extab._ZN19QDeclarativePrivate10createIntoI22QDeclarativeContactUrlEEvPv 0x0003339c   Data           0  plugin.o(.ARM.extab)
    .extab._ZN19QDeclarativePrivate10createIntoI24QDeclarativeContactHobbyEEvPv 0x000333ac   Data           0  plugin.o(.ARM.extab)
    .extab._ZN19QDeclarativePrivate10createIntoI25QDeclarativeContactFilterEEvPv 0x000333bc   Data           0  plugin.o(.ARM.extab)
    .extab._ZN19QDeclarativePrivate10createIntoI31QDeclarativeContactActionFilterEEvPv 0x000333cc   Data           0  plugin.o(.ARM.extab)
    .extab._ZN19QDeclarativePrivate10createIntoI34QDeclarativeContactChangeLogFilterEEvPv 0x000333ec   Data           0  plugin.o(.ARM.extab)
    .extab._ZN19QDeclarativePrivate10createIntoI31QDeclarativeContactDetailFilterEEvPv 0x0003340c   Data           0  plugin.o(.ARM.extab)
    .extab._ZN19QDeclarativePrivate10createIntoI36QDeclarativeContactDetailRangeFilterEEvPv 0x0003341c   Data           0  plugin.o(.ARM.extab)
    .extab._ZN19QDeclarativePrivate10createIntoI32QDeclarativeContactLocalIdFilterEEvPv 0x0003342c   Data           0  plugin.o(.ARM.extab)
    .extab._ZN19QDeclarativePrivate10createIntoI37QDeclarativeContactRelationshipFilterEEvPv 0x0003344c   Data           0  plugin.o(.ARM.extab)
    .extab._ZN19QDeclarativePrivate10createIntoI37QDeclarativeContactIntersectionFilterEEvPv 0x0003346c   Data           0  plugin.o(.ARM.extab)
    .extab._ZN19QDeclarativePrivate10createIntoI30QDeclarativeContactUnionFilterEEvPv 0x0003348c   Data           0  plugin.o(.ARM.extab)
    .extab._ZN26QDeclarativeContactAddressC1EP7QObject 0x000334ac   Data           0  plugin.o(.ARM.extab)
    .extab._ZN30QDeclarativeContactAnniversaryC1EP7QObject 0x000334cc   Data           0  plugin.o(.ARM.extab)
    .extab._ZN25QDeclarativeContactAvatarC1EP7QObject 0x000334ec   Data           0  plugin.o(.ARM.extab)
    .extab._ZN27QDeclarativeContactBirthdayC1EP7QObject 0x0003350c   Data           0  plugin.o(.ARM.extab)
    .extab._ZN31QDeclarativeContactDisplayLabelC1EP7QObject 0x0003352c   Data           0  plugin.o(.ARM.extab)
    .extab._ZN31QDeclarativeContactEmailAddressC1EP7QObject 0x0003354c   Data           0  plugin.o(.ARM.extab)
    .extab._ZN25QDeclarativeContactFamilyC1EP7QObject 0x0003356c   Data           0  plugin.o(.ARM.extab)
    .extab._ZN27QDeclarativeContactFavoriteC1EP7QObject 0x0003358c   Data           0  plugin.o(.ARM.extab)
    .extab._ZN25QDeclarativeContactGenderC1EP7QObject 0x000335ac   Data           0  plugin.o(.ARM.extab)
    .extab._ZN30QDeclarativeContactGeoLocationC1EP7QObject 0x000335cc   Data           0  plugin.o(.ARM.extab)
    .extab._ZN27QDeclarativeContactPresenceC1EP7QObject 0x000335ec   Data           0  plugin.o(.ARM.extab)
    .extab._ZN33QDeclarativeContactGlobalPresenceC1EP7QObject 0x0003360c   Data           0  plugin.o(.ARM.extab)
    .extab._ZN23QDeclarativeContactGuidC1EP7QObject 0x0003362c   Data           0  plugin.o(.ARM.extab)
    .extab._ZN23QDeclarativeContactNameC1EP7QObject 0x0003364c   Data           0  plugin.o(.ARM.extab)
    .extab._ZN27QDeclarativeContactNicknameC1EP7QObject 0x0003366c   Data           0  plugin.o(.ARM.extab)
    .extab._ZN23QDeclarativeContactNoteC1EP7QObject 0x0003368c   Data           0  plugin.o(.ARM.extab)
    .extab._ZN32QDeclarativeContactOnlineAccountC1EP7QObject 0x000336ac   Data           0  plugin.o(.ARM.extab)
    .extab._ZN31QDeclarativeContactOrganizationC1EP7QObject 0x000336cc   Data           0  plugin.o(.ARM.extab)
    .extab._ZN30QDeclarativeContactPhoneNumberC1EP7QObject 0x000336ec   Data           0  plugin.o(.ARM.extab)
    .extab._ZN27QDeclarativeContactRingtoneC1EP7QObject 0x0003370c   Data           0  plugin.o(.ARM.extab)
    .extab._ZN29QDeclarativeContactSyncTargetC1EP7QObject 0x0003372c   Data           0  plugin.o(.ARM.extab)
    .extab._ZN22QDeclarativeContactTagC1EP7QObject 0x0003374c   Data           0  plugin.o(.ARM.extab)
    .extab._ZN28QDeclarativeContactTimestampC1EP7QObject 0x0003376c   Data           0  plugin.o(.ARM.extab)
    .extab._ZN22QDeclarativeContactUrlC1EP7QObject 0x0003378c   Data           0  plugin.o(.ARM.extab)
    .extab._ZN24QDeclarativeContactHobbyC1EP7QObject 0x000337ac   Data           0  plugin.o(.ARM.extab)
    .extab._ZN31QDeclarativeContactDetailFilterC1EP7QObject 0x000337cc   Data           0  plugin.o(.ARM.extab)
    .extab._ZN36QDeclarativeContactDetailRangeFilterC1EP7QObject 0x000337fc   Data           0  plugin.o(.ARM.extab)
    .extab._ZNK37QDeclarativeContactIntersectionFilter6filterEv 0x0003382c   Data           0  plugin.o(.ARM.extab)
    .extab._ZNK30QDeclarativeContactUnionFilter6filterEv 0x0003386c   Data           0  plugin.o(.ARM.extab)
    .extab._ZN19QDeclarativePrivate19QDeclarativeElementI19QDeclarativeContactED1Ev 0x000338ac   Data           0  plugin.o(.ARM.extab)
    .extab._ZN19QDeclarativePrivate19QDeclarativeElementI28QDeclarativeContactFetchHintED1Ev 0x000338bc   Data           0  plugin.o(.ARM.extab)
    .extab._ZN19QDeclarativePrivate19QDeclarativeElementI31QDeclarativeContactRelationshipED1Ev 0x000338cc   Data           0  plugin.o(.ARM.extab)
    .extab._ZN19QDeclarativePrivate19QDeclarativeElementI25QDeclarativeContactDetailED1Ev 0x000338dc   Data           0  plugin.o(.ARM.extab)
    .extab._ZN19QDeclarativePrivate19QDeclarativeElementI26QDeclarativeContactAddressED1Ev 0x000338ec   Data           0  plugin.o(.ARM.extab)
    .extab._ZN19QDeclarativePrivate19QDeclarativeElementI30QDeclarativeContactAnniversaryED1Ev 0x000338fc   Data           0  plugin.o(.ARM.extab)
    .extab._ZN19QDeclarativePrivate19QDeclarativeElementI25QDeclarativeContactAvatarED1Ev 0x0003390c   Data           0  plugin.o(.ARM.extab)
    .extab._ZN19QDeclarativePrivate19QDeclarativeElementI27QDeclarativeContactBirthdayED1Ev 0x0003391c   Data           0  plugin.o(.ARM.extab)
    .extab._ZN19QDeclarativePrivate19QDeclarativeElementI31QDeclarativeContactDisplayLabelED1Ev 0x0003392c   Data           0  plugin.o(.ARM.extab)
    .extab._ZN19QDeclarativePrivate19QDeclarativeElementI31QDeclarativeContactEmailAddressED1Ev 0x0003393c   Data           0  plugin.o(.ARM.extab)
    .extab._ZN19QDeclarativePrivate19QDeclarativeElementI25QDeclarativeContactFamilyED1Ev 0x0003394c   Data           0  plugin.o(.ARM.extab)
    .extab._ZN19QDeclarativePrivate19QDeclarativeElementI27QDeclarativeContactFavoriteED1Ev 0x0003395c   Data           0  plugin.o(.ARM.extab)
    .extab._ZN19QDeclarativePrivate19QDeclarativeElementI25QDeclarativeContactGenderED1Ev 0x0003396c   Data           0  plugin.o(.ARM.extab)
    .extab._ZN19QDeclarativePrivate19QDeclarativeElementI30QDeclarativeContactGeoLocationED1Ev 0x0003397c   Data           0  plugin.o(.ARM.extab)
    .extab._ZN19QDeclarativePrivate19QDeclarativeElementI33QDeclarativeContactGlobalPresenceED1Ev 0x0003398c   Data           0  plugin.o(.ARM.extab)
    .extab._ZN19QDeclarativePrivate19QDeclarativeElementI23QDeclarativeContactGuidED1Ev 0x0003399c   Data           0  plugin.o(.ARM.extab)
    .extab._ZN19QDeclarativePrivate19QDeclarativeElementI23QDeclarativeContactNameED1Ev 0x000339ac   Data           0  plugin.o(.ARM.extab)
    .extab._ZN19QDeclarativePrivate19QDeclarativeElementI27QDeclarativeContactNicknameED1Ev 0x000339bc   Data           0  plugin.o(.ARM.extab)
    .extab._ZN19QDeclarativePrivate19QDeclarativeElementI23QDeclarativeContactNoteED1Ev 0x000339cc   Data           0  plugin.o(.ARM.extab)
    .extab._ZN19QDeclarativePrivate19QDeclarativeElementI32QDeclarativeContactOnlineAccountED1Ev 0x000339dc   Data           0  plugin.o(.ARM.extab)
    .extab._ZN19QDeclarativePrivate19QDeclarativeElementI31QDeclarativeContactOrganizationED1Ev 0x000339ec   Data           0  plugin.o(.ARM.extab)
    .extab._ZN19QDeclarativePrivate19QDeclarativeElementI30QDeclarativeContactPhoneNumberED1Ev 0x000339fc   Data           0  plugin.o(.ARM.extab)
    .extab._ZN19QDeclarativePrivate19QDeclarativeElementI27QDeclarativeContactPresenceED1Ev 0x00033a0c   Data           0  plugin.o(.ARM.extab)
    .extab._ZN19QDeclarativePrivate19QDeclarativeElementI27QDeclarativeContactRingtoneED1Ev 0x00033a1c   Data           0  plugin.o(.ARM.extab)
    .extab._ZN19QDeclarativePrivate19QDeclarativeElementI29QDeclarativeContactSyncTargetED1Ev 0x00033a2c   Data           0  plugin.o(.ARM.extab)
    .extab._ZN19QDeclarativePrivate19QDeclarativeElementI22QDeclarativeContactTagED1Ev 0x00033a3c   Data           0  plugin.o(.ARM.extab)
    .extab._ZN19QDeclarativePrivate19QDeclarativeElementI28QDeclarativeContactTimestampED1Ev 0x00033a4c   Data           0  plugin.o(.ARM.extab)
    .extab._ZN19QDeclarativePrivate19QDeclarativeElementI22QDeclarativeContactUrlED1Ev 0x00033a5c   Data           0  plugin.o(.ARM.extab)
    .extab._ZN19QDeclarativePrivate19QDeclarativeElementI24QDeclarativeContactHobbyED1Ev 0x00033a6c   Data           0  plugin.o(.ARM.extab)
    .extab._ZN19QDeclarativePrivate19QDeclarativeElementI25QDeclarativeContactFilterED1Ev 0x00033a7c   Data           0  plugin.o(.ARM.extab)
    .extab._ZN19QDeclarativePrivate19QDeclarativeElementI31QDeclarativeContactActionFilterED1Ev 0x00033a8c   Data           0  plugin.o(.ARM.extab)
    .extab._ZN19QDeclarativePrivate19QDeclarativeElementI34QDeclarativeContactChangeLogFilterED1Ev 0x00033a9c   Data           0  plugin.o(.ARM.extab)
    .extab._ZN19QDeclarativePrivate19QDeclarativeElementI32QDeclarativeContactLocalIdFilterED1Ev 0x00033aac   Data           0  plugin.o(.ARM.extab)
    .extab._ZN19QDeclarativePrivate19QDeclarativeElementI37QDeclarativeContactRelationshipFilterED1Ev 0x00033abc   Data           0  plugin.o(.ARM.extab)
    .extab._ZN19QDeclarativePrivate19QDeclarativeElementI37QDeclarativeContactIntersectionFilterED1Ev 0x00033acc   Data           0  plugin.o(.ARM.extab)
    .extab._ZN19QDeclarativePrivate19QDeclarativeElementI30QDeclarativeContactUnionFilterED1Ev 0x00033adc   Data           0  plugin.o(.ARM.extab)
    .extab._ZN37QDeclarativeContactIntersectionFilterD1Ev 0x00033aec   Data           0  plugin.o(.ARM.extab)
    .extab._ZN30QDeclarativeContactUnionFilterD1Ev 0x00033afc   Data           0  plugin.o(.ARM.extab)
    .extab._Z18urlToLocalFileNameRK4QUrl     0x00033b0c   Data           0  qdeclarativecontactmodel.o(.ARM.extab)
    .extab._ZN24QDeclarativeContactModelC1EP7QObject 0x00033b2c   Data           0  qdeclarativecontactmodel.o(.ARM.extab)
    .extab._ZN24QDeclarativeContactModel10setManagerERK7QString 0x00033b74   Data           0  qdeclarativecontactmodel.o(.ARM.extab)
    .extab._ZN24QDeclarativeContactModel17componentCompleteEv 0x00033b94   Data           0  qdeclarativecontactmodel.o(.ARM.extab)
    .extab._ZNK24QDeclarativeContactModel4dataERK11QModelIndexi 0x00033ba4   Data           0  qdeclarativecontactmodel.o(.ARM.extab)
    .extab._ZN24QDeclarativeContactModel13clearContactsEv 0x00033c3c   Data           0  qdeclarativecontactmodel.o(.ARM.extab)
    .extab._ZN24QDeclarativeContactModel15contacts_appendEP24QDeclarativeListPropertyI19QDeclarativeContactEPS1_ 0x00033c4c   Data           0  qdeclarativecontactmodel.o(.ARM.extab)
    .extab._ZN24QDeclarativeContactModel12sortOrder_atEP24QDeclarativeListPropertyI28QDeclarativeContactSortOrderEi 0x00033c6c   Data           0  qdeclarativecontactmodel.o(.ARM.extab)
    .extab._ZN24QDeclarativeContactModel14removeContactsERK5QListIjE 0x00033c7c   Data           0  qdeclarativecontactmodel.o(.ARM.extab)
    .extab._ZN24QDeclarativeContactModel13removeContactEj 0x00033c8c   Data           0  qdeclarativecontactmodel.o(.ARM.extab)
    .extab._ZN24QDeclarativeContactModel11saveContactEP19QDeclarativeContact 0x00033c9c   Data           0  qdeclarativecontactmodel.o(.ARM.extab)
    .extab._ZN24QDeclarativeContactModel14exportContactsERK4QUrlRK11QStringList 0x00033cc4   Data           0  qdeclarativecontactmodel.o(.ARM.extab)
    .extab._ZN24QDeclarativeContactModel14importContactsERK4QUrlRK11QStringList 0x00033d54   Data           0  qdeclarativecontactmodel.o(.ARM.extab)
    .extab._ZN24QDeclarativeContactModel10fetchAgainEv 0x00033d74   Data           0  qdeclarativecontactmodel.o(.ARM.extab)
    .extab._ZN24QDeclarativeContactModel14requestUpdatedEv 0x00033e04   Data           0  qdeclarativecontactmodel.o(.ARM.extab)
    .extab._ZN24QDeclarativeContactModel13contactsSavedEv 0x00033eec   Data           0  qdeclarativecontactmodel.o(.ARM.extab)
    .extab._ZN24QDeclarativeContactModel15contactsRemovedERK5QListIjE 0x00033f4c   Data           0  qdeclarativecontactmodel.o(.ARM.extab)
    .extab._ZN24QDeclarativeContactModel15contactsRemovedEv 0x00033f6c   Data           0  qdeclarativecontactmodel.o(.ARM.extab)
    .extab._ZN24QDeclarativeContactModel15contactsChangedERK5QListIjE 0x00033fac   Data           0  qdeclarativecontactmodel.o(.ARM.extab)
    .extab._ZN24QDeclarativeContactModel11startImportEN10QtMobility13QVersitReader5StateE 0x00033fcc   Data           0  qdeclarativecontactmodel.o(.ARM.extab)
    .extab._ZN5QListIP19QDeclarativeContactE13detach_helperEi 0x0003401c   Data           0  qdeclarativecontactmodel.o(.ARM.extab)
    .extab._ZN5QListIP28QDeclarativeContactSortOrderE13detach_helperEi 0x00034038   Data           0  qdeclarativecontactmodel.o(.ARM.extab)
    .extab._Z20qForeachContainerNewI5QListIP28QDeclarativeContactSortOrderEE17QForeachContainerIT_ERKS5_ 0x00034054   Data           0  qdeclarativecontactmodel.o(.ARM.extab)
    .extab._ZN5QListIN10QtMobility8QContactEE9node_copyEPNS2_4NodeES4_S4_ 0x00034064   Data           0  qdeclarativecontactmodel.o(.ARM.extab)
    .extab._ZN5QListIN10QtMobility8QContactEE13detach_helperEi 0x00034088   Data           0  qdeclarativecontactmodel.o(.ARM.extab)
    .extab._Z20qForeachContainerNewI5QListIN10QtMobility8QContactEEE17QForeachContainerIT_ERKS5_ 0x000340a4   Data           0  qdeclarativecontactmodel.o(.ARM.extab)
    .extab._Z20qForeachContainerNewI5QListIjEE17QForeachContainerIT_ERKS3_ 0x000340b4   Data           0  qdeclarativecontactmodel.o(.ARM.extab)
    .extab._ZN5QListIN10QtMobility17QContactSortOrderEE14node_constructEPNS2_4NodeERKS1_ 0x000340c4   Data           0  qdeclarativecontactmodel.o(.ARM.extab)
    .extab._ZN5QListIN10QtMobility17QContactSortOrderEE9node_copyEPNS2_4NodeES4_S4_ 0x000340d4   Data           0  qdeclarativecontactmodel.o(.ARM.extab)
    .extab._ZN5QListIN10QtMobility17QContactSortOrderEE18detach_helper_growEii 0x000340f8   Data           0  qdeclarativecontactmodel.o(.ARM.extab)
    .extab._ZN5QListIN10QtMobility17QContactSortOrderEE6appendERKS1_ 0x00034128   Data           0  qdeclarativecontactmodel.o(.ARM.extab)
    .extab._ZN4QMapIjP19QDeclarativeContactE13detach_helperEv 0x00034158   Data           0  qdeclarativecontactmodel.o(.ARM.extab)
    .extab._ZN5QListIP19QDeclarativeContactE5clearEv 0x00034174   Data           0  qdeclarativecontactmodel.o(.ARM.extab)
    .extab._ZN5QListIP28QDeclarativeContactSortOrderE18detach_helper_growEii 0x00034184   Data           0  qdeclarativecontactmodel.o(.ARM.extab)
    .extab._ZN5QListIP28QDeclarativeContactSortOrderE6appendERKS1_ 0x000341b4   Data           0  qdeclarativecontactmodel.o(.ARM.extab)
    .extab._ZN5QListIP28QDeclarativeContactSortOrderE5clearEv 0x000341d0   Data           0  qdeclarativecontactmodel.o(.ARM.extab)
    .extab._ZN5QListIN10QtMobility8QContactEE14node_constructEPNS2_4NodeERKS1_ 0x000341e0   Data           0  qdeclarativecontactmodel.o(.ARM.extab)
    .extab._ZN5QListIN10QtMobility8QContactEE18detach_helper_growEii 0x000341f0   Data           0  qdeclarativecontactmodel.o(.ARM.extab)
    .extab._ZN5QListIN10QtMobility8QContactEE6appendERKS1_ 0x00034220   Data           0  qdeclarativecontactmodel.o(.ARM.extab)
    .extab._ZN5QListIjE5clearEv              0x00034250   Data           0  qdeclarativecontactmodel.o(.ARM.extab)
    .extab._ZN5QListIP19QDeclarativeContactE18detach_helper_growEii 0x00034260   Data           0  qdeclarativecontactmodel.o(.ARM.extab)
    .extab._ZN5QListIP19QDeclarativeContactE6appendERKS1_ 0x00034290   Data           0  qdeclarativecontactmodel.o(.ARM.extab)
    .extab._ZN5QListIiE18detach_helper_growEii 0x000342ac   Data           0  qdeclarativecontactmodel.o(.ARM.extab)
    .extab._ZN5QListIiE6appendERKi           0x000342dc   Data           0  qdeclarativecontactmodel.o(.ARM.extab)
    .extab._ZN5QListIiE13detach_helperEi     0x000342f8   Data           0  qdeclarativecontactmodel.o(.ARM.extab)
    .extab._ZNK4QMapIiN10QtMobility15QContactManager5ErrorEE4keysEv 0x00034314   Data           0  qdeclarativecontactmodel.o(.ARM.extab)
    .extab._ZN5QHashIi10QByteArrayE13duplicateNodeEPN9QHashData4NodeEPv 0x00034324   Data           0  qdeclarativecontactmodel.o(.ARM.extab)
    .extab._ZN5QHashIi10QByteArrayE6insertERKiRKS0_ 0x00034334   Data           0  qdeclarativecontactmodel.o(.ARM.extab)
    .extab._ZN31QDeclarativeContactModelPrivateC1Ev 0x0003434c   Data           0  qdeclarativecontactmodel.o(.ARM.extab)
    .extab._ZN19QDeclarativeContactC1EP7QObject 0x00034384   Data           0  qdeclarativecontact.o(.ARM.extab)
    .extab._ZN19QDeclarativeContactC1ERKN10QtMobility8QContactERK4QMapI7QStringNS0_24QContactDetailDefinitionEEP7QObject 0x000343b4   Data           0  qdeclarativecontact.o(.ARM.extab)
    .extab._ZN19QDeclarativeContactD1Ev      0x000343d4   Data           0  qdeclarativecontact.o(.ARM.extab)
    .extab._ZNK19QDeclarativeContact4typeEv  0x000343e4   Data           0  qdeclarativecontact.o(.ARM.extab)
    .extab._ZN19QDeclarativeContact7setTypeENS_11ContactTypeE 0x000343f4   Data           0  qdeclarativecontact.o(.ARM.extab)
    .extab._ZNK19QDeclarativeContact7managerEv 0x0003440c   Data           0  qdeclarativecontact.o(.ARM.extab)
    .extab._ZN19QDeclarativeContact7detailsEv 0x0003441c   Data           0  qdeclarativecontact.o(.ARM.extab)
    .extab._ZN19QDeclarativeContact6detailERK8QVariant 0x0003443c   Data           0  qdeclarativecontact.o(.ARM.extab)
    .extab._ZN19QDeclarativeContact7detailsERK8QVariant 0x00034464   Data           0  qdeclarativecontact.o(.ARM.extab)
    .extab._ZN19QDeclarativeContact7addressEv 0x0003448c   Data           0  qdeclarativecontact.o(.ARM.extab)
    .extab._ZN19QDeclarativeContact11anniversaryEv 0x0003449c   Data           0  qdeclarativecontact.o(.ARM.extab)
    .extab._ZN19QDeclarativeContact6avatarEv 0x000344ac   Data           0  qdeclarativecontact.o(.ARM.extab)
    .extab._ZN19QDeclarativeContact8birthdayEv 0x000344bc   Data           0  qdeclarativecontact.o(.ARM.extab)
    .extab._ZN19QDeclarativeContact5emailEv  0x000344cc   Data           0  qdeclarativecontact.o(.ARM.extab)
    .extab._ZN19QDeclarativeContact6familyEv 0x000344dc   Data           0  qdeclarativecontact.o(.ARM.extab)
    .extab._ZN19QDeclarativeContact8favoriteEv 0x000344ec   Data           0  qdeclarativecontact.o(.ARM.extab)
    .extab._ZN19QDeclarativeContact6genderEv 0x000344fc   Data           0  qdeclarativecontact.o(.ARM.extab)
    .extab._ZN19QDeclarativeContact11geolocationEv 0x0003450c   Data           0  qdeclarativecontact.o(.ARM.extab)
    .extab._ZN19QDeclarativeContact14globalPresenceEv 0x0003451c   Data           0  qdeclarativecontact.o(.ARM.extab)
    .extab._ZN19QDeclarativeContact4guidEv   0x0003452c   Data           0  qdeclarativecontact.o(.ARM.extab)
    .extab._ZN19QDeclarativeContact4nameEv   0x0003453c   Data           0  qdeclarativecontact.o(.ARM.extab)
    .extab._ZN19QDeclarativeContact8nicknameEv 0x0003454c   Data           0  qdeclarativecontact.o(.ARM.extab)
    .extab._ZN19QDeclarativeContact4noteEv   0x0003455c   Data           0  qdeclarativecontact.o(.ARM.extab)
    .extab._ZN19QDeclarativeContact13onlineAccountEv 0x0003456c   Data           0  qdeclarativecontact.o(.ARM.extab)
    .extab._ZN19QDeclarativeContact12organizationEv 0x0003457c   Data           0  qdeclarativecontact.o(.ARM.extab)
    .extab._ZN19QDeclarativeContact11phoneNumberEv 0x0003458c   Data           0  qdeclarativecontact.o(.ARM.extab)
    .extab._ZN19QDeclarativeContact8presenceEv 0x0003459c   Data           0  qdeclarativecontact.o(.ARM.extab)
    .extab._ZN19QDeclarativeContact8ringtoneEv 0x000345ac   Data           0  qdeclarativecontact.o(.ARM.extab)
    .extab._ZN19QDeclarativeContact10syncTargetEv 0x000345bc   Data           0  qdeclarativecontact.o(.ARM.extab)
    .extab._ZN19QDeclarativeContact3tagEv    0x000345cc   Data           0  qdeclarativecontact.o(.ARM.extab)
    .extab._ZNK19QDeclarativeContact9thumbnailEv 0x000345dc   Data           0  qdeclarativecontact.o(.ARM.extab)
    .extab._ZN19QDeclarativeContact12setThumbnailERK4QUrl 0x0003463c   Data           0  qdeclarativecontact.o(.ARM.extab)
    .extab._ZN19QDeclarativeContact3urlEv    0x00034674   Data           0  qdeclarativecontact.o(.ARM.extab)
    .extab._ZN19QDeclarativeContact5hobbyEv  0x00034684   Data           0  qdeclarativecontact.o(.ARM.extab)
    .extab._ZN4QMapI7QStringN10QtMobility24QContactDetailDefinitionEE13detach_helperEv 0x00034694   Data           0  qdeclarativecontact.o(.ARM.extab)
    .extab._ZN5QListIP25QDeclarativeContactDetailE13detach_helperEi 0x000346b0   Data           0  qdeclarativecontact.o(.ARM.extab)
    .extab._ZN5QListIP25QDeclarativeContactDetailE18detach_helper_growEii 0x000346cc   Data           0  qdeclarativecontact.o(.ARM.extab)
    .extab._ZN5QListIP25QDeclarativeContactDetailE6appendERKS1_ 0x000346fc   Data           0  qdeclarativecontact.o(.ARM.extab)
    .extab._ZN4QMapI7QStringN10QtMobility24QContactDetailDefinitionEE11node_createEP8QMapDataPPNS4_4NodeERKS0_RKS2_ 0x00034718   Data           0  qdeclarativecontact.o(.ARM.extab)
    .extab._ZN25QDeclarativeContactDetailC1EP7QObject 0x00034764   Data           0  qdeclarativecontactdetail.o(.ARM.extab)
    .extab._ZN25QDeclarativeContactDetail11setContextsERK11QStringList 0x0003477c   Data           0  qdeclarativecontactdetail.o(.ARM.extab)
    .extab._ZN25QDeclarativeContactDetail12setDetailUriERK7QString 0x0003478c   Data           0  qdeclarativecontactdetail.o(.ARM.extab)
    .extab._ZN25QDeclarativeContactDetail19setLinkedDetailUrisERK11QStringList 0x0003479c   Data           0  qdeclarativecontactdetail.o(.ARM.extab)
    .extab._ZNK25QDeclarativeContactDetail10fieldNamesEv 0x000347ac   Data           0  qdeclarativecontactdetail.o(.ARM.extab)
    .extab._ZN25QDeclarativeContactDetail8setValueERK7QStringRK8QVariant 0x000347cc   Data           0  qdeclarativecontactdetail.o(.ARM.extab)
    .extab._ZN25QDeclarativeContactDetail9fieldNameENS_17ContactDetailTypeEi 0x000347dc   Data           0  qdeclarativecontactdetail.o(.ARM.extab)
    .extab._ZNK4QMapI7QString8QVariantE4keysEv 0x000348bc   Data           0  qdeclarativecontactdetail.o(.ARM.extab)
    .extab._ZNK10QtMobility14QContactDetail5valueI11QStringListEET_PKc 0x000348cc   Data           0  qdeclarativecontactdetail.o(.ARM.extab)
    .extab._ZNK8QVariant5valueI11QStringListEET_v 0x000348dc   Data           0  qdeclarativecontactdetail.o(.ARM.extab)
    .extab._ZN22QDeclarativeContactUrl22fieldNameFromFieldTypeEi 0x000348ec   Data           0  qdeclarativecontactdetail.o(.ARM.extab)
    .extab._ZN28QDeclarativeContactTimestamp22fieldNameFromFieldTypeEi 0x0003490c   Data           0  qdeclarativecontactdetail.o(.ARM.extab)
    .extab._ZN27QDeclarativeContactRingtone22fieldNameFromFieldTypeEi 0x0003492c   Data           0  qdeclarativecontactdetail.o(.ARM.extab)
    .extab._ZN27QDeclarativeContactPresence22fieldNameFromFieldTypeEi 0x0003494c   Data           0  qdeclarativecontactdetail.o(.ARM.extab)
    .extab._ZN30QDeclarativeContactPhoneNumber22fieldNameFromFieldTypeEi 0x0003496c   Data           0  qdeclarativecontactdetail.o(.ARM.extab)
    .extab._ZN31QDeclarativeContactOrganization22fieldNameFromFieldTypeEi 0x0003498c   Data           0  qdeclarativecontactdetail.o(.ARM.extab)
    .extab._ZN32QDeclarativeContactOnlineAccount22fieldNameFromFieldTypeEi 0x000349ac   Data           0  qdeclarativecontactdetail.o(.ARM.extab)
    .extab._ZN23QDeclarativeContactName22fieldNameFromFieldTypeEi 0x000349cc   Data           0  qdeclarativecontactdetail.o(.ARM.extab)
    .extab._ZN33QDeclarativeContactGlobalPresence22fieldNameFromFieldTypeEi 0x000349ec   Data           0  qdeclarativecontactdetail.o(.ARM.extab)
    .extab._ZN30QDeclarativeContactGeoLocation22fieldNameFromFieldTypeEi 0x00034a0c   Data           0  qdeclarativecontactdetail.o(.ARM.extab)
    .extab._ZN27QDeclarativeContactFavorite22fieldNameFromFieldTypeEi 0x00034a2c   Data           0  qdeclarativecontactdetail.o(.ARM.extab)
    .extab._ZN25QDeclarativeContactFamily22fieldNameFromFieldTypeEi 0x00034a4c   Data           0  qdeclarativecontactdetail.o(.ARM.extab)
    .extab._ZN25QDeclarativeContactAvatar22fieldNameFromFieldTypeEi 0x00034a6c   Data           0  qdeclarativecontactdetail.o(.ARM.extab)
    .extab._ZN30QDeclarativeContactAnniversary22fieldNameFromFieldTypeEi 0x00034a8c   Data           0  qdeclarativecontactdetail.o(.ARM.extab)
    .extab._ZN26QDeclarativeContactAddress22fieldNameFromFieldTypeEi 0x00034aac   Data           0  qdeclarativecontactdetail.o(.ARM.extab)
    .extab._ZN26QDeclarativeOpenMetaObjectC1EP7QObject 0x00034acc   Data           0  qdeclarativeopenmetaobject.o(.ARM.extab)
    .extab._ZN26QDeclarativeOpenMetaObjectD1Ev 0x00034af4   Data           0  qdeclarativeopenmetaobject.o(.ARM.extab)
    .extab._ZN26QDeclarativeOpenMetaObject14createPropertyEPKcS1_ 0x00034b04   Data           0  qdeclarativeopenmetaobject.o(.ARM.extab)
    .extab._ZN33QDeclarativeOpenMetaObjectPrivate14createPropertyERK10QByteArrayS2_ 0x00034b24   Data           0  qdeclarativeopenmetaobject.o(.ARM.extab)
    .extab._Z19buildParameterNamesRK10QByteArrayRK5QListIS_E 0x00034b64   Data           0  qmetaobjectbuilder.o(.ARM.extab)
    .extab._Z16resolveClassNameRK4QMapI10QByteArrayPK11QMetaObjectERKS0_ 0x00034b8c   Data           0  qmetaobjectbuilder.o(.ARM.extab)
    .extab._ZN18QMetaObjectBuilderC1Ev       0x00034b9c   Data           0  qmetaobjectbuilder.o(.ARM.extab)
    .extab._ZN18QMetaObjectBuilder13addEnumeratorERK10QByteArray 0x00034bac   Data           0  qmetaobjectbuilder.o(.ARM.extab)
    .extab._ZN18QMetaObjectBuilder13addEnumeratorERK9QMetaEnum 0x00034bcc   Data           0  qmetaobjectbuilder.o(.ARM.extab)
    .extab._ZN18QMetaMethodBuilder13setReturnTypeERK10QByteArray 0x00034be4   Data           0  qmetaobjectbuilder.o(.ARM.extab)
    .extab._ZN18QMetaObjectBuilder14addConstructorERK10QByteArray 0x00034bf4   Data           0  qmetaobjectbuilder.o(.ARM.extab)
    .extab._ZN18QMetaObjectBuilder7addSlotERK10QByteArray 0x00034c14   Data           0  qmetaobjectbuilder.o(.ARM.extab)
    .extab._ZN18QMetaObjectBuilder9addSignalERK10QByteArray 0x00034c34   Data           0  qmetaobjectbuilder.o(.ARM.extab)
    .extab._ZN18QMetaObjectBuilder9addMethodERK10QByteArray 0x00034c54   Data           0  qmetaobjectbuilder.o(.ARM.extab)
    .extab._ZN18QMetaObjectBuilder9addMethodERK11QMetaMethod 0x00034c74   Data           0  qmetaobjectbuilder.o(.ARM.extab)
    .extab._ZN18QMetaObjectBuilder13indexOfMethodERK10QByteArray 0x00034cb4   Data           0  qmetaobjectbuilder.o(.ARM.extab)
    .extab._ZN18QMetaObjectBuilder11addPropertyERK10QByteArrayS2_i 0x00034ccc   Data           0  qmetaobjectbuilder.o(.ARM.extab)
    .extab._ZN18QMetaObjectBuilder11addPropertyERK13QMetaProperty 0x00034cf4   Data           0  qmetaobjectbuilder.o(.ARM.extab)
    .extab._ZN18QMetaObjectBuilder14addConstructorERK11QMetaMethod 0x00034d1c   Data           0  qmetaobjectbuilder.o(.ARM.extab)
    .extab._ZN18QMetaObjectBuilder13addMetaObjectEPK11QMetaObject6QFlagsINS_9AddMemberEE 0x00034d44   Data           0  qmetaobjectbuilder.o(.ARM.extab)
    .extab._ZN18QMetaObjectBuilderC1EPK11QMetaObject6QFlagsINS_9AddMemberEE 0x00034d64   Data           0  qmetaobjectbuilder.o(.ARM.extab)
    .extab._ZN18QMetaObjectBuilder9addMethodERK10QByteArrayS2_ 0x00034d74   Data           0  qmetaobjectbuilder.o(.ARM.extab)
    .extab._ZN18QMetaObjectBuilder13indexOfSignalERK10QByteArray 0x00034d84   Data           0  qmetaobjectbuilder.o(.ARM.extab)
    .extab._ZN18QMetaObjectBuilder11indexOfSlotERK10QByteArray 0x00034d9c   Data           0  qmetaobjectbuilder.o(.ARM.extab)
    .extab._ZN18QMetaObjectBuilder18indexOfConstructorERK10QByteArray 0x00034db4   Data           0  qmetaobjectbuilder.o(.ARM.extab)
    .extab._ZNK18QMetaObjectBuilder17toRelocatableDataEPb 0x00034dcc   Data           0  qmetaobjectbuilder.o(.ARM.extab)
    .extab._ZNK18QMetaObjectBuilder9serializeER11QDataStream 0x00034ddc   Data           0  qmetaobjectbuilder.o(.ARM.extab)
    .extab._ZN18QMetaObjectBuilder11deserializeER11QDataStreamRK4QMapI10QByteArrayPK11QMetaObjectE 0x00034dfc   Data           0  qmetaobjectbuilder.o(.ARM.extab)
    .extab._ZN5QListI10QByteArrayE9node_copyEPNS1_4NodeES3_S3_ 0x00034e94   Data           0  qmetaobjectbuilder.o(.ARM.extab)
    .extab._ZN5QListI10QByteArrayE13detach_helperEi 0x00034eb8   Data           0  qmetaobjectbuilder.o(.ARM.extab)
    .extab._ZN5QListIPFRK11QMetaObjectvEE13detach_helperEi 0x00034ed4   Data           0  qmetaobjectbuilder.o(.ARM.extab)
    .extab._ZN25QMetaMethodBuilderPrivateD1Ev 0x00034ef0   Data           0  qmetaobjectbuilder.o(.ARM.extab)
    .extab._ZN25QMetaMethodBuilderPrivateC1ERKS_ 0x00034f10   Data           0  qmetaobjectbuilder.o(.ARM.extab)
    .extab._ZN5QListI25QMetaMethodBuilderPrivateE9node_copyEPNS1_4NodeES3_S3_ 0x00034f30   Data           0  qmetaobjectbuilder.o(.ARM.extab)
    .extab._ZN5QListI25QMetaMethodBuilderPrivateE13detach_helperEi 0x00034f54   Data           0  qmetaobjectbuilder.o(.ARM.extab)
    .extab._ZN23QMetaEnumBuilderPrivateD1Ev  0x00034f70   Data           0  qmetaobjectbuilder.o(.ARM.extab)
    .extab._ZN23QMetaEnumBuilderPrivateC1ERKS_ 0x00034f88   Data           0  qmetaobjectbuilder.o(.ARM.extab)
    .extab._ZN5QListI23QMetaEnumBuilderPrivateE9node_copyEPNS1_4NodeES3_S3_ 0x00034fa0   Data           0  qmetaobjectbuilder.o(.ARM.extab)
    .extab._ZN5QListI23QMetaEnumBuilderPrivateE13detach_helperEi 0x00034fc4   Data           0  qmetaobjectbuilder.o(.ARM.extab)
    .extab._ZN27QMetaPropertyBuilderPrivateC1ERKS_ 0x00034fe0   Data           0  qmetaobjectbuilder.o(.ARM.extab)
    .extab._ZN5QListI27QMetaPropertyBuilderPrivateE9node_copyEPNS1_4NodeES3_S3_ 0x00034ff0   Data           0  qmetaobjectbuilder.o(.ARM.extab)
    .extab._ZN5QListI27QMetaPropertyBuilderPrivateE13detach_helperEi 0x00035014   Data           0  qmetaobjectbuilder.o(.ARM.extab)
    .extab._ZN5QListI10QByteArrayE14node_constructEPNS1_4NodeERKS0_ 0x00035030   Data           0  qmetaobjectbuilder.o(.ARM.extab)
    .extab._ZN5QListI10QByteArrayE18detach_helper_growEii 0x00035040   Data           0  qmetaobjectbuilder.o(.ARM.extab)
    .extab._ZN5QListI10QByteArrayE6appendERKS0_ 0x00035070   Data           0  qmetaobjectbuilder.o(.ARM.extab)
    .extab._ZN5QListI10QByteArrayE5clearEv   0x000350a0   Data           0  qmetaobjectbuilder.o(.ARM.extab)
    .extab._ZrsI10QByteArrayER11QDataStreamS2_R5QListIT_E 0x000350b0   Data           0  qmetaobjectbuilder.o(.ARM.extab)
    .extab._ZN5QListIiE5clearEv              0x000350c0   Data           0  qmetaobjectbuilder.o(.ARM.extab)
    .extab._ZN25QMetaObjectBuilderPrivateC1Ev 0x000350d0   Data           0  qmetaobjectbuilder.o(.ARM.extab)
    .extab._ZN5QListIPFRK11QMetaObjectvEE18detach_helper_growEii 0x00035110   Data           0  qmetaobjectbuilder.o(.ARM.extab)
    .extab._ZN5QListIPFRK11QMetaObjectvEE6appendERKS4_ 0x00035140   Data           0  qmetaobjectbuilder.o(.ARM.extab)
    .extab._ZN5QListI23QMetaEnumBuilderPrivateE14node_constructEPNS1_4NodeERKS0_ 0x0003515c   Data           0  qmetaobjectbuilder.o(.ARM.extab)
    .extab._ZN5QListI23QMetaEnumBuilderPrivateE18detach_helper_growEii 0x0003516c   Data           0  qmetaobjectbuilder.o(.ARM.extab)
    .extab._ZN5QListI23QMetaEnumBuilderPrivateE6appendERKS0_ 0x0003519c   Data           0  qmetaobjectbuilder.o(.ARM.extab)
    .extab._ZN25QMetaMethodBuilderPrivateC1EN11QMetaMethod10MethodTypeERK10QByteArrayS4_NS0_6AccessE 0x000351cc   Data           0  qmetaobjectbuilder.o(.ARM.extab)
    .extab._ZN5QListI25QMetaMethodBuilderPrivateE14node_constructEPNS1_4NodeERKS0_ 0x00035204   Data           0  qmetaobjectbuilder.o(.ARM.extab)
    .extab._ZN5QListI25QMetaMethodBuilderPrivateE18detach_helper_growEii 0x00035214   Data           0  qmetaobjectbuilder.o(.ARM.extab)
    .extab._ZN5QListI25QMetaMethodBuilderPrivateE6appendERKS0_ 0x00035244   Data           0  qmetaobjectbuilder.o(.ARM.extab)
    .extab._ZN5QListI27QMetaPropertyBuilderPrivateE14node_constructEPNS1_4NodeERKS0_ 0x00035274   Data           0  qmetaobjectbuilder.o(.ARM.extab)
    .extab._ZN5QListI27QMetaPropertyBuilderPrivateE18detach_helper_growEii 0x00035284   Data           0  qmetaobjectbuilder.o(.ARM.extab)
    .extab._ZN5QListI27QMetaPropertyBuilderPrivateE6appendERKS0_ 0x000352b4   Data           0  qmetaobjectbuilder.o(.ARM.extab)
    .extab._ZN5QListIPFRK11QMetaObjectvEE5clearEv 0x000352e4   Data           0  qmetaobjectbuilder.o(.ARM.extab)
    .extab._ZN5QListI25QMetaMethodBuilderPrivateE5clearEv 0x000352f4   Data           0  qmetaobjectbuilder.o(.ARM.extab)
    .extab._ZN5QListI23QMetaEnumBuilderPrivateE5clearEv 0x00035304   Data           0  qmetaobjectbuilder.o(.ARM.extab)
    .extab._ZN5QListI27QMetaPropertyBuilderPrivateE5clearEv 0x00035314   Data           0  qmetaobjectbuilder.o(.ARM.extab)
    .extab._ZN27QMetaPropertyBuilderPrivateD1Ev 0x00035324   Data           0  qmetaobjectbuilder.o(.ARM.extab)
    .extab._ZN25QMetaObjectBuilderPrivateD1Ev 0x00035334   Data           0  qmetaobjectbuilder.o(.ARM.extab)
    .extab._ZN29QDeclarativeContactMetaObject19createContactDetailEN25QDeclarativeContactDetail17ContactDetailTypeEP7QObject 0x00035374   Data           0  qdeclarativecontactmetaobject.o(.ARM.extab)
    .extab._ZN29QDeclarativeContactMetaObject10setContactERKN10QtMobility8QContactE 0x00035444   Data           0  qdeclarativecontactmetaobject.o(.ARM.extab)
    .extab._ZN29QDeclarativeContactMetaObjectC1EP7QObjectRKN10QtMobility8QContactE 0x00035484   Data           0  qdeclarativecontactmetaobject.o(.ARM.extab)
    .extab._ZN29QDeclarativeContactMetaObjectD1Ev 0x000354b4   Data           0  qdeclarativecontactmetaobject.o(.ARM.extab)
    .extab._ZN29QDeclarativeContactMetaObject12detail_clearEP24QDeclarativeListPropertyI25QDeclarativeContactDetailE 0x000354dc   Data           0  qdeclarativecontactmetaobject.o(.ARM.extab)
    .extab._ZN29QDeclarativeContactMetaObject9detail_atEP24QDeclarativeListPropertyI25QDeclarativeContactDetailEi 0x000354fc   Data           0  qdeclarativecontactmetaobject.o(.ARM.extab)
    .extab._ZN29QDeclarativeContactMetaObject12detail_countEP24QDeclarativeListPropertyI25QDeclarativeContactDetailE 0x0003551c   Data           0  qdeclarativecontactmetaobject.o(.ARM.extab)
    .extab._ZN29QDeclarativeContactMetaObject13detail_appendEP24QDeclarativeListPropertyI25QDeclarativeContactDetailEPS1_ 0x0003553c   Data           0  qdeclarativecontactmetaobject.o(.ARM.extab)
    .extab._ZN29QDeclarativeContactMetaObject8getValueEiPPv 0x0003554c   Data           0  qdeclarativecontactmetaobject.o(.ARM.extab)
    .extab._ZN29QDeclarativeContactMetaObject8setValueEiPPv 0x0003556c   Data           0  qdeclarativecontactmetaobject.o(.ARM.extab)
    .extab._ZN29QDeclarativeContactMetaObject26detailMetaDataByDetailNameEPKc 0x0003557c   Data           0  qdeclarativecontactmetaobject.o(.ARM.extab)
    .extab._ZN29QDeclarativeContactMetaObject14createPropertyEPKcS1_ 0x0003559c   Data           0  qdeclarativecontactmetaobject.o(.ARM.extab)
    .extab._ZN29QDeclarativeContactMetaObject6detailEN25QDeclarativeContactDetail17ContactDetailTypeE 0x000355b4   Data           0  qdeclarativecontactmetaobject.o(.ARM.extab)
    .extab._ZN29QDeclarativeContactMetaObject30detailMetaDataByDefinitionNameEPKc 0x000355e4   Data           0  qdeclarativecontactmetaobject.o(.ARM.extab)
    .extab._ZN29QDeclarativeContactMetaObject7detailsERK7QString 0x000355f4   Data           0  qdeclarativecontactmetaobject.o(.ARM.extab)
    .extab._ZN29QDeclarativeContactMetaObject7detailsEN25QDeclarativeContactDetail17ContactDetailTypeE 0x0003560c   Data           0  qdeclarativecontactmetaobject.o(.ARM.extab)
    .extab._ZN29QDeclarativeContactMetaObject7contactEv 0x0003561c   Data           0  qdeclarativecontactmetaobject.o(.ARM.extab)
    .extab._Z20qForeachContainerNewI5QListIP25QDeclarativeContactDetailEE17QForeachContainerIT_ERKS5_ 0x0003563c   Data           0  qdeclarativecontactmetaobject.o(.ARM.extab)
    .extab._ZN5QListIN10QtMobility14QContactDetailEE13detach_helperEi 0x0003564c   Data           0  qdeclarativecontactmetaobject.o(.ARM.extab)
    .extab._ZNK7QStringeqEPKc                0x00035690   Data           0  qdeclarativecontactmetaobject.o(.ARM.extab)
    .extab._ZN5QListIP25QDeclarativeContactDetailE5clearEv 0x000356a0   Data           0  qdeclarativecontactmetaobject.o(.ARM.extab)
    .extab._ZN5QHashIiP20ContactDetailNameMapE6insertERKiRKS1_ 0x000356b0   Data           0  qdeclarativecontactmetaobject.o(.ARM.extab)
    .extab._ZN29ContactThumbnailImageProvider12requestImageERK7QStringP5QSizeRKS3_ 0x000356c0   Data           0  qdeclarativecontactimageprovider.o(.ARM.extab)
    .extab._ZN29ContactThumbnailImageProviderC1Ev 0x00035800   Data           0  qdeclarativecontactimageprovider.o(.ARM.extab)
    .extab._ZN29ContactThumbnailImageProviderD1Ev 0x00035818   Data           0  qdeclarativecontactimageprovider.o(.ARM.extab)
    .extab._ZN4QMapI7QString6QImageE11node_createEP8QMapDataPPNS3_4NodeERKS0_RKS1_ 0x00035868   Data           0  qdeclarativecontactimageprovider.o(.ARM.extab)
    .extab._ZN4QMapI7QString6QImageE13detach_helperEv 0x000358b4   Data           0  qdeclarativecontactimageprovider.o(.ARM.extab)
    .extab._ZN4QMapI7QStringPN10QtMobility15QContactManagerEE11node_createEP8QMapDataPPNS5_4NodeERKS0_RKS3_ 0x000358d0   Data           0  qdeclarativecontactimageprovider.o(.ARM.extab)
    .extab._ZN4QMapI7QStringPN10QtMobility15QContactManagerEE13detach_helperEv 0x000358f4   Data           0  qdeclarativecontactimageprovider.o(.ARM.extab)
    .extab._ZNK4QMapI7QStringPN10QtMobility15QContactManagerEE4keysEv 0x00035910   Data           0  qdeclarativecontactimageprovider.o(.ARM.extab)
    .extab._ZNK10QtMobility14QContactDetail5valueI6QImageEET_PKc 0x00035920   Data           0  qdeclarativecontactimageprovider.o(.ARM.extab)
    .extab._ZN28QDeclarativeContactSortOrderC1EP7QObject 0x00035938   Data           0  qdeclarativecontactsortorder.o(.ARM.extab)
    .extab._ZN28QDeclarativeContactSortOrder9sortOrderEv 0x00035960   Data           0  qdeclarativecontactsortorder.o(.ARM.extab)
    .extab._ZN28QDeclarativeContactSortOrder12setSortOrderERKN10QtMobility17QContactSortOrderE 0x000359e0   Data           0  qdeclarativecontactsortorder.o(.ARM.extab)
    .extab._ZN28QDeclarativeContactSortOrder17componentCompleteEv 0x00035a18   Data           0  qdeclarativecontactsortorder.o(.ARM.extab)
    .extab._ZN28QDeclarativeContactFetchHintC1EP7QObject 0x00035a28   Data           0  qdeclarativecontactfetchhint.o(.ARM.extab)
    .extab._ZN28QDeclarativeContactFetchHint24setDetailDefinitionsHintERK11QStringList 0x00035a38   Data           0  qdeclarativecontactfetchhint.o(.ARM.extab)
    .extab._ZN28QDeclarativeContactFetchHint24setRelationshipTypesHintERK11QStringList 0x00035a68   Data           0  qdeclarativecontactfetchhint.o(.ARM.extab)
    .extab._ZN31QDeclarativeContactRelationshipC1EP7QObject 0x00035a98   Data           0  qdeclarativecontactrelationship.o(.ARM.extab)
    .extab._ZNK31QDeclarativeContactRelationship5firstEv 0x00035aa8   Data           0  qdeclarativecontactrelationship.o(.ARM.extab)
    .extab._ZNK31QDeclarativeContactRelationship6secondEv 0x00035ab8   Data           0  qdeclarativecontactrelationship.o(.ARM.extab)
    .extab._ZNK31QDeclarativeContactRelationship16relationshipTypeEv 0x00035ac8   Data           0  qdeclarativecontactrelationship.o(.ARM.extab)
    .extab._ZN31QDeclarativeContactRelationship8setFirstEj 0x00035ad8   Data           0  qdeclarativecontactrelationship.o(.ARM.extab)
    .extab._ZN31QDeclarativeContactRelationship9setSecondEj 0x00035ae8   Data           0  qdeclarativecontactrelationship.o(.ARM.extab)
    .extab._ZN31QDeclarativeContactRelationship19setRelationshipTypeERK8QVariant 0x00035af8   Data           0  qdeclarativecontactrelationship.o(.ARM.extab)
    .extab._ZN6QDebugD1Ev                    0x00035b70   Data           0  qdeclarativecontactrelationship.o(.ARM.extab)
    .extab._ZN36QDeclarativeContactRelationshipModelC1EP7QObject 0x00035b94   Data           0  qdeclarativecontactrelationshipmodel.o(.ARM.extab)
    .extab._ZN36QDeclarativeContactRelationshipModelD1Ev 0x00035be4   Data           0  qdeclarativecontactrelationshipmodel.o(.ARM.extab)
    .extab._ZN36QDeclarativeContactRelationshipModel10setManagerERK7QString 0x00035c0c   Data           0  qdeclarativecontactrelationshipmodel.o(.ARM.extab)
    .extab._ZN36QDeclarativeContactRelationshipModel19setRelationshipTypeERK8QVariant 0x00035c34   Data           0  qdeclarativecontactrelationshipmodel.o(.ARM.extab)
    .extab._ZNK36QDeclarativeContactRelationshipModel4dataERK11QModelIndexi 0x00035c44   Data           0  qdeclarativecontactrelationshipmodel.o(.ARM.extab)
    .extab._ZN36QDeclarativeContactRelationshipModel18removeRelationshipEP31QDeclarativeContactRelationship 0x00035ca4   Data           0  qdeclarativecontactrelationshipmodel.o(.ARM.extab)
    .extab._ZN36QDeclarativeContactRelationshipModel15addRelationshipEP31QDeclarativeContactRelationship 0x00035cc4   Data           0  qdeclarativecontactrelationshipmodel.o(.ARM.extab)
    .extab._ZN36QDeclarativeContactRelationshipModel10fetchAgainEv 0x00035ce4   Data           0  qdeclarativecontactrelationshipmodel.o(.ARM.extab)
    .extab._ZN36QDeclarativeContactRelationshipModel14requestUpdatedEv 0x00035d2c   Data           0  qdeclarativecontactrelationshipmodel.o(.ARM.extab)
    .extab._ZN36QDeclarativeContactRelationshipModel18relationshipsSavedEv 0x00035d8c   Data           0  qdeclarativecontactrelationshipmodel.o(.ARM.extab)
    .extab._ZN36QDeclarativeContactRelationshipModel20relationshipsRemovedEv 0x00035dec   Data           0  qdeclarativecontactrelationshipmodel.o(.ARM.extab)
    .extab._ZN5QListIP31QDeclarativeContactRelationshipE13detach_helperEi 0x00035e6c   Data           0  qdeclarativecontactrelationshipmodel.o(.ARM.extab)
    .extab._ZN5QListIN10QtMobility20QContactRelationshipEE9node_copyEPNS2_4NodeES4_S4_ 0x00035e88   Data           0  qdeclarativecontactrelationshipmodel.o(.ARM.extab)
    .extab._ZN5QListIN10QtMobility20QContactRelationshipEE13detach_helperEi 0x00035eac   Data           0  qdeclarativecontactrelationshipmodel.o(.ARM.extab)
    .extab._ZN16QDeclarativeInfolsERK7QString 0x00035ec8   Data           0  qdeclarativecontactrelationshipmodel.o(.ARM.extab)
    .extab._ZN5QListIP31QDeclarativeContactRelationshipE5clearEv 0x00035ee0   Data           0  qdeclarativecontactrelationshipmodel.o(.ARM.extab)
    .extab._ZN5QListIP31QDeclarativeContactRelationshipE18detach_helper_growEii 0x00035ef0   Data           0  qdeclarativecontactrelationshipmodel.o(.ARM.extab)
    .extab._ZN5QListIP31QDeclarativeContactRelationshipE6appendERKS1_ 0x00035f20   Data           0  qdeclarativecontactrelationshipmodel.o(.ARM.extab)
    .extab._ZN5QListIN10QtMobility20QContactRelationshipEE14node_constructEPNS2_4NodeERKS1_ 0x00035f3c   Data           0  qdeclarativecontactrelationshipmodel.o(.ARM.extab)
    .extab._ZN5QListIN10QtMobility20QContactRelationshipEE18detach_helper_growEii 0x00035f4c   Data           0  qdeclarativecontactrelationshipmodel.o(.ARM.extab)
    .extab._ZN5QListIN10QtMobility20QContactRelationshipEE6appendERKS1_ 0x00035f7c   Data           0  qdeclarativecontactrelationshipmodel.o(.ARM.extab)
    .extab._ZN5QListIN10QtMobility20QContactRelationshipEE5clearEv 0x00035fac   Data           0  qdeclarativecontactrelationshipmodel.o(.ARM.extab)
    .constdata$1                             0x00035fbc   Data           0  moc_qdeclarativecontactaddress_p.o(.constdata)
    qt_meta_data_QDeclarativeContactAddress  0x00035fbc   Data         312  moc_qdeclarativecontactaddress_p.o(.constdata)
    .constdata                               0x00035fbc   Section      580  moc_qdeclarativecontactaddress_p.o(.constdata)
    qt_meta_stringdata_QDeclarativeContactAddress 0x000360f4   Data         250  moc_qdeclarativecontactaddress_p.o(.constdata)
    .constdata$1                             0x00036200   Data           0  moc_qdeclarativecontactanniversary_p.o(.constdata)
    qt_meta_data_QDeclarativeContactAnniversary 0x00036200   Data         272  moc_qdeclarativecontactanniversary_p.o(.constdata)
    .constdata                               0x00036200   Section      536  moc_qdeclarativecontactanniversary_p.o(.constdata)
    qt_meta_stringdata_QDeclarativeContactAnniversary 0x00036310   Data         248  moc_qdeclarativecontactanniversary_p.o(.constdata)
    .constdata$1                             0x00036418   Data           0  moc_qdeclarativecontactavatar_p.o(.constdata)
    qt_meta_data_QDeclarativeContactAvatar   0x00036418   Data         144  moc_qdeclarativecontactavatar_p.o(.constdata)
    .constdata                               0x00036418   Section      256  moc_qdeclarativecontactavatar_p.o(.constdata)
    qt_meta_stringdata_QDeclarativeContactAvatar 0x000364a8   Data          95  moc_qdeclarativecontactavatar_p.o(.constdata)
    .constdata$1                             0x00036518   Data           0  moc_qdeclarativecontactbirthday_p.o(.constdata)
    qt_meta_data_QDeclarativeContactBirthday 0x00036518   Data         120  moc_qdeclarativecontactbirthday_p.o(.constdata)
    .constdata                               0x00036518   Section      220  moc_qdeclarativecontactbirthday_p.o(.constdata)
    qt_meta_stringdata_QDeclarativeContactBirthday 0x00036590   Data          84  moc_qdeclarativecontactbirthday_p.o(.constdata)
    .constdata$1                             0x000365f4   Data           0  moc_qdeclarativecontactdisplaylabel_p.o(.constdata)
    qt_meta_data_QDeclarativeContactDisplayLabel 0x000365f4   Data         128  moc_qdeclarativecontactdisplaylabel_p.o(.constdata)
    .constdata                               0x000365f4   Section      240  moc_qdeclarativecontactdisplaylabel_p.o(.constdata)
    qt_meta_stringdata_QDeclarativeContactDisplayLabel 0x00036674   Data          96  moc_qdeclarativecontactdisplaylabel_p.o(.constdata)
    .constdata$1                             0x000366e4   Data           0  moc_qdeclarativecontactemailaddress_p.o(.constdata)
    qt_meta_data_QDeclarativeContactEmailAddress 0x000366e4   Data         120  moc_qdeclarativecontactemailaddress_p.o(.constdata)
    .constdata                               0x000366e4   Section      232  moc_qdeclarativecontactemailaddress_p.o(.constdata)
    qt_meta_stringdata_QDeclarativeContactEmailAddress 0x0003675c   Data          94  moc_qdeclarativecontactemailaddress_p.o(.constdata)
    .constdata$1                             0x000367cc   Data           0  moc_qdeclarativecontactfamily_p.o(.constdata)
    qt_meta_data_QDeclarativeContactFamily   0x000367cc   Data         144  moc_qdeclarativecontactfamily_p.o(.constdata)
    .constdata                               0x000367cc   Section      268  moc_qdeclarativecontactfamily_p.o(.constdata)
    qt_meta_stringdata_QDeclarativeContactFamily 0x0003685c   Data         106  moc_qdeclarativecontactfamily_p.o(.constdata)
    .constdata$1                             0x000368d8   Data           0  moc_qdeclarativecontactfavorite_p.o(.constdata)
    qt_meta_data_QDeclarativeContactFavorite 0x000368d8   Data         152  moc_qdeclarativecontactfavorite_p.o(.constdata)
    .constdata                               0x000368d8   Section      280  moc_qdeclarativecontactfavorite_p.o(.constdata)
    qt_meta_stringdata_QDeclarativeContactFavorite 0x00036970   Data         111  moc_qdeclarativecontactfavorite_p.o(.constdata)
    .constdata$1                             0x000369f0   Data           0  moc_qdeclarativecontactgender_p.o(.constdata)
    qt_meta_data_QDeclarativeContactGender   0x000369f0   Data         160  moc_qdeclarativecontactgender_p.o(.constdata)
    .constdata                               0x000369f0   Section      284  moc_qdeclarativecontactgender_p.o(.constdata)
    qt_meta_stringdata_QDeclarativeContactGender 0x00036a90   Data         107  moc_qdeclarativecontactgender_p.o(.constdata)
    .constdata$1                             0x00036b0c   Data           0  moc_qdeclarativecontactgeolocation_p.o(.constdata)
    qt_meta_data_QDeclarativeContactGeoLocation 0x00036b0c   Data         320  moc_qdeclarativecontactgeolocation_p.o(.constdata)
    .constdata                               0x00036b0c   Section      604  moc_qdeclarativecontactgeolocation_p.o(.constdata)
    qt_meta_stringdata_QDeclarativeContactGeoLocation 0x00036c4c   Data         268  moc_qdeclarativecontactgeolocation_p.o(.constdata)
    .constdata$1                             0x00036d68   Data           0  moc_qdeclarativecontactglobalpresence_p.o(.constdata)
    qt_meta_data_QDeclarativeContactGlobalPresence 0x00036d68   Data         248  moc_qdeclarativecontactglobalpresence_p.o(.constdata)
    .constdata                               0x00036d68   Section      544  moc_qdeclarativecontactglobalpresence_p.o(.constdata)
    qt_meta_stringdata_QDeclarativeContactGlobalPresence 0x00036e60   Data         264  moc_qdeclarativecontactglobalpresence_p.o(.constdata)
    qt_meta_extradata_QDeclarativeContactGlobalPresence 0x00036f68   Data           8  moc_qdeclarativecontactglobalpresence_p.o(.constdata)
    qt_meta_extradata2_QDeclarativeContactGlobalPresence 0x00036f70   Data           8  moc_qdeclarativecontactglobalpresence_p.o(.constdata)
    .constdata$1                             0x00036f88   Data           0  moc_qdeclarativecontactguid_p.o(.constdata)
    qt_meta_data_QDeclarativeContactGuid     0x00036f88   Data         128  moc_qdeclarativecontactguid_p.o(.constdata)
    .constdata                               0x00036f88   Section      232  moc_qdeclarativecontactguid_p.o(.constdata)
    qt_meta_stringdata_QDeclarativeContactGuid 0x00037008   Data          86  moc_qdeclarativecontactguid_p.o(.constdata)
    .constdata$1                             0x00037070   Data           0  moc_qdeclarativecontactname_p.o(.constdata)
    qt_meta_data_QDeclarativeContactName     0x00037070   Data         248  moc_qdeclarativecontactname_p.o(.constdata)
    .constdata                               0x00037070   Section      452  moc_qdeclarativecontactname_p.o(.constdata)
    qt_meta_stringdata_QDeclarativeContactName 0x00037168   Data         188  moc_qdeclarativecontactname_p.o(.constdata)
    .constdata$1                             0x00037234   Data           0  moc_qdeclarativecontactnickname_p.o(.constdata)
    qt_meta_data_QDeclarativeContactNickname 0x00037234   Data         128  moc_qdeclarativecontactnickname_p.o(.constdata)
    .constdata                               0x00037234   Section      244  moc_qdeclarativecontactnickname_p.o(.constdata)
    qt_meta_stringdata_QDeclarativeContactNickname 0x000372b4   Data          98  moc_qdeclarativecontactnickname_p.o(.constdata)
    .constdata$1                             0x00037328   Data           0  moc_qdeclarativecontactnote_p.o(.constdata)
    qt_meta_data_QDeclarativeContactNote     0x00037328   Data         128  moc_qdeclarativecontactnote_p.o(.constdata)
    .constdata                               0x00037328   Section      232  moc_qdeclarativecontactnote_p.o(.constdata)
    qt_meta_stringdata_QDeclarativeContactNote 0x000373a8   Data          86  moc_qdeclarativecontactnote_p.o(.constdata)
    .constdata$1                             0x00037410   Data           0  moc_qdeclarativecontactonlineaccount_p.o(.constdata)
    qt_meta_data_QDeclarativeContactOnlineAccount 0x00037410   Data         256  moc_qdeclarativecontactonlineaccount_p.o(.constdata)
    .constdata                               0x00037410   Section      536  moc_qdeclarativecontactonlineaccount_p.o(.constdata)
    qt_meta_stringdata_QDeclarativeContactOnlineAccount 0x00037510   Data         261  moc_qdeclarativecontactonlineaccount_p.o(.constdata)
    .constdata$1                             0x00037628   Data           0  moc_qdeclarativecontactorganization_p.o(.constdata)
    qt_meta_data_QDeclarativeContactOrganization 0x00037628   Data         272  moc_qdeclarativecontactorganization_p.o(.constdata)
    .constdata                               0x00037628   Section      508  moc_qdeclarativecontactorganization_p.o(.constdata)
    qt_meta_stringdata_QDeclarativeContactOrganization 0x00037738   Data         217  moc_qdeclarativecontactorganization_p.o(.constdata)
    .constdata$1                             0x00037824   Data           0  moc_qdeclarativecontactphonenumber_p.o(.constdata)
    qt_meta_data_QDeclarativeContactPhoneNumber 0x00037824   Data         272  moc_qdeclarativecontactphonenumber_p.o(.constdata)
    .constdata                               0x00037824   Section      544  moc_qdeclarativecontactphonenumber_p.o(.constdata)
    qt_meta_stringdata_QDeclarativeContactPhoneNumber 0x00037934   Data         255  moc_qdeclarativecontactphonenumber_p.o(.constdata)
    .constdata$1                             0x00037a44   Data           0  moc_qdeclarativecontactpresence_p.o(.constdata)
    qt_meta_data_QDeclarativeContactPresence 0x00037a44   Data         320  moc_qdeclarativecontactpresence_p.o(.constdata)
    .constdata                               0x00037a44   Section      624  moc_qdeclarativecontactpresence_p.o(.constdata)
    qt_meta_stringdata_QDeclarativeContactPresence 0x00037b84   Data         285  moc_qdeclarativecontactpresence_p.o(.constdata)
    .constdata$1                             0x00037cb4   Data           0  moc_qdeclarativecontactringtone_p.o(.constdata)
    qt_meta_data_QDeclarativeContactRingtone 0x00037cb4   Data         176  moc_qdeclarativecontactringtone_p.o(.constdata)
    .constdata                               0x00037cb4   Section      380  moc_qdeclarativecontactringtone_p.o(.constdata)
    qt_meta_stringdata_QDeclarativeContactRingtone 0x00037d64   Data         187  moc_qdeclarativecontactringtone_p.o(.constdata)
    .constdata$1                             0x00037e30   Data           0  moc_qdeclarativecontactsynctarget_p.o(.constdata)
    qt_meta_data_QDeclarativeContactSyncTarget 0x00037e30   Data         128  moc_qdeclarativecontactsynctarget_p.o(.constdata)
    .constdata                               0x00037e30   Section      248  moc_qdeclarativecontactsynctarget_p.o(.constdata)
    qt_meta_stringdata_QDeclarativeContactSyncTarget 0x00037eb0   Data         104  moc_qdeclarativecontactsynctarget_p.o(.constdata)
    .constdata$1                             0x00037f28   Data           0  moc_qdeclarativecontacttag_p.o(.constdata)
    qt_meta_data_QDeclarativeContactTag      0x00037f28   Data         128  moc_qdeclarativecontacttag_p.o(.constdata)
    .constdata                               0x00037f28   Section      228  moc_qdeclarativecontacttag_p.o(.constdata)
    qt_meta_stringdata_QDeclarativeContactTag 0x00037fa8   Data          83  moc_qdeclarativecontacttag_p.o(.constdata)
    .constdata$1                             0x0003800c   Data           0  moc_qdeclarativecontacttimestamp_p.o(.constdata)
    qt_meta_data_QDeclarativeContactTimestamp 0x0003800c   Data         152  moc_qdeclarativecontacttimestamp_p.o(.constdata)
    .constdata                               0x0003800c   Section      296  moc_qdeclarativecontacttimestamp_p.o(.constdata)
    qt_meta_stringdata_QDeclarativeContactTimestamp 0x000380a4   Data         125  moc_qdeclarativecontacttimestamp_p.o(.constdata)
    .constdata$1                             0x00038134   Data           0  moc_qdeclarativecontacturl_p.o(.constdata)
    qt_meta_data_QDeclarativeContactUrl      0x00038134   Data         192  moc_qdeclarativecontacturl_p.o(.constdata)
    .constdata                               0x00038134   Section      344  moc_qdeclarativecontacturl_p.o(.constdata)
    qt_meta_stringdata_QDeclarativeContactUrl 0x000381f4   Data         135  moc_qdeclarativecontacturl_p.o(.constdata)
    .constdata$1                             0x0003828c   Data           0  moc_qdeclarativecontacthobby_p.o(.constdata)
    qt_meta_data_QDeclarativeContactHobby    0x0003828c   Data         128  moc_qdeclarativecontacthobby_p.o(.constdata)
    .constdata                               0x0003828c   Section      236  moc_qdeclarativecontacthobby_p.o(.constdata)
    qt_meta_stringdata_QDeclarativeContactHobby 0x0003830c   Data          89  moc_qdeclarativecontacthobby_p.o(.constdata)
    .constdata$1                             0x00038378   Data           0  moc_qdeclarativecontactactionfilter_p.o(.constdata)
    qt_meta_data_QDeclarativeContactActionFilter 0x00038378   Data          96  moc_qdeclarativecontactactionfilter_p.o(.constdata)
    .constdata                               0x00038378   Section      180  moc_qdeclarativecontactactionfilter_p.o(.constdata)
    qt_meta_stringdata_QDeclarativeContactActionFilter 0x000383d8   Data          68  moc_qdeclarativecontactactionfilter_p.o(.constdata)
    .constdata$1                             0x0003842c   Data           0  moc_qdeclarativecontactchangelogfilter_p.o(.constdata)
    qt_meta_data_QDeclarativeContactChangeLogFilter 0x0003842c   Data         152  moc_qdeclarativecontactchangelogfilter_p.o(.constdata)
    .constdata                               0x0003842c   Section      296  moc_qdeclarativecontactchangelogfilter_p.o(.constdata)
    qt_meta_stringdata_QDeclarativeContactChangeLogFilter 0x000384c4   Data         125  moc_qdeclarativecontactchangelogfilter_p.o(.constdata)
    .constdata$1                             0x00038554   Data           0  moc_qdeclarativecontactdetailfilter_p.o(.constdata)
    qt_meta_data_QDeclarativeContactDetailFilter 0x00038554   Data         144  moc_qdeclarativecontactdetailfilter_p.o(.constdata)
    .constdata                               0x00038554   Section      260  moc_qdeclarativecontactdetailfilter_p.o(.constdata)
    qt_meta_stringdata_QDeclarativeContactDetailFilter 0x000385e4   Data          99  moc_qdeclarativecontactdetailfilter_p.o(.constdata)
    .constdata$1                             0x00038658   Data           0  moc_qdeclarativecontactdetailrangefilter_p.o(.constdata)
    qt_meta_data_QDeclarativeContactDetailRangeFilter 0x00038658   Data         224  moc_qdeclarativecontactdetailrangefilter_p.o(.constdata)
    .constdata                               0x00038658   Section      420  moc_qdeclarativecontactdetailrangefilter_p.o(.constdata)
    qt_meta_stringdata_QDeclarativeContactDetailRangeFilter 0x00038738   Data         180  moc_qdeclarativecontactdetailrangefilter_p.o(.constdata)
    .constdata$1                             0x000387fc   Data           0  moc_qdeclarativecontactlocalidfilter_p.o(.constdata)
    qt_meta_data_QDeclarativeContactLocalIdFilter 0x000387fc   Data         104  moc_qdeclarativecontactlocalidfilter_p.o(.constdata)
    .constdata                               0x000387fc   Section      204  moc_qdeclarativecontactlocalidfilter_p.o(.constdata)
    qt_meta_stringdata_QDeclarativeContactLocalIdFilter 0x00038864   Data          82  moc_qdeclarativecontactlocalidfilter_p.o(.constdata)
    .constdata$1                             0x000388c8   Data           0  moc_qdeclarativecontactinvalidfilter_p.o(.constdata)
    qt_meta_data_QDeclarativeContactInvalidFilter 0x000388c8   Data          60  moc_qdeclarativecontactinvalidfilter_p.o(.constdata)
    .constdata                               0x000388c8   Section      112  moc_qdeclarativecontactinvalidfilter_p.o(.constdata)
    qt_meta_stringdata_QDeclarativeContactInvalidFilter 0x00038904   Data          34  moc_qdeclarativecontactinvalidfilter_p.o(.constdata)
    .constdata$1                             0x00038938   Data           0  moc_qdeclarativecontactintersectionfilter_p.o(.constdata)
    qt_meta_data_QDeclarativeContactIntersectionFilter 0x00038938   Data         104  moc_qdeclarativecontactintersectionfilter_p.o(.constdata)
    .constdata                               0x00038938   Section      252  moc_qdeclarativecontactintersectionfilter_p.o(.constdata)
    qt_meta_stringdata_QDeclarativeContactIntersectionFilter 0x000389a0   Data         131  moc_qdeclarativecontactintersectionfilter_p.o(.constdata)
    .constdata$1                             0x00038a34   Data           0  moc_qdeclarativecontactrelationshipfilter_p.o(.constdata)
    qt_meta_data_QDeclarativeContactRelationshipFilter 0x00038a34   Data         128  moc_qdeclarativecontactrelationshipfilter_p.o(.constdata)
    .constdata                               0x00038a34   Section      344  moc_qdeclarativecontactrelationshipfilter_p.o(.constdata)
    qt_meta_stringdata_QDeclarativeContactRelationshipFilter 0x00038ab4   Data         183  moc_qdeclarativecontactrelationshipfilter_p.o(.constdata)
    qt_meta_extradata_QDeclarativeContactRelationshipFilter 0x00038b6c   Data           8  moc_qdeclarativecontactrelationshipfilter_p.o(.constdata)
    qt_meta_extradata2_QDeclarativeContactRelationshipFilter 0x00038b74   Data           8  moc_qdeclarativecontactrelationshipfilter_p.o(.constdata)
    .constdata$1                             0x00038b8c   Data           0  moc_qdeclarativecontactunionfilter_p.o(.constdata)
    qt_meta_data_QDeclarativeContactUnionFilter 0x00038b8c   Data         104  moc_qdeclarativecontactunionfilter_p.o(.constdata)
    .constdata                               0x00038b8c   Section      244  moc_qdeclarativecontactunionfilter_p.o(.constdata)
    qt_meta_stringdata_QDeclarativeContactUnionFilter 0x00038bf4   Data         124  moc_qdeclarativecontactunionfilter_p.o(.constdata)
    .constdata$1                             0x00038c80   Data           0  moc_qdeclarativecontactmodel_p.o(.constdata)
    qt_meta_data_QDeclarativeContactModel    0x00038c80   Data         728  moc_qdeclarativecontactmodel_p.o(.constdata)
    .constdata                               0x00038c80   Section     1728  moc_qdeclarativecontactmodel_p.o(.constdata)
    qt_meta_stringdata_QDeclarativeContactModel 0x00038f58   Data         981  moc_qdeclarativecontactmodel_p.o(.constdata)
    .constdata$1                             0x00039340   Data           0  moc_qdeclarativecontact_p.o(.constdata)
    qt_meta_data_QDeclarativeContact         0x00039340   Data         780  moc_qdeclarativecontact_p.o(.constdata)
    .constdata                               0x00039340   Section     2112  moc_qdeclarativecontact_p.o(.constdata)
    qt_meta_stringdata_QDeclarativeContact   0x0003964c   Data        1313  moc_qdeclarativecontact_p.o(.constdata)
    .constdata$1                             0x00039b80   Data           0  moc_qdeclarativecontactdetail_p.o(.constdata)
    qt_meta_data_QDeclarativeContactDetail   0x00039b80   Data         472  moc_qdeclarativecontactdetail_p.o(.constdata)
    .constdata                               0x00039b80   Section      960  moc_qdeclarativecontactdetail_p.o(.constdata)
    qt_meta_stringdata_QDeclarativeContactDetail 0x00039d58   Data         469  moc_qdeclarativecontactdetail_p.o(.constdata)
    .constdata$1                             0x00039f40   Data           0  moc_qdeclarativecontactfilter_p.o(.constdata)
    qt_meta_data_QDeclarativeContactFilter   0x00039f40   Data         256  moc_qdeclarativecontactfilter_p.o(.constdata)
    .constdata                               0x00039f40   Section      616  moc_qdeclarativecontactfilter_p.o(.constdata)
    qt_meta_stringdata_QDeclarativeContactFilter 0x0003a040   Data         344  moc_qdeclarativecontactfilter_p.o(.constdata)
    .constdata$1                             0x0003a1a8   Data           0  moc_qdeclarativecontactsortorder_p.o(.constdata)
    qt_meta_data_QDeclarativeContactSortOrder 0x0003a1a8   Data         192  moc_qdeclarativecontactsortorder_p.o(.constdata)
    .constdata                               0x0003a1a8   Section      388  moc_qdeclarativecontactsortorder_p.o(.constdata)
    qt_meta_stringdata_QDeclarativeContactSortOrder 0x0003a268   Data         179  moc_qdeclarativecontactsortorder_p.o(.constdata)
    .constdata$1                             0x0003a32c   Data           0  moc_qdeclarativecontactfetchhint_p.o(.constdata)
    qt_meta_data_QDeclarativeContactFetchHint 0x0003a32c   Data         208  moc_qdeclarativecontactfetchhint_p.o(.constdata)
    .constdata                               0x0003a32c   Section      456  moc_qdeclarativecontactfetchhint_p.o(.constdata)
    qt_meta_stringdata_QDeclarativeContactFetchHint 0x0003a3fc   Data         231  moc_qdeclarativecontactfetchhint_p.o(.constdata)
    .constdata$1                             0x0003a4f4   Data           0  moc_qdeclarativecontactrelationship_p.o(.constdata)
    qt_meta_data_QDeclarativeContactRelationship 0x0003a4f4   Data         240  moc_qdeclarativecontactrelationship_p.o(.constdata)
    .constdata                               0x0003a4f4   Section      476  moc_qdeclarativecontactrelationship_p.o(.constdata)
    qt_meta_stringdata_QDeclarativeContactRelationship 0x0003a5e4   Data         218  moc_qdeclarativecontactrelationship_p.o(.constdata)
    .constdata$1                             0x0003a6d0   Data           0  moc_qdeclarativecontactrelationshipmodel_p.o(.constdata)
    qt_meta_data_QDeclarativeContactRelationshipModel 0x0003a6d0   Data         412  moc_qdeclarativecontactrelationshipmodel_p.o(.constdata)
    .constdata                               0x0003a6d0   Section     1008  moc_qdeclarativecontactrelationshipmodel_p.o(.constdata)
    qt_meta_stringdata_QDeclarativeContactRelationshipModel 0x0003a86c   Data         564  moc_qdeclarativecontactrelationshipmodel_p.o(.constdata)
    qt_meta_extradata_QDeclarativeContactRelationshipModel 0x0003aaa0   Data           8  moc_qdeclarativecontactrelationshipmodel_p.o(.constdata)
    qt_meta_extradata2_QDeclarativeContactRelationshipModel 0x0003aaa8   Data           8  moc_qdeclarativecontactrelationshipmodel_p.o(.constdata)
    .constdata$1                             0x0003aac0   Data           0  qrc_contacts.o(.constdata)
    qt_resource_data                         0x0003aac0   Data        4733  qrc_contacts.o(.constdata)
    .constdata                               0x0003aac0   Section     4789  qrc_contacts.o(.constdata)
    qt_resource_name                         0x0003bd3d   Data          28  qrc_contacts.o(.constdata)
    qt_resource_struct                       0x0003bd59   Data          28  qrc_contacts.o(.constdata)
    .constdata$1                             0x0003bd78   Data           0  plugin.o(.constdata)
    qt_meta_data_QContactQmlPlugin           0x0003bd78   Data          60  plugin.o(.constdata)
    .constdata                               0x0003bd78   Section      188  plugin.o(.constdata)
    qt_meta_stringdata_QContactQmlPlugin     0x0003bdb4   Data          19  plugin.o(.constdata)
    qt_plugin_verification_data              0x0003bdc7   Data          91  plugin.o(.constdata)
    .constdata__ZN9stlp_priv15_Integer_limitsIaLan128ELa127ELin1ELb1EE6digitsE 0x0003be34   Section        4  moc_qdeclarativecontactaddress_p.o(.constdata__ZN9stlp_priv15_Integer_limitsIaLan128ELa127ELin1ELb1EE6digitsE)
    .constdata__ZN9stlp_priv15_Integer_limitsIbLb0ELb1ELi1ELb0EE6digitsE 0x0003be38   Section        4  moc_qdeclarativecontactaddress_p.o(.constdata__ZN9stlp_priv15_Integer_limitsIbLb0ELb1ELi1ELb0EE6digitsE)
    .constdata__ZN9stlp_priv15_Integer_limitsIcLc128ELc127ELin1ELb1EE6digitsE 0x0003be3c   Section        4  moc_qdeclarativecontactaddress_p.o(.constdata__ZN9stlp_priv15_Integer_limitsIcLc128ELc127ELin1ELb1EE6digitsE)
    .constdata__ZN9stlp_priv15_Integer_limitsIhLh0ELh255ELin1ELb1EE6digitsE 0x0003be40   Section        4  moc_qdeclarativecontactaddress_p.o(.constdata__ZN9stlp_priv15_Integer_limitsIhLh0ELh255ELin1ELb1EE6digitsE)
    .constdata__ZN9stlp_priv15_Integer_limitsIiLin2147483648ELi2147483647ELin1ELb1EE6digitsE 0x0003be44   Section        4  moc_qdeclarativecontactaddress_p.o(.constdata__ZN9stlp_priv15_Integer_limitsIiLin2147483648ELi2147483647ELin1ELb1EE6digitsE)
    .constdata__ZN9stlp_priv15_Integer_limitsIiLin2147483648ELi2147483647ELin1ELb1EE9is_signedE 0x0003be48   Section        1  moc_qdeclarativecontactaddress_p.o(.constdata__ZN9stlp_priv15_Integer_limitsIiLin2147483648ELi2147483647ELin1ELb1EE9is_signedE)
    .constdata__ZN9stlp_priv15_Integer_limitsIjLj0ELj4294967295ELin1ELb1EE6digitsE 0x0003be4c   Section        4  moc_qdeclarativecontactaddress_p.o(.constdata__ZN9stlp_priv15_Integer_limitsIjLj0ELj4294967295ELin1ELb1EE6digitsE)
    .constdata__ZN9stlp_priv15_Integer_limitsIlLln2147483648ELl2147483647ELin1ELb1EE6digitsE 0x0003be50   Section        4  moc_qdeclarativecontactaddress_p.o(.constdata__ZN9stlp_priv15_Integer_limitsIlLln2147483648ELl2147483647ELin1ELb1EE6digitsE)
    .constdata__ZN9stlp_priv15_Integer_limitsImLm0ELm4294967295ELin1ELb1EE6digitsE 0x0003be54   Section        4  moc_qdeclarativecontactaddress_p.o(.constdata__ZN9stlp_priv15_Integer_limitsImLm0ELm4294967295ELin1ELb1EE6digitsE)
    .constdata__ZN9stlp_priv15_Integer_limitsIsLsn32768ELs32767ELin1ELb1EE6digitsE 0x0003be58   Section        4  moc_qdeclarativecontactaddress_p.o(.constdata__ZN9stlp_priv15_Integer_limitsIsLsn32768ELs32767ELin1ELb1EE6digitsE)
    .constdata__ZN9stlp_priv15_Integer_limitsItLt0ELt65535ELin1ELb1EE6digitsE 0x0003be5c   Section        4  moc_qdeclarativecontactaddress_p.o(.constdata__ZN9stlp_priv15_Integer_limitsItLt0ELt65535ELin1ELb1EE6digitsE)
    .constdata__ZN9stlp_priv15_Integer_limitsIwLw0ELw65535ELin1ELb1EE6digitsE 0x0003be60   Section        4  moc_qdeclarativecontactaddress_p.o(.constdata__ZN9stlp_priv15_Integer_limitsIwLw0ELw65535ELin1ELb1EE6digitsE)
    .constdata__ZN9stlp_priv15_Integer_limitsIxLxn9223372036854775808ELx9223372036854775807ELin1ELb1EE6digitsE 0x0003be64   Section        4  moc_qdeclarativecontactaddress_p.o(.constdata__ZN9stlp_priv15_Integer_limitsIxLxn9223372036854775808ELx9223372036854775807ELin1ELb1EE6digitsE)
    .constdata__ZN9stlp_priv15_Integer_limitsIyLy0ELy18446744073709551615ELin1ELb1EE6digitsE 0x0003be68   Section        4  moc_qdeclarativecontactaddress_p.o(.constdata__ZN9stlp_priv15_Integer_limitsIyLy0ELy18446744073709551615ELin1ELb1EE6digitsE)
    .constdata__ZTI11QMetaObject             0x0003be6c   Section        8  qdeclarativeopenmetaobject.o(.constdata__ZTI11QMetaObject)
    .constdata__ZTI17QContactQmlPlugin       0x0003be74   Section       12  plugin.o(.constdata__ZTI17QContactQmlPlugin)
    .constdata__ZTI18QMetaObjectBuilder      0x0003be80   Section        8  qmetaobjectbuilder.o(.constdata__ZTI18QMetaObjectBuilder)
    .constdata__ZTI19QDeclarativeContact     0x0003be88   Section       12  moc_qdeclarativecontact_p.o(.constdata__ZTI19QDeclarativeContact)
    .constdata__ZTI22QDeclarativeContactTag  0x0003be94   Section       12  moc_qdeclarativecontacttag_p.o(.constdata__ZTI22QDeclarativeContactTag)
    .constdata__ZTI22QDeclarativeContactUrl  0x0003bea0   Section       12  moc_qdeclarativecontacturl_p.o(.constdata__ZTI22QDeclarativeContactUrl)
    .constdata__ZTI23QDeclarativeContactGuid 0x0003beac   Section       12  moc_qdeclarativecontactguid_p.o(.constdata__ZTI23QDeclarativeContactGuid)
    .constdata__ZTI23QDeclarativeContactName 0x0003beb8   Section       12  moc_qdeclarativecontactname_p.o(.constdata__ZTI23QDeclarativeContactName)
    .constdata__ZTI23QDeclarativeContactNote 0x0003bec4   Section       12  moc_qdeclarativecontactnote_p.o(.constdata__ZTI23QDeclarativeContactNote)
    .constdata__ZTI24QDeclarativeContactHobby 0x0003bed0   Section       12  moc_qdeclarativecontacthobby_p.o(.constdata__ZTI24QDeclarativeContactHobby)
    .constdata__ZTI24QDeclarativeContactModel 0x0003bedc   Section       32  moc_qdeclarativecontactmodel_p.o(.constdata__ZTI24QDeclarativeContactModel)
    .constdata__ZTI25QDeclarativeContactAvatar 0x0003befc   Section       12  moc_qdeclarativecontactavatar_p.o(.constdata__ZTI25QDeclarativeContactAvatar)
    .constdata__ZTI25QDeclarativeContactDetail 0x0003bf08   Section       12  moc_qdeclarativecontactdetail_p.o(.constdata__ZTI25QDeclarativeContactDetail)
    .constdata__ZTI25QDeclarativeContactFamily 0x0003bf14   Section       12  moc_qdeclarativecontactfamily_p.o(.constdata__ZTI25QDeclarativeContactFamily)
    .constdata__ZTI25QDeclarativeContactFilter 0x0003bf20   Section       12  moc_qdeclarativecontactfilter_p.o(.constdata__ZTI25QDeclarativeContactFilter)
    .constdata__ZTI25QDeclarativeContactGender 0x0003bf2c   Section       12  moc_qdeclarativecontactgender_p.o(.constdata__ZTI25QDeclarativeContactGender)
    .constdata__ZTI26QAbstractDynamicMetaObject 0x0003bf38   Section       24  qdeclarativeopenmetaobject.o(.constdata__ZTI26QAbstractDynamicMetaObject)
    .constdata__ZTI26QDeclarativeContactAddress 0x0003bf50   Section       12  moc_qdeclarativecontactaddress_p.o(.constdata__ZTI26QDeclarativeContactAddress)
    .constdata__ZTI26QDeclarativeOpenMetaObject 0x0003bf5c   Section       12  qdeclarativeopenmetaobject.o(.constdata__ZTI26QDeclarativeOpenMetaObject)
    .constdata__ZTI27QDeclarativeContactBirthday 0x0003bf68   Section       12  moc_qdeclarativecontactbirthday_p.o(.constdata__ZTI27QDeclarativeContactBirthday)
    .constdata__ZTI27QDeclarativeContactFavorite 0x0003bf74   Section       12  moc_qdeclarativecontactfavorite_p.o(.constdata__ZTI27QDeclarativeContactFavorite)
    .constdata__ZTI27QDeclarativeContactNickname 0x0003bf80   Section       12  moc_qdeclarativecontactnickname_p.o(.constdata__ZTI27QDeclarativeContactNickname)
    .constdata__ZTI27QDeclarativeContactPresence 0x0003bf8c   Section       12  moc_qdeclarativecontactpresence_p.o(.constdata__ZTI27QDeclarativeContactPresence)
    .constdata__ZTI27QDeclarativeContactRingtone 0x0003bf98   Section       12  moc_qdeclarativecontactringtone_p.o(.constdata__ZTI27QDeclarativeContactRingtone)
    .constdata__ZTI28QDeclarativeContactFetchHint 0x0003bfa4   Section       12  moc_qdeclarativecontactfetchhint_p.o(.constdata__ZTI28QDeclarativeContactFetchHint)
    .constdata__ZTI28QDeclarativeContactSortOrder 0x0003bfb0   Section       32  moc_qdeclarativecontactsortorder_p.o(.constdata__ZTI28QDeclarativeContactSortOrder)
    .constdata__ZTI28QDeclarativeContactTimestamp 0x0003bfd0   Section       12  moc_qdeclarativecontacttimestamp_p.o(.constdata__ZTI28QDeclarativeContactTimestamp)
    .constdata__ZTI29ContactThumbnailImageProvider 0x0003bfdc   Section       12  qdeclarativecontactimageprovider.o(.constdata__ZTI29ContactThumbnailImageProvider)
    .constdata__ZTI29QDeclarativeContactMetaObject 0x0003bfe8   Section       12  qdeclarativecontactmetaobject.o(.constdata__ZTI29QDeclarativeContactMetaObject)
    .constdata__ZTI29QDeclarativeContactSyncTarget 0x0003bff4   Section       12  moc_qdeclarativecontactsynctarget_p.o(.constdata__ZTI29QDeclarativeContactSyncTarget)
    .constdata__ZTI30QDeclarativeContactAnniversary 0x0003c000   Section       12  moc_qdeclarativecontactanniversary_p.o(.constdata__ZTI30QDeclarativeContactAnniversary)
    .constdata__ZTI30QDeclarativeContactGeoLocation 0x0003c00c   Section       12  moc_qdeclarativecontactgeolocation_p.o(.constdata__ZTI30QDeclarativeContactGeoLocation)
    .constdata__ZTI30QDeclarativeContactPhoneNumber 0x0003c018   Section       12  moc_qdeclarativecontactphonenumber_p.o(.constdata__ZTI30QDeclarativeContactPhoneNumber)
    .constdata__ZTI30QDeclarativeContactUnionFilter 0x0003c024   Section       12  moc_qdeclarativecontactunionfilter_p.o(.constdata__ZTI30QDeclarativeContactUnionFilter)
    .constdata__ZTI31QDeclarativeContactActionFilter 0x0003c030   Section       12  moc_qdeclarativecontactactionfilter_p.o(.constdata__ZTI31QDeclarativeContactActionFilter)
    .constdata__ZTI31QDeclarativeContactDetailFilter 0x0003c03c   Section       32  moc_qdeclarativecontactdetailfilter_p.o(.constdata__ZTI31QDeclarativeContactDetailFilter)
    .constdata__ZTI31QDeclarativeContactDisplayLabel 0x0003c05c   Section       12  moc_qdeclarativecontactdisplaylabel_p.o(.constdata__ZTI31QDeclarativeContactDisplayLabel)
    .constdata__ZTI31QDeclarativeContactEmailAddress 0x0003c068   Section       12  moc_qdeclarativecontactemailaddress_p.o(.constdata__ZTI31QDeclarativeContactEmailAddress)
    .constdata__ZTI31QDeclarativeContactOrganization 0x0003c074   Section       12  moc_qdeclarativecontactorganization_p.o(.constdata__ZTI31QDeclarativeContactOrganization)
    .constdata__ZTI31QDeclarativeContactRelationship 0x0003c080   Section       12  moc_qdeclarativecontactrelationship_p.o(.constdata__ZTI31QDeclarativeContactRelationship)
    .constdata__ZTI32QDeclarativeContactInvalidFilter 0x0003c08c   Section       12  moc_qdeclarativecontactinvalidfilter_p.o(.constdata__ZTI32QDeclarativeContactInvalidFilter)
    .constdata__ZTI32QDeclarativeContactLocalIdFilter 0x0003c098   Section       12  moc_qdeclarativecontactlocalidfilter_p.o(.constdata__ZTI32QDeclarativeContactLocalIdFilter)
    .constdata__ZTI32QDeclarativeContactOnlineAccount 0x0003c0a4   Section       12  moc_qdeclarativecontactonlineaccount_p.o(.constdata__ZTI32QDeclarativeContactOnlineAccount)
    .constdata__ZTI33QDeclarativeContactGlobalPresence 0x0003c0b0   Section       12  moc_qdeclarativecontactglobalpresence_p.o(.constdata__ZTI33QDeclarativeContactGlobalPresence)
    .constdata__ZTI34QDeclarativeContactChangeLogFilter 0x0003c0bc   Section       12  moc_qdeclarativecontactchangelogfilter_p.o(.constdata__ZTI34QDeclarativeContactChangeLogFilter)
    .constdata__ZTI36QDeclarativeContactDetailRangeFilter 0x0003c0c8   Section       32  moc_qdeclarativecontactdetailrangefilter_p.o(.constdata__ZTI36QDeclarativeContactDetailRangeFilter)
    .constdata__ZTI36QDeclarativeContactRelationshipModel 0x0003c0e8   Section       12  moc_qdeclarativecontactrelationshipmodel_p.o(.constdata__ZTI36QDeclarativeContactRelationshipModel)
    .constdata__ZTI37QDeclarativeContactIntersectionFilter 0x0003c0f4   Section       12  moc_qdeclarativecontactintersectionfilter_p.o(.constdata__ZTI37QDeclarativeContactIntersectionFilter)
    .constdata__ZTI37QDeclarativeContactRelationshipFilter 0x0003c100   Section       12  moc_qdeclarativecontactrelationshipfilter_p.o(.constdata__ZTI37QDeclarativeContactRelationshipFilter)
    .constdata__ZTIN19QDeclarativePrivate19QDeclarativeElementI19QDeclarativeContactEE 0x0003c10c   Section       12  plugin.o(.constdata__ZTIN19QDeclarativePrivate19QDeclarativeElementI19QDeclarativeContactEE)
    .constdata__ZTIN19QDeclarativePrivate19QDeclarativeElementI22QDeclarativeContactTagEE 0x0003c118   Section       12  plugin.o(.constdata__ZTIN19QDeclarativePrivate19QDeclarativeElementI22QDeclarativeContactTagEE)
    .constdata__ZTIN19QDeclarativePrivate19QDeclarativeElementI22QDeclarativeContactUrlEE 0x0003c124   Section       12  plugin.o(.constdata__ZTIN19QDeclarativePrivate19QDeclarativeElementI22QDeclarativeContactUrlEE)
    .constdata__ZTIN19QDeclarativePrivate19QDeclarativeElementI23QDeclarativeContactGuidEE 0x0003c130   Section       12  plugin.o(.constdata__ZTIN19QDeclarativePrivate19QDeclarativeElementI23QDeclarativeContactGuidEE)
    .constdata__ZTIN19QDeclarativePrivate19QDeclarativeElementI23QDeclarativeContactNameEE 0x0003c13c   Section       12  plugin.o(.constdata__ZTIN19QDeclarativePrivate19QDeclarativeElementI23QDeclarativeContactNameEE)
    .constdata__ZTIN19QDeclarativePrivate19QDeclarativeElementI23QDeclarativeContactNoteEE 0x0003c148   Section       12  plugin.o(.constdata__ZTIN19QDeclarativePrivate19QDeclarativeElementI23QDeclarativeContactNoteEE)
    .constdata__ZTIN19QDeclarativePrivate19QDeclarativeElementI24QDeclarativeContactHobbyEE 0x0003c154   Section       12  plugin.o(.constdata__ZTIN19QDeclarativePrivate19QDeclarativeElementI24QDeclarativeContactHobbyEE)
    .constdata__ZTIN19QDeclarativePrivate19QDeclarativeElementI24QDeclarativeContactModelEE 0x0003c160   Section       12  plugin.o(.constdata__ZTIN19QDeclarativePrivate19QDeclarativeElementI24QDeclarativeContactModelEE)
    .constdata__ZTIN19QDeclarativePrivate19QDeclarativeElementI25QDeclarativeContactAvatarEE 0x0003c16c   Section       12  plugin.o(.constdata__ZTIN19QDeclarativePrivate19QDeclarativeElementI25QDeclarativeContactAvatarEE)
    .constdata__ZTIN19QDeclarativePrivate19QDeclarativeElementI25QDeclarativeContactDetailEE 0x0003c178   Section       12  plugin.o(.constdata__ZTIN19QDeclarativePrivate19QDeclarativeElementI25QDeclarativeContactDetailEE)
    .constdata__ZTIN19QDeclarativePrivate19QDeclarativeElementI25QDeclarativeContactFamilyEE 0x0003c184   Section       12  plugin.o(.constdata__ZTIN19QDeclarativePrivate19QDeclarativeElementI25QDeclarativeContactFamilyEE)
    .constdata__ZTIN19QDeclarativePrivate19QDeclarativeElementI25QDeclarativeContactFilterEE 0x0003c190   Section       12  plugin.o(.constdata__ZTIN19QDeclarativePrivate19QDeclarativeElementI25QDeclarativeContactFilterEE)
    .constdata__ZTIN19QDeclarativePrivate19QDeclarativeElementI25QDeclarativeContactGenderEE 0x0003c19c   Section       12  plugin.o(.constdata__ZTIN19QDeclarativePrivate19QDeclarativeElementI25QDeclarativeContactGenderEE)
    .constdata__ZTIN19QDeclarativePrivate19QDeclarativeElementI26QDeclarativeContactAddressEE 0x0003c1a8   Section       12  plugin.o(.constdata__ZTIN19QDeclarativePrivate19QDeclarativeElementI26QDeclarativeContactAddressEE)
    .constdata__ZTIN19QDeclarativePrivate19QDeclarativeElementI27QDeclarativeContactBirthdayEE 0x0003c1b4   Section       12  plugin.o(.constdata__ZTIN19QDeclarativePrivate19QDeclarativeElementI27QDeclarativeContactBirthdayEE)
    .constdata__ZTIN19QDeclarativePrivate19QDeclarativeElementI27QDeclarativeContactFavoriteEE 0x0003c1c0   Section       12  plugin.o(.constdata__ZTIN19QDeclarativePrivate19QDeclarativeElementI27QDeclarativeContactFavoriteEE)
    .constdata__ZTIN19QDeclarativePrivate19QDeclarativeElementI27QDeclarativeContactNicknameEE 0x0003c1cc   Section       12  plugin.o(.constdata__ZTIN19QDeclarativePrivate19QDeclarativeElementI27QDeclarativeContactNicknameEE)
    .constdata__ZTIN19QDeclarativePrivate19QDeclarativeElementI27QDeclarativeContactPresenceEE 0x0003c1d8   Section       12  plugin.o(.constdata__ZTIN19QDeclarativePrivate19QDeclarativeElementI27QDeclarativeContactPresenceEE)
    .constdata__ZTIN19QDeclarativePrivate19QDeclarativeElementI27QDeclarativeContactRingtoneEE 0x0003c1e4   Section       12  plugin.o(.constdata__ZTIN19QDeclarativePrivate19QDeclarativeElementI27QDeclarativeContactRingtoneEE)
    .constdata__ZTIN19QDeclarativePrivate19QDeclarativeElementI28QDeclarativeContactFetchHintEE 0x0003c1f0   Section       12  plugin.o(.constdata__ZTIN19QDeclarativePrivate19QDeclarativeElementI28QDeclarativeContactFetchHintEE)
    .constdata__ZTIN19QDeclarativePrivate19QDeclarativeElementI28QDeclarativeContactSortOrderEE 0x0003c1fc   Section       12  plugin.o(.constdata__ZTIN19QDeclarativePrivate19QDeclarativeElementI28QDeclarativeContactSortOrderEE)
    .constdata__ZTIN19QDeclarativePrivate19QDeclarativeElementI28QDeclarativeContactTimestampEE 0x0003c208   Section       12  plugin.o(.constdata__ZTIN19QDeclarativePrivate19QDeclarativeElementI28QDeclarativeContactTimestampEE)
    .constdata__ZTIN19QDeclarativePrivate19QDeclarativeElementI29QDeclarativeContactSyncTargetEE 0x0003c214   Section       12  plugin.o(.constdata__ZTIN19QDeclarativePrivate19QDeclarativeElementI29QDeclarativeContactSyncTargetEE)
    .constdata__ZTIN19QDeclarativePrivate19QDeclarativeElementI30QDeclarativeContactAnniversaryEE 0x0003c220   Section       12  plugin.o(.constdata__ZTIN19QDeclarativePrivate19QDeclarativeElementI30QDeclarativeContactAnniversaryEE)
    .constdata__ZTIN19QDeclarativePrivate19QDeclarativeElementI30QDeclarativeContactGeoLocationEE 0x0003c22c   Section       12  plugin.o(.constdata__ZTIN19QDeclarativePrivate19QDeclarativeElementI30QDeclarativeContactGeoLocationEE)
    .constdata__ZTIN19QDeclarativePrivate19QDeclarativeElementI30QDeclarativeContactPhoneNumberEE 0x0003c238   Section       12  plugin.o(.constdata__ZTIN19QDeclarativePrivate19QDeclarativeElementI30QDeclarativeContactPhoneNumberEE)
    .constdata__ZTIN19QDeclarativePrivate19QDeclarativeElementI30QDeclarativeContactUnionFilterEE 0x0003c244   Section       12  plugin.o(.constdata__ZTIN19QDeclarativePrivate19QDeclarativeElementI30QDeclarativeContactUnionFilterEE)
    .constdata__ZTIN19QDeclarativePrivate19QDeclarativeElementI31QDeclarativeContactActionFilterEE 0x0003c250   Section       12  plugin.o(.constdata__ZTIN19QDeclarativePrivate19QDeclarativeElementI31QDeclarativeContactActionFilterEE)
    .constdata__ZTIN19QDeclarativePrivate19QDeclarativeElementI31QDeclarativeContactDetailFilterEE 0x0003c25c   Section       12  plugin.o(.constdata__ZTIN19QDeclarativePrivate19QDeclarativeElementI31QDeclarativeContactDetailFilterEE)
    .constdata__ZTIN19QDeclarativePrivate19QDeclarativeElementI31QDeclarativeContactDisplayLabelEE 0x0003c268   Section       12  plugin.o(.constdata__ZTIN19QDeclarativePrivate19QDeclarativeElementI31QDeclarativeContactDisplayLabelEE)
    .constdata__ZTIN19QDeclarativePrivate19QDeclarativeElementI31QDeclarativeContactEmailAddressEE 0x0003c274   Section       12  plugin.o(.constdata__ZTIN19QDeclarativePrivate19QDeclarativeElementI31QDeclarativeContactEmailAddressEE)
    .constdata__ZTIN19QDeclarativePrivate19QDeclarativeElementI31QDeclarativeContactOrganizationEE 0x0003c280   Section       12  plugin.o(.constdata__ZTIN19QDeclarativePrivate19QDeclarativeElementI31QDeclarativeContactOrganizationEE)
    .constdata__ZTIN19QDeclarativePrivate19QDeclarativeElementI31QDeclarativeContactRelationshipEE 0x0003c28c   Section       12  plugin.o(.constdata__ZTIN19QDeclarativePrivate19QDeclarativeElementI31QDeclarativeContactRelationshipEE)
    .constdata__ZTIN19QDeclarativePrivate19QDeclarativeElementI32QDeclarativeContactLocalIdFilterEE 0x0003c298   Section       12  plugin.o(.constdata__ZTIN19QDeclarativePrivate19QDeclarativeElementI32QDeclarativeContactLocalIdFilterEE)
    .constdata__ZTIN19QDeclarativePrivate19QDeclarativeElementI32QDeclarativeContactOnlineAccountEE 0x0003c2a4   Section       12  plugin.o(.constdata__ZTIN19QDeclarativePrivate19QDeclarativeElementI32QDeclarativeContactOnlineAccountEE)
    .constdata__ZTIN19QDeclarativePrivate19QDeclarativeElementI33QDeclarativeContactGlobalPresenceEE 0x0003c2b0   Section       12  plugin.o(.constdata__ZTIN19QDeclarativePrivate19QDeclarativeElementI33QDeclarativeContactGlobalPresenceEE)
    .constdata__ZTIN19QDeclarativePrivate19QDeclarativeElementI34QDeclarativeContactChangeLogFilterEE 0x0003c2bc   Section       12  plugin.o(.constdata__ZTIN19QDeclarativePrivate19QDeclarativeElementI34QDeclarativeContactChangeLogFilterEE)
    .constdata__ZTIN19QDeclarativePrivate19QDeclarativeElementI36QDeclarativeContactDetailRangeFilterEE 0x0003c2c8   Section       12  plugin.o(.constdata__ZTIN19QDeclarativePrivate19QDeclarativeElementI36QDeclarativeContactDetailRangeFilterEE)
    .constdata__ZTIN19QDeclarativePrivate19QDeclarativeElementI37QDeclarativeContactIntersectionFilterEE 0x0003c2d4   Section       12  plugin.o(.constdata__ZTIN19QDeclarativePrivate19QDeclarativeElementI37QDeclarativeContactIntersectionFilterEE)
    .constdata__ZTIN19QDeclarativePrivate19QDeclarativeElementI37QDeclarativeContactRelationshipFilterEE 0x0003c2e0   Section       12  plugin.o(.constdata__ZTIN19QDeclarativePrivate19QDeclarativeElementI37QDeclarativeContactRelationshipFilterEE)
    .constdata__ZTS11QMetaObject             0x0003c2ec   Section       14  qdeclarativeopenmetaobject.o(.constdata__ZTS11QMetaObject)
    .constdata__ZTS17QContactQmlPlugin       0x0003c2fa   Section       20  plugin.o(.constdata__ZTS17QContactQmlPlugin)
    .constdata__ZTS18QMetaObjectBuilder      0x0003c30e   Section       21  qmetaobjectbuilder.o(.constdata__ZTS18QMetaObjectBuilder)
    .constdata__ZTS19QDeclarativeContact     0x0003c323   Section       22  moc_qdeclarativecontact_p.o(.constdata__ZTS19QDeclarativeContact)
    .constdata__ZTS22QDeclarativeContactTag  0x0003c339   Section       25  moc_qdeclarativecontacttag_p.o(.constdata__ZTS22QDeclarativeContactTag)
    .constdata__ZTS22QDeclarativeContactUrl  0x0003c352   Section       25  moc_qdeclarativecontacturl_p.o(.constdata__ZTS22QDeclarativeContactUrl)
    .constdata__ZTS23QDeclarativeContactGuid 0x0003c36b   Section       26  moc_qdeclarativecontactguid_p.o(.constdata__ZTS23QDeclarativeContactGuid)
    .constdata__ZTS23QDeclarativeContactName 0x0003c385   Section       26  moc_qdeclarativecontactname_p.o(.constdata__ZTS23QDeclarativeContactName)
    .constdata__ZTS23QDeclarativeContactNote 0x0003c39f   Section       26  moc_qdeclarativecontactnote_p.o(.constdata__ZTS23QDeclarativeContactNote)
    .constdata__ZTS24QDeclarativeContactHobby 0x0003c3b9   Section       27  moc_qdeclarativecontacthobby_p.o(.constdata__ZTS24QDeclarativeContactHobby)
    .constdata__ZTS24QDeclarativeContactModel 0x0003c3d4   Section       27  moc_qdeclarativecontactmodel_p.o(.constdata__ZTS24QDeclarativeContactModel)
    .constdata__ZTS25QDeclarativeContactAvatar 0x0003c3ef   Section       28  moc_qdeclarativecontactavatar_p.o(.constdata__ZTS25QDeclarativeContactAvatar)
    .constdata__ZTS25QDeclarativeContactDetail 0x0003c40b   Section       28  moc_qdeclarativecontactdetail_p.o(.constdata__ZTS25QDeclarativeContactDetail)
    .constdata__ZTS25QDeclarativeContactFamily 0x0003c427   Section       28  moc_qdeclarativecontactfamily_p.o(.constdata__ZTS25QDeclarativeContactFamily)
    .constdata__ZTS25QDeclarativeContactFilter 0x0003c443   Section       28  moc_qdeclarativecontactfilter_p.o(.constdata__ZTS25QDeclarativeContactFilter)
    .constdata__ZTS25QDeclarativeContactGender 0x0003c45f   Section       28  moc_qdeclarativecontactgender_p.o(.constdata__ZTS25QDeclarativeContactGender)
    .constdata__ZTS26QAbstractDynamicMetaObject 0x0003c47b   Section       29  qdeclarativeopenmetaobject.o(.constdata__ZTS26QAbstractDynamicMetaObject)
    .constdata__ZTS26QDeclarativeContactAddress 0x0003c498   Section       29  moc_qdeclarativecontactaddress_p.o(.constdata__ZTS26QDeclarativeContactAddress)
    .constdata__ZTS26QDeclarativeOpenMetaObject 0x0003c4b5   Section       29  qdeclarativeopenmetaobject.o(.constdata__ZTS26QDeclarativeOpenMetaObject)
    .constdata__ZTS27QDeclarativeContactBirthday 0x0003c4d2   Section       30  moc_qdeclarativecontactbirthday_p.o(.constdata__ZTS27QDeclarativeContactBirthday)
    .constdata__ZTS27QDeclarativeContactFavorite 0x0003c4f0   Section       30  moc_qdeclarativecontactfavorite_p.o(.constdata__ZTS27QDeclarativeContactFavorite)
    .constdata__ZTS27QDeclarativeContactNickname 0x0003c50e   Section       30  moc_qdeclarativecontactnickname_p.o(.constdata__ZTS27QDeclarativeContactNickname)
    .constdata__ZTS27QDeclarativeContactPresence 0x0003c52c   Section       30  moc_qdeclarativecontactpresence_p.o(.constdata__ZTS27QDeclarativeContactPresence)
    .constdata__ZTS27QDeclarativeContactRingtone 0x0003c54a   Section       30  moc_qdeclarativecontactringtone_p.o(.constdata__ZTS27QDeclarativeContactRingtone)
    .constdata__ZTS28QDeclarativeContactFetchHint 0x0003c568   Section       31  moc_qdeclarativecontactfetchhint_p.o(.constdata__ZTS28QDeclarativeContactFetchHint)
    .constdata__ZTS28QDeclarativeContactSortOrder 0x0003c587   Section       31  moc_qdeclarativecontactsortorder_p.o(.constdata__ZTS28QDeclarativeContactSortOrder)
    .constdata__ZTS28QDeclarativeContactTimestamp 0x0003c5a6   Section       31  moc_qdeclarativecontacttimestamp_p.o(.constdata__ZTS28QDeclarativeContactTimestamp)
    .constdata__ZTS29ContactThumbnailImageProvider 0x0003c5c5   Section       32  qdeclarativecontactimageprovider.o(.constdata__ZTS29ContactThumbnailImageProvider)
    .constdata__ZTS29QDeclarativeContactMetaObject 0x0003c5e5   Section       32  qdeclarativecontactmetaobject.o(.constdata__ZTS29QDeclarativeContactMetaObject)
    .constdata__ZTS29QDeclarativeContactSyncTarget 0x0003c605   Section       32  moc_qdeclarativecontactsynctarget_p.o(.constdata__ZTS29QDeclarativeContactSyncTarget)
    .constdata__ZTS30QDeclarativeContactAnniversary 0x0003c625   Section       33  moc_qdeclarativecontactanniversary_p.o(.constdata__ZTS30QDeclarativeContactAnniversary)
    .constdata__ZTS30QDeclarativeContactGeoLocation 0x0003c646   Section       33  moc_qdeclarativecontactgeolocation_p.o(.constdata__ZTS30QDeclarativeContactGeoLocation)
    .constdata__ZTS30QDeclarativeContactPhoneNumber 0x0003c667   Section       33  moc_qdeclarativecontactphonenumber_p.o(.constdata__ZTS30QDeclarativeContactPhoneNumber)
    .constdata__ZTS30QDeclarativeContactUnionFilter 0x0003c688   Section       33  moc_qdeclarativecontactunionfilter_p.o(.constdata__ZTS30QDeclarativeContactUnionFilter)
    .constdata__ZTS31QDeclarativeContactActionFilter 0x0003c6a9   Section       34  moc_qdeclarativecontactactionfilter_p.o(.constdata__ZTS31QDeclarativeContactActionFilter)
    .constdata__ZTS31QDeclarativeContactDetailFilter 0x0003c6cb   Section       34  moc_qdeclarativecontactdetailfilter_p.o(.constdata__ZTS31QDeclarativeContactDetailFilter)
    .constdata__ZTS31QDeclarativeContactDisplayLabel 0x0003c6ed   Section       34  moc_qdeclarativecontactdisplaylabel_p.o(.constdata__ZTS31QDeclarativeContactDisplayLabel)
    .constdata__ZTS31QDeclarativeContactEmailAddress 0x0003c70f   Section       34  moc_qdeclarativecontactemailaddress_p.o(.constdata__ZTS31QDeclarativeContactEmailAddress)
    .constdata__ZTS31QDeclarativeContactOrganization 0x0003c731   Section       34  moc_qdeclarativecontactorganization_p.o(.constdata__ZTS31QDeclarativeContactOrganization)
    .constdata__ZTS31QDeclarativeContactRelationship 0x0003c753   Section       34  moc_qdeclarativecontactrelationship_p.o(.constdata__ZTS31QDeclarativeContactRelationship)
    .constdata__ZTS32QDeclarativeContactInvalidFilter 0x0003c775   Section       35  moc_qdeclarativecontactinvalidfilter_p.o(.constdata__ZTS32QDeclarativeContactInvalidFilter)
    .constdata__ZTS32QDeclarativeContactLocalIdFilter 0x0003c798   Section       35  moc_qdeclarativecontactlocalidfilter_p.o(.constdata__ZTS32QDeclarativeContactLocalIdFilter)
    .constdata__ZTS32QDeclarativeContactOnlineAccount 0x0003c7bb   Section       35  moc_qdeclarativecontactonlineaccount_p.o(.constdata__ZTS32QDeclarativeContactOnlineAccount)
    .constdata__ZTS33QDeclarativeContactGlobalPresence 0x0003c7de   Section       36  moc_qdeclarativecontactglobalpresence_p.o(.constdata__ZTS33QDeclarativeContactGlobalPresence)
    .constdata__ZTS34QDeclarativeContactChangeLogFilter 0x0003c802   Section       37  moc_qdeclarativecontactchangelogfilter_p.o(.constdata__ZTS34QDeclarativeContactChangeLogFilter)
    .constdata__ZTS36QDeclarativeContactDetailRangeFilter 0x0003c827   Section       39  moc_qdeclarativecontactdetailrangefilter_p.o(.constdata__ZTS36QDeclarativeContactDetailRangeFilter)
    .constdata__ZTS36QDeclarativeContactRelationshipModel 0x0003c84e   Section       39  moc_qdeclarativecontactrelationshipmodel_p.o(.constdata__ZTS36QDeclarativeContactRelationshipModel)
    .constdata__ZTS37QDeclarativeContactIntersectionFilter 0x0003c875   Section       40  moc_qdeclarativecontactintersectionfilter_p.o(.constdata__ZTS37QDeclarativeContactIntersectionFilter)
    .constdata__ZTS37QDeclarativeContactRelationshipFilter 0x0003c89d   Section       40  moc_qdeclarativecontactrelationshipfilter_p.o(.constdata__ZTS37QDeclarativeContactRelationshipFilter)
    .constdata__ZTSN19QDeclarativePrivate19QDeclarativeElementI19QDeclarativeContactEE 0x0003c8c5   Section       68  plugin.o(.constdata__ZTSN19QDeclarativePrivate19QDeclarativeElementI19QDeclarativeContactEE)
    .constdata__ZTSN19QDeclarativePrivate19QDeclarativeElementI22QDeclarativeContactTagEE 0x0003c909   Section       71  plugin.o(.constdata__ZTSN19QDeclarativePrivate19QDeclarativeElementI22QDeclarativeContactTagEE)
    .constdata__ZTSN19QDeclarativePrivate19QDeclarativeElementI22QDeclarativeContactUrlEE 0x0003c950   Section       71  plugin.o(.constdata__ZTSN19QDeclarativePrivate19QDeclarativeElementI22QDeclarativeContactUrlEE)
    .constdata__ZTSN19QDeclarativePrivate19QDeclarativeElementI23QDeclarativeContactGuidEE 0x0003c997   Section       72  plugin.o(.constdata__ZTSN19QDeclarativePrivate19QDeclarativeElementI23QDeclarativeContactGuidEE)
    .constdata__ZTSN19QDeclarativePrivate19QDeclarativeElementI23QDeclarativeContactNameEE 0x0003c9df   Section       72  plugin.o(.constdata__ZTSN19QDeclarativePrivate19QDeclarativeElementI23QDeclarativeContactNameEE)
    .constdata__ZTSN19QDeclarativePrivate19QDeclarativeElementI23QDeclarativeContactNoteEE 0x0003ca27   Section       72  plugin.o(.constdata__ZTSN19QDeclarativePrivate19QDeclarativeElementI23QDeclarativeContactNoteEE)
    .constdata__ZTSN19QDeclarativePrivate19QDeclarativeElementI24QDeclarativeContactHobbyEE 0x0003ca6f   Section       73  plugin.o(.constdata__ZTSN19QDeclarativePrivate19QDeclarativeElementI24QDeclarativeContactHobbyEE)
    .constdata__ZTSN19QDeclarativePrivate19QDeclarativeElementI24QDeclarativeContactModelEE 0x0003cab8   Section       73  plugin.o(.constdata__ZTSN19QDeclarativePrivate19QDeclarativeElementI24QDeclarativeContactModelEE)
    .constdata__ZTSN19QDeclarativePrivate19QDeclarativeElementI25QDeclarativeContactAvatarEE 0x0003cb01   Section       74  plugin.o(.constdata__ZTSN19QDeclarativePrivate19QDeclarativeElementI25QDeclarativeContactAvatarEE)
    .constdata__ZTSN19QDeclarativePrivate19QDeclarativeElementI25QDeclarativeContactDetailEE 0x0003cb4b   Section       74  plugin.o(.constdata__ZTSN19QDeclarativePrivate19QDeclarativeElementI25QDeclarativeContactDetailEE)
    .constdata__ZTSN19QDeclarativePrivate19QDeclarativeElementI25QDeclarativeContactFamilyEE 0x0003cb95   Section       74  plugin.o(.constdata__ZTSN19QDeclarativePrivate19QDeclarativeElementI25QDeclarativeContactFamilyEE)
    .constdata__ZTSN19QDeclarativePrivate19QDeclarativeElementI25QDeclarativeContactFilterEE 0x0003cbdf   Section       74  plugin.o(.constdata__ZTSN19QDeclarativePrivate19QDeclarativeElementI25QDeclarativeContactFilterEE)
    .constdata__ZTSN19QDeclarativePrivate19QDeclarativeElementI25QDeclarativeContactGenderEE 0x0003cc29   Section       74  plugin.o(.constdata__ZTSN19QDeclarativePrivate19QDeclarativeElementI25QDeclarativeContactGenderEE)
    .constdata__ZTSN19QDeclarativePrivate19QDeclarativeElementI26QDeclarativeContactAddressEE 0x0003cc73   Section       75  plugin.o(.constdata__ZTSN19QDeclarativePrivate19QDeclarativeElementI26QDeclarativeContactAddressEE)
    .constdata__ZTSN19QDeclarativePrivate19QDeclarativeElementI27QDeclarativeContactBirthdayEE 0x0003ccbe   Section       76  plugin.o(.constdata__ZTSN19QDeclarativePrivate19QDeclarativeElementI27QDeclarativeContactBirthdayEE)
    .constdata__ZTSN19QDeclarativePrivate19QDeclarativeElementI27QDeclarativeContactFavoriteEE 0x0003cd0a   Section       76  plugin.o(.constdata__ZTSN19QDeclarativePrivate19QDeclarativeElementI27QDeclarativeContactFavoriteEE)
    .constdata__ZTSN19QDeclarativePrivate19QDeclarativeElementI27QDeclarativeContactNicknameEE 0x0003cd56   Section       76  plugin.o(.constdata__ZTSN19QDeclarativePrivate19QDeclarativeElementI27QDeclarativeContactNicknameEE)
    .constdata__ZTSN19QDeclarativePrivate19QDeclarativeElementI27QDeclarativeContactPresenceEE 0x0003cda2   Section       76  plugin.o(.constdata__ZTSN19QDeclarativePrivate19QDeclarativeElementI27QDeclarativeContactPresenceEE)
    .constdata__ZTSN19QDeclarativePrivate19QDeclarativeElementI27QDeclarativeContactRingtoneEE 0x0003cdee   Section       76  plugin.o(.constdata__ZTSN19QDeclarativePrivate19QDeclarativeElementI27QDeclarativeContactRingtoneEE)
    .constdata__ZTSN19QDeclarativePrivate19QDeclarativeElementI28QDeclarativeContactFetchHintEE 0x0003ce3a   Section       77  plugin.o(.constdata__ZTSN19QDeclarativePrivate19QDeclarativeElementI28QDeclarativeContactFetchHintEE)
    .constdata__ZTSN19QDeclarativePrivate19QDeclarativeElementI28QDeclarativeContactSortOrderEE 0x0003ce87   Section       77  plugin.o(.constdata__ZTSN19QDeclarativePrivate19QDeclarativeElementI28QDeclarativeContactSortOrderEE)
    .constdata__ZTSN19QDeclarativePrivate19QDeclarativeElementI28QDeclarativeContactTimestampEE 0x0003ced4   Section       77  plugin.o(.constdata__ZTSN19QDeclarativePrivate19QDeclarativeElementI28QDeclarativeContactTimestampEE)
    .constdata__ZTSN19QDeclarativePrivate19QDeclarativeElementI29QDeclarativeContactSyncTargetEE 0x0003cf21   Section       78  plugin.o(.constdata__ZTSN19QDeclarativePrivate19QDeclarativeElementI29QDeclarativeContactSyncTargetEE)
    .constdata__ZTSN19QDeclarativePrivate19QDeclarativeElementI30QDeclarativeContactAnniversaryEE 0x0003cf6f   Section       79  plugin.o(.constdata__ZTSN19QDeclarativePrivate19QDeclarativeElementI30QDeclarativeContactAnniversaryEE)
    .constdata__ZTSN19QDeclarativePrivate19QDeclarativeElementI30QDeclarativeContactGeoLocationEE 0x0003cfbe   Section       79  plugin.o(.constdata__ZTSN19QDeclarativePrivate19QDeclarativeElementI30QDeclarativeContactGeoLocationEE)
    .constdata__ZTSN19QDeclarativePrivate19QDeclarativeElementI30QDeclarativeContactPhoneNumberEE 0x0003d00d   Section       79  plugin.o(.constdata__ZTSN19QDeclarativePrivate19QDeclarativeElementI30QDeclarativeContactPhoneNumberEE)
    .constdata__ZTSN19QDeclarativePrivate19QDeclarativeElementI30QDeclarativeContactUnionFilterEE 0x0003d05c   Section       79  plugin.o(.constdata__ZTSN19QDeclarativePrivate19QDeclarativeElementI30QDeclarativeContactUnionFilterEE)
    .constdata__ZTSN19QDeclarativePrivate19QDeclarativeElementI31QDeclarativeContactActionFilterEE 0x0003d0ab   Section       80  plugin.o(.constdata__ZTSN19QDeclarativePrivate19QDeclarativeElementI31QDeclarativeContactActionFilterEE)
    .constdata__ZTSN19QDeclarativePrivate19QDeclarativeElementI31QDeclarativeContactDetailFilterEE 0x0003d0fb   Section       80  plugin.o(.constdata__ZTSN19QDeclarativePrivate19QDeclarativeElementI31QDeclarativeContactDetailFilterEE)
    .constdata__ZTSN19QDeclarativePrivate19QDeclarativeElementI31QDeclarativeContactDisplayLabelEE 0x0003d14b   Section       80  plugin.o(.constdata__ZTSN19QDeclarativePrivate19QDeclarativeElementI31QDeclarativeContactDisplayLabelEE)
    .constdata__ZTSN19QDeclarativePrivate19QDeclarativeElementI31QDeclarativeContactEmailAddressEE 0x0003d19b   Section       80  plugin.o(.constdata__ZTSN19QDeclarativePrivate19QDeclarativeElementI31QDeclarativeContactEmailAddressEE)
    .constdata__ZTSN19QDeclarativePrivate19QDeclarativeElementI31QDeclarativeContactOrganizationEE 0x0003d1eb   Section       80  plugin.o(.constdata__ZTSN19QDeclarativePrivate19QDeclarativeElementI31QDeclarativeContactOrganizationEE)
    .constdata__ZTSN19QDeclarativePrivate19QDeclarativeElementI31QDeclarativeContactRelationshipEE 0x0003d23b   Section       80  plugin.o(.constdata__ZTSN19QDeclarativePrivate19QDeclarativeElementI31QDeclarativeContactRelationshipEE)
    .constdata__ZTSN19QDeclarativePrivate19QDeclarativeElementI32QDeclarativeContactLocalIdFilterEE 0x0003d28b   Section       81  plugin.o(.constdata__ZTSN19QDeclarativePrivate19QDeclarativeElementI32QDeclarativeContactLocalIdFilterEE)
    .constdata__ZTSN19QDeclarativePrivate19QDeclarativeElementI32QDeclarativeContactOnlineAccountEE 0x0003d2dc   Section       81  plugin.o(.constdata__ZTSN19QDeclarativePrivate19QDeclarativeElementI32QDeclarativeContactOnlineAccountEE)
    .constdata__ZTSN19QDeclarativePrivate19QDeclarativeElementI33QDeclarativeContactGlobalPresenceEE 0x0003d32d   Section       82  plugin.o(.constdata__ZTSN19QDeclarativePrivate19QDeclarativeElementI33QDeclarativeContactGlobalPresenceEE)
    .constdata__ZTSN19QDeclarativePrivate19QDeclarativeElementI34QDeclarativeContactChangeLogFilterEE 0x0003d37f   Section       83  plugin.o(.constdata__ZTSN19QDeclarativePrivate19QDeclarativeElementI34QDeclarativeContactChangeLogFilterEE)
    .constdata__ZTSN19QDeclarativePrivate19QDeclarativeElementI36QDeclarativeContactDetailRangeFilterEE 0x0003d3d2   Section       85  plugin.o(.constdata__ZTSN19QDeclarativePrivate19QDeclarativeElementI36QDeclarativeContactDetailRangeFilterEE)
    .constdata__ZTSN19QDeclarativePrivate19QDeclarativeElementI37QDeclarativeContactIntersectionFilterEE 0x0003d427   Section       86  plugin.o(.constdata__ZTSN19QDeclarativePrivate19QDeclarativeElementI37QDeclarativeContactIntersectionFilterEE)
    .constdata__ZTSN19QDeclarativePrivate19QDeclarativeElementI37QDeclarativeContactRelationshipFilterEE 0x0003d47d   Section       86  plugin.o(.constdata__ZTSN19QDeclarativePrivate19QDeclarativeElementI37QDeclarativeContactRelationshipFilterEE)
    .constdata__ZTV17QContactQmlPlugin       0x0003d4d4   Section       88  plugin.o(.constdata__ZTV17QContactQmlPlugin)
    .constdata__ZTV18QMetaObjectBuilder      0x0003d52c   Section       16  qmetaobjectbuilder.o(.constdata__ZTV18QMetaObjectBuilder)
    .constdata__ZTV19QDeclarativeContact     0x0003d53c   Section       56  moc_qdeclarativecontact_p.o(.constdata__ZTV19QDeclarativeContact)
    .constdata__ZTV22QDeclarativeContactTag  0x0003d574   Section       60  moc_qdeclarativecontacttag_p.o(.constdata__ZTV22QDeclarativeContactTag)
    .constdata__ZTV22QDeclarativeContactUrl  0x0003d5b0   Section       60  moc_qdeclarativecontacturl_p.o(.constdata__ZTV22QDeclarativeContactUrl)
    .constdata__ZTV23QDeclarativeContactGuid 0x0003d5ec   Section       60  moc_qdeclarativecontactguid_p.o(.constdata__ZTV23QDeclarativeContactGuid)
    .constdata__ZTV23QDeclarativeContactName 0x0003d628   Section       60  moc_qdeclarativecontactname_p.o(.constdata__ZTV23QDeclarativeContactName)
    .constdata__ZTV23QDeclarativeContactNote 0x0003d664   Section       60  moc_qdeclarativecontactnote_p.o(.constdata__ZTV23QDeclarativeContactNote)
    .constdata__ZTV24QDeclarativeContactHobby 0x0003d6a0   Section       60  moc_qdeclarativecontacthobby_p.o(.constdata__ZTV24QDeclarativeContactHobby)
    .constdata__ZTV24QDeclarativeContactModel 0x0003d6dc   Section      200  moc_qdeclarativecontactmodel_p.o(.constdata__ZTV24QDeclarativeContactModel)
    .constdata__ZTV25QDeclarativeContactAvatar 0x0003d7a4   Section       60  moc_qdeclarativecontactavatar_p.o(.constdata__ZTV25QDeclarativeContactAvatar)
    .constdata__ZTV25QDeclarativeContactDetail 0x0003d7e0   Section       60  moc_qdeclarativecontactdetail_p.o(.constdata__ZTV25QDeclarativeContactDetail)
    .constdata__ZTV25QDeclarativeContactFamily 0x0003d81c   Section       60  moc_qdeclarativecontactfamily_p.o(.constdata__ZTV25QDeclarativeContactFamily)
    .constdata__ZTV25QDeclarativeContactFilter 0x0003d858   Section       60  moc_qdeclarativecontactfilter_p.o(.constdata__ZTV25QDeclarativeContactFilter)
    .constdata__ZTV25QDeclarativeContactGender 0x0003d894   Section       60  moc_qdeclarativecontactgender_p.o(.constdata__ZTV25QDeclarativeContactGender)
    .constdata__ZTV26QAbstractDynamicMetaObject 0x0003d8d0   Section       24  qdeclarativeopenmetaobject.o(.constdata__ZTV26QAbstractDynamicMetaObject)
    .constdata__ZTV26QDeclarativeContactAddress 0x0003d8e8   Section       60  moc_qdeclarativecontactaddress_p.o(.constdata__ZTV26QDeclarativeContactAddress)
    .constdata__ZTV26QDeclarativeOpenMetaObject 0x0003d924   Section       44  qdeclarativeopenmetaobject.o(.constdata__ZTV26QDeclarativeOpenMetaObject)
    .constdata__ZTV27QDeclarativeContactBirthday 0x0003d950   Section       60  moc_qdeclarativecontactbirthday_p.o(.constdata__ZTV27QDeclarativeContactBirthday)
    .constdata__ZTV27QDeclarativeContactFavorite 0x0003d98c   Section       60  moc_qdeclarativecontactfavorite_p.o(.constdata__ZTV27QDeclarativeContactFavorite)
    .constdata__ZTV27QDeclarativeContactNickname 0x0003d9c8   Section       60  moc_qdeclarativecontactnickname_p.o(.constdata__ZTV27QDeclarativeContactNickname)
    .constdata__ZTV27QDeclarativeContactPresence 0x0003da04   Section       60  moc_qdeclarativecontactpresence_p.o(.constdata__ZTV27QDeclarativeContactPresence)
    .constdata__ZTV27QDeclarativeContactRingtone 0x0003da40   Section       60  moc_qdeclarativecontactringtone_p.o(.constdata__ZTV27QDeclarativeContactRingtone)
    .constdata__ZTV28QDeclarativeContactFetchHint 0x0003da7c   Section       56  moc_qdeclarativecontactfetchhint_p.o(.constdata__ZTV28QDeclarativeContactFetchHint)
    .constdata__ZTV28QDeclarativeContactSortOrder 0x0003dab4   Section       88  moc_qdeclarativecontactsortorder_p.o(.constdata__ZTV28QDeclarativeContactSortOrder)
    .constdata__ZTV28QDeclarativeContactTimestamp 0x0003db0c   Section       60  moc_qdeclarativecontacttimestamp_p.o(.constdata__ZTV28QDeclarativeContactTimestamp)
    .constdata__ZTV29ContactThumbnailImageProvider 0x0003db48   Section       24  qdeclarativecontactimageprovider.o(.constdata__ZTV29ContactThumbnailImageProvider)
    .constdata__ZTV29QDeclarativeContactMetaObject 0x0003db60   Section       44  qdeclarativecontactmetaobject.o(.constdata__ZTV29QDeclarativeContactMetaObject)
    .constdata__ZTV29QDeclarativeContactSyncTarget 0x0003db8c   Section       60  moc_qdeclarativecontactsynctarget_p.o(.constdata__ZTV29QDeclarativeContactSyncTarget)
    .constdata__ZTV30QDeclarativeContactAnniversary 0x0003dbc8   Section       60  moc_qdeclarativecontactanniversary_p.o(.constdata__ZTV30QDeclarativeContactAnniversary)
    .constdata__ZTV30QDeclarativeContactGeoLocation 0x0003dc04   Section       60  moc_qdeclarativecontactgeolocation_p.o(.constdata__ZTV30QDeclarativeContactGeoLocation)
    .constdata__ZTV30QDeclarativeContactPhoneNumber 0x0003dc40   Section       60  moc_qdeclarativecontactphonenumber_p.o(.constdata__ZTV30QDeclarativeContactPhoneNumber)
    .constdata__ZTV30QDeclarativeContactUnionFilter 0x0003dc7c   Section       60  moc_qdeclarativecontactunionfilter_p.o(.constdata__ZTV30QDeclarativeContactUnionFilter)
    .constdata__ZTV31QDeclarativeContactActionFilter 0x0003dcb8   Section       60  moc_qdeclarativecontactactionfilter_p.o(.constdata__ZTV31QDeclarativeContactActionFilter)
    .constdata__ZTV31QDeclarativeContactDetailFilter 0x0003dcf4   Section       92  moc_qdeclarativecontactdetailfilter_p.o(.constdata__ZTV31QDeclarativeContactDetailFilter)
    .constdata__ZTV31QDeclarativeContactDisplayLabel 0x0003dd50   Section       60  moc_qdeclarativecontactdisplaylabel_p.o(.constdata__ZTV31QDeclarativeContactDisplayLabel)
    .constdata__ZTV31QDeclarativeContactEmailAddress 0x0003dd8c   Section       60  moc_qdeclarativecontactemailaddress_p.o(.constdata__ZTV31QDeclarativeContactEmailAddress)
    .constdata__ZTV31QDeclarativeContactOrganization 0x0003ddc8   Section       60  moc_qdeclarativecontactorganization_p.o(.constdata__ZTV31QDeclarativeContactOrganization)
    .constdata__ZTV31QDeclarativeContactRelationship 0x0003de04   Section       56  moc_qdeclarativecontactrelationship_p.o(.constdata__ZTV31QDeclarativeContactRelationship)
    .constdata__ZTV32QDeclarativeContactInvalidFilter 0x0003de3c   Section       60  moc_qdeclarativecontactinvalidfilter_p.o(.constdata__ZTV32QDeclarativeContactInvalidFilter)
    .constdata__ZTV32QDeclarativeContactLocalIdFilter 0x0003de78   Section       60  moc_qdeclarativecontactlocalidfilter_p.o(.constdata__ZTV32QDeclarativeContactLocalIdFilter)
    .constdata__ZTV32QDeclarativeContactOnlineAccount 0x0003deb4   Section       60  moc_qdeclarativecontactonlineaccount_p.o(.constdata__ZTV32QDeclarativeContactOnlineAccount)
    .constdata__ZTV33QDeclarativeContactGlobalPresence 0x0003def0   Section       60  moc_qdeclarativecontactglobalpresence_p.o(.constdata__ZTV33QDeclarativeContactGlobalPresence)
    .constdata__ZTV34QDeclarativeContactChangeLogFilter 0x0003df2c   Section       60  moc_qdeclarativecontactchangelogfilter_p.o(.constdata__ZTV34QDeclarativeContactChangeLogFilter)
    .constdata__ZTV36QDeclarativeContactDetailRangeFilter 0x0003df68   Section       92  moc_qdeclarativecontactdetailrangefilter_p.o(.constdata__ZTV36QDeclarativeContactDetailRangeFilter)
    .constdata__ZTV36QDeclarativeContactRelationshipModel 0x0003dfc4   Section      168  moc_qdeclarativecontactrelationshipmodel_p.o(.constdata__ZTV36QDeclarativeContactRelationshipModel)
    .constdata__ZTV37QDeclarativeContactIntersectionFilter 0x0003e06c   Section       60  moc_qdeclarativecontactintersectionfilter_p.o(.constdata__ZTV37QDeclarativeContactIntersectionFilter)
    .constdata__ZTV37QDeclarativeContactRelationshipFilter 0x0003e0a8   Section       60  moc_qdeclarativecontactrelationshipfilter_p.o(.constdata__ZTV37QDeclarativeContactRelationshipFilter)
    .constdata__ZTVN19QDeclarativePrivate19QDeclarativeElementI19QDeclarativeContactEE 0x0003e0e4   Section       56  plugin.o(.constdata__ZTVN19QDeclarativePrivate19QDeclarativeElementI19QDeclarativeContactEE)
    .constdata__ZTVN19QDeclarativePrivate19QDeclarativeElementI22QDeclarativeContactTagEE 0x0003e11c   Section       60  plugin.o(.constdata__ZTVN19QDeclarativePrivate19QDeclarativeElementI22QDeclarativeContactTagEE)
    .constdata__ZTVN19QDeclarativePrivate19QDeclarativeElementI22QDeclarativeContactUrlEE 0x0003e158   Section       60  plugin.o(.constdata__ZTVN19QDeclarativePrivate19QDeclarativeElementI22QDeclarativeContactUrlEE)
    .constdata__ZTVN19QDeclarativePrivate19QDeclarativeElementI23QDeclarativeContactGuidEE 0x0003e194   Section       60  plugin.o(.constdata__ZTVN19QDeclarativePrivate19QDeclarativeElementI23QDeclarativeContactGuidEE)
    .constdata__ZTVN19QDeclarativePrivate19QDeclarativeElementI23QDeclarativeContactNameEE 0x0003e1d0   Section       60  plugin.o(.constdata__ZTVN19QDeclarativePrivate19QDeclarativeElementI23QDeclarativeContactNameEE)
    .constdata__ZTVN19QDeclarativePrivate19QDeclarativeElementI23QDeclarativeContactNoteEE 0x0003e20c   Section       60  plugin.o(.constdata__ZTVN19QDeclarativePrivate19QDeclarativeElementI23QDeclarativeContactNoteEE)
    .constdata__ZTVN19QDeclarativePrivate19QDeclarativeElementI24QDeclarativeContactHobbyEE 0x0003e248   Section       60  plugin.o(.constdata__ZTVN19QDeclarativePrivate19QDeclarativeElementI24QDeclarativeContactHobbyEE)
    .constdata__ZTVN19QDeclarativePrivate19QDeclarativeElementI24QDeclarativeContactModelEE 0x0003e284   Section      200  plugin.o(.constdata__ZTVN19QDeclarativePrivate19QDeclarativeElementI24QDeclarativeContactModelEE)
    .constdata__ZTVN19QDeclarativePrivate19QDeclarativeElementI25QDeclarativeContactAvatarEE 0x0003e34c   Section       60  plugin.o(.constdata__ZTVN19QDeclarativePrivate19QDeclarativeElementI25QDeclarativeContactAvatarEE)
    .constdata__ZTVN19QDeclarativePrivate19QDeclarativeElementI25QDeclarativeContactDetailEE 0x0003e388   Section       60  plugin.o(.constdata__ZTVN19QDeclarativePrivate19QDeclarativeElementI25QDeclarativeContactDetailEE)
    .constdata__ZTVN19QDeclarativePrivate19QDeclarativeElementI25QDeclarativeContactFamilyEE 0x0003e3c4   Section       60  plugin.o(.constdata__ZTVN19QDeclarativePrivate19QDeclarativeElementI25QDeclarativeContactFamilyEE)
    .constdata__ZTVN19QDeclarativePrivate19QDeclarativeElementI25QDeclarativeContactFilterEE 0x0003e400   Section       60  plugin.o(.constdata__ZTVN19QDeclarativePrivate19QDeclarativeElementI25QDeclarativeContactFilterEE)
    .constdata__ZTVN19QDeclarativePrivate19QDeclarativeElementI25QDeclarativeContactGenderEE 0x0003e43c   Section       60  plugin.o(.constdata__ZTVN19QDeclarativePrivate19QDeclarativeElementI25QDeclarativeContactGenderEE)
    .constdata__ZTVN19QDeclarativePrivate19QDeclarativeElementI26QDeclarativeContactAddressEE 0x0003e478   Section       60  plugin.o(.constdata__ZTVN19QDeclarativePrivate19QDeclarativeElementI26QDeclarativeContactAddressEE)
    .constdata__ZTVN19QDeclarativePrivate19QDeclarativeElementI27QDeclarativeContactBirthdayEE 0x0003e4b4   Section       60  plugin.o(.constdata__ZTVN19QDeclarativePrivate19QDeclarativeElementI27QDeclarativeContactBirthdayEE)
    .constdata__ZTVN19QDeclarativePrivate19QDeclarativeElementI27QDeclarativeContactFavoriteEE 0x0003e4f0   Section       60  plugin.o(.constdata__ZTVN19QDeclarativePrivate19QDeclarativeElementI27QDeclarativeContactFavoriteEE)
    .constdata__ZTVN19QDeclarativePrivate19QDeclarativeElementI27QDeclarativeContactNicknameEE 0x0003e52c   Section       60  plugin.o(.constdata__ZTVN19QDeclarativePrivate19QDeclarativeElementI27QDeclarativeContactNicknameEE)
    .constdata__ZTVN19QDeclarativePrivate19QDeclarativeElementI27QDeclarativeContactPresenceEE 0x0003e568   Section       60  plugin.o(.constdata__ZTVN19QDeclarativePrivate19QDeclarativeElementI27QDeclarativeContactPresenceEE)
    .constdata__ZTVN19QDeclarativePrivate19QDeclarativeElementI27QDeclarativeContactRingtoneEE 0x0003e5a4   Section       60  plugin.o(.constdata__ZTVN19QDeclarativePrivate19QDeclarativeElementI27QDeclarativeContactRingtoneEE)
    .constdata__ZTVN19QDeclarativePrivate19QDeclarativeElementI28QDeclarativeContactFetchHintEE 0x0003e5e0   Section       56  plugin.o(.constdata__ZTVN19QDeclarativePrivate19QDeclarativeElementI28QDeclarativeContactFetchHintEE)
    .constdata__ZTVN19QDeclarativePrivate19QDeclarativeElementI28QDeclarativeContactSortOrderEE 0x0003e618   Section       88  plugin.o(.constdata__ZTVN19QDeclarativePrivate19QDeclarativeElementI28QDeclarativeContactSortOrderEE)
    .constdata__ZTVN19QDeclarativePrivate19QDeclarativeElementI28QDeclarativeContactTimestampEE 0x0003e670   Section       60  plugin.o(.constdata__ZTVN19QDeclarativePrivate19QDeclarativeElementI28QDeclarativeContactTimestampEE)
    .constdata__ZTVN19QDeclarativePrivate19QDeclarativeElementI29QDeclarativeContactSyncTargetEE 0x0003e6ac   Section       60  plugin.o(.constdata__ZTVN19QDeclarativePrivate19QDeclarativeElementI29QDeclarativeContactSyncTargetEE)
    .constdata__ZTVN19QDeclarativePrivate19QDeclarativeElementI30QDeclarativeContactAnniversaryEE 0x0003e6e8   Section       60  plugin.o(.constdata__ZTVN19QDeclarativePrivate19QDeclarativeElementI30QDeclarativeContactAnniversaryEE)
    .constdata__ZTVN19QDeclarativePrivate19QDeclarativeElementI30QDeclarativeContactGeoLocationEE 0x0003e724   Section       60  plugin.o(.constdata__ZTVN19QDeclarativePrivate19QDeclarativeElementI30QDeclarativeContactGeoLocationEE)
    .constdata__ZTVN19QDeclarativePrivate19QDeclarativeElementI30QDeclarativeContactPhoneNumberEE 0x0003e760   Section       60  plugin.o(.constdata__ZTVN19QDeclarativePrivate19QDeclarativeElementI30QDeclarativeContactPhoneNumberEE)
    .constdata__ZTVN19QDeclarativePrivate19QDeclarativeElementI30QDeclarativeContactUnionFilterEE 0x0003e79c   Section       60  plugin.o(.constdata__ZTVN19QDeclarativePrivate19QDeclarativeElementI30QDeclarativeContactUnionFilterEE)
    .constdata__ZTVN19QDeclarativePrivate19QDeclarativeElementI31QDeclarativeContactActionFilterEE 0x0003e7d8   Section       60  plugin.o(.constdata__ZTVN19QDeclarativePrivate19QDeclarativeElementI31QDeclarativeContactActionFilterEE)
    .constdata__ZTVN19QDeclarativePrivate19QDeclarativeElementI31QDeclarativeContactDetailFilterEE 0x0003e814   Section       92  plugin.o(.constdata__ZTVN19QDeclarativePrivate19QDeclarativeElementI31QDeclarativeContactDetailFilterEE)
    .constdata__ZTVN19QDeclarativePrivate19QDeclarativeElementI31QDeclarativeContactDisplayLabelEE 0x0003e870   Section       60  plugin.o(.constdata__ZTVN19QDeclarativePrivate19QDeclarativeElementI31QDeclarativeContactDisplayLabelEE)
    .constdata__ZTVN19QDeclarativePrivate19QDeclarativeElementI31QDeclarativeContactEmailAddressEE 0x0003e8ac   Section       60  plugin.o(.constdata__ZTVN19QDeclarativePrivate19QDeclarativeElementI31QDeclarativeContactEmailAddressEE)
    .constdata__ZTVN19QDeclarativePrivate19QDeclarativeElementI31QDeclarativeContactOrganizationEE 0x0003e8e8   Section       60  plugin.o(.constdata__ZTVN19QDeclarativePrivate19QDeclarativeElementI31QDeclarativeContactOrganizationEE)
    .constdata__ZTVN19QDeclarativePrivate19QDeclarativeElementI31QDeclarativeContactRelationshipEE 0x0003e924   Section       56  plugin.o(.constdata__ZTVN19QDeclarativePrivate19QDeclarativeElementI31QDeclarativeContactRelationshipEE)
    .constdata__ZTVN19QDeclarativePrivate19QDeclarativeElementI32QDeclarativeContactLocalIdFilterEE 0x0003e95c   Section       60  plugin.o(.constdata__ZTVN19QDeclarativePrivate19QDeclarativeElementI32QDeclarativeContactLocalIdFilterEE)
    .constdata__ZTVN19QDeclarativePrivate19QDeclarativeElementI32QDeclarativeContactOnlineAccountEE 0x0003e998   Section       60  plugin.o(.constdata__ZTVN19QDeclarativePrivate19QDeclarativeElementI32QDeclarativeContactOnlineAccountEE)
    .constdata__ZTVN19QDeclarativePrivate19QDeclarativeElementI33QDeclarativeContactGlobalPresenceEE 0x0003e9d4   Section       60  plugin.o(.constdata__ZTVN19QDeclarativePrivate19QDeclarativeElementI33QDeclarativeContactGlobalPresenceEE)
    .constdata__ZTVN19QDeclarativePrivate19QDeclarativeElementI34QDeclarativeContactChangeLogFilterEE 0x0003ea10   Section       60  plugin.o(.constdata__ZTVN19QDeclarativePrivate19QDeclarativeElementI34QDeclarativeContactChangeLogFilterEE)
    .constdata__ZTVN19QDeclarativePrivate19QDeclarativeElementI36QDeclarativeContactDetailRangeFilterEE 0x0003ea4c   Section       92  plugin.o(.constdata__ZTVN19QDeclarativePrivate19QDeclarativeElementI36QDeclarativeContactDetailRangeFilterEE)
    .constdata__ZTVN19QDeclarativePrivate19QDeclarativeElementI37QDeclarativeContactIntersectionFilterEE 0x0003eaa8   Section       60  plugin.o(.constdata__ZTVN19QDeclarativePrivate19QDeclarativeElementI37QDeclarativeContactIntersectionFilterEE)
    .constdata__ZTVN19QDeclarativePrivate19QDeclarativeElementI37QDeclarativeContactRelationshipFilterEE 0x0003eae4   Section       60  plugin.o(.constdata__ZTVN19QDeclarativePrivate19QDeclarativeElementI37QDeclarativeContactRelationshipFilterEE)
    .conststring$3                           0x0003eb20   Data           0  qdeclarativecontactmetaobject.o(.conststring)
    .conststring                             0x0003eb20   Section      466  qdeclarativecontactmetaobject.o(.conststring)
    __ARM_d__Z15qmlRegisterTypeI19QDeclarativeContactEiPKciiS2_$55 0x0003ece8   Data           0  plugin.o(__ARM_d__Z15qmlRegisterTypeI19QDeclarativeContactEiPKciiS2_)
    __ARM_d__Z15qmlRegisterTypeI19QDeclarativeContactEiPKciiS2_ 0x0003ece8   Section       76  plugin.o(__ARM_d__Z15qmlRegisterTypeI19QDeclarativeContactEiPKciiS2_)
    __ARM_d__Z15qmlRegisterTypeI22QDeclarativeContactTagEiPKciiS2_$133 0x0003ed34   Data           0  plugin.o(__ARM_d__Z15qmlRegisterTypeI22QDeclarativeContactTagEiPKciiS2_)
    __ARM_d__Z15qmlRegisterTypeI22QDeclarativeContactTagEiPKciiS2_ 0x0003ed34   Section       76  plugin.o(__ARM_d__Z15qmlRegisterTypeI22QDeclarativeContactTagEiPKciiS2_)
    __ARM_d__Z15qmlRegisterTypeI22QDeclarativeContactUrlEiPKciiS2_$139 0x0003ed80   Data           0  plugin.o(__ARM_d__Z15qmlRegisterTypeI22QDeclarativeContactUrlEiPKciiS2_)
    __ARM_d__Z15qmlRegisterTypeI22QDeclarativeContactUrlEiPKciiS2_ 0x0003ed80   Section       76  plugin.o(__ARM_d__Z15qmlRegisterTypeI22QDeclarativeContactUrlEiPKciiS2_)
    __ARM_d__Z15qmlRegisterTypeI23QDeclarativeContactGuidEiPKciiS2_$103 0x0003edcc   Data           0  plugin.o(__ARM_d__Z15qmlRegisterTypeI23QDeclarativeContactGuidEiPKciiS2_)
    __ARM_d__Z15qmlRegisterTypeI23QDeclarativeContactGuidEiPKciiS2_ 0x0003edcc   Section       76  plugin.o(__ARM_d__Z15qmlRegisterTypeI23QDeclarativeContactGuidEiPKciiS2_)
    __ARM_d__Z15qmlRegisterTypeI23QDeclarativeContactNameEiPKciiS2_$106 0x0003ee18   Data           0  plugin.o(__ARM_d__Z15qmlRegisterTypeI23QDeclarativeContactNameEiPKciiS2_)
    __ARM_d__Z15qmlRegisterTypeI23QDeclarativeContactNameEiPKciiS2_ 0x0003ee18   Section       76  plugin.o(__ARM_d__Z15qmlRegisterTypeI23QDeclarativeContactNameEiPKciiS2_)
    __ARM_d__Z15qmlRegisterTypeI23QDeclarativeContactNoteEiPKciiS2_$112 0x0003ee64   Data           0  plugin.o(__ARM_d__Z15qmlRegisterTypeI23QDeclarativeContactNoteEiPKciiS2_)
    __ARM_d__Z15qmlRegisterTypeI23QDeclarativeContactNoteEiPKciiS2_ 0x0003ee64   Section       76  plugin.o(__ARM_d__Z15qmlRegisterTypeI23QDeclarativeContactNoteEiPKciiS2_)
    __ARM_d__Z15qmlRegisterTypeI24QDeclarativeContactHobbyEiPKciiS2_$142 0x0003eeb0   Data           0  plugin.o(__ARM_d__Z15qmlRegisterTypeI24QDeclarativeContactHobbyEiPKciiS2_)
    __ARM_d__Z15qmlRegisterTypeI24QDeclarativeContactHobbyEiPKciiS2_ 0x0003eeb0   Section       76  plugin.o(__ARM_d__Z15qmlRegisterTypeI24QDeclarativeContactHobbyEiPKciiS2_)
    __ARM_d__Z15qmlRegisterTypeI24QDeclarativeContactModelEiPKciiS2_$52 0x0003eefc   Data           0  plugin.o(__ARM_d__Z15qmlRegisterTypeI24QDeclarativeContactModelEiPKciiS2_)
    __ARM_d__Z15qmlRegisterTypeI24QDeclarativeContactModelEiPKciiS2_ 0x0003eefc   Section       76  plugin.o(__ARM_d__Z15qmlRegisterTypeI24QDeclarativeContactModelEiPKciiS2_)
    __ARM_d__Z15qmlRegisterTypeI25QDeclarativeContactAvatarEiPKciiS2_$76 0x0003ef48   Data           0  plugin.o(__ARM_d__Z15qmlRegisterTypeI25QDeclarativeContactAvatarEiPKciiS2_)
    __ARM_d__Z15qmlRegisterTypeI25QDeclarativeContactAvatarEiPKciiS2_ 0x0003ef48   Section       76  plugin.o(__ARM_d__Z15qmlRegisterTypeI25QDeclarativeContactAvatarEiPKciiS2_)
    __ARM_d__Z15qmlRegisterTypeI25QDeclarativeContactDetailEiPKciiS2_$67 0x0003ef94   Data           0  plugin.o(__ARM_d__Z15qmlRegisterTypeI25QDeclarativeContactDetailEiPKciiS2_)
    __ARM_d__Z15qmlRegisterTypeI25QDeclarativeContactDetailEiPKciiS2_ 0x0003ef94   Section       76  plugin.o(__ARM_d__Z15qmlRegisterTypeI25QDeclarativeContactDetailEiPKciiS2_)
    __ARM_d__Z15qmlRegisterTypeI25QDeclarativeContactFamilyEiPKciiS2_$88 0x0003efe0   Data           0  plugin.o(__ARM_d__Z15qmlRegisterTypeI25QDeclarativeContactFamilyEiPKciiS2_)
    __ARM_d__Z15qmlRegisterTypeI25QDeclarativeContactFamilyEiPKciiS2_ 0x0003efe0   Section       76  plugin.o(__ARM_d__Z15qmlRegisterTypeI25QDeclarativeContactFamilyEiPKciiS2_)
    __ARM_d__Z15qmlRegisterTypeI25QDeclarativeContactFilterEiPKciiS2_$145 0x0003f02c   Data           0  plugin.o(__ARM_d__Z15qmlRegisterTypeI25QDeclarativeContactFilterEiPKciiS2_)
    __ARM_d__Z15qmlRegisterTypeI25QDeclarativeContactFilterEiPKciiS2_ 0x0003f02c   Section       76  plugin.o(__ARM_d__Z15qmlRegisterTypeI25QDeclarativeContactFilterEiPKciiS2_)
    __ARM_d__Z15qmlRegisterTypeI25QDeclarativeContactGenderEiPKciiS2_$94 0x0003f078   Data           0  plugin.o(__ARM_d__Z15qmlRegisterTypeI25QDeclarativeContactGenderEiPKciiS2_)
    __ARM_d__Z15qmlRegisterTypeI25QDeclarativeContactGenderEiPKciiS2_ 0x0003f078   Section       76  plugin.o(__ARM_d__Z15qmlRegisterTypeI25QDeclarativeContactGenderEiPKciiS2_)
    __ARM_d__Z15qmlRegisterTypeI26QDeclarativeContactAddressEiPKciiS2_$70 0x0003f0c4   Data           0  plugin.o(__ARM_d__Z15qmlRegisterTypeI26QDeclarativeContactAddressEiPKciiS2_)
    __ARM_d__Z15qmlRegisterTypeI26QDeclarativeContactAddressEiPKciiS2_ 0x0003f0c4   Section       76  plugin.o(__ARM_d__Z15qmlRegisterTypeI26QDeclarativeContactAddressEiPKciiS2_)
    __ARM_d__Z15qmlRegisterTypeI27QDeclarativeContactBirthdayEiPKciiS2_$79 0x0003f110   Data           0  plugin.o(__ARM_d__Z15qmlRegisterTypeI27QDeclarativeContactBirthdayEiPKciiS2_)
    __ARM_d__Z15qmlRegisterTypeI27QDeclarativeContactBirthdayEiPKciiS2_ 0x0003f110   Section       76  plugin.o(__ARM_d__Z15qmlRegisterTypeI27QDeclarativeContactBirthdayEiPKciiS2_)
    __ARM_d__Z15qmlRegisterTypeI27QDeclarativeContactFavoriteEiPKciiS2_$91 0x0003f15c   Data           0  plugin.o(__ARM_d__Z15qmlRegisterTypeI27QDeclarativeContactFavoriteEiPKciiS2_)
    __ARM_d__Z15qmlRegisterTypeI27QDeclarativeContactFavoriteEiPKciiS2_ 0x0003f15c   Section       76  plugin.o(__ARM_d__Z15qmlRegisterTypeI27QDeclarativeContactFavoriteEiPKciiS2_)
    __ARM_d__Z15qmlRegisterTypeI27QDeclarativeContactNicknameEiPKciiS2_$109 0x0003f1a8   Data           0  plugin.o(__ARM_d__Z15qmlRegisterTypeI27QDeclarativeContactNicknameEiPKciiS2_)
    __ARM_d__Z15qmlRegisterTypeI27QDeclarativeContactNicknameEiPKciiS2_ 0x0003f1a8   Section       76  plugin.o(__ARM_d__Z15qmlRegisterTypeI27QDeclarativeContactNicknameEiPKciiS2_)
    __ARM_d__Z15qmlRegisterTypeI27QDeclarativeContactPresenceEiPKciiS2_$124 0x0003f1f4   Data           0  plugin.o(__ARM_d__Z15qmlRegisterTypeI27QDeclarativeContactPresenceEiPKciiS2_)
    __ARM_d__Z15qmlRegisterTypeI27QDeclarativeContactPresenceEiPKciiS2_ 0x0003f1f4   Section       76  plugin.o(__ARM_d__Z15qmlRegisterTypeI27QDeclarativeContactPresenceEiPKciiS2_)
    __ARM_d__Z15qmlRegisterTypeI27QDeclarativeContactRingtoneEiPKciiS2_$127 0x0003f240   Data           0  plugin.o(__ARM_d__Z15qmlRegisterTypeI27QDeclarativeContactRingtoneEiPKciiS2_)
    __ARM_d__Z15qmlRegisterTypeI27QDeclarativeContactRingtoneEiPKciiS2_ 0x0003f240   Section       76  plugin.o(__ARM_d__Z15qmlRegisterTypeI27QDeclarativeContactRingtoneEiPKciiS2_)
    __ARM_d__Z15qmlRegisterTypeI28QDeclarativeContactFetchHintEiPKciiS2_$58 0x0003f28c   Data           0  plugin.o(__ARM_d__Z15qmlRegisterTypeI28QDeclarativeContactFetchHintEiPKciiS2_)
    __ARM_d__Z15qmlRegisterTypeI28QDeclarativeContactFetchHintEiPKciiS2_ 0x0003f28c   Section       76  plugin.o(__ARM_d__Z15qmlRegisterTypeI28QDeclarativeContactFetchHintEiPKciiS2_)
    __ARM_d__Z15qmlRegisterTypeI28QDeclarativeContactSortOrderEiPKciiS2_$64 0x0003f2d8   Data           0  plugin.o(__ARM_d__Z15qmlRegisterTypeI28QDeclarativeContactSortOrderEiPKciiS2_)
    __ARM_d__Z15qmlRegisterTypeI28QDeclarativeContactSortOrderEiPKciiS2_ 0x0003f2d8   Section       76  plugin.o(__ARM_d__Z15qmlRegisterTypeI28QDeclarativeContactSortOrderEiPKciiS2_)
    __ARM_d__Z15qmlRegisterTypeI28QDeclarativeContactTimestampEiPKciiS2_$136 0x0003f324   Data           0  plugin.o(__ARM_d__Z15qmlRegisterTypeI28QDeclarativeContactTimestampEiPKciiS2_)
    __ARM_d__Z15qmlRegisterTypeI28QDeclarativeContactTimestampEiPKciiS2_ 0x0003f324   Section       76  plugin.o(__ARM_d__Z15qmlRegisterTypeI28QDeclarativeContactTimestampEiPKciiS2_)
    __ARM_d__Z15qmlRegisterTypeI29QDeclarativeContactSyncTargetEiPKciiS2_$130 0x0003f370   Data           0  plugin.o(__ARM_d__Z15qmlRegisterTypeI29QDeclarativeContactSyncTargetEiPKciiS2_)
    __ARM_d__Z15qmlRegisterTypeI29QDeclarativeContactSyncTargetEiPKciiS2_ 0x0003f370   Section       76  plugin.o(__ARM_d__Z15qmlRegisterTypeI29QDeclarativeContactSyncTargetEiPKciiS2_)
    __ARM_d__Z15qmlRegisterTypeI30QDeclarativeContactAnniversaryEiPKciiS2_$73 0x0003f3bc   Data           0  plugin.o(__ARM_d__Z15qmlRegisterTypeI30QDeclarativeContactAnniversaryEiPKciiS2_)
    __ARM_d__Z15qmlRegisterTypeI30QDeclarativeContactAnniversaryEiPKciiS2_ 0x0003f3bc   Section       76  plugin.o(__ARM_d__Z15qmlRegisterTypeI30QDeclarativeContactAnniversaryEiPKciiS2_)
    __ARM_d__Z15qmlRegisterTypeI30QDeclarativeContactGeoLocationEiPKciiS2_$97 0x0003f408   Data           0  plugin.o(__ARM_d__Z15qmlRegisterTypeI30QDeclarativeContactGeoLocationEiPKciiS2_)
