ARM Linker, RVCT2.2 [Build 686]

================================================================================

Image Symbol Table

    Local Symbols

    Symbol Name                              Value     Ov Type        Size  Object(Section)

    ../../unhosted.s                         0x00000000   Number         0  switch8.o ABSOLUTE
    M:\\epoc32\\build\\euser\\c_e18a23aea4fd210f\\edll_lib\\armv5\\udeb\\uc_dll_.cpp 0x00000000   Number         0  uc_dll_.o ABSOLUTE
    M:\\sf\\os\\kernelhwsrv\\kernel\\eka\\compsupp\\rvct\\ucppinit.cpp 0x00000000   Number         0  ucppinit.o ABSOLUTE
    M:\epoc32\build\euser\c_e18a23aea4fd210f\edll_lib\armv5\udeb\uc_dll_.cpp 0x00000000   Number         0  uc_dll_.o ABSOLUTE
    M:\sf\os\kernelhwsrv\kernel\eka\compsupp\rvct\dllexp.cpp 0x00000000   Number         0  dllexp.o ABSOLUTE
    M:\sf\os\kernelhwsrv\kernel\eka\compsupp\rvct\ucppfini.cpp 0x00000000   Number         0  ucppfini.o ABSOLUTE
    M:\sf\os\kernelhwsrv\kernel\eka\compsupp\rvct\ucppinit.cpp 0x00000000   Number         0  ucppinit.o ABSOLUTE
    M:\sf\os\kernelhwsrv\kernel\eka\euser\epoc\arm\uc_dll.cpp 0x00000000   Number         0  uc_dll.o ABSOLUTE
    S:\sf\mw\qtmobility\plugins\declarative\gallery\qdeclarativedocumentgallery.cpp 0x00000000   Number         0  qdeclarativedocumentgallery.o ABSOLUTE
    S:\sf\mw\qtmobility\plugins\declarative\gallery\qdeclarativegallery.cpp 0x00000000   Number         0  qdeclarativegallery.o ABSOLUTE
    S:\sf\mw\qtmobility\plugins\declarative\gallery\qdeclarativegalleryfilter.cpp 0x00000000   Number         0  qdeclarativegalleryfilter.o ABSOLUTE
    S:\sf\mw\qtmobility\plugins\declarative\gallery\qdeclarativegalleryitem.cpp 0x00000000   Number         0  qdeclarativegalleryitem.o ABSOLUTE
    S:\sf\mw\qtmobility\plugins\declarative\gallery\qdeclarativegalleryquerymodel.cpp 0x00000000   Number         0  qdeclarativegalleryquerymodel.o ABSOLUTE
    S:\sf\mw\qtmobility\plugins\declarative\gallery\qdeclarativegallerytype.cpp 0x00000000   Number         0  qdeclarativegallerytype.o ABSOLUTE
    .emb_text                                0x00008000   Section       40  uc_dll_.o(.emb_text)
    Symbian$$eit_base                        0x00008014   Data           4  uc_dll_.o(.emb_text)
    Symbian$$eit_limit                       0x00008018   Data           4  uc_dll_.o(.emb_text)
    Symbian$$code_seg_base                   0x0000801c   Data           4  uc_dll_.o(.emb_text)
    Symbian$$code_seg_limit                  0x00008020   Data           4  uc_dll_.o(.emb_text)
    Symbian$$reserved                        0x00008024   Data           4  uc_dll_.o(.emb_text)
    .emb_text                                0x00008028   Section       52  ucppinit.o(.emb_text)
    loop                                     0x0000803c   ARM Code       0  ucppinit.o(.emb_text)
    ret                                      0x00008044   ARM Code       0  ucppinit.o(.emb_text)
    base                                     0x00008054   Data           0  ucppinit.o(.emb_text)
    limit                                    0x00008058   Data           0  ucppinit.o(.emb_text)
    .text                                    0x000086e4   Section      492  qdeclarativedocumentgallery.o(.text)
    QtMobility::qt_declarativeDocumentGalleryInstance() 0x00008805   Thumb Code   164  qdeclarativedocumentgallery.o(.text)
    .text                                    0x000088d0   Section      272  qdeclarativegallery.o(.text)
    .text                                    0x000089e0   Section     4128  qdeclarativegalleryfilter.o(.text)
    |L1.3000|                                0x00009598   Data           0  qdeclarativegalleryfilter.o(.text)
    .text                                    0x00009a00   Section     3536  qdeclarativegalleryitem.o(.text)
    .text                                    0x0000a7d0   Section     6696  qdeclarativegalleryquerymodel.o(.text)
    |L1.1016|                                0x0000abc8   Data           0  qdeclarativegalleryquerymodel.o(.text)
    |L1.1036|                                0x0000abdc   Data           0  qdeclarativegalleryquerymodel.o(.text)
    |L1.2324|                                0x0000b0e4   Data           0  qdeclarativegalleryquerymodel.o(.text)
    |L1.2332|                                0x0000b0ec   Data           0  qdeclarativegalleryquerymodel.o(.text)
    .text                                    0x0000c1f8   Section     3340  qdeclarativegallerytype.o(.text)
    .text                                    0x0000cf04   Section       24  switch8.o(.text)
    .text                                    0x0000cf1c   Section       80  uc_dll.o(.text)
    .text                                    0x0000cf6c   Section      180  ucppfini.o(.text)
    .text                                    0x0000d020   Section        4  dllexp.o(.text)
    .text.clean                              0x0000d024   Section       64  qdeclarativedocumentgallery.o(.text.clean)
    .text.clean                              0x0000d064   Section       28  qdeclarativegallery.o(.text.clean)
    .text.clean                              0x0000d080   Section      194  qdeclarativegalleryfilter.o(.text.clean)
    .text.clean                              0x0000d142   Section      266  qdeclarativegalleryitem.o(.text.clean)
    .text.clean                              0x0000d24c   Section      692  qdeclarativegalleryquerymodel.o(.text.clean)
    .text.clean                              0x0000d500   Section      258  qdeclarativegallerytype.o(.text.clean)
    i._Z28qScriptValueFromValue_helperP13QScriptEngineiPKv 0x0000d602   Section       38  qdeclarativegalleryquerymodel.o(i._Z28qScriptValueFromValue_helperP13QScriptEngineiPKv)
    i._ZN10QByteArrayC1ERKS_                 0x0000d628   Section       20  qdeclarativegallery.o(i._ZN10QByteArrayC1ERKS_)
    i._ZN10QByteArrayD1Ev                    0x0000d63c   Section       24  qdeclarativedocumentgallery.o(i._ZN10QByteArrayD1Ev)
    i._ZN10QtMobility25QGalleryDeclarativeModule13registerTypesEPKc 0x0000d654   Section      632  qdeclarativegallery.o(i._ZN10QtMobility25QGalleryDeclarativeModule13registerTypesEPKc)
    i._ZN10QtMobility25QGalleryDeclarativeModule13registerTypesEPKc.clean 0x0000d8cc   Section       10  qdeclarativegallery.o(i._ZN10QtMobility25QGalleryDeclarativeModule13registerTypesEPKc.clean)
    i._ZN10QtMobility25QGalleryDeclarativeModuleD0Ev 0x0000d8d6   Section       24  qdeclarativegallery.o(i._ZN10QtMobility25QGalleryDeclarativeModuleD0Ev)
    i._ZN10QtMobility25QGalleryDeclarativeModuleD1Ev 0x0000d8ee   Section       14  qdeclarativegallery.o(i._ZN10QtMobility25QGalleryDeclarativeModuleD1Ev)
    i._ZN10QtMobility27QDeclarativeDocumentGalleryD0Ev 0x0000d8fc   Section       24  qdeclarativedocumentgallery.o(i._ZN10QtMobility27QDeclarativeDocumentGalleryD0Ev)
    i._ZN10QtMobility27QDeclarativeDocumentGalleryD1Ev 0x0000d914   Section       14  qdeclarativedocumentgallery.o(i._ZN10QtMobility27QDeclarativeDocumentGalleryD1Ev)
    i._ZN10QtMobility29QDeclarativeGalleryFilterBaseC2EP7QObject 0x0000d924   Section       28  qdeclarativegallery.o(i._ZN10QtMobility29QDeclarativeGalleryFilterBaseC2EP7QObject)
    i._ZN10QtMobility29QDeclarativeGalleryFilterBaseD0Ev 0x0000d940   Section       22  qdeclarativegalleryfilter.o(i._ZN10QtMobility29QDeclarativeGalleryFilterBaseD0Ev)
    i._ZN10QtMobility29QDeclarativeGalleryFilterBaseD2Ev 0x0000d956   Section       14  qdeclarativegallery.o(i._ZN10QtMobility29QDeclarativeGalleryFilterBaseD2Ev)
    i._ZN10QtMobility29QDeclarativeGalleryQueryModel2trEPKcS2_ 0x0000d964   Section       28  qdeclarativegalleryquerymodel.o(i._ZN10QtMobility29QDeclarativeGalleryQueryModel2trEPKcS2_)
    i._ZN10QtMobility30QDeclarativeGalleryFilterGroupC2EP7QObject 0x0000d980   Section       72  qdeclarativegallery.o(i._ZN10QtMobility30QDeclarativeGalleryFilterGroupC2EP7QObject)
    i._ZN10QtMobility30QDeclarativeGalleryFilterGroupC2EP7QObject.clean 0x0000d9c8   Section       22  qdeclarativegallery.o(i._ZN10QtMobility30QDeclarativeGalleryFilterGroupC2EP7QObject.clean)
    i._ZN10QtMobility30QDeclarativeGalleryFilterGroupD0Ev 0x0000d9de   Section       22  qdeclarativegalleryfilter.o(i._ZN10QtMobility30QDeclarativeGalleryFilterGroupD0Ev)
    i._ZN10QtMobility30QDeclarativeGalleryFilterGroupD2Ev 0x0000d9f4   Section       52  qdeclarativegallery.o(i._ZN10QtMobility30QDeclarativeGalleryFilterGroupD2Ev)
    i._ZN10QtMobility30QDeclarativeGalleryFilterGroupD2Ev.clean 0x0000da28   Section       22  qdeclarativegallery.o(i._ZN10QtMobility30QDeclarativeGalleryFilterGroupD2Ev.clean)
    i._ZN10QtMobility30QDeclarativeGalleryFilterUnionD0Ev 0x0000da3e   Section       24  qdeclarativegalleryfilter.o(i._ZN10QtMobility30QDeclarativeGalleryFilterUnionD0Ev)
    i._ZN10QtMobility30QDeclarativeGalleryFilterUnionD1Ev 0x0000da56   Section       14  qdeclarativegallery.o(i._ZN10QtMobility30QDeclarativeGalleryFilterUnionD1Ev)
    i._ZN10QtMobility30QDeclarativeGalleryValueFilterC1ENS_14QGalleryFilter10ComparatorEP7QObject 0x0000da64   Section       52  qdeclarativegallery.o(i._ZN10QtMobility30QDeclarativeGalleryValueFilterC1ENS_14QGalleryFilter10ComparatorEP7QObject)
    i._ZN10QtMobility30QDeclarativeGalleryValueFilterC1ENS_14QGalleryFilter10ComparatorEP7QObject.clean 0x0000da98   Section       22  qdeclarativegallery.o(i._ZN10QtMobility30QDeclarativeGalleryValueFilterC1ENS_14QGalleryFilter10ComparatorEP7QObject.clean)
    i._ZN10QtMobility30QDeclarativeGalleryValueFilterD0Ev 0x0000daae   Section       22  qdeclarativegalleryfilter.o(i._ZN10QtMobility30QDeclarativeGalleryValueFilterD0Ev)
    i._ZN10QtMobility30QDeclarativeGalleryValueFilterD1Ev 0x0000dac4   Section       36  qdeclarativegallery.o(i._ZN10QtMobility30QDeclarativeGalleryValueFilterD1Ev)
    i._ZN10QtMobility30QDeclarativeGalleryValueFilterD1Ev.clean 0x0000dae8   Section       10  qdeclarativegallery.o(i._ZN10QtMobility30QDeclarativeGalleryValueFilterD1Ev.clean)
    i._ZN10QtMobility31QDeclarativeGalleryEqualsFilterD0Ev 0x0000daf2   Section       24  qdeclarativegalleryfilter.o(i._ZN10QtMobility31QDeclarativeGalleryEqualsFilterD0Ev)
    i._ZN10QtMobility31QDeclarativeGalleryEqualsFilterD1Ev 0x0000db0a   Section       14  qdeclarativegallery.o(i._ZN10QtMobility31QDeclarativeGalleryEqualsFilterD1Ev)
    i._ZN10QtMobility31QDeclarativeGalleryStringFilterC1ENS_14QGalleryFilter10ComparatorEP7QObject 0x0000db18   Section       52  qdeclarativegallery.o(i._ZN10QtMobility31QDeclarativeGalleryStringFilterC1ENS_14QGalleryFilter10ComparatorEP7QObject)
    i._ZN10QtMobility31QDeclarativeGalleryStringFilterC1ENS_14QGalleryFilter10ComparatorEP7QObject.clean 0x0000db4c   Section       22  qdeclarativegallery.o(i._ZN10QtMobility31QDeclarativeGalleryStringFilterC1ENS_14QGalleryFilter10ComparatorEP7QObject.clean)
    i._ZN10QtMobility31QDeclarativeGalleryStringFilterD0Ev 0x0000db62   Section       22  qdeclarativegalleryfilter.o(i._ZN10QtMobility31QDeclarativeGalleryStringFilterD0Ev)
    i._ZN10QtMobility31QDeclarativeGalleryStringFilterD1Ev 0x0000db78   Section       36  qdeclarativegallery.o(i._ZN10QtMobility31QDeclarativeGalleryStringFilterD1Ev)
    i._ZN10QtMobility31QDeclarativeGalleryStringFilterD1Ev.clean 0x0000db9c   Section       10  qdeclarativegallery.o(i._ZN10QtMobility31QDeclarativeGalleryStringFilterD1Ev.clean)
    i._ZN10QtMobility33QDeclarativeGalleryContainsFilterD0Ev 0x0000dba6   Section       24  qdeclarativegalleryfilter.o(i._ZN10QtMobility33QDeclarativeGalleryContainsFilterD0Ev)
    i._ZN10QtMobility33QDeclarativeGalleryContainsFilterD1Ev 0x0000dbbe   Section       14  qdeclarativegallery.o(i._ZN10QtMobility33QDeclarativeGalleryContainsFilterD1Ev)
    i._ZN10QtMobility33QDeclarativeGalleryEndsWithFilterD0Ev 0x0000dbcc   Section       24  qdeclarativegalleryfilter.o(i._ZN10QtMobility33QDeclarativeGalleryEndsWithFilterD0Ev)
    i._ZN10QtMobility33QDeclarativeGalleryEndsWithFilterD1Ev 0x0000dbe4   Section       14  qdeclarativegallery.o(i._ZN10QtMobility33QDeclarativeGalleryEndsWithFilterD1Ev)
    i._ZN10QtMobility33QDeclarativeGalleryLessThanFilterD0Ev 0x0000dbf2   Section       24  qdeclarativegalleryfilter.o(i._ZN10QtMobility33QDeclarativeGalleryLessThanFilterD0Ev)
    i._ZN10QtMobility33QDeclarativeGalleryLessThanFilterD1Ev 0x0000dc0a   Section       14  qdeclarativegallery.o(i._ZN10QtMobility33QDeclarativeGalleryLessThanFilterD1Ev)
    i._ZN10QtMobility33QDeclarativeGalleryWildcardFilterD0Ev 0x0000dc18   Section       24  qdeclarativegalleryfilter.o(i._ZN10QtMobility33QDeclarativeGalleryWildcardFilterD0Ev)
    i._ZN10QtMobility33QDeclarativeGalleryWildcardFilterD1Ev 0x0000dc30   Section       14  qdeclarativegallery.o(i._ZN10QtMobility33QDeclarativeGalleryWildcardFilterD1Ev)
    i._ZN10QtMobility35QDeclarativeGalleryStartsWithFilterD0Ev 0x0000dc3e   Section       24  qdeclarativegalleryfilter.o(i._ZN10QtMobility35QDeclarativeGalleryStartsWithFilterD0Ev)
    i._ZN10QtMobility35QDeclarativeGalleryStartsWithFilterD1Ev 0x0000dc56   Section       14  qdeclarativegallery.o(i._ZN10QtMobility35QDeclarativeGalleryStartsWithFilterD1Ev)
    i._ZN10QtMobility36QDeclarativeGalleryGreaterThanFilterD0Ev 0x0000dc64   Section       24  qdeclarativegalleryfilter.o(i._ZN10QtMobility36QDeclarativeGalleryGreaterThanFilterD0Ev)
    i._ZN10QtMobility36QDeclarativeGalleryGreaterThanFilterD1Ev 0x0000dc7c   Section       14  qdeclarativegallery.o(i._ZN10QtMobility36QDeclarativeGalleryGreaterThanFilterD1Ev)
    i._ZN10QtMobility37QDeclarativeGalleryFilterIntersectionD0Ev 0x0000dc8a   Section       24  qdeclarativegalleryfilter.o(i._ZN10QtMobility37QDeclarativeGalleryFilterIntersectionD0Ev)
    i._ZN10QtMobility37QDeclarativeGalleryFilterIntersectionD1Ev 0x0000dca2   Section       14  qdeclarativegallery.o(i._ZN10QtMobility37QDeclarativeGalleryFilterIntersectionD1Ev)
    i._ZN10QtMobility39QDeclarativeGalleryLessThanEqualsFilterD0Ev 0x0000dcb0   Section       24  qdeclarativegalleryfilter.o(i._ZN10QtMobility39QDeclarativeGalleryLessThanEqualsFilterD0Ev)
    i._ZN10QtMobility39QDeclarativeGalleryLessThanEqualsFilterD1Ev 0x0000dcc8   Section       14  qdeclarativegallery.o(i._ZN10QtMobility39QDeclarativeGalleryLessThanEqualsFilterD1Ev)
    i._ZN10QtMobility42QDeclarativeGalleryGreaterThanEqualsFilterD0Ev 0x0000dcd6   Section       24  qdeclarativegalleryfilter.o(i._ZN10QtMobility42QDeclarativeGalleryGreaterThanEqualsFilterD0Ev)
    i._ZN10QtMobility42QDeclarativeGalleryGreaterThanEqualsFilterD1Ev 0x0000dcee   Section       14  qdeclarativegallery.o(i._ZN10QtMobility42QDeclarativeGalleryGreaterThanEqualsFilterD1Ev)
    i._ZN11QModelIndexC1Ev                   0x0000dcfc   Section       16  qdeclarativegalleryquerymodel.o(i._ZN11QModelIndexC1Ev)
    i._ZN11QModelIndexD1Ev                   0x0000dd0c   Section        8  qdeclarativegalleryquerymodel.o(i._ZN11QModelIndexD1Ev)
    i._ZN11QStringListD1Ev                   0x0000dd14   Section       14  qdeclarativegalleryitem.o(i._ZN11QStringListD1Ev)
    i._ZN11QStringListaSERKS_                0x0000dd22   Section       66  qdeclarativegalleryquerymodel.o(i._ZN11QStringListaSERKS_)
    i._ZN15QBasicAtomicInt3refEv             0x0000dd64   Section       24  qdeclarativedocumentgallery.o(i._ZN15QBasicAtomicInt3refEv)
    i._ZN15QBasicAtomicInt5derefEv           0x0000dd7c   Section       24  qdeclarativedocumentgallery.o(i._ZN15QBasicAtomicInt5derefEv)
    i._ZN16QDeclarativeInfolsERK7QString     0x0000dd94   Section       80  qdeclarativegalleryquerymodel.o(i._ZN16QDeclarativeInfolsERK7QString)
    i._ZN16QDeclarativeInfolsERK7QString.clean 0x0000dde4   Section       20  qdeclarativegalleryquerymodel.o(i._ZN16QDeclarativeInfolsERK7QString.clean)
    i._ZN19QDeclarativePrivate12RegisterTypeD1Ev 0x0000ddf8   Section       20  qdeclarativegallery.o(i._ZN19QDeclarativePrivate12RegisterTypeD1Ev)
    i._ZN19QDeclarativePrivate19QDeclarativeElementIN10QtMobility30QDeclarativeGalleryFilterUnionEED0Ev 0x0000de0c   Section       22  qdeclarativegallery.o(i._ZN19QDeclarativePrivate19QDeclarativeElementIN10QtMobility30QDeclarativeGalleryFilterUnionEED0Ev)
    i._ZN19QDeclarativePrivate19QDeclarativeElementIN10QtMobility31QDeclarativeDocumentGalleryItemEED0Ev 0x0000de22   Section       22  qdeclarativegallery.o(i._ZN19QDeclarativePrivate19QDeclarativeElementIN10QtMobility31QDeclarativeDocumentGalleryItemEED0Ev)
    i._ZN19QDeclarativePrivate19QDeclarativeElementIN10QtMobility31QDeclarativeDocumentGalleryTypeEED0Ev 0x0000de38   Section       22  qdeclarativegallery.o(i._ZN19QDeclarativePrivate19QDeclarativeElementIN10QtMobility31QDeclarativeDocumentGalleryTypeEED0Ev)
    i._ZN19QDeclarativePrivate19QDeclarativeElementIN10QtMobility31QDeclarativeGalleryEqualsFilterEED0Ev 0x0000de4e   Section       22  qdeclarativegallery.o(i._ZN19QDeclarativePrivate19QDeclarativeElementIN10QtMobility31QDeclarativeGalleryEqualsFilterEED0Ev)
    i._ZN19QDeclarativePrivate19QDeclarativeElementIN10QtMobility32QDeclarativeDocumentGalleryModelEED0Ev 0x0000de64   Section       22  qdeclarativegallery.o(i._ZN19QDeclarativePrivate19QDeclarativeElementIN10QtMobility32QDeclarativeDocumentGalleryModelEED0Ev)
    i._ZN19QDeclarativePrivate19QDeclarativeElementIN10QtMobility33QDeclarativeGalleryContainsFilterEED0Ev 0x0000de7a   Section       22  qdeclarativegallery.o(i._ZN19QDeclarativePrivate19QDeclarativeElementIN10QtMobility33QDeclarativeGalleryContainsFilterEED0Ev)
    i._ZN19QDeclarativePrivate19QDeclarativeElementIN10QtMobility33QDeclarativeGalleryEndsWithFilterEED0Ev 0x0000de90   Section       22  qdeclarativegallery.o(i._ZN19QDeclarativePrivate19QDeclarativeElementIN10QtMobility33QDeclarativeGalleryEndsWithFilterEED0Ev)
    i._ZN19QDeclarativePrivate19QDeclarativeElementIN10QtMobility33QDeclarativeGalleryLessThanFilterEED0Ev 0x0000dea6   Section       22  qdeclarativegallery.o(i._ZN19QDeclarativePrivate19QDeclarativeElementIN10QtMobility33QDeclarativeGalleryLessThanFilterEED0Ev)
    i._ZN19QDeclarativePrivate19QDeclarativeElementIN10QtMobility33QDeclarativeGalleryWildcardFilterEED0Ev 0x0000debc   Section       22  qdeclarativegallery.o(i._ZN19QDeclarativePrivate19QDeclarativeElementIN10QtMobility33QDeclarativeGalleryWildcardFilterEED0Ev)
    i._ZN19QDeclarativePrivate19QDeclarativeElementIN10QtMobility35QDeclarativeGalleryStartsWithFilterEED0Ev 0x0000ded2   Section       22  qdeclarativegallery.o(i._ZN19QDeclarativePrivate19QDeclarativeElementIN10QtMobility35QDeclarativeGalleryStartsWithFilterEED0Ev)
    i._ZN19QDeclarativePrivate19QDeclarativeElementIN10QtMobility36QDeclarativeGalleryGreaterThanFilterEED0Ev 0x0000dee8   Section       22  qdeclarativegallery.o(i._ZN19QDeclarativePrivate19QDeclarativeElementIN10QtMobility36QDeclarativeGalleryGreaterThanFilterEED0Ev)
    i._ZN19QDeclarativePrivate19QDeclarativeElementIN10QtMobility37QDeclarativeGalleryFilterIntersectionEED0Ev 0x0000defe   Section       22  qdeclarativegallery.o(i._ZN19QDeclarativePrivate19QDeclarativeElementIN10QtMobility37QDeclarativeGalleryFilterIntersectionEED0Ev)
    i._ZN19QDeclarativePrivate19QDeclarativeElementIN10QtMobility39QDeclarativeGalleryLessThanEqualsFilterEED0Ev 0x0000df14   Section       22  qdeclarativegallery.o(i._ZN19QDeclarativePrivate19QDeclarativeElementIN10QtMobility39QDeclarativeGalleryLessThanEqualsFilterEED0Ev)
    i._ZN19QDeclarativePrivate19QDeclarativeElementIN10QtMobility42QDeclarativeGalleryGreaterThanEqualsFilterEED0Ev 0x0000df2a   Section       22  qdeclarativegallery.o(i._ZN19QDeclarativePrivate19QDeclarativeElementIN10QtMobility42QDeclarativeGalleryGreaterThanEqualsFilterEED0Ev)
    i._ZN5QPairIi7QStringEC1ERKS1_           0x0000df40   Section       24  qdeclarativegalleryquerymodel.o(i._ZN5QPairIi7QStringEC1ERKS1_)
    i._ZN5QPairIi7QStringED1Ev               0x0000df58   Section       16  qdeclarativegalleryquerymodel.o(i._ZN5QPairIi7QStringED1Ev)
    i._ZN7QStringC1ERK13QLatin1String        0x0000df68   Section       26  qdeclarativegalleryquerymodel.o(i._ZN7QStringC1ERK13QLatin1String)
    i._ZN7QStringC1ERKS_                     0x0000df82   Section       22  qdeclarativegalleryitem.o(i._ZN7QStringC1ERKS_)
    i._ZN7QStringC1Ev                        0x0000df98   Section       24  qdeclarativegallery.o(i._ZN7QStringC1Ev)
    i._ZN7QStringD1Ev                        0x0000dfb0   Section       24  qdeclarativedocumentgallery.o(i._ZN7QStringD1Ev)
    i._ZN8QVariantC1Ev                       0x0000dfc8   Section       38  qdeclarativegalleryquerymodel.o(i._ZN8QVariantC1Ev)
    i._ZNK11QModelIndex7isValidEv            0x0000dfee   Section       28  qdeclarativegalleryquerymodel.o(i._ZNK11QModelIndex7isValidEv)
    i._ZNK15QBasicAtomicInteqEi              0x0000e00a   Section       16  qdeclarativegalleryquerymodel.o(i._ZNK15QBasicAtomicInteqEi)
    i._ZNK15QBasicAtomicIntneEi              0x0000e01a   Section       16  qdeclarativegalleryquerymodel.o(i._ZNK15QBasicAtomicIntneEi)
    i._ZNK15QBasicAtomicIntntEv              0x0000e02a   Section       16  qdeclarativegallery.o(i._ZNK15QBasicAtomicIntntEv)
    i._ZNK7QString7isEmptyEv                 0x0000e03a   Section       18  qdeclarativegalleryquerymodel.o(i._ZNK7QString7isEmptyEv)
    i._ZNK7QStringneERKS_                    0x0000e04c   Section       20  qdeclarativegalleryfilter.o(i._ZNK7QStringneERKS_)
    i._ZNK8QVariant7isValidEv                0x0000e060   Section       18  qdeclarativegalleryitem.o(i._ZNK8QVariant7isValidEv)
    i._ZNK9QListData3endEv                   0x0000e072   Section       16  qdeclarativegalleryfilter.o(i._ZNK9QListData3endEv)
    i._ZNK9QListData5beginEv                 0x0000e082   Section       16  qdeclarativegalleryfilter.o(i._ZNK9QListData5beginEv)
    i._ZThn8_N10QtMobility25QGalleryDeclarativeModule13registerTypesEPKc 0x0000e092   Section       18  qdeclarativegallery.o(i._ZThn8_N10QtMobility25QGalleryDeclarativeModule13registerTypesEPKc)
    i._ZThn8_N10QtMobility25QGalleryDeclarativeModuleD0Ev 0x0000e0a4   Section       14  qdeclarativegallery.o(i._ZThn8_N10QtMobility25QGalleryDeclarativeModuleD0Ev)
    i._ZThn8_N10QtMobility25QGalleryDeclarativeModuleD1Ev 0x0000e0b2   Section       18  qdeclarativegallery.o(i._ZThn8_N10QtMobility25QGalleryDeclarativeModuleD1Ev)
    i._ZThn8_N10QtMobility30QDeclarativeGalleryFilterGroupD0Ev 0x0000e0c4   Section       14  qdeclarativegalleryfilter.o(i._ZThn8_N10QtMobility30QDeclarativeGalleryFilterGroupD0Ev)
    i._ZThn8_N10QtMobility30QDeclarativeGalleryFilterGroupD1Ev 0x0000e0d2   Section       14  qdeclarativegalleryfilter.o(i._ZThn8_N10QtMobility30QDeclarativeGalleryFilterGroupD1Ev)
    i._ZThn8_N10QtMobility30QDeclarativeGalleryFilterUnionD0Ev 0x0000e0e0   Section       14  qdeclarativegalleryfilter.o(i._ZThn8_N10QtMobility30QDeclarativeGalleryFilterUnionD0Ev)
    i._ZThn8_N10QtMobility30QDeclarativeGalleryFilterUnionD1Ev 0x0000e0ee   Section       18  qdeclarativegalleryfilter.o(i._ZThn8_N10QtMobility30QDeclarativeGalleryFilterUnionD1Ev)
    i._ZThn8_N10QtMobility37QDeclarativeGalleryFilterIntersectionD0Ev 0x0000e100   Section       14  qdeclarativegalleryfilter.o(i._ZThn8_N10QtMobility37QDeclarativeGalleryFilterIntersectionD0Ev)
    i._ZThn8_N10QtMobility37QDeclarativeGalleryFilterIntersectionD1Ev 0x0000e10e   Section       18  qdeclarativegalleryfilter.o(i._ZThn8_N10QtMobility37QDeclarativeGalleryFilterIntersectionD1Ev)
    i._ZThn8_N19QDeclarativePrivate19QDeclarativeElementIN10QtMobility30QDeclarativeGalleryFilterUnionEED0Ev 0x0000e120   Section       14  qdeclarativegallery.o(i._ZThn8_N19QDeclarativePrivate19QDeclarativeElementIN10QtMobility30QDeclarativeGalleryFilterUnionEED0Ev)
    i._ZThn8_N19QDeclarativePrivate19QDeclarativeElementIN10QtMobility30QDeclarativeGalleryFilterUnionEED1Ev 0x0000e12e   Section       14  qdeclarativegallery.o(i._ZThn8_N19QDeclarativePrivate19QDeclarativeElementIN10QtMobility30QDeclarativeGalleryFilterUnionEED1Ev)
    i._ZThn8_N19QDeclarativePrivate19QDeclarativeElementIN10QtMobility31QDeclarativeDocumentGalleryItemEED0Ev 0x0000e13c   Section       14  qdeclarativegallery.o(i._ZThn8_N19QDeclarativePrivate19QDeclarativeElementIN10QtMobility31QDeclarativeDocumentGalleryItemEED0Ev)
    i._ZThn8_N19QDeclarativePrivate19QDeclarativeElementIN10QtMobility31QDeclarativeDocumentGalleryItemEED1Ev 0x0000e14a   Section       14  qdeclarativegallery.o(i._ZThn8_N19QDeclarativePrivate19QDeclarativeElementIN10QtMobility31QDeclarativeDocumentGalleryItemEED1Ev)
    i._ZThn8_N19QDeclarativePrivate19QDeclarativeElementIN10QtMobility31QDeclarativeDocumentGalleryTypeEED0Ev 0x0000e158   Section       14  qdeclarativegallery.o(i._ZThn8_N19QDeclarativePrivate19QDeclarativeElementIN10QtMobility31QDeclarativeDocumentGalleryTypeEED0Ev)
    i._ZThn8_N19QDeclarativePrivate19QDeclarativeElementIN10QtMobility31QDeclarativeDocumentGalleryTypeEED1Ev 0x0000e166   Section       14  qdeclarativegallery.o(i._ZThn8_N19QDeclarativePrivate19QDeclarativeElementIN10QtMobility31QDeclarativeDocumentGalleryTypeEED1Ev)
    i._ZThn8_N19QDeclarativePrivate19QDeclarativeElementIN10QtMobility32QDeclarativeDocumentGalleryModelEED0Ev 0x0000e174   Section       14  qdeclarativegallery.o(i._ZThn8_N19QDeclarativePrivate19QDeclarativeElementIN10QtMobility32QDeclarativeDocumentGalleryModelEED0Ev)
    i._ZThn8_N19QDeclarativePrivate19QDeclarativeElementIN10QtMobility32QDeclarativeDocumentGalleryModelEED1Ev 0x0000e182   Section       14  qdeclarativegallery.o(i._ZThn8_N19QDeclarativePrivate19QDeclarativeElementIN10QtMobility32QDeclarativeDocumentGalleryModelEED1Ev)
    i._ZThn8_N19QDeclarativePrivate19QDeclarativeElementIN10QtMobility37QDeclarativeGalleryFilterIntersectionEED0Ev 0x0000e190   Section       14  qdeclarativegallery.o(i._ZThn8_N19QDeclarativePrivate19QDeclarativeElementIN10QtMobility37QDeclarativeGalleryFilterIntersectionEED0Ev)
    i._ZThn8_N19QDeclarativePrivate19QDeclarativeElementIN10QtMobility37QDeclarativeGalleryFilterIntersectionEED1Ev 0x0000e19e   Section       14  qdeclarativegallery.o(i._ZThn8_N19QDeclarativePrivate19QDeclarativeElementIN10QtMobility37QDeclarativeGalleryFilterIntersectionEED1Ev)
    i._ZdlPvS_                               0x0000e1ac   Section        2  qdeclarativegallery.o(i._ZdlPvS_)
    i._ZnwjPv                                0x0000e1ae   Section        6  qdeclarativegallery.o(i._ZnwjPv)
    i._ZplPKcRK10QByteArray                  0x0000e1b4   Section       46  qdeclarativegallery.o(i._ZplPKcRK10QByteArray)
    i._ZplPKcRK10QByteArray.clean            0x0000e1e2   Section       10  qdeclarativegallery.o(i._ZplPKcRK10QByteArray.clean)
    i._ZplRK10QByteArrayPKc                  0x0000e1ec   Section       46  qdeclarativegallery.o(i._ZplRK10QByteArrayPKc)
    i._ZplRK10QByteArrayPKc.clean            0x0000e21a   Section       10  qdeclarativegallery.o(i._ZplRK10QByteArrayPKc.clean)
    i._ZplRK10QByteArrayc                    0x0000e224   Section       46  qdeclarativegallery.o(i._ZplRK10QByteArrayc)
    i._ZplRK10QByteArrayc.clean              0x0000e252   Section       10  qdeclarativegallery.o(i._ZplRK10QByteArrayc.clean)
    t._Z15qmlRegisterTypeIN10QtMobility29QDeclarativeGalleryFilterBaseEEiv 0x0000e25c   Section      264  qdeclarativegallery.o(t._Z15qmlRegisterTypeIN10QtMobility29QDeclarativeGalleryFilterBaseEEiv)
    t._Z15qmlRegisterTypeIN10QtMobility29QDeclarativeGalleryFilterBaseEEiv.clean 0x0000e364   Section       52  qdeclarativegallery.o(t._Z15qmlRegisterTypeIN10QtMobility29QDeclarativeGalleryFilterBaseEEiv.clean)
    t._Z15qmlRegisterTypeIN10QtMobility30QDeclarativeGalleryFilterUnionEEiPKciiS3_ 0x0000e398   Section      288  qdeclarativegallery.o(t._Z15qmlRegisterTypeIN10QtMobility30QDeclarativeGalleryFilterUnionEEiPKciiS3_)
    t._Z15qmlRegisterTypeIN10QtMobility30QDeclarativeGalleryFilterUnionEEiPKciiS3_.clean 0x0000e4b8   Section       52  qdeclarativegallery.o(t._Z15qmlRegisterTypeIN10QtMobility30QDeclarativeGalleryFilterUnionEEiPKciiS3_.clean)
    t._Z15qmlRegisterTypeIN10QtMobility31QDeclarativeDocumentGalleryItemEEiPKciiS3_ 0x0000e4ec   Section      288  qdeclarativegallery.o(t._Z15qmlRegisterTypeIN10QtMobility31QDeclarativeDocumentGalleryItemEEiPKciiS3_)
    t._Z15qmlRegisterTypeIN10QtMobility31QDeclarativeDocumentGalleryItemEEiPKciiS3_.clean 0x0000e60c   Section       52  qdeclarativegallery.o(t._Z15qmlRegisterTypeIN10QtMobility31QDeclarativeDocumentGalleryItemEEiPKciiS3_.clean)
    t._Z15qmlRegisterTypeIN10QtMobility31QDeclarativeDocumentGalleryTypeEEiPKciiS3_ 0x0000e640   Section      288  qdeclarativegallery.o(t._Z15qmlRegisterTypeIN10QtMobility31QDeclarativeDocumentGalleryTypeEEiPKciiS3_)
    t._Z15qmlRegisterTypeIN10QtMobility31QDeclarativeDocumentGalleryTypeEEiPKciiS3_.clean 0x0000e760   Section       52  qdeclarativegallery.o(t._Z15qmlRegisterTypeIN10QtMobility31QDeclarativeDocumentGalleryTypeEEiPKciiS3_.clean)
    t._Z15qmlRegisterTypeIN10QtMobility31QDeclarativeGalleryEqualsFilterEEiPKciiS3_ 0x0000e794   Section      280  qdeclarativegallery.o(t._Z15qmlRegisterTypeIN10QtMobility31QDeclarativeGalleryEqualsFilterEEiPKciiS3_)
    t._Z15qmlRegisterTypeIN10QtMobility31QDeclarativeGalleryEqualsFilterEEiPKciiS3_.clean 0x0000e8ac   Section       52  qdeclarativegallery.o(t._Z15qmlRegisterTypeIN10QtMobility31QDeclarativeGalleryEqualsFilterEEiPKciiS3_.clean)
    t._Z15qmlRegisterTypeIN10QtMobility32QDeclarativeDocumentGalleryModelEEiPKciiS3_ 0x0000e8e0   Section      288  qdeclarativegallery.o(t._Z15qmlRegisterTypeIN10QtMobility32QDeclarativeDocumentGalleryModelEEiPKciiS3_)
    t._Z15qmlRegisterTypeIN10QtMobility32QDeclarativeDocumentGalleryModelEEiPKciiS3_.clean 0x0000ea00   Section       52  qdeclarativegallery.o(t._Z15qmlRegisterTypeIN10QtMobility32QDeclarativeDocumentGalleryModelEEiPKciiS3_.clean)
    t._Z15qmlRegisterTypeIN10QtMobility33QDeclarativeGalleryContainsFilterEEiPKciiS3_ 0x0000ea34   Section      280  qdeclarativegallery.o(t._Z15qmlRegisterTypeIN10QtMobility33QDeclarativeGalleryContainsFilterEEiPKciiS3_)
    t._Z15qmlRegisterTypeIN10QtMobility33QDeclarativeGalleryContainsFilterEEiPKciiS3_.clean 0x0000eb4c   Section       52  qdeclarativegallery.o(t._Z15qmlRegisterTypeIN10QtMobility33QDeclarativeGalleryContainsFilterEEiPKciiS3_.clean)
    t._Z15qmlRegisterTypeIN10QtMobility33QDeclarativeGalleryEndsWithFilterEEiPKciiS3_ 0x0000eb80   Section      280  qdeclarativegallery.o(t._Z15qmlRegisterTypeIN10QtMobility33QDeclarativeGalleryEndsWithFilterEEiPKciiS3_)
    t._Z15qmlRegisterTypeIN10QtMobility33QDeclarativeGalleryEndsWithFilterEEiPKciiS3_.clean 0x0000ec98   Section       52  qdeclarativegallery.o(t._Z15qmlRegisterTypeIN10QtMobility33QDeclarativeGalleryEndsWithFilterEEiPKciiS3_.clean)
    t._Z15qmlRegisterTypeIN10QtMobility33QDeclarativeGalleryLessThanFilterEEiPKciiS3_ 0x0000eccc   Section      280  qdeclarativegallery.o(t._Z15qmlRegisterTypeIN10QtMobility33QDeclarativeGalleryLessThanFilterEEiPKciiS3_)
    t._Z15qmlRegisterTypeIN10QtMobility33QDeclarativeGalleryLessThanFilterEEiPKciiS3_.clean 0x0000ede4   Section       52  qdeclarativegallery.o(t._Z15qmlRegisterTypeIN10QtMobility33QDeclarativeGalleryLessThanFilterEEiPKciiS3_.clean)
    t._Z15qmlRegisterTypeIN10QtMobility33QDeclarativeGalleryWildcardFilterEEiPKciiS3_ 0x0000ee18   Section      280  qdeclarativegallery.o(t._Z15qmlRegisterTypeIN10QtMobility33QDeclarativeGalleryWildcardFilterEEiPKciiS3_)
    t._Z15qmlRegisterTypeIN10QtMobility33QDeclarativeGalleryWildcardFilterEEiPKciiS3_.clean 0x0000ef30   Section       52  qdeclarativegallery.o(t._Z15qmlRegisterTypeIN10QtMobility33QDeclarativeGalleryWildcardFilterEEiPKciiS3_.clean)
    t._Z15qmlRegisterTypeIN10QtMobility35QDeclarativeGalleryStartsWithFilterEEiPKciiS3_ 0x0000ef64   Section      280  qdeclarativegallery.o(t._Z15qmlRegisterTypeIN10QtMobility35QDeclarativeGalleryStartsWithFilterEEiPKciiS3_)
    t._Z15qmlRegisterTypeIN10QtMobility35QDeclarativeGalleryStartsWithFilterEEiPKciiS3_.clean 0x0000f07c   Section       52  qdeclarativegallery.o(t._Z15qmlRegisterTypeIN10QtMobility35QDeclarativeGalleryStartsWithFilterEEiPKciiS3_.clean)
    t._Z15qmlRegisterTypeIN10QtMobility36QDeclarativeGalleryGreaterThanFilterEEiPKciiS3_ 0x0000f0b0   Section      280  qdeclarativegallery.o(t._Z15qmlRegisterTypeIN10QtMobility36QDeclarativeGalleryGreaterThanFilterEEiPKciiS3_)
    t._Z15qmlRegisterTypeIN10QtMobility36QDeclarativeGalleryGreaterThanFilterEEiPKciiS3_.clean 0x0000f1c8   Section       52  qdeclarativegallery.o(t._Z15qmlRegisterTypeIN10QtMobility36QDeclarativeGalleryGreaterThanFilterEEiPKciiS3_.clean)
    t._Z15qmlRegisterTypeIN10QtMobility37QDeclarativeGalleryFilterIntersectionEEiPKciiS3_ 0x0000f1fc   Section      288  qdeclarativegallery.o(t._Z15qmlRegisterTypeIN10QtMobility37QDeclarativeGalleryFilterIntersectionEEiPKciiS3_)
    t._Z15qmlRegisterTypeIN10QtMobility37QDeclarativeGalleryFilterIntersectionEEiPKciiS3_.clean 0x0000f31c   Section       52  qdeclarativegallery.o(t._Z15qmlRegisterTypeIN10QtMobility37QDeclarativeGalleryFilterIntersectionEEiPKciiS3_.clean)
    t._Z15qmlRegisterTypeIN10QtMobility39QDeclarativeGalleryLessThanEqualsFilterEEiPKciiS3_ 0x0000f350   Section      280  qdeclarativegallery.o(t._Z15qmlRegisterTypeIN10QtMobility39QDeclarativeGalleryLessThanEqualsFilterEEiPKciiS3_)
    t._Z15qmlRegisterTypeIN10QtMobility39QDeclarativeGalleryLessThanEqualsFilterEEiPKciiS3_.clean 0x0000f468   Section       52  qdeclarativegallery.o(t._Z15qmlRegisterTypeIN10QtMobility39QDeclarativeGalleryLessThanEqualsFilterEEiPKciiS3_.clean)
    t._Z15qmlRegisterTypeIN10QtMobility42QDeclarativeGalleryGreaterThanEqualsFilterEEiPKciiS3_ 0x0000f49c   Section      280  qdeclarativegallery.o(t._Z15qmlRegisterTypeIN10QtMobility42QDeclarativeGalleryGreaterThanEqualsFilterEEiPKciiS3_)
    t._Z15qmlRegisterTypeIN10QtMobility42QDeclarativeGalleryGreaterThanEqualsFilterEEiPKciiS3_.clean 0x0000f5b4   Section       52  qdeclarativegallery.o(t._Z15qmlRegisterTypeIN10QtMobility42QDeclarativeGalleryGreaterThanEqualsFilterEEiPKciiS3_.clean)
    t._Z17qRegisterMetaTypeI24QDeclarativeListPropertyIN10QtMobility27QDeclarativeDocumentGalleryEEEiPKcPT_ 0x0000f5e8   Section       64  qdeclarativegallery.o(t._Z17qRegisterMetaTypeI24QDeclarativeListPropertyIN10QtMobility27QDeclarativeDocumentGalleryEEEiPKcPT_)
    t._Z17qRegisterMetaTypeI24QDeclarativeListPropertyIN10QtMobility29QDeclarativeGalleryFilterBaseEEEiPKcPT_ 0x0000f628   Section      116  qdeclarativegallery.o(t._Z17qRegisterMetaTypeI24QDeclarativeListPropertyIN10QtMobility29QDeclarativeGalleryFilterBaseEEEiPKcPT_)
    t._Z17qRegisterMetaTypeI24QDeclarativeListPropertyIN10QtMobility30QDeclarativeGalleryFilterUnionEEEiPKcPT_ 0x0000f69c   Section      116  qdeclarativegallery.o(t._Z17qRegisterMetaTypeI24QDeclarativeListPropertyIN10QtMobility30QDeclarativeGalleryFilterUnionEEEiPKcPT_)
    t._Z17qRegisterMetaTypeI24QDeclarativeListPropertyIN10QtMobility31QDeclarativeDocumentGalleryItemEEEiPKcPT_ 0x0000f710   Section      116  qdeclarativegallery.o(t._Z17qRegisterMetaTypeI24QDeclarativeListPropertyIN10QtMobility31QDeclarativeDocumentGalleryItemEEEiPKcPT_)
    t._Z17qRegisterMetaTypeI24QDeclarativeListPropertyIN10QtMobility31QDeclarativeDocumentGalleryTypeEEEiPKcPT_ 0x0000f784   Section      116  qdeclarativegallery.o(t._Z17qRegisterMetaTypeI24QDeclarativeListPropertyIN10QtMobility31QDeclarativeDocumentGalleryTypeEEEiPKcPT_)
    t._Z17qRegisterMetaTypeI24QDeclarativeListPropertyIN10QtMobility31QDeclarativeGalleryEqualsFilterEEEiPKcPT_ 0x0000f7f8   Section      116  qdeclarativegallery.o(t._Z17qRegisterMetaTypeI24QDeclarativeListPropertyIN10QtMobility31QDeclarativeGalleryEqualsFilterEEEiPKcPT_)
    t._Z17qRegisterMetaTypeI24QDeclarativeListPropertyIN10QtMobility32QDeclarativeDocumentGalleryModelEEEiPKcPT_ 0x0000f86c   Section      116  qdeclarativegallery.o(t._Z17qRegisterMetaTypeI24QDeclarativeListPropertyIN10QtMobility32QDeclarativeDocumentGalleryModelEEEiPKcPT_)
    t._Z17qRegisterMetaTypeI24QDeclarativeListPropertyIN10QtMobility33QDeclarativeGalleryContainsFilterEEEiPKcPT_ 0x0000f8e0   Section      116  qdeclarativegallery.o(t._Z17qRegisterMetaTypeI24QDeclarativeListPropertyIN10QtMobility33QDeclarativeGalleryContainsFilterEEEiPKcPT_)
    t._Z17qRegisterMetaTypeI24QDeclarativeListPropertyIN10QtMobility33QDeclarativeGalleryEndsWithFilterEEEiPKcPT_ 0x0000f954   Section      116  qdeclarativegallery.o(t._Z17qRegisterMetaTypeI24QDeclarativeListPropertyIN10QtMobility33QDeclarativeGalleryEndsWithFilterEEEiPKcPT_)
    t._Z17qRegisterMetaTypeI24QDeclarativeListPropertyIN10QtMobility33QDeclarativeGalleryLessThanFilterEEEiPKcPT_ 0x0000f9c8   Section      116  qdeclarativegallery.o(t._Z17qRegisterMetaTypeI24QDeclarativeListPropertyIN10QtMobility33QDeclarativeGalleryLessThanFilterEEEiPKcPT_)
    t._Z17qRegisterMetaTypeI24QDeclarativeListPropertyIN10QtMobility33QDeclarativeGalleryWildcardFilterEEEiPKcPT_ 0x0000fa3c   Section      116  qdeclarativegallery.o(t._Z17qRegisterMetaTypeI24QDeclarativeListPropertyIN10QtMobility33QDeclarativeGalleryWildcardFilterEEEiPKcPT_)
    t._Z17qRegisterMetaTypeI24QDeclarativeListPropertyIN10QtMobility35QDeclarativeGalleryStartsWithFilterEEEiPKcPT_ 0x0000fab0   Section      116  qdeclarativegallery.o(t._Z17qRegisterMetaTypeI24QDeclarativeListPropertyIN10QtMobility35QDeclarativeGalleryStartsWithFilterEEEiPKcPT_)
    t._Z17qRegisterMetaTypeI24QDeclarativeListPropertyIN10QtMobility36QDeclarativeGalleryGreaterThanFilterEEEiPKcPT_ 0x0000fb24   Section      116  qdeclarativegallery.o(t._Z17qRegisterMetaTypeI24QDeclarativeListPropertyIN10QtMobility36QDeclarativeGalleryGreaterThanFilterEEEiPKcPT_)
    t._Z17qRegisterMetaTypeI24QDeclarativeListPropertyIN10QtMobility37QDeclarativeGalleryFilterIntersectionEEEiPKcPT_ 0x0000fb98   Section      116  qdeclarativegallery.o(t._Z17qRegisterMetaTypeI24QDeclarativeListPropertyIN10QtMobility37QDeclarativeGalleryFilterIntersectionEEEiPKcPT_)
    t._Z17qRegisterMetaTypeI24QDeclarativeListPropertyIN10QtMobility39QDeclarativeGalleryLessThanEqualsFilterEEEiPKcPT_ 0x0000fc0c   Section      116  qdeclarativegallery.o(t._Z17qRegisterMetaTypeI24QDeclarativeListPropertyIN10QtMobility39QDeclarativeGalleryLessThanEqualsFilterEEEiPKcPT_)
    t._Z17qRegisterMetaTypeI24QDeclarativeListPropertyIN10QtMobility42QDeclarativeGalleryGreaterThanEqualsFilterEEEiPKcPT_ 0x0000fc80   Section      116  qdeclarativegallery.o(t._Z17qRegisterMetaTypeI24QDeclarativeListPropertyIN10QtMobility42QDeclarativeGalleryGreaterThanEqualsFilterEEEiPKcPT_)
    t._Z17qRegisterMetaTypeIN10QtMobility27QDeclarativeDocumentGallery8ItemTypeEEiPKcPT_ 0x0000fcf4   Section       64  qdeclarativegallery.o(t._Z17qRegisterMetaTypeIN10QtMobility27QDeclarativeDocumentGallery8ItemTypeEEiPKcPT_)
    t._Z17qRegisterMetaTypeIPN10QtMobility27QDeclarativeDocumentGalleryEEiPKcPT_ 0x0000fd34   Section       64  qdeclarativegallery.o(t._Z17qRegisterMetaTypeIPN10QtMobility27QDeclarativeDocumentGalleryEEiPKcPT_)
    t._Z17qRegisterMetaTypeIPN10QtMobility29QDeclarativeGalleryFilterBaseEEiPKcPT_ 0x0000fd74   Section      160  qdeclarativegallery.o(t._Z17qRegisterMetaTypeIPN10QtMobility29QDeclarativeGalleryFilterBaseEEiPKcPT_)
    t._Z17qRegisterMetaTypeIPN10QtMobility30QDeclarativeGalleryFilterUnionEEiPKcPT_ 0x0000fe14   Section      160  qdeclarativegallery.o(t._Z17qRegisterMetaTypeIPN10QtMobility30QDeclarativeGalleryFilterUnionEEiPKcPT_)
    t._Z17qRegisterMetaTypeIPN10QtMobility31QDeclarativeDocumentGalleryItemEEiPKcPT_ 0x0000feb4   Section      160  qdeclarativegallery.o(t._Z17qRegisterMetaTypeIPN10QtMobility31QDeclarativeDocumentGalleryItemEEiPKcPT_)
    t._Z17qRegisterMetaTypeIPN10QtMobility31QDeclarativeDocumentGalleryTypeEEiPKcPT_ 0x0000ff54   Section      160  qdeclarativegallery.o(t._Z17qRegisterMetaTypeIPN10QtMobility31QDeclarativeDocumentGalleryTypeEEiPKcPT_)
    t._Z17qRegisterMetaTypeIPN10QtMobility31QDeclarativeGalleryEqualsFilterEEiPKcPT_ 0x0000fff4   Section      160  qdeclarativegallery.o(t._Z17qRegisterMetaTypeIPN10QtMobility31QDeclarativeGalleryEqualsFilterEEiPKcPT_)
    t._Z17qRegisterMetaTypeIPN10QtMobility32QDeclarativeDocumentGalleryModelEEiPKcPT_ 0x00010094   Section      164  qdeclarativegallery.o(t._Z17qRegisterMetaTypeIPN10QtMobility32QDeclarativeDocumentGalleryModelEEiPKcPT_)
    t._Z17qRegisterMetaTypeIPN10QtMobility33QDeclarativeGalleryContainsFilterEEiPKcPT_ 0x00010138   Section      164  qdeclarativegallery.o(t._Z17qRegisterMetaTypeIPN10QtMobility33QDeclarativeGalleryContainsFilterEEiPKcPT_)
    t._Z17qRegisterMetaTypeIPN10QtMobility33QDeclarativeGalleryEndsWithFilterEEiPKcPT_ 0x000101dc   Section      164  qdeclarativegallery.o(t._Z17qRegisterMetaTypeIPN10QtMobility33QDeclarativeGalleryEndsWithFilterEEiPKcPT_)
    t._Z17qRegisterMetaTypeIPN10QtMobility33QDeclarativeGalleryLessThanFilterEEiPKcPT_ 0x00010280   Section      164  qdeclarativegallery.o(t._Z17qRegisterMetaTypeIPN10QtMobility33QDeclarativeGalleryLessThanFilterEEiPKcPT_)
    t._Z17qRegisterMetaTypeIPN10QtMobility33QDeclarativeGalleryWildcardFilterEEiPKcPT_ 0x00010324   Section      164  qdeclarativegallery.o(t._Z17qRegisterMetaTypeIPN10QtMobility33QDeclarativeGalleryWildcardFilterEEiPKcPT_)
    t._Z17qRegisterMetaTypeIPN10QtMobility35QDeclarativeGalleryStartsWithFilterEEiPKcPT_ 0x000103c8   Section      164  qdeclarativegallery.o(t._Z17qRegisterMetaTypeIPN10QtMobility35QDeclarativeGalleryStartsWithFilterEEiPKcPT_)
    t._Z17qRegisterMetaTypeIPN10QtMobility36QDeclarativeGalleryGreaterThanFilterEEiPKcPT_ 0x0001046c   Section      168  qdeclarativegallery.o(t._Z17qRegisterMetaTypeIPN10QtMobility36QDeclarativeGalleryGreaterThanFilterEEiPKcPT_)
    t._Z17qRegisterMetaTypeIPN10QtMobility37QDeclarativeGalleryFilterIntersectionEEiPKcPT_ 0x00010514   Section      168  qdeclarativegallery.o(t._Z17qRegisterMetaTypeIPN10QtMobility37QDeclarativeGalleryFilterIntersectionEEiPKcPT_)
    t._Z17qRegisterMetaTypeIPN10QtMobility39QDeclarativeGalleryLessThanEqualsFilterEEiPKcPT_ 0x000105bc   Section      168  qdeclarativegallery.o(t._Z17qRegisterMetaTypeIPN10QtMobility39QDeclarativeGalleryLessThanEqualsFilterEEiPKcPT_)
    t._Z17qRegisterMetaTypeIPN10QtMobility42QDeclarativeGalleryGreaterThanEqualsFilterEEiPKcPT_ 0x00010664   Section      172  qdeclarativegallery.o(t._Z17qRegisterMetaTypeIPN10QtMobility42QDeclarativeGalleryGreaterThanEqualsFilterEEiPKcPT_)
    t._Z21qMetaTypeDeleteHelperI24QDeclarativeListPropertyIN10QtMobility27QDeclarativeDocumentGalleryEEEvPT_ 0x00010710   Section       12  qdeclarativegallery.o(t._Z21qMetaTypeDeleteHelperI24QDeclarativeListPropertyIN10QtMobility27QDeclarativeDocumentGalleryEEEvPT_)
    t._Z21qMetaTypeDeleteHelperI24QDeclarativeListPropertyIN10QtMobility29QDeclarativeGalleryFilterBaseEEEvPT_ 0x0001071c   Section       12  qdeclarativegallery.o(t._Z21qMetaTypeDeleteHelperI24QDeclarativeListPropertyIN10QtMobility29QDeclarativeGalleryFilterBaseEEEvPT_)
    t._Z21qMetaTypeDeleteHelperI24QDeclarativeListPropertyIN10QtMobility30QDeclarativeGalleryFilterUnionEEEvPT_ 0x00010728   Section       12  qdeclarativegallery.o(t._Z21qMetaTypeDeleteHelperI24QDeclarativeListPropertyIN10QtMobility30QDeclarativeGalleryFilterUnionEEEvPT_)
    t._Z21qMetaTypeDeleteHelperI24QDeclarativeListPropertyIN10QtMobility31QDeclarativeDocumentGalleryItemEEEvPT_ 0x00010734   Section       12  qdeclarativegallery.o(t._Z21qMetaTypeDeleteHelperI24QDeclarativeListPropertyIN10QtMobility31QDeclarativeDocumentGalleryItemEEEvPT_)
    t._Z21qMetaTypeDeleteHelperI24QDeclarativeListPropertyIN10QtMobility31QDeclarativeDocumentGalleryTypeEEEvPT_ 0x00010740   Section       12  qdeclarativegallery.o(t._Z21qMetaTypeDeleteHelperI24QDeclarativeListPropertyIN10QtMobility31QDeclarativeDocumentGalleryTypeEEEvPT_)
    t._Z21qMetaTypeDeleteHelperI24QDeclarativeListPropertyIN10QtMobility31QDeclarativeGalleryEqualsFilterEEEvPT_ 0x0001074c   Section       12  qdeclarativegallery.o(t._Z21qMetaTypeDeleteHelperI24QDeclarativeListPropertyIN10QtMobility31QDeclarativeGalleryEqualsFilterEEEvPT_)
    t._Z21qMetaTypeDeleteHelperI24QDeclarativeListPropertyIN10QtMobility32QDeclarativeDocumentGalleryModelEEEvPT_ 0x00010758   Section       12  qdeclarativegallery.o(t._Z21qMetaTypeDeleteHelperI24QDeclarativeListPropertyIN10QtMobility32QDeclarativeDocumentGalleryModelEEEvPT_)
    t._Z21qMetaTypeDeleteHelperI24QDeclarativeListPropertyIN10QtMobility33QDeclarativeGalleryContainsFilterEEEvPT_ 0x00010764   Section       12  qdeclarativegallery.o(t._Z21qMetaTypeDeleteHelperI24QDeclarativeListPropertyIN10QtMobility33QDeclarativeGalleryContainsFilterEEEvPT_)
    t._Z21qMetaTypeDeleteHelperI24QDeclarativeListPropertyIN10QtMobility33QDeclarativeGalleryEndsWithFilterEEEvPT_ 0x00010770   Section       12  qdeclarativegallery.o(t._Z21qMetaTypeDeleteHelperI24QDeclarativeListPropertyIN10QtMobility33QDeclarativeGalleryEndsWithFilterEEEvPT_)
    t._Z21qMetaTypeDeleteHelperI24QDeclarativeListPropertyIN10QtMobility33QDeclarativeGalleryLessThanFilterEEEvPT_ 0x0001077c   Section       12  qdeclarativegallery.o(t._Z21qMetaTypeDeleteHelperI24QDeclarativeListPropertyIN10QtMobility33QDeclarativeGalleryLessThanFilterEEEvPT_)
    t._Z21qMetaTypeDeleteHelperI24QDeclarativeListPropertyIN10QtMobility33QDeclarativeGalleryWildcardFilterEEEvPT_ 0x00010788   Section       12  qdeclarativegallery.o(t._Z21qMetaTypeDeleteHelperI24QDeclarativeListPropertyIN10QtMobility33QDeclarativeGalleryWildcardFilterEEEvPT_)
    t._Z21qMetaTypeDeleteHelperI24QDeclarativeListPropertyIN10QtMobility35QDeclarativeGalleryStartsWithFilterEEEvPT_ 0x00010794   Section       12  qdeclarativegallery.o(t._Z21qMetaTypeDeleteHelperI24QDeclarativeListPropertyIN10QtMobility35QDeclarativeGalleryStartsWithFilterEEEvPT_)
    t._Z21qMetaTypeDeleteHelperI24QDeclarativeListPropertyIN10QtMobility36QDeclarativeGalleryGreaterThanFilterEEEvPT_ 0x000107a0   Section       12  qdeclarativegallery.o(t._Z21qMetaTypeDeleteHelperI24QDeclarativeListPropertyIN10QtMobility36QDeclarativeGalleryGreaterThanFilterEEEvPT_)
    t._Z21qMetaTypeDeleteHelperI24QDeclarativeListPropertyIN10QtMobility37QDeclarativeGalleryFilterIntersectionEEEvPT_ 0x000107ac   Section       12  qdeclarativegallery.o(t._Z21qMetaTypeDeleteHelperI24QDeclarativeListPropertyIN10QtMobility37QDeclarativeGalleryFilterIntersectionEEEvPT_)
    t._Z21qMetaTypeDeleteHelperI24QDeclarativeListPropertyIN10QtMobility39QDeclarativeGalleryLessThanEqualsFilterEEEvPT_ 0x000107b8   Section       12  qdeclarativegallery.o(t._Z21qMetaTypeDeleteHelperI24QDeclarativeListPropertyIN10QtMobility39QDeclarativeGalleryLessThanEqualsFilterEEEvPT_)
    t._Z21qMetaTypeDeleteHelperI24QDeclarativeListPropertyIN10QtMobility42QDeclarativeGalleryGreaterThanEqualsFilterEEEvPT_ 0x000107c4   Section       12  qdeclarativegallery.o(t._Z21qMetaTypeDeleteHelperI24QDeclarativeListPropertyIN10QtMobility42QDeclarativeGalleryGreaterThanEqualsFilterEEEvPT_)
    t._Z21qMetaTypeDeleteHelperIN10QtMobility27QDeclarativeDocumentGallery8ItemTypeEEvPT_ 0x000107d0   Section       12  qdeclarativegallery.o(t._Z21qMetaTypeDeleteHelperIN10QtMobility27QDeclarativeDocumentGallery8ItemTypeEEvPT_)
    t._Z21qMetaTypeDeleteHelperIPN10QtMobility27QDeclarativeDocumentGalleryEEvPT_ 0x000107dc   Section       12  qdeclarativegallery.o(t._Z21qMetaTypeDeleteHelperIPN10QtMobility27QDeclarativeDocumentGalleryEEvPT_)
    t._Z21qMetaTypeDeleteHelperIPN10QtMobility29QDeclarativeGalleryFilterBaseEEvPT_ 0x000107e8   Section       12  qdeclarativegallery.o(t._Z21qMetaTypeDeleteHelperIPN10QtMobility29QDeclarativeGalleryFilterBaseEEvPT_)
    t._Z21qMetaTypeDeleteHelperIPN10QtMobility30QDeclarativeGalleryFilterUnionEEvPT_ 0x000107f4   Section       12  qdeclarativegallery.o(t._Z21qMetaTypeDeleteHelperIPN10QtMobility30QDeclarativeGalleryFilterUnionEEvPT_)
    t._Z21qMetaTypeDeleteHelperIPN10QtMobility31QDeclarativeDocumentGalleryItemEEvPT_ 0x00010800   Section       12  qdeclarativegallery.o(t._Z21qMetaTypeDeleteHelperIPN10QtMobility31QDeclarativeDocumentGalleryItemEEvPT_)
    t._Z21qMetaTypeDeleteHelperIPN10QtMobility31QDeclarativeDocumentGalleryTypeEEvPT_ 0x0001080c   Section       12  qdeclarativegallery.o(t._Z21qMetaTypeDeleteHelperIPN10QtMobility31QDeclarativeDocumentGalleryTypeEEvPT_)
    t._Z21qMetaTypeDeleteHelperIPN10QtMobility31QDeclarativeGalleryEqualsFilterEEvPT_ 0x00010818   Section       12  qdeclarativegallery.o(t._Z21qMetaTypeDeleteHelperIPN10QtMobility31QDeclarativeGalleryEqualsFilterEEvPT_)
    t._Z21qMetaTypeDeleteHelperIPN10QtMobility32QDeclarativeDocumentGalleryModelEEvPT_ 0x00010824   Section       12  qdeclarativegallery.o(t._Z21qMetaTypeDeleteHelperIPN10QtMobility32QDeclarativeDocumentGalleryModelEEvPT_)
    t._Z21qMetaTypeDeleteHelperIPN10QtMobility33QDeclarativeGalleryContainsFilterEEvPT_ 0x00010830   Section       12  qdeclarativegallery.o(t._Z21qMetaTypeDeleteHelperIPN10QtMobility33QDeclarativeGalleryContainsFilterEEvPT_)
    t._Z21qMetaTypeDeleteHelperIPN10QtMobility33QDeclarativeGalleryEndsWithFilterEEvPT_ 0x0001083c   Section       12  qdeclarativegallery.o(t._Z21qMetaTypeDeleteHelperIPN10QtMobility33QDeclarativeGalleryEndsWithFilterEEvPT_)
    t._Z21qMetaTypeDeleteHelperIPN10QtMobility33QDeclarativeGalleryLessThanFilterEEvPT_ 0x00010848   Section       12  qdeclarativegallery.o(t._Z21qMetaTypeDeleteHelperIPN10QtMobility33QDeclarativeGalleryLessThanFilterEEvPT_)
    t._Z21qMetaTypeDeleteHelperIPN10QtMobility33QDeclarativeGalleryWildcardFilterEEvPT_ 0x00010854   Section       12  qdeclarativegallery.o(t._Z21qMetaTypeDeleteHelperIPN10QtMobility33QDeclarativeGalleryWildcardFilterEEvPT_)
    t._Z21qMetaTypeDeleteHelperIPN10QtMobility35QDeclarativeGalleryStartsWithFilterEEvPT_ 0x00010860   Section       12  qdeclarativegallery.o(t._Z21qMetaTypeDeleteHelperIPN10QtMobility35QDeclarativeGalleryStartsWithFilterEEvPT_)
    t._Z21qMetaTypeDeleteHelperIPN10QtMobility36QDeclarativeGalleryGreaterThanFilterEEvPT_ 0x0001086c   Section       12  qdeclarativegallery.o(t._Z21qMetaTypeDeleteHelperIPN10QtMobility36QDeclarativeGalleryGreaterThanFilterEEvPT_)
    t._Z21qMetaTypeDeleteHelperIPN10QtMobility37QDeclarativeGalleryFilterIntersectionEEvPT_ 0x00010878   Section       12  qdeclarativegallery.o(t._Z21qMetaTypeDeleteHelperIPN10QtMobility37QDeclarativeGalleryFilterIntersectionEEvPT_)
    t._Z21qMetaTypeDeleteHelperIPN10QtMobility39QDeclarativeGalleryLessThanEqualsFilterEEvPT_ 0x00010884   Section       12  qdeclarativegallery.o(t._Z21qMetaTypeDeleteHelperIPN10QtMobility39QDeclarativeGalleryLessThanEqualsFilterEEvPT_)
    t._Z21qMetaTypeDeleteHelperIPN10QtMobility42QDeclarativeGalleryGreaterThanEqualsFilterEEvPT_ 0x00010890   Section       12  qdeclarativegallery.o(t._Z21qMetaTypeDeleteHelperIPN10QtMobility42QDeclarativeGalleryGreaterThanEqualsFilterEEvPT_)
    t._Z21qScriptValueFromValueI8QVariantE12QScriptValueP13QScriptEngineRKT_ 0x0001089c   Section       76  qdeclarativegalleryquerymodel.o(t._Z21qScriptValueFromValueI8QVariantE12QScriptValueP13QScriptEngineRKT_)
    t._Z21qScriptValueFromValueI8QVariantE12QScriptValueP13QScriptEngineRKT_.clean 0x000108e8   Section       16  qdeclarativegalleryquerymodel.o(t._Z21qScriptValueFromValueI8QVariantE12QScriptValueP13QScriptEngineRKT_.clean)
    t._Z24qMetaTypeConstructHelperI24QDeclarativeListPropertyIN10QtMobility27QDeclarativeDocumentGalleryEEEPvPKT_ 0x000108f8   Section      150  qdeclarativegallery.o(t._Z24qMetaTypeConstructHelperI24QDeclarativeListPropertyIN10QtMobility27QDeclarativeDocumentGalleryEEEPvPKT_)
    t._Z24qMetaTypeConstructHelperI24QDeclarativeListPropertyIN10QtMobility27QDeclarativeDocumentGalleryEEEPvPKT_.clean 0x0001098e   Section        4  qdeclarativegallery.o(t._Z24qMetaTypeConstructHelperI24QDeclarativeListPropertyIN10QtMobility27QDeclarativeDocumentGalleryEEEPvPKT_.clean)
    t._Z24qMetaTypeConstructHelperI24QDeclarativeListPropertyIN10QtMobility29QDeclarativeGalleryFilterBaseEEEPvPKT_ 0x00010992   Section      150  qdeclarativegallery.o(t._Z24qMetaTypeConstructHelperI24QDeclarativeListPropertyIN10QtMobility29QDeclarativeGalleryFilterBaseEEEPvPKT_)
    t._Z24qMetaTypeConstructHelperI24QDeclarativeListPropertyIN10QtMobility29QDeclarativeGalleryFilterBaseEEEPvPKT_.clean 0x00010a28   Section        4  qdeclarativegallery.o(t._Z24qMetaTypeConstructHelperI24QDeclarativeListPropertyIN10QtMobility29QDeclarativeGalleryFilterBaseEEEPvPKT_.clean)
    t._Z24qMetaTypeConstructHelperI24QDeclarativeListPropertyIN10QtMobility30QDeclarativeGalleryFilterUnionEEEPvPKT_ 0x00010a2c   Section      150  qdeclarativegallery.o(t._Z24qMetaTypeConstructHelperI24QDeclarativeListPropertyIN10QtMobility30QDeclarativeGalleryFilterUnionEEEPvPKT_)
    t._Z24qMetaTypeConstructHelperI24QDeclarativeListPropertyIN10QtMobility30QDeclarativeGalleryFilterUnionEEEPvPKT_.clean 0x00010ac2   Section        4  qdeclarativegallery.o(t._Z24qMetaTypeConstructHelperI24QDeclarativeListPropertyIN10QtMobility30QDeclarativeGalleryFilterUnionEEEPvPKT_.clean)
    t._Z24qMetaTypeConstructHelperI24QDeclarativeListPropertyIN10QtMobility31QDeclarativeDocumentGalleryItemEEEPvPKT_ 0x00010ac6   Section      150  qdeclarativegallery.o(t._Z24qMetaTypeConstructHelperI24QDeclarativeListPropertyIN10QtMobility31QDeclarativeDocumentGalleryItemEEEPvPKT_)
    t._Z24qMetaTypeConstructHelperI24QDeclarativeListPropertyIN10QtMobility31QDeclarativeDocumentGalleryItemEEEPvPKT_.clean 0x00010b5c   Section        4  qdeclarativegallery.o(t._Z24qMetaTypeConstructHelperI24QDeclarativeListPropertyIN10QtMobility31QDeclarativeDocumentGalleryItemEEEPvPKT_.clean)
    t._Z24qMetaTypeConstructHelperI24QDeclarativeListPropertyIN10QtMobility31QDeclarativeDocumentGalleryTypeEEEPvPKT_ 0x00010b60   Section      150  qdeclarativegallery.o(t._Z24qMetaTypeConstructHelperI24QDeclarativeListPropertyIN10QtMobility31QDeclarativeDocumentGalleryTypeEEEPvPKT_)
    t._Z24qMetaTypeConstructHelperI24QDeclarativeListPropertyIN10QtMobility31QDeclarativeDocumentGalleryTypeEEEPvPKT_.clean 0x00010bf6   Section        4  qdeclarativegallery.o(t._Z24qMetaTypeConstructHelperI24QDeclarativeListPropertyIN10QtMobility31QDeclarativeDocumentGalleryTypeEEEPvPKT_.clean)
    t._Z24qMetaTypeConstructHelperI24QDeclarativeListPropertyIN10QtMobility31QDeclarativeGalleryEqualsFilterEEEPvPKT_ 0x00010bfa   Section      150  qdeclarativegallery.o(t._Z24qMetaTypeConstructHelperI24QDeclarativeListPropertyIN10QtMobility31QDeclarativeGalleryEqualsFilterEEEPvPKT_)
    t._Z24qMetaTypeConstructHelperI24QDeclarativeListPropertyIN10QtMobility31QDeclarativeGalleryEqualsFilterEEEPvPKT_.clean 0x00010c90   Section        4  qdeclarativegallery.o(t._Z24qMetaTypeConstructHelperI24QDeclarativeListPropertyIN10QtMobility31QDeclarativeGalleryEqualsFilterEEEPvPKT_.clean)
    t._Z24qMetaTypeConstructHelperI24QDeclarativeListPropertyIN10QtMobility32QDeclarativeDocumentGalleryModelEEEPvPKT_ 0x00010c94   Section      150  qdeclarativegallery.o(t._Z24qMetaTypeConstructHelperI24QDeclarativeListPropertyIN10QtMobility32QDeclarativeDocumentGalleryModelEEEPvPKT_)
    t._Z24qMetaTypeConstructHelperI24QDeclarativeListPropertyIN10QtMobility32QDeclarativeDocumentGalleryModelEEEPvPKT_.clean 0x00010d2a   Section        4  qdeclarativegallery.o(t._Z24qMetaTypeConstructHelperI24QDeclarativeListPropertyIN10QtMobility32QDeclarativeDocumentGalleryModelEEEPvPKT_.clean)
    t._Z24qMetaTypeConstructHelperI24QDeclarativeListPropertyIN10QtMobility33QDeclarativeGalleryContainsFilterEEEPvPKT_ 0x00010d2e   Section      150  qdeclarativegallery.o(t._Z24qMetaTypeConstructHelperI24QDeclarativeListPropertyIN10QtMobility33QDeclarativeGalleryContainsFilterEEEPvPKT_)
    t._Z24qMetaTypeConstructHelperI24QDeclarativeListPropertyIN10QtMobility33QDeclarativeGalleryContainsFilterEEEPvPKT_.clean 0x00010dc4   Section        4  qdeclarativegallery.o(t._Z24qMetaTypeConstructHelperI24QDeclarativeListPropertyIN10QtMobility33QDeclarativeGalleryContainsFilterEEEPvPKT_.clean)
    t._Z24qMetaTypeConstructHelperI24QDeclarativeListPropertyIN10QtMobility33QDeclarativeGalleryEndsWithFilterEEEPvPKT_ 0x00010dc8   Section      150  qdeclarativegallery.o(t._Z24qMetaTypeConstructHelperI24QDeclarativeListPropertyIN10QtMobility33QDeclarativeGalleryEndsWithFilterEEEPvPKT_)
    t._Z24qMetaTypeConstructHelperI24QDeclarativeListPropertyIN10QtMobility33QDeclarativeGalleryEndsWithFilterEEEPvPKT_.clean 0x00010e5e   Section        4  qdeclarativegallery.o(t._Z24qMetaTypeConstructHelperI24QDeclarativeListPropertyIN10QtMobility33QDeclarativeGalleryEndsWithFilterEEEPvPKT_.clean)
    t._Z24qMetaTypeConstructHelperI24QDeclarativeListPropertyIN10QtMobility33QDeclarativeGalleryLessThanFilterEEEPvPKT_ 0x00010e62   Section      150  qdeclarativegallery.o(t._Z24qMetaTypeConstructHelperI24QDeclarativeListPropertyIN10QtMobility33QDeclarativeGalleryLessThanFilterEEEPvPKT_)
    t._Z24qMetaTypeConstructHelperI24QDeclarativeListPropertyIN10QtMobility33QDeclarativeGalleryLessThanFilterEEEPvPKT_.clean 0x00010ef8   Section        4  qdeclarativegallery.o(t._Z24qMetaTypeConstructHelperI24QDeclarativeListPropertyIN10QtMobility33QDeclarativeGalleryLessThanFilterEEEPvPKT_.clean)
    t._Z24qMetaTypeConstructHelperI24QDeclarativeListPropertyIN10QtMobility33QDeclarativeGalleryWildcardFilterEEEPvPKT_ 0x00010efc   Section      150  qdeclarativegallery.o(t._Z24qMetaTypeConstructHelperI24QDeclarativeListPropertyIN10QtMobility33QDeclarativeGalleryWildcardFilterEEEPvPKT_)
    t._Z24qMetaTypeConstructHelperI24QDeclarativeListPropertyIN10QtMobility33QDeclarativeGalleryWildcardFilterEEEPvPKT_.clean 0x00010f92   Section        4  qdeclarativegallery.o(t._Z24qMetaTypeConstructHelperI24QDeclarativeListPropertyIN10QtMobility33QDeclarativeGalleryWildcardFilterEEEPvPKT_.clean)
    t._Z24qMetaTypeConstructHelperI24QDeclarativeListPropertyIN10QtMobility35QDeclarativeGalleryStartsWithFilterEEEPvPKT_ 0x00010f96   Section      150  qdeclarativegallery.o(t._Z24qMetaTypeConstructHelperI24QDeclarativeListPropertyIN10QtMobility35QDeclarativeGalleryStartsWithFilterEEEPvPKT_)
    t._Z24qMetaTypeConstructHelperI24QDeclarativeListPropertyIN10QtMobility35QDeclarativeGalleryStartsWithFilterEEEPvPKT_.clean 0x0001102c   Section        4  qdeclarativegallery.o(t._Z24qMetaTypeConstructHelperI24QDeclarativeListPropertyIN10QtMobility35QDeclarativeGalleryStartsWithFilterEEEPvPKT_.clean)
    t._Z24qMetaTypeConstructHelperI24QDeclarativeListPropertyIN10QtMobility36QDeclarativeGalleryGreaterThanFilterEEEPvPKT_ 0x00011030   Section      150  qdeclarativegallery.o(t._Z24qMetaTypeConstructHelperI24QDeclarativeListPropertyIN10QtMobility36QDeclarativeGalleryGreaterThanFilterEEEPvPKT_)
    t._Z24qMetaTypeConstructHelperI24QDeclarativeListPropertyIN10QtMobility36QDeclarativeGalleryGreaterThanFilterEEEPvPKT_.clean 0x000110c6   Section        4  qdeclarativegallery.o(t._Z24qMetaTypeConstructHelperI24QDeclarativeListPropertyIN10QtMobility36QDeclarativeGalleryGreaterThanFilterEEEPvPKT_.clean)
    t._Z24qMetaTypeConstructHelperI24QDeclarativeListPropertyIN10QtMobility37QDeclarativeGalleryFilterIntersectionEEEPvPKT_ 0x000110ca   Section      150  qdeclarativegallery.o(t._Z24qMetaTypeConstructHelperI24QDeclarativeListPropertyIN10QtMobility37QDeclarativeGalleryFilterIntersectionEEEPvPKT_)
    t._Z24qMetaTypeConstructHelperI24QDeclarativeListPropertyIN10QtMobility37QDeclarativeGalleryFilterIntersectionEEEPvPKT_.clean 0x00011160   Section        4  qdeclarativegallery.o(t._Z24qMetaTypeConstructHelperI24QDeclarativeListPropertyIN10QtMobility37QDeclarativeGalleryFilterIntersectionEEEPvPKT_.clean)
    t._Z24qMetaTypeConstructHelperI24QDeclarativeListPropertyIN10QtMobility39QDeclarativeGalleryLessThanEqualsFilterEEEPvPKT_ 0x00011164   Section      150  qdeclarativegallery.o(t._Z24qMetaTypeConstructHelperI24QDeclarativeListPropertyIN10QtMobility39QDeclarativeGalleryLessThanEqualsFilterEEEPvPKT_)
    t._Z24qMetaTypeConstructHelperI24QDeclarativeListPropertyIN10QtMobility39QDeclarativeGalleryLessThanEqualsFilterEEEPvPKT_.clean 0x000111fa   Section        4  qdeclarativegallery.o(t._Z24qMetaTypeConstructHelperI24QDeclarativeListPropertyIN10QtMobility39QDeclarativeGalleryLessThanEqualsFilterEEEPvPKT_.clean)
    t._Z24qMetaTypeConstructHelperI24QDeclarativeListPropertyIN10QtMobility42QDeclarativeGalleryGreaterThanEqualsFilterEEEPvPKT_ 0x000111fe   Section      150  qdeclarativegallery.o(t._Z24qMetaTypeConstructHelperI24QDeclarativeListPropertyIN10QtMobility42QDeclarativeGalleryGreaterThanEqualsFilterEEEPvPKT_)
    t._Z24qMetaTypeConstructHelperI24QDeclarativeListPropertyIN10QtMobility42QDeclarativeGalleryGreaterThanEqualsFilterEEEPvPKT_.clean 0x00011294   Section        4  qdeclarativegallery.o(t._Z24qMetaTypeConstructHelperI24QDeclarativeListPropertyIN10QtMobility42QDeclarativeGalleryGreaterThanEqualsFilterEEEPvPKT_.clean)
    t._Z24qMetaTypeConstructHelperIN10QtMobility27QDeclarativeDocumentGallery8ItemTypeEEPvPKT_ 0x00011298   Section       50  qdeclarativegallery.o(t._Z24qMetaTypeConstructHelperIN10QtMobility27QDeclarativeDocumentGallery8ItemTypeEEPvPKT_)
    t._Z24qMetaTypeConstructHelperIPN10QtMobility27QDeclarativeDocumentGalleryEEPvPKT_ 0x000112ca   Section       50  qdeclarativegallery.o(t._Z24qMetaTypeConstructHelperIPN10QtMobility27QDeclarativeDocumentGalleryEEPvPKT_)
    t._Z24qMetaTypeConstructHelperIPN10QtMobility29QDeclarativeGalleryFilterBaseEEPvPKT_ 0x000112fc   Section       50  qdeclarativegallery.o(t._Z24qMetaTypeConstructHelperIPN10QtMobility29QDeclarativeGalleryFilterBaseEEPvPKT_)
    t._Z24qMetaTypeConstructHelperIPN10QtMobility30QDeclarativeGalleryFilterUnionEEPvPKT_ 0x0001132e   Section       50  qdeclarativegallery.o(t._Z24qMetaTypeConstructHelperIPN10QtMobility30QDeclarativeGalleryFilterUnionEEPvPKT_)
    t._Z24qMetaTypeConstructHelperIPN10QtMobility31QDeclarativeDocumentGalleryItemEEPvPKT_ 0x00011360   Section       50  qdeclarativegallery.o(t._Z24qMetaTypeConstructHelperIPN10QtMobility31QDeclarativeDocumentGalleryItemEEPvPKT_)
    t._Z24qMetaTypeConstructHelperIPN10QtMobility31QDeclarativeDocumentGalleryTypeEEPvPKT_ 0x00011392   Section       50  qdeclarativegallery.o(t._Z24qMetaTypeConstructHelperIPN10QtMobility31QDeclarativeDocumentGalleryTypeEEPvPKT_)
    t._Z24qMetaTypeConstructHelperIPN10QtMobility31QDeclarativeGalleryEqualsFilterEEPvPKT_ 0x000113c4   Section       50  qdeclarativegallery.o(t._Z24qMetaTypeConstructHelperIPN10QtMobility31QDeclarativeGalleryEqualsFilterEEPvPKT_)
    t._Z24qMetaTypeConstructHelperIPN10QtMobility32QDeclarativeDocumentGalleryModelEEPvPKT_ 0x000113f6   Section       50  qdeclarativegallery.o(t._Z24qMetaTypeConstructHelperIPN10QtMobility32QDeclarativeDocumentGalleryModelEEPvPKT_)
    t._Z24qMetaTypeConstructHelperIPN10QtMobility33QDeclarativeGalleryContainsFilterEEPvPKT_ 0x00011428   Section       50  qdeclarativegallery.o(t._Z24qMetaTypeConstructHelperIPN10QtMobility33QDeclarativeGalleryContainsFilterEEPvPKT_)
    t._Z24qMetaTypeConstructHelperIPN10QtMobility33QDeclarativeGalleryEndsWithFilterEEPvPKT_ 0x0001145a   Section       50  qdeclarativegallery.o(t._Z24qMetaTypeConstructHelperIPN10QtMobility33QDeclarativeGalleryEndsWithFilterEEPvPKT_)
    t._Z24qMetaTypeConstructHelperIPN10QtMobility33QDeclarativeGalleryLessThanFilterEEPvPKT_ 0x0001148c   Section       50  qdeclarativegallery.o(t._Z24qMetaTypeConstructHelperIPN10QtMobility33QDeclarativeGalleryLessThanFilterEEPvPKT_)
    t._Z24qMetaTypeConstructHelperIPN10QtMobility33QDeclarativeGalleryWildcardFilterEEPvPKT_ 0x000114be   Section       50  qdeclarativegallery.o(t._Z24qMetaTypeConstructHelperIPN10QtMobility33QDeclarativeGalleryWildcardFilterEEPvPKT_)
    t._Z24qMetaTypeConstructHelperIPN10QtMobility35QDeclarativeGalleryStartsWithFilterEEPvPKT_ 0x000114f0   Section       50  qdeclarativegallery.o(t._Z24qMetaTypeConstructHelperIPN10QtMobility35QDeclarativeGalleryStartsWithFilterEEPvPKT_)
    t._Z24qMetaTypeConstructHelperIPN10QtMobility36QDeclarativeGalleryGreaterThanFilterEEPvPKT_ 0x00011522   Section       50  qdeclarativegallery.o(t._Z24qMetaTypeConstructHelperIPN10QtMobility36QDeclarativeGalleryGreaterThanFilterEEPvPKT_)
    t._Z24qMetaTypeConstructHelperIPN10QtMobility37QDeclarativeGalleryFilterIntersectionEEPvPKT_ 0x00011554   Section       50  qdeclarativegallery.o(t._Z24qMetaTypeConstructHelperIPN10QtMobility37QDeclarativeGalleryFilterIntersectionEEPvPKT_)
    t._Z24qMetaTypeConstructHelperIPN10QtMobility39QDeclarativeGalleryLessThanEqualsFilterEEPvPKT_ 0x00011586   Section       50  qdeclarativegallery.o(t._Z24qMetaTypeConstructHelperIPN10QtMobility39QDeclarativeGalleryLessThanEqualsFilterEEPvPKT_)
    t._Z24qMetaTypeConstructHelperIPN10QtMobility42QDeclarativeGalleryGreaterThanEqualsFilterEEPvPKT_ 0x000115b8   Section       50  qdeclarativegallery.o(t._Z24qMetaTypeConstructHelperIPN10QtMobility42QDeclarativeGalleryGreaterThanEqualsFilterEEPvPKT_)
    t._Z26qmlRegisterUncreatableTypeIN10QtMobility27QDeclarativeDocumentGalleryEEiPKciiS3_RK7QString 0x000115ec   Section      292  qdeclarativegallery.o(t._Z26qmlRegisterUncreatableTypeIN10QtMobility27QDeclarativeDocumentGalleryEEiPKciiS3_RK7QString)
    t._Z26qmlRegisterUncreatableTypeIN10QtMobility27QDeclarativeDocumentGalleryEEiPKciiS3_RK7QString.clean 0x00011710   Section       52  qdeclarativegallery.o(t._Z26qmlRegisterUncreatableTypeIN10QtMobility27QDeclarativeDocumentGalleryEEiPKciiS3_RK7QString.clean)
    t._Z9qMakePairIi7QStringE5QPairIT_T0_ERKS2_RKS3_ 0x00011744   Section       30  qdeclarativegalleryquerymodel.o(t._Z9qMakePairIi7QStringE5QPairIT_T0_ERKS2_RKS3_)
    t._ZN12QMetaTypeId2IN10QtMobility27QDeclarativeDocumentGallery8ItemTypeEE14qt_metatype_idEv 0x00011764   Section      112  qdeclarativegallery.o(t._ZN12QMetaTypeId2IN10QtMobility27QDeclarativeDocumentGallery8ItemTypeEE14qt_metatype_idEv)
    t._ZN12QWeakPointerIN10QtMobility29QDeclarativeGalleryFilterBaseEED1Ev 0x000117d4   Section       42  qdeclarativegalleryquerymodel.o(t._ZN12QWeakPointerIN10QtMobility29QDeclarativeGalleryFilterBaseEED1Ev)
    t._ZN19QDeclarativePrivate10createIntoIN10QtMobility30QDeclarativeGalleryFilterUnionEEEvPv 0x00011800   Section       68  qdeclarativegallery.o(t._ZN19QDeclarativePrivate10createIntoIN10QtMobility30QDeclarativeGalleryFilterUnionEEEvPv)
    t._ZN19QDeclarativePrivate10createIntoIN10QtMobility30QDeclarativeGalleryFilterUnionEEEvPv.clean 0x00011844   Section       12  qdeclarativegallery.o(t._ZN19QDeclarativePrivate10createIntoIN10QtMobility30QDeclarativeGalleryFilterUnionEEEvPv.clean)
    t._ZN19QDeclarativePrivate10createIntoIN10QtMobility31QDeclarativeDocumentGalleryItemEEEvPv 0x00011850   Section       48  qdeclarativegallery.o(t._ZN19QDeclarativePrivate10createIntoIN10QtMobility31QDeclarativeDocumentGalleryItemEEEvPv)
    t._ZN19QDeclarativePrivate10createIntoIN10QtMobility31QDeclarativeDocumentGalleryItemEEEvPv.clean 0x00011880   Section       12  qdeclarativegallery.o(t._ZN19QDeclarativePrivate10createIntoIN10QtMobility31QDeclarativeDocumentGalleryItemEEEvPv.clean)
    t._ZN19QDeclarativePrivate10createIntoIN10QtMobility31QDeclarativeDocumentGalleryTypeEEEvPv 0x0001188c   Section       48  qdeclarativegallery.o(t._ZN19QDeclarativePrivate10createIntoIN10QtMobility31QDeclarativeDocumentGalleryTypeEEEvPv)
    t._ZN19QDeclarativePrivate10createIntoIN10QtMobility31QDeclarativeDocumentGalleryTypeEEEvPv.clean 0x000118bc   Section       12  qdeclarativegallery.o(t._ZN19QDeclarativePrivate10createIntoIN10QtMobility31QDeclarativeDocumentGalleryTypeEEEvPv.clean)
    t._ZN19QDeclarativePrivate10createIntoIN10QtMobility31QDeclarativeGalleryEqualsFilterEEEvPv 0x000118c8   Section       60  qdeclarativegallery.o(t._ZN19QDeclarativePrivate10createIntoIN10QtMobility31QDeclarativeGalleryEqualsFilterEEEvPv)
    t._ZN19QDeclarativePrivate10createIntoIN10QtMobility31QDeclarativeGalleryEqualsFilterEEEvPv.clean 0x00011904   Section       12  qdeclarativegallery.o(t._ZN19QDeclarativePrivate10createIntoIN10QtMobility31QDeclarativeGalleryEqualsFilterEEEvPv.clean)
    t._ZN19QDeclarativePrivate10createIntoIN10QtMobility32QDeclarativeDocumentGalleryModelEEEvPv 0x00011910   Section       48  qdeclarativegallery.o(t._ZN19QDeclarativePrivate10createIntoIN10QtMobility32QDeclarativeDocumentGalleryModelEEEvPv)
    t._ZN19QDeclarativePrivate10createIntoIN10QtMobility32QDeclarativeDocumentGalleryModelEEEvPv.clean 0x00011940   Section       12  qdeclarativegallery.o(t._ZN19QDeclarativePrivate10createIntoIN10QtMobility32QDeclarativeDocumentGalleryModelEEEvPv.clean)
    t._ZN19QDeclarativePrivate10createIntoIN10QtMobility33QDeclarativeGalleryContainsFilterEEEvPv 0x0001194c   Section       60  qdeclarativegallery.o(t._ZN19QDeclarativePrivate10createIntoIN10QtMobility33QDeclarativeGalleryContainsFilterEEEvPv)
    t._ZN19QDeclarativePrivate10createIntoIN10QtMobility33QDeclarativeGalleryContainsFilterEEEvPv.clean 0x00011988   Section       12  qdeclarativegallery.o(t._ZN19QDeclarativePrivate10createIntoIN10QtMobility33QDeclarativeGalleryContainsFilterEEEvPv.clean)
    t._ZN19QDeclarativePrivate10createIntoIN10QtMobility33QDeclarativeGalleryEndsWithFilterEEEvPv 0x00011994   Section       60  qdeclarativegallery.o(t._ZN19QDeclarativePrivate10createIntoIN10QtMobility33QDeclarativeGalleryEndsWithFilterEEEvPv)
    t._ZN19QDeclarativePrivate10createIntoIN10QtMobility33QDeclarativeGalleryEndsWithFilterEEEvPv.clean 0x000119d0   Section       12  qdeclarativegallery.o(t._ZN19QDeclarativePrivate10createIntoIN10QtMobility33QDeclarativeGalleryEndsWithFilterEEEvPv.clean)
    t._ZN19QDeclarativePrivate10createIntoIN10QtMobility33QDeclarativeGalleryLessThanFilterEEEvPv 0x000119dc   Section       60  qdeclarativegallery.o(t._ZN19QDeclarativePrivate10createIntoIN10QtMobility33QDeclarativeGalleryLessThanFilterEEEvPv)
    t._ZN19QDeclarativePrivate10createIntoIN10QtMobility33QDeclarativeGalleryLessThanFilterEEEvPv.clean 0x00011a18   Section       12  qdeclarativegallery.o(t._ZN19QDeclarativePrivate10createIntoIN10QtMobility33QDeclarativeGalleryLessThanFilterEEEvPv.clean)
    t._ZN19QDeclarativePrivate10createIntoIN10QtMobility33QDeclarativeGalleryWildcardFilterEEEvPv 0x00011a24   Section       60  qdeclarativegallery.o(t._ZN19QDeclarativePrivate10createIntoIN10QtMobility33QDeclarativeGalleryWildcardFilterEEEvPv)
    t._ZN19QDeclarativePrivate10createIntoIN10QtMobility33QDeclarativeGalleryWildcardFilterEEEvPv.clean 0x00011a60   Section       12  qdeclarativegallery.o(t._ZN19QDeclarativePrivate10createIntoIN10QtMobility33QDeclarativeGalleryWildcardFilterEEEvPv.clean)
    t._ZN19QDeclarativePrivate10createIntoIN10QtMobility35QDeclarativeGalleryStartsWithFilterEEEvPv 0x00011a6c   Section       60  qdeclarativegallery.o(t._ZN19QDeclarativePrivate10createIntoIN10QtMobility35QDeclarativeGalleryStartsWithFilterEEEvPv)
    t._ZN19QDeclarativePrivate10createIntoIN10QtMobility35QDeclarativeGalleryStartsWithFilterEEEvPv.clean 0x00011aa8   Section       12  qdeclarativegallery.o(t._ZN19QDeclarativePrivate10createIntoIN10QtMobility35QDeclarativeGalleryStartsWithFilterEEEvPv.clean)
    t._ZN19QDeclarativePrivate10createIntoIN10QtMobility36QDeclarativeGalleryGreaterThanFilterEEEvPv 0x00011ab4   Section       60  qdeclarativegallery.o(t._ZN19QDeclarativePrivate10createIntoIN10QtMobility36QDeclarativeGalleryGreaterThanFilterEEEvPv)
    t._ZN19QDeclarativePrivate10createIntoIN10QtMobility36QDeclarativeGalleryGreaterThanFilterEEEvPv.clean 0x00011af0   Section       12  qdeclarativegallery.o(t._ZN19QDeclarativePrivate10createIntoIN10QtMobility36QDeclarativeGalleryGreaterThanFilterEEEvPv.clean)
    t._ZN19QDeclarativePrivate10createIntoIN10QtMobility37QDeclarativeGalleryFilterIntersectionEEEvPv 0x00011afc   Section       68  qdeclarativegallery.o(t._ZN19QDeclarativePrivate10createIntoIN10QtMobility37QDeclarativeGalleryFilterIntersectionEEEvPv)
    t._ZN19QDeclarativePrivate10createIntoIN10QtMobility37QDeclarativeGalleryFilterIntersectionEEEvPv.clean 0x00011b40   Section       12  qdeclarativegallery.o(t._ZN19QDeclarativePrivate10createIntoIN10QtMobility37QDeclarativeGalleryFilterIntersectionEEEvPv.clean)
    t._ZN19QDeclarativePrivate10createIntoIN10QtMobility39QDeclarativeGalleryLessThanEqualsFilterEEEvPv 0x00011b4c   Section       60  qdeclarativegallery.o(t._ZN19QDeclarativePrivate10createIntoIN10QtMobility39QDeclarativeGalleryLessThanEqualsFilterEEEvPv)
    t._ZN19QDeclarativePrivate10createIntoIN10QtMobility39QDeclarativeGalleryLessThanEqualsFilterEEEvPv.clean 0x00011b88   Section       12  qdeclarativegallery.o(t._ZN19QDeclarativePrivate10createIntoIN10QtMobility39QDeclarativeGalleryLessThanEqualsFilterEEEvPv.clean)
    t._ZN19QDeclarativePrivate10createIntoIN10QtMobility42QDeclarativeGalleryGreaterThanEqualsFilterEEEvPv 0x00011b94   Section       60  qdeclarativegallery.o(t._ZN19QDeclarativePrivate10createIntoIN10QtMobility42QDeclarativeGalleryGreaterThanEqualsFilterEEEvPv)
    t._ZN19QDeclarativePrivate10createIntoIN10QtMobility42QDeclarativeGalleryGreaterThanEqualsFilterEEEvPv.clean 0x00011bd0   Section       12  qdeclarativegallery.o(t._ZN19QDeclarativePrivate10createIntoIN10QtMobility42QDeclarativeGalleryGreaterThanEqualsFilterEEEvPv.clean)
    t._ZN19QDeclarativePrivate19QDeclarativeElementIN10QtMobility30QDeclarativeGalleryFilterUnionEED1Ev 0x00011bdc   Section       36  qdeclarativegallery.o(t._ZN19QDeclarativePrivate19QDeclarativeElementIN10QtMobility30QDeclarativeGalleryFilterUnionEED1Ev)
    t._ZN19QDeclarativePrivate19QDeclarativeElementIN10QtMobility30QDeclarativeGalleryFilterUnionEED1Ev.clean 0x00011c00   Section       10  qdeclarativegallery.o(t._ZN19QDeclarativePrivate19QDeclarativeElementIN10QtMobility30QDeclarativeGalleryFilterUnionEED1Ev.clean)
    t._ZN19QDeclarativePrivate19QDeclarativeElementIN10QtMobility31QDeclarativeDocumentGalleryItemEED1Ev 0x00011c0c   Section       32  qdeclarativegallery.o(t._ZN19QDeclarativePrivate19QDeclarativeElementIN10QtMobility31QDeclarativeDocumentGalleryItemEED1Ev)
    t._ZN19QDeclarativePrivate19QDeclarativeElementIN10QtMobility31QDeclarativeDocumentGalleryItemEED1Ev.clean 0x00011c2c   Section       10  qdeclarativegallery.o(t._ZN19QDeclarativePrivate19QDeclarativeElementIN10QtMobility31QDeclarativeDocumentGalleryItemEED1Ev.clean)
    t._ZN19QDeclarativePrivate19QDeclarativeElementIN10QtMobility31QDeclarativeDocumentGalleryTypeEED1Ev 0x00011c38   Section       32  qdeclarativegallery.o(t._ZN19QDeclarativePrivate19QDeclarativeElementIN10QtMobility31QDeclarativeDocumentGalleryTypeEED1Ev)
    t._ZN19QDeclarativePrivate19QDeclarativeElementIN10QtMobility31QDeclarativeDocumentGalleryTypeEED1Ev.clean 0x00011c58   Section       10  qdeclarativegallery.o(t._ZN19QDeclarativePrivate19QDeclarativeElementIN10QtMobility31QDeclarativeDocumentGalleryTypeEED1Ev.clean)
    t._ZN19QDeclarativePrivate19QDeclarativeElementIN10QtMobility31QDeclarativeGalleryEqualsFilterEED1Ev 0x00011c64   Section       32  qdeclarativegallery.o(t._ZN19QDeclarativePrivate19QDeclarativeElementIN10QtMobility31QDeclarativeGalleryEqualsFilterEED1Ev)
    t._ZN19QDeclarativePrivate19QDeclarativeElementIN10QtMobility31QDeclarativeGalleryEqualsFilterEED1Ev.clean 0x00011c84   Section       10  qdeclarativegallery.o(t._ZN19QDeclarativePrivate19QDeclarativeElementIN10QtMobility31QDeclarativeGalleryEqualsFilterEED1Ev.clean)
    t._ZN19QDeclarativePrivate19QDeclarativeElementIN10QtMobility32QDeclarativeDocumentGalleryModelEED1Ev 0x00011c90   Section       32  qdeclarativegallery.o(t._ZN19QDeclarativePrivate19QDeclarativeElementIN10QtMobility32QDeclarativeDocumentGalleryModelEED1Ev)
    t._ZN19QDeclarativePrivate19QDeclarativeElementIN10QtMobility32QDeclarativeDocumentGalleryModelEED1Ev.clean 0x00011cb0   Section       10  qdeclarativegallery.o(t._ZN19QDeclarativePrivate19QDeclarativeElementIN10QtMobility32QDeclarativeDocumentGalleryModelEED1Ev.clean)
    t._ZN19QDeclarativePrivate19QDeclarativeElementIN10QtMobility33QDeclarativeGalleryContainsFilterEED1Ev 0x00011cbc   Section       32  qdeclarativegallery.o(t._ZN19QDeclarativePrivate19QDeclarativeElementIN10QtMobility33QDeclarativeGalleryContainsFilterEED1Ev)
    t._ZN19QDeclarativePrivate19QDeclarativeElementIN10QtMobility33QDeclarativeGalleryContainsFilterEED1Ev.clean 0x00011cdc   Section       10  qdeclarativegallery.o(t._ZN19QDeclarativePrivate19QDeclarativeElementIN10QtMobility33QDeclarativeGalleryContainsFilterEED1Ev.clean)
    t._ZN19QDeclarativePrivate19QDeclarativeElementIN10QtMobility33QDeclarativeGalleryEndsWithFilterEED1Ev 0x00011ce8   Section       32  qdeclarativegallery.o(t._ZN19QDeclarativePrivate19QDeclarativeElementIN10QtMobility33QDeclarativeGalleryEndsWithFilterEED1Ev)
    t._ZN19QDeclarativePrivate19QDeclarativeElementIN10QtMobility33QDeclarativeGalleryEndsWithFilterEED1Ev.clean 0x00011d08   Section       10  qdeclarativegallery.o(t._ZN19QDeclarativePrivate19QDeclarativeElementIN10QtMobility33QDeclarativeGalleryEndsWithFilterEED1Ev.clean)
    t._ZN19QDeclarativePrivate19QDeclarativeElementIN10QtMobility33QDeclarativeGalleryLessThanFilterEED1Ev 0x00011d14   Section       32  qdeclarativegallery.o(t._ZN19QDeclarativePrivate19QDeclarativeElementIN10QtMobility33QDeclarativeGalleryLessThanFilterEED1Ev)
    t._ZN19QDeclarativePrivate19QDeclarativeElementIN10QtMobility33QDeclarativeGalleryLessThanFilterEED1Ev.clean 0x00011d34   Section       10  qdeclarativegallery.o(t._ZN19QDeclarativePrivate19QDeclarativeElementIN10QtMobility33QDeclarativeGalleryLessThanFilterEED1Ev.clean)
    t._ZN19QDeclarativePrivate19QDeclarativeElementIN10QtMobility33QDeclarativeGalleryWildcardFilterEED1Ev 0x00011d40   Section       32  qdeclarativegallery.o(t._ZN19QDeclarativePrivate19QDeclarativeElementIN10QtMobility33QDeclarativeGalleryWildcardFilterEED1Ev)
    t._ZN19QDeclarativePrivate19QDeclarativeElementIN10QtMobility33QDeclarativeGalleryWildcardFilterEED1Ev.clean 0x00011d60   Section       10  qdeclarativegallery.o(t._ZN19QDeclarativePrivate19QDeclarativeElementIN10QtMobility33QDeclarativeGalleryWildcardFilterEED1Ev.clean)
    t._ZN19QDeclarativePrivate19QDeclarativeElementIN10QtMobility35QDeclarativeGalleryStartsWithFilterEED1Ev 0x00011d6c   Section       32  qdeclarativegallery.o(t._ZN19QDeclarativePrivate19QDeclarativeElementIN10QtMobility35QDeclarativeGalleryStartsWithFilterEED1Ev)
    t._ZN19QDeclarativePrivate19QDeclarativeElementIN10QtMobility35QDeclarativeGalleryStartsWithFilterEED1Ev.clean 0x00011d8c   Section       10  qdeclarativegallery.o(t._ZN19QDeclarativePrivate19QDeclarativeElementIN10QtMobility35QDeclarativeGalleryStartsWithFilterEED1Ev.clean)
    t._ZN19QDeclarativePrivate19QDeclarativeElementIN10QtMobility36QDeclarativeGalleryGreaterThanFilterEED1Ev 0x00011d98   Section       32  qdeclarativegallery.o(t._ZN19QDeclarativePrivate19QDeclarativeElementIN10QtMobility36QDeclarativeGalleryGreaterThanFilterEED1Ev)
    t._ZN19QDeclarativePrivate19QDeclarativeElementIN10QtMobility36QDeclarativeGalleryGreaterThanFilterEED1Ev.clean 0x00011db8   Section       10  qdeclarativegallery.o(t._ZN19QDeclarativePrivate19QDeclarativeElementIN10QtMobility36QDeclarativeGalleryGreaterThanFilterEED1Ev.clean)
    t._ZN19QDeclarativePrivate19QDeclarativeElementIN10QtMobility37QDeclarativeGalleryFilterIntersectionEED1Ev 0x00011dc4   Section       36  qdeclarativegallery.o(t._ZN19QDeclarativePrivate19QDeclarativeElementIN10QtMobility37QDeclarativeGalleryFilterIntersectionEED1Ev)
    t._ZN19QDeclarativePrivate19QDeclarativeElementIN10QtMobility37QDeclarativeGalleryFilterIntersectionEED1Ev.clean 0x00011de8   Section       10  qdeclarativegallery.o(t._ZN19QDeclarativePrivate19QDeclarativeElementIN10QtMobility37QDeclarativeGalleryFilterIntersectionEED1Ev.clean)
    t._ZN19QDeclarativePrivate19QDeclarativeElementIN10QtMobility39QDeclarativeGalleryLessThanEqualsFilterEED1Ev 0x00011df4   Section       32  qdeclarativegallery.o(t._ZN19QDeclarativePrivate19QDeclarativeElementIN10QtMobility39QDeclarativeGalleryLessThanEqualsFilterEED1Ev)
    t._ZN19QDeclarativePrivate19QDeclarativeElementIN10QtMobility39QDeclarativeGalleryLessThanEqualsFilterEED1Ev.clean 0x00011e14   Section       10  qdeclarativegallery.o(t._ZN19QDeclarativePrivate19QDeclarativeElementIN10QtMobility39QDeclarativeGalleryLessThanEqualsFilterEED1Ev.clean)
    t._ZN19QDeclarativePrivate19QDeclarativeElementIN10QtMobility42QDeclarativeGalleryGreaterThanEqualsFilterEED1Ev 0x00011e20   Section       32  qdeclarativegallery.o(t._ZN19QDeclarativePrivate19QDeclarativeElementIN10QtMobility42QDeclarativeGalleryGreaterThanEqualsFilterEED1Ev)
    t._ZN19QDeclarativePrivate19QDeclarativeElementIN10QtMobility42QDeclarativeGalleryGreaterThanEqualsFilterEED1Ev.clean 0x00011e40   Section       10  qdeclarativegallery.o(t._ZN19QDeclarativePrivate19QDeclarativeElementIN10QtMobility42QDeclarativeGalleryGreaterThanEqualsFilterEED1Ev.clean)
    t._ZN20QGlobalStaticDeleterIN10QtMobility16QDocumentGalleryEED1Ev 0x00011e4a   Section       38  qdeclarativedocumentgallery.o(t._ZN20QGlobalStaticDeleterIN10QtMobility16QDocumentGalleryEED1Ev)
    t._ZN5QHashIi10QByteArrayE11deleteNode2EPN9QHashData4NodeE 0x00011e70   Section       24  qdeclarativegalleryquerymodel.o(t._ZN5QHashIi10QByteArrayE11deleteNode2EPN9QHashData4NodeE)
    t._ZN5QHashIi10QByteArrayE13detach_helperEv 0x00011e88   Section       60  qdeclarativegalleryquerymodel.o(t._ZN5QHashIi10QByteArrayE13detach_helperEv)
    t._ZN5QHashIi10QByteArrayE13duplicateNodeEPN9QHashData4NodeEPv 0x00011ec4   Section       46  qdeclarativegalleryquerymodel.o(t._ZN5QHashIi10QByteArrayE13duplicateNodeEPN9QHashData4NodeEPv)
    t._ZN5QHashIi10QByteArrayE13duplicateNodeEPN9QHashData4NodeEPv.clean 0x00011ef2   Section       14  qdeclarativegalleryquerymodel.o(t._ZN5QHashIi10QByteArrayE13duplicateNodeEPN9QHashData4NodeEPv.clean)
    t._ZN5QHashIi10QByteArrayE6insertERKiRKS0_ 0x00011f00   Section      228  qdeclarativegalleryquerymodel.o(t._ZN5QHashIi10QByteArrayE6insertERKiRKS0_)
    t._ZN5QHashIi10QByteArrayE6insertERKiRKS0_.clean 0x00011fe4   Section       14  qdeclarativegalleryquerymodel.o(t._ZN5QHashIi10QByteArrayE6insertERKiRKS0_.clean)
    t._ZN5QHashIi10QByteArrayE8freeDataEP9QHashData 0x00011ff4   Section       20  qdeclarativegalleryquerymodel.o(t._ZN5QHashIi10QByteArrayE8freeDataEP9QHashData)
    t._ZN5QHashIi10QByteArrayED1Ev           0x00012008   Section       30  qdeclarativegalleryquerymodel.o(t._ZN5QHashIi10QByteArrayED1Ev)
    t._ZN5QHashIi7QStringE11deleteNode2EPN9QHashData4NodeE 0x00012026   Section       24  qdeclarativegalleryitem.o(t._ZN5QHashIi7QStringE11deleteNode2EPN9QHashData4NodeE)
    t._ZN5QHashIi7QStringE13detach_helperEv  0x00012040   Section       60  qdeclarativegalleryitem.o(t._ZN5QHashIi7QStringE13detach_helperEv)
    t._ZN5QHashIi7QStringE13duplicateNodeEPN9QHashData4NodeEPv 0x0001207c   Section       46  qdeclarativegalleryitem.o(t._ZN5QHashIi7QStringE13duplicateNodeEPN9QHashData4NodeEPv)
    t._ZN5QHashIi7QStringE13duplicateNodeEPN9QHashData4NodeEPv.clean 0x000120aa   Section       14  qdeclarativegalleryitem.o(t._ZN5QHashIi7QStringE13duplicateNodeEPN9QHashData4NodeEPv.clean)
    t._ZN5QHashIi7QStringE5clearEv           0x000120b8   Section       82  qdeclarativegalleryitem.o(t._ZN5QHashIi7QStringE5clearEv)
    t._ZN5QHashIi7QStringE5clearEv.clean     0x0001210a   Section       10  qdeclarativegalleryitem.o(t._ZN5QHashIi7QStringE5clearEv.clean)
    t._ZN5QHashIi7QStringE6insertERKiRKS0_   0x00012114   Section      234  qdeclarativegalleryitem.o(t._ZN5QHashIi7QStringE6insertERKiRKS0_)
    t._ZN5QHashIi7QStringE6insertERKiRKS0_.clean 0x000121fe   Section       14  qdeclarativegalleryitem.o(t._ZN5QHashIi7QStringE6insertERKiRKS0_.clean)
    t._ZN5QHashIi7QStringE8freeDataEP9QHashData 0x0001220c   Section       20  qdeclarativegalleryitem.o(t._ZN5QHashIi7QStringE8freeDataEP9QHashData)
    t._ZN5QHashIi7QStringEC1Ev               0x00012220   Section       28  qdeclarativegalleryitem.o(t._ZN5QHashIi7QStringEC1Ev)
    t._ZN5QHashIi7QStringED1Ev               0x0001223c   Section       30  qdeclarativegalleryitem.o(t._ZN5QHashIi7QStringED1Ev)
    t._ZN5QListI7QStringE13detach_helperEi   0x0001225a   Section      176  qdeclarativegalleryitem.o(t._ZN5QListI7QStringE13detach_helperEi)
    t._ZN5QListI7QStringE13detach_helperEi.clean 0x0001230a   Section       30  qdeclarativegalleryitem.o(t._ZN5QListI7QStringE13detach_helperEi.clean)
    t._ZN5QListI7QStringE13detach_helperEv   0x00012328   Section       16  qdeclarativegalleryitem.o(t._ZN5QListI7QStringE13detach_helperEv)
    t._ZN5QListI7QStringE4freeEPN9QListData4DataE 0x00012338   Section       64  qdeclarativegalleryquerymodel.o(t._ZN5QListI7QStringE4freeEPN9QListData4DataE)
    t._ZN5QListI7QStringED1Ev                0x00012378   Section       32  qdeclarativegalleryitem.o(t._ZN5QListI7QStringED1Ev)
    t._ZN5QListIPN10QtMobility29QDeclarativeGalleryFilterBaseEE13detach_helperEi 0x00012398   Section       94  qdeclarativegalleryfilter.o(t._ZN5QListIPN10QtMobility29QDeclarativeGalleryFilterBaseEE13detach_helperEi)
    t._ZN5QListIPN10QtMobility29QDeclarativeGalleryFilterBaseEE13detach_helperEi.clean 0x000123f6   Section        8  qdeclarativegalleryfilter.o(t._ZN5QListIPN10QtMobility29QDeclarativeGalleryFilterBaseEE13detach_helperEi.clean)
    t._ZN5QListIPN10QtMobility29QDeclarativeGalleryFilterBaseEE13detach_helperEv 0x000123fe   Section       16  qdeclarativegalleryfilter.o(t._ZN5QListIPN10QtMobility29QDeclarativeGalleryFilterBaseEE13detach_helperEv)
    t._ZN5QListIPN10QtMobility29QDeclarativeGalleryFilterBaseEE18detach_helper_growEii 0x0001240e   Section      204  qdeclarativegalleryfilter.o(t._ZN5QListIPN10QtMobility29QDeclarativeGalleryFilterBaseEE18detach_helper_growEii)
    t._ZN5QListIPN10QtMobility29QDeclarativeGalleryFilterBaseEE18detach_helper_growEii.clean 0x000124da   Section       16  qdeclarativegalleryfilter.o(t._ZN5QListIPN10QtMobility29QDeclarativeGalleryFilterBaseEE18detach_helper_growEii.clean)
    t._ZN5QListIPN10QtMobility29QDeclarativeGalleryFilterBaseEE4freeEPN9QListData4DataE 0x000124ea   Section       58  qdeclarativegallery.o(t._ZN5QListIPN10QtMobility29QDeclarativeGalleryFilterBaseEE4freeEPN9QListData4DataE)
    t._ZN5QListIPN10QtMobility29QDeclarativeGalleryFilterBaseEE5clearEv 0x00012524   Section       88  qdeclarativegalleryfilter.o(t._ZN5QListIPN10QtMobility29QDeclarativeGalleryFilterBaseEE5clearEv)
    t._ZN5QListIPN10QtMobility29QDeclarativeGalleryFilterBaseEE5clearEv.clean 0x0001257c   Section       10  qdeclarativegalleryfilter.o(t._ZN5QListIPN10QtMobility29QDeclarativeGalleryFilterBaseEE5clearEv.clean)
    t._ZN5QListIPN10QtMobility29QDeclarativeGalleryFilterBaseEE6appendERKS2_ 0x00012588   Section      104  qdeclarativegalleryfilter.o(t._ZN5QListIPN10QtMobility29QDeclarativeGalleryFilterBaseEE6appendERKS2_)
    t._ZN5QListIPN10QtMobility29QDeclarativeGalleryFilterBaseEE6appendERKS2_.clean 0x000125f0   Section       10  qdeclarativegalleryfilter.o(t._ZN5QListIPN10QtMobility29QDeclarativeGalleryFilterBaseEE6appendERKS2_.clean)
    t._ZN5QListIPN10QtMobility29QDeclarativeGalleryFilterBaseEE9node_copyEPNS3_4NodeES5_S5_ 0x000125fa   Section       46  qdeclarativegalleryfilter.o(t._ZN5QListIPN10QtMobility29QDeclarativeGalleryFilterBaseEE9node_copyEPNS3_4NodeES5_S5_)
    t._ZN5QListIPN10QtMobility29QDeclarativeGalleryFilterBaseEED1Ev 0x00012628   Section       32  qdeclarativegallery.o(t._ZN5QListIPN10QtMobility29QDeclarativeGalleryFilterBaseEED1Ev)
    t._ZN7QVectorI5QPairIi7QStringEE13detach_helperEv 0x00012648   Section       18  qdeclarativegalleryquerymodel.o(t._ZN7QVectorI5QPairIi7QStringEE13detach_helperEv)
    t._ZN7QVectorI5QPairIi7QStringEE4freeEP16QVectorTypedDataIS2_E 0x0001265a   Section       52  qdeclarativegalleryquerymodel.o(t._ZN7QVectorI5QPairIi7QStringEE4freeEP16QVectorTypedDataIS2_E)
    t._ZN7QVectorI5QPairIi7QStringEE6appendERKS2_ 0x0001268e   Section      180  qdeclarativegalleryquerymodel.o(t._ZN7QVectorI5QPairIi7QStringEE6appendERKS2_)
    t._ZN7QVectorI5QPairIi7QStringEE6appendERKS2_.clean 0x00012742   Section       28  qdeclarativegalleryquerymodel.o(t._ZN7QVectorI5QPairIi7QStringEE6appendERKS2_.clean)
    t._ZN7QVectorI5QPairIi7QStringEE6mallocEi 0x0001275e   Section       52  qdeclarativegalleryquerymodel.o(t._ZN7QVectorI5QPairIi7QStringEE6mallocEi)
    t._ZN7QVectorI5QPairIi7QStringEE7reallocEii 0x00012794   Section      504  qdeclarativegalleryquerymodel.o(t._ZN7QVectorI5QPairIi7QStringEE7reallocEii)
    t._ZN7QVectorI5QPairIi7QStringEE7reallocEii.clean 0x0001298c   Section       42  qdeclarativegalleryquerymodel.o(t._ZN7QVectorI5QPairIi7QStringEE7reallocEii.clean)
    t._ZN7QVectorI5QPairIi7QStringEEC1Ev     0x000129b8   Section       24  qdeclarativegalleryquerymodel.o(t._ZN7QVectorI5QPairIi7QStringEEC1Ev)
    t._ZN7QVectorI5QPairIi7QStringEED1Ev     0x000129d0   Section       34  qdeclarativegalleryquerymodel.o(t._ZN7QVectorI5QPairIi7QStringEED1Ev)
    t._ZN7QVectorI5QPairIi7QStringEEaSERKS3_ 0x000129f2   Section       54  qdeclarativegalleryquerymodel.o(t._ZN7QVectorI5QPairIi7QStringEEaSERKS3_)
    t._ZN8QPointerI7QObjectED1Ev             0x00012a28   Section       14  qdeclarativegallery.o(t._ZN8QPointerI7QObjectED1Ev)
    t._ZN9QHashNodeIi10QByteArrayEC1EiRKS0_  0x00012a36   Section       30  qdeclarativegalleryquerymodel.o(t._ZN9QHashNodeIi10QByteArrayEC1EiRKS0_)
    t._ZN9QHashNodeIi7QStringEC1EiRKS0_      0x00012a54   Section       26  qdeclarativegalleryitem.o(t._ZN9QHashNodeIi7QStringEC1EiRKS0_)
    t._ZNK12QWeakPointerIN10QtMobility29QDeclarativeGalleryFilterBaseEE4dataEv 0x00012a6e   Section       34  qdeclarativegalleryquerymodel.o(t._ZNK12QWeakPointerIN10QtMobility29QDeclarativeGalleryFilterBaseEE4dataEv)
    t._ZNK12QWeakPointerIN10QtMobility29QDeclarativeGalleryFilterBaseEEcvMS2_PS1_Ev 0x00012a90   Section       54  qdeclarativegalleryquerymodel.o(t._ZNK12QWeakPointerIN10QtMobility29QDeclarativeGalleryFilterBaseEEcvMS2_PS1_Ev)
    t._ZNK5QHashIi10QByteArrayE8findNodeERKiPj 0x00012ac6   Section       94  qdeclarativegalleryquerymodel.o(t._ZNK5QHashIi10QByteArrayE8findNodeERKiPj)
    t._ZNK5QHashIi7QStringE10constBeginEv    0x00012b24   Section       44  qdeclarativegalleryitem.o(t._ZNK5QHashIi7QStringE10constBeginEv)
    t._ZNK5QHashIi7QStringE14const_iteratorneERKS2_ 0x00012b50   Section       18  qdeclarativegalleryitem.o(t._ZNK5QHashIi7QStringE14const_iteratorneERKS2_)
    t._ZNK5QHashIi7QStringE8findNodeERKiPj   0x00012b62   Section       94  qdeclarativegalleryitem.o(t._ZNK5QHashIi7QStringE8findNodeERKiPj)
    t._ZNK5QListI7QStringEeqERKS1_           0x00012bc0   Section      122  qdeclarativegalleryquerymodel.o(t._ZNK5QListI7QStringEeqERKS1_)
    t._ZNK5QListIPN10QtMobility29QDeclarativeGalleryFilterBaseEE14const_iteratorneERKS4_ 0x00012c3a   Section       18  qdeclarativegalleryfilter.o(t._ZNK5QListIPN10QtMobility29QDeclarativeGalleryFilterBaseEE14const_iteratorneERKS4_)
    .extab._ZN10QtMobility27QDeclarativeDocumentGallery8toStringENS0_8ItemTypeE 0x00012c4c   Data           0  qdeclarativedocumentgallery.o(.ARM.extab)
    .extab._ZN10QtMobility27QDeclarativeDocumentGallery18itemTypeFromStringERK7QString 0x00012c6c   Data           0  qdeclarativedocumentgallery.o(.ARM.extab)
    .extab._ZN10QtMobility37qt_declarativeDocumentGalleryInstanceEv 0x00012c7c   Data           0  qdeclarativedocumentgallery.o(.ARM.extab)
    .extab.qt_plugin_instance                0x00012c94   Data           0  qdeclarativegallery.o(.ARM.extab)
    .extab._ZplRK10QByteArrayPKc             0x00012cac   Data           0  qdeclarativegallery.o(.ARM.extab)
    .extab._ZplRK10QByteArrayc               0x00012cbc   Data           0  qdeclarativegallery.o(.ARM.extab)
    .extab._ZplPKcRK10QByteArray             0x00012ccc   Data           0  qdeclarativegallery.o(.ARM.extab)
    .extab._Z26qmlRegisterUncreatableTypeIN10QtMobility27QDeclarativeDocumentGalleryEEiPKciiS3_RK7QString 0x00012cdc   Data           0  qdeclarativegallery.o(.ARM.extab)
    .extab._Z15qmlRegisterTypeIN10QtMobility29QDeclarativeGalleryFilterBaseEEiv 0x00012d4c   Data           0  qdeclarativegallery.o(.ARM.extab)
    .extab._Z15qmlRegisterTypeIN10QtMobility31QDeclarativeGalleryEqualsFilterEEiPKciiS3_ 0x00012dbc   Data           0  qdeclarativegallery.o(.ARM.extab)
    .extab._Z15qmlRegisterTypeIN10QtMobility33QDeclarativeGalleryLessThanFilterEEiPKciiS3_ 0x00012e2c   Data           0  qdeclarativegallery.o(.ARM.extab)
    .extab._Z15qmlRegisterTypeIN10QtMobility39QDeclarativeGalleryLessThanEqualsFilterEEiPKciiS3_ 0x00012e9c   Data           0  qdeclarativegallery.o(.ARM.extab)
    .extab._Z15qmlRegisterTypeIN10QtMobility36QDeclarativeGalleryGreaterThanFilterEEiPKciiS3_ 0x00012f0c   Data           0  qdeclarativegallery.o(.ARM.extab)
    .extab._Z15qmlRegisterTypeIN10QtMobility42QDeclarativeGalleryGreaterThanEqualsFilterEEiPKciiS3_ 0x00012f7c   Data           0  qdeclarativegallery.o(.ARM.extab)
    .extab._Z15qmlRegisterTypeIN10QtMobility33QDeclarativeGalleryContainsFilterEEiPKciiS3_ 0x00012fec   Data           0  qdeclarativegallery.o(.ARM.extab)
    .extab._Z15qmlRegisterTypeIN10QtMobility35QDeclarativeGalleryStartsWithFilterEEiPKciiS3_ 0x0001305c   Data           0  qdeclarativegallery.o(.ARM.extab)
    .extab._Z15qmlRegisterTypeIN10QtMobility33QDeclarativeGalleryEndsWithFilterEEiPKciiS3_ 0x000130cc   Data           0  qdeclarativegallery.o(.ARM.extab)
    .extab._Z15qmlRegisterTypeIN10QtMobility33QDeclarativeGalleryWildcardFilterEEiPKciiS3_ 0x0001313c   Data           0  qdeclarativegallery.o(.ARM.extab)
    .extab._Z15qmlRegisterTypeIN10QtMobility30QDeclarativeGalleryFilterUnionEEiPKciiS3_ 0x000131ac   Data           0  qdeclarativegallery.o(.ARM.extab)
    .extab._Z15qmlRegisterTypeIN10QtMobility37QDeclarativeGalleryFilterIntersectionEEiPKciiS3_ 0x0001321c   Data           0  qdeclarativegallery.o(.ARM.extab)
    .extab._Z15qmlRegisterTypeIN10QtMobility31QDeclarativeDocumentGalleryItemEEiPKciiS3_ 0x0001328c   Data           0  qdeclarativegallery.o(.ARM.extab)
    .extab._Z15qmlRegisterTypeIN10QtMobility32QDeclarativeDocumentGalleryModelEEiPKciiS3_ 0x000132fc   Data           0  qdeclarativegallery.o(.ARM.extab)
    .extab._Z15qmlRegisterTypeIN10QtMobility31QDeclarativeDocumentGalleryTypeEEiPKciiS3_ 0x0001336c   Data           0  qdeclarativegallery.o(.ARM.extab)
    .extab._ZN10QtMobility30QDeclarativeGalleryValueFilterC1ENS_14QGalleryFilter10ComparatorEP7QObject 0x000133dc   Data           0  qdeclarativegallery.o(.ARM.extab)
    .extab._ZN10QtMobility31QDeclarativeGalleryStringFilterC1ENS_14QGalleryFilter10ComparatorEP7QObject 0x000133f4   Data           0  qdeclarativegallery.o(.ARM.extab)
    .extab._ZN10QtMobility30QDeclarativeGalleryFilterGroupD2Ev 0x0001340c   Data           0  qdeclarativegallery.o(.ARM.extab)
    .extab._ZN19QDeclarativePrivate19QDeclarativeElementIN10QtMobility30QDeclarativeGalleryFilterUnionEED1Ev 0x00013424   Data           0  qdeclarativegallery.o(.ARM.extab)
    .extab._ZN10QtMobility30QDeclarativeGalleryFilterGroupC2EP7QObject 0x00013434   Data           0  qdeclarativegallery.o(.ARM.extab)
    .extab._ZN19QDeclarativePrivate19QDeclarativeElementIN10QtMobility37QDeclarativeGalleryFilterIntersectionEED1Ev 0x0001344c   Data           0  qdeclarativegallery.o(.ARM.extab)
    .extab._ZN19QDeclarativePrivate19QDeclarativeElementIN10QtMobility31QDeclarativeDocumentGalleryItemEED1Ev 0x0001345c   Data           0  qdeclarativegallery.o(.ARM.extab)
    .extab._ZN19QDeclarativePrivate19QDeclarativeElementIN10QtMobility32QDeclarativeDocumentGalleryModelEED1Ev 0x0001346c   Data           0  qdeclarativegallery.o(.ARM.extab)
    .extab._ZN19QDeclarativePrivate19QDeclarativeElementIN10QtMobility31QDeclarativeDocumentGalleryTypeEED1Ev 0x0001347c   Data           0  qdeclarativegallery.o(.ARM.extab)
    .extab._ZN10QtMobility25QGalleryDeclarativeModule13registerTypesEPKc 0x0001348c   Data           0  qdeclarativegallery.o(.ARM.extab)
    .extab._ZN19QDeclarativePrivate10createIntoIN10QtMobility31QDeclarativeGalleryEqualsFilterEEEvPv 0x0001349c   Data           0  qdeclarativegallery.o(.ARM.extab)
    .extab._ZN19QDeclarativePrivate10createIntoIN10QtMobility33QDeclarativeGalleryLessThanFilterEEEvPv 0x000134ac   Data           0  qdeclarativegallery.o(.ARM.extab)
    .extab._ZN19QDeclarativePrivate10createIntoIN10QtMobility39QDeclarativeGalleryLessThanEqualsFilterEEEvPv 0x000134bc   Data           0  qdeclarativegallery.o(.ARM.extab)
    .extab._ZN19QDeclarativePrivate10createIntoIN10QtMobility36QDeclarativeGalleryGreaterThanFilterEEEvPv 0x000134cc   Data           0  qdeclarativegallery.o(.ARM.extab)
    .extab._ZN19QDeclarativePrivate10createIntoIN10QtMobility42QDeclarativeGalleryGreaterThanEqualsFilterEEEvPv 0x000134dc   Data           0  qdeclarativegallery.o(.ARM.extab)
    .extab._ZN19QDeclarativePrivate10createIntoIN10QtMobility33QDeclarativeGalleryContainsFilterEEEvPv 0x000134ec   Data           0  qdeclarativegallery.o(.ARM.extab)
    .extab._ZN19QDeclarativePrivate10createIntoIN10QtMobility35QDeclarativeGalleryStartsWithFilterEEEvPv 0x000134fc   Data           0  qdeclarativegallery.o(.ARM.extab)
    .extab._ZN19QDeclarativePrivate10createIntoIN10QtMobility33QDeclarativeGalleryEndsWithFilterEEEvPv 0x0001350c   Data           0  qdeclarativegallery.o(.ARM.extab)
    .extab._ZN19QDeclarativePrivate10createIntoIN10QtMobility33QDeclarativeGalleryWildcardFilterEEEvPv 0x0001351c   Data           0  qdeclarativegallery.o(.ARM.extab)
    .extab._ZN19QDeclarativePrivate10createIntoIN10QtMobility30QDeclarativeGalleryFilterUnionEEEvPv 0x0001352c   Data           0  qdeclarativegallery.o(.ARM.extab)
    .extab._ZN19QDeclarativePrivate10createIntoIN10QtMobility37QDeclarativeGalleryFilterIntersectionEEEvPv 0x0001353c   Data           0  qdeclarativegallery.o(.ARM.extab)
    .extab._ZN19QDeclarativePrivate10createIntoIN10QtMobility31QDeclarativeDocumentGalleryItemEEEvPv 0x0001354c   Data           0  qdeclarativegallery.o(.ARM.extab)
    .extab._ZN19QDeclarativePrivate10createIntoIN10QtMobility32QDeclarativeDocumentGalleryModelEEEvPv 0x0001355c   Data           0  qdeclarativegallery.o(.ARM.extab)
    .extab._ZN19QDeclarativePrivate10createIntoIN10QtMobility31QDeclarativeDocumentGalleryTypeEEEvPv 0x0001356c   Data           0  qdeclarativegallery.o(.ARM.extab)
    .extab._ZN19QDeclarativePrivate19QDeclarativeElementIN10QtMobility31QDeclarativeGalleryEqualsFilterEED1Ev 0x0001357c   Data           0  qdeclarativegallery.o(.ARM.extab)
    .extab._ZN19QDeclarativePrivate19QDeclarativeElementIN10QtMobility33QDeclarativeGalleryLessThanFilterEED1Ev 0x0001358c   Data           0  qdeclarativegallery.o(.ARM.extab)
    .extab._ZN19QDeclarativePrivate19QDeclarativeElementIN10QtMobility39QDeclarativeGalleryLessThanEqualsFilterEED1Ev 0x0001359c   Data           0  qdeclarativegallery.o(.ARM.extab)
    .extab._ZN19QDeclarativePrivate19QDeclarativeElementIN10QtMobility36QDeclarativeGalleryGreaterThanFilterEED1Ev 0x000135ac   Data           0  qdeclarativegallery.o(.ARM.extab)
    .extab._ZN19QDeclarativePrivate19QDeclarativeElementIN10QtMobility42QDeclarativeGalleryGreaterThanEqualsFilterEED1Ev 0x000135bc   Data           0  qdeclarativegallery.o(.ARM.extab)
    .extab._ZN19QDeclarativePrivate19QDeclarativeElementIN10QtMobility33QDeclarativeGalleryContainsFilterEED1Ev 0x000135cc   Data           0  qdeclarativegallery.o(.ARM.extab)
    .extab._ZN19QDeclarativePrivate19QDeclarativeElementIN10QtMobility35QDeclarativeGalleryStartsWithFilterEED1Ev 0x000135dc   Data           0  qdeclarativegallery.o(.ARM.extab)
    .extab._ZN19QDeclarativePrivate19QDeclarativeElementIN10QtMobility33QDeclarativeGalleryEndsWithFilterEED1Ev 0x000135ec   Data           0  qdeclarativegallery.o(.ARM.extab)
    .extab._ZN19QDeclarativePrivate19QDeclarativeElementIN10QtMobility33QDeclarativeGalleryWildcardFilterEED1Ev 0x000135fc   Data           0  qdeclarativegallery.o(.ARM.extab)
    .extab._ZN10QtMobility30QDeclarativeGalleryValueFilterD1Ev 0x0001360c   Data           0  qdeclarativegallery.o(.ARM.extab)
    .extab._ZN10QtMobility31QDeclarativeGalleryStringFilterD1Ev 0x0001361c   Data           0  qdeclarativegallery.o(.ARM.extab)
    .extab._ZN10QtMobility30QDeclarativeGalleryValueFilter8setValueERK8QVariant 0x0001362c   Data           0  qdeclarativegalleryfilter.o(.ARM.extab)
    .extab._ZN10QtMobility30QDeclarativeGalleryValueFilter15setPropertyNameERK7QString 0x0001363c   Data           0  qdeclarativegalleryfilter.o(.ARM.extab)
    .extab._ZN10QtMobility30QDeclarativeGalleryValueFilter11qt_metacallEN11QMetaObject4CallEiPPv 0x0001364c   Data           0  qdeclarativegalleryfilter.o(.ARM.extab)
    .extab._ZN10QtMobility31QDeclarativeGalleryStringFilter8setValueERK7QString 0x00013664   Data           0  qdeclarativegalleryfilter.o(.ARM.extab)
    .extab._ZN10QtMobility31QDeclarativeGalleryStringFilter15setPropertyNameERK7QString 0x0001368c   Data           0  qdeclarativegalleryfilter.o(.ARM.extab)
    .extab._ZN10QtMobility31QDeclarativeGalleryStringFilter11qt_metacallEN11QMetaObject4CallEiPPv 0x0001369c   Data           0  qdeclarativegalleryfilter.o(.ARM.extab)
    .extab._ZNK10QtMobility31QDeclarativeGalleryEqualsFilter6filterEv 0x000136bc   Data           0  qdeclarativegalleryfilter.o(.ARM.extab)
    .extab._ZNK10QtMobility30QDeclarativeGalleryFilterUnion6filterEv 0x000136d4   Data           0  qdeclarativegalleryfilter.o(.ARM.extab)
    .extab._ZNK10QtMobility37QDeclarativeGalleryFilterIntersection6filterEv 0x00013724   Data           0  qdeclarativegalleryfilter.o(.ARM.extab)
    .extab._ZN5QListIPN10QtMobility29QDeclarativeGalleryFilterBaseEE13detach_helperEi 0x00013774   Data           0  qdeclarativegalleryfilter.o(.ARM.extab)
    .extab._ZN5QListIPN10QtMobility29QDeclarativeGalleryFilterBaseEE5clearEv 0x00013790   Data           0  qdeclarativegalleryfilter.o(.ARM.extab)
    .extab._ZN5QListIPN10QtMobility29QDeclarativeGalleryFilterBaseEE18detach_helper_growEii 0x000137a0   Data           0  qdeclarativegalleryfilter.o(.ARM.extab)
    .extab._ZN5QListIPN10QtMobility29QDeclarativeGalleryFilterBaseEE6appendERKS2_ 0x000137d0   Data           0  qdeclarativegalleryfilter.o(.ARM.extab)
    .extab._ZN10QtMobility23QDeclarativeGalleryItem9setItemIdERK8QVariant 0x000137ec   Data           0  qdeclarativegalleryitem.o(.ARM.extab)
    .extab._ZN10QtMobility23QDeclarativeGalleryItem15deferredExecuteEv 0x000137fc   Data           0  qdeclarativegalleryitem.o(.ARM.extab)
    .extab._ZN10QtMobility23QDeclarativeGalleryItem18_q_metaDataChangedERK5QListIiE 0x0001380c   Data           0  qdeclarativegalleryitem.o(.ARM.extab)
    .extab._ZN10QtMobility23QDeclarativeGalleryItem14_q_itemChangedEv 0x0001383c   Data           0  qdeclarativegalleryitem.o(.ARM.extab)
    .extab._ZN10QtMobility23QDeclarativeGalleryItem15_q_stateChangedEv 0x0001386c   Data           0  qdeclarativegalleryitem.o(.ARM.extab)
    .extab._ZN10QtMobility23QDeclarativeGalleryItem11qt_metacallEN11QMetaObject4CallEiPPv 0x000138cc   Data           0  qdeclarativegalleryitem.o(.ARM.extab)
    .extab._ZN10QtMobility23QDeclarativeGalleryItemD2Ev 0x000138ec   Data           0  qdeclarativegalleryitem.o(.ARM.extab)
    .extab._ZN10QtMobility23QDeclarativeGalleryItem17componentCompleteEv 0x0001390c   Data           0  qdeclarativegalleryitem.o(.ARM.extab)
    .extab._ZN10QtMobility23QDeclarativeGalleryItemC2EP7QObject 0x0001391c   Data           0  qdeclarativegalleryitem.o(.ARM.extab)
    .extab._ZNK10QtMobility31QDeclarativeDocumentGalleryItem8itemTypeEv 0x00013954   Data           0  qdeclarativegalleryitem.o(.ARM.extab)
    .extab._ZN10QtMobility31QDeclarativeDocumentGalleryItemC1EP7QObject 0x00013964   Data           0  qdeclarativegalleryitem.o(.ARM.extab)
    .extab._ZN5QListI7QStringE13detach_helperEi 0x00013974   Data           0  qdeclarativegalleryitem.o(.ARM.extab)
    .extab._ZN5QHashIi7QStringE5clearEv      0x000139b8   Data           0  qdeclarativegalleryitem.o(.ARM.extab)
    .extab._ZN5QHashIi7QStringE13duplicateNodeEPN9QHashData4NodeEPv 0x000139c8   Data           0  qdeclarativegalleryitem.o(.ARM.extab)
    .extab._ZN5QHashIi7QStringE6insertERKiRKS0_ 0x000139d8   Data           0  qdeclarativegalleryitem.o(.ARM.extab)
    .extab._ZN10QtMobility29QDeclarativeGalleryQueryModel15deferredExecuteEv 0x000139f0   Data           0  qdeclarativegalleryquerymodel.o(.ARM.extab)
    .extab._ZN10QtMobility29QDeclarativeGalleryQueryModel9setFilterEPNS_29QDeclarativeGalleryFilterBaseE 0x00013a00   Data           0  qdeclarativegalleryquerymodel.o(.ARM.extab)
    .extab._ZN10QtMobility29QDeclarativeGalleryQueryModel11setRootItemERK8QVariant 0x00013a10   Data           0  qdeclarativegalleryquerymodel.o(.ARM.extab)
    .extab._ZN10QtMobility29QDeclarativeGalleryQueryModel20setSortPropertyNamesERK11QStringList 0x00013a20   Data           0  qdeclarativegalleryquerymodel.o(.ARM.extab)
    .extab._ZN10QtMobility29QDeclarativeGalleryQueryModel3setEiRK12QScriptValue 0x00013a30   Data           0  qdeclarativegalleryquerymodel.o(.ARM.extab)
    .extab._ZNK10QtMobility29QDeclarativeGalleryQueryModel8propertyEiRK7QString 0x00013a70   Data           0  qdeclarativegalleryquerymodel.o(.ARM.extab)
    .extab._ZNK10QtMobility29QDeclarativeGalleryQueryModel3getERK12QScriptValue 0x00013a98   Data           0  qdeclarativegalleryquerymodel.o(.ARM.extab)
    .extab._ZN10QtMobility29QDeclarativeGalleryQueryModel15_q_itemsChangedEii 0x00013b38   Data           0  qdeclarativegalleryquerymodel.o(.ARM.extab)
    .extab._ZN10QtMobility29QDeclarativeGalleryQueryModel13_q_itemsMovedEiii 0x00013b48   Data           0  qdeclarativegalleryquerymodel.o(.ARM.extab)
    .extab._ZN10QtMobility29QDeclarativeGalleryQueryModel15_q_itemsRemovedEii 0x00013b60   Data           0  qdeclarativegalleryquerymodel.o(.ARM.extab)
    .extab._ZN10QtMobility29QDeclarativeGalleryQueryModel16_q_itemsInsertedEii 0x00013b70   Data           0  qdeclarativegalleryquerymodel.o(.ARM.extab)
    .extab._ZN10QtMobility29QDeclarativeGalleryQueryModel15_q_setResultSetEPNS_17QGalleryResultSetE 0x00013b80   Data           0  qdeclarativegalleryquerymodel.o(.ARM.extab)
    .extab._ZN10QtMobility29QDeclarativeGalleryQueryModel15_q_stateChangedEv 0x00013c00   Data           0  qdeclarativegalleryquerymodel.o(.ARM.extab)
    .extab._ZN10QtMobility29QDeclarativeGalleryQueryModel6reloadEv 0x00013ce0   Data           0  qdeclarativegalleryquerymodel.o(.ARM.extab)
    .extab._ZN10QtMobility29QDeclarativeGalleryQueryModel11qt_metacallEN11QMetaObject4CallEiPPv 0x00013d00   Data           0  qdeclarativegalleryquerymodel.o(.ARM.extab)
    .extab._ZN10QtMobility29QDeclarativeGalleryQueryModelD2Ev 0x00013d30   Data           0  qdeclarativegalleryquerymodel.o(.ARM.extab)
    .extab._ZNK10QtMobility29QDeclarativeGalleryQueryModel4dataERK11QModelIndexi 0x00013d58   Data           0  qdeclarativegalleryquerymodel.o(.ARM.extab)
    .extab._ZNK10QtMobility29QDeclarativeGalleryQueryModel5indexEiiRK11QModelIndex 0x00013d80   Data           0  qdeclarativegalleryquerymodel.o(.ARM.extab)
    .extab._ZN10QtMobility29QDeclarativeGalleryQueryModel17componentCompleteEv 0x00013d90   Data           0  qdeclarativegalleryquerymodel.o(.ARM.extab)
    .extab._ZN10QtMobility29QDeclarativeGalleryQueryModelC2EP7QObject 0x00013da0   Data           0  qdeclarativegalleryquerymodel.o(.ARM.extab)
    .extab._ZN10QtMobility29QDeclarativeGalleryQueryModel5eventEP6QEvent 0x00013dc8   Data           0  qdeclarativegalleryquerymodel.o(.ARM.extab)
    .extab._ZN10QtMobility32QDeclarativeDocumentGalleryModel11setRootTypeENS_27QDeclarativeDocumentGallery8ItemTypeE 0x00013de8   Data           0  qdeclarativegalleryquerymodel.o(.ARM.extab)
    .extab._ZNK10QtMobility32QDeclarativeDocumentGalleryModel8rootTypeEv 0x00013df8   Data           0  qdeclarativegalleryquerymodel.o(.ARM.extab)
    .extab._ZN10QtMobility32QDeclarativeDocumentGalleryModelC1EP7QObject 0x00013e08   Data           0  qdeclarativegalleryquerymodel.o(.ARM.extab)
    .extab._Z21qScriptValueFromValueI8QVariantE12QScriptValueP13QScriptEngineRKT_ 0x00013e28   Data           0  qdeclarativegalleryquerymodel.o(.ARM.extab)
    .extab._ZN16QDeclarativeInfolsERK7QString 0x00013e48   Data           0  qdeclarativegalleryquerymodel.o(.ARM.extab)
    .extab._ZN5QHashIi10QByteArrayE6insertERKiRKS0_ 0x00013e60   Data           0  qdeclarativegalleryquerymodel.o(.ARM.extab)
    .extab._ZN7QVectorI5QPairIi7QStringEE7reallocEii 0x00013e78   Data           0  qdeclarativegalleryquerymodel.o(.ARM.extab)
    .extab._ZN7QVectorI5QPairIi7QStringEE6appendERKS2_ 0x00013eac   Data           0  qdeclarativegalleryquerymodel.o(.ARM.extab)
    .extab._ZN5QHashIi10QByteArrayE13duplicateNodeEPN9QHashData4NodeEPv 0x00013ecc   Data           0  qdeclarativegalleryquerymodel.o(.ARM.extab)
    .extab._ZN10QtMobility23QDeclarativeGalleryType15deferredExecuteEv 0x00013edc   Data           0  qdeclarativegallerytype.o(.ARM.extab)
    .extab._ZN10QtMobility23QDeclarativeGalleryType18_q_metaDataChangedERK5QListIiE 0x00013eec   Data           0  qdeclarativegallerytype.o(.ARM.extab)
    .extab._ZN10QtMobility23QDeclarativeGalleryType14_q_typeChangedEv 0x00013f1c   Data           0  qdeclarativegallerytype.o(.ARM.extab)
    .extab._ZN10QtMobility23QDeclarativeGalleryType15_q_stateChangedEv 0x00013f4c   Data           0  qdeclarativegallerytype.o(.ARM.extab)
    .extab._ZN10QtMobility23QDeclarativeGalleryType11qt_metacallEN11QMetaObject4CallEiPPv 0x00013fcc   Data           0  qdeclarativegallerytype.o(.ARM.extab)
    .extab._ZN10QtMobility23QDeclarativeGalleryTypeD2Ev 0x00013fdc   Data           0  qdeclarativegallerytype.o(.ARM.extab)
    .extab._ZN10QtMobility23QDeclarativeGalleryType17componentCompleteEv 0x00013ffc   Data           0  qdeclarativegallerytype.o(.ARM.extab)
    .extab._ZN10QtMobility23QDeclarativeGalleryTypeC2EP7QObject 0x0001400c   Data           0  qdeclarativegallerytype.o(.ARM.extab)
    .extab._ZN10QtMobility31QDeclarativeDocumentGalleryType11setItemTypeENS_27QDeclarativeDocumentGallery8ItemTypeE 0x0001403c   Data           0  qdeclarativegallerytype.o(.ARM.extab)
    .extab._ZNK10QtMobility31QDeclarativeDocumentGalleryType8itemTypeEv 0x0001405c   Data           0  qdeclarativegallerytype.o(.ARM.extab)
    .constdata$1                             0x0001406c   Data           0  qdeclarativedocumentgallery.o(.constdata)
    .constdata                               0x0001406c   Section      354  qdeclarativedocumentgallery.o(.constdata)
    QtMobility::qt_meta_data_QDeclarativeDocumentGallery 0x0001407c   Data         188  qdeclarativedocumentgallery.o(.constdata)
    QtMobility::qt_meta_stringdata_QDeclarativeDocumentGallery 0x00014138   Data         150  qdeclarativedocumentgallery.o(.constdata)
    .constdata$1                             0x000141d0   Data           0  qdeclarativegallery.o(.constdata)
    qt_plugin_verification_data              0x000141d0   Data          91  qdeclarativegallery.o(.constdata)
    .constdata                               0x000141d0   Section     1336  qdeclarativegallery.o(.constdata)
    QtMobility::qt_meta_data_QGalleryDeclarativeModule 0x0001423c   Data          60  qdeclarativegallery.o(.constdata)
    QtMobility::qt_meta_stringdata_QGalleryDeclarativeModule 0x00014278   Data          27  qdeclarativegallery.o(.constdata)
    .constdata$1                             0x00014708   Data           0  qdeclarativegalleryfilter.o(.constdata)
    .constdata                               0x00014708   Section     2231  qdeclarativegalleryfilter.o(.constdata)
    QtMobility::qt_meta_data_QDeclarativeGalleryFilterBase 0x000147f8   Data          80  qdeclarativegalleryfilter.o(.constdata)
    QtMobility::qt_meta_stringdata_QDeclarativeGalleryFilterBase 0x00014848   Data          48  qdeclarativegalleryfilter.o(.constdata)
    QtMobility::qt_meta_data_QDeclarativeGalleryValueFilter 0x00014878   Data         168  qdeclarativegalleryfilter.o(.constdata)
    QtMobility::qt_meta_stringdata_QDeclarativeGalleryValueFilter 0x00014920   Data         132  qdeclarativegalleryfilter.o(.constdata)
    QtMobility::qt_meta_data_QDeclarativeGalleryStringFilter 0x000149a4   Data         168  qdeclarativegalleryfilter.o(.constdata)
    QtMobility::qt_meta_stringdata_QDeclarativeGalleryStringFilter 0x00014a4c   Data         124  qdeclarativegalleryfilter.o(.constdata)
    QtMobility::qt_meta_data_QDeclarativeGalleryEqualsFilter 0x00014ac8   Data          60  qdeclarativegalleryfilter.o(.constdata)
    QtMobility::qt_meta_stringdata_QDeclarativeGalleryEqualsFilter 0x00014b04   Data          33  qdeclarativegalleryfilter.o(.constdata)
    QtMobility::qt_meta_data_QDeclarativeGalleryLessThanFilter 0x00014b28   Data          60  qdeclarativegalleryfilter.o(.constdata)
    QtMobility::qt_meta_stringdata_QDeclarativeGalleryLessThanFilter 0x00014b64   Data          35  qdeclarativegalleryfilter.o(.constdata)
    QtMobility::qt_meta_data_QDeclarativeGalleryLessThanEqualsFilter 0x00014b88   Data          60  qdeclarativegalleryfilter.o(.constdata)
    QtMobility::qt_meta_stringdata_QDeclarativeGalleryLessThanEqualsFilter 0x00014bc4   Data          41  qdeclarativegalleryfilter.o(.constdata)
    QtMobility::qt_meta_data_QDeclarativeGalleryGreaterThanFilter 0x00014bf0   Data          60  qdeclarativegalleryfilter.o(.constdata)
    QtMobility::qt_meta_stringdata_QDeclarativeGalleryGreaterThanFilter 0x00014c2c   Data          38  qdeclarativegalleryfilter.o(.constdata)
    QtMobility::qt_meta_data_QDeclarativeGalleryGreaterThanEqualsFilter 0x00014c54   Data          60  qdeclarativegalleryfilter.o(.constdata)
    QtMobility::qt_meta_stringdata_QDeclarativeGalleryGreaterThanEqualsFilter 0x00014c90   Data          44  qdeclarativegalleryfilter.o(.constdata)
    QtMobility::qt_meta_data_QDeclarativeGalleryContainsFilter 0x00014cbc   Data          60  qdeclarativegalleryfilter.o(.constdata)
    QtMobility::qt_meta_stringdata_QDeclarativeGalleryContainsFilter 0x00014cf8   Data          35  qdeclarativegalleryfilter.o(.constdata)
    QtMobility::qt_meta_data_QDeclarativeGalleryStartsWithFilter 0x00014d1c   Data          60  qdeclarativegalleryfilter.o(.constdata)
    QtMobility::qt_meta_stringdata_QDeclarativeGalleryStartsWithFilter 0x00014d58   Data          37  qdeclarativegalleryfilter.o(.constdata)
    QtMobility::qt_meta_data_QDeclarativeGalleryEndsWithFilter 0x00014d80   Data          60  qdeclarativegalleryfilter.o(.constdata)
    QtMobility::qt_meta_stringdata_QDeclarativeGalleryEndsWithFilter 0x00014dbc   Data          35  qdeclarativegalleryfilter.o(.constdata)
    QtMobility::qt_meta_data_QDeclarativeGalleryWildcardFilter 0x00014de0   Data          60  qdeclarativegalleryfilter.o(.constdata)
    QtMobility::qt_meta_stringdata_QDeclarativeGalleryWildcardFilter 0x00014e1c   Data          35  qdeclarativegalleryfilter.o(.constdata)
    QtMobility::qt_meta_data_QDeclarativeGalleryFilterGroup 0x00014e40   Data          80  qdeclarativegalleryfilter.o(.constdata)
    QtMobility::qt_meta_stringdata_QDeclarativeGalleryFilterGroup 0x00014e90   Data         112  qdeclarativegalleryfilter.o(.constdata)
    QtMobility::qt_meta_data_QDeclarativeGalleryFilterUnion 0x00014f00   Data          60  qdeclarativegalleryfilter.o(.constdata)
    QtMobility::qt_meta_stringdata_QDeclarativeGalleryFilterUnion 0x00014f3c   Data          32  qdeclarativegalleryfilter.o(.constdata)
    QtMobility::qt_meta_data_QDeclarativeGalleryFilterIntersection 0x00014f5c   Data          60  qdeclarativegalleryfilter.o(.constdata)
    QtMobility::qt_meta_stringdata_QDeclarativeGalleryFilterIntersection 0x00014f98   Data          39  qdeclarativegalleryfilter.o(.constdata)
    .constdata$1                             0x00014fc0   Data           0  qdeclarativegalleryitem.o(.constdata)
    .constdata                               0x00014fc0   Section     1292  qdeclarativegalleryitem.o(.constdata)
    QtMobility::qt_meta_data_QDeclarativeGalleryItem 0x00014fe0   Data         560  qdeclarativegalleryitem.o(.constdata)
    QtMobility::qt_meta_stringdata_QDeclarativeGalleryItem 0x00015210   Data         488  qdeclarativegalleryitem.o(.constdata)
    QtMobility::qt_meta_data_QDeclarativeDocumentGalleryItem 0x000153f8   Data          96  qdeclarativegalleryitem.o(.constdata)
    QtMobility::qt_meta_stringdata_QDeclarativeDocumentGalleryItem 0x00015458   Data          99  qdeclarativegalleryitem.o(.constdata)
    QtMobility::qt_meta_extradata_QDeclarativeDocumentGalleryItem 0x000154bc   Data           8  qdeclarativegalleryitem.o(.constdata)
    QtMobility::qt_meta_extradata2_QDeclarativeDocumentGalleryItem 0x000154c4   Data           8  qdeclarativegalleryitem.o(.constdata)
    .constdata$1                             0x000154cc   Data           0  qdeclarativegalleryquerymodel.o(.constdata)
    .constdata                               0x000154cc   Section     1976  qdeclarativegalleryquerymodel.o(.constdata)
    QtMobility::qt_meta_data_QDeclarativeGalleryQueryModel 0x000154ec   Data         840  qdeclarativegalleryquerymodel.o(.constdata)
    QtMobility::qt_meta_stringdata_QDeclarativeGalleryQueryModel 0x00015834   Data         889  qdeclarativegalleryquerymodel.o(.constdata)
    QtMobility::qt_meta_data_QDeclarativeDocumentGalleryModel 0x00015bb0   Data          96  qdeclarativegalleryquerymodel.o(.constdata)
    QtMobility::qt_meta_stringdata_QDeclarativeDocumentGalleryModel 0x00015c10   Data         100  qdeclarativegalleryquerymodel.o(.constdata)
    QtMobility::qt_meta_extradata_QDeclarativeDocumentGalleryModel 0x00015c74   Data           8  qdeclarativegalleryquerymodel.o(.constdata)
    QtMobility::qt_meta_extradata2_QDeclarativeDocumentGalleryModel 0x00015c7c   Data           8  qdeclarativegalleryquerymodel.o(.constdata)
    .constdata$1                             0x00015c84   Data           0  qdeclarativegallerytype.o(.constdata)
    .constdata                               0x00015c84   Section     1136  qdeclarativegallerytype.o(.constdata)
    QtMobility::qt_meta_data_QDeclarativeGalleryType 0x00015ca4   Data         488  qdeclarativegallerytype.o(.constdata)
    QtMobility::qt_meta_stringdata_QDeclarativeGalleryType 0x00015e8c   Data         401  qdeclarativegallerytype.o(.constdata)
    QtMobility::qt_meta_data_QDeclarativeDocumentGalleryType 0x00016020   Data          96  qdeclarativegallerytype.o(.constdata)
    QtMobility::qt_meta_stringdata_QDeclarativeDocumentGalleryType 0x00016080   Data          99  qdeclarativegallerytype.o(.constdata)
    QtMobility::qt_meta_extradata_QDeclarativeDocumentGalleryType 0x000160e4   Data           8  qdeclarativegallerytype.o(.constdata)
    QtMobility::qt_meta_extradata2_QDeclarativeDocumentGalleryType 0x000160ec   Data           8  qdeclarativegallerytype.o(.constdata)
    .constdata__ZN9stlp_priv15_Integer_limitsIaLan128ELa127ELin1ELb1EE6digitsE 0x000160f4   Section        4  qdeclarativedocumentgallery.o(.constdata__ZN9stlp_priv15_Integer_limitsIaLan128ELa127ELin1ELb1EE6digitsE)
    .constdata__ZN9stlp_priv15_Integer_limitsIbLb0ELb1ELi1ELb0EE6digitsE 0x000160f8   Section        4  qdeclarativedocumentgallery.o(.constdata__ZN9stlp_priv15_Integer_limitsIbLb0ELb1ELi1ELb0EE6digitsE)
    .constdata__ZN9stlp_priv15_Integer_limitsIcLc128ELc127ELin1ELb1EE6digitsE 0x000160fc   Section        4  qdeclarativedocumentgallery.o(.constdata__ZN9stlp_priv15_Integer_limitsIcLc128ELc127ELin1ELb1EE6digitsE)
    .constdata__ZN9stlp_priv15_Integer_limitsIhLh0ELh255ELin1ELb1EE6digitsE 0x00016100   Section        4  qdeclarativedocumentgallery.o(.constdata__ZN9stlp_priv15_Integer_limitsIhLh0ELh255ELin1ELb1EE6digitsE)
    .constdata__ZN9stlp_priv15_Integer_limitsIiLin2147483648ELi2147483647ELin1ELb1EE6digitsE 0x00016104   Section        4  qdeclarativedocumentgallery.o(.constdata__ZN9stlp_priv15_Integer_limitsIiLin2147483648ELi2147483647ELin1ELb1EE6digitsE)
    .constdata__ZN9stlp_priv15_Integer_limitsIiLin2147483648ELi2147483647ELin1ELb1EE9is_signedE 0x00016108   Section        1  qdeclarativedocumentgallery.o(.constdata__ZN9stlp_priv15_Integer_limitsIiLin2147483648ELi2147483647ELin1ELb1EE9is_signedE)
    .constdata__ZN9stlp_priv15_Integer_limitsIjLj0ELj4294967295ELin1ELb1EE6digitsE 0x0001610c   Section        4  qdeclarativedocumentgallery.o(.constdata__ZN9stlp_priv15_Integer_limitsIjLj0ELj4294967295ELin1ELb1EE6digitsE)
    .constdata__ZN9stlp_priv15_Integer_limitsIlLln2147483648ELl2147483647ELin1ELb1EE6digitsE 0x00016110   Section        4  qdeclarativedocumentgallery.o(.constdata__ZN9stlp_priv15_Integer_limitsIlLln2147483648ELl2147483647ELin1ELb1EE6digitsE)
    .constdata__ZN9stlp_priv15_Integer_limitsImLm0ELm4294967295ELin1ELb1EE6digitsE 0x00016114   Section        4  qdeclarativedocumentgallery.o(.constdata__ZN9stlp_priv15_Integer_limitsImLm0ELm4294967295ELin1ELb1EE6digitsE)
    .constdata__ZN9stlp_priv15_Integer_limitsIsLsn32768ELs32767ELin1ELb1EE6digitsE 0x00016118   Section        4  qdeclarativedocumentgallery.o(.constdata__ZN9stlp_priv15_Integer_limitsIsLsn32768ELs32767ELin1ELb1EE6digitsE)
    .constdata__ZN9stlp_priv15_Integer_limitsItLt0ELt65535ELin1ELb1EE6digitsE 0x0001611c   Section        4  qdeclarativedocumentgallery.o(.constdata__ZN9stlp_priv15_Integer_limitsItLt0ELt65535ELin1ELb1EE6digitsE)
    .constdata__ZN9stlp_priv15_Integer_limitsIwLw0ELw65535ELin1ELb1EE6digitsE 0x00016120   Section        4  qdeclarativedocumentgallery.o(.constdata__ZN9stlp_priv15_Integer_limitsIwLw0ELw65535ELin1ELb1EE6digitsE)
    .constdata__ZN9stlp_priv15_Integer_limitsIxLxn9223372036854775808ELx9223372036854775807ELin1ELb1EE6digitsE 0x00016124   Section        4  qdeclarativedocumentgallery.o(.constdata__ZN9stlp_priv15_Integer_limitsIxLxn9223372036854775808ELx9223372036854775807ELin1ELb1EE6digitsE)
    .constdata__ZN9stlp_priv15_Integer_limitsIyLy0ELy18446744073709551615ELin1ELb1EE6digitsE 0x00016128   Section        4  qdeclarativedocumentgallery.o(.constdata__ZN9stlp_priv15_Integer_limitsIyLy0ELy18446744073709551615ELin1ELb1EE6digitsE)
    .constdata__ZTIN10QtMobility23QDeclarativeGalleryItemE 0x0001612c   Section       32  qdeclarativegalleryitem.o(.constdata__ZTIN10QtMobility23QDeclarativeGalleryItemE)
    .constdata__ZTIN10QtMobility23QDeclarativeGalleryTypeE 0x0001614c   Section       32  qdeclarativegallerytype.o(.constdata__ZTIN10QtMobility23QDeclarativeGalleryTypeE)
    .constdata__ZTIN10QtMobility25QGalleryDeclarativeModuleE 0x0001616c   Section       12  qdeclarativegallery.o(.constdata__ZTIN10QtMobility25QGalleryDeclarativeModuleE)
    .constdata__ZTIN10QtMobility27QDeclarativeDocumentGalleryE 0x00016178   Section       12  qdeclarativedocumentgallery.o(.constdata__ZTIN10QtMobility27QDeclarativeDocumentGalleryE)
    .constdata__ZTIN10QtMobility29QDeclarativeGalleryFilterBaseE 0x00016184   Section       12  qdeclarativegalleryfilter.o(.constdata__ZTIN10QtMobility29QDeclarativeGalleryFilterBaseE)
    .constdata__ZTIN10QtMobility29QDeclarativeGalleryQueryModelE 0x00016190   Section       32  qdeclarativegalleryquerymodel.o(.constdata__ZTIN10QtMobility29QDeclarativeGalleryQueryModelE)
    .constdata__ZTIN10QtMobility30QDeclarativeGalleryFilterGroupE 0x000161b0   Section       32  qdeclarativegalleryfilter.o(.constdata__ZTIN10QtMobility30QDeclarativeGalleryFilterGroupE)
    .constdata__ZTIN10QtMobility30QDeclarativeGalleryFilterUnionE 0x000161d0   Section       12  qdeclarativegalleryfilter.o(.constdata__ZTIN10QtMobility30QDeclarativeGalleryFilterUnionE)
    .constdata__ZTIN10QtMobility30QDeclarativeGalleryValueFilterE 0x000161dc   Section       12  qdeclarativegalleryfilter.o(.constdata__ZTIN10QtMobility30QDeclarativeGalleryValueFilterE)
    .constdata__ZTIN10QtMobility31QDeclarativeDocumentGalleryItemE 0x000161e8   Section       12  qdeclarativegalleryitem.o(.constdata__ZTIN10QtMobility31QDeclarativeDocumentGalleryItemE)
    .constdata__ZTIN10QtMobility31QDeclarativeDocumentGalleryTypeE 0x000161f4   Section       12  qdeclarativegallerytype.o(.constdata__ZTIN10QtMobility31QDeclarativeDocumentGalleryTypeE)
    .constdata__ZTIN10QtMobility31QDeclarativeGalleryEqualsFilterE 0x00016200   Section       12  qdeclarativegalleryfilter.o(.constdata__ZTIN10QtMobility31QDeclarativeGalleryEqualsFilterE)
    .constdata__ZTIN10QtMobility31QDeclarativeGalleryStringFilterE 0x0001620c   Section       12  qdeclarativegalleryfilter.o(.constdata__ZTIN10QtMobility31QDeclarativeGalleryStringFilterE)
    .constdata__ZTIN10QtMobility32QDeclarativeDocumentGalleryModelE 0x00016218   Section       12  qdeclarativegalleryquerymodel.o(.constdata__ZTIN10QtMobility32QDeclarativeDocumentGalleryModelE)
    .constdata__ZTIN10QtMobility33QDeclarativeGalleryContainsFilterE 0x00016224   Section       12  qdeclarativegalleryfilter.o(.constdata__ZTIN10QtMobility33QDeclarativeGalleryContainsFilterE)
    .constdata__ZTIN10QtMobility33QDeclarativeGalleryEndsWithFilterE 0x00016230   Section       12  qdeclarativegalleryfilter.o(.constdata__ZTIN10QtMobility33QDeclarativeGalleryEndsWithFilterE)
    .constdata__ZTIN10QtMobility33QDeclarativeGalleryLessThanFilterE 0x0001623c   Section       12  qdeclarativegalleryfilter.o(.constdata__ZTIN10QtMobility33QDeclarativeGalleryLessThanFilterE)
    .constdata__ZTIN10QtMobility33QDeclarativeGalleryWildcardFilterE 0x00016248   Section       12  qdeclarativegalleryfilter.o(.constdata__ZTIN10QtMobility33QDeclarativeGalleryWildcardFilterE)
    .constdata__ZTIN10QtMobility35QDeclarativeGalleryStartsWithFilterE 0x00016254   Section       12  qdeclarativegalleryfilter.o(.constdata__ZTIN10QtMobility35QDeclarativeGalleryStartsWithFilterE)
    .constdata__ZTIN10QtMobility36QDeclarativeGalleryGreaterThanFilterE 0x00016260   Section       12  qdeclarativegalleryfilter.o(.constdata__ZTIN10QtMobility36QDeclarativeGalleryGreaterThanFilterE)
    .constdata__ZTIN10QtMobility37QDeclarativeGalleryFilterIntersectionE 0x0001626c   Section       12  qdeclarativegalleryfilter.o(.constdata__ZTIN10QtMobility37QDeclarativeGalleryFilterIntersectionE)
    .constdata__ZTIN10QtMobility39QDeclarativeGalleryLessThanEqualsFilterE 0x00016278   Section       12  qdeclarativegalleryfilter.o(.constdata__ZTIN10QtMobility39QDeclarativeGalleryLessThanEqualsFilterE)
    .constdata__ZTIN10QtMobility42QDeclarativeGalleryGreaterThanEqualsFilterE 0x00016284   Section       12  qdeclarativegalleryfilter.o(.constdata__ZTIN10QtMobility42QDeclarativeGalleryGreaterThanEqualsFilterE)
    .constdata__ZTIN19QDeclarativePrivate19QDeclarativeElementIN10QtMobility30QDeclarativeGalleryFilterUnionEEE 0x00016290   Section       12  qdeclarativegallery.o(.constdata__ZTIN19QDeclarativePrivate19QDeclarativeElementIN10QtMobility30QDeclarativeGalleryFilterUnionEEE)
    .constdata__ZTIN19QDeclarativePrivate19QDeclarativeElementIN10QtMobility31QDeclarativeDocumentGalleryItemEEE 0x0001629c   Section       12  qdeclarativegallery.o(.constdata__ZTIN19QDeclarativePrivate19QDeclarativeElementIN10QtMobility31QDeclarativeDocumentGalleryItemEEE)
    .constdata__ZTIN19QDeclarativePrivate19QDeclarativeElementIN10QtMobility31QDeclarativeDocumentGalleryTypeEEE 0x000162a8   Section       12  qdeclarativegallery.o(.constdata__ZTIN19QDeclarativePrivate19QDeclarativeElementIN10QtMobility31QDeclarativeDocumentGalleryTypeEEE)
    .constdata__ZTIN19QDeclarativePrivate19QDeclarativeElementIN10QtMobility31QDeclarativeGalleryEqualsFilterEEE 0x000162b4   Section       12  qdeclarativegallery.o(.constdata__ZTIN19QDeclarativePrivate19QDeclarativeElementIN10QtMobility31QDeclarativeGalleryEqualsFilterEEE)
    .constdata__ZTIN19QDeclarativePrivate19QDeclarativeElementIN10QtMobility32QDeclarativeDocumentGalleryModelEEE 0x000162c0   Section       12  qdeclarativegallery.o(.constdata__ZTIN19QDeclarativePrivate19QDeclarativeElementIN10QtMobility32QDeclarativeDocumentGalleryModelEEE)
    .constdata__ZTIN19QDeclarativePrivate19QDeclarativeElementIN10QtMobility33QDeclarativeGalleryContainsFilterEEE 0x000162cc   Section       12  qdeclarativegallery.o(.constdata__ZTIN19QDeclarativePrivate19QDeclarativeElementIN10QtMobility33QDeclarativeGalleryContainsFilterEEE)
    .constdata__ZTIN19QDeclarativePrivate19QDeclarativeElementIN10QtMobility33QDeclarativeGalleryEndsWithFilterEEE 0x000162d8   Section       12  qdeclarativegallery.o(.constdata__ZTIN19QDeclarativePrivate19QDeclarativeElementIN10QtMobility33QDeclarativeGalleryEndsWithFilterEEE)
    .constdata__ZTIN19QDeclarativePrivate19QDeclarativeElementIN10QtMobility33QDeclarativeGalleryLessThanFilterEEE 0x000162e4   Section       12  qdeclarativegallery.o(.constdata__ZTIN19QDeclarativePrivate19QDeclarativeElementIN10QtMobility33QDeclarativeGalleryLessThanFilterEEE)
    .constdata__ZTIN19QDeclarativePrivate19QDeclarativeElementIN10QtMobility33QDeclarativeGalleryWildcardFilterEEE 0x000162f0   Section       12  qdeclarativegallery.o(.constdata__ZTIN19QDeclarativePrivate19QDeclarativeElementIN10QtMobility33QDeclarativeGalleryWildcardFilterEEE)
    .constdata__ZTIN19QDeclarativePrivate19QDeclarativeElementIN10QtMobility35QDeclarativeGalleryStartsWithFilterEEE 0x000162fc   Section       12  qdeclarativegallery.o(.constdata__ZTIN19QDeclarativePrivate19QDeclarativeElementIN10QtMobility35QDeclarativeGalleryStartsWithFilterEEE)
    .constdata__ZTIN19QDeclarativePrivate19QDeclarativeElementIN10QtMobility36QDeclarativeGalleryGreaterThanFilterEEE 0x00016308   Section       12  qdeclarativegallery.o(.constdata__ZTIN19QDeclarativePrivate19QDeclarativeElementIN10QtMobility36QDeclarativeGalleryGreaterThanFilterEEE)
    .constdata__ZTIN19QDeclarativePrivate19QDeclarativeElementIN10QtMobility37QDeclarativeGalleryFilterIntersectionEEE 0x00016314   Section       12  qdeclarativegallery.o(.constdata__ZTIN19QDeclarativePrivate19QDeclarativeElementIN10QtMobility37QDeclarativeGalleryFilterIntersectionEEE)
    .constdata__ZTIN19QDeclarativePrivate19QDeclarativeElementIN10QtMobility39QDeclarativeGalleryLessThanEqualsFilterEEE 0x00016320   Section       12  qdeclarativegallery.o(.constdata__ZTIN19QDeclarativePrivate19QDeclarativeElementIN10QtMobility39QDeclarativeGalleryLessThanEqualsFilterEEE)
    .constdata__ZTIN19QDeclarativePrivate19QDeclarativeElementIN10QtMobility42QDeclarativeGalleryGreaterThanEqualsFilterEEE 0x0001632c   Section       12  qdeclarativegallery.o(.constdata__ZTIN19QDeclarativePrivate19QDeclarativeElementIN10QtMobility42QDeclarativeGalleryGreaterThanEqualsFilterEEE)
    .constdata__ZTSN10QtMobility23QDeclarativeGalleryItemE 0x00016338   Section       40  qdeclarativegalleryitem.o(.constdata__ZTSN10QtMobility23QDeclarativeGalleryItemE)
    .constdata__ZTSN10QtMobility23QDeclarativeGalleryTypeE 0x00016360   Section       40  qdeclarativegallerytype.o(.constdata__ZTSN10QtMobility23QDeclarativeGalleryTypeE)
    .constdata__ZTSN10QtMobility25QGalleryDeclarativeModuleE 0x00016388   Section       42  qdeclarativegallery.o(.constdata__ZTSN10QtMobility25QGalleryDeclarativeModuleE)
    .constdata__ZTSN10QtMobility27QDeclarativeDocumentGalleryE 0x000163b2   Section       44  qdeclarativedocumentgallery.o(.constdata__ZTSN10QtMobility27QDeclarativeDocumentGalleryE)
    .constdata__ZTSN10QtMobility29QDeclarativeGalleryFilterBaseE 0x000163de   Section       46  qdeclarativegalleryfilter.o(.constdata__ZTSN10QtMobility29QDeclarativeGalleryFilterBaseE)
    .constdata__ZTSN10QtMobility29QDeclarativeGalleryQueryModelE 0x0001640c   Section       46  qdeclarativegalleryquerymodel.o(.constdata__ZTSN10QtMobility29QDeclarativeGalleryQueryModelE)
    .constdata__ZTSN10QtMobility30QDeclarativeGalleryFilterGroupE 0x0001643a   Section       47  qdeclarativegalleryfilter.o(.constdata__ZTSN10QtMobility30QDeclarativeGalleryFilterGroupE)
    .constdata__ZTSN10QtMobility30QDeclarativeGalleryFilterUnionE 0x00016469   Section       47  qdeclarativegalleryfilter.o(.constdata__ZTSN10QtMobility30QDeclarativeGalleryFilterUnionE)
    .constdata__ZTSN10QtMobility30QDeclarativeGalleryValueFilterE 0x00016498   Section       47  qdeclarativegalleryfilter.o(.constdata__ZTSN10QtMobility30QDeclarativeGalleryValueFilterE)
    .constdata__ZTSN10QtMobility31QDeclarativeDocumentGalleryItemE 0x000164c7   Section       48  qdeclarativegalleryitem.o(.constdata__ZTSN10QtMobility31QDeclarativeDocumentGalleryItemE)
    .constdata__ZTSN10QtMobility31QDeclarativeDocumentGalleryTypeE 0x000164f7   Section       48  qdeclarativegallerytype.o(.constdata__ZTSN10QtMobility31QDeclarativeDocumentGalleryTypeE)
    .constdata__ZTSN10QtMobility31QDeclarativeGalleryEqualsFilterE 0x00016527   Section       48  qdeclarativegalleryfilter.o(.constdata__ZTSN10QtMobility31QDeclarativeGalleryEqualsFilterE)
    .constdata__ZTSN10QtMobility31QDeclarativeGalleryStringFilterE 0x00016557   Section       48  qdeclarativegalleryfilter.o(.constdata__ZTSN10QtMobility31QDeclarativeGalleryStringFilterE)
    .constdata__ZTSN10QtMobility32QDeclarativeDocumentGalleryModelE 0x00016587   Section       49  qdeclarativegalleryquerymodel.o(.constdata__ZTSN10QtMobility32QDeclarativeDocumentGalleryModelE)
    .constdata__ZTSN10QtMobility33QDeclarativeGalleryContainsFilterE 0x000165b8   Section       50  qdeclarativegalleryfilter.o(.constdata__ZTSN10QtMobility33QDeclarativeGalleryContainsFilterE)
    .constdata__ZTSN10QtMobility33QDeclarativeGalleryEndsWithFilterE 0x000165ea   Section       50  qdeclarativegalleryfilter.o(.constdata__ZTSN10QtMobility33QDeclarativeGalleryEndsWithFilterE)
    .constdata__ZTSN10QtMobility33QDeclarativeGalleryLessThanFilterE 0x0001661c   Section       50  qdeclarativegalleryfilter.o(.constdata__ZTSN10QtMobility33QDeclarativeGalleryLessThanFilterE)
    .constdata__ZTSN10QtMobility33QDeclarativeGalleryWildcardFilterE 0x0001664e   Section       50  qdeclarativegalleryfilter.o(.constdata__ZTSN10QtMobility33QDeclarativeGalleryWildcardFilterE)
    .constdata__ZTSN10QtMobility35QDeclarativeGalleryStartsWithFilterE 0x00016680   Section       52  qdeclarativegalleryfilter.o(.constdata__ZTSN10QtMobility35QDeclarativeGalleryStartsWithFilterE)
    .constdata__ZTSN10QtMobility36QDeclarativeGalleryGreaterThanFilterE 0x000166b4   Section       53  qdeclarativegalleryfilter.o(.constdata__ZTSN10QtMobility36QDeclarativeGalleryGreaterThanFilterE)
    .constdata__ZTSN10QtMobility37QDeclarativeGalleryFilterIntersectionE 0x000166e9   Section       54  qdeclarativegalleryfilter.o(.constdata__ZTSN10QtMobility37QDeclarativeGalleryFilterIntersectionE)
    .constdata__ZTSN10QtMobility39QDeclarativeGalleryLessThanEqualsFilterE 0x0001671f   Section       56  qdeclarativegalleryfilter.o(.constdata__ZTSN10QtMobility39QDeclarativeGalleryLessThanEqualsFilterE)
    .constdata__ZTSN10QtMobility42QDeclarativeGalleryGreaterThanEqualsFilterE 0x00016757   Section       59  qdeclarativegalleryfilter.o(.constdata__ZTSN10QtMobility42QDeclarativeGalleryGreaterThanEqualsFilterE)
    .constdata__ZTSN19QDeclarativePrivate19QDeclarativeElementIN10QtMobility30QDeclarativeGalleryFilterUnionEEE 0x00016792   Section       93  qdeclarativegallery.o(.constdata__ZTSN19QDeclarativePrivate19QDeclarativeElementIN10QtMobility30QDeclarativeGalleryFilterUnionEEE)
    .constdata__ZTSN19QDeclarativePrivate19QDeclarativeElementIN10QtMobility31QDeclarativeDocumentGalleryItemEEE 0x000167ef   Section       94  qdeclarativegallery.o(.constdata__ZTSN19QDeclarativePrivate19QDeclarativeElementIN10QtMobility31QDeclarativeDocumentGalleryItemEEE)
    .constdata__ZTSN19QDeclarativePrivate19QDeclarativeElementIN10QtMobility31QDeclarativeDocumentGalleryTypeEEE 0x0001684d   Section       94  qdeclarativegallery.o(.constdata__ZTSN19QDeclarativePrivate19QDeclarativeElementIN10QtMobility31QDeclarativeDocumentGalleryTypeEEE)
    .constdata__ZTSN19QDeclarativePrivate19QDeclarativeElementIN10QtMobility31QDeclarativeGalleryEqualsFilterEEE 0x000168ab   Section       94  qdeclarativegallery.o(.constdata__ZTSN19QDeclarativePrivate19QDeclarativeElementIN10QtMobility31QDeclarativeGalleryEqualsFilterEEE)
    .constdata__ZTSN19QDeclarativePrivate19QDeclarativeElementIN10QtMobility32QDeclarativeDocumentGalleryModelEEE 0x00016909   Section       95  qdeclarativegallery.o(.constdata__ZTSN19QDeclarativePrivate19QDeclarativeElementIN10QtMobility32QDeclarativeDocumentGalleryModelEEE)
    .constdata__ZTSN19QDeclarativePrivate19QDeclarativeElementIN10QtMobility33QDeclarativeGalleryContainsFilterEEE 0x00016968   Section       96  qdeclarativegallery.o(.constdata__ZTSN19QDeclarativePrivate19QDeclarativeElementIN10QtMobility33QDeclarativeGalleryContainsFilterEEE)
    .constdata__ZTSN19QDeclarativePrivate19QDeclarativeElementIN10QtMobility33QDeclarativeGalleryEndsWithFilterEEE 0x000169c8   Section       96  qdeclarativegallery.o(.constdata__ZTSN19QDeclarativePrivate19QDeclarativeElementIN10QtMobility33QDeclarativeGalleryEndsWithFilterEEE)
    .constdata__ZTSN19QDeclarativePrivate19QDeclarativeElementIN10QtMobility33QDeclarativeGalleryLessThanFilterEEE 0x00016a28   Section       96  qdeclarativegallery.o(.constdata__ZTSN19QDeclarativePrivate19QDeclarativeElementIN10QtMobility33QDeclarativeGalleryLessThanFilterEEE)
    .constdata__ZTSN19QDeclarativePrivate19QDeclarativeElementIN10QtMobility33QDeclarativeGalleryWildcardFilterEEE 0x00016a88   Section       96  qdeclarativegallery.o(.constdata__ZTSN19QDeclarativePrivate19QDeclarativeElementIN10QtMobility33QDeclarativeGalleryWildcardFilterEEE)
    .constdata__ZTSN19QDeclarativePrivate19QDeclarativeElementIN10QtMobility35QDeclarativeGalleryStartsWithFilterEEE 0x00016ae8   Section       98  qdeclarativegallery.o(.constdata__ZTSN19QDeclarativePrivate19QDeclarativeElementIN10QtMobility35QDeclarativeGalleryStartsWithFilterEEE)
    .constdata__ZTSN19QDeclarativePrivate19QDeclarativeElementIN10QtMobility36QDeclarativeGalleryGreaterThanFilterEEE 0x00016b4a   Section       99  qdeclarativegallery.o(.constdata__ZTSN19QDeclarativePrivate19QDeclarativeElementIN10QtMobility36QDeclarativeGalleryGreaterThanFilterEEE)
    .constdata__ZTSN19QDeclarativePrivate19QDeclarativeElementIN10QtMobility37QDeclarativeGalleryFilterIntersectionEEE 0x00016bad   Section      100  qdeclarativegallery.o(.constdata__ZTSN19QDeclarativePrivate19QDeclarativeElementIN10QtMobility37QDeclarativeGalleryFilterIntersectionEEE)
    .constdata__ZTSN19QDeclarativePrivate19QDeclarativeElementIN10QtMobility39QDeclarativeGalleryLessThanEqualsFilterEEE 0x00016c11   Section      102  qdeclarativegallery.o(.constdata__ZTSN19QDeclarativePrivate19QDeclarativeElementIN10QtMobility39QDeclarativeGalleryLessThanEqualsFilterEEE)
    .constdata__ZTSN19QDeclarativePrivate19QDeclarativeElementIN10QtMobility42QDeclarativeGalleryGreaterThanEqualsFilterEEE 0x00016c77   Section      105  qdeclarativegallery.o(.constdata__ZTSN19QDeclarativePrivate19QDeclarativeElementIN10QtMobility42QDeclarativeGalleryGreaterThanEqualsFilterEEE)
    .constdata__ZTVN10QtMobility23QDeclarativeGalleryItemE 0x00016ce0   Section       84  qdeclarativegalleryitem.o(.constdata__ZTVN10QtMobility23QDeclarativeGalleryItemE)
    .constdata__ZTVN10QtMobility23QDeclarativeGalleryTypeE 0x00016d34   Section       84  qdeclarativegallerytype.o(.constdata__ZTVN10QtMobility23QDeclarativeGalleryTypeE)
    .constdata__ZTVN10QtMobility25QGalleryDeclarativeModuleE 0x00016d88   Section       88  qdeclarativegallery.o(.constdata__ZTVN10QtMobility25QGalleryDeclarativeModuleE)
    .constdata__ZTVN10QtMobility27QDeclarativeDocumentGalleryE 0x00016de0   Section       56  qdeclarativedocumentgallery.o(.constdata__ZTVN10QtMobility27QDeclarativeDocumentGalleryE)
    .constdata__ZTVN10QtMobility29QDeclarativeGalleryFilterBaseE 0x00016e18   Section       60  qdeclarativegalleryfilter.o(.constdata__ZTVN10QtMobility29QDeclarativeGalleryFilterBaseE)
    .constdata__ZTVN10QtMobility29QDeclarativeGalleryQueryModelE 0x00016e54   Section      200  qdeclarativegalleryquerymodel.o(.constdata__ZTVN10QtMobility29QDeclarativeGalleryQueryModelE)
    .constdata__ZTVN10QtMobility30QDeclarativeGalleryFilterGroupE 0x00016f1c   Section       92  qdeclarativegalleryfilter.o(.constdata__ZTVN10QtMobility30QDeclarativeGalleryFilterGroupE)
    .constdata__ZTVN10QtMobility30QDeclarativeGalleryFilterUnionE 0x00016f78   Section       92  qdeclarativegalleryfilter.o(.constdata__ZTVN10QtMobility30QDeclarativeGalleryFilterUnionE)
    .constdata__ZTVN10QtMobility30QDeclarativeGalleryValueFilterE 0x00016fd4   Section       60  qdeclarativegalleryfilter.o(.constdata__ZTVN10QtMobility30QDeclarativeGalleryValueFilterE)
    .constdata__ZTVN10QtMobility31QDeclarativeDocumentGalleryItemE 0x00017010   Section       88  qdeclarativegalleryitem.o(.constdata__ZTVN10QtMobility31QDeclarativeDocumentGalleryItemE)
    .constdata__ZTVN10QtMobility31QDeclarativeDocumentGalleryTypeE 0x00017068   Section       88  qdeclarativegallerytype.o(.constdata__ZTVN10QtMobility31QDeclarativeDocumentGalleryTypeE)
    .constdata__ZTVN10QtMobility31QDeclarativeGalleryEqualsFilterE 0x000170c0   Section       60  qdeclarativegalleryfilter.o(.constdata__ZTVN10QtMobility31QDeclarativeGalleryEqualsFilterE)
    .constdata__ZTVN10QtMobility31QDeclarativeGalleryStringFilterE 0x000170fc   Section       60  qdeclarativegalleryfilter.o(.constdata__ZTVN10QtMobility31QDeclarativeGalleryStringFilterE)
    .constdata__ZTVN10QtMobility32QDeclarativeDocumentGalleryModelE 0x00017138   Section      204  qdeclarativegalleryquerymodel.o(.constdata__ZTVN10QtMobility32QDeclarativeDocumentGalleryModelE)
    .constdata__ZTVN10QtMobility33QDeclarativeGalleryContainsFilterE 0x00017204   Section       60  qdeclarativegalleryfilter.o(.constdata__ZTVN10QtMobility33QDeclarativeGalleryContainsFilterE)
    .constdata__ZTVN10QtMobility33QDeclarativeGalleryEndsWithFilterE 0x00017240   Section       60  qdeclarativegalleryfilter.o(.constdata__ZTVN10QtMobility33QDeclarativeGalleryEndsWithFilterE)
    .constdata__ZTVN10QtMobility33QDeclarativeGalleryLessThanFilterE 0x0001727c   Section       60  qdeclarativegalleryfilter.o(.constdata__ZTVN10QtMobility33QDeclarativeGalleryLessThanFilterE)
    .constdata__ZTVN10QtMobility33QDeclarativeGalleryWildcardFilterE 0x000172b8   Section       60  qdeclarativegalleryfilter.o(.constdata__ZTVN10QtMobility33QDeclarativeGalleryWildcardFilterE)
    .constdata__ZTVN10QtMobility35QDeclarativeGalleryStartsWithFilterE 0x000172f4   Section       60  qdeclarativegalleryfilter.o(.constdata__ZTVN10QtMobility35QDeclarativeGalleryStartsWithFilterE)
    .constdata__ZTVN10QtMobility36QDeclarativeGalleryGreaterThanFilterE 0x00017330   Section       60  qdeclarativegalleryfilter.o(.constdata__ZTVN10QtMobility36QDeclarativeGalleryGreaterThanFilterE)
    .constdata__ZTVN10QtMobility37QDeclarativeGalleryFilterIntersectionE 0x0001736c   Section       92  qdeclarativegalleryfilter.o(.constdata__ZTVN10QtMobility37QDeclarativeGalleryFilterIntersectionE)
    .constdata__ZTVN10QtMobility39QDeclarativeGalleryLessThanEqualsFilterE 0x000173c8   Section       60  qdeclarativegalleryfilter.o(.constdata__ZTVN10QtMobility39QDeclarativeGalleryLessThanEqualsFilterE)
    .constdata__ZTVN10QtMobility42QDeclarativeGalleryGreaterThanEqualsFilterE 0x00017404   Section       60  qdeclarativegalleryfilter.o(.constdata__ZTVN10QtMobility42QDeclarativeGalleryGreaterThanEqualsFilterE)
    .constdata__ZTVN19QDeclarativePrivate19QDeclarativeElementIN10QtMobility30QDeclarativeGalleryFilterUnionEEE 0x00017440   Section       92  qdeclarativegallery.o(.constdata__ZTVN19QDeclarativePrivate19QDeclarativeElementIN10QtMobility30QDeclarativeGalleryFilterUnionEEE)
    .constdata__ZTVN19QDeclarativePrivate19QDeclarativeElementIN10QtMobility31QDeclarativeDocumentGalleryItemEEE 0x0001749c   Section       88  qdeclarativegallery.o(.constdata__ZTVN19QDeclarativePrivate19QDeclarativeElementIN10QtMobility31QDeclarativeDocumentGalleryItemEEE)
    .constdata__ZTVN19QDeclarativePrivate19QDeclarativeElementIN10QtMobility31QDeclarativeDocumentGalleryTypeEEE 0x000174f4   Section       88  qdeclarativegallery.o(.constdata__ZTVN19QDeclarativePrivate19QDeclarativeElementIN10QtMobility31QDeclarativeDocumentGalleryTypeEEE)
    .constdata__ZTVN19QDeclarativePrivate19QDeclarativeElementIN10QtMobility31QDeclarativeGalleryEqualsFilterEEE 0x0001754c   Section       60  qdeclarativegallery.o(.constdata__ZTVN19QDeclarativePrivate19QDeclarativeElementIN10QtMobility31QDeclarativeGalleryEqualsFilterEEE)
    .constdata__ZTVN19QDeclarativePrivate19QDeclarativeElementIN10QtMobility32QDeclarativeDocumentGalleryModelEEE 0x00017588   Section      204  qdeclarativegallery.o(.constdata__ZTVN19QDeclarativePrivate19QDeclarativeElementIN10QtMobility32QDeclarativeDocumentGalleryModelEEE)
    .constdata__ZTVN19QDeclarativePrivate19QDeclarativeElementIN10QtMobility33QDeclarativeGalleryContainsFilterEEE 0x00017654   Section       60  qdeclarativegallery.o(.constdata__ZTVN19QDeclarativePrivate19QDeclarativeElementIN10QtMobility33QDeclarativeGalleryContainsFilterEEE)
    .constdata__ZTVN19QDeclarativePrivate19QDeclarativeElementIN10QtMobility33QDeclarativeGalleryEndsWithFilterEEE 0x00017690   Section       60  qdeclarativegallery.o(.constdata__ZTVN19QDeclarativePrivate19QDeclarativeElementIN10QtMobility33QDeclarativeGalleryEndsWithFilterEEE)
    .constdata__ZTVN19QDeclarativePrivate19QDeclarativeElementIN10QtMobility33QDeclarativeGalleryLessThanFilterEEE 0x000176cc   Section       60  qdeclarativegallery.o(.constdata__ZTVN19QDeclarativePrivate19QDeclarativeElementIN10QtMobility33QDeclarativeGalleryLessThanFilterEEE)
    .constdata__ZTVN19QDeclarativePrivate19QDeclarativeElementIN10QtMobility33QDeclarativeGalleryWildcardFilterEEE 0x00017708   Section       60  qdeclarativegallery.o(.constdata__ZTVN19QDeclarativePrivate19QDeclarativeElementIN10QtMobility33QDeclarativeGalleryWildcardFilterEEE)
    .constdata__ZTVN19QDeclarativePrivate19QDeclarativeElementIN10QtMobility35QDeclarativeGalleryStartsWithFilterEEE 0x00017744   Section       60  qdeclarativegallery.o(.constdata__ZTVN19QDeclarativePrivate19QDeclarativeElementIN10QtMobility35QDeclarativeGalleryStartsWithFilterEEE)
    .constdata__ZTVN19QDeclarativePrivate19QDeclarativeElementIN10QtMobility36QDeclarativeGalleryGreaterThanFilterEEE 0x00017780   Section       60  qdeclarativegallery.o(.constdata__ZTVN19QDeclarativePrivate19QDeclarativeElementIN10QtMobility36QDeclarativeGalleryGreaterThanFilterEEE)
    .constdata__ZTVN19QDeclarativePrivate19QDeclarativeElementIN10QtMobility37QDeclarativeGalleryFilterIntersectionEEE 0x000177bc   Section       92  qdeclarativegallery.o(.constdata__ZTVN19QDeclarativePrivate19QDeclarativeElementIN10QtMobility37QDeclarativeGalleryFilterIntersectionEEE)
    .constdata__ZTVN19QDeclarativePrivate19QDeclarativeElementIN10QtMobility39QDeclarativeGalleryLessThanEqualsFilterEEE 0x00017818   Section       60  qdeclarativegallery.o(.constdata__ZTVN19QDeclarativePrivate19QDeclarativeElementIN10QtMobility39QDeclarativeGalleryLessThanEqualsFilterEEE)
    .constdata__ZTVN19QDeclarativePrivate19QDeclarativeElementIN10QtMobility42QDeclarativeGalleryGreaterThanEqualsFilterEEE 0x00017854   Section       60  qdeclarativegallery.o(.constdata__ZTVN19QDeclarativePrivate19QDeclarativeElementIN10QtMobility42QDeclarativeGalleryGreaterThanEqualsFilterEEE)
    __ARM_d__Z15qmlRegisterTypeIN10QtMobility29QDeclarativeGalleryFilterBaseEEiv$55 0x00017890   Data           0  qdeclarativegallery.o(__ARM_d__Z15qmlRegisterTypeIN10QtMobility29QDeclarativeGalleryFilterBaseEEiv)
    __ARM_d__Z15qmlRegisterTypeIN10QtMobility29QDeclarativeGalleryFilterBaseEEiv 0x00017890   Section       76  qdeclarativegallery.o(__ARM_d__Z15qmlRegisterTypeIN10QtMobility29QDeclarativeGalleryFilterBaseEEiv)
    __ARM_d__Z15qmlRegisterTypeIN10QtMobility30QDeclarativeGalleryFilterUnionEEiPKciiS3_$85 0x000178dc   Data           0  qdeclarativegallery.o(__ARM_d__Z15qmlRegisterTypeIN10QtMobility30QDeclarativeGalleryFilterUnionEEiPKciiS3_)
    __ARM_d__Z15qmlRegisterTypeIN10QtMobility30QDeclarativeGalleryFilterUnionEEiPKciiS3_ 0x000178dc   Section       76  qdeclarativegallery.o(__ARM_d__Z15qmlRegisterTypeIN10QtMobility30QDeclarativeGalleryFilterUnionEEiPKciiS3_)
    __ARM_d__Z15qmlRegisterTypeIN10QtMobility31QDeclarativeDocumentGalleryItemEEiPKciiS3_$91 0x00017928   Data           0  qdeclarativegallery.o(__ARM_d__Z15qmlRegisterTypeIN10QtMobility31QDeclarativeDocumentGalleryItemEEiPKciiS3_)
    __ARM_d__Z15qmlRegisterTypeIN10QtMobility31QDeclarativeDocumentGalleryItemEEiPKciiS3_ 0x00017928   Section       76  qdeclarativegallery.o(__ARM_d__Z15qmlRegisterTypeIN10QtMobility31QDeclarativeDocumentGalleryItemEEiPKciiS3_)
    __ARM_d__Z15qmlRegisterTypeIN10QtMobility31QDeclarativeDocumentGalleryTypeEEiPKciiS3_$97 0x00017974   Data           0  qdeclarativegallery.o(__ARM_d__Z15qmlRegisterTypeIN10QtMobility31QDeclarativeDocumentGalleryTypeEEiPKciiS3_)
    __ARM_d__Z15qmlRegisterTypeIN10QtMobility31QDeclarativeDocumentGalleryTypeEEiPKciiS3_ 0x00017974   Section       76  qdeclarativegallery.o(__ARM_d__Z15qmlRegisterTypeIN10QtMobility31QDeclarativeDocumentGalleryTypeEEiPKciiS3_)
    __ARM_d__Z15qmlRegisterTypeIN10QtMobility31QDeclarativeGalleryEqualsFilterEEiPKciiS3_$58 0x000179c0   Data           0  qdeclarativegallery.o(__ARM_d__Z15qmlRegisterTypeIN10QtMobility31QDeclarativeGalleryEqualsFilterEEiPKciiS3_)
    __ARM_d__Z15qmlRegisterTypeIN10QtMobility31QDeclarativeGalleryEqualsFilterEEiPKciiS3_ 0x000179c0   Section       76  qdeclarativegallery.o(__ARM_d__Z15qmlRegisterTypeIN10QtMobility31QDeclarativeGalleryEqualsFilterEEiPKciiS3_)
    __ARM_d__Z15qmlRegisterTypeIN10QtMobility32QDeclarativeDocumentGalleryModelEEiPKciiS3_$94 0x00017a0c   Data           0  qdeclarativegallery.o(__ARM_d__Z15qmlRegisterTypeIN10QtMobility32QDeclarativeDocumentGalleryModelEEiPKciiS3_)
    __ARM_d__Z15qmlRegisterTypeIN10QtMobility32QDeclarativeDocumentGalleryModelEEiPKciiS3_ 0x00017a0c   Section       76  qdeclarativegallery.o(__ARM_d__Z15qmlRegisterTypeIN10QtMobility32QDeclarativeDocumentGalleryModelEEiPKciiS3_)
    __ARM_d__Z15qmlRegisterTypeIN10QtMobility33QDeclarativeGalleryContainsFilterEEiPKciiS3_$73 0x00017a58   Data           0  qdeclarativegallery.o(__ARM_d__Z15qmlRegisterTypeIN10QtMobility33QDeclarativeGalleryContainsFilterEEiPKciiS3_)
    __ARM_d__Z15qmlRegisterTypeIN10QtMobility33QDeclarativeGalleryContainsFilterEEiPKciiS3_ 0x00017a58   Section       76  qdeclarativegallery.o(__ARM_d__Z15qmlRegisterTypeIN10QtMobility33QDeclarativeGalleryContainsFilterEEiPKciiS3_)
    __ARM_d__Z15qmlRegisterTypeIN10QtMobility33QDeclarativeGalleryEndsWithFilterEEiPKciiS3_$79 0x00017aa4   Data           0  qdeclarativegallery.o(__ARM_d__Z15qmlRegisterTypeIN10QtMobility33QDeclarativeGalleryEndsWithFilterEEiPKciiS3_)
    __ARM_d__Z15qmlRegisterTypeIN10QtMobility33QDeclarativeGalleryEndsWithFilterEEiPKciiS3_ 0x00017aa4   Section       76  qdeclarativegallery.o(__ARM_d__Z15qmlRegisterTypeIN10QtMobility33QDeclarativeGalleryEndsWithFilterEEiPKciiS3_)
    __ARM_d__Z15qmlRegisterTypeIN10QtMobility33QDeclarativeGalleryLessThanFilterEEiPKciiS3_$61 0x00017af0   Data           0  qdeclarativegallery.o(__ARM_d__Z15qmlRegisterTypeIN10QtMobility33QDeclarativeGalleryLessThanFilterEEiPKciiS3_)
    __ARM_d__Z15qmlRegisterTypeIN10QtMobility33QDeclarativeGalleryLessThanFilterEEiPKciiS3_ 0x00017af0   Section       76  qdeclarativegallery.o(__ARM_d__Z15qmlRegisterTypeIN10QtMobility33QDeclarativeGalleryLessThanFilterEEiPKciiS3_)
    __ARM_d__Z15qmlRegisterTypeIN10QtMobility33QDeclarativeGalleryWildcardFilterEEiPKciiS3_$82 0x00017b3c   Data           0  qdeclarativegallery.o(__ARM_d__Z15qmlRegisterTypeIN10QtMobility33QDeclarativeGalleryWildcardFilterEEiPKciiS3_)
    __ARM_d__Z15qmlRegisterTypeIN10QtMobility33QDeclarativeGalleryWildcardFilterEEiPKciiS3_ 0x00017b3c   Section       76  qdeclarativegallery.o(__ARM_d__Z15qmlRegisterTypeIN10QtMobility33QDeclarativeGalleryWildcardFilterEEiPKciiS3_)
    __ARM_d__Z15qmlRegisterTypeIN10QtMobility35QDeclarativeGalleryStartsWithFilterEEiPKciiS3_$76 0x00017b88   Data           0  qdeclarativegallery.o(__ARM_d__Z15qmlRegisterTypeIN10QtMobility35QDeclarativeGalleryStartsWithFilterEEiPKciiS3_)
    __ARM_d__Z15qmlRegisterTypeIN10QtMobility35QDeclarativeGalleryStartsWithFilterEEiPKciiS3_ 0x00017b88   Section       76  qdeclarativegallery.o(__ARM_d__Z15qmlRegisterTypeIN10QtMobility35QDeclarativeGalleryStartsWithFilterEEiPKciiS3_)
    __ARM_d__Z15qmlRegisterTypeIN10QtMobility36QDeclarativeGalleryGreaterThanFilterEEiPKciiS3_$67 0x00017bd4   Data           0  qdeclarativegallery.o(__ARM_d__Z15qmlRegisterTypeIN10QtMobility36QDeclarativeGalleryGreaterThanFilterEEiPKciiS3_)
    __ARM_d__Z15qmlRegisterTypeIN10QtMobility36QDeclarativeGalleryGreaterThanFilterEEiPKciiS3_ 0x00017bd4   Section       76  qdeclarativegallery.o(__ARM_d__Z15qmlRegisterTypeIN10QtMobility36QDeclarativeGalleryGreaterThanFilterEEiPKciiS3_)
    __ARM_d__Z15qmlRegisterTypeIN10QtMobility37QDeclarativeGalleryFilterIntersectionEEiPKciiS3_$88 0x00017c20   Data           0  qdeclarativegallery.o(__ARM_d__Z15qmlRegisterTypeIN10QtMobility37QDeclarativeGalleryFilterIntersectionEEiPKciiS3_)
    __ARM_d__Z15qmlRegisterTypeIN10QtMobility37QDeclarativeGalleryFilterIntersectionEEiPKciiS3_ 0x00017c20   Section       76  qdeclarativegallery.o(__ARM_d__Z15qmlRegisterTypeIN10QtMobility37QDeclarativeGalleryFilterIntersectionEEiPKciiS3_)
    __ARM_d__Z15qmlRegisterTypeIN10QtMobility39QDeclarativeGalleryLessThanEqualsFilterEEiPKciiS3_$64 0x00017c6c   Data           0  qdeclarativegallery.o(__ARM_d__Z15qmlRegisterTypeIN10QtMobility39QDeclarativeGalleryLessThanEqualsFilterEEiPKciiS3_)
    __ARM_d__Z15qmlRegisterTypeIN10QtMobility39QDeclarativeGalleryLessThanEqualsFilterEEiPKciiS3_ 0x00017c6c   Section       76  qdeclarativegallery.o(__ARM_d__Z15qmlRegisterTypeIN10QtMobility39QDeclarativeGalleryLessThanEqualsFilterEEiPKciiS3_)
    __ARM_d__Z15qmlRegisterTypeIN10QtMobility42QDeclarativeGalleryGreaterThanEqualsFilterEEiPKciiS3_$70 0x00017cb8   Data           0  qdeclarativegallery.o(__ARM_d__Z15qmlRegisterTypeIN10QtMobility42QDeclarativeGalleryGreaterThanEqualsFilterEEiPKciiS3_)
    __ARM_d__Z15qmlRegisterTypeIN10QtMobility42QDeclarativeGalleryGreaterThanEqualsFilterEEiPKciiS3_ 0x00017cb8   Section       76  qdeclarativegallery.o(__ARM_d__Z15qmlRegisterTypeIN10QtMobility42QDeclarativeGalleryGreaterThanEqualsFilterEEiPKciiS3_)
    __ARM_d__Z26qmlRegisterUncreatableTypeIN10QtMobility27QDeclarativeDocumentGalleryEEiPKciiS3_RK7QString$52 0x00017d04   Data           0  qdeclarativegallery.o(__ARM_d__Z26qmlRegisterUncreatableTypeIN10QtMobility27QDeclarativeDocumentGalleryEEiPKciiS3_RK7QString)
    __ARM_d__Z26qmlRegisterUncreatableTypeIN10QtMobility27QDeclarativeDocumentGalleryEEiPKciiS3_RK7QString 0x00017d04   Section       76  qdeclarativegallery.o(__ARM_d__Z26qmlRegisterUncreatableTypeIN10QtMobility27QDeclarativeDocumentGalleryEEiPKciiS3_RK7QString)
    .ARM.exidx                               0x00017d50   Section        8  ucppinit.o(.ARM.exidx)
    .data$0                                  0x00400000   Data           0  qdeclarativedocumentgallery.o(.data)
    QtMobility::this_qt_declarativeDocumentGalleryInstance 0x00400000   Data           8  qdeclarativedocumentgallery.o(.data)
    .data                                    0x00400000   Section       16  qdeclarativedocumentgallery.o(.data)
    _ZGVcleanup@_ZN10QtMobility37qt_declarativeDocumentGalleryInstanceEv_0 0x00400008   Data           4  qdeclarativedocumentgallery.o(.data)
    cleanup@_ZN10QtMobility37qt_declarativeDocumentGalleryInstanceEv_1 0x0040000c   Data           4  qdeclarativedocumentgallery.o(.data)
    .data$0                                  0x00400010   Data           0  qdeclarativegallery.o(.data)
    _ZGV_instance@qt_plugin_instance_0       0x00400010   Data           4  qdeclarativegallery.o(.data)
    .data                                    0x00400010   Section        8  qdeclarativegallery.o(.data)
    _instance@qt_plugin_instance_1           0x00400014   Data           4  qdeclarativegallery.o(.data)
    .data$0                                  0x00400018   Data           0  ucppfini.o(.data)
    .data                                    0x00400018   Section        4  ucppfini.o(.data)
    .data__ZNSt19_Atomic_swap_structILi1EE12_S_swap_lockE 0x0040001c   Section       12  qdeclarativedocumentgallery.o(.data__ZNSt19_Atomic_swap_structILi1EE12_S_swap_lockE)
    .data__ZZN11QMetaTypeIdI24QDeclarativeListPropertyIN10QtMobility29QDeclarativeGalleryFilterBaseEEE14qt_metatype_idEvE11metatype_id 0x00400028   Section        4  qdeclarativegallery.o(.data__ZZN11QMetaTypeIdI24QDeclarativeListPropertyIN10QtMobility29QDeclarativeGalleryFilterBaseEEE14qt_metatype_idEvE11metatype_id)
    .data__ZZN11QMetaTypeIdI24QDeclarativeListPropertyIN10QtMobility30QDeclarativeGalleryFilterUnionEEE14qt_metatype_idEvE11metatype_id 0x0040002c   Section        4  qdeclarativegallery.o(.data__ZZN11QMetaTypeIdI24QDeclarativeListPropertyIN10QtMobility30QDeclarativeGalleryFilterUnionEEE14qt_metatype_idEvE11metatype_id)
    .data__ZZN11QMetaTypeIdI24QDeclarativeListPropertyIN10QtMobility31QDeclarativeDocumentGalleryItemEEE14qt_metatype_idEvE11metatype_id 0x00400030   Section        4  qdeclarativegallery.o(.data__ZZN11QMetaTypeIdI24QDeclarativeListPropertyIN10QtMobility31QDeclarativeDocumentGalleryItemEEE14qt_metatype_idEvE11metatype_id)
    .data__ZZN11QMetaTypeIdI24QDeclarativeListPropertyIN10QtMobility31QDeclarativeDocumentGalleryTypeEEE14qt_metatype_idEvE11metatype_id 0x00400034   Section        4  qdeclarativegallery.o(.data__ZZN11QMetaTypeIdI24QDeclarativeListPropertyIN10QtMobility31QDeclarativeDocumentGalleryTypeEEE14qt_metatype_idEvE11metatype_id)
    .data__ZZN11QMetaTypeIdI24QDeclarativeListPropertyIN10QtMobility31QDeclarativeGalleryEqualsFilterEEE14qt_metatype_idEvE11metatype_id 0x00400038   Section        4  qdeclarativegallery.o(.data__ZZN11QMetaTypeIdI24QDeclarativeListPropertyIN10QtMobility31QDeclarativeGalleryEqualsFilterEEE14qt_metatype_idEvE11metatype_id)
    .data__ZZN11QMetaTypeIdI24QDeclarativeListPropertyIN10QtMobility32QDeclarativeDocumentGalleryModelEEE14qt_metatype_idEvE11metatype_id 0x0040003c   Section        4  qdeclarativegallery.o(.data__ZZN11QMetaTypeIdI24QDeclarativeListPropertyIN10QtMobility32QDeclarativeDocumentGalleryModelEEE14qt_metatype_idEvE11metatype_id)
    .data__ZZN11QMetaTypeIdI24QDeclarativeListPropertyIN10QtMobility33QDeclarativeGalleryContainsFilterEEE14qt_metatype_idEvE11metatype_id 0x00400040   Section        4  qdeclarativegallery.o(.data__ZZN11QMetaTypeIdI24QDeclarativeListPropertyIN10QtMobility33QDeclarativeGalleryContainsFilterEEE14qt_metatype_idEvE11metatype_id)
    .data__ZZN11QMetaTypeIdI24QDeclarativeListPropertyIN10QtMobility33QDeclarativeGalleryEndsWithFilterEEE14qt_metatype_idEvE11metatype_id 0x00400044   Section        4  qdeclarativegallery.o(.data__ZZN11QMetaTypeIdI24QDeclarativeListPropertyIN10QtMobility33QDeclarativeGalleryEndsWithFilterEEE14qt_metatype_idEvE11metatype_id)
    .data__ZZN11QMetaTypeIdI24QDeclarativeListPropertyIN10QtMobility33QDeclarativeGalleryLessThanFilterEEE14qt_metatype_idEvE11metatype_id 0x00400048   Section        4  qdeclarativegallery.o(.data__ZZN11QMetaTypeIdI24QDeclarativeListPropertyIN10QtMobility33QDeclarativeGalleryLessThanFilterEEE14qt_metatype_idEvE11metatype_id)
    .data__ZZN11QMetaTypeIdI24QDeclarativeListPropertyIN10QtMobility33QDeclarativeGalleryWildcardFilterEEE14qt_metatype_idEvE11metatype_id 0x0040004c   Section        4  qdeclarativegallery.o(.data__ZZN11QMetaTypeIdI24QDeclarativeListPropertyIN10QtMobility33QDeclarativeGalleryWildcardFilterEEE14qt_metatype_idEvE11metatype_id)
    .data__ZZN11QMetaTypeIdI24QDeclarativeListPropertyIN10QtMobility35QDeclarativeGalleryStartsWithFilterEEE14qt_metatype_idEvE11metatype_id 0x00400050   Section        4  qdeclarativegallery.o(.data__ZZN11QMetaTypeIdI24QDeclarativeListPropertyIN10QtMobility35QDeclarativeGalleryStartsWithFilterEEE14qt_metatype_idEvE11metatype_id)
    .data__ZZN11QMetaTypeIdI24QDeclarativeListPropertyIN10QtMobility36QDeclarativeGalleryGreaterThanFilterEEE14qt_metatype_idEvE11metatype_id 0x00400054   Section        4  qdeclarativegallery.o(.data__ZZN11QMetaTypeIdI24QDeclarativeListPropertyIN10QtMobility36QDeclarativeGalleryGreaterThanFilterEEE14qt_metatype_idEvE11metatype_id)
    .data__ZZN11QMetaTypeIdI24QDeclarativeListPropertyIN10QtMobility37QDeclarativeGalleryFilterIntersectionEEE14qt_metatype_idEvE11metatype_id 0x00400058   Section        4  qdeclarativegallery.o(.data__ZZN11QMetaTypeIdI24QDeclarativeListPropertyIN10QtMobility37QDeclarativeGalleryFilterIntersectionEEE14qt_metatype_idEvE11metatype_id)
    .data__ZZN11QMetaTypeIdI24QDeclarativeListPropertyIN10QtMobility39QDeclarativeGalleryLessThanEqualsFilterEEE14qt_metatype_idEvE11metatype_id 0x0040005c   Section        4  qdeclarativegallery.o(.data__ZZN11QMetaTypeIdI24QDeclarativeListPropertyIN10QtMobility39QDeclarativeGalleryLessThanEqualsFilterEEE14qt_metatype_idEvE11metatype_id)
    .data__ZZN11QMetaTypeIdI24QDeclarativeListPropertyIN10QtMobility42QDeclarativeGalleryGreaterThanEqualsFilterEEE14qt_metatype_idEvE11metatype_id 0x00400060   Section        4  qdeclarativegallery.o(.data__ZZN11QMetaTypeIdI24QDeclarativeListPropertyIN10QtMobility42QDeclarativeGalleryGreaterThanEqualsFilterEEE14qt_metatype_idEvE11metatype_id)
    .data__ZZN11QMetaTypeIdIN10QtMobility27QDeclarativeDocumentGallery8ItemTypeEE14qt_metatype_idEvE11metatype_id 0x00400064   Section        4  qdeclarativegallery.o(.data__ZZN11QMetaTypeIdIN10QtMobility27QDeclarativeDocumentGallery8ItemTypeEE14qt_metatype_idEvE11metatype_id)
    .data__ZZN11QMetaTypeIdIPN10QtMobility29QDeclarativeGalleryFilterBaseEE14qt_metatype_idEvE11metatype_id 0x00400068   Section        4  qdeclarativegallery.o(.data__ZZN11QMetaTypeIdIPN10QtMobility29QDeclarativeGalleryFilterBaseEE14qt_metatype_idEvE11metatype_id)
    .data__ZZN11QMetaTypeIdIPN10QtMobility30QDeclarativeGalleryFilterUnionEE14qt_metatype_idEvE11metatype_id 0x0040006c   Section        4  qdeclarativegallery.o(.data__ZZN11QMetaTypeIdIPN10QtMobility30QDeclarativeGalleryFilterUnionEE14qt_metatype_idEvE11metatype_id)
    .data__ZZN11QMetaTypeIdIPN10QtMobility31QDeclarativeDocumentGalleryItemEE14qt_metatype_idEvE11metatype_id 0x00400070   Section        4  qdeclarativegallery.o(.data__ZZN11QMetaTypeIdIPN10QtMobility31QDeclarativeDocumentGalleryItemEE14qt_metatype_idEvE11metatype_id)
    .data__ZZN11QMetaTypeIdIPN10QtMobility31QDeclarativeDocumentGalleryTypeEE14qt_metatype_idEvE11metatype_id 0x00400074   Section        4  qdeclarativegallery.o(.data__ZZN11QMetaTypeIdIPN10QtMobility31QDeclarativeDocumentGalleryTypeEE14qt_metatype_idEvE11metatype_id)
    .data__ZZN11QMetaTypeIdIPN10QtMobility31QDeclarativeGalleryEqualsFilterEE14qt_metatype_idEvE11metatype_id 0x00400078   Section        4  qdeclarativegallery.o(.data__ZZN11QMetaTypeIdIPN10QtMobility31QDeclarativeGalleryEqualsFilterEE14qt_metatype_idEvE11metatype_id)
    .data__ZZN11QMetaTypeIdIPN10QtMobility32QDeclarativeDocumentGalleryModelEE14qt_metatype_idEvE11metatype_id 0x0040007c   Section        4  qdeclarativegallery.o(.data__ZZN11QMetaTypeIdIPN10QtMobility32QDeclarativeDocumentGalleryModelEE14qt_metatype_idEvE11metatype_id)
    .data__ZZN11QMetaTypeIdIPN10QtMobility33QDeclarativeGalleryContainsFilterEE14qt_metatype_idEvE11metatype_id 0x00400080   Section        4  qdeclarativegallery.o(.data__ZZN11QMetaTypeIdIPN10QtMobility33QDeclarativeGalleryContainsFilterEE14qt_metatype_idEvE11metatype_id)
    .data__ZZN11QMetaTypeIdIPN10QtMobility33QDeclarativeGalleryEndsWithFilterEE14qt_metatype_idEvE11metatype_id 0x00400084   Section        4  qdeclarativegallery.o(.data__ZZN11QMetaTypeIdIPN10QtMobility33QDeclarativeGalleryEndsWithFilterEE14qt_metatype_idEvE11metatype_id)
    .data__ZZN11QMetaTypeIdIPN10QtMobility33QDeclarativeGalleryLessThanFilterEE14qt_metatype_idEvE11metatype_id 0x00400088   Section        4  qdeclarativegallery.o(.data__ZZN11QMetaTypeIdIPN10QtMobility33QDeclarativeGalleryLessThanFilterEE14qt_metatype_idEvE11metatype_id)
    .data__ZZN11QMetaTypeIdIPN10QtMobility33QDeclarativeGalleryWildcardFilterEE14qt_metatype_idEvE11metatype_id 0x0040008c   Section        4  qdeclarativegallery.o(.data__ZZN11QMetaTypeIdIPN10QtMobility33QDeclarativeGalleryWildcardFilterEE14qt_metatype_idEvE11metatype_id)
    .data__ZZN11QMetaTypeIdIPN10QtMobility35QDeclarativeGalleryStartsWithFilterEE14qt_metatype_idEvE11metatype_id 0x00400090   Section        4  qdeclarativegallery.o(.data__ZZN11QMetaTypeIdIPN10QtMobility35QDeclarativeGalleryStartsWithFilterEE14qt_metatype_idEvE11metatype_id)
    .data__ZZN11QMetaTypeIdIPN10QtMobility36QDeclarativeGalleryGreaterThanFilterEE14qt_metatype_idEvE11metatype_id 0x00400094   Section        4  qdeclarativegallery.o(.data__ZZN11QMetaTypeIdIPN10QtMobility36QDeclarativeGalleryGreaterThanFilterEE14qt_metatype_idEvE11metatype_id)
    .data__ZZN11QMetaTypeIdIPN10QtMobility37QDeclarativeGalleryFilterIntersectionEE14qt_metatype_idEvE11metatype_id 0x00400098   Section        4  qdeclarativegallery.o(.data__ZZN11QMetaTypeIdIPN10QtMobility37QDeclarativeGalleryFilterIntersectionEE14qt_metatype_idEvE11metatype_id)
    .data__ZZN11QMetaTypeIdIPN10QtMobility39QDeclarativeGalleryLessThanEqualsFilterEE14qt_metatype_idEvE11metatype_id 0x0040009c   Section        4  qdeclarativegallery.o(.data__ZZN11QMetaTypeIdIPN10QtMobility39QDeclarativeGalleryLessThanEqualsFilterEE14qt_metatype_idEvE11metatype_id)
    .data__ZZN11QMetaTypeIdIPN10QtMobility42QDeclarativeGalleryGreaterThanEqualsFilterEE14qt_metatype_idEvE11metatype_id 0x004000a0   Section        4  qdeclarativegallery.o(.data__ZZN11QMetaTypeIdIPN10QtMobility42QDeclarativeGalleryGreaterThanEqualsFilterEE14qt_metatype_idEvE11metatype_id)
    .bss$5                                   0x004000a4   Data           0  ucppfini.o(.bss)
    .bss                                     0x004000a4   Section     2048  ucppfini.o(.bss)

    Global Symbols

    Symbol Name                              Value     Ov Type        Size  Object(Section)

    BuildAttributes$$THUMB_ISAv2$ARM_ISAv5$M$VFPv2$PE$A:L22$X:L11$S22$IEEE1$IW$USESV6$~STKCKD$USESV7$~SHL$OSPACE$ROPI$IEEEJ$EBA8$UX$FPIC$INDIRECT$REQ8$PRES8$EABIv2 0x00000000   Number         0  anon$$obj.o ABSOLUTE
    QtCore{00040703}[2001b2dc].dll           0x00000000   Data           0  anon$$obj.o ABSOLUTE
    QtDeclarative{00040703}[2001e623].dll    0x00000000   Data           0  anon$$obj.o ABSOLUTE
    QtGallery{00010103}[2002bfcb].dll        0x00000000   Data           0  anon$$obj.o ABSOLUTE
    QtScript{00040703}[2001b2e1].dll         0x00000000   Data           0  anon$$obj.o ABSOLUTE
    declarative_gallery{000a0000}[2002bfcc].dll 0x00000000   Data           0  anon$$obj.o ABSOLUTE
    dfpaeabi{000a0000}.dll                   0x00000000   Data           0  anon$$obj.o ABSOLUTE
    drtaeabi{000a0000}.dll                   0x00000000   Data           0  anon$$obj.o ABSOLUTE
    euser{000a0000}[100039e5].dll            0x00000000   Data           0  anon$$obj.o ABSOLUTE
    libc{00010001}[10207369].dll             0x00000000   Data           0  anon$$obj.o ABSOLUTE
    stdnew{000a0000}[20022178].dll           0x00000000   Data           0  anon$$obj.o ABSOLUTE
    SHT$$INIT_ARRAY$$Base                     - Undefined Weak Reference
    SHT$$INIT_ARRAY$$Limit                    - Undefined Weak Reference
    QBasicAtomicPointer_testAndSetOrdered(void*volatile *, void*, void*)  - Undefined Reference
    _Z37QBasicAtomicPointer_testAndSetOrderedPVPvS_S_@QtCore{00040703}[2001b2dc].dll  - Undefined Reference
    qFree(void*)                              - Undefined Reference
    _Z5qFreePv@QtCore{00040703}[2001b2dc].dll  - Undefined Reference
    qmlInfo(const QObject*)                   - Undefined Reference
    _Z7qmlInfoPK7QObject@QtDeclarative{00040703}[2001e623].dll  - Undefined Reference
    qBadAlloc()                               - Undefined Reference
    _Z9qBadAllocv@QtCore{00040703}[2001b2dc].dll  - Undefined Reference
    QByteArray::append(const char*)           - Undefined Reference
    _ZN10QByteArray6appendEPKc@QtCore{00040703}[2001b2dc].dll  - Undefined Reference
    QByteArray::append(const QByteArray&)     - Undefined Reference
    _ZN10QByteArray6appendERKS_@QtCore{00040703}[2001b2dc].dll  - Undefined Reference
    QByteArray::append(char)                  - Undefined Reference
    _ZN10QByteArray6appendEc@QtCore{00040703}[2001b2dc].dll  - Undefined Reference
    QByteArray::QByteArray(const char*)       - Undefined Reference
    _ZN10QByteArrayC1EPKc@QtCore{00040703}[2001b2dc].dll  - Undefined Reference
    QByteArray::operator =(const QByteArray&)  - Undefined Reference
    _ZN10QByteArrayaSERKS_@QtCore{00040703}[2001b2dc].dll  - Undefined Reference
    QtMobility::QGalleryFilter::QGalleryFilter(const QtMobility::QGalleryUnionFilter&)  - Undefined Reference
    _ZN10QtMobility14QGalleryFilterC1ERKNS_19QGalleryUnionFilterE@QtGallery{00010103}[2002bfcb].dll  - Undefined Reference
    QtMobility::QGalleryFilter::QGalleryFilter(const QtMobility::QGalleryMetaDataFilter&)  - Undefined Reference
    _ZN10QtMobility14QGalleryFilterC1ERKNS_22QGalleryMetaDataFilterE@QtGallery{00010103}[2002bfcb].dll  - Undefined Reference
    QtMobility::QGalleryFilter::QGalleryFilter(const QtMobility::QGalleryIntersectionFilter&)  - Undefined Reference
    _ZN10QtMobility14QGalleryFilterC1ERKNS_26QGalleryIntersectionFilterE@QtGallery{00010103}[2002bfcb].dll  - Undefined Reference
    QtMobility::QGalleryFilter::QGalleryFilter()  - Undefined Reference
    _ZN10QtMobility14QGalleryFilterC1Ev@QtGallery{00010103}[2002bfcb].dll  - Undefined Reference
    QtMobility::QGalleryFilter::~QGalleryFilter()  - Undefined Reference
    _ZN10QtMobility14QGalleryFilterD1Ev@QtGallery{00010103}[2002bfcb].dll  - Undefined Reference
    QtMobility::QDocumentGallery::File        - Undefined Reference
    _ZN10QtMobility16QDocumentGallery4FileE@QtGallery{00010103}[2002bfcb].dll  - Undefined Reference
    QtMobility::QDocumentGallery::QDocumentGallery(QObject*)  - Undefined Reference
    _ZN10QtMobility16QDocumentGalleryC1EP7QObject@QtGallery{00010103}[2002bfcb].dll  - Undefined Reference
    QtMobility::QGalleryItemRequest::setMetaData(const QString&, const QVariant&)  - Undefined Reference
    _ZN10QtMobility19QGalleryItemRequest11setMetaDataERK7QStringRK8QVariant@QtGallery{00010103}[2002bfcb].dll  - Undefined Reference
    QtMobility::QGalleryItemRequest::setAutoUpdate(bool)  - Undefined Reference
    _ZN10QtMobility19QGalleryItemRequest13setAutoUpdateEb@QtGallery{00010103}[2002bfcb].dll  - Undefined Reference
    QtMobility::QGalleryItemRequest::setPropertyNames(const QStringList&)  - Undefined Reference
    _ZN10QtMobility19QGalleryItemRequest16setPropertyNamesERK11QStringList@QtGallery{00010103}[2002bfcb].dll  - Undefined Reference
    QtMobility::QGalleryItemRequest::setItemId(const QVariant&)  - Undefined Reference
    _ZN10QtMobility19QGalleryItemRequest9setItemIdERK8QVariant@QtGallery{00010103}[2002bfcb].dll  - Undefined Reference
    QtMobility::QGalleryItemRequest::QGalleryItemRequest(QObject*)  - Undefined Reference
    _ZN10QtMobility19QGalleryItemRequestC1EP7QObject@QtGallery{00010103}[2002bfcb].dll  - Undefined Reference
    QtMobility::QGalleryItemRequest::~QGalleryItemRequest()  - Undefined Reference
    _ZN10QtMobility19QGalleryItemRequestD1Ev@QtGallery{00010103}[2002bfcb].dll  - Undefined Reference
    QtMobility::QGalleryTypeRequest::setItemType(const QString&)  - Undefined Reference
    _ZN10QtMobility19QGalleryTypeRequest11setItemTypeERK7QString@QtGallery{00010103}[2002bfcb].dll  - Undefined Reference
    QtMobility::QGalleryTypeRequest::setAutoUpdate(bool)  - Undefined Reference
    _ZN10QtMobility19QGalleryTypeRequest13setAutoUpdateEb@QtGallery{00010103}[2002bfcb].dll  - Undefined Reference
    QtMobility::QGalleryTypeRequest::setPropertyNames(const QStringList&)  - Undefined Reference
    _ZN10QtMobility19QGalleryTypeRequest16setPropertyNamesERK11QStringList@QtGallery{00010103}[2002bfcb].dll  - Undefined Reference
    QtMobility::QGalleryTypeRequest::QGalleryTypeRequest(QObject*)  - Undefined Reference
    _ZN10QtMobility19QGalleryTypeRequestC1EP7QObject@QtGallery{00010103}[2002bfcb].dll  - Undefined Reference
    QtMobility::QGalleryTypeRequest::~QGalleryTypeRequest()  - Undefined Reference
    _ZN10QtMobility19QGalleryTypeRequestD1Ev@QtGallery{00010103}[2002bfcb].dll  - Undefined Reference
    QtMobility::QGalleryUnionFilter::append(const QtMobility::QGalleryMetaDataFilter&)  - Undefined Reference
    _ZN10QtMobility19QGalleryUnionFilter6appendERKNS_22QGalleryMetaDataFilterE@QtGallery{00010103}[2002bfcb].dll  - Undefined Reference
    QtMobility::QGalleryUnionFilter::append(const QtMobility::QGalleryIntersectionFilter&)  - Undefined Reference
    _ZN10QtMobility19QGalleryUnionFilter6appendERKNS_26QGalleryIntersectionFilterE@QtGallery{00010103}[2002bfcb].dll  - Undefined Reference
    QtMobility::QGalleryUnionFilter::append(const QtMobility::QGalleryUnionFilter&)  - Undefined Reference
    _ZN10QtMobility19QGalleryUnionFilter6appendERKS0_@QtGallery{00010103}[2002bfcb].dll  - Undefined Reference
    QtMobility::QGalleryUnionFilter::QGalleryUnionFilter()  - Undefined Reference
    _ZN10QtMobility19QGalleryUnionFilterC1Ev@QtGallery{00010103}[2002bfcb].dll  - Undefined Reference
    QtMobility::QGalleryUnionFilter::~QGalleryUnionFilter()  - Undefined Reference
    _ZN10QtMobility19QGalleryUnionFilterD1Ev@QtGallery{00010103}[2002bfcb].dll  - Undefined Reference
    QtMobility::QGalleryQueryRequest::setRootItem(const QVariant&)  - Undefined Reference
    _ZN10QtMobility20QGalleryQueryRequest11setRootItemERK8QVariant@QtGallery{00010103}[2002bfcb].dll  - Undefined Reference
    QtMobility::QGalleryQueryRequest::setRootType(const QString&)  - Undefined Reference
    _ZN10QtMobility20QGalleryQueryRequest11setRootTypeERK7QString@QtGallery{00010103}[2002bfcb].dll  - Undefined Reference
    QtMobility::QGalleryQueryRequest::setAutoUpdate(bool)  - Undefined Reference
    _ZN10QtMobility20QGalleryQueryRequest13setAutoUpdateEb@QtGallery{00010103}[2002bfcb].dll  - Undefined Reference
    QtMobility::QGalleryQueryRequest::setPropertyNames(const QStringList&)  - Undefined Reference
    _ZN10QtMobility20QGalleryQueryRequest16setPropertyNamesERK11QStringList@QtGallery{00010103}[2002bfcb].dll  - Undefined Reference
    QtMobility::QGalleryQueryRequest::setSortPropertyNames(const QStringList&)  - Undefined Reference
    _ZN10QtMobility20QGalleryQueryRequest20setSortPropertyNamesERK11QStringList@QtGallery{00010103}[2002bfcb].dll  - Undefined Reference
    QtMobility::QGalleryQueryRequest::setLimit(int)  - Undefined Reference
    _ZN10QtMobility20QGalleryQueryRequest8setLimitEi@QtGallery{00010103}[2002bfcb].dll  - Undefined Reference
    QtMobility::QGalleryQueryRequest::setScope(QtMobility::QGalleryQueryRequest::Scope)  - Undefined Reference
    _ZN10QtMobility20QGalleryQueryRequest8setScopeENS0_5ScopeE@QtGallery{00010103}[2002bfcb].dll  - Undefined Reference
    QtMobility::QGalleryQueryRequest::setFilter(const QtMobility::QGalleryFilter&)  - Undefined Reference
    _ZN10QtMobility20QGalleryQueryRequest9setFilterERKNS_14QGalleryFilterE@QtGallery{00010103}[2002bfcb].dll  - Undefined Reference
    QtMobility::QGalleryQueryRequest::setOffset(int)  - Undefined Reference
    _ZN10QtMobility20QGalleryQueryRequest9setOffsetEi@QtGallery{00010103}[2002bfcb].dll  - Undefined Reference
    QtMobility::QGalleryQueryRequest::QGalleryQueryRequest(QObject*)  - Undefined Reference
    _ZN10QtMobility20QGalleryQueryRequestC1EP7QObject@QtGallery{00010103}[2002bfcb].dll  - Undefined Reference
    QtMobility::QGalleryQueryRequest::~QGalleryQueryRequest()  - Undefined Reference
    _ZN10QtMobility20QGalleryQueryRequestD1Ev@QtGallery{00010103}[2002bfcb].dll  - Undefined Reference
    QtMobility::QGalleryMetaDataFilter::setNegated(bool)  - Undefined Reference
    _ZN10QtMobility22QGalleryMetaDataFilter10setNegatedEb@QtGallery{00010103}[2002bfcb].dll  - Undefined Reference
    QtMobility::QGalleryMetaDataFilter::setComparator(QtMobility::QGalleryFilter::Comparator)  - Undefined Reference
    _ZN10QtMobility22QGalleryMetaDataFilter13setComparatorENS_14QGalleryFilter10ComparatorE@QtGallery{00010103}[2002bfcb].dll  - Undefined Reference
    QtMobility::QGalleryMetaDataFilter::setPropertyName(const QString&)  - Undefined Reference
    _ZN10QtMobility22QGalleryMetaDataFilter15setPropertyNameERK7QString@QtGallery{00010103}[2002bfcb].dll  - Undefined Reference
    QtMobility::QGalleryMetaDataFilter::setValue(const QVariant&)  - Undefined Reference
    _ZN10QtMobility22QGalleryMetaDataFilter8setValueERK8QVariant@QtGallery{00010103}[2002bfcb].dll  - Undefined Reference
    QtMobility::QGalleryMetaDataFilter::QGalleryMetaDataFilter(const QtMobility::QGalleryMetaDataFilter&)  - Undefined Reference
    _ZN10QtMobility22QGalleryMetaDataFilterC1ERKS0_@QtGallery{00010103}[2002bfcb].dll  - Undefined Reference
    QtMobility::QGalleryMetaDataFilter::QGalleryMetaDataFilter()  - Undefined Reference
    _ZN10QtMobility22QGalleryMetaDataFilterC1Ev@QtGallery{00010103}[2002bfcb].dll  - Undefined Reference
    QtMobility::QGalleryMetaDataFilter::~QGalleryMetaDataFilter()  - Undefined Reference
    _ZN10QtMobility22QGalleryMetaDataFilterD1Ev@QtGallery{00010103}[2002bfcb].dll  - Undefined Reference
    QtMobility::QGalleryAbstractRequest::setGallery(QtMobility::QAbstractGallery*)  - Undefined Reference
    _ZN10QtMobility23QGalleryAbstractRequest10setGalleryEPNS_16QAbstractGalleryE@QtGallery{00010103}[2002bfcb].dll  - Undefined Reference
    QtMobility::QGalleryAbstractRequest::clear()  - Undefined Reference
    _ZN10QtMobility23QGalleryAbstractRequest5clearEv@QtGallery{00010103}[2002bfcb].dll  - Undefined Reference
    QtMobility::QGalleryAbstractRequest::cancel()  - Undefined Reference
    _ZN10QtMobility23QGalleryAbstractRequest6cancelEv@QtGallery{00010103}[2002bfcb].dll  - Undefined Reference
    QtMobility::QGalleryAbstractRequest::execute()  - Undefined Reference
    _ZN10QtMobility23QGalleryAbstractRequest7executeEv@QtGallery{00010103}[2002bfcb].dll  - Undefined Reference
    QtMobility::QGalleryIntersectionFilter::append(const QtMobility::QGalleryUnionFilter&)  - Undefined Reference
    _ZN10QtMobility26QGalleryIntersectionFilter6appendERKNS_19QGalleryUnionFilterE@QtGallery{00010103}[2002bfcb].dll  - Undefined Reference
    QtMobility::QGalleryIntersectionFilter::append(const QtMobility::QGalleryMetaDataFilter&)  - Undefined Reference
    _ZN10QtMobility26QGalleryIntersectionFilter6appendERKNS_22QGalleryMetaDataFilterE@QtGallery{00010103}[2002bfcb].dll  - Undefined Reference
    QtMobility::QGalleryIntersectionFilter::append(const QtMobility::QGalleryIntersectionFilter&)  - Undefined Reference
    _ZN10QtMobility26QGalleryIntersectionFilter6appendERKS0_@QtGallery{00010103}[2002bfcb].dll  - Undefined Reference
    QtMobility::QGalleryIntersectionFilter::QGalleryIntersectionFilter()  - Undefined Reference
    _ZN10QtMobility26QGalleryIntersectionFilterC1Ev@QtGallery{00010103}[2002bfcb].dll  - Undefined Reference
    QtMobility::QGalleryIntersectionFilter::~QGalleryIntersectionFilter()  - Undefined Reference
    _ZN10QtMobility26QGalleryIntersectionFilterD1Ev@QtGallery{00010103}[2002bfcb].dll  - Undefined Reference
    QMetaObject::changeGuard(QObject**, QObject*)  - Undefined Reference
    _ZN11QMetaObject11changeGuardEPP7QObjectS1_@QtCore{00040703}[2001b2dc].dll  - Undefined Reference
    QMetaObject::removeGuard(QObject**)       - Undefined Reference
    _ZN11QMetaObject11removeGuardEPP7QObject@QtCore{00040703}[2001b2dc].dll  - Undefined Reference
    QMetaObject::activate(QObject*, const QMetaObject*, int, void**)  - Undefined Reference
    _ZN11QMetaObject8activateEP7QObjectPKS_iPPv@QtCore{00040703}[2001b2dc].dll  - Undefined Reference
    QTextStream::operator <<(const QString&)  - Undefined Reference
    _ZN11QTextStreamlsERK7QString@QtCore{00040703}[2001b2dc].dll  - Undefined Reference
    QTextStream::operator <<(char)            - Undefined Reference
    _ZN11QTextStreamlsEc@QtCore{00040703}[2001b2dc].dll  - Undefined Reference
    QVectorData::shared_null                  - Undefined Reference
    _ZN11QVectorData11shared_nullE@QtCore{00040703}[2001b2dc].dll  - Undefined Reference
    QVectorData::free(QVectorData*, int)      - Undefined Reference
    _ZN11QVectorData4freeEPS_i@QtCore{00040703}[2001b2dc].dll  - Undefined Reference
    QVectorData::grow(int, int, int, bool)    - Undefined Reference
    _ZN11QVectorData4growEiiib@QtCore{00040703}[2001b2dc].dll  - Undefined Reference
    QVectorData::allocate(int, int)           - Undefined Reference
    _ZN11QVectorData8allocateEii@QtCore{00040703}[2001b2dc].dll  - Undefined Reference
    QScriptValue::setProperty(const QString&, const QScriptValue&, const QFlags<QScriptValue::PropertyFlag>&)  - Undefined Reference
    _ZN12QScriptValue11setPropertyERK7QStringRKS_RK6QFlagsINS_12PropertyFlagEE@QtScript{00040703}[2001b2e1].dll  - Undefined Reference
    QScriptValue::QScriptValue(const QScriptValue&)  - Undefined Reference
    _ZN12QScriptValueC1ERKS_@QtScript{00040703}[2001b2e1].dll  - Undefined Reference
    QScriptValue::QScriptValue()              - Undefined Reference
    _ZN12QScriptValueC1Ev@QtScript{00040703}[2001b2e1].dll  - Undefined Reference
    QScriptValue::~QScriptValue()             - Undefined Reference
    _ZN12QScriptValueD1Ev@QtScript{00040703}[2001b2e1].dll  - Undefined Reference
    QScriptValue::operator =(const QScriptValue&)  - Undefined Reference
    _ZN12QScriptValueaSERKS_@QtScript{00040703}[2001b2e1].dll  - Undefined Reference
    QScriptEngine::newVariant(const QVariant&)  - Undefined Reference
    _ZN13QScriptEngine10newVariantERK8QVariant@QtScript{00040703}[2001b2e1].dll  - Undefined Reference
    QScriptEngine::undefinedValue()           - Undefined Reference
    _ZN13QScriptEngine14undefinedValueEv@QtScript{00040703}[2001b2e1].dll  - Undefined Reference
    QScriptEngine::create(int, const void*)   - Undefined Reference
    _ZN13QScriptEngine6createEiPKv@QtScript{00040703}[2001b2e1].dll  - Undefined Reference
    QScriptEngine::newObject()                - Undefined Reference
    _ZN13QScriptEngine9newObjectEv@QtScript{00040703}[2001b2e1].dll  - Undefined Reference
    QtSharedPointer::ExternalRefCountData::getAndRef(const QObject*)  - Undefined Reference
    _ZN15QtSharedPointer20ExternalRefCountData9getAndRefEPK7QObject@QtCore{00040703}[2001b2dc].dll  - Undefined Reference
    QCoreApplication::postEvent(QObject*, QEvent*)  - Undefined Reference
    _ZN16QCoreApplication9postEventEP7QObjectP6QEvent@QtCore{00040703}[2001b2dc].dll  - Undefined Reference
    QDeclarativeInfo::~QDeclarativeInfo()     - Undefined Reference
    _ZN16QDeclarativeInfoD1Ev@QtDeclarative{00040703}[2001e623].dll  - Undefined Reference
    QAbstractItemModel::insertRows(int, int, const QModelIndex&)  - Undefined Reference
    _ZN18QAbstractItemModel10insertRowsEiiRK11QModelIndex@QtCore{00040703}[2001b2dc].dll  - Undefined Reference
    QAbstractItemModel::removeRows(int, int, const QModelIndex&)  - Undefined Reference
    _ZN18QAbstractItemModel10removeRowsEiiRK11QModelIndex@QtCore{00040703}[2001b2dc].dll  - Undefined Reference
    QAbstractItemModel::dataChanged(const QModelIndex&, const QModelIndex&)  - Undefined Reference
    _ZN18QAbstractItemModel11dataChangedERK11QModelIndexS2_@QtCore{00040703}[2001b2dc].dll  - Undefined Reference
    QAbstractItemModel::endMoveRows()         - Undefined Reference
    _ZN18QAbstractItemModel11endMoveRowsEv@QtCore{00040703}[2001b2dc].dll  - Undefined Reference
    QAbstractItemModel::setItemData(const QModelIndex&, const QMap<int, QVariant>&)  - Undefined Reference
    _ZN18QAbstractItemModel11setItemDataERK11QModelIndexRK4QMapIi8QVariantE@QtCore{00040703}[2001b2dc].dll  - Undefined Reference
    QAbstractItemModel::setRoleNames(const QHash<int, QByteArray>&)  - Undefined Reference
    _ZN18QAbstractItemModel12setRoleNamesERK5QHashIi10QByteArrayE@QtCore{00040703}[2001b2dc].dll  - Undefined Reference
    QAbstractItemModel::beginMoveRows(const QModelIndex&, int, int, const QModelIndex&, int)  - Undefined Reference
    _ZN18QAbstractItemModel13beginMoveRowsERK11QModelIndexiiS2_i@QtCore{00040703}[2001b2dc].dll  - Undefined Reference
    QAbstractItemModel::endInsertRows()       - Undefined Reference
    _ZN18QAbstractItemModel13endInsertRowsEv@QtCore{00040703}[2001b2dc].dll  - Undefined Reference
    QAbstractItemModel::endRemoveRows()       - Undefined Reference
    _ZN18QAbstractItemModel13endRemoveRowsEv@QtCore{00040703}[2001b2dc].dll  - Undefined Reference
    QAbstractItemModel::insertColumns(int, int, const QModelIndex&)  - Undefined Reference
    _ZN18QAbstractItemModel13insertColumnsEiiRK11QModelIndex@QtCore{00040703}[2001b2dc].dll  - Undefined Reference
    QAbstractItemModel::removeColumns(int, int, const QModelIndex&)  - Undefined Reference
    _ZN18QAbstractItemModel13removeColumnsEiiRK11QModelIndex@QtCore{00040703}[2001b2dc].dll  - Undefined Reference
    QAbstractItemModel::setHeaderData(int, Qt::Orientation, const QVariant&, int)  - Undefined Reference
    _ZN18QAbstractItemModel13setHeaderDataEiN2Qt11OrientationERK8QVarianti@QtCore{00040703}[2001b2dc].dll  - Undefined Reference
    QAbstractItemModel::beginInsertRows(const QModelIndex&, int, int)  - Undefined Reference
    _ZN18QAbstractItemModel15beginInsertRowsERK11QModelIndexii@QtCore{00040703}[2001b2dc].dll  - Undefined Reference
    QAbstractItemModel::beginRemoveRows(const QModelIndex&, int, int)  - Undefined Reference
    _ZN18QAbstractItemModel15beginRemoveRowsERK11QModelIndexii@QtCore{00040703}[2001b2dc].dll  - Undefined Reference
    QAbstractItemModel::sort(int, Qt::SortOrder)  - Undefined Reference
    _ZN18QAbstractItemModel4sortEiN2Qt9SortOrderE@QtCore{00040703}[2001b2dc].dll  - Undefined Reference
    QAbstractItemModel::revert()              - Undefined Reference
    _ZN18QAbstractItemModel6revertEv@QtCore{00040703}[2001b2dc].dll  - Undefined Reference
    QAbstractItemModel::submit()              - Undefined Reference
    _ZN18QAbstractItemModel6submitEv@QtCore{00040703}[2001b2dc].dll  - Undefined Reference
    QAbstractItemModel::fetchMore(const QModelIndex&)  - Undefined Reference
    _ZN18QAbstractItemModel9fetchMoreERK11QModelIndex@QtCore{00040703}[2001b2dc].dll  - Undefined Reference
    QAbstractListModel::qt_metacall(QMetaObject::Call, int, void**)  - Undefined Reference
    _ZN18QAbstractListModel11qt_metacallEN11QMetaObject4CallEiPPv@QtCore{00040703}[2001b2dc].dll  - Undefined Reference
    QAbstractListModel::qt_metacast(const char*)  - Undefined Reference
    _ZN18QAbstractListModel11qt_metacastEPKc@QtCore{00040703}[2001b2dc].dll  - Undefined Reference
    QAbstractListModel::dropMimeData(const QMimeData*, Qt::DropAction, int, int, const QModelIndex&)  - Undefined Reference
    _ZN18QAbstractListModel12dropMimeDataEPK9QMimeDataN2Qt10DropActionEiiRK11QModelIndex@QtCore{00040703}[2001b2dc].dll  - Undefined Reference
    QAbstractListModel::staticMetaObject      - Undefined Reference
    _ZN18QAbstractListModel16staticMetaObjectE@QtCore{00040703}[2001b2dc].dll  - Undefined Reference
    QAbstractListModel::QAbstractListModel__sub_object(QObject*)  - Undefined Reference
    _ZN18QAbstractListModelC2EP7QObject@QtCore{00040703}[2001b2dc].dll  - Undefined Reference
    QAbstractListModel::~QAbstractListModel__sub_object()  - Undefined Reference
    _ZN18QAbstractListModelD2Ev@QtCore{00040703}[2001b2dc].dll  - Undefined Reference
    QDeclarativePrivate::qmlregister(QDeclarativePrivate::RegistrationType, void*)  - Undefined Reference
    _ZN19QDeclarativePrivate11qmlregisterENS_16RegistrationTypeEPv@QtDeclarative{00040703}[2001e623].dll  - Undefined Reference
    QDeclarativePrivate::qdeclarativeelement_destructor(QObject*)  - Undefined Reference
    _ZN19QDeclarativePrivate30qdeclarativeelement_destructorEP7QObject@QtDeclarative{00040703}[2001e623].dll  - Undefined Reference
    QScriptValueIterator::next()              - Undefined Reference
    _ZN20QScriptValueIterator4nextEv@QtScript{00040703}[2001b2e1].dll  - Undefined Reference
    QScriptValueIterator::QScriptValueIterator(const QScriptValue&)  - Undefined Reference
    _ZN20QScriptValueIteratorC1ERK12QScriptValue@QtScript{00040703}[2001b2e1].dll  - Undefined Reference
    QScriptValueIterator::~QScriptValueIterator()  - Undefined Reference
    _ZN20QScriptValueIteratorD1Ev@QtScript{00040703}[2001b2e1].dll  - Undefined Reference
    QDeclarativePropertyMap::clear(const QString&)  - Undefined Reference
    _ZN23QDeclarativePropertyMap5clearERK7QString@QtDeclarative{00040703}[2001e623].dll  - Undefined Reference
    QDeclarativePropertyMap::insert(const QString&, const QVariant&)  - Undefined Reference
    _ZN23QDeclarativePropertyMap6insertERK7QStringRK8QVariant@QtDeclarative{00040703}[2001e623].dll  - Undefined Reference
    QDeclarativePropertyMap::QDeclarativePropertyMap(QObject*)  - Undefined Reference
    _ZN23QDeclarativePropertyMapC1EP7QObject@QtDeclarative{00040703}[2001e623].dll  - Undefined Reference
    QDeclarativeParserStatus::QDeclarativeParserStatus__sub_object()  - Undefined Reference
    _ZN24QDeclarativeParserStatusC2Ev@QtDeclarative{00040703}[2001e623].dll  - Undefined Reference
    QDeclarativeParserStatus::~QDeclarativeParserStatus__sub_object()  - Undefined Reference
    _ZN24QDeclarativeParserStatusD2Ev@QtDeclarative{00040703}[2001e623].dll  - Undefined Reference
    QDeclarativeExtensionPlugin::qt_metacall(QMetaObject::Call, int, void**)  - Undefined Reference
    _ZN27QDeclarativeExtensionPlugin11qt_metacallEN11QMetaObject4CallEiPPv@QtDeclarative{00040703}[2001e623].dll  - Undefined Reference
    QDeclarativeExtensionPlugin::qt_metacast(const char*)  - Undefined Reference
    _ZN27QDeclarativeExtensionPlugin11qt_metacastEPKc@QtDeclarative{00040703}[2001e623].dll  - Undefined Reference
    QDeclarativeExtensionPlugin::initializeEngine(QDeclarativeEngine*, const char*)  - Undefined Reference
    _ZN27QDeclarativeExtensionPlugin16initializeEngineEP18QDeclarativeEnginePKc@QtDeclarative{00040703}[2001e623].dll  - Undefined Reference
    QDeclarativeExtensionPlugin::staticMetaObject  - Undefined Reference
    _ZN27QDeclarativeExtensionPlugin16staticMetaObjectE@QtDeclarative{00040703}[2001e623].dll  - Undefined Reference
    QDeclarativeExtensionPlugin::QDeclarativeExtensionPlugin__sub_object(QObject*)  - Undefined Reference
    _ZN27QDeclarativeExtensionPluginC2EP7QObject@QtDeclarative{00040703}[2001e623].dll  - Undefined Reference
    QDeclarativeExtensionPlugin::~QDeclarativeExtensionPlugin__sub_object()  - Undefined Reference
    _ZN27QDeclarativeExtensionPluginD2Ev@QtDeclarative{00040703}[2001e623].dll  - Undefined Reference
    QUrl::~QUrl()                             - Undefined Reference
    _ZN4QUrlD1Ev@QtCore{00040703}[2001b2dc].dll  - Undefined Reference
    QUrl::operator =(const QUrl&)             - Undefined Reference
    _ZN4QUrlaSERKS_@QtCore{00040703}[2001b2dc].dll  - Undefined Reference
    User::LockedDec(int&)                     - Undefined Reference
    _ZN4User9LockedDecERi@euser{000a0000}[100039e5].dll  - Undefined Reference
    User::LockedInc(int&)                     - Undefined Reference
    _ZN4User9LockedIncERi@euser{000a0000}[100039e5].dll  - Undefined Reference
    QEvent::QEvent(QEvent::Type)              - Undefined Reference
    _ZN6QEventC1ENS_4TypeE@QtCore{00040703}[2001b2dc].dll  - Undefined Reference
    QObject::childEvent(QChildEvent*)         - Undefined Reference
    _ZN7QObject10childEventEP11QChildEvent@QtCore{00040703}[2001b2dc].dll  - Undefined Reference
    QObject::disconnect(const QObject*, const char*, const QObject*, const char*)  - Undefined Reference
    _ZN7QObject10disconnectEPKS_PKcS1_S3_@QtCore{00040703}[2001b2dc].dll  - Undefined Reference
    QObject::timerEvent(QTimerEvent*)         - Undefined Reference
    _ZN7QObject10timerEventEP11QTimerEvent@QtCore{00040703}[2001b2dc].dll  - Undefined Reference
    QObject::customEvent(QEvent*)             - Undefined Reference
    _ZN7QObject11customEventEP6QEvent@QtCore{00040703}[2001b2dc].dll  - Undefined Reference
    QObject::eventFilter(QObject*, QEvent*)   - Undefined Reference
    _ZN7QObject11eventFilterEPS_P6QEvent@QtCore{00040703}[2001b2dc].dll  - Undefined Reference
    QObject::qt_metacall(QMetaObject::Call, int, void**)  - Undefined Reference
    _ZN7QObject11qt_metacallEN11QMetaObject4CallEiPPv@QtCore{00040703}[2001b2dc].dll  - Undefined Reference
    QObject::qt_metacast(const char*)         - Undefined Reference
    _ZN7QObject11qt_metacastEPKc@QtCore{00040703}[2001b2dc].dll  - Undefined Reference
    QObject::connectNotify(const char*)       - Undefined Reference
    _ZN7QObject13connectNotifyEPKc@QtCore{00040703}[2001b2dc].dll  - Undefined Reference
    QObject::disconnectNotify(const char*)    - Undefined Reference
    _ZN7QObject16disconnectNotifyEPKc@QtCore{00040703}[2001b2dc].dll  - Undefined Reference
    QObject::staticMetaObject                 - Undefined Reference
    _ZN7QObject16staticMetaObjectE@QtCore{00040703}[2001b2dc].dll  - Undefined Reference
    QObject::event(QEvent*)                   - Undefined Reference
    _ZN7QObject5eventEP6QEvent@QtCore{00040703}[2001b2dc].dll  - Undefined Reference
    QObject::connect(const QObject*, const char*, const QObject*, const char*, Qt::ConnectionType)  - Undefined Reference
    _ZN7QObject7connectEPKS_PKcS1_S3_N2Qt14ConnectionTypeE@QtCore{00040703}[2001b2dc].dll  - Undefined Reference
    QObject::QObject(QObject*)                - Undefined Reference
    _ZN7QObjectC1EPS_@QtCore{00040703}[2001b2dc].dll  - Undefined Reference
    QObject::~QObject()                       - Undefined Reference
    _ZN7QObjectD1Ev@QtCore{00040703}[2001b2dc].dll  - Undefined Reference
    QString::fromLatin1(const char*, int)     - Undefined Reference
    _ZN7QString10fromLatin1EPKci@QtCore{00040703}[2001b2dc].dll  - Undefined Reference
    QString::shared_null                      - Undefined Reference
    _ZN7QString11shared_nullE@QtCore{00040703}[2001b2dc].dll  - Undefined Reference
    QString::fromLatin1_helper(const char*, int)  - Undefined Reference
    _ZN7QString17fromLatin1_helperEPKci@QtCore{00040703}[2001b2dc].dll  - Undefined Reference
    QString::free(QString::Data*)             - Undefined Reference
    _ZN7QString4freeEPNS_4DataE@QtCore{00040703}[2001b2dc].dll  - Undefined Reference
    QString::fromAscii(const char*, int)      - Undefined Reference
    _ZN7QString9fromAsciiEPKci@QtCore{00040703}[2001b2dc].dll  - Undefined Reference
    QString::operator =(const QString&)       - Undefined Reference
    _ZN7QStringaSERKS_@QtCore{00040703}[2001b2dc].dll  - Undefined Reference
    QVariant::QVariant(QVariant::Type)        - Undefined Reference
    _ZN8QVariantC1ENS_4TypeE@QtCore{00040703}[2001b2dc].dll  - Undefined Reference
    QVariant::QVariant(const QString&)        - Undefined Reference
    _ZN8QVariantC1ERK7QString@QtCore{00040703}[2001b2dc].dll  - Undefined Reference
    QVariant::QVariant(const QVariant&)       - Undefined Reference
    _ZN8QVariantC1ERKS_@QtCore{00040703}[2001b2dc].dll  - Undefined Reference
    QVariant::QVariant(int, const void*, unsigned)  - Undefined Reference
    _ZN8QVariantC1EiPKvj@QtCore{00040703}[2001b2dc].dll  - Undefined Reference
    QVariant::~QVariant()                     - Undefined Reference
    _ZN8QVariantD1Ev@QtCore{00040703}[2001b2dc].dll  - Undefined Reference
    QVariant::operator =(const QVariant&)     - Undefined Reference
    _ZN8QVariantaSERKS_@QtCore{00040703}[2001b2dc].dll  - Undefined Reference
    QHashData::free_helper(void(*)(QHashData::Node*))  - Undefined Reference
    _ZN9QHashData11free_helperEPFvPNS_4NodeEE@QtCore{00040703}[2001b2dc].dll  - Undefined Reference
    QHashData::shared_null                    - Undefined Reference
    _ZN9QHashData11shared_nullE@QtCore{00040703}[2001b2dc].dll  - Undefined Reference
    QHashData::allocateNode(int)              - Undefined Reference
    _ZN9QHashData12allocateNodeEi@QtCore{00040703}[2001b2dc].dll  - Undefined Reference
    QHashData::detach_helper2(void(*)(QHashData::Node*, void*), void(*)(QHashData::Node*), int, int)  - Undefined Reference
    _ZN9QHashData14detach_helper2EPFvPNS_4NodeEPvEPFvS1_Eii@QtCore{00040703}[2001b2dc].dll  - Undefined Reference
    QHashData::rehash(int)                    - Undefined Reference
    _ZN9QHashData6rehashEi@QtCore{00040703}[2001b2dc].dll  - Undefined Reference
    QHashData::nextNode(QHashData::Node*)     - Undefined Reference
    _ZN9QHashData8nextNodeEPNS_4NodeE@QtCore{00040703}[2001b2dc].dll  - Undefined Reference
    QListData::detach_grow(int*, int)         - Undefined Reference
    _ZN9QListData11detach_growEPii@QtCore{00040703}[2001b2dc].dll  - Undefined Reference
    QListData::shared_null                    - Undefined Reference
    _ZN9QListData11shared_nullE@QtCore{00040703}[2001b2dc].dll  - Undefined Reference
    QListData::append()                       - Undefined Reference
    _ZN9QListData6appendEv@QtCore{00040703}[2001b2dc].dll  - Undefined Reference
    QListData::detach(int)                    - Undefined Reference
    _ZN9QListData6detachEi@QtCore{00040703}[2001b2dc].dll  - Undefined Reference
    QMetaType::registerType(const char*, void(*)(void*), void*(*)(const void*))  - Undefined Reference
    _ZN9QMetaType12registerTypeEPKcPFvPvEPFS2_PKvE@QtCore{00040703}[2001b2dc].dll  - Undefined Reference
    QMetaType::registerTypedef(const char*, int)  - Undefined Reference
    _ZN9QMetaType15registerTypedefEPKci@QtCore{00040703}[2001b2dc].dll  - Undefined Reference
    QtMobility::QGalleryFilter::toUnionFilter() const  - Undefined Reference
    _ZNK10QtMobility14QGalleryFilter13toUnionFilterEv@QtGallery{00010103}[2002bfcb].dll  - Undefined Reference
    QtMobility::QGalleryFilter::toMetaDataFilter() const  - Undefined Reference
    _ZNK10QtMobility14QGalleryFilter16toMetaDataFilterEv@QtGallery{00010103}[2002bfcb].dll  - Undefined Reference
    QtMobility::QGalleryFilter::toIntersectionFilter() const  - Undefined Reference
    _ZNK10QtMobility14QGalleryFilter20toIntersectionFilterEv@QtGallery{00010103}[2002bfcb].dll  - Undefined Reference
    QtMobility::QGalleryFilter::type() const  - Undefined Reference
    _ZNK10QtMobility14QGalleryFilter4typeEv@QtGallery{00010103}[2002bfcb].dll  - Undefined Reference
    QtMobility::QGalleryItemRequest::autoUpdate() const  - Undefined Reference
    _ZNK10QtMobility19QGalleryItemRequest10autoUpdateEv@QtGallery{00010103}[2002bfcb].dll  - Undefined Reference
    QtMobility::QGalleryItemRequest::propertyKey(const QString&) const  - Undefined Reference
    _ZNK10QtMobility19QGalleryItemRequest11propertyKeyERK7QString@QtGallery{00010103}[2002bfcb].dll  - Undefined Reference
    QtMobility::QGalleryItemRequest::propertyType(int) const  - Undefined Reference
    _ZNK10QtMobility19QGalleryItemRequest12propertyTypeEi@QtGallery{00010103}[2002bfcb].dll  - Undefined Reference
    QtMobility::QGalleryItemRequest::propertyNames() const  - Undefined Reference
    _ZNK10QtMobility19QGalleryItemRequest13propertyNamesEv@QtGallery{00010103}[2002bfcb].dll  - Undefined Reference
    QtMobility::QGalleryItemRequest::itemId() const  - Undefined Reference
    _ZNK10QtMobility19QGalleryItemRequest6itemIdEv@QtGallery{00010103}[2002bfcb].dll  - Undefined Reference
    QtMobility::QGalleryItemRequest::isValid() const  - Undefined Reference
    _ZNK10QtMobility19QGalleryItemRequest7isValidEv@QtGallery{00010103}[2002bfcb].dll  - Undefined Reference
    QtMobility::QGalleryItemRequest::itemUrl() const  - Undefined Reference
    _ZNK10QtMobility19QGalleryItemRequest7itemUrlEv@QtGallery{00010103}[2002bfcb].dll  - Undefined Reference
    QtMobility::QGalleryItemRequest::itemType() const  - Undefined Reference
    _ZNK10QtMobility19QGalleryItemRequest8itemTypeEv@QtGallery{00010103}[2002bfcb].dll  - Undefined Reference
    QtMobility::QGalleryItemRequest::metaData(int) const  - Undefined Reference
    _ZNK10QtMobility19QGalleryItemRequest8metaDataEi@QtGallery{00010103}[2002bfcb].dll  - Undefined Reference
    QtMobility::QGalleryTypeRequest::autoUpdate() const  - Undefined Reference
    _ZNK10QtMobility19QGalleryTypeRequest10autoUpdateEv@QtGallery{00010103}[2002bfcb].dll  - Undefined Reference
    QtMobility::QGalleryTypeRequest::propertyKey(const QString&) const  - Undefined Reference
    _ZNK10QtMobility19QGalleryTypeRequest11propertyKeyERK7QString@QtGallery{00010103}[2002bfcb].dll  - Undefined Reference
    QtMobility::QGalleryTypeRequest::propertyType(int) const  - Undefined Reference
    _ZNK10QtMobility19QGalleryTypeRequest12propertyTypeEi@QtGallery{00010103}[2002bfcb].dll  - Undefined Reference
    QtMobility::QGalleryTypeRequest::propertyNames() const  - Undefined Reference
    _ZNK10QtMobility19QGalleryTypeRequest13propertyNamesEv@QtGallery{00010103}[2002bfcb].dll  - Undefined Reference
    QtMobility::QGalleryTypeRequest::isValid() const  - Undefined Reference
    _ZNK10QtMobility19QGalleryTypeRequest7isValidEv@QtGallery{00010103}[2002bfcb].dll  - Undefined Reference
    QtMobility::QGalleryTypeRequest::itemType() const  - Undefined Reference
    _ZNK10QtMobility19QGalleryTypeRequest8itemTypeEv@QtGallery{00010103}[2002bfcb].dll  - Undefined Reference
    QtMobility::QGalleryTypeRequest::metaData(int) const  - Undefined Reference
    _ZNK10QtMobility19QGalleryTypeRequest8metaDataEi@QtGallery{00010103}[2002bfcb].dll  - Undefined Reference
    QtMobility::QGalleryQueryRequest::autoUpdate() const  - Undefined Reference
    _ZNK10QtMobility20QGalleryQueryRequest10autoUpdateEv@QtGallery{00010103}[2002bfcb].dll  - Undefined Reference
    QtMobility::QGalleryQueryRequest::propertyNames() const  - Undefined Reference
    _ZNK10QtMobility20QGalleryQueryRequest13propertyNamesEv@QtGallery{00010103}[2002bfcb].dll  - Undefined Reference
    QtMobility::QGalleryQueryRequest::sortPropertyNames() const  - Undefined Reference
    _ZNK10QtMobility20QGalleryQueryRequest17sortPropertyNamesEv@QtGallery{00010103}[2002bfcb].dll  - Undefined Reference
    QtMobility::QGalleryQueryRequest::limit() const  - Undefined Reference
    _ZNK10QtMobility20QGalleryQueryRequest5limitEv@QtGallery{00010103}[2002bfcb].dll  - Undefined Reference
    QtMobility::QGalleryQueryRequest::scope() const  - Undefined Reference
    _ZNK10QtMobility20QGalleryQueryRequest5scopeEv@QtGallery{00010103}[2002bfcb].dll  - Undefined Reference
    QtMobility::QGalleryQueryRequest::offset() const  - Undefined Reference
    _ZNK10QtMobility20QGalleryQueryRequest6offsetEv@QtGallery{00010103}[2002bfcb].dll  - Undefined Reference
    QtMobility::QGalleryQueryRequest::rootItem() const  - Undefined Reference
    _ZNK10QtMobility20QGalleryQueryRequest8rootItemEv@QtGallery{00010103}[2002bfcb].dll  - Undefined Reference
    QtMobility::QGalleryQueryRequest::rootType() const  - Undefined Reference
    _ZNK10QtMobility20QGalleryQueryRequest8rootTypeEv@QtGallery{00010103}[2002bfcb].dll  - Undefined Reference
    QtMobility::QGalleryMetaDataFilter::propertyName() const  - Undefined Reference
    _ZNK10QtMobility22QGalleryMetaDataFilter12propertyNameEv@QtGallery{00010103}[2002bfcb].dll  - Undefined Reference
    QtMobility::QGalleryMetaDataFilter::value() const  - Undefined Reference
    _ZNK10QtMobility22QGalleryMetaDataFilter5valueEv@QtGallery{00010103}[2002bfcb].dll  - Undefined Reference
    QtMobility::QGalleryMetaDataFilter::isNegated() const  - Undefined Reference
    _ZNK10QtMobility22QGalleryMetaDataFilter9isNegatedEv@QtGallery{00010103}[2002bfcb].dll  - Undefined Reference
    QtMobility::QGalleryAbstractRequest::errorString() const  - Undefined Reference
    _ZNK10QtMobility23QGalleryAbstractRequest11errorStringEv@QtGallery{00010103}[2002bfcb].dll  - Undefined Reference
    QtMobility::QGalleryAbstractRequest::currentProgress() const  - Undefined Reference
    _ZNK10QtMobility23QGalleryAbstractRequest15currentProgressEv@QtGallery{00010103}[2002bfcb].dll  - Undefined Reference
    QtMobility::QGalleryAbstractRequest::maximumProgress() const  - Undefined Reference
    _ZNK10QtMobility23QGalleryAbstractRequest15maximumProgressEv@QtGallery{00010103}[2002bfcb].dll  - Undefined Reference
    QtMobility::QGalleryAbstractRequest::error() const  - Undefined Reference
    _ZNK10QtMobility23QGalleryAbstractRequest5errorEv@QtGallery{00010103}[2002bfcb].dll  - Undefined Reference
    QtMobility::QGalleryAbstractRequest::state() const  - Undefined Reference
    _ZNK10QtMobility23QGalleryAbstractRequest5stateEv@QtGallery{00010103}[2002bfcb].dll  - Undefined Reference
    QMetaObject::enumerator(int) const        - Undefined Reference
    _ZNK11QMetaObject10enumeratorEi@QtCore{00040703}[2001b2dc].dll  - Undefined Reference
    QMetaObject::tr(const char*, const char*) const  - Undefined Reference
    _ZNK11QMetaObject2trEPKcS1_@QtCore{00040703}[2001b2dc].dll  - Undefined Reference
    QScriptValue::engine() const              - Undefined Reference
    _ZNK12QScriptValue6engineEv@QtScript{00040703}[2001b2e1].dll  - Undefined Reference
    QScriptValue::isValid() const             - Undefined Reference
    _ZNK12QScriptValue7isValidEv@QtScript{00040703}[2001b2e1].dll  - Undefined Reference
    QScriptValue::toInt32() const             - Undefined Reference
    _ZNK12QScriptValue7toInt32Ev@QtScript{00040703}[2001b2e1].dll  - Undefined Reference
    QScriptValue::toVariant() const           - Undefined Reference
    _ZNK12QScriptValue9toVariantEv@QtScript{00040703}[2001b2e1].dll  - Undefined Reference
    QAbstractItemModel::headerData(int, Qt::Orientation, int) const  - Undefined Reference
    _ZNK18QAbstractItemModel10headerDataEiN2Qt11OrientationEi@QtCore{00040703}[2001b2dc].dll  - Undefined Reference
    QAbstractItemModel::canFetchMore(const QModelIndex&) const  - Undefined Reference
    _ZNK18QAbstractItemModel12canFetchMoreERK11QModelIndex@QtCore{00040703}[2001b2dc].dll  - Undefined Reference
    QAbstractItemModel::supportedDropActions() const  - Undefined Reference
    _ZNK18QAbstractItemModel20supportedDropActionsEv@QtCore{00040703}[2001b2dc].dll  - Undefined Reference
    QAbstractItemModel::span(const QModelIndex&) const  - Undefined Reference
    _ZNK18QAbstractItemModel4spanERK11QModelIndex@QtCore{00040703}[2001b2dc].dll  - Undefined Reference
    QAbstractItemModel::buddy(const QModelIndex&) const  - Undefined Reference
    _ZNK18QAbstractItemModel5buddyERK11QModelIndex@QtCore{00040703}[2001b2dc].dll  - Undefined Reference
    QAbstractItemModel::flags(const QModelIndex&) const  - Undefined Reference
    _ZNK18QAbstractItemModel5flagsERK11QModelIndex@QtCore{00040703}[2001b2dc].dll  - Undefined Reference
    QAbstractItemModel::match(const QModelIndex&, int, const QVariant&, int, QFlags<Qt::MatchFlag>) const  - Undefined Reference
    _ZNK18QAbstractItemModel5matchERK11QModelIndexiRK8QVarianti6QFlagsIN2Qt9MatchFlagEE@QtCore{00040703}[2001b2dc].dll  - Undefined Reference
    QAbstractItemModel::itemData(const QModelIndex&) const  - Undefined Reference
    _ZNK18QAbstractItemModel8itemDataERK11QModelIndex@QtCore{00040703}[2001b2dc].dll  - Undefined Reference
    QAbstractItemModel::mimeData(const QList<QModelIndex>&) const  - Undefined Reference
    _ZNK18QAbstractItemModel8mimeDataERK5QListI11QModelIndexE@QtCore{00040703}[2001b2dc].dll  - Undefined Reference
    QAbstractItemModel::mimeTypes() const     - Undefined Reference
    _ZNK18QAbstractItemModel9mimeTypesEv@QtCore{00040703}[2001b2dc].dll  - Undefined Reference
    QAbstractListModel::columnCount(const QModelIndex&) const  - Undefined Reference
    _ZNK18QAbstractListModel11columnCountERK11QModelIndex@QtCore{00040703}[2001b2dc].dll  - Undefined Reference
    QAbstractListModel::hasChildren(const QModelIndex&) const  - Undefined Reference
    _ZNK18QAbstractListModel11hasChildrenERK11QModelIndex@QtCore{00040703}[2001b2dc].dll  - Undefined Reference
    QAbstractListModel::parent(const QModelIndex&) const  - Undefined Reference
    _ZNK18QAbstractListModel6parentERK11QModelIndex@QtCore{00040703}[2001b2dc].dll  - Undefined Reference
    QScriptValueIterator::name() const        - Undefined Reference
    _ZNK20QScriptValueIterator4nameEv@QtScript{00040703}[2001b2e1].dll  - Undefined Reference
    QScriptValueIterator::value() const       - Undefined Reference
    _ZNK20QScriptValueIterator5valueEv@QtScript{00040703}[2001b2e1].dll  - Undefined Reference
    QScriptValueIterator::hasNext() const     - Undefined Reference
    _ZNK20QScriptValueIterator7hasNextEv@QtScript{00040703}[2001b2e1].dll  - Undefined Reference
    QString::toLocal8Bit() const              - Undefined Reference
    _ZNK7QString11toLocal8BitEv@QtCore{00040703}[2001b2dc].dll  - Undefined Reference
    QString::arg(const QString&, int, const QChar&) const  - Undefined Reference
    _ZNK7QString3argERKS_iRK5QChar@QtCore{00040703}[2001b2dc].dll  - Undefined Reference
    QString::toLatin1() const                 - Undefined Reference
    _ZNK7QString8toLatin1Ev@QtCore{00040703}[2001b2dc].dll  - Undefined Reference
    QString::operator ==(const QLatin1String&) const  - Undefined Reference
    _ZNK7QStringeqERK13QLatin1String@QtCore{00040703}[2001b2dc].dll  - Undefined Reference
    QString::operator ==(const QString&) const  - Undefined Reference
    _ZNK7QStringeqERKS_@QtCore{00040703}[2001b2dc].dll  - Undefined Reference
    QVariant::cmp(const QVariant&) const      - Undefined Reference
    _ZNK8QVariant3cmpERKS_@QtCore{00040703}[2001b2dc].dll  - Undefined Reference
    QVariant::type() const                    - Undefined Reference
    _ZNK8QVariant4typeEv@QtCore{00040703}[2001b2dc].dll  - Undefined Reference
    QVariant::isNull() const                  - Undefined Reference
    _ZNK8QVariant6isNullEv@QtCore{00040703}[2001b2dc].dll  - Undefined Reference
    QVariant::toString() const                - Undefined Reference
    _ZNK8QVariant8toStringEv@QtCore{00040703}[2001b2dc].dll  - Undefined Reference
    QVariant::userType() const                - Undefined Reference
    _ZNK8QVariant8userTypeEv@QtCore{00040703}[2001b2dc].dll  - Undefined Reference
    QVariant::constData() const               - Undefined Reference
    _ZNK8QVariant9constDataEv@QtCore{00040703}[2001b2dc].dll  - Undefined Reference
    QMetaEnum::keyToValue(const char*) const  - Undefined Reference
    _ZNK9QMetaEnum10keyToValueEPKc@QtCore{00040703}[2001b2dc].dll  - Undefined Reference
    QMetaEnum::valueToKey(int) const          - Undefined Reference
    _ZNK9QMetaEnum10valueToKeyEi@QtCore{00040703}[2001b2dc].dll  - Undefined Reference
    typeinfo for QAbstractListModel           - Undefined Reference
    _ZTI18QAbstractListModel@QtCore{00040703}[2001b2dc].dll  - Undefined Reference
    typeinfo for QDeclarativeParserStatus     - Undefined Reference
    _ZTI24QDeclarativeParserStatus@QtDeclarative{00040703}[2001e623].dll  - Undefined Reference
    typeinfo for QDeclarativeExtensionPlugin  - Undefined Reference
    _ZTI27QDeclarativeExtensionPlugin@QtDeclarative{00040703}[2001e623].dll  - Undefined Reference
    typeinfo for QObject                      - Undefined Reference
    _ZTI7QObject@QtCore{00040703}[2001b2dc].dll  - Undefined Reference
    vtable for __cxxabiv1::__si_class_type_info  - Undefined Reference
    _ZTVN10__cxxabiv120__si_class_type_infoE@drtaeabi{000a0000}.dll  - Undefined Reference
    vtable for __cxxabiv1::__vmi_class_type_info  - Undefined Reference
    _ZTVN10__cxxabiv121__vmi_class_type_infoE@drtaeabi{000a0000}.dll  - Undefined Reference
    thunk{-8} to QDeclarativeExtensionPlugin::initializeEngine(QDeclarativeEngine*, const char*)  - Undefined Reference
    _ZThn8_N27QDeclarativeExtensionPlugin16initializeEngineEP18QDeclarativeEnginePKc@QtDeclarative{00040703}[2001e623].dll  - Undefined Reference
    operator delete (void*)                   - Undefined Reference
    _ZdlPv@stdnew{000a0000}[20022178].dll     - Undefined Reference
    operator new(unsigned)                    - Undefined Reference
    _Znwj@stdnew{000a0000}[20022178].dll      - Undefined Reference
    __aeabi_fdiv                              - Undefined Reference
    __aeabi_fdiv@dfpaeabi{000a0000}.dll       - Undefined Reference
    __aeabi_i2f                               - Undefined Reference
    __aeabi_i2f@dfpaeabi{000a0000}.dll        - Undefined Reference
    __aeabi_memcpy4                           - Undefined Reference
    __aeabi_memcpy4@drtaeabi{000a0000}.dll    - Undefined Reference
    __aeabi_uidivmod                          - Undefined Reference
    __aeabi_uidivmod@drtaeabi{000a0000}.dll   - Undefined Reference
    __aeabi_unwind_cpp_pr0                    - Undefined Reference
    __aeabi_unwind_cpp_pr0@drtaeabi{000a0000}.dll  - Undefined Reference
    __cxa_begin_catch                         - Undefined Reference
    __cxa_begin_catch@drtaeabi{000a0000}.dll  - Undefined Reference
    __cxa_end_catch                           - Undefined Reference
    __cxa_end_catch@drtaeabi{000a0000}.dll    - Undefined Reference
    __cxa_end_cleanup                         - Undefined Reference
    __cxa_end_cleanup@drtaeabi{000a0000}.dll  - Undefined Reference
    __cxa_guard_abort                         - Undefined Reference
    __cxa_guard_abort@drtaeabi{000a0000}.dll  - Undefined Reference
    __cxa_guard_acquire                       - Undefined Reference
    __cxa_guard_acquire@drtaeabi{000a0000}.dll  - Undefined Reference
    __cxa_guard_release                       - Undefined Reference
    __cxa_guard_release@drtaeabi{000a0000}.dll  - Undefined Reference
    __cxa_pure_virtual                        - Undefined Reference
    __cxa_pure_virtual@drtaeabi{000a0000}.dll  - Undefined Reference
    __cxa_rethrow                             - Undefined Reference
    __cxa_rethrow@drtaeabi{000a0000}.dll      - Undefined Reference
    strcmp                                    - Undefined Reference
    strcmp@libc{00010001}[10207369].dll       - Undefined Reference
    Image$$ER_RO$$Base                       0x00008000   Number         0  anon$$obj.o(linker$$defined$$symbols)
    _E32Dll                                  0x00008000   ARM Code      40  uc_dll_.o(.emb_text)
    Symbian$$CPP$$Exception$$Descriptor      0x00008014   Data           0  uc_dll_.o(.emb_text)
    __cpp_initialize__aeabi_                 0x00008028   ARM Code      52  ucppinit.o(.emb_text)
    std::nothrow                             0x0000805c   ARM Code       0  ucppinit.o(.emb_text)
    __PLT                                    0x0000805c   ARM Code       0  anon$$obj.o(.plt)
    QtMobility::QDeclarativeDocumentGallery::getStaticMetaObject() 0x000086e5   Thumb Code     4  qdeclarativedocumentgallery.o(.text)
    QtMobility::QDeclarativeDocumentGallery::metaObject() const 0x000086e9   Thumb Code    28  qdeclarativedocumentgallery.o(.text)
    QtMobility::QDeclarativeDocumentGallery::qt_metacast(const char*) 0x00008705   Thumb Code    40  qdeclarativedocumentgallery.o(.text)
    QtMobility::QDeclarativeDocumentGallery::qt_metacall(QMetaObject::Call, int, void**) 0x0000872d   Thumb Code    36  qdeclarativedocumentgallery.o(.text)
    QtMobility::QDeclarativeDocumentGallery::toString(QtMobility::QDeclarativeDocumentGallery::ItemType) 0x00008751   Thumb Code   106  qdeclarativedocumentgallery.o(.text)
    QtMobility::QDeclarativeDocumentGallery::itemTypeFromString(const QString&) 0x000087bb   Thumb Code    74  qdeclarativedocumentgallery.o(.text)
    QtMobility::QDeclarativeDocumentGallery::gallery(QObject*) 0x000088a9   Thumb Code    14  qdeclarativedocumentgallery.o(.text)
    qt_plugin_query_verification_data        0x000088d1   Thumb Code     4  qdeclarativegallery.o(.text)
    qt_plugin_instance                       0x000088d5   Thumb Code   134  qdeclarativegallery.o(.text)
    QtMobility::QGalleryDeclarativeModule::getStaticMetaObject() 0x0000895b   Thumb Code     4  qdeclarativegallery.o(.text)
    QtMobility::QGalleryDeclarativeModule::metaObject() const 0x0000895f   Thumb Code    28  qdeclarativegallery.o(.text)
    QtMobility::QGalleryDeclarativeModule::qt_metacast(const char*) 0x0000897b   Thumb Code    42  qdeclarativegallery.o(.text)
    QtMobility::QGalleryDeclarativeModule::qt_metacall(QMetaObject::Call, int, void**) 0x000089a5   Thumb Code    36  qdeclarativegallery.o(.text)
    QtMobility::QDeclarativeGalleryFilterBase::getStaticMetaObject() 0x000089e1   Thumb Code     4  qdeclarativegalleryfilter.o(.text)
    QtMobility::QDeclarativeGalleryFilterBase::metaObject() const 0x000089e5   Thumb Code    28  qdeclarativegalleryfilter.o(.text)
    QtMobility::QDeclarativeGalleryFilterBase::qt_metacast(const char*) 0x00008a01   Thumb Code    40  qdeclarativegalleryfilter.o(.text)
    QtMobility::QDeclarativeGalleryFilterBase::filterChanged() 0x00008a29   Thumb Code    18  qdeclarativegalleryfilter.o(.text)
    QtMobility::QDeclarativeGalleryFilterBase::qt_metacall(QMetaObject::Call, int, void**) 0x00008a3b   Thumb Code    58  qdeclarativegalleryfilter.o(.text)
    QtMobility::QDeclarativeGalleryValueFilter::getStaticMetaObject() 0x00008a75   Thumb Code     4  qdeclarativegalleryfilter.o(.text)
    QtMobility::QDeclarativeGalleryValueFilter::metaObject() const 0x00008a79   Thumb Code    28  qdeclarativegalleryfilter.o(.text)
    QtMobility::QDeclarativeGalleryValueFilter::qt_metacast(const char*) 0x00008a95   Thumb Code    42  qdeclarativegalleryfilter.o(.text)
    QtMobility::QDeclarativeGalleryValueFilter::negatedChanged() 0x00008abf   Thumb Code    18  qdeclarativegalleryfilter.o(.text)
    QtMobility::QDeclarativeGalleryValueFilter::setNegated(bool) 0x00008ad1   Thumb Code    42  qdeclarativegalleryfilter.o(.text)
    QtMobility::QDeclarativeGalleryValueFilter::valueChanged() 0x00008afb   Thumb Code    18  qdeclarativegalleryfilter.o(.text)
    QtMobility::QDeclarativeGalleryValueFilter::setValue(const QVariant&) 0x00008b0d   Thumb Code    64  qdeclarativegalleryfilter.o(.text)
    QtMobility::QDeclarativeGalleryValueFilter::propertyNameChanged() 0x00008b4d   Thumb Code    18  qdeclarativegalleryfilter.o(.text)
    QtMobility::QDeclarativeGalleryValueFilter::setPropertyName(const QString&) 0x00008b5f   Thumb Code    60  qdeclarativegalleryfilter.o(.text)
    QtMobility::QDeclarativeGalleryValueFilter::qt_metacall(QMetaObject::Call, int, void**) 0x00008b9b   Thumb Code   356  qdeclarativegalleryfilter.o(.text)
    QtMobility::QDeclarativeGalleryValueFilter::filter() const 0x00008cff   Thumb Code    20  qdeclarativegalleryfilter.o(.text)
    QtMobility::QDeclarativeGalleryStringFilter::getStaticMetaObject() 0x00008d13   Thumb Code     4  qdeclarativegalleryfilter.o(.text)
    QtMobility::QDeclarativeGalleryStringFilter::metaObject() const 0x00008d17   Thumb Code    28  qdeclarativegalleryfilter.o(.text)
    QtMobility::QDeclarativeGalleryStringFilter::qt_metacast(const char*) 0x00008d33   Thumb Code    40  qdeclarativegalleryfilter.o(.text)
    QtMobility::QDeclarativeGalleryStringFilter::negatedChanged() 0x00008d5b   Thumb Code    18  qdeclarativegalleryfilter.o(.text)
    QtMobility::QDeclarativeGalleryStringFilter::setNegated(bool) 0x00008d6d   Thumb Code    64  qdeclarativegalleryfilter.o(.text)
    QtMobility::QDeclarativeGalleryStringFilter::valueChanged() 0x00008dad   Thumb Code    18  qdeclarativegalleryfilter.o(.text)
    QtMobility::QDeclarativeGalleryStringFilter::setValue(const QString&) 0x00008dbf   Thumb Code   114  qdeclarativegalleryfilter.o(.text)
    QtMobility::QDeclarativeGalleryStringFilter::propertyNameChanged() 0x00008e31   Thumb Code    18  qdeclarativegalleryfilter.o(.text)
    QtMobility::QDeclarativeGalleryStringFilter::setPropertyName(const QString&) 0x00008e43   Thumb Code    60  qdeclarativegalleryfilter.o(.text)
    QtMobility::QDeclarativeGalleryStringFilter::qt_metacall(QMetaObject::Call, int, void**) 0x00008e7f   Thumb Code   370  qdeclarativegalleryfilter.o(.text)
    QtMobility::QDeclarativeGalleryStringFilter::filter() const 0x00008ff1   Thumb Code    20  qdeclarativegalleryfilter.o(.text)
    QtMobility::QDeclarativeGalleryEqualsFilter::getStaticMetaObject() 0x00009005   Thumb Code     4  qdeclarativegalleryfilter.o(.text)
    QtMobility::QDeclarativeGalleryEqualsFilter::metaObject() const 0x00009009   Thumb Code    28  qdeclarativegalleryfilter.o(.text)
    QtMobility::QDeclarativeGalleryEqualsFilter::qt_metacast(const char*) 0x00009025   Thumb Code    40  qdeclarativegalleryfilter.o(.text)
    QtMobility::QDeclarativeGalleryEqualsFilter::qt_metacall(QMetaObject::Call, int, void**) 0x0000904d   Thumb Code    36  qdeclarativegalleryfilter.o(.text)
    QtMobility::QDeclarativeGalleryEqualsFilter::filter() const 0x00009071   Thumb Code    98  qdeclarativegalleryfilter.o(.text)
    QtMobility::QDeclarativeGalleryLessThanFilter::getStaticMetaObject() 0x000090d3   Thumb Code     4  qdeclarativegalleryfilter.o(.text)
    QtMobility::QDeclarativeGalleryLessThanFilter::metaObject() const 0x000090d7   Thumb Code    28  qdeclarativegalleryfilter.o(.text)
    QtMobility::QDeclarativeGalleryLessThanFilter::qt_metacast(const char*) 0x000090f3   Thumb Code    42  qdeclarativegalleryfilter.o(.text)
    QtMobility::QDeclarativeGalleryLessThanFilter::qt_metacall(QMetaObject::Call, int, void**) 0x0000911d   Thumb Code    36  qdeclarativegalleryfilter.o(.text)
    QtMobility::QDeclarativeGalleryLessThanEqualsFilter::getStaticMetaObject() 0x00009141   Thumb Code     4  qdeclarativegalleryfilter.o(.text)
    QtMobility::QDeclarativeGalleryLessThanEqualsFilter::metaObject() const 0x00009145   Thumb Code    48  qdeclarativegalleryfilter.o(.text)
    QtMobility::QDeclarativeGalleryLessThanEqualsFilter::qt_metacast(const char*) 0x00009175   Thumb Code    40  qdeclarativegalleryfilter.o(.text)
    QtMobility::QDeclarativeGalleryLessThanEqualsFilter::qt_metacall(QMetaObject::Call, int, void**) 0x0000919d   Thumb Code    36  qdeclarativegalleryfilter.o(.text)
    QtMobility::QDeclarativeGalleryGreaterThanFilter::getStaticMetaObject() 0x000091c1   Thumb Code     4  qdeclarativegalleryfilter.o(.text)
    QtMobility::QDeclarativeGalleryGreaterThanFilter::metaObject() const 0x000091c5   Thumb Code    28  qdeclarativegalleryfilter.o(.text)
    QtMobility::QDeclarativeGalleryGreaterThanFilter::qt_metacast(const char*) 0x000091e1   Thumb Code    42  qdeclarativegalleryfilter.o(.text)
    QtMobility::QDeclarativeGalleryGreaterThanFilter::qt_metacall(QMetaObject::Call, int, void**) 0x0000920b   Thumb Code    36  qdeclarativegalleryfilter.o(.text)
    QtMobility::QDeclarativeGalleryGreaterThanEqualsFilter::getStaticMetaObject() 0x0000922f   Thumb Code     4  qdeclarativegalleryfilter.o(.text)
    QtMobility::QDeclarativeGalleryGreaterThanEqualsFilter::metaObject() const 0x00009233   Thumb Code    28  qdeclarativegalleryfilter.o(.text)
    QtMobility::QDeclarativeGalleryGreaterThanEqualsFilter::qt_metacast(const char*) 0x0000924f   Thumb Code    42  qdeclarativegalleryfilter.o(.text)
    QtMobility::QDeclarativeGalleryGreaterThanEqualsFilter::qt_metacall(QMetaObject::Call, int, void**) 0x00009279   Thumb Code    36  qdeclarativegalleryfilter.o(.text)
    QtMobility::QDeclarativeGalleryContainsFilter::getStaticMetaObject() 0x0000929d   Thumb Code     4  qdeclarativegalleryfilter.o(.text)
    QtMobility::QDeclarativeGalleryContainsFilter::metaObject() const 0x000092a1   Thumb Code    28  qdeclarativegalleryfilter.o(.text)
    QtMobility::QDeclarativeGalleryContainsFilter::qt_metacast(const char*) 0x000092bd   Thumb Code    40  qdeclarativegalleryfilter.o(.text)
    QtMobility::QDeclarativeGalleryContainsFilter::qt_metacall(QMetaObject::Call, int, void**) 0x000092e5   Thumb Code    36  qdeclarativegalleryfilter.o(.text)
    QtMobility::QDeclarativeGalleryStartsWithFilter::getStaticMetaObject() 0x00009309   Thumb Code     4  qdeclarativegalleryfilter.o(.text)
    QtMobility::QDeclarativeGalleryStartsWithFilter::metaObject() const 0x0000930d   Thumb Code    28  qdeclarativegalleryfilter.o(.text)
    QtMobility::QDeclarativeGalleryStartsWithFilter::qt_metacast(const char*) 0x00009329   Thumb Code    42  qdeclarativegalleryfilter.o(.text)
    QtMobility::QDeclarativeGalleryStartsWithFilter::qt_metacall(QMetaObject::Call, int, void**) 0x00009353   Thumb Code    36  qdeclarativegalleryfilter.o(.text)
    QtMobility::QDeclarativeGalleryEndsWithFilter::getStaticMetaObject() 0x00009377   Thumb Code     4  qdeclarativegalleryfilter.o(.text)
    QtMobility::QDeclarativeGalleryEndsWithFilter::metaObject() const 0x0000937b   Thumb Code    28  qdeclarativegalleryfilter.o(.text)
    QtMobility::QDeclarativeGalleryEndsWithFilter::qt_metacast(const char*) 0x00009397   Thumb Code    42  qdeclarativegalleryfilter.o(.text)
    QtMobility::QDeclarativeGalleryEndsWithFilter::qt_metacall(QMetaObject::Call, int, void**) 0x000093c1   Thumb Code    36  qdeclarativegalleryfilter.o(.text)
    QtMobility::QDeclarativeGalleryWildcardFilter::getStaticMetaObject() 0x000093e5   Thumb Code     4  qdeclarativegalleryfilter.o(.text)
    QtMobility::QDeclarativeGalleryWildcardFilter::metaObject() const 0x000093e9   Thumb Code    28  qdeclarativegalleryfilter.o(.text)
    QtMobility::QDeclarativeGalleryWildcardFilter::qt_metacast(const char*) 0x00009405   Thumb Code    40  qdeclarativegalleryfilter.o(.text)
    QtMobility::QDeclarativeGalleryWildcardFilter::qt_metacall(QMetaObject::Call, int, void**) 0x0000942d   Thumb Code    36  qdeclarativegalleryfilter.o(.text)
    QtMobility::QDeclarativeGalleryFilterGroup::getStaticMetaObject() 0x00009451   Thumb Code     4  qdeclarativegalleryfilter.o(.text)
    QtMobility::QDeclarativeGalleryFilterGroup::metaObject() const 0x00009455   Thumb Code    28  qdeclarativegalleryfilter.o(.text)
    QtMobility::QDeclarativeGalleryFilterGroup::qt_metacast(const char*) 0x00009471   Thumb Code    78  qdeclarativegalleryfilter.o(.text)
    QtMobility::QDeclarativeGalleryFilterGroup::clear(QDeclarativeListProperty<QtMobility::QDeclarativeGalleryFilterBase>*) 0x000094bf   Thumb Code   238  qdeclarativegalleryfilter.o(.text)
    QtMobility::QDeclarativeGalleryFilterGroup::at(QDeclarativeListProperty<QtMobility::QDeclarativeGalleryFilterBase>*, int) 0x000095ad   Thumb Code    36  qdeclarativegalleryfilter.o(.text)
    QtMobility::QDeclarativeGalleryFilterGroup::count(QDeclarativeListProperty<QtMobility::QDeclarativeGalleryFilterBase>*) 0x000095d1   Thumb Code    20  qdeclarativegalleryfilter.o(.text)
    QtMobility::QDeclarativeGalleryFilterGroup::append(QDeclarativeListProperty<QtMobility::QDeclarativeGalleryFilterBase>*, QtMobility::QDeclarativeGalleryFilterBase*) 0x000095e5   Thumb Code    48  qdeclarativegalleryfilter.o(.text)
    QtMobility::QDeclarativeGalleryFilterGroup::filters() 0x00009615   Thumb Code    52  qdeclarativegalleryfilter.o(.text)
    QtMobility::QDeclarativeGalleryFilterGroup::qt_metacall(QMetaObject::Call, int, void**) 0x00009649   Thumb Code   118  qdeclarativegalleryfilter.o(.text)
    QtMobility::QDeclarativeGalleryFilterGroup::classBegin() 0x000096bf   Thumb Code     2  qdeclarativegalleryfilter.o(.text)
    thunk{-8} to QtMobility::QDeclarativeGalleryFilterGroup::classBegin() 0x000096c1   Thumb Code    14  qdeclarativegalleryfilter.o(.text)
    QtMobility::QDeclarativeGalleryFilterGroup::componentComplete() 0x000096cf   Thumb Code    98  qdeclarativegalleryfilter.o(.text)
    thunk{-8} to QtMobility::QDeclarativeGalleryFilterGroup::componentComplete() 0x00009731   Thumb Code    14  qdeclarativegalleryfilter.o(.text)
    QtMobility::QDeclarativeGalleryFilterUnion::getStaticMetaObject() 0x0000973f   Thumb Code     4  qdeclarativegalleryfilter.o(.text)
    QtMobility::QDeclarativeGalleryFilterUnion::metaObject() const 0x00009743   Thumb Code    28  qdeclarativegalleryfilter.o(.text)
    QtMobility::QDeclarativeGalleryFilterUnion::qt_metacast(const char*) 0x0000975f   Thumb Code    40  qdeclarativegalleryfilter.o(.text)
    QtMobility::QDeclarativeGalleryFilterUnion::qt_metacall(QMetaObject::Call, int, void**) 0x00009787   Thumb Code    36  qdeclarativegalleryfilter.o(.text)
    QtMobility::QDeclarativeGalleryFilterUnion::filter() const 0x000097ab   Thumb Code   228  qdeclarativegalleryfilter.o(.text)
    QtMobility::QDeclarativeGalleryFilterIntersection::getStaticMetaObject() 0x0000988f   Thumb Code     4  qdeclarativegalleryfilter.o(.text)
    QtMobility::QDeclarativeGalleryFilterIntersection::metaObject() const 0x00009893   Thumb Code    28  qdeclarativegalleryfilter.o(.text)
    QtMobility::QDeclarativeGalleryFilterIntersection::qt_metacast(const char*) 0x000098af   Thumb Code    42  qdeclarativegalleryfilter.o(.text)
    QtMobility::QDeclarativeGalleryFilterIntersection::qt_metacall(QMetaObject::Call, int, void**) 0x000098d9   Thumb Code    36  qdeclarativegalleryfilter.o(.text)
    QtMobility::QDeclarativeGalleryFilterIntersection::filter() const 0x000098fd   Thumb Code   260  qdeclarativegalleryfilter.o(.text)
    QtMobility::QDeclarativeGalleryItem::getStaticMetaObject() 0x00009a01   Thumb Code     4  qdeclarativegalleryitem.o(.text)
    QtMobility::QDeclarativeGalleryItem::metaObject() const 0x00009a05   Thumb Code    28  qdeclarativegalleryitem.o(.text)
    QtMobility::QDeclarativeGalleryItem::qt_metacast(const char*) 0x00009a21   Thumb Code    76  qdeclarativegalleryitem.o(.text)
    QtMobility::QDeclarativeGalleryItem::itemIdChanged() 0x00009a6d   Thumb Code    18  qdeclarativegalleryitem.o(.text)
    QtMobility::QDeclarativeGalleryItem::setItemId(const QVariant&) 0x00009a7f   Thumb Code    92  qdeclarativegalleryitem.o(.text)
    QtMobility::QDeclarativeGalleryItem::autoUpdateChanged() 0x00009adb   Thumb Code    18  qdeclarativegalleryitem.o(.text)
    QtMobility::QDeclarativeGalleryItem::deferredExecute() 0x00009aed   Thumb Code    58  qdeclarativegalleryitem.o(.text)
    QtMobility::QDeclarativeGalleryItem::setAutoUpdate(bool) 0x00009b27   Thumb Code    62  qdeclarativegalleryitem.o(.text)
    QtMobility::QDeclarativeGalleryItem::propertyNamesChanged() 0x00009b65   Thumb Code    18  qdeclarativegalleryitem.o(.text)
    QtMobility::QDeclarativeGalleryItem::setPropertyNames(const QStringList&) 0x00009b77   Thumb Code    30  qdeclarativegalleryitem.o(.text)
    QtMobility::QDeclarativeGalleryItem::progress() const 0x00009b95   Thumb Code    54  qdeclarativegalleryitem.o(.text)
    QtMobility::QDeclarativeGalleryItem::_q_metaDataChanged(const QList<int>&) 0x00009bcb   Thumb Code   258  qdeclarativegalleryitem.o(.text)
    QtMobility::QDeclarativeGalleryItem::availableChanged() 0x00009ccd   Thumb Code    18  qdeclarativegalleryitem.o(.text)
    QtMobility::QDeclarativeGalleryItem::_q_itemChanged() 0x00009cdf   Thumb Code   512  qdeclarativegalleryitem.o(.text)
    QtMobility::QDeclarativeGalleryItem::statusChanged() 0x00009edf   Thumb Code    18  qdeclarativegalleryitem.o(.text)
    QtMobility::QDeclarativeGalleryItem::_q_stateChanged() 0x00009ef1   Thumb Code   244  qdeclarativegalleryitem.o(.text)
    QtMobility::QDeclarativeGalleryItem::clear() 0x00009fe5   Thumb Code    24  qdeclarativegalleryitem.o(.text)
    QtMobility::QDeclarativeGalleryItem::cancel() 0x00009ffd   Thumb Code    24  qdeclarativegalleryitem.o(.text)
    QtMobility::QDeclarativeGalleryItem::reload() 0x0000a015   Thumb Code    24  qdeclarativegalleryitem.o(.text)
    QtMobility::QDeclarativeGalleryItem::galleryChanged() 0x0000a02d   Thumb Code    18  qdeclarativegalleryitem.o(.text)
    QtMobility::QDeclarativeGalleryItem::metaDataChanged() 0x0000a03f   Thumb Code    18  qdeclarativegalleryitem.o(.text)
    QtMobility::QDeclarativeGalleryItem::progressChanged() 0x0000a051   Thumb Code    18  qdeclarativegalleryitem.o(.text)
    QtMobility::QDeclarativeGalleryItem::qt_metacall(QMetaObject::Call, int, void**) 0x0000a063   Thumb Code   744  qdeclarativegalleryitem.o(.text)
    QtMobility::QDeclarativeGalleryItem::~QDeclarativeGalleryItem() 0x0000a34b   Thumb Code     0  qdeclarativegalleryitem.o(.text)
    QtMobility::QDeclarativeGalleryItem::~QDeclarativeGalleryItem__sub_object() 0x0000a34b   Thumb Code    58  qdeclarativegalleryitem.o(.text)
    QtMobility::QDeclarativeGalleryItem::~QDeclarativeGalleryItem__deallocating() 0x0000a385   Thumb Code    22  qdeclarativegalleryitem.o(.text)
    thunk{-8} to QtMobility::QDeclarativeGalleryItem::~QDeclarativeGalleryItem__deallocating() 0x0000a39b   Thumb Code    14  qdeclarativegalleryitem.o(.text)
    thunk{-8} to QtMobility::QDeclarativeGalleryItem::~QDeclarativeGalleryItem() 0x0000a3a9   Thumb Code    14  qdeclarativegalleryitem.o(.text)
    QtMobility::QDeclarativeGalleryItem::componentComplete() 0x0000a3b7   Thumb Code    46  qdeclarativegalleryitem.o(.text)
    thunk{-8} to QtMobility::QDeclarativeGalleryItem::componentComplete() 0x0000a3e5   Thumb Code    14  qdeclarativegalleryitem.o(.text)
    QtMobility::QDeclarativeGalleryItem::QDeclarativeGalleryItem__sub_object(QObject*) 0x0000a3f3   Thumb Code   478  qdeclarativegalleryitem.o(.text)
    QtMobility::QDeclarativeGalleryItem::event(QEvent*) 0x0000a5d1   Thumb Code    46  qdeclarativegalleryitem.o(.text)
    QtMobility::QDeclarativeDocumentGalleryItem::getStaticMetaObject() 0x0000a5ff   Thumb Code     4  qdeclarativegalleryitem.o(.text)
    QtMobility::QDeclarativeDocumentGalleryItem::metaObject() const 0x0000a603   Thumb Code    28  qdeclarativegalleryitem.o(.text)
    QtMobility::QDeclarativeDocumentGalleryItem::qt_metacast(const char*) 0x0000a61f   Thumb Code    40  qdeclarativegalleryitem.o(.text)
    QtMobility::QDeclarativeDocumentGalleryItem::itemType() const 0x0000a647   Thumb Code    34  qdeclarativegalleryitem.o(.text)
    QtMobility::QDeclarativeDocumentGalleryItem::itemTypeChanged() 0x0000a669   Thumb Code    18  qdeclarativegalleryitem.o(.text)
    QtMobility::QDeclarativeDocumentGalleryItem::qt_metacall(QMetaObject::Call, int, void**) 0x0000a67b   Thumb Code   142  qdeclarativegalleryitem.o(.text)
    QtMobility::QDeclarativeDocumentGalleryItem::QDeclarativeDocumentGalleryItem(QObject*) 0x0000a709   Thumb Code    44  qdeclarativegalleryitem.o(.text)
    QtMobility::QDeclarativeDocumentGalleryItem::QDeclarativeDocumentGalleryItem__sub_object(QObject*) 0x0000a709   Thumb Code     0  qdeclarativegalleryitem.o(.text)
    QtMobility::QDeclarativeDocumentGalleryItem::~QDeclarativeDocumentGalleryItem() 0x0000a735   Thumb Code    14  qdeclarativegalleryitem.o(.text)
    QtMobility::QDeclarativeDocumentGalleryItem::~QDeclarativeDocumentGalleryItem__sub_object() 0x0000a735   Thumb Code     0  qdeclarativegalleryitem.o(.text)
    QtMobility::QDeclarativeDocumentGalleryItem::~QDeclarativeDocumentGalleryItem__deallocating() 0x0000a743   Thumb Code    22  qdeclarativegalleryitem.o(.text)
    thunk{-8} to QtMobility::QDeclarativeDocumentGalleryItem::~QDeclarativeDocumentGalleryItem__deallocating() 0x0000a759   Thumb Code    14  qdeclarativegalleryitem.o(.text)
    thunk{-8} to QtMobility::QDeclarativeDocumentGalleryItem::~QDeclarativeDocumentGalleryItem() 0x0000a767   Thumb Code    14  qdeclarativegalleryitem.o(.text)
    QtMobility::QDeclarativeDocumentGalleryItem::classBegin() 0x0000a775   Thumb Code    24  qdeclarativegalleryitem.o(.text)
    thunk{-8} to QtMobility::QDeclarativeDocumentGalleryItem::classBegin() 0x0000a78d   Thumb Code    14  qdeclarativegalleryitem.o(.text)
    QtMobility::QDeclarativeGalleryQueryModel::getStaticMetaObject() 0x0000a7d1   Thumb Code     4  qdeclarativegalleryquerymodel.o(.text)
    QtMobility::QDeclarativeGalleryQueryModel::metaObject() const 0x0000a7d5   Thumb Code    28  qdeclarativegalleryquerymodel.o(.text)
    QtMobility::QDeclarativeGalleryQueryModel::qt_metacast(const char*) 0x0000a7f1   Thumb Code    76  qdeclarativegalleryquerymodel.o(.text)
    QtMobility::QDeclarativeGalleryQueryModel::filterChanged() 0x0000a83d   Thumb Code    18  qdeclarativegalleryquerymodel.o(.text)
    QtMobility::QDeclarativeGalleryQueryModel::deferredExecute() 0x0000a84f   Thumb Code    58  qdeclarativegalleryquerymodel.o(.text)
    QtMobility::QDeclarativeGalleryQueryModel::setFilter(QtMobility::QDeclarativeGalleryFilterBase*) 0x0000a889   Thumb Code   226  qdeclarativegalleryquerymodel.o(.text)
    QtMobility::QDeclarativeGalleryQueryModel::limitChanged() 0x0000a96b   Thumb Code    18  qdeclarativegalleryquerymodel.o(.text)
    QtMobility::QDeclarativeGalleryQueryModel::setLimit(int) 0x0000a97d   Thumb Code    42  qdeclarativegalleryquerymodel.o(.text)
    QtMobility::QDeclarativeGalleryQueryModel::offsetChanged() 0x0000a9a7   Thumb Code    18  qdeclarativegalleryquerymodel.o(.text)
    QtMobility::QDeclarativeGalleryQueryModel::setOffset(int) 0x0000a9b9   Thumb Code    42  qdeclarativegalleryquerymodel.o(.text)
    QtMobility::QDeclarativeGalleryQueryModel::scopeChanged() 0x0000a9e3   Thumb Code    18  qdeclarativegalleryquerymodel.o(.text)
    QtMobility::QDeclarativeGalleryQueryModel::setScope(QtMobility::QDeclarativeGalleryQueryModel::Scope) 0x0000a9f5   Thumb Code    42  qdeclarativegalleryquerymodel.o(.text)
    QtMobility::QDeclarativeGalleryQueryModel::rootItemChanged() 0x0000aa1f   Thumb Code    18  qdeclarativegalleryquerymodel.o(.text)
    QtMobility::QDeclarativeGalleryQueryModel::setRootItem(const QVariant&) 0x0000aa31   Thumb Code    64  qdeclarativegalleryquerymodel.o(.text)
    QtMobility::QDeclarativeGalleryQueryModel::autoUpdateChanged() 0x0000aa71   Thumb Code    18  qdeclarativegalleryquerymodel.o(.text)
    QtMobility::QDeclarativeGalleryQueryModel::setAutoUpdate(bool) 0x0000aa83   Thumb Code    62  qdeclarativegalleryquerymodel.o(.text)
    QtMobility::QDeclarativeGalleryQueryModel::sortPropertyNamesChanged() 0x0000aac1   Thumb Code    18  qdeclarativegalleryquerymodel.o(.text)
    QtMobility::QDeclarativeGalleryQueryModel::setSortPropertyNames(const QStringList&) 0x0000aad3   Thumb Code    64  qdeclarativegalleryquerymodel.o(.text)
    QtMobility::QDeclarativeGalleryQueryModel::propertyNamesChanged() 0x0000ab13   Thumb Code    18  qdeclarativegalleryquerymodel.o(.text)
    QtMobility::QDeclarativeGalleryQueryModel::setPropertyNames(const QStringList&) 0x0000ab25   Thumb Code    30  qdeclarativegalleryquerymodel.o(.text)
    QtMobility::QDeclarativeGalleryQueryModel::progress() const 0x0000ab43   Thumb Code   174  qdeclarativegalleryquerymodel.o(.text)
    QtMobility::QDeclarativeGalleryQueryModel::setProperty(int, const QString&, const QVariant&) 0x0000abf1   Thumb Code    92  qdeclarativegalleryquerymodel.o(.text)
    QtMobility::QDeclarativeGalleryQueryModel::set(int, const QScriptValue&) 0x0000ac4d   Thumb Code   168  qdeclarativegalleryquerymodel.o(.text)
    QtMobility::QDeclarativeGalleryQueryModel::property(int, const QString&) const 0x0000acf5   Thumb Code   262  qdeclarativegalleryquerymodel.o(.text)
    QtMobility::QDeclarativeGalleryQueryModel::get(const QScriptValue&) const 0x0000adfb   Thumb Code   452  qdeclarativegalleryquerymodel.o(.text)
    QtMobility::QDeclarativeGalleryQueryModel::_q_itemsChanged(int, int) 0x0000afbf   Thumb Code    78  qdeclarativegalleryquerymodel.o(.text)
    QtMobility::QDeclarativeGalleryQueryModel::_q_itemsMoved(int, int, int) 0x0000b00d   Thumb Code    72  qdeclarativegalleryquerymodel.o(.text)
    QtMobility::QDeclarativeGalleryQueryModel::countChanged() 0x0000b055   Thumb Code    18  qdeclarativegalleryquerymodel.o(.text)
    QtMobility::QDeclarativeGalleryQueryModel::_q_itemsRemoved(int, int) 0x0000b067   Thumb Code    62  qdeclarativegalleryquerymodel.o(.text)
    QtMobility::QDeclarativeGalleryQueryModel::_q_itemsInserted(int, int) 0x0000b0a5   Thumb Code    96  qdeclarativegalleryquerymodel.o(.text)
    QtMobility::QDeclarativeGalleryQueryModel::_q_setResultSet(QtMobility::QGalleryResultSet*) 0x0000b105   Thumb Code   526  qdeclarativegalleryquerymodel.o(.text)
    QtMobility::QDeclarativeGalleryQueryModel::statusChanged() 0x0000b313   Thumb Code    18  qdeclarativegalleryquerymodel.o(.text)
    QtMobility::QDeclarativeGalleryQueryModel::_q_stateChanged() 0x0000b325   Thumb Code   780  qdeclarativegalleryquerymodel.o(.text)
    QtMobility::QDeclarativeGalleryQueryModel::clear() 0x0000b631   Thumb Code    24  qdeclarativegalleryquerymodel.o(.text)
    QtMobility::QDeclarativeGalleryQueryModel::cancel() 0x0000b649   Thumb Code    24  qdeclarativegalleryquerymodel.o(.text)
    QtMobility::QDeclarativeGalleryQueryModel::reload() 0x0000b661   Thumb Code   112  qdeclarativegalleryquerymodel.o(.text)
    QtMobility::QDeclarativeGalleryQueryModel::progressChanged() 0x0000b6d1   Thumb Code    18  qdeclarativegalleryquerymodel.o(.text)
    QtMobility::QDeclarativeGalleryQueryModel::qt_metacall(QMetaObject::Call, int, void**) 0x0000b6e3   Thumb Code  1062  qdeclarativegalleryquerymodel.o(.text)
    QtMobility::QDeclarativeGalleryQueryModel::~QDeclarativeGalleryQueryModel() 0x0000bb09   Thumb Code     0  qdeclarativegalleryquerymodel.o(.text)
    QtMobility::QDeclarativeGalleryQueryModel::~QDeclarativeGalleryQueryModel__sub_object() 0x0000bb09   Thumb Code    70  qdeclarativegalleryquerymodel.o(.text)
    QtMobility::QDeclarativeGalleryQueryModel::~QDeclarativeGalleryQueryModel__deallocating() 0x0000bb4f   Thumb Code    22  qdeclarativegalleryquerymodel.o(.text)
    thunk{-8} to QtMobility::QDeclarativeGalleryQueryModel::~QDeclarativeGalleryQueryModel__deallocating() 0x0000bb65   Thumb Code    14  qdeclarativegalleryquerymodel.o(.text)
    thunk{-8} to QtMobility::QDeclarativeGalleryQueryModel::~QDeclarativeGalleryQueryModel() 0x0000bb73   Thumb Code    14  qdeclarativegalleryquerymodel.o(.text)
    QtMobility::QDeclarativeGalleryQueryModel::rowCount(const QModelIndex&) const 0x0000bb81   Thumb Code    24  qdeclarativegalleryquerymodel.o(.text)
    QtMobility::QDeclarativeGalleryQueryModel::data(const QModelIndex&, int) const 0x0000bb99   Thumb Code   228  qdeclarativegalleryquerymodel.o(.text)
    QtMobility::QDeclarativeGalleryQueryModel::setData(const QModelIndex&, const QVariant&, int) 0x0000bc7d   Thumb Code    94  qdeclarativegalleryquerymodel.o(.text)
    QtMobility::QDeclarativeGalleryQueryModel::index(int, int, const QModelIndex&) const 0x0000bcdb   Thumb Code   144  qdeclarativegalleryquerymodel.o(.text)
    QtMobility::QDeclarativeGalleryQueryModel::componentComplete() 0x0000bd6b   Thumb Code    92  qdeclarativegalleryquerymodel.o(.text)
    thunk{-8} to QtMobility::QDeclarativeGalleryQueryModel::componentComplete() 0x0000bdc7   Thumb Code    14  qdeclarativegalleryquerymodel.o(.text)
    QtMobility::QDeclarativeGalleryQueryModel::QDeclarativeGalleryQueryModel__sub_object(QObject*) 0x0000bdd5   Thumb Code   146  qdeclarativegalleryquerymodel.o(.text)
    QtMobility::QDeclarativeGalleryQueryModel::event(QEvent*) 0x0000be67   Thumb Code   356  qdeclarativegalleryquerymodel.o(.text)
    QtMobility::QDeclarativeDocumentGalleryModel::getStaticMetaObject() 0x0000bfcb   Thumb Code     4  qdeclarativegalleryquerymodel.o(.text)
    QtMobility::QDeclarativeDocumentGalleryModel::metaObject() const 0x0000bfcf   Thumb Code    28  qdeclarativegalleryquerymodel.o(.text)
    QtMobility::QDeclarativeDocumentGalleryModel::qt_metacast(const char*) 0x0000bfeb   Thumb Code    40  qdeclarativegalleryquerymodel.o(.text)
    QtMobility::QDeclarativeDocumentGalleryModel::rootTypeChanged() 0x0000c013   Thumb Code    18  qdeclarativegalleryquerymodel.o(.text)
    QtMobility::QDeclarativeDocumentGalleryModel::setRootType(QtMobility::QDeclarativeDocumentGallery::ItemType) 0x0000c025   Thumb Code    46  qdeclarativegalleryquerymodel.o(.text)
    QtMobility::QDeclarativeDocumentGalleryModel::rootType() const 0x0000c053   Thumb Code    34  qdeclarativegalleryquerymodel.o(.text)
    QtMobility::QDeclarativeDocumentGalleryModel::qt_metacall(QMetaObject::Call, int, void**) 0x0000c075   Thumb Code   160  qdeclarativegalleryquerymodel.o(.text)
    QtMobility::QDeclarativeDocumentGalleryModel::QDeclarativeDocumentGalleryModel(QObject*) 0x0000c115   Thumb Code    60  qdeclarativegalleryquerymodel.o(.text)
    QtMobility::QDeclarativeDocumentGalleryModel::QDeclarativeDocumentGalleryModel__sub_object(QObject*) 0x0000c115   Thumb Code     0  qdeclarativegalleryquerymodel.o(.text)
    QtMobility::QDeclarativeDocumentGalleryModel::~QDeclarativeDocumentGalleryModel() 0x0000c151   Thumb Code    14  qdeclarativegalleryquerymodel.o(.text)
    QtMobility::QDeclarativeDocumentGalleryModel::~QDeclarativeDocumentGalleryModel__sub_object() 0x0000c151   Thumb Code     0  qdeclarativegalleryquerymodel.o(.text)
    QtMobility::QDeclarativeDocumentGalleryModel::~QDeclarativeDocumentGalleryModel__deallocating() 0x0000c15f   Thumb Code    22  qdeclarativegalleryquerymodel.o(.text)
    thunk{-8} to QtMobility::QDeclarativeDocumentGalleryModel::~QDeclarativeDocumentGalleryModel__deallocating() 0x0000c175   Thumb Code    14  qdeclarativegalleryquerymodel.o(.text)
    thunk{-8} to QtMobility::QDeclarativeDocumentGalleryModel::~QDeclarativeDocumentGalleryModel() 0x0000c183   Thumb Code    14  qdeclarativegalleryquerymodel.o(.text)
    QtMobility::QDeclarativeDocumentGalleryModel::classBegin() 0x0000c191   Thumb Code    24  qdeclarativegalleryquerymodel.o(.text)
    thunk{-8} to QtMobility::QDeclarativeDocumentGalleryModel::classBegin() 0x0000c1a9   Thumb Code    14  qdeclarativegalleryquerymodel.o(.text)
    QtMobility::QDeclarativeDocumentGalleryModel::itemType(const QString&) const 0x0000c1b7   Thumb Code    48  qdeclarativegalleryquerymodel.o(.text)
    QtMobility::QDeclarativeGalleryType::getStaticMetaObject() 0x0000c1f9   Thumb Code     4  qdeclarativegallerytype.o(.text)
    QtMobility::QDeclarativeGalleryType::metaObject() const 0x0000c1fd   Thumb Code    28  qdeclarativegallerytype.o(.text)
    QtMobility::QDeclarativeGalleryType::qt_metacast(const char*) 0x0000c219   Thumb Code    76  qdeclarativegallerytype.o(.text)
    QtMobility::QDeclarativeGalleryType::autoUpdateChanged() 0x0000c265   Thumb Code    18  qdeclarativegallerytype.o(.text)
    QtMobility::QDeclarativeGalleryType::deferredExecute() 0x0000c277   Thumb Code    58  qdeclarativegallerytype.o(.text)
    QtMobility::QDeclarativeGalleryType::setAutoUpdate(bool) 0x0000c2b1   Thumb Code    62  qdeclarativegallerytype.o(.text)
    QtMobility::QDeclarativeGalleryType::propertyNamesChanged() 0x0000c2ef   Thumb Code    18  qdeclarativegallerytype.o(.text)
    QtMobility::QDeclarativeGalleryType::setPropertyNames(const QStringList&) 0x0000c301   Thumb Code    30  qdeclarativegallerytype.o(.text)
    QtMobility::QDeclarativeGalleryType::progress() const 0x0000c31f   Thumb Code    54  qdeclarativegallerytype.o(.text)
    QtMobility::QDeclarativeGalleryType::_q_metaDataChanged(const QList<int>&) 0x0000c355   Thumb Code   258  qdeclarativegallerytype.o(.text)
    QtMobility::QDeclarativeGalleryType::availableChanged() 0x0000c457   Thumb Code    18  qdeclarativegallerytype.o(.text)
    QtMobility::QDeclarativeGalleryType::_q_typeChanged() 0x0000c469   Thumb Code   510  qdeclarativegallerytype.o(.text)
    QtMobility::QDeclarativeGalleryType::statusChanged() 0x0000c667   Thumb Code    18  qdeclarativegallerytype.o(.text)
    QtMobility::QDeclarativeGalleryType::_q_stateChanged() 0x0000c679   Thumb Code   298  qdeclarativegallerytype.o(.text)
    QtMobility::QDeclarativeGalleryType::clear() 0x0000c7a3   Thumb Code    24  qdeclarativegallerytype.o(.text)
    QtMobility::QDeclarativeGalleryType::cancel() 0x0000c7bb   Thumb Code    24  qdeclarativegallerytype.o(.text)
    QtMobility::QDeclarativeGalleryType::reload() 0x0000c7d3   Thumb Code    24  qdeclarativegallerytype.o(.text)
    QtMobility::QDeclarativeGalleryType::galleryChanged() 0x0000c7eb   Thumb Code    18  qdeclarativegallerytype.o(.text)
    QtMobility::QDeclarativeGalleryType::metaDataChanged() 0x0000c7fd   Thumb Code    18  qdeclarativegallerytype.o(.text)
    QtMobility::QDeclarativeGalleryType::progressChanged() 0x0000c80f   Thumb Code    18  qdeclarativegallerytype.o(.text)
    QtMobility::QDeclarativeGalleryType::qt_metacall(QMetaObject::Call, int, void**) 0x0000c821   Thumb Code   620  qdeclarativegallerytype.o(.text)
    QtMobility::QDeclarativeGalleryType::~QDeclarativeGalleryType() 0x0000ca8d   Thumb Code     0  qdeclarativegallerytype.o(.text)
    QtMobility::QDeclarativeGalleryType::~QDeclarativeGalleryType__sub_object() 0x0000ca8d   Thumb Code    58  qdeclarativegallerytype.o(.text)
    QtMobility::QDeclarativeGalleryType::~QDeclarativeGalleryType__deallocating() 0x0000cac7   Thumb Code    22  qdeclarativegallerytype.o(.text)
    thunk{-8} to QtMobility::QDeclarativeGalleryType::~QDeclarativeGalleryType__deallocating() 0x0000cadd   Thumb Code    14  qdeclarativegallerytype.o(.text)
    thunk{-8} to QtMobility::QDeclarativeGalleryType::~QDeclarativeGalleryType() 0x0000caeb   Thumb Code    14  qdeclarativegallerytype.o(.text)
    QtMobility::QDeclarativeGalleryType::componentComplete() 0x0000caf9   Thumb Code    50  qdeclarativegallerytype.o(.text)
    thunk{-8} to QtMobility::QDeclarativeGalleryType::componentComplete() 0x0000cb2b   Thumb Code    14  qdeclarativegallerytype.o(.text)
    QtMobility::QDeclarativeGalleryType::QDeclarativeGalleryType__sub_object(QObject*) 0x0000cb39   Thumb Code   172  qdeclarativegallerytype.o(.text)
    QtMobility::QDeclarativeGalleryType::event(QEvent*) 0x0000cbe5   Thumb Code    46  qdeclarativegallerytype.o(.text)
    QtMobility::QDeclarativeDocumentGalleryType::getStaticMetaObject() 0x0000cc13   Thumb Code     4  qdeclarativegallerytype.o(.text)
    QtMobility::QDeclarativeDocumentGalleryType::metaObject() const 0x0000cc17   Thumb Code    28  qdeclarativegallerytype.o(.text)
    QtMobility::QDeclarativeDocumentGalleryType::qt_metacast(const char*) 0x0000cc33   Thumb Code    40  qdeclarativegallerytype.o(.text)
    QtMobility::QDeclarativeDocumentGalleryType::itemTypeChanged() 0x0000cc5b   Thumb Code    18  qdeclarativegallerytype.o(.text)
    QtMobility::QDeclarativeDocumentGalleryType::setItemType(QtMobility::QDeclarativeDocumentGallery::ItemType) 0x0000cc6d   Thumb Code   106  qdeclarativegallerytype.o(.text)
    QtMobility::QDeclarativeDocumentGalleryType::itemType() const 0x0000ccd7   Thumb Code    34  qdeclarativegallerytype.o(.text)
    QtMobility::QDeclarativeDocumentGalleryType::qt_metacall(QMetaObject::Call, int, void**) 0x0000ccf9   Thumb Code   160  qdeclarativegallerytype.o(.text)
    QtMobility::QDeclarativeDocumentGalleryType::QDeclarativeDocumentGalleryType(QObject*) 0x0000cd99   Thumb Code    28  qdeclarativegallerytype.o(.text)
    QtMobility::QDeclarativeDocumentGalleryType::QDeclarativeDocumentGalleryType__sub_object(QObject*) 0x0000cd99   Thumb Code     0  qdeclarativegallerytype.o(.text)
    QtMobility::QDeclarativeDocumentGalleryType::~QDeclarativeDocumentGalleryType() 0x0000cdb5   Thumb Code    14  qdeclarativegallerytype.o(.text)
    QtMobility::QDeclarativeDocumentGalleryType::~QDeclarativeDocumentGalleryType__sub_object() 0x0000cdb5   Thumb Code     0  qdeclarativegallerytype.o(.text)
    QtMobility::QDeclarativeDocumentGalleryType::~QDeclarativeDocumentGalleryType__deallocating() 0x0000cdc3   Thumb Code    22  qdeclarativegallerytype.o(.text)
    thunk{-8} to QtMobility::QDeclarativeDocumentGalleryType::~QDeclarativeDocumentGalleryType__deallocating() 0x0000cdd9   Thumb Code    14  qdeclarativegallerytype.o(.text)
    thunk{-8} to QtMobility::QDeclarativeDocumentGalleryType::~QDeclarativeDocumentGalleryType() 0x0000cde7   Thumb Code    14  qdeclarativegallerytype.o(.text)
    QtMobility::QDeclarativeDocumentGalleryType::classBegin() 0x0000cdf5   Thumb Code    24  qdeclarativegallerytype.o(.text)
    thunk{-8} to QtMobility::QDeclarativeDocumentGalleryType::classBegin() 0x0000ce0d   Thumb Code    14  qdeclarativegallerytype.o(.text)
    __ARM_switch8                            0x0000cf04   ARM Code      24  switch8.o(.text)
    __rt_switch8                             0x0000cf04   ARM Code       0  switch8.o(.text)
    _E32Dll_Body                             0x0000cf1c   ARM Code      76  uc_dll.o(.text)
    __aeabi_atexit                           0x0000cf6c   ARM Code      40  ucppfini.o(.text)
    __cxa_atexit                             0x0000cf94   ARM Code      64  ucppfini.o(.text)
    __cxa_finalize                           0x0000cfd4   ARM Code      48  ucppfini.o(.text)
    run_static_dtors                         0x0000d004   ARM Code      16  ucppfini.o(.text)
    __DLL_Export_Table__                     0x0000d020   ARM Code       4  dllexp.o(.text)
    qScriptValueFromValue_helper(QScriptEngine*, int, const void*) 0x0000d603   Thumb Code    38  qdeclarativegalleryquerymodel.o(i._Z28qScriptValueFromValue_helperP13QScriptEngineiPKv)
    QByteArray::QByteArray(const QByteArray&) 0x0000d629   Thumb Code    20  qdeclarativegallery.o(i._ZN10QByteArrayC1ERKS_)
    QByteArray::QByteArray__sub_object(const QByteArray&) 0x0000d629   Thumb Code     0  qdeclarativegallery.o(i._ZN10QByteArrayC1ERKS_)
    QByteArray::~QByteArray()                0x0000d63d   Thumb Code    24  qdeclarativedocumentgallery.o(i._ZN10QByteArrayD1Ev)
    QByteArray::~QByteArray__sub_object()    0x0000d63d   Thumb Code     0  qdeclarativedocumentgallery.o(i._ZN10QByteArrayD1Ev)
    QtMobility::QGalleryDeclarativeModule::registerTypes(const char*) 0x0000d655   Thumb Code   632  qdeclarativegallery.o(i._ZN10QtMobility25QGalleryDeclarativeModule13registerTypesEPKc)
    QtMobility::QGalleryDeclarativeModule::~QGalleryDeclarativeModule__deallocating() 0x0000d8d7   Thumb Code    24  qdeclarativegallery.o(i._ZN10QtMobility25QGalleryDeclarativeModuleD0Ev)
    QtMobility::QGalleryDeclarativeModule::~QGalleryDeclarativeModule() 0x0000d8ef   Thumb Code    14  qdeclarativegallery.o(i._ZN10QtMobility25QGalleryDeclarativeModuleD1Ev)
    QtMobility::QGalleryDeclarativeModule::~QGalleryDeclarativeModule__sub_object() 0x0000d8ef   Thumb Code     0  qdeclarativegallery.o(i._ZN10QtMobility25QGalleryDeclarativeModuleD1Ev)
    QtMobility::QDeclarativeDocumentGallery::~QDeclarativeDocumentGallery__deallocating() 0x0000d8fd   Thumb Code    24  qdeclarativedocumentgallery.o(i._ZN10QtMobility27QDeclarativeDocumentGalleryD0Ev)
    QtMobility::QDeclarativeDocumentGallery::~QDeclarativeDocumentGallery() 0x0000d915   Thumb Code    14  qdeclarativedocumentgallery.o(i._ZN10QtMobility27QDeclarativeDocumentGalleryD1Ev)
    QtMobility::QDeclarativeDocumentGallery::~QDeclarativeDocumentGallery__sub_object() 0x0000d915   Thumb Code     0  qdeclarativedocumentgallery.o(i._ZN10QtMobility27QDeclarativeDocumentGalleryD1Ev)
    QtMobility::QDeclarativeGalleryFilterBase::QDeclarativeGalleryFilterBase__sub_object(QObject*) 0x0000d925   Thumb Code    24  qdeclarativegallery.o(i._ZN10QtMobility29QDeclarativeGalleryFilterBaseC2EP7QObject)
    QtMobility::QDeclarativeGalleryFilterBase::~QDeclarativeGalleryFilterBase__deallocating() 0x0000d941   Thumb Code    22  qdeclarativegalleryfilter.o(i._ZN10QtMobility29QDeclarativeGalleryFilterBaseD0Ev)
    QtMobility::QDeclarativeGalleryFilterBase::~QDeclarativeGalleryFilterBase() 0x0000d957   Thumb Code     0  qdeclarativegallery.o(i._ZN10QtMobility29QDeclarativeGalleryFilterBaseD2Ev)
    QtMobility::QDeclarativeGalleryFilterBase::~QDeclarativeGalleryFilterBase__sub_object() 0x0000d957   Thumb Code    14  qdeclarativegallery.o(i._ZN10QtMobility29QDeclarativeGalleryFilterBaseD2Ev)
    QtMobility::QDeclarativeGalleryQueryModel::tr(const char*, const char*) 0x0000d965   Thumb Code    22  qdeclarativegalleryquerymodel.o(i._ZN10QtMobility29QDeclarativeGalleryQueryModel2trEPKcS2_)
    QtMobility::QDeclarativeGalleryFilterGroup::QDeclarativeGalleryFilterGroup__sub_object(QObject*) 0x0000d981   Thumb Code    62  qdeclarativegallery.o(i._ZN10QtMobility30QDeclarativeGalleryFilterGroupC2EP7QObject)
    QtMobility::QDeclarativeGalleryFilterGroup::~QDeclarativeGalleryFilterGroup__deallocating() 0x0000d9df   Thumb Code    22  qdeclarativegalleryfilter.o(i._ZN10QtMobility30QDeclarativeGalleryFilterGroupD0Ev)
    QtMobility::QDeclarativeGalleryFilterGroup::~QDeclarativeGalleryFilterGroup() 0x0000d9f5   Thumb Code     0  qdeclarativegallery.o(i._ZN10QtMobility30QDeclarativeGalleryFilterGroupD2Ev)
    QtMobility::QDeclarativeGalleryFilterGroup::~QDeclarativeGalleryFilterGroup__sub_object() 0x0000d9f5   Thumb Code    46  qdeclarativegallery.o(i._ZN10QtMobility30QDeclarativeGalleryFilterGroupD2Ev)
    QtMobility::QDeclarativeGalleryFilterUnion::~QDeclarativeGalleryFilterUnion__deallocating() 0x0000da3f   Thumb Code    24  qdeclarativegalleryfilter.o(i._ZN10QtMobility30QDeclarativeGalleryFilterUnionD0Ev)
    QtMobility::QDeclarativeGalleryFilterUnion::~QDeclarativeGalleryFilterUnion() 0x0000da57   Thumb Code    14  qdeclarativegallery.o(i._ZN10QtMobility30QDeclarativeGalleryFilterUnionD1Ev)
    QtMobility::QDeclarativeGalleryFilterUnion::~QDeclarativeGalleryFilterUnion__sub_object() 0x0000da57   Thumb Code     0  qdeclarativegallery.o(i._ZN10QtMobility30QDeclarativeGalleryFilterUnionD1Ev)
    QtMobility::QDeclarativeGalleryValueFilter::QDeclarativeGalleryValueFilter(QtMobility::QGalleryFilter::Comparator, QObject*) 0x0000da65   Thumb Code    48  qdeclarativegallery.o(i._ZN10QtMobility30QDeclarativeGalleryValueFilterC1ENS_14QGalleryFilter10ComparatorEP7QObject)
    QtMobility::QDeclarativeGalleryValueFilter::QDeclarativeGalleryValueFilter__sub_object(QtMobility::QGalleryFilter::Comparator, QObject*) 0x0000da65   Thumb Code     0  qdeclarativegallery.o(i._ZN10QtMobility30QDeclarativeGalleryValueFilterC1ENS_14QGalleryFilter10ComparatorEP7QObject)
    QtMobility::QDeclarativeGalleryValueFilter::~QDeclarativeGalleryValueFilter__deallocating() 0x0000daaf   Thumb Code    22  qdeclarativegalleryfilter.o(i._ZN10QtMobility30QDeclarativeGalleryValueFilterD0Ev)
    QtMobility::QDeclarativeGalleryValueFilter::~QDeclarativeGalleryValueFilter() 0x0000dac5   Thumb Code    30  qdeclarativegallery.o(i._ZN10QtMobility30QDeclarativeGalleryValueFilterD1Ev)
    QtMobility::QDeclarativeGalleryValueFilter::~QDeclarativeGalleryValueFilter__sub_object() 0x0000dac5   Thumb Code     0  qdeclarativegallery.o(i._ZN10QtMobility30QDeclarativeGalleryValueFilterD1Ev)
    QtMobility::QDeclarativeGalleryEqualsFilter::~QDeclarativeGalleryEqualsFilter__deallocating() 0x0000daf3   Thumb Code    24  qdeclarativegalleryfilter.o(i._ZN10QtMobility31QDeclarativeGalleryEqualsFilterD0Ev)
    QtMobility::QDeclarativeGalleryEqualsFilter::~QDeclarativeGalleryEqualsFilter() 0x0000db0b   Thumb Code    14  qdeclarativegallery.o(i._ZN10QtMobility31QDeclarativeGalleryEqualsFilterD1Ev)
    QtMobility::QDeclarativeGalleryEqualsFilter::~QDeclarativeGalleryEqualsFilter__sub_object() 0x0000db0b   Thumb Code     0  qdeclarativegallery.o(i._ZN10QtMobility31QDeclarativeGalleryEqualsFilterD1Ev)
    QtMobility::QDeclarativeGalleryStringFilter::QDeclarativeGalleryStringFilter(QtMobility::QGalleryFilter::Comparator, QObject*) 0x0000db19   Thumb Code    48  qdeclarativegallery.o(i._ZN10QtMobility31QDeclarativeGalleryStringFilterC1ENS_14QGalleryFilter10ComparatorEP7QObject)
    QtMobility::QDeclarativeGalleryStringFilter::QDeclarativeGalleryStringFilter__sub_object(QtMobility::QGalleryFilter::Comparator, QObject*) 0x0000db19   Thumb Code     0  qdeclarativegallery.o(i._ZN10QtMobility31QDeclarativeGalleryStringFilterC1ENS_14QGalleryFilter10ComparatorEP7QObject)
    QtMobility::QDeclarativeGalleryStringFilter::~QDeclarativeGalleryStringFilter__deallocating() 0x0000db63   Thumb Code    22  qdeclarativegalleryfilter.o(i._ZN10QtMobility31QDeclarativeGalleryStringFilterD0Ev)
    QtMobility::QDeclarativeGalleryStringFilter::~QDeclarativeGalleryStringFilter() 0x0000db79   Thumb Code    30  qdeclarativegallery.o(i._ZN10QtMobility31QDeclarativeGalleryStringFilterD1Ev)
    QtMobility::QDeclarativeGalleryStringFilter::~QDeclarativeGalleryStringFilter__sub_object() 0x0000db79   Thumb Code     0  qdeclarativegallery.o(i._ZN10QtMobility31QDeclarativeGalleryStringFilterD1Ev)
    QtMobility::QDeclarativeGalleryContainsFilter::~QDeclarativeGalleryContainsFilter__deallocating() 0x0000dba7   Thumb Code    24  qdeclarativegalleryfilter.o(i._ZN10QtMobility33QDeclarativeGalleryContainsFilterD0Ev)
    QtMobility::QDeclarativeGalleryContainsFilter::~QDeclarativeGalleryContainsFilter() 0x0000dbbf   Thumb Code    14  qdeclarativegallery.o(i._ZN10QtMobility33QDeclarativeGalleryContainsFilterD1Ev)
    QtMobility::QDeclarativeGalleryContainsFilter::~QDeclarativeGalleryContainsFilter__sub_object() 0x0000dbbf   Thumb Code     0  qdeclarativegallery.o(i._ZN10QtMobility33QDeclarativeGalleryContainsFilterD1Ev)
    QtMobility::QDeclarativeGalleryEndsWithFilter::~QDeclarativeGalleryEndsWithFilter__deallocating() 0x0000dbcd   Thumb Code    24  qdeclarativegalleryfilter.o(i._ZN10QtMobility33QDeclarativeGalleryEndsWithFilterD0Ev)
    QtMobility::QDeclarativeGalleryEndsWithFilter::~QDeclarativeGalleryEndsWithFilter() 0x0000dbe5   Thumb Code    14  qdeclarativegallery.o(i._ZN10QtMobility33QDeclarativeGalleryEndsWithFilterD1Ev)
    QtMobility::QDeclarativeGalleryEndsWithFilter::~QDeclarativeGalleryEndsWithFilter__sub_object() 0x0000dbe5   Thumb Code     0  qdeclarativegallery.o(i._ZN10QtMobility33QDeclarativeGalleryEndsWithFilterD1Ev)
    QtMobility::QDeclarativeGalleryLessThanFilter::~QDeclarativeGalleryLessThanFilter__deallocating() 0x0000dbf3   Thumb Code    24  qdeclarativegalleryfilter.o(i._ZN10QtMobility33QDeclarativeGalleryLessThanFilterD0Ev)
    QtMobility::QDeclarativeGalleryLessThanFilter::~QDeclarativeGalleryLessThanFilter() 0x0000dc0b   Thumb Code    14  qdeclarativegallery.o(i._ZN10QtMobility33QDeclarativeGalleryLessThanFilterD1Ev)
    QtMobility::QDeclarativeGalleryLessThanFilter::~QDeclarativeGalleryLessThanFilter__sub_object() 0x0000dc0b   Thumb Code     0  qdeclarativegallery.o(i._ZN10QtMobility33QDeclarativeGalleryLessThanFilterD1Ev)
    QtMobility::QDeclarativeGalleryWildcardFilter::~QDeclarativeGalleryWildcardFilter__deallocating() 0x0000dc19   Thumb Code    24  qdeclarativegalleryfilter.o(i._ZN10QtMobility33QDeclarativeGalleryWildcardFilterD0Ev)
    QtMobility::QDeclarativeGalleryWildcardFilter::~QDeclarativeGalleryWildcardFilter() 0x0000dc31   Thumb Code    14  qdeclarativegallery.o(i._ZN10QtMobility33QDeclarativeGalleryWildcardFilterD1Ev)
    QtMobility::QDeclarativeGalleryWildcardFilter::~QDeclarativeGalleryWildcardFilter__sub_object() 0x0000dc31   Thumb Code     0  qdeclarativegallery.o(i._ZN10QtMobility33QDeclarativeGalleryWildcardFilterD1Ev)
    QtMobility::QDeclarativeGalleryStartsWithFilter::~QDeclarativeGalleryStartsWithFilter__deallocating() 0x0000dc3f   Thumb Code    24  qdeclarativegalleryfilter.o(i._ZN10QtMobility35QDeclarativeGalleryStartsWithFilterD0Ev)
    QtMobility::QDeclarativeGalleryStartsWithFilter::~QDeclarativeGalleryStartsWithFilter() 0x0000dc57   Thumb Code    14  qdeclarativegallery.o(i._ZN10QtMobility35QDeclarativeGalleryStartsWithFilterD1Ev)
    QtMobility::QDeclarativeGalleryStartsWithFilter::~QDeclarativeGalleryStartsWithFilter__sub_object() 0x0000dc57   Thumb Code     0  qdeclarativegallery.o(i._ZN10QtMobility35QDeclarativeGalleryStartsWithFilterD1Ev)
    QtMobility::QDeclarativeGalleryGreaterThanFilter::~QDeclarativeGalleryGreaterThanFilter__deallocating() 0x0000dc65   Thumb Code    24  qdeclarativegalleryfilter.o(i._ZN10QtMobility36QDeclarativeGalleryGreaterThanFilterD0Ev)
    QtMobility::QDeclarativeGalleryGreaterThanFilter::~QDeclarativeGalleryGreaterThanFilter() 0x0000dc7d   Thumb Code    14  qdeclarativegallery.o(i._ZN10QtMobility36QDeclarativeGalleryGreaterThanFilterD1Ev)
    QtMobility::QDeclarativeGalleryGreaterThanFilter::~QDeclarativeGalleryGreaterThanFilter__sub_object() 0x0000dc7d   Thumb Code     0  qdeclarativegallery.o(i._ZN10QtMobility36QDeclarativeGalleryGreaterThanFilterD1Ev)
    QtMobility::QDeclarativeGalleryFilterIntersection::~QDeclarativeGalleryFilterIntersection__deallocating() 0x0000dc8b   Thumb Code    24  qdeclarativegalleryfilter.o(i._ZN10QtMobility37QDeclarativeGalleryFilterIntersectionD0Ev)
    QtMobility::QDeclarativeGalleryFilterIntersection::~QDeclarativeGalleryFilterIntersection() 0x0000dca3   Thumb Code    14  qdeclarativegallery.o(i._ZN10QtMobility37QDeclarativeGalleryFilterIntersectionD1Ev)
    QtMobility::QDeclarativeGalleryFilterIntersection::~QDeclarativeGalleryFilterIntersection__sub_object() 0x0000dca3   Thumb Code     0  qdeclarativegallery.o(i._ZN10QtMobility37QDeclarativeGalleryFilterIntersectionD1Ev)
    QtMobility::QDeclarativeGalleryLessThanEqualsFilter::~QDeclarativeGalleryLessThanEqualsFilter__deallocating() 0x0000dcb1   Thumb Code    24  qdeclarativegalleryfilter.o(i._ZN10QtMobility39QDeclarativeGalleryLessThanEqualsFilterD0Ev)
    QtMobility::QDeclarativeGalleryLessThanEqualsFilter::~QDeclarativeGalleryLessThanEqualsFilter() 0x0000dcc9   Thumb Code    14  qdeclarativegallery.o(i._ZN10QtMobility39QDeclarativeGalleryLessThanEqualsFilterD1Ev)
    QtMobility::QDeclarativeGalleryLessThanEqualsFilter::~QDeclarativeGalleryLessThanEqualsFilter__sub_object() 0x0000dcc9   Thumb Code     0  qdeclarativegallery.o(i._ZN10QtMobility39QDeclarativeGalleryLessThanEqualsFilterD1Ev)
    QtMobility::QDeclarativeGalleryGreaterThanEqualsFilter::~QDeclarativeGalleryGreaterThanEqualsFilter__deallocating() 0x0000dcd7   Thumb Code    24  qdeclarativegalleryfilter.o(i._ZN10QtMobility42QDeclarativeGalleryGreaterThanEqualsFilterD0Ev)
    QtMobility::QDeclarativeGalleryGreaterThanEqualsFilter::~QDeclarativeGalleryGreaterThanEqualsFilter() 0x0000dcef   Thumb Code    14  qdeclarativegallery.o(i._ZN10QtMobility42QDeclarativeGalleryGreaterThanEqualsFilterD1Ev)
    QtMobility::QDeclarativeGalleryGreaterThanEqualsFilter::~QDeclarativeGalleryGreaterThanEqualsFilter__sub_object() 0x0000dcef   Thumb Code     0  qdeclarativegallery.o(i._ZN10QtMobility42QDeclarativeGalleryGreaterThanEqualsFilterD1Ev)
    QModelIndex::QModelIndex()               0x0000dcfd   Thumb Code    16  qdeclarativegalleryquerymodel.o(i._ZN11QModelIndexC1Ev)
    QModelIndex::QModelIndex__sub_object()   0x0000dcfd   Thumb Code     0  qdeclarativegalleryquerymodel.o(i._ZN11QModelIndexC1Ev)
    QModelIndex::~QModelIndex()              0x0000dd0d   Thumb Code     8  qdeclarativegalleryquerymodel.o(i._ZN11QModelIndexD1Ev)
    QModelIndex::~QModelIndex__sub_object()  0x0000dd0d   Thumb Code     0  qdeclarativegalleryquerymodel.o(i._ZN11QModelIndexD1Ev)
    QStringList::~QStringList()              0x0000dd15   Thumb Code    14  qdeclarativegalleryitem.o(i._ZN11QStringListD1Ev)
    QStringList::~QStringList__sub_object()  0x0000dd15   Thumb Code     0  qdeclarativegalleryitem.o(i._ZN11QStringListD1Ev)
    QStringList::operator =(const QStringList&) 0x0000dd23   Thumb Code    66  qdeclarativegalleryquerymodel.o(i._ZN11QStringListaSERKS_)
    QBasicAtomicInt::ref()                   0x0000dd65   Thumb Code    24  qdeclarativedocumentgallery.o(i._ZN15QBasicAtomicInt3refEv)
    QBasicAtomicInt::deref()                 0x0000dd7d   Thumb Code    24  qdeclarativedocumentgallery.o(i._ZN15QBasicAtomicInt5derefEv)
    QDeclarativeInfo::operator <<(const QString&) 0x0000dd95   Thumb Code    80  qdeclarativegalleryquerymodel.o(i._ZN16QDeclarativeInfolsERK7QString)
    QDeclarativePrivate::RegisterType::~RegisterType() 0x0000ddf9   Thumb Code    20  qdeclarativegallery.o(i._ZN19QDeclarativePrivate12RegisterTypeD1Ev)
    QDeclarativePrivate::RegisterType::~RegisterType__sub_object() 0x0000ddf9   Thumb Code     0  qdeclarativegallery.o(i._ZN19QDeclarativePrivate12RegisterTypeD1Ev)
    QDeclarativePrivate::QDeclarativeElement<QtMobility::QDeclarativeGalleryFilterUnion>::~QDeclarativeElement__deallocating() 0x0000de0d   Thumb Code    22  qdeclarativegallery.o(i._ZN19QDeclarativePrivate19QDeclarativeElementIN10QtMobility30QDeclarativeGalleryFilterUnionEED0Ev)
    QDeclarativePrivate::QDeclarativeElement<QtMobility::QDeclarativeDocumentGalleryItem>::~QDeclarativeElement__deallocating() 0x0000de23   Thumb Code    22  qdeclarativegallery.o(i._ZN19QDeclarativePrivate19QDeclarativeElementIN10QtMobility31QDeclarativeDocumentGalleryItemEED0Ev)
    QDeclarativePrivate::QDeclarativeElement<QtMobility::QDeclarativeDocumentGalleryType>::~QDeclarativeElement__deallocating() 0x0000de39   Thumb Code    22  qdeclarativegallery.o(i._ZN19QDeclarativePrivate19QDeclarativeElementIN10QtMobility31QDeclarativeDocumentGalleryTypeEED0Ev)
    QDeclarativePrivate::QDeclarativeElement<QtMobility::QDeclarativeGalleryEqualsFilter>::~QDeclarativeElement__deallocating() 0x0000de4f   Thumb Code    22  qdeclarativegallery.o(i._ZN19QDeclarativePrivate19QDeclarativeElementIN10QtMobility31QDeclarativeGalleryEqualsFilterEED0Ev)
    QDeclarativePrivate::QDeclarativeElement<QtMobility::QDeclarativeDocumentGalleryModel>::~QDeclarativeElement__deallocating() 0x0000de65   Thumb Code    22  qdeclarativegallery.o(i._ZN19QDeclarativePrivate19QDeclarativeElementIN10QtMobility32QDeclarativeDocumentGalleryModelEED0Ev)
    QDeclarativePrivate::QDeclarativeElement<QtMobility::QDeclarativeGalleryContainsFilter>::~QDeclarativeElement__deallocating() 0x0000de7b   Thumb Code    22  qdeclarativegallery.o(i._ZN19QDeclarativePrivate19QDeclarativeElementIN10QtMobility33QDeclarativeGalleryContainsFilterEED0Ev)
    QDeclarativePrivate::QDeclarativeElement<QtMobility::QDeclarativeGalleryEndsWithFilter>::~QDeclarativeElement__deallocating() 0x0000de91   Thumb Code    22  qdeclarativegallery.o(i._ZN19QDeclarativePrivate19QDeclarativeElementIN10QtMobility33QDeclarativeGalleryEndsWithFilterEED0Ev)
    QDeclarativePrivate::QDeclarativeElement<QtMobility::QDeclarativeGalleryLessThanFilter>::~QDeclarativeElement__deallocating() 0x0000dea7   Thumb Code    22  qdeclarativegallery.o(i._ZN19QDeclarativePrivate19QDeclarativeElementIN10QtMobility33QDeclarativeGalleryLessThanFilterEED0Ev)
    QDeclarativePrivate::QDeclarativeElement<QtMobility::QDeclarativeGalleryWildcardFilter>::~QDeclarativeElement__deallocating() 0x0000debd   Thumb Code    22  qdeclarativegallery.o(i._ZN19QDeclarativePrivate19QDeclarativeElementIN10QtMobility33QDeclarativeGalleryWildcardFilterEED0Ev)
    QDeclarativePrivate::QDeclarativeElement<QtMobility::QDeclarativeGalleryStartsWithFilter>::~QDeclarativeElement__deallocating() 0x0000ded3   Thumb Code    22  qdeclarativegallery.o(i._ZN19QDeclarativePrivate19QDeclarativeElementIN10QtMobility35QDeclarativeGalleryStartsWithFilterEED0Ev)
    QDeclarativePrivate::QDeclarativeElement<QtMobility::QDeclarativeGalleryGreaterThanFilter>::~QDeclarativeElement__deallocating() 0x0000dee9   Thumb Code    22  qdeclarativegallery.o(i._ZN19QDeclarativePrivate19QDeclarativeElementIN10QtMobility36QDeclarativeGalleryGreaterThanFilterEED0Ev)
    QDeclarativePrivate::QDeclarativeElement<QtMobility::QDeclarativeGalleryFilterIntersection>::~QDeclarativeElement__deallocating() 0x0000deff   Thumb Code    22  qdeclarativegallery.o(i._ZN19QDeclarativePrivate19QDeclarativeElementIN10QtMobility37QDeclarativeGalleryFilterIntersectionEED0Ev)
    QDeclarativePrivate::QDeclarativeElement<QtMobility::QDeclarativeGalleryLessThanEqualsFilter>::~QDeclarativeElement__deallocating() 0x0000df15   Thumb Code    22  qdeclarativegallery.o(i._ZN19QDeclarativePrivate19QDeclarativeElementIN10QtMobility39QDeclarativeGalleryLessThanEqualsFilterEED0Ev)
    QDeclarativePrivate::QDeclarativeElement<QtMobility::QDeclarativeGalleryGreaterThanEqualsFilter>::~QDeclarativeElement__deallocating() 0x0000df2b   Thumb Code    22  qdeclarativegallery.o(i._ZN19QDeclarativePrivate19QDeclarativeElementIN10QtMobility42QDeclarativeGalleryGreaterThanEqualsFilterEED0Ev)
    QPair<int, QString>::QPair(const QPair<int, QString>&) 0x0000df41   Thumb Code    24  qdeclarativegalleryquerymodel.o(i._ZN5QPairIi7QStringEC1ERKS1_)
    QPair<int, QString>::QPair__sub_object(const QPair<int, QString>&) 0x0000df41   Thumb Code     0  qdeclarativegalleryquerymodel.o(i._ZN5QPairIi7QStringEC1ERKS1_)
    QPair<int, QString>::~QPair()            0x0000df59   Thumb Code    16  qdeclarativegalleryquerymodel.o(i._ZN5QPairIi7QStringED1Ev)
    QPair<int, QString>::~QPair__sub_object() 0x0000df59   Thumb Code     0  qdeclarativegalleryquerymodel.o(i._ZN5QPairIi7QStringED1Ev)
    QString::QString(const QLatin1String&)   0x0000df69   Thumb Code    26  qdeclarativegalleryquerymodel.o(i._ZN7QStringC1ERK13QLatin1String)
    QString::QString__sub_object(const QLatin1String&) 0x0000df69   Thumb Code     0  qdeclarativegalleryquerymodel.o(i._ZN7QStringC1ERK13QLatin1String)
    QString::QString(const QString&)         0x0000df83   Thumb Code    22  qdeclarativegalleryitem.o(i._ZN7QStringC1ERKS_)
    QString::QString__sub_object(const QString&) 0x0000df83   Thumb Code     0  qdeclarativegalleryitem.o(i._ZN7QStringC1ERKS_)
    QString::QString()                       0x0000df99   Thumb Code    18  qdeclarativegallery.o(i._ZN7QStringC1Ev)
    QString::QString__sub_object()           0x0000df99   Thumb Code     0  qdeclarativegallery.o(i._ZN7QStringC1Ev)
    QString::~QString()                      0x0000dfb1   Thumb Code    24  qdeclarativedocumentgallery.o(i._ZN7QStringD1Ev)
    QString::~QString__sub_object()          0x0000dfb1   Thumb Code     0  qdeclarativedocumentgallery.o(i._ZN7QStringD1Ev)
    QVariant::QVariant()                     0x0000dfc9   Thumb Code    38  qdeclarativegalleryquerymodel.o(i._ZN8QVariantC1Ev)
    QVariant::QVariant__sub_object()         0x0000dfc9   Thumb Code     0  qdeclarativegalleryquerymodel.o(i._ZN8QVariantC1Ev)
    QModelIndex::isValid() const             0x0000dfef   Thumb Code    28  qdeclarativegalleryquerymodel.o(i._ZNK11QModelIndex7isValidEv)
    QBasicAtomicInt::operator ==(int) const  0x0000e00b   Thumb Code    16  qdeclarativegalleryquerymodel.o(i._ZNK15QBasicAtomicInteqEi)
    QBasicAtomicInt::operator !=(int) const  0x0000e01b   Thumb Code    16  qdeclarativegalleryquerymodel.o(i._ZNK15QBasicAtomicIntneEi)
    QBasicAtomicInt::operator !() const      0x0000e02b   Thumb Code    16  qdeclarativegallery.o(i._ZNK15QBasicAtomicIntntEv)
    QString::isEmpty() const                 0x0000e03b   Thumb Code    18  qdeclarativegalleryquerymodel.o(i._ZNK7QString7isEmptyEv)
    QString::operator !=(const QString&) const 0x0000e04d   Thumb Code    20  qdeclarativegalleryfilter.o(i._ZNK7QStringneERKS_)
    QVariant::isValid() const                0x0000e061   Thumb Code    18  qdeclarativegalleryitem.o(i._ZNK8QVariant7isValidEv)
    QListData::end() const                   0x0000e073   Thumb Code    16  qdeclarativegalleryfilter.o(i._ZNK9QListData3endEv)
    QListData::begin() const                 0x0000e083   Thumb Code    16  qdeclarativegalleryfilter.o(i._ZNK9QListData5beginEv)
    thunk{-8} to QtMobility::QGalleryDeclarativeModule::registerTypes(const char*) 0x0000e093   Thumb Code    18  qdeclarativegallery.o(i._ZThn8_N10QtMobility25QGalleryDeclarativeModule13registerTypesEPKc)
    thunk{-8} to QtMobility::QGalleryDeclarativeModule::~QGalleryDeclarativeModule__deallocating() 0x0000e0a5   Thumb Code    14  qdeclarativegallery.o(i._ZThn8_N10QtMobility25QGalleryDeclarativeModuleD0Ev)
    thunk{-8} to QtMobility::QGalleryDeclarativeModule::~QGalleryDeclarativeModule() 0x0000e0b3   Thumb Code    18  qdeclarativegallery.o(i._ZThn8_N10QtMobility25QGalleryDeclarativeModuleD1Ev)
    thunk{-8} to QtMobility::QDeclarativeGalleryFilterGroup::~QDeclarativeGalleryFilterGroup__deallocating() 0x0000e0c5   Thumb Code    14  qdeclarativegalleryfilter.o(i._ZThn8_N10QtMobility30QDeclarativeGalleryFilterGroupD0Ev)
    thunk{-8} to QtMobility::QDeclarativeGalleryFilterGroup::~QDeclarativeGalleryFilterGroup() 0x0000e0d3   Thumb Code    14  qdeclarativegalleryfilter.o(i._ZThn8_N10QtMobility30QDeclarativeGalleryFilterGroupD1Ev)
    thunk{-8} to QtMobility::QDeclarativeGalleryFilterUnion::~QDeclarativeGalleryFilterUnion__deallocating() 0x0000e0e1   Thumb Code    14  qdeclarativegalleryfilter.o(i._ZThn8_N10QtMobility30QDeclarativeGalleryFilterUnionD0Ev)
    thunk{-8} to QtMobility::QDeclarativeGalleryFilterUnion::~QDeclarativeGalleryFilterUnion() 0x0000e0ef   Thumb Code    18  qdeclarativegalleryfilter.o(i._ZThn8_N10QtMobility30QDeclarativeGalleryFilterUnionD1Ev)
    thunk{-8} to QtMobility::QDeclarativeGalleryFilterIntersection::~QDeclarativeGalleryFilterIntersection__deallocating() 0x0000e101   Thumb Code    14  qdeclarativegalleryfilter.o(i._ZThn8_N10QtMobility37QDeclarativeGalleryFilterIntersectionD0Ev)
    thunk{-8} to QtMobility::QDeclarativeGalleryFilterIntersection::~QDeclarativeGalleryFilterIntersection() 0x0000e10f   Thumb Code    18  qdeclarativegalleryfilter.o(i._ZThn8_N10QtMobility37QDeclarativeGalleryFilterIntersectionD1Ev)
    thunk{-8} to QDeclarativePrivate::QDeclarativeElement<QtMobility::QDeclarativeGalleryFilterUnion>::~QDeclarativeElement__deallocating() 0x0000e121   Thumb Code    14  qdeclarativegallery.o(i._ZThn8_N19QDeclarativePrivate19QDeclarativeElementIN10QtMobility30QDeclarativeGalleryFilterUnionEED0Ev)
    thunk{-8} to QDeclarativePrivate::QDeclarativeElement<QtMobility::QDeclarativeGalleryFilterUnion>::~QDeclarativeElement() 0x0000e12f   Thumb Code    14  qdeclarativegallery.o(i._ZThn8_N19QDeclarativePrivate19QDeclarativeElementIN10QtMobility30QDeclarativeGalleryFilterUnionEED1Ev)
    thunk{-8} to QDeclarativePrivate::QDeclarativeElement<QtMobility::QDeclarativeDocumentGalleryItem>::~QDeclarativeElement__deallocating() 0x0000e13d   Thumb Code    14  qdeclarativegallery.o(i._ZThn8_N19QDeclarativePrivate19QDeclarativeElementIN10QtMobility31QDeclarativeDocumentGalleryItemEED0Ev)
    thunk{-8} to QDeclarativePrivate::QDeclarativeElement<QtMobility::QDeclarativeDocumentGalleryItem>::~QDeclarativeElement() 0x0000e14b   Thumb Code    14  qdeclarativegallery.o(i._ZThn8_N19QDeclarativePrivate19QDeclarativeElementIN10QtMobility31QDeclarativeDocumentGalleryItemEED1Ev)
    thunk{-8} to QDeclarativePrivate::QDeclarativeElement<QtMobility::QDeclarativeDocumentGalleryType>::~QDeclarativeElement__deallocating() 0x0000e159   Thumb Code    14  qdeclarativegallery.o(i._ZThn8_N19QDeclarativePrivate19QDeclarativeElementIN10QtMobility31QDeclarativeDocumentGalleryTypeEED0Ev)
    thunk{-8} to QDeclarativePrivate::QDeclarativeElement<QtMobility::QDeclarativeDocumentGalleryType>::~QDeclarativeElement() 0x0000e167   Thumb Code    14  qdeclarativegallery.o(i._ZThn8_N19QDeclarativePrivate19QDeclarativeElementIN10QtMobility31QDeclarativeDocumentGalleryTypeEED1Ev)
    thunk{-8} to QDeclarativePrivate::QDeclarativeElement<QtMobility::QDeclarativeDocumentGalleryModel>::~QDeclarativeElement__deallocating() 0x0000e175   Thumb Code    14  qdeclarativegallery.o(i._ZThn8_N19QDeclarativePrivate19QDeclarativeElementIN10QtMobility32QDeclarativeDocumentGalleryModelEED0Ev)
    thunk{-8} to QDeclarativePrivate::QDeclarativeElement<QtMobility::QDeclarativeDocumentGalleryModel>::~QDeclarativeElement() 0x0000e183   Thumb Code    14  qdeclarativegallery.o(i._ZThn8_N19QDeclarativePrivate19QDeclarativeElementIN10QtMobility32QDeclarativeDocumentGalleryModelEED1Ev)
    thunk{-8} to QDeclarativePrivate::QDeclarativeElement<QtMobility::QDeclarativeGalleryFilterIntersection>::~QDeclarativeElement__deallocating() 0x0000e191   Thumb Code    14  qdeclarativegallery.o(i._ZThn8_N19QDeclarativePrivate19QDeclarativeElementIN10QtMobility37QDeclarativeGalleryFilterIntersectionEED0Ev)
    thunk{-8} to QDeclarativePrivate::QDeclarativeElement<QtMobility::QDeclarativeGalleryFilterIntersection>::~QDeclarativeElement() 0x0000e19f   Thumb Code    14  qdeclarativegallery.o(i._ZThn8_N19QDeclarativePrivate19QDeclarativeElementIN10QtMobility37QDeclarativeGalleryFilterIntersectionEED1Ev)
    operator delete (void*, void*)           0x0000e1ad   Thumb Code     2  qdeclarativegallery.o(i._ZdlPvS_)
    operator new(unsigned, void*)            0x0000e1af   Thumb Code     6  qdeclarativegallery.o(i._ZnwjPv)
    operator +(const char*, const QByteArray&) 0x0000e1b5   Thumb Code    46  qdeclarativegallery.o(i._ZplPKcRK10QByteArray)
    operator +(const QByteArray&, const char*) 0x0000e1ed   Thumb Code    46  qdeclarativegallery.o(i._ZplRK10QByteArrayPKc)
    operator +(const QByteArray&, char)      0x0000e225   Thumb Code    46  qdeclarativegallery.o(i._ZplRK10QByteArrayc)
    qmlRegisterType<QtMobility::QDeclarativeGalleryFilterBase>() 0x0000e25d   Thumb Code   222  qdeclarativegallery.o(t._Z15qmlRegisterTypeIN10QtMobility29QDeclarativeGalleryFilterBaseEEiv)
    qmlRegisterType<QtMobility::QDeclarativeGalleryFilterUnion>(const char*, int, int, const char*) 0x0000e399   Thumb Code   248  qdeclarativegallery.o(t._Z15qmlRegisterTypeIN10QtMobility30QDeclarativeGalleryFilterUnionEEiPKciiS3_)
    qmlRegisterType<QtMobility::QDeclarativeDocumentGalleryItem>(const char*, int, int, const char*) 0x0000e4ed   Thumb Code   248  qdeclarativegallery.o(t._Z15qmlRegisterTypeIN10QtMobility31QDeclarativeDocumentGalleryItemEEiPKciiS3_)
    qmlRegisterType<QtMobility::QDeclarativeDocumentGalleryType>(const char*, int, int, const char*) 0x0000e641   Thumb Code   248  qdeclarativegallery.o(t._Z15qmlRegisterTypeIN10QtMobility31QDeclarativeDocumentGalleryTypeEEiPKciiS3_)
    qmlRegisterType<QtMobility::QDeclarativeGalleryEqualsFilter>(const char*, int, int, const char*) 0x0000e795   Thumb Code   238  qdeclarativegallery.o(t._Z15qmlRegisterTypeIN10QtMobility31QDeclarativeGalleryEqualsFilterEEiPKciiS3_)
    qmlRegisterType<QtMobility::QDeclarativeDocumentGalleryModel>(const char*, int, int, const char*) 0x0000e8e1   Thumb Code   248  qdeclarativegallery.o(t._Z15qmlRegisterTypeIN10QtMobility32QDeclarativeDocumentGalleryModelEEiPKciiS3_)
    qmlRegisterType<QtMobility::QDeclarativeGalleryContainsFilter>(const char*, int, int, const char*) 0x0000ea35   Thumb Code   238  qdeclarativegallery.o(t._Z15qmlRegisterTypeIN10QtMobility33QDeclarativeGalleryContainsFilterEEiPKciiS3_)
    qmlRegisterType<QtMobility::QDeclarativeGalleryEndsWithFilter>(const char*, int, int, const char*) 0x0000eb81   Thumb Code   238  qdeclarativegallery.o(t._Z15qmlRegisterTypeIN10QtMobility33QDeclarativeGalleryEndsWithFilterEEiPKciiS3_)
    qmlRegisterType<QtMobility::QDeclarativeGalleryLessThanFilter>(const char*, int, int, const char*) 0x0000eccd   Thumb Code   238  qdeclarativegallery.o(t._Z15qmlRegisterTypeIN10QtMobility33QDeclarativeGalleryLessThanFilterEEiPKciiS3_)
    qmlRegisterType<QtMobility::QDeclarativeGalleryWildcardFilter>(const char*, int, int, const char*) 0x0000ee19   Thumb Code   238  qdeclarativegallery.o(t._Z15qmlRegisterTypeIN10QtMobility33QDeclarativeGalleryWildcardFilterEEiPKciiS3_)
    qmlRegisterType<QtMobility::QDeclarativeGalleryStartsWithFilter>(const char*, int, int, const char*) 0x0000ef65   Thumb Code   238  qdeclarativegallery.o(t._Z15qmlRegisterTypeIN10QtMobility35QDeclarativeGalleryStartsWithFilterEEiPKciiS3_)
    qmlRegisterType<QtMobility::QDeclarativeGalleryGreaterThanFilter>(const char*, int, int, const char*) 0x0000f0b1   Thumb Code   238  qdeclarativegallery.o(t._Z15qmlRegisterTypeIN10QtMobility36QDeclarativeGalleryGreaterThanFilterEEiPKciiS3_)
    qmlRegisterType<QtMobility::QDeclarativeGalleryFilterIntersection>(const char*, int, int, const char*) 0x0000f1fd   Thumb Code   248  qdeclarativegallery.o(t._Z15qmlRegisterTypeIN10QtMobility37QDeclarativeGalleryFilterIntersectionEEiPKciiS3_)
    qmlRegisterType<QtMobility::QDeclarativeGalleryLessThanEqualsFilter>(const char*, int, int, const char*) 0x0000f351   Thumb Code   238  qdeclarativegallery.o(t._Z15qmlRegisterTypeIN10QtMobility39QDeclarativeGalleryLessThanEqualsFilterEEiPKciiS3_)
    qmlRegisterType<QtMobility::QDeclarativeGalleryGreaterThanEqualsFilter>(const char*, int, int, const char*) 0x0000f49d   Thumb Code   238  qdeclarativegallery.o(t._Z15qmlRegisterTypeIN10QtMobility42QDeclarativeGalleryGreaterThanEqualsFilterEEiPKciiS3_)
    qRegisterMetaType<QDeclarativeListProperty<QtMobility::QDeclarativeDocumentGallery>>(const char*, T1*) 0x0000f5e9   Thumb Code    56  qdeclarativegallery.o(t._Z17qRegisterMetaTypeI24QDeclarativeListPropertyIN10QtMobility27QDeclarativeDocumentGalleryEEEiPKcPT_)
    qRegisterMetaType<QDeclarativeListProperty<QtMobility::QDeclarativeGalleryFilterBase>>(const char*, T1*) 0x0000f629   Thumb Code   100  qdeclarativegallery.o(t._Z17qRegisterMetaTypeI24QDeclarativeListPropertyIN10QtMobility29QDeclarativeGalleryFilterBaseEEEiPKcPT_)
    qRegisterMetaType<QDeclarativeListProperty<QtMobility::QDeclarativeGalleryFilterUnion>>(const char*, T1*) 0x0000f69d   Thumb Code   100  qdeclarativegallery.o(t._Z17qRegisterMetaTypeI24QDeclarativeListPropertyIN10QtMobility30QDeclarativeGalleryFilterUnionEEEiPKcPT_)
    qRegisterMetaType<QDeclarativeListProperty<QtMobility::QDeclarativeDocumentGalleryItem>>(const char*, T1*) 0x0000f711   Thumb Code   100  qdeclarativegallery.o(t._Z17qRegisterMetaTypeI24QDeclarativeListPropertyIN10QtMobility31QDeclarativeDocumentGalleryItemEEEiPKcPT_)
    qRegisterMetaType<QDeclarativeListProperty<QtMobility::QDeclarativeDocumentGalleryType>>(const char*, T1*) 0x0000f785   Thumb Code   100  qdeclarativegallery.o(t._Z17qRegisterMetaTypeI24QDeclarativeListPropertyIN10QtMobility31QDeclarativeDocumentGalleryTypeEEEiPKcPT_)
    qRegisterMetaType<QDeclarativeListProperty<QtMobility::QDeclarativeGalleryEqualsFilter>>(const char*, T1*) 0x0000f7f9   Thumb Code   100  qdeclarativegallery.o(t._Z17qRegisterMetaTypeI24QDeclarativeListPropertyIN10QtMobility31QDeclarativeGalleryEqualsFilterEEEiPKcPT_)
    qRegisterMetaType<QDeclarativeListProperty<QtMobility::QDeclarativeDocumentGalleryModel>>(const char*, T1*) 0x0000f86d   Thumb Code   100  qdeclarativegallery.o(t._Z17qRegisterMetaTypeI24QDeclarativeListPropertyIN10QtMobility32QDeclarativeDocumentGalleryModelEEEiPKcPT_)
    qRegisterMetaType<QDeclarativeListProperty<QtMobility::QDeclarativeGalleryContainsFilter>>(const char*, T1*) 0x0000f8e1   Thumb Code   100  qdeclarativegallery.o(t._Z17qRegisterMetaTypeI24QDeclarativeListPropertyIN10QtMobility33QDeclarativeGalleryContainsFilterEEEiPKcPT_)
    qRegisterMetaType<QDeclarativeListProperty<QtMobility::QDeclarativeGalleryEndsWithFilter>>(const char*, T1*) 0x0000f955   Thumb Code   100  qdeclarativegallery.o(t._Z17qRegisterMetaTypeI24QDeclarativeListPropertyIN10QtMobility33QDeclarativeGalleryEndsWithFilterEEEiPKcPT_)
    qRegisterMetaType<QDeclarativeListProperty<QtMobility::QDeclarativeGalleryLessThanFilter>>(const char*, T1*) 0x0000f9c9   Thumb Code   100  qdeclarativegallery.o(t._Z17qRegisterMetaTypeI24QDeclarativeListPropertyIN10QtMobility33QDeclarativeGalleryLessThanFilterEEEiPKcPT_)
    qRegisterMetaType<QDeclarativeListProperty<QtMobility::QDeclarativeGalleryWildcardFilter>>(const char*, T1*) 0x0000fa3d   Thumb Code   100  qdeclarativegallery.o(t._Z17qRegisterMetaTypeI24QDeclarativeListPropertyIN10QtMobility33QDeclarativeGalleryWildcardFilterEEEiPKcPT_)
    qRegisterMetaType<QDeclarativeListProperty<QtMobility::QDeclarativeGalleryStartsWithFilter>>(const char*, T1*) 0x0000fab1   Thumb Code   100  qdeclarativegallery.o(t._Z17qRegisterMetaTypeI24QDeclarativeListPropertyIN10QtMobility35QDeclarativeGalleryStartsWithFilterEEEiPKcPT_)
    qRegisterMetaType<QDeclarativeListProperty<QtMobility::QDeclarativeGalleryGreaterThanFilter>>(const char*, T1*) 0x0000fb25   Thumb Code   100  qdeclarativegallery.o(t._Z17qRegisterMetaTypeI24QDeclarativeListPropertyIN10QtMobility36QDeclarativeGalleryGreaterThanFilterEEEiPKcPT_)
    qRegisterMetaType<QDeclarativeListProperty<QtMobility::QDeclarativeGalleryFilterIntersection>>(const char*, T1*) 0x0000fb99   Thumb Code   100  qdeclarativegallery.o(t._Z17qRegisterMetaTypeI24QDeclarativeListPropertyIN10QtMobility37QDeclarativeGalleryFilterIntersectionEEEiPKcPT_)
    qRegisterMetaType<QDeclarativeListProperty<QtMobility::QDeclarativeGalleryLessThanEqualsFilter>>(const char*, T1*) 0x0000fc0d   Thumb Code   100  qdeclarativegallery.o(t._Z17qRegisterMetaTypeI24QDeclarativeListPropertyIN10QtMobility39QDeclarativeGalleryLessThanEqualsFilterEEEiPKcPT_)
    qRegisterMetaType<QDeclarativeListProperty<QtMobility::QDeclarativeGalleryGreaterThanEqualsFilter>>(const char*, T1*) 0x0000fc81   Thumb Code   100  qdeclarativegallery.o(t._Z17qRegisterMetaTypeI24QDeclarativeListPropertyIN10QtMobility42QDeclarativeGalleryGreaterThanEqualsFilterEEEiPKcPT_)
    qRegisterMetaType<QtMobility::QDeclarativeDocumentGallery::ItemType>(const char*, T1*) 0x0000fcf5   Thumb Code    56  qdeclarativegallery.o(t._Z17qRegisterMetaTypeIN10QtMobility27QDeclarativeDocumentGallery8ItemTypeEEiPKcPT_)
    qRegisterMetaType<QtMobility::QDeclarativeDocumentGallery*>(const char*, T1*) 0x0000fd35   Thumb Code    56  qdeclarativegallery.o(t._Z17qRegisterMetaTypeIPN10QtMobility27QDeclarativeDocumentGalleryEEiPKcPT_)
    qRegisterMetaType<QtMobility::QDeclarativeGalleryFilterBase*>(const char*, T1*) 0x0000fd75   Thumb Code   100  qdeclarativegallery.o(t._Z17qRegisterMetaTypeIPN10QtMobility29QDeclarativeGalleryFilterBaseEEiPKcPT_)
    qRegisterMetaType<QtMobility::QDeclarativeGalleryFilterUnion*>(const char*, T1*) 0x0000fe15   Thumb Code   100  qdeclarativegallery.o(t._Z17qRegisterMetaTypeIPN10QtMobility30QDeclarativeGalleryFilterUnionEEiPKcPT_)
    qRegisterMetaType<QtMobility::QDeclarativeDocumentGalleryItem*>(const char*, T1*) 0x0000feb5   Thumb Code   100  qdeclarativegallery.o(t._Z17qRegisterMetaTypeIPN10QtMobility31QDeclarativeDocumentGalleryItemEEiPKcPT_)
    qRegisterMetaType<QtMobility::QDeclarativeDocumentGalleryType*>(const char*, T1*) 0x0000ff55   Thumb Code   100  qdeclarativegallery.o(t._Z17qRegisterMetaTypeIPN10QtMobility31QDeclarativeDocumentGalleryTypeEEiPKcPT_)
    qRegisterMetaType<QtMobility::QDeclarativeGalleryEqualsFilter*>(const char*, T1*) 0x0000fff5   Thumb Code   100  qdeclarativegallery.o(t._Z17qRegisterMetaTypeIPN10QtMobility31QDeclarativeGalleryEqualsFilterEEiPKcPT_)
    qRegisterMetaType<QtMobility::QDeclarativeDocumentGalleryModel*>(const char*, T1*) 0x00010095   Thumb Code   100  qdeclarativegallery.o(t._Z17qRegisterMetaTypeIPN10QtMobility32QDeclarativeDocumentGalleryModelEEiPKcPT_)
    qRegisterMetaType<QtMobility::QDeclarativeGalleryContainsFilter*>(const char*, T1*) 0x00010139   Thumb Code   100  qdeclarativegallery.o(t._Z17qRegisterMetaTypeIPN10QtMobility33QDeclarativeGalleryContainsFilterEEiPKcPT_)
    qRegisterMetaType<QtMobility::QDeclarativeGalleryEndsWithFilter*>(const char*, T1*) 0x000101dd   Thumb Code   100  qdeclarativegallery.o(t._Z17qRegisterMetaTypeIPN10QtMobility33QDeclarativeGalleryEndsWithFilterEEiPKcPT_)
    qRegisterMetaType<QtMobility::QDeclarativeGalleryLessThanFilter*>(const char*, T1*) 0x00010281   Thumb Code   100  qdeclarativegallery.o(t._Z17qRegisterMetaTypeIPN10QtMobility33QDeclarativeGalleryLessThanFilterEEiPKcPT_)
    qRegisterMetaType<QtMobility::QDeclarativeGalleryWildcardFilter*>(const char*, T1*) 0x00010325   Thumb Code   100  qdeclarativegallery.o(t._Z17qRegisterMetaTypeIPN10QtMobility33QDeclarativeGalleryWildcardFilterEEiPKcPT_)
    qRegisterMetaType<QtMobility::QDeclarativeGalleryStartsWithFilter*>(const char*, T1*) 0x000103c9   Thumb Code   100  qdeclarativegallery.o(t._Z17qRegisterMetaTypeIPN10QtMobility35QDeclarativeGalleryStartsWithFilterEEiPKcPT_)
    qRegisterMetaType<QtMobility::QDeclarativeGalleryGreaterThanFilter*>(const char*, T1*) 0x0001046d   Thumb Code   100  qdeclarativegallery.o(t._Z17qRegisterMetaTypeIPN10QtMobility36QDeclarativeGalleryGreaterThanFilterEEiPKcPT_)
    qRegisterMetaType<QtMobility::QDeclarativeGalleryFilterIntersection*>(const char*, T1*) 0x00010515   Thumb Code   100  qdeclarativegallery.o(t._Z17qRegisterMetaTypeIPN10QtMobility37QDeclarativeGalleryFilterIntersectionEEiPKcPT_)
    qRegisterMetaType<QtMobility::QDeclarativeGalleryLessThanEqualsFilter*>(const char*, T1*) 0x000105bd   Thumb Code   100  qdeclarativegallery.o(t._Z17qRegisterMetaTypeIPN10QtMobility39QDeclarativeGalleryLessThanEqualsFilterEEiPKcPT_)
    qRegisterMetaType<QtMobility::QDeclarativeGalleryGreaterThanEqualsFilter*>(const char*, T1*) 0x00010665   Thumb Code   100  qdeclarativegallery.o(t._Z17qRegisterMetaTypeIPN10QtMobility42QDeclarativeGalleryGreaterThanEqualsFilterEEiPKcPT_)
    qMetaTypeDeleteHelper<QDeclarativeListProperty<QtMobility::QDeclarativeDocumentGallery>>(T1*) 0x00010711   Thumb Code    12  qdeclarativegallery.o(t._Z21qMetaTypeDeleteHelperI24QDeclarativeListPropertyIN10QtMobility27QDeclarativeDocumentGalleryEEEvPT_)
    qMetaTypeDeleteHelper<QDeclarativeListProperty<QtMobility::QDeclarativeGalleryFilterBase>>(T1*) 0x0001071d   Thumb Code    12  qdeclarativegallery.o(t._Z21qMetaTypeDeleteHelperI24QDeclarativeListPropertyIN10QtMobility29QDeclarativeGalleryFilterBaseEEEvPT_)
    qMetaTypeDeleteHelper<QDeclarativeListProperty<QtMobility::QDeclarativeGalleryFilterUnion>>(T1*) 0x00010729   Thumb Code    12  qdeclarativegallery.o(t._Z21qMetaTypeDeleteHelperI24QDeclarativeListPropertyIN10QtMobility30QDeclarativeGalleryFilterUnionEEEvPT_)
    qMetaTypeDeleteHelper<QDeclarativeListProperty<QtMobility::QDeclarativeDocumentGalleryItem>>(T1*) 0x00010735   Thumb Code    12  qdeclarativegallery.o(t._Z21qMetaTypeDeleteHelperI24QDeclarativeListPropertyIN10QtMobility31QDeclarativeDocumentGalleryItemEEEvPT_)
    qMetaTypeDeleteHelper<QDeclarativeListProperty<QtMobility::QDeclarativeDocumentGalleryType>>(T1*) 0x00010741   Thumb Code    12  qdeclarativegallery.o(t._Z21qMetaTypeDeleteHelperI24QDeclarativeListPropertyIN10QtMobility31QDeclarativeDocumentGalleryTypeEEEvPT_)
    qMetaTypeDeleteHelper<QDeclarativeListProperty<QtMobility::QDeclarativeGalleryEqualsFilter>>(T1*) 0x0001074d   Thumb Code    12  qdeclarativegallery.o(t._Z21qMetaTypeDeleteHelperI24QDeclarativeListPropertyIN10QtMobility31QDeclarativeGalleryEqualsFilterEEEvPT_)
    qMetaTypeDeleteHelper<QDeclarativeListProperty<QtMobility::QDeclarativeDocumentGalleryModel>>(T1*) 0x00010759   Thumb Code    12  qdeclarativegallery.o(t._Z21qMetaTypeDeleteHelperI24QDeclarativeListPropertyIN10QtMobility32QDeclarativeDocumentGalleryModelEEEvPT_)
    qMetaTypeDeleteHelper<QDeclarativeListProperty<QtMobility::QDeclarativeGalleryContainsFilter>>(T1*) 0x00010765   Thumb Code    12  qdeclarativegallery.o(t._Z21qMetaTypeDeleteHelperI24QDeclarativeListPropertyIN10QtMobility33QDeclarativeGalleryContainsFilterEEEvPT_)
    qMetaTypeDeleteHelper<QDeclarativeListProperty<QtMobility::QDeclarativeGalleryEndsWithFilter>>(T1*) 0x00010771   Thumb Code    12  qdeclarativegallery.o(t._Z21qMetaTypeDeleteHelperI24QDeclarativeListPropertyIN10QtMobility33QDeclarativeGalleryEndsWithFilterEEEvPT_)
    qMetaTypeDeleteHelper<QDeclarativeListProperty<QtMobility::QDeclarativeGalleryLessThanFilter>>(T1*) 0x0001077d   Thumb Code    12  qdeclarativegallery.o(t._Z21qMetaTypeDeleteHelperI24QDeclarativeListPropertyIN10QtMobility33QDeclarativeGalleryLessThanFilterEEEvPT_)
    qMetaTypeDeleteHelper<QDeclarativeListProperty<QtMobility::QDeclarativeGalleryWildcardFilter>>(T1*) 0x00010789   Thumb Code    12  qdeclarativegallery.o(t._Z21qMetaTypeDeleteHelperI24QDeclarativeListPropertyIN10QtMobility33QDeclarativeGalleryWildcardFilterEEEvPT_)
    qMetaTypeDeleteHelper<QDeclarativeListProperty<QtMobility::QDeclarativeGalleryStartsWithFilter>>(T1*) 0x00010795   Thumb Code    12  qdeclarativegallery.o(t._Z21qMetaTypeDeleteHelperI24QDeclarativeListPropertyIN10QtMobility35QDeclarativeGalleryStartsWithFilterEEEvPT_)
    qMetaTypeDeleteHelper<QDeclarativeListProperty<QtMobility::QDeclarativeGalleryGreaterThanFilter>>(T1*) 0x000107a1   Thumb Code    12  qdeclarativegallery.o(t._Z21qMetaTypeDeleteHelperI24QDeclarativeListPropertyIN10QtMobility36QDeclarativeGalleryGreaterThanFilterEEEvPT_)
    qMetaTypeDeleteHelper<QDeclarativeListProperty<QtMobility::QDeclarativeGalleryFilterIntersection>>(T1*) 0x000107ad   Thumb Code    12  qdeclarativegallery.o(t._Z21qMetaTypeDeleteHelperI24QDeclarativeListPropertyIN10QtMobility37QDeclarativeGalleryFilterIntersectionEEEvPT_)
    qMetaTypeDeleteHelper<QDeclarativeListProperty<QtMobility::QDeclarativeGalleryLessThanEqualsFilter>>(T1*) 0x000107b9   Thumb Code    12  qdeclarativegallery.o(t._Z21qMetaTypeDeleteHelperI24QDeclarativeListPropertyIN10QtMobility39QDeclarativeGalleryLessThanEqualsFilterEEEvPT_)
    qMetaTypeDeleteHelper<QDeclarativeListProperty<QtMobility::QDeclarativeGalleryGreaterThanEqualsFilter>>(T1*) 0x000107c5   Thumb Code    12  qdeclarativegallery.o(t._Z21qMetaTypeDeleteHelperI24QDeclarativeListPropertyIN10QtMobility42QDeclarativeGalleryGreaterThanEqualsFilterEEEvPT_)
    qMetaTypeDeleteHelper<QtMobility::QDeclarativeDocumentGallery::ItemType>(T1*) 0x000107d1   Thumb Code    12  qdeclarativegallery.o(t._Z21qMetaTypeDeleteHelperIN10QtMobility27QDeclarativeDocumentGallery8ItemTypeEEvPT_)
    qMetaTypeDeleteHelper<QtMobility::QDeclarativeDocumentGallery*>(T1*) 0x000107dd   Thumb Code    12  qdeclarativegallery.o(t._Z21qMetaTypeDeleteHelperIPN10QtMobility27QDeclarativeDocumentGalleryEEvPT_)
    qMetaTypeDeleteHelper<QtMobility::QDeclarativeGalleryFilterBase*>(T1*) 0x000107e9   Thumb Code    12  qdeclarativegallery.o(t._Z21qMetaTypeDeleteHelperIPN10QtMobility29QDeclarativeGalleryFilterBaseEEvPT_)
    qMetaTypeDeleteHelper<QtMobility::QDeclarativeGalleryFilterUnion*>(T1*) 0x000107f5   Thumb Code    12  qdeclarativegallery.o(t._Z21qMetaTypeDeleteHelperIPN10QtMobility30QDeclarativeGalleryFilterUnionEEvPT_)
    qMetaTypeDeleteHelper<QtMobility::QDeclarativeDocumentGalleryItem*>(T1*) 0x00010801   Thumb Code    12  qdeclarativegallery.o(t._Z21qMetaTypeDeleteHelperIPN10QtMobility31QDeclarativeDocumentGalleryItemEEvPT_)
    qMetaTypeDeleteHelper<QtMobility::QDeclarativeDocumentGalleryType*>(T1*) 0x0001080d   Thumb Code    12  qdeclarativegallery.o(t._Z21qMetaTypeDeleteHelperIPN10QtMobility31QDeclarativeDocumentGalleryTypeEEvPT_)
    qMetaTypeDeleteHelper<QtMobility::QDeclarativeGalleryEqualsFilter*>(T1*) 0x00010819   Thumb Code    12  qdeclarativegallery.o(t._Z21qMetaTypeDeleteHelperIPN10QtMobility31QDeclarativeGalleryEqualsFilterEEvPT_)
    qMetaTypeDeleteHelper<QtMobility::QDeclarativeDocumentGalleryModel*>(T1*) 0x00010825   Thumb Code    12  qdeclarativegallery.o(t._Z21qMetaTypeDeleteHelperIPN10QtMobility32QDeclarativeDocumentGalleryModelEEvPT_)
    qMetaTypeDeleteHelper<QtMobility::QDeclarativeGalleryContainsFilter*>(T1*) 0x00010831   Thumb Code    12  qdeclarativegallery.o(t._Z21qMetaTypeDeleteHelperIPN10QtMobility33QDeclarativeGalleryContainsFilterEEvPT_)
    qMetaTypeDeleteHelper<QtMobility::QDeclarativeGalleryEndsWithFilter*>(T1*) 0x0001083d   Thumb Code    12  qdeclarativegallery.o(t._Z21qMetaTypeDeleteHelperIPN10QtMobility33QDeclarativeGalleryEndsWithFilterEEvPT_)
    qMetaTypeDeleteHelper<QtMobility::QDeclarativeGalleryLessThanFilter*>(T1*) 0x00010849   Thumb Code    12  qdeclarativegallery.o(t._Z21qMetaTypeDeleteHelperIPN10QtMobility33QDeclarativeGalleryLessThanFilterEEvPT_)
    qMetaTypeDeleteHelper<QtMobility::QDeclarativeGalleryWildcardFilter*>(T1*) 0x00010855   Thumb Code    12  qdeclarativegallery.o(t._Z21qMetaTypeDeleteHelperIPN10QtMobility33QDeclarativeGalleryWildcardFilterEEvPT_)
    qMetaTypeDeleteHelper<QtMobility::QDeclarativeGalleryStartsWithFilter*>(T1*) 0x00010861   Thumb Code    12  qdeclarativegallery.o(t._Z21qMetaTypeDeleteHelperIPN10QtMobility35QDeclarativeGalleryStartsWithFilterEEvPT_)
    qMetaTypeDeleteHelper<QtMobility::QDeclarativeGalleryGreaterThanFilter*>(T1*) 0x0001086d   Thumb Code    12  qdeclarativegallery.o(t._Z21qMetaTypeDeleteHelperIPN10QtMobility36QDeclarativeGalleryGreaterThanFilterEEvPT_)
    qMetaTypeDeleteHelper<QtMobility::QDeclarativeGalleryFilterIntersection*>(T1*) 0x00010879   Thumb Code    12  qdeclarativegallery.o(t._Z21qMetaTypeDeleteHelperIPN10QtMobility37QDeclarativeGalleryFilterIntersectionEEvPT_)
    qMetaTypeDeleteHelper<QtMobility::QDeclarativeGalleryLessThanEqualsFilter*>(T1*) 0x00010885   Thumb Code    12  qdeclarativegallery.o(t._Z21qMetaTypeDeleteHelperIPN10QtMobility39QDeclarativeGalleryLessThanEqualsFilterEEvPT_)
    qMetaTypeDeleteHelper<QtMobility::QDeclarativeGalleryGreaterThanEqualsFilter*>(T1*) 0x00010891   Thumb Code    12  qdeclarativegallery.o(t._Z21qMetaTypeDeleteHelperIPN10QtMobility42QDeclarativeGalleryGreaterThanEqualsFilterEEvPT_)
    qScriptValueFromValue<QVariant>(QScriptEngine*, const T1&) 0x0001089d   Thumb Code    76  qdeclarativegalleryquerymodel.o(t._Z21qScriptValueFromValueI8QVariantE12QScriptValueP13QScriptEngineRKT_)
    qMetaTypeConstructHelper<QDeclarativeListProperty<QtMobility::QDeclarativeDocumentGallery>>(const T1*) 0x000108f9   Thumb Code   150  qdeclarativegallery.o(t._Z24qMetaTypeConstructHelperI24QDeclarativeListPropertyIN10QtMobility27QDeclarativeDocumentGalleryEEEPvPKT_)
    qMetaTypeConstructHelper<QDeclarativeListProperty<QtMobility::QDeclarativeGalleryFilterBase>>(const T1*) 0x00010993   Thumb Code   150  qdeclarativegallery.o(t._Z24qMetaTypeConstructHelperI24QDeclarativeListPropertyIN10QtMobility29QDeclarativeGalleryFilterBaseEEEPvPKT_)
    qMetaTypeConstructHelper<QDeclarativeListProperty<QtMobility::QDeclarativeGalleryFilterUnion>>(const T1*) 0x00010a2d   Thumb Code   150  qdeclarativegallery.o(t._Z24qMetaTypeConstructHelperI24QDeclarativeListPropertyIN10QtMobility30QDeclarativeGalleryFilterUnionEEEPvPKT_)
    qMetaTypeConstructHelper<QDeclarativeListProperty<QtMobility::QDeclarativeDocumentGalleryItem>>(const T1*) 0x00010ac7   Thumb Code   150  qdeclarativegallery.o(t._Z24qMetaTypeConstructHelperI24QDeclarativeListPropertyIN10QtMobility31QDeclarativeDocumentGalleryItemEEEPvPKT_)
    qMetaTypeConstructHelper<QDeclarativeListProperty<QtMobility::QDeclarativeDocumentGalleryType>>(const T1*) 0x00010b61   Thumb Code   150  qdeclarativegallery.o(t._Z24qMetaTypeConstructHelperI24QDeclarativeListPropertyIN10QtMobility31QDeclarativeDocumentGalleryTypeEEEPvPKT_)
    qMetaTypeConstructHelper<QDeclarativeListProperty<QtMobility::QDeclarativeGalleryEqualsFilter>>(const T1*) 0x00010bfb   Thumb Code   150  qdeclarativegallery.o(t._Z24qMetaTypeConstructHelperI24QDeclarativeListPropertyIN10QtMobility31QDeclarativeGalleryEqualsFilterEEEPvPKT_)
    qMetaTypeConstructHelper<QDeclarativeListProperty<QtMobility::QDeclarativeDocumentGalleryModel>>(const T1*) 0x00010c95   Thumb Code   150  qdeclarativegallery.o(t._Z24qMetaTypeConstructHelperI24QDeclarativeListPropertyIN10QtMobility32QDeclarativeDocumentGalleryModelEEEPvPKT_)
    qMetaTypeConstructHelper<QDeclarativeListProperty<QtMobility::QDeclarativeGalleryContainsFilter>>(const T1*) 0x00010d2f   Thumb Code   150  qdeclarativegallery.o(t._Z24qMetaTypeConstructHelperI24QDeclarativeListPropertyIN10QtMobility33QDeclarativeGalleryContainsFilterEEEPvPKT_)
    qMetaTypeConstructHelper<QDeclarativeListProperty<QtMobility::QDeclarativeGalleryEndsWithFilter>>(const T1*) 0x00010dc9   Thumb Code   150  qdeclarativegallery.o(t._Z24qMetaTypeConstructHelperI24QDeclarativeListPropertyIN10QtMobility33QDeclarativeGalleryEndsWithFilterEEEPvPKT_)
    qMetaTypeConstructHelper<QDeclarativeListProperty<QtMobility::QDeclarativeGalleryLessThanFilter>>(const T1*) 0x00010e63   Thumb Code   150  qdeclarativegallery.o(t._Z24qMetaTypeConstructHelperI24QDeclarativeListPropertyIN10QtMobility33QDeclarativeGalleryLessThanFilterEEEPvPKT_)
    qMetaTypeConstructHelper<QDeclarativeListProperty<QtMobility::QDeclarativeGalleryWildcardFilter>>(const T1*) 0x00010efd   Thumb Code   150  qdeclarativegallery.o(t._Z24qMetaTypeConstructHelperI24QDeclarativeListPropertyIN10QtMobility33QDeclarativeGalleryWildcardFilterEEEPvPKT_)
    qMetaTypeConstructHelper<QDeclarativeListProperty<QtMobility::QDeclarativeGalleryStartsWithFilter>>(const T1*) 0x00010f97   Thumb Code   150  qdeclarativegallery.o(t._Z24qMetaTypeConstructHelperI24QDeclarativeListPropertyIN10QtMobility35QDeclarativeGalleryStartsWithFilterEEEPvPKT_)
    qMetaTypeConstructHelper<QDeclarativeListProperty<QtMobility::QDeclarativeGalleryGreaterThanFilter>>(const T1*) 0x00011031   Thumb Code   150  qdeclarativegallery.o(t._Z24qMetaTypeConstructHelperI24QDeclarativeListPropertyIN10QtMobility36QDeclarativeGalleryGreaterThanFilterEEEPvPKT_)
    qMetaTypeConstructHelper<QDeclarativeListProperty<QtMobility::QDeclarativeGalleryFilterIntersection>>(const T1*) 0x000110cb   Thumb Code   150  qdeclarativegallery.o(t._Z24qMetaTypeConstructHelperI24QDeclarativeListPropertyIN10QtMobility37QDeclarativeGalleryFilterIntersectionEEEPvPKT_)
    qMetaTypeConstructHelper<QDeclarativeListProperty<QtMobility::QDeclarativeGalleryLessThanEqualsFilter>>(const T1*) 0x00011165   Thumb Code   150  qdeclarativegallery.o(t._Z24qMetaTypeConstructHelperI24QDeclarativeListPropertyIN10QtMobility39QDeclarativeGalleryLessThanEqualsFilterEEEPvPKT_)
    qMetaTypeConstructHelper<QDeclarativeListProperty<QtMobility::QDeclarativeGalleryGreaterThanEqualsFilter>>(const T1*) 0x000111ff   Thumb Code   150  qdeclarativegallery.o(t._Z24qMetaTypeConstructHelperI24QDeclarativeListPropertyIN10QtMobility42QDeclarativeGalleryGreaterThanEqualsFilterEEEPvPKT_)
    qMetaTypeConstructHelper<QtMobility::QDeclarativeDocumentGallery::ItemType>(const T1*) 0x00011299   Thumb Code    50  qdeclarativegallery.o(t._Z24qMetaTypeConstructHelperIN10QtMobility27QDeclarativeDocumentGallery8ItemTypeEEPvPKT_)
    qMetaTypeConstructHelper<QtMobility::QDeclarativeDocumentGallery*>(const T1*) 0x000112cb   Thumb Code    50  qdeclarativegallery.o(t._Z24qMetaTypeConstructHelperIPN10QtMobility27QDeclarativeDocumentGalleryEEPvPKT_)
    qMetaTypeConstructHelper<QtMobility::QDeclarativeGalleryFilterBase*>(const T1*) 0x000112fd   Thumb Code    50  qdeclarativegallery.o(t._Z24qMetaTypeConstructHelperIPN10QtMobility29QDeclarativeGalleryFilterBaseEEPvPKT_)
    qMetaTypeConstructHelper<QtMobility::QDeclarativeGalleryFilterUnion*>(const T1*) 0x0001132f   Thumb Code    50  qdeclarativegallery.o(t._Z24qMetaTypeConstructHelperIPN10QtMobility30QDeclarativeGalleryFilterUnionEEPvPKT_)
    qMetaTypeConstructHelper<QtMobility::QDeclarativeDocumentGalleryItem*>(const T1*) 0x00011361   Thumb Code    50  qdeclarativegallery.o(t._Z24qMetaTypeConstructHelperIPN10QtMobility31QDeclarativeDocumentGalleryItemEEPvPKT_)
    qMetaTypeConstructHelper<QtMobility::QDeclarativeDocumentGalleryType*>(const T1*) 0x00011393   Thumb Code    50  qdeclarativegallery.o(t._Z24qMetaTypeConstructHelperIPN10QtMobility31QDeclarativeDocumentGalleryTypeEEPvPKT_)
    qMetaTypeConstructHelper<QtMobility::QDeclarativeGalleryEqualsFilter*>(const T1*) 0x000113c5   Thumb Code    50  qdeclarativegallery.o(t._Z24qMetaTypeConstructHelperIPN10QtMobility31QDeclarativeGalleryEqualsFilterEEPvPKT_)
    qMetaTypeConstructHelper<QtMobility::QDeclarativeDocumentGalleryModel*>(const T1*) 0x000113f7   Thumb Code    50  qdeclarativegallery.o(t._Z24qMetaTypeConstructHelperIPN10QtMobility32QDeclarativeDocumentGalleryModelEEPvPKT_)
    qMetaTypeConstructHelper<QtMobility::QDeclarativeGalleryContainsFilter*>(const T1*) 0x00011429   Thumb Code    50  qdeclarativegallery.o(t._Z24qMetaTypeConstructHelperIPN10QtMobility33QDeclarativeGalleryContainsFilterEEPvPKT_)
    qMetaTypeConstructHelper<QtMobility::QDeclarativeGalleryEndsWithFilter*>(const T1*) 0x0001145b   Thumb Code    50  qdeclarativegallery.o(t._Z24qMetaTypeConstructHelperIPN10QtMobility33QDeclarativeGalleryEndsWithFilterEEPvPKT_)
    qMetaTypeConstructHelper<QtMobility::QDeclarativeGalleryLessThanFilter*>(const T1*) 0x0001148d   Thumb Code    50  qdeclarativegallery.o(t._Z24qMetaTypeConstructHelperIPN10QtMobility33QDeclarativeGalleryLessThanFilterEEPvPKT_)
    qMetaTypeConstructHelper<QtMobility::QDeclarativeGalleryWildcardFilter*>(const T1*) 0x000114bf   Thumb Code    50  qdeclarativegallery.o(t._Z24qMetaTypeConstructHelperIPN10QtMobility33QDeclarativeGalleryWildcardFilterEEPvPKT_)
    qMetaTypeConstructHelper<QtMobility::QDeclarativeGalleryStartsWithFilter*>(const T1*) 0x000114f1   Thumb Code    50  qdeclarativegallery.o(t._Z24qMetaTypeConstructHelperIPN10QtMobility35QDeclarativeGalleryStartsWithFilterEEPvPKT_)
    qMetaTypeConstructHelper<QtMobility::QDeclarativeGalleryGreaterThanFilter*>(const T1*) 0x00011523   Thumb Code    50  qdeclarativegallery.o(t._Z24qMetaTypeConstructHelperIPN10QtMobility36QDeclarativeGalleryGreaterThanFilterEEPvPKT_)
    qMetaTypeConstructHelper<QtMobility::QDeclarativeGalleryFilterIntersection*>(const T1*) 0x00011555   Thumb Code    50  qdeclarativegallery.o(t._Z24qMetaTypeConstructHelperIPN10QtMobility37QDeclarativeGalleryFilterIntersectionEEPvPKT_)
    qMetaTypeConstructHelper<QtMobility::QDeclarativeGalleryLessThanEqualsFilter*>(const T1*) 0x00011587   Thumb Code    50  qdeclarativegallery.o(t._Z24qMetaTypeConstructHelperIPN10QtMobility39QDeclarativeGalleryLessThanEqualsFilterEEPvPKT_)
    qMetaTypeConstructHelper<QtMobility::QDeclarativeGalleryGreaterThanEqualsFilter*>(const T1*) 0x000115b9   Thumb Code    50  qdeclarativegallery.o(t._Z24qMetaTypeConstructHelperIPN10QtMobility42QDeclarativeGalleryGreaterThanEqualsFilterEEPvPKT_)
    qmlRegisterUncreatableType<QtMobility::QDeclarativeDocumentGallery>(const char*, int, int, const char*, const QString&) 0x000115ed   Thumb Code   250  qdeclarativegallery.o(t._Z26qmlRegisterUncreatableTypeIN10QtMobility27QDeclarativeDocumentGalleryEEiPKciiS3_RK7QString)
    qMakePair<int, QString>(const T1&, const T2&) 0x00011745   Thumb Code    30  qdeclarativegalleryquerymodel.o(t._Z9qMakePairIi7QStringE5QPairIT_T0_ERKS2_RKS3_)
    QMetaTypeId2<QtMobility::QDeclarativeDocumentGallery::ItemType>::qt_metatype_id() 0x00011765   Thumb Code    44  qdeclarativegallery.o(t._ZN12QMetaTypeId2IN10QtMobility27QDeclarativeDocumentGallery8ItemTypeEE14qt_metatype_idEv)
    QWeakPointer<QtMobility::QDeclarativeGalleryFilterBase>::~QWeakPointer() 0x000117d5   Thumb Code    42  qdeclarativegalleryquerymodel.o(t._ZN12QWeakPointerIN10QtMobility29QDeclarativeGalleryFilterBaseEED1Ev)
    QWeakPointer<QtMobility::QDeclarativeGalleryFilterBase>::~QWeakPointer__sub_object() 0x000117d5   Thumb Code     0  qdeclarativegalleryquerymodel.o(t._ZN12QWeakPointerIN10QtMobility29QDeclarativeGalleryFilterBaseEED1Ev)
    QDeclarativePrivate::createInto<QtMobility::QDeclarativeGalleryFilterUnion>(void*) 0x00011801   Thumb Code    58  qdeclarativegallery.o(t._ZN19QDeclarativePrivate10createIntoIN10QtMobility30QDeclarativeGalleryFilterUnionEEEvPv)
    QDeclarativePrivate::createInto<QtMobility::QDeclarativeDocumentGalleryItem>(void*) 0x00011851   Thumb Code    42  qdeclarativegallery.o(t._ZN19QDeclarativePrivate10createIntoIN10QtMobility31QDeclarativeDocumentGalleryItemEEEvPv)
    QDeclarativePrivate::createInto<QtMobility::QDeclarativeDocumentGalleryType>(void*) 0x0001188d   Thumb Code    42  qdeclarativegallery.o(t._ZN19QDeclarativePrivate10createIntoIN10QtMobility31QDeclarativeDocumentGalleryTypeEEEvPv)
    QDeclarativePrivate::createInto<QtMobility::QDeclarativeGalleryEqualsFilter>(void*) 0x000118c9   Thumb Code    50  qdeclarativegallery.o(t._ZN19QDeclarativePrivate10createIntoIN10QtMobility31QDeclarativeGalleryEqualsFilterEEEvPv)
    QDeclarativePrivate::createInto<QtMobility::QDeclarativeDocumentGalleryModel>(void*) 0x00011911   Thumb Code    42  qdeclarativegallery.o(t._ZN19QDeclarativePrivate10createIntoIN10QtMobility32QDeclarativeDocumentGalleryModelEEEvPv)
    QDeclarativePrivate::createInto<QtMobility::QDeclarativeGalleryContainsFilter>(void*) 0x0001194d   Thumb Code    50  qdeclarativegallery.o(t._ZN19QDeclarativePrivate10createIntoIN10QtMobility33QDeclarativeGalleryContainsFilterEEEvPv)
    QDeclarativePrivate::createInto<QtMobility::QDeclarativeGalleryEndsWithFilter>(void*) 0x00011995   Thumb Code    50  qdeclarativegallery.o(t._ZN19QDeclarativePrivate10createIntoIN10QtMobility33QDeclarativeGalleryEndsWithFilterEEEvPv)
    QDeclarativePrivate::createInto<QtMobility::QDeclarativeGalleryLessThanFilter>(void*) 0x000119dd   Thumb Code    50  qdeclarativegallery.o(t._ZN19QDeclarativePrivate10createIntoIN10QtMobility33QDeclarativeGalleryLessThanFilterEEEvPv)
    QDeclarativePrivate::createInto<QtMobility::QDeclarativeGalleryWildcardFilter>(void*) 0x00011a25   Thumb Code    50  qdeclarativegallery.o(t._ZN19QDeclarativePrivate10createIntoIN10QtMobility33QDeclarativeGalleryWildcardFilterEEEvPv)
    QDeclarativePrivate::createInto<QtMobility::QDeclarativeGalleryStartsWithFilter>(void*) 0x00011a6d   Thumb Code    50  qdeclarativegallery.o(t._ZN19QDeclarativePrivate10createIntoIN10QtMobility35QDeclarativeGalleryStartsWithFilterEEEvPv)
    QDeclarativePrivate::createInto<QtMobility::QDeclarativeGalleryGreaterThanFilter>(void*) 0x00011ab5   Thumb Code    50  qdeclarativegallery.o(t._ZN19QDeclarativePrivate10createIntoIN10QtMobility36QDeclarativeGalleryGreaterThanFilterEEEvPv)
    QDeclarativePrivate::createInto<QtMobility::QDeclarativeGalleryFilterIntersection>(void*) 0x00011afd   Thumb Code    58  qdeclarativegallery.o(t._ZN19QDeclarativePrivate10createIntoIN10QtMobility37QDeclarativeGalleryFilterIntersectionEEEvPv)
    QDeclarativePrivate::createInto<QtMobility::QDeclarativeGalleryLessThanEqualsFilter>(void*) 0x00011b4d   Thumb Code    50  qdeclarativegallery.o(t._ZN19QDeclarativePrivate10createIntoIN10QtMobility39QDeclarativeGalleryLessThanEqualsFilterEEEvPv)
    QDeclarativePrivate::createInto<QtMobility::QDeclarativeGalleryGreaterThanEqualsFilter>(void*) 0x00011b95   Thumb Code    50  qdeclarativegallery.o(t._ZN19QDeclarativePrivate10createIntoIN10QtMobility42QDeclarativeGalleryGreaterThanEqualsFilterEEEvPv)
    QDeclarativePrivate::QDeclarativeElement<QtMobility::QDeclarativeGalleryFilterUnion>::~QDeclarativeElement() 0x00011bdd   Thumb Code    30  qdeclarativegallery.o(t._ZN19QDeclarativePrivate19QDeclarativeElementIN10QtMobility30QDeclarativeGalleryFilterUnionEED1Ev)
    QDeclarativePrivate::QDeclarativeElement<QtMobility::QDeclarativeGalleryFilterUnion>::~QDeclarativeElement__sub_object() 0x00011bdd   Thumb Code     0  qdeclarativegallery.o(t._ZN19QDeclarativePrivate19QDeclarativeElementIN10QtMobility30QDeclarativeGalleryFilterUnionEED1Ev)
    QDeclarativePrivate::QDeclarativeElement<QtMobility::QDeclarativeDocumentGalleryItem>::~QDeclarativeElement() 0x00011c0d   Thumb Code    28  qdeclarativegallery.o(t._ZN19QDeclarativePrivate19QDeclarativeElementIN10QtMobility31QDeclarativeDocumentGalleryItemEED1Ev)
    QDeclarativePrivate::QDeclarativeElement<QtMobility::QDeclarativeDocumentGalleryItem>::~QDeclarativeElement__sub_object() 0x00011c0d   Thumb Code     0  qdeclarativegallery.o(t._ZN19QDeclarativePrivate19QDeclarativeElementIN10QtMobility31QDeclarativeDocumentGalleryItemEED1Ev)
    QDeclarativePrivate::QDeclarativeElement<QtMobility::QDeclarativeDocumentGalleryType>::~QDeclarativeElement() 0x00011c39   Thumb Code    28  qdeclarativegallery.o(t._ZN19QDeclarativePrivate19QDeclarativeElementIN10QtMobility31QDeclarativeDocumentGalleryTypeEED1Ev)
    QDeclarativePrivate::QDeclarativeElement<QtMobility::QDeclarativeDocumentGalleryType>::~QDeclarativeElement__sub_object() 0x00011c39   Thumb Code     0  qdeclarativegallery.o(t._ZN19QDeclarativePrivate19QDeclarativeElementIN10QtMobility31QDeclarativeDocumentGalleryTypeEED1Ev)
    QDeclarativePrivate::QDeclarativeElement<QtMobility::QDeclarativeGalleryEqualsFilter>::~QDeclarativeElement() 0x00011c65   Thumb Code    26  qdeclarativegallery.o(t._ZN19QDeclarativePrivate19QDeclarativeElementIN10QtMobility31QDeclarativeGalleryEqualsFilterEED1Ev)
    QDeclarativePrivate::QDeclarativeElement<QtMobility::QDeclarativeGalleryEqualsFilter>::~QDeclarativeElement__sub_object() 0x00011c65   Thumb Code     0  qdeclarativegallery.o(t._ZN19QDeclarativePrivate19QDeclarativeElementIN10QtMobility31QDeclarativeGalleryEqualsFilterEED1Ev)
    QDeclarativePrivate::QDeclarativeElement<QtMobility::QDeclarativeDocumentGalleryModel>::~QDeclarativeElement() 0x00011c91   Thumb Code    28  qdeclarativegallery.o(t._ZN19QDeclarativePrivate19QDeclarativeElementIN10QtMobility32QDeclarativeDocumentGalleryModelEED1Ev)
    QDeclarativePrivate::QDeclarativeElement<QtMobility::QDeclarativeDocumentGalleryModel>::~QDeclarativeElement__sub_object() 0x00011c91   Thumb Code     0  qdeclarativegallery.o(t._ZN19QDeclarativePrivate19QDeclarativeElementIN10QtMobility32QDeclarativeDocumentGalleryModelEED1Ev)
    QDeclarativePrivate::QDeclarativeElement<QtMobility::QDeclarativeGalleryContainsFilter>::~QDeclarativeElement() 0x00011cbd   Thumb Code    26  qdeclarativegallery.o(t._ZN19QDeclarativePrivate19QDeclarativeElementIN10QtMobility33QDeclarativeGalleryContainsFilterEED1Ev)
    QDeclarativePrivate::QDeclarativeElement<QtMobility::QDeclarativeGalleryContainsFilter>::~QDeclarativeElement__sub_object() 0x00011cbd   Thumb Code     0  qdeclarativegallery.o(t._ZN19QDeclarativePrivate19QDeclarativeElementIN10QtMobility33QDeclarativeGalleryContainsFilterEED1Ev)
    QDeclarativePrivate::QDeclarativeElement<QtMobility::QDeclarativeGalleryEndsWithFilter>::~QDeclarativeElement() 0x00011ce9   Thumb Code    26  qdeclarativegallery.o(t._ZN19QDeclarativePrivate19QDeclarativeElementIN10QtMobility33QDeclarativeGalleryEndsWithFilterEED1Ev)
    QDeclarativePrivate::QDeclarativeElement<QtMobility::QDeclarativeGalleryEndsWithFilter>::~QDeclarativeElement__sub_object() 0x00011ce9   Thumb Code     0  qdeclarativegallery.o(t._ZN19QDeclarativePrivate19QDeclarativeElementIN10QtMobility33QDeclarativeGalleryEndsWithFilterEED1Ev)
    QDeclarativePrivate::QDeclarativeElement<QtMobility::QDeclarativeGalleryLessThanFilter>::~QDeclarativeElement() 0x00011d15   Thumb Code    26  qdeclarativegallery.o(t._ZN19QDeclarativePrivate19QDeclarativeElementIN10QtMobility33QDeclarativeGalleryLessThanFilterEED1Ev)
    QDeclarativePrivate::QDeclarativeElement<QtMobility::QDeclarativeGalleryLessThanFilter>::~QDeclarativeElement__sub_object() 0x00011d15   Thumb Code     0  qdeclarativegallery.o(t._ZN19QDeclarativePrivate19QDeclarativeElementIN10QtMobility33QDeclarativeGalleryLessThanFilterEED1Ev)
    QDeclarativePrivate::QDeclarativeElement<QtMobility::QDeclarativeGalleryWildcardFilter>::~QDeclarativeElement() 0x00011d41   Thumb Code    26  qdeclarativegallery.o(t._ZN19QDeclarativePrivate19QDeclarativeElementIN10QtMobility33QDeclarativeGalleryWildcardFilterEED1Ev)
    QDeclarativePrivate::QDeclarativeElement<QtMobility::QDeclarativeGalleryWildcardFilter>::~QDeclarativeElement__sub_object() 0x00011d41   Thumb Code     0  qdeclarativegallery.o(t._ZN19QDeclarativePrivate19QDeclarativeElementIN10QtMobility33QDeclarativeGalleryWildcardFilterEED1Ev)
    QDeclarativePrivate::QDeclarativeElement<QtMobility::QDeclarativeGalleryStartsWithFilter>::~QDeclarativeElement() 0x00011d6d   Thumb Code    26  qdeclarativegallery.o(t._ZN19QDeclarativePrivate19QDeclarativeElementIN10QtMobility35QDeclarativeGalleryStartsWithFilterEED1Ev)
    QDeclarativePrivate::QDeclarativeElement<QtMobility::QDeclarativeGalleryStartsWithFilter>::~QDeclarativeElement__sub_object() 0x00011d6d   Thumb Code     0  qdeclarativegallery.o(t._ZN19QDeclarativePrivate19QDeclarativeElementIN10QtMobility35QDeclarativeGalleryStartsWithFilterEED1Ev)
    QDeclarativePrivate::QDeclarativeElement<QtMobility::QDeclarativeGalleryGreaterThanFilter>::~QDeclarativeElement() 0x00011d99   Thumb Code    26  qdeclarativegallery.o(t._ZN19QDeclarativePrivate19QDeclarativeElementIN10QtMobility36QDeclarativeGalleryGreaterThanFilterEED1Ev)
    QDeclarativePrivate::QDeclarativeElement<QtMobility::QDeclarativeGalleryGreaterThanFilter>::~QDeclarativeElement__sub_object() 0x00011d99   Thumb Code     0  qdeclarativegallery.o(t._ZN19QDeclarativePrivate19QDeclarativeElementIN10QtMobility36QDeclarativeGalleryGreaterThanFilterEED1Ev)
    QDeclarativePrivate::QDeclarativeElement<QtMobility::QDeclarativeGalleryFilterIntersection>::~QDeclarativeElement() 0x00011dc5   Thumb Code    30  qdeclarativegallery.o(t._ZN19QDeclarativePrivate19QDeclarativeElementIN10QtMobility37QDeclarativeGalleryFilterIntersectionEED1Ev)
    QDeclarativePrivate::QDeclarativeElement<QtMobility::QDeclarativeGalleryFilterIntersection>::~QDeclarativeElement__sub_object() 0x00011dc5   Thumb Code     0  qdeclarativegallery.o(t._ZN19QDeclarativePrivate19QDeclarativeElementIN10QtMobility37QDeclarativeGalleryFilterIntersectionEED1Ev)
    QDeclarativePrivate::QDeclarativeElement<QtMobility::QDeclarativeGalleryLessThanEqualsFilter>::~QDeclarativeElement() 0x00011df5   Thumb Code    26  qdeclarativegallery.o(t._ZN19QDeclarativePrivate19QDeclarativeElementIN10QtMobility39QDeclarativeGalleryLessThanEqualsFilterEED1Ev)
    QDeclarativePrivate::QDeclarativeElement<QtMobility::QDeclarativeGalleryLessThanEqualsFilter>::~QDeclarativeElement__sub_object() 0x00011df5   Thumb Code     0  qdeclarativegallery.o(t._ZN19QDeclarativePrivate19QDeclarativeElementIN10QtMobility39QDeclarativeGalleryLessThanEqualsFilterEED1Ev)
    QDeclarativePrivate::QDeclarativeElement<QtMobility::QDeclarativeGalleryGreaterThanEqualsFilter>::~QDeclarativeElement() 0x00011e21   Thumb Code    26  qdeclarativegallery.o(t._ZN19QDeclarativePrivate19QDeclarativeElementIN10QtMobility42QDeclarativeGalleryGreaterThanEqualsFilterEED1Ev)
    QDeclarativePrivate::QDeclarativeElement<QtMobility::QDeclarativeGalleryGreaterThanEqualsFilter>::~QDeclarativeElement__sub_object() 0x00011e21   Thumb Code     0  qdeclarativegallery.o(t._ZN19QDeclarativePrivate19QDeclarativeElementIN10QtMobility42QDeclarativeGalleryGreaterThanEqualsFilterEED1Ev)
    QGlobalStaticDeleter<QtMobility::QDocumentGallery>::~QGlobalStaticDeleter() 0x00011e4b   Thumb Code    38  qdeclarativedocumentgallery.o(t._ZN20QGlobalStaticDeleterIN10QtMobility16QDocumentGalleryEED1Ev)
    QGlobalStaticDeleter<QtMobility::QDocumentGallery>::~QGlobalStaticDeleter__sub_object() 0x00011e4b   Thumb Code     0  qdeclarativedocumentgallery.o(t._ZN20QGlobalStaticDeleterIN10QtMobility16QDocumentGalleryEED1Ev)
    QHash<int, QByteArray>::deleteNode2(QHashData::Node*) 0x00011e71   Thumb Code    24  qdeclarativegalleryquerymodel.o(t._ZN5QHashIi10QByteArrayE11deleteNode2EPN9QHashData4NodeE)
    QHash<int, QByteArray>::detach_helper()  0x00011e89   Thumb Code    52  qdeclarativegalleryquerymodel.o(t._ZN5QHashIi10QByteArrayE13detach_helperEv)
    QHash<int, QByteArray>::duplicateNode(QHashData::Node*, void*) 0x00011ec5   Thumb Code    46  qdeclarativegalleryquerymodel.o(t._ZN5QHashIi10QByteArrayE13duplicateNodeEPN9QHashData4NodeEPv)
    QHash<int, QByteArray>::insert(const int&, const QByteArray&) 0x00011f01   Thumb Code   228  qdeclarativegalleryquerymodel.o(t._ZN5QHashIi10QByteArrayE6insertERKiRKS0_)
    QHash<int, QByteArray>::freeData(QHashData*) 0x00011ff5   Thumb Code    16  qdeclarativegalleryquerymodel.o(t._ZN5QHashIi10QByteArrayE8freeDataEP9QHashData)
    QHash<int, QByteArray>::~QHash()         0x00012009   Thumb Code    30  qdeclarativegalleryquerymodel.o(t._ZN5QHashIi10QByteArrayED1Ev)
    QHash<int, QByteArray>::~QHash__sub_object() 0x00012009   Thumb Code     0  qdeclarativegalleryquerymodel.o(t._ZN5QHashIi10QByteArrayED1Ev)
    QHash<int, QString>::deleteNode2(QHashData::Node*) 0x00012027   Thumb Code    24  qdeclarativegalleryitem.o(t._ZN5QHashIi7QStringE11deleteNode2EPN9QHashData4NodeE)
    QHash<int, QString>::detach_helper()     0x00012041   Thumb Code    52  qdeclarativegalleryitem.o(t._ZN5QHashIi7QStringE13detach_helperEv)
    QHash<int, QString>::duplicateNode(QHashData::Node*, void*) 0x0001207d   Thumb Code    46  qdeclarativegalleryitem.o(t._ZN5QHashIi7QStringE13duplicateNodeEPN9QHashData4NodeEPv)
    QHash<int, QString>::clear()             0x000120b9   Thumb Code    82  qdeclarativegalleryitem.o(t._ZN5QHashIi7QStringE5clearEv)
    QHash<int, QString>::insert(const int&, const QString&) 0x00012115   Thumb Code   234  qdeclarativegalleryitem.o(t._ZN5QHashIi7QStringE6insertERKiRKS0_)
    QHash<int, QString>::freeData(QHashData*) 0x0001220d   Thumb Code    16  qdeclarativegalleryitem.o(t._ZN5QHashIi7QStringE8freeDataEP9QHashData)
    QHash<int, QString>::QHash()             0x00012221   Thumb Code    22  qdeclarativegalleryitem.o(t._ZN5QHashIi7QStringEC1Ev)
    QHash<int, QString>::QHash__sub_object() 0x00012221   Thumb Code     0  qdeclarativegalleryitem.o(t._ZN5QHashIi7QStringEC1Ev)
    QHash<int, QString>::~QHash()            0x0001223d   Thumb Code    30  qdeclarativegalleryitem.o(t._ZN5QHashIi7QStringED1Ev)
    QHash<int, QString>::~QHash__sub_object() 0x0001223d   Thumb Code     0  qdeclarativegalleryitem.o(t._ZN5QHashIi7QStringED1Ev)
    QList<QString>::detach_helper(int)       0x0001225b   Thumb Code   176  qdeclarativegalleryitem.o(t._ZN5QListI7QStringE13detach_helperEi)
    QList<QString>::detach_helper()          0x00012329   Thumb Code    16  qdeclarativegalleryitem.o(t._ZN5QListI7QStringE13detach_helperEv)
    QList<QString>::free(QListData::Data*)   0x00012339   Thumb Code    64  qdeclarativegalleryquerymodel.o(t._ZN5QListI7QStringE4freeEPN9QListData4DataE)
    QList<QString>::~QList()                 0x00012379   Thumb Code    32  qdeclarativegalleryitem.o(t._ZN5QListI7QStringED1Ev)
    QList<QString>::~QList__sub_object()     0x00012379   Thumb Code     0  qdeclarativegalleryitem.o(t._ZN5QListI7QStringED1Ev)
    QList<QtMobility::QDeclarativeGalleryFilterBase*>::detach_helper(int) 0x00012399   Thumb Code    94  qdeclarativegalleryfilter.o(t._ZN5QListIPN10QtMobility29QDeclarativeGalleryFilterBaseEE13detach_helperEi)
    QList<QtMobility::QDeclarativeGalleryFilterBase*>::detach_helper() 0x000123ff   Thumb Code    16  qdeclarativegalleryfilter.o(t._ZN5QListIPN10QtMobility29QDeclarativeGalleryFilterBaseEE13detach_helperEv)
    QList<QtMobility::QDeclarativeGalleryFilterBase*>::detach_helper_grow(int, int) 0x0001240f   Thumb Code   204  qdeclarativegalleryfilter.o(t._ZN5QListIPN10QtMobility29QDeclarativeGalleryFilterBaseEE18detach_helper_growEii)
    QList<QtMobility::QDeclarativeGalleryFilterBase*>::free(QListData::Data*) 0x000124eb   Thumb Code    58  qdeclarativegallery.o(t._ZN5QListIPN10QtMobility29QDeclarativeGalleryFilterBaseEE4freeEPN9QListData4DataE)
    QList<QtMobility::QDeclarativeGalleryFilterBase*>::clear() 0x00012525   Thumb Code    84  qdeclarativegalleryfilter.o(t._ZN5QListIPN10QtMobility29QDeclarativeGalleryFilterBaseEE5clearEv)
    QList<QtMobility::QDeclarativeGalleryFilterBase*>::append(QtMobility::QDeclarativeGalleryFilterBase*const &) 0x00012589   Thumb Code   100  qdeclarativegalleryfilter.o(t._ZN5QListIPN10QtMobility29QDeclarativeGalleryFilterBaseEE6appendERKS2_)
    QList<QtMobility::QDeclarativeGalleryFilterBase*>::node_copy(QList<QtMobility::QDeclarativeGalleryFilterBase*>::Node*, QList<QtMobility::QDeclarativeGalleryFilterBase*>::Node*, QList<QtMobility::QDeclarativeGalleryFilterBase*>::Node*) 0x000125fb   Thumb Code    46  qdeclarativegalleryfilter.o(t._ZN5QListIPN10QtMobility29QDeclarativeGalleryFilterBaseEE9node_copyEPNS3_4NodeES5_S5_)
    QList<QtMobility::QDeclarativeGalleryFilterBase*>::~QList() 0x00012629   Thumb Code    32  qdeclarativegallery.o(t._ZN5QListIPN10QtMobility29QDeclarativeGalleryFilterBaseEED1Ev)
    QList<QtMobility::QDeclarativeGalleryFilterBase*>::~QList__sub_object() 0x00012629   Thumb Code     0  qdeclarativegallery.o(t._ZN5QListIPN10QtMobility29QDeclarativeGalleryFilterBaseEED1Ev)
    QVector<QPair<int, QString>>::detach_helper() 0x00012649   Thumb Code    18  qdeclarativegalleryquerymodel.o(t._ZN7QVectorI5QPairIi7QStringEE13detach_helperEv)
    QVector<QPair<int, QString>>::free(QVectorTypedData<QPair<int, QString>>*) 0x0001265b   Thumb Code    52  qdeclarativegalleryquerymodel.o(t._ZN7QVectorI5QPairIi7QStringEE4freeEP16QVectorTypedDataIS2_E)
    QVector<QPair<int, QString>>::append(const QPair<int, QString>&) 0x0001268f   Thumb Code   180  qdeclarativegalleryquerymodel.o(t._ZN7QVectorI5QPairIi7QStringEE6appendERKS2_)
    QVector<QPair<int, QString>>::malloc(int) 0x0001275f   Thumb Code    52  qdeclarativegalleryquerymodel.o(t._ZN7QVectorI5QPairIi7QStringEE6mallocEi)
    QVector<QPair<int, QString>>::realloc(int, int) 0x00012795   Thumb Code   500  qdeclarativegalleryquerymodel.o(t._ZN7QVectorI5QPairIi7QStringEE7reallocEii)
    QVector<QPair<int, QString>>::QVector()  0x000129b9   Thumb Code    18  qdeclarativegalleryquerymodel.o(t._ZN7QVectorI5QPairIi7QStringEEC1Ev)
    QVector<QPair<int, QString>>::QVector__sub_object() 0x000129b9   Thumb Code     0  qdeclarativegalleryquerymodel.o(t._ZN7QVectorI5QPairIi7QStringEEC1Ev)
    QVector<QPair<int, QString>>::~QVector() 0x000129d1   Thumb Code    34  qdeclarativegalleryquerymodel.o(t._ZN7QVectorI5QPairIi7QStringEED1Ev)
    QVector<QPair<int, QString>>::~QVector__sub_object() 0x000129d1   Thumb Code     0  qdeclarativegalleryquerymodel.o(t._ZN7QVectorI5QPairIi7QStringEED1Ev)
    QVector<QPair<int, QString>>::operator =(const QVector<QPair<int, QString>>&) 0x000129f3   Thumb Code    54  qdeclarativegalleryquerymodel.o(t._ZN7QVectorI5QPairIi7QStringEEaSERKS3_)
    QPointer<QObject>::~QPointer()           0x00012a29   Thumb Code    14  qdeclarativegallery.o(t._ZN8QPointerI7QObjectED1Ev)
    QPointer<QObject>::~QPointer__sub_object() 0x00012a29   Thumb Code     0  qdeclarativegallery.o(t._ZN8QPointerI7QObjectED1Ev)
    QHashNode<int, QByteArray>::QHashNode(int, const QByteArray&) 0x00012a37   Thumb Code    30  qdeclarativegalleryquerymodel.o(t._ZN9QHashNodeIi10QByteArrayEC1EiRKS0_)
    QHashNode<int, QByteArray>::QHashNode__sub_object(int, const QByteArray&) 0x00012a37   Thumb Code     0  qdeclarativegalleryquerymodel.o(t._ZN9QHashNodeIi10QByteArrayEC1EiRKS0_)
    QHashNode<int, QString>::QHashNode(int, const QString&) 0x00012a55   Thumb Code    26  qdeclarativegalleryitem.o(t._ZN9QHashNodeIi7QStringEC1EiRKS0_)
    QHashNode<int, QString>::QHashNode__sub_object(int, const QString&) 0x00012a55   Thumb Code     0  qdeclarativegalleryitem.o(t._ZN9QHashNodeIi7QStringEC1EiRKS0_)
    QWeakPointer<QtMobility::QDeclarativeGalleryFilterBase>::data() const 0x00012a6f   Thumb Code    34  qdeclarativegalleryquerymodel.o(t._ZNK12QWeakPointerIN10QtMobility29QDeclarativeGalleryFilterBaseEE4dataEv)
    QWeakPointer<QtMobility::QDeclarativeGalleryFilterBase>::operator QtMobility::QDeclarativeGalleryFilterBase*QWeakPointer<QtMobility::QDeclarativeGalleryFilterBase>::*() const 0x00012a91   Thumb Code    54  qdeclarativegalleryquerymodel.o(t._ZNK12QWeakPointerIN10QtMobility29QDeclarativeGalleryFilterBaseEEcvMS2_PS1_Ev)
    QHash<int, QByteArray>::findNode(const int&, unsigned*) const 0x00012ac7   Thumb Code    94  qdeclarativegalleryquerymodel.o(t._ZNK5QHashIi10QByteArrayE8findNodeERKiPj)
    QHash<int, QString>::constBegin() const  0x00012b25   Thumb Code    44  qdeclarativegalleryitem.o(t._ZNK5QHashIi7QStringE10constBeginEv)
    QHash<int, QString>::const_iterator::operator !=(const QHash<int, QString>::const_iterator&) const 0x00012b51   Thumb Code    18  qdeclarativegalleryitem.o(t._ZNK5QHashIi7QStringE14const_iteratorneERKS2_)
    QHash<int, QString>::findNode(const int&, unsigned*) const 0x00012b63   Thumb Code    94  qdeclarativegalleryitem.o(t._ZNK5QHashIi7QStringE8findNodeERKiPj)
    QList<QString>::operator ==(const QList<QString>&) const 0x00012bc1   Thumb Code   122  qdeclarativegalleryquerymodel.o(t._ZNK5QListI7QStringEeqERKS1_)
    QList<QtMobility::QDeclarativeGalleryFilterBase*>::const_iterator::operator !=(const QList<QtMobility::QDeclarativeGalleryFilterBase*>::const_iterator&) const 0x00012c3b   Thumb Code    18  qdeclarativegalleryfilter.o(t._ZNK5QListIPN10QtMobility29QDeclarativeGalleryFilterBaseEE14const_iteratorneERKS4_)
    QtMobility::QDeclarativeDocumentGallery::staticMetaObject 0x0001406c   Data          16  qdeclarativedocumentgallery.o(.constdata)
    QtMobility::QGalleryDeclarativeModule::staticMetaObject 0x0001422c   Data          16  qdeclarativegallery.o(.constdata)
    QtMobility::QDeclarativeGalleryFilterBase::staticMetaObject 0x00014708   Data          16  qdeclarativegalleryfilter.o(.constdata)
    QtMobility::QDeclarativeGalleryValueFilter::staticMetaObject 0x00014718   Data          16  qdeclarativegalleryfilter.o(.constdata)
    QtMobility::QDeclarativeGalleryStringFilter::staticMetaObject 0x00014728   Data          16  qdeclarativegalleryfilter.o(.constdata)
    QtMobility::QDeclarativeGalleryEqualsFilter::staticMetaObject 0x00014738   Data          16  qdeclarativegalleryfilter.o(.constdata)
    QtMobility::QDeclarativeGalleryLessThanFilter::staticMetaObject 0x00014748   Data          16  qdeclarativegalleryfilter.o(.constdata)
    QtMobility::QDeclarativeGalleryLessThanEqualsFilter::staticMetaObject 0x00014758   Data          16  qdeclarativegalleryfilter.o(.constdata)
    QtMobility::QDeclarativeGalleryGreaterThanFilter::staticMetaObject 0x00014768   Data          16  qdeclarativegalleryfilter.o(.constdata)
    QtMobility::QDeclarativeGalleryGreaterThanEqualsFilter::staticMetaObject 0x00014778   Data          16  qdeclarativegalleryfilter.o(.constdata)
    QtMobility::QDeclarativeGalleryContainsFilter::staticMetaObject 0x00014788   Data          16  qdeclarativegalleryfilter.o(.constdata)
    QtMobility::QDeclarativeGalleryStartsWithFilter::staticMetaObject 0x00014798   Data          16  qdeclarativegalleryfilter.o(.constdata)
    QtMobility::QDeclarativeGalleryEndsWithFilter::staticMetaObject 0x000147a8   Data          16  qdeclarativegalleryfilter.o(.constdata)
    QtMobility::QDeclarativeGalleryWildcardFilter::staticMetaObject 0x000147b8   Data          16  qdeclarativegalleryfilter.o(.constdata)
    QtMobility::QDeclarativeGalleryFilterGroup::staticMetaObject 0x000147c8   Data          16  qdeclarativegalleryfilter.o(.constdata)
    QtMobility::QDeclarativeGalleryFilterUnion::staticMetaObject 0x000147d8   Data          16  qdeclarativegalleryfilter.o(.constdata)
    QtMobility::QDeclarativeGalleryFilterIntersection::staticMetaObject 0x000147e8   Data          16  qdeclarativegalleryfilter.o(.constdata)
    QtMobility::QDeclarativeGalleryItem::staticMetaObject 0x00014fc0   Data          16  qdeclarativegalleryitem.o(.constdata)
    QtMobility::QDeclarativeDocumentGalleryItem::staticMetaObject 0x00014fd0   Data          16  qdeclarativegalleryitem.o(.constdata)
    QtMobility::QDeclarativeGalleryQueryModel::staticMetaObject 0x000154cc   Data          16  qdeclarativegalleryquerymodel.o(.constdata)
    QtMobility::QDeclarativeDocumentGalleryModel::staticMetaObject 0x000154dc   Data          16  qdeclarativegalleryquerymodel.o(.constdata)
    QtMobility::QDeclarativeGalleryType::staticMetaObject 0x00015c84   Data          16  qdeclarativegallerytype.o(.constdata)
    QtMobility::QDeclarativeDocumentGalleryType::staticMetaObject 0x00015c94   Data          16  qdeclarativegallerytype.o(.constdata)
    stlp_priv::_Integer_limits<signed char, (signed char)-128, (signed char)127, (int)-1, (bool)1>::digits 0x000160f4   Data           4  qdeclarativedocumentgallery.o(.constdata__ZN9stlp_priv15_Integer_limitsIaLan128ELa127ELin1ELb1EE6digitsE)
    stlp_priv::_Integer_limits<bool, (bool)0, (bool)1, (int)1, (bool)0>::digits 0x000160f8   Data           4  qdeclarativedocumentgallery.o(.constdata__ZN9stlp_priv15_Integer_limitsIbLb0ELb1ELi1ELb0EE6digitsE)
    stlp_priv::_Integer_limits<char, (char)128, (char)127, (int)-1, (bool)1>::digits 0x000160fc   Data           4  qdeclarativedocumentgallery.o(.constdata__ZN9stlp_priv15_Integer_limitsIcLc128ELc127ELin1ELb1EE6digitsE)
    stlp_priv::_Integer_limits<unsigned char, (unsigned char)0, (unsigned char)255, (int)-1, (bool)1>::digits 0x00016100   Data           4  qdeclarativedocumentgallery.o(.constdata__ZN9stlp_priv15_Integer_limitsIhLh0ELh255ELin1ELb1EE6digitsE)
    stlp_priv::_Integer_limits<int, (int)-2147483648, (int)2147483647, (int)-1, (bool)1>::digits 0x00016104   Data           4  qdeclarativedocumentgallery.o(.constdata__ZN9stlp_priv15_Integer_limitsIiLin2147483648ELi2147483647ELin1ELb1EE6digitsE)
    stlp_priv::_Integer_limits<int, (int)-2147483648, (int)2147483647, (int)-1, (bool)1>::is_signed 0x00016108   Data           1  qdeclarativedocumentgallery.o(.constdata__ZN9stlp_priv15_Integer_limitsIiLin2147483648ELi2147483647ELin1ELb1EE9is_signedE)
    stlp_priv::_Integer_limits<unsigned, (unsigned)0, (unsigned)4294967295, (int)-1, (bool)1>::digits 0x0001610c   Data           4  qdeclarativedocumentgallery.o(.constdata__ZN9stlp_priv15_Integer_limitsIjLj0ELj4294967295ELin1ELb1EE6digitsE)
    stlp_priv::_Integer_limits<long, (long)-2147483648, (long)2147483647, (int)-1, (bool)1>::digits 0x00016110   Data           4  qdeclarativedocumentgallery.o(.constdata__ZN9stlp_priv15_Integer_limitsIlLln2147483648ELl2147483647ELin1ELb1EE6digitsE)
    stlp_priv::_Integer_limits<unsigned long, (unsigned long)0, (unsigned long)4294967295, (int)-1, (bool)1>::digits 0x00016114   Data           4  qdeclarativedocumentgallery.o(.constdata__ZN9stlp_priv15_Integer_limitsImLm0ELm4294967295ELin1ELb1EE6digitsE)
    stlp_priv::_Integer_limits<short, (short)-32768, (short)32767, (int)-1, (bool)1>::digits 0x00016118   Data           4  qdeclarativedocumentgallery.o(.constdata__ZN9stlp_priv15_Integer_limitsIsLsn32768ELs32767ELin1ELb1EE6digitsE)
    stlp_priv::_Integer_limits<unsigned short, (unsigned short)0, (unsigned short)65535, (int)-1, (bool)1>::digits 0x0001611c   Data           4  qdeclarativedocumentgallery.o(.constdata__ZN9stlp_priv15_Integer_limitsItLt0ELt65535ELin1ELb1EE6digitsE)
    stlp_priv::_Integer_limits<wchar_t, (wchar_t)0, (wchar_t)65535, (int)-1, (bool)1>::digits 0x00016120   Data           4  qdeclarativedocumentgallery.o(.constdata__ZN9stlp_priv15_Integer_limitsIwLw0ELw65535ELin1ELb1EE6digitsE)
    stlp_priv::_Integer_limits<long long, (long long)-9223372036854775808, (long long)9223372036854775807, (int)-1, (bool)1>::digits 0x00016124   Data           4  qdeclarativedocumentgallery.o(.constdata__ZN9stlp_priv15_Integer_limitsIxLxn9223372036854775808ELx9223372036854775807ELin1ELb1EE6digitsE)
    stlp_priv::_Integer_limits<unsigned long long, (unsigned long long)0, (unsigned long long)18446744073709551615, (int)-1, (bool)1>::digits 0x00016128   Data           4  qdeclarativedocumentgallery.o(.constdata__ZN9stlp_priv15_Integer_limitsIyLy0ELy18446744073709551615ELin1ELb1EE6digitsE)
    typeinfo for QtMobility::QDeclarativeGalleryItem 0x0001612c   Data          32  qdeclarativegalleryitem.o(.constdata__ZTIN10QtMobility23QDeclarativeGalleryItemE)
    typeinfo for QtMobility::QDeclarativeGalleryType 0x0001614c   Data          32  qdeclarativegallerytype.o(.constdata__ZTIN10QtMobility23QDeclarativeGalleryTypeE)
    typeinfo for QtMobility::QGalleryDeclarativeModule 0x0001616c   Data          12  qdeclarativegallery.o(.constdata__ZTIN10QtMobility25QGalleryDeclarativeModuleE)
    typeinfo for QtMobility::QDeclarativeDocumentGallery 0x00016178   Data          12  qdeclarativedocumentgallery.o(.constdata__ZTIN10QtMobility27QDeclarativeDocumentGalleryE)
    typeinfo for QtMobility::QDeclarativeGalleryFilterBase 0x00016184   Data          12  qdeclarativegalleryfilter.o(.constdata__ZTIN10QtMobility29QDeclarativeGalleryFilterBaseE)
    typeinfo for QtMobility::QDeclarativeGalleryQueryModel 0x00016190   Data          32  qdeclarativegalleryquerymodel.o(.constdata__ZTIN10QtMobility29QDeclarativeGalleryQueryModelE)
    typeinfo for QtMobility::QDeclarativeGalleryFilterGroup 0x000161b0   Data          32  qdeclarativegalleryfilter.o(.constdata__ZTIN10QtMobility30QDeclarativeGalleryFilterGroupE)
    typeinfo for QtMobility::QDeclarativeGalleryFilterUnion 0x000161d0   Data          12  qdeclarativegalleryfilter.o(.constdata__ZTIN10QtMobility30QDeclarativeGalleryFilterUnionE)
    typeinfo for QtMobility::QDeclarativeGalleryValueFilter 0x000161dc   Data          12  qdeclarativegalleryfilter.o(.constdata__ZTIN10QtMobility30QDeclarativeGalleryValueFilterE)
    typeinfo for QtMobility::QDeclarativeDocumentGalleryItem 0x000161e8   Data          12  qdeclarativegalleryitem.o(.constdata__ZTIN10QtMobility31QDeclarativeDocumentGalleryItemE)
    typeinfo for QtMobility::QDeclarativeDocumentGalleryType 0x000161f4   Data          12  qdeclarativegallerytype.o(.constdata__ZTIN10QtMobility31QDeclarativeDocumentGalleryTypeE)
    typeinfo for QtMobility::QDeclarativeGalleryEqualsFilter 0x00016200   Data          12  qdeclarativegalleryfilter.o(.constdata__ZTIN10QtMobility31QDeclarativeGalleryEqualsFilterE)
    typeinfo for QtMobility::QDeclarativeGalleryStringFilter 0x0001620c   Data          12  qdeclarativegalleryfilter.o(.constdata__ZTIN10QtMobility31QDeclarativeGalleryStringFilterE)
    typeinfo for QtMobility::QDeclarativeDocumentGalleryModel 0x00016218   Data          12  qdeclarativegalleryquerymodel.o(.constdata__ZTIN10QtMobility32QDeclarativeDocumentGalleryModelE)
    typeinfo for QtMobility::QDeclarativeGalleryContainsFilter 0x00016224   Data          12  qdeclarativegalleryfilter.o(.constdata__ZTIN10QtMobility33QDeclarativeGalleryContainsFilterE)
    typeinfo for QtMobility::QDeclarativeGalleryEndsWithFilter 0x00016230   Data          12  qdeclarativegalleryfilter.o(.constdata__ZTIN10QtMobility33QDeclarativeGalleryEndsWithFilterE)
    typeinfo for QtMobility::QDeclarativeGalleryLessThanFilter 0x0001623c   Data          12  qdeclarativegalleryfilter.o(.constdata__ZTIN10QtMobility33QDeclarativeGalleryLessThanFilterE)
    typeinfo for QtMobility::QDeclarativeGalleryWildcardFilter 0x00016248   Data          12  qdeclarativegalleryfilter.o(.constdata__ZTIN10QtMobility33QDeclarativeGalleryWildcardFilterE)
    typeinfo for QtMobility::QDeclarativeGalleryStartsWithFilter 0x00016254   Data          12  qdeclarativegalleryfilter.o(.constdata__ZTIN10QtMobility35QDeclarativeGalleryStartsWithFilterE)
    typeinfo for QtMobility::QDeclarativeGalleryGreaterThanFilter 0x00016260   Data          12  qdeclarativegalleryfilter.o(.constdata__ZTIN10QtMobility36QDeclarativeGalleryGreaterThanFilterE)
    typeinfo for QtMobility::QDeclarativeGalleryFilterIntersection 0x0001626c   Data          12  qdeclarativegalleryfilter.o(.constdata__ZTIN10QtMobility37QDeclarativeGalleryFilterIntersectionE)
    typeinfo for QtMobility::QDeclarativeGalleryLessThanEqualsFilter 0x00016278   Data          12  qdeclarativegalleryfilter.o(.constdata__ZTIN10QtMobility39QDeclarativeGalleryLessThanEqualsFilterE)
    typeinfo for QtMobility::QDeclarativeGalleryGreaterThanEqualsFilter 0x00016284   Data          12  qdeclarativegalleryfilter.o(.constdata__ZTIN10QtMobility42QDeclarativeGalleryGreaterThanEqualsFilterE)
    typeinfo for QDeclarativePrivate::QDeclarativeElement<QtMobility::QDeclarativeGalleryFilterUnion> 0x00016290   Data          12  qdeclarativegallery.o(.constdata__ZTIN19QDeclarativePrivate19QDeclarativeElementIN10QtMobility30QDeclarativeGalleryFilterUnionEEE)
    typeinfo for QDeclarativePrivate::QDeclarativeElement<QtMobility::QDeclarativeDocumentGalleryItem> 0x0001629c   Data          12  qdeclarativegallery.o(.constdata__ZTIN19QDeclarativePrivate19QDeclarativeElementIN10QtMobility31QDeclarativeDocumentGalleryItemEEE)
    typeinfo for QDeclarativePrivate::QDeclarativeElement<QtMobility::QDeclarativeDocumentGalleryType> 0x000162a8   Data          12  qdeclarativegallery.o(.constdata__ZTIN19QDeclarativePrivate19QDeclarativeElementIN10QtMobility31QDeclarativeDocumentGalleryTypeEEE)
    typeinfo for QDeclarativePrivate::QDeclarativeElement<QtMobility::QDeclarativeGalleryEqualsFilter> 0x000162b4   Data          12  qdeclarativegallery.o(.constdata__ZTIN19QDeclarativePrivate19QDeclarativeElementIN10QtMobility31QDeclarativeGalleryEqualsFilterEEE)
    typeinfo for QDeclarativePrivate::QDeclarativeElement<QtMobility::QDeclarativeDocumentGalleryModel> 0x000162c0   Data          12  qdeclarativegallery.o(.constdata__ZTIN19QDeclarativePrivate19QDeclarativeElementIN10QtMobility32QDeclarativeDocumentGalleryModelEEE)
    typeinfo for QDeclarativePrivate::QDeclarativeElement<QtMobility::QDeclarativeGalleryContainsFilter> 0x000162cc   Data          12  qdeclarativegallery.o(.constdata__ZTIN19QDeclarativePrivate19QDeclarativeElementIN10QtMobility33QDeclarativeGalleryContainsFilterEEE)
    typeinfo for QDeclarativePrivate::QDeclarativeElement<QtMobility::QDeclarativeGalleryEndsWithFilter> 0x000162d8   Data          12  qdeclarativegallery.o(.constdata__ZTIN19QDeclarativePrivate19QDeclarativeElementIN10QtMobility33QDeclarativeGalleryEndsWithFilterEEE)
    typeinfo for QDeclarativePrivate::QDeclarativeElement<QtMobility::QDeclarativeGalleryLessThanFilter> 0x000162e4   Data          12  qdeclarativegallery.o(.constdata__ZTIN19QDeclarativePrivate19QDeclarativeElementIN10QtMobility33QDeclarativeGalleryLessThanFilterEEE)
    typeinfo for QDeclarativePrivate::QDeclarativeElement<QtMobility::QDeclarativeGalleryWildcardFilter> 0x000162f0   Data          12  qdeclarativegallery.o(.constdata__ZTIN19QDeclarativePrivate19QDeclarativeElementIN10QtMobility33QDeclarativeGalleryWildcardFilterEEE)
    typeinfo for QDeclarativePrivate::QDeclarativeElement<QtMobility::QDeclarativeGalleryStartsWithFilter> 0x000162fc   Data          12  qdeclarativegallery.o(.constdata__ZTIN19QDeclarativePrivate19QDeclarativeElementIN10QtMobility35QDeclarativeGalleryStartsWithFilterEEE)
    typeinfo for QDeclarativePrivate::QDeclarativeElement<QtMobility::QDeclarativeGalleryGreaterThanFilter> 0x00016308   Data          12  qdeclarativegallery.o(.constdata__ZTIN19QDeclarativePrivate19QDeclarativeElementIN10QtMobility36QDeclarativeGalleryGreaterThanFilterEEE)
    typeinfo for QDeclarativePrivate::QDeclarativeElement<QtMobility::QDeclarativeGalleryFilterIntersection> 0x00016314   Data          12  qdeclarativegallery.o(.constdata__ZTIN19QDeclarativePrivate19QDeclarativeElementIN10QtMobility37QDeclarativeGalleryFilterIntersectionEEE)
    typeinfo for QDeclarativePrivate::QDeclarativeElement<QtMobility::QDeclarativeGalleryLessThanEqualsFilter> 0x00016320   Data          12  qdeclarativegallery.o(.constdata__ZTIN19QDeclarativePrivate19QDeclarativeElementIN10QtMobility39QDeclarativeGalleryLessThanEqualsFilterEEE)
    typeinfo for QDeclarativePrivate::QDeclarativeElement<QtMobility::QDeclarativeGalleryGreaterThanEqualsFilter> 0x0001632c   Data          12  qdeclarativegallery.o(.constdata__ZTIN19QDeclarativePrivate19QDeclarativeElementIN10QtMobility42QDeclarativeGalleryGreaterThanEqualsFilterEEE)
    typeinfo name for QtMobility::QDeclarativeGalleryItem 0x00016338   Data          40  qdeclarativegalleryitem.o(.constdata__ZTSN10QtMobility23QDeclarativeGalleryItemE)
    typeinfo name for QtMobility::QDeclarativeGalleryType 0x00016360   Data          40  qdeclarativegallerytype.o(.constdata__ZTSN10QtMobility23QDeclarativeGalleryTypeE)
    typeinfo name for QtMobility::QGalleryDeclarativeModule 0x00016388   Data          42  qdeclarativegallery.o(.constdata__ZTSN10QtMobility25QGalleryDeclarativeModuleE)
    typeinfo name for QtMobility::QDeclarativeDocumentGallery 0x000163b2   Data          44  qdeclarativedocumentgallery.o(.constdata__ZTSN10QtMobility27QDeclarativeDocumentGalleryE)
    typeinfo name for QtMobility::QDeclarativeGalleryFilterBase 0x000163de   Data          46  qdeclarativegalleryfilter.o(.constdata__ZTSN10QtMobility29QDeclarativeGalleryFilterBaseE)
    typeinfo name for QtMobility::QDeclarativeGalleryQueryModel 0x0001640c   Data          46  qdeclarativegalleryquerymodel.o(.constdata__ZTSN10QtMobility29QDeclarativeGalleryQueryModelE)
    typeinfo name for QtMobility::QDeclarativeGalleryFilterGroup 0x0001643a   Data          47  qdeclarativegalleryfilter.o(.constdata__ZTSN10QtMobility30QDeclarativeGalleryFilterGroupE)
    typeinfo name for QtMobility::QDeclarativeGalleryFilterUnion 0x00016469   Data          47  qdeclarativegalleryfilter.o(.constdata__ZTSN10QtMobility30QDeclarativeGalleryFilterUnionE)
    typeinfo name for QtMobility::QDeclarativeGalleryValueFilter 0x00016498   Data          47  qdeclarativegalleryfilter.o(.constdata__ZTSN10QtMobility30QDeclarativeGalleryValueFilterE)
    typeinfo name for QtMobility::QDeclarativeDocumentGalleryItem 0x000164c7   Data          48  qdeclarativegalleryitem.o(.constdata__ZTSN10QtMobility31QDeclarativeDocumentGalleryItemE)
    typeinfo name for QtMobility::QDeclarativeDocumentGalleryType 0x000164f7   Data          48  qdeclarativegallerytype.o(.constdata__ZTSN10QtMobility31QDeclarativeDocumentGalleryTypeE)
    typeinfo name for QtMobility::QDeclarativeGalleryEqualsFilter 0x00016527   Data          48  qdeclarativegalleryfilter.o(.constdata__ZTSN10QtMobility31QDeclarativeGalleryEqualsFilterE)
    typeinfo name for QtMobility::QDeclarativeGalleryStringFilter 0x00016557   Data          48  qdeclarativegalleryfilter.o(.constdata__ZTSN10QtMobility31QDeclarativeGalleryStringFilterE)
    typeinfo name for QtMobility::QDeclarativeDocumentGalleryModel 0x00016587   Data          49  qdeclarativegalleryquerymodel.o(.constdata__ZTSN10QtMobility32QDeclarativeDocumentGalleryModelE)
    typeinfo name for QtMobility::QDeclarativeGalleryContainsFilter 0x000165b8   Data          50  qdeclarativegalleryfilter.o(.constdata__ZTSN10QtMobility33QDeclarativeGalleryContainsFilterE)
    typeinfo name for QtMobility::QDeclarativeGalleryEndsWithFilter 0x000165ea   Data          50  qdeclarativegalleryfilter.o(.constdata__ZTSN10QtMobility33QDeclarativeGalleryEndsWithFilterE)
    typeinfo name for QtMobility::QDeclarativeGalleryLessThanFilter 0x0001661c   Data          50  qdeclarativegalleryfilter.o(.constdata__ZTSN10QtMobility33QDeclarativeGalleryLessThanFilterE)
    typeinfo name for QtMobility::QDeclarativeGalleryWildcardFilter 0x0001664e   Data          50  qdeclarativegalleryfilter.o(.constdata__ZTSN10QtMobility33QDeclarativeGalleryWildcardFilterE)
    typeinfo name for QtMobility::QDeclarativeGalleryStartsWithFilter 0x00016680   Data          52  qdeclarativegalleryfilter.o(.constdata__ZTSN10QtMobility35QDeclarativeGalleryStartsWithFilterE)
    typeinfo name for QtMobility::QDeclarativeGalleryGreaterThanFilter 0x000166b4   Data          53  qdeclarativegalleryfilter.o(.constdata__ZTSN10QtMobility36QDeclarativeGalleryGreaterThanFilterE)
    typeinfo name for QtMobility::QDeclarativeGalleryFilterIntersection 0x000166e9   Data          54  qdeclarativegalleryfilter.o(.constdata__ZTSN10QtMobility37QDeclarativeGalleryFilterIntersectionE)
    typeinfo name for QtMobility::QDeclarativeGalleryLessThanEqualsFilter 0x0001671f   Data          56  qdeclarativegalleryfilter.o(.constdata__ZTSN10QtMobility39QDeclarativeGalleryLessThanEqualsFilterE)
    typeinfo name for QtMobility::QDeclarativeGalleryGreaterThanEqualsFilter 0x00016757   Data          59  qdeclarativegalleryfilter.o(.constdata__ZTSN10QtMobility42QDeclarativeGalleryGreaterThanEqualsFilterE)
    typeinfo name for QDeclarativePrivate::QDeclarativeElement<QtMobility::QDeclarativeGalleryFilterUnion> 0x00016792   Data          93  qdeclarativegallery.o(.constdata__ZTSN19QDeclarativePrivate19QDeclarativeElementIN10QtMobility30QDeclarativeGalleryFilterUnionEEE)
    typeinfo name for QDeclarativePrivate::QDeclarativeElement<QtMobility::QDeclarativeDocumentGalleryItem> 0x000167ef   Data          94  qdeclarativegallery.o(.constdata__ZTSN19QDeclarativePrivate19QDeclarativeElementIN10QtMobility31QDeclarativeDocumentGalleryItemEEE)
    typeinfo name for QDeclarativePrivate::QDeclarativeElement<QtMobility::QDeclarativeDocumentGalleryType> 0x0001684d   Data          94  qdeclarativegallery.o(.constdata__ZTSN19QDeclarativePrivate19QDeclarativeElementIN10QtMobility31QDeclarativeDocumentGalleryTypeEEE)
    typeinfo name for QDeclarativePrivate::QDeclarativeElement<QtMobility::QDeclarativeGalleryEqualsFilter> 0x000168ab   Data          94  qdeclarativegallery.o(.constdata__ZTSN19QDeclarativePrivate19QDeclarativeElementIN10QtMobility31QDeclarativeGalleryEqualsFilterEEE)
    typeinfo name for QDeclarativePrivate::QDeclarativeElement<QtMobility::QDeclarativeDocumentGalleryModel> 0x00016909   Data          95  qdeclarativegallery.o(.constdata__ZTSN19QDeclarativePrivate19QDeclarativeElementIN10QtMobility32QDeclarativeDocumentGalleryModelEEE)
    typeinfo name for QDeclarativePrivate::QDeclarativeElement<QtMobility::QDeclarativeGalleryContainsFilter> 0x00016968   Data          96  qdeclarativegallery.o(.constdata__ZTSN19QDeclarativePrivate19QDeclarativeElementIN10QtMobility33QDeclarativeGalleryContainsFilterEEE)
    typeinfo name for QDeclarativePrivate::QDeclarativeElement<QtMobility::QDeclarativeGalleryEndsWithFilter> 0x000169c8   Data          96  qdeclarativegallery.o(.constdata__ZTSN19QDeclarativePrivate19QDeclarativeElementIN10QtMobility33QDeclarativeGalleryEndsWithFilterEEE)
    typeinfo name for QDeclarativePrivate::QDeclarativeElement<QtMobility::QDeclarativeGalleryLessThanFilter> 0x00016a28   Data          96  qdeclarativegallery.o(.constdata__ZTSN19QDeclarativePrivate19QDeclarativeElementIN10QtMobility33QDeclarativeGalleryLessThanFilterEEE)
    typeinfo name for QDeclarativePrivate::QDeclarativeElement<QtMobility::QDeclarativeGalleryWildcardFilter> 0x00016a88   Data          96  qdeclarativegallery.o(.constdata__ZTSN19QDeclarativePrivate19QDeclarativeElementIN10QtMobility33QDeclarativeGalleryWildcardFilterEEE)
    typeinfo name for QDeclarativePrivate::QDeclarativeElement<QtMobility::QDeclarativeGalleryStartsWithFilter> 0x00016ae8   Data          98  qdeclarativegallery.o(.constdata__ZTSN19QDeclarativePrivate19QDeclarativeElementIN10QtMobility35QDeclarativeGalleryStartsWithFilterEEE)
    typeinfo name for QDeclarativePrivate::QDeclarativeElement<QtMobility::QDeclarativeGalleryGreaterThanFilter> 0x00016b4a   Data          99  qdeclarativegallery.o(.constdata__ZTSN19QDeclarativePrivate19QDeclarativeElementIN10QtMobility36QDeclarativeGalleryGreaterThanFilterEEE)
    typeinfo name for QDeclarativePrivate::QDeclarativeElement<QtMobility::QDeclarativeGalleryFilterIntersection> 0x00016bad   Data         100  qdeclarativegallery.o(.constdata__ZTSN19QDeclarativePrivate19QDeclarativeElementIN10QtMobility37QDeclarativeGalleryFilterIntersectionEEE)
    typeinfo name for QDeclarativePrivate::QDeclarativeElement<QtMobility::QDeclarativeGalleryLessThanEqualsFilter> 0x00016c11   Data         102  qdeclarativegallery.o(.constdata__ZTSN19QDeclarativePrivate19QDeclarativeElementIN10QtMobility39QDeclarativeGalleryLessThanEqualsFilterEEE)
    typeinfo name for QDeclarativePrivate::QDeclarativeElement<QtMobility::QDeclarativeGalleryGreaterThanEqualsFilter> 0x00016c77   Data         105  qdeclarativegallery.o(.constdata__ZTSN19QDeclarativePrivate19QDeclarativeElementIN10QtMobility42QDeclarativeGalleryGreaterThanEqualsFilterEEE)
    vtable for QtMobility::QDeclarativeGalleryItem 0x00016ce0   Data          84  qdeclarativegalleryitem.o(.constdata__ZTVN10QtMobility23QDeclarativeGalleryItemE)
    vtable for QtMobility::QDeclarativeGalleryType 0x00016d34   Data          84  qdeclarativegallerytype.o(.constdata__ZTVN10QtMobility23QDeclarativeGalleryTypeE)
    vtable for QtMobility::QGalleryDeclarativeModule 0x00016d88   Data          88  qdeclarativegallery.o(.constdata__ZTVN10QtMobility25QGalleryDeclarativeModuleE)
    vtable for QtMobility::QDeclarativeDocumentGallery 0x00016de0   Data          56  qdeclarativedocumentgallery.o(.constdata__ZTVN10QtMobility27QDeclarativeDocumentGalleryE)
    vtable for QtMobility::QDeclarativeGalleryFilterBase 0x00016e18   Data          60  qdeclarativegalleryfilter.o(.constdata__ZTVN10QtMobility29QDeclarativeGalleryFilterBaseE)
    vtable for QtMobility::QDeclarativeGalleryQueryModel 0x00016e54   Data         200  qdeclarativegalleryquerymodel.o(.constdata__ZTVN10QtMobility29QDeclarativeGalleryQueryModelE)
    vtable for QtMobility::QDeclarativeGalleryFilterGroup 0x00016f1c   Data          92  qdeclarativegalleryfilter.o(.constdata__ZTVN10QtMobility30QDeclarativeGalleryFilterGroupE)
    vtable for QtMobility::QDeclarativeGalleryFilterUnion 0x00016f78   Data          92  qdeclarativegalleryfilter.o(.constdata__ZTVN10QtMobility30QDeclarativeGalleryFilterUnionE)
    vtable for QtMobility::QDeclarativeGalleryValueFilter 0x00016fd4   Data          60  qdeclarativegalleryfilter.o(.constdata__ZTVN10QtMobility30QDeclarativeGalleryValueFilterE)
    vtable for QtMobility::QDeclarativeDocumentGalleryItem 0x00017010   Data          88  qdeclarativegalleryitem.o(.constdata__ZTVN10QtMobility31QDeclarativeDocumentGalleryItemE)
    vtable for QtMobility::QDeclarativeDocumentGalleryType 0x00017068   Data          88  qdeclarativegallerytype.o(.constdata__ZTVN10QtMobility31QDeclarativeDocumentGalleryTypeE)
    vtable for QtMobility::QDeclarativeGalleryEqualsFilter 0x000170c0   Data          60  qdeclarativegalleryfilter.o(.constdata__ZTVN10QtMobility31QDeclarativeGalleryEqualsFilterE)
    vtable for QtMobility::QDeclarativeGalleryStringFilter 0x000170fc   Data          60  qdeclarativegalleryfilter.o(.constdata__ZTVN10QtMobility31QDeclarativeGalleryStringFilterE)
    vtable for QtMobility::QDeclarativeDocumentGalleryModel 0x00017138   Data         204  qdeclarativegalleryquerymodel.o(.constdata__ZTVN10QtMobility32QDeclarativeDocumentGalleryModelE)
    vtable for QtMobility::QDeclarativeGalleryContainsFilter 0x00017204   Data          60  qdeclarativegalleryfilter.o(.constdata__ZTVN10QtMobility33QDeclarativeGalleryContainsFilterE)
    vtable for QtMobility::QDeclarativeGalleryEndsWithFilter 0x00017240   Data          60  qdeclarativegalleryfilter.o(.constdata__ZTVN10QtMobility33QDeclarativeGalleryEndsWithFilterE)
    vtable for QtMobility::QDeclarativeGalleryLessThanFilter 0x0001727c   Data          60  qdeclarativegalleryfilter.o(.constdata__ZTVN10QtMobility33QDeclarativeGalleryLessThanFilterE)
    vtable for QtMobility::QDeclarativeGalleryWildcardFilter 0x000172b8   Data          60  qdeclarativegalleryfilter.o(.constdata__ZTVN10QtMobility33QDeclarativeGalleryWildcardFilterE)
    vtable for QtMobility::QDeclarativeGalleryStartsWithFilter 0x000172f4   Data          60  qdeclarativegalleryfilter.o(.constdata__ZTVN10QtMobility35QDeclarativeGalleryStartsWithFilterE)
    vtable for QtMobility::QDeclarativeGalleryGreaterThanFilter 0x00017330   Data          60  qdeclarativegalleryfilter.o(.constdata__ZTVN10QtMobility36QDeclarativeGalleryGreaterThanFilterE)
    vtable for QtMobility::QDeclarativeGalleryFilterIntersection 0x0001736c   Data          92  qdeclarativegalleryfilter.o(.constdata__ZTVN10QtMobility37QDeclarativeGalleryFilterIntersectionE)
    vtable for QtMobility::QDeclarativeGalleryLessThanEqualsFilter 0x000173c8   Data          60  qdeclarativegalleryfilter.o(.constdata__ZTVN10QtMobility39QDeclarativeGalleryLessThanEqualsFilterE)
    vtable for QtMobility::QDeclarativeGalleryGreaterThanEqualsFilter 0x00017404   Data          60  qdeclarativegalleryfilter.o(.constdata__ZTVN10QtMobility42QDeclarativeGalleryGreaterThanEqualsFilterE)
    vtable for QDeclarativePrivate::QDeclarativeElement<QtMobility::QDeclarativeGalleryFilterUnion> 0x00017440   Data          92  qdeclarativegallery.o(.constdata__ZTVN19QDeclarativePrivate19QDeclarativeElementIN10QtMobility30QDeclarativeGalleryFilterUnionEEE)
    vtable for QDeclarativePrivate::QDeclarativeElement<QtMobility::QDeclarativeDocumentGalleryItem> 0x0001749c   Data          88  qdeclarativegallery.o(.constdata__ZTVN19QDeclarativePrivate19QDeclarativeElementIN10QtMobility31QDeclarativeDocumentGalleryItemEEE)
    vtable for QDeclarativePrivate::QDeclarativeElement<QtMobility::QDeclarativeDocumentGalleryType> 0x000174f4   Data          88  qdeclarativegallery.o(.constdata__ZTVN19QDeclarativePrivate19QDeclarativeElementIN10QtMobility31QDeclarativeDocumentGalleryTypeEEE)
    vtable for QDeclarativePrivate::QDeclarativeElement<QtMobility::QDeclarativeGalleryEqualsFilter> 0x0001754c   Data          60  qdeclarativegallery.o(.constdata__ZTVN19QDeclarativePrivate19QDeclarativeElementIN10QtMobility31QDeclarativeGalleryEqualsFilterEEE)
    vtable for QDeclarativePrivate::QDeclarativeElement<QtMobility::QDeclarativeDocumentGalleryModel> 0x00017588   Data         204  qdeclarativegallery.o(.constdata__ZTVN19QDeclarativePrivate19QDeclarativeElementIN10QtMobility32QDeclarativeDocumentGalleryModelEEE)
    vtable for QDeclarativePrivate::QDeclarativeElement<QtMobility::QDeclarativeGalleryContainsFilter> 0x00017654   Data          60  qdeclarativegallery.o(.constdata__ZTVN19QDeclarativePrivate19QDeclarativeElementIN10QtMobility33QDeclarativeGalleryContainsFilterEEE)
    vtable for QDeclarativePrivate::QDeclarativeElement<QtMobility::QDeclarativeGalleryEndsWithFilter> 0x00017690   Data          60  qdeclarativegallery.o(.constdata__ZTVN19QDeclarativePrivate19QDeclarativeElementIN10QtMobility33QDeclarativeGalleryEndsWithFilterEEE)
    vtable for QDeclarativePrivate::QDeclarativeElement<QtMobility::QDeclarativeGalleryLessThanFilter> 0x000176cc   Data          60  qdeclarativegallery.o(.constdata__ZTVN19QDeclarativePrivate19QDeclarativeElementIN10QtMobility33QDeclarativeGalleryLessThanFilterEEE)
    vtable for QDeclarativePrivate::QDeclarativeElement<QtMobility::QDeclarativeGalleryWildcardFilter> 0x00017708   Data          60  qdeclarativegallery.o(.constdata__ZTVN19QDeclarativePrivate19QDeclarativeElementIN10QtMobility33QDeclarativeGalleryWildcardFilterEEE)
    vtable for QDeclarativePrivate::QDeclarativeElement<QtMobility::QDeclarativeGalleryStartsWithFilter> 0x00017744   Data          60  qdeclarativegallery.o(.constdata__ZTVN19QDeclarativePrivate19QDeclarativeElementIN10QtMobility35QDeclarativeGalleryStartsWithFilterEEE)
    vtable for QDeclarativePrivate::QDeclarativeElement<QtMobility::QDeclarativeGalleryGreaterThanFilter> 0x00017780   Data          60  qdeclarativegallery.o(.constdata__ZTVN19QDeclarativePrivate19QDeclarativeElementIN10QtMobility36QDeclarativeGalleryGreaterThanFilterEEE)
    vtable for QDeclarativePrivate::QDeclarativeElement<QtMobility::QDeclarativeGalleryFilterIntersection> 0x000177bc   Data          92  qdeclarativegallery.o(.constdata__ZTVN19QDeclarativePrivate19QDeclarativeElementIN10QtMobility37QDeclarativeGalleryFilterIntersectionEEE)
    vtable for QDeclarativePrivate::QDeclarativeElement<QtMobility::QDeclarativeGalleryLessThanEqualsFilter> 0x00017818   Data          60  qdeclarativegallery.o(.constdata__ZTVN19QDeclarativePrivate19QDeclarativeElementIN10QtMobility39QDeclarativeGalleryLessThanEqualsFilterEEE)
    vtable for QDeclarativePrivate::QDeclarativeElement<QtMobility::QDeclarativeGalleryGreaterThanEqualsFilter> 0x00017854   Data          60  qdeclarativegallery.o(.constdata__ZTVN19QDeclarativePrivate19QDeclarativeElementIN10QtMobility42QDeclarativeGalleryGreaterThanEqualsFilterEEE)
    .ARM.exidx$$Base                         0x00017d50   Number         0  ucppinit.o(.ARM.exidx)
    .ARM.exidx$$Limit                        0x00018b08   Number         0  qdeclarativegalleryfilter.o(.ARM.exidx)
    Image$$ER_RO$$Limit                      0x00018b08   Number         0  anon$$obj.o(linker$$defined$$symbols)
    __dso_handle                             0x00400018   Data           4  ucppfini.o(.data)
    std::_Atomic_swap_struct<(int)1>::_S_swap_lock 0x0040001c   Data          12  qdeclarativedocumentgallery.o(.data__ZNSt19_Atomic_swap_structILi1EE12_S_swap_lockE)
    QMetaTypeId<QDeclarativeListProperty<QtMobility::QDeclarativeGalleryFilterBase>>::qt_metatype_id()::metatype_id 0x00400028   Data           4  qdeclarativegallery.o(.data__ZZN11QMetaTypeIdI24QDeclarativeListPropertyIN10QtMobility29QDeclarativeGalleryFilterBaseEEE14qt_metatype_idEvE11metatype_id)
    QMetaTypeId<QDeclarativeListProperty<QtMobility::QDeclarativeGalleryFilterUnion>>::qt_metatype_id()::metatype_id 0x0040002c   Data           4  qdeclarativegallery.o(.data__ZZN11QMetaTypeIdI24QDeclarativeListPropertyIN10QtMobility30QDeclarativeGalleryFilterUnionEEE14qt_metatype_idEvE11metatype_id)
    QMetaTypeId<QDeclarativeListProperty<QtMobility::QDeclarativeDocumentGalleryItem>>::qt_metatype_id()::metatype_id 0x00400030   Data           4  qdeclarativegallery.o(.data__ZZN11QMetaTypeIdI24QDeclarativeListPropertyIN10QtMobility31QDeclarativeDocumentGalleryItemEEE14qt_metatype_idEvE11metatype_id)
    QMetaTypeId<QDeclarativeListProperty<QtMobility::QDeclarativeDocumentGalleryType>>::qt_metatype_id()::metatype_id 0x00400034   Data           4  qdeclarativegallery.o(.data__ZZN11QMetaTypeIdI24QDeclarativeListPropertyIN10QtMobility31QDeclarativeDocumentGalleryTypeEEE14qt_metatype_idEvE11metatype_id)
    QMetaTypeId<QDeclarativeListProperty<QtMobility::QDeclarativeGalleryEqualsFilter>>::qt_metatype_id()::metatype_id 0x00400038   Data           4  qdeclarativegallery.o(.data__ZZN11QMetaTypeIdI24QDeclarativeListPropertyIN10QtMobility31QDeclarativeGalleryEqualsFilterEEE14qt_metatype_idEvE11metatype_id)
    QMetaTypeId<QDeclarativeListProperty<QtMobility::QDeclarativeDocumentGalleryModel>>::qt_metatype_id()::metatype_id 0x0040003c   Data           4  qdeclarativegallery.o(.data__ZZN11QMetaTypeIdI24QDeclarativeListPropertyIN10QtMobility32QDeclarativeDocumentGalleryModelEEE14qt_metatype_idEvE11metatype_id)
    QMetaTypeId<QDeclarativeListProperty<QtMobility::QDeclarativeGalleryContainsFilter>>::qt_metatype_id()::metatype_id 0x00400040   Data           4  qdeclarativegallery.o(.data__ZZN11QMetaTypeIdI24QDeclarativeListPropertyIN10QtMobility33QDeclarativeGalleryContainsFilterEEE14qt_metatype_idEvE11metatype_id)
    QMetaTypeId<QDeclarativeListProperty<QtMobility::QDeclarativeGalleryEndsWithFilter>>::qt_metatype_id()::metatype_id 0x00400044   Data           4  qdeclarativegallery.o(.data__ZZN11QMetaTypeIdI24QDeclarativeListPropertyIN10QtMobility33QDeclarativeGalleryEndsWithFilterEEE14qt_metatype_idEvE11metatype_id)
    QMetaTypeId<QDeclarativeListProperty<QtMobility::QDeclarativeGalleryLessThanFilter>>::qt_metatype_id()::metatype_id 0x00400048   Data           4  qdeclarativegallery.o(.data__ZZN11QMetaTypeIdI24QDeclarativeListPropertyIN10QtMobility33QDeclarativeGalleryLessThanFilterEEE14qt_metatype_idEvE11metatype_id)
    QMetaTypeId<QDeclarativeListProperty<QtMobility::QDeclarativeGalleryWildcardFilter>>::qt_metatype_id()::metatype_id 0x0040004c   Data           4  qdeclarativegallery.o(.data__ZZN11QMetaTypeIdI24QDeclarativeListPropertyIN10QtMobility33QDeclarativeGalleryWildcardFilterEEE14qt_metatype_idEvE11metatype_id)
    QMetaTypeId<QDeclarativeListProperty<QtMobility::QDeclarativeGalleryStartsWithFilter>>::qt_metatype_id()::metatype_id 0x00400050   Data           4  qdeclarativegallery.o(.data__ZZN11QMetaTypeIdI24QDeclarativeListPropertyIN10QtMobility35QDeclarativeGalleryStartsWithFilterEEE14qt_metatype_idEvE11metatype_id)
    QMetaTypeId<QDeclarativeListProperty<QtMobility::QDeclarativeGalleryGreaterThanFilter>>::qt_metatype_id()::metatype_id 0x00400054   Data           4  qdeclarativegallery.o(.data__ZZN11QMetaTypeIdI24QDeclarativeListPropertyIN10QtMobility36QDeclarativeGalleryGreaterThanFilterEEE14qt_metatype_idEvE11metatype_id)
    QMetaTypeId<QDeclarativeListProperty<QtMobility::QDeclarativeGalleryFilterIntersection>>::qt_metatype_id()::metatype_id 0x00400058   Data           4  qdeclarativegallery.o(.data__ZZN11QMetaTypeIdI24QDeclarativeListPropertyIN10QtMobility37QDeclarativeGalleryFilterIntersectionEEE14qt_metatype_idEvE11metatype_id)
    QMetaTypeId<QDeclarativeListProperty<QtMobility::QDeclarativeGalleryLessThanEqualsFilter>>::qt_metatype_id()::metatype_id 0x0040005c   Data           4  qdeclarativegallery.o(.data__ZZN11QMetaTypeIdI24QDeclarativeListPropertyIN10QtMobility39QDeclarativeGalleryLessThanEqualsFilterEEE14qt_metatype_idEvE11metatype_id)
    QMetaTypeId<QDeclarativeListProperty<QtMobility::QDeclarativeGalleryGreaterThanEqualsFilter>>::qt_metatype_id()::metatype_id 0x00400060   Data           4  qdeclarativegallery.o(.data__ZZN11QMetaTypeIdI24QDeclarativeListPropertyIN10QtMobility42QDeclarativeGalleryGreaterThanEqualsFilterEEE14qt_metatype_idEvE11metatype_id)
    QMetaTypeId<QtMobility::QDeclarativeDocumentGallery::ItemType>::qt_metatype_id()::metatype_id 0x00400064   Data           4  qdeclarativegallery.o(.data__ZZN11QMetaTypeIdIN10QtMobility27QDeclarativeDocumentGallery8ItemTypeEE14qt_metatype_idEvE11metatype_id)
    QMetaTypeId<QtMobility::QDeclarativeGalleryFilterBase*>::qt_metatype_id()::metatype_id 0x00400068   Data           4  qdeclarativegallery.o(.data__ZZN11QMetaTypeIdIPN10QtMobility29QDeclarativeGalleryFilterBaseEE14qt_metatype_idEvE11metatype_id)
    QMetaTypeId<QtMobility::QDeclarativeGalleryFilterUnion*>::qt_metatype_id()::metatype_id 0x0040006c   Data           4  qdeclarativegallery.o(.data__ZZN11QMetaTypeIdIPN10QtMobility30QDeclarativeGalleryFilterUnionEE14qt_metatype_idEvE11metatype_id)
    QMetaTypeId<QtMobility::QDeclarativeDocumentGalleryItem*>::qt_metatype_id()::metatype_id 0x00400070   Data           4  qdeclarativegallery.o(.data__ZZN11QMetaTypeIdIPN10QtMobility31QDeclarativeDocumentGalleryItemEE14qt_metatype_idEvE11metatype_id)
    QMetaTypeId<QtMobility::QDeclarativeDocumentGalleryType*>::qt_metatype_id()::metatype_id 0x00400074   Data           4  qdeclarativegallery.o(.data__ZZN11QMetaTypeIdIPN10QtMobility31QDeclarativeDocumentGalleryTypeEE14qt_metatype_idEvE11metatype_id)
    QMetaTypeId<QtMobility::QDeclarativeGalleryEqualsFilter*>::qt_metatype_id()::metatype_id 0x00400078   Data           4  qdeclarativegallery.o(.data__ZZN11QMetaTypeIdIPN10QtMobility31QDeclarativeGalleryEqualsFilterEE14qt_metatype_idEvE11metatype_id)
    QMetaTypeId<QtMobility::QDeclarativeDocumentGalleryModel*>::qt_metatype_id()::metatype_id 0x0040007c   Data           4  qdeclarativegallery.o(.data__ZZN11QMetaTypeIdIPN10QtMobility32QDeclarativeDocumentGalleryModelEE14qt_metatype_idEvE11metatype_id)
    QMetaTypeId<QtMobility::QDeclarativeGalleryContainsFilter*>::qt_metatype_id()::metatype_id 0x00400080   Data           4  qdeclarativegallery.o(.data__ZZN11QMetaTypeIdIPN10QtMobility33QDeclarativeGalleryContainsFilterEE14qt_metatype_idEvE11metatype_id)
    QMetaTypeId<QtMobility::QDeclarativeGalleryEndsWithFilter*>::qt_metatype_id()::metatype_id 0x00400084   Data           4  qdeclarativegallery.o(.data__ZZN11QMetaTypeIdIPN10QtMobility33QDeclarativeGalleryEndsWithFilterEE14qt_metatype_idEvE11metatype_id)
    QMetaTypeId<QtMobility::QDeclarativeGalleryLessThanFilter*>::qt_metatype_id()::metatype_id 0x00400088   Data           4  qdeclarativegallery.o(.data__ZZN11QMetaTypeIdIPN10QtMobility33QDeclarativeGalleryLessThanFilterEE14qt_metatype_idEvE11metatype_id)
    QMetaTypeId<QtMobility::QDeclarativeGalleryWildcardFilter*>::qt_metatype_id()::metatype_id 0x0040008c   Data           4  qdeclarativegallery.o(.data__ZZN11QMetaTypeIdIPN10QtMobility33QDeclarativeGalleryWildcardFilterEE14qt_metatype_idEvE11metatype_id)
    QMetaTypeId<QtMobility::QDeclarativeGalleryStartsWithFilter*>::qt_metatype_id()::metatype_id 0x00400090   Data           4  qdeclarativegallery.o(.data__ZZN11QMetaTypeIdIPN10QtMobility35QDeclarativeGalleryStartsWithFilterEE14qt_metatype_idEvE11metatype_id)
    QMetaTypeId<QtMobility::QDeclarativeGalleryGreaterThanFilter*>::qt_metatype_id()::metatype_id 0x00400094   Data           4  qdeclarativegallery.o(.data__ZZN11QMetaTypeIdIPN10QtMobility36QDeclarativeGalleryGreaterThanFilterEE14qt_metatype_idEvE11metatype_id)
    QMetaTypeId<QtMobility::QDeclarativeGalleryFilterIntersection*>::qt_metatype_id()::metatype_id 0x00400098   Data           4  qdeclarativegallery.o(.data__ZZN11QMetaTypeIdIPN10QtMobility37QDeclarativeGalleryFilterIntersectionEE14qt_metatype_idEvE11metatype_id)
    QMetaTypeId<QtMobility::QDeclarativeGalleryLessThanEqualsFilter*>::qt_metatype_id()::metatype_id 0x0040009c   Data           4  qdeclarativegallery.o(.data__ZZN11QMetaTypeIdIPN10QtMobility39QDeclarativeGalleryLessThanEqualsFilterEE14qt_metatype_idEvE11metatype_id)
    QMetaTypeId<QtMobility::QDeclarativeGalleryGreaterThanEqualsFilter*>::qt_metatype_id()::metatype_id 0x004000a0   Data           4  qdeclarativegallery.o(.data__ZZN11QMetaTypeIdIPN10QtMobility42QDeclarativeGalleryGreaterThanEqualsFilterEE14qt_metatype_idEvE11metatype_id)
    dtor_rec                                 0x004000a4   Data        2048  ucppfini.o(.bss)

