ARM Linker, RVCT2.2 [Build 686]

================================================================================

Image Symbol Table

    Local Symbols

    Symbol Name                              Value     Ov Type        Size  Object(Section)

    ../../unhosted.s                         0x00000000   Number         0  switch8.o ABSOLUTE
    M:\\epoc32\\build\\euser\\c_e18a23aea4fd210f\\edll_lib\\armv5\\udeb\\uc_dll_.cpp 0x00000000   Number         0  uc_dll_.o ABSOLUTE
    M:\\sf\\os\\kernelhwsrv\\kernel\\eka\\compsupp\\rvct\\ucppinit.cpp 0x00000000   Number         0  ucppinit.o ABSOLUTE
    M:\epoc32\build\euser\c_e18a23aea4fd210f\edll_lib\armv5\udeb\uc_dll_.cpp 0x00000000   Number         0  uc_dll_.o ABSOLUTE
    M:\sf\os\kernelhwsrv\kernel\eka\compsupp\rvct\dllexp.cpp 0x00000000   Number         0  dllexp.o ABSOLUTE
    M:\sf\os\kernelhwsrv\kernel\eka\compsupp\rvct\ucppfini.cpp 0x00000000   Number         0  ucppfini.o ABSOLUTE
    M:\sf\os\kernelhwsrv\kernel\eka\compsupp\rvct\ucppinit.cpp 0x00000000   Number         0  ucppinit.o ABSOLUTE
    M:\sf\os\kernelhwsrv\kernel\eka\euser\epoc\arm\uc_dll.cpp 0x00000000   Number         0  uc_dll.o ABSOLUTE
    S:\sf\mw\qtmobility\build\Release\declarative_organizer\moc\moc_qdeclarativeorganizercollection_p.cpp 0x00000000   Number         0  moc_qdeclarativeorganizercollection_p.o ABSOLUTE
    S:\sf\mw\qtmobility\build\Release\declarative_organizer\moc\moc_qdeclarativeorganizeritem_p.cpp 0x00000000   Number         0  moc_qdeclarativeorganizeritem_p.o ABSOLUTE
    S:\sf\mw\qtmobility\build\Release\declarative_organizer\moc\moc_qdeclarativeorganizeritemdetail_p.cpp 0x00000000   Number         0  moc_qdeclarativeorganizeritemdetail_p.o ABSOLUTE
    S:\sf\mw\qtmobility\build\Release\declarative_organizer\moc\moc_qdeclarativeorganizeritemfetchhint_p.cpp 0x00000000   Number         0  moc_qdeclarativeorganizeritemfetchhint_p.o ABSOLUTE
    S:\sf\mw\qtmobility\build\Release\declarative_organizer\moc\moc_qdeclarativeorganizeritemfilter_p.cpp 0x00000000   Number         0  moc_qdeclarativeorganizeritemfilter_p.o ABSOLUTE
    S:\sf\mw\qtmobility\build\Release\declarative_organizer\moc\moc_qdeclarativeorganizeritemsortorder_p.cpp 0x00000000   Number         0  moc_qdeclarativeorganizeritemsortorder_p.o ABSOLUTE
    S:\sf\mw\qtmobility\build\Release\declarative_organizer\moc\moc_qdeclarativeorganizermodel_p.cpp 0x00000000   Number         0  moc_qdeclarativeorganizermodel_p.o ABSOLUTE
    S:\sf\mw\qtmobility\build\Release\declarative_organizer\moc\moc_qdeclarativeorganizerrecurrencerule_p.cpp 0x00000000   Number         0  moc_qdeclarativeorganizerrecurrencerule_p.o ABSOLUTE
    S:\sf\mw\qtmobility\plugins\declarative\organizer\plugin.cpp 0x00000000   Number         0  plugin.o ABSOLUTE
    S:\sf\mw\qtmobility\plugins\declarative\organizer\qdeclarativeopenmetaobject.cpp 0x00000000   Number         0  qdeclarativeopenmetaobject.o ABSOLUTE
    S:\sf\mw\qtmobility\plugins\declarative\organizer\qdeclarativeorganizercollection.cpp 0x00000000   Number         0  qdeclarativeorganizercollection.o ABSOLUTE
    S:\sf\mw\qtmobility\plugins\declarative\organizer\qdeclarativeorganizeritem.cpp 0x00000000   Number         0  qdeclarativeorganizeritem.o ABSOLUTE
    S:\sf\mw\qtmobility\plugins\declarative\organizer\qdeclarativeorganizeritemdetail.cpp 0x00000000   Number         0  qdeclarativeorganizeritemdetail.o ABSOLUTE
    S:\sf\mw\qtmobility\plugins\declarative\organizer\qdeclarativeorganizeritemfetchhint.cpp 0x00000000   Number         0  qdeclarativeorganizeritemfetchhint.o ABSOLUTE
    S:\sf\mw\qtmobility\plugins\declarative\organizer\qdeclarativeorganizeritemfilter.cpp 0x00000000   Number         0  qdeclarativeorganizeritemfilter.o ABSOLUTE
    S:\sf\mw\qtmobility\plugins\declarative\organizer\qdeclarativeorganizeritemmetaobject.cpp 0x00000000   Number         0  qdeclarativeorganizeritemmetaobject.o ABSOLUTE
    S:\sf\mw\qtmobility\plugins\declarative\organizer\qdeclarativeorganizeritemsortorder.cpp 0x00000000   Number         0  qdeclarativeorganizeritemsortorder.o ABSOLUTE
    S:\sf\mw\qtmobility\plugins\declarative\organizer\qdeclarativeorganizermodel.cpp 0x00000000   Number         0  qdeclarativeorganizermodel.o ABSOLUTE
    S:\sf\mw\qtmobility\plugins\declarative\organizer\qdeclarativeorganizerrecurrencerule.cpp 0x00000000   Number         0  qdeclarativeorganizerrecurrencerule.o ABSOLUTE
    S:\sf\mw\qtmobility\plugins\declarative\organizer\qmetaobjectbuilder.cpp 0x00000000   Number         0  qmetaobjectbuilder.o ABSOLUTE
    .emb_text                                0x00008000   Section       40  uc_dll_.o(.emb_text)
    Symbian$$eit_base                        0x00008014   Data           4  uc_dll_.o(.emb_text)
    Symbian$$eit_limit                       0x00008018   Data           4  uc_dll_.o(.emb_text)
    Symbian$$code_seg_base                   0x0000801c   Data           4  uc_dll_.o(.emb_text)
    Symbian$$code_seg_limit                  0x00008020   Data           4  uc_dll_.o(.emb_text)
    Symbian$$reserved                        0x00008024   Data           4  uc_dll_.o(.emb_text)
    .emb_text                                0x00008028   Section       52  ucppinit.o(.emb_text)
    loop                                     0x0000803c   ARM Code       0  ucppinit.o(.emb_text)
    ret                                      0x00008044   ARM Code       0  ucppinit.o(.emb_text)
    base                                     0x00008054   Data           0  ucppinit.o(.emb_text)
    limit                                    0x00008058   Data           0  ucppinit.o(.emb_text)
    .text                                    0x00008ce4   Section     1798  moc_qdeclarativeorganizermodel_p.o(.text)
    .text                                    0x000093ec   Section     3370  moc_qdeclarativeorganizeritem_p.o(.text)
    qFuzzyCompare(double, double)            0x0000a119   Thumb Code   102  moc_qdeclarativeorganizeritemdetail_p.o(.text)
    .text                                    0x0000a118   Section     9340  moc_qdeclarativeorganizeritemdetail_p.o(.text)
    .text                                    0x0000c594   Section     4100  moc_qdeclarativeorganizeritemfilter_p.o(.text)
    .text                                    0x0000d598   Section      872  moc_qdeclarativeorganizerrecurrencerule_p.o(.text)
    .text                                    0x0000d900   Section      900  moc_qdeclarativeorganizercollection_p.o(.text)
    .text                                    0x0000dc84   Section      724  moc_qdeclarativeorganizeritemsortorder_p.o(.text)
    .text                                    0x0000df58   Section      488  moc_qdeclarativeorganizeritemfetchhint_p.o(.text)
    .text                                    0x0000e140   Section      272  plugin.o(.text)
    .text                                    0x0000e250   Section     5232  qdeclarativeorganizeritem.o(.text)
    |L1.1032|                                0x0000e658   Data           0  qdeclarativeorganizeritem.o(.text)
    |L1.3456|                                0x0000efd0   Data           0  qdeclarativeorganizeritem.o(.text)
    .text                                    0x0000f6c0   Section     4236  qdeclarativeorganizeritemdetail.o(.text)
    |L1.1248|                                0x0000fba0   Data           0  qdeclarativeorganizeritemdetail.o(.text)
    |L1.2420|                                0x00010034   Data           0  qdeclarativeorganizeritemdetail.o(.text)
    .text                                    0x0001074c   Section    11494  qmetaobjectbuilder.o(.text)
    buildString(char*, char*, int*, const QByteArray&, int) 0x000107d3   Thumb Code   116  qmetaobjectbuilder.o(.text)
    buildParameterNames(const QByteArray&, const QList<QByteArray>&) 0x00010847   Thumb Code   516  qmetaobjectbuilder.o(.text)
    buildMetaObject(QMetaObjectBuilderPrivate*, char*, bool) 0x00010a4b   Thumb Code  1980  qmetaobjectbuilder.o(.text)
    resolveClassName(const QMap<QByteArray, const QMetaObject*>&, const QByteArray&) 0x00011207   Thumb Code   210  qmetaobjectbuilder.o(.text)
    .text                                    0x00013434   Section      676  qdeclarativeopenmetaobject.o(.text)
    .text                                    0x000136d8   Section     4316  qdeclarativeorganizeritemmetaobject.o(.text)
    |L1.1748|                                0x00013dac   Data           0  qdeclarativeorganizeritemmetaobject.o(.text)
    |L1.1764|                                0x00013dbc   Data           0  qdeclarativeorganizeritemmetaobject.o(.text)
    __sti___39_qdeclarativeorganizeritemmetaobject_cpp 0x00014611   Thumb Code   234  qdeclarativeorganizeritemmetaobject.o(.text)
    urlToLocalFileName(const QUrl&)          0x000147b5   Thumb Code   210  qdeclarativeorganizermodel.o(.text)
    .text                                    0x000147b4   Section    11330  qdeclarativeorganizermodel.o(.text)
    |L1.692|                                 0x00014a68   Data           0  qdeclarativeorganizermodel.o(.text)
    |L1.712|                                 0x00014a7c   Data           0  qdeclarativeorganizermodel.o(.text)
    |L1.732|                                 0x00014a90   Data           0  qdeclarativeorganizermodel.o(.text)
    |L1.3320|                                0x000154ac   Data           0  qdeclarativeorganizermodel.o(.text)
    |L1.5548|                                0x00015d60   Data           0  qdeclarativeorganizermodel.o(.text)
    .text                                    0x000173f8   Section      836  qdeclarativeorganizeritemfilter.o(.text)
    .text                                    0x0001773c   Section       24  switch8.o(.text)
    .text                                    0x00017754   Section       80  uc_dll.o(.text)
    .text                                    0x000177a4   Section      180  ucppfini.o(.text)
    .text                                    0x00017858   Section        4  dllexp.o(.text)
    .text.clean                              0x0001785c   Section      160  moc_qdeclarativeorganizermodel_p.o(.text.clean)
    .text.clean                              0x000178fc   Section      212  moc_qdeclarativeorganizeritem_p.o(.text.clean)
    .text.clean                              0x000179d0   Section      608  moc_qdeclarativeorganizeritemdetail_p.o(.text.clean)
    .text.clean                              0x00017c30   Section      156  moc_qdeclarativeorganizeritemfilter_p.o(.text.clean)
    .text.clean                              0x00017ccc   Section       50  moc_qdeclarativeorganizerrecurrencerule_p.o(.text.clean)
    .text.clean                              0x00017cfe   Section      180  moc_qdeclarativeorganizercollection_p.o(.text.clean)
    .text.clean                              0x00017db2   Section       18  moc_qdeclarativeorganizeritemsortorder_p.o(.text.clean)
    .text.clean                              0x00017dc4   Section       28  plugin.o(.text.clean)
    .text.clean                              0x00017de0   Section      484  qdeclarativeorganizeritem.o(.text.clean)
    .text.clean                              0x00017fc4   Section      434  qdeclarativeorganizeritemdetail.o(.text.clean)
    .text.clean                              0x00018176   Section      456  qmetaobjectbuilder.o(.text.clean)
    .text.clean                              0x0001833e   Section       56  qdeclarativeopenmetaobject.o(.text.clean)
    .text.clean                              0x00018376   Section      728  qdeclarativeorganizeritemmetaobject.o(.text.clean)
    .text.clean                              0x0001864e   Section     1312  qdeclarativeorganizermodel.o(.text.clean)
    .text.clean                              0x00018b6e   Section       98  qdeclarativeorganizeritemfilter.o(.text.clean)
    i._Z20qvariant_cast_helperRK8QVariantNS_4TypeEPv 0x00018bd0   Section       32  moc_qdeclarativeorganizeritemdetail_p.o(i._Z20qvariant_cast_helperRK8QVariantNS_4TypeEPv)
    i._ZN10QByteArrayC1ERKS_                 0x00018bf0   Section       20  plugin.o(i._ZN10QByteArrayC1ERKS_)
    i._ZN10QByteArrayC1Ev                    0x00018c04   Section       24  qmetaobjectbuilder.o(i._ZN10QByteArrayC1Ev)
    i._ZN10QByteArrayD1Ev                    0x00018c1c   Section       24  moc_qdeclarativeorganizeritemdetail_p.o(i._ZN10QByteArrayD1Ev)
    i._ZN10QtMobility14QOrganizerNoteD1Ev    0x00018c34   Section       14  qdeclarativeorganizeritem.o(i._ZN10QtMobility14QOrganizerNoteD1Ev)
    i._ZN10QtMobility14QOrganizerTodoD1Ev    0x00018c42   Section       14  qdeclarativeorganizeritem.o(i._ZN10QtMobility14QOrganizerTodoD1Ev)
    i._ZN10QtMobility15QOrganizerEventD1Ev   0x00018c50   Section       14  qdeclarativeorganizeritem.o(i._ZN10QtMobility15QOrganizerEventD1Ev)
    i._ZN10QtMobility17QOrganizerJournalD1Ev 0x00018c5e   Section       14  qdeclarativeorganizeritem.o(i._ZN10QtMobility17QOrganizerJournalD1Ev)
    i._ZN10QtMobility18QOrganizerItemGuidD1Ev 0x00018c6c   Section       14  plugin.o(i._ZN10QtMobility18QOrganizerItemGuidD1Ev)
    i._ZN10QtMobility18QOrganizerItemTypeD1Ev 0x00018c7a   Section       14  plugin.o(i._ZN10QtMobility18QOrganizerItemTypeD1Ev)
    i._ZN10QtMobility18QOrganizerTodoTimeD1Ev 0x00018c88   Section       14  plugin.o(i._ZN10QtMobility18QOrganizerTodoTimeD1Ev)
    i._ZN10QtMobility19QOrganizerEventTimeD1Ev 0x00018c96   Section       14  plugin.o(i._ZN10QtMobility19QOrganizerEventTimeD1Ev)
    i._ZN10QtMobility20QOrganizerItemParentD1Ev 0x00018ca4   Section       14  plugin.o(i._ZN10QtMobility20QOrganizerItemParentD1Ev)
    i._ZN10QtMobility21QOrganizerItemCommentD1Ev 0x00018cb2   Section       14  qdeclarativeorganizeritemmetaobject.o(i._ZN10QtMobility21QOrganizerItemCommentD1Ev)
    i._ZN10QtMobility21QOrganizerJournalTimeD1Ev 0x00018cc0   Section       14  plugin.o(i._ZN10QtMobility21QOrganizerJournalTimeD1Ev)
    i._ZN10QtMobility22QOrganizerItemIdFilterD1Ev 0x00018cce   Section       14  qdeclarativeorganizermodel.o(i._ZN10QtMobility22QOrganizerItemIdFilterD1Ev)
    i._ZN10QtMobility22QOrganizerItemLocationD1Ev 0x00018cdc   Section       14  plugin.o(i._ZN10QtMobility22QOrganizerItemLocationD1Ev)
    i._ZN10QtMobility22QOrganizerItemPriorityD1Ev 0x00018cea   Section       14  plugin.o(i._ZN10QtMobility22QOrganizerItemPriorityD1Ev)
    i._ZN10QtMobility22QOrganizerItemReminderC1EPKc 0x00018cf8   Section       18  plugin.o(i._ZN10QtMobility22QOrganizerItemReminderC1EPKc)
    i._ZN10QtMobility22QOrganizerItemReminderD1Ev 0x00018d0a   Section       14  plugin.o(i._ZN10QtMobility22QOrganizerItemReminderD1Ev)
    i._ZN10QtMobility22QOrganizerTodoProgressD1Ev 0x00018d18   Section       14  plugin.o(i._ZN10QtMobility22QOrganizerTodoProgressD1Ev)
    i._ZN10QtMobility23QOrganizerItemTimestampD1Ev 0x00018d26   Section       14  plugin.o(i._ZN10QtMobility23QOrganizerItemTimestampD1Ev)
    i._ZN10QtMobility24QOrganizerItemRecurrenceD1Ev 0x00018d34   Section       14  plugin.o(i._ZN10QtMobility24QOrganizerItemRecurrenceD1Ev)
    i._ZN10QtMobility24QOrganizerTodoOccurrenceD1Ev 0x00018d42   Section       14  qdeclarativeorganizeritem.o(i._ZN10QtMobility24QOrganizerTodoOccurrenceD1Ev)
    i._ZN10QtMobility25QOrganizerEventOccurrenceD1Ev 0x00018d50   Section       14  qdeclarativeorganizeritem.o(i._ZN10QtMobility25QOrganizerEventOccurrenceD1Ev)
    i._ZN10QtMobility25QOrganizerItemDescriptionD1Ev 0x00018d5e   Section       14  plugin.o(i._ZN10QtMobility25QOrganizerItemDescriptionD1Ev)
    i._ZN10QtMobility25QOrganizerItemUnionFilterD1Ev 0x00018d6c   Section       14  moc_qdeclarativeorganizeritemfilter_p.o(i._ZN10QtMobility25QOrganizerItemUnionFilterD1Ev)
    i._ZN10QtMobility26QOrganizerItemDetailFilterD1Ev 0x00018d7a   Section       14  plugin.o(i._ZN10QtMobility26QOrganizerItemDetailFilterD1Ev)
    i._ZN10QtMobility26QOrganizerItemDisplayLabelD1Ev 0x00018d88   Section       14  plugin.o(i._ZN10QtMobility26QOrganizerItemDisplayLabelD1Ev)
    i._ZN10QtMobility27QOrganizerItemEmailReminderD1Ev 0x00018d96   Section       14  plugin.o(i._ZN10QtMobility27QOrganizerItemEmailReminderD1Ev)
    i._ZN10QtMobility27QOrganizerItemInvalidFilterD1Ev 0x00018da4   Section       14  moc_qdeclarativeorganizeritemfilter_p.o(i._ZN10QtMobility27QOrganizerItemInvalidFilterD1Ev)
    i._ZN10QtMobility28QOrganizerItemVisualReminderD1Ev 0x00018db2   Section       14  plugin.o(i._ZN10QtMobility28QOrganizerItemVisualReminderD1Ev)
    i._ZN10QtMobility29QOrganizerItemAudibleReminderD1Ev 0x00018dc0   Section       14  plugin.o(i._ZN10QtMobility29QOrganizerItemAudibleReminderD1Ev)
    i._ZN10QtMobility29QOrganizerItemChangeLogFilterD1Ev 0x00018dce   Section       14  plugin.o(i._ZN10QtMobility29QOrganizerItemChangeLogFilterD1Ev)
    i._ZN10QtMobility30QOrganizerItemCollectionFilterD1Ev 0x00018ddc   Section       14  qdeclarativeorganizeritemfilter.o(i._ZN10QtMobility30QOrganizerItemCollectionFilterD1Ev)
    i._ZN10QtMobility31QOrganizerItemDetailRangeFilterD1Ev 0x00018dea   Section       14  plugin.o(i._ZN10QtMobility31QOrganizerItemDetailRangeFilterD1Ev)
    i._ZN10QtMobility32QOrganizerItemIntersectionFilterD1Ev 0x00018df8   Section       14  moc_qdeclarativeorganizeritemfilter_p.o(i._ZN10QtMobility32QOrganizerItemIntersectionFilterD1Ev)
    i._ZN11QMetaObject12invokeMethodEP7QObjectPKcN2Qt14ConnectionTypeE16QGenericArgumentS6_S6_S6_S6_S6_S6_S6_S6_S6_ 0x00018e06   Section      130  qdeclarativeorganizermodel.o(i._ZN11QMetaObject12invokeMethodEP7QObjectPKcN2Qt14ConnectionTypeE16QGenericArgumentS6_S6_S6_S6_S6_S6_S6_S6_S6_)
    i._ZN11QModelIndexC1Ev                   0x00018e88   Section       16  qdeclarativeorganizermodel.o(i._ZN11QModelIndexC1Ev)
    i._ZN11QModelIndexD1Ev                   0x00018e98   Section        8  qdeclarativeorganizermodel.o(i._ZN11QModelIndexD1Ev)
    i._ZN11QStringListC1ERKS_                0x00018ea0   Section       18  moc_qdeclarativeorganizeritemdetail_p.o(i._ZN11QStringListC1ERKS_)
    i._ZN11QStringListC1Ev                   0x00018eb2   Section       14  moc_qdeclarativeorganizeritemdetail_p.o(i._ZN11QStringListC1Ev)
    i._ZN11QStringListD1Ev                   0x00018ec0   Section       14  moc_qdeclarativeorganizermodel_p.o(i._ZN11QStringListD1Ev)
    i._ZN11QStringListaSERKS_                0x00018ece   Section       66  moc_qdeclarativeorganizermodel_p.o(i._ZN11QStringListaSERKS_)
    i._ZN15QBasicAtomicInt3refEv             0x00018f10   Section       24  moc_qdeclarativeorganizermodel_p.o(i._ZN15QBasicAtomicInt3refEv)
    i._ZN15QBasicAtomicInt5derefEv           0x00018f28   Section       24  moc_qdeclarativeorganizermodel_p.o(i._ZN15QBasicAtomicInt5derefEv)
    i._ZN16QDeclarativeInfolsERK7QString     0x00018f40   Section       80  moc_qdeclarativeorganizeritemdetail_p.o(i._ZN16QDeclarativeInfolsERK7QString)
    i._ZN16QDeclarativeInfolsERK7QString.clean 0x00018f90   Section       20  moc_qdeclarativeorganizeritemdetail_p.o(i._ZN16QDeclarativeInfolsERK7QString.clean)
    i._ZN16QDeclarativeInfolsEi              0x00018fa4   Section       26  qdeclarativeorganizeritemdetail.o(i._ZN16QDeclarativeInfolsEi)
    i._ZN17QForeachContainerI11QStringListED1Ev 0x00018fbe   Section       14  moc_qdeclarativeorganizeritemfilter_p.o(i._ZN17QForeachContainerI11QStringListED1Ev)
    i._ZN17QForeachContainerI4QSetIN10QtMobility24QOrganizerRecurrenceRule5MonthEEED1Ev 0x00018fcc   Section       14  moc_qdeclarativeorganizerrecurrencerule_p.o(i._ZN17QForeachContainerI4QSetIN10QtMobility24QOrganizerRecurrenceRule5MonthEEED1Ev)
    i._ZN17QForeachContainerI4QSetIN2Qt9DayOfWeekEEED1Ev 0x00018fda   Section       14  moc_qdeclarativeorganizerrecurrencerule_p.o(i._ZN17QForeachContainerI4QSetIN2Qt9DayOfWeekEEED1Ev)
    i._ZN17QForeachContainerI4QSetIiEED1Ev   0x00018fe8   Section       14  moc_qdeclarativeorganizerrecurrencerule_p.o(i._ZN17QForeachContainerI4QSetIiEED1Ev)
    i._ZN17QForeachContainerI5QListI10QByteArrayEED1Ev 0x00018ff6   Section       14  qmetaobjectbuilder.o(i._ZN17QForeachContainerI5QListI10QByteArrayEED1Ev)
    i._ZN17QForeachContainerI5QListI7QStringEED1Ev 0x00019004   Section       14  qdeclarativeorganizermodel.o(i._ZN17QForeachContainerI5QListI7QStringEED1Ev)
    i._ZN17QForeachContainerI5QListI8QVariantEED1Ev 0x00019012   Section       14  moc_qdeclarativeorganizeritemfilter_p.o(i._ZN17QForeachContainerI5QListI8QVariantEED1Ev)
    i._ZN17QForeachContainerI5QListIN10QtMobility14QOrganizerItemEEED1Ev 0x00019020   Section       14  qdeclarativeorganizermodel.o(i._ZN17QForeachContainerI5QListIN10QtMobility14QOrganizerItemEEED1Ev)
    i._ZN17QForeachContainerI5QListIN10QtMobility16QOrganizerItemIdEEED1Ev 0x0001902e   Section       14  qdeclarativeorganizermodel.o(i._ZN17QForeachContainerI5QListIN10QtMobility16QOrganizerItemIdEEED1Ev)
    i._ZN17QForeachContainerI5QListIN10QtMobility20QOrganizerItemDetailEEED1Ev 0x0001903c   Section       14  qdeclarativeorganizeritemmetaobject.o(i._ZN17QForeachContainerI5QListIN10QtMobility20QOrganizerItemDetailEEED1Ev)
    i._ZN17QForeachContainerI5QListIP25QDeclarativeOrganizerItemEED1Ev 0x0001904a   Section       14  qdeclarativeorganizermodel.o(i._ZN17QForeachContainerI5QListIP25QDeclarativeOrganizerItemEED1Ev)
    i._ZN17QForeachContainerI5QListIP31QDeclarativeOrganizerItemDetailEED1Ev 0x00019058   Section       14  qdeclarativeorganizeritemmetaobject.o(i._ZN17QForeachContainerI5QListIP31QDeclarativeOrganizerItemDetailEED1Ev)
    i._ZN17QForeachContainerI5QListIP31QDeclarativeOrganizerItemFilterEED1Ev 0x00019066   Section       14  moc_qdeclarativeorganizeritemfilter_p.o(i._ZN17QForeachContainerI5QListIP31QDeclarativeOrganizerItemFilterEED1Ev)
    i._ZN17QForeachContainerI5QListIP35QDeclarativeOrganizerRecurrenceRuleEED1Ev 0x00019074   Section       14  moc_qdeclarativeorganizeritemdetail_p.o(i._ZN17QForeachContainerI5QListIP35QDeclarativeOrganizerRecurrenceRuleEED1Ev)
    i._ZN19QDeclarativePrivate12RegisterTypeD1Ev 0x00019082   Section       20  plugin.o(i._ZN19QDeclarativePrivate12RegisterTypeD1Ev)
    i._ZN19QDeclarativePrivate19QDeclarativeElementI25QDeclarativeOrganizerItemED0Ev 0x00019096   Section       22  plugin.o(i._ZN19QDeclarativePrivate19QDeclarativeElementI25QDeclarativeOrganizerItemED0Ev)
    i._ZN19QDeclarativePrivate19QDeclarativeElementI25QDeclarativeOrganizerNoteED0Ev 0x000190ac   Section       22  plugin.o(i._ZN19QDeclarativePrivate19QDeclarativeElementI25QDeclarativeOrganizerNoteED0Ev)
    i._ZN19QDeclarativePrivate19QDeclarativeElementI25QDeclarativeOrganizerTodoED0Ev 0x000190c2   Section       22  plugin.o(i._ZN19QDeclarativePrivate19QDeclarativeElementI25QDeclarativeOrganizerTodoED0Ev)
    i._ZN19QDeclarativePrivate19QDeclarativeElementI26QDeclarativeOrganizerEventED0Ev 0x000190d8   Section       22  plugin.o(i._ZN19QDeclarativePrivate19QDeclarativeElementI26QDeclarativeOrganizerEventED0Ev)
    i._ZN19QDeclarativePrivate19QDeclarativeElementI26QDeclarativeOrganizerModelED0Ev 0x000190ee   Section       22  plugin.o(i._ZN19QDeclarativePrivate19QDeclarativeElementI26QDeclarativeOrganizerModelED0Ev)
    i._ZN19QDeclarativePrivate19QDeclarativeElementI28QDeclarativeOrganizerJournalED0Ev 0x00019104   Section       22  plugin.o(i._ZN19QDeclarativePrivate19QDeclarativeElementI28QDeclarativeOrganizerJournalED0Ev)
    i._ZN19QDeclarativePrivate19QDeclarativeElementI29QDeclarativeOrganizerItemGuidED0Ev 0x0001911a   Section       22  plugin.o(i._ZN19QDeclarativePrivate19QDeclarativeElementI29QDeclarativeOrganizerItemGuidED0Ev)
    i._ZN19QDeclarativePrivate19QDeclarativeElementI29QDeclarativeOrganizerItemTypeED0Ev 0x00019130   Section       22  plugin.o(i._ZN19QDeclarativePrivate19QDeclarativeElementI29QDeclarativeOrganizerItemTypeED0Ev)
    i._ZN19QDeclarativePrivate19QDeclarativeElementI29QDeclarativeOrganizerTodoTimeED0Ev 0x00019146   Section       22  plugin.o(i._ZN19QDeclarativePrivate19QDeclarativeElementI29QDeclarativeOrganizerTodoTimeED0Ev)
    i._ZN19QDeclarativePrivate19QDeclarativeElementI30QDeclarativeOrganizerEventTimeED0Ev 0x0001915c   Section       22  plugin.o(i._ZN19QDeclarativePrivate19QDeclarativeElementI30QDeclarativeOrganizerEventTimeED0Ev)
    i._ZN19QDeclarativePrivate19QDeclarativeElementI31QDeclarativeOrganizerCollectionED0Ev 0x00019172   Section       22  plugin.o(i._ZN19QDeclarativePrivate19QDeclarativeElementI31QDeclarativeOrganizerCollectionED0Ev)
    i._ZN19QDeclarativePrivate19QDeclarativeElementI31QDeclarativeOrganizerItemDetailED0Ev 0x00019188   Section       22  plugin.o(i._ZN19QDeclarativePrivate19QDeclarativeElementI31QDeclarativeOrganizerItemDetailED0Ev)
    i._ZN19QDeclarativePrivate19QDeclarativeElementI31QDeclarativeOrganizerItemFilterED0Ev 0x0001919e   Section       22  plugin.o(i._ZN19QDeclarativePrivate19QDeclarativeElementI31QDeclarativeOrganizerItemFilterED0Ev)
    i._ZN19QDeclarativePrivate19QDeclarativeElementI31QDeclarativeOrganizerItemParentED0Ev 0x000191b4   Section       22  plugin.o(i._ZN19QDeclarativePrivate19QDeclarativeElementI31QDeclarativeOrganizerItemParentED0Ev)
    i._ZN19QDeclarativePrivate19QDeclarativeElementI32QDeclarativeOrganizerJournalTimeED0Ev 0x000191ca   Section       22  plugin.o(i._ZN19QDeclarativePrivate19QDeclarativeElementI32QDeclarativeOrganizerJournalTimeED0Ev)
    i._ZN19QDeclarativePrivate19QDeclarativeElementI33QDeclarativeOrganizerItemIdFilterEC1Ev 0x000191e0   Section      112  plugin.o(i._ZN19QDeclarativePrivate19QDeclarativeElementI33QDeclarativeOrganizerItemIdFilterEC1Ev)
    i._ZN19QDeclarativePrivate19QDeclarativeElementI33QDeclarativeOrganizerItemIdFilterEC1Ev.clean 0x00019250   Section       22  plugin.o(i._ZN19QDeclarativePrivate19QDeclarativeElementI33QDeclarativeOrganizerItemIdFilterEC1Ev.clean)
    i._ZN19QDeclarativePrivate19QDeclarativeElementI33QDeclarativeOrganizerItemIdFilterED0Ev 0x00019266   Section       22  plugin.o(i._ZN19QDeclarativePrivate19QDeclarativeElementI33QDeclarativeOrganizerItemIdFilterED0Ev)
    i._ZN19QDeclarativePrivate19QDeclarativeElementI33QDeclarativeOrganizerItemLocationED0Ev 0x0001927c   Section       22  plugin.o(i._ZN19QDeclarativePrivate19QDeclarativeElementI33QDeclarativeOrganizerItemLocationED0Ev)
    i._ZN19QDeclarativePrivate19QDeclarativeElementI33QDeclarativeOrganizerItemPriorityED0Ev 0x00019292   Section       22  plugin.o(i._ZN19QDeclarativePrivate19QDeclarativeElementI33QDeclarativeOrganizerItemPriorityED0Ev)
    i._ZN19QDeclarativePrivate19QDeclarativeElementI33QDeclarativeOrganizerItemReminderED0Ev 0x000192a8   Section       22  plugin.o(i._ZN19QDeclarativePrivate19QDeclarativeElementI33QDeclarativeOrganizerItemReminderED0Ev)
    i._ZN19QDeclarativePrivate19QDeclarativeElementI33QDeclarativeOrganizerTodoProgressED0Ev 0x000192be   Section       22  plugin.o(i._ZN19QDeclarativePrivate19QDeclarativeElementI33QDeclarativeOrganizerTodoProgressED0Ev)
    i._ZN19QDeclarativePrivate19QDeclarativeElementI34QDeclarativeOrganizerItemFetchHintED0Ev 0x000192d4   Section       22  plugin.o(i._ZN19QDeclarativePrivate19QDeclarativeElementI34QDeclarativeOrganizerItemFetchHintED0Ev)
    i._ZN19QDeclarativePrivate19QDeclarativeElementI34QDeclarativeOrganizerItemSortOrderEC1Ev 0x000192ec   Section       96  plugin.o(i._ZN19QDeclarativePrivate19QDeclarativeElementI34QDeclarativeOrganizerItemSortOrderEC1Ev)
    i._ZN19QDeclarativePrivate19QDeclarativeElementI34QDeclarativeOrganizerItemSortOrderEC1Ev.clean 0x0001934c   Section       46  plugin.o(i._ZN19QDeclarativePrivate19QDeclarativeElementI34QDeclarativeOrganizerItemSortOrderEC1Ev.clean)
    i._ZN19QDeclarativePrivate19QDeclarativeElementI34QDeclarativeOrganizerItemSortOrderED0Ev 0x0001937a   Section       22  plugin.o(i._ZN19QDeclarativePrivate19QDeclarativeElementI34QDeclarativeOrganizerItemSortOrderED0Ev)
    i._ZN19QDeclarativePrivate19QDeclarativeElementI34QDeclarativeOrganizerItemTimestampED0Ev 0x00019390   Section       22  plugin.o(i._ZN19QDeclarativePrivate19QDeclarativeElementI34QDeclarativeOrganizerItemTimestampED0Ev)
    i._ZN19QDeclarativePrivate19QDeclarativeElementI35QDeclarativeOrganizerItemRecurrenceED0Ev 0x000193a6   Section       22  plugin.o(i._ZN19QDeclarativePrivate19QDeclarativeElementI35QDeclarativeOrganizerItemRecurrenceED0Ev)
    i._ZN19QDeclarativePrivate19QDeclarativeElementI35QDeclarativeOrganizerRecurrenceRuleED0Ev 0x000193bc   Section       22  plugin.o(i._ZN19QDeclarativePrivate19QDeclarativeElementI35QDeclarativeOrganizerRecurrenceRuleED0Ev)
    i._ZN19QDeclarativePrivate19QDeclarativeElementI35QDeclarativeOrganizerTodoOccurrenceED0Ev 0x000193d2   Section       22  plugin.o(i._ZN19QDeclarativePrivate19QDeclarativeElementI35QDeclarativeOrganizerTodoOccurrenceED0Ev)
    i._ZN19QDeclarativePrivate19QDeclarativeElementI36QDeclarativeOrganizerEventOccurrenceED0Ev 0x000193e8   Section       22  plugin.o(i._ZN19QDeclarativePrivate19QDeclarativeElementI36QDeclarativeOrganizerEventOccurrenceED0Ev)
    i._ZN19QDeclarativePrivate19QDeclarativeElementI36QDeclarativeOrganizerItemDescriptionED0Ev 0x000193fe   Section       22  plugin.o(i._ZN19QDeclarativePrivate19QDeclarativeElementI36QDeclarativeOrganizerItemDescriptionED0Ev)
    i._ZN19QDeclarativePrivate19QDeclarativeElementI36QDeclarativeOrganizerItemUnionFilterED0Ev 0x00019414   Section       22  plugin.o(i._ZN19QDeclarativePrivate19QDeclarativeElementI36QDeclarativeOrganizerItemUnionFilterED0Ev)
    i._ZN19QDeclarativePrivate19QDeclarativeElementI37QDeclarativeOrganizerItemDetailFilterED0Ev 0x0001942a   Section       22  plugin.o(i._ZN19QDeclarativePrivate19QDeclarativeElementI37QDeclarativeOrganizerItemDetailFilterED0Ev)
    i._ZN19QDeclarativePrivate19QDeclarativeElementI37QDeclarativeOrganizerItemDisplayLabelED0Ev 0x00019440   Section       22  plugin.o(i._ZN19QDeclarativePrivate19QDeclarativeElementI37QDeclarativeOrganizerItemDisplayLabelED0Ev)
    i._ZN19QDeclarativePrivate19QDeclarativeElementI38QDeclarativeOrganizerItemEmailReminderED0Ev 0x00019456   Section       22  plugin.o(i._ZN19QDeclarativePrivate19QDeclarativeElementI38QDeclarativeOrganizerItemEmailReminderED0Ev)
    i._ZN19QDeclarativePrivate19QDeclarativeElementI38QDeclarativeOrganizerItemInvalidFilterED0Ev 0x0001946c   Section       22  plugin.o(i._ZN19QDeclarativePrivate19QDeclarativeElementI38QDeclarativeOrganizerItemInvalidFilterED0Ev)
    i._ZN19QDeclarativePrivate19QDeclarativeElementI39QDeclarativeOrganizerItemVisualReminderED0Ev 0x00019482   Section       22  plugin.o(i._ZN19QDeclarativePrivate19QDeclarativeElementI39QDeclarativeOrganizerItemVisualReminderED0Ev)
    i._ZN19QDeclarativePrivate19QDeclarativeElementI40QDeclarativeOrganizerItemAudibleReminderED0Ev 0x00019498   Section       22  plugin.o(i._ZN19QDeclarativePrivate19QDeclarativeElementI40QDeclarativeOrganizerItemAudibleReminderED0Ev)
    i._ZN19QDeclarativePrivate19QDeclarativeElementI40QDeclarativeOrganizerItemChangeLogFilterED0Ev 0x000194ae   Section       22  plugin.o(i._ZN19QDeclarativePrivate19QDeclarativeElementI40QDeclarativeOrganizerItemChangeLogFilterED0Ev)
    i._ZN19QDeclarativePrivate19QDeclarativeElementI41QDeclarativeOrganizerItemCollectionFilterEC1Ev 0x000194c4   Section      116  plugin.o(i._ZN19QDeclarativePrivate19QDeclarativeElementI41QDeclarativeOrganizerItemCollectionFilterEC1Ev)
    i._ZN19QDeclarativePrivate19QDeclarativeElementI41QDeclarativeOrganizerItemCollectionFilterEC1Ev.clean 0x00019538   Section       22  plugin.o(i._ZN19QDeclarativePrivate19QDeclarativeElementI41QDeclarativeOrganizerItemCollectionFilterEC1Ev.clean)
    i._ZN19QDeclarativePrivate19QDeclarativeElementI41QDeclarativeOrganizerItemCollectionFilterED0Ev 0x0001954e   Section       22  plugin.o(i._ZN19QDeclarativePrivate19QDeclarativeElementI41QDeclarativeOrganizerItemCollectionFilterED0Ev)
    i._ZN19QDeclarativePrivate19QDeclarativeElementI42QDeclarativeOrganizerItemDetailRangeFilterED0Ev 0x00019564   Section       22  plugin.o(i._ZN19QDeclarativePrivate19QDeclarativeElementI42QDeclarativeOrganizerItemDetailRangeFilterED0Ev)
    i._ZN19QDeclarativePrivate19QDeclarativeElementI43QDeclarativeOrganizerItemIntersectionFilterED0Ev 0x0001957a   Section       22  plugin.o(i._ZN19QDeclarativePrivate19QDeclarativeElementI43QDeclarativeOrganizerItemIntersectionFilterED0Ev)
    i._ZN19QOrganizerQmlPlugin13registerTypesEPKc 0x00019590   Section      996  plugin.o(i._ZN19QOrganizerQmlPlugin13registerTypesEPKc)
    i._ZN19QOrganizerQmlPluginD0Ev           0x00019974   Section       24  plugin.o(i._ZN19QOrganizerQmlPluginD0Ev)
    i._ZN19QOrganizerQmlPluginD1Ev           0x0001998c   Section       14  plugin.o(i._ZN19QOrganizerQmlPluginD1Ev)
    i._ZN23QMetaEnumBuilderPrivateC1ERKS_    0x0001999a   Section       78  qmetaobjectbuilder.o(i._ZN23QMetaEnumBuilderPrivateC1ERKS_)
    i._ZN23QMetaEnumBuilderPrivateC1ERKS_.clean 0x000199e8   Section       22  qmetaobjectbuilder.o(i._ZN23QMetaEnumBuilderPrivateC1ERKS_.clean)
    i._ZN23QMetaEnumBuilderPrivateD1Ev       0x000199fe   Section       38  qmetaobjectbuilder.o(i._ZN23QMetaEnumBuilderPrivateD1Ev)
    i._ZN23QMetaEnumBuilderPrivateD1Ev.clean 0x00019a24   Section       22  qmetaobjectbuilder.o(i._ZN23QMetaEnumBuilderPrivateD1Ev.clean)
    i._ZN25QDeclarativeOrganizerNoteD0Ev     0x00019a3a   Section       24  moc_qdeclarativeorganizeritem_p.o(i._ZN25QDeclarativeOrganizerNoteD0Ev)
    i._ZN25QDeclarativeOrganizerNoteD1Ev     0x00019a52   Section       14  moc_qdeclarativeorganizeritem_p.o(i._ZN25QDeclarativeOrganizerNoteD1Ev)
    i._ZN25QDeclarativeOrganizerTodoD0Ev     0x00019a60   Section       24  moc_qdeclarativeorganizeritem_p.o(i._ZN25QDeclarativeOrganizerTodoD0Ev)
    i._ZN25QDeclarativeOrganizerTodoD1Ev     0x00019a78   Section       14  moc_qdeclarativeorganizeritem_p.o(i._ZN25QDeclarativeOrganizerTodoD1Ev)
    i._ZN25QMetaMethodBuilderPrivateC1EN11QMetaMethod10MethodTypeERK10QByteArrayS4_NS0_6AccessE 0x00019a86   Section      118  qmetaobjectbuilder.o(i._ZN25QMetaMethodBuilderPrivateC1EN11QMetaMethod10MethodTypeERK10QByteArrayS4_NS0_6AccessE)
    i._ZN25QMetaMethodBuilderPrivateC1EN11QMetaMethod10MethodTypeERK10QByteArrayS4_NS0_6AccessE.clean 0x00019afc   Section       50  qmetaobjectbuilder.o(i._ZN25QMetaMethodBuilderPrivateC1EN11QMetaMethod10MethodTypeERK10QByteArrayS4_NS0_6AccessE.clean)
    i._ZN25QMetaMethodBuilderPrivateC1ERKS_  0x00019b2e   Section       66  qmetaobjectbuilder.o(i._ZN25QMetaMethodBuilderPrivateC1ERKS_)
    i._ZN25QMetaMethodBuilderPrivateC1ERKS_.clean 0x00019b70   Section       30  qmetaobjectbuilder.o(i._ZN25QMetaMethodBuilderPrivateC1ERKS_.clean)
    i._ZN25QMetaMethodBuilderPrivateD1Ev     0x00019b8e   Section       46  qmetaobjectbuilder.o(i._ZN25QMetaMethodBuilderPrivateD1Ev)
    i._ZN25QMetaMethodBuilderPrivateD1Ev.clean 0x00019bbc   Section       30  qmetaobjectbuilder.o(i._ZN25QMetaMethodBuilderPrivateD1Ev.clean)
    i._ZN25QMetaObjectBuilderPrivateC1Ev     0x00019bdc   Section      116  qmetaobjectbuilder.o(i._ZN25QMetaObjectBuilderPrivateC1Ev)
    i._ZN25QMetaObjectBuilderPrivateC1Ev.clean 0x00019c50   Section       82  qmetaobjectbuilder.o(i._ZN25QMetaObjectBuilderPrivateC1Ev.clean)
    i._ZN25QMetaObjectBuilderPrivateD1Ev     0x00019ca2   Section       98  qmetaobjectbuilder.o(i._ZN25QMetaObjectBuilderPrivateD1Ev)
    i._ZN25QMetaObjectBuilderPrivateD1Ev.clean 0x00019d04   Section       82  qmetaobjectbuilder.o(i._ZN25QMetaObjectBuilderPrivateD1Ev.clean)
    i._ZN26QAbstractDynamicMetaObject14createPropertyEPKcS1_ 0x00019d56   Section        8  qdeclarativeopenmetaobject.o(i._ZN26QAbstractDynamicMetaObject14createPropertyEPKcS1_)
    i._ZN26QAbstractDynamicMetaObject8metaCallEN11QMetaObject4CallEiPPv 0x00019d5e   Section        8  qdeclarativeopenmetaobject.o(i._ZN26QAbstractDynamicMetaObject8metaCallEN11QMetaObject4CallEiPPv)
    i._ZN26QAbstractDynamicMetaObjectD0Ev    0x00019d66   Section       18  qdeclarativeopenmetaobject.o(i._ZN26QAbstractDynamicMetaObjectD0Ev)
    i._ZN26QAbstractDynamicMetaObjectD1Ev    0x00019d78   Section        2  qdeclarativeopenmetaobject.o(i._ZN26QAbstractDynamicMetaObjectD1Ev)
    i._ZN26QDeclarativeOrganizerEventD0Ev    0x00019d7a   Section       24  moc_qdeclarativeorganizeritem_p.o(i._ZN26QDeclarativeOrganizerEventD0Ev)
    i._ZN26QDeclarativeOrganizerEventD1Ev    0x00019d92   Section       14  moc_qdeclarativeorganizeritem_p.o(i._ZN26QDeclarativeOrganizerEventD1Ev)
    i._ZN26QDeclarativeOrganizerModel10classBeginEv 0x00019da0   Section        2  moc_qdeclarativeorganizermodel_p.o(i._ZN26QDeclarativeOrganizerModel10classBeginEv)
    i._ZN26QDeclarativeOrganizerModelD0Ev    0x00019da2   Section       22  moc_qdeclarativeorganizermodel_p.o(i._ZN26QDeclarativeOrganizerModelD0Ev)
    i._ZN26QDeclarativeOrganizerModelD1Ev    0x00019db8   Section       26  moc_qdeclarativeorganizermodel_p.o(i._ZN26QDeclarativeOrganizerModelD1Ev)
    i._ZN26QDeclarativeOrganizerModelD1Ev.clean 0x00019dd2   Section       10  moc_qdeclarativeorganizermodel_p.o(i._ZN26QDeclarativeOrganizerModelD1Ev.clean)
    i._ZN27QMetaPropertyBuilderPrivate7setFlagEib 0x00019ddc   Section       20  qmetaobjectbuilder.o(i._ZN27QMetaPropertyBuilderPrivate7setFlagEib)
    i._ZN27QMetaPropertyBuilderPrivateC1ERKS_ 0x00019df0   Section       38  qmetaobjectbuilder.o(i._ZN27QMetaPropertyBuilderPrivateC1ERKS_)
    i._ZN27QMetaPropertyBuilderPrivateC1ERKS_.clean 0x00019e16   Section       10  qmetaobjectbuilder.o(i._ZN27QMetaPropertyBuilderPrivateC1ERKS_.clean)
    i._ZN27QMetaPropertyBuilderPrivateD1Ev   0x00019e20   Section       22  qmetaobjectbuilder.o(i._ZN27QMetaPropertyBuilderPrivateD1Ev)
    i._ZN27QMetaPropertyBuilderPrivateD1Ev.clean 0x00019e36   Section       10  qmetaobjectbuilder.o(i._ZN27QMetaPropertyBuilderPrivateD1Ev.clean)
    i._ZN28QDeclarativeOrganizerJournalD0Ev  0x00019e40   Section       24  moc_qdeclarativeorganizeritem_p.o(i._ZN28QDeclarativeOrganizerJournalD0Ev)
    i._ZN28QDeclarativeOrganizerJournalD1Ev  0x00019e58   Section       14  moc_qdeclarativeorganizeritem_p.o(i._ZN28QDeclarativeOrganizerJournalD1Ev)
    i._ZN29QDeclarativeOrganizerItemGuidC1EP7QObject 0x00019e68   Section      124  plugin.o(i._ZN29QDeclarativeOrganizerItemGuidC1EP7QObject)
    i._ZN29QDeclarativeOrganizerItemGuidC1EP7QObject.clean 0x00019ee4   Section       16  plugin.o(i._ZN29QDeclarativeOrganizerItemGuidC1EP7QObject.clean)
    i._ZN29QDeclarativeOrganizerItemGuidD0Ev 0x00019ef4   Section       24  moc_qdeclarativeorganizeritemdetail_p.o(i._ZN29QDeclarativeOrganizerItemGuidD0Ev)
    i._ZN29QDeclarativeOrganizerItemGuidD1Ev 0x00019f0c   Section       14  moc_qdeclarativeorganizeritemdetail_p.o(i._ZN29QDeclarativeOrganizerItemGuidD1Ev)
    i._ZN29QDeclarativeOrganizerItemType11setItemTypeENS_17OrganizerItemTypeE 0x00019f1c   Section      484  moc_qdeclarativeorganizeritemdetail_p.o(i._ZN29QDeclarativeOrganizerItemType11setItemTypeENS_17OrganizerItemTypeE)
    i._ZN29QDeclarativeOrganizerItemType11setItemTypeENS_17OrganizerItemTypeE.clean 0x0001a100   Section      104  moc_qdeclarativeorganizeritemdetail_p.o(i._ZN29QDeclarativeOrganizerItemType11setItemTypeENS_17OrganizerItemTypeE.clean)
    i._ZN29QDeclarativeOrganizerItemTypeC1EP7QObject 0x0001a168   Section      124  plugin.o(i._ZN29QDeclarativeOrganizerItemTypeC1EP7QObject)
    i._ZN29QDeclarativeOrganizerItemTypeC1EP7QObject.clean 0x0001a1e4   Section       16  plugin.o(i._ZN29QDeclarativeOrganizerItemTypeC1EP7QObject.clean)
    i._ZN29QDeclarativeOrganizerItemTypeD0Ev 0x0001a1f4   Section       24  moc_qdeclarativeorganizeritemdetail_p.o(i._ZN29QDeclarativeOrganizerItemTypeD0Ev)
    i._ZN29QDeclarativeOrganizerItemTypeD1Ev 0x0001a20c   Section       14  moc_qdeclarativeorganizeritemdetail_p.o(i._ZN29QDeclarativeOrganizerItemTypeD1Ev)
    i._ZN29QDeclarativeOrganizerTodoTime14setDueDateTimeERK9QDateTime 0x0001a21c   Section      116  moc_qdeclarativeorganizeritemdetail_p.o(i._ZN29QDeclarativeOrganizerTodoTime14setDueDateTimeERK9QDateTime)
    i._ZN29QDeclarativeOrganizerTodoTime14setDueDateTimeERK9QDateTime.clean 0x0001a290   Section       24  moc_qdeclarativeorganizeritemdetail_p.o(i._ZN29QDeclarativeOrganizerTodoTime14setDueDateTimeERK9QDateTime.clean)
    i._ZN29QDeclarativeOrganizerTodoTime16setStartDateTimeERK9QDateTime 0x0001a2a8   Section      124  moc_qdeclarativeorganizeritemdetail_p.o(i._ZN29QDeclarativeOrganizerTodoTime16setStartDateTimeERK9QDateTime)
    i._ZN29QDeclarativeOrganizerTodoTime16setStartDateTimeERK9QDateTime.clean 0x0001a324   Section       24  moc_qdeclarativeorganizeritemdetail_p.o(i._ZN29QDeclarativeOrganizerTodoTime16setStartDateTimeERK9QDateTime.clean)
    i._ZN29QDeclarativeOrganizerTodoTimeC1EP7QObject 0x0001a33c   Section      124  plugin.o(i._ZN29QDeclarativeOrganizerTodoTimeC1EP7QObject)
    i._ZN29QDeclarativeOrganizerTodoTimeC1EP7QObject.clean 0x0001a3b8   Section       16  plugin.o(i._ZN29QDeclarativeOrganizerTodoTimeC1EP7QObject.clean)
    i._ZN29QDeclarativeOrganizerTodoTimeD0Ev 0x0001a3c8   Section       24  moc_qdeclarativeorganizeritemdetail_p.o(i._ZN29QDeclarativeOrganizerTodoTimeD0Ev)
    i._ZN29QDeclarativeOrganizerTodoTimeD1Ev 0x0001a3e0   Section       14  moc_qdeclarativeorganizeritemdetail_p.o(i._ZN29QDeclarativeOrganizerTodoTimeD1Ev)
    i._ZN30QDeclarativeOrganizerEventTime14setEndDateTimeERK9QDateTime 0x0001a3f0   Section      116  moc_qdeclarativeorganizeritemdetail_p.o(i._ZN30QDeclarativeOrganizerEventTime14setEndDateTimeERK9QDateTime)
    i._ZN30QDeclarativeOrganizerEventTime14setEndDateTimeERK9QDateTime.clean 0x0001a464   Section       24  moc_qdeclarativeorganizeritemdetail_p.o(i._ZN30QDeclarativeOrganizerEventTime14setEndDateTimeERK9QDateTime.clean)
    i._ZN30QDeclarativeOrganizerEventTime16setStartDateTimeERK9QDateTime 0x0001a47c   Section      124  moc_qdeclarativeorganizeritemdetail_p.o(i._ZN30QDeclarativeOrganizerEventTime16setStartDateTimeERK9QDateTime)
    i._ZN30QDeclarativeOrganizerEventTime16setStartDateTimeERK9QDateTime.clean 0x0001a4f8   Section       24  moc_qdeclarativeorganizeritemdetail_p.o(i._ZN30QDeclarativeOrganizerEventTime16setStartDateTimeERK9QDateTime.clean)
    i._ZN30QDeclarativeOrganizerEventTimeC1EP7QObject 0x0001a510   Section      124  plugin.o(i._ZN30QDeclarativeOrganizerEventTimeC1EP7QObject)
    i._ZN30QDeclarativeOrganizerEventTimeC1EP7QObject.clean 0x0001a58c   Section       16  plugin.o(i._ZN30QDeclarativeOrganizerEventTimeC1EP7QObject.clean)
    i._ZN30QDeclarativeOrganizerEventTimeD0Ev 0x0001a59c   Section       24  moc_qdeclarativeorganizeritemdetail_p.o(i._ZN30QDeclarativeOrganizerEventTimeD0Ev)
    i._ZN30QDeclarativeOrganizerEventTimeD1Ev 0x0001a5b4   Section       14  moc_qdeclarativeorganizeritemdetail_p.o(i._ZN30QDeclarativeOrganizerEventTimeD1Ev)
    i._ZN31QDeclarativeOrganizerCollection11setMetaDataERK7QStringRK8QVariant 0x0001a5c2   Section       72  moc_qdeclarativeorganizercollection_p.o(i._ZN31QDeclarativeOrganizerCollection11setMetaDataERK7QStringRK8QVariant)
    i._ZN31QDeclarativeOrganizerCollection11setMetaDataERK7QStringRK8QVariant.clean 0x0001a60a   Section       10  moc_qdeclarativeorganizercollection_p.o(i._ZN31QDeclarativeOrganizerCollection11setMetaDataERK7QStringRK8QVariant.clean)
    i._ZN31QDeclarativeOrganizerCollectionD0Ev 0x0001a614   Section       22  moc_qdeclarativeorganizercollection_p.o(i._ZN31QDeclarativeOrganizerCollectionD0Ev)
    i._ZN31QDeclarativeOrganizerCollectionD1Ev 0x0001a62c   Section       36  moc_qdeclarativeorganizercollection_p.o(i._ZN31QDeclarativeOrganizerCollectionD1Ev)
    i._ZN31QDeclarativeOrganizerCollectionD1Ev.clean 0x0001a650   Section       10  moc_qdeclarativeorganizercollection_p.o(i._ZN31QDeclarativeOrganizerCollectionD1Ev.clean)
    i._ZN31QDeclarativeOrganizerItemDetail2trEPKcS1_ 0x0001a65c   Section       28  qdeclarativeorganizeritemdetail.o(i._ZN31QDeclarativeOrganizerItemDetail2trEPKcS1_)
    i._ZN31QDeclarativeOrganizerItemDetail6detailEv 0x0001a678   Section       20  qdeclarativeorganizeritemmetaobject.o(i._ZN31QDeclarativeOrganizerItemDetail6detailEv)
    i._ZN31QDeclarativeOrganizerItemDetail9setDetailERKN10QtMobility20QOrganizerItemDetailE 0x0001a68c   Section       18  plugin.o(i._ZN31QDeclarativeOrganizerItemDetail9setDetailERKN10QtMobility20QOrganizerItemDetailE)
    i._ZN31QDeclarativeOrganizerItemDetailC1EP7QObject 0x0001a6a0   Section       40  plugin.o(i._ZN31QDeclarativeOrganizerItemDetailC1EP7QObject)
    i._ZN31QDeclarativeOrganizerItemDetailC1EP7QObject.clean 0x0001a6c8   Section       10  plugin.o(i._ZN31QDeclarativeOrganizerItemDetailC1EP7QObject.clean)
    i._ZN31QDeclarativeOrganizerItemDetailD0Ev 0x0001a6d2   Section       22  moc_qdeclarativeorganizeritemdetail_p.o(i._ZN31QDeclarativeOrganizerItemDetailD0Ev)
    i._ZN31QDeclarativeOrganizerItemDetailD1Ev 0x0001a6e8   Section       36  moc_qdeclarativeorganizeritemdetail_p.o(i._ZN31QDeclarativeOrganizerItemDetailD1Ev)
    i._ZN31QDeclarativeOrganizerItemDetailD1Ev.clean 0x0001a70c   Section       10  moc_qdeclarativeorganizeritemdetail_p.o(i._ZN31QDeclarativeOrganizerItemDetailD1Ev.clean)
    i._ZN31QDeclarativeOrganizerItemFilterC1EP7QObject 0x0001a718   Section      100  plugin.o(i._ZN31QDeclarativeOrganizerItemFilterC1EP7QObject)
    i._ZN31QDeclarativeOrganizerItemFilterC1EP7QObject.clean 0x0001a77c   Section       10  plugin.o(i._ZN31QDeclarativeOrganizerItemFilterC1EP7QObject.clean)
    i._ZN31QDeclarativeOrganizerItemFilterD0Ev 0x0001a786   Section       22  moc_qdeclarativeorganizeritemfilter_p.o(i._ZN31QDeclarativeOrganizerItemFilterD0Ev)
    i._ZN31QDeclarativeOrganizerItemFilterD1Ev 0x0001a79c   Section       14  moc_qdeclarativeorganizeritemfilter_p.o(i._ZN31QDeclarativeOrganizerItemFilterD1Ev)
    i._ZN31QDeclarativeOrganizerItemParent11setParentIdERK7QString 0x0001a7ac   Section      144  moc_qdeclarativeorganizeritemdetail_p.o(i._ZN31QDeclarativeOrganizerItemParent11setParentIdERK7QString)
    i._ZN31QDeclarativeOrganizerItemParent11setParentIdERK7QString.clean 0x0001a83c   Section       24  moc_qdeclarativeorganizeritemdetail_p.o(i._ZN31QDeclarativeOrganizerItemParent11setParentIdERK7QString.clean)
    i._ZN31QDeclarativeOrganizerItemParent15setOriginalDateERK5QDate 0x0001a854   Section       96  qdeclarativeorganizeritem.o(i._ZN31QDeclarativeOrganizerItemParent15setOriginalDateERK5QDate)
    i._ZN31QDeclarativeOrganizerItemParent15setOriginalDateERK5QDate.clean 0x0001a8b4   Section       10  qdeclarativeorganizeritem.o(i._ZN31QDeclarativeOrganizerItemParent15setOriginalDateERK5QDate.clean)
    i._ZN31QDeclarativeOrganizerItemParentC1EP7QObject 0x0001a8c0   Section      124  plugin.o(i._ZN31QDeclarativeOrganizerItemParentC1EP7QObject)
    i._ZN31QDeclarativeOrganizerItemParentC1EP7QObject.clean 0x0001a93c   Section       16  plugin.o(i._ZN31QDeclarativeOrganizerItemParentC1EP7QObject.clean)
    i._ZN31QDeclarativeOrganizerItemParentD0Ev 0x0001a94c   Section       24  moc_qdeclarativeorganizeritemdetail_p.o(i._ZN31QDeclarativeOrganizerItemParentD0Ev)
    i._ZN31QDeclarativeOrganizerItemParentD1Ev 0x0001a964   Section       14  moc_qdeclarativeorganizeritemdetail_p.o(i._ZN31QDeclarativeOrganizerItemParentD1Ev)
    i._ZN32QDeclarativeOrganizerItemCommentC1EP7QObject 0x0001a974   Section      124  qdeclarativeorganizeritemmetaobject.o(i._ZN32QDeclarativeOrganizerItemCommentC1EP7QObject)
    i._ZN32QDeclarativeOrganizerItemCommentC1EP7QObject.clean 0x0001a9f0   Section       16  qdeclarativeorganizeritemmetaobject.o(i._ZN32QDeclarativeOrganizerItemCommentC1EP7QObject.clean)
    i._ZN32QDeclarativeOrganizerItemCommentD0Ev 0x0001aa00   Section       24  moc_qdeclarativeorganizeritemdetail_p.o(i._ZN32QDeclarativeOrganizerItemCommentD0Ev)
    i._ZN32QDeclarativeOrganizerItemCommentD1Ev 0x0001aa18   Section       14  moc_qdeclarativeorganizeritemdetail_p.o(i._ZN32QDeclarativeOrganizerItemCommentD1Ev)
    i._ZN32QDeclarativeOrganizerJournalTime16setEntryDateTimeERK9QDateTime 0x0001aa28   Section      124  moc_qdeclarativeorganizeritemdetail_p.o(i._ZN32QDeclarativeOrganizerJournalTime16setEntryDateTimeERK9QDateTime)
    i._ZN32QDeclarativeOrganizerJournalTime16setEntryDateTimeERK9QDateTime.clean 0x0001aaa4   Section       24  moc_qdeclarativeorganizeritemdetail_p.o(i._ZN32QDeclarativeOrganizerJournalTime16setEntryDateTimeERK9QDateTime.clean)
    i._ZN32QDeclarativeOrganizerJournalTimeC1EP7QObject 0x0001aabc   Section      124  plugin.o(i._ZN32QDeclarativeOrganizerJournalTimeC1EP7QObject)
    i._ZN32QDeclarativeOrganizerJournalTimeC1EP7QObject.clean 0x0001ab38   Section       16  plugin.o(i._ZN32QDeclarativeOrganizerJournalTimeC1EP7QObject.clean)
    i._ZN32QDeclarativeOrganizerJournalTimeD0Ev 0x0001ab48   Section       24  moc_qdeclarativeorganizeritemdetail_p.o(i._ZN32QDeclarativeOrganizerJournalTimeD0Ev)
    i._ZN32QDeclarativeOrganizerJournalTimeD1Ev 0x0001ab60   Section       14  moc_qdeclarativeorganizeritemdetail_p.o(i._ZN32QDeclarativeOrganizerJournalTimeD1Ev)
    i._ZN33QDeclarativeOpenMetaObjectPrivate14createPropertyERK10QByteArrayS2_ 0x0001ab70   Section      224  qdeclarativeopenmetaobject.o(i._ZN33QDeclarativeOpenMetaObjectPrivate14createPropertyERK10QByteArrayS2_)
    i._ZN33QDeclarativeOpenMetaObjectPrivate14createPropertyERK10QByteArrayS2_.clean 0x0001ac50   Section       42  qdeclarativeopenmetaobject.o(i._ZN33QDeclarativeOpenMetaObjectPrivate14createPropertyERK10QByteArrayS2_.clean)
    i._ZN33QDeclarativeOrganizerItemIdFilter6setIdsERK5QListI8QVariantE 0x0001ac7a   Section      284  moc_qdeclarativeorganizeritemfilter_p.o(i._ZN33QDeclarativeOrganizerItemIdFilter6setIdsERK5QListI8QVariantE)
    i._ZN33QDeclarativeOrganizerItemIdFilter6setIdsERK5QListI8QVariantE.clean 0x0001ad96   Section       18  moc_qdeclarativeorganizeritemfilter_p.o(i._ZN33QDeclarativeOrganizerItemIdFilter6setIdsERK5QListI8QVariantE.clean)
    i._ZN33QDeclarativeOrganizerItemIdFilterD0Ev 0x0001ada8   Section       22  moc_qdeclarativeorganizeritemfilter_p.o(i._ZN33QDeclarativeOrganizerItemIdFilterD0Ev)
    i._ZN33QDeclarativeOrganizerItemIdFilterD1Ev 0x0001adc0   Section       36  moc_qdeclarativeorganizeritemfilter_p.o(i._ZN33QDeclarativeOrganizerItemIdFilterD1Ev)
    i._ZN33QDeclarativeOrganizerItemIdFilterD1Ev.clean 0x0001ade4   Section       10  moc_qdeclarativeorganizeritemfilter_p.o(i._ZN33QDeclarativeOrganizerItemIdFilterD1Ev.clean)
    i._ZN33QDeclarativeOrganizerItemLocation8setLabelERK7QString 0x0001adf0   Section      112  qdeclarativeorganizeritem.o(i._ZN33QDeclarativeOrganizerItemLocation8setLabelERK7QString)
    i._ZN33QDeclarativeOrganizerItemLocation8setLabelERK7QString.clean 0x0001ae60   Section       18  qdeclarativeorganizeritem.o(i._ZN33QDeclarativeOrganizerItemLocation8setLabelERK7QString.clean)
    i._ZN33QDeclarativeOrganizerItemLocationC1EP7QObject 0x0001ae74   Section      124  plugin.o(i._ZN33QDeclarativeOrganizerItemLocationC1EP7QObject)
    i._ZN33QDeclarativeOrganizerItemLocationC1EP7QObject.clean 0x0001aef0   Section       16  plugin.o(i._ZN33QDeclarativeOrganizerItemLocationC1EP7QObject.clean)
    i._ZN33QDeclarativeOrganizerItemLocationD0Ev 0x0001af00   Section       24  moc_qdeclarativeorganizeritemdetail_p.o(i._ZN33QDeclarativeOrganizerItemLocationD0Ev)
    i._ZN33QDeclarativeOrganizerItemLocationD1Ev 0x0001af18   Section       14  moc_qdeclarativeorganizeritemdetail_p.o(i._ZN33QDeclarativeOrganizerItemLocationD1Ev)
    i._ZN33QDeclarativeOrganizerItemPriority11setPriorityENS_12PriorityTypeE 0x0001af28   Section       80  qdeclarativeorganizeritem.o(i._ZN33QDeclarativeOrganizerItemPriority11setPriorityENS_12PriorityTypeE)
    i._ZN33QDeclarativeOrganizerItemPriority11setPriorityENS_12PriorityTypeE.clean 0x0001af78   Section       10  qdeclarativeorganizeritem.o(i._ZN33QDeclarativeOrganizerItemPriority11setPriorityENS_12PriorityTypeE.clean)
    i._ZN33QDeclarativeOrganizerItemPriorityC1EP7QObject 0x0001af84   Section      124  plugin.o(i._ZN33QDeclarativeOrganizerItemPriorityC1EP7QObject)
    i._ZN33QDeclarativeOrganizerItemPriorityC1EP7QObject.clean 0x0001b000   Section       16  plugin.o(i._ZN33QDeclarativeOrganizerItemPriorityC1EP7QObject.clean)
    i._ZN33QDeclarativeOrganizerItemPriorityD0Ev 0x0001b010   Section       24  moc_qdeclarativeorganizeritemdetail_p.o(i._ZN33QDeclarativeOrganizerItemPriorityD0Ev)
    i._ZN33QDeclarativeOrganizerItemPriorityD1Ev 0x0001b028   Section       14  moc_qdeclarativeorganizeritemdetail_p.o(i._ZN33QDeclarativeOrganizerItemPriorityD1Ev)
    i._ZN33QDeclarativeOrganizerItemReminderC1EP7QObject 0x0001b038   Section      124  plugin.o(i._ZN33QDeclarativeOrganizerItemReminderC1EP7QObject)
    i._ZN33QDeclarativeOrganizerItemReminderC1EP7QObject.clean 0x0001b0b4   Section       16  plugin.o(i._ZN33QDeclarativeOrganizerItemReminderC1EP7QObject.clean)
    i._ZN33QDeclarativeOrganizerItemReminderD0Ev 0x0001b0c4   Section       22  moc_qdeclarativeorganizeritemdetail_p.o(i._ZN33QDeclarativeOrganizerItemReminderD0Ev)
    i._ZN33QDeclarativeOrganizerItemReminderD1Ev 0x0001b0da   Section       14  moc_qdeclarativeorganizeritemdetail_p.o(i._ZN33QDeclarativeOrganizerItemReminderD1Ev)
    i._ZN33QDeclarativeOrganizerModelPrivateC1Ev 0x0001b0e8   Section      178  qdeclarativeorganizermodel.o(i._ZN33QDeclarativeOrganizerModelPrivateC1Ev)
    i._ZN33QDeclarativeOrganizerModelPrivateC1Ev.clean 0x0001b19a   Section      116  qdeclarativeorganizermodel.o(i._ZN33QDeclarativeOrganizerModelPrivateC1Ev.clean)
    i._ZN33QDeclarativeOrganizerTodoProgress19setFinishedDateTimeERK9QDateTime 0x0001b210   Section      124  moc_qdeclarativeorganizeritemdetail_p.o(i._ZN33QDeclarativeOrganizerTodoProgress19setFinishedDateTimeERK9QDateTime)
    i._ZN33QDeclarativeOrganizerTodoProgress19setFinishedDateTimeERK9QDateTime.clean 0x0001b28c   Section       24  moc_qdeclarativeorganizeritemdetail_p.o(i._ZN33QDeclarativeOrganizerTodoProgress19setFinishedDateTimeERK9QDateTime.clean)
    i._ZN33QDeclarativeOrganizerTodoProgress21setPercentageCompleteEi 0x0001b2a4   Section      204  moc_qdeclarativeorganizeritemdetail_p.o(i._ZN33QDeclarativeOrganizerTodoProgress21setPercentageCompleteEi)
    i._ZN33QDeclarativeOrganizerTodoProgress21setPercentageCompleteEi.clean 0x0001b370   Section       24  moc_qdeclarativeorganizeritemdetail_p.o(i._ZN33QDeclarativeOrganizerTodoProgress21setPercentageCompleteEi.clean)
    i._ZN33QDeclarativeOrganizerTodoProgress9setStatusENS_10StatusTypeE 0x0001b388   Section       80  qdeclarativeorganizeritem.o(i._ZN33QDeclarativeOrganizerTodoProgress9setStatusENS_10StatusTypeE)
    i._ZN33QDeclarativeOrganizerTodoProgress9setStatusENS_10StatusTypeE.clean 0x0001b3d8   Section       10  qdeclarativeorganizeritem.o(i._ZN33QDeclarativeOrganizerTodoProgress9setStatusENS_10StatusTypeE.clean)
    i._ZN33QDeclarativeOrganizerTodoProgressC1EP7QObject 0x0001b3e4   Section      124  plugin.o(i._ZN33QDeclarativeOrganizerTodoProgressC1EP7QObject)
    i._ZN33QDeclarativeOrganizerTodoProgressC1EP7QObject.clean 0x0001b460   Section       16  plugin.o(i._ZN33QDeclarativeOrganizerTodoProgressC1EP7QObject.clean)
    i._ZN33QDeclarativeOrganizerTodoProgressD0Ev 0x0001b470   Section       24  moc_qdeclarativeorganizeritemdetail_p.o(i._ZN33QDeclarativeOrganizerTodoProgressD0Ev)
    i._ZN33QDeclarativeOrganizerTodoProgressD1Ev 0x0001b488   Section       14  moc_qdeclarativeorganizeritemdetail_p.o(i._ZN33QDeclarativeOrganizerTodoProgressD1Ev)
    i._ZN34QDeclarativeOrganizerItemFetchHintD0Ev 0x0001b496   Section       22  moc_qdeclarativeorganizeritemfetchhint_p.o(i._ZN34QDeclarativeOrganizerItemFetchHintD0Ev)
    i._ZN34QDeclarativeOrganizerItemFetchHintD1Ev 0x0001b4ac   Section       36  moc_qdeclarativeorganizeritemfetchhint_p.o(i._ZN34QDeclarativeOrganizerItemFetchHintD1Ev)
    i._ZN34QDeclarativeOrganizerItemFetchHintD1Ev.clean 0x0001b4d0   Section       10  moc_qdeclarativeorganizeritemfetchhint_p.o(i._ZN34QDeclarativeOrganizerItemFetchHintD1Ev.clean)
    i._ZN34QDeclarativeOrganizerItemSortOrder10classBeginEv 0x0001b4da   Section        2  moc_qdeclarativeorganizeritemsortorder_p.o(i._ZN34QDeclarativeOrganizerItemSortOrder10classBeginEv)
    i._ZN34QDeclarativeOrganizerItemSortOrder12setSortOrderERKN10QtMobility23QOrganizerItemSortOrderE 0x0001b4dc   Section      112  moc_qdeclarativeorganizeritemsortorder_p.o(i._ZN34QDeclarativeOrganizerItemSortOrder12setSortOrderERKN10QtMobility23QOrganizerItemSortOrderE)
    i._ZN34QDeclarativeOrganizerItemSortOrder12setSortOrderERKN10QtMobility23QOrganizerItemSortOrderE.clean 0x0001b54c   Section       30  moc_qdeclarativeorganizeritemsortorder_p.o(i._ZN34QDeclarativeOrganizerItemSortOrder12setSortOrderERKN10QtMobility23QOrganizerItemSortOrderE.clean)
    i._ZN34QDeclarativeOrganizerItemSortOrder17componentCompleteEv 0x0001b56a   Section       28  moc_qdeclarativeorganizeritemsortorder_p.o(i._ZN34QDeclarativeOrganizerItemSortOrder17componentCompleteEv)
    i._ZN34QDeclarativeOrganizerItemSortOrder17componentCompleteEv.clean 0x0001b586   Section       10  moc_qdeclarativeorganizeritemsortorder_p.o(i._ZN34QDeclarativeOrganizerItemSortOrder17componentCompleteEv.clean)
    i._ZN34QDeclarativeOrganizerItemSortOrder9sortOrderEv 0x0001b590   Section      270  moc_qdeclarativeorganizeritemsortorder_p.o(i._ZN34QDeclarativeOrganizerItemSortOrder9sortOrderEv)
    i._ZN34QDeclarativeOrganizerItemSortOrder9sortOrderEv.clean 0x0001b69e   Section       62  moc_qdeclarativeorganizeritemsortorder_p.o(i._ZN34QDeclarativeOrganizerItemSortOrder9sortOrderEv.clean)
    i._ZN34QDeclarativeOrganizerItemSortOrderD0Ev 0x0001b6dc   Section       22  moc_qdeclarativeorganizeritemsortorder_p.o(i._ZN34QDeclarativeOrganizerItemSortOrderD0Ev)
    i._ZN34QDeclarativeOrganizerItemSortOrderD1Ev 0x0001b6f4   Section       76  moc_qdeclarativeorganizeritemsortorder_p.o(i._ZN34QDeclarativeOrganizerItemSortOrderD1Ev)
    i._ZN34QDeclarativeOrganizerItemSortOrderD1Ev.clean 0x0001b740   Section       46  moc_qdeclarativeorganizeritemsortorder_p.o(i._ZN34QDeclarativeOrganizerItemSortOrderD1Ev.clean)
    i._ZN34QDeclarativeOrganizerItemTimestamp10setCreatedERK9QDateTime 0x0001b770   Section      124  moc_qdeclarativeorganizeritemdetail_p.o(i._ZN34QDeclarativeOrganizerItemTimestamp10setCreatedERK9QDateTime)
    i._ZN34QDeclarativeOrganizerItemTimestamp10setCreatedERK9QDateTime.clean 0x0001b7ec   Section       24  moc_qdeclarativeorganizeritemdetail_p.o(i._ZN34QDeclarativeOrganizerItemTimestamp10setCreatedERK9QDateTime.clean)
    i._ZN34QDeclarativeOrganizerItemTimestamp15setLastModifiedERK9QDateTime 0x0001b804   Section      124  moc_qdeclarativeorganizeritemdetail_p.o(i._ZN34QDeclarativeOrganizerItemTimestamp15setLastModifiedERK9QDateTime)
    i._ZN34QDeclarativeOrganizerItemTimestamp15setLastModifiedERK9QDateTime.clean 0x0001b880   Section       24  moc_qdeclarativeorganizeritemdetail_p.o(i._ZN34QDeclarativeOrganizerItemTimestamp15setLastModifiedERK9QDateTime.clean)
    i._ZN34QDeclarativeOrganizerItemTimestampC1EP7QObject 0x0001b898   Section      124  plugin.o(i._ZN34QDeclarativeOrganizerItemTimestampC1EP7QObject)
    i._ZN34QDeclarativeOrganizerItemTimestampC1EP7QObject.clean 0x0001b914   Section       16  plugin.o(i._ZN34QDeclarativeOrganizerItemTimestampC1EP7QObject.clean)
    i._ZN34QDeclarativeOrganizerItemTimestampD0Ev 0x0001b924   Section       24  moc_qdeclarativeorganizeritemdetail_p.o(i._ZN34QDeclarativeOrganizerItemTimestampD0Ev)
    i._ZN34QDeclarativeOrganizerItemTimestampD1Ev 0x0001b93c   Section       14  moc_qdeclarativeorganizeritemdetail_p.o(i._ZN34QDeclarativeOrganizerItemTimestampD1Ev)
    i._ZN35QDeclarativeOrganizerItemRecurrence19_saveExceptionRulesEv 0x0001b94c   Section      188  moc_qdeclarativeorganizeritemdetail_p.o(i._ZN35QDeclarativeOrganizerItemRecurrence19_saveExceptionRulesEv)
    i._ZN35QDeclarativeOrganizerItemRecurrence19_saveExceptionRulesEv.clean 0x0001ba08   Section       30  moc_qdeclarativeorganizeritemdetail_p.o(i._ZN35QDeclarativeOrganizerItemRecurrence19_saveExceptionRulesEv.clean)
    i._ZN35QDeclarativeOrganizerItemRecurrence20_saveRecurrenceRulesEv 0x0001ba28   Section      180  moc_qdeclarativeorganizeritemdetail_p.o(i._ZN35QDeclarativeOrganizerItemRecurrence20_saveRecurrenceRulesEv)
    i._ZN35QDeclarativeOrganizerItemRecurrence20_saveRecurrenceRulesEv.clean 0x0001badc   Section       30  moc_qdeclarativeorganizeritemdetail_p.o(i._ZN35QDeclarativeOrganizerItemRecurrence20_saveRecurrenceRulesEv.clean)
    i._ZN35QDeclarativeOrganizerItemRecurrenceC1EP7QObject 0x0001bafc   Section      284  plugin.o(i._ZN35QDeclarativeOrganizerItemRecurrenceC1EP7QObject)
    i._ZN35QDeclarativeOrganizerItemRecurrenceC1EP7QObject.clean 0x0001bc18   Section       40  plugin.o(i._ZN35QDeclarativeOrganizerItemRecurrenceC1EP7QObject.clean)
    i._ZN35QDeclarativeOrganizerItemRecurrenceD0Ev 0x0001bc40   Section       22  moc_qdeclarativeorganizeritemdetail_p.o(i._ZN35QDeclarativeOrganizerItemRecurrenceD0Ev)
    i._ZN35QDeclarativeOrganizerItemRecurrenceD1Ev 0x0001bc58   Section       48  moc_qdeclarativeorganizeritemdetail_p.o(i._ZN35QDeclarativeOrganizerItemRecurrenceD1Ev)
    i._ZN35QDeclarativeOrganizerItemRecurrenceD1Ev.clean 0x0001bc88   Section       22  moc_qdeclarativeorganizeritemdetail_p.o(i._ZN35QDeclarativeOrganizerItemRecurrenceD1Ev.clean)
    i._ZN35QDeclarativeOrganizerRecurrenceRule12setPositionsERK5QListI8QVariantE 0x0001bc9e   Section      194  moc_qdeclarativeorganizerrecurrencerule_p.o(i._ZN35QDeclarativeOrganizerRecurrenceRule12setPositionsERK5QListI8QVariantE)
    i._ZN35QDeclarativeOrganizerRecurrenceRule12setPositionsERK5QListI8QVariantE.clean 0x0001bd60   Section       30  moc_qdeclarativeorganizerrecurrencerule_p.o(i._ZN35QDeclarativeOrganizerRecurrenceRule12setPositionsERK5QListI8QVariantE.clean)
    i._ZN35QDeclarativeOrganizerRecurrenceRule13setDaysOfWeekERK5QListI8QVariantE 0x0001bd80   Section      224  moc_qdeclarativeorganizerrecurrencerule_p.o(i._ZN35QDeclarativeOrganizerRecurrenceRule13setDaysOfWeekERK5QListI8QVariantE)
    i._ZN35QDeclarativeOrganizerRecurrenceRule13setDaysOfWeekERK5QListI8QVariantE.clean 0x0001be60   Section       30  moc_qdeclarativeorganizerrecurrencerule_p.o(i._ZN35QDeclarativeOrganizerRecurrenceRule13setDaysOfWeekERK5QListI8QVariantE.clean)
    i._ZN35QDeclarativeOrganizerRecurrenceRule13setDaysOfYearERK5QListI8QVariantE 0x0001be7e   Section      190  moc_qdeclarativeorganizerrecurrencerule_p.o(i._ZN35QDeclarativeOrganizerRecurrenceRule13setDaysOfYearERK5QListI8QVariantE)
    i._ZN35QDeclarativeOrganizerRecurrenceRule13setDaysOfYearERK5QListI8QVariantE.clean 0x0001bf3c   Section       30  moc_qdeclarativeorganizerrecurrencerule_p.o(i._ZN35QDeclarativeOrganizerRecurrenceRule13setDaysOfYearERK5QListI8QVariantE.clean)
    i._ZN35QDeclarativeOrganizerRecurrenceRule14setDaysOfMonthERK5QListI8QVariantE 0x0001bf5a   Section      190  moc_qdeclarativeorganizerrecurrencerule_p.o(i._ZN35QDeclarativeOrganizerRecurrenceRule14setDaysOfMonthERK5QListI8QVariantE)
    i._ZN35QDeclarativeOrganizerRecurrenceRule14setDaysOfMonthERK5QListI8QVariantE.clean 0x0001c018   Section       30  moc_qdeclarativeorganizerrecurrencerule_p.o(i._ZN35QDeclarativeOrganizerRecurrenceRule14setDaysOfMonthERK5QListI8QVariantE.clean)
    i._ZN35QDeclarativeOrganizerRecurrenceRule15setMonthsOfYearERK5QListI8QVariantE 0x0001c038   Section      224  moc_qdeclarativeorganizerrecurrencerule_p.o(i._ZN35QDeclarativeOrganizerRecurrenceRule15setMonthsOfYearERK5QListI8QVariantE)
    i._ZN35QDeclarativeOrganizerRecurrenceRule15setMonthsOfYearERK5QListI8QVariantE.clean 0x0001c118   Section       30  moc_qdeclarativeorganizerrecurrencerule_p.o(i._ZN35QDeclarativeOrganizerRecurrenceRule15setMonthsOfYearERK5QListI8QVariantE.clean)
    i._ZN35QDeclarativeOrganizerRecurrenceRule8setLimitERK8QVariant 0x0001c138   Section      500  moc_qdeclarativeorganizerrecurrencerule_p.o(i._ZN35QDeclarativeOrganizerRecurrenceRule8setLimitERK8QVariant)
    i._ZN35QDeclarativeOrganizerRecurrenceRule8setLimitERK8QVariant.clean 0x0001c32c   Section       54  moc_qdeclarativeorganizerrecurrencerule_p.o(i._ZN35QDeclarativeOrganizerRecurrenceRule8setLimitERK8QVariant.clean)
    i._ZN35QDeclarativeOrganizerRecurrenceRuleD0Ev 0x0001c362   Section       22  moc_qdeclarativeorganizerrecurrencerule_p.o(i._ZN35QDeclarativeOrganizerRecurrenceRuleD0Ev)
    i._ZN35QDeclarativeOrganizerRecurrenceRuleD1Ev 0x0001c378   Section       36  moc_qdeclarativeorganizerrecurrencerule_p.o(i._ZN35QDeclarativeOrganizerRecurrenceRuleD1Ev)
    i._ZN35QDeclarativeOrganizerRecurrenceRuleD1Ev.clean 0x0001c39c   Section       10  moc_qdeclarativeorganizerrecurrencerule_p.o(i._ZN35QDeclarativeOrganizerRecurrenceRuleD1Ev.clean)
    i._ZN35QDeclarativeOrganizerTodoOccurrenceD0Ev 0x0001c3a6   Section       24  moc_qdeclarativeorganizeritem_p.o(i._ZN35QDeclarativeOrganizerTodoOccurrenceD0Ev)
    i._ZN35QDeclarativeOrganizerTodoOccurrenceD1Ev 0x0001c3be   Section       14  moc_qdeclarativeorganizeritem_p.o(i._ZN35QDeclarativeOrganizerTodoOccurrenceD1Ev)
    i._ZN36QDeclarativeOrganizerEventOccurrenceD0Ev 0x0001c3cc   Section       24  moc_qdeclarativeorganizeritem_p.o(i._ZN36QDeclarativeOrganizerEventOccurrenceD0Ev)
    i._ZN36QDeclarativeOrganizerEventOccurrenceD1Ev 0x0001c3e4   Section       14  moc_qdeclarativeorganizeritem_p.o(i._ZN36QDeclarativeOrganizerEventOccurrenceD1Ev)
    i._ZN36QDeclarativeOrganizerItemDescriptionC1EP7QObject 0x0001c3f4   Section      124  plugin.o(i._ZN36QDeclarativeOrganizerItemDescriptionC1EP7QObject)
    i._ZN36QDeclarativeOrganizerItemDescriptionC1EP7QObject.clean 0x0001c470   Section       16  plugin.o(i._ZN36QDeclarativeOrganizerItemDescriptionC1EP7QObject.clean)
    i._ZN36QDeclarativeOrganizerItemDescriptionD0Ev 0x0001c480   Section       24  moc_qdeclarativeorganizeritemdetail_p.o(i._ZN36QDeclarativeOrganizerItemDescriptionD0Ev)
    i._ZN36QDeclarativeOrganizerItemDescriptionD1Ev 0x0001c498   Section       14  moc_qdeclarativeorganizeritemdetail_p.o(i._ZN36QDeclarativeOrganizerItemDescriptionD1Ev)
    i._ZN36QDeclarativeOrganizerItemUnionFilterD0Ev 0x0001c4a6   Section       22  moc_qdeclarativeorganizeritemfilter_p.o(i._ZN36QDeclarativeOrganizerItemUnionFilterD0Ev)
    i._ZN36QDeclarativeOrganizerItemUnionFilterD1Ev 0x0001c4bc   Section       36  moc_qdeclarativeorganizeritemfilter_p.o(i._ZN36QDeclarativeOrganizerItemUnionFilterD1Ev)
    i._ZN36QDeclarativeOrganizerItemUnionFilterD1Ev.clean 0x0001c4e0   Section       10  moc_qdeclarativeorganizeritemfilter_p.o(i._ZN36QDeclarativeOrganizerItemUnionFilterD1Ev.clean)
    i._ZN37QDeclarativeOrganizerItemDetailFilter10classBeginEv 0x0001c4ea   Section        2  moc_qdeclarativeorganizeritemfilter_p.o(i._ZN37QDeclarativeOrganizerItemDetailFilter10classBeginEv)
    i._ZN37QDeclarativeOrganizerItemDetailFilter17componentCompleteEv 0x0001c4ec   Section       18  moc_qdeclarativeorganizeritemfilter_p.o(i._ZN37QDeclarativeOrganizerItemDetailFilter17componentCompleteEv)
    i._ZN37QDeclarativeOrganizerItemDetailFilter23setDetailDefinitionNameEv 0x0001c4fe   Section      256  moc_qdeclarativeorganizeritemfilter_p.o(i._ZN37QDeclarativeOrganizerItemDetailFilter23setDetailDefinitionNameEv)
    i._ZN37QDeclarativeOrganizerItemDetailFilter23setDetailDefinitionNameEv.clean 0x0001c5fe   Section       62  moc_qdeclarativeorganizeritemfilter_p.o(i._ZN37QDeclarativeOrganizerItemDetailFilter23setDetailDefinitionNameEv.clean)
    i._ZN37QDeclarativeOrganizerItemDetailFilterC1EP7QObject 0x0001c63c   Section      140  plugin.o(i._ZN37QDeclarativeOrganizerItemDetailFilterC1EP7QObject)
    i._ZN37QDeclarativeOrganizerItemDetailFilterC1EP7QObject.clean 0x0001c6c8   Section       58  plugin.o(i._ZN37QDeclarativeOrganizerItemDetailFilterC1EP7QObject.clean)
    i._ZN37QDeclarativeOrganizerItemDetailFilterD0Ev 0x0001c702   Section       22  moc_qdeclarativeorganizeritemfilter_p.o(i._ZN37QDeclarativeOrganizerItemDetailFilterD0Ev)
    i._ZN37QDeclarativeOrganizerItemDetailFilterD1Ev 0x0001c718   Section       76  moc_qdeclarativeorganizeritemfilter_p.o(i._ZN37QDeclarativeOrganizerItemDetailFilterD1Ev)
    i._ZN37QDeclarativeOrganizerItemDetailFilterD1Ev.clean 0x0001c764   Section       46  moc_qdeclarativeorganizeritemfilter_p.o(i._ZN37QDeclarativeOrganizerItemDetailFilterD1Ev.clean)
    i._ZN37QDeclarativeOrganizerItemDisplayLabelC1EP7QObject 0x0001c794   Section      124  plugin.o(i._ZN37QDeclarativeOrganizerItemDisplayLabelC1EP7QObject)
    i._ZN37QDeclarativeOrganizerItemDisplayLabelC1EP7QObject.clean 0x0001c810   Section       16  plugin.o(i._ZN37QDeclarativeOrganizerItemDisplayLabelC1EP7QObject.clean)
    i._ZN37QDeclarativeOrganizerItemDisplayLabelD0Ev 0x0001c820   Section       24  moc_qdeclarativeorganizeritemdetail_p.o(i._ZN37QDeclarativeOrganizerItemDisplayLabelD0Ev)
    i._ZN37QDeclarativeOrganizerItemDisplayLabelD1Ev 0x0001c838   Section       14  moc_qdeclarativeorganizeritemdetail_p.o(i._ZN37QDeclarativeOrganizerItemDisplayLabelD1Ev)
    i._ZN38QDeclarativeOrganizerItemEmailReminder11attachmentsEv 0x0001c848   Section       36  moc_qdeclarativeorganizeritemdetail_p.o(i._ZN38QDeclarativeOrganizerItemEmailReminder11attachmentsEv)
    i._ZN38QDeclarativeOrganizerItemEmailReminderC1EP7QObject 0x0001c86c   Section      124  plugin.o(i._ZN38QDeclarativeOrganizerItemEmailReminderC1EP7QObject)
    i._ZN38QDeclarativeOrganizerItemEmailReminderC1EP7QObject.clean 0x0001c8e8   Section       16  plugin.o(i._ZN38QDeclarativeOrganizerItemEmailReminderC1EP7QObject.clean)
    i._ZN38QDeclarativeOrganizerItemEmailReminderD0Ev 0x0001c8f8   Section       24  moc_qdeclarativeorganizeritemdetail_p.o(i._ZN38QDeclarativeOrganizerItemEmailReminderD0Ev)
    i._ZN38QDeclarativeOrganizerItemEmailReminderD1Ev 0x0001c910   Section       14  moc_qdeclarativeorganizeritemdetail_p.o(i._ZN38QDeclarativeOrganizerItemEmailReminderD1Ev)
    i._ZN38QDeclarativeOrganizerItemInvalidFilterD0Ev 0x0001c91e   Section       24  moc_qdeclarativeorganizeritemfilter_p.o(i._ZN38QDeclarativeOrganizerItemInvalidFilterD0Ev)
    i._ZN38QDeclarativeOrganizerItemInvalidFilterD1Ev 0x0001c936   Section       14  moc_qdeclarativeorganizeritemfilter_p.o(i._ZN38QDeclarativeOrganizerItemInvalidFilterD1Ev)
    i._ZN39QDeclarativeOrganizerItemVisualReminderC1EP7QObject 0x0001c944   Section      124  plugin.o(i._ZN39QDeclarativeOrganizerItemVisualReminderC1EP7QObject)
    i._ZN39QDeclarativeOrganizerItemVisualReminderC1EP7QObject.clean 0x0001c9c0   Section       16  plugin.o(i._ZN39QDeclarativeOrganizerItemVisualReminderC1EP7QObject.clean)
    i._ZN39QDeclarativeOrganizerItemVisualReminderD0Ev 0x0001c9d0   Section       24  moc_qdeclarativeorganizeritemdetail_p.o(i._ZN39QDeclarativeOrganizerItemVisualReminderD0Ev)
    i._ZN39QDeclarativeOrganizerItemVisualReminderD1Ev 0x0001c9e8   Section       14  moc_qdeclarativeorganizeritemdetail_p.o(i._ZN39QDeclarativeOrganizerItemVisualReminderD1Ev)
    i._ZN40QDeclarativeOrganizerItemAudibleReminderC1EP7QObject 0x0001c9f8   Section      124  plugin.o(i._ZN40QDeclarativeOrganizerItemAudibleReminderC1EP7QObject)
    i._ZN40QDeclarativeOrganizerItemAudibleReminderC1EP7QObject.clean 0x0001ca74   Section       16  plugin.o(i._ZN40QDeclarativeOrganizerItemAudibleReminderC1EP7QObject.clean)
    i._ZN40QDeclarativeOrganizerItemAudibleReminderD0Ev 0x0001ca84   Section       24  moc_qdeclarativeorganizeritemdetail_p.o(i._ZN40QDeclarativeOrganizerItemAudibleReminderD0Ev)
    i._ZN40QDeclarativeOrganizerItemAudibleReminderD1Ev 0x0001ca9c   Section       14  moc_qdeclarativeorganizeritemdetail_p.o(i._ZN40QDeclarativeOrganizerItemAudibleReminderD1Ev)
    i._ZN40QDeclarativeOrganizerItemChangeLogFilterD0Ev 0x0001caaa   Section       22  moc_qdeclarativeorganizeritemfilter_p.o(i._ZN40QDeclarativeOrganizerItemChangeLogFilterD0Ev)
    i._ZN40QDeclarativeOrganizerItemChangeLogFilterD1Ev 0x0001cac0   Section       36  moc_qdeclarativeorganizeritemfilter_p.o(i._ZN40QDeclarativeOrganizerItemChangeLogFilterD1Ev)
    i._ZN40QDeclarativeOrganizerItemChangeLogFilterD1Ev.clean 0x0001cae4   Section       10  moc_qdeclarativeorganizeritemfilter_p.o(i._ZN40QDeclarativeOrganizerItemChangeLogFilterD1Ev.clean)
    i._ZN41QDeclarativeOrganizerItemCollectionFilter6setIdsERK11QStringList 0x0001caee   Section      306  moc_qdeclarativeorganizeritemfilter_p.o(i._ZN41QDeclarativeOrganizerItemCollectionFilter6setIdsERK11QStringList)
    i._ZN41QDeclarativeOrganizerItemCollectionFilter6setIdsERK11QStringList.clean 0x0001cc20   Section       18  moc_qdeclarativeorganizeritemfilter_p.o(i._ZN41QDeclarativeOrganizerItemCollectionFilter6setIdsERK11QStringList.clean)
    i._ZN41QDeclarativeOrganizerItemCollectionFilterD0Ev 0x0001cc32   Section       22  moc_qdeclarativeorganizeritemfilter_p.o(i._ZN41QDeclarativeOrganizerItemCollectionFilterD0Ev)
    i._ZN41QDeclarativeOrganizerItemCollectionFilterD1Ev 0x0001cc48   Section       36  moc_qdeclarativeorganizeritemfilter_p.o(i._ZN41QDeclarativeOrganizerItemCollectionFilterD1Ev)
    i._ZN41QDeclarativeOrganizerItemCollectionFilterD1Ev.clean 0x0001cc6c   Section       10  moc_qdeclarativeorganizeritemfilter_p.o(i._ZN41QDeclarativeOrganizerItemCollectionFilterD1Ev.clean)
    i._ZN42QDeclarativeOrganizerItemDetailRangeFilter10classBeginEv 0x0001cc76   Section        2  moc_qdeclarativeorganizeritemfilter_p.o(i._ZN42QDeclarativeOrganizerItemDetailRangeFilter10classBeginEv)
    i._ZN42QDeclarativeOrganizerItemDetailRangeFilter13setRangeFlagsE6QFlagsINS_9RangeFlagEE 0x0001cc78   Section      150  moc_qdeclarativeorganizeritemfilter_p.o(i._ZN42QDeclarativeOrganizerItemDetailRangeFilter13setRangeFlagsE6QFlagsINS_9RangeFlagEE)
    i._ZN42QDeclarativeOrganizerItemDetailRangeFilter13setRangeFlagsE6QFlagsINS_9RangeFlagEE.clean 0x0001cd0e   Section       16  moc_qdeclarativeorganizeritemfilter_p.o(i._ZN42QDeclarativeOrganizerItemDetailRangeFilter13setRangeFlagsE6QFlagsINS_9RangeFlagEE.clean)
    i._ZN42QDeclarativeOrganizerItemDetailRangeFilter17componentCompleteEv 0x0001cd1e   Section       18  moc_qdeclarativeorganizeritemfilter_p.o(i._ZN42QDeclarativeOrganizerItemDetailRangeFilter17componentCompleteEv)
    i._ZN42QDeclarativeOrganizerItemDetailRangeFilter23setDetailDefinitionNameEv 0x0001cd30   Section      256  moc_qdeclarativeorganizeritemfilter_p.o(i._ZN42QDeclarativeOrganizerItemDetailRangeFilter23setDetailDefinitionNameEv)
    i._ZN42QDeclarativeOrganizerItemDetailRangeFilter23setDetailDefinitionNameEv.clean 0x0001ce30   Section       62  moc_qdeclarativeorganizeritemfilter_p.o(i._ZN42QDeclarativeOrganizerItemDetailRangeFilter23setDetailDefinitionNameEv.clean)
    i._ZN42QDeclarativeOrganizerItemDetailRangeFilterC1EP7QObject 0x0001ce70   Section      140  plugin.o(i._ZN42QDeclarativeOrganizerItemDetailRangeFilterC1EP7QObject)
    i._ZN42QDeclarativeOrganizerItemDetailRangeFilterC1EP7QObject.clean 0x0001cefc   Section       58  plugin.o(i._ZN42QDeclarativeOrganizerItemDetailRangeFilterC1EP7QObject.clean)
    i._ZN42QDeclarativeOrganizerItemDetailRangeFilterD0Ev 0x0001cf36   Section       22  moc_qdeclarativeorganizeritemfilter_p.o(i._ZN42QDeclarativeOrganizerItemDetailRangeFilterD0Ev)
    i._ZN42QDeclarativeOrganizerItemDetailRangeFilterD1Ev 0x0001cf4c   Section       76  moc_qdeclarativeorganizeritemfilter_p.o(i._ZN42QDeclarativeOrganizerItemDetailRangeFilterD1Ev)
    i._ZN42QDeclarativeOrganizerItemDetailRangeFilterD1Ev.clean 0x0001cf98   Section       46  moc_qdeclarativeorganizeritemfilter_p.o(i._ZN42QDeclarativeOrganizerItemDetailRangeFilterD1Ev.clean)
    i._ZN43QDeclarativeOrganizerItemIntersectionFilterD0Ev 0x0001cfc6   Section       22  moc_qdeclarativeorganizeritemfilter_p.o(i._ZN43QDeclarativeOrganizerItemIntersectionFilterD0Ev)
    i._ZN43QDeclarativeOrganizerItemIntersectionFilterD1Ev 0x0001cfdc   Section       36  moc_qdeclarativeorganizeritemfilter_p.o(i._ZN43QDeclarativeOrganizerItemIntersectionFilterD1Ev)
    i._ZN43QDeclarativeOrganizerItemIntersectionFilterD1Ev.clean 0x0001d000   Section       10  moc_qdeclarativeorganizeritemfilter_p.o(i._ZN43QDeclarativeOrganizerItemIntersectionFilterD1Ev.clean)
    i._ZN4QSetI5QDateED1Ev                   0x0001d00a   Section       14  qdeclarativeorganizermodel.o(i._ZN4QSetI5QDateED1Ev)
    i._ZN4QSetIN10QtMobility22QOrganizerCollectionIdEED1Ev 0x0001d018   Section       14  qdeclarativeorganizeritemfilter.o(i._ZN4QSetIN10QtMobility22QOrganizerCollectionIdEED1Ev)
    i._ZN4QSetIN10QtMobility24QOrganizerRecurrenceRule5MonthEED1Ev 0x0001d026   Section       14  moc_qdeclarativeorganizerrecurrencerule_p.o(i._ZN4QSetIN10QtMobility24QOrganizerRecurrenceRule5MonthEED1Ev)
    i._ZN4QSetIN10QtMobility24QOrganizerRecurrenceRuleEED1Ev 0x0001d034   Section       14  moc_qdeclarativeorganizeritemdetail_p.o(i._ZN4QSetIN10QtMobility24QOrganizerRecurrenceRuleEED1Ev)
    i._ZN4QSetIN2Qt9DayOfWeekEED1Ev          0x0001d042   Section       14  moc_qdeclarativeorganizerrecurrencerule_p.o(i._ZN4QSetIN2Qt9DayOfWeekEED1Ev)
    i._ZN4QSetIiED1Ev                        0x0001d050   Section       14  moc_qdeclarativeorganizerrecurrencerule_p.o(i._ZN4QSetIiED1Ev)
    i._ZN6QColorC1ERKS_                      0x0001d05e   Section       24  moc_qdeclarativeorganizercollection_p.o(i._ZN6QColorC1ERKS_)
    i._ZN6QDebug10maybeSpaceEv               0x0001d076   Section       24  moc_qdeclarativeorganizeritemdetail_p.o(i._ZN6QDebug10maybeSpaceEv)
    i._ZN6QDebugD1Ev                         0x0001d08e   Section      144  moc_qdeclarativeorganizerrecurrencerule_p.o(i._ZN6QDebugD1Ev)
    i._ZN6QDebugD1Ev.clean                   0x0001d11e   Section       20  moc_qdeclarativeorganizerrecurrencerule_p.o(i._ZN6QDebugD1Ev.clean)
    i._ZN7QStringC1EPKc                      0x0001d132   Section       22  qdeclarativeorganizeritemmetaobject.o(i._ZN7QStringC1EPKc)
    i._ZN7QStringC1ERK13QLatin1String        0x0001d148   Section       26  qdeclarativeorganizermodel.o(i._ZN7QStringC1ERK13QLatin1String)
    i._ZN7QStringC1ERKS_                     0x0001d162   Section       22  moc_qdeclarativeorganizermodel_p.o(i._ZN7QStringC1ERKS_)
    i._ZN7QStringC1Ev                        0x0001d178   Section       24  moc_qdeclarativeorganizeritemdetail_p.o(i._ZN7QStringC1Ev)
    i._ZN7QStringD1Ev                        0x0001d190   Section       24  moc_qdeclarativeorganizermodel_p.o(i._ZN7QStringD1Ev)
    i._ZN8QVariantC1Ev                       0x0001d1a8   Section       38  plugin.o(i._ZN8QVariantC1Ev)
    i._ZN9QHashData8willGrowEv               0x0001d1ce   Section       32  moc_qdeclarativeorganizerrecurrencerule_p.o(i._ZN9QHashData8willGrowEv)
    i._ZN9QHashData9firstNodeEv              0x0001d1ee   Section       36  moc_qdeclarativeorganizerrecurrencerule_p.o(i._ZN9QHashData9firstNodeEv)
    i._ZNK10QtMobility20QOrganizerItemParent8parentIdEv 0x0001d214   Section      160  qdeclarativeorganizermodel.o(i._ZNK10QtMobility20QOrganizerItemParent8parentIdEv)
    i._ZNK10QtMobility20QOrganizerItemParent8parentIdEv.clean 0x0001d2b4   Section       20  qdeclarativeorganizermodel.o(i._ZNK10QtMobility20QOrganizerItemParent8parentIdEv.clean)
    i._ZNK10QtMobility23QOrganizerItemTimestamp7createdEv 0x0001d2c8   Section       32  qdeclarativeorganizeritem.o(i._ZNK10QtMobility23QOrganizerItemTimestamp7createdEv)
    i._ZNK15QBasicAtomicInteqEi              0x0001d2e8   Section       16  moc_qdeclarativeorganizeritemfilter_p.o(i._ZNK15QBasicAtomicInteqEi)
    i._ZNK15QBasicAtomicIntneEi              0x0001d2f8   Section       16  moc_qdeclarativeorganizeritemdetail_p.o(i._ZNK15QBasicAtomicIntneEi)
    i._ZNK15QBasicAtomicIntntEv              0x0001d308   Section       16  moc_qdeclarativeorganizeritemdetail_p.o(i._ZNK15QBasicAtomicIntntEv)
    i._ZNK25QMetaMethodBuilderPrivate10methodTypeEv 0x0001d318   Section       12  qmetaobjectbuilder.o(i._ZNK25QMetaMethodBuilderPrivate10methodTypeEv)
    i._ZNK27QMetaPropertyBuilderPrivate4flagEi 0x0001d324   Section       16  qmetaobjectbuilder.o(i._ZNK27QMetaPropertyBuilderPrivate4flagEi)
    i._ZNK29QDeclarativeOrganizerItemGuid4guidEv 0x0001d334   Section       36  moc_qdeclarativeorganizeritemdetail_p.o(i._ZNK29QDeclarativeOrganizerItemGuid4guidEv)
    i._ZNK29QDeclarativeOrganizerItemGuid4typeEv 0x0001d358   Section        6  moc_qdeclarativeorganizeritemdetail_p.o(i._ZNK29QDeclarativeOrganizerItemGuid4typeEv)
    i._ZNK29QDeclarativeOrganizerItemType4typeEv 0x0001d35e   Section        6  moc_qdeclarativeorganizeritemdetail_p.o(i._ZNK29QDeclarativeOrganizerItemType4typeEv)
    i._ZNK29QDeclarativeOrganizerItemType8itemTypeEv 0x0001d364   Section      288  moc_qdeclarativeorganizeritemdetail_p.o(i._ZNK29QDeclarativeOrganizerItemType8itemTypeEv)
    i._ZNK29QDeclarativeOrganizerItemType8itemTypeEv.clean 0x0001d484   Section       22  moc_qdeclarativeorganizeritemdetail_p.o(i._ZNK29QDeclarativeOrganizerItemType8itemTypeEv.clean)
    i._ZNK29QDeclarativeOrganizerTodoTime11dueDateTimeEv 0x0001d49c   Section       48  moc_qdeclarativeorganizeritemdetail_p.o(i._ZNK29QDeclarativeOrganizerTodoTime11dueDateTimeEv)
    i._ZNK29QDeclarativeOrganizerTodoTime11dueDateTimeEv.clean 0x0001d4cc   Section       10  moc_qdeclarativeorganizeritemdetail_p.o(i._ZNK29QDeclarativeOrganizerTodoTime11dueDateTimeEv.clean)
    i._ZNK29QDeclarativeOrganizerTodoTime13startDateTimeEv 0x0001d4d8   Section       40  qdeclarativeorganizeritem.o(i._ZNK29QDeclarativeOrganizerTodoTime13startDateTimeEv)
    i._ZNK29QDeclarativeOrganizerTodoTime13startDateTimeEv.clean 0x0001d500   Section       10  qdeclarativeorganizeritem.o(i._ZNK29QDeclarativeOrganizerTodoTime13startDateTimeEv.clean)
    i._ZNK29QDeclarativeOrganizerTodoTime4typeEv 0x0001d50a   Section        6  moc_qdeclarativeorganizeritemdetail_p.o(i._ZNK29QDeclarativeOrganizerTodoTime4typeEv)
    i._ZNK30QDeclarativeOrganizerEventTime11endDateTimeEv 0x0001d510   Section       48  moc_qdeclarativeorganizeritemdetail_p.o(i._ZNK30QDeclarativeOrganizerEventTime11endDateTimeEv)
    i._ZNK30QDeclarativeOrganizerEventTime11endDateTimeEv.clean 0x0001d540   Section       10  moc_qdeclarativeorganizeritemdetail_p.o(i._ZNK30QDeclarativeOrganizerEventTime11endDateTimeEv.clean)
    i._ZNK30QDeclarativeOrganizerEventTime13startDateTimeEv 0x0001d54c   Section       40  qdeclarativeorganizeritem.o(i._ZNK30QDeclarativeOrganizerEventTime13startDateTimeEv)
    i._ZNK30QDeclarativeOrganizerEventTime13startDateTimeEv.clean 0x0001d574   Section       10  qdeclarativeorganizeritem.o(i._ZNK30QDeclarativeOrganizerEventTime13startDateTimeEv.clean)
    i._ZNK30QDeclarativeOrganizerEventTime4typeEv 0x0001d57e   Section        6  moc_qdeclarativeorganizeritemdetail_p.o(i._ZNK30QDeclarativeOrganizerEventTime4typeEv)
    i._ZNK31QDeclarativeOrganizerCollection5colorEv 0x0001d584   Section      164  moc_qdeclarativeorganizercollection_p.o(i._ZNK31QDeclarativeOrganizerCollection5colorEv)
    i._ZNK31QDeclarativeOrganizerCollection5colorEv.clean 0x0001d628   Section       16  moc_qdeclarativeorganizercollection_p.o(i._ZNK31QDeclarativeOrganizerCollection5colorEv.clean)
    i._ZNK31QDeclarativeOrganizerCollection8metaDataERK7QString 0x0001d638   Section       22  moc_qdeclarativeorganizercollection_p.o(i._ZNK31QDeclarativeOrganizerCollection8metaDataERK7QString)
    i._ZNK31QDeclarativeOrganizerItemDetail4typeEv 0x0001d64e   Section        6  moc_qdeclarativeorganizeritemdetail_p.o(i._ZNK31QDeclarativeOrganizerItemDetail4typeEv)
    i._ZNK31QDeclarativeOrganizerItemDetail8readOnlyEv 0x0001d654   Section       24  moc_qdeclarativeorganizeritemdetail_p.o(i._ZNK31QDeclarativeOrganizerItemDetail8readOnlyEv)
    i._ZNK31QDeclarativeOrganizerItemFilter6filterEv 0x0001d66c   Section       16  moc_qdeclarativeorganizeritemfilter_p.o(i._ZNK31QDeclarativeOrganizerItemFilter6filterEv)
    i._ZNK31QDeclarativeOrganizerItemParent12originalDateEv 0x0001d67c   Section       56  moc_qdeclarativeorganizeritemdetail_p.o(i._ZNK31QDeclarativeOrganizerItemParent12originalDateEv)
    i._ZNK31QDeclarativeOrganizerItemParent12originalDateEv.clean 0x0001d6b4   Section       10  moc_qdeclarativeorganizeritemdetail_p.o(i._ZNK31QDeclarativeOrganizerItemParent12originalDateEv.clean)
    i._ZNK31QDeclarativeOrganizerItemParent4typeEv 0x0001d6be   Section        6  moc_qdeclarativeorganizeritemdetail_p.o(i._ZNK31QDeclarativeOrganizerItemParent4typeEv)
    i._ZNK31QDeclarativeOrganizerItemParent8parentIdEv 0x0001d6c4   Section      164  moc_qdeclarativeorganizeritemdetail_p.o(i._ZNK31QDeclarativeOrganizerItemParent8parentIdEv)
    i._ZNK31QDeclarativeOrganizerItemParent8parentIdEv.clean 0x0001d768   Section       26  moc_qdeclarativeorganizeritemdetail_p.o(i._ZNK31QDeclarativeOrganizerItemParent8parentIdEv.clean)
    i._ZNK32QDeclarativeOrganizerItemComment4typeEv 0x0001d782   Section        6  moc_qdeclarativeorganizeritemdetail_p.o(i._ZNK32QDeclarativeOrganizerItemComment4typeEv)
    i._ZNK32QDeclarativeOrganizerItemComment7commentEv 0x0001d788   Section       36  moc_qdeclarativeorganizeritemdetail_p.o(i._ZNK32QDeclarativeOrganizerItemComment7commentEv)
    i._ZNK32QDeclarativeOrganizerJournalTime13entryDateTimeEv 0x0001d7ac   Section       40  qdeclarativeorganizeritem.o(i._ZNK32QDeclarativeOrganizerJournalTime13entryDateTimeEv)
    i._ZNK32QDeclarativeOrganizerJournalTime13entryDateTimeEv.clean 0x0001d7d4   Section       10  qdeclarativeorganizeritem.o(i._ZNK32QDeclarativeOrganizerJournalTime13entryDateTimeEv.clean)
    i._ZNK32QDeclarativeOrganizerJournalTime4typeEv 0x0001d7de   Section        6  moc_qdeclarativeorganizeritemdetail_p.o(i._ZNK32QDeclarativeOrganizerJournalTime4typeEv)
    i._ZNK33QDeclarativeOrganizerItemLocation4typeEv 0x0001d7e4   Section        6  moc_qdeclarativeorganizeritemdetail_p.o(i._ZNK33QDeclarativeOrganizerItemLocation4typeEv)
    i._ZNK33QDeclarativeOrganizerItemLocation5labelEv 0x0001d7ec   Section       36  moc_qdeclarativeorganizeritemdetail_p.o(i._ZNK33QDeclarativeOrganizerItemLocation5labelEv)
    i._ZNK33QDeclarativeOrganizerItemLocation8latitudeEv 0x0001d810   Section       40  moc_qdeclarativeorganizeritemdetail_p.o(i._ZNK33QDeclarativeOrganizerItemLocation8latitudeEv)
    i._ZNK33QDeclarativeOrganizerItemLocation9longitudeEv 0x0001d838   Section       40  moc_qdeclarativeorganizeritemdetail_p.o(i._ZNK33QDeclarativeOrganizerItemLocation9longitudeEv)
    i._ZNK33QDeclarativeOrganizerItemPriority4typeEv 0x0001d860   Section        6  moc_qdeclarativeorganizeritemdetail_p.o(i._ZNK33QDeclarativeOrganizerItemPriority4typeEv)
    i._ZNK33QDeclarativeOrganizerItemPriority8priorityEv 0x0001d868   Section       28  moc_qdeclarativeorganizeritemdetail_p.o(i._ZNK33QDeclarativeOrganizerItemPriority8priorityEv)
    i._ZNK33QDeclarativeOrganizerItemReminder12reminderTypeEv 0x0001d884   Section      128  moc_qdeclarativeorganizeritemdetail_p.o(i._ZNK33QDeclarativeOrganizerItemReminder12reminderTypeEv)
    i._ZNK33QDeclarativeOrganizerItemReminder12reminderTypeEv.clean 0x0001d904   Section       26  moc_qdeclarativeorganizeritemdetail_p.o(i._ZNK33QDeclarativeOrganizerItemReminder12reminderTypeEv.clean)
    i._ZNK33QDeclarativeOrganizerItemReminder15repetitionCountEv 0x0001d920   Section       28  moc_qdeclarativeorganizeritemdetail_p.o(i._ZNK33QDeclarativeOrganizerItemReminder15repetitionCountEv)
    i._ZNK33QDeclarativeOrganizerItemReminder15repetitionDelayEv 0x0001d93c   Section       28  moc_qdeclarativeorganizeritemdetail_p.o(i._ZNK33QDeclarativeOrganizerItemReminder15repetitionDelayEv)
    i._ZNK33QDeclarativeOrganizerItemReminder18secondsBeforeStartEv 0x0001d958   Section       28  moc_qdeclarativeorganizeritemdetail_p.o(i._ZNK33QDeclarativeOrganizerItemReminder18secondsBeforeStartEv)
    i._ZNK33QDeclarativeOrganizerItemReminder4typeEv 0x0001d974   Section        6  moc_qdeclarativeorganizeritemdetail_p.o(i._ZNK33QDeclarativeOrganizerItemReminder4typeEv)
    i._ZNK33QDeclarativeOrganizerTodoProgress16finishedDateTimeEv 0x0001d97c   Section       48  moc_qdeclarativeorganizeritemdetail_p.o(i._ZNK33QDeclarativeOrganizerTodoProgress16finishedDateTimeEv)
    i._ZNK33QDeclarativeOrganizerTodoProgress16finishedDateTimeEv.clean 0x0001d9ac   Section       10  moc_qdeclarativeorganizeritemdetail_p.o(i._ZNK33QDeclarativeOrganizerTodoProgress16finishedDateTimeEv.clean)
    i._ZNK33QDeclarativeOrganizerTodoProgress18percentageCompleteEv 0x0001d9b8   Section       28  moc_qdeclarativeorganizeritemdetail_p.o(i._ZNK33QDeclarativeOrganizerTodoProgress18percentageCompleteEv)
    i._ZNK33QDeclarativeOrganizerTodoProgress4typeEv 0x0001d9d4   Section        6  moc_qdeclarativeorganizeritemdetail_p.o(i._ZNK33QDeclarativeOrganizerTodoProgress4typeEv)
    i._ZNK33QDeclarativeOrganizerTodoProgress6statusEv 0x0001d9dc   Section       28  moc_qdeclarativeorganizeritemdetail_p.o(i._ZNK33QDeclarativeOrganizerTodoProgress6statusEv)
    i._ZNK34QDeclarativeOrganizerItemTimestamp12lastModifiedEv 0x0001d9f8   Section       48  moc_qdeclarativeorganizeritemdetail_p.o(i._ZNK34QDeclarativeOrganizerItemTimestamp12lastModifiedEv)
    i._ZNK34QDeclarativeOrganizerItemTimestamp12lastModifiedEv.clean 0x0001da28   Section       10  moc_qdeclarativeorganizeritemdetail_p.o(i._ZNK34QDeclarativeOrganizerItemTimestamp12lastModifiedEv.clean)
    i._ZNK34QDeclarativeOrganizerItemTimestamp4typeEv 0x0001da32   Section        6  moc_qdeclarativeorganizeritemdetail_p.o(i._ZNK34QDeclarativeOrganizerItemTimestamp4typeEv)
    i._ZNK34QDeclarativeOrganizerItemTimestamp7createdEv 0x0001da38   Section       48  moc_qdeclarativeorganizeritemdetail_p.o(i._ZNK34QDeclarativeOrganizerItemTimestamp7createdEv)
    i._ZNK34QDeclarativeOrganizerItemTimestamp7createdEv.clean 0x0001da68   Section       10  moc_qdeclarativeorganizeritemdetail_p.o(i._ZNK34QDeclarativeOrganizerItemTimestamp7createdEv.clean)
    i._ZNK35QDeclarativeOrganizerItemRecurrence14exceptionDatesEv 0x0001da74   Section       52  moc_qdeclarativeorganizeritemdetail_p.o(i._ZNK35QDeclarativeOrganizerItemRecurrence14exceptionDatesEv)
    i._ZNK35QDeclarativeOrganizerItemRecurrence14exceptionDatesEv.clean 0x0001daa8   Section       10  moc_qdeclarativeorganizeritemdetail_p.o(i._ZNK35QDeclarativeOrganizerItemRecurrence14exceptionDatesEv.clean)
    i._ZNK35QDeclarativeOrganizerItemRecurrence15recurrenceDatesEv 0x0001dab4   Section       52  moc_qdeclarativeorganizeritemdetail_p.o(i._ZNK35QDeclarativeOrganizerItemRecurrence15recurrenceDatesEv)
    i._ZNK35QDeclarativeOrganizerItemRecurrence15recurrenceDatesEv.clean 0x0001dae8   Section       10  moc_qdeclarativeorganizeritemdetail_p.o(i._ZNK35QDeclarativeOrganizerItemRecurrence15recurrenceDatesEv.clean)
    i._ZNK35QDeclarativeOrganizerItemRecurrence4typeEv 0x0001daf2   Section        6  moc_qdeclarativeorganizeritemdetail_p.o(i._ZNK35QDeclarativeOrganizerItemRecurrence4typeEv)
    i._ZNK35QDeclarativeOrganizerRecurrenceRule10daysOfWeekEv 0x0001daf8   Section      346  moc_qdeclarativeorganizerrecurrencerule_p.o(i._ZNK35QDeclarativeOrganizerRecurrenceRule10daysOfWeekEv)
    i._ZNK35QDeclarativeOrganizerRecurrenceRule10daysOfWeekEv.clean 0x0001dc52   Section       40  moc_qdeclarativeorganizerrecurrencerule_p.o(i._ZNK35QDeclarativeOrganizerRecurrenceRule10daysOfWeekEv.clean)
    i._ZNK35QDeclarativeOrganizerRecurrenceRule10daysOfYearEv 0x0001dc7a   Section      176  moc_qdeclarativeorganizerrecurrencerule_p.o(i._ZNK35QDeclarativeOrganizerRecurrenceRule10daysOfYearEv)
    i._ZNK35QDeclarativeOrganizerRecurrenceRule10daysOfYearEv.clean 0x0001dd2a   Section       30  moc_qdeclarativeorganizerrecurrencerule_p.o(i._ZNK35QDeclarativeOrganizerRecurrenceRule10daysOfYearEv.clean)
    i._ZNK35QDeclarativeOrganizerRecurrenceRule11daysOfMonthEv 0x0001dd48   Section      176  moc_qdeclarativeorganizerrecurrencerule_p.o(i._ZNK35QDeclarativeOrganizerRecurrenceRule11daysOfMonthEv)
    i._ZNK35QDeclarativeOrganizerRecurrenceRule11daysOfMonthEv.clean 0x0001ddf8   Section       30  moc_qdeclarativeorganizerrecurrencerule_p.o(i._ZNK35QDeclarativeOrganizerRecurrenceRule11daysOfMonthEv.clean)
    i._ZNK35QDeclarativeOrganizerRecurrenceRule12monthsOfYearEv 0x0001de16   Section      346  moc_qdeclarativeorganizerrecurrencerule_p.o(i._ZNK35QDeclarativeOrganizerRecurrenceRule12monthsOfYearEv)
    i._ZNK35QDeclarativeOrganizerRecurrenceRule12monthsOfYearEv.clean 0x0001df70   Section       40  moc_qdeclarativeorganizerrecurrencerule_p.o(i._ZNK35QDeclarativeOrganizerRecurrenceRule12monthsOfYearEv.clean)
    i._ZNK35QDeclarativeOrganizerRecurrenceRule9positionsEv 0x0001df98   Section      176  moc_qdeclarativeorganizerrecurrencerule_p.o(i._ZNK35QDeclarativeOrganizerRecurrenceRule9positionsEv)
    i._ZNK35QDeclarativeOrganizerRecurrenceRule9positionsEv.clean 0x0001e048   Section       30  moc_qdeclarativeorganizerrecurrencerule_p.o(i._ZNK35QDeclarativeOrganizerRecurrenceRule9positionsEv.clean)
    i._ZNK36QDeclarativeOrganizerItemDescription11descriptionEv 0x0001e068   Section       36  moc_qdeclarativeorganizeritemdetail_p.o(i._ZNK36QDeclarativeOrganizerItemDescription11descriptionEv)
    i._ZNK36QDeclarativeOrganizerItemDescription4typeEv 0x0001e08c   Section        6  moc_qdeclarativeorganizeritemdetail_p.o(i._ZNK36QDeclarativeOrganizerItemDescription4typeEv)
    i._ZNK36QDeclarativeOrganizerItemUnionFilter6filterEv 0x0001e092   Section      180  moc_qdeclarativeorganizeritemfilter_p.o(i._ZNK36QDeclarativeOrganizerItemUnionFilter6filterEv)
    i._ZNK36QDeclarativeOrganizerItemUnionFilter6filterEv.clean 0x0001e146   Section       30  moc_qdeclarativeorganizeritemfilter_p.o(i._ZNK36QDeclarativeOrganizerItemUnionFilter6filterEv.clean)
    i._ZNK37QDeclarativeOrganizerItemDetailFilter6filterEv 0x0001e164   Section       20  moc_qdeclarativeorganizeritemfilter_p.o(i._ZNK37QDeclarativeOrganizerItemDetailFilter6filterEv)
    i._ZNK37QDeclarativeOrganizerItemDisplayLabel4typeEv 0x0001e178   Section        6  moc_qdeclarativeorganizeritemdetail_p.o(i._ZNK37QDeclarativeOrganizerItemDisplayLabel4typeEv)
    i._ZNK37QDeclarativeOrganizerItemDisplayLabel5labelEv 0x0001e180   Section       36  moc_qdeclarativeorganizeritemdetail_p.o(i._ZNK37QDeclarativeOrganizerItemDisplayLabel5labelEv)
    i._ZNK38QDeclarativeOrganizerItemEmailReminder10recipientsEv 0x0001e1a4   Section       36  moc_qdeclarativeorganizeritemdetail_p.o(i._ZNK38QDeclarativeOrganizerItemEmailReminder10recipientsEv)
    i._ZNK38QDeclarativeOrganizerItemEmailReminder4bodyEv 0x0001e1c8   Section       36  moc_qdeclarativeorganizeritemdetail_p.o(i._ZNK38QDeclarativeOrganizerItemEmailReminder4bodyEv)
    i._ZNK38QDeclarativeOrganizerItemEmailReminder4typeEv 0x0001e1ec   Section        6  moc_qdeclarativeorganizeritemdetail_p.o(i._ZNK38QDeclarativeOrganizerItemEmailReminder4typeEv)
    i._ZNK38QDeclarativeOrganizerItemEmailReminder7subjectEv 0x0001e1f4   Section       36  moc_qdeclarativeorganizeritemdetail_p.o(i._ZNK38QDeclarativeOrganizerItemEmailReminder7subjectEv)
    i._ZNK38QDeclarativeOrganizerItemInvalidFilter6filterEv 0x0001e218   Section       36  moc_qdeclarativeorganizeritemfilter_p.o(i._ZNK38QDeclarativeOrganizerItemInvalidFilter6filterEv)
    i._ZNK38QDeclarativeOrganizerItemInvalidFilter6filterEv.clean 0x0001e23c   Section       10  moc_qdeclarativeorganizeritemfilter_p.o(i._ZNK38QDeclarativeOrganizerItemInvalidFilter6filterEv.clean)
    i._ZNK39QDeclarativeOrganizerItemVisualReminder4typeEv 0x0001e246   Section        6  moc_qdeclarativeorganizeritemdetail_p.o(i._ZNK39QDeclarativeOrganizerItemVisualReminder4typeEv)
    i._ZNK39QDeclarativeOrganizerItemVisualReminder7dataUrlEv 0x0001e24c   Section       36  moc_qdeclarativeorganizeritemdetail_p.o(i._ZNK39QDeclarativeOrganizerItemVisualReminder7dataUrlEv)
    i._ZNK39QDeclarativeOrganizerItemVisualReminder7messageEv 0x0001e270   Section       36  moc_qdeclarativeorganizeritemdetail_p.o(i._ZNK39QDeclarativeOrganizerItemVisualReminder7messageEv)
    i._ZNK40QDeclarativeOrganizerItemAudibleReminder4typeEv 0x0001e294   Section        6  moc_qdeclarativeorganizeritemdetail_p.o(i._ZNK40QDeclarativeOrganizerItemAudibleReminder4typeEv)
    i._ZNK40QDeclarativeOrganizerItemAudibleReminder7dataUrlEv 0x0001e29c   Section       36  moc_qdeclarativeorganizeritemdetail_p.o(i._ZNK40QDeclarativeOrganizerItemAudibleReminder7dataUrlEv)
    i._ZNK40QDeclarativeOrganizerItemChangeLogFilter6filterEv 0x0001e2c0   Section       20  moc_qdeclarativeorganizeritemfilter_p.o(i._ZNK40QDeclarativeOrganizerItemChangeLogFilter6filterEv)
    i._ZNK42QDeclarativeOrganizerItemDetailRangeFilter6filterEv 0x0001e2d4   Section       20  moc_qdeclarativeorganizeritemfilter_p.o(i._ZNK42QDeclarativeOrganizerItemDetailRangeFilter6filterEv)
    i._ZNK43QDeclarativeOrganizerItemIntersectionFilter6filterEv 0x0001e2e8   Section      180  moc_qdeclarativeorganizeritemfilter_p.o(i._ZNK43QDeclarativeOrganizerItemIntersectionFilter6filterEv)
    i._ZNK43QDeclarativeOrganizerItemIntersectionFilter6filterEv.clean 0x0001e39c   Section       30  moc_qdeclarativeorganizeritemfilter_p.o(i._ZNK43QDeclarativeOrganizerItemIntersectionFilter6filterEv.clean)
    i._ZNK5QBoolcvPKvEv                      0x0001e3ba   Section       16  moc_qdeclarativeorganizeritemfilter_p.o(i._ZNK5QBoolcvPKvEv)
    i._ZNK7QObject7connectEPKS_PKcS3_N2Qt14ConnectionTypeE 0x0001e3ca   Section       30  plugin.o(i._ZNK7QObject7connectEPKS_PKcS3_N2Qt14ConnectionTypeE)
    i._ZNK7QString3argEiiiRK5QChar           0x0001e3e8   Section       36  qdeclarativeorganizeritemdetail.o(i._ZNK7QString3argEiiiRK5QChar)
    i._ZNK7QString7isEmptyEv                 0x0001e40c   Section       18  qdeclarativeorganizermodel.o(i._ZNK7QString7isEmptyEv)
    i._ZNK7QStringeqEPKc                     0x0001e420   Section       76  qdeclarativeorganizeritemmetaobject.o(i._ZNK7QStringeqEPKc)
    i._ZNK7QStringeqEPKc.clean               0x0001e46c   Section       10  qdeclarativeorganizeritemmetaobject.o(i._ZNK7QStringeqEPKc.clean)
    i._ZNK7QStringneERKS_                    0x0001e476   Section       20  moc_qdeclarativeorganizeritemdetail_p.o(i._ZNK7QStringneERKS_)
    i._ZNK8QVariantneERKS_                   0x0001e48a   Section       20  moc_qdeclarativeorganizeritemfilter_p.o(i._ZNK8QVariantneERKS_)
    i._ZNK9QDateTime11toLocalTimeEv          0x0001e49e   Section       18  moc_qdeclarativeorganizeritemdetail_p.o(i._ZNK9QDateTime11toLocalTimeEv)
    i._ZNK9QDateTime5toUTCEv                 0x0001e4b0   Section       18  moc_qdeclarativeorganizeritemdetail_p.o(i._ZNK9QDateTime5toUTCEv)
    i._ZNK9QDateTimegeERKS_                  0x0001e4c2   Section       20  qdeclarativeorganizermodel.o(i._ZNK9QDateTimegeERKS_)
    i._ZNK9QDateTimeleERKS_                  0x0001e4d6   Section       20  qdeclarativeorganizermodel.o(i._ZNK9QDateTimeleERKS_)
    i._ZNK9QDateTimeneERKS_                  0x0001e4ea   Section       20  moc_qdeclarativeorganizeritemdetail_p.o(i._ZNK9QDateTimeneERKS_)
    i._ZNK9QListData2atEi                    0x0001e4fe   Section       20  qmetaobjectbuilder.o(i._ZNK9QListData2atEi)
    i._ZNK9QListData3endEv                   0x0001e512   Section       16  moc_qdeclarativeorganizeritemdetail_p.o(i._ZNK9QListData3endEv)
    i._ZNK9QListData4sizeEv                  0x0001e522   Section       14  moc_qdeclarativeorganizeritemdetail_p.o(i._ZNK9QListData4sizeEv)
    i._ZNK9QListData5beginEv                 0x0001e530   Section       16  moc_qdeclarativeorganizermodel_p.o(i._ZNK9QListData5beginEv)
    i._ZNK9QListData7isEmptyEv               0x0001e540   Section       22  qdeclarativeorganizermodel.o(i._ZNK9QListData7isEmptyEv)
    i._ZThn8_N19QDeclarativePrivate19QDeclarativeElementI26QDeclarativeOrganizerModelED0Ev 0x0001e556   Section       14  plugin.o(i._ZThn8_N19QDeclarativePrivate19QDeclarativeElementI26QDeclarativeOrganizerModelED0Ev)
    i._ZThn8_N19QDeclarativePrivate19QDeclarativeElementI26QDeclarativeOrganizerModelED1Ev 0x0001e564   Section       14  plugin.o(i._ZThn8_N19QDeclarativePrivate19QDeclarativeElementI26QDeclarativeOrganizerModelED1Ev)
    i._ZThn8_N19QDeclarativePrivate19QDeclarativeElementI34QDeclarativeOrganizerItemSortOrderED0Ev 0x0001e572   Section       14  plugin.o(i._ZThn8_N19QDeclarativePrivate19QDeclarativeElementI34QDeclarativeOrganizerItemSortOrderED0Ev)
    i._ZThn8_N19QDeclarativePrivate19QDeclarativeElementI34QDeclarativeOrganizerItemSortOrderED1Ev 0x0001e580   Section       14  plugin.o(i._ZThn8_N19QDeclarativePrivate19QDeclarativeElementI34QDeclarativeOrganizerItemSortOrderED1Ev)
    i._ZThn8_N19QDeclarativePrivate19QDeclarativeElementI37QDeclarativeOrganizerItemDetailFilterED0Ev 0x0001e58e   Section       14  plugin.o(i._ZThn8_N19QDeclarativePrivate19QDeclarativeElementI37QDeclarativeOrganizerItemDetailFilterED0Ev)
    i._ZThn8_N19QDeclarativePrivate19QDeclarativeElementI37QDeclarativeOrganizerItemDetailFilterED1Ev 0x0001e59c   Section       14  plugin.o(i._ZThn8_N19QDeclarativePrivate19QDeclarativeElementI37QDeclarativeOrganizerItemDetailFilterED1Ev)
    i._ZThn8_N19QDeclarativePrivate19QDeclarativeElementI42QDeclarativeOrganizerItemDetailRangeFilterED0Ev 0x0001e5aa   Section       14  plugin.o(i._ZThn8_N19QDeclarativePrivate19QDeclarativeElementI42QDeclarativeOrganizerItemDetailRangeFilterED0Ev)
    i._ZThn8_N19QDeclarativePrivate19QDeclarativeElementI42QDeclarativeOrganizerItemDetailRangeFilterED1Ev 0x0001e5b8   Section       14  plugin.o(i._ZThn8_N19QDeclarativePrivate19QDeclarativeElementI42QDeclarativeOrganizerItemDetailRangeFilterED1Ev)
    i._ZThn8_N19QOrganizerQmlPlugin13registerTypesEPKc 0x0001e5c6   Section       18  plugin.o(i._ZThn8_N19QOrganizerQmlPlugin13registerTypesEPKc)
    i._ZThn8_N19QOrganizerQmlPluginD0Ev      0x0001e5d8   Section       14  plugin.o(i._ZThn8_N19QOrganizerQmlPluginD0Ev)
    i._ZThn8_N19QOrganizerQmlPluginD1Ev      0x0001e5e6   Section       18  plugin.o(i._ZThn8_N19QOrganizerQmlPluginD1Ev)
    i._ZThn8_N26QDeclarativeOrganizerModel10classBeginEv 0x0001e5f8   Section        4  moc_qdeclarativeorganizermodel_p.o(i._ZThn8_N26QDeclarativeOrganizerModel10classBeginEv)
    i._ZThn8_N26QDeclarativeOrganizerModelD0Ev 0x0001e5fc   Section       14  moc_qdeclarativeorganizermodel_p.o(i._ZThn8_N26QDeclarativeOrganizerModelD0Ev)
    i._ZThn8_N26QDeclarativeOrganizerModelD1Ev 0x0001e60a   Section       14  moc_qdeclarativeorganizermodel_p.o(i._ZThn8_N26QDeclarativeOrganizerModelD1Ev)
    i._ZThn8_N34QDeclarativeOrganizerItemSortOrder10classBeginEv 0x0001e618   Section        4  moc_qdeclarativeorganizeritemsortorder_p.o(i._ZThn8_N34QDeclarativeOrganizerItemSortOrder10classBeginEv)
    i._ZThn8_N34QDeclarativeOrganizerItemSortOrder17componentCompleteEv 0x0001e61c   Section       14  moc_qdeclarativeorganizeritemsortorder_p.o(i._ZThn8_N34QDeclarativeOrganizerItemSortOrder17componentCompleteEv)
    i._ZThn8_N34QDeclarativeOrganizerItemSortOrderD0Ev 0x0001e62a   Section       14  moc_qdeclarativeorganizeritemsortorder_p.o(i._ZThn8_N34QDeclarativeOrganizerItemSortOrderD0Ev)
    i._ZThn8_N34QDeclarativeOrganizerItemSortOrderD1Ev 0x0001e638   Section       14  moc_qdeclarativeorganizeritemsortorder_p.o(i._ZThn8_N34QDeclarativeOrganizerItemSortOrderD1Ev)
    i._ZThn8_N37QDeclarativeOrganizerItemDetailFilter10classBeginEv 0x0001e646   Section        4  moc_qdeclarativeorganizeritemfilter_p.o(i._ZThn8_N37QDeclarativeOrganizerItemDetailFilter10classBeginEv)
    i._ZThn8_N37QDeclarativeOrganizerItemDetailFilter17componentCompleteEv 0x0001e64a   Section       14  moc_qdeclarativeorganizeritemfilter_p.o(i._ZThn8_N37QDeclarativeOrganizerItemDetailFilter17componentCompleteEv)
    i._ZThn8_N37QDeclarativeOrganizerItemDetailFilterD0Ev 0x0001e658   Section       14  moc_qdeclarativeorganizeritemfilter_p.o(i._ZThn8_N37QDeclarativeOrganizerItemDetailFilterD0Ev)
    i._ZThn8_N37QDeclarativeOrganizerItemDetailFilterD1Ev 0x0001e666   Section       14  moc_qdeclarativeorganizeritemfilter_p.o(i._ZThn8_N37QDeclarativeOrganizerItemDetailFilterD1Ev)
    i._ZThn8_N42QDeclarativeOrganizerItemDetailRangeFilter10classBeginEv 0x0001e674   Section        4  moc_qdeclarativeorganizeritemfilter_p.o(i._ZThn8_N42QDeclarativeOrganizerItemDetailRangeFilter10classBeginEv)
    i._ZThn8_N42QDeclarativeOrganizerItemDetailRangeFilter17componentCompleteEv 0x0001e678   Section       14  moc_qdeclarativeorganizeritemfilter_p.o(i._ZThn8_N42QDeclarativeOrganizerItemDetailRangeFilter17componentCompleteEv)
    i._ZThn8_N42QDeclarativeOrganizerItemDetailRangeFilterD0Ev 0x0001e686   Section       14  moc_qdeclarativeorganizeritemfilter_p.o(i._ZThn8_N42QDeclarativeOrganizerItemDetailRangeFilterD0Ev)
    i._ZThn8_N42QDeclarativeOrganizerItemDetailRangeFilterD1Ev 0x0001e694   Section       14  moc_qdeclarativeorganizeritemfilter_p.o(i._ZThn8_N42QDeclarativeOrganizerItemDetailRangeFilterD1Ev)
    i._ZdlPvS_                               0x0001e6a2   Section        2  moc_qdeclarativeorganizermodel_p.o(i._ZdlPvS_)
    i._ZeqRK10QByteArrayS1_                  0x0001e6a4   Section       68  qmetaobjectbuilder.o(i._ZeqRK10QByteArrayS1_)
    i._ZnwjPv                                0x0001e6e8   Section        6  moc_qdeclarativeorganizermodel_p.o(i._ZnwjPv)
    i._ZplPKcRK10QByteArray                  0x0001e6ee   Section       46  plugin.o(i._ZplPKcRK10QByteArray)
    i._ZplPKcRK10QByteArray.clean            0x0001e71c   Section       10  plugin.o(i._ZplPKcRK10QByteArray.clean)
    i._ZplRK10QByteArrayPKc                  0x0001e726   Section       46  plugin.o(i._ZplRK10QByteArrayPKc)
    i._ZplRK10QByteArrayPKc.clean            0x0001e754   Section       10  plugin.o(i._ZplRK10QByteArrayPKc.clean)
    i._ZplRK10QByteArrayc                    0x0001e75e   Section       46  plugin.o(i._ZplRK10QByteArrayc)
    i._ZplRK10QByteArrayc.clean              0x0001e78c   Section       10  plugin.o(i._ZplRK10QByteArrayc.clean)
    t._Z12qobject_castIP25QDeclarativeOrganizerItemET_P7QObject 0x0001e798   Section       32  qdeclarativeorganizeritemmetaobject.o(t._Z12qobject_castIP25QDeclarativeOrganizerItemET_P7QObject)
    t._Z12qobject_castIP26QDeclarativeOrganizerModelET_P7QObject 0x0001e7b8   Section       32  qdeclarativeorganizermodel.o(t._Z12qobject_castIP26QDeclarativeOrganizerModelET_P7QObject)
    t._Z15qMapLessThanKeyI10QByteArrayEbRKT_S3_ 0x0001e7d8   Section       20  qmetaobjectbuilder.o(t._Z15qMapLessThanKeyI10QByteArrayEbRKT_S3_)
    t._Z15qMapLessThanKeyI7QStringEbRKT_S3_  0x0001e7ec   Section       16  qdeclarativeorganizermodel.o(t._Z15qMapLessThanKeyI7QStringEbRKT_S3_)
    t._Z15qmlRegisterTypeI25QDeclarativeOrganizerItemEiPKciiS2_ 0x0001e7fc   Section      280  plugin.o(t._Z15qmlRegisterTypeI25QDeclarativeOrganizerItemEiPKciiS2_)
    t._Z15qmlRegisterTypeI25QDeclarativeOrganizerItemEiPKciiS2_.clean 0x0001e914   Section       52  plugin.o(t._Z15qmlRegisterTypeI25QDeclarativeOrganizerItemEiPKciiS2_.clean)
    t._Z15qmlRegisterTypeI25QDeclarativeOrganizerNoteEiPKciiS2_ 0x0001e948   Section      280  plugin.o(t._Z15qmlRegisterTypeI25QDeclarativeOrganizerNoteEiPKciiS2_)
    t._Z15qmlRegisterTypeI25QDeclarativeOrganizerNoteEiPKciiS2_.clean 0x0001ea60   Section       52  plugin.o(t._Z15qmlRegisterTypeI25QDeclarativeOrganizerNoteEiPKciiS2_.clean)
    t._Z15qmlRegisterTypeI25QDeclarativeOrganizerTodoEiPKciiS2_ 0x0001ea94   Section      280  plugin.o(t._Z15qmlRegisterTypeI25QDeclarativeOrganizerTodoEiPKciiS2_)
    t._Z15qmlRegisterTypeI25QDeclarativeOrganizerTodoEiPKciiS2_.clean 0x0001ebac   Section       52  plugin.o(t._Z15qmlRegisterTypeI25QDeclarativeOrganizerTodoEiPKciiS2_.clean)
    t._Z15qmlRegisterTypeI26QDeclarativeOrganizerEventEiPKciiS2_ 0x0001ebe0   Section      280  plugin.o(t._Z15qmlRegisterTypeI26QDeclarativeOrganizerEventEiPKciiS2_)
    t._Z15qmlRegisterTypeI26QDeclarativeOrganizerEventEiPKciiS2_.clean 0x0001ecf8   Section       52  plugin.o(t._Z15qmlRegisterTypeI26QDeclarativeOrganizerEventEiPKciiS2_.clean)
    t._Z15qmlRegisterTypeI26QDeclarativeOrganizerModelEiPKciiS2_ 0x0001ed2c   Section      288  plugin.o(t._Z15qmlRegisterTypeI26QDeclarativeOrganizerModelEiPKciiS2_)
    t._Z15qmlRegisterTypeI26QDeclarativeOrganizerModelEiPKciiS2_.clean 0x0001ee4c   Section       52  plugin.o(t._Z15qmlRegisterTypeI26QDeclarativeOrganizerModelEiPKciiS2_.clean)
    t._Z15qmlRegisterTypeI28QDeclarativeOrganizerJournalEiPKciiS2_ 0x0001ee80   Section      280  plugin.o(t._Z15qmlRegisterTypeI28QDeclarativeOrganizerJournalEiPKciiS2_)
    t._Z15qmlRegisterTypeI28QDeclarativeOrganizerJournalEiPKciiS2_.clean 0x0001ef98   Section       52  plugin.o(t._Z15qmlRegisterTypeI28QDeclarativeOrganizerJournalEiPKciiS2_.clean)
    t._Z15qmlRegisterTypeI29QDeclarativeOrganizerItemGuidEiPKciiS2_ 0x0001efcc   Section      280  plugin.o(t._Z15qmlRegisterTypeI29QDeclarativeOrganizerItemGuidEiPKciiS2_)
    t._Z15qmlRegisterTypeI29QDeclarativeOrganizerItemGuidEiPKciiS2_.clean 0x0001f0e4   Section       52  plugin.o(t._Z15qmlRegisterTypeI29QDeclarativeOrganizerItemGuidEiPKciiS2_.clean)
    t._Z15qmlRegisterTypeI29QDeclarativeOrganizerItemTypeEiPKciiS2_ 0x0001f118   Section      280  plugin.o(t._Z15qmlRegisterTypeI29QDeclarativeOrganizerItemTypeEiPKciiS2_)
    t._Z15qmlRegisterTypeI29QDeclarativeOrganizerItemTypeEiPKciiS2_.clean 0x0001f230   Section       52  plugin.o(t._Z15qmlRegisterTypeI29QDeclarativeOrganizerItemTypeEiPKciiS2_.clean)
    t._Z15qmlRegisterTypeI29QDeclarativeOrganizerTodoTimeEiPKciiS2_ 0x0001f264   Section      280  plugin.o(t._Z15qmlRegisterTypeI29QDeclarativeOrganizerTodoTimeEiPKciiS2_)
    t._Z15qmlRegisterTypeI29QDeclarativeOrganizerTodoTimeEiPKciiS2_.clean 0x0001f37c   Section       52  plugin.o(t._Z15qmlRegisterTypeI29QDeclarativeOrganizerTodoTimeEiPKciiS2_.clean)
    t._Z15qmlRegisterTypeI30QDeclarativeOrganizerEventTimeEiPKciiS2_ 0x0001f3b0   Section      280  plugin.o(t._Z15qmlRegisterTypeI30QDeclarativeOrganizerEventTimeEiPKciiS2_)
    t._Z15qmlRegisterTypeI30QDeclarativeOrganizerEventTimeEiPKciiS2_.clean 0x0001f4c8   Section       52  plugin.o(t._Z15qmlRegisterTypeI30QDeclarativeOrganizerEventTimeEiPKciiS2_.clean)
    t._Z15qmlRegisterTypeI31QDeclarativeOrganizerCollectionEiPKciiS2_ 0x0001f4fc   Section      280  plugin.o(t._Z15qmlRegisterTypeI31QDeclarativeOrganizerCollectionEiPKciiS2_)
    t._Z15qmlRegisterTypeI31QDeclarativeOrganizerCollectionEiPKciiS2_.clean 0x0001f614   Section       52  plugin.o(t._Z15qmlRegisterTypeI31QDeclarativeOrganizerCollectionEiPKciiS2_.clean)
    t._Z15qmlRegisterTypeI31QDeclarativeOrganizerItemDetailEiPKciiS2_ 0x0001f648   Section      280  plugin.o(t._Z15qmlRegisterTypeI31QDeclarativeOrganizerItemDetailEiPKciiS2_)
    t._Z15qmlRegisterTypeI31QDeclarativeOrganizerItemDetailEiPKciiS2_.clean 0x0001f760   Section       52  plugin.o(t._Z15qmlRegisterTypeI31QDeclarativeOrganizerItemDetailEiPKciiS2_.clean)
    t._Z15qmlRegisterTypeI31QDeclarativeOrganizerItemFilterEiPKciiS2_ 0x0001f794   Section      280  plugin.o(t._Z15qmlRegisterTypeI31QDeclarativeOrganizerItemFilterEiPKciiS2_)
    t._Z15qmlRegisterTypeI31QDeclarativeOrganizerItemFilterEiPKciiS2_.clean 0x0001f8ac   Section       52  plugin.o(t._Z15qmlRegisterTypeI31QDeclarativeOrganizerItemFilterEiPKciiS2_.clean)
    t._Z15qmlRegisterTypeI31QDeclarativeOrganizerItemParentEiPKciiS2_ 0x0001f8e0   Section      280  plugin.o(t._Z15qmlRegisterTypeI31QDeclarativeOrganizerItemParentEiPKciiS2_)
    t._Z15qmlRegisterTypeI31QDeclarativeOrganizerItemParentEiPKciiS2_.clean 0x0001f9f8   Section       52  plugin.o(t._Z15qmlRegisterTypeI31QDeclarativeOrganizerItemParentEiPKciiS2_.clean)
    t._Z15qmlRegisterTypeI32QDeclarativeOrganizerJournalTimeEiPKciiS2_ 0x0001fa2c   Section      280  plugin.o(t._Z15qmlRegisterTypeI32QDeclarativeOrganizerJournalTimeEiPKciiS2_)
    t._Z15qmlRegisterTypeI32QDeclarativeOrganizerJournalTimeEiPKciiS2_.clean 0x0001fb44   Section       52  plugin.o(t._Z15qmlRegisterTypeI32QDeclarativeOrganizerJournalTimeEiPKciiS2_.clean)
    t._Z15qmlRegisterTypeI33QDeclarativeOrganizerItemIdFilterEiPKciiS2_ 0x0001fb78   Section      280  plugin.o(t._Z15qmlRegisterTypeI33QDeclarativeOrganizerItemIdFilterEiPKciiS2_)
    t._Z15qmlRegisterTypeI33QDeclarativeOrganizerItemIdFilterEiPKciiS2_.clean 0x0001fc90   Section       52  plugin.o(t._Z15qmlRegisterTypeI33QDeclarativeOrganizerItemIdFilterEiPKciiS2_.clean)
    t._Z15qmlRegisterTypeI33QDeclarativeOrganizerItemLocationEiPKciiS2_ 0x0001fcc4   Section      280  plugin.o(t._Z15qmlRegisterTypeI33QDeclarativeOrganizerItemLocationEiPKciiS2_)
    t._Z15qmlRegisterTypeI33QDeclarativeOrganizerItemLocationEiPKciiS2_.clean 0x0001fddc   Section       52  plugin.o(t._Z15qmlRegisterTypeI33QDeclarativeOrganizerItemLocationEiPKciiS2_.clean)
    t._Z15qmlRegisterTypeI33QDeclarativeOrganizerItemPriorityEiPKciiS2_ 0x0001fe10   Section      280  plugin.o(t._Z15qmlRegisterTypeI33QDeclarativeOrganizerItemPriorityEiPKciiS2_)
    t._Z15qmlRegisterTypeI33QDeclarativeOrganizerItemPriorityEiPKciiS2_.clean 0x0001ff28   Section       52  plugin.o(t._Z15qmlRegisterTypeI33QDeclarativeOrganizerItemPriorityEiPKciiS2_.clean)
    t._Z15qmlRegisterTypeI33QDeclarativeOrganizerItemReminderEiPKciiS2_ 0x0001ff5c   Section      280  plugin.o(t._Z15qmlRegisterTypeI33QDeclarativeOrganizerItemReminderEiPKciiS2_)
    t._Z15qmlRegisterTypeI33QDeclarativeOrganizerItemReminderEiPKciiS2_.clean 0x00020074   Section       52  plugin.o(t._Z15qmlRegisterTypeI33QDeclarativeOrganizerItemReminderEiPKciiS2_.clean)
    t._Z15qmlRegisterTypeI33QDeclarativeOrganizerTodoProgressEiPKciiS2_ 0x000200a8   Section      280  plugin.o(t._Z15qmlRegisterTypeI33QDeclarativeOrganizerTodoProgressEiPKciiS2_)
    t._Z15qmlRegisterTypeI33QDeclarativeOrganizerTodoProgressEiPKciiS2_.clean 0x000201c0   Section       52  plugin.o(t._Z15qmlRegisterTypeI33QDeclarativeOrganizerTodoProgressEiPKciiS2_.clean)
    t._Z15qmlRegisterTypeI34QDeclarativeOrganizerItemFetchHintEiPKciiS2_ 0x000201f4   Section      280  plugin.o(t._Z15qmlRegisterTypeI34QDeclarativeOrganizerItemFetchHintEiPKciiS2_)
    t._Z15qmlRegisterTypeI34QDeclarativeOrganizerItemFetchHintEiPKciiS2_.clean 0x0002030c   Section       52  plugin.o(t._Z15qmlRegisterTypeI34QDeclarativeOrganizerItemFetchHintEiPKciiS2_.clean)
    t._Z15qmlRegisterTypeI34QDeclarativeOrganizerItemSortOrderEiPKciiS2_ 0x00020340   Section      288  plugin.o(t._Z15qmlRegisterTypeI34QDeclarativeOrganizerItemSortOrderEiPKciiS2_)
    t._Z15qmlRegisterTypeI34QDeclarativeOrganizerItemSortOrderEiPKciiS2_.clean 0x00020460   Section       52  plugin.o(t._Z15qmlRegisterTypeI34QDeclarativeOrganizerItemSortOrderEiPKciiS2_.clean)
    t._Z15qmlRegisterTypeI34QDeclarativeOrganizerItemTimestampEiPKciiS2_ 0x00020494   Section      280  plugin.o(t._Z15qmlRegisterTypeI34QDeclarativeOrganizerItemTimestampEiPKciiS2_)
    t._Z15qmlRegisterTypeI34QDeclarativeOrganizerItemTimestampEiPKciiS2_.clean 0x000205ac   Section       52  plugin.o(t._Z15qmlRegisterTypeI34QDeclarativeOrganizerItemTimestampEiPKciiS2_.clean)
    t._Z15qmlRegisterTypeI35QDeclarativeOrganizerItemRecurrenceEiPKciiS2_ 0x000205e0   Section      280  plugin.o(t._Z15qmlRegisterTypeI35QDeclarativeOrganizerItemRecurrenceEiPKciiS2_)
    t._Z15qmlRegisterTypeI35QDeclarativeOrganizerItemRecurrenceEiPKciiS2_.clean 0x000206f8   Section       52  plugin.o(t._Z15qmlRegisterTypeI35QDeclarativeOrganizerItemRecurrenceEiPKciiS2_.clean)
    t._Z15qmlRegisterTypeI35QDeclarativeOrganizerRecurrenceRuleEiPKciiS2_ 0x0002072c   Section      280  plugin.o(t._Z15qmlRegisterTypeI35QDeclarativeOrganizerRecurrenceRuleEiPKciiS2_)
    t._Z15qmlRegisterTypeI35QDeclarativeOrganizerRecurrenceRuleEiPKciiS2_.clean 0x00020844   Section       52  plugin.o(t._Z15qmlRegisterTypeI35QDeclarativeOrganizerRecurrenceRuleEiPKciiS2_.clean)
    t._Z15qmlRegisterTypeI35QDeclarativeOrganizerTodoOccurrenceEiPKciiS2_ 0x00020878   Section      280  plugin.o(t._Z15qmlRegisterTypeI35QDeclarativeOrganizerTodoOccurrenceEiPKciiS2_)
    t._Z15qmlRegisterTypeI35QDeclarativeOrganizerTodoOccurrenceEiPKciiS2_.clean 0x00020990   Section       52  plugin.o(t._Z15qmlRegisterTypeI35QDeclarativeOrganizerTodoOccurrenceEiPKciiS2_.clean)
    t._Z15qmlRegisterTypeI36QDeclarativeOrganizerEventOccurrenceEiPKciiS2_ 0x000209c4   Section      280  plugin.o(t._Z15qmlRegisterTypeI36QDeclarativeOrganizerEventOccurrenceEiPKciiS2_)
    t._Z15qmlRegisterTypeI36QDeclarativeOrganizerEventOccurrenceEiPKciiS2_.clean 0x00020adc   Section       52  plugin.o(t._Z15qmlRegisterTypeI36QDeclarativeOrganizerEventOccurrenceEiPKciiS2_.clean)
    t._Z15qmlRegisterTypeI36QDeclarativeOrganizerItemDescriptionEiPKciiS2_ 0x00020b10   Section      280  plugin.o(t._Z15qmlRegisterTypeI36QDeclarativeOrganizerItemDescriptionEiPKciiS2_)
    t._Z15qmlRegisterTypeI36QDeclarativeOrganizerItemDescriptionEiPKciiS2_.clean 0x00020c28   Section       52  plugin.o(t._Z15qmlRegisterTypeI36QDeclarativeOrganizerItemDescriptionEiPKciiS2_.clean)
    t._Z15qmlRegisterTypeI36QDeclarativeOrganizerItemUnionFilterEiPKciiS2_ 0x00020c5c   Section      280  plugin.o(t._Z15qmlRegisterTypeI36QDeclarativeOrganizerItemUnionFilterEiPKciiS2_)
    t._Z15qmlRegisterTypeI36QDeclarativeOrganizerItemUnionFilterEiPKciiS2_.clean 0x00020d74   Section       52  plugin.o(t._Z15qmlRegisterTypeI36QDeclarativeOrganizerItemUnionFilterEiPKciiS2_.clean)
    t._Z15qmlRegisterTypeI37QDeclarativeOrganizerItemDetailFilterEiPKciiS2_ 0x00020da8   Section      288  plugin.o(t._Z15qmlRegisterTypeI37QDeclarativeOrganizerItemDetailFilterEiPKciiS2_)
    t._Z15qmlRegisterTypeI37QDeclarativeOrganizerItemDetailFilterEiPKciiS2_.clean 0x00020ec8   Section       52  plugin.o(t._Z15qmlRegisterTypeI37QDeclarativeOrganizerItemDetailFilterEiPKciiS2_.clean)
    t._Z15qmlRegisterTypeI37QDeclarativeOrganizerItemDisplayLabelEiPKciiS2_ 0x00020efc   Section      280  plugin.o(t._Z15qmlRegisterTypeI37QDeclarativeOrganizerItemDisplayLabelEiPKciiS2_)
    t._Z15qmlRegisterTypeI37QDeclarativeOrganizerItemDisplayLabelEiPKciiS2_.clean 0x00021014   Section       52  plugin.o(t._Z15qmlRegisterTypeI37QDeclarativeOrganizerItemDisplayLabelEiPKciiS2_.clean)
    t._Z15qmlRegisterTypeI38QDeclarativeOrganizerItemEmailReminderEiPKciiS2_ 0x00021048   Section      280  plugin.o(t._Z15qmlRegisterTypeI38QDeclarativeOrganizerItemEmailReminderEiPKciiS2_)
    t._Z15qmlRegisterTypeI38QDeclarativeOrganizerItemEmailReminderEiPKciiS2_.clean 0x00021160   Section       52  plugin.o(t._Z15qmlRegisterTypeI38QDeclarativeOrganizerItemEmailReminderEiPKciiS2_.clean)
    t._Z15qmlRegisterTypeI38QDeclarativeOrganizerItemInvalidFilterEiPKciiS2_ 0x00021194   Section      280  plugin.o(t._Z15qmlRegisterTypeI38QDeclarativeOrganizerItemInvalidFilterEiPKciiS2_)
    t._Z15qmlRegisterTypeI38QDeclarativeOrganizerItemInvalidFilterEiPKciiS2_.clean 0x000212ac   Section       52  plugin.o(t._Z15qmlRegisterTypeI38QDeclarativeOrganizerItemInvalidFilterEiPKciiS2_.clean)
    t._Z15qmlRegisterTypeI39QDeclarativeOrganizerItemVisualReminderEiPKciiS2_ 0x000212e0   Section      280  plugin.o(t._Z15qmlRegisterTypeI39QDeclarativeOrganizerItemVisualReminderEiPKciiS2_)
    t._Z15qmlRegisterTypeI39QDeclarativeOrganizerItemVisualReminderEiPKciiS2_.clean 0x000213f8   Section       52  plugin.o(t._Z15qmlRegisterTypeI39QDeclarativeOrganizerItemVisualReminderEiPKciiS2_.clean)
    t._Z15qmlRegisterTypeI40QDeclarativeOrganizerItemAudibleReminderEiPKciiS2_ 0x0002142c   Section      280  plugin.o(t._Z15qmlRegisterTypeI40QDeclarativeOrganizerItemAudibleReminderEiPKciiS2_)
    t._Z15qmlRegisterTypeI40QDeclarativeOrganizerItemAudibleReminderEiPKciiS2_.clean 0x00021544   Section       52  plugin.o(t._Z15qmlRegisterTypeI40QDeclarativeOrganizerItemAudibleReminderEiPKciiS2_.clean)
    t._Z15qmlRegisterTypeI40QDeclarativeOrganizerItemChangeLogFilterEiPKciiS2_ 0x00021578   Section      280  plugin.o(t._Z15qmlRegisterTypeI40QDeclarativeOrganizerItemChangeLogFilterEiPKciiS2_)
    t._Z15qmlRegisterTypeI40QDeclarativeOrganizerItemChangeLogFilterEiPKciiS2_.clean 0x00021690   Section       52  plugin.o(t._Z15qmlRegisterTypeI40QDeclarativeOrganizerItemChangeLogFilterEiPKciiS2_.clean)
    t._Z15qmlRegisterTypeI41QDeclarativeOrganizerItemCollectionFilterEiPKciiS2_ 0x000216c4   Section      280  plugin.o(t._Z15qmlRegisterTypeI41QDeclarativeOrganizerItemCollectionFilterEiPKciiS2_)
    t._Z15qmlRegisterTypeI41QDeclarativeOrganizerItemCollectionFilterEiPKciiS2_.clean 0x000217dc   Section       52  plugin.o(t._Z15qmlRegisterTypeI41QDeclarativeOrganizerItemCollectionFilterEiPKciiS2_.clean)
    t._Z15qmlRegisterTypeI42QDeclarativeOrganizerItemDetailRangeFilterEiPKciiS2_ 0x00021810   Section      288  plugin.o(t._Z15qmlRegisterTypeI42QDeclarativeOrganizerItemDetailRangeFilterEiPKciiS2_)
    t._Z15qmlRegisterTypeI42QDeclarativeOrganizerItemDetailRangeFilterEiPKciiS2_.clean 0x00021930   Section       52  plugin.o(t._Z15qmlRegisterTypeI42QDeclarativeOrganizerItemDetailRangeFilterEiPKciiS2_.clean)
    t._Z15qmlRegisterTypeI43QDeclarativeOrganizerItemIntersectionFilterEiPKciiS2_ 0x00021964   Section      280  plugin.o(t._Z15qmlRegisterTypeI43QDeclarativeOrganizerItemIntersectionFilterEiPKciiS2_)
    t._Z15qmlRegisterTypeI43QDeclarativeOrganizerItemIntersectionFilterEiPKciiS2_.clean 0x00021a7c   Section       52  plugin.o(t._Z15qmlRegisterTypeI43QDeclarativeOrganizerItemIntersectionFilterEiPKciiS2_.clean)
    t._Z17qRegisterMetaTypeI24QDeclarativeListPropertyI25QDeclarativeOrganizerItemEEiPKcPT_ 0x00021ab0   Section      164  plugin.o(t._Z17qRegisterMetaTypeI24QDeclarativeListPropertyI25QDeclarativeOrganizerItemEEiPKcPT_)
    t._Z17qRegisterMetaTypeI24QDeclarativeListPropertyI25QDeclarativeOrganizerNoteEEiPKcPT_ 0x00021b54   Section      164  plugin.o(t._Z17qRegisterMetaTypeI24QDeclarativeListPropertyI25QDeclarativeOrganizerNoteEEiPKcPT_)
    t._Z17qRegisterMetaTypeI24QDeclarativeListPropertyI25QDeclarativeOrganizerTodoEEiPKcPT_ 0x00021bf8   Section      164  plugin.o(t._Z17qRegisterMetaTypeI24QDeclarativeListPropertyI25QDeclarativeOrganizerTodoEEiPKcPT_)
    t._Z17qRegisterMetaTypeI24QDeclarativeListPropertyI26QDeclarativeOrganizerEventEEiPKcPT_ 0x00021c9c   Section      168  plugin.o(t._Z17qRegisterMetaTypeI24QDeclarativeListPropertyI26QDeclarativeOrganizerEventEEiPKcPT_)
    t._Z17qRegisterMetaTypeI24QDeclarativeListPropertyI26QDeclarativeOrganizerModelEEiPKcPT_ 0x00021d44   Section       64  plugin.o(t._Z17qRegisterMetaTypeI24QDeclarativeListPropertyI26QDeclarativeOrganizerModelEEiPKcPT_)
    t._Z17qRegisterMetaTypeI24QDeclarativeListPropertyI28QDeclarativeOrganizerJournalEEiPKcPT_ 0x00021d84   Section      168  plugin.o(t._Z17qRegisterMetaTypeI24QDeclarativeListPropertyI28QDeclarativeOrganizerJournalEEiPKcPT_)
    t._Z17qRegisterMetaTypeI24QDeclarativeListPropertyI29QDeclarativeOrganizerItemGuidEEiPKcPT_ 0x00021e2c   Section      168  plugin.o(t._Z17qRegisterMetaTypeI24QDeclarativeListPropertyI29QDeclarativeOrganizerItemGuidEEiPKcPT_)
    t._Z17qRegisterMetaTypeI24QDeclarativeListPropertyI29QDeclarativeOrganizerItemTypeEEiPKcPT_ 0x00021ed4   Section      168  plugin.o(t._Z17qRegisterMetaTypeI24QDeclarativeListPropertyI29QDeclarativeOrganizerItemTypeEEiPKcPT_)
    t._Z17qRegisterMetaTypeI24QDeclarativeListPropertyI29QDeclarativeOrganizerTodoTimeEEiPKcPT_ 0x00021f7c   Section      168  plugin.o(t._Z17qRegisterMetaTypeI24QDeclarativeListPropertyI29QDeclarativeOrganizerTodoTimeEEiPKcPT_)
    t._Z17qRegisterMetaTypeI24QDeclarativeListPropertyI30QDeclarativeOrganizerEventTimeEEiPKcPT_ 0x00022024   Section      172  plugin.o(t._Z17qRegisterMetaTypeI24QDeclarativeListPropertyI30QDeclarativeOrganizerEventTimeEEiPKcPT_)
    t._Z17qRegisterMetaTypeI24QDeclarativeListPropertyI31QDeclarativeOrganizerCollectionEEiPKcPT_ 0x000220d0   Section      172  plugin.o(t._Z17qRegisterMetaTypeI24QDeclarativeListPropertyI31QDeclarativeOrganizerCollectionEEiPKcPT_)
    t._Z17qRegisterMetaTypeI24QDeclarativeListPropertyI31QDeclarativeOrganizerItemDetailEEiPKcPT_ 0x0002217c   Section       64  qdeclarativeorganizeritem.o(t._Z17qRegisterMetaTypeI24QDeclarativeListPropertyI31QDeclarativeOrganizerItemDetailEEiPKcPT_)
    t._Z17qRegisterMetaTypeI24QDeclarativeListPropertyI31QDeclarativeOrganizerItemFilterEEiPKcPT_ 0x000221bc   Section      172  plugin.o(t._Z17qRegisterMetaTypeI24QDeclarativeListPropertyI31QDeclarativeOrganizerItemFilterEEiPKcPT_)
    t._Z17qRegisterMetaTypeI24QDeclarativeListPropertyI31QDeclarativeOrganizerItemParentEEiPKcPT_ 0x00022268   Section      172  plugin.o(t._Z17qRegisterMetaTypeI24QDeclarativeListPropertyI31QDeclarativeOrganizerItemParentEEiPKcPT_)
    t._Z17qRegisterMetaTypeI24QDeclarativeListPropertyI32QDeclarativeOrganizerJournalTimeEEiPKcPT_ 0x00022314   Section      172  plugin.o(t._Z17qRegisterMetaTypeI24QDeclarativeListPropertyI32QDeclarativeOrganizerJournalTimeEEiPKcPT_)
    t._Z17qRegisterMetaTypeI24QDeclarativeListPropertyI33QDeclarativeOrganizerItemIdFilterEEiPKcPT_ 0x000223c0   Section      172  plugin.o(t._Z17qRegisterMetaTypeI24QDeclarativeListPropertyI33QDeclarativeOrganizerItemIdFilterEEiPKcPT_)
    t._Z17qRegisterMetaTypeI24QDeclarativeListPropertyI33QDeclarativeOrganizerItemLocationEEiPKcPT_ 0x0002246c   Section      172  plugin.o(t._Z17qRegisterMetaTypeI24QDeclarativeListPropertyI33QDeclarativeOrganizerItemLocationEEiPKcPT_)
    t._Z17qRegisterMetaTypeI24QDeclarativeListPropertyI33QDeclarativeOrganizerItemPriorityEEiPKcPT_ 0x00022518   Section      172  plugin.o(t._Z17qRegisterMetaTypeI24QDeclarativeListPropertyI33QDeclarativeOrganizerItemPriorityEEiPKcPT_)
    t._Z17qRegisterMetaTypeI24QDeclarativeListPropertyI33QDeclarativeOrganizerItemReminderEEiPKcPT_ 0x000225c4   Section      172  plugin.o(t._Z17qRegisterMetaTypeI24QDeclarativeListPropertyI33QDeclarativeOrganizerItemReminderEEiPKcPT_)
    t._Z17qRegisterMetaTypeI24QDeclarativeListPropertyI33QDeclarativeOrganizerTodoProgressEEiPKcPT_ 0x00022670   Section      172  plugin.o(t._Z17qRegisterMetaTypeI24QDeclarativeListPropertyI33QDeclarativeOrganizerTodoProgressEEiPKcPT_)
    t._Z17qRegisterMetaTypeI24QDeclarativeListPropertyI34QDeclarativeOrganizerItemFetchHintEEiPKcPT_ 0x0002271c   Section      176  plugin.o(t._Z17qRegisterMetaTypeI24QDeclarativeListPropertyI34QDeclarativeOrganizerItemFetchHintEEiPKcPT_)
    t._Z17qRegisterMetaTypeI24QDeclarativeListPropertyI34QDeclarativeOrganizerItemSortOrderEEiPKcPT_ 0x000227cc   Section      176  plugin.o(t._Z17qRegisterMetaTypeI24QDeclarativeListPropertyI34QDeclarativeOrganizerItemSortOrderEEiPKcPT_)
    t._Z17qRegisterMetaTypeI24QDeclarativeListPropertyI34QDeclarativeOrganizerItemTimestampEEiPKcPT_ 0x0002287c   Section      176  plugin.o(t._Z17qRegisterMetaTypeI24QDeclarativeListPropertyI34QDeclarativeOrganizerItemTimestampEEiPKcPT_)
    t._Z17qRegisterMetaTypeI24QDeclarativeListPropertyI35QDeclarativeOrganizerItemRecurrenceEEiPKcPT_ 0x0002292c   Section      176  plugin.o(t._Z17qRegisterMetaTypeI24QDeclarativeListPropertyI35QDeclarativeOrganizerItemRecurrenceEEiPKcPT_)
    t._Z17qRegisterMetaTypeI24QDeclarativeListPropertyI35QDeclarativeOrganizerRecurrenceRuleEEiPKcPT_ 0x000229dc   Section      176  plugin.o(t._Z17qRegisterMetaTypeI24QDeclarativeListPropertyI35QDeclarativeOrganizerRecurrenceRuleEEiPKcPT_)
    t._Z17qRegisterMetaTypeI24QDeclarativeListPropertyI35QDeclarativeOrganizerTodoOccurrenceEEiPKcPT_ 0x00022a8c   Section      176  plugin.o(t._Z17qRegisterMetaTypeI24QDeclarativeListPropertyI35QDeclarativeOrganizerTodoOccurrenceEEiPKcPT_)
    t._Z17qRegisterMetaTypeI24QDeclarativeListPropertyI36QDeclarativeOrganizerEventOccurrenceEEiPKcPT_ 0x00022b3c   Section      176  plugin.o(t._Z17qRegisterMetaTypeI24QDeclarativeListPropertyI36QDeclarativeOrganizerEventOccurrenceEEiPKcPT_)
    t._Z17qRegisterMetaTypeI24QDeclarativeListPropertyI36QDeclarativeOrganizerItemDescriptionEEiPKcPT_ 0x00022bec   Section      176  plugin.o(t._Z17qRegisterMetaTypeI24QDeclarativeListPropertyI36QDeclarativeOrganizerItemDescriptionEEiPKcPT_)
    t._Z17qRegisterMetaTypeI24QDeclarativeListPropertyI36QDeclarativeOrganizerItemUnionFilterEEiPKcPT_ 0x00022c9c   Section      176  plugin.o(t._Z17qRegisterMetaTypeI24QDeclarativeListPropertyI36QDeclarativeOrganizerItemUnionFilterEEiPKcPT_)
    t._Z17qRegisterMetaTypeI24QDeclarativeListPropertyI37QDeclarativeOrganizerItemDetailFilterEEiPKcPT_ 0x00022d4c   Section      176  plugin.o(t._Z17qRegisterMetaTypeI24QDeclarativeListPropertyI37QDeclarativeOrganizerItemDetailFilterEEiPKcPT_)
    t._Z17qRegisterMetaTypeI24QDeclarativeListPropertyI37QDeclarativeOrganizerItemDisplayLabelEEiPKcPT_ 0x00022dfc   Section      176  plugin.o(t._Z17qRegisterMetaTypeI24QDeclarativeListPropertyI37QDeclarativeOrganizerItemDisplayLabelEEiPKcPT_)
    t._Z17qRegisterMetaTypeI24QDeclarativeListPropertyI38QDeclarativeOrganizerItemEmailReminderEEiPKcPT_ 0x00022eac   Section      116  plugin.o(t._Z17qRegisterMetaTypeI24QDeclarativeListPropertyI38QDeclarativeOrganizerItemEmailReminderEEiPKcPT_)
    t._Z17qRegisterMetaTypeI24QDeclarativeListPropertyI38QDeclarativeOrganizerItemInvalidFilterEEiPKcPT_ 0x00022f20   Section      116  plugin.o(t._Z17qRegisterMetaTypeI24QDeclarativeListPropertyI38QDeclarativeOrganizerItemInvalidFilterEEiPKcPT_)
    t._Z17qRegisterMetaTypeI24QDeclarativeListPropertyI39QDeclarativeOrganizerItemVisualReminderEEiPKcPT_ 0x00022f94   Section      116  plugin.o(t._Z17qRegisterMetaTypeI24QDeclarativeListPropertyI39QDeclarativeOrganizerItemVisualReminderEEiPKcPT_)
    t._Z17qRegisterMetaTypeI24QDeclarativeListPropertyI40QDeclarativeOrganizerItemAudibleReminderEEiPKcPT_ 0x00023008   Section      116  plugin.o(t._Z17qRegisterMetaTypeI24QDeclarativeListPropertyI40QDeclarativeOrganizerItemAudibleReminderEEiPKcPT_)
    t._Z17qRegisterMetaTypeI24QDeclarativeListPropertyI40QDeclarativeOrganizerItemChangeLogFilterEEiPKcPT_ 0x0002307c   Section      116  plugin.o(t._Z17qRegisterMetaTypeI24QDeclarativeListPropertyI40QDeclarativeOrganizerItemChangeLogFilterEEiPKcPT_)
    t._Z17qRegisterMetaTypeI24QDeclarativeListPropertyI41QDeclarativeOrganizerItemCollectionFilterEEiPKcPT_ 0x000230f0   Section      116  plugin.o(t._Z17qRegisterMetaTypeI24QDeclarativeListPropertyI41QDeclarativeOrganizerItemCollectionFilterEEiPKcPT_)
    t._Z17qRegisterMetaTypeI24QDeclarativeListPropertyI42QDeclarativeOrganizerItemDetailRangeFilterEEiPKcPT_ 0x00023164   Section      116  plugin.o(t._Z17qRegisterMetaTypeI24QDeclarativeListPropertyI42QDeclarativeOrganizerItemDetailRangeFilterEEiPKcPT_)
    t._Z17qRegisterMetaTypeI24QDeclarativeListPropertyI43QDeclarativeOrganizerItemIntersectionFilterEEiPKcPT_ 0x000231d8   Section      116  plugin.o(t._Z17qRegisterMetaTypeI24QDeclarativeListPropertyI43QDeclarativeOrganizerItemIntersectionFilterEEiPKcPT_)
    t._Z17qRegisterMetaTypeI4QSetIN10QtMobility24QOrganizerRecurrenceRuleEEEiPKcPT_ 0x0002324c   Section       64  moc_qdeclarativeorganizeritemdetail_p.o(t._Z17qRegisterMetaTypeI4QSetIN10QtMobility24QOrganizerRecurrenceRuleEEEiPKcPT_)
    t._Z17qRegisterMetaTypeIN10QtMobility16QOrganizerItemIdEEiPKcPT_ 0x0002328c   Section       64  moc_qdeclarativeorganizeritemdetail_p.o(t._Z17qRegisterMetaTypeIN10QtMobility16QOrganizerItemIdEEiPKcPT_)
    t._Z17qRegisterMetaTypeIP25QDeclarativeOrganizerItemEiPKcPT_ 0x000232cc   Section       64  qdeclarativeorganizermodel.o(t._Z17qRegisterMetaTypeIP25QDeclarativeOrganizerItemEiPKcPT_)
    t._Z17qRegisterMetaTypeIP25QDeclarativeOrganizerNoteEiPKcPT_ 0x0002330c   Section      140  plugin.o(t._Z17qRegisterMetaTypeIP25QDeclarativeOrganizerNoteEiPKcPT_)
    t._Z17qRegisterMetaTypeIP25QDeclarativeOrganizerTodoEiPKcPT_ 0x00023398   Section      140  plugin.o(t._Z17qRegisterMetaTypeIP25QDeclarativeOrganizerTodoEiPKcPT_)
    t._Z17qRegisterMetaTypeIP26QDeclarativeOrganizerEventEiPKcPT_ 0x00023424   Section      144  plugin.o(t._Z17qRegisterMetaTypeIP26QDeclarativeOrganizerEventEiPKcPT_)
    t._Z17qRegisterMetaTypeIP26QDeclarativeOrganizerModelEiPKcPT_ 0x000234b4   Section       64  plugin.o(t._Z17qRegisterMetaTypeIP26QDeclarativeOrganizerModelEiPKcPT_)
    t._Z17qRegisterMetaTypeIP28QDeclarativeOrganizerJournalEiPKcPT_ 0x000234f4   Section      144  plugin.o(t._Z17qRegisterMetaTypeIP28QDeclarativeOrganizerJournalEiPKcPT_)
    t._Z17qRegisterMetaTypeIP29QDeclarativeOrganizerItemGuidEiPKcPT_ 0x00023584   Section      144  plugin.o(t._Z17qRegisterMetaTypeIP29QDeclarativeOrganizerItemGuidEiPKcPT_)
    t._Z17qRegisterMetaTypeIP29QDeclarativeOrganizerItemTypeEiPKcPT_ 0x00023614   Section      144  plugin.o(t._Z17qRegisterMetaTypeIP29QDeclarativeOrganizerItemTypeEiPKcPT_)
    t._Z17qRegisterMetaTypeIP29QDeclarativeOrganizerTodoTimeEiPKcPT_ 0x000236a4   Section      144  plugin.o(t._Z17qRegisterMetaTypeIP29QDeclarativeOrganizerTodoTimeEiPKcPT_)
    t._Z17qRegisterMetaTypeIP30QDeclarativeOrganizerEventTimeEiPKcPT_ 0x00023734   Section      148  plugin.o(t._Z17qRegisterMetaTypeIP30QDeclarativeOrganizerEventTimeEiPKcPT_)
    t._Z17qRegisterMetaTypeIP31QDeclarativeOrganizerCollectionEiPKcPT_ 0x000237c8   Section      148  plugin.o(t._Z17qRegisterMetaTypeIP31QDeclarativeOrganizerCollectionEiPKcPT_)
    t._Z17qRegisterMetaTypeIP31QDeclarativeOrganizerItemDetailEiPKcPT_ 0x0002385c   Section       64  qdeclarativeorganizeritem.o(t._Z17qRegisterMetaTypeIP31QDeclarativeOrganizerItemDetailEiPKcPT_)
    t._Z17qRegisterMetaTypeIP31QDeclarativeOrganizerItemFilterEiPKcPT_ 0x0002389c   Section      148  plugin.o(t._Z17qRegisterMetaTypeIP31QDeclarativeOrganizerItemFilterEiPKcPT_)
    t._Z17qRegisterMetaTypeIP31QDeclarativeOrganizerItemParentEiPKcPT_ 0x00023930   Section      148  plugin.o(t._Z17qRegisterMetaTypeIP31QDeclarativeOrganizerItemParentEiPKcPT_)
    t._Z17qRegisterMetaTypeIP32QDeclarativeOrganizerJournalTimeEiPKcPT_ 0x000239c4   Section      148  plugin.o(t._Z17qRegisterMetaTypeIP32QDeclarativeOrganizerJournalTimeEiPKcPT_)
    t._Z17qRegisterMetaTypeIP33QDeclarativeOrganizerItemIdFilterEiPKcPT_ 0x00023a58   Section      148  plugin.o(t._Z17qRegisterMetaTypeIP33QDeclarativeOrganizerItemIdFilterEiPKcPT_)
    t._Z17qRegisterMetaTypeIP33QDeclarativeOrganizerItemLocationEiPKcPT_ 0x00023aec   Section      148  plugin.o(t._Z17qRegisterMetaTypeIP33QDeclarativeOrganizerItemLocationEiPKcPT_)
    t._Z17qRegisterMetaTypeIP33QDeclarativeOrganizerItemPriorityEiPKcPT_ 0x00023b80   Section      148  plugin.o(t._Z17qRegisterMetaTypeIP33QDeclarativeOrganizerItemPriorityEiPKcPT_)
    t._Z17qRegisterMetaTypeIP33QDeclarativeOrganizerItemReminderEiPKcPT_ 0x00023c14   Section      148  plugin.o(t._Z17qRegisterMetaTypeIP33QDeclarativeOrganizerItemReminderEiPKcPT_)
    t._Z17qRegisterMetaTypeIP33QDeclarativeOrganizerTodoProgressEiPKcPT_ 0x00023ca8   Section      148  plugin.o(t._Z17qRegisterMetaTypeIP33QDeclarativeOrganizerTodoProgressEiPKcPT_)
    t._Z17qRegisterMetaTypeIP34QDeclarativeOrganizerItemFetchHintEiPKcPT_ 0x00023d3c   Section      152  plugin.o(t._Z17qRegisterMetaTypeIP34QDeclarativeOrganizerItemFetchHintEiPKcPT_)
    t._Z17qRegisterMetaTypeIP34QDeclarativeOrganizerItemSortOrderEiPKcPT_ 0x00023dd4   Section      152  plugin.o(t._Z17qRegisterMetaTypeIP34QDeclarativeOrganizerItemSortOrderEiPKcPT_)
    t._Z17qRegisterMetaTypeIP34QDeclarativeOrganizerItemTimestampEiPKcPT_ 0x00023e6c   Section      152  plugin.o(t._Z17qRegisterMetaTypeIP34QDeclarativeOrganizerItemTimestampEiPKcPT_)
    t._Z17qRegisterMetaTypeIP35QDeclarativeOrganizerItemRecurrenceEiPKcPT_ 0x00023f04   Section      152  plugin.o(t._Z17qRegisterMetaTypeIP35QDeclarativeOrganizerItemRecurrenceEiPKcPT_)
    t._Z17qRegisterMetaTypeIP35QDeclarativeOrganizerRecurrenceRuleEiPKcPT_ 0x00023f9c   Section      152  plugin.o(t._Z17qRegisterMetaTypeIP35QDeclarativeOrganizerRecurrenceRuleEiPKcPT_)
    t._Z17qRegisterMetaTypeIP35QDeclarativeOrganizerTodoOccurrenceEiPKcPT_ 0x00024034   Section      152  plugin.o(t._Z17qRegisterMetaTypeIP35QDeclarativeOrganizerTodoOccurrenceEiPKcPT_)
    t._Z17qRegisterMetaTypeIP36QDeclarativeOrganizerEventOccurrenceEiPKcPT_ 0x000240cc   Section      152  plugin.o(t._Z17qRegisterMetaTypeIP36QDeclarativeOrganizerEventOccurrenceEiPKcPT_)
    t._Z17qRegisterMetaTypeIP36QDeclarativeOrganizerItemDescriptionEiPKcPT_ 0x00024164   Section      152  plugin.o(t._Z17qRegisterMetaTypeIP36QDeclarativeOrganizerItemDescriptionEiPKcPT_)
    t._Z17qRegisterMetaTypeIP36QDeclarativeOrganizerItemUnionFilterEiPKcPT_ 0x000241fc   Section      152  plugin.o(t._Z17qRegisterMetaTypeIP36QDeclarativeOrganizerItemUnionFilterEiPKcPT_)
    t._Z17qRegisterMetaTypeIP37QDeclarativeOrganizerItemDetailFilterEiPKcPT_ 0x00024294   Section      152  plugin.o(t._Z17qRegisterMetaTypeIP37QDeclarativeOrganizerItemDetailFilterEiPKcPT_)
    t._Z17qRegisterMetaTypeIP37QDeclarativeOrganizerItemDisplayLabelEiPKcPT_ 0x0002432c   Section      152  plugin.o(t._Z17qRegisterMetaTypeIP37QDeclarativeOrganizerItemDisplayLabelEiPKcPT_)
    t._Z17qRegisterMetaTypeIP38QDeclarativeOrganizerItemEmailReminderEiPKcPT_ 0x000243c4   Section      156  plugin.o(t._Z17qRegisterMetaTypeIP38QDeclarativeOrganizerItemEmailReminderEiPKcPT_)
    t._Z17qRegisterMetaTypeIP38QDeclarativeOrganizerItemInvalidFilterEiPKcPT_ 0x00024460   Section      156  plugin.o(t._Z17qRegisterMetaTypeIP38QDeclarativeOrganizerItemInvalidFilterEiPKcPT_)
    t._Z17qRegisterMetaTypeIP39QDeclarativeOrganizerItemVisualReminderEiPKcPT_ 0x000244fc   Section      156  plugin.o(t._Z17qRegisterMetaTypeIP39QDeclarativeOrganizerItemVisualReminderEiPKcPT_)
    t._Z17qRegisterMetaTypeIP40QDeclarativeOrganizerItemAudibleReminderEiPKcPT_ 0x00024598   Section      156  plugin.o(t._Z17qRegisterMetaTypeIP40QDeclarativeOrganizerItemAudibleReminderEiPKcPT_)
    t._Z17qRegisterMetaTypeIP40QDeclarativeOrganizerItemChangeLogFilterEiPKcPT_ 0x00024634   Section      156  plugin.o(t._Z17qRegisterMetaTypeIP40QDeclarativeOrganizerItemChangeLogFilterEiPKcPT_)
    t._Z17qRegisterMetaTypeIP41QDeclarativeOrganizerItemCollectionFilterEiPKcPT_ 0x000246d0   Section      156  plugin.o(t._Z17qRegisterMetaTypeIP41QDeclarativeOrganizerItemCollectionFilterEiPKcPT_)
    t._Z17qRegisterMetaTypeIP42QDeclarativeOrganizerItemDetailRangeFilterEiPKcPT_ 0x0002476c   Section      160  plugin.o(t._Z17qRegisterMetaTypeIP42QDeclarativeOrganizerItemDetailRangeFilterEiPKcPT_)
    t._Z17qRegisterMetaTypeIP43QDeclarativeOrganizerItemIntersectionFilterEiPKcPT_ 0x0002480c   Section      160  plugin.o(t._Z17qRegisterMetaTypeIP43QDeclarativeOrganizerItemIntersectionFilterEiPKcPT_)
    t._Z20qForeachContainerNewI11QStringListE17QForeachContainerIT_ERKS2_ 0x000248ac   Section      102  moc_qdeclarativeorganizeritemfilter_p.o(t._Z20qForeachContainerNewI11QStringListE17QForeachContainerIT_ERKS2_)
    t._Z20qForeachContainerNewI11QStringListE17QForeachContainerIT_ERKS2_.clean 0x00024912   Section       10  moc_qdeclarativeorganizeritemfilter_p.o(t._Z20qForeachContainerNewI11QStringListE17QForeachContainerIT_ERKS2_.clean)
    t._Z20qForeachContainerNewI4QSetIiEE17QForeachContainerIT_ERKS3_ 0x0002491c   Section      152  moc_qdeclarativeorganizerrecurrencerule_p.o(t._Z20qForeachContainerNewI4QSetIiEE17QForeachContainerIT_ERKS3_)
    t._Z20qForeachContainerNewI4QSetIiEE17QForeachContainerIT_ERKS3_.clean 0x000249b4   Section       10  moc_qdeclarativeorganizerrecurrencerule_p.o(t._Z20qForeachContainerNewI4QSetIiEE17QForeachContainerIT_ERKS3_.clean)
    t._Z20qForeachContainerNewI5QListI7QStringEE17QForeachContainerIT_ERKS4_ 0x000249be   Section      126  qdeclarativeorganizermodel.o(t._Z20qForeachContainerNewI5QListI7QStringEE17QForeachContainerIT_ERKS4_)
    t._Z20qForeachContainerNewI5QListI7QStringEE17QForeachContainerIT_ERKS4_.clean 0x00024a3c   Section       10  qdeclarativeorganizermodel.o(t._Z20qForeachContainerNewI5QListI7QStringEE17QForeachContainerIT_ERKS4_.clean)
    t._Z20qForeachContainerNewI5QListI8QVariantEE17QForeachContainerIT_ERKS4_ 0x00024a46   Section      102  moc_qdeclarativeorganizeritemfilter_p.o(t._Z20qForeachContainerNewI5QListI8QVariantEE17QForeachContainerIT_ERKS4_)
    t._Z20qForeachContainerNewI5QListI8QVariantEE17QForeachContainerIT_ERKS4_.clean 0x00024aac   Section       10  moc_qdeclarativeorganizeritemfilter_p.o(t._Z20qForeachContainerNewI5QListI8QVariantEE17QForeachContainerIT_ERKS4_.clean)
    t._Z20qForeachContainerNewI5QListIN10QtMobility14QOrganizerItemEEE17QForeachContainerIT_ERKS5_ 0x00024ab6   Section      126  qdeclarativeorganizermodel.o(t._Z20qForeachContainerNewI5QListIN10QtMobility14QOrganizerItemEEE17QForeachContainerIT_ERKS5_)
    t._Z20qForeachContainerNewI5QListIN10QtMobility14QOrganizerItemEEE17QForeachContainerIT_ERKS5_.clean 0x00024b34   Section       10  qdeclarativeorganizermodel.o(t._Z20qForeachContainerNewI5QListIN10QtMobility14QOrganizerItemEEE17QForeachContainerIT_ERKS5_.clean)
    t._Z20qForeachContainerNewI5QListIN10QtMobility16QOrganizerItemIdEEE17QForeachContainerIT_ERKS5_ 0x00024b3e   Section      126  qdeclarativeorganizermodel.o(t._Z20qForeachContainerNewI5QListIN10QtMobility16QOrganizerItemIdEEE17QForeachContainerIT_ERKS5_)
    t._Z20qForeachContainerNewI5QListIN10QtMobility16QOrganizerItemIdEEE17QForeachContainerIT_ERKS5_.clean 0x00024bbc   Section       10  qdeclarativeorganizermodel.o(t._Z20qForeachContainerNewI5QListIN10QtMobility16QOrganizerItemIdEEE17QForeachContainerIT_ERKS5_.clean)
    t._Z20qForeachContainerNewI5QListIP25QDeclarativeOrganizerItemEE17QForeachContainerIT_ERKS5_ 0x00024bc6   Section      126  qdeclarativeorganizermodel.o(t._Z20qForeachContainerNewI5QListIP25QDeclarativeOrganizerItemEE17QForeachContainerIT_ERKS5_)
    t._Z20qForeachContainerNewI5QListIP25QDeclarativeOrganizerItemEE17QForeachContainerIT_ERKS5_.clean 0x00024c44   Section       10  qdeclarativeorganizermodel.o(t._Z20qForeachContainerNewI5QListIP25QDeclarativeOrganizerItemEE17QForeachContainerIT_ERKS5_.clean)
    t._Z20qForeachContainerNewI5QListIP31QDeclarativeOrganizerItemDetailEE17QForeachContainerIT_ERKS5_ 0x00024c4e   Section      126  qdeclarativeorganizeritemmetaobject.o(t._Z20qForeachContainerNewI5QListIP31QDeclarativeOrganizerItemDetailEE17QForeachContainerIT_ERKS5_)
    t._Z20qForeachContainerNewI5QListIP31QDeclarativeOrganizerItemDetailEE17QForeachContainerIT_ERKS5_.clean 0x00024ccc   Section       10  qdeclarativeorganizeritemmetaobject.o(t._Z20qForeachContainerNewI5QListIP31QDeclarativeOrganizerItemDetailEE17QForeachContainerIT_ERKS5_.clean)
    t._Z20qForeachContainerNewI5QListIP31QDeclarativeOrganizerItemFilterEE17QForeachContainerIT_ERKS5_ 0x00024cd6   Section      126  moc_qdeclarativeorganizeritemfilter_p.o(t._Z20qForeachContainerNewI5QListIP31QDeclarativeOrganizerItemFilterEE17QForeachContainerIT_ERKS5_)
    t._Z20qForeachContainerNewI5QListIP31QDeclarativeOrganizerItemFilterEE17QForeachContainerIT_ERKS5_.clean 0x00024d54   Section       10  moc_qdeclarativeorganizeritemfilter_p.o(t._Z20qForeachContainerNewI5QListIP31QDeclarativeOrganizerItemFilterEE17QForeachContainerIT_ERKS5_.clean)
    t._Z20qForeachContainerNewI5QListIP35QDeclarativeOrganizerRecurrenceRuleEE17QForeachContainerIT_ERKS5_ 0x00024d5e   Section      126  moc_qdeclarativeorganizeritemdetail_p.o(t._Z20qForeachContainerNewI5QListIP35QDeclarativeOrganizerRecurrenceRuleEE17QForeachContainerIT_ERKS5_)
    t._Z20qForeachContainerNewI5QListIP35QDeclarativeOrganizerRecurrenceRuleEE17QForeachContainerIT_ERKS5_.clean 0x00024ddc   Section       10  moc_qdeclarativeorganizeritemdetail_p.o(t._Z20qForeachContainerNewI5QListIP35QDeclarativeOrganizerRecurrenceRuleEE17QForeachContainerIT_ERKS5_.clean)
    t._Z21qMetaTypeDeleteHelperI24QDeclarativeListPropertyI25QDeclarativeOrganizerItemEEvPT_ 0x00024de6   Section       12  plugin.o(t._Z21qMetaTypeDeleteHelperI24QDeclarativeListPropertyI25QDeclarativeOrganizerItemEEvPT_)
    t._Z21qMetaTypeDeleteHelperI24QDeclarativeListPropertyI25QDeclarativeOrganizerNoteEEvPT_ 0x00024df2   Section       12  plugin.o(t._Z21qMetaTypeDeleteHelperI24QDeclarativeListPropertyI25QDeclarativeOrganizerNoteEEvPT_)
    t._Z21qMetaTypeDeleteHelperI24QDeclarativeListPropertyI25QDeclarativeOrganizerTodoEEvPT_ 0x00024dfe   Section       12  plugin.o(t._Z21qMetaTypeDeleteHelperI24QDeclarativeListPropertyI25QDeclarativeOrganizerTodoEEvPT_)
    t._Z21qMetaTypeDeleteHelperI24QDeclarativeListPropertyI26QDeclarativeOrganizerEventEEvPT_ 0x00024e0a   Section       12  plugin.o(t._Z21qMetaTypeDeleteHelperI24QDeclarativeListPropertyI26QDeclarativeOrganizerEventEEvPT_)
    t._Z21qMetaTypeDeleteHelperI24QDeclarativeListPropertyI26QDeclarativeOrganizerModelEEvPT_ 0x00024e16   Section       12  plugin.o(t._Z21qMetaTypeDeleteHelperI24QDeclarativeListPropertyI26QDeclarativeOrganizerModelEEvPT_)
    t._Z21qMetaTypeDeleteHelperI24QDeclarativeListPropertyI28QDeclarativeOrganizerJournalEEvPT_ 0x00024e22   Section       12  plugin.o(t._Z21qMetaTypeDeleteHelperI24QDeclarativeListPropertyI28QDeclarativeOrganizerJournalEEvPT_)
    t._Z21qMetaTypeDeleteHelperI24QDeclarativeListPropertyI29QDeclarativeOrganizerItemGuidEEvPT_ 0x00024e2e   Section       12  plugin.o(t._Z21qMetaTypeDeleteHelperI24QDeclarativeListPropertyI29QDeclarativeOrganizerItemGuidEEvPT_)
    t._Z21qMetaTypeDeleteHelperI24QDeclarativeListPropertyI29QDeclarativeOrganizerItemTypeEEvPT_ 0x00024e3a   Section       12  plugin.o(t._Z21qMetaTypeDeleteHelperI24QDeclarativeListPropertyI29QDeclarativeOrganizerItemTypeEEvPT_)
    t._Z21qMetaTypeDeleteHelperI24QDeclarativeListPropertyI29QDeclarativeOrganizerTodoTimeEEvPT_ 0x00024e46   Section       12  plugin.o(t._Z21qMetaTypeDeleteHelperI24QDeclarativeListPropertyI29QDeclarativeOrganizerTodoTimeEEvPT_)
    t._Z21qMetaTypeDeleteHelperI24QDeclarativeListPropertyI30QDeclarativeOrganizerEventTimeEEvPT_ 0x00024e52   Section       12  plugin.o(t._Z21qMetaTypeDeleteHelperI24QDeclarativeListPropertyI30QDeclarativeOrganizerEventTimeEEvPT_)
    t._Z21qMetaTypeDeleteHelperI24QDeclarativeListPropertyI31QDeclarativeOrganizerCollectionEEvPT_ 0x00024e5e   Section       12  plugin.o(t._Z21qMetaTypeDeleteHelperI24QDeclarativeListPropertyI31QDeclarativeOrganizerCollectionEEvPT_)
    t._Z21qMetaTypeDeleteHelperI24QDeclarativeListPropertyI31QDeclarativeOrganizerItemDetailEEvPT_ 0x00024e6a   Section       12  plugin.o(t._Z21qMetaTypeDeleteHelperI24QDeclarativeListPropertyI31QDeclarativeOrganizerItemDetailEEvPT_)
    t._Z21qMetaTypeDeleteHelperI24QDeclarativeListPropertyI31QDeclarativeOrganizerItemFilterEEvPT_ 0x00024e76   Section       12  plugin.o(t._Z21qMetaTypeDeleteHelperI24QDeclarativeListPropertyI31QDeclarativeOrganizerItemFilterEEvPT_)
    t._Z21qMetaTypeDeleteHelperI24QDeclarativeListPropertyI31QDeclarativeOrganizerItemParentEEvPT_ 0x00024e82   Section       12  plugin.o(t._Z21qMetaTypeDeleteHelperI24QDeclarativeListPropertyI31QDeclarativeOrganizerItemParentEEvPT_)
    t._Z21qMetaTypeDeleteHelperI24QDeclarativeListPropertyI32QDeclarativeOrganizerJournalTimeEEvPT_ 0x00024e8e   Section       12  plugin.o(t._Z21qMetaTypeDeleteHelperI24QDeclarativeListPropertyI32QDeclarativeOrganizerJournalTimeEEvPT_)
    t._Z21qMetaTypeDeleteHelperI24QDeclarativeListPropertyI33QDeclarativeOrganizerItemIdFilterEEvPT_ 0x00024e9a   Section       12  plugin.o(t._Z21qMetaTypeDeleteHelperI24QDeclarativeListPropertyI33QDeclarativeOrganizerItemIdFilterEEvPT_)
    t._Z21qMetaTypeDeleteHelperI24QDeclarativeListPropertyI33QDeclarativeOrganizerItemLocationEEvPT_ 0x00024ea6   Section       12  plugin.o(t._Z21qMetaTypeDeleteHelperI24QDeclarativeListPropertyI33QDeclarativeOrganizerItemLocationEEvPT_)
    t._Z21qMetaTypeDeleteHelperI24QDeclarativeListPropertyI33QDeclarativeOrganizerItemPriorityEEvPT_ 0x00024eb2   Section       12  plugin.o(t._Z21qMetaTypeDeleteHelperI24QDeclarativeListPropertyI33QDeclarativeOrganizerItemPriorityEEvPT_)
    t._Z21qMetaTypeDeleteHelperI24QDeclarativeListPropertyI33QDeclarativeOrganizerItemReminderEEvPT_ 0x00024ebe   Section       12  plugin.o(t._Z21qMetaTypeDeleteHelperI24QDeclarativeListPropertyI33QDeclarativeOrganizerItemReminderEEvPT_)
    t._Z21qMetaTypeDeleteHelperI24QDeclarativeListPropertyI33QDeclarativeOrganizerTodoProgressEEvPT_ 0x00024eca   Section       12  plugin.o(t._Z21qMetaTypeDeleteHelperI24QDeclarativeListPropertyI33QDeclarativeOrganizerTodoProgressEEvPT_)
    t._Z21qMetaTypeDeleteHelperI24QDeclarativeListPropertyI34QDeclarativeOrganizerItemFetchHintEEvPT_ 0x00024ed6   Section       12  plugin.o(t._Z21qMetaTypeDeleteHelperI24QDeclarativeListPropertyI34QDeclarativeOrganizerItemFetchHintEEvPT_)
    t._Z21qMetaTypeDeleteHelperI24QDeclarativeListPropertyI34QDeclarativeOrganizerItemSortOrderEEvPT_ 0x00024ee2   Section       12  plugin.o(t._Z21qMetaTypeDeleteHelperI24QDeclarativeListPropertyI34QDeclarativeOrganizerItemSortOrderEEvPT_)
    t._Z21qMetaTypeDeleteHelperI24QDeclarativeListPropertyI34QDeclarativeOrganizerItemTimestampEEvPT_ 0x00024eee   Section       12  plugin.o(t._Z21qMetaTypeDeleteHelperI24QDeclarativeListPropertyI34QDeclarativeOrganizerItemTimestampEEvPT_)
    t._Z21qMetaTypeDeleteHelperI24QDeclarativeListPropertyI35QDeclarativeOrganizerItemRecurrenceEEvPT_ 0x00024efa   Section       12  plugin.o(t._Z21qMetaTypeDeleteHelperI24QDeclarativeListPropertyI35QDeclarativeOrganizerItemRecurrenceEEvPT_)
    t._Z21qMetaTypeDeleteHelperI24QDeclarativeListPropertyI35QDeclarativeOrganizerRecurrenceRuleEEvPT_ 0x00024f06   Section       12  plugin.o(t._Z21qMetaTypeDeleteHelperI24QDeclarativeListPropertyI35QDeclarativeOrganizerRecurrenceRuleEEvPT_)
    t._Z21qMetaTypeDeleteHelperI24QDeclarativeListPropertyI35QDeclarativeOrganizerTodoOccurrenceEEvPT_ 0x00024f12   Section       12  plugin.o(t._Z21qMetaTypeDeleteHelperI24QDeclarativeListPropertyI35QDeclarativeOrganizerTodoOccurrenceEEvPT_)
    t._Z21qMetaTypeDeleteHelperI24QDeclarativeListPropertyI36QDeclarativeOrganizerEventOccurrenceEEvPT_ 0x00024f1e   Section       12  plugin.o(t._Z21qMetaTypeDeleteHelperI24QDeclarativeListPropertyI36QDeclarativeOrganizerEventOccurrenceEEvPT_)
    t._Z21qMetaTypeDeleteHelperI24QDeclarativeListPropertyI36QDeclarativeOrganizerItemDescriptionEEvPT_ 0x00024f2a   Section       12  plugin.o(t._Z21qMetaTypeDeleteHelperI24QDeclarativeListPropertyI36QDeclarativeOrganizerItemDescriptionEEvPT_)
    t._Z21qMetaTypeDeleteHelperI24QDeclarativeListPropertyI36QDeclarativeOrganizerItemUnionFilterEEvPT_ 0x00024f36   Section       12  plugin.o(t._Z21qMetaTypeDeleteHelperI24QDeclarativeListPropertyI36QDeclarativeOrganizerItemUnionFilterEEvPT_)
    t._Z21qMetaTypeDeleteHelperI24QDeclarativeListPropertyI37QDeclarativeOrganizerItemDetailFilterEEvPT_ 0x00024f42   Section       12  plugin.o(t._Z21qMetaTypeDeleteHelperI24QDeclarativeListPropertyI37QDeclarativeOrganizerItemDetailFilterEEvPT_)
    t._Z21qMetaTypeDeleteHelperI24QDeclarativeListPropertyI37QDeclarativeOrganizerItemDisplayLabelEEvPT_ 0x00024f4e   Section       12  plugin.o(t._Z21qMetaTypeDeleteHelperI24QDeclarativeListPropertyI37QDeclarativeOrganizerItemDisplayLabelEEvPT_)
    t._Z21qMetaTypeDeleteHelperI24QDeclarativeListPropertyI38QDeclarativeOrganizerItemEmailReminderEEvPT_ 0x00024f5a   Section       12  plugin.o(t._Z21qMetaTypeDeleteHelperI24QDeclarativeListPropertyI38QDeclarativeOrganizerItemEmailReminderEEvPT_)
    t._Z21qMetaTypeDeleteHelperI24QDeclarativeListPropertyI38QDeclarativeOrganizerItemInvalidFilterEEvPT_ 0x00024f66   Section       12  plugin.o(t._Z21qMetaTypeDeleteHelperI24QDeclarativeListPropertyI38QDeclarativeOrganizerItemInvalidFilterEEvPT_)
    t._Z21qMetaTypeDeleteHelperI24QDeclarativeListPropertyI39QDeclarativeOrganizerItemVisualReminderEEvPT_ 0x00024f72   Section       12  plugin.o(t._Z21qMetaTypeDeleteHelperI24QDeclarativeListPropertyI39QDeclarativeOrganizerItemVisualReminderEEvPT_)
    t._Z21qMetaTypeDeleteHelperI24QDeclarativeListPropertyI40QDeclarativeOrganizerItemAudibleReminderEEvPT_ 0x00024f7e   Section       12  plugin.o(t._Z21qMetaTypeDeleteHelperI24QDeclarativeListPropertyI40QDeclarativeOrganizerItemAudibleReminderEEvPT_)
    t._Z21qMetaTypeDeleteHelperI24QDeclarativeListPropertyI40QDeclarativeOrganizerItemChangeLogFilterEEvPT_ 0x00024f8a   Section       12  plugin.o(t._Z21qMetaTypeDeleteHelperI24QDeclarativeListPropertyI40QDeclarativeOrganizerItemChangeLogFilterEEvPT_)
    t._Z21qMetaTypeDeleteHelperI24QDeclarativeListPropertyI41QDeclarativeOrganizerItemCollectionFilterEEvPT_ 0x00024f96   Section       12  plugin.o(t._Z21qMetaTypeDeleteHelperI24QDeclarativeListPropertyI41QDeclarativeOrganizerItemCollectionFilterEEvPT_)
    t._Z21qMetaTypeDeleteHelperI24QDeclarativeListPropertyI42QDeclarativeOrganizerItemDetailRangeFilterEEvPT_ 0x00024fa2   Section       12  plugin.o(t._Z21qMetaTypeDeleteHelperI24QDeclarativeListPropertyI42QDeclarativeOrganizerItemDetailRangeFilterEEvPT_)
    t._Z21qMetaTypeDeleteHelperI24QDeclarativeListPropertyI43QDeclarativeOrganizerItemIntersectionFilterEEvPT_ 0x00024fae   Section       12  plugin.o(t._Z21qMetaTypeDeleteHelperI24QDeclarativeListPropertyI43QDeclarativeOrganizerItemIntersectionFilterEEvPT_)
    t._Z21qMetaTypeDeleteHelperI4QSetIN10QtMobility24QOrganizerRecurrenceRuleEEEvPT_ 0x00024fba   Section       22  moc_qdeclarativeorganizeritemdetail_p.o(t._Z21qMetaTypeDeleteHelperI4QSetIN10QtMobility24QOrganizerRecurrenceRuleEEEvPT_)
    t._Z21qMetaTypeDeleteHelperIN10QtMobility16QOrganizerItemIdEEvPT_ 0x00024fd0   Section       22  moc_qdeclarativeorganizeritemdetail_p.o(t._Z21qMetaTypeDeleteHelperIN10QtMobility16QOrganizerItemIdEEvPT_)
    t._Z21qMetaTypeDeleteHelperIP25QDeclarativeOrganizerItemEvPT_ 0x00024fe6   Section       12  plugin.o(t._Z21qMetaTypeDeleteHelperIP25QDeclarativeOrganizerItemEvPT_)
    t._Z21qMetaTypeDeleteHelperIP25QDeclarativeOrganizerNoteEvPT_ 0x00024ff2   Section       12  plugin.o(t._Z21qMetaTypeDeleteHelperIP25QDeclarativeOrganizerNoteEvPT_)
    t._Z21qMetaTypeDeleteHelperIP25QDeclarativeOrganizerTodoEvPT_ 0x00024ffe   Section       12  plugin.o(t._Z21qMetaTypeDeleteHelperIP25QDeclarativeOrganizerTodoEvPT_)
    t._Z21qMetaTypeDeleteHelperIP26QDeclarativeOrganizerEventEvPT_ 0x0002500a   Section       12  plugin.o(t._Z21qMetaTypeDeleteHelperIP26QDeclarativeOrganizerEventEvPT_)
    t._Z21qMetaTypeDeleteHelperIP26QDeclarativeOrganizerModelEvPT_ 0x00025016   Section       12  plugin.o(t._Z21qMetaTypeDeleteHelperIP26QDeclarativeOrganizerModelEvPT_)
    t._Z21qMetaTypeDeleteHelperIP28QDeclarativeOrganizerJournalEvPT_ 0x00025022   Section       12  plugin.o(t._Z21qMetaTypeDeleteHelperIP28QDeclarativeOrganizerJournalEvPT_)
    t._Z21qMetaTypeDeleteHelperIP29QDeclarativeOrganizerItemGuidEvPT_ 0x0002502e   Section       12  plugin.o(t._Z21qMetaTypeDeleteHelperIP29QDeclarativeOrganizerItemGuidEvPT_)
    t._Z21qMetaTypeDeleteHelperIP29QDeclarativeOrganizerItemTypeEvPT_ 0x0002503a   Section       12  plugin.o(t._Z21qMetaTypeDeleteHelperIP29QDeclarativeOrganizerItemTypeEvPT_)
    t._Z21qMetaTypeDeleteHelperIP29QDeclarativeOrganizerTodoTimeEvPT_ 0x00025046   Section       12  plugin.o(t._Z21qMetaTypeDeleteHelperIP29QDeclarativeOrganizerTodoTimeEvPT_)
    t._Z21qMetaTypeDeleteHelperIP30QDeclarativeOrganizerEventTimeEvPT_ 0x00025052   Section       12  plugin.o(t._Z21qMetaTypeDeleteHelperIP30QDeclarativeOrganizerEventTimeEvPT_)
    t._Z21qMetaTypeDeleteHelperIP31QDeclarativeOrganizerCollectionEvPT_ 0x0002505e   Section       12  plugin.o(t._Z21qMetaTypeDeleteHelperIP31QDeclarativeOrganizerCollectionEvPT_)
    t._Z21qMetaTypeDeleteHelperIP31QDeclarativeOrganizerItemDetailEvPT_ 0x0002506a   Section       12  plugin.o(t._Z21qMetaTypeDeleteHelperIP31QDeclarativeOrganizerItemDetailEvPT_)
    t._Z21qMetaTypeDeleteHelperIP31QDeclarativeOrganizerItemFilterEvPT_ 0x00025076   Section       12  plugin.o(t._Z21qMetaTypeDeleteHelperIP31QDeclarativeOrganizerItemFilterEvPT_)
    t._Z21qMetaTypeDeleteHelperIP31QDeclarativeOrganizerItemParentEvPT_ 0x00025082   Section       12  plugin.o(t._Z21qMetaTypeDeleteHelperIP31QDeclarativeOrganizerItemParentEvPT_)
    t._Z21qMetaTypeDeleteHelperIP32QDeclarativeOrganizerJournalTimeEvPT_ 0x0002508e   Section       12  plugin.o(t._Z21qMetaTypeDeleteHelperIP32QDeclarativeOrganizerJournalTimeEvPT_)
    t._Z21qMetaTypeDeleteHelperIP33QDeclarativeOrganizerItemIdFilterEvPT_ 0x0002509a   Section       12  plugin.o(t._Z21qMetaTypeDeleteHelperIP33QDeclarativeOrganizerItemIdFilterEvPT_)
    t._Z21qMetaTypeDeleteHelperIP33QDeclarativeOrganizerItemLocationEvPT_ 0x000250a6   Section       12  plugin.o(t._Z21qMetaTypeDeleteHelperIP33QDeclarativeOrganizerItemLocationEvPT_)
    t._Z21qMetaTypeDeleteHelperIP33QDeclarativeOrganizerItemPriorityEvPT_ 0x000250b2   Section       12  plugin.o(t._Z21qMetaTypeDeleteHelperIP33QDeclarativeOrganizerItemPriorityEvPT_)
    t._Z21qMetaTypeDeleteHelperIP33QDeclarativeOrganizerItemReminderEvPT_ 0x000250be   Section       12  plugin.o(t._Z21qMetaTypeDeleteHelperIP33QDeclarativeOrganizerItemReminderEvPT_)
    t._Z21qMetaTypeDeleteHelperIP33QDeclarativeOrganizerTodoProgressEvPT_ 0x000250ca   Section       12  plugin.o(t._Z21qMetaTypeDeleteHelperIP33QDeclarativeOrganizerTodoProgressEvPT_)
    t._Z21qMetaTypeDeleteHelperIP34QDeclarativeOrganizerItemFetchHintEvPT_ 0x000250d6   Section       12  plugin.o(t._Z21qMetaTypeDeleteHelperIP34QDeclarativeOrganizerItemFetchHintEvPT_)
    t._Z21qMetaTypeDeleteHelperIP34QDeclarativeOrganizerItemSortOrderEvPT_ 0x000250e2   Section       12  plugin.o(t._Z21qMetaTypeDeleteHelperIP34QDeclarativeOrganizerItemSortOrderEvPT_)
    t._Z21qMetaTypeDeleteHelperIP34QDeclarativeOrganizerItemTimestampEvPT_ 0x000250ee   Section       12  plugin.o(t._Z21qMetaTypeDeleteHelperIP34QDeclarativeOrganizerItemTimestampEvPT_)
    t._Z21qMetaTypeDeleteHelperIP35QDeclarativeOrganizerItemRecurrenceEvPT_ 0x000250fa   Section       12  plugin.o(t._Z21qMetaTypeDeleteHelperIP35QDeclarativeOrganizerItemRecurrenceEvPT_)
    t._Z21qMetaTypeDeleteHelperIP35QDeclarativeOrganizerRecurrenceRuleEvPT_ 0x00025106   Section       12  plugin.o(t._Z21qMetaTypeDeleteHelperIP35QDeclarativeOrganizerRecurrenceRuleEvPT_)
    t._Z21qMetaTypeDeleteHelperIP35QDeclarativeOrganizerTodoOccurrenceEvPT_ 0x00025112   Section       12  plugin.o(t._Z21qMetaTypeDeleteHelperIP35QDeclarativeOrganizerTodoOccurrenceEvPT_)
    t._Z21qMetaTypeDeleteHelperIP36QDeclarativeOrganizerEventOccurrenceEvPT_ 0x0002511e   Section       12  plugin.o(t._Z21qMetaTypeDeleteHelperIP36QDeclarativeOrganizerEventOccurrenceEvPT_)
    t._Z21qMetaTypeDeleteHelperIP36QDeclarativeOrganizerItemDescriptionEvPT_ 0x0002512a   Section       12  plugin.o(t._Z21qMetaTypeDeleteHelperIP36QDeclarativeOrganizerItemDescriptionEvPT_)
    t._Z21qMetaTypeDeleteHelperIP36QDeclarativeOrganizerItemUnionFilterEvPT_ 0x00025136   Section       12  plugin.o(t._Z21qMetaTypeDeleteHelperIP36QDeclarativeOrganizerItemUnionFilterEvPT_)
    t._Z21qMetaTypeDeleteHelperIP37QDeclarativeOrganizerItemDetailFilterEvPT_ 0x00025142   Section       12  plugin.o(t._Z21qMetaTypeDeleteHelperIP37QDeclarativeOrganizerItemDetailFilterEvPT_)
    t._Z21qMetaTypeDeleteHelperIP37QDeclarativeOrganizerItemDisplayLabelEvPT_ 0x0002514e   Section       12  plugin.o(t._Z21qMetaTypeDeleteHelperIP37QDeclarativeOrganizerItemDisplayLabelEvPT_)
    t._Z21qMetaTypeDeleteHelperIP38QDeclarativeOrganizerItemEmailReminderEvPT_ 0x0002515a   Section       12  plugin.o(t._Z21qMetaTypeDeleteHelperIP38QDeclarativeOrganizerItemEmailReminderEvPT_)
    t._Z21qMetaTypeDeleteHelperIP38QDeclarativeOrganizerItemInvalidFilterEvPT_ 0x00025166   Section       12  plugin.o(t._Z21qMetaTypeDeleteHelperIP38QDeclarativeOrganizerItemInvalidFilterEvPT_)
    t._Z21qMetaTypeDeleteHelperIP39QDeclarativeOrganizerItemVisualReminderEvPT_ 0x00025172   Section       12  plugin.o(t._Z21qMetaTypeDeleteHelperIP39QDeclarativeOrganizerItemVisualReminderEvPT_)
    t._Z21qMetaTypeDeleteHelperIP40QDeclarativeOrganizerItemAudibleReminderEvPT_ 0x0002517e   Section       12  plugin.o(t._Z21qMetaTypeDeleteHelperIP40QDeclarativeOrganizerItemAudibleReminderEvPT_)
    t._Z21qMetaTypeDeleteHelperIP40QDeclarativeOrganizerItemChangeLogFilterEvPT_ 0x0002518a   Section       12  plugin.o(t._Z21qMetaTypeDeleteHelperIP40QDeclarativeOrganizerItemChangeLogFilterEvPT_)
    t._Z21qMetaTypeDeleteHelperIP41QDeclarativeOrganizerItemCollectionFilterEvPT_ 0x00025196   Section       12  plugin.o(t._Z21qMetaTypeDeleteHelperIP41QDeclarativeOrganizerItemCollectionFilterEvPT_)
    t._Z21qMetaTypeDeleteHelperIP42QDeclarativeOrganizerItemDetailRangeFilterEvPT_ 0x000251a2   Section       12  plugin.o(t._Z21qMetaTypeDeleteHelperIP42QDeclarativeOrganizerItemDetailRangeFilterEvPT_)
    t._Z21qMetaTypeDeleteHelperIP43QDeclarativeOrganizerItemIntersectionFilterEvPT_ 0x000251ae   Section       12  plugin.o(t._Z21qMetaTypeDeleteHelperIP43QDeclarativeOrganizerItemIntersectionFilterEvPT_)
    t._Z24qMetaTypeConstructHelperI24QDeclarativeListPropertyI25QDeclarativeOrganizerItemEEPvPKT_ 0x000251ba   Section      150  plugin.o(t._Z24qMetaTypeConstructHelperI24QDeclarativeListPropertyI25QDeclarativeOrganizerItemEEPvPKT_)
    t._Z24qMetaTypeConstructHelperI24QDeclarativeListPropertyI25QDeclarativeOrganizerItemEEPvPKT_.clean 0x00025250   Section        4  plugin.o(t._Z24qMetaTypeConstructHelperI24QDeclarativeListPropertyI25QDeclarativeOrganizerItemEEPvPKT_.clean)
    t._Z24qMetaTypeConstructHelperI24QDeclarativeListPropertyI25QDeclarativeOrganizerNoteEEPvPKT_ 0x00025254   Section      150  plugin.o(t._Z24qMetaTypeConstructHelperI24QDeclarativeListPropertyI25QDeclarativeOrganizerNoteEEPvPKT_)
    t._Z24qMetaTypeConstructHelperI24QDeclarativeListPropertyI25QDeclarativeOrganizerNoteEEPvPKT_.clean 0x000252ea   Section        4  plugin.o(t._Z24qMetaTypeConstructHelperI24QDeclarativeListPropertyI25QDeclarativeOrganizerNoteEEPvPKT_.clean)
    t._Z24qMetaTypeConstructHelperI24QDeclarativeListPropertyI25QDeclarativeOrganizerTodoEEPvPKT_ 0x000252ee   Section      150  plugin.o(t._Z24qMetaTypeConstructHelperI24QDeclarativeListPropertyI25QDeclarativeOrganizerTodoEEPvPKT_)
    t._Z24qMetaTypeConstructHelperI24QDeclarativeListPropertyI25QDeclarativeOrganizerTodoEEPvPKT_.clean 0x00025384   Section        4  plugin.o(t._Z24qMetaTypeConstructHelperI24QDeclarativeListPropertyI25QDeclarativeOrganizerTodoEEPvPKT_.clean)
    t._Z24qMetaTypeConstructHelperI24QDeclarativeListPropertyI26QDeclarativeOrganizerEventEEPvPKT_ 0x00025388   Section      150  plugin.o(t._Z24qMetaTypeConstructHelperI24QDeclarativeListPropertyI26QDeclarativeOrganizerEventEEPvPKT_)
    t._Z24qMetaTypeConstructHelperI24QDeclarativeListPropertyI26QDeclarativeOrganizerEventEEPvPKT_.clean 0x0002541e   Section        4  plugin.o(t._Z24qMetaTypeConstructHelperI24QDeclarativeListPropertyI26QDeclarativeOrganizerEventEEPvPKT_.clean)
    t._Z24qMetaTypeConstructHelperI24QDeclarativeListPropertyI26QDeclarativeOrganizerModelEEPvPKT_ 0x00025422   Section      150  plugin.o(t._Z24qMetaTypeConstructHelperI24QDeclarativeListPropertyI26QDeclarativeOrganizerModelEEPvPKT_)
    t._Z24qMetaTypeConstructHelperI24QDeclarativeListPropertyI26QDeclarativeOrganizerModelEEPvPKT_.clean 0x000254b8   Section        4  plugin.o(t._Z24qMetaTypeConstructHelperI24QDeclarativeListPropertyI26QDeclarativeOrganizerModelEEPvPKT_.clean)
    t._Z24qMetaTypeConstructHelperI24QDeclarativeListPropertyI28QDeclarativeOrganizerJournalEEPvPKT_ 0x000254bc   Section      150  plugin.o(t._Z24qMetaTypeConstructHelperI24QDeclarativeListPropertyI28QDeclarativeOrganizerJournalEEPvPKT_)
    t._Z24qMetaTypeConstructHelperI24QDeclarativeListPropertyI28QDeclarativeOrganizerJournalEEPvPKT_.clean 0x00025552   Section        4  plugin.o(t._Z24qMetaTypeConstructHelperI24QDeclarativeListPropertyI28QDeclarativeOrganizerJournalEEPvPKT_.clean)
    t._Z24qMetaTypeConstructHelperI24QDeclarativeListPropertyI29QDeclarativeOrganizerItemGuidEEPvPKT_ 0x00025556   Section      150  plugin.o(t._Z24qMetaTypeConstructHelperI24QDeclarativeListPropertyI29QDeclarativeOrganizerItemGuidEEPvPKT_)
    t._Z24qMetaTypeConstructHelperI24QDeclarativeListPropertyI29QDeclarativeOrganizerItemGuidEEPvPKT_.clean 0x000255ec   Section        4  plugin.o(t._Z24qMetaTypeConstructHelperI24QDeclarativeListPropertyI29QDeclarativeOrganizerItemGuidEEPvPKT_.clean)
    t._Z24qMetaTypeConstructHelperI24QDeclarativeListPropertyI29QDeclarativeOrganizerItemTypeEEPvPKT_ 0x000255f0   Section      150  plugin.o(t._Z24qMetaTypeConstructHelperI24QDeclarativeListPropertyI29QDeclarativeOrganizerItemTypeEEPvPKT_)
    t._Z24qMetaTypeConstructHelperI24QDeclarativeListPropertyI29QDeclarativeOrganizerItemTypeEEPvPKT_.clean 0x00025686   Section        4  plugin.o(t._Z24qMetaTypeConstructHelperI24QDeclarativeListPropertyI29QDeclarativeOrganizerItemTypeEEPvPKT_.clean)
    t._Z24qMetaTypeConstructHelperI24QDeclarativeListPropertyI29QDeclarativeOrganizerTodoTimeEEPvPKT_ 0x0002568a   Section      150  plugin.o(t._Z24qMetaTypeConstructHelperI24QDeclarativeListPropertyI29QDeclarativeOrganizerTodoTimeEEPvPKT_)
    t._Z24qMetaTypeConstructHelperI24QDeclarativeListPropertyI29QDeclarativeOrganizerTodoTimeEEPvPKT_.clean 0x00025720   Section        4  plugin.o(t._Z24qMetaTypeConstructHelperI24QDeclarativeListPropertyI29QDeclarativeOrganizerTodoTimeEEPvPKT_.clean)
    t._Z24qMetaTypeConstructHelperI24QDeclarativeListPropertyI30QDeclarativeOrganizerEventTimeEEPvPKT_ 0x00025724   Section      150  plugin.o(t._Z24qMetaTypeConstructHelperI24QDeclarativeListPropertyI30QDeclarativeOrganizerEventTimeEEPvPKT_)
    t._Z24qMetaTypeConstructHelperI24QDeclarativeListPropertyI30QDeclarativeOrganizerEventTimeEEPvPKT_.clean 0x000257ba   Section        4  plugin.o(t._Z24qMetaTypeConstructHelperI24QDeclarativeListPropertyI30QDeclarativeOrganizerEventTimeEEPvPKT_.clean)
    t._Z24qMetaTypeConstructHelperI24QDeclarativeListPropertyI31QDeclarativeOrganizerCollectionEEPvPKT_ 0x000257be   Section      150  plugin.o(t._Z24qMetaTypeConstructHelperI24QDeclarativeListPropertyI31QDeclarativeOrganizerCollectionEEPvPKT_)
    t._Z24qMetaTypeConstructHelperI24QDeclarativeListPropertyI31QDeclarativeOrganizerCollectionEEPvPKT_.clean 0x00025854   Section        4  plugin.o(t._Z24qMetaTypeConstructHelperI24QDeclarativeListPropertyI31QDeclarativeOrganizerCollectionEEPvPKT_.clean)
    t._Z24qMetaTypeConstructHelperI24QDeclarativeListPropertyI31QDeclarativeOrganizerItemDetailEEPvPKT_ 0x00025858   Section      150  plugin.o(t._Z24qMetaTypeConstructHelperI24QDeclarativeListPropertyI31QDeclarativeOrganizerItemDetailEEPvPKT_)
    t._Z24qMetaTypeConstructHelperI24QDeclarativeListPropertyI31QDeclarativeOrganizerItemDetailEEPvPKT_.clean 0x000258ee   Section        4  plugin.o(t._Z24qMetaTypeConstructHelperI24QDeclarativeListPropertyI31QDeclarativeOrganizerItemDetailEEPvPKT_.clean)
    t._Z24qMetaTypeConstructHelperI24QDeclarativeListPropertyI31QDeclarativeOrganizerItemFilterEEPvPKT_ 0x000258f2   Section      150  plugin.o(t._Z24qMetaTypeConstructHelperI24QDeclarativeListPropertyI31QDeclarativeOrganizerItemFilterEEPvPKT_)
    t._Z24qMetaTypeConstructHelperI24QDeclarativeListPropertyI31QDeclarativeOrganizerItemFilterEEPvPKT_.clean 0x00025988   Section        4  plugin.o(t._Z24qMetaTypeConstructHelperI24QDeclarativeListPropertyI31QDeclarativeOrganizerItemFilterEEPvPKT_.clean)
    t._Z24qMetaTypeConstructHelperI24QDeclarativeListPropertyI31QDeclarativeOrganizerItemParentEEPvPKT_ 0x0002598c   Section      150  plugin.o(t._Z24qMetaTypeConstructHelperI24QDeclarativeListPropertyI31QDeclarativeOrganizerItemParentEEPvPKT_)
    t._Z24qMetaTypeConstructHelperI24QDeclarativeListPropertyI31QDeclarativeOrganizerItemParentEEPvPKT_.clean 0x00025a22   Section        4  plugin.o(t._Z24qMetaTypeConstructHelperI24QDeclarativeListPropertyI31QDeclarativeOrganizerItemParentEEPvPKT_.clean)
    t._Z24qMetaTypeConstructHelperI24QDeclarativeListPropertyI32QDeclarativeOrganizerJournalTimeEEPvPKT_ 0x00025a26   Section      150  plugin.o(t._Z24qMetaTypeConstructHelperI24QDeclarativeListPropertyI32QDeclarativeOrganizerJournalTimeEEPvPKT_)
    t._Z24qMetaTypeConstructHelperI24QDeclarativeListPropertyI32QDeclarativeOrganizerJournalTimeEEPvPKT_.clean 0x00025abc   Section        4  plugin.o(t._Z24qMetaTypeConstructHelperI24QDeclarativeListPropertyI32QDeclarativeOrganizerJournalTimeEEPvPKT_.clean)
    t._Z24qMetaTypeConstructHelperI24QDeclarativeListPropertyI33QDeclarativeOrganizerItemIdFilterEEPvPKT_ 0x00025ac0   Section      150  plugin.o(t._Z24qMetaTypeConstructHelperI24QDeclarativeListPropertyI33QDeclarativeOrganizerItemIdFilterEEPvPKT_)
    t._Z24qMetaTypeConstructHelperI24QDeclarativeListPropertyI33QDeclarativeOrganizerItemIdFilterEEPvPKT_.clean 0x00025b56   Section        4  plugin.o(t._Z24qMetaTypeConstructHelperI24QDeclarativeListPropertyI33QDeclarativeOrganizerItemIdFilterEEPvPKT_.clean)
    t._Z24qMetaTypeConstructHelperI24QDeclarativeListPropertyI33QDeclarativeOrganizerItemLocationEEPvPKT_ 0x00025b5a   Section      150  plugin.o(t._Z24qMetaTypeConstructHelperI24QDeclarativeListPropertyI33QDeclarativeOrganizerItemLocationEEPvPKT_)
    t._Z24qMetaTypeConstructHelperI24QDeclarativeListPropertyI33QDeclarativeOrganizerItemLocationEEPvPKT_.clean 0x00025bf0   Section        4  plugin.o(t._Z24qMetaTypeConstructHelperI24QDeclarativeListPropertyI33QDeclarativeOrganizerItemLocationEEPvPKT_.clean)
    t._Z24qMetaTypeConstructHelperI24QDeclarativeListPropertyI33QDeclarativeOrganizerItemPriorityEEPvPKT_ 0x00025bf4   Section      150  plugin.o(t._Z24qMetaTypeConstructHelperI24QDeclarativeListPropertyI33QDeclarativeOrganizerItemPriorityEEPvPKT_)
    t._Z24qMetaTypeConstructHelperI24QDeclarativeListPropertyI33QDeclarativeOrganizerItemPriorityEEPvPKT_.clean 0x00025c8a   Section        4  plugin.o(t._Z24qMetaTypeConstructHelperI24QDeclarativeListPropertyI33QDeclarativeOrganizerItemPriorityEEPvPKT_.clean)
    t._Z24qMetaTypeConstructHelperI24QDeclarativeListPropertyI33QDeclarativeOrganizerItemReminderEEPvPKT_ 0x00025c8e   Section      150  plugin.o(t._Z24qMetaTypeConstructHelperI24QDeclarativeListPropertyI33QDeclarativeOrganizerItemReminderEEPvPKT_)
    t._Z24qMetaTypeConstructHelperI24QDeclarativeListPropertyI33QDeclarativeOrganizerItemReminderEEPvPKT_.clean 0x00025d24   Section        4  plugin.o(t._Z24qMetaTypeConstructHelperI24QDeclarativeListPropertyI33QDeclarativeOrganizerItemReminderEEPvPKT_.clean)
    t._Z24qMetaTypeConstructHelperI24QDeclarativeListPropertyI33QDeclarativeOrganizerTodoProgressEEPvPKT_ 0x00025d28   Section      150  plugin.o(t._Z24qMetaTypeConstructHelperI24QDeclarativeListPropertyI33QDeclarativeOrganizerTodoProgressEEPvPKT_)
    t._Z24qMetaTypeConstructHelperI24QDeclarativeListPropertyI33QDeclarativeOrganizerTodoProgressEEPvPKT_.clean 0x00025dbe   Section        4  plugin.o(t._Z24qMetaTypeConstructHelperI24QDeclarativeListPropertyI33QDeclarativeOrganizerTodoProgressEEPvPKT_.clean)
    t._Z24qMetaTypeConstructHelperI24QDeclarativeListPropertyI34QDeclarativeOrganizerItemFetchHintEEPvPKT_ 0x00025dc2   Section      150  plugin.o(t._Z24qMetaTypeConstructHelperI24QDeclarativeListPropertyI34QDeclarativeOrganizerItemFetchHintEEPvPKT_)
    t._Z24qMetaTypeConstructHelperI24QDeclarativeListPropertyI34QDeclarativeOrganizerItemFetchHintEEPvPKT_.clean 0x00025e58   Section        4  plugin.o(t._Z24qMetaTypeConstructHelperI24QDeclarativeListPropertyI34QDeclarativeOrganizerItemFetchHintEEPvPKT_.clean)
    t._Z24qMetaTypeConstructHelperI24QDeclarativeListPropertyI34QDeclarativeOrganizerItemSortOrderEEPvPKT_ 0x00025e5c   Section      150  plugin.o(t._Z24qMetaTypeConstructHelperI24QDeclarativeListPropertyI34QDeclarativeOrganizerItemSortOrderEEPvPKT_)
    t._Z24qMetaTypeConstructHelperI24QDeclarativeListPropertyI34QDeclarativeOrganizerItemSortOrderEEPvPKT_.clean 0x00025ef2   Section        4  plugin.o(t._Z24qMetaTypeConstructHelperI24QDeclarativeListPropertyI34QDeclarativeOrganizerItemSortOrderEEPvPKT_.clean)
    t._Z24qMetaTypeConstructHelperI24QDeclarativeListPropertyI34QDeclarativeOrganizerItemTimestampEEPvPKT_ 0x00025ef6   Section      150  plugin.o(t._Z24qMetaTypeConstructHelperI24QDeclarativeListPropertyI34QDeclarativeOrganizerItemTimestampEEPvPKT_)
    t._Z24qMetaTypeConstructHelperI24QDeclarativeListPropertyI34QDeclarativeOrganizerItemTimestampEEPvPKT_.clean 0x00025f8c   Section        4  plugin.o(t._Z24qMetaTypeConstructHelperI24QDeclarativeListPropertyI34QDeclarativeOrganizerItemTimestampEEPvPKT_.clean)
    t._Z24qMetaTypeConstructHelperI24QDeclarativeListPropertyI35QDeclarativeOrganizerItemRecurrenceEEPvPKT_ 0x00025f90   Section      150  plugin.o(t._Z24qMetaTypeConstructHelperI24QDeclarativeListPropertyI35QDeclarativeOrganizerItemRecurrenceEEPvPKT_)
    t._Z24qMetaTypeConstructHelperI24QDeclarativeListPropertyI35QDeclarativeOrganizerItemRecurrenceEEPvPKT_.clean 0x00026026   Section        4  plugin.o(t._Z24qMetaTypeConstructHelperI24QDeclarativeListPropertyI35QDeclarativeOrganizerItemRecurrenceEEPvPKT_.clean)
    t._Z24qMetaTypeConstructHelperI24QDeclarativeListPropertyI35QDeclarativeOrganizerRecurrenceRuleEEPvPKT_ 0x0002602a   Section      150  plugin.o(t._Z24qMetaTypeConstructHelperI24QDeclarativeListPropertyI35QDeclarativeOrganizerRecurrenceRuleEEPvPKT_)
    t._Z24qMetaTypeConstructHelperI24QDeclarativeListPropertyI35QDeclarativeOrganizerRecurrenceRuleEEPvPKT_.clean 0x000260c0   Section        4  plugin.o(t._Z24qMetaTypeConstructHelperI24QDeclarativeListPropertyI35QDeclarativeOrganizerRecurrenceRuleEEPvPKT_.clean)
    t._Z24qMetaTypeConstructHelperI24QDeclarativeListPropertyI35QDeclarativeOrganizerTodoOccurrenceEEPvPKT_ 0x000260c4   Section      150  plugin.o(t._Z24qMetaTypeConstructHelperI24QDeclarativeListPropertyI35QDeclarativeOrganizerTodoOccurrenceEEPvPKT_)
    t._Z24qMetaTypeConstructHelperI24QDeclarativeListPropertyI35QDeclarativeOrganizerTodoOccurrenceEEPvPKT_.clean 0x0002615a   Section        4  plugin.o(t._Z24qMetaTypeConstructHelperI24QDeclarativeListPropertyI35QDeclarativeOrganizerTodoOccurrenceEEPvPKT_.clean)
    t._Z24qMetaTypeConstructHelperI24QDeclarativeListPropertyI36QDeclarativeOrganizerEventOccurrenceEEPvPKT_ 0x0002615e   Section      150  plugin.o(t._Z24qMetaTypeConstructHelperI24QDeclarativeListPropertyI36QDeclarativeOrganizerEventOccurrenceEEPvPKT_)
    t._Z24qMetaTypeConstructHelperI24QDeclarativeListPropertyI36QDeclarativeOrganizerEventOccurrenceEEPvPKT_.clean 0x000261f4   Section        4  plugin.o(t._Z24qMetaTypeConstructHelperI24QDeclarativeListPropertyI36QDeclarativeOrganizerEventOccurrenceEEPvPKT_.clean)
    t._Z24qMetaTypeConstructHelperI24QDeclarativeListPropertyI36QDeclarativeOrganizerItemDescriptionEEPvPKT_ 0x000261f8   Section      150  plugin.o(t._Z24qMetaTypeConstructHelperI24QDeclarativeListPropertyI36QDeclarativeOrganizerItemDescriptionEEPvPKT_)
    t._Z24qMetaTypeConstructHelperI24QDeclarativeListPropertyI36QDeclarativeOrganizerItemDescriptionEEPvPKT_.clean 0x0002628e   Section        4  plugin.o(t._Z24qMetaTypeConstructHelperI24QDeclarativeListPropertyI36QDeclarativeOrganizerItemDescriptionEEPvPKT_.clean)
    t._Z24qMetaTypeConstructHelperI24QDeclarativeListPropertyI36QDeclarativeOrganizerItemUnionFilterEEPvPKT_ 0x00026292   Section      150  plugin.o(t._Z24qMetaTypeConstructHelperI24QDeclarativeListPropertyI36QDeclarativeOrganizerItemUnionFilterEEPvPKT_)
    t._Z24qMetaTypeConstructHelperI24QDeclarativeListPropertyI36QDeclarativeOrganizerItemUnionFilterEEPvPKT_.clean 0x00026328   Section        4  plugin.o(t._Z24qMetaTypeConstructHelperI24QDeclarativeListPropertyI36QDeclarativeOrganizerItemUnionFilterEEPvPKT_.clean)
    t._Z24qMetaTypeConstructHelperI24QDeclarativeListPropertyI37QDeclarativeOrganizerItemDetailFilterEEPvPKT_ 0x0002632c   Section      150  plugin.o(t._Z24qMetaTypeConstructHelperI24QDeclarativeListPropertyI37QDeclarativeOrganizerItemDetailFilterEEPvPKT_)
    t._Z24qMetaTypeConstructHelperI24QDeclarativeListPropertyI37QDeclarativeOrganizerItemDetailFilterEEPvPKT_.clean 0x000263c2   Section        4  plugin.o(t._Z24qMetaTypeConstructHelperI24QDeclarativeListPropertyI37QDeclarativeOrganizerItemDetailFilterEEPvPKT_.clean)
    t._Z24qMetaTypeConstructHelperI24QDeclarativeListPropertyI37QDeclarativeOrganizerItemDisplayLabelEEPvPKT_ 0x000263c6   Section      150  plugin.o(t._Z24qMetaTypeConstructHelperI24QDeclarativeListPropertyI37QDeclarativeOrganizerItemDisplayLabelEEPvPKT_)
    t._Z24qMetaTypeConstructHelperI24QDeclarativeListPropertyI37QDeclarativeOrganizerItemDisplayLabelEEPvPKT_.clean 0x0002645c   Section        4  plugin.o(t._Z24qMetaTypeConstructHelperI24QDeclarativeListPropertyI37QDeclarativeOrganizerItemDisplayLabelEEPvPKT_.clean)
    t._Z24qMetaTypeConstructHelperI24QDeclarativeListPropertyI38QDeclarativeOrganizerItemEmailReminderEEPvPKT_ 0x00026460   Section      150  plugin.o(t._Z24qMetaTypeConstructHelperI24QDeclarativeListPropertyI38QDeclarativeOrganizerItemEmailReminderEEPvPKT_)
    t._Z24qMetaTypeConstructHelperI24QDeclarativeListPropertyI38QDeclarativeOrganizerItemEmailReminderEEPvPKT_.clean 0x000264f6   Section        4  plugin.o(t._Z24qMetaTypeConstructHelperI24QDeclarativeListPropertyI38QDeclarativeOrganizerItemEmailReminderEEPvPKT_.clean)
    t._Z24qMetaTypeConstructHelperI24QDeclarativeListPropertyI38QDeclarativeOrganizerItemInvalidFilterEEPvPKT_ 0x000264fa   Section      150  plugin.o(t._Z24qMetaTypeConstructHelperI24QDeclarativeListPropertyI38QDeclarativeOrganizerItemInvalidFilterEEPvPKT_)
    t._Z24qMetaTypeConstructHelperI24QDeclarativeListPropertyI38QDeclarativeOrganizerItemInvalidFilterEEPvPKT_.clean 0x00026590   Section        4  plugin.o(t._Z24qMetaTypeConstructHelperI24QDeclarativeListPropertyI38QDeclarativeOrganizerItemInvalidFilterEEPvPKT_.clean)
    t._Z24qMetaTypeConstructHelperI24QDeclarativeListPropertyI39QDeclarativeOrganizerItemVisualReminderEEPvPKT_ 0x00026594   Section      150  plugin.o(t._Z24qMetaTypeConstructHelperI24QDeclarativeListPropertyI39QDeclarativeOrganizerItemVisualReminderEEPvPKT_)
    t._Z24qMetaTypeConstructHelperI24QDeclarativeListPropertyI39QDeclarativeOrganizerItemVisualReminderEEPvPKT_.clean 0x0002662a   Section        4  plugin.o(t._Z24qMetaTypeConstructHelperI24QDeclarativeListPropertyI39QDeclarativeOrganizerItemVisualReminderEEPvPKT_.clean)
    t._Z24qMetaTypeConstructHelperI24QDeclarativeListPropertyI40QDeclarativeOrganizerItemAudibleReminderEEPvPKT_ 0x0002662e   Section      150  plugin.o(t._Z24qMetaTypeConstructHelperI24QDeclarativeListPropertyI40QDeclarativeOrganizerItemAudibleReminderEEPvPKT_)
    t._Z24qMetaTypeConstructHelperI24QDeclarativeListPropertyI40QDeclarativeOrganizerItemAudibleReminderEEPvPKT_.clean 0x000266c4   Section        4  plugin.o(t._Z24qMetaTypeConstructHelperI24QDeclarativeListPropertyI40QDeclarativeOrganizerItemAudibleReminderEEPvPKT_.clean)
    t._Z24qMetaTypeConstructHelperI24QDeclarativeListPropertyI40QDeclarativeOrganizerItemChangeLogFilterEEPvPKT_ 0x000266c8   Section      150  plugin.o(t._Z24qMetaTypeConstructHelperI24QDeclarativeListPropertyI40QDeclarativeOrganizerItemChangeLogFilterEEPvPKT_)
    t._Z24qMetaTypeConstructHelperI24QDeclarativeListPropertyI40QDeclarativeOrganizerItemChangeLogFilterEEPvPKT_.clean 0x0002675e   Section        4  plugin.o(t._Z24qMetaTypeConstructHelperI24QDeclarativeListPropertyI40QDeclarativeOrganizerItemChangeLogFilterEEPvPKT_.clean)
    t._Z24qMetaTypeConstructHelperI24QDeclarativeListPropertyI41QDeclarativeOrganizerItemCollectionFilterEEPvPKT_ 0x00026762   Section      150  plugin.o(t._Z24qMetaTypeConstructHelperI24QDeclarativeListPropertyI41QDeclarativeOrganizerItemCollectionFilterEEPvPKT_)
    t._Z24qMetaTypeConstructHelperI24QDeclarativeListPropertyI41QDeclarativeOrganizerItemCollectionFilterEEPvPKT_.clean 0x000267f8   Section        4  plugin.o(t._Z24qMetaTypeConstructHelperI24QDeclarativeListPropertyI41QDeclarativeOrganizerItemCollectionFilterEEPvPKT_.clean)
    t._Z24qMetaTypeConstructHelperI24QDeclarativeListPropertyI42QDeclarativeOrganizerItemDetailRangeFilterEEPvPKT_ 0x000267fc   Section      150  plugin.o(t._Z24qMetaTypeConstructHelperI24QDeclarativeListPropertyI42QDeclarativeOrganizerItemDetailRangeFilterEEPvPKT_)
    t._Z24qMetaTypeConstructHelperI24QDeclarativeListPropertyI42QDeclarativeOrganizerItemDetailRangeFilterEEPvPKT_.clean 0x00026892   Section        4  plugin.o(t._Z24qMetaTypeConstructHelperI24QDeclarativeListPropertyI42QDeclarativeOrganizerItemDetailRangeFilterEEPvPKT_.clean)
    t._Z24qMetaTypeConstructHelperI24QDeclarativeListPropertyI43QDeclarativeOrganizerItemIntersectionFilterEEPvPKT_ 0x00026896   Section      150  plugin.o(t._Z24qMetaTypeConstructHelperI24QDeclarativeListPropertyI43QDeclarativeOrganizerItemIntersectionFilterEEPvPKT_)
    t._Z24qMetaTypeConstructHelperI24QDeclarativeListPropertyI43QDeclarativeOrganizerItemIntersectionFilterEEPvPKT_.clean 0x0002692c   Section        4  plugin.o(t._Z24qMetaTypeConstructHelperI24QDeclarativeListPropertyI43QDeclarativeOrganizerItemIntersectionFilterEEPvPKT_.clean)
    t._Z24qMetaTypeConstructHelperI4QSetIN10QtMobility24QOrganizerRecurrenceRuleEEEPvPKT_ 0x00026930   Section      110  moc_qdeclarativeorganizeritemdetail_p.o(t._Z24qMetaTypeConstructHelperI4QSetIN10QtMobility24QOrganizerRecurrenceRuleEEEPvPKT_)
    t._Z24qMetaTypeConstructHelperI4QSetIN10QtMobility24QOrganizerRecurrenceRuleEEEPvPKT_.clean 0x0002699e   Section       28  moc_qdeclarativeorganizeritemdetail_p.o(t._Z24qMetaTypeConstructHelperI4QSetIN10QtMobility24QOrganizerRecurrenceRuleEEEPvPKT_.clean)
    t._Z24qMetaTypeConstructHelperIN10QtMobility16QOrganizerItemIdEEPvPKT_ 0x000269ba   Section       80  moc_qdeclarativeorganizeritemdetail_p.o(t._Z24qMetaTypeConstructHelperIN10QtMobility16QOrganizerItemIdEEPvPKT_)
    t._Z24qMetaTypeConstructHelperIN10QtMobility16QOrganizerItemIdEEPvPKT_.clean 0x00026a0a   Section       28  moc_qdeclarativeorganizeritemdetail_p.o(t._Z24qMetaTypeConstructHelperIN10QtMobility16QOrganizerItemIdEEPvPKT_.clean)
    t._Z24qMetaTypeConstructHelperIP25QDeclarativeOrganizerItemEPvPKT_ 0x00026a26   Section       50  plugin.o(t._Z24qMetaTypeConstructHelperIP25QDeclarativeOrganizerItemEPvPKT_)
    t._Z24qMetaTypeConstructHelperIP25QDeclarativeOrganizerNoteEPvPKT_ 0x00026a58   Section       50  plugin.o(t._Z24qMetaTypeConstructHelperIP25QDeclarativeOrganizerNoteEPvPKT_)
    t._Z24qMetaTypeConstructHelperIP25QDeclarativeOrganizerTodoEPvPKT_ 0x00026a8a   Section       50  plugin.o(t._Z24qMetaTypeConstructHelperIP25QDeclarativeOrganizerTodoEPvPKT_)
    t._Z24qMetaTypeConstructHelperIP26QDeclarativeOrganizerEventEPvPKT_ 0x00026abc   Section       50  plugin.o(t._Z24qMetaTypeConstructHelperIP26QDeclarativeOrganizerEventEPvPKT_)
    t._Z24qMetaTypeConstructHelperIP26QDeclarativeOrganizerModelEPvPKT_ 0x00026aee   Section       50  plugin.o(t._Z24qMetaTypeConstructHelperIP26QDeclarativeOrganizerModelEPvPKT_)
    t._Z24qMetaTypeConstructHelperIP28QDeclarativeOrganizerJournalEPvPKT_ 0x00026b20   Section       50  plugin.o(t._Z24qMetaTypeConstructHelperIP28QDeclarativeOrganizerJournalEPvPKT_)
    t._Z24qMetaTypeConstructHelperIP29QDeclarativeOrganizerItemGuidEPvPKT_ 0x00026b52   Section       50  plugin.o(t._Z24qMetaTypeConstructHelperIP29QDeclarativeOrganizerItemGuidEPvPKT_)
    t._Z24qMetaTypeConstructHelperIP29QDeclarativeOrganizerItemTypeEPvPKT_ 0x00026b84   Section       50  plugin.o(t._Z24qMetaTypeConstructHelperIP29QDeclarativeOrganizerItemTypeEPvPKT_)
    t._Z24qMetaTypeConstructHelperIP29QDeclarativeOrganizerTodoTimeEPvPKT_ 0x00026bb6   Section       50  plugin.o(t._Z24qMetaTypeConstructHelperIP29QDeclarativeOrganizerTodoTimeEPvPKT_)
    t._Z24qMetaTypeConstructHelperIP30QDeclarativeOrganizerEventTimeEPvPKT_ 0x00026be8   Section       50  plugin.o(t._Z24qMetaTypeConstructHelperIP30QDeclarativeOrganizerEventTimeEPvPKT_)
    t._Z24qMetaTypeConstructHelperIP31QDeclarativeOrganizerCollectionEPvPKT_ 0x00026c1a   Section       50  plugin.o(t._Z24qMetaTypeConstructHelperIP31QDeclarativeOrganizerCollectionEPvPKT_)
    t._Z24qMetaTypeConstructHelperIP31QDeclarativeOrganizerItemDetailEPvPKT_ 0x00026c4c   Section       50  plugin.o(t._Z24qMetaTypeConstructHelperIP31QDeclarativeOrganizerItemDetailEPvPKT_)
    t._Z24qMetaTypeConstructHelperIP31QDeclarativeOrganizerItemFilterEPvPKT_ 0x00026c7e   Section       50  plugin.o(t._Z24qMetaTypeConstructHelperIP31QDeclarativeOrganizerItemFilterEPvPKT_)
    t._Z24qMetaTypeConstructHelperIP31QDeclarativeOrganizerItemParentEPvPKT_ 0x00026cb0   Section       50  plugin.o(t._Z24qMetaTypeConstructHelperIP31QDeclarativeOrganizerItemParentEPvPKT_)
    t._Z24qMetaTypeConstructHelperIP32QDeclarativeOrganizerJournalTimeEPvPKT_ 0x00026ce2   Section       50  plugin.o(t._Z24qMetaTypeConstructHelperIP32QDeclarativeOrganizerJournalTimeEPvPKT_)
    t._Z24qMetaTypeConstructHelperIP33QDeclarativeOrganizerItemIdFilterEPvPKT_ 0x00026d14   Section       50  plugin.o(t._Z24qMetaTypeConstructHelperIP33QDeclarativeOrganizerItemIdFilterEPvPKT_)
    t._Z24qMetaTypeConstructHelperIP33QDeclarativeOrganizerItemLocationEPvPKT_ 0x00026d46   Section       50  plugin.o(t._Z24qMetaTypeConstructHelperIP33QDeclarativeOrganizerItemLocationEPvPKT_)
    t._Z24qMetaTypeConstructHelperIP33QDeclarativeOrganizerItemPriorityEPvPKT_ 0x00026d78   Section       50  plugin.o(t._Z24qMetaTypeConstructHelperIP33QDeclarativeOrganizerItemPriorityEPvPKT_)
    t._Z24qMetaTypeConstructHelperIP33QDeclarativeOrganizerItemReminderEPvPKT_ 0x00026daa   Section       50  plugin.o(t._Z24qMetaTypeConstructHelperIP33QDeclarativeOrganizerItemReminderEPvPKT_)
    t._Z24qMetaTypeConstructHelperIP33QDeclarativeOrganizerTodoProgressEPvPKT_ 0x00026ddc   Section       50  plugin.o(t._Z24qMetaTypeConstructHelperIP33QDeclarativeOrganizerTodoProgressEPvPKT_)
    t._Z24qMetaTypeConstructHelperIP34QDeclarativeOrganizerItemFetchHintEPvPKT_ 0x00026e0e   Section       50  plugin.o(t._Z24qMetaTypeConstructHelperIP34QDeclarativeOrganizerItemFetchHintEPvPKT_)
    t._Z24qMetaTypeConstructHelperIP34QDeclarativeOrganizerItemSortOrderEPvPKT_ 0x00026e40   Section       50  plugin.o(t._Z24qMetaTypeConstructHelperIP34QDeclarativeOrganizerItemSortOrderEPvPKT_)
    t._Z24qMetaTypeConstructHelperIP34QDeclarativeOrganizerItemTimestampEPvPKT_ 0x00026e72   Section       50  plugin.o(t._Z24qMetaTypeConstructHelperIP34QDeclarativeOrganizerItemTimestampEPvPKT_)
    t._Z24qMetaTypeConstructHelperIP35QDeclarativeOrganizerItemRecurrenceEPvPKT_ 0x00026ea4   Section       50  plugin.o(t._Z24qMetaTypeConstructHelperIP35QDeclarativeOrganizerItemRecurrenceEPvPKT_)
    t._Z24qMetaTypeConstructHelperIP35QDeclarativeOrganizerRecurrenceRuleEPvPKT_ 0x00026ed6   Section       50  plugin.o(t._Z24qMetaTypeConstructHelperIP35QDeclarativeOrganizerRecurrenceRuleEPvPKT_)
    t._Z24qMetaTypeConstructHelperIP35QDeclarativeOrganizerTodoOccurrenceEPvPKT_ 0x00026f08   Section       50  plugin.o(t._Z24qMetaTypeConstructHelperIP35QDeclarativeOrganizerTodoOccurrenceEPvPKT_)
    t._Z24qMetaTypeConstructHelperIP36QDeclarativeOrganizerEventOccurrenceEPvPKT_ 0x00026f3a   Section       50  plugin.o(t._Z24qMetaTypeConstructHelperIP36QDeclarativeOrganizerEventOccurrenceEPvPKT_)
    t._Z24qMetaTypeConstructHelperIP36QDeclarativeOrganizerItemDescriptionEPvPKT_ 0x00026f6c   Section       50  plugin.o(t._Z24qMetaTypeConstructHelperIP36QDeclarativeOrganizerItemDescriptionEPvPKT_)
    t._Z24qMetaTypeConstructHelperIP36QDeclarativeOrganizerItemUnionFilterEPvPKT_ 0x00026f9e   Section       50  plugin.o(t._Z24qMetaTypeConstructHelperIP36QDeclarativeOrganizerItemUnionFilterEPvPKT_)
    t._Z24qMetaTypeConstructHelperIP37QDeclarativeOrganizerItemDetailFilterEPvPKT_ 0x00026fd0   Section       50  plugin.o(t._Z24qMetaTypeConstructHelperIP37QDeclarativeOrganizerItemDetailFilterEPvPKT_)
    t._Z24qMetaTypeConstructHelperIP37QDeclarativeOrganizerItemDisplayLabelEPvPKT_ 0x00027002   Section       50  plugin.o(t._Z24qMetaTypeConstructHelperIP37QDeclarativeOrganizerItemDisplayLabelEPvPKT_)
    t._Z24qMetaTypeConstructHelperIP38QDeclarativeOrganizerItemEmailReminderEPvPKT_ 0x00027034   Section       50  plugin.o(t._Z24qMetaTypeConstructHelperIP38QDeclarativeOrganizerItemEmailReminderEPvPKT_)
    t._Z24qMetaTypeConstructHelperIP38QDeclarativeOrganizerItemInvalidFilterEPvPKT_ 0x00027066   Section       50  plugin.o(t._Z24qMetaTypeConstructHelperIP38QDeclarativeOrganizerItemInvalidFilterEPvPKT_)
    t._Z24qMetaTypeConstructHelperIP39QDeclarativeOrganizerItemVisualReminderEPvPKT_ 0x00027098   Section       50  plugin.o(t._Z24qMetaTypeConstructHelperIP39QDeclarativeOrganizerItemVisualReminderEPvPKT_)
    t._Z24qMetaTypeConstructHelperIP40QDeclarativeOrganizerItemAudibleReminderEPvPKT_ 0x000270ca   Section       50  plugin.o(t._Z24qMetaTypeConstructHelperIP40QDeclarativeOrganizerItemAudibleReminderEPvPKT_)
    t._Z24qMetaTypeConstructHelperIP40QDeclarativeOrganizerItemChangeLogFilterEPvPKT_ 0x000270fc   Section       50  plugin.o(t._Z24qMetaTypeConstructHelperIP40QDeclarativeOrganizerItemChangeLogFilterEPvPKT_)
    t._Z24qMetaTypeConstructHelperIP41QDeclarativeOrganizerItemCollectionFilterEPvPKT_ 0x0002712e   Section       50  plugin.o(t._Z24qMetaTypeConstructHelperIP41QDeclarativeOrganizerItemCollectionFilterEPvPKT_)
    t._Z24qMetaTypeConstructHelperIP42QDeclarativeOrganizerItemDetailRangeFilterEPvPKT_ 0x00027160   Section       50  plugin.o(t._Z24qMetaTypeConstructHelperIP42QDeclarativeOrganizerItemDetailRangeFilterEPvPKT_)
    t._Z24qMetaTypeConstructHelperIP43QDeclarativeOrganizerItemIntersectionFilterEPvPKT_ 0x00027192   Section       50  plugin.o(t._Z24qMetaTypeConstructHelperIP43QDeclarativeOrganizerItemIntersectionFilterEPvPKT_)
    t._Z4qAbsIdET_RKS0_                      0x000271c4   Section       56  moc_qdeclarativeorganizeritemdetail_p.o(t._Z4qAbsIdET_RKS0_)
    t._ZN10QtMobility20QOrganizerItemDetail8setValueILi12EEEbRKNS_15QLatin1ConstantIXT_EEERK8QVariant 0x000271fc   Section       26  moc_qdeclarativeorganizeritemdetail_p.o(t._ZN10QtMobility20QOrganizerItemDetail8setValueILi12EEEbRKNS_15QLatin1ConstantIXT_EEERK8QVariant)
    t._ZN10QtMobility20QOrganizerItemDetail8setValueILi16EEEbRKNS_15QLatin1ConstantIXT_EEERK8QVariant 0x00027216   Section       26  moc_qdeclarativeorganizeritemdetail_p.o(t._ZN10QtMobility20QOrganizerItemDetail8setValueILi16EEEbRKNS_15QLatin1ConstantIXT_EEERK8QVariant)
    t._ZN10QtMobility20QOrganizerItemDetail8setValueILi5EEEbRKNS_15QLatin1ConstantIXT_EEERK8QVariant 0x00027230   Section       26  moc_qdeclarativeorganizeritemdetail_p.o(t._ZN10QtMobility20QOrganizerItemDetail8setValueILi5EEEbRKNS_15QLatin1ConstantIXT_EEERK8QVariant)
    t._ZN10QtMobility20QOrganizerItemDetail8setValueILi8EEEbRKNS_15QLatin1ConstantIXT_EEERK8QVariant 0x0002724a   Section       26  moc_qdeclarativeorganizeritemdetail_p.o(t._ZN10QtMobility20QOrganizerItemDetail8setValueILi8EEEbRKNS_15QLatin1ConstantIXT_EEERK8QVariant)
    t._ZN10QtMobilityeqILi10EEEbRK7QStringRKNS_15QLatin1ConstantIXT_EEE 0x00027264   Section       24  qdeclarativeorganizeritemdetail.o(t._ZN10QtMobilityeqILi10EEEbRK7QStringRKNS_15QLatin1ConstantIXT_EEE)
    t._ZN10QtMobilityeqILi11EEEbRK7QStringRKNS_15QLatin1ConstantIXT_EEE 0x0002727c   Section       24  qdeclarativeorganizeritemdetail.o(t._ZN10QtMobilityeqILi11EEEbRK7QStringRKNS_15QLatin1ConstantIXT_EEE)
    t._ZN10QtMobilityeqILi12EEEbRK7QStringRKNS_15QLatin1ConstantIXT_EEE 0x00027294   Section       24  qdeclarativeorganizeritemdetail.o(t._ZN10QtMobilityeqILi12EEEbRK7QStringRKNS_15QLatin1ConstantIXT_EEE)
    t._ZN10QtMobilityeqILi13EEEbRK7QStringRKNS_15QLatin1ConstantIXT_EEE 0x000272ac   Section       24  qdeclarativeorganizeritemdetail.o(t._ZN10QtMobilityeqILi13EEEbRK7QStringRKNS_15QLatin1ConstantIXT_EEE)
    t._ZN10QtMobilityeqILi14EEEbRK7QStringRKNS_15QLatin1ConstantIXT_EEE 0x000272c4   Section       24  moc_qdeclarativeorganizeritemdetail_p.o(t._ZN10QtMobilityeqILi14EEEbRK7QStringRKNS_15QLatin1ConstantIXT_EEE)
    t._ZN10QtMobilityeqILi15EEEbRK7QStringRKNS_15QLatin1ConstantIXT_EEE 0x000272dc   Section       24  moc_qdeclarativeorganizeritemdetail_p.o(t._ZN10QtMobilityeqILi15EEEbRK7QStringRKNS_15QLatin1ConstantIXT_EEE)
    t._ZN10QtMobilityeqILi16EEEbRK7QStringRKNS_15QLatin1ConstantIXT_EEE 0x000272f4   Section       24  moc_qdeclarativeorganizeritemdetail_p.o(t._ZN10QtMobilityeqILi16EEEbRK7QStringRKNS_15QLatin1ConstantIXT_EEE)
    t._ZN10QtMobilityeqILi5EEEbRK7QStringRKNS_15QLatin1ConstantIXT_EEE 0x0002730c   Section       24  moc_qdeclarativeorganizeritemdetail_p.o(t._ZN10QtMobilityeqILi5EEEbRK7QStringRKNS_15QLatin1ConstantIXT_EEE)
    t._ZN10QtMobilityeqILi6EEEbRK7QStringRKNS_15QLatin1ConstantIXT_EEE 0x00027324   Section       24  moc_qdeclarativeorganizeritemdetail_p.o(t._ZN10QtMobilityeqILi6EEEbRK7QStringRKNS_15QLatin1ConstantIXT_EEE)
    t._ZN10QtMobilityeqILi7EEEbRK7QStringRKNS_15QLatin1ConstantIXT_EEE 0x0002733c   Section       24  qdeclarativeorganizeritemdetail.o(t._ZN10QtMobilityeqILi7EEEbRK7QStringRKNS_15QLatin1ConstantIXT_EEE)
    t._ZN10QtMobilityeqILi8EEEbRK7QStringRKNS_15QLatin1ConstantIXT_EEE 0x00027354   Section       24  moc_qdeclarativeorganizeritemdetail_p.o(t._ZN10QtMobilityeqILi8EEEbRK7QStringRKNS_15QLatin1ConstantIXT_EEE)
    t._ZN10QtMobilityeqILi9EEEbRK7QStringRKNS_15QLatin1ConstantIXT_EEE 0x0002736c   Section       24  qdeclarativeorganizeritemdetail.o(t._ZN10QtMobilityeqILi9EEEbRK7QStringRKNS_15QLatin1ConstantIXT_EEE)
    t._ZN12QMetaTypeId2I24QDeclarativeListPropertyI31QDeclarativeOrganizerItemDetailEE14qt_metatype_idEv 0x00027384   Section      108  qdeclarativeorganizeritem.o(t._ZN12QMetaTypeId2I24QDeclarativeListPropertyI31QDeclarativeOrganizerItemDetailEE14qt_metatype_idEv)
    t._ZN12QMetaTypeId2I4QSetIN10QtMobility24QOrganizerRecurrenceRuleEEE14qt_metatype_idEv 0x000273f0   Section      104  moc_qdeclarativeorganizeritemdetail_p.o(t._ZN12QMetaTypeId2I4QSetIN10QtMobility24QOrganizerRecurrenceRuleEEE14qt_metatype_idEv)
    t._ZN12QMetaTypeId2IN10QtMobility16QOrganizerItemIdEE14qt_metatype_idEv 0x00027458   Section       88  moc_qdeclarativeorganizeritemdetail_p.o(t._ZN12QMetaTypeId2IN10QtMobility16QOrganizerItemIdEE14qt_metatype_idEv)
    t._ZN12QMetaTypeId2IP25QDeclarativeOrganizerItemE14qt_metatype_idEv 0x000274b0   Section       76  qdeclarativeorganizermodel.o(t._ZN12QMetaTypeId2IP25QDeclarativeOrganizerItemE14qt_metatype_idEv)
    t._ZN12QMetaTypeId2IP31QDeclarativeOrganizerItemDetailE14qt_metatype_idEv 0x000274fc   Section       84  qdeclarativeorganizeritem.o(t._ZN12QMetaTypeId2IP31QDeclarativeOrganizerItemDetailE14qt_metatype_idEv)
    t._ZN14QHashDummyNodeIN10QtMobility22QOrganizerCollectionIdE15QHashDummyValueEC1ERKS1_ 0x00027550   Section       24  qdeclarativeorganizeritemfilter.o(t._ZN14QHashDummyNodeIN10QtMobility22QOrganizerCollectionIdE15QHashDummyValueEC1ERKS1_)
    t._ZN14QHashDummyNodeIN10QtMobility24QOrganizerRecurrenceRuleE15QHashDummyValueEC1ERKS1_ 0x00027568   Section       24  moc_qdeclarativeorganizeritemdetail_p.o(t._ZN14QHashDummyNodeIN10QtMobility24QOrganizerRecurrenceRuleE15QHashDummyValueEC1ERKS1_)
    t._ZN19QDeclarativePrivate10createIntoI25QDeclarativeOrganizerItemEEvPv 0x00027580   Section       44  plugin.o(t._ZN19QDeclarativePrivate10createIntoI25QDeclarativeOrganizerItemEEvPv)
    t._ZN19QDeclarativePrivate10createIntoI25QDeclarativeOrganizerItemEEvPv.clean 0x000275ac   Section       12  plugin.o(t._ZN19QDeclarativePrivate10createIntoI25QDeclarativeOrganizerItemEEvPv.clean)
    t._ZN19QDeclarativePrivate10createIntoI25QDeclarativeOrganizerNoteEEvPv 0x000275b8   Section       44  plugin.o(t._ZN19QDeclarativePrivate10createIntoI25QDeclarativeOrganizerNoteEEvPv)
    t._ZN19QDeclarativePrivate10createIntoI25QDeclarativeOrganizerNoteEEvPv.clean 0x000275e4   Section       12  plugin.o(t._ZN19QDeclarativePrivate10createIntoI25QDeclarativeOrganizerNoteEEvPv.clean)
    t._ZN19QDeclarativePrivate10createIntoI25QDeclarativeOrganizerTodoEEvPv 0x000275f0   Section       44  plugin.o(t._ZN19QDeclarativePrivate10createIntoI25QDeclarativeOrganizerTodoEEvPv)
    t._ZN19QDeclarativePrivate10createIntoI25QDeclarativeOrganizerTodoEEvPv.clean 0x0002761c   Section       12  plugin.o(t._ZN19QDeclarativePrivate10createIntoI25QDeclarativeOrganizerTodoEEvPv.clean)
    t._ZN19QDeclarativePrivate10createIntoI26QDeclarativeOrganizerEventEEvPv 0x00027628   Section       44  plugin.o(t._ZN19QDeclarativePrivate10createIntoI26QDeclarativeOrganizerEventEEvPv)
    t._ZN19QDeclarativePrivate10createIntoI26QDeclarativeOrganizerEventEEvPv.clean 0x00027654   Section       12  plugin.o(t._ZN19QDeclarativePrivate10createIntoI26QDeclarativeOrganizerEventEEvPv.clean)
    t._ZN19QDeclarativePrivate10createIntoI26QDeclarativeOrganizerModelEEvPv 0x00027660   Section       48  plugin.o(t._ZN19QDeclarativePrivate10createIntoI26QDeclarativeOrganizerModelEEvPv)
    t._ZN19QDeclarativePrivate10createIntoI26QDeclarativeOrganizerModelEEvPv.clean 0x00027690   Section       12  plugin.o(t._ZN19QDeclarativePrivate10createIntoI26QDeclarativeOrganizerModelEEvPv.clean)
    t._ZN19QDeclarativePrivate10createIntoI28QDeclarativeOrganizerJournalEEvPv 0x0002769c   Section       44  plugin.o(t._ZN19QDeclarativePrivate10createIntoI28QDeclarativeOrganizerJournalEEvPv)
    t._ZN19QDeclarativePrivate10createIntoI28QDeclarativeOrganizerJournalEEvPv.clean 0x000276c8   Section       12  plugin.o(t._ZN19QDeclarativePrivate10createIntoI28QDeclarativeOrganizerJournalEEvPv.clean)
    t._ZN19QDeclarativePrivate10createIntoI29QDeclarativeOrganizerItemGuidEEvPv 0x000276d4   Section       44  plugin.o(t._ZN19QDeclarativePrivate10createIntoI29QDeclarativeOrganizerItemGuidEEvPv)
    t._ZN19QDeclarativePrivate10createIntoI29QDeclarativeOrganizerItemGuidEEvPv.clean 0x00027700   Section       12  plugin.o(t._ZN19QDeclarativePrivate10createIntoI29QDeclarativeOrganizerItemGuidEEvPv.clean)
    t._ZN19QDeclarativePrivate10createIntoI29QDeclarativeOrganizerItemTypeEEvPv 0x0002770c   Section       44  plugin.o(t._ZN19QDeclarativePrivate10createIntoI29QDeclarativeOrganizerItemTypeEEvPv)
    t._ZN19QDeclarativePrivate10createIntoI29QDeclarativeOrganizerItemTypeEEvPv.clean 0x00027738   Section       12  plugin.o(t._ZN19QDeclarativePrivate10createIntoI29QDeclarativeOrganizerItemTypeEEvPv.clean)
    t._ZN19QDeclarativePrivate10createIntoI29QDeclarativeOrganizerTodoTimeEEvPv 0x00027744   Section       44  plugin.o(t._ZN19QDeclarativePrivate10createIntoI29QDeclarativeOrganizerTodoTimeEEvPv)
    t._ZN19QDeclarativePrivate10createIntoI29QDeclarativeOrganizerTodoTimeEEvPv.clean 0x00027770   Section       12  plugin.o(t._ZN19QDeclarativePrivate10createIntoI29QDeclarativeOrganizerTodoTimeEEvPv.clean)
    t._ZN19QDeclarativePrivate10createIntoI30QDeclarativeOrganizerEventTimeEEvPv 0x0002777c   Section       44  plugin.o(t._ZN19QDeclarativePrivate10createIntoI30QDeclarativeOrganizerEventTimeEEvPv)
    t._ZN19QDeclarativePrivate10createIntoI30QDeclarativeOrganizerEventTimeEEvPv.clean 0x000277a8   Section       12  plugin.o(t._ZN19QDeclarativePrivate10createIntoI30QDeclarativeOrganizerEventTimeEEvPv.clean)
    t._ZN19QDeclarativePrivate10createIntoI31QDeclarativeOrganizerCollectionEEvPv 0x000277b4   Section       68  plugin.o(t._ZN19QDeclarativePrivate10createIntoI31QDeclarativeOrganizerCollectionEEvPv)
    t._ZN19QDeclarativePrivate10createIntoI31QDeclarativeOrganizerCollectionEEvPv.clean 0x000277f8   Section       22  plugin.o(t._ZN19QDeclarativePrivate10createIntoI31QDeclarativeOrganizerCollectionEEvPv.clean)
    t._ZN19QDeclarativePrivate10createIntoI31QDeclarativeOrganizerItemDetailEEvPv 0x00027810   Section       44  plugin.o(t._ZN19QDeclarativePrivate10createIntoI31QDeclarativeOrganizerItemDetailEEvPv)
    t._ZN19QDeclarativePrivate10createIntoI31QDeclarativeOrganizerItemDetailEEvPv.clean 0x0002783c   Section       12  plugin.o(t._ZN19QDeclarativePrivate10createIntoI31QDeclarativeOrganizerItemDetailEEvPv.clean)
    t._ZN19QDeclarativePrivate10createIntoI31QDeclarativeOrganizerItemFilterEEvPv 0x00027848   Section       44  plugin.o(t._ZN19QDeclarativePrivate10createIntoI31QDeclarativeOrganizerItemFilterEEvPv)
    t._ZN19QDeclarativePrivate10createIntoI31QDeclarativeOrganizerItemFilterEEvPv.clean 0x00027874   Section       12  plugin.o(t._ZN19QDeclarativePrivate10createIntoI31QDeclarativeOrganizerItemFilterEEvPv.clean)
    t._ZN19QDeclarativePrivate10createIntoI31QDeclarativeOrganizerItemParentEEvPv 0x00027880   Section       44  plugin.o(t._ZN19QDeclarativePrivate10createIntoI31QDeclarativeOrganizerItemParentEEvPv)
    t._ZN19QDeclarativePrivate10createIntoI31QDeclarativeOrganizerItemParentEEvPv.clean 0x000278ac   Section       12  plugin.o(t._ZN19QDeclarativePrivate10createIntoI31QDeclarativeOrganizerItemParentEEvPv.clean)
    t._ZN19QDeclarativePrivate10createIntoI32QDeclarativeOrganizerJournalTimeEEvPv 0x000278b8   Section       44  plugin.o(t._ZN19QDeclarativePrivate10createIntoI32QDeclarativeOrganizerJournalTimeEEvPv)
    t._ZN19QDeclarativePrivate10createIntoI32QDeclarativeOrganizerJournalTimeEEvPv.clean 0x000278e4   Section       12  plugin.o(t._ZN19QDeclarativePrivate10createIntoI32QDeclarativeOrganizerJournalTimeEEvPv.clean)
    t._ZN19QDeclarativePrivate10createIntoI33QDeclarativeOrganizerItemIdFilterEEvPv 0x000278f0   Section       28  plugin.o(t._ZN19QDeclarativePrivate10createIntoI33QDeclarativeOrganizerItemIdFilterEEvPv)
    t._ZN19QDeclarativePrivate10createIntoI33QDeclarativeOrganizerItemIdFilterEEvPv.clean 0x0002790c   Section       12  plugin.o(t._ZN19QDeclarativePrivate10createIntoI33QDeclarativeOrganizerItemIdFilterEEvPv.clean)
    t._ZN19QDeclarativePrivate10createIntoI33QDeclarativeOrganizerItemLocationEEvPv 0x00027918   Section       44  plugin.o(t._ZN19QDeclarativePrivate10createIntoI33QDeclarativeOrganizerItemLocationEEvPv)
    t._ZN19QDeclarativePrivate10createIntoI33QDeclarativeOrganizerItemLocationEEvPv.clean 0x00027944   Section       12  plugin.o(t._ZN19QDeclarativePrivate10createIntoI33QDeclarativeOrganizerItemLocationEEvPv.clean)
    t._ZN19QDeclarativePrivate10createIntoI33QDeclarativeOrganizerItemPriorityEEvPv 0x00027950   Section       44  plugin.o(t._ZN19QDeclarativePrivate10createIntoI33QDeclarativeOrganizerItemPriorityEEvPv)
    t._ZN19QDeclarativePrivate10createIntoI33QDeclarativeOrganizerItemPriorityEEvPv.clean 0x0002797c   Section       12  plugin.o(t._ZN19QDeclarativePrivate10createIntoI33QDeclarativeOrganizerItemPriorityEEvPv.clean)
    t._ZN19QDeclarativePrivate10createIntoI33QDeclarativeOrganizerItemReminderEEvPv 0x00027988   Section       44  plugin.o(t._ZN19QDeclarativePrivate10createIntoI33QDeclarativeOrganizerItemReminderEEvPv)
    t._ZN19QDeclarativePrivate10createIntoI33QDeclarativeOrganizerItemReminderEEvPv.clean 0x000279b4   Section       12  plugin.o(t._ZN19QDeclarativePrivate10createIntoI33QDeclarativeOrganizerItemReminderEEvPv.clean)
    t._ZN19QDeclarativePrivate10createIntoI33QDeclarativeOrganizerTodoProgressEEvPv 0x000279c0   Section       44  plugin.o(t._ZN19QDeclarativePrivate10createIntoI33QDeclarativeOrganizerTodoProgressEEvPv)
    t._ZN19QDeclarativePrivate10createIntoI33QDeclarativeOrganizerTodoProgressEEvPv.clean 0x000279ec   Section       12  plugin.o(t._ZN19QDeclarativePrivate10createIntoI33QDeclarativeOrganizerTodoProgressEEvPv.clean)
    t._ZN19QDeclarativePrivate10createIntoI34QDeclarativeOrganizerItemFetchHintEEvPv 0x000279f8   Section       68  plugin.o(t._ZN19QDeclarativePrivate10createIntoI34QDeclarativeOrganizerItemFetchHintEEvPv)
    t._ZN19QDeclarativePrivate10createIntoI34QDeclarativeOrganizerItemFetchHintEEvPv.clean 0x00027a3c   Section       22  plugin.o(t._ZN19QDeclarativePrivate10createIntoI34QDeclarativeOrganizerItemFetchHintEEvPv.clean)
    t._ZN19QDeclarativePrivate10createIntoI34QDeclarativeOrganizerItemSortOrderEEvPv 0x00027a52   Section       28  plugin.o(t._ZN19QDeclarativePrivate10createIntoI34QDeclarativeOrganizerItemSortOrderEEvPv)
    t._ZN19QDeclarativePrivate10createIntoI34QDeclarativeOrganizerItemSortOrderEEvPv.clean 0x00027a6e   Section       12  plugin.o(t._ZN19QDeclarativePrivate10createIntoI34QDeclarativeOrganizerItemSortOrderEEvPv.clean)
    t._ZN19QDeclarativePrivate10createIntoI34QDeclarativeOrganizerItemTimestampEEvPv 0x00027a7c   Section       44  plugin.o(t._ZN19QDeclarativePrivate10createIntoI34QDeclarativeOrganizerItemTimestampEEvPv)
    t._ZN19QDeclarativePrivate10createIntoI34QDeclarativeOrganizerItemTimestampEEvPv.clean 0x00027aa8   Section       12  plugin.o(t._ZN19QDeclarativePrivate10createIntoI34QDeclarativeOrganizerItemTimestampEEvPv.clean)
    t._ZN19QDeclarativePrivate10createIntoI35QDeclarativeOrganizerItemRecurrenceEEvPv 0x00027ab4   Section       44  plugin.o(t._ZN19QDeclarativePrivate10createIntoI35QDeclarativeOrganizerItemRecurrenceEEvPv)
    t._ZN19QDeclarativePrivate10createIntoI35QDeclarativeOrganizerItemRecurrenceEEvPv.clean 0x00027ae0   Section       12  plugin.o(t._ZN19QDeclarativePrivate10createIntoI35QDeclarativeOrganizerItemRecurrenceEEvPv.clean)
    t._ZN19QDeclarativePrivate10createIntoI35QDeclarativeOrganizerRecurrenceRuleEEvPv 0x00027aec   Section       68  plugin.o(t._ZN19QDeclarativePrivate10createIntoI35QDeclarativeOrganizerRecurrenceRuleEEvPv)
    t._ZN19QDeclarativePrivate10createIntoI35QDeclarativeOrganizerRecurrenceRuleEEvPv.clean 0x00027b30   Section       22  plugin.o(t._ZN19QDeclarativePrivate10createIntoI35QDeclarativeOrganizerRecurrenceRuleEEvPv.clean)
    t._ZN19QDeclarativePrivate10createIntoI35QDeclarativeOrganizerTodoOccurrenceEEvPv 0x00027b48   Section       44  plugin.o(t._ZN19QDeclarativePrivate10createIntoI35QDeclarativeOrganizerTodoOccurrenceEEvPv)
    t._ZN19QDeclarativePrivate10createIntoI35QDeclarativeOrganizerTodoOccurrenceEEvPv.clean 0x00027b74   Section       12  plugin.o(t._ZN19QDeclarativePrivate10createIntoI35QDeclarativeOrganizerTodoOccurrenceEEvPv.clean)
    t._ZN19QDeclarativePrivate10createIntoI36QDeclarativeOrganizerEventOccurrenceEEvPv 0x00027b80   Section       44  plugin.o(t._ZN19QDeclarativePrivate10createIntoI36QDeclarativeOrganizerEventOccurrenceEEvPv)
    t._ZN19QDeclarativePrivate10createIntoI36QDeclarativeOrganizerEventOccurrenceEEvPv.clean 0x00027bac   Section       12  plugin.o(t._ZN19QDeclarativePrivate10createIntoI36QDeclarativeOrganizerEventOccurrenceEEvPv.clean)
    t._ZN19QDeclarativePrivate10createIntoI36QDeclarativeOrganizerItemDescriptionEEvPv 0x00027bb8   Section       44  plugin.o(t._ZN19QDeclarativePrivate10createIntoI36QDeclarativeOrganizerItemDescriptionEEvPv)
    t._ZN19QDeclarativePrivate10createIntoI36QDeclarativeOrganizerItemDescriptionEEvPv.clean 0x00027be4   Section       12  plugin.o(t._ZN19QDeclarativePrivate10createIntoI36QDeclarativeOrganizerItemDescriptionEEvPv.clean)
    t._ZN19QDeclarativePrivate10createIntoI36QDeclarativeOrganizerItemUnionFilterEEvPv 0x00027bf0   Section      124  plugin.o(t._ZN19QDeclarativePrivate10createIntoI36QDeclarativeOrganizerItemUnionFilterEEvPv)
    t._ZN19QDeclarativePrivate10createIntoI36QDeclarativeOrganizerItemUnionFilterEEvPv.clean 0x00027c6c   Section       34  plugin.o(t._ZN19QDeclarativePrivate10createIntoI36QDeclarativeOrganizerItemUnionFilterEEvPv.clean)
    t._ZN19QDeclarativePrivate10createIntoI37QDeclarativeOrganizerItemDetailFilterEEvPv 0x00027c90   Section       48  plugin.o(t._ZN19QDeclarativePrivate10createIntoI37QDeclarativeOrganizerItemDetailFilterEEvPv)
    t._ZN19QDeclarativePrivate10createIntoI37QDeclarativeOrganizerItemDetailFilterEEvPv.clean 0x00027cc0   Section       12  plugin.o(t._ZN19QDeclarativePrivate10createIntoI37QDeclarativeOrganizerItemDetailFilterEEvPv.clean)
    t._ZN19QDeclarativePrivate10createIntoI37QDeclarativeOrganizerItemDisplayLabelEEvPv 0x00027ccc   Section       44  plugin.o(t._ZN19QDeclarativePrivate10createIntoI37QDeclarativeOrganizerItemDisplayLabelEEvPv)
    t._ZN19QDeclarativePrivate10createIntoI37QDeclarativeOrganizerItemDisplayLabelEEvPv.clean 0x00027cf8   Section       12  plugin.o(t._ZN19QDeclarativePrivate10createIntoI37QDeclarativeOrganizerItemDisplayLabelEEvPv.clean)
    t._ZN19QDeclarativePrivate10createIntoI38QDeclarativeOrganizerItemEmailReminderEEvPv 0x00027d04   Section       44  plugin.o(t._ZN19QDeclarativePrivate10createIntoI38QDeclarativeOrganizerItemEmailReminderEEvPv)
    t._ZN19QDeclarativePrivate10createIntoI38QDeclarativeOrganizerItemEmailReminderEEvPv.clean 0x00027d30   Section       12  plugin.o(t._ZN19QDeclarativePrivate10createIntoI38QDeclarativeOrganizerItemEmailReminderEEvPv.clean)
    t._ZN19QDeclarativePrivate10createIntoI38QDeclarativeOrganizerItemInvalidFilterEEvPv 0x00027d3c   Section      108  plugin.o(t._ZN19QDeclarativePrivate10createIntoI38QDeclarativeOrganizerItemInvalidFilterEEvPv)
    t._ZN19QDeclarativePrivate10createIntoI38QDeclarativeOrganizerItemInvalidFilterEEvPv.clean 0x00027da8   Section       22  plugin.o(t._ZN19QDeclarativePrivate10createIntoI38QDeclarativeOrganizerItemInvalidFilterEEvPv.clean)
    t._ZN19QDeclarativePrivate10createIntoI39QDeclarativeOrganizerItemVisualReminderEEvPv 0x00027dc0   Section       44  plugin.o(t._ZN19QDeclarativePrivate10createIntoI39QDeclarativeOrganizerItemVisualReminderEEvPv)
    t._ZN19QDeclarativePrivate10createIntoI39QDeclarativeOrganizerItemVisualReminderEEvPv.clean 0x00027dec   Section       12  plugin.o(t._ZN19QDeclarativePrivate10createIntoI39QDeclarativeOrganizerItemVisualReminderEEvPv.clean)
    t._ZN19QDeclarativePrivate10createIntoI40QDeclarativeOrganizerItemAudibleReminderEEvPv 0x00027df8   Section       44  plugin.o(t._ZN19QDeclarativePrivate10createIntoI40QDeclarativeOrganizerItemAudibleReminderEEvPv)
    t._ZN19QDeclarativePrivate10createIntoI40QDeclarativeOrganizerItemAudibleReminderEEvPv.clean 0x00027e24   Section       12  plugin.o(t._ZN19QDeclarativePrivate10createIntoI40QDeclarativeOrganizerItemAudibleReminderEEvPv.clean)
    t._ZN19QDeclarativePrivate10createIntoI40QDeclarativeOrganizerItemChangeLogFilterEEvPv 0x00027e30   Section      124  plugin.o(t._ZN19QDeclarativePrivate10createIntoI40QDeclarativeOrganizerItemChangeLogFilterEEvPv)
    t._ZN19QDeclarativePrivate10createIntoI40QDeclarativeOrganizerItemChangeLogFilterEEvPv.clean 0x00027eac   Section       34  plugin.o(t._ZN19QDeclarativePrivate10createIntoI40QDeclarativeOrganizerItemChangeLogFilterEEvPv.clean)
    t._ZN19QDeclarativePrivate10createIntoI41QDeclarativeOrganizerItemCollectionFilterEEvPv 0x00027ece   Section       28  plugin.o(t._ZN19QDeclarativePrivate10createIntoI41QDeclarativeOrganizerItemCollectionFilterEEvPv)
    t._ZN19QDeclarativePrivate10createIntoI41QDeclarativeOrganizerItemCollectionFilterEEvPv.clean 0x00027eea   Section       12  plugin.o(t._ZN19QDeclarativePrivate10createIntoI41QDeclarativeOrganizerItemCollectionFilterEEvPv.clean)
    t._ZN19QDeclarativePrivate10createIntoI42QDeclarativeOrganizerItemDetailRangeFilterEEvPv 0x00027ef8   Section       48  plugin.o(t._ZN19QDeclarativePrivate10createIntoI42QDeclarativeOrganizerItemDetailRangeFilterEEvPv)
    t._ZN19QDeclarativePrivate10createIntoI42QDeclarativeOrganizerItemDetailRangeFilterEEvPv.clean 0x00027f28   Section       12  plugin.o(t._ZN19QDeclarativePrivate10createIntoI42QDeclarativeOrganizerItemDetailRangeFilterEEvPv.clean)
    t._ZN19QDeclarativePrivate10createIntoI43QDeclarativeOrganizerItemIntersectionFilterEEvPv 0x00027f34   Section      124  plugin.o(t._ZN19QDeclarativePrivate10createIntoI43QDeclarativeOrganizerItemIntersectionFilterEEvPv)
    t._ZN19QDeclarativePrivate10createIntoI43QDeclarativeOrganizerItemIntersectionFilterEEvPv.clean 0x00027fb0   Section       34  plugin.o(t._ZN19QDeclarativePrivate10createIntoI43QDeclarativeOrganizerItemIntersectionFilterEEvPv.clean)
    t._ZN19QDeclarativePrivate19QDeclarativeElementI25QDeclarativeOrganizerItemED1Ev 0x00027fd4   Section       28  plugin.o(t._ZN19QDeclarativePrivate19QDeclarativeElementI25QDeclarativeOrganizerItemED1Ev)
    t._ZN19QDeclarativePrivate19QDeclarativeElementI25QDeclarativeOrganizerItemED1Ev.clean 0x00027ff0   Section       10  plugin.o(t._ZN19QDeclarativePrivate19QDeclarativeElementI25QDeclarativeOrganizerItemED1Ev.clean)
    t._ZN19QDeclarativePrivate19QDeclarativeElementI25QDeclarativeOrganizerNoteED1Ev 0x00027ffc   Section       32  plugin.o(t._ZN19QDeclarativePrivate19QDeclarativeElementI25QDeclarativeOrganizerNoteED1Ev)
    t._ZN19QDeclarativePrivate19QDeclarativeElementI25QDeclarativeOrganizerNoteED1Ev.clean 0x0002801c   Section       10  plugin.o(t._ZN19QDeclarativePrivate19QDeclarativeElementI25QDeclarativeOrganizerNoteED1Ev.clean)
    t._ZN19QDeclarativePrivate19QDeclarativeElementI25QDeclarativeOrganizerTodoED1Ev 0x00028028   Section       32  plugin.o(t._ZN19QDeclarativePrivate19QDeclarativeElementI25QDeclarativeOrganizerTodoED1Ev)
    t._ZN19QDeclarativePrivate19QDeclarativeElementI25QDeclarativeOrganizerTodoED1Ev.clean 0x00028048   Section       10  plugin.o(t._ZN19QDeclarativePrivate19QDeclarativeElementI25QDeclarativeOrganizerTodoED1Ev.clean)
    t._ZN19QDeclarativePrivate19QDeclarativeElementI26QDeclarativeOrganizerEventED1Ev 0x00028054   Section       32  plugin.o(t._ZN19QDeclarativePrivate19QDeclarativeElementI26QDeclarativeOrganizerEventED1Ev)
    t._ZN19QDeclarativePrivate19QDeclarativeElementI26QDeclarativeOrganizerEventED1Ev.clean 0x00028074   Section       10  plugin.o(t._ZN19QDeclarativePrivate19QDeclarativeElementI26QDeclarativeOrganizerEventED1Ev.clean)
    t._ZN19QDeclarativePrivate19QDeclarativeElementI26QDeclarativeOrganizerModelED1Ev 0x00028080   Section       32  plugin.o(t._ZN19QDeclarativePrivate19QDeclarativeElementI26QDeclarativeOrganizerModelED1Ev)
    t._ZN19QDeclarativePrivate19QDeclarativeElementI26QDeclarativeOrganizerModelED1Ev.clean 0x000280a0   Section       10  plugin.o(t._ZN19QDeclarativePrivate19QDeclarativeElementI26QDeclarativeOrganizerModelED1Ev.clean)
    t._ZN19QDeclarativePrivate19QDeclarativeElementI28QDeclarativeOrganizerJournalED1Ev 0x000280ac   Section       32  plugin.o(t._ZN19QDeclarativePrivate19QDeclarativeElementI28QDeclarativeOrganizerJournalED1Ev)
    t._ZN19QDeclarativePrivate19QDeclarativeElementI28QDeclarativeOrganizerJournalED1Ev.clean 0x000280cc   Section       10  plugin.o(t._ZN19QDeclarativePrivate19QDeclarativeElementI28QDeclarativeOrganizerJournalED1Ev.clean)
    t._ZN19QDeclarativePrivate19QDeclarativeElementI29QDeclarativeOrganizerItemGuidED1Ev 0x000280d8   Section       32  plugin.o(t._ZN19QDeclarativePrivate19QDeclarativeElementI29QDeclarativeOrganizerItemGuidED1Ev)
    t._ZN19QDeclarativePrivate19QDeclarativeElementI29QDeclarativeOrganizerItemGuidED1Ev.clean 0x000280f8   Section       10  plugin.o(t._ZN19QDeclarativePrivate19QDeclarativeElementI29QDeclarativeOrganizerItemGuidED1Ev.clean)
    t._ZN19QDeclarativePrivate19QDeclarativeElementI29QDeclarativeOrganizerItemTypeED1Ev 0x00028104   Section       32  plugin.o(t._ZN19QDeclarativePrivate19QDeclarativeElementI29QDeclarativeOrganizerItemTypeED1Ev)
    t._ZN19QDeclarativePrivate19QDeclarativeElementI29QDeclarativeOrganizerItemTypeED1Ev.clean 0x00028124   Section       10  plugin.o(t._ZN19QDeclarativePrivate19QDeclarativeElementI29QDeclarativeOrganizerItemTypeED1Ev.clean)
    t._ZN19QDeclarativePrivate19QDeclarativeElementI29QDeclarativeOrganizerTodoTimeED1Ev 0x00028130   Section       32  plugin.o(t._ZN19QDeclarativePrivate19QDeclarativeElementI29QDeclarativeOrganizerTodoTimeED1Ev)
    t._ZN19QDeclarativePrivate19QDeclarativeElementI29QDeclarativeOrganizerTodoTimeED1Ev.clean 0x00028150   Section       10  plugin.o(t._ZN19QDeclarativePrivate19QDeclarativeElementI29QDeclarativeOrganizerTodoTimeED1Ev.clean)
    t._ZN19QDeclarativePrivate19QDeclarativeElementI30QDeclarativeOrganizerEventTimeED1Ev 0x0002815c   Section       32  plugin.o(t._ZN19QDeclarativePrivate19QDeclarativeElementI30QDeclarativeOrganizerEventTimeED1Ev)
    t._ZN19QDeclarativePrivate19QDeclarativeElementI30QDeclarativeOrganizerEventTimeED1Ev.clean 0x0002817c   Section       10  plugin.o(t._ZN19QDeclarativePrivate19QDeclarativeElementI30QDeclarativeOrganizerEventTimeED1Ev.clean)
    t._ZN19QDeclarativePrivate19QDeclarativeElementI31QDeclarativeOrganizerCollectionED1Ev 0x00028188   Section       28  plugin.o(t._ZN19QDeclarativePrivate19QDeclarativeElementI31QDeclarativeOrganizerCollectionED1Ev)
    t._ZN19QDeclarativePrivate19QDeclarativeElementI31QDeclarativeOrganizerCollectionED1Ev.clean 0x000281a4   Section       10  plugin.o(t._ZN19QDeclarativePrivate19QDeclarativeElementI31QDeclarativeOrganizerCollectionED1Ev.clean)
    t._ZN19QDeclarativePrivate19QDeclarativeElementI31QDeclarativeOrganizerItemDetailED1Ev 0x000281b0   Section       28  plugin.o(t._ZN19QDeclarativePrivate19QDeclarativeElementI31QDeclarativeOrganizerItemDetailED1Ev)
    t._ZN19QDeclarativePrivate19QDeclarativeElementI31QDeclarativeOrganizerItemDetailED1Ev.clean 0x000281cc   Section       10  plugin.o(t._ZN19QDeclarativePrivate19QDeclarativeElementI31QDeclarativeOrganizerItemDetailED1Ev.clean)
    t._ZN19QDeclarativePrivate19QDeclarativeElementI31QDeclarativeOrganizerItemFilterED1Ev 0x000281d8   Section       28  plugin.o(t._ZN19QDeclarativePrivate19QDeclarativeElementI31QDeclarativeOrganizerItemFilterED1Ev)
    t._ZN19QDeclarativePrivate19QDeclarativeElementI31QDeclarativeOrganizerItemFilterED1Ev.clean 0x000281f4   Section       10  plugin.o(t._ZN19QDeclarativePrivate19QDeclarativeElementI31QDeclarativeOrganizerItemFilterED1Ev.clean)
    t._ZN19QDeclarativePrivate19QDeclarativeElementI31QDeclarativeOrganizerItemParentED1Ev 0x00028200   Section       32  plugin.o(t._ZN19QDeclarativePrivate19QDeclarativeElementI31QDeclarativeOrganizerItemParentED1Ev)
    t._ZN19QDeclarativePrivate19QDeclarativeElementI31QDeclarativeOrganizerItemParentED1Ev.clean 0x00028220   Section       10  plugin.o(t._ZN19QDeclarativePrivate19QDeclarativeElementI31QDeclarativeOrganizerItemParentED1Ev.clean)
    t._ZN19QDeclarativePrivate19QDeclarativeElementI32QDeclarativeOrganizerJournalTimeED1Ev 0x0002822c   Section       32  plugin.o(t._ZN19QDeclarativePrivate19QDeclarativeElementI32QDeclarativeOrganizerJournalTimeED1Ev)
    t._ZN19QDeclarativePrivate19QDeclarativeElementI32QDeclarativeOrganizerJournalTimeED1Ev.clean 0x0002824c   Section       10  plugin.o(t._ZN19QDeclarativePrivate19QDeclarativeElementI32QDeclarativeOrganizerJournalTimeED1Ev.clean)
    t._ZN19QDeclarativePrivate19QDeclarativeElementI33QDeclarativeOrganizerItemIdFilterED1Ev 0x00028258   Section       28  plugin.o(t._ZN19QDeclarativePrivate19QDeclarativeElementI33QDeclarativeOrganizerItemIdFilterED1Ev)
    t._ZN19QDeclarativePrivate19QDeclarativeElementI33QDeclarativeOrganizerItemIdFilterED1Ev.clean 0x00028274   Section       10  plugin.o(t._ZN19QDeclarativePrivate19QDeclarativeElementI33QDeclarativeOrganizerItemIdFilterED1Ev.clean)
    t._ZN19QDeclarativePrivate19QDeclarativeElementI33QDeclarativeOrganizerItemLocationED1Ev 0x00028280   Section       32  plugin.o(t._ZN19QDeclarativePrivate19QDeclarativeElementI33QDeclarativeOrganizerItemLocationED1Ev)
    t._ZN19QDeclarativePrivate19QDeclarativeElementI33QDeclarativeOrganizerItemLocationED1Ev.clean 0x000282a0   Section       10  plugin.o(t._ZN19QDeclarativePrivate19QDeclarativeElementI33QDeclarativeOrganizerItemLocationED1Ev.clean)
    t._ZN19QDeclarativePrivate19QDeclarativeElementI33QDeclarativeOrganizerItemPriorityED1Ev 0x000282ac   Section       32  plugin.o(t._ZN19QDeclarativePrivate19QDeclarativeElementI33QDeclarativeOrganizerItemPriorityED1Ev)
    t._ZN19QDeclarativePrivate19QDeclarativeElementI33QDeclarativeOrganizerItemPriorityED1Ev.clean 0x000282cc   Section       10  plugin.o(t._ZN19QDeclarativePrivate19QDeclarativeElementI33QDeclarativeOrganizerItemPriorityED1Ev.clean)
    t._ZN19QDeclarativePrivate19QDeclarativeElementI33QDeclarativeOrganizerItemReminderED1Ev 0x000282d8   Section       28  plugin.o(t._ZN19QDeclarativePrivate19QDeclarativeElementI33QDeclarativeOrganizerItemReminderED1Ev)
    t._ZN19QDeclarativePrivate19QDeclarativeElementI33QDeclarativeOrganizerItemReminderED1Ev.clean 0x000282f4   Section       10  plugin.o(t._ZN19QDeclarativePrivate19QDeclarativeElementI33QDeclarativeOrganizerItemReminderED1Ev.clean)
    t._ZN19QDeclarativePrivate19QDeclarativeElementI33QDeclarativeOrganizerTodoProgressED1Ev 0x00028300   Section       32  plugin.o(t._ZN19QDeclarativePrivate19QDeclarativeElementI33QDeclarativeOrganizerTodoProgressED1Ev)
    t._ZN19QDeclarativePrivate19QDeclarativeElementI33QDeclarativeOrganizerTodoProgressED1Ev.clean 0x00028320   Section       10  plugin.o(t._ZN19QDeclarativePrivate19QDeclarativeElementI33QDeclarativeOrganizerTodoProgressED1Ev.clean)
    t._ZN19QDeclarativePrivate19QDeclarativeElementI34QDeclarativeOrganizerItemFetchHintED1Ev 0x0002832c   Section       28  plugin.o(t._ZN19QDeclarativePrivate19QDeclarativeElementI34QDeclarativeOrganizerItemFetchHintED1Ev)
    t._ZN19QDeclarativePrivate19QDeclarativeElementI34QDeclarativeOrganizerItemFetchHintED1Ev.clean 0x00028348   Section       10  plugin.o(t._ZN19QDeclarativePrivate19QDeclarativeElementI34QDeclarativeOrganizerItemFetchHintED1Ev.clean)
    t._ZN19QDeclarativePrivate19QDeclarativeElementI34QDeclarativeOrganizerItemSortOrderED1Ev 0x00028354   Section       32  plugin.o(t._ZN19QDeclarativePrivate19QDeclarativeElementI34QDeclarativeOrganizerItemSortOrderED1Ev)
    t._ZN19QDeclarativePrivate19QDeclarativeElementI34QDeclarativeOrganizerItemSortOrderED1Ev.clean 0x00028374   Section       10  plugin.o(t._ZN19QDeclarativePrivate19QDeclarativeElementI34QDeclarativeOrganizerItemSortOrderED1Ev.clean)
    t._ZN19QDeclarativePrivate19QDeclarativeElementI34QDeclarativeOrganizerItemTimestampED1Ev 0x00028380   Section       32  plugin.o(t._ZN19QDeclarativePrivate19QDeclarativeElementI34QDeclarativeOrganizerItemTimestampED1Ev)
    t._ZN19QDeclarativePrivate19QDeclarativeElementI34QDeclarativeOrganizerItemTimestampED1Ev.clean 0x000283a0   Section       10  plugin.o(t._ZN19QDeclarativePrivate19QDeclarativeElementI34QDeclarativeOrganizerItemTimestampED1Ev.clean)
    t._ZN19QDeclarativePrivate19QDeclarativeElementI35QDeclarativeOrganizerItemRecurrenceED1Ev 0x000283ac   Section       28  plugin.o(t._ZN19QDeclarativePrivate19QDeclarativeElementI35QDeclarativeOrganizerItemRecurrenceED1Ev)
    t._ZN19QDeclarativePrivate19QDeclarativeElementI35QDeclarativeOrganizerItemRecurrenceED1Ev.clean 0x000283c8   Section       10  plugin.o(t._ZN19QDeclarativePrivate19QDeclarativeElementI35QDeclarativeOrganizerItemRecurrenceED1Ev.clean)
    t._ZN19QDeclarativePrivate19QDeclarativeElementI35QDeclarativeOrganizerRecurrenceRuleED1Ev 0x000283d4   Section       28  plugin.o(t._ZN19QDeclarativePrivate19QDeclarativeElementI35QDeclarativeOrganizerRecurrenceRuleED1Ev)
    t._ZN19QDeclarativePrivate19QDeclarativeElementI35QDeclarativeOrganizerRecurrenceRuleED1Ev.clean 0x000283f0   Section       10  plugin.o(t._ZN19QDeclarativePrivate19QDeclarativeElementI35QDeclarativeOrganizerRecurrenceRuleED1Ev.clean)
    t._ZN19QDeclarativePrivate19QDeclarativeElementI35QDeclarativeOrganizerTodoOccurrenceED1Ev 0x000283fc   Section       32  plugin.o(t._ZN19QDeclarativePrivate19QDeclarativeElementI35QDeclarativeOrganizerTodoOccurrenceED1Ev)
    t._ZN19QDeclarativePrivate19QDeclarativeElementI35QDeclarativeOrganizerTodoOccurrenceED1Ev.clean 0x0002841c   Section       10  plugin.o(t._ZN19QDeclarativePrivate19QDeclarativeElementI35QDeclarativeOrganizerTodoOccurrenceED1Ev.clean)
    t._ZN19QDeclarativePrivate19QDeclarativeElementI36QDeclarativeOrganizerEventOccurrenceED1Ev 0x00028428   Section       32  plugin.o(t._ZN19QDeclarativePrivate19QDeclarativeElementI36QDeclarativeOrganizerEventOccurrenceED1Ev)
    t._ZN19QDeclarativePrivate19QDeclarativeElementI36QDeclarativeOrganizerEventOccurrenceED1Ev.clean 0x00028448   Section       10  plugin.o(t._ZN19QDeclarativePrivate19QDeclarativeElementI36QDeclarativeOrganizerEventOccurrenceED1Ev.clean)
    t._ZN19QDeclarativePrivate19QDeclarativeElementI36QDeclarativeOrganizerItemDescriptionED1Ev 0x00028454   Section       32  plugin.o(t._ZN19QDeclarativePrivate19QDeclarativeElementI36QDeclarativeOrganizerItemDescriptionED1Ev)
    t._ZN19QDeclarativePrivate19QDeclarativeElementI36QDeclarativeOrganizerItemDescriptionED1Ev.clean 0x00028474   Section       10  plugin.o(t._ZN19QDeclarativePrivate19QDeclarativeElementI36QDeclarativeOrganizerItemDescriptionED1Ev.clean)
    t._ZN19QDeclarativePrivate19QDeclarativeElementI36QDeclarativeOrganizerItemUnionFilterED1Ev 0x00028480   Section       28  plugin.o(t._ZN19QDeclarativePrivate19QDeclarativeElementI36QDeclarativeOrganizerItemUnionFilterED1Ev)
    t._ZN19QDeclarativePrivate19QDeclarativeElementI36QDeclarativeOrganizerItemUnionFilterED1Ev.clean 0x0002849c   Section       10  plugin.o(t._ZN19QDeclarativePrivate19QDeclarativeElementI36QDeclarativeOrganizerItemUnionFilterED1Ev.clean)
    t._ZN19QDeclarativePrivate19QDeclarativeElementI37QDeclarativeOrganizerItemDetailFilterED1Ev 0x000284a8   Section       32  plugin.o(t._ZN19QDeclarativePrivate19QDeclarativeElementI37QDeclarativeOrganizerItemDetailFilterED1Ev)
    t._ZN19QDeclarativePrivate19QDeclarativeElementI37QDeclarativeOrganizerItemDetailFilterED1Ev.clean 0x000284c8   Section       10  plugin.o(t._ZN19QDeclarativePrivate19QDeclarativeElementI37QDeclarativeOrganizerItemDetailFilterED1Ev.clean)
    t._ZN19QDeclarativePrivate19QDeclarativeElementI37QDeclarativeOrganizerItemDisplayLabelED1Ev 0x000284d4   Section       32  plugin.o(t._ZN19QDeclarativePrivate19QDeclarativeElementI37QDeclarativeOrganizerItemDisplayLabelED1Ev)
    t._ZN19QDeclarativePrivate19QDeclarativeElementI37QDeclarativeOrganizerItemDisplayLabelED1Ev.clean 0x000284f4   Section       10  plugin.o(t._ZN19QDeclarativePrivate19QDeclarativeElementI37QDeclarativeOrganizerItemDisplayLabelED1Ev.clean)
    t._ZN19QDeclarativePrivate19QDeclarativeElementI38QDeclarativeOrganizerItemEmailReminderED1Ev 0x00028500   Section       32  plugin.o(t._ZN19QDeclarativePrivate19QDeclarativeElementI38QDeclarativeOrganizerItemEmailReminderED1Ev)
    t._ZN19QDeclarativePrivate19QDeclarativeElementI38QDeclarativeOrganizerItemEmailReminderED1Ev.clean 0x00028520   Section       10  plugin.o(t._ZN19QDeclarativePrivate19QDeclarativeElementI38QDeclarativeOrganizerItemEmailReminderED1Ev.clean)
    t._ZN19QDeclarativePrivate19QDeclarativeElementI38QDeclarativeOrganizerItemInvalidFilterED1Ev 0x0002852c   Section       32  plugin.o(t._ZN19QDeclarativePrivate19QDeclarativeElementI38QDeclarativeOrganizerItemInvalidFilterED1Ev)
    t._ZN19QDeclarativePrivate19QDeclarativeElementI38QDeclarativeOrganizerItemInvalidFilterED1Ev.clean 0x0002854c   Section       10  plugin.o(t._ZN19QDeclarativePrivate19QDeclarativeElementI38QDeclarativeOrganizerItemInvalidFilterED1Ev.clean)
    t._ZN19QDeclarativePrivate19QDeclarativeElementI39QDeclarativeOrganizerItemVisualReminderED1Ev 0x00028558   Section       32  plugin.o(t._ZN19QDeclarativePrivate19QDeclarativeElementI39QDeclarativeOrganizerItemVisualReminderED1Ev)
    t._ZN19QDeclarativePrivate19QDeclarativeElementI39QDeclarativeOrganizerItemVisualReminderED1Ev.clean 0x00028578   Section       10  plugin.o(t._ZN19QDeclarativePrivate19QDeclarativeElementI39QDeclarativeOrganizerItemVisualReminderED1Ev.clean)
    t._ZN19QDeclarativePrivate19QDeclarativeElementI40QDeclarativeOrganizerItemAudibleReminderED1Ev 0x00028584   Section       32  plugin.o(t._ZN19QDeclarativePrivate19QDeclarativeElementI40QDeclarativeOrganizerItemAudibleReminderED1Ev)
    t._ZN19QDeclarativePrivate19QDeclarativeElementI40QDeclarativeOrganizerItemAudibleReminderED1Ev.clean 0x000285a4   Section       10  plugin.o(t._ZN19QDeclarativePrivate19QDeclarativeElementI40QDeclarativeOrganizerItemAudibleReminderED1Ev.clean)
    t._ZN19QDeclarativePrivate19QDeclarativeElementI40QDeclarativeOrganizerItemChangeLogFilterED1Ev 0x000285b0   Section       28  plugin.o(t._ZN19QDeclarativePrivate19QDeclarativeElementI40QDeclarativeOrganizerItemChangeLogFilterED1Ev)
    t._ZN19QDeclarativePrivate19QDeclarativeElementI40QDeclarativeOrganizerItemChangeLogFilterED1Ev.clean 0x000285cc   Section       10  plugin.o(t._ZN19QDeclarativePrivate19QDeclarativeElementI40QDeclarativeOrganizerItemChangeLogFilterED1Ev.clean)
    t._ZN19QDeclarativePrivate19QDeclarativeElementI41QDeclarativeOrganizerItemCollectionFilterED1Ev 0x000285d8   Section       28  plugin.o(t._ZN19QDeclarativePrivate19QDeclarativeElementI41QDeclarativeOrganizerItemCollectionFilterED1Ev)
    t._ZN19QDeclarativePrivate19QDeclarativeElementI41QDeclarativeOrganizerItemCollectionFilterED1Ev.clean 0x000285f4   Section       10  plugin.o(t._ZN19QDeclarativePrivate19QDeclarativeElementI41QDeclarativeOrganizerItemCollectionFilterED1Ev.clean)
    t._ZN19QDeclarativePrivate19QDeclarativeElementI42QDeclarativeOrganizerItemDetailRangeFilterED1Ev 0x00028600   Section       32  plugin.o(t._ZN19QDeclarativePrivate19QDeclarativeElementI42QDeclarativeOrganizerItemDetailRangeFilterED1Ev)
    t._ZN19QDeclarativePrivate19QDeclarativeElementI42QDeclarativeOrganizerItemDetailRangeFilterED1Ev.clean 0x00028620   Section       10  plugin.o(t._ZN19QDeclarativePrivate19QDeclarativeElementI42QDeclarativeOrganizerItemDetailRangeFilterED1Ev.clean)
    t._ZN19QDeclarativePrivate19QDeclarativeElementI43QDeclarativeOrganizerItemIntersectionFilterED1Ev 0x0002862c   Section       28  plugin.o(t._ZN19QDeclarativePrivate19QDeclarativeElementI43QDeclarativeOrganizerItemIntersectionFilterED1Ev)
    t._ZN19QDeclarativePrivate19QDeclarativeElementI43QDeclarativeOrganizerItemIntersectionFilterED1Ev.clean 0x00028648   Section       10  plugin.o(t._ZN19QDeclarativePrivate19QDeclarativeElementI43QDeclarativeOrganizerItemIntersectionFilterED1Ev.clean)
    t._ZN24QDeclarativeListPropertyI25QDeclarativeOrganizerItemEC1EP7QObjectPvPFvPS1_PS0_EPFiS5_EPFS6_S5_iEPFvS5_E 0x00028652   Section       26  qdeclarativeorganizermodel.o(t._ZN24QDeclarativeListPropertyI25QDeclarativeOrganizerItemEC1EP7QObjectPvPFvPS1_PS0_EPFiS5_EPFS6_S5_iEPFvS5_E)
    t._ZN24QDeclarativeListPropertyI31QDeclarativeOrganizerItemDetailEC1EP7QObjectPvPFvPS1_PS0_EPFiS5_EPFS6_S5_iEPFvS5_E 0x0002866c   Section       26  qdeclarativeorganizeritemmetaobject.o(t._ZN24QDeclarativeListPropertyI31QDeclarativeOrganizerItemDetailEC1EP7QObjectPvPFvPS1_PS0_EPFiS5_EPFS6_S5_iEPFvS5_E)
    t._ZN24QDeclarativeListPropertyI31QDeclarativeOrganizerItemDetailEC1Ev 0x00028686   Section       20  qdeclarativeorganizeritem.o(t._ZN24QDeclarativeListPropertyI31QDeclarativeOrganizerItemDetailEC1Ev)
    t._ZN24QDeclarativeListPropertyI31QDeclarativeOrganizerItemFilterE11qlist_clearEPS1_ 0x0002869a   Section       12  moc_qdeclarativeorganizeritemfilter_p.o(t._ZN24QDeclarativeListPropertyI31QDeclarativeOrganizerItemFilterE11qlist_clearEPS1_)
    t._ZN24QDeclarativeListPropertyI31QDeclarativeOrganizerItemFilterE11qlist_countEPS1_ 0x000286a6   Section       20  moc_qdeclarativeorganizeritemfilter_p.o(t._ZN24QDeclarativeListPropertyI31QDeclarativeOrganizerItemFilterE11qlist_countEPS1_)
    t._ZN24QDeclarativeListPropertyI31QDeclarativeOrganizerItemFilterE12qlist_appendEPS1_PS0_ 0x000286ba   Section       14  moc_qdeclarativeorganizeritemfilter_p.o(t._ZN24QDeclarativeListPropertyI31QDeclarativeOrganizerItemFilterE12qlist_appendEPS1_PS0_)
    t._ZN24QDeclarativeListPropertyI31QDeclarativeOrganizerItemFilterE8qlist_atEPS1_i 0x000286c8   Section       36  moc_qdeclarativeorganizeritemfilter_p.o(t._ZN24QDeclarativeListPropertyI31QDeclarativeOrganizerItemFilterE8qlist_atEPS1_i)
    t._ZN24QDeclarativeListPropertyI31QDeclarativeOrganizerItemFilterEC1EP7QObjectR5QListIPS0_E 0x000286ec   Section       44  moc_qdeclarativeorganizeritemfilter_p.o(t._ZN24QDeclarativeListPropertyI31QDeclarativeOrganizerItemFilterEC1EP7QObjectR5QListIPS0_E)
    t._ZN24QDeclarativeListPropertyI35QDeclarativeOrganizerRecurrenceRuleE11qlist_clearEPS1_ 0x00028718   Section       12  moc_qdeclarativeorganizeritemdetail_p.o(t._ZN24QDeclarativeListPropertyI35QDeclarativeOrganizerRecurrenceRuleE11qlist_clearEPS1_)
    t._ZN24QDeclarativeListPropertyI35QDeclarativeOrganizerRecurrenceRuleE11qlist_countEPS1_ 0x00028724   Section       14  moc_qdeclarativeorganizeritemdetail_p.o(t._ZN24QDeclarativeListPropertyI35QDeclarativeOrganizerRecurrenceRuleE11qlist_countEPS1_)
    t._ZN24QDeclarativeListPropertyI35QDeclarativeOrganizerRecurrenceRuleE12qlist_appendEPS1_PS0_ 0x00028732   Section       14  moc_qdeclarativeorganizeritemdetail_p.o(t._ZN24QDeclarativeListPropertyI35QDeclarativeOrganizerRecurrenceRuleE12qlist_appendEPS1_PS0_)
    t._ZN24QDeclarativeListPropertyI35QDeclarativeOrganizerRecurrenceRuleE8qlist_atEPS1_i 0x00028740   Section       36  moc_qdeclarativeorganizeritemdetail_p.o(t._ZN24QDeclarativeListPropertyI35QDeclarativeOrganizerRecurrenceRuleE8qlist_atEPS1_i)
    t._ZN24QDeclarativeListPropertyI35QDeclarativeOrganizerRecurrenceRuleEC1EP7QObjectR5QListIPS0_E 0x00028764   Section       44  moc_qdeclarativeorganizeritemdetail_p.o(t._ZN24QDeclarativeListPropertyI35QDeclarativeOrganizerRecurrenceRuleEC1EP7QObjectR5QListIPS0_E)
    t._ZN35QDeclarativeOrganizerItemMetaObject6detailI29QDeclarativeOrganizerItemGuidEEPT_v 0x00028790   Section       88  qdeclarativeorganizeritem.o(t._ZN35QDeclarativeOrganizerItemMetaObject6detailI29QDeclarativeOrganizerItemGuidEEPT_v)
    t._ZN35QDeclarativeOrganizerItemMetaObject6detailI29QDeclarativeOrganizerItemGuidEEPT_v.clean 0x000287e8   Section       18  qdeclarativeorganizeritem.o(t._ZN35QDeclarativeOrganizerItemMetaObject6detailI29QDeclarativeOrganizerItemGuidEEPT_v.clean)
    t._ZN35QDeclarativeOrganizerItemMetaObject6detailI29QDeclarativeOrganizerTodoTimeEEPT_v 0x000287fc   Section       88  qdeclarativeorganizeritem.o(t._ZN35QDeclarativeOrganizerItemMetaObject6detailI29QDeclarativeOrganizerTodoTimeEEPT_v)
    t._ZN35QDeclarativeOrganizerItemMetaObject6detailI29QDeclarativeOrganizerTodoTimeEEPT_v.clean 0x00028854   Section       18  qdeclarativeorganizeritem.o(t._ZN35QDeclarativeOrganizerItemMetaObject6detailI29QDeclarativeOrganizerTodoTimeEEPT_v.clean)
    t._ZN35QDeclarativeOrganizerItemMetaObject6detailI30QDeclarativeOrganizerEventTimeEEPT_v 0x00028868   Section       88  qdeclarativeorganizeritem.o(t._ZN35QDeclarativeOrganizerItemMetaObject6detailI30QDeclarativeOrganizerEventTimeEEPT_v)
    t._ZN35QDeclarativeOrganizerItemMetaObject6detailI30QDeclarativeOrganizerEventTimeEEPT_v.clean 0x000288c0   Section       18  qdeclarativeorganizeritem.o(t._ZN35QDeclarativeOrganizerItemMetaObject6detailI30QDeclarativeOrganizerEventTimeEEPT_v.clean)
    t._ZN35QDeclarativeOrganizerItemMetaObject6detailI31QDeclarativeOrganizerItemParentEEPT_v 0x000288d4   Section       88  qdeclarativeorganizeritem.o(t._ZN35QDeclarativeOrganizerItemMetaObject6detailI31QDeclarativeOrganizerItemParentEEPT_v)
    t._ZN35QDeclarativeOrganizerItemMetaObject6detailI31QDeclarativeOrganizerItemParentEEPT_v.clean 0x0002892c   Section       18  qdeclarativeorganizeritem.o(t._ZN35QDeclarativeOrganizerItemMetaObject6detailI31QDeclarativeOrganizerItemParentEEPT_v.clean)
    t._ZN35QDeclarativeOrganizerItemMetaObject6detailI32QDeclarativeOrganizerJournalTimeEEPT_v 0x00028940   Section       88  qdeclarativeorganizeritem.o(t._ZN35QDeclarativeOrganizerItemMetaObject6detailI32QDeclarativeOrganizerJournalTimeEEPT_v)
    t._ZN35QDeclarativeOrganizerItemMetaObject6detailI32QDeclarativeOrganizerJournalTimeEEPT_v.clean 0x00028998   Section       18  qdeclarativeorganizeritem.o(t._ZN35QDeclarativeOrganizerItemMetaObject6detailI32QDeclarativeOrganizerJournalTimeEEPT_v.clean)
    t._ZN35QDeclarativeOrganizerItemMetaObject6detailI33QDeclarativeOrganizerItemLocationEEPT_v 0x000289ac   Section       88  qdeclarativeorganizeritem.o(t._ZN35QDeclarativeOrganizerItemMetaObject6detailI33QDeclarativeOrganizerItemLocationEEPT_v)
    t._ZN35QDeclarativeOrganizerItemMetaObject6detailI33QDeclarativeOrganizerItemLocationEEPT_v.clean 0x00028a04   Section       18  qdeclarativeorganizeritem.o(t._ZN35QDeclarativeOrganizerItemMetaObject6detailI33QDeclarativeOrganizerItemLocationEEPT_v.clean)
    t._ZN35QDeclarativeOrganizerItemMetaObject6detailI33QDeclarativeOrganizerItemPriorityEEPT_v 0x00028a18   Section       88  qdeclarativeorganizeritem.o(t._ZN35QDeclarativeOrganizerItemMetaObject6detailI33QDeclarativeOrganizerItemPriorityEEPT_v)
    t._ZN35QDeclarativeOrganizerItemMetaObject6detailI33QDeclarativeOrganizerItemPriorityEEPT_v.clean 0x00028a70   Section       18  qdeclarativeorganizeritem.o(t._ZN35QDeclarativeOrganizerItemMetaObject6detailI33QDeclarativeOrganizerItemPriorityEEPT_v.clean)
    t._ZN35QDeclarativeOrganizerItemMetaObject6detailI33QDeclarativeOrganizerTodoProgressEEPT_v 0x00028a84   Section       88  qdeclarativeorganizeritem.o(t._ZN35QDeclarativeOrganizerItemMetaObject6detailI33QDeclarativeOrganizerTodoProgressEEPT_v)
    t._ZN35QDeclarativeOrganizerItemMetaObject6detailI33QDeclarativeOrganizerTodoProgressEEPT_v.clean 0x00028adc   Section       18  qdeclarativeorganizeritem.o(t._ZN35QDeclarativeOrganizerItemMetaObject6detailI33QDeclarativeOrganizerTodoProgressEEPT_v.clean)
    t._ZN35QDeclarativeOrganizerItemMetaObject6detailI36QDeclarativeOrganizerItemDescriptionEEPT_v 0x00028af0   Section       88  qdeclarativeorganizeritem.o(t._ZN35QDeclarativeOrganizerItemMetaObject6detailI36QDeclarativeOrganizerItemDescriptionEEPT_v)
    t._ZN35QDeclarativeOrganizerItemMetaObject6detailI36QDeclarativeOrganizerItemDescriptionEEPT_v.clean 0x00028b48   Section       18  qdeclarativeorganizeritem.o(t._ZN35QDeclarativeOrganizerItemMetaObject6detailI36QDeclarativeOrganizerItemDescriptionEEPT_v.clean)
    t._ZN35QDeclarativeOrganizerItemMetaObject6detailI37QDeclarativeOrganizerItemDisplayLabelEEPT_v 0x00028b5c   Section       88  qdeclarativeorganizeritem.o(t._ZN35QDeclarativeOrganizerItemMetaObject6detailI37QDeclarativeOrganizerItemDisplayLabelEEPT_v)
    t._ZN35QDeclarativeOrganizerItemMetaObject6detailI37QDeclarativeOrganizerItemDisplayLabelEEPT_v.clean 0x00028bb4   Section       18  qdeclarativeorganizeritem.o(t._ZN35QDeclarativeOrganizerItemMetaObject6detailI37QDeclarativeOrganizerItemDisplayLabelEEPT_v.clean)
    t._ZN4QMapI7QString8QVariantE8freeDataEP8QMapData 0x00028bc6   Section       64  moc_qdeclarativeorganizeritemdetail_p.o(t._ZN4QMapI7QString8QVariantE8freeDataEP8QMapData)
    t._ZN4QMapI7QString8QVariantED1Ev        0x00028c06   Section       38  moc_qdeclarativeorganizeritemdetail_p.o(t._ZN4QMapI7QString8QVariantED1Ev)
    t._ZN4QMapI7QStringN10QtMobility30QOrganizerItemDetailDefinitionEE11node_createEP8QMapDataPPNS4_4NodeERKS0_RKS2_ 0x00028c2c   Section      148  qdeclarativeorganizeritem.o(t._ZN4QMapI7QStringN10QtMobility30QOrganizerItemDetailDefinitionEE11node_createEP8QMapDataPPNS4_4NodeERKS0_RKS2_)
    t._ZN4QMapI7QStringN10QtMobility30QOrganizerItemDetailDefinitionEE11node_createEP8QMapDataPPNS4_4NodeERKS0_RKS2_.clean 0x00028cc0   Section       38  qdeclarativeorganizeritem.o(t._ZN4QMapI7QStringN10QtMobility30QOrganizerItemDetailDefinitionEE11node_createEP8QMapDataPPNS4_4NodeERKS0_RKS2_.clean)
    t._ZN4QMapI7QStringN10QtMobility30QOrganizerItemDetailDefinitionEE13detach_helperEv 0x00028ce6   Section      146  qdeclarativeorganizeritem.o(t._ZN4QMapI7QStringN10QtMobility30QOrganizerItemDetailDefinitionEE13detach_helperEv)
    t._ZN4QMapI7QStringN10QtMobility30QOrganizerItemDetailDefinitionEE13detach_helperEv.clean 0x00028d78   Section        8  qdeclarativeorganizeritem.o(t._ZN4QMapI7QStringN10QtMobility30QOrganizerItemDetailDefinitionEE13detach_helperEv.clean)
    t._ZN4QMapI7QStringN10QtMobility30QOrganizerItemDetailDefinitionEE8freeDataEP8QMapData 0x00028d80   Section       62  qdeclarativeorganizeritem.o(t._ZN4QMapI7QStringN10QtMobility30QOrganizerItemDetailDefinitionEE8freeDataEP8QMapData)
    t._ZN4QMapI7QStringN10QtMobility30QOrganizerItemDetailDefinitionEED1Ev 0x00028dbe   Section       38  qdeclarativeorganizeritemmetaobject.o(t._ZN4QMapI7QStringN10QtMobility30QOrganizerItemDetailDefinitionEED1Ev)
    t._ZN4QMapI7QStringP25QDeclarativeOrganizerItemE11node_createEP8QMapDataPPNS4_4NodeERKS0_RKS2_ 0x00028de4   Section      118  qdeclarativeorganizermodel.o(t._ZN4QMapI7QStringP25QDeclarativeOrganizerItemE11node_createEP8QMapDataPPNS4_4NodeERKS0_RKS2_)
    t._ZN4QMapI7QStringP25QDeclarativeOrganizerItemE11node_createEP8QMapDataPPNS4_4NodeERKS0_RKS2_.clean 0x00028e5a   Section       20  qdeclarativeorganizermodel.o(t._ZN4QMapI7QStringP25QDeclarativeOrganizerItemE11node_createEP8QMapDataPPNS4_4NodeERKS0_RKS2_.clean)
    t._ZN4QMapI7QStringP25QDeclarativeOrganizerItemE13detach_helperEv 0x00028e6e   Section      146  qdeclarativeorganizermodel.o(t._ZN4QMapI7QStringP25QDeclarativeOrganizerItemE13detach_helperEv)
    t._ZN4QMapI7QStringP25QDeclarativeOrganizerItemE13detach_helperEv.clean 0x00028f00   Section        8  qdeclarativeorganizermodel.o(t._ZN4QMapI7QStringP25QDeclarativeOrganizerItemE13detach_helperEv.clean)
    t._ZN4QMapI7QStringP25QDeclarativeOrganizerItemE6detachEv 0x00028f08   Section       28  qdeclarativeorganizermodel.o(t._ZN4QMapI7QStringP25QDeclarativeOrganizerItemE6detachEv)
    t._ZN4QMapI7QStringP25QDeclarativeOrganizerItemE6insertERKS0_RKS2_ 0x00028f24   Section       74  qdeclarativeorganizermodel.o(t._ZN4QMapI7QStringP25QDeclarativeOrganizerItemE6insertERKS0_RKS2_)
    t._ZN4QMapI7QStringP25QDeclarativeOrganizerItemE6removeERKS0_ 0x00028f6e   Section      254  qdeclarativeorganizermodel.o(t._ZN4QMapI7QStringP25QDeclarativeOrganizerItemE6removeERKS0_)
    t._ZN4QMapI7QStringP25QDeclarativeOrganizerItemE8freeDataEP8QMapData 0x0002906c   Section       56  qdeclarativeorganizermodel.o(t._ZN4QMapI7QStringP25QDeclarativeOrganizerItemE8freeDataEP8QMapData)
    t._ZN4QMapI7QStringP25QDeclarativeOrganizerItemEC1Ev 0x000290a4   Section       28  qdeclarativeorganizermodel.o(t._ZN4QMapI7QStringP25QDeclarativeOrganizerItemEC1Ev)
    t._ZN4QMapI7QStringP25QDeclarativeOrganizerItemED1Ev 0x000290c0   Section       38  qdeclarativeorganizermodel.o(t._ZN4QMapI7QStringP25QDeclarativeOrganizerItemED1Ev)
    t._ZN4QMapI7QStringS0_E8freeDataEP8QMapData 0x000290e6   Section       62  qdeclarativeorganizermodel.o(t._ZN4QMapI7QStringS0_E8freeDataEP8QMapData)
    t._ZN4QMapI7QStringS0_ED1Ev              0x00029124   Section       38  qdeclarativeorganizermodel.o(t._ZN4QMapI7QStringS0_ED1Ev)
    t._ZN4QMapIiN10QtMobility17QOrganizerManager5ErrorEE8freeDataEP8QMapData 0x0002914a   Section       48  qdeclarativeorganizermodel.o(t._ZN4QMapIiN10QtMobility17QOrganizerManager5ErrorEE8freeDataEP8QMapData)
    t._ZN4QMapIiN10QtMobility17QOrganizerManager5ErrorEED1Ev 0x0002917a   Section       38  qdeclarativeorganizermodel.o(t._ZN4QMapIiN10QtMobility17QOrganizerManager5ErrorEED1Ev)
    t._ZN4QSetIN10QtMobility24QOrganizerRecurrenceRule5MonthEE6insertERKS2_ 0x000291a0   Section      200  moc_qdeclarativeorganizerrecurrencerule_p.o(t._ZN4QSetIN10QtMobility24QOrganizerRecurrenceRule5MonthEE6insertERKS2_)
    t._ZN4QSetIN10QtMobility24QOrganizerRecurrenceRule5MonthEE6insertERKS2_.clean 0x00029268   Section        4  moc_qdeclarativeorganizerrecurrencerule_p.o(t._ZN4QSetIN10QtMobility24QOrganizerRecurrenceRule5MonthEE6insertERKS2_.clean)
    t._ZN4QSetIN10QtMobility24QOrganizerRecurrenceRuleEEC1Ev 0x0002926c   Section       28  moc_qdeclarativeorganizeritemdetail_p.o(t._ZN4QSetIN10QtMobility24QOrganizerRecurrenceRuleEEC1Ev)
    t._ZN4QSetIN10QtMobility24QOrganizerRecurrenceRuleEElsERKS1_ 0x00029288   Section       50  moc_qdeclarativeorganizeritemdetail_p.o(t._ZN4QSetIN10QtMobility24QOrganizerRecurrenceRuleEElsERKS1_)
    t._ZN4QSetIN2Qt9DayOfWeekEE6insertERKS1_ 0x000292ba   Section      200  moc_qdeclarativeorganizerrecurrencerule_p.o(t._ZN4QSetIN2Qt9DayOfWeekEE6insertERKS1_)
    t._ZN4QSetIN2Qt9DayOfWeekEE6insertERKS1_.clean 0x00029382   Section        4  moc_qdeclarativeorganizerrecurrencerule_p.o(t._ZN4QSetIN2Qt9DayOfWeekEE6insertERKS1_.clean)
    t._ZN4QSetIiE14const_iteratorppEv        0x00029386   Section       20  moc_qdeclarativeorganizerrecurrencerule_p.o(t._ZN4QSetIiE14const_iteratorppEv)
    t._ZN4QSetIiEC1Ev                        0x0002939c   Section       28  moc_qdeclarativeorganizerrecurrencerule_p.o(t._ZN4QSetIiEC1Ev)
    t._ZN4QSetIiElsERKi                      0x000293b8   Section      200  moc_qdeclarativeorganizerrecurrencerule_p.o(t._ZN4QSetIiElsERKi)
    t._ZN4QSetIiElsERKi.clean                0x00029480   Section        4  moc_qdeclarativeorganizerrecurrencerule_p.o(t._ZN4QSetIiElsERKi.clean)
    t._ZN5QHashI5QDate15QHashDummyValueE11deleteNode2EPN9QHashData4NodeE 0x00029484   Section        6  qdeclarativeorganizermodel.o(t._ZN5QHashI5QDate15QHashDummyValueE11deleteNode2EPN9QHashData4NodeE)
    t._ZN5QHashI5QDate15QHashDummyValueE8freeDataEP9QHashData 0x0002948c   Section       20  qdeclarativeorganizermodel.o(t._ZN5QHashI5QDate15QHashDummyValueE8freeDataEP9QHashData)
    t._ZN5QHashI5QDate15QHashDummyValueED1Ev 0x000294a0   Section       30  qdeclarativeorganizermodel.o(t._ZN5QHashI5QDate15QHashDummyValueED1Ev)
    t._ZN5QHashIN10QtMobility22QOrganizerCollectionIdE15QHashDummyValueE11deleteNode2EPN9QHashData4NodeE 0x000294be   Section       24  qdeclarativeorganizeritemfilter.o(t._ZN5QHashIN10QtMobility22QOrganizerCollectionIdE15QHashDummyValueE11deleteNode2EPN9QHashData4NodeE)
    t._ZN5QHashIN10QtMobility22QOrganizerCollectionIdE15QHashDummyValueE13detach_helperEv 0x000294d8   Section       60  qdeclarativeorganizeritemfilter.o(t._ZN5QHashIN10QtMobility22QOrganizerCollectionIdE15QHashDummyValueE13detach_helperEv)
    t._ZN5QHashIN10QtMobility22QOrganizerCollectionIdE15QHashDummyValueE13duplicateNodeEPN9QHashData4NodeEPv 0x00029514   Section       44  qdeclarativeorganizeritemfilter.o(t._ZN5QHashIN10QtMobility22QOrganizerCollectionIdE15QHashDummyValueE13duplicateNodeEPN9QHashData4NodeEPv)
    t._ZN5QHashIN10QtMobility22QOrganizerCollectionIdE15QHashDummyValueE13duplicateNodeEPN9QHashData4NodeEPv.clean 0x00029540   Section       12  qdeclarativeorganizeritemfilter.o(t._ZN5QHashIN10QtMobility22QOrganizerCollectionIdE15QHashDummyValueE13duplicateNodeEPN9QHashData4NodeEPv.clean)
    t._ZN5QHashIN10QtMobility22QOrganizerCollectionIdE15QHashDummyValueE6insertERKS1_RKS2_ 0x0002954c   Section      208  qdeclarativeorganizeritemfilter.o(t._ZN5QHashIN10QtMobility22QOrganizerCollectionIdE15QHashDummyValueE6insertERKS1_RKS2_)
    t._ZN5QHashIN10QtMobility22QOrganizerCollectionIdE15QHashDummyValueE6insertERKS1_RKS2_.clean 0x0002961c   Section       12  qdeclarativeorganizeritemfilter.o(t._ZN5QHashIN10QtMobility22QOrganizerCollectionIdE15QHashDummyValueE6insertERKS1_RKS2_.clean)
    t._ZN5QHashIN10QtMobility22QOrganizerCollectionIdE15QHashDummyValueE8freeDataEP9QHashData 0x00029628   Section       20  qdeclarativeorganizeritemfilter.o(t._ZN5QHashIN10QtMobility22QOrganizerCollectionIdE15QHashDummyValueE8freeDataEP9QHashData)
    t._ZN5QHashIN10QtMobility22QOrganizerCollectionIdE15QHashDummyValueED1Ev 0x0002963c   Section       30  qdeclarativeorganizeritemfilter.o(t._ZN5QHashIN10QtMobility22QOrganizerCollectionIdE15QHashDummyValueED1Ev)
    t._ZN5QHashIN10QtMobility24QOrganizerRecurrenceRule5MonthE15QHashDummyValueE11deleteNode2EPN9QHashData4NodeE 0x0002965a   Section        6  moc_qdeclarativeorganizerrecurrencerule_p.o(t._ZN5QHashIN10QtMobility24QOrganizerRecurrenceRule5MonthE15QHashDummyValueE11deleteNode2EPN9QHashData4NodeE)
    t._ZN5QHashIN10QtMobility24QOrganizerRecurrenceRule5MonthE15QHashDummyValueE13detach_helperEv 0x00029660   Section       60  moc_qdeclarativeorganizerrecurrencerule_p.o(t._ZN5QHashIN10QtMobility24QOrganizerRecurrenceRule5MonthE15QHashDummyValueE13detach_helperEv)
    t._ZN5QHashIN10QtMobility24QOrganizerRecurrenceRule5MonthE15QHashDummyValueE13duplicateNodeEPN9QHashData4NodeEPv 0x0002969c   Section       40  moc_qdeclarativeorganizerrecurrencerule_p.o(t._ZN5QHashIN10QtMobility24QOrganizerRecurrenceRule5MonthE15QHashDummyValueE13duplicateNodeEPN9QHashData4NodeEPv)
    t._ZN5QHashIN10QtMobility24QOrganizerRecurrenceRule5MonthE15QHashDummyValueE6detachEv 0x000296c4   Section       28  moc_qdeclarativeorganizerrecurrencerule_p.o(t._ZN5QHashIN10QtMobility24QOrganizerRecurrenceRule5MonthE15QHashDummyValueE6detachEv)
    t._ZN5QHashIN10QtMobility24QOrganizerRecurrenceRule5MonthE15QHashDummyValueE8freeDataEP9QHashData 0x000296e0   Section       20  moc_qdeclarativeorganizerrecurrencerule_p.o(t._ZN5QHashIN10QtMobility24QOrganizerRecurrenceRule5MonthE15QHashDummyValueE8freeDataEP9QHashData)
    t._ZN5QHashIN10QtMobility24QOrganizerRecurrenceRule5MonthE15QHashDummyValueED1Ev 0x000296f4   Section       30  moc_qdeclarativeorganizerrecurrencerule_p.o(t._ZN5QHashIN10QtMobility24QOrganizerRecurrenceRule5MonthE15QHashDummyValueED1Ev)
    t._ZN5QHashIN10QtMobility24QOrganizerRecurrenceRuleE15QHashDummyValueE11deleteNode2EPN9QHashData4NodeE 0x00029712   Section       24  moc_qdeclarativeorganizeritemdetail_p.o(t._ZN5QHashIN10QtMobility24QOrganizerRecurrenceRuleE15QHashDummyValueE11deleteNode2EPN9QHashData4NodeE)
    t._ZN5QHashIN10QtMobility24QOrganizerRecurrenceRuleE15QHashDummyValueE13detach_helperEv 0x0002972c   Section       60  moc_qdeclarativeorganizeritemdetail_p.o(t._ZN5QHashIN10QtMobility24QOrganizerRecurrenceRuleE15QHashDummyValueE13detach_helperEv)
    t._ZN5QHashIN10QtMobility24QOrganizerRecurrenceRuleE15QHashDummyValueE13duplicateNodeEPN9QHashData4NodeEPv 0x00029768   Section       44  moc_qdeclarativeorganizeritemdetail_p.o(t._ZN5QHashIN10QtMobility24QOrganizerRecurrenceRuleE15QHashDummyValueE13duplicateNodeEPN9QHashData4NodeEPv)
    t._ZN5QHashIN10QtMobility24QOrganizerRecurrenceRuleE15QHashDummyValueE13duplicateNodeEPN9QHashData4NodeEPv.clean 0x00029794   Section       12  moc_qdeclarativeorganizeritemdetail_p.o(t._ZN5QHashIN10QtMobility24QOrganizerRecurrenceRuleE15QHashDummyValueE13duplicateNodeEPN9QHashData4NodeEPv.clean)
    t._ZN5QHashIN10QtMobility24QOrganizerRecurrenceRuleE15QHashDummyValueE6detachEv 0x000297a0   Section       28  moc_qdeclarativeorganizeritemdetail_p.o(t._ZN5QHashIN10QtMobility24QOrganizerRecurrenceRuleE15QHashDummyValueE6detachEv)
    t._ZN5QHashIN10QtMobility24QOrganizerRecurrenceRuleE15QHashDummyValueE6insertERKS1_RKS2_ 0x000297bc   Section      190  moc_qdeclarativeorganizeritemdetail_p.o(t._ZN5QHashIN10QtMobility24QOrganizerRecurrenceRuleE15QHashDummyValueE6insertERKS1_RKS2_)
    t._ZN5QHashIN10QtMobility24QOrganizerRecurrenceRuleE15QHashDummyValueE6insertERKS1_RKS2_.clean 0x0002987a   Section       12  moc_qdeclarativeorganizeritemdetail_p.o(t._ZN5QHashIN10QtMobility24QOrganizerRecurrenceRuleE15QHashDummyValueE6insertERKS1_RKS2_.clean)
    t._ZN5QHashIN10QtMobility24QOrganizerRecurrenceRuleE15QHashDummyValueE8freeDataEP9QHashData 0x00029888   Section       20  moc_qdeclarativeorganizeritemdetail_p.o(t._ZN5QHashIN10QtMobility24QOrganizerRecurrenceRuleE15QHashDummyValueE8freeDataEP9QHashData)
    t._ZN5QHashIN10QtMobility24QOrganizerRecurrenceRuleE15QHashDummyValueED1Ev 0x0002989c   Section       30  moc_qdeclarativeorganizeritemdetail_p.o(t._ZN5QHashIN10QtMobility24QOrganizerRecurrenceRuleE15QHashDummyValueED1Ev)
    t._ZN5QHashIN2Qt9DayOfWeekE15QHashDummyValueE11deleteNode2EPN9QHashData4NodeE 0x000298ba   Section        6  moc_qdeclarativeorganizerrecurrencerule_p.o(t._ZN5QHashIN2Qt9DayOfWeekE15QHashDummyValueE11deleteNode2EPN9QHashData4NodeE)
    t._ZN5QHashIN2Qt9DayOfWeekE15QHashDummyValueE13detach_helperEv 0x000298c0   Section       60  moc_qdeclarativeorganizerrecurrencerule_p.o(t._ZN5QHashIN2Qt9DayOfWeekE15QHashDummyValueE13detach_helperEv)
    t._ZN5QHashIN2Qt9DayOfWeekE15QHashDummyValueE13duplicateNodeEPN9QHashData4NodeEPv 0x000298fc   Section       40  moc_qdeclarativeorganizerrecurrencerule_p.o(t._ZN5QHashIN2Qt9DayOfWeekE15QHashDummyValueE13duplicateNodeEPN9QHashData4NodeEPv)
    t._ZN5QHashIN2Qt9DayOfWeekE15QHashDummyValueE6detachEv 0x00029924   Section       28  moc_qdeclarativeorganizerrecurrencerule_p.o(t._ZN5QHashIN2Qt9DayOfWeekE15QHashDummyValueE6detachEv)
    t._ZN5QHashIN2Qt9DayOfWeekE15QHashDummyValueE8freeDataEP9QHashData 0x00029940   Section       20  moc_qdeclarativeorganizerrecurrencerule_p.o(t._ZN5QHashIN2Qt9DayOfWeekE15QHashDummyValueE8freeDataEP9QHashData)
    t._ZN5QHashIN2Qt9DayOfWeekE15QHashDummyValueED1Ev 0x00029954   Section       30  moc_qdeclarativeorganizerrecurrencerule_p.o(t._ZN5QHashIN2Qt9DayOfWeekE15QHashDummyValueED1Ev)
    t._ZN5QHashIi10QByteArrayE11deleteNode2EPN9QHashData4NodeE 0x00029972   Section       24  qdeclarativeorganizermodel.o(t._ZN5QHashIi10QByteArrayE11deleteNode2EPN9QHashData4NodeE)
    t._ZN5QHashIi10QByteArrayE13detach_helperEv 0x0002998c   Section       60  qdeclarativeorganizermodel.o(t._ZN5QHashIi10QByteArrayE13detach_helperEv)
    t._ZN5QHashIi10QByteArrayE13duplicateNodeEPN9QHashData4NodeEPv 0x000299c8   Section       46  qdeclarativeorganizermodel.o(t._ZN5QHashIi10QByteArrayE13duplicateNodeEPN9QHashData4NodeEPv)
    t._ZN5QHashIi10QByteArrayE13duplicateNodeEPN9QHashData4NodeEPv.clean 0x000299f6   Section       14  qdeclarativeorganizermodel.o(t._ZN5QHashIi10QByteArrayE13duplicateNodeEPN9QHashData4NodeEPv.clean)
    t._ZN5QHashIi10QByteArrayE6insertERKiRKS0_ 0x00029a04   Section      228  qdeclarativeorganizermodel.o(t._ZN5QHashIi10QByteArrayE6insertERKiRKS0_)
    t._ZN5QHashIi10QByteArrayE6insertERKiRKS0_.clean 0x00029ae8   Section       14  qdeclarativeorganizermodel.o(t._ZN5QHashIi10QByteArrayE6insertERKiRKS0_.clean)
    t._ZN5QHashIi10QByteArrayE8freeDataEP9QHashData 0x00029af8   Section       20  qdeclarativeorganizermodel.o(t._ZN5QHashIi10QByteArrayE8freeDataEP9QHashData)
    t._ZN5QHashIi10QByteArrayED1Ev           0x00029b0c   Section       30  qdeclarativeorganizermodel.o(t._ZN5QHashIi10QByteArrayED1Ev)
    t._ZN5QHashIi15QHashDummyValueE11deleteNode2EPN9QHashData4NodeE 0x00029b2a   Section        6  moc_qdeclarativeorganizerrecurrencerule_p.o(t._ZN5QHashIi15QHashDummyValueE11deleteNode2EPN9QHashData4NodeE)
    t._ZN5QHashIi15QHashDummyValueE13detach_helperEv 0x00029b30   Section       60  moc_qdeclarativeorganizerrecurrencerule_p.o(t._ZN5QHashIi15QHashDummyValueE13detach_helperEv)
    t._ZN5QHashIi15QHashDummyValueE13duplicateNodeEPN9QHashData4NodeEPv 0x00029b6c   Section       34  moc_qdeclarativeorganizerrecurrencerule_p.o(t._ZN5QHashIi15QHashDummyValueE13duplicateNodeEPN9QHashData4NodeEPv)
    t._ZN5QHashIi15QHashDummyValueE6detachEv 0x00029b8e   Section       28  moc_qdeclarativeorganizerrecurrencerule_p.o(t._ZN5QHashIi15QHashDummyValueE6detachEv)
    t._ZN5QHashIi15QHashDummyValueE8freeDataEP9QHashData 0x00029bac   Section       20  moc_qdeclarativeorganizerrecurrencerule_p.o(t._ZN5QHashIi15QHashDummyValueE8freeDataEP9QHashData)
    t._ZN5QHashIi15QHashDummyValueED1Ev      0x00029bc0   Section       30  moc_qdeclarativeorganizerrecurrencerule_p.o(t._ZN5QHashIi15QHashDummyValueED1Ev)
    t._ZN5QHashIiP26OrganizerItemDetailNameMapE11deleteNode2EPN9QHashData4NodeE 0x00029bde   Section        6  qdeclarativeorganizeritemmetaobject.o(t._ZN5QHashIiP26OrganizerItemDetailNameMapE11deleteNode2EPN9QHashData4NodeE)
    t._ZN5QHashIiP26OrganizerItemDetailNameMapE13detach_helperEv 0x00029be4   Section       60  qdeclarativeorganizeritemmetaobject.o(t._ZN5QHashIiP26OrganizerItemDetailNameMapE13detach_helperEv)
    t._ZN5QHashIiP26OrganizerItemDetailNameMapE13duplicateNodeEPN9QHashData4NodeEPv 0x00029c20   Section       42  qdeclarativeorganizeritemmetaobject.o(t._ZN5QHashIiP26OrganizerItemDetailNameMapE13duplicateNodeEPN9QHashData4NodeEPv)
    t._ZN5QHashIiP26OrganizerItemDetailNameMapE6insertERKiRKS1_ 0x00029c4a   Section      224  qdeclarativeorganizeritemmetaobject.o(t._ZN5QHashIiP26OrganizerItemDetailNameMapE6insertERKiRKS1_)
    t._ZN5QHashIiP26OrganizerItemDetailNameMapE6insertERKiRKS1_.clean 0x00029d2a   Section        4  qdeclarativeorganizeritemmetaobject.o(t._ZN5QHashIiP26OrganizerItemDetailNameMapE6insertERKiRKS1_.clean)
    t._ZN5QHashIiP26OrganizerItemDetailNameMapE8freeDataEP9QHashData 0x00029d30   Section       20  qdeclarativeorganizeritemmetaobject.o(t._ZN5QHashIiP26OrganizerItemDetailNameMapE8freeDataEP9QHashData)
    t._ZN5QHashIiP26OrganizerItemDetailNameMapED1Ev 0x00029d44   Section       30  qdeclarativeorganizeritemmetaobject.o(t._ZN5QHashIiP26OrganizerItemDetailNameMapED1Ev)
    t._ZN5QListI10QByteArrayE13detach_helperEi 0x00029d62   Section       94  qmetaobjectbuilder.o(t._ZN5QListI10QByteArrayE13detach_helperEi)
    t._ZN5QListI10QByteArrayE13detach_helperEi.clean 0x00029dc0   Section        8  qmetaobjectbuilder.o(t._ZN5QListI10QByteArrayE13detach_helperEi.clean)
    t._ZN5QListI10QByteArrayE13detach_helperEv 0x00029dc8   Section       16  qmetaobjectbuilder.o(t._ZN5QListI10QByteArrayE13detach_helperEv)
    t._ZN5QListI10QByteArrayE13node_destructEPNS1_4NodeES3_ 0x00029dd8   Section       26  qmetaobjectbuilder.o(t._ZN5QListI10QByteArrayE13node_destructEPNS1_4NodeES3_)
    t._ZN5QListI10QByteArrayE14node_constructEPNS1_4NodeERKS0_ 0x00029df2   Section       36  qmetaobjectbuilder.o(t._ZN5QListI10QByteArrayE14node_constructEPNS1_4NodeERKS0_)
    t._ZN5QListI10QByteArrayE14node_constructEPNS1_4NodeERKS0_.clean 0x00029e16   Section       14  qmetaobjectbuilder.o(t._ZN5QListI10QByteArrayE14node_constructEPNS1_4NodeERKS0_.clean)
    t._ZN5QListI10QByteArrayE18detach_helper_growEii 0x00029e24   Section      208  qmetaobjectbuilder.o(t._ZN5QListI10QByteArrayE18detach_helper_growEii)
    t._ZN5QListI10QByteArrayE18detach_helper_growEii.clean 0x00029ef4   Section       16  qmetaobjectbuilder.o(t._ZN5QListI10QByteArrayE18detach_helper_growEii.clean)
    t._ZN5QListI10QByteArrayE4freeEPN9QListData4DataE 0x00029f04   Section       52  qmetaobjectbuilder.o(t._ZN5QListI10QByteArrayE4freeEPN9QListData4DataE)
    t._ZN5QListI10QByteArrayE5clearEv        0x00029f38   Section       28  qmetaobjectbuilder.o(t._ZN5QListI10QByteArrayE5clearEv)
    t._ZN5QListI10QByteArrayE5clearEv.clean  0x00029f54   Section       10  qmetaobjectbuilder.o(t._ZN5QListI10QByteArrayE5clearEv.clean)
    t._ZN5QListI10QByteArrayE6appendERKS0_   0x00029f60   Section      120  qmetaobjectbuilder.o(t._ZN5QListI10QByteArrayE6appendERKS0_)
    t._ZN5QListI10QByteArrayE6appendERKS0_.clean 0x00029fd8   Section       14  qmetaobjectbuilder.o(t._ZN5QListI10QByteArrayE6appendERKS0_.clean)
    t._ZN5QListI10QByteArrayE6detachEv       0x00029fe6   Section       24  qmetaobjectbuilder.o(t._ZN5QListI10QByteArrayE6detachEv)
    t._ZN5QListI10QByteArrayE7reserveEi      0x00029ffe   Section       46  qmetaobjectbuilder.o(t._ZN5QListI10QByteArrayE7reserveEi)
    t._ZN5QListI10QByteArrayE8removeAtEi     0x0002a02c   Section       56  qmetaobjectbuilder.o(t._ZN5QListI10QByteArrayE8removeAtEi)
    t._ZN5QListI10QByteArrayE9node_copyEPNS1_4NodeES3_S3_ 0x0002a064   Section       82  qmetaobjectbuilder.o(t._ZN5QListI10QByteArrayE9node_copyEPNS1_4NodeES3_S3_)
    t._ZN5QListI10QByteArrayE9node_copyEPNS1_4NodeES3_S3_.clean 0x0002a0b6   Section       22  qmetaobjectbuilder.o(t._ZN5QListI10QByteArrayE9node_copyEPNS1_4NodeES3_S3_.clean)
    t._ZN5QListI10QByteArrayEC1ERKS1_        0x0002a0cc   Section       36  qmetaobjectbuilder.o(t._ZN5QListI10QByteArrayEC1ERKS1_)
    t._ZN5QListI10QByteArrayEC1Ev            0x0002a0f0   Section       24  qmetaobjectbuilder.o(t._ZN5QListI10QByteArrayEC1Ev)
    t._ZN5QListI10QByteArrayED1Ev            0x0002a108   Section       32  qmetaobjectbuilder.o(t._ZN5QListI10QByteArrayED1Ev)
    t._ZN5QListI10QByteArrayEaSERKS1_        0x0002a128   Section       64  qmetaobjectbuilder.o(t._ZN5QListI10QByteArrayEaSERKS1_)
    t._ZN5QListI10QByteArrayEixEi            0x0002a168   Section       28  qmetaobjectbuilder.o(t._ZN5QListI10QByteArrayEixEi)
    t._ZN5QListI23QMetaEnumBuilderPrivateE13detach_helperEi 0x0002a184   Section       94  qmetaobjectbuilder.o(t._ZN5QListI23QMetaEnumBuilderPrivateE13detach_helperEi)
    t._ZN5QListI23QMetaEnumBuilderPrivateE13detach_helperEi.clean 0x0002a1e2   Section        8  qmetaobjectbuilder.o(t._ZN5QListI23QMetaEnumBuilderPrivateE13detach_helperEi.clean)
    t._ZN5QListI23QMetaEnumBuilderPrivateE13detach_helperEv 0x0002a1ea   Section       16  qmetaobjectbuilder.o(t._ZN5QListI23QMetaEnumBuilderPrivateE13detach_helperEv)
    t._ZN5QListI23QMetaEnumBuilderPrivateE13node_destructEPNS1_4NodeE 0x0002a1fa   Section       28  qmetaobjectbuilder.o(t._ZN5QListI23QMetaEnumBuilderPrivateE13node_destructEPNS1_4NodeE)
    t._ZN5QListI23QMetaEnumBuilderPrivateE13node_destructEPNS1_4NodeES3_ 0x0002a216   Section       38  qmetaobjectbuilder.o(t._ZN5QListI23QMetaEnumBuilderPrivateE13node_destructEPNS1_4NodeES3_)
    t._ZN5QListI23QMetaEnumBuilderPrivateE14node_constructEPNS1_4NodeERKS0_ 0x0002a23c   Section       34  qmetaobjectbuilder.o(t._ZN5QListI23QMetaEnumBuilderPrivateE14node_constructEPNS1_4NodeERKS0_)
    t._ZN5QListI23QMetaEnumBuilderPrivateE14node_constructEPNS1_4NodeERKS0_.clean 0x0002a25e   Section       14  qmetaobjectbuilder.o(t._ZN5QListI23QMetaEnumBuilderPrivateE14node_constructEPNS1_4NodeERKS0_.clean)
    t._ZN5QListI23QMetaEnumBuilderPrivateE18detach_helper_growEii 0x0002a26c   Section      208  qmetaobjectbuilder.o(t._ZN5QListI23QMetaEnumBuilderPrivateE18detach_helper_growEii)
    t._ZN5QListI23QMetaEnumBuilderPrivateE18detach_helper_growEii.clean 0x0002a33c   Section       16  qmetaobjectbuilder.o(t._ZN5QListI23QMetaEnumBuilderPrivateE18detach_helper_growEii.clean)
    t._ZN5QListI23QMetaEnumBuilderPrivateE4freeEPN9QListData4DataE 0x0002a34c   Section       52  qmetaobjectbuilder.o(t._ZN5QListI23QMetaEnumBuilderPrivateE4freeEPN9QListData4DataE)
    t._ZN5QListI23QMetaEnumBuilderPrivateE5clearEv 0x0002a380   Section       76  qmetaobjectbuilder.o(t._ZN5QListI23QMetaEnumBuilderPrivateE5clearEv)
    t._ZN5QListI23QMetaEnumBuilderPrivateE5clearEv.clean 0x0002a3cc   Section       10  qmetaobjectbuilder.o(t._ZN5QListI23QMetaEnumBuilderPrivateE5clearEv.clean)
    t._ZN5QListI23QMetaEnumBuilderPrivateE6appendERKS0_ 0x0002a3d8   Section      112  qmetaobjectbuilder.o(t._ZN5QListI23QMetaEnumBuilderPrivateE6appendERKS0_)
    t._ZN5QListI23QMetaEnumBuilderPrivateE6appendERKS0_.clean 0x0002a448   Section       14  qmetaobjectbuilder.o(t._ZN5QListI23QMetaEnumBuilderPrivateE6appendERKS0_.clean)
    t._ZN5QListI23QMetaEnumBuilderPrivateE6detachEv 0x0002a456   Section       24  qmetaobjectbuilder.o(t._ZN5QListI23QMetaEnumBuilderPrivateE6detachEv)
    t._ZN5QListI23QMetaEnumBuilderPrivateE9node_copyEPNS1_4NodeES3_S3_ 0x0002a46e   Section       92  qmetaobjectbuilder.o(t._ZN5QListI23QMetaEnumBuilderPrivateE9node_copyEPNS1_4NodeES3_S3_)
    t._ZN5QListI23QMetaEnumBuilderPrivateE9node_copyEPNS1_4NodeES3_S3_.clean 0x0002a4ca   Section       22  qmetaobjectbuilder.o(t._ZN5QListI23QMetaEnumBuilderPrivateE9node_copyEPNS1_4NodeES3_S3_.clean)
    t._ZN5QListI23QMetaEnumBuilderPrivateEC1Ev 0x0002a4e0   Section       24  qmetaobjectbuilder.o(t._ZN5QListI23QMetaEnumBuilderPrivateEC1Ev)
    t._ZN5QListI23QMetaEnumBuilderPrivateED1Ev 0x0002a4f8   Section       32  qmetaobjectbuilder.o(t._ZN5QListI23QMetaEnumBuilderPrivateED1Ev)
    t._ZN5QListI23QMetaEnumBuilderPrivateEixEi 0x0002a518   Section       28  qmetaobjectbuilder.o(t._ZN5QListI23QMetaEnumBuilderPrivateEixEi)
    t._ZN5QListI25QMetaMethodBuilderPrivateE13detach_helperEi 0x0002a534   Section       94  qmetaobjectbuilder.o(t._ZN5QListI25QMetaMethodBuilderPrivateE13detach_helperEi)
    t._ZN5QListI25QMetaMethodBuilderPrivateE13detach_helperEi.clean 0x0002a592   Section        8  qmetaobjectbuilder.o(t._ZN5QListI25QMetaMethodBuilderPrivateE13detach_helperEi.clean)
    t._ZN5QListI25QMetaMethodBuilderPrivateE13detach_helperEv 0x0002a59a   Section       16  qmetaobjectbuilder.o(t._ZN5QListI25QMetaMethodBuilderPrivateE13detach_helperEv)
    t._ZN5QListI25QMetaMethodBuilderPrivateE13node_destructEPNS1_4NodeE 0x0002a5aa   Section       28  qmetaobjectbuilder.o(t._ZN5QListI25QMetaMethodBuilderPrivateE13node_destructEPNS1_4NodeE)
    t._ZN5QListI25QMetaMethodBuilderPrivateE13node_destructEPNS1_4NodeES3_ 0x0002a5c6   Section       38  qmetaobjectbuilder.o(t._ZN5QListI25QMetaMethodBuilderPrivateE13node_destructEPNS1_4NodeES3_)
    t._ZN5QListI25QMetaMethodBuilderPrivateE14node_constructEPNS1_4NodeERKS0_ 0x0002a5ec   Section       34  qmetaobjectbuilder.o(t._ZN5QListI25QMetaMethodBuilderPrivateE14node_constructEPNS1_4NodeERKS0_)
    t._ZN5QListI25QMetaMethodBuilderPrivateE14node_constructEPNS1_4NodeERKS0_.clean 0x0002a60e   Section       14  qmetaobjectbuilder.o(t._ZN5QListI25QMetaMethodBuilderPrivateE14node_constructEPNS1_4NodeERKS0_.clean)
    t._ZN5QListI25QMetaMethodBuilderPrivateE18detach_helper_growEii 0x0002a61c   Section      208  qmetaobjectbuilder.o(t._ZN5QListI25QMetaMethodBuilderPrivateE18detach_helper_growEii)
    t._ZN5QListI25QMetaMethodBuilderPrivateE18detach_helper_growEii.clean 0x0002a6ec   Section       16  qmetaobjectbuilder.o(t._ZN5QListI25QMetaMethodBuilderPrivateE18detach_helper_growEii.clean)
    t._ZN5QListI25QMetaMethodBuilderPrivateE4freeEPN9QListData4DataE 0x0002a6fc   Section       52  qmetaobjectbuilder.o(t._ZN5QListI25QMetaMethodBuilderPrivateE4freeEPN9QListData4DataE)
    t._ZN5QListI25QMetaMethodBuilderPrivateE5clearEv 0x0002a730   Section       76  qmetaobjectbuilder.o(t._ZN5QListI25QMetaMethodBuilderPrivateE5clearEv)
    t._ZN5QListI25QMetaMethodBuilderPrivateE5clearEv.clean 0x0002a77c   Section       10  qmetaobjectbuilder.o(t._ZN5QListI25QMetaMethodBuilderPrivateE5clearEv.clean)
    t._ZN5QListI25QMetaMethodBuilderPrivateE6appendERKS0_ 0x0002a788   Section      112  qmetaobjectbuilder.o(t._ZN5QListI25QMetaMethodBuilderPrivateE6appendERKS0_)
    t._ZN5QListI25QMetaMethodBuilderPrivateE6appendERKS0_.clean 0x0002a7f8   Section       14  qmetaobjectbuilder.o(t._ZN5QListI25QMetaMethodBuilderPrivateE6appendERKS0_.clean)
    t._ZN5QListI25QMetaMethodBuilderPrivateE6detachEv 0x0002a806   Section       24  qmetaobjectbuilder.o(t._ZN5QListI25QMetaMethodBuilderPrivateE6detachEv)
    t._ZN5QListI25QMetaMethodBuilderPrivateE8removeAtEi 0x0002a81e   Section       54  qmetaobjectbuilder.o(t._ZN5QListI25QMetaMethodBuilderPrivateE8removeAtEi)
    t._ZN5QListI25QMetaMethodBuilderPrivateE9node_copyEPNS1_4NodeES3_S3_ 0x0002a854   Section       92  qmetaobjectbuilder.o(t._ZN5QListI25QMetaMethodBuilderPrivateE9node_copyEPNS1_4NodeES3_S3_)
    t._ZN5QListI25QMetaMethodBuilderPrivateE9node_copyEPNS1_4NodeES3_S3_.clean 0x0002a8b0   Section       22  qmetaobjectbuilder.o(t._ZN5QListI25QMetaMethodBuilderPrivateE9node_copyEPNS1_4NodeES3_S3_.clean)
    t._ZN5QListI25QMetaMethodBuilderPrivateEC1Ev 0x0002a8c8   Section       24  qmetaobjectbuilder.o(t._ZN5QListI25QMetaMethodBuilderPrivateEC1Ev)
    t._ZN5QListI25QMetaMethodBuilderPrivateED1Ev 0x0002a8e0   Section       32  qmetaobjectbuilder.o(t._ZN5QListI25QMetaMethodBuilderPrivateED1Ev)
    t._ZN5QListI25QMetaMethodBuilderPrivateEixEi 0x0002a900   Section       28  qmetaobjectbuilder.o(t._ZN5QListI25QMetaMethodBuilderPrivateEixEi)
    t._ZN5QListI27QMetaPropertyBuilderPrivateE13detach_helperEi 0x0002a91c   Section       94  qmetaobjectbuilder.o(t._ZN5QListI27QMetaPropertyBuilderPrivateE13detach_helperEi)
    t._ZN5QListI27QMetaPropertyBuilderPrivateE13detach_helperEi.clean 0x0002a97a   Section        8  qmetaobjectbuilder.o(t._ZN5QListI27QMetaPropertyBuilderPrivateE13detach_helperEi.clean)
    t._ZN5QListI27QMetaPropertyBuilderPrivateE13detach_helperEv 0x0002a982   Section       16  qmetaobjectbuilder.o(t._ZN5QListI27QMetaPropertyBuilderPrivateE13detach_helperEv)
    t._ZN5QListI27QMetaPropertyBuilderPrivateE13node_destructEPNS1_4NodeE 0x0002a992   Section       28  qmetaobjectbuilder.o(t._ZN5QListI27QMetaPropertyBuilderPrivateE13node_destructEPNS1_4NodeE)
    t._ZN5QListI27QMetaPropertyBuilderPrivateE13node_destructEPNS1_4NodeES3_ 0x0002a9ae   Section       38  qmetaobjectbuilder.o(t._ZN5QListI27QMetaPropertyBuilderPrivateE13node_destructEPNS1_4NodeES3_)
    t._ZN5QListI27QMetaPropertyBuilderPrivateE14node_constructEPNS1_4NodeERKS0_ 0x0002a9d4   Section       34  qmetaobjectbuilder.o(t._ZN5QListI27QMetaPropertyBuilderPrivateE14node_constructEPNS1_4NodeERKS0_)
    t._ZN5QListI27QMetaPropertyBuilderPrivateE14node_constructEPNS1_4NodeERKS0_.clean 0x0002a9f6   Section       14  qmetaobjectbuilder.o(t._ZN5QListI27QMetaPropertyBuilderPrivateE14node_constructEPNS1_4NodeERKS0_.clean)
    t._ZN5QListI27QMetaPropertyBuilderPrivateE18detach_helper_growEii 0x0002aa04   Section      208  qmetaobjectbuilder.o(t._ZN5QListI27QMetaPropertyBuilderPrivateE18detach_helper_growEii)
    t._ZN5QListI27QMetaPropertyBuilderPrivateE18detach_helper_growEii.clean 0x0002aad4   Section       16  qmetaobjectbuilder.o(t._ZN5QListI27QMetaPropertyBuilderPrivateE18detach_helper_growEii.clean)
    t._ZN5QListI27QMetaPropertyBuilderPrivateE4freeEPN9QListData4DataE 0x0002aae4   Section       52  qmetaobjectbuilder.o(t._ZN5QListI27QMetaPropertyBuilderPrivateE4freeEPN9QListData4DataE)
    t._ZN5QListI27QMetaPropertyBuilderPrivateE5clearEv 0x0002ab18   Section       76  qmetaobjectbuilder.o(t._ZN5QListI27QMetaPropertyBuilderPrivateE5clearEv)
    t._ZN5QListI27QMetaPropertyBuilderPrivateE5clearEv.clean 0x0002ab64   Section       10  qmetaobjectbuilder.o(t._ZN5QListI27QMetaPropertyBuilderPrivateE5clearEv.clean)
    t._ZN5QListI27QMetaPropertyBuilderPrivateE6appendERKS0_ 0x0002ab70   Section      112  qmetaobjectbuilder.o(t._ZN5QListI27QMetaPropertyBuilderPrivateE6appendERKS0_)
    t._ZN5QListI27QMetaPropertyBuilderPrivateE6appendERKS0_.clean 0x0002abe0   Section       14  qmetaobjectbuilder.o(t._ZN5QListI27QMetaPropertyBuilderPrivateE6appendERKS0_.clean)
    t._ZN5QListI27QMetaPropertyBuilderPrivateE6detachEv 0x0002abee   Section       24  qmetaobjectbuilder.o(t._ZN5QListI27QMetaPropertyBuilderPrivateE6detachEv)
    t._ZN5QListI27QMetaPropertyBuilderPrivateE9node_copyEPNS1_4NodeES3_S3_ 0x0002ac06   Section       92  qmetaobjectbuilder.o(t._ZN5QListI27QMetaPropertyBuilderPrivateE9node_copyEPNS1_4NodeES3_S3_)
    t._ZN5QListI27QMetaPropertyBuilderPrivateE9node_copyEPNS1_4NodeES3_S3_.clean 0x0002ac62   Section       22  qmetaobjectbuilder.o(t._ZN5QListI27QMetaPropertyBuilderPrivateE9node_copyEPNS1_4NodeES3_S3_.clean)
    t._ZN5QListI27QMetaPropertyBuilderPrivateEC1Ev 0x0002ac78   Section       24  qmetaobjectbuilder.o(t._ZN5QListI27QMetaPropertyBuilderPrivateEC1Ev)
    t._ZN5QListI27QMetaPropertyBuilderPrivateED1Ev 0x0002ac90   Section       32  qmetaobjectbuilder.o(t._ZN5QListI27QMetaPropertyBuilderPrivateED1Ev)
    t._ZN5QListI27QMetaPropertyBuilderPrivateEixEi 0x0002acb0   Section       28  qmetaobjectbuilder.o(t._ZN5QListI27QMetaPropertyBuilderPrivateEixEi)
    t._ZN5QListI7QStringE13detach_helperEi   0x0002accc   Section       94  moc_qdeclarativeorganizeritemdetail_p.o(t._ZN5QListI7QStringE13detach_helperEi)
    t._ZN5QListI7QStringE13detach_helperEi.clean 0x0002ad2a   Section        8  moc_qdeclarativeorganizeritemdetail_p.o(t._ZN5QListI7QStringE13detach_helperEi.clean)
    t._ZN5QListI7QStringE13detach_helperEv   0x0002ad32   Section       16  moc_qdeclarativeorganizermodel_p.o(t._ZN5QListI7QStringE13detach_helperEv)
    t._ZN5QListI7QStringE13node_destructEPNS1_4NodeES3_ 0x0002ad42   Section       26  moc_qdeclarativeorganizeritemdetail_p.o(t._ZN5QListI7QStringE13node_destructEPNS1_4NodeES3_)
    t._ZN5QListI7QStringE14node_constructEPNS1_4NodeERKS0_ 0x0002ad5c   Section       36  moc_qdeclarativeorganizeritemdetail_p.o(t._ZN5QListI7QStringE14node_constructEPNS1_4NodeERKS0_)
    t._ZN5QListI7QStringE14node_constructEPNS1_4NodeERKS0_.clean 0x0002ad80   Section       14  moc_qdeclarativeorganizeritemdetail_p.o(t._ZN5QListI7QStringE14node_constructEPNS1_4NodeERKS0_.clean)
    t._ZN5QListI7QStringE18detach_helper_growEii 0x0002ad8e   Section      208  moc_qdeclarativeorganizeritemdetail_p.o(t._ZN5QListI7QStringE18detach_helper_growEii)
    t._ZN5QListI7QStringE18detach_helper_growEii.clean 0x0002ae5e   Section       16  moc_qdeclarativeorganizeritemdetail_p.o(t._ZN5QListI7QStringE18detach_helper_growEii.clean)
    t._ZN5QListI7QStringE4freeEPN9QListData4DataE 0x0002ae6e   Section       52  qdeclarativeorganizermodel.o(t._ZN5QListI7QStringE4freeEPN9QListData4DataE)
    t._ZN5QListI7QStringE5clearEv            0x0002aea2   Section       28  qdeclarativeorganizermodel.o(t._ZN5QListI7QStringE5clearEv)
    t._ZN5QListI7QStringE5clearEv.clean      0x0002aebe   Section       10  qdeclarativeorganizermodel.o(t._ZN5QListI7QStringE5clearEv.clean)
    t._ZN5QListI7QStringE6appendERKS0_       0x0002aec8   Section      120  moc_qdeclarativeorganizeritemdetail_p.o(t._ZN5QListI7QStringE6appendERKS0_)
    t._ZN5QListI7QStringE6appendERKS0_.clean 0x0002af40   Section       14  moc_qdeclarativeorganizeritemdetail_p.o(t._ZN5QListI7QStringE6appendERKS0_.clean)
    t._ZN5QListI7QStringE7reserveEi          0x0002af4e   Section       46  moc_qdeclarativeorganizeritemdetail_p.o(t._ZN5QListI7QStringE7reserveEi)
    t._ZN5QListI7QStringE9node_copyEPNS1_4NodeES3_S3_ 0x0002af7c   Section       82  moc_qdeclarativeorganizeritemdetail_p.o(t._ZN5QListI7QStringE9node_copyEPNS1_4NodeES3_S3_)
    t._ZN5QListI7QStringE9node_copyEPNS1_4NodeES3_S3_.clean 0x0002afce   Section       22  moc_qdeclarativeorganizeritemdetail_p.o(t._ZN5QListI7QStringE9node_copyEPNS1_4NodeES3_S3_.clean)
    t._ZN5QListI7QStringEC1ERKS1_            0x0002afe4   Section       36  moc_qdeclarativeorganizeritemdetail_p.o(t._ZN5QListI7QStringEC1ERKS1_)
    t._ZN5QListI7QStringEC1Ev                0x0002b008   Section       24  moc_qdeclarativeorganizeritemdetail_p.o(t._ZN5QListI7QStringEC1Ev)
    t._ZN5QListI7QStringED1Ev                0x0002b020   Section       32  moc_qdeclarativeorganizermodel_p.o(t._ZN5QListI7QStringED1Ev)
    t._ZN5QListI7QStringEaSERKS1_            0x0002b040   Section       64  qdeclarativeorganizermodel.o(t._ZN5QListI7QStringEaSERKS1_)
    t._ZN5QListI7QStringElsERKS0_            0x0002b080   Section       18  qdeclarativeorganizermodel.o(t._ZN5QListI7QStringElsERKS0_)
    t._ZN5QListI8QVariantE13detach_helperEi  0x0002b092   Section       94  moc_qdeclarativeorganizerrecurrencerule_p.o(t._ZN5QListI8QVariantE13detach_helperEi)
    t._ZN5QListI8QVariantE13detach_helperEi.clean 0x0002b0f0   Section        8  moc_qdeclarativeorganizerrecurrencerule_p.o(t._ZN5QListI8QVariantE13detach_helperEi.clean)
    t._ZN5QListI8QVariantE13detach_helperEv  0x0002b0f8   Section       16  moc_qdeclarativeorganizeritemdetail_p.o(t._ZN5QListI8QVariantE13detach_helperEv)
    t._ZN5QListI8QVariantE13node_destructEPNS1_4NodeES3_ 0x0002b108   Section       38  moc_qdeclarativeorganizerrecurrencerule_p.o(t._ZN5QListI8QVariantE13node_destructEPNS1_4NodeES3_)
    t._ZN5QListI8QVariantE14node_constructEPNS1_4NodeERKS0_ 0x0002b12e   Section       34  moc_qdeclarativeorganizerrecurrencerule_p.o(t._ZN5QListI8QVariantE14node_constructEPNS1_4NodeERKS0_)
    t._ZN5QListI8QVariantE14node_constructEPNS1_4NodeERKS0_.clean 0x0002b150   Section       14  moc_qdeclarativeorganizerrecurrencerule_p.o(t._ZN5QListI8QVariantE14node_constructEPNS1_4NodeERKS0_.clean)
    t._ZN5QListI8QVariantE18detach_helper_growEii 0x0002b15e   Section      208  moc_qdeclarativeorganizerrecurrencerule_p.o(t._ZN5QListI8QVariantE18detach_helper_growEii)
    t._ZN5QListI8QVariantE18detach_helper_growEii.clean 0x0002b22e   Section       16  moc_qdeclarativeorganizerrecurrencerule_p.o(t._ZN5QListI8QVariantE18detach_helper_growEii.clean)
    t._ZN5QListI8QVariantE4freeEPN9QListData4DataE 0x0002b23e   Section       58  moc_qdeclarativeorganizerrecurrencerule_p.o(t._ZN5QListI8QVariantE4freeEPN9QListData4DataE)
    t._ZN5QListI8QVariantE6appendERKS0_      0x0002b278   Section      112  moc_qdeclarativeorganizerrecurrencerule_p.o(t._ZN5QListI8QVariantE6appendERKS0_)
    t._ZN5QListI8QVariantE6appendERKS0_.clean 0x0002b2e8   Section       14  moc_qdeclarativeorganizerrecurrencerule_p.o(t._ZN5QListI8QVariantE6appendERKS0_.clean)
    t._ZN5QListI8QVariantE9node_copyEPNS1_4NodeES3_S3_ 0x0002b2f6   Section       92  moc_qdeclarativeorganizerrecurrencerule_p.o(t._ZN5QListI8QVariantE9node_copyEPNS1_4NodeES3_S3_)
    t._ZN5QListI8QVariantE9node_copyEPNS1_4NodeES3_S3_.clean 0x0002b352   Section       22  moc_qdeclarativeorganizerrecurrencerule_p.o(t._ZN5QListI8QVariantE9node_copyEPNS1_4NodeES3_S3_.clean)
    t._ZN5QListI8QVariantEC1ERKS1_           0x0002b368   Section       36  moc_qdeclarativeorganizeritemdetail_p.o(t._ZN5QListI8QVariantEC1ERKS1_)
    t._ZN5QListI8QVariantEC1Ev               0x0002b38c   Section       24  moc_qdeclarativeorganizeritemdetail_p.o(t._ZN5QListI8QVariantEC1Ev)
    t._ZN5QListI8QVariantED1Ev               0x0002b3a4   Section       32  moc_qdeclarativeorganizeritemdetail_p.o(t._ZN5QListI8QVariantED1Ev)
    t._ZN5QListI8QVariantEaSERKS1_           0x0002b3c4   Section       64  moc_qdeclarativeorganizeritemdetail_p.o(t._ZN5QListI8QVariantEaSERKS1_)
    t._ZN5QListI8QVariantElsERKS0_           0x0002b404   Section       18  moc_qdeclarativeorganizerrecurrencerule_p.o(t._ZN5QListI8QVariantElsERKS0_)
    t._ZN5QListIN10QtMobility14QOrganizerItemEE13detach_helperEi 0x0002b416   Section       94  qdeclarativeorganizermodel.o(t._ZN5QListIN10QtMobility14QOrganizerItemEE13detach_helperEi)
    t._ZN5QListIN10QtMobility14QOrganizerItemEE13detach_helperEi.clean 0x0002b474   Section        8  qdeclarativeorganizermodel.o(t._ZN5QListIN10QtMobility14QOrganizerItemEE13detach_helperEi.clean)
    t._ZN5QListIN10QtMobility14QOrganizerItemEE13detach_helperEv 0x0002b47c   Section       16  qdeclarativeorganizermodel.o(t._ZN5QListIN10QtMobility14QOrganizerItemEE13detach_helperEv)
    t._ZN5QListIN10QtMobility14QOrganizerItemEE13node_destructEPNS2_4NodeES4_ 0x0002b48c   Section       26  qdeclarativeorganizermodel.o(t._ZN5QListIN10QtMobility14QOrganizerItemEE13node_destructEPNS2_4NodeES4_)
    t._ZN5QListIN10QtMobility14QOrganizerItemEE14node_constructEPNS2_4NodeERKS1_ 0x0002b4a6   Section       36  qdeclarativeorganizermodel.o(t._ZN5QListIN10QtMobility14QOrganizerItemEE14node_constructEPNS2_4NodeERKS1_)
    t._ZN5QListIN10QtMobility14QOrganizerItemEE14node_constructEPNS2_4NodeERKS1_.clean 0x0002b4ca   Section       14  qdeclarativeorganizermodel.o(t._ZN5QListIN10QtMobility14QOrganizerItemEE14node_constructEPNS2_4NodeERKS1_.clean)
    t._ZN5QListIN10QtMobility14QOrganizerItemEE18detach_helper_growEii 0x0002b4d8   Section      208  qdeclarativeorganizermodel.o(t._ZN5QListIN10QtMobility14QOrganizerItemEE18detach_helper_growEii)
    t._ZN5QListIN10QtMobility14QOrganizerItemEE18detach_helper_growEii.clean 0x0002b5a8   Section       16  qdeclarativeorganizermodel.o(t._ZN5QListIN10QtMobility14QOrganizerItemEE18detach_helper_growEii.clean)
    t._ZN5QListIN10QtMobility14QOrganizerItemEE4freeEPN9QListData4DataE 0x0002b5b8   Section       52  qdeclarativeorganizermodel.o(t._ZN5QListIN10QtMobility14QOrganizerItemEE4freeEPN9QListData4DataE)
    t._ZN5QListIN10QtMobility14QOrganizerItemEE6appendERKS1_ 0x0002b5ec   Section      120  qdeclarativeorganizermodel.o(t._ZN5QListIN10QtMobility14QOrganizerItemEE6appendERKS1_)
    t._ZN5QListIN10QtMobility14QOrganizerItemEE6appendERKS1_.clean 0x0002b664   Section       14  qdeclarativeorganizermodel.o(t._ZN5QListIN10QtMobility14QOrganizerItemEE6appendERKS1_.clean)
    t._ZN5QListIN10QtMobility14QOrganizerItemEE9node_copyEPNS2_4NodeES4_S4_ 0x0002b672   Section       82  qdeclarativeorganizermodel.o(t._ZN5QListIN10QtMobility14QOrganizerItemEE9node_copyEPNS2_4NodeES4_S4_)
    t._ZN5QListIN10QtMobility14QOrganizerItemEE9node_copyEPNS2_4NodeES4_S4_.clean 0x0002b6c4   Section       22  qdeclarativeorganizermodel.o(t._ZN5QListIN10QtMobility14QOrganizerItemEE9node_copyEPNS2_4NodeES4_S4_.clean)
    t._ZN5QListIN10QtMobility14QOrganizerItemEEC1Ev 0x0002b6dc   Section       24  qdeclarativeorganizermodel.o(t._ZN5QListIN10QtMobility14QOrganizerItemEEC1Ev)
    t._ZN5QListIN10QtMobility14QOrganizerItemEED1Ev 0x0002b6f4   Section       32  qdeclarativeorganizermodel.o(t._ZN5QListIN10QtMobility14QOrganizerItemEED1Ev)
    t._ZN5QListIN10QtMobility14QOrganizerItemEEaSERKS2_ 0x0002b714   Section       64  qdeclarativeorganizermodel.o(t._ZN5QListIN10QtMobility14QOrganizerItemEEaSERKS2_)
    t._ZN5QListIN10QtMobility15QVersitDocumentEE4freeEPN9QListData4DataE 0x0002b754   Section       76  qdeclarativeorganizermodel.o(t._ZN5QListIN10QtMobility15QVersitDocumentEE4freeEPN9QListData4DataE)
    t._ZN5QListIN10QtMobility15QVersitDocumentEED1Ev 0x0002b7a0   Section       32  qdeclarativeorganizermodel.o(t._ZN5QListIN10QtMobility15QVersitDocumentEED1Ev)
    t._ZN5QListIN10QtMobility16QOrganizerItemIdEE13detach_helperEi 0x0002b7c0   Section       94  qdeclarativeorganizermodel.o(t._ZN5QListIN10QtMobility16QOrganizerItemIdEE13detach_helperEi)
    t._ZN5QListIN10QtMobility16QOrganizerItemIdEE13detach_helperEi.clean 0x0002b81e   Section        8  qdeclarativeorganizermodel.o(t._ZN5QListIN10QtMobility16QOrganizerItemIdEE13detach_helperEi.clean)
    t._ZN5QListIN10QtMobility16QOrganizerItemIdEE13detach_helperEv 0x0002b826   Section       16  qdeclarativeorganizermodel.o(t._ZN5QListIN10QtMobility16QOrganizerItemIdEE13detach_helperEv)
    t._ZN5QListIN10QtMobility16QOrganizerItemIdEE13node_destructEPNS2_4NodeES4_ 0x0002b836   Section       26  qdeclarativeorganizermodel.o(t._ZN5QListIN10QtMobility16QOrganizerItemIdEE13node_destructEPNS2_4NodeES4_)
    t._ZN5QListIN10QtMobility16QOrganizerItemIdEE14node_constructEPNS2_4NodeERKS1_ 0x0002b850   Section       36  qdeclarativeorganizermodel.o(t._ZN5QListIN10QtMobility16QOrganizerItemIdEE14node_constructEPNS2_4NodeERKS1_)
    t._ZN5QListIN10QtMobility16QOrganizerItemIdEE14node_constructEPNS2_4NodeERKS1_.clean 0x0002b874   Section       14  qdeclarativeorganizermodel.o(t._ZN5QListIN10QtMobility16QOrganizerItemIdEE14node_constructEPNS2_4NodeERKS1_.clean)
    t._ZN5QListIN10QtMobility16QOrganizerItemIdEE18detach_helper_growEii 0x0002b882   Section      208  qdeclarativeorganizermodel.o(t._ZN5QListIN10QtMobility16QOrganizerItemIdEE18detach_helper_growEii)
    t._ZN5QListIN10QtMobility16QOrganizerItemIdEE18detach_helper_growEii.clean 0x0002b952   Section       16  qdeclarativeorganizermodel.o(t._ZN5QListIN10QtMobility16QOrganizerItemIdEE18detach_helper_growEii.clean)
    t._ZN5QListIN10QtMobility16QOrganizerItemIdEE4freeEPN9QListData4DataE 0x0002b962   Section       52  qdeclarativeorganizermodel.o(t._ZN5QListIN10QtMobility16QOrganizerItemIdEE4freeEPN9QListData4DataE)
    t._ZN5QListIN10QtMobility16QOrganizerItemIdEE6appendERKS1_ 0x0002b998   Section      120  qdeclarativeorganizermodel.o(t._ZN5QListIN10QtMobility16QOrganizerItemIdEE6appendERKS1_)
    t._ZN5QListIN10QtMobility16QOrganizerItemIdEE6appendERKS1_.clean 0x0002ba10   Section       14  qdeclarativeorganizermodel.o(t._ZN5QListIN10QtMobility16QOrganizerItemIdEE6appendERKS1_.clean)
    t._ZN5QListIN10QtMobility16QOrganizerItemIdEE9node_copyEPNS2_4NodeES4_S4_ 0x0002ba1e   Section       82  qdeclarativeorganizermodel.o(t._ZN5QListIN10QtMobility16QOrganizerItemIdEE9node_copyEPNS2_4NodeES4_S4_)
    t._ZN5QListIN10QtMobility16QOrganizerItemIdEE9node_copyEPNS2_4NodeES4_S4_.clean 0x0002ba70   Section       22  qdeclarativeorganizermodel.o(t._ZN5QListIN10QtMobility16QOrganizerItemIdEE9node_copyEPNS2_4NodeES4_S4_.clean)
    t._ZN5QListIN10QtMobility16QOrganizerItemIdEEC1Ev 0x0002ba88   Section       24  qdeclarativeorganizermodel.o(t._ZN5QListIN10QtMobility16QOrganizerItemIdEEC1Ev)
    t._ZN5QListIN10QtMobility16QOrganizerItemIdEED1Ev 0x0002baa0   Section       32  qdeclarativeorganizermodel.o(t._ZN5QListIN10QtMobility16QOrganizerItemIdEED1Ev)
    t._ZN5QListIN10QtMobility20QOrganizerItemDetailEE13detach_helperEi 0x0002bac0   Section      176  qdeclarativeorganizeritemmetaobject.o(t._ZN5QListIN10QtMobility20QOrganizerItemDetailEE13detach_helperEi)
    t._ZN5QListIN10QtMobility20QOrganizerItemDetailEE13detach_helperEi.clean 0x0002bb70   Section       30  qdeclarativeorganizeritemmetaobject.o(t._ZN5QListIN10QtMobility20QOrganizerItemDetailEE13detach_helperEi.clean)
    t._ZN5QListIN10QtMobility20QOrganizerItemDetailEE13detach_helperEv 0x0002bb8e   Section       16  qdeclarativeorganizeritemmetaobject.o(t._ZN5QListIN10QtMobility20QOrganizerItemDetailEE13detach_helperEv)
    t._ZN5QListIN10QtMobility20QOrganizerItemDetailEE4freeEPN9QListData4DataE 0x0002bb9e   Section       70  qdeclarativeorganizeritemmetaobject.o(t._ZN5QListIN10QtMobility20QOrganizerItemDetailEE4freeEPN9QListData4DataE)
    t._ZN5QListIN10QtMobility20QOrganizerItemDetailEED1Ev 0x0002bbe4   Section       32  qdeclarativeorganizeritemmetaobject.o(t._ZN5QListIN10QtMobility20QOrganizerItemDetailEED1Ev)
    t._ZN5QListIN10QtMobility20QOrganizerItemFilterEE13node_destructEPNS2_4NodeES4_ 0x0002bc04   Section       26  moc_qdeclarativeorganizeritemfilter_p.o(t._ZN5QListIN10QtMobility20QOrganizerItemFilterEE13node_destructEPNS2_4NodeES4_)
    t._ZN5QListIN10QtMobility20QOrganizerItemFilterEE14node_constructEPNS2_4NodeERKS1_ 0x0002bc1e   Section       36  moc_qdeclarativeorganizeritemfilter_p.o(t._ZN5QListIN10QtMobility20QOrganizerItemFilterEE14node_constructEPNS2_4NodeERKS1_)
    t._ZN5QListIN10QtMobility20QOrganizerItemFilterEE14node_constructEPNS2_4NodeERKS1_.clean 0x0002bc42   Section       14  moc_qdeclarativeorganizeritemfilter_p.o(t._ZN5QListIN10QtMobility20QOrganizerItemFilterEE14node_constructEPNS2_4NodeERKS1_.clean)
    t._ZN5QListIN10QtMobility20QOrganizerItemFilterEE18detach_helper_growEii 0x0002bc50   Section      208  moc_qdeclarativeorganizeritemfilter_p.o(t._ZN5QListIN10QtMobility20QOrganizerItemFilterEE18detach_helper_growEii)
    t._ZN5QListIN10QtMobility20QOrganizerItemFilterEE18detach_helper_growEii.clean 0x0002bd20   Section       16  moc_qdeclarativeorganizeritemfilter_p.o(t._ZN5QListIN10QtMobility20QOrganizerItemFilterEE18detach_helper_growEii.clean)
    t._ZN5QListIN10QtMobility20QOrganizerItemFilterEE4freeEPN9QListData4DataE 0x0002bd30   Section       52  moc_qdeclarativeorganizeritemfilter_p.o(t._ZN5QListIN10QtMobility20QOrganizerItemFilterEE4freeEPN9QListData4DataE)
    t._ZN5QListIN10QtMobility20QOrganizerItemFilterEE6appendERKS1_ 0x0002bd64   Section      120  moc_qdeclarativeorganizeritemfilter_p.o(t._ZN5QListIN10QtMobility20QOrganizerItemFilterEE6appendERKS1_)
    t._ZN5QListIN10QtMobility20QOrganizerItemFilterEE6appendERKS1_.clean 0x0002bddc   Section       14  moc_qdeclarativeorganizeritemfilter_p.o(t._ZN5QListIN10QtMobility20QOrganizerItemFilterEE6appendERKS1_.clean)
    t._ZN5QListIN10QtMobility20QOrganizerItemFilterEE9node_copyEPNS2_4NodeES4_S4_ 0x0002bdea   Section       82  moc_qdeclarativeorganizeritemfilter_p.o(t._ZN5QListIN10QtMobility20QOrganizerItemFilterEE9node_copyEPNS2_4NodeES4_S4_)
    t._ZN5QListIN10QtMobility20QOrganizerItemFilterEE9node_copyEPNS2_4NodeES4_S4_.clean 0x0002be3c   Section       22  moc_qdeclarativeorganizeritemfilter_p.o(t._ZN5QListIN10QtMobility20QOrganizerItemFilterEE9node_copyEPNS2_4NodeES4_S4_.clean)
    t._ZN5QListIN10QtMobility20QOrganizerItemFilterEEC1Ev 0x0002be54   Section       24  moc_qdeclarativeorganizeritemfilter_p.o(t._ZN5QListIN10QtMobility20QOrganizerItemFilterEEC1Ev)
    t._ZN5QListIN10QtMobility20QOrganizerItemFilterEED1Ev 0x0002be6c   Section       32  moc_qdeclarativeorganizeritemfilter_p.o(t._ZN5QListIN10QtMobility20QOrganizerItemFilterEED1Ev)
    t._ZN5QListIN10QtMobility23QOrganizerItemSortOrderEE13detach_helperEi 0x0002be8c   Section       94  qdeclarativeorganizermodel.o(t._ZN5QListIN10QtMobility23QOrganizerItemSortOrderEE13detach_helperEi)
    t._ZN5QListIN10QtMobility23QOrganizerItemSortOrderEE13detach_helperEi.clean 0x0002beea   Section        8  qdeclarativeorganizermodel.o(t._ZN5QListIN10QtMobility23QOrganizerItemSortOrderEE13detach_helperEi.clean)
    t._ZN5QListIN10QtMobility23QOrganizerItemSortOrderEE13detach_helperEv 0x0002bef2   Section       16  qdeclarativeorganizermodel.o(t._ZN5QListIN10QtMobility23QOrganizerItemSortOrderEE13detach_helperEv)
    t._ZN5QListIN10QtMobility23QOrganizerItemSortOrderEE13node_destructEPNS2_4NodeES4_ 0x0002bf02   Section       26  qdeclarativeorganizermodel.o(t._ZN5QListIN10QtMobility23QOrganizerItemSortOrderEE13node_destructEPNS2_4NodeES4_)
    t._ZN5QListIN10QtMobility23QOrganizerItemSortOrderEE14node_constructEPNS2_4NodeERKS1_ 0x0002bf1c   Section       36  qdeclarativeorganizermodel.o(t._ZN5QListIN10QtMobility23QOrganizerItemSortOrderEE14node_constructEPNS2_4NodeERKS1_)
    t._ZN5QListIN10QtMobility23QOrganizerItemSortOrderEE14node_constructEPNS2_4NodeERKS1_.clean 0x0002bf40   Section       14  qdeclarativeorganizermodel.o(t._ZN5QListIN10QtMobility23QOrganizerItemSortOrderEE14node_constructEPNS2_4NodeERKS1_.clean)
    t._ZN5QListIN10QtMobility23QOrganizerItemSortOrderEE18detach_helper_growEii 0x0002bf4e   Section      208  qdeclarativeorganizermodel.o(t._ZN5QListIN10QtMobility23QOrganizerItemSortOrderEE18detach_helper_growEii)
    t._ZN5QListIN10QtMobility23QOrganizerItemSortOrderEE18detach_helper_growEii.clean 0x0002c01e   Section       16  qdeclarativeorganizermodel.o(t._ZN5QListIN10QtMobility23QOrganizerItemSortOrderEE18detach_helper_growEii.clean)
    t._ZN5QListIN10QtMobility23QOrganizerItemSortOrderEE4freeEPN9QListData4DataE 0x0002c02e   Section       52  qdeclarativeorganizermodel.o(t._ZN5QListIN10QtMobility23QOrganizerItemSortOrderEE4freeEPN9QListData4DataE)
    t._ZN5QListIN10QtMobility23QOrganizerItemSortOrderEE5clearEv 0x0002c062   Section       76  qdeclarativeorganizermodel.o(t._ZN5QListIN10QtMobility23QOrganizerItemSortOrderEE5clearEv)
    t._ZN5QListIN10QtMobility23QOrganizerItemSortOrderEE5clearEv.clean 0x0002c0ae   Section       10  qdeclarativeorganizermodel.o(t._ZN5QListIN10QtMobility23QOrganizerItemSortOrderEE5clearEv.clean)
    t._ZN5QListIN10QtMobility23QOrganizerItemSortOrderEE6appendERKS1_ 0x0002c0b8   Section      120  qdeclarativeorganizermodel.o(t._ZN5QListIN10QtMobility23QOrganizerItemSortOrderEE6appendERKS1_)
    t._ZN5QListIN10QtMobility23QOrganizerItemSortOrderEE6appendERKS1_.clean 0x0002c130   Section       14  qdeclarativeorganizermodel.o(t._ZN5QListIN10QtMobility23QOrganizerItemSortOrderEE6appendERKS1_.clean)
    t._ZN5QListIN10QtMobility23QOrganizerItemSortOrderEE9node_copyEPNS2_4NodeES4_S4_ 0x0002c13e   Section       82  qdeclarativeorganizermodel.o(t._ZN5QListIN10QtMobility23QOrganizerItemSortOrderEE9node_copyEPNS2_4NodeES4_S4_)
    t._ZN5QListIN10QtMobility23QOrganizerItemSortOrderEE9node_copyEPNS2_4NodeES4_S4_.clean 0x0002c190   Section       22  qdeclarativeorganizermodel.o(t._ZN5QListIN10QtMobility23QOrganizerItemSortOrderEE9node_copyEPNS2_4NodeES4_S4_.clean)
    t._ZN5QListIN10QtMobility23QOrganizerItemSortOrderEEC1Ev 0x0002c1a8   Section       24  qdeclarativeorganizermodel.o(t._ZN5QListIN10QtMobility23QOrganizerItemSortOrderEEC1Ev)
    t._ZN5QListIN10QtMobility23QOrganizerItemSortOrderEED1Ev 0x0002c1c0   Section       32  qdeclarativeorganizermodel.o(t._ZN5QListIN10QtMobility23QOrganizerItemSortOrderEED1Ev)
    t._ZN5QListIP25QDeclarativeOrganizerItemE12detachSharedEv 0x0002c1e0   Section       36  qdeclarativeorganizermodel.o(t._ZN5QListIP25QDeclarativeOrganizerItemE12detachSharedEv)
    t._ZN5QListIP25QDeclarativeOrganizerItemE13detach_helperEi 0x0002c204   Section       94  qdeclarativeorganizermodel.o(t._ZN5QListIP25QDeclarativeOrganizerItemE13detach_helperEi)
    t._ZN5QListIP25QDeclarativeOrganizerItemE13detach_helperEi.clean 0x0002c262   Section        8  qdeclarativeorganizermodel.o(t._ZN5QListIP25QDeclarativeOrganizerItemE13detach_helperEi.clean)
    t._ZN5QListIP25QDeclarativeOrganizerItemE13detach_helperEv 0x0002c26a   Section       16  qdeclarativeorganizermodel.o(t._ZN5QListIP25QDeclarativeOrganizerItemE13detach_helperEv)
    t._ZN5QListIP25QDeclarativeOrganizerItemE18detach_helper_growEii 0x0002c27a   Section      204  qdeclarativeorganizermodel.o(t._ZN5QListIP25QDeclarativeOrganizerItemE18detach_helper_growEii)
    t._ZN5QListIP25QDeclarativeOrganizerItemE18detach_helper_growEii.clean 0x0002c346   Section       16  qdeclarativeorganizermodel.o(t._ZN5QListIP25QDeclarativeOrganizerItemE18detach_helper_growEii.clean)
    t._ZN5QListIP25QDeclarativeOrganizerItemE4freeEPN9QListData4DataE 0x0002c356   Section       52  qdeclarativeorganizermodel.o(t._ZN5QListIP25QDeclarativeOrganizerItemE4freeEPN9QListData4DataE)
    t._ZN5QListIP25QDeclarativeOrganizerItemE5clearEv 0x0002c38a   Section       76  qdeclarativeorganizermodel.o(t._ZN5QListIP25QDeclarativeOrganizerItemE5clearEv)
    t._ZN5QListIP25QDeclarativeOrganizerItemE5clearEv.clean 0x0002c3d6   Section       10  qdeclarativeorganizermodel.o(t._ZN5QListIP25QDeclarativeOrganizerItemE5clearEv.clean)
    t._ZN5QListIP25QDeclarativeOrganizerItemE6appendERKS1_ 0x0002c3e0   Section      100  qdeclarativeorganizermodel.o(t._ZN5QListIP25QDeclarativeOrganizerItemE6appendERKS1_)
    t._ZN5QListIP25QDeclarativeOrganizerItemE6appendERKS1_.clean 0x0002c444   Section       10  qdeclarativeorganizermodel.o(t._ZN5QListIP25QDeclarativeOrganizerItemE6appendERKS1_.clean)
    t._ZN5QListIP25QDeclarativeOrganizerItemE8removeAtEi 0x0002c44e   Section       66  qdeclarativeorganizermodel.o(t._ZN5QListIP25QDeclarativeOrganizerItemE8removeAtEi)
    t._ZN5QListIP25QDeclarativeOrganizerItemE9node_copyEPNS2_4NodeES4_S4_ 0x0002c490   Section       46  qdeclarativeorganizermodel.o(t._ZN5QListIP25QDeclarativeOrganizerItemE9node_copyEPNS2_4NodeES4_S4_)
    t._ZN5QListIP25QDeclarativeOrganizerItemE9removeAllERKS1_ 0x0002c4be   Section       78  qdeclarativeorganizermodel.o(t._ZN5QListIP25QDeclarativeOrganizerItemE9removeAllERKS1_)
    t._ZN5QListIP25QDeclarativeOrganizerItemE9removeOneERKS1_ 0x0002c50c   Section       44  qdeclarativeorganizermodel.o(t._ZN5QListIP25QDeclarativeOrganizerItemE9removeOneERKS1_)
    t._ZN5QListIP25QDeclarativeOrganizerItemEC1Ev 0x0002c538   Section       24  qdeclarativeorganizermodel.o(t._ZN5QListIP25QDeclarativeOrganizerItemEC1Ev)
    t._ZN5QListIP25QDeclarativeOrganizerItemED1Ev 0x0002c550   Section       32  qdeclarativeorganizermodel.o(t._ZN5QListIP25QDeclarativeOrganizerItemED1Ev)
    t._ZN5QListIP31QDeclarativeOrganizerItemDetailE13detach_helperEi 0x0002c570   Section       94  qdeclarativeorganizeritem.o(t._ZN5QListIP31QDeclarativeOrganizerItemDetailE13detach_helperEi)
    t._ZN5QListIP31QDeclarativeOrganizerItemDetailE13detach_helperEi.clean 0x0002c5ce   Section        8  qdeclarativeorganizeritem.o(t._ZN5QListIP31QDeclarativeOrganizerItemDetailE13detach_helperEi.clean)
    t._ZN5QListIP31QDeclarativeOrganizerItemDetailE13detach_helperEv 0x0002c5d6   Section       16  qdeclarativeorganizeritem.o(t._ZN5QListIP31QDeclarativeOrganizerItemDetailE13detach_helperEv)
    t._ZN5QListIP31QDeclarativeOrganizerItemDetailE18detach_helper_growEii 0x0002c5e6   Section      204  qdeclarativeorganizeritem.o(t._ZN5QListIP31QDeclarativeOrganizerItemDetailE18detach_helper_growEii)
    t._ZN5QListIP31QDeclarativeOrganizerItemDetailE18detach_helper_growEii.clean 0x0002c6b2   Section       16  qdeclarativeorganizeritem.o(t._ZN5QListIP31QDeclarativeOrganizerItemDetailE18detach_helper_growEii.clean)
    t._ZN5QListIP31QDeclarativeOrganizerItemDetailE4freeEPN9QListData4DataE 0x0002c6c2   Section       58  qdeclarativeorganizeritem.o(t._ZN5QListIP31QDeclarativeOrganizerItemDetailE4freeEPN9QListData4DataE)
    t._ZN5QListIP31QDeclarativeOrganizerItemDetailE5clearEv 0x0002c6fc   Section       76  qdeclarativeorganizeritemmetaobject.o(t._ZN5QListIP31QDeclarativeOrganizerItemDetailE5clearEv)
    t._ZN5QListIP31QDeclarativeOrganizerItemDetailE5clearEv.clean 0x0002c748   Section       10  qdeclarativeorganizeritemmetaobject.o(t._ZN5QListIP31QDeclarativeOrganizerItemDetailE5clearEv.clean)
    t._ZN5QListIP31QDeclarativeOrganizerItemDetailE6appendERKS1_ 0x0002c754   Section      100  qdeclarativeorganizeritem.o(t._ZN5QListIP31QDeclarativeOrganizerItemDetailE6appendERKS1_)
    t._ZN5QListIP31QDeclarativeOrganizerItemDetailE6appendERKS1_.clean 0x0002c7b8   Section       10  qdeclarativeorganizeritem.o(t._ZN5QListIP31QDeclarativeOrganizerItemDetailE6appendERKS1_.clean)
    t._ZN5QListIP31QDeclarativeOrganizerItemDetailE9node_copyEPNS2_4NodeES4_S4_ 0x0002c7c2   Section       46  qdeclarativeorganizeritem.o(t._ZN5QListIP31QDeclarativeOrganizerItemDetailE9node_copyEPNS2_4NodeES4_S4_)
    t._ZN5QListIP31QDeclarativeOrganizerItemDetailE9removeAllERKS1_ 0x0002c7f0   Section      116  qdeclarativeorganizeritemmetaobject.o(t._ZN5QListIP31QDeclarativeOrganizerItemDetailE9removeAllERKS1_)
    t._ZN5QListIP31QDeclarativeOrganizerItemDetailEC1Ev 0x0002c864   Section       24  qdeclarativeorganizeritemmetaobject.o(t._ZN5QListIP31QDeclarativeOrganizerItemDetailEC1Ev)
    t._ZN5QListIP31QDeclarativeOrganizerItemDetailED1Ev 0x0002c87c   Section       32  qdeclarativeorganizeritem.o(t._ZN5QListIP31QDeclarativeOrganizerItemDetailED1Ev)
    t._ZN5QListIP31QDeclarativeOrganizerItemFilterE13detach_helperEi 0x0002c89c   Section       94  moc_qdeclarativeorganizeritemfilter_p.o(t._ZN5QListIP31QDeclarativeOrganizerItemFilterE13detach_helperEi)
    t._ZN5QListIP31QDeclarativeOrganizerItemFilterE13detach_helperEi.clean 0x0002c8fa   Section        8  moc_qdeclarativeorganizeritemfilter_p.o(t._ZN5QListIP31QDeclarativeOrganizerItemFilterE13detach_helperEi.clean)
    t._ZN5QListIP31QDeclarativeOrganizerItemFilterE13detach_helperEv 0x0002c902   Section       16  moc_qdeclarativeorganizeritemfilter_p.o(t._ZN5QListIP31QDeclarativeOrganizerItemFilterE13detach_helperEv)
    t._ZN5QListIP31QDeclarativeOrganizerItemFilterE18detach_helper_growEii 0x0002c912   Section      204  moc_qdeclarativeorganizeritemfilter_p.o(t._ZN5QListIP31QDeclarativeOrganizerItemFilterE18detach_helper_growEii)
    t._ZN5QListIP31QDeclarativeOrganizerItemFilterE18detach_helper_growEii.clean 0x0002c9de   Section       16  moc_qdeclarativeorganizeritemfilter_p.o(t._ZN5QListIP31QDeclarativeOrganizerItemFilterE18detach_helper_growEii.clean)
    t._ZN5QListIP31QDeclarativeOrganizerItemFilterE4freeEPN9QListData4DataE 0x0002c9ee   Section       52  moc_qdeclarativeorganizeritemfilter_p.o(t._ZN5QListIP31QDeclarativeOrganizerItemFilterE4freeEPN9QListData4DataE)
    t._ZN5QListIP31QDeclarativeOrganizerItemFilterE5clearEv 0x0002ca24   Section       88  moc_qdeclarativeorganizeritemfilter_p.o(t._ZN5QListIP31QDeclarativeOrganizerItemFilterE5clearEv)
    t._ZN5QListIP31QDeclarativeOrganizerItemFilterE5clearEv.clean 0x0002ca7c   Section       10  moc_qdeclarativeorganizeritemfilter_p.o(t._ZN5QListIP31QDeclarativeOrganizerItemFilterE5clearEv.clean)
    t._ZN5QListIP31QDeclarativeOrganizerItemFilterE6appendERKS1_ 0x0002ca88   Section      100  moc_qdeclarativeorganizeritemfilter_p.o(t._ZN5QListIP31QDeclarativeOrganizerItemFilterE6appendERKS1_)
    t._ZN5QListIP31QDeclarativeOrganizerItemFilterE6appendERKS1_.clean 0x0002caec   Section       10  moc_qdeclarativeorganizeritemfilter_p.o(t._ZN5QListIP31QDeclarativeOrganizerItemFilterE6appendERKS1_.clean)
    t._ZN5QListIP31QDeclarativeOrganizerItemFilterE9node_copyEPNS2_4NodeES4_S4_ 0x0002caf6   Section       46  moc_qdeclarativeorganizeritemfilter_p.o(t._ZN5QListIP31QDeclarativeOrganizerItemFilterE9node_copyEPNS2_4NodeES4_S4_)
    t._ZN5QListIP31QDeclarativeOrganizerItemFilterEC1Ev 0x0002cb24   Section       24  plugin.o(t._ZN5QListIP31QDeclarativeOrganizerItemFilterEC1Ev)
    t._ZN5QListIP31QDeclarativeOrganizerItemFilterED1Ev 0x0002cb3c   Section       32  moc_qdeclarativeorganizeritemfilter_p.o(t._ZN5QListIP31QDeclarativeOrganizerItemFilterED1Ev)
    t._ZN5QListIP34QDeclarativeOrganizerItemSortOrderE13detach_helperEi 0x0002cb5c   Section       94  qdeclarativeorganizermodel.o(t._ZN5QListIP34QDeclarativeOrganizerItemSortOrderE13detach_helperEi)
    t._ZN5QListIP34QDeclarativeOrganizerItemSortOrderE13detach_helperEi.clean 0x0002cbba   Section        8  qdeclarativeorganizermodel.o(t._ZN5QListIP34QDeclarativeOrganizerItemSortOrderE13detach_helperEi.clean)
    t._ZN5QListIP34QDeclarativeOrganizerItemSortOrderE13detach_helperEv 0x0002cbc2   Section       16  qdeclarativeorganizermodel.o(t._ZN5QListIP34QDeclarativeOrganizerItemSortOrderE13detach_helperEv)
    t._ZN5QListIP34QDeclarativeOrganizerItemSortOrderE18detach_helper_growEii 0x0002cbd2   Section      204  qdeclarativeorganizermodel.o(t._ZN5QListIP34QDeclarativeOrganizerItemSortOrderE18detach_helper_growEii)
    t._ZN5QListIP34QDeclarativeOrganizerItemSortOrderE18detach_helper_growEii.clean 0x0002cc9e   Section       16  qdeclarativeorganizermodel.o(t._ZN5QListIP34QDeclarativeOrganizerItemSortOrderE18detach_helper_growEii.clean)
    t._ZN5QListIP34QDeclarativeOrganizerItemSortOrderE4freeEPN9QListData4DataE 0x0002ccae   Section       52  qdeclarativeorganizermodel.o(t._ZN5QListIP34QDeclarativeOrganizerItemSortOrderE4freeEPN9QListData4DataE)
    t._ZN5QListIP34QDeclarativeOrganizerItemSortOrderE5clearEv 0x0002cce2   Section       76  qdeclarativeorganizermodel.o(t._ZN5QListIP34QDeclarativeOrganizerItemSortOrderE5clearEv)
    t._ZN5QListIP34QDeclarativeOrganizerItemSortOrderE5clearEv.clean 0x0002cd2e   Section       10  qdeclarativeorganizermodel.o(t._ZN5QListIP34QDeclarativeOrganizerItemSortOrderE5clearEv.clean)
    t._ZN5QListIP34QDeclarativeOrganizerItemSortOrderE6appendERKS1_ 0x0002cd38   Section      100  qdeclarativeorganizermodel.o(t._ZN5QListIP34QDeclarativeOrganizerItemSortOrderE6appendERKS1_)
    t._ZN5QListIP34QDeclarativeOrganizerItemSortOrderE6appendERKS1_.clean 0x0002cd9c   Section       10  qdeclarativeorganizermodel.o(t._ZN5QListIP34QDeclarativeOrganizerItemSortOrderE6appendERKS1_.clean)
    t._ZN5QListIP34QDeclarativeOrganizerItemSortOrderE9node_copyEPNS2_4NodeES4_S4_ 0x0002cda6   Section       46  qdeclarativeorganizermodel.o(t._ZN5QListIP34QDeclarativeOrganizerItemSortOrderE9node_copyEPNS2_4NodeES4_S4_)
    t._ZN5QListIP34QDeclarativeOrganizerItemSortOrderEC1Ev 0x0002cdd4   Section       24  qdeclarativeorganizermodel.o(t._ZN5QListIP34QDeclarativeOrganizerItemSortOrderEC1Ev)
    t._ZN5QListIP34QDeclarativeOrganizerItemSortOrderED1Ev 0x0002cdec   Section       32  qdeclarativeorganizermodel.o(t._ZN5QListIP34QDeclarativeOrganizerItemSortOrderED1Ev)
    t._ZN5QListIP35QDeclarativeOrganizerRecurrenceRuleE13detach_helperEi 0x0002ce0c   Section       94  moc_qdeclarativeorganizeritemdetail_p.o(t._ZN5QListIP35QDeclarativeOrganizerRecurrenceRuleE13detach_helperEi)
    t._ZN5QListIP35QDeclarativeOrganizerRecurrenceRuleE13detach_helperEi.clean 0x0002ce6a   Section        8  moc_qdeclarativeorganizeritemdetail_p.o(t._ZN5QListIP35QDeclarativeOrganizerRecurrenceRuleE13detach_helperEi.clean)
    t._ZN5QListIP35QDeclarativeOrganizerRecurrenceRuleE13detach_helperEv 0x0002ce72   Section       16  moc_qdeclarativeorganizeritemdetail_p.o(t._ZN5QListIP35QDeclarativeOrganizerRecurrenceRuleE13detach_helperEv)
    t._ZN5QListIP35QDeclarativeOrganizerRecurrenceRuleE18detach_helper_growEii 0x0002ce82   Section      204  moc_qdeclarativeorganizeritemdetail_p.o(t._ZN5QListIP35QDeclarativeOrganizerRecurrenceRuleE18detach_helper_growEii)
    t._ZN5QListIP35QDeclarativeOrganizerRecurrenceRuleE18detach_helper_growEii.clean 0x0002cf4e   Section       16  moc_qdeclarativeorganizeritemdetail_p.o(t._ZN5QListIP35QDeclarativeOrganizerRecurrenceRuleE18detach_helper_growEii.clean)
    t._ZN5QListIP35QDeclarativeOrganizerRecurrenceRuleE4freeEPN9QListData4DataE 0x0002cf5e   Section       52  plugin.o(t._ZN5QListIP35QDeclarativeOrganizerRecurrenceRuleE4freeEPN9QListData4DataE)
    t._ZN5QListIP35QDeclarativeOrganizerRecurrenceRuleE5clearEv 0x0002cf94   Section       88  moc_qdeclarativeorganizeritemdetail_p.o(t._ZN5QListIP35QDeclarativeOrganizerRecurrenceRuleE5clearEv)
    t._ZN5QListIP35QDeclarativeOrganizerRecurrenceRuleE5clearEv.clean 0x0002cfec   Section       10  moc_qdeclarativeorganizeritemdetail_p.o(t._ZN5QListIP35QDeclarativeOrganizerRecurrenceRuleE5clearEv.clean)
    t._ZN5QListIP35QDeclarativeOrganizerRecurrenceRuleE6appendERKS1_ 0x0002cff8   Section      100  moc_qdeclarativeorganizeritemdetail_p.o(t._ZN5QListIP35QDeclarativeOrganizerRecurrenceRuleE6appendERKS1_)
    t._ZN5QListIP35QDeclarativeOrganizerRecurrenceRuleE6appendERKS1_.clean 0x0002d05c   Section       10  moc_qdeclarativeorganizeritemdetail_p.o(t._ZN5QListIP35QDeclarativeOrganizerRecurrenceRuleE6appendERKS1_.clean)
    t._ZN5QListIP35QDeclarativeOrganizerRecurrenceRuleE9node_copyEPNS2_4NodeES4_S4_ 0x0002d066   Section       46  moc_qdeclarativeorganizeritemdetail_p.o(t._ZN5QListIP35QDeclarativeOrganizerRecurrenceRuleE9node_copyEPNS2_4NodeES4_S4_)
    t._ZN5QListIP35QDeclarativeOrganizerRecurrenceRuleEC1Ev 0x0002d094   Section       24  plugin.o(t._ZN5QListIP35QDeclarativeOrganizerRecurrenceRuleEC1Ev)
    t._ZN5QListIP35QDeclarativeOrganizerRecurrenceRuleED1Ev 0x0002d0ac   Section       32  moc_qdeclarativeorganizeritemdetail_p.o(t._ZN5QListIP35QDeclarativeOrganizerRecurrenceRuleED1Ev)
    t._ZN5QListIPFRK11QMetaObjectvEE13detach_helperEi 0x0002d0cc   Section       94  qmetaobjectbuilder.o(t._ZN5QListIPFRK11QMetaObjectvEE13detach_helperEi)
    t._ZN5QListIPFRK11QMetaObjectvEE13detach_helperEi.clean 0x0002d12a   Section        8  qmetaobjectbuilder.o(t._ZN5QListIPFRK11QMetaObjectvEE13detach_helperEi.clean)
    t._ZN5QListIPFRK11QMetaObjectvEE13detach_helperEv 0x0002d132   Section       16  qmetaobjectbuilder.o(t._ZN5QListIPFRK11QMetaObjectvEE13detach_helperEv)
    t._ZN5QListIPFRK11QMetaObjectvEE18detach_helper_growEii 0x0002d142   Section      204  qmetaobjectbuilder.o(t._ZN5QListIPFRK11QMetaObjectvEE18detach_helper_growEii)
    t._ZN5QListIPFRK11QMetaObjectvEE18detach_helper_growEii.clean 0x0002d20e   Section       16  qmetaobjectbuilder.o(t._ZN5QListIPFRK11QMetaObjectvEE18detach_helper_growEii.clean)
    t._ZN5QListIPFRK11QMetaObjectvEE4freeEPN9QListData4DataE 0x0002d21e   Section       52  qmetaobjectbuilder.o(t._ZN5QListIPFRK11QMetaObjectvEE4freeEPN9QListData4DataE)
    t._ZN5QListIPFRK11QMetaObjectvEE5clearEv 0x0002d252   Section       76  qmetaobjectbuilder.o(t._ZN5QListIPFRK11QMetaObjectvEE5clearEv)
    t._ZN5QListIPFRK11QMetaObjectvEE5clearEv.clean 0x0002d29e   Section       10  qmetaobjectbuilder.o(t._ZN5QListIPFRK11QMetaObjectvEE5clearEv.clean)
    t._ZN5QListIPFRK11QMetaObjectvEE6appendERKS4_ 0x0002d2a8   Section      100  qmetaobjectbuilder.o(t._ZN5QListIPFRK11QMetaObjectvEE6appendERKS4_)
    t._ZN5QListIPFRK11QMetaObjectvEE6appendERKS4_.clean 0x0002d30c   Section       10  qmetaobjectbuilder.o(t._ZN5QListIPFRK11QMetaObjectvEE6appendERKS4_.clean)
    t._ZN5QListIPFRK11QMetaObjectvEE6detachEv 0x0002d316   Section       24  qmetaobjectbuilder.o(t._ZN5QListIPFRK11QMetaObjectvEE6detachEv)
    t._ZN5QListIPFRK11QMetaObjectvEE9node_copyEPNS5_4NodeES7_S7_ 0x0002d32e   Section       46  qmetaobjectbuilder.o(t._ZN5QListIPFRK11QMetaObjectvEE9node_copyEPNS5_4NodeES7_S7_)
    t._ZN5QListIPFRK11QMetaObjectvEEC1Ev     0x0002d35c   Section       24  qmetaobjectbuilder.o(t._ZN5QListIPFRK11QMetaObjectvEEC1Ev)
    t._ZN5QListIPFRK11QMetaObjectvEED1Ev     0x0002d374   Section       32  qmetaobjectbuilder.o(t._ZN5QListIPFRK11QMetaObjectvEED1Ev)
    t._ZN5QListIPFRK11QMetaObjectvEEixEi     0x0002d394   Section       28  qmetaobjectbuilder.o(t._ZN5QListIPFRK11QMetaObjectvEEixEi)
    t._ZN5QListIiE13detach_helperEi          0x0002d3b0   Section       94  qmetaobjectbuilder.o(t._ZN5QListIiE13detach_helperEi)
    t._ZN5QListIiE13detach_helperEi.clean    0x0002d40e   Section        8  qmetaobjectbuilder.o(t._ZN5QListIiE13detach_helperEi.clean)
    t._ZN5QListIiE13detach_helperEv          0x0002d416   Section       16  qmetaobjectbuilder.o(t._ZN5QListIiE13detach_helperEv)
    t._ZN5QListIiE18detach_helper_growEii    0x0002d426   Section      204  qmetaobjectbuilder.o(t._ZN5QListIiE18detach_helper_growEii)
    t._ZN5QListIiE18detach_helper_growEii.clean 0x0002d4f2   Section       16  qmetaobjectbuilder.o(t._ZN5QListIiE18detach_helper_growEii.clean)
    t._ZN5QListIiE4freeEPN9QListData4DataE   0x0002d502   Section       52  qmetaobjectbuilder.o(t._ZN5QListIiE4freeEPN9QListData4DataE)
    t._ZN5QListIiE5clearEv                   0x0002d536   Section       76  qmetaobjectbuilder.o(t._ZN5QListIiE5clearEv)
    t._ZN5QListIiE5clearEv.clean             0x0002d582   Section       10  qmetaobjectbuilder.o(t._ZN5QListIiE5clearEv.clean)
    t._ZN5QListIiE6appendERKi                0x0002d58c   Section      100  qmetaobjectbuilder.o(t._ZN5QListIiE6appendERKi)
    t._ZN5QListIiE6appendERKi.clean          0x0002d5f0   Section       10  qmetaobjectbuilder.o(t._ZN5QListIiE6appendERKi.clean)
    t._ZN5QListIiE6detachEv                  0x0002d5fa   Section       24  qmetaobjectbuilder.o(t._ZN5QListIiE6detachEv)
    t._ZN5QListIiE7reserveEi                 0x0002d612   Section       46  qmetaobjectbuilder.o(t._ZN5QListIiE7reserveEi)
    t._ZN5QListIiE9node_copyEPNS0_4NodeES2_S2_ 0x0002d640   Section       46  qmetaobjectbuilder.o(t._ZN5QListIiE9node_copyEPNS0_4NodeES2_S2_)
    t._ZN5QListIiEC1Ev                       0x0002d670   Section       24  qmetaobjectbuilder.o(t._ZN5QListIiEC1Ev)
    t._ZN5QListIiED1Ev                       0x0002d688   Section       32  qmetaobjectbuilder.o(t._ZN5QListIiED1Ev)
    t._ZN5QListIiEixEi                       0x0002d6a8   Section       28  qmetaobjectbuilder.o(t._ZN5QListIiEixEi)
    t._ZN8QPointerI7QObjectED1Ev             0x0002d6c4   Section       14  plugin.o(t._ZN8QPointerI7QObjectED1Ev)
    t._ZN8QVariant9fromValueI4QSetIN10QtMobility24QOrganizerRecurrenceRuleEEEES_RKT_ 0x0002d6d2   Section       34  moc_qdeclarativeorganizeritemdetail_p.o(t._ZN8QVariant9fromValueI4QSetIN10QtMobility24QOrganizerRecurrenceRuleEEEES_RKT_)
    t._ZN8QVariant9fromValueIP31QDeclarativeOrganizerItemDetailEES_RKT_ 0x0002d6f4   Section       34  qdeclarativeorganizeritemmetaobject.o(t._ZN8QVariant9fromValueIP31QDeclarativeOrganizerItemDetailEES_RKT_)
    t._ZN9QHashNodeIi10QByteArrayEC1EiRKS0_  0x0002d716   Section       30  qdeclarativeorganizermodel.o(t._ZN9QHashNodeIi10QByteArrayEC1EiRKS0_)
    t._ZNK10QtMobility14QOrganizerItem6detailINS_23QOrganizerItemTimestampEEET_v 0x0002d734   Section       56  qdeclarativeorganizeritem.o(t._ZNK10QtMobility14QOrganizerItem6detailINS_23QOrganizerItemTimestampEEET_v)
    t._ZNK10QtMobility14QOrganizerItem6detailINS_23QOrganizerItemTimestampEEET_v.clean 0x0002d76c   Section       10  qdeclarativeorganizeritem.o(t._ZNK10QtMobility14QOrganizerItem6detailINS_23QOrganizerItemTimestampEEET_v.clean)
    t._ZNK10QtMobility15QLatin1ConstantILi10EEcv7QStringEv 0x0002d776   Section       18  qdeclarativeorganizeritemdetail.o(t._ZNK10QtMobility15QLatin1ConstantILi10EEcv7QStringEv)
    t._ZNK10QtMobility15QLatin1ConstantILi12EEcv7QStringEv 0x0002d788   Section       18  qdeclarativeorganizeritemdetail.o(t._ZNK10QtMobility15QLatin1ConstantILi12EEcv7QStringEv)
    t._ZNK10QtMobility15QLatin1ConstantILi13EEcv7QStringEv 0x0002d79a   Section       18  qdeclarativeorganizeritemdetail.o(t._ZNK10QtMobility15QLatin1ConstantILi13EEcv7QStringEv)
    t._ZNK10QtMobility15QLatin1ConstantILi14EEcv7QStringEv 0x0002d7ac   Section       18  qdeclarativeorganizeritemdetail.o(t._ZNK10QtMobility15QLatin1ConstantILi14EEcv7QStringEv)
    t._ZNK10QtMobility15QLatin1ConstantILi15EEcv7QStringEv 0x0002d7be   Section       18  qdeclarativeorganizeritemdetail.o(t._ZNK10QtMobility15QLatin1ConstantILi15EEcv7QStringEv)
    t._ZNK10QtMobility15QLatin1ConstantILi16EEcv7QStringEv 0x0002d7d0   Section       18  qdeclarativeorganizeritemdetail.o(t._ZNK10QtMobility15QLatin1ConstantILi16EEcv7QStringEv)
    t._ZNK10QtMobility15QLatin1ConstantILi5EEcv7QStringEv 0x0002d7e2   Section       18  qdeclarativeorganizeritemdetail.o(t._ZNK10QtMobility15QLatin1ConstantILi5EEcv7QStringEv)
    t._ZNK10QtMobility15QLatin1ConstantILi5EEcv8QVariantEv 0x0002d7f4   Section       38  moc_qdeclarativeorganizeritemdetail_p.o(t._ZNK10QtMobility15QLatin1ConstantILi5EEcv8QVariantEv)
    t._ZNK10QtMobility15QLatin1ConstantILi5EEcv8QVariantEv.clean 0x0002d81a   Section       10  moc_qdeclarativeorganizeritemdetail_p.o(t._ZNK10QtMobility15QLatin1ConstantILi5EEcv8QVariantEv.clean)
    t._ZNK10QtMobility15QLatin1ConstantILi6EEcv7QStringEv 0x0002d824   Section       18  moc_qdeclarativeorganizercollection_p.o(t._ZNK10QtMobility15QLatin1ConstantILi6EEcv7QStringEv)
    t._ZNK10QtMobility15QLatin1ConstantILi7EEcv7QStringEv 0x0002d836   Section       18  qdeclarativeorganizeritemdetail.o(t._ZNK10QtMobility15QLatin1ConstantILi7EEcv7QStringEv)
    t._ZNK10QtMobility15QLatin1ConstantILi8EEcv7QStringEv 0x0002d848   Section       18  qdeclarativeorganizeritemdetail.o(t._ZNK10QtMobility15QLatin1ConstantILi8EEcv7QStringEv)
    t._ZNK10QtMobility15QLatin1ConstantILi9EEcv7QStringEv 0x0002d85a   Section       18  qdeclarativeorganizeritemdetail.o(t._ZNK10QtMobility15QLatin1ConstantILi9EEcv7QStringEv)
    t._ZNK10QtMobility20QOrganizerItemDetail5valueI11QStringListEET_PKc 0x0002d86c   Section      146  moc_qdeclarativeorganizeritemdetail_p.o(t._ZNK10QtMobility20QOrganizerItemDetail5valueI11QStringListEET_PKc)
    t._ZNK10QtMobility20QOrganizerItemDetail5valueI11QStringListEET_PKc.clean 0x0002d8fe   Section       20  moc_qdeclarativeorganizeritemdetail_p.o(t._ZNK10QtMobility20QOrganizerItemDetail5valueI11QStringListEET_PKc.clean)
    t._ZNK10QtMobility20QOrganizerItemDetail5valueI4QUrlEET_PKc 0x0002d912   Section      138  moc_qdeclarativeorganizeritemdetail_p.o(t._ZNK10QtMobility20QOrganizerItemDetail5valueI4QUrlEET_PKc)
    t._ZNK10QtMobility20QOrganizerItemDetail5valueI4QUrlEET_PKc.clean 0x0002d99c   Section       20  moc_qdeclarativeorganizeritemdetail_p.o(t._ZNK10QtMobility20QOrganizerItemDetail5valueI4QUrlEET_PKc.clean)
    t._ZNK10QtMobility20QOrganizerItemDetail5valueI5QListI8QVariantEEET_PKc 0x0002d9b0   Section      138  moc_qdeclarativeorganizeritemdetail_p.o(t._ZNK10QtMobility20QOrganizerItemDetail5valueI5QListI8QVariantEEET_PKc)
    t._ZNK10QtMobility20QOrganizerItemDetail5valueI5QListI8QVariantEEET_PKc.clean 0x0002da3a   Section       20  moc_qdeclarativeorganizeritemdetail_p.o(t._ZNK10QtMobility20QOrganizerItemDetail5valueI5QListI8QVariantEEET_PKc.clean)
    t._ZNK10QtMobility20QOrganizerItemDetail5valueI7QStringEET_PKc 0x0002da4e   Section      138  moc_qdeclarativeorganizeritemdetail_p.o(t._ZNK10QtMobility20QOrganizerItemDetail5valueI7QStringEET_PKc)
    t._ZNK10QtMobility20QOrganizerItemDetail5valueI7QStringEET_PKc.clean 0x0002dad8   Section       20  moc_qdeclarativeorganizeritemdetail_p.o(t._ZNK10QtMobility20QOrganizerItemDetail5valueI7QStringEET_PKc.clean)
    t._ZNK10QtMobility20QOrganizerItemDetail5valueI9QDateTimeEET_PKc 0x0002daec   Section      138  moc_qdeclarativeorganizeritemdetail_p.o(t._ZNK10QtMobility20QOrganizerItemDetail5valueI9QDateTimeEET_PKc)
    t._ZNK10QtMobility20QOrganizerItemDetail5valueI9QDateTimeEET_PKc.clean 0x0002db76   Section       20  moc_qdeclarativeorganizeritemdetail_p.o(t._ZNK10QtMobility20QOrganizerItemDetail5valueI9QDateTimeEET_PKc.clean)
    t._ZNK10QtMobility20QOrganizerItemDetail5valueI9QDateTimeLi14EEET_RKNS_15QLatin1ConstantIXT0_EEE 0x0002db8a   Section       26  qdeclarativeorganizeritem.o(t._ZNK10QtMobility20QOrganizerItemDetail5valueI9QDateTimeLi14EEET_RKNS_15QLatin1ConstantIXT0_EEE)
    t._ZNK10QtMobility20QOrganizerItemDetail5valueIbLi7EEET_RKNS_15QLatin1ConstantIXT0_EEE 0x0002dba4   Section      110  moc_qdeclarativeorganizeritemdetail_p.o(t._ZNK10QtMobility20QOrganizerItemDetail5valueIbLi7EEET_RKNS_15QLatin1ConstantIXT0_EEE)
    t._ZNK10QtMobility20QOrganizerItemDetail5valueIbLi7EEET_RKNS_15QLatin1ConstantIXT0_EEE.clean 0x0002dc12   Section       10  moc_qdeclarativeorganizeritemdetail_p.o(t._ZNK10QtMobility20QOrganizerItemDetail5valueIbLi7EEET_RKNS_15QLatin1ConstantIXT0_EEE.clean)
    t._ZNK10QtMobility20QOrganizerItemDetail5valueIdEET_PKc 0x0002dc1c   Section      128  moc_qdeclarativeorganizeritemdetail_p.o(t._ZNK10QtMobility20QOrganizerItemDetail5valueIdEET_PKc)
    t._ZNK10QtMobility20QOrganizerItemDetail5valueIdEET_PKc.clean 0x0002dc9c   Section       10  moc_qdeclarativeorganizeritemdetail_p.o(t._ZNK10QtMobility20QOrganizerItemDetail5valueIdEET_PKc.clean)
    t._ZNK10QtMobility20QOrganizerItemDetail5valueIiEET_PKc 0x0002dca6   Section      102  moc_qdeclarativeorganizeritemdetail_p.o(t._ZNK10QtMobility20QOrganizerItemDetail5valueIiEET_PKc)
    t._ZNK10QtMobility20QOrganizerItemDetail5valueIiEET_PKc.clean 0x0002dd0c   Section       10  moc_qdeclarativeorganizeritemdetail_p.o(t._ZNK10QtMobility20QOrganizerItemDetail5valueIiEET_PKc.clean)
    t._ZNK17QForeachContainerI11QStringListE9conditionEv 0x0002dd16   Section       40  moc_qdeclarativeorganizeritemfilter_p.o(t._ZNK17QForeachContainerI11QStringListE9conditionEv)
    t._ZNK17QForeachContainerI4QSetIiEE9conditionEv 0x0002dd3e   Section       42  moc_qdeclarativeorganizerrecurrencerule_p.o(t._ZNK17QForeachContainerI4QSetIiEE9conditionEv)
    t._ZNK17QForeachContainerI5QListI7QStringEE9conditionEv 0x0002dd68   Section       40  qdeclarativeorganizermodel.o(t._ZNK17QForeachContainerI5QListI7QStringEE9conditionEv)
    t._ZNK17QForeachContainerI5QListI8QVariantEE9conditionEv 0x0002dd90   Section       40  moc_qdeclarativeorganizeritemfilter_p.o(t._ZNK17QForeachContainerI5QListI8QVariantEE9conditionEv)
    t._ZNK17QForeachContainerI5QListIN10QtMobility14QOrganizerItemEEE9conditionEv 0x0002ddb8   Section       40  qdeclarativeorganizermodel.o(t._ZNK17QForeachContainerI5QListIN10QtMobility14QOrganizerItemEEE9conditionEv)
    t._ZNK17QForeachContainerI5QListIN10QtMobility16QOrganizerItemIdEEE9conditionEv 0x0002dde0   Section       40  qdeclarativeorganizermodel.o(t._ZNK17QForeachContainerI5QListIN10QtMobility16QOrganizerItemIdEEE9conditionEv)
    t._ZNK17QForeachContainerI5QListIP25QDeclarativeOrganizerItemEE9conditionEv 0x0002de08   Section       40  qdeclarativeorganizermodel.o(t._ZNK17QForeachContainerI5QListIP25QDeclarativeOrganizerItemEE9conditionEv)
    t._ZNK17QForeachContainerI5QListIP31QDeclarativeOrganizerItemDetailEE9conditionEv 0x0002de30   Section       40  qdeclarativeorganizeritemmetaobject.o(t._ZNK17QForeachContainerI5QListIP31QDeclarativeOrganizerItemDetailEE9conditionEv)
    t._ZNK17QForeachContainerI5QListIP31QDeclarativeOrganizerItemFilterEE9conditionEv 0x0002de58   Section       40  moc_qdeclarativeorganizeritemfilter_p.o(t._ZNK17QForeachContainerI5QListIP31QDeclarativeOrganizerItemFilterEE9conditionEv)
    t._ZNK17QForeachContainerI5QListIP35QDeclarativeOrganizerRecurrenceRuleEE9conditionEv 0x0002de80   Section       40  moc_qdeclarativeorganizeritemdetail_p.o(t._ZNK17QForeachContainerI5QListIP35QDeclarativeOrganizerRecurrenceRuleEE9conditionEv)
    t._ZNK4QMapI7QString8QVariantE4keysEv    0x0002dea8   Section      104  moc_qdeclarativeorganizeritemdetail_p.o(t._ZNK4QMapI7QString8QVariantE4keysEv)
    t._ZNK4QMapI7QString8QVariantE4keysEv.clean 0x0002df10   Section       10  moc_qdeclarativeorganizeritemdetail_p.o(t._ZNK4QMapI7QString8QVariantE4keysEv.clean)
    t._ZNK4QMapI7QStringN10QtMobility30QOrganizerItemDetailDefinitionEE5valueERKS0_ 0x0002df1a   Section      162  qdeclarativeorganizeritemmetaobject.o(t._ZNK4QMapI7QStringN10QtMobility30QOrganizerItemDetailDefinitionEE5valueERKS0_)
    t._ZNK4QMapI7QStringN10QtMobility30QOrganizerItemDetailDefinitionEE7isEmptyEv 0x0002dfbc   Section       18  qdeclarativeorganizeritemmetaobject.o(t._ZNK4QMapI7QStringN10QtMobility30QOrganizerItemDetailDefinitionEE7isEmptyEv)
    t._ZNK4QMapI7QStringP25QDeclarativeOrganizerItemE15mutableFindNodeEPPN8QMapData4NodeERKS0_ 0x0002dfce   Section      108  qdeclarativeorganizermodel.o(t._ZNK4QMapI7QStringP25QDeclarativeOrganizerItemE15mutableFindNodeEPPN8QMapData4NodeERKS0_)
    t._ZNK4QMapI7QStringP25QDeclarativeOrganizerItemE5valueERKS0_ 0x0002e03a   Section       46  qdeclarativeorganizermodel.o(t._ZNK4QMapI7QStringP25QDeclarativeOrganizerItemE5valueERKS0_)
    t._ZNK4QMapI7QStringP25QDeclarativeOrganizerItemE8containsERKS0_ 0x0002e068   Section       28  qdeclarativeorganizermodel.o(t._ZNK4QMapI7QStringP25QDeclarativeOrganizerItemE8containsERKS0_)
    t._ZNK4QMapI7QStringP25QDeclarativeOrganizerItemE8findNodeERKS0_ 0x0002e084   Section      104  qdeclarativeorganizermodel.o(t._ZNK4QMapI7QStringP25QDeclarativeOrganizerItemE8findNodeERKS0_)
    t._ZNK4QMapIiN10QtMobility17QOrganizerManager5ErrorEE4keysEv 0x0002e0ec   Section      116  qdeclarativeorganizermodel.o(t._ZNK4QMapIiN10QtMobility17QOrganizerManager5ErrorEE4keysEv)
    t._ZNK4QMapIiN10QtMobility17QOrganizerManager5ErrorEE4keysEv.clean 0x0002e160   Section       10  qdeclarativeorganizermodel.o(t._ZNK4QMapIiN10QtMobility17QOrganizerManager5ErrorEE4keysEv.clean)
    t._ZNK4QSetIiEneERKS0_                   0x0002e16a   Section       22  moc_qdeclarativeorganizerrecurrencerule_p.o(t._ZNK4QSetIiEneERKS0_)
    t._ZNK5QHashIN10QtMobility22QOrganizerCollectionIdE15QHashDummyValueE8findNodeERKS1_Pj 0x0002e180   Section      116  qdeclarativeorganizeritemfilter.o(t._ZNK5QHashIN10QtMobility22QOrganizerCollectionIdE15QHashDummyValueE8findNodeERKS1_Pj)
    t._ZNK5QHashIN10QtMobility24QOrganizerRecurrenceRule5MonthE15QHashDummyValueE14const_iteratorneERKS5_ 0x0002e1f4   Section       18  moc_qdeclarativeorganizerrecurrencerule_p.o(t._ZNK5QHashIN10QtMobility24QOrganizerRecurrenceRule5MonthE15QHashDummyValueE14const_iteratorneERKS5_)
    t._ZNK5QHashIN10QtMobility24QOrganizerRecurrenceRule5MonthE15QHashDummyValueE8findNodeERKS2_Pj 0x0002e206   Section      100  moc_qdeclarativeorganizerrecurrencerule_p.o(t._ZNK5QHashIN10QtMobility24QOrganizerRecurrenceRule5MonthE15QHashDummyValueE8findNodeERKS2_Pj)
    t._ZNK5QHashIN10QtMobility24QOrganizerRecurrenceRule5MonthE15QHashDummyValueEeqERKS4_ 0x0002e26a   Section      230  moc_qdeclarativeorganizerrecurrencerule_p.o(t._ZNK5QHashIN10QtMobility24QOrganizerRecurrenceRule5MonthE15QHashDummyValueEeqERKS4_)
    t._ZNK5QHashIN10QtMobility24QOrganizerRecurrenceRuleE15QHashDummyValueE8findNodeERKS1_Pj 0x0002e350   Section      116  moc_qdeclarativeorganizeritemdetail_p.o(t._ZNK5QHashIN10QtMobility24QOrganizerRecurrenceRuleE15QHashDummyValueE8findNodeERKS1_Pj)
    t._ZNK5QHashIN2Qt9DayOfWeekE15QHashDummyValueE14const_iteratorneERKS4_ 0x0002e3c4   Section       18  moc_qdeclarativeorganizerrecurrencerule_p.o(t._ZNK5QHashIN2Qt9DayOfWeekE15QHashDummyValueE14const_iteratorneERKS4_)
    t._ZNK5QHashIN2Qt9DayOfWeekE15QHashDummyValueE8findNodeERKS1_Pj 0x0002e3d6   Section      100  moc_qdeclarativeorganizerrecurrencerule_p.o(t._ZNK5QHashIN2Qt9DayOfWeekE15QHashDummyValueE8findNodeERKS1_Pj)
    t._ZNK5QHashIN2Qt9DayOfWeekE15QHashDummyValueEeqERKS3_ 0x0002e43a   Section      230  moc_qdeclarativeorganizerrecurrencerule_p.o(t._ZNK5QHashIN2Qt9DayOfWeekE15QHashDummyValueEeqERKS3_)
    t._ZNK5QHashIi10QByteArrayE8findNodeERKiPj 0x0002e520   Section       94  qdeclarativeorganizermodel.o(t._ZNK5QHashIi10QByteArrayE8findNodeERKiPj)
    t._ZNK5QHashIi15QHashDummyValueE14const_iteratorneERKS2_ 0x0002e57e   Section       18  moc_qdeclarativeorganizerrecurrencerule_p.o(t._ZNK5QHashIi15QHashDummyValueE14const_iteratorneERKS2_)
    t._ZNK5QHashIi15QHashDummyValueE8findNodeERKiPj 0x0002e590   Section       94  moc_qdeclarativeorganizerrecurrencerule_p.o(t._ZNK5QHashIi15QHashDummyValueE8findNodeERKiPj)
    t._ZNK5QHashIi15QHashDummyValueEeqERKS1_ 0x0002e5ee   Section      230  moc_qdeclarativeorganizerrecurrencerule_p.o(t._ZNK5QHashIi15QHashDummyValueEeqERKS1_)
    t._ZNK5QHashIiP26OrganizerItemDetailNameMapE8findNodeERKiPj 0x0002e6d4   Section       94  qdeclarativeorganizeritemmetaobject.o(t._ZNK5QHashIiP26OrganizerItemDetailNameMapE8findNodeERKiPj)
    t._ZNK5QListI10QByteArrayE4sizeEv        0x0002e732   Section       12  qmetaobjectbuilder.o(t._ZNK5QListI10QByteArrayE4sizeEv)
    t._ZNK5QListI23QMetaEnumBuilderPrivateE4sizeEv 0x0002e73e   Section       12  qmetaobjectbuilder.o(t._ZNK5QListI23QMetaEnumBuilderPrivateE4sizeEv)
    t._ZNK5QListI25QMetaMethodBuilderPrivateE4sizeEv 0x0002e74a   Section       12  qmetaobjectbuilder.o(t._ZNK5QListI25QMetaMethodBuilderPrivateE4sizeEv)
    t._ZNK5QListI27QMetaPropertyBuilderPrivateE4sizeEv 0x0002e756   Section       12  qmetaobjectbuilder.o(t._ZNK5QListI27QMetaPropertyBuilderPrivateE4sizeEv)
    t._ZNK5QListI7QStringE7isEmptyEv         0x0002e762   Section       12  qdeclarativeorganizermodel.o(t._ZNK5QListI7QStringE7isEmptyEv)
    t._ZNK5QListI7QStringEeqERKS1_           0x0002e76e   Section      108  moc_qdeclarativeorganizeritemdetail_p.o(t._ZNK5QListI7QStringEeqERKS1_)
    t._ZNK5QListI8QVariantE8containsERKS0_   0x0002e7da   Section       72  moc_qdeclarativeorganizeritemfilter_p.o(t._ZNK5QListI8QVariantE8containsERKS0_)
    t._ZNK5QListI8QVariantEeqERKS1_          0x0002e822   Section      104  moc_qdeclarativeorganizeritemdetail_p.o(t._ZNK5QListI8QVariantEeqERKS1_)
    t._ZNK5QListI8QVariantEneERKS1_          0x0002e88a   Section       20  moc_qdeclarativeorganizeritemdetail_p.o(t._ZNK5QListI8QVariantEneERKS1_)
    t._ZNK5QListIP25QDeclarativeOrganizerItemE4sizeEv 0x0002e89e   Section       12  qdeclarativeorganizermodel.o(t._ZNK5QListIP25QDeclarativeOrganizerItemE4sizeEv)
    t._ZNK5QListIP25QDeclarativeOrganizerItemE5countEv 0x0002e8aa   Section       12  qdeclarativeorganizermodel.o(t._ZNK5QListIP25QDeclarativeOrganizerItemE5countEv)
    t._ZNK5QListIP25QDeclarativeOrganizerItemE5valueEi 0x0002e8b6   Section       40  qdeclarativeorganizermodel.o(t._ZNK5QListIP25QDeclarativeOrganizerItemE5valueEi)
    t._ZNK5QListIP25QDeclarativeOrganizerItemE7indexOfERKS1_i 0x0002e8de   Section      116  qdeclarativeorganizermodel.o(t._ZNK5QListIP25QDeclarativeOrganizerItemE7indexOfERKS1_i)
    t._ZNK5QListIP31QDeclarativeOrganizerItemDetailE4sizeEv 0x0002e952   Section       16  qdeclarativeorganizeritemmetaobject.o(t._ZNK5QListIP31QDeclarativeOrganizerItemDetailE4sizeEv)
    t._ZNK5QListIP31QDeclarativeOrganizerItemDetailE8containsERKS1_ 0x0002e962   Section       66  qdeclarativeorganizeritem.o(t._ZNK5QListIP31QDeclarativeOrganizerItemDetailE8containsERKS1_)
    t._ZNK5QListIPFRK11QMetaObjectvEE4sizeEv 0x0002e9a4   Section       12  qmetaobjectbuilder.o(t._ZNK5QListIPFRK11QMetaObjectvEE4sizeEv)
    t._ZNK5QListIiE8containsERKi             0x0002e9b0   Section       66  qdeclarativeorganizermodel.o(t._ZNK5QListIiE8containsERKi)
    t._ZNK6QFlagsIN10QtMobility20QOrganizerItemDetail16AccessConstraintEE8testFlagES2_ 0x0002e9f2   Section       28  moc_qdeclarativeorganizeritemdetail_p.o(t._ZNK6QFlagsIN10QtMobility20QOrganizerItemDetail16AccessConstraintEE8testFlagES2_)
    t._ZNK8QVariant5valueIP31QDeclarativeOrganizerItemDetailEET_v 0x0002ea0e   Section       66  qdeclarativeorganizeritem.o(t._ZNK8QVariant5valueIP31QDeclarativeOrganizerItemDetailEET_v)
    t._ZNK8QVariant5valueIiEET_v             0x0002ea50   Section       68  moc_qdeclarativeorganizerrecurrencerule_p.o(t._ZNK8QVariant5valueIiEET_v)
    t._ZlsI10QByteArrayER11QDataStreamS2_RK5QListIT_E 0x0002ea94   Section       70  qmetaobjectbuilder.o(t._ZlsI10QByteArrayER11QDataStreamS2_RK5QListIT_E)
    t._ZlsIiER11QDataStreamS1_RK5QListIT_E   0x0002eada   Section       74  qmetaobjectbuilder.o(t._ZlsIiER11QDataStreamS1_RK5QListIT_E)
    t._ZrsI10QByteArrayER11QDataStreamS2_R5QListIT_E 0x0002eb24   Section       94  qmetaobjectbuilder.o(t._ZrsI10QByteArrayER11QDataStreamS2_R5QListIT_E)
    t._ZrsI10QByteArrayER11QDataStreamS2_R5QListIT_E.clean 0x0002eb82   Section       10  qmetaobjectbuilder.o(t._ZrsI10QByteArrayER11QDataStreamS2_R5QListIT_E.clean)
    t._ZrsIiER11QDataStreamS1_R5QListIT_E    0x0002eb8c   Section       74  qmetaobjectbuilder.o(t._ZrsIiER11QDataStreamS1_R5QListIT_E)
    .extab._ZN26QDeclarativeOrganizerModel11qt_metacallEN11QMetaObject4CallEiPPv 0x0002ebd8   Data           0  moc_qdeclarativeorganizermodel_p.o(.ARM.extab)
    .extab._ZN26QDeclarativeOrganizerModelD1Ev 0x0002ecb0   Data           0  moc_qdeclarativeorganizermodel_p.o(.ARM.extab)
    .extab._ZN25QDeclarativeOrganizerItem11qt_metacallEN11QMetaObject4CallEiPPv 0x0002ecc0   Data           0  moc_qdeclarativeorganizeritem_p.o(.ARM.extab)
    .extab._ZN26QDeclarativeOrganizerEvent11qt_metacallEN11QMetaObject4CallEiPPv 0x0002ed18   Data           0  moc_qdeclarativeorganizeritem_p.o(.ARM.extab)
    .extab._ZN36QDeclarativeOrganizerEventOccurrence11qt_metacallEN11QMetaObject4CallEiPPv 0x0002ed38   Data           0  moc_qdeclarativeorganizeritem_p.o(.ARM.extab)
    .extab._ZN28QDeclarativeOrganizerJournal11qt_metacallEN11QMetaObject4CallEiPPv 0x0002ed60   Data           0  moc_qdeclarativeorganizeritem_p.o(.ARM.extab)
    .extab._ZN25QDeclarativeOrganizerTodo11qt_metacallEN11QMetaObject4CallEiPPv 0x0002ed70   Data           0  moc_qdeclarativeorganizeritem_p.o(.ARM.extab)
    .extab._ZN35QDeclarativeOrganizerTodoOccurrence11qt_metacallEN11QMetaObject4CallEiPPv 0x0002ed90   Data           0  moc_qdeclarativeorganizeritem_p.o(.ARM.extab)
    .extab._ZN31QDeclarativeOrganizerItemDetail11qt_metacallEN11QMetaObject4CallEiPPv 0x0002edb8   Data           0  moc_qdeclarativeorganizeritemdetail_p.o(.ARM.extab)
    .extab._ZN30QDeclarativeOrganizerEventTime11qt_metacallEN11QMetaObject4CallEiPPv 0x0002edf0   Data           0  moc_qdeclarativeorganizeritemdetail_p.o(.ARM.extab)
    .extab._ZN32QDeclarativeOrganizerItemComment11qt_metacallEN11QMetaObject4CallEiPPv 0x0002ee10   Data           0  moc_qdeclarativeorganizeritemdetail_p.o(.ARM.extab)
    .extab._ZN36QDeclarativeOrganizerItemDescription11qt_metacallEN11QMetaObject4CallEiPPv 0x0002ee30   Data           0  moc_qdeclarativeorganizeritemdetail_p.o(.ARM.extab)
    .extab._ZN37QDeclarativeOrganizerItemDisplayLabel11qt_metacallEN11QMetaObject4CallEiPPv 0x0002ee50   Data           0  moc_qdeclarativeorganizeritemdetail_p.o(.ARM.extab)
    .extab._ZN29QDeclarativeOrganizerItemGuid11qt_metacallEN11QMetaObject4CallEiPPv 0x0002ee70   Data           0  moc_qdeclarativeorganizeritemdetail_p.o(.ARM.extab)
    .extab._ZN31QDeclarativeOrganizerItemParent11qt_metacallEN11QMetaObject4CallEiPPv 0x0002ee90   Data           0  moc_qdeclarativeorganizeritemdetail_p.o(.ARM.extab)
    .extab._ZN33QDeclarativeOrganizerItemLocation11qt_metacallEN11QMetaObject4CallEiPPv 0x0002eea8   Data           0  moc_qdeclarativeorganizeritemdetail_p.o(.ARM.extab)
    .extab._ZN33QDeclarativeOrganizerItemPriority11qt_metacallEN11QMetaObject4CallEiPPv 0x0002eed8   Data           0  moc_qdeclarativeorganizeritemdetail_p.o(.ARM.extab)
    .extab._ZN35QDeclarativeOrganizerItemRecurrence11qt_metacallEN11QMetaObject4CallEiPPv 0x0002eee8   Data           0  moc_qdeclarativeorganizeritemdetail_p.o(.ARM.extab)
    .extab._ZN33QDeclarativeOrganizerItemReminder11qt_metacallEN11QMetaObject4CallEiPPv 0x0002ef20   Data           0  moc_qdeclarativeorganizeritemdetail_p.o(.ARM.extab)
    .extab._ZN40QDeclarativeOrganizerItemAudibleReminder11qt_metacallEN11QMetaObject4CallEiPPv 0x0002ef40   Data           0  moc_qdeclarativeorganizeritemdetail_p.o(.ARM.extab)
    .extab._ZN39QDeclarativeOrganizerItemVisualReminder11qt_metacallEN11QMetaObject4CallEiPPv 0x0002ef60   Data           0  moc_qdeclarativeorganizeritemdetail_p.o(.ARM.extab)
    .extab._ZN38QDeclarativeOrganizerItemEmailReminder11qt_metacallEN11QMetaObject4CallEiPPv 0x0002ef98   Data           0  moc_qdeclarativeorganizeritemdetail_p.o(.ARM.extab)
    .extab._ZN34QDeclarativeOrganizerItemTimestamp11qt_metacallEN11QMetaObject4CallEiPPv 0x0002f000   Data           0  moc_qdeclarativeorganizeritemdetail_p.o(.ARM.extab)
    .extab._ZN32QDeclarativeOrganizerJournalTime11qt_metacallEN11QMetaObject4CallEiPPv 0x0002f018   Data           0  moc_qdeclarativeorganizeritemdetail_p.o(.ARM.extab)
    .extab._ZN33QDeclarativeOrganizerTodoProgress11qt_metacallEN11QMetaObject4CallEiPPv 0x0002f028   Data           0  moc_qdeclarativeorganizeritemdetail_p.o(.ARM.extab)
    .extab._ZN29QDeclarativeOrganizerTodoTime11qt_metacallEN11QMetaObject4CallEiPPv 0x0002f040   Data           0  moc_qdeclarativeorganizeritemdetail_p.o(.ARM.extab)
    .extab._Z24qMetaTypeConstructHelperIN10QtMobility16QOrganizerItemIdEEPvPKT_ 0x0002f060   Data           0  moc_qdeclarativeorganizeritemdetail_p.o(.ARM.extab)
    .extab._Z24qMetaTypeConstructHelperI4QSetIN10QtMobility24QOrganizerRecurrenceRuleEEEPvPKT_ 0x0002f078   Data           0  moc_qdeclarativeorganizeritemdetail_p.o(.ARM.extab)
    .extab._ZN5QListI7QStringE9node_copyEPNS1_4NodeES3_S3_ 0x0002f090   Data           0  moc_qdeclarativeorganizeritemdetail_p.o(.ARM.extab)
    .extab._ZN5QListI7QStringE13detach_helperEi 0x0002f0b4   Data           0  moc_qdeclarativeorganizeritemdetail_p.o(.ARM.extab)
    .extab._ZN5QListIP35QDeclarativeOrganizerRecurrenceRuleE13detach_helperEi 0x0002f0d0   Data           0  moc_qdeclarativeorganizeritemdetail_p.o(.ARM.extab)
    .extab._Z20qForeachContainerNewI5QListIP35QDeclarativeOrganizerRecurrenceRuleEE17QForeachContainerIT_ERKS5_ 0x0002f0ec   Data           0  moc_qdeclarativeorganizeritemdetail_p.o(.ARM.extab)
    .extab._ZN5QListI7QStringE14node_constructEPNS1_4NodeERKS0_ 0x0002f0fc   Data           0  moc_qdeclarativeorganizeritemdetail_p.o(.ARM.extab)
    .extab._ZN5QListI7QStringE18detach_helper_growEii 0x0002f10c   Data           0  moc_qdeclarativeorganizeritemdetail_p.o(.ARM.extab)
    .extab._ZN5QListI7QStringE6appendERKS0_  0x0002f13c   Data           0  moc_qdeclarativeorganizeritemdetail_p.o(.ARM.extab)
    .extab._ZNK4QMapI7QString8QVariantE4keysEv 0x0002f16c   Data           0  moc_qdeclarativeorganizeritemdetail_p.o(.ARM.extab)
    .extab._ZN16QDeclarativeInfolsERK7QString 0x0002f17c   Data           0  moc_qdeclarativeorganizeritemdetail_p.o(.ARM.extab)
    .extab._ZN5QListIP35QDeclarativeOrganizerRecurrenceRuleE5clearEv 0x0002f194   Data           0  moc_qdeclarativeorganizeritemdetail_p.o(.ARM.extab)
    .extab._ZN5QListIP35QDeclarativeOrganizerRecurrenceRuleE18detach_helper_growEii 0x0002f1a4   Data           0  moc_qdeclarativeorganizeritemdetail_p.o(.ARM.extab)
    .extab._ZN5QListIP35QDeclarativeOrganizerRecurrenceRuleE6appendERKS1_ 0x0002f1d4   Data           0  moc_qdeclarativeorganizeritemdetail_p.o(.ARM.extab)
    .extab._ZN31QDeclarativeOrganizerItemDetailD1Ev 0x0002f1f0   Data           0  moc_qdeclarativeorganizeritemdetail_p.o(.ARM.extab)
    .extab._ZNK10QtMobility20QOrganizerItemDetail5valueIbLi7EEET_RKNS_15QLatin1ConstantIXT0_EEE 0x0002f200   Data           0  moc_qdeclarativeorganizeritemdetail_p.o(.ARM.extab)
    .extab._ZNK10QtMobility20QOrganizerItemDetail5valueI9QDateTimeEET_PKc 0x0002f210   Data           0  moc_qdeclarativeorganizeritemdetail_p.o(.ARM.extab)
    .extab._ZNK30QDeclarativeOrganizerEventTime11endDateTimeEv 0x0002f228   Data           0  moc_qdeclarativeorganizeritemdetail_p.o(.ARM.extab)
    .extab._ZNK31QDeclarativeOrganizerItemParent12originalDateEv 0x0002f238   Data           0  moc_qdeclarativeorganizeritemdetail_p.o(.ARM.extab)
    .extab._ZNK31QDeclarativeOrganizerItemParent8parentIdEv 0x0002f248   Data           0  moc_qdeclarativeorganizeritemdetail_p.o(.ARM.extab)
    .extab._ZNK10QtMobility20QOrganizerItemDetail5valueIdEET_PKc 0x0002f270   Data           0  moc_qdeclarativeorganizeritemdetail_p.o(.ARM.extab)
    .extab._ZNK10QtMobility20QOrganizerItemDetail5valueIiEET_PKc 0x0002f280   Data           0  moc_qdeclarativeorganizeritemdetail_p.o(.ARM.extab)
    .extab._ZNK35QDeclarativeOrganizerItemRecurrence14exceptionDatesEv 0x0002f290   Data           0  moc_qdeclarativeorganizeritemdetail_p.o(.ARM.extab)
    .extab._ZNK35QDeclarativeOrganizerItemRecurrence15recurrenceDatesEv 0x0002f2a0   Data           0  moc_qdeclarativeorganizeritemdetail_p.o(.ARM.extab)
    .extab._ZN35QDeclarativeOrganizerItemRecurrenceD1Ev 0x0002f2b0   Data           0  moc_qdeclarativeorganizeritemdetail_p.o(.ARM.extab)
    .extab._ZNK34QDeclarativeOrganizerItemTimestamp7createdEv 0x0002f2c8   Data           0  moc_qdeclarativeorganizeritemdetail_p.o(.ARM.extab)
    .extab._ZNK34QDeclarativeOrganizerItemTimestamp12lastModifiedEv 0x0002f2d8   Data           0  moc_qdeclarativeorganizeritemdetail_p.o(.ARM.extab)
    .extab._ZNK10QtMobility15QLatin1ConstantILi5EEcv8QVariantEv 0x0002f2e8   Data           0  moc_qdeclarativeorganizeritemdetail_p.o(.ARM.extab)
    .extab._ZNK29QDeclarativeOrganizerItemType8itemTypeEv 0x0002f2f8   Data           0  moc_qdeclarativeorganizeritemdetail_p.o(.ARM.extab)
    .extab._ZN29QDeclarativeOrganizerItemType11setItemTypeENS_17OrganizerItemTypeE 0x0002f358   Data           0  moc_qdeclarativeorganizeritemdetail_p.o(.ARM.extab)
    .extab._ZNK33QDeclarativeOrganizerTodoProgress16finishedDateTimeEv 0x0002f3c8   Data           0  moc_qdeclarativeorganizeritemdetail_p.o(.ARM.extab)
    .extab._ZNK29QDeclarativeOrganizerTodoTime11dueDateTimeEv 0x0002f3d8   Data           0  moc_qdeclarativeorganizeritemdetail_p.o(.ARM.extab)
    .extab._ZN5QHashIN10QtMobility24QOrganizerRecurrenceRuleE15QHashDummyValueE13duplicateNodeEPN9QHashData4NodeEPv 0x0002f3e8   Data           0  moc_qdeclarativeorganizeritemdetail_p.o(.ARM.extab)
    .extab._ZN30QDeclarativeOrganizerEventTime14setEndDateTimeERK9QDateTime 0x0002f3f8   Data           0  moc_qdeclarativeorganizeritemdetail_p.o(.ARM.extab)
    .extab._ZN30QDeclarativeOrganizerEventTime16setStartDateTimeERK9QDateTime 0x0002f420   Data           0  moc_qdeclarativeorganizeritemdetail_p.o(.ARM.extab)
    .extab._ZN31QDeclarativeOrganizerItemParent11setParentIdERK7QString 0x0002f448   Data           0  moc_qdeclarativeorganizeritemdetail_p.o(.ARM.extab)
    .extab._ZN35QDeclarativeOrganizerItemRecurrence19_saveExceptionRulesEv 0x0002f470   Data           0  moc_qdeclarativeorganizeritemdetail_p.o(.ARM.extab)
    .extab._ZN35QDeclarativeOrganizerItemRecurrence20_saveRecurrenceRulesEv 0x0002f4b0   Data           0  moc_qdeclarativeorganizeritemdetail_p.o(.ARM.extab)
    .extab._ZNK33QDeclarativeOrganizerItemReminder12reminderTypeEv 0x0002f4f0   Data           0  moc_qdeclarativeorganizeritemdetail_p.o(.ARM.extab)
    .extab._ZN34QDeclarativeOrganizerItemTimestamp10setCreatedERK9QDateTime 0x0002f510   Data           0  moc_qdeclarativeorganizeritemdetail_p.o(.ARM.extab)
    .extab._ZN34QDeclarativeOrganizerItemTimestamp15setLastModifiedERK9QDateTime 0x0002f538   Data           0  moc_qdeclarativeorganizeritemdetail_p.o(.ARM.extab)
    .extab._ZN32QDeclarativeOrganizerJournalTime16setEntryDateTimeERK9QDateTime 0x0002f560   Data           0  moc_qdeclarativeorganizeritemdetail_p.o(.ARM.extab)
    .extab._ZN33QDeclarativeOrganizerTodoProgress19setFinishedDateTimeERK9QDateTime 0x0002f588   Data           0  moc_qdeclarativeorganizeritemdetail_p.o(.ARM.extab)
    .extab._ZN33QDeclarativeOrganizerTodoProgress21setPercentageCompleteEi 0x0002f5b0   Data           0  moc_qdeclarativeorganizeritemdetail_p.o(.ARM.extab)
    .extab._ZN29QDeclarativeOrganizerTodoTime14setDueDateTimeERK9QDateTime 0x0002f5d8   Data           0  moc_qdeclarativeorganizeritemdetail_p.o(.ARM.extab)
    .extab._ZN29QDeclarativeOrganizerTodoTime16setStartDateTimeERK9QDateTime 0x0002f600   Data           0  moc_qdeclarativeorganizeritemdetail_p.o(.ARM.extab)
    .extab._ZNK10QtMobility20QOrganizerItemDetail5valueI4QUrlEET_PKc 0x0002f628   Data           0  moc_qdeclarativeorganizeritemdetail_p.o(.ARM.extab)
    .extab._ZNK10QtMobility20QOrganizerItemDetail5valueI7QStringEET_PKc 0x0002f640   Data           0  moc_qdeclarativeorganizeritemdetail_p.o(.ARM.extab)
    .extab._ZNK10QtMobility20QOrganizerItemDetail5valueI5QListI8QVariantEEET_PKc 0x0002f658   Data           0  moc_qdeclarativeorganizeritemdetail_p.o(.ARM.extab)
    .extab._ZNK10QtMobility20QOrganizerItemDetail5valueI11QStringListEET_PKc 0x0002f670   Data           0  moc_qdeclarativeorganizeritemdetail_p.o(.ARM.extab)
    .extab._ZN5QHashIN10QtMobility24QOrganizerRecurrenceRuleE15QHashDummyValueE6insertERKS1_RKS2_ 0x0002f688   Data           0  moc_qdeclarativeorganizeritemdetail_p.o(.ARM.extab)
    .extab._ZN31QDeclarativeOrganizerItemFilter11qt_metacallEN11QMetaObject4CallEiPPv 0x0002f698   Data           0  moc_qdeclarativeorganizeritemfilter_p.o(.ARM.extab)
    .extab._ZN40QDeclarativeOrganizerItemChangeLogFilter11qt_metacallEN11QMetaObject4CallEiPPv 0x0002f6a8   Data           0  moc_qdeclarativeorganizeritemfilter_p.o(.ARM.extab)
    .extab._ZN41QDeclarativeOrganizerItemCollectionFilter11qt_metacallEN11QMetaObject4CallEiPPv 0x0002f6c0   Data           0  moc_qdeclarativeorganizeritemfilter_p.o(.ARM.extab)
    .extab._ZN37QDeclarativeOrganizerItemDetailFilter11qt_metacallEN11QMetaObject4CallEiPPv 0x0002f6d0   Data           0  moc_qdeclarativeorganizeritemfilter_p.o(.ARM.extab)
    .extab._ZN42QDeclarativeOrganizerItemDetailRangeFilter11qt_metacallEN11QMetaObject4CallEiPPv 0x0002f6f8   Data           0  moc_qdeclarativeorganizeritemfilter_p.o(.ARM.extab)
    .extab._ZN33QDeclarativeOrganizerItemIdFilter11qt_metacallEN11QMetaObject4CallEiPPv 0x0002f740   Data           0  moc_qdeclarativeorganizeritemfilter_p.o(.ARM.extab)
    .extab._Z20qForeachContainerNewI5QListI8QVariantEE17QForeachContainerIT_ERKS4_ 0x0002f750   Data           0  moc_qdeclarativeorganizeritemfilter_p.o(.ARM.extab)
    .extab._Z20qForeachContainerNewI11QStringListE17QForeachContainerIT_ERKS2_ 0x0002f760   Data           0  moc_qdeclarativeorganizeritemfilter_p.o(.ARM.extab)
    .extab._ZN5QListIP31QDeclarativeOrganizerItemFilterE13detach_helperEi 0x0002f770   Data           0  moc_qdeclarativeorganizeritemfilter_p.o(.ARM.extab)
    .extab._Z20qForeachContainerNewI5QListIP31QDeclarativeOrganizerItemFilterEE17QForeachContainerIT_ERKS5_ 0x0002f78c   Data           0  moc_qdeclarativeorganizeritemfilter_p.o(.ARM.extab)
    .extab._ZN5QListIP31QDeclarativeOrganizerItemFilterE5clearEv 0x0002f79c   Data           0  moc_qdeclarativeorganizeritemfilter_p.o(.ARM.extab)
    .extab._ZN5QListIP31QDeclarativeOrganizerItemFilterE18detach_helper_growEii 0x0002f7ac   Data           0  moc_qdeclarativeorganizeritemfilter_p.o(.ARM.extab)
    .extab._ZN5QListIP31QDeclarativeOrganizerItemFilterE6appendERKS1_ 0x0002f7dc   Data           0  moc_qdeclarativeorganizeritemfilter_p.o(.ARM.extab)
    .extab._ZN40QDeclarativeOrganizerItemChangeLogFilterD1Ev 0x0002f7f8   Data           0  moc_qdeclarativeorganizeritemfilter_p.o(.ARM.extab)
    .extab._ZN41QDeclarativeOrganizerItemCollectionFilterD1Ev 0x0002f808   Data           0  moc_qdeclarativeorganizeritemfilter_p.o(.ARM.extab)
    .extab._ZN37QDeclarativeOrganizerItemDetailFilter23setDetailDefinitionNameEv 0x0002f818   Data           0  moc_qdeclarativeorganizeritemfilter_p.o(.ARM.extab)
    .extab._ZN37QDeclarativeOrganizerItemDetailFilterD1Ev 0x0002f898   Data           0  moc_qdeclarativeorganizeritemfilter_p.o(.ARM.extab)
    .extab._ZN42QDeclarativeOrganizerItemDetailRangeFilter23setDetailDefinitionNameEv 0x0002f8c0   Data           0  moc_qdeclarativeorganizeritemfilter_p.o(.ARM.extab)
    .extab._ZN42QDeclarativeOrganizerItemDetailRangeFilterD1Ev 0x0002f940   Data           0  moc_qdeclarativeorganizeritemfilter_p.o(.ARM.extab)
    .extab._ZN33QDeclarativeOrganizerItemIdFilterD1Ev 0x0002f968   Data           0  moc_qdeclarativeorganizeritemfilter_p.o(.ARM.extab)
    .extab._ZN5QListIN10QtMobility20QOrganizerItemFilterEE14node_constructEPNS2_4NodeERKS1_ 0x0002f978   Data           0  moc_qdeclarativeorganizeritemfilter_p.o(.ARM.extab)
    .extab._ZN5QListIN10QtMobility20QOrganizerItemFilterEE9node_copyEPNS2_4NodeES4_S4_ 0x0002f988   Data           0  moc_qdeclarativeorganizeritemfilter_p.o(.ARM.extab)
    .extab._ZN5QListIN10QtMobility20QOrganizerItemFilterEE18detach_helper_growEii 0x0002f9ac   Data           0  moc_qdeclarativeorganizeritemfilter_p.o(.ARM.extab)
    .extab._ZN5QListIN10QtMobility20QOrganizerItemFilterEE6appendERKS1_ 0x0002f9dc   Data           0  moc_qdeclarativeorganizeritemfilter_p.o(.ARM.extab)
    .extab._ZN43QDeclarativeOrganizerItemIntersectionFilterD1Ev 0x0002fa0c   Data           0  moc_qdeclarativeorganizeritemfilter_p.o(.ARM.extab)
    .extab._ZN36QDeclarativeOrganizerItemUnionFilterD1Ev 0x0002fa1c   Data           0  moc_qdeclarativeorganizeritemfilter_p.o(.ARM.extab)
    .extab._ZN41QDeclarativeOrganizerItemCollectionFilter6setIdsERK11QStringList 0x0002fa2c   Data           0  moc_qdeclarativeorganizeritemfilter_p.o(.ARM.extab)
    .extab._ZN42QDeclarativeOrganizerItemDetailRangeFilter13setRangeFlagsE6QFlagsINS_9RangeFlagEE 0x0002fa54   Data           0  moc_qdeclarativeorganizeritemfilter_p.o(.ARM.extab)
    .extab._ZN33QDeclarativeOrganizerItemIdFilter6setIdsERK5QListI8QVariantE 0x0002fa74   Data           0  moc_qdeclarativeorganizeritemfilter_p.o(.ARM.extab)
    .extab._ZNK43QDeclarativeOrganizerItemIntersectionFilter6filterEv 0x0002fa94   Data           0  moc_qdeclarativeorganizeritemfilter_p.o(.ARM.extab)
    .extab._ZNK36QDeclarativeOrganizerItemUnionFilter6filterEv 0x0002fad4   Data           0  moc_qdeclarativeorganizeritemfilter_p.o(.ARM.extab)
    .extab._ZNK38QDeclarativeOrganizerItemInvalidFilter6filterEv 0x0002fb14   Data           0  moc_qdeclarativeorganizeritemfilter_p.o(.ARM.extab)
    .extab._ZN35QDeclarativeOrganizerRecurrenceRule11qt_metacallEN11QMetaObject4CallEiPPv 0x0002fb24   Data           0  moc_qdeclarativeorganizerrecurrencerule_p.o(.ARM.extab)
    .extab._ZN5QListI8QVariantE9node_copyEPNS1_4NodeES3_S3_ 0x0002fb5c   Data           0  moc_qdeclarativeorganizerrecurrencerule_p.o(.ARM.extab)
    .extab._ZN5QListI8QVariantE13detach_helperEi 0x0002fb80   Data           0  moc_qdeclarativeorganizerrecurrencerule_p.o(.ARM.extab)
    .extab._Z20qForeachContainerNewI4QSetIiEE17QForeachContainerIT_ERKS3_ 0x0002fb9c   Data           0  moc_qdeclarativeorganizerrecurrencerule_p.o(.ARM.extab)
    .extab._ZN5QListI8QVariantE14node_constructEPNS1_4NodeERKS0_ 0x0002fbac   Data           0  moc_qdeclarativeorganizerrecurrencerule_p.o(.ARM.extab)
    .extab._ZN5QListI8QVariantE18detach_helper_growEii 0x0002fbbc   Data           0  moc_qdeclarativeorganizerrecurrencerule_p.o(.ARM.extab)
    .extab._ZN5QListI8QVariantE6appendERKS0_ 0x0002fbec   Data           0  moc_qdeclarativeorganizerrecurrencerule_p.o(.ARM.extab)
    .extab._ZN6QDebugD1Ev                    0x0002fc1c   Data           0  moc_qdeclarativeorganizerrecurrencerule_p.o(.ARM.extab)
    .extab._ZNK35QDeclarativeOrganizerRecurrenceRule9positionsEv 0x0002fc40   Data           0  moc_qdeclarativeorganizerrecurrencerule_p.o(.ARM.extab)
    .extab._ZN35QDeclarativeOrganizerRecurrenceRule8setLimitERK8QVariant 0x0002fc80   Data           0  moc_qdeclarativeorganizerrecurrencerule_p.o(.ARM.extab)
    .extab._ZNK35QDeclarativeOrganizerRecurrenceRule12monthsOfYearEv 0x0002fce0   Data           0  moc_qdeclarativeorganizerrecurrencerule_p.o(.ARM.extab)
    .extab._ZNK35QDeclarativeOrganizerRecurrenceRule10daysOfWeekEv 0x0002fd28   Data           0  moc_qdeclarativeorganizerrecurrencerule_p.o(.ARM.extab)
    .extab._ZN35QDeclarativeOrganizerRecurrenceRuleD1Ev 0x0002fd70   Data           0  moc_qdeclarativeorganizerrecurrencerule_p.o(.ARM.extab)
    .extab._ZN35QDeclarativeOrganizerRecurrenceRule12setPositionsERK5QListI8QVariantE 0x0002fd80   Data           0  moc_qdeclarativeorganizerrecurrencerule_p.o(.ARM.extab)
    .extab._ZN35QDeclarativeOrganizerRecurrenceRule15setMonthsOfYearERK5QListI8QVariantE 0x0002fdb8   Data           0  moc_qdeclarativeorganizerrecurrencerule_p.o(.ARM.extab)
    .extab._ZN35QDeclarativeOrganizerRecurrenceRule13setDaysOfYearERK5QListI8QVariantE 0x0002fdf8   Data           0  moc_qdeclarativeorganizerrecurrencerule_p.o(.ARM.extab)
    .extab._ZN35QDeclarativeOrganizerRecurrenceRule14setDaysOfMonthERK5QListI8QVariantE 0x0002fe38   Data           0  moc_qdeclarativeorganizerrecurrencerule_p.o(.ARM.extab)
    .extab._ZN35QDeclarativeOrganizerRecurrenceRule13setDaysOfWeekERK5QListI8QVariantE 0x0002fe78   Data           0  moc_qdeclarativeorganizerrecurrencerule_p.o(.ARM.extab)
    .extab._ZNK35QDeclarativeOrganizerRecurrenceRule10daysOfYearEv 0x0002feb8   Data           0  moc_qdeclarativeorganizerrecurrencerule_p.o(.ARM.extab)
    .extab._ZNK35QDeclarativeOrganizerRecurrenceRule11daysOfMonthEv 0x0002fef8   Data           0  moc_qdeclarativeorganizerrecurrencerule_p.o(.ARM.extab)
    .extab._ZN31QDeclarativeOrganizerCollection11qt_metacallEN11QMetaObject4CallEiPPv 0x0002ff38   Data           0  moc_qdeclarativeorganizercollection_p.o(.ARM.extab)
    .extab._ZN31QDeclarativeOrganizerCollection11setMetaDataERK7QStringRK8QVariant 0x00030030   Data           0  moc_qdeclarativeorganizercollection_p.o(.ARM.extab)
    .extab._ZN31QDeclarativeOrganizerCollectionD1Ev 0x00030040   Data           0  moc_qdeclarativeorganizercollection_p.o(.ARM.extab)
    .extab._ZNK31QDeclarativeOrganizerCollection5colorEv 0x00030050   Data           0  moc_qdeclarativeorganizercollection_p.o(.ARM.extab)
    .extab._ZN34QDeclarativeOrganizerItemSortOrder11qt_metacallEN11QMetaObject4CallEiPPv 0x00030070   Data           0  moc_qdeclarativeorganizeritemsortorder_p.o(.ARM.extab)
    .extab._ZN34QDeclarativeOrganizerItemSortOrder9sortOrderEv 0x00030088   Data           0  moc_qdeclarativeorganizeritemsortorder_p.o(.ARM.extab)
    .extab._ZN34QDeclarativeOrganizerItemSortOrder17componentCompleteEv 0x00030108   Data           0  moc_qdeclarativeorganizeritemsortorder_p.o(.ARM.extab)
    .extab._ZN34QDeclarativeOrganizerItemSortOrderD1Ev 0x00030118   Data           0  moc_qdeclarativeorganizeritemsortorder_p.o(.ARM.extab)
    .extab._ZN34QDeclarativeOrganizerItemSortOrder12setSortOrderERKN10QtMobility23QOrganizerItemSortOrderE 0x00030140   Data           0  moc_qdeclarativeorganizeritemsortorder_p.o(.ARM.extab)
    .extab._ZN34QDeclarativeOrganizerItemFetchHintD1Ev 0x00030178   Data           0  moc_qdeclarativeorganizeritemfetchhint_p.o(.ARM.extab)
    .extab.qt_plugin_instance                0x00030188   Data           0  plugin.o(.ARM.extab)
    .extab._ZplRK10QByteArrayPKc             0x000301a0   Data           0  plugin.o(.ARM.extab)
    .extab._ZplRK10QByteArrayc               0x000301b0   Data           0  plugin.o(.ARM.extab)
    .extab._ZplPKcRK10QByteArray             0x000301c0   Data           0  plugin.o(.ARM.extab)
    .extab._Z15qmlRegisterTypeI26QDeclarativeOrganizerModelEiPKciiS2_ 0x000301d0   Data           0  plugin.o(.ARM.extab)
    .extab._Z15qmlRegisterTypeI35QDeclarativeOrganizerRecurrenceRuleEiPKciiS2_ 0x00030240   Data           0  plugin.o(.ARM.extab)
    .extab._Z15qmlRegisterTypeI34QDeclarativeOrganizerItemFetchHintEiPKciiS2_ 0x000302b0   Data           0  plugin.o(.ARM.extab)
    .extab._Z15qmlRegisterTypeI34QDeclarativeOrganizerItemSortOrderEiPKciiS2_ 0x00030320   Data           0  plugin.o(.ARM.extab)
    .extab._Z15qmlRegisterTypeI31QDeclarativeOrganizerCollectionEiPKciiS2_ 0x00030390   Data           0  plugin.o(.ARM.extab)
    .extab._Z15qmlRegisterTypeI25QDeclarativeOrganizerItemEiPKciiS2_ 0x00030400   Data           0  plugin.o(.ARM.extab)
    .extab._Z15qmlRegisterTypeI26QDeclarativeOrganizerEventEiPKciiS2_ 0x00030470   Data           0  plugin.o(.ARM.extab)
    .extab._Z15qmlRegisterTypeI36QDeclarativeOrganizerEventOccurrenceEiPKciiS2_ 0x000304e0   Data           0  plugin.o(.ARM.extab)
    .extab._Z15qmlRegisterTypeI28QDeclarativeOrganizerJournalEiPKciiS2_ 0x00030550   Data           0  plugin.o(.ARM.extab)
    .extab._Z15qmlRegisterTypeI25QDeclarativeOrganizerNoteEiPKciiS2_ 0x000305c0   Data           0  plugin.o(.ARM.extab)
    .extab._Z15qmlRegisterTypeI25QDeclarativeOrganizerTodoEiPKciiS2_ 0x00030630   Data           0  plugin.o(.ARM.extab)
    .extab._Z15qmlRegisterTypeI35QDeclarativeOrganizerTodoOccurrenceEiPKciiS2_ 0x000306a0   Data           0  plugin.o(.ARM.extab)
    .extab._Z15qmlRegisterTypeI31QDeclarativeOrganizerItemDetailEiPKciiS2_ 0x00030710   Data           0  plugin.o(.ARM.extab)
    .extab._Z15qmlRegisterTypeI30QDeclarativeOrganizerEventTimeEiPKciiS2_ 0x00030780   Data           0  plugin.o(.ARM.extab)
    .extab._Z15qmlRegisterTypeI36QDeclarativeOrganizerItemDescriptionEiPKciiS2_ 0x000307f0   Data           0  plugin.o(.ARM.extab)
    .extab._Z15qmlRegisterTypeI37QDeclarativeOrganizerItemDisplayLabelEiPKciiS2_ 0x00030860   Data           0  plugin.o(.ARM.extab)
    .extab._Z15qmlRegisterTypeI29QDeclarativeOrganizerItemGuidEiPKciiS2_ 0x000308d0   Data           0  plugin.o(.ARM.extab)
    .extab._Z15qmlRegisterTypeI31QDeclarativeOrganizerItemParentEiPKciiS2_ 0x00030940   Data           0  plugin.o(.ARM.extab)
    .extab._Z15qmlRegisterTypeI33QDeclarativeOrganizerItemLocationEiPKciiS2_ 0x000309b0   Data           0  plugin.o(.ARM.extab)
    .extab._Z15qmlRegisterTypeI33QDeclarativeOrganizerItemPriorityEiPKciiS2_ 0x00030a20   Data           0  plugin.o(.ARM.extab)
    .extab._Z15qmlRegisterTypeI35QDeclarativeOrganizerItemRecurrenceEiPKciiS2_ 0x00030a90   Data           0  plugin.o(.ARM.extab)
    .extab._Z15qmlRegisterTypeI33QDeclarativeOrganizerItemReminderEiPKciiS2_ 0x00030b00   Data           0  plugin.o(.ARM.extab)
    .extab._Z15qmlRegisterTypeI40QDeclarativeOrganizerItemAudibleReminderEiPKciiS2_ 0x00030b70   Data           0  plugin.o(.ARM.extab)
    .extab._Z15qmlRegisterTypeI39QDeclarativeOrganizerItemVisualReminderEiPKciiS2_ 0x00030be0   Data           0  plugin.o(.ARM.extab)
    .extab._Z15qmlRegisterTypeI38QDeclarativeOrganizerItemEmailReminderEiPKciiS2_ 0x00030c50   Data           0  plugin.o(.ARM.extab)
    .extab._Z15qmlRegisterTypeI34QDeclarativeOrganizerItemTimestampEiPKciiS2_ 0x00030cc0   Data           0  plugin.o(.ARM.extab)
    .extab._Z15qmlRegisterTypeI29QDeclarativeOrganizerItemTypeEiPKciiS2_ 0x00030d30   Data           0  plugin.o(.ARM.extab)
    .extab._Z15qmlRegisterTypeI32QDeclarativeOrganizerJournalTimeEiPKciiS2_ 0x00030da0   Data           0  plugin.o(.ARM.extab)
    .extab._Z15qmlRegisterTypeI33QDeclarativeOrganizerTodoProgressEiPKciiS2_ 0x00030e10   Data           0  plugin.o(.ARM.extab)
    .extab._Z15qmlRegisterTypeI29QDeclarativeOrganizerTodoTimeEiPKciiS2_ 0x00030e80   Data           0  plugin.o(.ARM.extab)
    .extab._Z15qmlRegisterTypeI31QDeclarativeOrganizerItemFilterEiPKciiS2_ 0x00030ef0   Data           0  plugin.o(.ARM.extab)
    .extab._Z15qmlRegisterTypeI40QDeclarativeOrganizerItemChangeLogFilterEiPKciiS2_ 0x00030f60   Data           0  plugin.o(.ARM.extab)
    .extab._Z15qmlRegisterTypeI41QDeclarativeOrganizerItemCollectionFilterEiPKciiS2_ 0x00030fd0   Data           0  plugin.o(.ARM.extab)
    .extab._Z15qmlRegisterTypeI37QDeclarativeOrganizerItemDetailFilterEiPKciiS2_ 0x00031040   Data           0  plugin.o(.ARM.extab)
    .extab._Z15qmlRegisterTypeI42QDeclarativeOrganizerItemDetailRangeFilterEiPKciiS2_ 0x000310b0   Data           0  plugin.o(.ARM.extab)
    .extab._Z15qmlRegisterTypeI33QDeclarativeOrganizerItemIdFilterEiPKciiS2_ 0x00031120   Data           0  plugin.o(.ARM.extab)
    .extab._Z15qmlRegisterTypeI43QDeclarativeOrganizerItemIntersectionFilterEiPKciiS2_ 0x00031190   Data           0  plugin.o(.ARM.extab)
    .extab._Z15qmlRegisterTypeI36QDeclarativeOrganizerItemUnionFilterEiPKciiS2_ 0x00031200   Data           0  plugin.o(.ARM.extab)
    .extab._Z15qmlRegisterTypeI38QDeclarativeOrganizerItemInvalidFilterEiPKciiS2_ 0x00031270   Data           0  plugin.o(.ARM.extab)
    .extab._ZN31QDeclarativeOrganizerItemDetailC1EP7QObject 0x000312e0   Data           0  plugin.o(.ARM.extab)
    .extab._ZN35QDeclarativeOrganizerItemRecurrenceC1EP7QObject 0x000312f0   Data           0  plugin.o(.ARM.extab)
    .extab._ZN33QDeclarativeOrganizerItemReminderC1EP7QObject 0x00031320   Data           0  plugin.o(.ARM.extab)
    .extab._ZN31QDeclarativeOrganizerItemFilterC1EP7QObject 0x00031340   Data           0  plugin.o(.ARM.extab)
    .extab._ZN19QDeclarativePrivate19QDeclarativeElementI26QDeclarativeOrganizerModelED1Ev 0x00031350   Data           0  plugin.o(.ARM.extab)
    .extab._ZN19QDeclarativePrivate19QDeclarativeElementI34QDeclarativeOrganizerItemSortOrderED1Ev 0x00031360   Data           0  plugin.o(.ARM.extab)
    .extab._ZN19QDeclarativePrivate19QDeclarativeElementI37QDeclarativeOrganizerItemDetailFilterED1Ev 0x00031370   Data           0  plugin.o(.ARM.extab)
    .extab._ZN19QDeclarativePrivate19QDeclarativeElementI42QDeclarativeOrganizerItemDetailRangeFilterED1Ev 0x00031380   Data           0  plugin.o(.ARM.extab)
    .extab._ZN19QDeclarativePrivate10createIntoI26QDeclarativeOrganizerModelEEvPv 0x00031390   Data           0  plugin.o(.ARM.extab)
    .extab._ZN19QDeclarativePrivate10createIntoI35QDeclarativeOrganizerRecurrenceRuleEEvPv 0x000313a0   Data           0  plugin.o(.ARM.extab)
    .extab._ZN19QDeclarativePrivate10createIntoI34QDeclarativeOrganizerItemFetchHintEEvPv 0x000313b8   Data           0  plugin.o(.ARM.extab)
    .extab._ZN19QDeclarativePrivate10createIntoI34QDeclarativeOrganizerItemSortOrderEEvPv 0x000313d0   Data           0  plugin.o(.ARM.extab)
    .extab._ZN19QDeclarativePrivate10createIntoI31QDeclarativeOrganizerCollectionEEvPv 0x000313e0   Data           0  plugin.o(.ARM.extab)
    .extab._ZN19QDeclarativePrivate10createIntoI25QDeclarativeOrganizerItemEEvPv 0x000313f8   Data           0  plugin.o(.ARM.extab)
    .extab._ZN19QDeclarativePrivate10createIntoI26QDeclarativeOrganizerEventEEvPv 0x00031408   Data           0  plugin.o(.ARM.extab)
    .extab._ZN19QDeclarativePrivate10createIntoI36QDeclarativeOrganizerEventOccurrenceEEvPv 0x00031418   Data           0  plugin.o(.ARM.extab)
    .extab._ZN19QDeclarativePrivate10createIntoI28QDeclarativeOrganizerJournalEEvPv 0x00031428   Data           0  plugin.o(.ARM.extab)
    .extab._ZN19QDeclarativePrivate10createIntoI25QDeclarativeOrganizerNoteEEvPv 0x00031438   Data           0  plugin.o(.ARM.extab)
    .extab._ZN19QDeclarativePrivate10createIntoI25QDeclarativeOrganizerTodoEEvPv 0x00031448   Data           0  plugin.o(.ARM.extab)
    .extab._ZN19QDeclarativePrivate10createIntoI35QDeclarativeOrganizerTodoOccurrenceEEvPv 0x00031458   Data           0  plugin.o(.ARM.extab)
    .extab._ZN19QDeclarativePrivate10createIntoI31QDeclarativeOrganizerItemDetailEEvPv 0x00031468   Data           0  plugin.o(.ARM.extab)
    .extab._ZN19QDeclarativePrivate10createIntoI30QDeclarativeOrganizerEventTimeEEvPv 0x00031478   Data           0  plugin.o(.ARM.extab)
    .extab._ZN19QDeclarativePrivate10createIntoI36QDeclarativeOrganizerItemDescriptionEEvPv 0x00031488   Data           0  plugin.o(.ARM.extab)
    .extab._ZN19QDeclarativePrivate10createIntoI37QDeclarativeOrganizerItemDisplayLabelEEvPv 0x00031498   Data           0  plugin.o(.ARM.extab)
    .extab._ZN19QDeclarativePrivate10createIntoI29QDeclarativeOrganizerItemGuidEEvPv 0x000314a8   Data           0  plugin.o(.ARM.extab)
    .extab._ZN19QDeclarativePrivate10createIntoI31QDeclarativeOrganizerItemParentEEvPv 0x000314b8   Data           0  plugin.o(.ARM.extab)
    .extab._ZN19QDeclarativePrivate10createIntoI33QDeclarativeOrganizerItemLocationEEvPv 0x000314c8   Data           0  plugin.o(.ARM.extab)
    .extab._ZN19QDeclarativePrivate10createIntoI33QDeclarativeOrganizerItemPriorityEEvPv 0x000314d8   Data           0  plugin.o(.ARM.extab)
    .extab._ZN19QDeclarativePrivate10createIntoI35QDeclarativeOrganizerItemRecurrenceEEvPv 0x000314e8   Data           0  plugin.o(.ARM.extab)
    .extab._ZN19QDeclarativePrivate10createIntoI33QDeclarativeOrganizerItemReminderEEvPv 0x000314f8   Data           0  plugin.o(.ARM.extab)
    .extab._ZN19QDeclarativePrivate10createIntoI40QDeclarativeOrganizerItemAudibleReminderEEvPv 0x00031508   Data           0  plugin.o(.ARM.extab)
    .extab._ZN19QDeclarativePrivate10createIntoI39QDeclarativeOrganizerItemVisualReminderEEvPv 0x00031518   Data           0  plugin.o(.ARM.extab)
    .extab._ZN19QDeclarativePrivate10createIntoI38QDeclarativeOrganizerItemEmailReminderEEvPv 0x00031528   Data           0  plugin.o(.ARM.extab)
    .extab._ZN19QDeclarativePrivate10createIntoI34QDeclarativeOrganizerItemTimestampEEvPv 0x00031538   Data           0  plugin.o(.ARM.extab)
    .extab._ZN19QDeclarativePrivate10createIntoI29QDeclarativeOrganizerItemTypeEEvPv 0x00031548   Data           0  plugin.o(.ARM.extab)
    .extab._ZN19QDeclarativePrivate10createIntoI32QDeclarativeOrganizerJournalTimeEEvPv 0x00031558   Data           0  plugin.o(.ARM.extab)
    .extab._ZN19QDeclarativePrivate10createIntoI33QDeclarativeOrganizerTodoProgressEEvPv 0x00031568   Data           0  plugin.o(.ARM.extab)
    .extab._ZN19QDeclarativePrivate10createIntoI29QDeclarativeOrganizerTodoTimeEEvPv 0x00031578   Data           0  plugin.o(.ARM.extab)
    .extab._ZN19QDeclarativePrivate10createIntoI31QDeclarativeOrganizerItemFilterEEvPv 0x00031588   Data           0  plugin.o(.ARM.extab)
    .extab._ZN19QDeclarativePrivate10createIntoI40QDeclarativeOrganizerItemChangeLogFilterEEvPv 0x00031598   Data           0  plugin.o(.ARM.extab)
    .extab._ZN19QDeclarativePrivate10createIntoI41QDeclarativeOrganizerItemCollectionFilterEEvPv 0x000315b8   Data           0  plugin.o(.ARM.extab)
    .extab._ZN19QDeclarativePrivate10createIntoI37QDeclarativeOrganizerItemDetailFilterEEvPv 0x000315c8   Data           0  plugin.o(.ARM.extab)
    .extab._ZN19QDeclarativePrivate10createIntoI42QDeclarativeOrganizerItemDetailRangeFilterEEvPv 0x000315d8   Data           0  plugin.o(.ARM.extab)
    .extab._ZN19QDeclarativePrivate10createIntoI33QDeclarativeOrganizerItemIdFilterEEvPv 0x000315e8   Data           0  plugin.o(.ARM.extab)
    .extab._ZN19QDeclarativePrivate10createIntoI43QDeclarativeOrganizerItemIntersectionFilterEEvPv 0x000315f8   Data           0  plugin.o(.ARM.extab)
    .extab._ZN19QDeclarativePrivate10createIntoI36QDeclarativeOrganizerItemUnionFilterEEvPv 0x00031618   Data           0  plugin.o(.ARM.extab)
    .extab._ZN19QDeclarativePrivate10createIntoI38QDeclarativeOrganizerItemInvalidFilterEEvPv 0x00031638   Data           0  plugin.o(.ARM.extab)
    .extab._ZN30QDeclarativeOrganizerEventTimeC1EP7QObject 0x00031650   Data           0  plugin.o(.ARM.extab)
    .extab._ZN36QDeclarativeOrganizerItemDescriptionC1EP7QObject 0x00031670   Data           0  plugin.o(.ARM.extab)
    .extab._ZN37QDeclarativeOrganizerItemDisplayLabelC1EP7QObject 0x00031690   Data           0  plugin.o(.ARM.extab)
    .extab._ZN29QDeclarativeOrganizerItemGuidC1EP7QObject 0x000316b0   Data           0  plugin.o(.ARM.extab)
    .extab._ZN31QDeclarativeOrganizerItemParentC1EP7QObject 0x000316d0   Data           0  plugin.o(.ARM.extab)
    .extab._ZN33QDeclarativeOrganizerItemLocationC1EP7QObject 0x000316f0   Data           0  plugin.o(.ARM.extab)
    .extab._ZN33QDeclarativeOrganizerItemPriorityC1EP7QObject 0x00031710   Data           0  plugin.o(.ARM.extab)
    .extab._ZN40QDeclarativeOrganizerItemAudibleReminderC1EP7QObject 0x00031730   Data           0  plugin.o(.ARM.extab)
    .extab._ZN39QDeclarativeOrganizerItemVisualReminderC1EP7QObject 0x00031750   Data           0  plugin.o(.ARM.extab)
    .extab._ZN38QDeclarativeOrganizerItemEmailReminderC1EP7QObject 0x00031770   Data           0  plugin.o(.ARM.extab)
    .extab._ZN34QDeclarativeOrganizerItemTimestampC1EP7QObject 0x00031790   Data           0  plugin.o(.ARM.extab)
    .extab._ZN29QDeclarativeOrganizerItemTypeC1EP7QObject 0x000317b0   Data           0  plugin.o(.ARM.extab)
    .extab._ZN32QDeclarativeOrganizerJournalTimeC1EP7QObject 0x000317d0   Data           0  plugin.o(.ARM.extab)
    .extab._ZN33QDeclarativeOrganizerTodoProgressC1EP7QObject 0x000317f0   Data           0  plugin.o(.ARM.extab)
    .extab._ZN29QDeclarativeOrganizerTodoTimeC1EP7QObject 0x00031810   Data           0  plugin.o(.ARM.extab)
    .extab._ZN37QDeclarativeOrganizerItemDetailFilterC1EP7QObject 0x00031830   Data           0  plugin.o(.ARM.extab)
    .extab._ZN42QDeclarativeOrganizerItemDetailRangeFilterC1EP7QObject 0x00031860   Data           0  plugin.o(.ARM.extab)
    .extab._ZN19QDeclarativePrivate19QDeclarativeElementI34QDeclarativeOrganizerItemSortOrderEC1Ev 0x00031890   Data           0  plugin.o(.ARM.extab)
    .extab._ZN19QDeclarativePrivate19QDeclarativeElementI41QDeclarativeOrganizerItemCollectionFilterEC1Ev 0x000318b8   Data           0  plugin.o(.ARM.extab)
    .extab._ZN19QDeclarativePrivate19QDeclarativeElementI33QDeclarativeOrganizerItemIdFilterEC1Ev 0x000318d0   Data           0  plugin.o(.ARM.extab)
    .extab._ZN19QDeclarativePrivate19QDeclarativeElementI35QDeclarativeOrganizerRecurrenceRuleED1Ev 0x000318e8   Data           0  plugin.o(.ARM.extab)
    .extab._ZN19QDeclarativePrivate19QDeclarativeElementI34QDeclarativeOrganizerItemFetchHintED1Ev 0x000318f8   Data           0  plugin.o(.ARM.extab)
    .extab._ZN19QDeclarativePrivate19QDeclarativeElementI31QDeclarativeOrganizerCollectionED1Ev 0x00031908   Data           0  plugin.o(.ARM.extab)
    .extab._ZN19QDeclarativePrivate19QDeclarativeElementI25QDeclarativeOrganizerItemED1Ev 0x00031918   Data           0  plugin.o(.ARM.extab)
    .extab._ZN19QDeclarativePrivate19QDeclarativeElementI26QDeclarativeOrganizerEventED1Ev 0x00031928   Data           0  plugin.o(.ARM.extab)
    .extab._ZN19QDeclarativePrivate19QDeclarativeElementI36QDeclarativeOrganizerEventOccurrenceED1Ev 0x00031938   Data           0  plugin.o(.ARM.extab)
    .extab._ZN19QDeclarativePrivate19QDeclarativeElementI28QDeclarativeOrganizerJournalED1Ev 0x00031948   Data           0  plugin.o(.ARM.extab)
    .extab._ZN19QDeclarativePrivate19QDeclarativeElementI25QDeclarativeOrganizerNoteED1Ev 0x00031958   Data           0  plugin.o(.ARM.extab)
    .extab._ZN19QDeclarativePrivate19QDeclarativeElementI25QDeclarativeOrganizerTodoED1Ev 0x00031968   Data           0  plugin.o(.ARM.extab)
    .extab._ZN19QDeclarativePrivate19QDeclarativeElementI35QDeclarativeOrganizerTodoOccurrenceED1Ev 0x00031978   Data           0  plugin.o(.ARM.extab)
    .extab._ZN19QDeclarativePrivate19QDeclarativeElementI31QDeclarativeOrganizerItemDetailED1Ev 0x00031988   Data           0  plugin.o(.ARM.extab)
    .extab._ZN19QDeclarativePrivate19QDeclarativeElementI30QDeclarativeOrganizerEventTimeED1Ev 0x00031998   Data           0  plugin.o(.ARM.extab)
    .extab._ZN19QDeclarativePrivate19QDeclarativeElementI36QDeclarativeOrganizerItemDescriptionED1Ev 0x000319a8   Data           0  plugin.o(.ARM.extab)
    .extab._ZN19QDeclarativePrivate19QDeclarativeElementI37QDeclarativeOrganizerItemDisplayLabelED1Ev 0x000319b8   Data           0  plugin.o(.ARM.extab)
    .extab._ZN19QDeclarativePrivate19QDeclarativeElementI29QDeclarativeOrganizerItemGuidED1Ev 0x000319c8   Data           0  plugin.o(.ARM.extab)
    .extab._ZN19QDeclarativePrivate19QDeclarativeElementI31QDeclarativeOrganizerItemParentED1Ev 0x000319d8   Data           0  plugin.o(.ARM.extab)
    .extab._ZN19QDeclarativePrivate19QDeclarativeElementI33QDeclarativeOrganizerItemLocationED1Ev 0x000319e8   Data           0  plugin.o(.ARM.extab)
    .extab._ZN19QDeclarativePrivate19QDeclarativeElementI33QDeclarativeOrganizerItemPriorityED1Ev 0x000319f8   Data           0  plugin.o(.ARM.extab)
    .extab._ZN19QDeclarativePrivate19QDeclarativeElementI35QDeclarativeOrganizerItemRecurrenceED1Ev 0x00031a08   Data           0  plugin.o(.ARM.extab)
    .extab._ZN19QDeclarativePrivate19QDeclarativeElementI33QDeclarativeOrganizerItemReminderED1Ev 0x00031a18   Data           0  plugin.o(.ARM.extab)
    .extab._ZN19QDeclarativePrivate19QDeclarativeElementI40QDeclarativeOrganizerItemAudibleReminderED1Ev 0x00031a28   Data           0  plugin.o(.ARM.extab)
    .extab._ZN19QDeclarativePrivate19QDeclarativeElementI39QDeclarativeOrganizerItemVisualReminderED1Ev 0x00031a38   Data           0  plugin.o(.ARM.extab)
    .extab._ZN19QDeclarativePrivate19QDeclarativeElementI38QDeclarativeOrganizerItemEmailReminderED1Ev 0x00031a48   Data           0  plugin.o(.ARM.extab)
    .extab._ZN19QDeclarativePrivate19QDeclarativeElementI34QDeclarativeOrganizerItemTimestampED1Ev 0x00031a58   Data           0  plugin.o(.ARM.extab)
    .extab._ZN19QDeclarativePrivate19QDeclarativeElementI29QDeclarativeOrganizerItemTypeED1Ev 0x00031a68   Data           0  plugin.o(.ARM.extab)
    .extab._ZN19QDeclarativePrivate19QDeclarativeElementI32QDeclarativeOrganizerJournalTimeED1Ev 0x00031a78   Data           0  plugin.o(.ARM.extab)
    .extab._ZN19QDeclarativePrivate19QDeclarativeElementI33QDeclarativeOrganizerTodoProgressED1Ev 0x00031a88   Data           0  plugin.o(.ARM.extab)
    .extab._ZN19QDeclarativePrivate19QDeclarativeElementI29QDeclarativeOrganizerTodoTimeED1Ev 0x00031a98   Data           0  plugin.o(.ARM.extab)
    .extab._ZN19QDeclarativePrivate19QDeclarativeElementI31QDeclarativeOrganizerItemFilterED1Ev 0x00031aa8   Data           0  plugin.o(.ARM.extab)
    .extab._ZN19QDeclarativePrivate19QDeclarativeElementI40QDeclarativeOrganizerItemChangeLogFilterED1Ev 0x00031ab8   Data           0  plugin.o(.ARM.extab)
    .extab._ZN19QDeclarativePrivate19QDeclarativeElementI41QDeclarativeOrganizerItemCollectionFilterED1Ev 0x00031ac8   Data           0  plugin.o(.ARM.extab)
    .extab._ZN19QDeclarativePrivate19QDeclarativeElementI33QDeclarativeOrganizerItemIdFilterED1Ev 0x00031ad8   Data           0  plugin.o(.ARM.extab)
    .extab._ZN19QDeclarativePrivate19QDeclarativeElementI43QDeclarativeOrganizerItemIntersectionFilterED1Ev 0x00031ae8   Data           0  plugin.o(.ARM.extab)
    .extab._ZN19QDeclarativePrivate19QDeclarativeElementI36QDeclarativeOrganizerItemUnionFilterED1Ev 0x00031af8   Data           0  plugin.o(.ARM.extab)
    .extab._ZN19QDeclarativePrivate19QDeclarativeElementI38QDeclarativeOrganizerItemInvalidFilterED1Ev 0x00031b08   Data           0  plugin.o(.ARM.extab)
    .extab._ZN25QDeclarativeOrganizerItemC1EP7QObject 0x00031b18   Data           0  qdeclarativeorganizeritem.o(.ARM.extab)
    .extab._ZN25QDeclarativeOrganizerItemC1ERKN10QtMobility14QOrganizerItemERK4QMapI7QStringNS0_30QOrganizerItemDetailDefinitionEEP7QObject 0x00031b48   Data           0  qdeclarativeorganizeritem.o(.ARM.extab)
    .extab._ZN25QDeclarativeOrganizerItemD1Ev 0x00031b68   Data           0  qdeclarativeorganizeritem.o(.ARM.extab)
    .extab._ZNK25QDeclarativeOrganizerItem8itemTypeEv 0x00031b78   Data           0  qdeclarativeorganizeritem.o(.ARM.extab)
    .extab._ZNK25QDeclarativeOrganizerItem7managerEv 0x00031bb0   Data           0  qdeclarativeorganizeritem.o(.ARM.extab)
    .extab._ZNK25QDeclarativeOrganizerItem14isFloatingTimeEv 0x00031bc0   Data           0  qdeclarativeorganizeritem.o(.ARM.extab)
    .extab._ZNK25QDeclarativeOrganizerItem13itemStartTimeEv 0x00031c40   Data           0  qdeclarativeorganizeritem.o(.ARM.extab)
    .extab._ZNK25QDeclarativeOrganizerItem11itemEndTimeEv 0x00031c70   Data           0  qdeclarativeorganizeritem.o(.ARM.extab)
    .extab._ZN25QDeclarativeOrganizerItem7detailsEv 0x00031cb8   Data           0  qdeclarativeorganizeritem.o(.ARM.extab)
    .extab._ZN25QDeclarativeOrganizerItem15setDisplayLabelERK7QString 0x00031cd8   Data           0  qdeclarativeorganizeritem.o(.ARM.extab)
    .extab._ZN25QDeclarativeOrganizerItem14setDescriptionERK7QString 0x00031cf0   Data           0  qdeclarativeorganizeritem.o(.ARM.extab)
    .extab._ZN25QDeclarativeOrganizerItem7setGuidERK7QString 0x00031d08   Data           0  qdeclarativeorganizeritem.o(.ARM.extab)
    .extab._ZN26QDeclarativeOrganizerEventC1EP7QObject 0x00031d20   Data           0  qdeclarativeorganizeritem.o(.ARM.extab)
    .extab._ZN26QDeclarativeOrganizerEvent9setAllDayEb 0x00031d40   Data           0  qdeclarativeorganizeritem.o(.ARM.extab)
    .extab._ZN26QDeclarativeOrganizerEvent10recurrenceEv 0x00031d50   Data           0  qdeclarativeorganizeritem.o(.ARM.extab)
    .extab._ZN36QDeclarativeOrganizerEventOccurrenceC1EP7QObject 0x00031d70   Data           0  qdeclarativeorganizeritem.o(.ARM.extab)
    .extab._ZN28QDeclarativeOrganizerJournalC1EP7QObject 0x00031d90   Data           0  qdeclarativeorganizeritem.o(.ARM.extab)
    .extab._ZN25QDeclarativeOrganizerNoteC1EP7QObject 0x00031db0   Data           0  qdeclarativeorganizeritem.o(.ARM.extab)
    .extab._ZN25QDeclarativeOrganizerTodoC1EP7QObject 0x00031dd0   Data           0  qdeclarativeorganizeritem.o(.ARM.extab)
    .extab._ZN25QDeclarativeOrganizerTodo9setAllDayEb 0x00031df0   Data           0  qdeclarativeorganizeritem.o(.ARM.extab)
    .extab._ZN25QDeclarativeOrganizerTodo10recurrenceEv 0x00031e00   Data           0  qdeclarativeorganizeritem.o(.ARM.extab)
    .extab._ZN35QDeclarativeOrganizerTodoOccurrenceC1EP7QObject 0x00031e20   Data           0  qdeclarativeorganizeritem.o(.ARM.extab)
    .extab._ZNK30QDeclarativeOrganizerEventTime13startDateTimeEv 0x00031e40   Data           0  qdeclarativeorganizeritem.o(.ARM.extab)
    .extab._ZN31QDeclarativeOrganizerItemParent15setOriginalDateERK5QDate 0x00031e50   Data           0  qdeclarativeorganizeritem.o(.ARM.extab)
    .extab._ZN33QDeclarativeOrganizerItemLocation8setLabelERK7QString 0x00031e60   Data           0  qdeclarativeorganizeritem.o(.ARM.extab)
    .extab._ZN33QDeclarativeOrganizerItemPriority11setPriorityENS_12PriorityTypeE 0x00031e78   Data           0  qdeclarativeorganizeritem.o(.ARM.extab)
    .extab._ZNK32QDeclarativeOrganizerJournalTime13entryDateTimeEv 0x00031e88   Data           0  qdeclarativeorganizeritem.o(.ARM.extab)
    .extab._ZN33QDeclarativeOrganizerTodoProgress9setStatusENS_10StatusTypeE 0x00031e98   Data           0  qdeclarativeorganizeritem.o(.ARM.extab)
    .extab._ZNK29QDeclarativeOrganizerTodoTime13startDateTimeEv 0x00031ea8   Data           0  qdeclarativeorganizeritem.o(.ARM.extab)
    .extab._ZN4QMapI7QStringN10QtMobility30QOrganizerItemDetailDefinitionEE13detach_helperEv 0x00031eb8   Data           0  qdeclarativeorganizeritem.o(.ARM.extab)
    .extab._ZNK10QtMobility14QOrganizerItem6detailINS_23QOrganizerItemTimestampEEET_v 0x00031ed4   Data           0  qdeclarativeorganizeritem.o(.ARM.extab)
    .extab._ZN35QDeclarativeOrganizerItemMetaObject6detailI32QDeclarativeOrganizerJournalTimeEEPT_v 0x00031ee4   Data           0  qdeclarativeorganizeritem.o(.ARM.extab)
    .extab._ZN35QDeclarativeOrganizerItemMetaObject6detailI29QDeclarativeOrganizerTodoTimeEEPT_v 0x00031efc   Data           0  qdeclarativeorganizeritem.o(.ARM.extab)
    .extab._ZN35QDeclarativeOrganizerItemMetaObject6detailI30QDeclarativeOrganizerEventTimeEEPT_v 0x00031f14   Data           0  qdeclarativeorganizeritem.o(.ARM.extab)
    .extab._ZN5QListIP31QDeclarativeOrganizerItemDetailE13detach_helperEi 0x00031f2c   Data           0  qdeclarativeorganizeritem.o(.ARM.extab)
    .extab._ZN5QListIP31QDeclarativeOrganizerItemDetailE18detach_helper_growEii 0x00031f48   Data           0  qdeclarativeorganizeritem.o(.ARM.extab)
    .extab._ZN5QListIP31QDeclarativeOrganizerItemDetailE6appendERKS1_ 0x00031f78   Data           0  qdeclarativeorganizeritem.o(.ARM.extab)
    .extab._ZN35QDeclarativeOrganizerItemMetaObject6detailI37QDeclarativeOrganizerItemDisplayLabelEEPT_v 0x00031f94   Data           0  qdeclarativeorganizeritem.o(.ARM.extab)
    .extab._ZN35QDeclarativeOrganizerItemMetaObject6detailI36QDeclarativeOrganizerItemDescriptionEEPT_v 0x00031fac   Data           0  qdeclarativeorganizeritem.o(.ARM.extab)
    .extab._ZN35QDeclarativeOrganizerItemMetaObject6detailI29QDeclarativeOrganizerItemGuidEEPT_v 0x00031fc4   Data           0  qdeclarativeorganizeritem.o(.ARM.extab)
    .extab._ZN35QDeclarativeOrganizerItemMetaObject6detailI33QDeclarativeOrganizerItemPriorityEEPT_v 0x00031fdc   Data           0  qdeclarativeorganizeritem.o(.ARM.extab)
    .extab._ZN35QDeclarativeOrganizerItemMetaObject6detailI33QDeclarativeOrganizerItemLocationEEPT_v 0x00031ff4   Data           0  qdeclarativeorganizeritem.o(.ARM.extab)
    .extab._ZN35QDeclarativeOrganizerItemMetaObject6detailI31QDeclarativeOrganizerItemParentEEPT_v 0x0003200c   Data           0  qdeclarativeorganizeritem.o(.ARM.extab)
    .extab._ZN35QDeclarativeOrganizerItemMetaObject6detailI33QDeclarativeOrganizerTodoProgressEEPT_v 0x00032024   Data           0  qdeclarativeorganizeritem.o(.ARM.extab)
    .extab._ZN4QMapI7QStringN10QtMobility30QOrganizerItemDetailDefinitionEE11node_createEP8QMapDataPPNS4_4NodeERKS0_RKS2_ 0x0003203c   Data           0  qdeclarativeorganizeritem.o(.ARM.extab)
    .extab._ZN31QDeclarativeOrganizerItemDetail10detailNameENS_14ItemDetailTypeE 0x00032088   Data           0  qdeclarativeorganizeritemdetail.o(.ARM.extab)
    .extab._ZN31QDeclarativeOrganizerItemDetail14definitionNameENS_14ItemDetailTypeE 0x000320c8   Data           0  qdeclarativeorganizeritemdetail.o(.ARM.extab)
    .extab._ZN31QDeclarativeOrganizerItemDetail26detailTypeByDefinitionNameERK7QString 0x00032108   Data           0  qdeclarativeorganizeritemdetail.o(.ARM.extab)
    .extab._ZN31QDeclarativeOrganizerItemDetail22detailTypeByDetailNameERK7QString 0x00032148   Data           0  qdeclarativeorganizeritemdetail.o(.ARM.extab)
    .extab._ZN29QDeclarativeOrganizerItemType22fieldNameFromFieldTypeEi 0x00032188   Data           0  qdeclarativeorganizeritemdetail.o(.ARM.extab)
    .extab._ZN34QDeclarativeOrganizerItemTimestamp22fieldNameFromFieldTypeEi 0x000321a8   Data           0  qdeclarativeorganizeritemdetail.o(.ARM.extab)
    .extab._ZN35QDeclarativeOrganizerItemRecurrence22fieldNameFromFieldTypeEi 0x000321c8   Data           0  qdeclarativeorganizeritemdetail.o(.ARM.extab)
    .extab._ZN33QDeclarativeOrganizerItemPriority22fieldNameFromFieldTypeEi 0x000321e8   Data           0  qdeclarativeorganizeritemdetail.o(.ARM.extab)
    .extab._ZN31QDeclarativeOrganizerItemParent22fieldNameFromFieldTypeEi 0x00032208   Data           0  qdeclarativeorganizeritemdetail.o(.ARM.extab)
    .extab._ZN33QDeclarativeOrganizerItemLocation22fieldNameFromFieldTypeEi 0x00032228   Data           0  qdeclarativeorganizeritemdetail.o(.ARM.extab)
    .extab._ZN29QDeclarativeOrganizerItemGuid22fieldNameFromFieldTypeEi 0x00032248   Data           0  qdeclarativeorganizeritemdetail.o(.ARM.extab)
    .extab._ZN37QDeclarativeOrganizerItemDisplayLabel22fieldNameFromFieldTypeEi 0x00032268   Data           0  qdeclarativeorganizeritemdetail.o(.ARM.extab)
    .extab._ZN36QDeclarativeOrganizerItemDescription22fieldNameFromFieldTypeEi 0x00032288   Data           0  qdeclarativeorganizeritemdetail.o(.ARM.extab)
    .extab._ZN32QDeclarativeOrganizerItemComment22fieldNameFromFieldTypeEi 0x000322a8   Data           0  qdeclarativeorganizeritemdetail.o(.ARM.extab)
    .extab._ZN38QDeclarativeOrganizerItemEmailReminder22fieldNameFromFieldTypeEi 0x000322c8   Data           0  qdeclarativeorganizeritemdetail.o(.ARM.extab)
    .extab._ZN39QDeclarativeOrganizerItemVisualReminder22fieldNameFromFieldTypeEi 0x000322e8   Data           0  qdeclarativeorganizeritemdetail.o(.ARM.extab)
    .extab._ZN40QDeclarativeOrganizerItemAudibleReminder22fieldNameFromFieldTypeEi 0x00032308   Data           0  qdeclarativeorganizeritemdetail.o(.ARM.extab)
    .extab._ZN33QDeclarativeOrganizerItemReminder22fieldNameFromFieldTypeEi 0x00032328   Data           0  qdeclarativeorganizeritemdetail.o(.ARM.extab)
    .extab._ZN33QDeclarativeOrganizerTodoProgress22fieldNameFromFieldTypeEi 0x00032348   Data           0  qdeclarativeorganizeritemdetail.o(.ARM.extab)
    .extab._ZN29QDeclarativeOrganizerTodoTime22fieldNameFromFieldTypeEi 0x00032368   Data           0  qdeclarativeorganizeritemdetail.o(.ARM.extab)
    .extab._ZN32QDeclarativeOrganizerJournalTime22fieldNameFromFieldTypeEi 0x00032388   Data           0  qdeclarativeorganizeritemdetail.o(.ARM.extab)
    .extab._ZN30QDeclarativeOrganizerEventTime22fieldNameFromFieldTypeEi 0x000323a8   Data           0  qdeclarativeorganizeritemdetail.o(.ARM.extab)
    .extab._ZN31QDeclarativeOrganizerItemDetail9fieldNameENS_14ItemDetailTypeEi 0x000323c8   Data           0  qdeclarativeorganizeritemdetail.o(.ARM.extab)
    .extab._Z19buildParameterNamesRK10QByteArrayRK5QListIS_E 0x00032418   Data           0  qmetaobjectbuilder.o(.ARM.extab)
    .extab._Z16resolveClassNameRK4QMapI10QByteArrayPK11QMetaObjectERKS0_ 0x00032440   Data           0  qmetaobjectbuilder.o(.ARM.extab)
    .extab._ZN18QMetaObjectBuilderC1Ev       0x00032450   Data           0  qmetaobjectbuilder.o(.ARM.extab)
    .extab._ZN18QMetaObjectBuilder13addEnumeratorERK10QByteArray 0x00032460   Data           0  qmetaobjectbuilder.o(.ARM.extab)
    .extab._ZN18QMetaObjectBuilder13addEnumeratorERK9QMetaEnum 0x00032480   Data           0  qmetaobjectbuilder.o(.ARM.extab)
    .extab._ZN18QMetaMethodBuilder13setReturnTypeERK10QByteArray 0x00032498   Data           0  qmetaobjectbuilder.o(.ARM.extab)
    .extab._ZN18QMetaObjectBuilder14addConstructorERK10QByteArray 0x000324a8   Data           0  qmetaobjectbuilder.o(.ARM.extab)
    .extab._ZN18QMetaObjectBuilder7addSlotERK10QByteArray 0x000324c8   Data           0  qmetaobjectbuilder.o(.ARM.extab)
    .extab._ZN18QMetaObjectBuilder9addSignalERK10QByteArray 0x000324e8   Data           0  qmetaobjectbuilder.o(.ARM.extab)
    .extab._ZN18QMetaObjectBuilder9addMethodERK10QByteArray 0x00032508   Data           0  qmetaobjectbuilder.o(.ARM.extab)
    .extab._ZN18QMetaObjectBuilder9addMethodERK11QMetaMethod 0x00032528   Data           0  qmetaobjectbuilder.o(.ARM.extab)
    .extab._ZN18QMetaObjectBuilder13indexOfMethodERK10QByteArray 0x00032568   Data           0  qmetaobjectbuilder.o(.ARM.extab)
    .extab._ZN18QMetaObjectBuilder11addPropertyERK10QByteArrayS2_i 0x00032580   Data           0  qmetaobjectbuilder.o(.ARM.extab)
    .extab._ZN18QMetaObjectBuilder11addPropertyERK13QMetaProperty 0x000325a8   Data           0  qmetaobjectbuilder.o(.ARM.extab)
    .extab._ZN18QMetaObjectBuilder14addConstructorERK11QMetaMethod 0x000325d0   Data           0  qmetaobjectbuilder.o(.ARM.extab)
    .extab._ZN18QMetaObjectBuilder13addMetaObjectEPK11QMetaObject6QFlagsINS_9AddMemberEE 0x000325f8   Data           0  qmetaobjectbuilder.o(.ARM.extab)
    .extab._ZN18QMetaObjectBuilderC1EPK11QMetaObject6QFlagsINS_9AddMemberEE 0x00032618   Data           0  qmetaobjectbuilder.o(.ARM.extab)
    .extab._ZN18QMetaObjectBuilder9addMethodERK10QByteArrayS2_ 0x00032628   Data           0  qmetaobjectbuilder.o(.ARM.extab)
    .extab._ZN18QMetaObjectBuilder13indexOfSignalERK10QByteArray 0x00032638   Data           0  qmetaobjectbuilder.o(.ARM.extab)
    .extab._ZN18QMetaObjectBuilder11indexOfSlotERK10QByteArray 0x00032650   Data           0  qmetaobjectbuilder.o(.ARM.extab)
    .extab._ZN18QMetaObjectBuilder18indexOfConstructorERK10QByteArray 0x00032668   Data           0  qmetaobjectbuilder.o(.ARM.extab)
    .extab._ZNK18QMetaObjectBuilder17toRelocatableDataEPb 0x00032680   Data           0  qmetaobjectbuilder.o(.ARM.extab)
    .extab._ZNK18QMetaObjectBuilder9serializeER11QDataStream 0x00032690   Data           0  qmetaobjectbuilder.o(.ARM.extab)
    .extab._ZN18QMetaObjectBuilder11deserializeER11QDataStreamRK4QMapI10QByteArrayPK11QMetaObjectE 0x000326b0   Data           0  qmetaobjectbuilder.o(.ARM.extab)
    .extab._ZN5QListI10QByteArrayE9node_copyEPNS1_4NodeES3_S3_ 0x00032748   Data           0  qmetaobjectbuilder.o(.ARM.extab)
    .extab._ZN5QListI10QByteArrayE13detach_helperEi 0x0003276c   Data           0  qmetaobjectbuilder.o(.ARM.extab)
    .extab._ZN5QListIPFRK11QMetaObjectvEE13detach_helperEi 0x00032788   Data           0  qmetaobjectbuilder.o(.ARM.extab)
    .extab._ZN25QMetaMethodBuilderPrivateD1Ev 0x000327a4   Data           0  qmetaobjectbuilder.o(.ARM.extab)
    .extab._ZN25QMetaMethodBuilderPrivateC1ERKS_ 0x000327c4   Data           0  qmetaobjectbuilder.o(.ARM.extab)
    .extab._ZN5QListI25QMetaMethodBuilderPrivateE9node_copyEPNS1_4NodeES3_S3_ 0x000327e4   Data           0  qmetaobjectbuilder.o(.ARM.extab)
    .extab._ZN5QListI25QMetaMethodBuilderPrivateE13detach_helperEi 0x00032808   Data           0  qmetaobjectbuilder.o(.ARM.extab)
    .extab._ZN5QListIiE13detach_helperEi     0x00032824   Data           0  qmetaobjectbuilder.o(.ARM.extab)
    .extab._ZN23QMetaEnumBuilderPrivateD1Ev  0x00032840   Data           0  qmetaobjectbuilder.o(.ARM.extab)
    .extab._ZN23QMetaEnumBuilderPrivateC1ERKS_ 0x00032858   Data           0  qmetaobjectbuilder.o(.ARM.extab)
    .extab._ZN5QListI23QMetaEnumBuilderPrivateE9node_copyEPNS1_4NodeES3_S3_ 0x00032870   Data           0  qmetaobjectbuilder.o(.ARM.extab)
    .extab._ZN5QListI23QMetaEnumBuilderPrivateE13detach_helperEi 0x00032894   Data           0  qmetaobjectbuilder.o(.ARM.extab)
    .extab._ZN27QMetaPropertyBuilderPrivateC1ERKS_ 0x000328b0   Data           0  qmetaobjectbuilder.o(.ARM.extab)
    .extab._ZN5QListI27QMetaPropertyBuilderPrivateE9node_copyEPNS1_4NodeES3_S3_ 0x000328c0   Data           0  qmetaobjectbuilder.o(.ARM.extab)
    .extab._ZN5QListI27QMetaPropertyBuilderPrivateE13detach_helperEi 0x000328e4   Data           0  qmetaobjectbuilder.o(.ARM.extab)
    .extab._ZN5QListI10QByteArrayE14node_constructEPNS1_4NodeERKS0_ 0x00032900   Data           0  qmetaobjectbuilder.o(.ARM.extab)
    .extab._ZN5QListI10QByteArrayE18detach_helper_growEii 0x00032910   Data           0  qmetaobjectbuilder.o(.ARM.extab)
    .extab._ZN5QListI10QByteArrayE6appendERKS0_ 0x00032940   Data           0  qmetaobjectbuilder.o(.ARM.extab)
    .extab._ZN5QListI10QByteArrayE5clearEv   0x00032970   Data           0  qmetaobjectbuilder.o(.ARM.extab)
    .extab._ZrsI10QByteArrayER11QDataStreamS2_R5QListIT_E 0x00032980   Data           0  qmetaobjectbuilder.o(.ARM.extab)
    .extab._ZN5QListIiE18detach_helper_growEii 0x00032990   Data           0  qmetaobjectbuilder.o(.ARM.extab)
    .extab._ZN5QListIiE6appendERKi           0x000329c0   Data           0  qmetaobjectbuilder.o(.ARM.extab)
    .extab._ZN5QListIiE5clearEv              0x000329dc   Data           0  qmetaobjectbuilder.o(.ARM.extab)
    .extab._ZN25QMetaObjectBuilderPrivateC1Ev 0x000329ec   Data           0  qmetaobjectbuilder.o(.ARM.extab)
    .extab._ZN5QListIPFRK11QMetaObjectvEE18detach_helper_growEii 0x00032a2c   Data           0  qmetaobjectbuilder.o(.ARM.extab)
    .extab._ZN5QListIPFRK11QMetaObjectvEE6appendERKS4_ 0x00032a5c   Data           0  qmetaobjectbuilder.o(.ARM.extab)
    .extab._ZN5QListI23QMetaEnumBuilderPrivateE14node_constructEPNS1_4NodeERKS0_ 0x00032a78   Data           0  qmetaobjectbuilder.o(.ARM.extab)
    .extab._ZN5QListI23QMetaEnumBuilderPrivateE18detach_helper_growEii 0x00032a88   Data           0  qmetaobjectbuilder.o(.ARM.extab)
    .extab._ZN5QListI23QMetaEnumBuilderPrivateE6appendERKS0_ 0x00032ab8   Data           0  qmetaobjectbuilder.o(.ARM.extab)
    .extab._ZN25QMetaMethodBuilderPrivateC1EN11QMetaMethod10MethodTypeERK10QByteArrayS4_NS0_6AccessE 0x00032ae8   Data           0  qmetaobjectbuilder.o(.ARM.extab)
    .extab._ZN5QListI25QMetaMethodBuilderPrivateE14node_constructEPNS1_4NodeERKS0_ 0x00032b20   Data           0  qmetaobjectbuilder.o(.ARM.extab)
    .extab._ZN5QListI25QMetaMethodBuilderPrivateE18detach_helper_growEii 0x00032b30   Data           0  qmetaobjectbuilder.o(.ARM.extab)
    .extab._ZN5QListI25QMetaMethodBuilderPrivateE6appendERKS0_ 0x00032b60   Data           0  qmetaobjectbuilder.o(.ARM.extab)
    .extab._ZN5QListI27QMetaPropertyBuilderPrivateE14node_constructEPNS1_4NodeERKS0_ 0x00032b90   Data           0  qmetaobjectbuilder.o(.ARM.extab)
    .extab._ZN5QListI27QMetaPropertyBuilderPrivateE18detach_helper_growEii 0x00032ba0   Data           0  qmetaobjectbuilder.o(.ARM.extab)
    .extab._ZN5QListI27QMetaPropertyBuilderPrivateE6appendERKS0_ 0x00032bd0   Data           0  qmetaobjectbuilder.o(.ARM.extab)
    .extab._ZN5QListIPFRK11QMetaObjectvEE5clearEv 0x00032c00   Data           0  qmetaobjectbuilder.o(.ARM.extab)
    .extab._ZN5QListI25QMetaMethodBuilderPrivateE5clearEv 0x00032c10   Data           0  qmetaobjectbuilder.o(.ARM.extab)
    .extab._ZN5QListI23QMetaEnumBuilderPrivateE5clearEv 0x00032c20   Data           0  qmetaobjectbuilder.o(.ARM.extab)
    .extab._ZN5QListI27QMetaPropertyBuilderPrivateE5clearEv 0x00032c30   Data           0  qmetaobjectbuilder.o(.ARM.extab)
    .extab._ZN27QMetaPropertyBuilderPrivateD1Ev 0x00032c40   Data           0  qmetaobjectbuilder.o(.ARM.extab)
    .extab._ZN25QMetaObjectBuilderPrivateD1Ev 0x00032c50   Data           0  qmetaobjectbuilder.o(.ARM.extab)
    .extab._ZN26QDeclarativeOpenMetaObject13setMetaObjectERK11QMetaObject 0x00032c90   Data           0  qdeclarativeopenmetaobject.o(.ARM.extab)
    .extab._ZN26QDeclarativeOpenMetaObjectC1EP7QObject 0x00032ca0   Data           0  qdeclarativeopenmetaobject.o(.ARM.extab)
    .extab._ZN26QDeclarativeOpenMetaObjectD1Ev 0x00032cc0   Data           0  qdeclarativeopenmetaobject.o(.ARM.extab)
    .extab._ZN26QDeclarativeOpenMetaObject14createPropertyEPKcS1_ 0x00032cd0   Data           0  qdeclarativeopenmetaobject.o(.ARM.extab)
    .extab._ZN33QDeclarativeOpenMetaObjectPrivate14createPropertyERK10QByteArrayS2_ 0x00032cf0   Data           0  qdeclarativeopenmetaobject.o(.ARM.extab)
    .extab._ZN35QDeclarativeOrganizerItemMetaObject16createItemDetailEN31QDeclarativeOrganizerItemDetail14ItemDetailTypeEP7QObject 0x00032d30   Data           0  qdeclarativeorganizeritemmetaobject.o(.ARM.extab)
    .extab._ZN35QDeclarativeOrganizerItemMetaObject7setItemERKN10QtMobility14QOrganizerItemE 0x00032dd0   Data           0  qdeclarativeorganizeritemmetaobject.o(.ARM.extab)
    .extab._ZN35QDeclarativeOrganizerItemMetaObjectC1EP7QObjectRKN10QtMobility14QOrganizerItemE 0x00032e80   Data           0  qdeclarativeorganizeritemmetaobject.o(.ARM.extab)
    .extab._ZN35QDeclarativeOrganizerItemMetaObjectD1Ev 0x00032eb8   Data           0  qdeclarativeorganizeritemmetaobject.o(.ARM.extab)
    .extab._ZN35QDeclarativeOrganizerItemMetaObject12detail_clearEP24QDeclarativeListPropertyI31QDeclarativeOrganizerItemDetailE 0x00032ee8   Data           0  qdeclarativeorganizeritemmetaobject.o(.ARM.extab)
    .extab._ZN35QDeclarativeOrganizerItemMetaObject9detail_atEP24QDeclarativeListPropertyI31QDeclarativeOrganizerItemDetailEi 0x00032f18   Data           0  qdeclarativeorganizeritemmetaobject.o(.ARM.extab)
    .extab._ZN35QDeclarativeOrganizerItemMetaObject12detail_countEP24QDeclarativeListPropertyI31QDeclarativeOrganizerItemDetailE 0x00032f48   Data           0  qdeclarativeorganizeritemmetaobject.o(.ARM.extab)
    .extab._ZN35QDeclarativeOrganizerItemMetaObject13detail_appendEP24QDeclarativeListPropertyI31QDeclarativeOrganizerItemDetailEPS1_ 0x00032f78   Data           0  qdeclarativeorganizeritemmetaobject.o(.ARM.extab)
    .extab._ZN35QDeclarativeOrganizerItemMetaObject8getValueEiPPv 0x00032f98   Data           0  qdeclarativeorganizeritemmetaobject.o(.ARM.extab)
    .extab._ZN35QDeclarativeOrganizerItemMetaObject26detailMetaDataByDetailNameEPKc 0x00032fd8   Data           0  qdeclarativeorganizeritemmetaobject.o(.ARM.extab)
    .extab._ZN35QDeclarativeOrganizerItemMetaObject14createPropertyEPKcS1_ 0x00032ff8   Data           0  qdeclarativeorganizeritemmetaobject.o(.ARM.extab)
    .extab._ZN35QDeclarativeOrganizerItemMetaObject6detailEN31QDeclarativeOrganizerItemDetail14ItemDetailTypeE 0x00033010   Data           0  qdeclarativeorganizeritemmetaobject.o(.ARM.extab)
    .extab._ZN35QDeclarativeOrganizerItemMetaObject30detailMetaDataByDefinitionNameEPKc 0x00033040   Data           0  qdeclarativeorganizeritemmetaobject.o(.ARM.extab)
    .extab._ZN35QDeclarativeOrganizerItemMetaObject7detailsERK7QString 0x00033050   Data           0  qdeclarativeorganizeritemmetaobject.o(.ARM.extab)
    .extab._ZN35QDeclarativeOrganizerItemMetaObject7detailsEN31QDeclarativeOrganizerItemDetail14ItemDetailTypeE 0x00033068   Data           0  qdeclarativeorganizeritemmetaobject.o(.ARM.extab)
    .extab._ZN35QDeclarativeOrganizerItemMetaObject4itemEv 0x00033078   Data           0  qdeclarativeorganizeritemmetaobject.o(.ARM.extab)
    .extab._Z20qForeachContainerNewI5QListIP31QDeclarativeOrganizerItemDetailEE17QForeachContainerIT_ERKS5_ 0x00033098   Data           0  qdeclarativeorganizeritemmetaobject.o(.ARM.extab)
    .extab._ZN5QListIN10QtMobility20QOrganizerItemDetailEE13detach_helperEi 0x000330a8   Data           0  qdeclarativeorganizeritemmetaobject.o(.ARM.extab)
    .extab._ZNK7QStringeqEPKc                0x000330ec   Data           0  qdeclarativeorganizeritemmetaobject.o(.ARM.extab)
    .extab._ZN5QListIP31QDeclarativeOrganizerItemDetailE5clearEv 0x000330fc   Data           0  qdeclarativeorganizeritemmetaobject.o(.ARM.extab)
    .extab._ZN32QDeclarativeOrganizerItemCommentC1EP7QObject 0x0003310c   Data           0  qdeclarativeorganizeritemmetaobject.o(.ARM.extab)
    .extab._ZN5QHashIiP26OrganizerItemDetailNameMapE6insertERKiRKS1_ 0x0003312c   Data           0  qdeclarativeorganizeritemmetaobject.o(.ARM.extab)
    .extab._Z18urlToLocalFileNameRK4QUrl     0x0003313c   Data           0  qdeclarativeorganizermodel.o(.ARM.extab)
    .extab._ZN26QDeclarativeOrganizerModelC1EP7QObject 0x0003315c   Data           0  qdeclarativeorganizermodel.o(.ARM.extab)
    .extab._ZN26QDeclarativeOrganizerModel10setManagerERK7QString 0x000331a4   Data           0  qdeclarativeorganizermodel.o(.ARM.extab)
    .extab._ZN26QDeclarativeOrganizerModel17componentCompleteEv 0x000331cc   Data           0  qdeclarativeorganizermodel.o(.ARM.extab)
    .extab._ZNK26QDeclarativeOrganizerModel4dataERK11QModelIndexi 0x000331dc   Data           0  qdeclarativeorganizermodel.o(.ARM.extab)
    .extab._ZN26QDeclarativeOrganizerModel10item_clearEP24QDeclarativeListPropertyI25QDeclarativeOrganizerItemE 0x00033204   Data           0  qdeclarativeorganizermodel.o(.ARM.extab)
    .extab._ZN26QDeclarativeOrganizerModel7item_atEP24QDeclarativeListPropertyI25QDeclarativeOrganizerItemEi 0x00033244   Data           0  qdeclarativeorganizermodel.o(.ARM.extab)
    .extab._ZN26QDeclarativeOrganizerModel10item_countEP24QDeclarativeListPropertyI25QDeclarativeOrganizerItemE 0x00033284   Data           0  qdeclarativeorganizermodel.o(.ARM.extab)
    .extab._ZN26QDeclarativeOrganizerModel11item_appendEP24QDeclarativeListPropertyI25QDeclarativeOrganizerItemEPS1_ 0x000332c4   Data           0  qdeclarativeorganizermodel.o(.ARM.extab)
    .extab._ZN26QDeclarativeOrganizerModel11occurrencesEv 0x000332e4   Data           0  qdeclarativeorganizermodel.o(.ARM.extab)
    .extab._ZN26QDeclarativeOrganizerModel12sortOrder_atEP24QDeclarativeListPropertyI34QDeclarativeOrganizerItemSortOrderEi 0x00033304   Data           0  qdeclarativeorganizermodel.o(.ARM.extab)
    .extab._ZN26QDeclarativeOrganizerModel16sortOrder_appendEP24QDeclarativeListPropertyI34QDeclarativeOrganizerItemSortOrderEPS1_ 0x00033314   Data           0  qdeclarativeorganizermodel.o(.ARM.extab)
    .extab._ZN26QDeclarativeOrganizerModel11removeItemsERK5QListI7QStringE 0x00033324   Data           0  qdeclarativeorganizermodel.o(.ARM.extab)
    .extab._ZN26QDeclarativeOrganizerModel10removeItemERK7QString 0x0003338c   Data           0  qdeclarativeorganizermodel.o(.ARM.extab)
    .extab._ZN26QDeclarativeOrganizerModel8saveItemEP25QDeclarativeOrganizerItem 0x0003339c   Data           0  qdeclarativeorganizermodel.o(.ARM.extab)
    .extab._ZN26QDeclarativeOrganizerModel7itemIdsE9QDateTimeS0_ 0x000333bc   Data           0  qdeclarativeorganizermodel.o(.ARM.extab)
    .extab._ZN26QDeclarativeOrganizerModel13containsItemsE9QDateTimeS0_ 0x0003349c   Data           0  qdeclarativeorganizermodel.o(.ARM.extab)
    .extab._ZN26QDeclarativeOrganizerModel11exportItemsERK4QUrlRK11QStringList 0x000334cc   Data           0  qdeclarativeorganizermodel.o(.ARM.extab)
    .extab._ZN26QDeclarativeOrganizerModel11importItemsERK4QUrlRK11QStringList 0x00033554   Data           0  qdeclarativeorganizermodel.o(.ARM.extab)
    .extab._ZN26QDeclarativeOrganizerModel10clearItemsEv 0x00033574   Data           0  qdeclarativeorganizermodel.o(.ARM.extab)
    .extab._ZN26QDeclarativeOrganizerModel10fetchAgainEv 0x0003358c   Data           0  qdeclarativeorganizermodel.o(.ARM.extab)
    .extab._ZN26QDeclarativeOrganizerModel16fetchOccurrencesERKN10QtMobility14QOrganizerItemE 0x000335fc   Data           0  qdeclarativeorganizermodel.o(.ARM.extab)
    .extab._ZNK26QDeclarativeOrganizerModel17itemHasReccurenceERKN10QtMobility14QOrganizerItemE 0x00033624   Data           0  qdeclarativeorganizermodel.o(.ARM.extab)
    .extab._ZN26QDeclarativeOrganizerModel9itemIndexEPK25QDeclarativeOrganizerItem 0x00033664   Data           0  qdeclarativeorganizermodel.o(.ARM.extab)
    .extab._ZN26QDeclarativeOrganizerModel20removeItemsFromModelERK5QListI7QStringE 0x00033684   Data           0  qdeclarativeorganizermodel.o(.ARM.extab)
    .extab._ZN26QDeclarativeOrganizerModel9addSortedEP25QDeclarativeOrganizerItem 0x000336b4   Data           0  qdeclarativeorganizermodel.o(.ARM.extab)
    .extab._ZN26QDeclarativeOrganizerModel10createItemERKN10QtMobility14QOrganizerItemE 0x00033778   Data           0  qdeclarativeorganizermodel.o(.ARM.extab)
    .extab._ZN26QDeclarativeOrganizerModel14requestUpdatedEv 0x00033800   Data           0  qdeclarativeorganizermodel.o(.ARM.extab)
    .extab._ZN26QDeclarativeOrganizerModel10itemsSavedEv 0x00033890   Data           0  qdeclarativeorganizermodel.o(.ARM.extab)
    .extab._ZN26QDeclarativeOrganizerModel12itemsRemovedERK5QListIN10QtMobility16QOrganizerItemIdEE 0x000338e0   Data           0  qdeclarativeorganizermodel.o(.ARM.extab)
    .extab._ZN26QDeclarativeOrganizerModel12itemsRemovedEv 0x00033910   Data           0  qdeclarativeorganizermodel.o(.ARM.extab)
    .extab._ZN26QDeclarativeOrganizerModel12itemsChangedERK5QListIN10QtMobility16QOrganizerItemIdEE 0x00033950   Data           0  qdeclarativeorganizermodel.o(.ARM.extab)
    .extab._ZN26QDeclarativeOrganizerModel11startImportEN10QtMobility13QVersitReader5StateE 0x00033990   Data           0  qdeclarativeorganizermodel.o(.ARM.extab)
    .extab._ZN5QListIP25QDeclarativeOrganizerItemE13detach_helperEi 0x000339c8   Data           0  qdeclarativeorganizermodel.o(.ARM.extab)
    .extab._Z20qForeachContainerNewI5QListIP25QDeclarativeOrganizerItemEE17QForeachContainerIT_ERKS5_ 0x000339e4   Data           0  qdeclarativeorganizermodel.o(.ARM.extab)
    .extab._Z20qForeachContainerNewI5QListI7QStringEE17QForeachContainerIT_ERKS4_ 0x000339f4   Data           0  qdeclarativeorganizermodel.o(.ARM.extab)
    .extab._ZN5QListIN10QtMobility14QOrganizerItemEE9node_copyEPNS2_4NodeES4_S4_ 0x00033a04   Data           0  qdeclarativeorganizermodel.o(.ARM.extab)
    .extab._ZN5QListIN10QtMobility14QOrganizerItemEE13detach_helperEi 0x00033a28   Data           0  qdeclarativeorganizermodel.o(.ARM.extab)
    .extab._Z20qForeachContainerNewI5QListIN10QtMobility14QOrganizerItemEEE17QForeachContainerIT_ERKS5_ 0x00033a44   Data           0  qdeclarativeorganizermodel.o(.ARM.extab)
    .extab._ZN5QListIN10QtMobility16QOrganizerItemIdEE9node_copyEPNS2_4NodeES4_S4_ 0x00033a54   Data           0  qdeclarativeorganizermodel.o(.ARM.extab)
    .extab._ZN5QListIN10QtMobility16QOrganizerItemIdEE13detach_helperEi 0x00033a78   Data           0  qdeclarativeorganizermodel.o(.ARM.extab)
    .extab._Z20qForeachContainerNewI5QListIN10QtMobility16QOrganizerItemIdEEE17QForeachContainerIT_ERKS5_ 0x00033a94   Data           0  qdeclarativeorganizermodel.o(.ARM.extab)
    .extab._ZN5QListIP34QDeclarativeOrganizerItemSortOrderE13detach_helperEi 0x00033aa4   Data           0  qdeclarativeorganizermodel.o(.ARM.extab)
    .extab._ZN5QListI7QStringE5clearEv       0x00033ac0   Data           0  qdeclarativeorganizermodel.o(.ARM.extab)
    .extab._ZN5QListIN10QtMobility23QOrganizerItemSortOrderEE9node_copyEPNS2_4NodeES4_S4_ 0x00033ad0   Data           0  qdeclarativeorganizermodel.o(.ARM.extab)
    .extab._ZN5QListIN10QtMobility23QOrganizerItemSortOrderEE13detach_helperEi 0x00033af4   Data           0  qdeclarativeorganizermodel.o(.ARM.extab)
    .extab._ZN5QListIN10QtMobility23QOrganizerItemSortOrderEE5clearEv 0x00033b10   Data           0  qdeclarativeorganizermodel.o(.ARM.extab)
    .extab._ZN5QListIN10QtMobility23QOrganizerItemSortOrderEE14node_constructEPNS2_4NodeERKS1_ 0x00033b20   Data           0  qdeclarativeorganizermodel.o(.ARM.extab)
    .extab._ZN5QListIN10QtMobility23QOrganizerItemSortOrderEE18detach_helper_growEii 0x00033b30   Data           0  qdeclarativeorganizermodel.o(.ARM.extab)
    .extab._ZN5QListIN10QtMobility23QOrganizerItemSortOrderEE6appendERKS1_ 0x00033b60   Data           0  qdeclarativeorganizermodel.o(.ARM.extab)
    .extab._ZN33QDeclarativeOrganizerModelPrivateC1Ev 0x00033b90   Data           0  qdeclarativeorganizermodel.o(.ARM.extab)
    .extab._ZN5QListIP25QDeclarativeOrganizerItemE5clearEv 0x00033c00   Data           0  qdeclarativeorganizermodel.o(.ARM.extab)
    .extab._ZN5QListIP34QDeclarativeOrganizerItemSortOrderE5clearEv 0x00033c10   Data           0  qdeclarativeorganizermodel.o(.ARM.extab)
    .extab._ZN5QListIP34QDeclarativeOrganizerItemSortOrderE18detach_helper_growEii 0x00033c20   Data           0  qdeclarativeorganizermodel.o(.ARM.extab)
    .extab._ZN5QListIP34QDeclarativeOrganizerItemSortOrderE6appendERKS1_ 0x00033c50   Data           0  qdeclarativeorganizermodel.o(.ARM.extab)
    .extab._ZN5QListIN10QtMobility16QOrganizerItemIdEE14node_constructEPNS2_4NodeERKS1_ 0x00033c6c   Data           0  qdeclarativeorganizermodel.o(.ARM.extab)
    .extab._ZN5QListIN10QtMobility16QOrganizerItemIdEE18detach_helper_growEii 0x00033c7c   Data           0  qdeclarativeorganizermodel.o(.ARM.extab)
    .extab._ZN5QListIN10QtMobility16QOrganizerItemIdEE6appendERKS1_ 0x00033cac   Data           0  qdeclarativeorganizermodel.o(.ARM.extab)
    .extab._ZN5QListIN10QtMobility14QOrganizerItemEE14node_constructEPNS2_4NodeERKS1_ 0x00033cdc   Data           0  qdeclarativeorganizermodel.o(.ARM.extab)
    .extab._ZN5QListIN10QtMobility14QOrganizerItemEE18detach_helper_growEii 0x00033cec   Data           0  qdeclarativeorganizermodel.o(.ARM.extab)
    .extab._ZN5QListIN10QtMobility14QOrganizerItemEE6appendERKS1_ 0x00033d1c   Data           0  qdeclarativeorganizermodel.o(.ARM.extab)
    .extab._ZN4QMapI7QStringP25QDeclarativeOrganizerItemE11node_createEP8QMapDataPPNS4_4NodeERKS0_RKS2_ 0x00033d4c   Data           0  qdeclarativeorganizermodel.o(.ARM.extab)
    .extab._ZN4QMapI7QStringP25QDeclarativeOrganizerItemE13detach_helperEv 0x00033d70   Data           0  qdeclarativeorganizermodel.o(.ARM.extab)
    .extab._ZN5QListIP25QDeclarativeOrganizerItemE18detach_helper_growEii 0x00033d8c   Data           0  qdeclarativeorganizermodel.o(.ARM.extab)
    .extab._ZN5QListIP25QDeclarativeOrganizerItemE6appendERKS1_ 0x00033dbc   Data           0  qdeclarativeorganizermodel.o(.ARM.extab)
    .extab._ZNK4QMapIiN10QtMobility17QOrganizerManager5ErrorEE4keysEv 0x00033dd8   Data           0  qdeclarativeorganizermodel.o(.ARM.extab)
    .extab._ZN5QHashIi10QByteArrayE13duplicateNodeEPN9QHashData4NodeEPv 0x00033de8   Data           0  qdeclarativeorganizermodel.o(.ARM.extab)
    .extab._ZN5QHashIi10QByteArrayE6insertERKiRKS0_ 0x00033df8   Data           0  qdeclarativeorganizermodel.o(.ARM.extab)
    .extab._ZNK10QtMobility20QOrganizerItemParent8parentIdEv 0x00033e10   Data           0  qdeclarativeorganizermodel.o(.ARM.extab)
    .extab._ZNK41QDeclarativeOrganizerItemCollectionFilter6filterEv 0x00033e28   Data           0  qdeclarativeorganizeritemfilter.o(.ARM.extab)
    .extab._ZNK33QDeclarativeOrganizerItemIdFilter6filterEv 0x00033e90   Data           0  qdeclarativeorganizeritemfilter.o(.ARM.extab)
    .extab._ZN5QHashIN10QtMobility22QOrganizerCollectionIdE15QHashDummyValueE13duplicateNodeEPN9QHashData4NodeEPv 0x00033ee8   Data           0  qdeclarativeorganizeritemfilter.o(.ARM.extab)
    .extab._ZN5QHashIN10QtMobility22QOrganizerCollectionIdE15QHashDummyValueE6insertERKS1_RKS2_ 0x00033ef8   Data           0  qdeclarativeorganizeritemfilter.o(.ARM.extab)
    .constdata$1                             0x00033f08   Data           0  moc_qdeclarativeorganizermodel_p.o(.constdata)
    qt_meta_data_QDeclarativeOrganizerModel  0x00033f08   Data        1064  moc_qdeclarativeorganizermodel_p.o(.constdata)
    .constdata                               0x00033f08   Section     2372  moc_qdeclarativeorganizermodel_p.o(.constdata)
    qt_meta_stringdata_QDeclarativeOrganizerModel 0x00034330   Data        1290  moc_qdeclarativeorganizermodel_p.o(.constdata)
    .constdata$1                             0x0003484c   Data           0  moc_qdeclarativeorganizeritem_p.o(.constdata)
    qt_meta_data_QDeclarativeOrganizerItem   0x0003484c   Data         532  moc_qdeclarativeorganizeritem_p.o(.constdata)
    .constdata                               0x0003484c   Section     3320  moc_qdeclarativeorganizeritem_p.o(.constdata)
    qt_meta_stringdata_QDeclarativeOrganizerItem 0x00034a60   Data         569  moc_qdeclarativeorganizeritem_p.o(.constdata)
    qt_meta_data_QDeclarativeOrganizerEvent  0x00034c9c   Data         176  moc_qdeclarativeorganizeritem_p.o(.constdata)
    qt_meta_stringdata_QDeclarativeOrganizerEvent 0x00034d4c   Data         214  moc_qdeclarativeorganizeritem_p.o(.constdata)
    qt_meta_extradata_QDeclarativeOrganizerEvent 0x00034e24   Data           8  moc_qdeclarativeorganizeritem_p.o(.constdata)
    qt_meta_extradata2_QDeclarativeOrganizerEvent 0x00034e2c   Data           8  moc_qdeclarativeorganizeritem_p.o(.constdata)
    qt_meta_data_QDeclarativeOrganizerEventOccurrence 0x00034e34   Data         176  moc_qdeclarativeorganizeritem_p.o(.constdata)
    qt_meta_stringdata_QDeclarativeOrganizerEventOccurrence 0x00034ee4   Data         192  moc_qdeclarativeorganizeritem_p.o(.constdata)
    qt_meta_extradata_QDeclarativeOrganizerEventOccurrence 0x00034fa4   Data           8  moc_qdeclarativeorganizeritem_p.o(.constdata)
    qt_meta_extradata2_QDeclarativeOrganizerEventOccurrence 0x00034fac   Data           8  moc_qdeclarativeorganizeritem_p.o(.constdata)
    qt_meta_data_QDeclarativeOrganizerJournal 0x00034fb4   Data          96  moc_qdeclarativeorganizeritem_p.o(.constdata)
    qt_meta_stringdata_QDeclarativeOrganizerJournal 0x00035014   Data          65  moc_qdeclarativeorganizeritem_p.o(.constdata)
    qt_meta_data_QDeclarativeOrganizerNote   0x00035058   Data          80  moc_qdeclarativeorganizeritem_p.o(.constdata)
    qt_meta_stringdata_QDeclarativeOrganizerNote 0x000350a8   Data          43  moc_qdeclarativeorganizeritem_p.o(.constdata)
    qt_meta_data_QDeclarativeOrganizerTodo   0x000350d4   Data         208  moc_qdeclarativeorganizeritem_p.o(.constdata)
    qt_meta_stringdata_QDeclarativeOrganizerTodo 0x000351a4   Data         291  moc_qdeclarativeorganizeritem_p.o(.constdata)
    qt_meta_extradata_QDeclarativeOrganizerTodo 0x000352c8   Data          12  moc_qdeclarativeorganizeritem_p.o(.constdata)
    qt_meta_extradata2_QDeclarativeOrganizerTodo 0x000352d4   Data           8  moc_qdeclarativeorganizeritem_p.o(.constdata)
    qt_meta_data_QDeclarativeOrganizerTodoOccurrence 0x000352dc   Data         208  moc_qdeclarativeorganizeritem_p.o(.constdata)
    qt_meta_stringdata_QDeclarativeOrganizerTodoOccurrence 0x000353ac   Data         275  moc_qdeclarativeorganizeritem_p.o(.constdata)
    qt_meta_extradata_QDeclarativeOrganizerTodoOccurrence 0x000354c0   Data          12  moc_qdeclarativeorganizeritem_p.o(.constdata)
    qt_meta_extradata2_QDeclarativeOrganizerTodoOccurrence 0x000354cc   Data           8  moc_qdeclarativeorganizeritem_p.o(.constdata)
    .constdata$1                             0x00035544   Data           0  moc_qdeclarativeorganizeritemdetail_p.o(.constdata)
    qt_meta_data_QDeclarativeOrganizerItemDetail 0x00035544   Data         376  moc_qdeclarativeorganizeritemdetail_p.o(.constdata)
    .constdata                               0x00035544   Section     6472  moc_qdeclarativeorganizeritemdetail_p.o(.constdata)
    qt_meta_stringdata_QDeclarativeOrganizerItemDetail 0x000356bc   Data         428  moc_qdeclarativeorganizeritemdetail_p.o(.constdata)
    qt_meta_data_QDeclarativeOrganizerEventTime 0x00035868   Data         128  moc_qdeclarativeorganizeritemdetail_p.o(.constdata)
    qt_meta_stringdata_QDeclarativeOrganizerEventTime 0x000358e8   Data          98  moc_qdeclarativeorganizeritemdetail_p.o(.constdata)
    qt_meta_data_QDeclarativeOrganizerItemComment 0x0003594c   Data         120  moc_qdeclarativeorganizeritemdetail_p.o(.constdata)
    qt_meta_stringdata_QDeclarativeOrganizerItemComment 0x000359c4   Data          84  moc_qdeclarativeorganizeritemdetail_p.o(.constdata)
    qt_meta_data_QDeclarativeOrganizerItemDescription 0x00035a18   Data         120  moc_qdeclarativeorganizeritemdetail_p.o(.constdata)
    qt_meta_stringdata_QDeclarativeOrganizerItemDescription 0x00035a90   Data          96  moc_qdeclarativeorganizeritemdetail_p.o(.constdata)
    qt_meta_data_QDeclarativeOrganizerItemDisplayLabel 0x00035af0   Data         120  moc_qdeclarativeorganizeritemdetail_p.o(.constdata)
    qt_meta_stringdata_QDeclarativeOrganizerItemDisplayLabel 0x00035b68   Data          85  moc_qdeclarativeorganizeritemdetail_p.o(.constdata)
    qt_meta_data_QDeclarativeOrganizerItemGuid 0x00035bc0   Data         120  moc_qdeclarativeorganizeritemdetail_p.o(.constdata)
    qt_meta_stringdata_QDeclarativeOrganizerItemGuid 0x00035c38   Data          75  moc_qdeclarativeorganizeritemdetail_p.o(.constdata)
    qt_meta_data_QDeclarativeOrganizerItemParent 0x00035c84   Data         144  moc_qdeclarativeorganizeritemdetail_p.o(.constdata)
    qt_meta_stringdata_QDeclarativeOrganizerItemParent 0x00035d14   Data         117  moc_qdeclarativeorganizeritemdetail_p.o(.constdata)
    qt_meta_data_QDeclarativeOrganizerItemLocation 0x00035d8c   Data         168  moc_qdeclarativeorganizeritemdetail_p.o(.constdata)
    qt_meta_stringdata_QDeclarativeOrganizerItemLocation 0x00035e34   Data         126  moc_qdeclarativeorganizeritemdetail_p.o(.constdata)
    qt_meta_data_QDeclarativeOrganizerItemPriority 0x00035eb4   Data         216  moc_qdeclarativeorganizeritemdetail_p.o(.constdata)
    qt_meta_stringdata_QDeclarativeOrganizerItemPriority 0x00035f8c   Data         175  moc_qdeclarativeorganizeritemdetail_p.o(.constdata)
    qt_meta_data_QDeclarativeOrganizerItemRecurrence 0x0003603c   Data         272  moc_qdeclarativeorganizeritemdetail_p.o(.constdata)
    qt_meta_stringdata_QDeclarativeOrganizerItemRecurrence 0x0003614c   Data         356  moc_qdeclarativeorganizeritemdetail_p.o(.constdata)
    qt_meta_data_QDeclarativeOrganizerItemReminder 0x000362b0   Data         240  moc_qdeclarativeorganizeritemdetail_p.o(.constdata)
    qt_meta_stringdata_QDeclarativeOrganizerItemReminder 0x000363a0   Data         257  moc_qdeclarativeorganizeritemdetail_p.o(.constdata)
    qt_meta_data_QDeclarativeOrganizerItemAudibleReminder 0x000364a4   Data         120  moc_qdeclarativeorganizeritemdetail_p.o(.constdata)
    qt_meta_stringdata_QDeclarativeOrganizerItemAudibleReminder 0x0003651c   Data          89  moc_qdeclarativeorganizeritemdetail_p.o(.constdata)
    qt_meta_data_QDeclarativeOrganizerItemVisualReminder 0x00036578   Data         144  moc_qdeclarativeorganizeritemdetail_p.o(.constdata)
    qt_meta_stringdata_QDeclarativeOrganizerItemVisualReminder 0x00036608   Data         112  moc_qdeclarativeorganizeritemdetail_p.o(.constdata)
    qt_meta_data_QDeclarativeOrganizerItemEmailReminder 0x00036678   Data         192  moc_qdeclarativeorganizeritemdetail_p.o(.constdata)
    qt_meta_stringdata_QDeclarativeOrganizerItemEmailReminder 0x00036738   Data         171  moc_qdeclarativeorganizeritemdetail_p.o(.constdata)
    qt_meta_data_QDeclarativeOrganizerItemTimestamp 0x000367e4   Data         144  moc_qdeclarativeorganizeritemdetail_p.o(.constdata)
    qt_meta_stringdata_QDeclarativeOrganizerItemTimestamp 0x00036874   Data         114  moc_qdeclarativeorganizeritemdetail_p.o(.constdata)
    qt_meta_data_QDeclarativeOrganizerItemType 0x000368e8   Data         120  moc_qdeclarativeorganizeritemdetail_p.o(.constdata)
    qt_meta_stringdata_QDeclarativeOrganizerItemType 0x00036960   Data          93  moc_qdeclarativeorganizeritemdetail_p.o(.constdata)
    qt_meta_data_QDeclarativeOrganizerJournalTime 0x000369c0   Data         120  moc_qdeclarativeorganizeritemdetail_p.o(.constdata)
    qt_meta_stringdata_QDeclarativeOrganizerJournalTime 0x00036a38   Data          98  moc_qdeclarativeorganizeritemdetail_p.o(.constdata)
    qt_meta_data_QDeclarativeOrganizerTodoProgress 0x00036a9c   Data         208  moc_qdeclarativeorganizeritemdetail_p.o(.constdata)
    qt_meta_stringdata_QDeclarativeOrganizerTodoProgress 0x00036b6c   Data         187  moc_qdeclarativeorganizeritemdetail_p.o(.constdata)
    qt_meta_data_QDeclarativeOrganizerTodoTime 0x00036c28   Data         168  moc_qdeclarativeorganizeritemdetail_p.o(.constdata)
    qt_meta_stringdata_QDeclarativeOrganizerTodoTime 0x00036cd0   Data         138  moc_qdeclarativeorganizeritemdetail_p.o(.constdata)
    .constdata$1                             0x00036e8c   Data           0  moc_qdeclarativeorganizeritemfilter_p.o(.constdata)
    qt_meta_data_QDeclarativeOrganizerItemFilter 0x00036e8c   Data         252  moc_qdeclarativeorganizeritemfilter_p.o(.constdata)
    .constdata                               0x00036e8c   Section     2740  moc_qdeclarativeorganizeritemfilter_p.o(.constdata)
    qt_meta_stringdata_QDeclarativeOrganizerItemFilter 0x00036f88   Data         315  moc_qdeclarativeorganizeritemfilter_p.o(.constdata)
    qt_meta_data_QDeclarativeOrganizerItemChangeLogFilter 0x000370c4   Data         152  moc_qdeclarativeorganizeritemfilter_p.o(.constdata)
    qt_meta_stringdata_QDeclarativeOrganizerItemChangeLogFilter 0x0003715c   Data         131  moc_qdeclarativeorganizeritemfilter_p.o(.constdata)
    qt_meta_data_QDeclarativeOrganizerItemCollectionFilter 0x000371e0   Data          96  moc_qdeclarativeorganizeritemfilter_p.o(.constdata)
    qt_meta_stringdata_QDeclarativeOrganizerItemCollectionFilter 0x00037240   Data          75  moc_qdeclarativeorganizeritemfilter_p.o(.constdata)
    qt_meta_data_QDeclarativeOrganizerItemDetailFilter 0x0003728c   Data         144  moc_qdeclarativeorganizeritemfilter_p.o(.constdata)
    qt_meta_stringdata_QDeclarativeOrganizerItemDetailFilter 0x0003731c   Data         138  moc_qdeclarativeorganizeritemfilter_p.o(.constdata)
    qt_meta_extradata_QDeclarativeOrganizerItemDetailFilter 0x000373a8   Data           8  moc_qdeclarativeorganizeritemfilter_p.o(.constdata)
    qt_meta_extradata2_QDeclarativeOrganizerItemDetailFilter 0x000373b0   Data           8  moc_qdeclarativeorganizeritemfilter_p.o(.constdata)
    qt_meta_data_QDeclarativeOrganizerItemDetailRangeFilter 0x000373b8   Data         272  moc_qdeclarativeorganizeritemfilter_p.o(.constdata)
    qt_meta_stringdata_QDeclarativeOrganizerItemDetailRangeFilter 0x000374c8   Data         229  moc_qdeclarativeorganizeritemfilter_p.o(.constdata)
    qt_meta_extradata_QDeclarativeOrganizerItemDetailRangeFilter 0x000375b0   Data           8  moc_qdeclarativeorganizeritemfilter_p.o(.constdata)
    qt_meta_extradata2_QDeclarativeOrganizerItemDetailRangeFilter 0x000375b8   Data           8  moc_qdeclarativeorganizeritemfilter_p.o(.constdata)
    qt_meta_data_QDeclarativeOrganizerItemIdFilter 0x000375c0   Data          96  moc_qdeclarativeorganizeritemfilter_p.o(.constdata)
    qt_meta_stringdata_QDeclarativeOrganizerItemIdFilter 0x00037620   Data          68  moc_qdeclarativeorganizeritemfilter_p.o(.constdata)
    qt_meta_data_QDeclarativeOrganizerItemIntersectionFilter 0x00037664   Data         104  moc_qdeclarativeorganizeritemfilter_p.o(.constdata)
    qt_meta_stringdata_QDeclarativeOrganizerItemIntersectionFilter 0x000376cc   Data         143  moc_qdeclarativeorganizeritemfilter_p.o(.constdata)
    qt_meta_data_QDeclarativeOrganizerItemUnionFilter 0x0003775c   Data         104  moc_qdeclarativeorganizeritemfilter_p.o(.constdata)
    qt_meta_stringdata_QDeclarativeOrganizerItemUnionFilter 0x000377c4   Data         136  moc_qdeclarativeorganizeritemfilter_p.o(.constdata)
    qt_meta_data_QDeclarativeOrganizerItemInvalidFilter 0x0003784c   Data          60  moc_qdeclarativeorganizeritemfilter_p.o(.constdata)
    qt_meta_stringdata_QDeclarativeOrganizerItemInvalidFilter 0x00037888   Data          40  moc_qdeclarativeorganizeritemfilter_p.o(.constdata)
    .constdata$1                             0x00037940   Data           0  moc_qdeclarativeorganizerrecurrencerule_p.o(.constdata)
    qt_meta_data_QDeclarativeOrganizerRecurrenceRule 0x00037940   Data         392  moc_qdeclarativeorganizerrecurrencerule_p.o(.constdata)
    .constdata                               0x00037940   Section      748  moc_qdeclarativeorganizerrecurrencerule_p.o(.constdata)
    qt_meta_stringdata_QDeclarativeOrganizerRecurrenceRule 0x00037ac8   Data         337  moc_qdeclarativeorganizerrecurrencerule_p.o(.constdata)
    .constdata$1                             0x00037c2c   Data           0  moc_qdeclarativeorganizercollection_p.o(.constdata)
    qt_meta_data_QDeclarativeOrganizerCollection 0x00037c2c   Data         200  moc_qdeclarativeorganizercollection_p.o(.constdata)
    .constdata                               0x00037c2c   Section      400  moc_qdeclarativeorganizercollection_p.o(.constdata)
    qt_meta_stringdata_QDeclarativeOrganizerCollection 0x00037cf4   Data         182  moc_qdeclarativeorganizercollection_p.o(.constdata)
    .constdata$1                             0x00037dbc   Data           0  moc_qdeclarativeorganizeritemsortorder_p.o(.constdata)
    qt_meta_data_QDeclarativeOrganizerItemSortOrder 0x00037dbc   Data         192  moc_qdeclarativeorganizeritemsortorder_p.o(.constdata)
    .constdata                               0x00037dbc   Section      392  moc_qdeclarativeorganizeritemsortorder_p.o(.constdata)
    qt_meta_stringdata_QDeclarativeOrganizerItemSortOrder 0x00037e7c   Data         181  moc_qdeclarativeorganizeritemsortorder_p.o(.constdata)
    .constdata$1                             0x00037f44   Data           0  moc_qdeclarativeorganizeritemfetchhint_p.o(.constdata)
    qt_meta_data_QDeclarativeOrganizerItemFetchHint 0x00037f44   Data         176  moc_qdeclarativeorganizeritemfetchhint_p.o(.constdata)
    .constdata                               0x00037f44   Section      348  moc_qdeclarativeorganizeritemfetchhint_p.o(.constdata)
    qt_meta_stringdata_QDeclarativeOrganizerItemFetchHint 0x00037ff4   Data         155  moc_qdeclarativeorganizeritemfetchhint_p.o(.constdata)
    .constdata$1                             0x000380a0   Data           0  plugin.o(.constdata)
    qt_meta_data_QOrganizerQmlPlugin         0x000380a0   Data          60  plugin.o(.constdata)
    .constdata                               0x000380a0   Section      737  plugin.o(.constdata)
    qt_meta_stringdata_QOrganizerQmlPlugin   0x000380dc   Data          21  plugin.o(.constdata)
    qt_plugin_verification_data              0x000380f1   Data          91  plugin.o(.constdata)
    .constdata$1                             0x00038381   Data           0  qdeclarativeorganizeritem.o(.constdata)
    .constdata                               0x00038381   Section      116  qdeclarativeorganizeritem.o(.constdata)
    .constdata$1                             0x000383f8   Data           0  qdeclarativeorganizeritemdetail.o(.constdata)
    .constdata                               0x000383f8   Section      316  qdeclarativeorganizeritemdetail.o(.constdata)
    .constdata$1                             0x00038534   Data           0  qdeclarativeorganizermodel.o(.constdata)
    .constdata                               0x00038534   Section       92  qdeclarativeorganizermodel.o(.constdata)
    .constdata__ZN9stlp_priv15_Integer_limitsIaLan128ELa127ELin1ELb1EE6digitsE 0x00038590   Section        4  moc_qdeclarativeorganizermodel_p.o(.constdata__ZN9stlp_priv15_Integer_limitsIaLan128ELa127ELin1ELb1EE6digitsE)
    .constdata__ZN9stlp_priv15_Integer_limitsIbLb0ELb1ELi1ELb0EE6digitsE 0x00038594   Section        4  moc_qdeclarativeorganizermodel_p.o(.constdata__ZN9stlp_priv15_Integer_limitsIbLb0ELb1ELi1ELb0EE6digitsE)
    .constdata__ZN9stlp_priv15_Integer_limitsIcLc128ELc127ELin1ELb1EE6digitsE 0x00038598   Section        4  moc_qdeclarativeorganizermodel_p.o(.constdata__ZN9stlp_priv15_Integer_limitsIcLc128ELc127ELin1ELb1EE6digitsE)
    .constdata__ZN9stlp_priv15_Integer_limitsIhLh0ELh255ELin1ELb1EE6digitsE 0x0003859c   Section        4  moc_qdeclarativeorganizermodel_p.o(.constdata__ZN9stlp_priv15_Integer_limitsIhLh0ELh255ELin1ELb1EE6digitsE)
    .constdata__ZN9stlp_priv15_Integer_limitsIiLin2147483648ELi2147483647ELin1ELb1EE6digitsE 0x000385a0   Section        4  moc_qdeclarativeorganizermodel_p.o(.constdata__ZN9stlp_priv15_Integer_limitsIiLin2147483648ELi2147483647ELin1ELb1EE6digitsE)
    .constdata__ZN9stlp_priv15_Integer_limitsIiLin2147483648ELi2147483647ELin1ELb1EE9is_signedE 0x000385a4   Section        1  moc_qdeclarativeorganizermodel_p.o(.constdata__ZN9stlp_priv15_Integer_limitsIiLin2147483648ELi2147483647ELin1ELb1EE9is_signedE)
    .constdata__ZN9stlp_priv15_Integer_limitsIjLj0ELj4294967295ELin1ELb1EE6digitsE 0x000385a8   Section        4  moc_qdeclarativeorganizermodel_p.o(.constdata__ZN9stlp_priv15_Integer_limitsIjLj0ELj4294967295ELin1ELb1EE6digitsE)
    .constdata__ZN9stlp_priv15_Integer_limitsIlLln2147483648ELl2147483647ELin1ELb1EE6digitsE 0x000385ac   Section        4  moc_qdeclarativeorganizermodel_p.o(.constdata__ZN9stlp_priv15_Integer_limitsIlLln2147483648ELl2147483647ELin1ELb1EE6digitsE)
    .constdata__ZN9stlp_priv15_Integer_limitsImLm0ELm4294967295ELin1ELb1EE6digitsE 0x000385b0   Section        4  moc_qdeclarativeorganizermodel_p.o(.constdata__ZN9stlp_priv15_Integer_limitsImLm0ELm4294967295ELin1ELb1EE6digitsE)
    .constdata__ZN9stlp_priv15_Integer_limitsIsLsn32768ELs32767ELin1ELb1EE6digitsE 0x000385b4   Section        4  moc_qdeclarativeorganizermodel_p.o(.constdata__ZN9stlp_priv15_Integer_limitsIsLsn32768ELs32767ELin1ELb1EE6digitsE)
    .constdata__ZN9stlp_priv15_Integer_limitsItLt0ELt65535ELin1ELb1EE6digitsE 0x000385b8   Section        4  moc_qdeclarativeorganizermodel_p.o(.constdata__ZN9stlp_priv15_Integer_limitsItLt0ELt65535ELin1ELb1EE6digitsE)
    .constdata__ZN9stlp_priv15_Integer_limitsIwLw0ELw65535ELin1ELb1EE6digitsE 0x000385bc   Section        4  moc_qdeclarativeorganizermodel_p.o(.constdata__ZN9stlp_priv15_Integer_limitsIwLw0ELw65535ELin1ELb1EE6digitsE)
    .constdata__ZN9stlp_priv15_Integer_limitsIxLxn9223372036854775808ELx9223372036854775807ELin1ELb1EE6digitsE 0x000385c0   Section        4  moc_qdeclarativeorganizermodel_p.o(.constdata__ZN9stlp_priv15_Integer_limitsIxLxn9223372036854775808ELx9223372036854775807ELin1ELb1EE6digitsE)
    .constdata__ZN9stlp_priv15_Integer_limitsIyLy0ELy18446744073709551615ELin1ELb1EE6digitsE 0x000385c4   Section        4  moc_qdeclarativeorganizermodel_p.o(.constdata__ZN9stlp_priv15_Integer_limitsIyLy0ELy18446744073709551615ELin1ELb1EE6digitsE)
    .constdata__ZTI11QMetaObject             0x000385c8   Section        8  qdeclarativeopenmetaobject.o(.constdata__ZTI11QMetaObject)
    .constdata__ZTI18QMetaObjectBuilder      0x000385d0   Section        8  qmetaobjectbuilder.o(.constdata__ZTI18QMetaObjectBuilder)
    .constdata__ZTI19QOrganizerQmlPlugin     0x000385d8   Section       12  plugin.o(.constdata__ZTI19QOrganizerQmlPlugin)
    .constdata__ZTI25QDeclarativeOrganizerItem 0x000385e4   Section       12  moc_qdeclarativeorganizeritem_p.o(.constdata__ZTI25QDeclarativeOrganizerItem)
    .constdata__ZTI25QDeclarativeOrganizerNote 0x000385f0   Section       12  moc_qdeclarativeorganizeritem_p.o(.constdata__ZTI25QDeclarativeOrganizerNote)
    .constdata__ZTI25QDeclarativeOrganizerTodo 0x000385fc   Section       12  moc_qdeclarativeorganizeritem_p.o(.constdata__ZTI25QDeclarativeOrganizerTodo)
    .constdata__ZTI26QAbstractDynamicMetaObject 0x00038608   Section       24  qdeclarativeopenmetaobject.o(.constdata__ZTI26QAbstractDynamicMetaObject)
    .constdata__ZTI26QDeclarativeOpenMetaObject 0x00038620   Section       12  qdeclarativeopenmetaobject.o(.constdata__ZTI26QDeclarativeOpenMetaObject)
    .constdata__ZTI26QDeclarativeOrganizerEvent 0x0003862c   Section       12  moc_qdeclarativeorganizeritem_p.o(.constdata__ZTI26QDeclarativeOrganizerEvent)
    .constdata__ZTI26QDeclarativeOrganizerModel 0x00038638   Section       32  moc_qdeclarativeorganizermodel_p.o(.constdata__ZTI26QDeclarativeOrganizerModel)
    .constdata__ZTI28QDeclarativeOrganizerJournal 0x00038658   Section       12  moc_qdeclarativeorganizeritem_p.o(.constdata__ZTI28QDeclarativeOrganizerJournal)
    .constdata__ZTI29QDeclarativeOrganizerItemGuid 0x00038664   Section       12  moc_qdeclarativeorganizeritemdetail_p.o(.constdata__ZTI29QDeclarativeOrganizerItemGuid)
    .constdata__ZTI29QDeclarativeOrganizerItemType 0x00038670   Section       12  moc_qdeclarativeorganizeritemdetail_p.o(.constdata__ZTI29QDeclarativeOrganizerItemType)
    .constdata__ZTI29QDeclarativeOrganizerTodoTime 0x0003867c   Section       12  moc_qdeclarativeorganizeritemdetail_p.o(.constdata__ZTI29QDeclarativeOrganizerTodoTime)
    .constdata__ZTI30QDeclarativeOrganizerEventTime 0x00038688   Section       12  moc_qdeclarativeorganizeritemdetail_p.o(.constdata__ZTI30QDeclarativeOrganizerEventTime)
    .constdata__ZTI31QDeclarativeOrganizerCollection 0x00038694   Section       12  moc_qdeclarativeorganizercollection_p.o(.constdata__ZTI31QDeclarativeOrganizerCollection)
    .constdata__ZTI31QDeclarativeOrganizerItemDetail 0x000386a0   Section       12  moc_qdeclarativeorganizeritemdetail_p.o(.constdata__ZTI31QDeclarativeOrganizerItemDetail)
    .constdata__ZTI31QDeclarativeOrganizerItemFilter 0x000386ac   Section       12  moc_qdeclarativeorganizeritemfilter_p.o(.constdata__ZTI31QDeclarativeOrganizerItemFilter)
    .constdata__ZTI31QDeclarativeOrganizerItemParent 0x000386b8   Section       12  moc_qdeclarativeorganizeritemdetail_p.o(.constdata__ZTI31QDeclarativeOrganizerItemParent)
    .constdata__ZTI32QDeclarativeOrganizerItemComment 0x000386c4   Section       12  moc_qdeclarativeorganizeritemdetail_p.o(.constdata__ZTI32QDeclarativeOrganizerItemComment)
    .constdata__ZTI32QDeclarativeOrganizerJournalTime 0x000386d0   Section       12  moc_qdeclarativeorganizeritemdetail_p.o(.constdata__ZTI32QDeclarativeOrganizerJournalTime)
    .constdata__ZTI33QDeclarativeOrganizerItemIdFilter 0x000386dc   Section       12  moc_qdeclarativeorganizeritemfilter_p.o(.constdata__ZTI33QDeclarativeOrganizerItemIdFilter)
    .constdata__ZTI33QDeclarativeOrganizerItemLocation 0x000386e8   Section       12  moc_qdeclarativeorganizeritemdetail_p.o(.constdata__ZTI33QDeclarativeOrganizerItemLocation)
    .constdata__ZTI33QDeclarativeOrganizerItemPriority 0x000386f4   Section       12  moc_qdeclarativeorganizeritemdetail_p.o(.constdata__ZTI33QDeclarativeOrganizerItemPriority)
    .constdata__ZTI33QDeclarativeOrganizerItemReminder 0x00038700   Section       12  moc_qdeclarativeorganizeritemdetail_p.o(.constdata__ZTI33QDeclarativeOrganizerItemReminder)
    .constdata__ZTI33QDeclarativeOrganizerTodoProgress 0x0003870c   Section       12  moc_qdeclarativeorganizeritemdetail_p.o(.constdata__ZTI33QDeclarativeOrganizerTodoProgress)
    .constdata__ZTI34QDeclarativeOrganizerItemFetchHint 0x00038718   Section       12  moc_qdeclarativeorganizeritemfetchhint_p.o(.constdata__ZTI34QDeclarativeOrganizerItemFetchHint)
    .constdata__ZTI34QDeclarativeOrganizerItemSortOrder 0x00038724   Section       32  moc_qdeclarativeorganizeritemsortorder_p.o(.constdata__ZTI34QDeclarativeOrganizerItemSortOrder)
    .constdata__ZTI34QDeclarativeOrganizerItemTimestamp 0x00038744   Section       12  moc_qdeclarativeorganizeritemdetail_p.o(.constdata__ZTI34QDeclarativeOrganizerItemTimestamp)
    .constdata__ZTI35QDeclarativeOrganizerItemMetaObject 0x00038750   Section       12  qdeclarativeorganizeritemmetaobject.o(.constdata__ZTI35QDeclarativeOrganizerItemMetaObject)
    .constdata__ZTI35QDeclarativeOrganizerItemRecurrence 0x0003875c   Section       12  moc_qdeclarativeorganizeritemdetail_p.o(.constdata__ZTI35QDeclarativeOrganizerItemRecurrence)
    .constdata__ZTI35QDeclarativeOrganizerRecurrenceRule 0x00038768   Section       12  moc_qdeclarativeorganizerrecurrencerule_p.o(.constdata__ZTI35QDeclarativeOrganizerRecurrenceRule)
    .constdata__ZTI35QDeclarativeOrganizerTodoOccurrence 0x00038774   Section       12  moc_qdeclarativeorganizeritem_p.o(.constdata__ZTI35QDeclarativeOrganizerTodoOccurrence)
    .constdata__ZTI36QDeclarativeOrganizerEventOccurrence 0x00038780   Section       12  moc_qdeclarativeorganizeritem_p.o(.constdata__ZTI36QDeclarativeOrganizerEventOccurrence)
    .constdata__ZTI36QDeclarativeOrganizerItemDescription 0x0003878c   Section       12  moc_qdeclarativeorganizeritemdetail_p.o(.constdata__ZTI36QDeclarativeOrganizerItemDescription)
    .constdata__ZTI36QDeclarativeOrganizerItemUnionFilter 0x00038798   Section       12  moc_qdeclarativeorganizeritemfilter_p.o(.constdata__ZTI36QDeclarativeOrganizerItemUnionFilter)
    .constdata__ZTI37QDeclarativeOrganizerItemDetailFilter 0x000387a4   Section       32  moc_qdeclarativeorganizeritemfilter_p.o(.constdata__ZTI37QDeclarativeOrganizerItemDetailFilter)
    .constdata__ZTI37QDeclarativeOrganizerItemDisplayLabel 0x000387c4   Section       12  moc_qdeclarativeorganizeritemdetail_p.o(.constdata__ZTI37QDeclarativeOrganizerItemDisplayLabel)
    .constdata__ZTI38QDeclarativeOrganizerItemEmailReminder 0x000387d0   Section       12  moc_qdeclarativeorganizeritemdetail_p.o(.constdata__ZTI38QDeclarativeOrganizerItemEmailReminder)
    .constdata__ZTI38QDeclarativeOrganizerItemInvalidFilter 0x000387dc   Section       12  moc_qdeclarativeorganizeritemfilter_p.o(.constdata__ZTI38QDeclarativeOrganizerItemInvalidFilter)
    .constdata__ZTI39QDeclarativeOrganizerItemVisualReminder 0x000387e8   Section       12  moc_qdeclarativeorganizeritemdetail_p.o(.constdata__ZTI39QDeclarativeOrganizerItemVisualReminder)
    .constdata__ZTI40QDeclarativeOrganizerItemAudibleReminder 0x000387f4   Section       12  moc_qdeclarativeorganizeritemdetail_p.o(.constdata__ZTI40QDeclarativeOrganizerItemAudibleReminder)
    .constdata__ZTI40QDeclarativeOrganizerItemChangeLogFilter 0x00038800   Section       12  moc_qdeclarativeorganizeritemfilter_p.o(.constdata__ZTI40QDeclarativeOrganizerItemChangeLogFilter)
    .constdata__ZTI41QDeclarativeOrganizerItemCollectionFilter 0x0003880c   Section       12  moc_qdeclarativeorganizeritemfilter_p.o(.constdata__ZTI41QDeclarativeOrganizerItemCollectionFilter)
    .constdata__ZTI42QDeclarativeOrganizerItemDetailRangeFilter 0x00038818   Section       32  moc_qdeclarativeorganizeritemfilter_p.o(.constdata__ZTI42QDeclarativeOrganizerItemDetailRangeFilter)
    .constdata__ZTI43QDeclarativeOrganizerItemIntersectionFilter 0x00038838   Section       12  moc_qdeclarativeorganizeritemfilter_p.o(.constdata__ZTI43QDeclarativeOrganizerItemIntersectionFilter)
    .constdata__ZTIN19QDeclarativePrivate19QDeclarativeElementI25QDeclarativeOrganizerItemEE 0x00038844   Section       12  plugin.o(.constdata__ZTIN19QDeclarativePrivate19QDeclarativeElementI25QDeclarativeOrganizerItemEE)
    .constdata__ZTIN19QDeclarativePrivate19QDeclarativeElementI25QDeclarativeOrganizerNoteEE 0x00038850   Section       12  plugin.o(.constdata__ZTIN19QDeclarativePrivate19QDeclarativeElementI25QDeclarativeOrganizerNoteEE)
    .constdata__ZTIN19QDeclarativePrivate19QDeclarativeElementI25QDeclarativeOrganizerTodoEE 0x0003885c   Section       12  plugin.o(.constdata__ZTIN19QDeclarativePrivate19QDeclarativeElementI25QDeclarativeOrganizerTodoEE)
    .constdata__ZTIN19QDeclarativePrivate19QDeclarativeElementI26QDeclarativeOrganizerEventEE 0x00038868   Section       12  plugin.o(.constdata__ZTIN19QDeclarativePrivate19QDeclarativeElementI26QDeclarativeOrganizerEventEE)
    .constdata__ZTIN19QDeclarativePrivate19QDeclarativeElementI26QDeclarativeOrganizerModelEE 0x00038874   Section       12  plugin.o(.constdata__ZTIN19QDeclarativePrivate19QDeclarativeElementI26QDeclarativeOrganizerModelEE)
    .constdata__ZTIN19QDeclarativePrivate19QDeclarativeElementI28QDeclarativeOrganizerJournalEE 0x00038880   Section       12  plugin.o(.constdata__ZTIN19QDeclarativePrivate19QDeclarativeElementI28QDeclarativeOrganizerJournalEE)
    .constdata__ZTIN19QDeclarativePrivate19QDeclarativeElementI29QDeclarativeOrganizerItemGuidEE 0x0003888c   Section       12  plugin.o(.constdata__ZTIN19QDeclarativePrivate19QDeclarativeElementI29QDeclarativeOrganizerItemGuidEE)
    .constdata__ZTIN19QDeclarativePrivate19QDeclarativeElementI29QDeclarativeOrganizerItemTypeEE 0x00038898   Section       12  plugin.o(.constdata__ZTIN19QDeclarativePrivate19QDeclarativeElementI29QDeclarativeOrganizerItemTypeEE)
    .constdata__ZTIN19QDeclarativePrivate19QDeclarativeElementI29QDeclarativeOrganizerTodoTimeEE 0x000388a4   Section       12  plugin.o(.constdata__ZTIN19QDeclarativePrivate19QDeclarativeElementI29QDeclarativeOrganizerTodoTimeEE)
    .constdata__ZTIN19QDeclarativePrivate19QDeclarativeElementI30QDeclarativeOrganizerEventTimeEE 0x000388b0   Section       12  plugin.o(.constdata__ZTIN19QDeclarativePrivate19QDeclarativeElementI30QDeclarativeOrganizerEventTimeEE)
    .constdata__ZTIN19QDeclarativePrivate19QDeclarativeElementI31QDeclarativeOrganizerCollectionEE 0x000388bc   Section       12  plugin.o(.constdata__ZTIN19QDeclarativePrivate19QDeclarativeElementI31QDeclarativeOrganizerCollectionEE)
    .constdata__ZTIN19QDeclarativePrivate19QDeclarativeElementI31QDeclarativeOrganizerItemDetailEE 0x000388c8   Section       12  plugin.o(.constdata__ZTIN19QDeclarativePrivate19QDeclarativeElementI31QDeclarativeOrganizerItemDetailEE)
    .constdata__ZTIN19QDeclarativePrivate19QDeclarativeElementI31QDeclarativeOrganizerItemFilterEE 0x000388d4   Section       12  plugin.o(.constdata__ZTIN19QDeclarativePrivate19QDeclarativeElementI31QDeclarativeOrganizerItemFilterEE)
    .constdata__ZTIN19QDeclarativePrivate19QDeclarativeElementI31QDeclarativeOrganizerItemParentEE 0x000388e0   Section       12  plugin.o(.constdata__ZTIN19QDeclarativePrivate19QDeclarativeElementI31QDeclarativeOrganizerItemParentEE)
    .constdata__ZTIN19QDeclarativePrivate19QDeclarativeElementI32QDeclarativeOrganizerJournalTimeEE 0x000388ec   Section       12  plugin.o(.constdata__ZTIN19QDeclarativePrivate19QDeclarativeElementI32QDeclarativeOrganizerJournalTimeEE)
    .constdata__ZTIN19QDeclarativePrivate19QDeclarativeElementI33QDeclarativeOrganizerItemIdFilterEE 0x000388f8   Section       12  plugin.o(.constdata__ZTIN19QDeclarativePrivate19QDeclarativeElementI33QDeclarativeOrganizerItemIdFilterEE)
    .constdata__ZTIN19QDeclarativePrivate19QDeclarativeElementI33QDeclarativeOrganizerItemLocationEE 0x00038904   Section       12  plugin.o(.constdata__ZTIN19QDeclarativePrivate19QDeclarativeElementI33QDeclarativeOrganizerItemLocationEE)
    .constdata__ZTIN19QDeclarativePrivate19QDeclarativeElementI33QDeclarativeOrganizerItemPriorityEE 0x00038910   Section       12  plugin.o(.constdata__ZTIN19QDeclarativePrivate19QDeclarativeElementI33QDeclarativeOrganizerItemPriorityEE)
    .constdata__ZTIN19QDeclarativePrivate19QDeclarativeElementI33QDeclarativeOrganizerItemReminderEE 0x0003891c   Section       12  plugin.o(.constdata__ZTIN19QDeclarativePrivate19QDeclarativeElementI33QDeclarativeOrganizerItemReminderEE)
    .constdata__ZTIN19QDeclarativePrivate19QDeclarativeElementI33QDeclarativeOrganizerTodoProgressEE 0x00038928   Section       12  plugin.o(.constdata__ZTIN19QDeclarativePrivate19QDeclarativeElementI33QDeclarativeOrganizerTodoProgressEE)
    .constdata__ZTIN19QDeclarativePrivate19QDeclarativeElementI34QDeclarativeOrganizerItemFetchHintEE 0x00038934   Section       12  plugin.o(.constdata__ZTIN19QDeclarativePrivate19QDeclarativeElementI34QDeclarativeOrganizerItemFetchHintEE)
    .constdata__ZTIN19QDeclarativePrivate19QDeclarativeElementI34QDeclarativeOrganizerItemSortOrderEE 0x00038940   Section       12  plugin.o(.constdata__ZTIN19QDeclarativePrivate19QDeclarativeElementI34QDeclarativeOrganizerItemSortOrderEE)
    .constdata__ZTIN19QDeclarativePrivate19QDeclarativeElementI34QDeclarativeOrganizerItemTimestampEE 0x0003894c   Section       12  plugin.o(.constdata__ZTIN19QDeclarativePrivate19QDeclarativeElementI34QDeclarativeOrganizerItemTimestampEE)
    .constdata__ZTIN19QDeclarativePrivate19QDeclarativeElementI35QDeclarativeOrganizerItemRecurrenceEE 0x00038958   Section       12  plugin.o(.constdata__ZTIN19QDeclarativePrivate19QDeclarativeElementI35QDeclarativeOrganizerItemRecurrenceEE)
    .constdata__ZTIN19QDeclarativePrivate19QDeclarativeElementI35QDeclarativeOrganizerRecurrenceRuleEE 0x00038964   Section       12  plugin.o(.constdata__ZTIN19QDeclarativePrivate19QDeclarativeElementI35QDeclarativeOrganizerRecurrenceRuleEE)
    .constdata__ZTIN19QDeclarativePrivate19QDeclarativeElementI35QDeclarativeOrganizerTodoOccurrenceEE 0x00038970   Section       12  plugin.o(.constdata__ZTIN19QDeclarativePrivate19QDeclarativeElementI35QDeclarativeOrganizerTodoOccurrenceEE)
    .constdata__ZTIN19QDeclarativePrivate19QDeclarativeElementI36QDeclarativeOrganizerEventOccurrenceEE 0x0003897c   Section       12  plugin.o(.constdata__ZTIN19QDeclarativePrivate19QDeclarativeElementI36QDeclarativeOrganizerEventOccurrenceEE)
    .constdata__ZTIN19QDeclarativePrivate19QDeclarativeElementI36QDeclarativeOrganizerItemDescriptionEE 0x00038988   Section       12  plugin.o(.constdata__ZTIN19QDeclarativePrivate19QDeclarativeElementI36QDeclarativeOrganizerItemDescriptionEE)
    .constdata__ZTIN19QDeclarativePrivate19QDeclarativeElementI36QDeclarativeOrganizerItemUnionFilterEE 0x00038994   Section       12  plugin.o(.constdata__ZTIN19QDeclarativePrivate19QDeclarativeElementI36QDeclarativeOrganizerItemUnionFilterEE)
    .constdata__ZTIN19QDeclarativePrivate19QDeclarativeElementI37QDeclarativeOrganizerItemDetailFilterEE 0x000389a0   Section       12  plugin.o(.constdata__ZTIN19QDeclarativePrivate19QDeclarativeElementI37QDeclarativeOrganizerItemDetailFilterEE)
    .constdata__ZTIN19QDeclarativePrivate19QDeclarativeElementI37QDeclarativeOrganizerItemDisplayLabelEE 0x000389ac   Section       12  plugin.o(.constdata__ZTIN19QDeclarativePrivate19QDeclarativeElementI37QDeclarativeOrganizerItemDisplayLabelEE)
    .constdata__ZTIN19QDeclarativePrivate19QDeclarativeElementI38QDeclarativeOrganizerItemEmailReminderEE 0x000389b8   Section       12  plugin.o(.constdata__ZTIN19QDeclarativePrivate19QDeclarativeElementI38QDeclarativeOrganizerItemEmailReminderEE)
    .constdata__ZTIN19QDeclarativePrivate19QDeclarativeElementI38QDeclarativeOrganizerItemInvalidFilterEE 0x000389c4   Section       12  plugin.o(.constdata__ZTIN19QDeclarativePrivate19QDeclarativeElementI38QDeclarativeOrganizerItemInvalidFilterEE)
    .constdata__ZTIN19QDeclarativePrivate19QDeclarativeElementI39QDeclarativeOrganizerItemVisualReminderEE 0x000389d0   Section       12  plugin.o(.constdata__ZTIN19QDeclarativePrivate19QDeclarativeElementI39QDeclarativeOrganizerItemVisualReminderEE)
    .constdata__ZTIN19QDeclarativePrivate19QDeclarativeElementI40QDeclarativeOrganizerItemAudibleReminderEE 0x000389dc   Section       12  plugin.o(.constdata__ZTIN19QDeclarativePrivate19QDeclarativeElementI40QDeclarativeOrganizerItemAudibleReminderEE)
    .constdata__ZTIN19QDeclarativePrivate19QDeclarativeElementI40QDeclarativeOrganizerItemChangeLogFilterEE 0x000389e8   Section       12  plugin.o(.constdata__ZTIN19QDeclarativePrivate19QDeclarativeElementI40QDeclarativeOrganizerItemChangeLogFilterEE)
    .constdata__ZTIN19QDeclarativePrivate19QDeclarativeElementI41QDeclarativeOrganizerItemCollectionFilterEE 0x000389f4   Section       12  plugin.o(.constdata__ZTIN19QDeclarativePrivate19QDeclarativeElementI41QDeclarativeOrganizerItemCollectionFilterEE)
    .constdata__ZTIN19QDeclarativePrivate19QDeclarativeElementI42QDeclarativeOrganizerItemDetailRangeFilterEE 0x00038a00   Section       12  plugin.o(.constdata__ZTIN19QDeclarativePrivate19QDeclarativeElementI42QDeclarativeOrganizerItemDetailRangeFilterEE)
    .constdata__ZTIN19QDeclarativePrivate19QDeclarativeElementI43QDeclarativeOrganizerItemIntersectionFilterEE 0x00038a0c   Section       12  plugin.o(.constdata__ZTIN19QDeclarativePrivate19QDeclarativeElementI43QDeclarativeOrganizerItemIntersectionFilterEE)
    .constdata__ZTS11QMetaObject             0x00038a18   Section       14  qdeclarativeopenmetaobject.o(.constdata__ZTS11QMetaObject)
    .constdata__ZTS18QMetaObjectBuilder      0x00038a26   Section       21  qmetaobjectbuilder.o(.constdata__ZTS18QMetaObjectBuilder)
    .constdata__ZTS19QOrganizerQmlPlugin     0x00038a3b   Section       22  plugin.o(.constdata__ZTS19QOrganizerQmlPlugin)
    .constdata__ZTS25QDeclarativeOrganizerItem 0x00038a51   Section       28  moc_qdeclarativeorganizeritem_p.o(.constdata__ZTS25QDeclarativeOrganizerItem)
    .constdata__ZTS25QDeclarativeOrganizerNote 0x00038a6d   Section       28  moc_qdeclarativeorganizeritem_p.o(.constdata__ZTS25QDeclarativeOrganizerNote)
    .constdata__ZTS25QDeclarativeOrganizerTodo 0x00038a89   Section       28  moc_qdeclarativeorganizeritem_p.o(.constdata__ZTS25QDeclarativeOrganizerTodo)
    .constdata__ZTS26QAbstractDynamicMetaObject 0x00038aa5   Section       29  qdeclarativeopenmetaobject.o(.constdata__ZTS26QAbstractDynamicMetaObject)
    .constdata__ZTS26QDeclarativeOpenMetaObject 0x00038ac2   Section       29  qdeclarativeopenmetaobject.o(.constdata__ZTS26QDeclarativeOpenMetaObject)
    .constdata__ZTS26QDeclarativeOrganizerEvent 0x00038adf   Section       29  moc_qdeclarativeorganizeritem_p.o(.constdata__ZTS26QDeclarativeOrganizerEvent)
    .constdata__ZTS26QDeclarativeOrganizerModel 0x00038afc   Section       29  moc_qdeclarativeorganizermodel_p.o(.constdata__ZTS26QDeclarativeOrganizerModel)
    .constdata__ZTS28QDeclarativeOrganizerJournal 0x00038b19   Section       31  moc_qdeclarativeorganizeritem_p.o(.constdata__ZTS28QDeclarativeOrganizerJournal)
    .constdata__ZTS29QDeclarativeOrganizerItemGuid 0x00038b38   Section       32  moc_qdeclarativeorganizeritemdetail_p.o(.constdata__ZTS29QDeclarativeOrganizerItemGuid)
    .constdata__ZTS29QDeclarativeOrganizerItemType 0x00038b58   Section       32  moc_qdeclarativeorganizeritemdetail_p.o(.constdata__ZTS29QDeclarativeOrganizerItemType)
    .constdata__ZTS29QDeclarativeOrganizerTodoTime 0x00038b78   Section       32  moc_qdeclarativeorganizeritemdetail_p.o(.constdata__ZTS29QDeclarativeOrganizerTodoTime)
    .constdata__ZTS30QDeclarativeOrganizerEventTime 0x00038b98   Section       33  moc_qdeclarativeorganizeritemdetail_p.o(.constdata__ZTS30QDeclarativeOrganizerEventTime)
    .constdata__ZTS31QDeclarativeOrganizerCollection 0x00038bb9   Section       34  moc_qdeclarativeorganizercollection_p.o(.constdata__ZTS31QDeclarativeOrganizerCollection)
    .constdata__ZTS31QDeclarativeOrganizerItemDetail 0x00038bdb   Section       34  moc_qdeclarativeorganizeritemdetail_p.o(.constdata__ZTS31QDeclarativeOrganizerItemDetail)
    .constdata__ZTS31QDeclarativeOrganizerItemFilter 0x00038bfd   Section       34  moc_qdeclarativeorganizeritemfilter_p.o(.constdata__ZTS31QDeclarativeOrganizerItemFilter)
    .constdata__ZTS31QDeclarativeOrganizerItemParent 0x00038c1f   Section       34  moc_qdeclarativeorganizeritemdetail_p.o(.constdata__ZTS31QDeclarativeOrganizerItemParent)
    .constdata__ZTS32QDeclarativeOrganizerItemComment 0x00038c41   Section       35  moc_qdeclarativeorganizeritemdetail_p.o(.constdata__ZTS32QDeclarativeOrganizerItemComment)
    .constdata__ZTS32QDeclarativeOrganizerJournalTime 0x00038c64   Section       35  moc_qdeclarativeorganizeritemdetail_p.o(.constdata__ZTS32QDeclarativeOrganizerJournalTime)
    .constdata__ZTS33QDeclarativeOrganizerItemIdFilter 0x00038c87   Section       36  moc_qdeclarativeorganizeritemfilter_p.o(.constdata__ZTS33QDeclarativeOrganizerItemIdFilter)
    .constdata__ZTS33QDeclarativeOrganizerItemLocation 0x00038cab   Section       36  moc_qdeclarativeorganizeritemdetail_p.o(.constdata__ZTS33QDeclarativeOrganizerItemLocation)
    .constdata__ZTS33QDeclarativeOrganizerItemPriority 0x00038ccf   Section       36  moc_qdeclarativeorganizeritemdetail_p.o(.constdata__ZTS33QDeclarativeOrganizerItemPriority)
    .constdata__ZTS33QDeclarativeOrganizerItemReminder 0x00038cf3   Section       36  moc_qdeclarativeorganizeritemdetail_p.o(.constdata__ZTS33QDeclarativeOrganizerItemReminder)
    .constdata__ZTS33QDeclarativeOrganizerTodoProgress 0x00038d17   Section       36  moc_qdeclarativeorganizeritemdetail_p.o(.constdata__ZTS33QDeclarativeOrganizerTodoProgress)
    .constdata__ZTS34QDeclarativeOrganizerItemFetchHint 0x00038d3b   Section       37  moc_qdeclarativeorganizeritemfetchhint_p.o(.constdata__ZTS34QDeclarativeOrganizerItemFetchHint)
    .constdata__ZTS34QDeclarativeOrganizerItemSortOrder 0x00038d60   Section       37  moc_qdeclarativeorganizeritemsortorder_p.o(.constdata__ZTS34QDeclarativeOrganizerItemSortOrder)
    .constdata__ZTS34QDeclarativeOrganizerItemTimestamp 0x00038d85   Section       37  moc_qdeclarativeorganizeritemdetail_p.o(.constdata__ZTS34QDeclarativeOrganizerItemTimestamp)
    .constdata__ZTS35QDeclarativeOrganizerItemMetaObject 0x00038daa   Section       38  qdeclarativeorganizeritemmetaobject.o(.constdata__ZTS35QDeclarativeOrganizerItemMetaObject)
    .constdata__ZTS35QDeclarativeOrganizerItemRecurrence 0x00038dd0   Section       38  moc_qdeclarativeorganizeritemdetail_p.o(.constdata__ZTS35QDeclarativeOrganizerItemRecurrence)
    .constdata__ZTS35QDeclarativeOrganizerRecurrenceRule 0x00038df6   Section       38  moc_qdeclarativeorganizerrecurrencerule_p.o(.constdata__ZTS35QDeclarativeOrganizerRecurrenceRule)
    .constdata__ZTS35QDeclarativeOrganizerTodoOccurrence 0x00038e1c   Section       38  moc_qdeclarativeorganizeritem_p.o(.constdata__ZTS35QDeclarativeOrganizerTodoOccurrence)
    .constdata__ZTS36QDeclarativeOrganizerEventOccurrence 0x00038e42   Section       39  moc_qdeclarativeorganizeritem_p.o(.constdata__ZTS36QDeclarativeOrganizerEventOccurrence)
    .constdata__ZTS36QDeclarativeOrganizerItemDescription 0x00038e69   Section       39  moc_qdeclarativeorganizeritemdetail_p.o(.constdata__ZTS36QDeclarativeOrganizerItemDescription)
    .constdata__ZTS36QDeclarativeOrganizerItemUnionFilter 0x00038e90   Section       39  moc_qdeclarativeorganizeritemfilter_p.o(.constdata__ZTS36QDeclarativeOrganizerItemUnionFilter)
    .constdata__ZTS37QDeclarativeOrganizerItemDetailFilter 0x00038eb7   Section       40  moc_qdeclarativeorganizeritemfilter_p.o(.constdata__ZTS37QDeclarativeOrganizerItemDetailFilter)
    .constdata__ZTS37QDeclarativeOrganizerItemDisplayLabel 0x00038edf   Section       40  moc_qdeclarativeorganizeritemdetail_p.o(.constdata__ZTS37QDeclarativeOrganizerItemDisplayLabel)
    .constdata__ZTS38QDeclarativeOrganizerItemEmailReminder 0x00038f07   Section       41  moc_qdeclarativeorganizeritemdetail_p.o(.constdata__ZTS38QDeclarativeOrganizerItemEmailReminder)
    .constdata__ZTS38QDeclarativeOrganizerItemInvalidFilter 0x00038f30   Section       41  moc_qdeclarativeorganizeritemfilter_p.o(.constdata__ZTS38QDeclarativeOrganizerItemInvalidFilter)
    .constdata__ZTS39QDeclarativeOrganizerItemVisualReminder 0x00038f59   Section       42  moc_qdeclarativeorganizeritemdetail_p.o(.constdata__ZTS39QDeclarativeOrganizerItemVisualReminder)
    .constdata__ZTS40QDeclarativeOrganizerItemAudibleReminder 0x00038f83   Section       43  moc_qdeclarativeorganizeritemdetail_p.o(.constdata__ZTS40QDeclarativeOrganizerItemAudibleReminder)
    .constdata__ZTS40QDeclarativeOrganizerItemChangeLogFilter 0x00038fae   Section       43  moc_qdeclarativeorganizeritemfilter_p.o(.constdata__ZTS40QDeclarativeOrganizerItemChangeLogFilter)
    .constdata__ZTS41QDeclarativeOrganizerItemCollectionFilter 0x00038fd9   Section       44  moc_qdeclarativeorganizeritemfilter_p.o(.constdata__ZTS41QDeclarativeOrganizerItemCollectionFilter)
    .constdata__ZTS42QDeclarativeOrganizerItemDetailRangeFilter 0x00039005   Section       45  moc_qdeclarativeorganizeritemfilter_p.o(.constdata__ZTS42QDeclarativeOrganizerItemDetailRangeFilter)
    .constdata__ZTS43QDeclarativeOrganizerItemIntersectionFilter 0x00039032   Section       46  moc_qdeclarativeorganizeritemfilter_p.o(.constdata__ZTS43QDeclarativeOrganizerItemIntersectionFilter)
    .constdata__ZTSN19QDeclarativePrivate19QDeclarativeElementI25QDeclarativeOrganizerItemEE 0x00039060   Section       74  plugin.o(.constdata__ZTSN19QDeclarativePrivate19QDeclarativeElementI25QDeclarativeOrganizerItemEE)
    .constdata__ZTSN19QDeclarativePrivate19QDeclarativeElementI25QDeclarativeOrganizerNoteEE 0x000390aa   Section       74  plugin.o(.constdata__ZTSN19QDeclarativePrivate19QDeclarativeElementI25QDeclarativeOrganizerNoteEE)
    .constdata__ZTSN19QDeclarativePrivate19QDeclarativeElementI25QDeclarativeOrganizerTodoEE 0x000390f4   Section       74  plugin.o(.constdata__ZTSN19QDeclarativePrivate19QDeclarativeElementI25QDeclarativeOrganizerTodoEE)
    .constdata__ZTSN19QDeclarativePrivate19QDeclarativeElementI26QDeclarativeOrganizerEventEE 0x0003913e   Section       75  plugin.o(.constdata__ZTSN19QDeclarativePrivate19QDeclarativeElementI26QDeclarativeOrganizerEventEE)
    .constdata__ZTSN19QDeclarativePrivate19QDeclarativeElementI26QDeclarativeOrganizerModelEE 0x00039189   Section       75  plugin.o(.constdata__ZTSN19QDeclarativePrivate19QDeclarativeElementI26QDeclarativeOrganizerModelEE)
    .constdata__ZTSN19QDeclarativePrivate19QDeclarativeElementI28QDeclarativeOrganizerJournalEE 0x000391d4   Section       77  plugin.o(.constdata__ZTSN19QDeclarativePrivate19QDeclarativeElementI28QDeclarativeOrganizerJournalEE)
    .constdata__ZTSN19QDeclarativePrivate19QDeclarativeElementI29QDeclarativeOrganizerItemGuidEE 0x00039221   Section       78  plugin.o(.constdata__ZTSN19QDeclarativePrivate19QDeclarativeElementI29QDeclarativeOrganizerItemGuidEE)
    .constdata__ZTSN19QDeclarativePrivate19QDeclarativeElementI29QDeclarativeOrganizerItemTypeEE 0x0003926f   Section       78  plugin.o(.constdata__ZTSN19QDeclarativePrivate19QDeclarativeElementI29QDeclarativeOrganizerItemTypeEE)
    .constdata__ZTSN19QDeclarativePrivate19QDeclarativeElementI29QDeclarativeOrganizerTodoTimeEE 0x000392bd   Section       78  plugin.o(.constdata__ZTSN19QDeclarativePrivate19QDeclarativeElementI29QDeclarativeOrganizerTodoTimeEE)
    .constdata__ZTSN19QDeclarativePrivate19QDeclarativeElementI30QDeclarativeOrganizerEventTimeEE 0x0003930b   Section       79  plugin.o(.constdata__ZTSN19QDeclarativePrivate19QDeclarativeElementI30QDeclarativeOrganizerEventTimeEE)
    .constdata__ZTSN19QDeclarativePrivate19QDeclarativeElementI31QDeclarativeOrganizerCollectionEE 0x0003935a   Section       80  plugin.o(.constdata__ZTSN19QDeclarativePrivate19QDeclarativeElementI31QDeclarativeOrganizerCollectionEE)
    .constdata__ZTSN19QDeclarativePrivate19QDeclarativeElementI31QDeclarativeOrganizerItemDetailEE 0x000393aa   Section       80  plugin.o(.constdata__ZTSN19QDeclarativePrivate19QDeclarativeElementI31QDeclarativeOrganizerItemDetailEE)
    .constdata__ZTSN19QDeclarativePrivate19QDeclarativeElementI31QDeclarativeOrganizerItemFilterEE 0x000393fa   Section       80  plugin.o(.constdata__ZTSN19QDeclarativePrivate19QDeclarativeElementI31QDeclarativeOrganizerItemFilterEE)
    .constdata__ZTSN19QDeclarativePrivate19QDeclarativeElementI31QDeclarativeOrganizerItemParentEE 0x0003944a   Section       80  plugin.o(.constdata__ZTSN19QDeclarativePrivate19QDeclarativeElementI31QDeclarativeOrganizerItemParentEE)
    .constdata__ZTSN19QDeclarativePrivate19QDeclarativeElementI32QDeclarativeOrganizerJournalTimeEE 0x0003949a   Section       81  plugin.o(.constdata__ZTSN19QDeclarativePrivate19QDeclarativeElementI32QDeclarativeOrganizerJournalTimeEE)
    .constdata__ZTSN19QDeclarativePrivate19QDeclarativeElementI33QDeclarativeOrganizerItemIdFilterEE 0x000394eb   Section       82  plugin.o(.constdata__ZTSN19QDeclarativePrivate19QDeclarativeElementI33QDeclarativeOrganizerItemIdFilterEE)
    .constdata__ZTSN19QDeclarativePrivate19QDeclarativeElementI33QDeclarativeOrganizerItemLocationEE 0x0003953d   Section       82  plugin.o(.constdata__ZTSN19QDeclarativePrivate19QDeclarativeElementI33QDeclarativeOrganizerItemLocationEE)
    .constdata__ZTSN19QDeclarativePrivate19QDeclarativeElementI33QDeclarativeOrganizerItemPriorityEE 0x0003958f   Section       82  plugin.o(.constdata__ZTSN19QDeclarativePrivate19QDeclarativeElementI33QDeclarativeOrganizerItemPriorityEE)
    .constdata__ZTSN19QDeclarativePrivate19QDeclarativeElementI33QDeclarativeOrganizerItemReminderEE 0x000395e1   Section       82  plugin.o(.constdata__ZTSN19QDeclarativePrivate19QDeclarativeElementI33QDeclarativeOrganizerItemReminderEE)
    .constdata__ZTSN19QDeclarativePrivate19QDeclarativeElementI33QDeclarativeOrganizerTodoProgressEE 0x00039633   Section       82  plugin.o(.constdata__ZTSN19QDeclarativePrivate19QDeclarativeElementI33QDeclarativeOrganizerTodoProgressEE)
    .constdata__ZTSN19QDeclarativePrivate19QDeclarativeElementI34QDeclarativeOrganizerItemFetchHintEE 0x00039685   Section       83  plugin.o(.constdata__ZTSN19QDeclarativePrivate19QDeclarativeElementI34QDeclarativeOrganizerItemFetchHintEE)
    .constdata__ZTSN19QDeclarativePrivate19QDeclarativeElementI34QDeclarativeOrganizerItemSortOrderEE 0x000396d8   Section       83  plugin.o(.constdata__ZTSN19QDeclarativePrivate19QDeclarativeElementI34QDeclarativeOrganizerItemSortOrderEE)
    .constdata__ZTSN19QDeclarativePrivate19QDeclarativeElementI34QDeclarativeOrganizerItemTimestampEE 0x0003972b   Section       83  plugin.o(.constdata__ZTSN19QDeclarativePrivate19QDeclarativeElementI34QDeclarativeOrganizerItemTimestampEE)
    .constdata__ZTSN19QDeclarativePrivate19QDeclarativeElementI35QDeclarativeOrganizerItemRecurrenceEE 0x0003977e   Section       84  plugin.o(.constdata__ZTSN19QDeclarativePrivate19QDeclarativeElementI35QDeclarativeOrganizerItemRecurrenceEE)
    .constdata__ZTSN19QDeclarativePrivate19QDeclarativeElementI35QDeclarativeOrganizerRecurrenceRuleEE 0x000397d2   Section       84  plugin.o(.constdata__ZTSN19QDeclarativePrivate19QDeclarativeElementI35QDeclarativeOrganizerRecurrenceRuleEE)
    .constdata__ZTSN19QDeclarativePrivate19QDeclarativeElementI35QDeclarativeOrganizerTodoOccurrenceEE 0x00039826   Section       84  plugin.o(.constdata__ZTSN19QDeclarativePrivate19QDeclarativeElementI35QDeclarativeOrganizerTodoOccurrenceEE)
    .constdata__ZTSN19QDeclarativePrivate19QDeclarativeElementI36QDeclarativeOrganizerEventOccurrenceEE 0x0003987a   Section       85  plugin.o(.constdata__ZTSN19QDeclarativePrivate19QDeclarativeElementI36QDeclarativeOrganizerEventOccurrenceEE)
    .constdata__ZTSN19QDeclarativePrivate19QDeclarativeElementI36QDeclarativeOrganizerItemDescriptionEE 0x000398cf   Section       85  plugin.o(.constdata__ZTSN19QDeclarativePrivate19QDeclarativeElementI36QDeclarativeOrganizerItemDescriptionEE)
    .constdata__ZTSN19QDeclarativePrivate19QDeclarativeElementI36QDeclarativeOrganizerItemUnionFilterEE 0x00039924   Section       85  plugin.o(.constdata__ZTSN19QDeclarativePrivate19QDeclarativeElementI36QDeclarativeOrganizerItemUnionFilterEE)
    .constdata__ZTSN19QDeclarativePrivate19QDeclarativeElementI37QDeclarativeOrganizerItemDetailFilterEE 0x00039979   Section       86  plugin.o(.constdata__ZTSN19QDeclarativePrivate19QDeclarativeElementI37QDeclarativeOrganizerItemDetailFilterEE)
    .constdata__ZTSN19QDeclarativePrivate19QDeclarativeElementI37QDeclarativeOrganizerItemDisplayLabelEE 0x000399cf   Section       86  plugin.o(.constdata__ZTSN19QDeclarativePrivate19QDeclarativeElementI37QDeclarativeOrganizerItemDisplayLabelEE)
    .constdata__ZTSN19QDeclarativePrivate19QDeclarativeElementI38QDeclarativeOrganizerItemEmailReminderEE 0x00039a25   Section       87  plugin.o(.constdata__ZTSN19QDeclarativePrivate19QDeclarativeElementI38QDeclarativeOrganizerItemEmailReminderEE)
    .constdata__ZTSN19QDeclarativePrivate19QDeclarativeElementI38QDeclarativeOrganizerItemInvalidFilterEE 0x00039a7c   Section       87  plugin.o(.constdata__ZTSN19QDeclarativePrivate19QDeclarativeElementI38QDeclarativeOrganizerItemInvalidFilterEE)
    .constdata__ZTSN19QDeclarativePrivate19QDeclarativeElementI39QDeclarativeOrganizerItemVisualReminderEE 0x00039ad3   Section       88  plugin.o(.constdata__ZTSN19QDeclarativePrivate19QDeclarativeElementI39QDeclarativeOrganizerItemVisualReminderEE)
    .constdata__ZTSN19QDeclarativePrivate19QDeclarativeElementI40QDeclarativeOrganizerItemAudibleReminderEE 0x00039b2b   Section       89  plugin.o(.constdata__ZTSN19QDeclarativePrivate19QDeclarativeElementI40QDeclarativeOrganizerItemAudibleReminderEE)
    .constdata__ZTSN19QDeclarativePrivate19QDeclarativeElementI40QDeclarativeOrganizerItemChangeLogFilterEE 0x00039b84   Section       89  plugin.o(.constdata__ZTSN19QDeclarativePrivate19QDeclarativeElementI40QDeclarativeOrganizerItemChangeLogFilterEE)
    .constdata__ZTSN19QDeclarativePrivate19QDeclarativeElementI41QDeclarativeOrganizerItemCollectionFilterEE 0x00039bdd   Section       90  plugin.o(.constdata__ZTSN19QDeclarativePrivate19QDeclarativeElementI41QDeclarativeOrganizerItemCollectionFilterEE)
    .constdata__ZTSN19QDeclarativePrivate19QDeclarativeElementI42QDeclarativeOrganizerItemDetailRangeFilterEE 0x00039c37   Section       91  plugin.o(.constdata__ZTSN19QDeclarativePrivate19QDeclarativeElementI42QDeclarativeOrganizerItemDetailRangeFilterEE)
    .constdata__ZTSN19QDeclarativePrivate19QDeclarativeElementI43QDeclarativeOrganizerItemIntersectionFilterEE 0x00039c92   Section       92  plugin.o(.constdata__ZTSN19QDeclarativePrivate19QDeclarativeElementI43QDeclarativeOrganizerItemIntersectionFilterEE)
    .constdata__ZTV18QMetaObjectBuilder      0x00039cf0   Section       16  qmetaobjectbuilder.o(.constdata__ZTV18QMetaObjectBuilder)
    .constdata__ZTV19QOrganizerQmlPlugin     0x00039d00   Section       88  plugin.o(.constdata__ZTV19QOrganizerQmlPlugin)
    .constdata__ZTV25QDeclarativeOrganizerItem 0x00039d58   Section       56  moc_qdeclarativeorganizeritem_p.o(.constdata__ZTV25QDeclarativeOrganizerItem)
    .constdata__ZTV25QDeclarativeOrganizerNote 0x00039d90   Section       56  moc_qdeclarativeorganizeritem_p.o(.constdata__ZTV25QDeclarativeOrganizerNote)
    .constdata__ZTV25QDeclarativeOrganizerTodo 0x00039dc8   Section       56  moc_qdeclarativeorganizeritem_p.o(.constdata__ZTV25QDeclarativeOrganizerTodo)
    .constdata__ZTV26QAbstractDynamicMetaObject 0x00039e00   Section       24  qdeclarativeopenmetaobject.o(.constdata__ZTV26QAbstractDynamicMetaObject)
    .constdata__ZTV26QDeclarativeOpenMetaObject 0x00039e18   Section       44  qdeclarativeopenmetaobject.o(.constdata__ZTV26QDeclarativeOpenMetaObject)
    .constdata__ZTV26QDeclarativeOrganizerEvent 0x00039e44   Section       56  moc_qdeclarativeorganizeritem_p.o(.constdata__ZTV26QDeclarativeOrganizerEvent)
    .constdata__ZTV26QDeclarativeOrganizerModel 0x00039e7c   Section      200  moc_qdeclarativeorganizermodel_p.o(.constdata__ZTV26QDeclarativeOrganizerModel)
    .constdata__ZTV28QDeclarativeOrganizerJournal 0x00039f44   Section       56  moc_qdeclarativeorganizeritem_p.o(.constdata__ZTV28QDeclarativeOrganizerJournal)
    .constdata__ZTV29QDeclarativeOrganizerItemGuid 0x00039f7c   Section       60  moc_qdeclarativeorganizeritemdetail_p.o(.constdata__ZTV29QDeclarativeOrganizerItemGuid)
    .constdata__ZTV29QDeclarativeOrganizerItemType 0x00039fb8   Section       60  moc_qdeclarativeorganizeritemdetail_p.o(.constdata__ZTV29QDeclarativeOrganizerItemType)
    .constdata__ZTV29QDeclarativeOrganizerTodoTime 0x00039ff4   Section       60  moc_qdeclarativeorganizeritemdetail_p.o(.constdata__ZTV29QDeclarativeOrganizerTodoTime)
    .constdata__ZTV30QDeclarativeOrganizerEventTime 0x0003a030   Section       60  moc_qdeclarativeorganizeritemdetail_p.o(.constdata__ZTV30QDeclarativeOrganizerEventTime)
    .constdata__ZTV31QDeclarativeOrganizerCollection 0x0003a06c   Section       56  moc_qdeclarativeorganizercollection_p.o(.constdata__ZTV31QDeclarativeOrganizerCollection)
    .constdata__ZTV31QDeclarativeOrganizerItemDetail 0x0003a0a4   Section       60  moc_qdeclarativeorganizeritemdetail_p.o(.constdata__ZTV31QDeclarativeOrganizerItemDetail)
    .constdata__ZTV31QDeclarativeOrganizerItemFilter 0x0003a0e0   Section       60  moc_qdeclarativeorganizeritemfilter_p.o(.constdata__ZTV31QDeclarativeOrganizerItemFilter)
    .constdata__ZTV31QDeclarativeOrganizerItemParent 0x0003a11c   Section       60  moc_qdeclarativeorganizeritemdetail_p.o(.constdata__ZTV31QDeclarativeOrganizerItemParent)
    .constdata__ZTV32QDeclarativeOrganizerItemComment 0x0003a158   Section       60  moc_qdeclarativeorganizeritemdetail_p.o(.constdata__ZTV32QDeclarativeOrganizerItemComment)
    .constdata__ZTV32QDeclarativeOrganizerJournalTime 0x0003a194   Section       60  moc_qdeclarativeorganizeritemdetail_p.o(.constdata__ZTV32QDeclarativeOrganizerJournalTime)
    .constdata__ZTV33QDeclarativeOrganizerItemIdFilter 0x0003a1d0   Section       60  moc_qdeclarativeorganizeritemfilter_p.o(.constdata__ZTV33QDeclarativeOrganizerItemIdFilter)
    .constdata__ZTV33QDeclarativeOrganizerItemLocation 0x0003a20c   Section       60  moc_qdeclarativeorganizeritemdetail_p.o(.constdata__ZTV33QDeclarativeOrganizerItemLocation)
    .constdata__ZTV33QDeclarativeOrganizerItemPriority 0x0003a248   Section       60  moc_qdeclarativeorganizeritemdetail_p.o(.constdata__ZTV33QDeclarativeOrganizerItemPriority)
    .constdata__ZTV33QDeclarativeOrganizerItemReminder 0x0003a284   Section       60  moc_qdeclarativeorganizeritemdetail_p.o(.constdata__ZTV33QDeclarativeOrganizerItemReminder)
    .constdata__ZTV33QDeclarativeOrganizerTodoProgress 0x0003a2c0   Section       60  moc_qdeclarativeorganizeritemdetail_p.o(.constdata__ZTV33QDeclarativeOrganizerTodoProgress)
    .constdata__ZTV34QDeclarativeOrganizerItemFetchHint 0x0003a2fc   Section       56  moc_qdeclarativeorganizeritemfetchhint_p.o(.constdata__ZTV34QDeclarativeOrganizerItemFetchHint)
    .constdata__ZTV34QDeclarativeOrganizerItemSortOrder 0x0003a334   Section       88  moc_qdeclarativeorganizeritemsortorder_p.o(.constdata__ZTV34QDeclarativeOrganizerItemSortOrder)
    .constdata__ZTV34QDeclarativeOrganizerItemTimestamp 0x0003a38c   Section       60  moc_qdeclarativeorganizeritemdetail_p.o(.constdata__ZTV34QDeclarativeOrganizerItemTimestamp)
    .constdata__ZTV35QDeclarativeOrganizerItemMetaObject 0x0003a3c8   Section       44  qdeclarativeorganizeritemmetaobject.o(.constdata__ZTV35QDeclarativeOrganizerItemMetaObject)
    .constdata__ZTV35QDeclarativeOrganizerItemRecurrence 0x0003a3f4   Section       60  moc_qdeclarativeorganizeritemdetail_p.o(.constdata__ZTV35QDeclarativeOrganizerItemRecurrence)
    .constdata__ZTV35QDeclarativeOrganizerRecurrenceRule 0x0003a430   Section       56  moc_qdeclarativeorganizerrecurrencerule_p.o(.constdata__ZTV35QDeclarativeOrganizerRecurrenceRule)
    .constdata__ZTV35QDeclarativeOrganizerTodoOccurrence 0x0003a468   Section       56  moc_qdeclarativeorganizeritem_p.o(.constdata__ZTV35QDeclarativeOrganizerTodoOccurrence)
    .constdata__ZTV36QDeclarativeOrganizerEventOccurrence 0x0003a4a0   Section       56  moc_qdeclarativeorganizeritem_p.o(.constdata__ZTV36QDeclarativeOrganizerEventOccurrence)
    .constdata__ZTV36QDeclarativeOrganizerItemDescription 0x0003a4d8   Section       60  moc_qdeclarativeorganizeritemdetail_p.o(.constdata__ZTV36QDeclarativeOrganizerItemDescription)
    .constdata__ZTV36QDeclarativeOrganizerItemUnionFilter 0x0003a514   Section       60  moc_qdeclarativeorganizeritemfilter_p.o(.constdata__ZTV36QDeclarativeOrganizerItemUnionFilter)
    .constdata__ZTV37QDeclarativeOrganizerItemDetailFilter 0x0003a550   Section       92  moc_qdeclarativeorganizeritemfilter_p.o(.constdata__ZTV37QDeclarativeOrganizerItemDetailFilter)
    .constdata__ZTV37QDeclarativeOrganizerItemDisplayLabel 0x0003a5ac   Section       60  moc_qdeclarativeorganizeritemdetail_p.o(.constdata__ZTV37QDeclarativeOrganizerItemDisplayLabel)
    .constdata__ZTV38QDeclarativeOrganizerItemEmailReminder 0x0003a5e8   Section       60  moc_qdeclarativeorganizeritemdetail_p.o(.constdata__ZTV38QDeclarativeOrganizerItemEmailReminder)
    .constdata__ZTV38QDeclarativeOrganizerItemInvalidFilter 0x0003a624   Section       60  moc_qdeclarativeorganizeritemfilter_p.o(.constdata__ZTV38QDeclarativeOrganizerItemInvalidFilter)
    .constdata__ZTV39QDeclarativeOrganizerItemVisualReminder 0x0003a660   Section       60  moc_qdeclarativeorganizeritemdetail_p.o(.constdata__ZTV39QDeclarativeOrganizerItemVisualReminder)
    .constdata__ZTV40QDeclarativeOrganizerItemAudibleReminder 0x0003a69c   Section       60  moc_qdeclarativeorganizeritemdetail_p.o(.constdata__ZTV40QDeclarativeOrganizerItemAudibleReminder)
    .constdata__ZTV40QDeclarativeOrganizerItemChangeLogFilter 0x0003a6d8   Section       60  moc_qdeclarativeorganizeritemfilter_p.o(.constdata__ZTV40QDeclarativeOrganizerItemChangeLogFilter)
    .constdata__ZTV41QDeclarativeOrganizerItemCollectionFilter 0x0003a714   Section       60  moc_qdeclarativeorganizeritemfilter_p.o(.constdata__ZTV41QDeclarativeOrganizerItemCollectionFilter)
    .constdata__ZTV42QDeclarativeOrganizerItemDetailRangeFilter 0x0003a750   Section       92  moc_qdeclarativeorganizeritemfilter_p.o(.constdata__ZTV42QDeclarativeOrganizerItemDetailRangeFilter)
    .constdata__ZTV43QDeclarativeOrganizerItemIntersectionFilter 0x0003a7ac   Section       60  moc_qdeclarativeorganizeritemfilter_p.o(.constdata__ZTV43QDeclarativeOrganizerItemIntersectionFilter)
    .constdata__ZTVN19QDeclarativePrivate19QDeclarativeElementI25QDeclarativeOrganizerItemEE 0x0003a7e8   Section       56  plugin.o(.constdata__ZTVN19QDeclarativePrivate19QDeclarativeElementI25QDeclarativeOrganizerItemEE)
    .constdata__ZTVN19QDeclarativePrivate19QDeclarativeElementI25QDeclarativeOrganizerNoteEE 0x0003a820   Section       56  plugin.o(.constdata__ZTVN19QDeclarativePrivate19QDeclarativeElementI25QDeclarativeOrganizerNoteEE)
    .constdata__ZTVN19QDeclarativePrivate19QDeclarativeElementI25QDeclarativeOrganizerTodoEE 0x0003a858   Section       56  plugin.o(.constdata__ZTVN19QDeclarativePrivate19QDeclarativeElementI25QDeclarativeOrganizerTodoEE)
    .constdata__ZTVN19QDeclarativePrivate19QDeclarativeElementI26QDeclarativeOrganizerEventEE 0x0003a890   Section       56  plugin.o(.constdata__ZTVN19QDeclarativePrivate19QDeclarativeElementI26QDeclarativeOrganizerEventEE)
    .constdata__ZTVN19QDeclarativePrivate19QDeclarativeElementI26QDeclarativeOrganizerModelEE 0x0003a8c8   Section      200  plugin.o(.constdata__ZTVN19QDeclarativePrivate19QDeclarativeElementI26QDeclarativeOrganizerModelEE)
    .constdata__ZTVN19QDeclarativePrivate19QDeclarativeElementI28QDeclarativeOrganizerJournalEE 0x0003a990   Section       56  plugin.o(.constdata__ZTVN19QDeclarativePrivate19QDeclarativeElementI28QDeclarativeOrganizerJournalEE)
    .constdata__ZTVN19QDeclarativePrivate19QDeclarativeElementI29QDeclarativeOrganizerItemGuidEE 0x0003a9c8   Section       60  plugin.o(.constdata__ZTVN19QDeclarativePrivate19QDeclarativeElementI29QDeclarativeOrganizerItemGuidEE)
    .constdata__ZTVN19QDeclarativePrivate19QDeclarativeElementI29QDeclarativeOrganizerItemTypeEE 0x0003aa04   Section       60  plugin.o(.constdata__ZTVN19QDeclarativePrivate19QDeclarativeElementI29QDeclarativeOrganizerItemTypeEE)
    .constdata__ZTVN19QDeclarativePrivate19QDeclarativeElementI29QDeclarativeOrganizerTodoTimeEE 0x0003aa40   Section       60  plugin.o(.constdata__ZTVN19QDeclarativePrivate19QDeclarativeElementI29QDeclarativeOrganizerTodoTimeEE)
    .constdata__ZTVN19QDeclarativePrivate19QDeclarativeElementI30QDeclarativeOrganizerEventTimeEE 0x0003aa7c   Section       60  plugin.o(.constdata__ZTVN19QDeclarativePrivate19QDeclarativeElementI30QDeclarativeOrganizerEventTimeEE)
    .constdata__ZTVN19QDeclarativePrivate19QDeclarativeElementI31QDeclarativeOrganizerCollectionEE 0x0003aab8   Section       56  plugin.o(.constdata__ZTVN19QDeclarativePrivate19QDeclarativeElementI31QDeclarativeOrganizerCollectionEE)
    .constdata__ZTVN19QDeclarativePrivate19QDeclarativeElementI31QDeclarativeOrganizerItemDetailEE 0x0003aaf0   Section       60  plugin.o(.constdata__ZTVN19QDeclarativePrivate19QDeclarativeElementI31QDeclarativeOrganizerItemDetailEE)
    .constdata__ZTVN19QDeclarativePrivate19QDeclarativeElementI31QDeclarativeOrganizerItemFilterEE 0x0003ab2c   Section       60  plugin.o(.constdata__ZTVN19QDeclarativePrivate19QDeclarativeElementI31QDeclarativeOrganizerItemFilterEE)
    .constdata__ZTVN19QDeclarativePrivate19QDeclarativeElementI31QDeclarativeOrganizerItemParentEE 0x0003ab68   Section       60  plugin.o(.constdata__ZTVN19QDeclarativePrivate19QDeclarativeElementI31QDeclarativeOrganizerItemParentEE)
    .constdata__ZTVN19QDeclarativePrivate19QDeclarativeElementI32QDeclarativeOrganizerJournalTimeEE 0x0003aba4   Section       60  plugin.o(.constdata__ZTVN19QDeclarativePrivate19QDeclarativeElementI32QDeclarativeOrganizerJournalTimeEE)
    .constdata__ZTVN19QDeclarativePrivate19QDeclarativeElementI33QDeclarativeOrganizerItemIdFilterEE 0x0003abe0   Section       60  plugin.o(.constdata__ZTVN19QDeclarativePrivate19QDeclarativeElementI33QDeclarativeOrganizerItemIdFilterEE)
    .constdata__ZTVN19QDeclarativePrivate19QDeclarativeElementI33QDeclarativeOrganizerItemLocationEE 0x0003ac1c   Section       60  plugin.o(.constdata__ZTVN19QDeclarativePrivate19QDeclarativeElementI33QDeclarativeOrganizerItemLocationEE)
    .constdata__ZTVN19QDeclarativePrivate19QDeclarativeElementI33QDeclarativeOrganizerItemPriorityEE 0x0003ac58   Section       60  plugin.o(.constdata__ZTVN19QDeclarativePrivate19QDeclarativeElementI33QDeclarativeOrganizerItemPriorityEE)
    .constdata__ZTVN19QDeclarativePrivate19QDeclarativeElementI33QDeclarativeOrganizerItemReminderEE 0x0003ac94   Section       60  plugin.o(.constdata__ZTVN19QDeclarativePrivate19QDeclarativeElementI33QDeclarativeOrganizerItemReminderEE)
    .constdata__ZTVN19QDeclarativePrivate19QDeclarativeElementI33QDeclarativeOrganizerTodoProgressEE 0x0003acd0   Section       60  plugin.o(.constdata__ZTVN19QDeclarativePrivate19QDeclarativeElementI33QDeclarativeOrganizerTodoProgressEE)
    .constdata__ZTVN19QDeclarativePrivate19QDeclarativeElementI34QDeclarativeOrganizerItemFetchHintEE 0x0003ad0c   Section       56  plugin.o(.constdata__ZTVN19QDeclarativePrivate19QDeclarativeElementI34QDeclarativeOrganizerItemFetchHintEE)
    .constdata__ZTVN19QDeclarativePrivate19QDeclarativeElementI34QDeclarativeOrganizerItemSortOrderEE 0x0003ad44   Section       88  plugin.o(.constdata__ZTVN19QDeclarativePrivate19QDeclarativeElementI34QDeclarativeOrganizerItemSortOrderEE)
    .constdata__ZTVN19QDeclarativePrivate19QDeclarativeElementI34QDeclarativeOrganizerItemTimestampEE 0x0003ad9c   Section       60  plugin.o(.constdata__ZTVN19QDeclarativePrivate19QDeclarativeElementI34QDeclarativeOrganizerItemTimestampEE)
    .constdata__ZTVN19QDeclarativePrivate19QDeclarativeElementI35QDeclarativeOrganizerItemRecurrenceEE 0x0003add8   Section       60  plugin.o(.constdata__ZTVN19QDeclarativePrivate19QDeclarativeElementI35QDeclarativeOrganizerItemRecurrenceEE)
    .constdata__ZTVN19QDeclarativePrivate19QDeclarativeElementI35QDeclarativeOrganizerRecurrenceRuleEE 0x0003ae14   Section       56  plugin.o(.constdata__ZTVN19QDeclarativePrivate19QDeclarativeElementI35QDeclarativeOrganizerRecurrenceRuleEE)
    .constdata__ZTVN19QDeclarativePrivate19QDeclarativeElementI35QDeclarativeOrganizerTodoOccurrenceEE 0x0003ae4c   Section       56  plugin.o(.constdata__ZTVN19QDeclarativePrivate19QDeclarativeElementI35QDeclarativeOrganizerTodoOccurrenceEE)
    .constdata__ZTVN19QDeclarativePrivate19QDeclarativeElementI36QDeclarativeOrganizerEventOccurrenceEE 0x0003ae84   Section       56  plugin.o(.constdata__ZTVN19QDeclarativePrivate19QDeclarativeElementI36QDeclarativeOrganizerEventOccurrenceEE)
    .constdata__ZTVN19QDeclarativePrivate19QDeclarativeElementI36QDeclarativeOrganizerItemDescriptionEE 0x0003aebc   Section       60  plugin.o(.constdata__ZTVN19QDeclarativePrivate19QDeclarativeElementI36QDeclarativeOrganizerItemDescriptionEE)
    .constdata__ZTVN19QDeclarativePrivate19QDeclarativeElementI36QDeclarativeOrganizerItemUnionFilterEE 0x0003aef8   Section       60  plugin.o(.constdata__ZTVN19QDeclarativePrivate19QDeclarativeElementI36QDeclarativeOrganizerItemUnionFilterEE)
    .constdata__ZTVN19QDeclarativePrivate19QDeclarativeElementI37QDeclarativeOrganizerItemDetailFilterEE 0x0003af34   Section       92  plugin.o(.constdata__ZTVN19QDeclarativePrivate19QDeclarativeElementI37QDeclarativeOrganizerItemDetailFilterEE)
    .constdata__ZTVN19QDeclarativePrivate19QDeclarativeElementI37QDeclarativeOrganizerItemDisplayLabelEE 0x0003af90   Section       60  plugin.o(.constdata__ZTVN19QDeclarativePrivate19QDeclarativeElementI37QDeclarativeOrganizerItemDisplayLabelEE)
    .constdata__ZTVN19QDeclarativePrivate19QDeclarativeElementI38QDeclarativeOrganizerItemEmailReminderEE 0x0003afcc   Section       60  plugin.o(.constdata__ZTVN19QDeclarativePrivate19QDeclarativeElementI38QDeclarativeOrganizerItemEmailReminderEE)
    .constdata__ZTVN19QDeclarativePrivate19QDeclarativeElementI38QDeclarativeOrganizerItemInvalidFilterEE 0x0003b008   Section       60  plugin.o(.constdata__ZTVN19QDeclarativePrivate19QDeclarativeElementI38QDeclarativeOrganizerItemInvalidFilterEE)
    .constdata__ZTVN19QDeclarativePrivate19QDeclarativeElementI39QDeclarativeOrganizerItemVisualReminderEE 0x0003b044   Section       60  plugin.o(.constdata__ZTVN19QDeclarativePrivate19QDeclarativeElementI39QDeclarativeOrganizerItemVisualReminderEE)
    .constdata__ZTVN19QDeclarativePrivate19QDeclarativeElementI40QDeclarativeOrganizerItemAudibleReminderEE 0x0003b080   Section       60  plugin.o(.constdata__ZTVN19QDeclarativePrivate19QDeclarativeElementI40QDeclarativeOrganizerItemAudibleReminderEE)
    .constdata__ZTVN19QDeclarativePrivate19QDeclarativeElementI40QDeclarativeOrganizerItemChangeLogFilterEE 0x0003b0bc   Section       60  plugin.o(.constdata__ZTVN19QDeclarativePrivate19QDeclarativeElementI40QDeclarativeOrganizerItemChangeLogFilterEE)
    .constdata__ZTVN19QDeclarativePrivate19QDeclarativeElementI41QDeclarativeOrganizerItemCollectionFilterEE 0x0003b0f8   Section       60  plugin.o(.constdata__ZTVN19QDeclarativePrivate19QDeclarativeElementI41QDeclarativeOrganizerItemCollectionFilterEE)
    .constdata__ZTVN19QDeclarativePrivate19QDeclarativeElementI42QDeclarativeOrganizerItemDetailRangeFilterEE 0x0003b134   Section       92  plugin.o(.constdata__ZTVN19QDeclarativePrivate19QDeclarativeElementI42QDeclarativeOrganizerItemDetailRangeFilterEE)
    .constdata__ZTVN19QDeclarativePrivate19QDeclarativeElementI43QDeclarativeOrganizerItemIntersectionFilterEE 0x0003b190   Section       60  plugin.o(.constdata__ZTVN19QDeclarativePrivate19QDeclarativeElementI43QDeclarativeOrganizerItemIntersectionFilterEE)
    __ARM_d__Z15qmlRegisterTypeI25QDeclarativeOrganizerItemEiPKciiS2_$67 0x0003b1cc   Data           0  plugin.o(__ARM_d__Z15qmlRegisterTypeI25QDeclarativeOrganizerItemEiPKciiS2_)
    __ARM_d__Z15qmlRegisterTypeI25QDeclarativeOrganizerItemEiPKciiS2_ 0x0003b1cc   Section       76  plugin.o(__ARM_d__Z15qmlRegisterTypeI25QDeclarativeOrganizerItemEiPKciiS2_)
    __ARM_d__Z15qmlRegisterTypeI25QDeclarativeOrganizerNoteEiPKciiS2_$79 0x0003b218   Data           0  plugin.o(__ARM_d__Z15qmlRegisterTypeI25QDeclarativeOrganizerNoteEiPKciiS2_)
    __ARM_d__Z15qmlRegisterTypeI25QDeclarativeOrganizerNoteEiPKciiS2_ 0x0003b218   Section       76  plugin.o(__ARM_d__Z15qmlRegisterTypeI25QDeclarativeOrganizerNoteEiPKciiS2_)
    __ARM_d__Z15qmlRegisterTypeI25QDeclarativeOrganizerTodoEiPKciiS2_$82 0x0003b264   Data           0  plugin.o(__ARM_d__Z15qmlRegisterTypeI25QDeclarativeOrganizerTodoEiPKciiS2_)
    __ARM_d__Z15qmlRegisterTypeI25QDeclarativeOrganizerTodoEiPKciiS2_ 0x0003b264   Section       76  plugin.o(__ARM_d__Z15qmlRegisterTypeI25QDeclarativeOrganizerTodoEiPKciiS2_)
    __ARM_d__Z15qmlRegisterTypeI26QDeclarativeOrganizerEventEiPKciiS2_$70 0x0003b2b0   Data           0  plugin.o(__ARM_d__Z15qmlRegisterTypeI26QDeclarativeOrganizerEventEiPKciiS2_)
    __ARM_d__Z15qmlRegisterTypeI26QDeclarativeOrganizerEventEiPKciiS2_ 0x0003b2b0   Section       76  plugin.o(__ARM_d__Z15qmlRegisterTypeI26QDeclarativeOrganizerEventEiPKciiS2_)
    __ARM_d__Z15qmlRegisterTypeI26QDeclarativeOrganizerModelEiPKciiS2_$52 0x0003b2fc   Data           0  plugin.o(__ARM_d__Z15qmlRegisterTypeI26QDeclarativeOrganizerModelEiPKciiS2_)
    __ARM_d__Z15qmlRegisterTypeI26QDeclarativeOrganizerModelEiPKciiS2_ 0x0003b2fc   Section       76  plugin.o(__ARM_d__Z15qmlRegisterTypeI26QDeclarativeOrganizerModelEiPKciiS2_)
    __ARM_d__Z15qmlRegisterTypeI28QDeclarativeOrganizerJournalEiPKciiS2_$76 0x0003b348   Data           0  plugin.o(__ARM_d__Z15qmlRegisterTypeI28QDeclarativeOrganizerJournalEiPKciiS2_)
    __ARM_d__Z15qmlRegisterTypeI28QDeclarativeOrganizerJournalEiPKciiS2_ 0x0003b348   Section       76  plugin.o(__ARM_d__Z15qmlRegisterTypeI28QDeclarativeOrganizerJournalEiPKciiS2_)
    __ARM_d__Z15qmlRegisterTypeI29QDeclarativeOrganizerItemGuidEiPKciiS2_$100 0x0003b394   Data           0  plugin.o(__ARM_d__Z15qmlRegisterTypeI29QDeclarativeOrganizerItemGuidEiPKciiS2_)
    __ARM_d__Z15qmlRegisterTypeI29QDeclarativeOrganizerItemGuidEiPKciiS2_ 0x0003b394   Section       76  plugin.o(__ARM_d__Z15qmlRegisterTypeI29QDeclarativeOrganizerItemGuidEiPKciiS2_)
    __ARM_d__Z15qmlRegisterTypeI29QDeclarativeOrganizerItemTypeEiPKciiS2_$130 0x0003b3e0   Data           0  plugin.o(__ARM_d__Z15qmlRegisterTypeI29QDeclarativeOrganizerItemTypeEiPKciiS2_)
    __ARM_d__Z15qmlRegisterTypeI29QDeclarativeOrganizerItemTypeEiPKciiS2_ 0x0003b3e0   Section       76  plugin.o(__ARM_d__Z15qmlRegisterTypeI29QDeclarativeOrganizerItemTypeEiPKciiS2_)
    __ARM_d__Z15qmlRegisterTypeI29QDeclarativeOrganizerTodoTimeEiPKciiS2_$139 0x0003b42c   Data           0  plugin.o(__ARM_d__Z15qmlRegisterTypeI29QDeclarativeOrganizerTodoTimeEiPKciiS2_)
    __ARM_d__Z15qmlRegisterTypeI29QDeclarativeOrganizerTodoTimeEiPKciiS2_ 0x0003b42c   Section       76  plugin.o(__ARM_d__Z15qmlRegisterTypeI29QDeclarativeOrganizerTodoTimeEiPKciiS2_)
    __ARM_d__Z15qmlRegisterTypeI30QDeclarativeOrganizerEventTimeEiPKciiS2_$91 0x0003b478   Data           0  plugin.o(__ARM_d__Z15qmlRegisterTypeI30QDeclarativeOrganizerEventTimeEiPKciiS2_)
    __ARM_d__Z15qmlRegisterTypeI30QDeclarativeOrganizerEventTimeEiPKciiS2_ 0x0003b478   Section       76  plugin.o(__ARM_d__Z15qmlRegisterTypeI30QDeclarativeOrganizerEventTimeEiPKciiS2_)
    __ARM_d__Z15qmlRegisterTypeI31QDeclarativeOrganizerCollectionEiPKciiS2_$64 0x0003b4c4   Data           0  plugin.o(__ARM_d__Z15qmlRegisterTypeI31QDeclarativeOrganizerCollectionEiPKciiS2_)
    __ARM_d__Z15qmlRegisterTypeI31QDeclarativeOrganizerCollectionEiPKciiS2_ 0x0003b4c4   Section       76  plugin.o(__ARM_d__Z15qmlRegisterTypeI31QDeclarativeOrganizerCollectionEiPKciiS2_)
    __ARM_d__Z15qmlRegisterTypeI31QDeclarativeOrganizerItemDetailEiPKciiS2_$88 0x0003b510   Data           0  plugin.o(__ARM_d__Z15qmlRegisterTypeI31QDeclarativeOrganizerItemDetailEiPKciiS2_)
    __ARM_d__Z15qmlRegisterTypeI31QDeclarativeOrganizerItemDetailEiPKciiS2_ 0x0003b510   Section       76  plugin.o(__ARM_d__Z15qmlRegisterTypeI31QDeclarativeOrganizerItemDetailEiPKciiS2_)
    __ARM_d__Z15qmlRegisterTypeI31QDeclarativeOrganizerItemFilterEiPKciiS2_$142 0x0003b55c   Data           0  plugin.o(__ARM_d__Z15qmlRegisterTypeI31QDeclarativeOrganizerItemFilterEiPKciiS2_)
    __ARM_d__Z15qmlRegisterTypeI31QDeclarativeOrganizerItemFilterEiPKciiS2_ 0x0003b55c   Section       76  plugin.o(__ARM_d__Z15qmlRegisterTypeI31QDeclarativeOrganizerItemFilterEiPKciiS2_)
    __ARM_d__Z15qmlRegisterTypeI31QDeclarativeOrganizerItemParentEiPKciiS2_$103 0x0003b5a8   Data           0  plugin.o(__ARM_d__Z15qmlRegisterTypeI31QDeclarativeOrganizerItemParentEiPKciiS2_)
    __ARM_d__Z15qmlRegisterTypeI31QDeclarativeOrganizerItemParentEiPKciiS2_ 0x0003b5a8   Section       76  plugin.o(__ARM_d__Z15qmlRegisterTypeI31QDeclarativeOrganizerItemParentEiPKciiS2_)
    __ARM_d__Z15qmlRegisterTypeI32QDeclarativeOrganizerJournalTimeEiPKciiS2_$133 0x0003b5f4   Data           0  plugin.o(__ARM_d__Z15qmlRegisterTypeI32QDeclarativeOrganizerJournalTimeEiPKciiS2_)
    __ARM_d__Z15qmlRegisterTypeI32QDeclarativeOrganizerJournalTimeEiPKciiS2_ 0x0003b5f4   Section       76  plugin.o(__ARM_d__Z15qmlRegisterTypeI32QDeclarativeOrganizerJournalTimeEiPKciiS2_)
    __ARM_d__Z15qmlRegisterTypeI33QDeclarativeOrganizerItemIdFilterEiPKciiS2_$157 0x0003b640   Data           0  plugin.o(__ARM_d__Z15qmlRegisterTypeI33QDeclarativeOrganizerItemIdFilterEiPKciiS2_)
    __ARM_d__Z15qmlRegisterTypeI33QDeclarativeOrganizerItemIdFilterEiPKciiS2_ 0x0003b640   Section       76  plugin.o(__ARM_d__Z15qmlRegisterTypeI33QDeclarativeOrganizerItemIdFilterEiPKciiS2_)
    __ARM_d__Z15qmlRegisterTypeI33QDeclarativeOrganizerItemLocationEiPKciiS2_$106 0x0003b68c   Data           0  plugin.o(__ARM_d__Z15qmlRegisterTypeI33QDeclarativeOrganizerItemLocationEiPKciiS2_)
    __ARM_d__Z15qmlRegisterTypeI33QDeclarativeOrganizerItemLocationEiPKciiS2_ 0x0003b68c   Section       76  plugin.o(__ARM_d__Z15qmlRegisterTypeI33QDeclarativeOrganizerItemLocationEiPKciiS2_)
    __ARM_d__Z15qmlRegisterTypeI33QDeclarativeOrganizerItemPriorityEiPKciiS2_$109 0x0003b6d8   Data           0  plugin.o(__ARM_d__Z15qmlRegisterTypeI33QDeclarativeOrganizerItemPriorityEiPKciiS2_)
    __ARM_d__Z15qmlRegisterTypeI33QDeclarativeOrganizerItemPriorityEiPKciiS2_ 0x0003b6d8   Section       76  plugin.o(__ARM_d__Z15qmlRegisterTypeI33QDeclarativeOrganizerItemPriorityEiPKciiS2_)
    __ARM_d__Z15qmlRegisterTypeI33QDeclarativeOrganizerItemReminderEiPKciiS2_$115 0x0003b724   Data           0  plugin.o(__ARM_d__Z15qmlRegisterTypeI33QDeclarativeOrganizerItemReminderEiPKciiS2_)
    __ARM_d__Z15qmlRegisterTypeI33QDeclarativeOrganizerItemReminderEiPKciiS2_ 0x0003b724   Section       76  plugin.o(__ARM_d__Z15qmlRegisterTypeI33QDeclarativeOrganizerItemReminderEiPKciiS2_)
    __ARM_d__Z15qmlRegisterTypeI33QDeclarativeOrganizerTodoProgressEiPKciiS2_$136 0x0003b770   Data           0  plugin.o(__ARM_d__Z15qmlRegisterTypeI33QDeclarativeOrganizerTodoProgressEiPKciiS2_)
    __ARM_d__Z15qmlRegisterTypeI33QDeclarativeOrganizerTodoProgressEiPKciiS2_ 0x0003b770   Section       76  plugin.o(__ARM_d__Z15qmlRegisterTypeI33QDeclarativeOrganizerTodoProgressEiPKciiS2_)
    __ARM_d__Z15qmlRegisterTypeI34QDeclarativeOrganizerItemFetchHintEiPKciiS2_$58 0x0003b7bc   Data           0  plugin.o(__ARM_d__Z15qmlRegisterTypeI34QDeclarativeOrganizerItemFetchHintEiPKciiS2_)
    __ARM_d__Z15qmlRegisterTypeI34QDeclarativeOrganizerItemFetchHintEiPKciiS2_ 0x0003b7bc   Section       76  plugin.o(__ARM_d__Z15qmlRegisterTypeI34QDeclarativeOrganizerItemFetchHintEiPKciiS2_)
    __ARM_d__Z15qmlRegisterTypeI34QDeclarativeOrganizerItemSortOrderEiPKciiS2_$61 0x0003b808   Data           0  plugin.o(__ARM_d__Z15qmlRegisterTypeI34QDeclarativeOrganizerItemSortOrderEiPKciiS2_)
    __ARM_d__Z15qmlRegisterTypeI34QDeclarativeOrganizerItemSortOrderEiPKciiS2_ 0x0003b808   Section       76  plugin.o(__ARM_d__Z15qmlRegisterTypeI34QDeclarativeOrganizerItemSortOrderEiPKciiS2_)
    __ARM_d__Z15qmlRegisterTypeI34QDeclarativeOrganizerItemTimestampEiPKciiS2_$127 0x0003b854   Data           0  plugin.o(__ARM_d__Z15qmlRegisterTypeI34QDeclarativeOrganizerItemTimestampEiPKciiS2_)
    __ARM_d__Z15qmlRegisterTypeI34QDeclarativeOrganizerItemTimestampEiPKciiS2_ 0x0003b854   Section       76  plugin.o(__ARM_d__Z15qmlRegisterTypeI34QDeclarativeOrganizerItemTimestampEiPKciiS2_)
    __ARM_d__Z15qmlRegisterTypeI35QDeclarativeOrganizerItemRecurrenceEiPKciiS2_$112 0x0003b8a0   Data           0  plugin.o(__ARM_d__Z15qmlRegisterTypeI35QDeclarativeOrganizerItemRecurrenceEiPKciiS2_)
    __ARM_d__Z15qmlRegisterTypeI35QDeclarativeOrganizerItemRecurrenceEiPKciiS2_ 0x0003b8a0   Section       76  plugin.o(__ARM_d__Z15qmlRegisterTypeI35QDeclarativeOrganizerItemRecurrenceEiPKciiS2_)
    __ARM_d__Z15qmlRegisterTypeI35QDeclarativeOrganizerRecurrenceRuleEiPKciiS2_$55 0x0003b8ec   Data           0  plugin.o(__ARM_d__Z15qmlRegisterTypeI35QDeclarativeOrganizerRecurrenceRuleEiPKciiS2_)
    __ARM_d__Z15qmlRegisterTypeI35QDeclarativeOrganizerRecurrenceRuleEiPKciiS2_ 0x0003b8ec   Section       76  plugin.o(__ARM_d__Z15qmlRegisterTypeI35QDeclarativeOrganizerRecurrenceRuleEiPKciiS2_)
    __ARM_d__Z15qmlRegisterTypeI35QDeclarativeOrganizerTodoOccurrenceEiPKciiS2_$85 0x0003b938   Data           0  plugin.o(__ARM_d__Z15qmlRegisterTypeI35QDeclarativeOrganizerTodoOccurrenceEiPKciiS2_)
    __ARM_d__Z15qmlRegisterTypeI35QDeclarativeOrganizerTodoOccurrenceEiPKciiS2_ 0x0003b938   Section       76  plugin.o(__ARM_d__Z15qmlRegisterTypeI35QDeclarativeOrganizerTodoOccurrenceEiPKciiS2_)
    __ARM_d__Z15qmlRegisterTypeI36QDeclarativeOrganizerEventOccurrenceEiPKciiS2_$73 0x0003b984   Data           0  plugin.o(__ARM_d__Z15qmlRegisterTypeI36QDeclarativeOrganizerEventOccurrenceEiPKciiS2_)
    __ARM_d__Z15qmlRegisterTypeI36QDeclarativeOrganizerEventOccurrenceEiPKciiS2_ 0x0003b984   Section       76  plugin.o(__ARM_d__Z15qmlRegisterTypeI36QDeclarativeOrganizerEventOccurrenceEiPKciiS2_)
    __ARM_d__Z15qmlRegisterTypeI36QDeclarativeOrganizerItemDescriptionEiPKciiS2_$94 0x0003b9d0   Data           0  plugin.o(__ARM_d__Z15qmlRegisterTypeI36QDeclarativeOrganizerItemDescriptionEiPKciiS2_)
    __ARM_d__Z15qmlRegisterTypeI36QDeclarativeOrganizerItemDescriptionEiPKciiS2_ 0x0003b9d0   Section       76  plugin.o(__ARM_d__Z15qmlRegisterTypeI36QDeclarativeOrganizerItemDescriptionEiPKciiS2_)
    __ARM_d__Z15qmlRegisterTypeI36QDeclarativeOrganizerItemUnionFilterEiPKciiS2_$163 0x0003ba1c   Data           0  plugin.o(__ARM_d__Z15qmlRegisterTypeI36QDeclarativeOrganizerItemUnionFilterEiPKciiS2_)
    __ARM_d__Z15qmlRegisterTypeI36QDeclarativeOrganizerItemUnionFilterEiPKciiS2_ 0x0003ba1c   Section       76  plugin.o(__ARM_d__Z15qmlRegisterTypeI36QDeclarativeOrganizerItemUnionFilterEiPKciiS2_)
    __ARM_d__Z15qmlRegisterTypeI37QDeclarativeOrganizerItemDetailFilterEiPKciiS2_$151 0x0003ba68   Data           0  plugin.o(__ARM_d__Z15qmlRegisterTypeI37QDeclarativeOrganizerItemDetailFilterEiPKciiS2_)
    __ARM_d__Z15qmlRegisterTypeI37QDeclarativeOrganizerItemDetailFilterEiPKciiS2_ 0x0003ba68   Section       76  plugin.o(__ARM_d__Z15qmlRegisterTypeI37QDeclarativeOrganizerItemDetailFilterEiPKciiS2_)
    __ARM_d__Z15qmlRegisterTypeI37QDeclarativeOrganizerItemDisplayLabelEiPKciiS2_$97 0x0003bab4   Data           0  plugin.o(__ARM_d__Z15qmlRegisterTypeI37QDeclarativeOrganizerItemDisplayLabelEiPKciiS2_)
    __ARM_d__Z15qmlRegisterTypeI37QDeclarativeOrganizerItemDisplayLabelEiPKciiS2_ 0x0003bab4   Section       76  plugin.o(__ARM_d__Z15qmlRegisterTypeI37QDeclarativeOrganizerItemDisplayLabelEiPKciiS2_)
    __ARM_d__Z15qmlRegisterTypeI38QDeclarativeOrganizerItemEmailReminderEiPKciiS2_$124 0x0003bb00   Data           0  plugin.o(__ARM_d__Z15qmlRegisterTypeI38QDeclarativeOrganizerItemEmailReminderEiPKciiS2_)
    __ARM_d__Z15qmlRegisterTypeI38QDeclarativeOrganizerItemEmailReminderEiPKciiS2_ 0x0003bb00   Section       76  plugin.o(__ARM_d__Z15qmlRegisterTypeI38QDeclarativeOrganizerItemEmailReminderEiPKciiS2_)
    __ARM_d__Z15qmlRegisterTypeI38QDeclarativeOrganizerItemInvalidFilterEiPKciiS2_$166 0x0003bb4c   Data           0  plugin.o(__ARM_d__Z15qmlRegisterTypeI38QDeclarativeOrganizerItemInvalidFilterEiPKciiS2_)
    __ARM_d__Z15qmlRegisterTypeI38QDeclarativeOrganizerItemInvalidFilterEiPKciiS2_ 0x0003bb4c   Section       76  plugin.o(__ARM_d__Z15qmlRegisterTypeI38QDeclarativeOrganizerItemInvalidFilterEiPKciiS2_)
    __ARM_d__Z15qmlRegisterTypeI39QDeclarativeOrganizerItemVisualReminderEiPKciiS2_$121 0x0003bb98   Data           0  plugin.o(__ARM_d__Z15qmlRegisterTypeI39QDeclarativeOrganizerItemVisualReminderEiPKciiS2_)
    __ARM_d__Z15qmlRegisterTypeI39QDeclarativeOrganizerItemVisualReminderEiPKciiS2_ 0x0003bb98   Section       76  plugin.o(__ARM_d__Z15qmlRegisterTypeI39QDeclarativeOrganizerItemVisualReminderEiPKciiS2_)
    __ARM_d__Z15qmlRegisterTypeI40QDeclarativeOrganizerItemAudibleReminderEiPKciiS2_$118 0x0003bbe4   Data           0  plugin.o(__ARM_d__Z15qmlRegisterTypeI40QDeclarativeOrganizerItemAudibleReminderEiPKciiS2_)
    __ARM_d__Z15qmlRegisterTypeI40QDeclarativeOrganizerItemAudibleReminderEiPKciiS2_ 0x0003bbe4   Section       76  plugin.o(__ARM_d__Z15qmlRegisterTypeI40QDeclarativeOrganizerItemAudibleReminderEiPKciiS2_)
    __ARM_d__Z15qmlRegisterTypeI40QDeclarativeOrganizerItemChangeLogFilterEiPKciiS2_$145 0x0003bc30   Data           0  plugin.o(__ARM_d__Z15qmlRegisterTypeI40QDeclarativeOrganizerItemChangeLogFilterEiPKciiS2_)
    __ARM_d__Z15qmlRegisterTypeI40QDeclarativeOrganizerItemChangeLogFilterEiPKciiS2_ 0x0003bc30   Section       76  plugin.o(__ARM_d__Z15qmlRegisterTypeI40QDeclarativeOrganizerItemChangeLogFilterEiPKciiS2_)
    __ARM_d__Z15qmlRegisterTypeI41QDeclarativeOrganizerItemCollectionFilterEiPKciiS2_$148 0x0003bc7c   Data           0  plugin.o(__ARM_d__Z15qmlRegisterTypeI41QDeclarativeOrganizerItemCollectionFilterEiPKciiS2_)
    __ARM_d__Z15qmlRegisterTypeI41QDeclarativeOrganizerItemCollectionFilterEiPKciiS2_ 0x0003bc7c   Section       76  plugin.o(__ARM_d__Z15qmlRegisterTypeI41QDeclarativeOrganizerItemCollectionFilterEiPKciiS2_)
    __ARM_d__Z15qmlRegisterTypeI42QDeclarativeOrganizerItemDetailRangeFilterEiPKciiS2_$154 0x0003bcc8   Data           0  plugin.o(__ARM_d__Z15qmlRegisterTypeI42QDeclarativeOrganizerItemDetailRangeFilterEiPKciiS2_)
    __ARM_d__Z15qmlRegisterTypeI42QDeclarativeOrganizerItemDetailRangeFilterEiPKciiS2_ 0x0003bcc8   Section       76  plugin.o(__ARM_d__Z15qmlRegisterTypeI42QDeclarativeOrganizerItemDetailRangeFilterEiPKciiS2_)
    __ARM_d__Z15qmlRegisterTypeI43QDeclarativeOrganizerItemIntersectionFilterEiPKciiS2_$160 0x0003bd14   Data           0  plugin.o(__ARM_d__Z15qmlRegisterTypeI43QDeclarativeOrganizerItemIntersectionFilterEiPKciiS2_)
    __ARM_d__Z15qmlRegisterTypeI43QDeclarativeOrganizerItemIntersectionFilterEiPKciiS2_ 0x0003bd14   Section       76  plugin.o(__ARM_d__Z15qmlRegisterTypeI43QDeclarativeOrganizerItemIntersectionFilterEiPKciiS2_)
    .init_array                              0x0003bd60   Section        4  qdeclarativeorganizeritemmetaobject.o(.init_array)
    .ARM.exidx                               0x0003bd64   Section        8  ucppinit.o(.ARM.exidx)
    .data$0                                  0x00400000   Data           0  plugin.o(.data)
    _ZGV_instance@qt_plugin_instance_0       0x00400000   Data           4  plugin.o(.data)
    .data                                    0x00400000   Section        8  plugin.o(.data)
    _instance@qt_plugin_instance_1           0x00400004   Data           4  plugin.o(.data)
    .data$0                                  0x00400008   Data           0  qdeclarativeorganizeritemmetaobject.o(.data)
    qt_organizerItemDetailNameMap            0x00400008   Data         368  qdeclarativeorganizeritemmetaobject.o(.data)
    .data                                    0x00400008   Section      368  qdeclarativeorganizeritemmetaobject.o(.data)
    .data$0                                  0x00400178   Data           0  ucppfini.o(.data)
    .data                                    0x00400178   Section        4  ucppfini.o(.data)
    .data__ZNSt19_Atomic_swap_structILi1EE12_S_swap_lockE 0x0040017c   Section       12  moc_qdeclarativeorganizermodel_p.o(.data__ZNSt19_Atomic_swap_structILi1EE12_S_swap_lockE)
    .data__ZZN11QMetaTypeIdI24QDeclarativeListPropertyI25QDeclarativeOrganizerItemEE14qt_metatype_idEvE11metatype_id 0x00400188   Section        4  plugin.o(.data__ZZN11QMetaTypeIdI24QDeclarativeListPropertyI25QDeclarativeOrganizerItemEE14qt_metatype_idEvE11metatype_id)
    .data__ZZN11QMetaTypeIdI24QDeclarativeListPropertyI25QDeclarativeOrganizerNoteEE14qt_metatype_idEvE11metatype_id 0x0040018c   Section        4  plugin.o(.data__ZZN11QMetaTypeIdI24QDeclarativeListPropertyI25QDeclarativeOrganizerNoteEE14qt_metatype_idEvE11metatype_id)
    .data__ZZN11QMetaTypeIdI24QDeclarativeListPropertyI25QDeclarativeOrganizerTodoEE14qt_metatype_idEvE11metatype_id 0x00400190   Section        4  plugin.o(.data__ZZN11QMetaTypeIdI24QDeclarativeListPropertyI25QDeclarativeOrganizerTodoEE14qt_metatype_idEvE11metatype_id)
    .data__ZZN11QMetaTypeIdI24QDeclarativeListPropertyI26QDeclarativeOrganizerEventEE14qt_metatype_idEvE11metatype_id 0x00400194   Section        4  plugin.o(.data__ZZN11QMetaTypeIdI24QDeclarativeListPropertyI26QDeclarativeOrganizerEventEE14qt_metatype_idEvE11metatype_id)
    .data__ZZN11QMetaTypeIdI24QDeclarativeListPropertyI28QDeclarativeOrganizerJournalEE14qt_metatype_idEvE11metatype_id 0x00400198   Section        4  plugin.o(.data__ZZN11QMetaTypeIdI24QDeclarativeListPropertyI28QDeclarativeOrganizerJournalEE14qt_metatype_idEvE11metatype_id)
    .data__ZZN11QMetaTypeIdI24QDeclarativeListPropertyI29QDeclarativeOrganizerItemGuidEE14qt_metatype_idEvE11metatype_id 0x0040019c   Section        4  plugin.o(.data__ZZN11QMetaTypeIdI24QDeclarativeListPropertyI29QDeclarativeOrganizerItemGuidEE14qt_metatype_idEvE11metatype_id)
    .data__ZZN11QMetaTypeIdI24QDeclarativeListPropertyI29QDeclarativeOrganizerItemTypeEE14qt_metatype_idEvE11metatype_id 0x004001a0   Section        4  plugin.o(.data__ZZN11QMetaTypeIdI24QDeclarativeListPropertyI29QDeclarativeOrganizerItemTypeEE14qt_metatype_idEvE11metatype_id)
    .data__ZZN11QMetaTypeIdI24QDeclarativeListPropertyI29QDeclarativeOrganizerTodoTimeEE14qt_metatype_idEvE11metatype_id 0x004001a4   Section        4  plugin.o(.data__ZZN11QMetaTypeIdI24QDeclarativeListPropertyI29QDeclarativeOrganizerTodoTimeEE14qt_metatype_idEvE11metatype_id)
    .data__ZZN11QMetaTypeIdI24QDeclarativeListPropertyI30QDeclarativeOrganizerEventTimeEE14qt_metatype_idEvE11metatype_id 0x004001a8   Section        4  plugin.o(.data__ZZN11QMetaTypeIdI24QDeclarativeListPropertyI30QDeclarativeOrganizerEventTimeEE14qt_metatype_idEvE11metatype_id)
    .data__ZZN11QMetaTypeIdI24QDeclarativeListPropertyI31QDeclarativeOrganizerCollectionEE14qt_metatype_idEvE11metatype_id 0x004001ac   Section        4  plugin.o(.data__ZZN11QMetaTypeIdI24QDeclarativeListPropertyI31QDeclarativeOrganizerCollectionEE14qt_metatype_idEvE11metatype_id)
    .data__ZZN11QMetaTypeIdI24QDeclarativeListPropertyI31QDeclarativeOrganizerItemDetailEE14qt_metatype_idEvE11metatype_id 0x004001b0   Section        4  plugin.o(.data__ZZN11QMetaTypeIdI24QDeclarativeListPropertyI31QDeclarativeOrganizerItemDetailEE14qt_metatype_idEvE11metatype_id)
    .data__ZZN11QMetaTypeIdI24QDeclarativeListPropertyI31QDeclarativeOrganizerItemFilterEE14qt_metatype_idEvE11metatype_id 0x004001b4   Section        4  plugin.o(.data__ZZN11QMetaTypeIdI24QDeclarativeListPropertyI31QDeclarativeOrganizerItemFilterEE14qt_metatype_idEvE11metatype_id)
    .data__ZZN11QMetaTypeIdI24QDeclarativeListPropertyI31QDeclarativeOrganizerItemParentEE14qt_metatype_idEvE11metatype_id 0x004001b8   Section        4  plugin.o(.data__ZZN11QMetaTypeIdI24QDeclarativeListPropertyI31QDeclarativeOrganizerItemParentEE14qt_metatype_idEvE11metatype_id)
    .data__ZZN11QMetaTypeIdI24QDeclarativeListPropertyI32QDeclarativeOrganizerJournalTimeEE14qt_metatype_idEvE11metatype_id 0x004001bc   Section        4  plugin.o(.data__ZZN11QMetaTypeIdI24QDeclarativeListPropertyI32QDeclarativeOrganizerJournalTimeEE14qt_metatype_idEvE11metatype_id)
    .data__ZZN11QMetaTypeIdI24QDeclarativeListPropertyI33QDeclarativeOrganizerItemIdFilterEE14qt_metatype_idEvE11metatype_id 0x004001c0   Section        4  plugin.o(.data__ZZN11QMetaTypeIdI24QDeclarativeListPropertyI33QDeclarativeOrganizerItemIdFilterEE14qt_metatype_idEvE11metatype_id)
    .data__ZZN11QMetaTypeIdI24QDeclarativeListPropertyI33QDeclarativeOrganizerItemLocationEE14qt_metatype_idEvE11metatype_id 0x004001c4   Section        4  plugin.o(.data__ZZN11QMetaTypeIdI24QDeclarativeListPropertyI33QDeclarativeOrganizerItemLocationEE14qt_metatype_idEvE11metatype_id)
    .data__ZZN11QMetaTypeIdI24QDeclarativeListPropertyI33QDeclarativeOrganizerItemPriorityEE14qt_metatype_idEvE11metatype_id 0x004001c8   Section        4  plugin.o(.data__ZZN11QMetaTypeIdI24QDeclarativeListPropertyI33QDeclarativeOrganizerItemPriorityEE14qt_metatype_idEvE11metatype_id)
    .data__ZZN11QMetaTypeIdI24QDeclarativeListPropertyI33QDeclarativeOrganizerItemReminderEE14qt_metatype_idEvE11metatype_id 0x004001cc   Section        4  plugin.o(.data__ZZN11QMetaTypeIdI24QDeclarativeListPropertyI33QDeclarativeOrganizerItemReminderEE14qt_metatype_idEvE11metatype_id)
    .data__ZZN11QMetaTypeIdI24QDeclarativeListPropertyI33QDeclarativeOrganizerTodoProgressEE14qt_metatype_idEvE11metatype_id 0x004001d0   Section        4  plugin.o(.data__ZZN11QMetaTypeIdI24QDeclarativeListPropertyI33QDeclarativeOrganizerTodoProgressEE14qt_metatype_idEvE11metatype_id)
    .data__ZZN11QMetaTypeIdI24QDeclarativeListPropertyI34QDeclarativeOrganizerItemFetchHintEE14qt_metatype_idEvE11metatype_id 0x004001d4   Section        4  plugin.o(.data__ZZN11QMetaTypeIdI24QDeclarativeListPropertyI34QDeclarativeOrganizerItemFetchHintEE14qt_metatype_idEvE11metatype_id)
    .data__ZZN11QMetaTypeIdI24QDeclarativeListPropertyI34QDeclarativeOrganizerItemSortOrderEE14qt_metatype_idEvE11metatype_id 0x004001d8   Section        4  plugin.o(.data__ZZN11QMetaTypeIdI24QDeclarativeListPropertyI34QDeclarativeOrganizerItemSortOrderEE14qt_metatype_idEvE11metatype_id)
    .data__ZZN11QMetaTypeIdI24QDeclarativeListPropertyI34QDeclarativeOrganizerItemTimestampEE14qt_metatype_idEvE11metatype_id 0x004001dc   Section        4  plugin.o(.data__ZZN11QMetaTypeIdI24QDeclarativeListPropertyI34QDeclarativeOrganizerItemTimestampEE14qt_metatype_idEvE11metatype_id)
    .data__ZZN11QMetaTypeIdI24QDeclarativeListPropertyI35QDeclarativeOrganizerItemRecurrenceEE14qt_metatype_idEvE11metatype_id 0x004001e0   Section        4  plugin.o(.data__ZZN11QMetaTypeIdI24QDeclarativeListPropertyI35QDeclarativeOrganizerItemRecurrenceEE14qt_metatype_idEvE11metatype_id)
    .data__ZZN11QMetaTypeIdI24QDeclarativeListPropertyI35QDeclarativeOrganizerRecurrenceRuleEE14qt_metatype_idEvE11metatype_id 0x004001e4   Section        4  plugin.o(.data__ZZN11QMetaTypeIdI24QDeclarativeListPropertyI35QDeclarativeOrganizerRecurrenceRuleEE14qt_metatype_idEvE11metatype_id)
    .data__ZZN11QMetaTypeIdI24QDeclarativeListPropertyI35QDeclarativeOrganizerTodoOccurrenceEE14qt_metatype_idEvE11metatype_id 0x004001e8   Section        4  plugin.o(.data__ZZN11QMetaTypeIdI24QDeclarativeListPropertyI35QDeclarativeOrganizerTodoOccurrenceEE14qt_metatype_idEvE11metatype_id)
    .data__ZZN11QMetaTypeIdI24QDeclarativeListPropertyI36QDeclarativeOrganizerEventOccurrenceEE14qt_metatype_idEvE11metatype_id 0x004001ec   Section        4  plugin.o(.data__ZZN11QMetaTypeIdI24QDeclarativeListPropertyI36QDeclarativeOrganizerEventOccurrenceEE14qt_metatype_idEvE11metatype_id)
    .data__ZZN11QMetaTypeIdI24QDeclarativeListPropertyI36QDeclarativeOrganizerItemDescriptionEE14qt_metatype_idEvE11metatype_id 0x004001f0   Section        4  plugin.o(.data__ZZN11QMetaTypeIdI24QDeclarativeListPropertyI36QDeclarativeOrganizerItemDescriptionEE14qt_metatype_idEvE11metatype_id)
    .data__ZZN11QMetaTypeIdI24QDeclarativeListPropertyI36QDeclarativeOrganizerItemUnionFilterEE14qt_metatype_idEvE11metatype_id 0x004001f4   Section        4  plugin.o(.data__ZZN11QMetaTypeIdI24QDeclarativeListPropertyI36QDeclarativeOrganizerItemUnionFilterEE14qt_metatype_idEvE11metatype_id)
    .data__ZZN11QMetaTypeIdI24QDeclarativeListPropertyI37QDeclarativeOrganizerItemDetailFilterEE14qt_metatype_idEvE11metatype_id 0x004001f8   Section        4  plugin.o(.data__ZZN11QMetaTypeIdI24QDeclarativeListPropertyI37QDeclarativeOrganizerItemDetailFilterEE14qt_metatype_idEvE11metatype_id)
    .data__ZZN11QMetaTypeIdI24QDeclarativeListPropertyI37QDeclarativeOrganizerItemDisplayLabelEE14qt_metatype_idEvE11metatype_id 0x004001fc   Section        4  plugin.o(.data__ZZN11QMetaTypeIdI24QDeclarativeListPropertyI37QDeclarativeOrganizerItemDisplayLabelEE14qt_metatype_idEvE11metatype_id)
    .data__ZZN11QMetaTypeIdI24QDeclarativeListPropertyI38QDeclarativeOrganizerItemEmailReminderEE14qt_metatype_idEvE11metatype_id 0x00400200   Section        4  plugin.o(.data__ZZN11QMetaTypeIdI24QDeclarativeListPropertyI38QDeclarativeOrganizerItemEmailReminderEE14qt_metatype_idEvE11metatype_id)
    .data__ZZN11QMetaTypeIdI24QDeclarativeListPropertyI38QDeclarativeOrganizerItemInvalidFilterEE14qt_metatype_idEvE11metatype_id 0x00400204   Section        4  plugin.o(.data__ZZN11QMetaTypeIdI24QDeclarativeListPropertyI38QDeclarativeOrganizerItemInvalidFilterEE14qt_metatype_idEvE11metatype_id)
    .data__ZZN11QMetaTypeIdI24QDeclarativeListPropertyI39QDeclarativeOrganizerItemVisualReminderEE14qt_metatype_idEvE11metatype_id 0x00400208   Section        4  plugin.o(.data__ZZN11QMetaTypeIdI24QDeclarativeListPropertyI39QDeclarativeOrganizerItemVisualReminderEE14qt_metatype_idEvE11metatype_id)
    .data__ZZN11QMetaTypeIdI24QDeclarativeListPropertyI40QDeclarativeOrganizerItemAudibleReminderEE14qt_metatype_idEvE11metatype_id 0x0040020c   Section        4  plugin.o(.data__ZZN11QMetaTypeIdI24QDeclarativeListPropertyI40QDeclarativeOrganizerItemAudibleReminderEE14qt_metatype_idEvE11metatype_id)
    .data__ZZN11QMetaTypeIdI24QDeclarativeListPropertyI40QDeclarativeOrganizerItemChangeLogFilterEE14qt_metatype_idEvE11metatype_id 0x00400210   Section        4  plugin.o(.data__ZZN11QMetaTypeIdI24QDeclarativeListPropertyI40QDeclarativeOrganizerItemChangeLogFilterEE14qt_metatype_idEvE11metatype_id)
    .data__ZZN11QMetaTypeIdI24QDeclarativeListPropertyI41QDeclarativeOrganizerItemCollectionFilterEE14qt_metatype_idEvE11metatype_id 0x00400214   Section        4  plugin.o(.data__ZZN11QMetaTypeIdI24QDeclarativeListPropertyI41QDeclarativeOrganizerItemCollectionFilterEE14qt_metatype_idEvE11metatype_id)
    .data__ZZN11QMetaTypeIdI24QDeclarativeListPropertyI42QDeclarativeOrganizerItemDetailRangeFilterEE14qt_metatype_idEvE11metatype_id 0x00400218   Section        4  plugin.o(.data__ZZN11QMetaTypeIdI24QDeclarativeListPropertyI42QDeclarativeOrganizerItemDetailRangeFilterEE14qt_metatype_idEvE11metatype_id)
    .data__ZZN11QMetaTypeIdI24QDeclarativeListPropertyI43QDeclarativeOrganizerItemIntersectionFilterEE14qt_metatype_idEvE11metatype_id 0x0040021c   Section        4  plugin.o(.data__ZZN11QMetaTypeIdI24QDeclarativeListPropertyI43QDeclarativeOrganizerItemIntersectionFilterEE14qt_metatype_idEvE11metatype_id)
    .data__ZZN11QMetaTypeIdI4QSetIN10QtMobility24QOrganizerRecurrenceRuleEEE14qt_metatype_idEvE11metatype_id 0x00400220   Section        4  moc_qdeclarativeorganizeritemdetail_p.o(.data__ZZN11QMetaTypeIdI4QSetIN10QtMobility24QOrganizerRecurrenceRuleEEE14qt_metatype_idEvE11metatype_id)
